ARM GAS  C:\Users\tmj32\AppData\Local\Temp\ccgaZSAc.s 			page 1


   1              		.syntax unified
   2              		.cpu cortex-m4
   3              		.eabi_attribute 27, 1
   4              		.fpu fpv4-sp-d16
   5              		.eabi_attribute 20, 1
   6              		.eabi_attribute 21, 1
   7              		.eabi_attribute 23, 3
   8              		.eabi_attribute 24, 1
   9              		.eabi_attribute 25, 1
  10              		.eabi_attribute 26, 1
  11              		.eabi_attribute 30, 6
  12              		.eabi_attribute 34, 1
  13              		.eabi_attribute 18, 4
  14              		.thumb
  15              		.syntax unified
  16              		.file	"lv_draw_basic.c"
  17              		.text
  18              	.Ltext0:
  19              		.cfi_sections	.debug_frame
  20              		.section	.text.lv_color_mix,"ax",%progbits
  21              		.align	2
  22              		.thumb
  23              		.thumb_func
  24              		.type	lv_color_mix, %function
  25              	lv_color_mix:
  26              	.LFB5:
  27              		.file 1 "..\\..\\..\\lvgl\\version_6.1.2\\lvgl\\src\\lv_draw\\../lv_misc/lv_color.h"
   1:..\..\..\lvgl\version_6.1.2\lvgl\src\lv_draw\../lv_misc/lv_color.h **** /**
   2:..\..\..\lvgl\version_6.1.2\lvgl\src\lv_draw\../lv_misc/lv_color.h ****  * @file lv_color.h
   3:..\..\..\lvgl\version_6.1.2\lvgl\src\lv_draw\../lv_misc/lv_color.h ****  *
   4:..\..\..\lvgl\version_6.1.2\lvgl\src\lv_draw\../lv_misc/lv_color.h ****  */
   5:..\..\..\lvgl\version_6.1.2\lvgl\src\lv_draw\../lv_misc/lv_color.h **** 
   6:..\..\..\lvgl\version_6.1.2\lvgl\src\lv_draw\../lv_misc/lv_color.h **** #ifndef LV_COLOR_H
   7:..\..\..\lvgl\version_6.1.2\lvgl\src\lv_draw\../lv_misc/lv_color.h **** #define LV_COLOR_H
   8:..\..\..\lvgl\version_6.1.2\lvgl\src\lv_draw\../lv_misc/lv_color.h **** 
   9:..\..\..\lvgl\version_6.1.2\lvgl\src\lv_draw\../lv_misc/lv_color.h **** #ifdef __cplusplus
  10:..\..\..\lvgl\version_6.1.2\lvgl\src\lv_draw\../lv_misc/lv_color.h **** extern "C" {
  11:..\..\..\lvgl\version_6.1.2\lvgl\src\lv_draw\../lv_misc/lv_color.h **** #endif
  12:..\..\..\lvgl\version_6.1.2\lvgl\src\lv_draw\../lv_misc/lv_color.h **** 
  13:..\..\..\lvgl\version_6.1.2\lvgl\src\lv_draw\../lv_misc/lv_color.h **** /*********************
  14:..\..\..\lvgl\version_6.1.2\lvgl\src\lv_draw\../lv_misc/lv_color.h ****  *      INCLUDES
  15:..\..\..\lvgl\version_6.1.2\lvgl\src\lv_draw\../lv_misc/lv_color.h ****  *********************/
  16:..\..\..\lvgl\version_6.1.2\lvgl\src\lv_draw\../lv_misc/lv_color.h **** #ifdef LV_CONF_INCLUDE_SIMPLE
  17:..\..\..\lvgl\version_6.1.2\lvgl\src\lv_draw\../lv_misc/lv_color.h **** #include "lv_conf.h"
  18:..\..\..\lvgl\version_6.1.2\lvgl\src\lv_draw\../lv_misc/lv_color.h **** #else
  19:..\..\..\lvgl\version_6.1.2\lvgl\src\lv_draw\../lv_misc/lv_color.h **** #include "../../../lv_conf.h"
  20:..\..\..\lvgl\version_6.1.2\lvgl\src\lv_draw\../lv_misc/lv_color.h **** #endif
  21:..\..\..\lvgl\version_6.1.2\lvgl\src\lv_draw\../lv_misc/lv_color.h **** 
  22:..\..\..\lvgl\version_6.1.2\lvgl\src\lv_draw\../lv_misc/lv_color.h **** /*Error checking*/
  23:..\..\..\lvgl\version_6.1.2\lvgl\src\lv_draw\../lv_misc/lv_color.h **** #if LV_COLOR_DEPTH == 24
  24:..\..\..\lvgl\version_6.1.2\lvgl\src\lv_draw\../lv_misc/lv_color.h **** #error "LV_COLOR_DEPTH  24 is deprecated. Use LV_COLOR_DEPTH  32 instead (lv_conf.h)"
  25:..\..\..\lvgl\version_6.1.2\lvgl\src\lv_draw\../lv_misc/lv_color.h **** #endif
  26:..\..\..\lvgl\version_6.1.2\lvgl\src\lv_draw\../lv_misc/lv_color.h **** 
  27:..\..\..\lvgl\version_6.1.2\lvgl\src\lv_draw\../lv_misc/lv_color.h **** #if LV_COLOR_DEPTH != 32 && LV_COLOR_SCREEN_TRANSP != 0
  28:..\..\..\lvgl\version_6.1.2\lvgl\src\lv_draw\../lv_misc/lv_color.h **** #error "LV_COLOR_SCREEN_TRANSP requires LV_COLOR_DEPTH == 32. Set it in lv_conf.h"
  29:..\..\..\lvgl\version_6.1.2\lvgl\src\lv_draw\../lv_misc/lv_color.h **** #endif
  30:..\..\..\lvgl\version_6.1.2\lvgl\src\lv_draw\../lv_misc/lv_color.h **** 
ARM GAS  C:\Users\tmj32\AppData\Local\Temp\ccgaZSAc.s 			page 2


  31:..\..\..\lvgl\version_6.1.2\lvgl\src\lv_draw\../lv_misc/lv_color.h **** #if LV_COLOR_DEPTH != 16 && LV_COLOR_16_SWAP != 0
  32:..\..\..\lvgl\version_6.1.2\lvgl\src\lv_draw\../lv_misc/lv_color.h **** #error "LV_COLOR_16_SWAP requires LV_COLOR_DEPTH == 16. Set it in lv_conf.h"
  33:..\..\..\lvgl\version_6.1.2\lvgl\src\lv_draw\../lv_misc/lv_color.h **** #endif
  34:..\..\..\lvgl\version_6.1.2\lvgl\src\lv_draw\../lv_misc/lv_color.h **** 
  35:..\..\..\lvgl\version_6.1.2\lvgl\src\lv_draw\../lv_misc/lv_color.h **** #include <stdint.h>
  36:..\..\..\lvgl\version_6.1.2\lvgl\src\lv_draw\../lv_misc/lv_color.h **** 
  37:..\..\..\lvgl\version_6.1.2\lvgl\src\lv_draw\../lv_misc/lv_color.h **** /*********************
  38:..\..\..\lvgl\version_6.1.2\lvgl\src\lv_draw\../lv_misc/lv_color.h ****  *      DEFINES
  39:..\..\..\lvgl\version_6.1.2\lvgl\src\lv_draw\../lv_misc/lv_color.h ****  *********************/
  40:..\..\..\lvgl\version_6.1.2\lvgl\src\lv_draw\../lv_misc/lv_color.h **** #define LV_COLOR_WHITE LV_COLOR_MAKE(0xFF, 0xFF, 0xFF)
  41:..\..\..\lvgl\version_6.1.2\lvgl\src\lv_draw\../lv_misc/lv_color.h **** #define LV_COLOR_SILVER LV_COLOR_MAKE(0xC0, 0xC0, 0xC0)
  42:..\..\..\lvgl\version_6.1.2\lvgl\src\lv_draw\../lv_misc/lv_color.h **** #define LV_COLOR_GRAY LV_COLOR_MAKE(0x80, 0x80, 0x80)
  43:..\..\..\lvgl\version_6.1.2\lvgl\src\lv_draw\../lv_misc/lv_color.h **** #define LV_COLOR_BLACK LV_COLOR_MAKE(0x00, 0x00, 0x00)
  44:..\..\..\lvgl\version_6.1.2\lvgl\src\lv_draw\../lv_misc/lv_color.h **** #define LV_COLOR_RED LV_COLOR_MAKE(0xFF, 0x00, 0x00)
  45:..\..\..\lvgl\version_6.1.2\lvgl\src\lv_draw\../lv_misc/lv_color.h **** #define LV_COLOR_MAROON LV_COLOR_MAKE(0x80, 0x00, 0x00)
  46:..\..\..\lvgl\version_6.1.2\lvgl\src\lv_draw\../lv_misc/lv_color.h **** #define LV_COLOR_YELLOW LV_COLOR_MAKE(0xFF, 0xFF, 0x00)
  47:..\..\..\lvgl\version_6.1.2\lvgl\src\lv_draw\../lv_misc/lv_color.h **** #define LV_COLOR_OLIVE LV_COLOR_MAKE(0x80, 0x80, 0x00)
  48:..\..\..\lvgl\version_6.1.2\lvgl\src\lv_draw\../lv_misc/lv_color.h **** #define LV_COLOR_LIME LV_COLOR_MAKE(0x00, 0xFF, 0x00)
  49:..\..\..\lvgl\version_6.1.2\lvgl\src\lv_draw\../lv_misc/lv_color.h **** #define LV_COLOR_GREEN LV_COLOR_MAKE(0x00, 0x80, 0x00)
  50:..\..\..\lvgl\version_6.1.2\lvgl\src\lv_draw\../lv_misc/lv_color.h **** #define LV_COLOR_CYAN LV_COLOR_MAKE(0x00, 0xFF, 0xFF)
  51:..\..\..\lvgl\version_6.1.2\lvgl\src\lv_draw\../lv_misc/lv_color.h **** #define LV_COLOR_AQUA LV_COLOR_CYAN
  52:..\..\..\lvgl\version_6.1.2\lvgl\src\lv_draw\../lv_misc/lv_color.h **** #define LV_COLOR_TEAL LV_COLOR_MAKE(0x00, 0x80, 0x80)
  53:..\..\..\lvgl\version_6.1.2\lvgl\src\lv_draw\../lv_misc/lv_color.h **** #define LV_COLOR_BLUE LV_COLOR_MAKE(0x00, 0x00, 0xFF)
  54:..\..\..\lvgl\version_6.1.2\lvgl\src\lv_draw\../lv_misc/lv_color.h **** #define LV_COLOR_NAVY LV_COLOR_MAKE(0x00, 0x00, 0x80)
  55:..\..\..\lvgl\version_6.1.2\lvgl\src\lv_draw\../lv_misc/lv_color.h **** #define LV_COLOR_MAGENTA LV_COLOR_MAKE(0xFF, 0x00, 0xFF)
  56:..\..\..\lvgl\version_6.1.2\lvgl\src\lv_draw\../lv_misc/lv_color.h **** #define LV_COLOR_PURPLE LV_COLOR_MAKE(0x80, 0x00, 0x80)
  57:..\..\..\lvgl\version_6.1.2\lvgl\src\lv_draw\../lv_misc/lv_color.h **** #define LV_COLOR_ORANGE LV_COLOR_MAKE(0xFF, 0xA5, 0x00)
  58:..\..\..\lvgl\version_6.1.2\lvgl\src\lv_draw\../lv_misc/lv_color.h **** 
  59:..\..\..\lvgl\version_6.1.2\lvgl\src\lv_draw\../lv_misc/lv_color.h **** /**
  60:..\..\..\lvgl\version_6.1.2\lvgl\src\lv_draw\../lv_misc/lv_color.h ****  * Opacity percentages.
  61:..\..\..\lvgl\version_6.1.2\lvgl\src\lv_draw\../lv_misc/lv_color.h ****  */
  62:..\..\..\lvgl\version_6.1.2\lvgl\src\lv_draw\../lv_misc/lv_color.h **** enum {
  63:..\..\..\lvgl\version_6.1.2\lvgl\src\lv_draw\../lv_misc/lv_color.h ****     LV_OPA_TRANSP = 0,
  64:..\..\..\lvgl\version_6.1.2\lvgl\src\lv_draw\../lv_misc/lv_color.h ****     LV_OPA_0      = 0,
  65:..\..\..\lvgl\version_6.1.2\lvgl\src\lv_draw\../lv_misc/lv_color.h ****     LV_OPA_10     = 25,
  66:..\..\..\lvgl\version_6.1.2\lvgl\src\lv_draw\../lv_misc/lv_color.h ****     LV_OPA_20     = 51,
  67:..\..\..\lvgl\version_6.1.2\lvgl\src\lv_draw\../lv_misc/lv_color.h ****     LV_OPA_30     = 76,
  68:..\..\..\lvgl\version_6.1.2\lvgl\src\lv_draw\../lv_misc/lv_color.h ****     LV_OPA_40     = 102,
  69:..\..\..\lvgl\version_6.1.2\lvgl\src\lv_draw\../lv_misc/lv_color.h ****     LV_OPA_50     = 127,
  70:..\..\..\lvgl\version_6.1.2\lvgl\src\lv_draw\../lv_misc/lv_color.h ****     LV_OPA_60     = 153,
  71:..\..\..\lvgl\version_6.1.2\lvgl\src\lv_draw\../lv_misc/lv_color.h ****     LV_OPA_70     = 178,
  72:..\..\..\lvgl\version_6.1.2\lvgl\src\lv_draw\../lv_misc/lv_color.h ****     LV_OPA_80     = 204,
  73:..\..\..\lvgl\version_6.1.2\lvgl\src\lv_draw\../lv_misc/lv_color.h ****     LV_OPA_90     = 229,
  74:..\..\..\lvgl\version_6.1.2\lvgl\src\lv_draw\../lv_misc/lv_color.h ****     LV_OPA_100    = 255,
  75:..\..\..\lvgl\version_6.1.2\lvgl\src\lv_draw\../lv_misc/lv_color.h ****     LV_OPA_COVER  = 255,
  76:..\..\..\lvgl\version_6.1.2\lvgl\src\lv_draw\../lv_misc/lv_color.h **** };
  77:..\..\..\lvgl\version_6.1.2\lvgl\src\lv_draw\../lv_misc/lv_color.h **** 
  78:..\..\..\lvgl\version_6.1.2\lvgl\src\lv_draw\../lv_misc/lv_color.h **** #define LV_OPA_MIN 16  /*Opacities below this will be transparent*/
  79:..\..\..\lvgl\version_6.1.2\lvgl\src\lv_draw\../lv_misc/lv_color.h **** #define LV_OPA_MAX 251 /*Opacities above this will fully cover*/
  80:..\..\..\lvgl\version_6.1.2\lvgl\src\lv_draw\../lv_misc/lv_color.h **** 
  81:..\..\..\lvgl\version_6.1.2\lvgl\src\lv_draw\../lv_misc/lv_color.h **** #if LV_COLOR_DEPTH == 1
  82:..\..\..\lvgl\version_6.1.2\lvgl\src\lv_draw\../lv_misc/lv_color.h **** #define LV_COLOR_SIZE 8
  83:..\..\..\lvgl\version_6.1.2\lvgl\src\lv_draw\../lv_misc/lv_color.h **** #elif LV_COLOR_DEPTH == 8
  84:..\..\..\lvgl\version_6.1.2\lvgl\src\lv_draw\../lv_misc/lv_color.h **** #define LV_COLOR_SIZE 8
  85:..\..\..\lvgl\version_6.1.2\lvgl\src\lv_draw\../lv_misc/lv_color.h **** #elif LV_COLOR_DEPTH == 16
  86:..\..\..\lvgl\version_6.1.2\lvgl\src\lv_draw\../lv_misc/lv_color.h **** #define LV_COLOR_SIZE 16
  87:..\..\..\lvgl\version_6.1.2\lvgl\src\lv_draw\../lv_misc/lv_color.h **** #elif LV_COLOR_DEPTH == 32
ARM GAS  C:\Users\tmj32\AppData\Local\Temp\ccgaZSAc.s 			page 3


  88:..\..\..\lvgl\version_6.1.2\lvgl\src\lv_draw\../lv_misc/lv_color.h **** #define LV_COLOR_SIZE 32
  89:..\..\..\lvgl\version_6.1.2\lvgl\src\lv_draw\../lv_misc/lv_color.h **** #else
  90:..\..\..\lvgl\version_6.1.2\lvgl\src\lv_draw\../lv_misc/lv_color.h **** #error "Invalid LV_COLOR_DEPTH in lv_conf.h! Set it to 1, 8, 16 or 32!"
  91:..\..\..\lvgl\version_6.1.2\lvgl\src\lv_draw\../lv_misc/lv_color.h **** #endif
  92:..\..\..\lvgl\version_6.1.2\lvgl\src\lv_draw\../lv_misc/lv_color.h **** 
  93:..\..\..\lvgl\version_6.1.2\lvgl\src\lv_draw\../lv_misc/lv_color.h **** /*---------------------------------------
  94:..\..\..\lvgl\version_6.1.2\lvgl\src\lv_draw\../lv_misc/lv_color.h ****  * Macros for all existing  color depths
  95:..\..\..\lvgl\version_6.1.2\lvgl\src\lv_draw\../lv_misc/lv_color.h ****  * to set/get values of the color channels
  96:..\..\..\lvgl\version_6.1.2\lvgl\src\lv_draw\../lv_misc/lv_color.h ****  *------------------------------------------*/
  97:..\..\..\lvgl\version_6.1.2\lvgl\src\lv_draw\../lv_misc/lv_color.h **** # define LV_COLOR_SET_R1(c, v) (c).ch.red = (uint8_t)((v) & 0x1);
  98:..\..\..\lvgl\version_6.1.2\lvgl\src\lv_draw\../lv_misc/lv_color.h **** # define LV_COLOR_SET_G1(c, v) (c).ch.green = (uint8_t)((v) & 0x1);
  99:..\..\..\lvgl\version_6.1.2\lvgl\src\lv_draw\../lv_misc/lv_color.h **** # define LV_COLOR_SET_B1(c, v) (c).ch.blue = (uint8_t)((v) & 0x1);
 100:..\..\..\lvgl\version_6.1.2\lvgl\src\lv_draw\../lv_misc/lv_color.h **** # define LV_COLOR_SET_A1(c, v)
 101:..\..\..\lvgl\version_6.1.2\lvgl\src\lv_draw\../lv_misc/lv_color.h **** 
 102:..\..\..\lvgl\version_6.1.2\lvgl\src\lv_draw\../lv_misc/lv_color.h **** # define LV_COLOR_GET_R1(c) (c).ch.red
 103:..\..\..\lvgl\version_6.1.2\lvgl\src\lv_draw\../lv_misc/lv_color.h **** # define LV_COLOR_GET_G1(c) (c).ch.green
 104:..\..\..\lvgl\version_6.1.2\lvgl\src\lv_draw\../lv_misc/lv_color.h **** # define LV_COLOR_GET_B1(c) (c).ch.blue
 105:..\..\..\lvgl\version_6.1.2\lvgl\src\lv_draw\../lv_misc/lv_color.h **** # define LV_COLOR_GET_A1(c) 1
 106:..\..\..\lvgl\version_6.1.2\lvgl\src\lv_draw\../lv_misc/lv_color.h **** 
 107:..\..\..\lvgl\version_6.1.2\lvgl\src\lv_draw\../lv_misc/lv_color.h **** # define LV_COLOR_SET_R8(c, v) (c).ch.red = (uint8_t)(v) & 0x7U;
 108:..\..\..\lvgl\version_6.1.2\lvgl\src\lv_draw\../lv_misc/lv_color.h **** # define LV_COLOR_SET_G8(c, v) (c).ch.green = (uint8_t)(v) & 0x7U;
 109:..\..\..\lvgl\version_6.1.2\lvgl\src\lv_draw\../lv_misc/lv_color.h **** # define LV_COLOR_SET_B8(c, v) (c).ch.blue = (uint8_t)(v) & 0x3U;
 110:..\..\..\lvgl\version_6.1.2\lvgl\src\lv_draw\../lv_misc/lv_color.h **** # define LV_COLOR_SET_A8(c, v) do {} while(0)
 111:..\..\..\lvgl\version_6.1.2\lvgl\src\lv_draw\../lv_misc/lv_color.h **** 
 112:..\..\..\lvgl\version_6.1.2\lvgl\src\lv_draw\../lv_misc/lv_color.h **** # define LV_COLOR_GET_R8(c) (c).ch.red
 113:..\..\..\lvgl\version_6.1.2\lvgl\src\lv_draw\../lv_misc/lv_color.h **** # define LV_COLOR_GET_G8(c) (c).ch.green
 114:..\..\..\lvgl\version_6.1.2\lvgl\src\lv_draw\../lv_misc/lv_color.h **** # define LV_COLOR_GET_B8(c) (c).ch.blue
 115:..\..\..\lvgl\version_6.1.2\lvgl\src\lv_draw\../lv_misc/lv_color.h **** # define LV_COLOR_GET_A8(c) 0xFF
 116:..\..\..\lvgl\version_6.1.2\lvgl\src\lv_draw\../lv_misc/lv_color.h **** 
 117:..\..\..\lvgl\version_6.1.2\lvgl\src\lv_draw\../lv_misc/lv_color.h **** # define LV_COLOR_SET_R16(c, v) (c).ch.red = (uint8_t)(v) & 0x1FU;
 118:..\..\..\lvgl\version_6.1.2\lvgl\src\lv_draw\../lv_misc/lv_color.h **** # define LV_COLOR_SET_G16(c, v) (c).ch.green = (uint8_t)(v) & 0x3FU;
 119:..\..\..\lvgl\version_6.1.2\lvgl\src\lv_draw\../lv_misc/lv_color.h **** # define LV_COLOR_SET_G16_SWAP(c, v) {(c).ch.green_h = (uint8_t)(((v) >> 3) & 0x7); (c).ch.green_l 
 120:..\..\..\lvgl\version_6.1.2\lvgl\src\lv_draw\../lv_misc/lv_color.h **** # define LV_COLOR_SET_B16(c, v) (c).ch.blue = (uint8_t)(v) & 0x1FU;
 121:..\..\..\lvgl\version_6.1.2\lvgl\src\lv_draw\../lv_misc/lv_color.h **** # define LV_COLOR_SET_A16(c, v) do {} while(0)
 122:..\..\..\lvgl\version_6.1.2\lvgl\src\lv_draw\../lv_misc/lv_color.h **** 
 123:..\..\..\lvgl\version_6.1.2\lvgl\src\lv_draw\../lv_misc/lv_color.h **** # define LV_COLOR_GET_R16(c) (c).ch.red
 124:..\..\..\lvgl\version_6.1.2\lvgl\src\lv_draw\../lv_misc/lv_color.h **** # define LV_COLOR_GET_G16(c) (c).ch.green
 125:..\..\..\lvgl\version_6.1.2\lvgl\src\lv_draw\../lv_misc/lv_color.h **** # define LV_COLOR_GET_G16_SWAP(c) (((c).ch.green_h << 3) + (c).ch.green_l)
 126:..\..\..\lvgl\version_6.1.2\lvgl\src\lv_draw\../lv_misc/lv_color.h **** # define LV_COLOR_GET_B16(c) (c).ch.blue
 127:..\..\..\lvgl\version_6.1.2\lvgl\src\lv_draw\../lv_misc/lv_color.h **** # define LV_COLOR_GET_A16(c) 0xFF
 128:..\..\..\lvgl\version_6.1.2\lvgl\src\lv_draw\../lv_misc/lv_color.h **** 
 129:..\..\..\lvgl\version_6.1.2\lvgl\src\lv_draw\../lv_misc/lv_color.h **** # define LV_COLOR_SET_R32(c, v) (c).ch.red = (uint32_t)((v) & 0xFF);
 130:..\..\..\lvgl\version_6.1.2\lvgl\src\lv_draw\../lv_misc/lv_color.h **** # define LV_COLOR_SET_G32(c, v) (c).ch.green = (uint32_t)((v) & 0xFF);
 131:..\..\..\lvgl\version_6.1.2\lvgl\src\lv_draw\../lv_misc/lv_color.h **** # define LV_COLOR_SET_B32(c, v) (c).ch.blue = (uint32_t)((v) & 0xFF);
 132:..\..\..\lvgl\version_6.1.2\lvgl\src\lv_draw\../lv_misc/lv_color.h **** # define LV_COLOR_SET_A32(c, v) (c).ch.alpha = (uint32_t)((v) & 0xFF);
 133:..\..\..\lvgl\version_6.1.2\lvgl\src\lv_draw\../lv_misc/lv_color.h **** 
 134:..\..\..\lvgl\version_6.1.2\lvgl\src\lv_draw\../lv_misc/lv_color.h **** # define LV_COLOR_GET_R32(c) (c).ch.red
 135:..\..\..\lvgl\version_6.1.2\lvgl\src\lv_draw\../lv_misc/lv_color.h **** # define LV_COLOR_GET_G32(c) (c).ch.green
 136:..\..\..\lvgl\version_6.1.2\lvgl\src\lv_draw\../lv_misc/lv_color.h **** # define LV_COLOR_GET_B32(c) (c).ch.blue
 137:..\..\..\lvgl\version_6.1.2\lvgl\src\lv_draw\../lv_misc/lv_color.h **** # define LV_COLOR_GET_A32(c) (c).ch.alpha
 138:..\..\..\lvgl\version_6.1.2\lvgl\src\lv_draw\../lv_misc/lv_color.h **** 
 139:..\..\..\lvgl\version_6.1.2\lvgl\src\lv_draw\../lv_misc/lv_color.h **** 
 140:..\..\..\lvgl\version_6.1.2\lvgl\src\lv_draw\../lv_misc/lv_color.h **** /*---------------------------------------
 141:..\..\..\lvgl\version_6.1.2\lvgl\src\lv_draw\../lv_misc/lv_color.h ****  * Macros for the current color depth
 142:..\..\..\lvgl\version_6.1.2\lvgl\src\lv_draw\../lv_misc/lv_color.h ****  * to set/get values of the color channels
 143:..\..\..\lvgl\version_6.1.2\lvgl\src\lv_draw\../lv_misc/lv_color.h ****  *------------------------------------------*/
 144:..\..\..\lvgl\version_6.1.2\lvgl\src\lv_draw\../lv_misc/lv_color.h **** #if LV_COLOR_DEPTH == 1
ARM GAS  C:\Users\tmj32\AppData\Local\Temp\ccgaZSAc.s 			page 4


 145:..\..\..\lvgl\version_6.1.2\lvgl\src\lv_draw\../lv_misc/lv_color.h **** # define LV_COLOR_SET_R(c, v) LV_COLOR_SET_R1(c,v)
 146:..\..\..\lvgl\version_6.1.2\lvgl\src\lv_draw\../lv_misc/lv_color.h **** # define LV_COLOR_SET_G(c, v) LV_COLOR_SET_G1(c,v)
 147:..\..\..\lvgl\version_6.1.2\lvgl\src\lv_draw\../lv_misc/lv_color.h **** # define LV_COLOR_SET_B(c, v) LV_COLOR_SET_B1(c,v)
 148:..\..\..\lvgl\version_6.1.2\lvgl\src\lv_draw\../lv_misc/lv_color.h **** # define LV_COLOR_SET_A(c, v) LV_COLOR_SET_A1(c,v)
 149:..\..\..\lvgl\version_6.1.2\lvgl\src\lv_draw\../lv_misc/lv_color.h **** 
 150:..\..\..\lvgl\version_6.1.2\lvgl\src\lv_draw\../lv_misc/lv_color.h **** # define LV_COLOR_GET_R(c) LV_COLOR_GET_R1(c)
 151:..\..\..\lvgl\version_6.1.2\lvgl\src\lv_draw\../lv_misc/lv_color.h **** # define LV_COLOR_GET_G(c) LV_COLOR_GET_G1(c)
 152:..\..\..\lvgl\version_6.1.2\lvgl\src\lv_draw\../lv_misc/lv_color.h **** # define LV_COLOR_GET_B(c) LV_COLOR_GET_B1(c)
 153:..\..\..\lvgl\version_6.1.2\lvgl\src\lv_draw\../lv_misc/lv_color.h **** # define LV_COLOR_GET_A(c) LV_COLOR_GET_A1(c)
 154:..\..\..\lvgl\version_6.1.2\lvgl\src\lv_draw\../lv_misc/lv_color.h **** 
 155:..\..\..\lvgl\version_6.1.2\lvgl\src\lv_draw\../lv_misc/lv_color.h **** #elif LV_COLOR_DEPTH == 8
 156:..\..\..\lvgl\version_6.1.2\lvgl\src\lv_draw\../lv_misc/lv_color.h **** # define LV_COLOR_SET_R(c, v) LV_COLOR_SET_R8(c,v)
 157:..\..\..\lvgl\version_6.1.2\lvgl\src\lv_draw\../lv_misc/lv_color.h **** # define LV_COLOR_SET_G(c, v) LV_COLOR_SET_G8(c,v)
 158:..\..\..\lvgl\version_6.1.2\lvgl\src\lv_draw\../lv_misc/lv_color.h **** # define LV_COLOR_SET_B(c, v) LV_COLOR_SET_B8(c,v)
 159:..\..\..\lvgl\version_6.1.2\lvgl\src\lv_draw\../lv_misc/lv_color.h **** # define LV_COLOR_SET_A(c, v) LV_COLOR_SET_A8(c,v)
 160:..\..\..\lvgl\version_6.1.2\lvgl\src\lv_draw\../lv_misc/lv_color.h **** 
 161:..\..\..\lvgl\version_6.1.2\lvgl\src\lv_draw\../lv_misc/lv_color.h **** # define LV_COLOR_GET_R(c) LV_COLOR_GET_R8(c)
 162:..\..\..\lvgl\version_6.1.2\lvgl\src\lv_draw\../lv_misc/lv_color.h **** # define LV_COLOR_GET_G(c) LV_COLOR_GET_G8(c)
 163:..\..\..\lvgl\version_6.1.2\lvgl\src\lv_draw\../lv_misc/lv_color.h **** # define LV_COLOR_GET_B(c) LV_COLOR_GET_B8(c)
 164:..\..\..\lvgl\version_6.1.2\lvgl\src\lv_draw\../lv_misc/lv_color.h **** # define LV_COLOR_GET_A(c) LV_COLOR_GET_A8(c)
 165:..\..\..\lvgl\version_6.1.2\lvgl\src\lv_draw\../lv_misc/lv_color.h **** 
 166:..\..\..\lvgl\version_6.1.2\lvgl\src\lv_draw\../lv_misc/lv_color.h **** #elif LV_COLOR_DEPTH == 16
 167:..\..\..\lvgl\version_6.1.2\lvgl\src\lv_draw\../lv_misc/lv_color.h **** # define LV_COLOR_SET_R(c, v) LV_COLOR_SET_R16(c,v)
 168:..\..\..\lvgl\version_6.1.2\lvgl\src\lv_draw\../lv_misc/lv_color.h **** # if LV_COLOR_16_SWAP == 0
 169:..\..\..\lvgl\version_6.1.2\lvgl\src\lv_draw\../lv_misc/lv_color.h **** #   define LV_COLOR_SET_G(c, v) LV_COLOR_SET_G16(c,v)
 170:..\..\..\lvgl\version_6.1.2\lvgl\src\lv_draw\../lv_misc/lv_color.h **** # else
 171:..\..\..\lvgl\version_6.1.2\lvgl\src\lv_draw\../lv_misc/lv_color.h **** #   define LV_COLOR_SET_G(c, v) LV_COLOR_SET_G16_SWAP(c,v)
 172:..\..\..\lvgl\version_6.1.2\lvgl\src\lv_draw\../lv_misc/lv_color.h **** # endif
 173:..\..\..\lvgl\version_6.1.2\lvgl\src\lv_draw\../lv_misc/lv_color.h **** # define LV_COLOR_SET_B(c, v) LV_COLOR_SET_B16(c,v)
 174:..\..\..\lvgl\version_6.1.2\lvgl\src\lv_draw\../lv_misc/lv_color.h **** # define LV_COLOR_SET_A(c, v) LV_COLOR_SET_A16(c,v)
 175:..\..\..\lvgl\version_6.1.2\lvgl\src\lv_draw\../lv_misc/lv_color.h **** 
 176:..\..\..\lvgl\version_6.1.2\lvgl\src\lv_draw\../lv_misc/lv_color.h **** # define LV_COLOR_GET_R(c) LV_COLOR_GET_R16(c)
 177:..\..\..\lvgl\version_6.1.2\lvgl\src\lv_draw\../lv_misc/lv_color.h **** # if LV_COLOR_16_SWAP == 0
 178:..\..\..\lvgl\version_6.1.2\lvgl\src\lv_draw\../lv_misc/lv_color.h **** #   define LV_COLOR_GET_G(c) LV_COLOR_GET_G16(c)
 179:..\..\..\lvgl\version_6.1.2\lvgl\src\lv_draw\../lv_misc/lv_color.h **** # else
 180:..\..\..\lvgl\version_6.1.2\lvgl\src\lv_draw\../lv_misc/lv_color.h **** #   define LV_COLOR_GET_G(c) LV_COLOR_GET_G16_SWAP(c)
 181:..\..\..\lvgl\version_6.1.2\lvgl\src\lv_draw\../lv_misc/lv_color.h **** # endif
 182:..\..\..\lvgl\version_6.1.2\lvgl\src\lv_draw\../lv_misc/lv_color.h **** # define LV_COLOR_GET_B(c)   LV_COLOR_GET_B16(c)
 183:..\..\..\lvgl\version_6.1.2\lvgl\src\lv_draw\../lv_misc/lv_color.h **** # define LV_COLOR_GET_A(c)   LV_COLOR_GET_A16(c)
 184:..\..\..\lvgl\version_6.1.2\lvgl\src\lv_draw\../lv_misc/lv_color.h **** 
 185:..\..\..\lvgl\version_6.1.2\lvgl\src\lv_draw\../lv_misc/lv_color.h **** #elif LV_COLOR_DEPTH == 32
 186:..\..\..\lvgl\version_6.1.2\lvgl\src\lv_draw\../lv_misc/lv_color.h **** # define LV_COLOR_SET_R(c, v) LV_COLOR_SET_R32(c,v)
 187:..\..\..\lvgl\version_6.1.2\lvgl\src\lv_draw\../lv_misc/lv_color.h **** # define LV_COLOR_SET_G(c, v) LV_COLOR_SET_G32(c,v)
 188:..\..\..\lvgl\version_6.1.2\lvgl\src\lv_draw\../lv_misc/lv_color.h **** # define LV_COLOR_SET_B(c, v) LV_COLOR_SET_B32(c,v)
 189:..\..\..\lvgl\version_6.1.2\lvgl\src\lv_draw\../lv_misc/lv_color.h **** # define LV_COLOR_SET_A(c, v) LV_COLOR_SET_A32(c,v)
 190:..\..\..\lvgl\version_6.1.2\lvgl\src\lv_draw\../lv_misc/lv_color.h **** 
 191:..\..\..\lvgl\version_6.1.2\lvgl\src\lv_draw\../lv_misc/lv_color.h **** # define LV_COLOR_GET_R(c) LV_COLOR_GET_R32(c)
 192:..\..\..\lvgl\version_6.1.2\lvgl\src\lv_draw\../lv_misc/lv_color.h **** # define LV_COLOR_GET_G(c) LV_COLOR_GET_G32(c)
 193:..\..\..\lvgl\version_6.1.2\lvgl\src\lv_draw\../lv_misc/lv_color.h **** # define LV_COLOR_GET_B(c) LV_COLOR_GET_B32(c)
 194:..\..\..\lvgl\version_6.1.2\lvgl\src\lv_draw\../lv_misc/lv_color.h **** # define LV_COLOR_GET_A(c) LV_COLOR_GET_A32(c)
 195:..\..\..\lvgl\version_6.1.2\lvgl\src\lv_draw\../lv_misc/lv_color.h **** #endif
 196:..\..\..\lvgl\version_6.1.2\lvgl\src\lv_draw\../lv_misc/lv_color.h **** 
 197:..\..\..\lvgl\version_6.1.2\lvgl\src\lv_draw\../lv_misc/lv_color.h **** /**********************
 198:..\..\..\lvgl\version_6.1.2\lvgl\src\lv_draw\../lv_misc/lv_color.h ****  *      TYPEDEFS
 199:..\..\..\lvgl\version_6.1.2\lvgl\src\lv_draw\../lv_misc/lv_color.h ****  **********************/
 200:..\..\..\lvgl\version_6.1.2\lvgl\src\lv_draw\../lv_misc/lv_color.h **** 
 201:..\..\..\lvgl\version_6.1.2\lvgl\src\lv_draw\../lv_misc/lv_color.h **** typedef union
ARM GAS  C:\Users\tmj32\AppData\Local\Temp\ccgaZSAc.s 			page 5


 202:..\..\..\lvgl\version_6.1.2\lvgl\src\lv_draw\../lv_misc/lv_color.h **** {
 203:..\..\..\lvgl\version_6.1.2\lvgl\src\lv_draw\../lv_misc/lv_color.h ****     struct
 204:..\..\..\lvgl\version_6.1.2\lvgl\src\lv_draw\../lv_misc/lv_color.h ****     {
 205:..\..\..\lvgl\version_6.1.2\lvgl\src\lv_draw\../lv_misc/lv_color.h ****         uint8_t blue : 1;
 206:..\..\..\lvgl\version_6.1.2\lvgl\src\lv_draw\../lv_misc/lv_color.h ****         uint8_t green : 1;
 207:..\..\..\lvgl\version_6.1.2\lvgl\src\lv_draw\../lv_misc/lv_color.h ****         uint8_t red : 1;
 208:..\..\..\lvgl\version_6.1.2\lvgl\src\lv_draw\../lv_misc/lv_color.h ****     } ch;
 209:..\..\..\lvgl\version_6.1.2\lvgl\src\lv_draw\../lv_misc/lv_color.h ****     uint8_t full;
 210:..\..\..\lvgl\version_6.1.2\lvgl\src\lv_draw\../lv_misc/lv_color.h **** } lv_color1_t;
 211:..\..\..\lvgl\version_6.1.2\lvgl\src\lv_draw\../lv_misc/lv_color.h **** 
 212:..\..\..\lvgl\version_6.1.2\lvgl\src\lv_draw\../lv_misc/lv_color.h **** typedef union
 213:..\..\..\lvgl\version_6.1.2\lvgl\src\lv_draw\../lv_misc/lv_color.h **** {
 214:..\..\..\lvgl\version_6.1.2\lvgl\src\lv_draw\../lv_misc/lv_color.h ****     struct
 215:..\..\..\lvgl\version_6.1.2\lvgl\src\lv_draw\../lv_misc/lv_color.h ****     {
 216:..\..\..\lvgl\version_6.1.2\lvgl\src\lv_draw\../lv_misc/lv_color.h ****         uint8_t blue : 2;
 217:..\..\..\lvgl\version_6.1.2\lvgl\src\lv_draw\../lv_misc/lv_color.h ****         uint8_t green : 3;
 218:..\..\..\lvgl\version_6.1.2\lvgl\src\lv_draw\../lv_misc/lv_color.h ****         uint8_t red : 3;
 219:..\..\..\lvgl\version_6.1.2\lvgl\src\lv_draw\../lv_misc/lv_color.h ****     } ch;
 220:..\..\..\lvgl\version_6.1.2\lvgl\src\lv_draw\../lv_misc/lv_color.h ****     uint8_t full;
 221:..\..\..\lvgl\version_6.1.2\lvgl\src\lv_draw\../lv_misc/lv_color.h **** } lv_color8_t;
 222:..\..\..\lvgl\version_6.1.2\lvgl\src\lv_draw\../lv_misc/lv_color.h **** 
 223:..\..\..\lvgl\version_6.1.2\lvgl\src\lv_draw\../lv_misc/lv_color.h **** typedef union
 224:..\..\..\lvgl\version_6.1.2\lvgl\src\lv_draw\../lv_misc/lv_color.h **** {
 225:..\..\..\lvgl\version_6.1.2\lvgl\src\lv_draw\../lv_misc/lv_color.h ****     struct
 226:..\..\..\lvgl\version_6.1.2\lvgl\src\lv_draw\../lv_misc/lv_color.h ****     {
 227:..\..\..\lvgl\version_6.1.2\lvgl\src\lv_draw\../lv_misc/lv_color.h **** #if LV_COLOR_16_SWAP == 0
 228:..\..\..\lvgl\version_6.1.2\lvgl\src\lv_draw\../lv_misc/lv_color.h ****         uint16_t blue : 5;
 229:..\..\..\lvgl\version_6.1.2\lvgl\src\lv_draw\../lv_misc/lv_color.h ****         uint16_t green : 6;
 230:..\..\..\lvgl\version_6.1.2\lvgl\src\lv_draw\../lv_misc/lv_color.h ****         uint16_t red : 5;
 231:..\..\..\lvgl\version_6.1.2\lvgl\src\lv_draw\../lv_misc/lv_color.h **** #else
 232:..\..\..\lvgl\version_6.1.2\lvgl\src\lv_draw\../lv_misc/lv_color.h ****         uint16_t green_h : 3;
 233:..\..\..\lvgl\version_6.1.2\lvgl\src\lv_draw\../lv_misc/lv_color.h ****         uint16_t red : 5;
 234:..\..\..\lvgl\version_6.1.2\lvgl\src\lv_draw\../lv_misc/lv_color.h ****         uint16_t blue : 5;
 235:..\..\..\lvgl\version_6.1.2\lvgl\src\lv_draw\../lv_misc/lv_color.h ****         uint16_t green_l : 3;
 236:..\..\..\lvgl\version_6.1.2\lvgl\src\lv_draw\../lv_misc/lv_color.h **** #endif
 237:..\..\..\lvgl\version_6.1.2\lvgl\src\lv_draw\../lv_misc/lv_color.h ****     } ch;
 238:..\..\..\lvgl\version_6.1.2\lvgl\src\lv_draw\../lv_misc/lv_color.h ****     uint16_t full;
 239:..\..\..\lvgl\version_6.1.2\lvgl\src\lv_draw\../lv_misc/lv_color.h **** } lv_color16_t;
 240:..\..\..\lvgl\version_6.1.2\lvgl\src\lv_draw\../lv_misc/lv_color.h **** 
 241:..\..\..\lvgl\version_6.1.2\lvgl\src\lv_draw\../lv_misc/lv_color.h **** typedef union
 242:..\..\..\lvgl\version_6.1.2\lvgl\src\lv_draw\../lv_misc/lv_color.h **** {
 243:..\..\..\lvgl\version_6.1.2\lvgl\src\lv_draw\../lv_misc/lv_color.h ****     struct
 244:..\..\..\lvgl\version_6.1.2\lvgl\src\lv_draw\../lv_misc/lv_color.h ****     {
 245:..\..\..\lvgl\version_6.1.2\lvgl\src\lv_draw\../lv_misc/lv_color.h ****         uint8_t blue;
 246:..\..\..\lvgl\version_6.1.2\lvgl\src\lv_draw\../lv_misc/lv_color.h ****         uint8_t green;
 247:..\..\..\lvgl\version_6.1.2\lvgl\src\lv_draw\../lv_misc/lv_color.h ****         uint8_t red;
 248:..\..\..\lvgl\version_6.1.2\lvgl\src\lv_draw\../lv_misc/lv_color.h ****         uint8_t alpha;
 249:..\..\..\lvgl\version_6.1.2\lvgl\src\lv_draw\../lv_misc/lv_color.h ****     } ch;
 250:..\..\..\lvgl\version_6.1.2\lvgl\src\lv_draw\../lv_misc/lv_color.h ****     uint32_t full;
 251:..\..\..\lvgl\version_6.1.2\lvgl\src\lv_draw\../lv_misc/lv_color.h **** } lv_color32_t;
 252:..\..\..\lvgl\version_6.1.2\lvgl\src\lv_draw\../lv_misc/lv_color.h **** 
 253:..\..\..\lvgl\version_6.1.2\lvgl\src\lv_draw\../lv_misc/lv_color.h **** #if LV_COLOR_DEPTH == 1
 254:..\..\..\lvgl\version_6.1.2\lvgl\src\lv_draw\../lv_misc/lv_color.h **** typedef uint8_t lv_color_int_t;
 255:..\..\..\lvgl\version_6.1.2\lvgl\src\lv_draw\../lv_misc/lv_color.h **** typedef lv_color1_t lv_color_t;
 256:..\..\..\lvgl\version_6.1.2\lvgl\src\lv_draw\../lv_misc/lv_color.h **** #elif LV_COLOR_DEPTH == 8
 257:..\..\..\lvgl\version_6.1.2\lvgl\src\lv_draw\../lv_misc/lv_color.h **** typedef uint8_t lv_color_int_t;
 258:..\..\..\lvgl\version_6.1.2\lvgl\src\lv_draw\../lv_misc/lv_color.h **** typedef lv_color8_t lv_color_t;
ARM GAS  C:\Users\tmj32\AppData\Local\Temp\ccgaZSAc.s 			page 6


 259:..\..\..\lvgl\version_6.1.2\lvgl\src\lv_draw\../lv_misc/lv_color.h **** #elif LV_COLOR_DEPTH == 16
 260:..\..\..\lvgl\version_6.1.2\lvgl\src\lv_draw\../lv_misc/lv_color.h **** typedef uint16_t lv_color_int_t;
 261:..\..\..\lvgl\version_6.1.2\lvgl\src\lv_draw\../lv_misc/lv_color.h **** typedef lv_color16_t lv_color_t;
 262:..\..\..\lvgl\version_6.1.2\lvgl\src\lv_draw\../lv_misc/lv_color.h **** #elif LV_COLOR_DEPTH == 32
 263:..\..\..\lvgl\version_6.1.2\lvgl\src\lv_draw\../lv_misc/lv_color.h **** typedef uint32_t lv_color_int_t;
 264:..\..\..\lvgl\version_6.1.2\lvgl\src\lv_draw\../lv_misc/lv_color.h **** typedef lv_color32_t lv_color_t;
 265:..\..\..\lvgl\version_6.1.2\lvgl\src\lv_draw\../lv_misc/lv_color.h **** #else
 266:..\..\..\lvgl\version_6.1.2\lvgl\src\lv_draw\../lv_misc/lv_color.h **** #error "Invalid LV_COLOR_DEPTH in lv_conf.h! Set it to 1, 8, 16 or 32!"
 267:..\..\..\lvgl\version_6.1.2\lvgl\src\lv_draw\../lv_misc/lv_color.h **** #endif
 268:..\..\..\lvgl\version_6.1.2\lvgl\src\lv_draw\../lv_misc/lv_color.h **** 
 269:..\..\..\lvgl\version_6.1.2\lvgl\src\lv_draw\../lv_misc/lv_color.h **** typedef uint8_t lv_opa_t;
 270:..\..\..\lvgl\version_6.1.2\lvgl\src\lv_draw\../lv_misc/lv_color.h **** 
 271:..\..\..\lvgl\version_6.1.2\lvgl\src\lv_draw\../lv_misc/lv_color.h **** typedef struct
 272:..\..\..\lvgl\version_6.1.2\lvgl\src\lv_draw\../lv_misc/lv_color.h **** {
 273:..\..\..\lvgl\version_6.1.2\lvgl\src\lv_draw\../lv_misc/lv_color.h ****     uint16_t h;
 274:..\..\..\lvgl\version_6.1.2\lvgl\src\lv_draw\../lv_misc/lv_color.h ****     uint8_t s;
 275:..\..\..\lvgl\version_6.1.2\lvgl\src\lv_draw\../lv_misc/lv_color.h ****     uint8_t v;
 276:..\..\..\lvgl\version_6.1.2\lvgl\src\lv_draw\../lv_misc/lv_color.h **** } lv_color_hsv_t;
 277:..\..\..\lvgl\version_6.1.2\lvgl\src\lv_draw\../lv_misc/lv_color.h **** 
 278:..\..\..\lvgl\version_6.1.2\lvgl\src\lv_draw\../lv_misc/lv_color.h **** /**********************
 279:..\..\..\lvgl\version_6.1.2\lvgl\src\lv_draw\../lv_misc/lv_color.h ****  * GLOBAL PROTOTYPES
 280:..\..\..\lvgl\version_6.1.2\lvgl\src\lv_draw\../lv_misc/lv_color.h ****  **********************/
 281:..\..\..\lvgl\version_6.1.2\lvgl\src\lv_draw\../lv_misc/lv_color.h **** 
 282:..\..\..\lvgl\version_6.1.2\lvgl\src\lv_draw\../lv_misc/lv_color.h **** /*In color conversations:
 283:..\..\..\lvgl\version_6.1.2\lvgl\src\lv_draw\../lv_misc/lv_color.h ****  * - When converting to bigger color type the LSB weight of 1 LSB is calculated
 284:..\..\..\lvgl\version_6.1.2\lvgl\src\lv_draw\../lv_misc/lv_color.h ****  *   E.g. 16 bit Red has 5 bits
 285:..\..\..\lvgl\version_6.1.2\lvgl\src\lv_draw\../lv_misc/lv_color.h ****  *         8 bit Red has 2 bits
 286:..\..\..\lvgl\version_6.1.2\lvgl\src\lv_draw\../lv_misc/lv_color.h ****  *        ----------------------
 287:..\..\..\lvgl\version_6.1.2\lvgl\src\lv_draw\../lv_misc/lv_color.h ****  *        8 bit red LSB = (2^5 - 1) / (2^2 - 1) = 31 / 3 = 10
 288:..\..\..\lvgl\version_6.1.2\lvgl\src\lv_draw\../lv_misc/lv_color.h ****  *
 289:..\..\..\lvgl\version_6.1.2\lvgl\src\lv_draw\../lv_misc/lv_color.h ****  * - When calculating to smaller color type simply shift out the LSBs
 290:..\..\..\lvgl\version_6.1.2\lvgl\src\lv_draw\../lv_misc/lv_color.h ****  *   E.g.  8 bit Red has 2 bits
 291:..\..\..\lvgl\version_6.1.2\lvgl\src\lv_draw\../lv_misc/lv_color.h ****  *        16 bit Red has 5 bits
 292:..\..\..\lvgl\version_6.1.2\lvgl\src\lv_draw\../lv_misc/lv_color.h ****  *        ----------------------
 293:..\..\..\lvgl\version_6.1.2\lvgl\src\lv_draw\../lv_misc/lv_color.h ****  *         Shift right with 5 - 3 = 2
 294:..\..\..\lvgl\version_6.1.2\lvgl\src\lv_draw\../lv_misc/lv_color.h ****  */
 295:..\..\..\lvgl\version_6.1.2\lvgl\src\lv_draw\../lv_misc/lv_color.h **** 
 296:..\..\..\lvgl\version_6.1.2\lvgl\src\lv_draw\../lv_misc/lv_color.h **** static inline uint8_t lv_color_to1(lv_color_t color)
 297:..\..\..\lvgl\version_6.1.2\lvgl\src\lv_draw\../lv_misc/lv_color.h **** {
 298:..\..\..\lvgl\version_6.1.2\lvgl\src\lv_draw\../lv_misc/lv_color.h **** #if LV_COLOR_DEPTH == 1
 299:..\..\..\lvgl\version_6.1.2\lvgl\src\lv_draw\../lv_misc/lv_color.h ****     return color.full;
 300:..\..\..\lvgl\version_6.1.2\lvgl\src\lv_draw\../lv_misc/lv_color.h **** #elif LV_COLOR_DEPTH == 8
 301:..\..\..\lvgl\version_6.1.2\lvgl\src\lv_draw\../lv_misc/lv_color.h ****     if((LV_COLOR_GET_R(color) & 0x4) || (LV_COLOR_GET_G(color) & 0x4) || (LV_COLOR_GET_B(color) & 0
 302:..\..\..\lvgl\version_6.1.2\lvgl\src\lv_draw\../lv_misc/lv_color.h ****         return 1;
 303:..\..\..\lvgl\version_6.1.2\lvgl\src\lv_draw\../lv_misc/lv_color.h ****     } else {
 304:..\..\..\lvgl\version_6.1.2\lvgl\src\lv_draw\../lv_misc/lv_color.h ****         return 0;
 305:..\..\..\lvgl\version_6.1.2\lvgl\src\lv_draw\../lv_misc/lv_color.h ****     }
 306:..\..\..\lvgl\version_6.1.2\lvgl\src\lv_draw\../lv_misc/lv_color.h **** #elif LV_COLOR_DEPTH == 16
 307:..\..\..\lvgl\version_6.1.2\lvgl\src\lv_draw\../lv_misc/lv_color.h ****     if((LV_COLOR_GET_R(color) & 0x10) || (LV_COLOR_GET_G(color) & 0x20) || (LV_COLOR_GET_B(color) &
 308:..\..\..\lvgl\version_6.1.2\lvgl\src\lv_draw\../lv_misc/lv_color.h ****         return 1;
 309:..\..\..\lvgl\version_6.1.2\lvgl\src\lv_draw\../lv_misc/lv_color.h ****     } else {
 310:..\..\..\lvgl\version_6.1.2\lvgl\src\lv_draw\../lv_misc/lv_color.h ****         return 0;
 311:..\..\..\lvgl\version_6.1.2\lvgl\src\lv_draw\../lv_misc/lv_color.h ****     }
 312:..\..\..\lvgl\version_6.1.2\lvgl\src\lv_draw\../lv_misc/lv_color.h **** #elif LV_COLOR_DEPTH == 32
 313:..\..\..\lvgl\version_6.1.2\lvgl\src\lv_draw\../lv_misc/lv_color.h ****     if((LV_COLOR_GET_R(color) & 0x80) || (LV_COLOR_GET_G(color) & 0x80) || (LV_COLOR_GET_B(color) &
 314:..\..\..\lvgl\version_6.1.2\lvgl\src\lv_draw\../lv_misc/lv_color.h ****         return 1;
 315:..\..\..\lvgl\version_6.1.2\lvgl\src\lv_draw\../lv_misc/lv_color.h ****     } else {
ARM GAS  C:\Users\tmj32\AppData\Local\Temp\ccgaZSAc.s 			page 7


 316:..\..\..\lvgl\version_6.1.2\lvgl\src\lv_draw\../lv_misc/lv_color.h ****         return 0;
 317:..\..\..\lvgl\version_6.1.2\lvgl\src\lv_draw\../lv_misc/lv_color.h ****     }
 318:..\..\..\lvgl\version_6.1.2\lvgl\src\lv_draw\../lv_misc/lv_color.h **** #endif
 319:..\..\..\lvgl\version_6.1.2\lvgl\src\lv_draw\../lv_misc/lv_color.h **** }
 320:..\..\..\lvgl\version_6.1.2\lvgl\src\lv_draw\../lv_misc/lv_color.h **** 
 321:..\..\..\lvgl\version_6.1.2\lvgl\src\lv_draw\../lv_misc/lv_color.h **** static inline uint8_t lv_color_to8(lv_color_t color)
 322:..\..\..\lvgl\version_6.1.2\lvgl\src\lv_draw\../lv_misc/lv_color.h **** {
 323:..\..\..\lvgl\version_6.1.2\lvgl\src\lv_draw\../lv_misc/lv_color.h **** #if LV_COLOR_DEPTH == 1
 324:..\..\..\lvgl\version_6.1.2\lvgl\src\lv_draw\../lv_misc/lv_color.h ****     if(color.full == 0)
 325:..\..\..\lvgl\version_6.1.2\lvgl\src\lv_draw\../lv_misc/lv_color.h ****         return 0;
 326:..\..\..\lvgl\version_6.1.2\lvgl\src\lv_draw\../lv_misc/lv_color.h ****     else
 327:..\..\..\lvgl\version_6.1.2\lvgl\src\lv_draw\../lv_misc/lv_color.h ****         return 0xFF;
 328:..\..\..\lvgl\version_6.1.2\lvgl\src\lv_draw\../lv_misc/lv_color.h **** #elif LV_COLOR_DEPTH == 8
 329:..\..\..\lvgl\version_6.1.2\lvgl\src\lv_draw\../lv_misc/lv_color.h ****     return color.full;
 330:..\..\..\lvgl\version_6.1.2\lvgl\src\lv_draw\../lv_misc/lv_color.h **** #elif LV_COLOR_DEPTH == 16
 331:..\..\..\lvgl\version_6.1.2\lvgl\src\lv_draw\../lv_misc/lv_color.h ****     lv_color8_t ret;
 332:..\..\..\lvgl\version_6.1.2\lvgl\src\lv_draw\../lv_misc/lv_color.h ****     LV_COLOR_SET_R8(ret, LV_COLOR_GET_R(color) >> 2);   /* 5 - 3  = 2*/
 333:..\..\..\lvgl\version_6.1.2\lvgl\src\lv_draw\../lv_misc/lv_color.h ****     LV_COLOR_SET_G8(ret, LV_COLOR_GET_G(color) >> 3); /* 6 - 3  = 3*/
 334:..\..\..\lvgl\version_6.1.2\lvgl\src\lv_draw\../lv_misc/lv_color.h ****     LV_COLOR_SET_B8(ret, LV_COLOR_GET_B(color) >> 3);  /* 5 - 2  = 3*/
 335:..\..\..\lvgl\version_6.1.2\lvgl\src\lv_draw\../lv_misc/lv_color.h ****     return ret.full;
 336:..\..\..\lvgl\version_6.1.2\lvgl\src\lv_draw\../lv_misc/lv_color.h **** #elif LV_COLOR_DEPTH == 32
 337:..\..\..\lvgl\version_6.1.2\lvgl\src\lv_draw\../lv_misc/lv_color.h ****     lv_color8_t ret;
 338:..\..\..\lvgl\version_6.1.2\lvgl\src\lv_draw\../lv_misc/lv_color.h ****     LV_COLOR_SET_R8(ret, LV_COLOR_GET_R(color) >> 5);   /* 8 - 3  = 5*/
 339:..\..\..\lvgl\version_6.1.2\lvgl\src\lv_draw\../lv_misc/lv_color.h ****     LV_COLOR_SET_G8(ret, LV_COLOR_GET_G(color) >> 5); /* 8 - 3  = 5*/
 340:..\..\..\lvgl\version_6.1.2\lvgl\src\lv_draw\../lv_misc/lv_color.h ****     LV_COLOR_SET_B8(ret, LV_COLOR_GET_B(color) >> 6);  /* 8 - 2  = 6*/
 341:..\..\..\lvgl\version_6.1.2\lvgl\src\lv_draw\../lv_misc/lv_color.h ****     return ret.full;
 342:..\..\..\lvgl\version_6.1.2\lvgl\src\lv_draw\../lv_misc/lv_color.h **** #endif
 343:..\..\..\lvgl\version_6.1.2\lvgl\src\lv_draw\../lv_misc/lv_color.h **** }
 344:..\..\..\lvgl\version_6.1.2\lvgl\src\lv_draw\../lv_misc/lv_color.h **** 
 345:..\..\..\lvgl\version_6.1.2\lvgl\src\lv_draw\../lv_misc/lv_color.h **** static inline uint16_t lv_color_to16(lv_color_t color)
 346:..\..\..\lvgl\version_6.1.2\lvgl\src\lv_draw\../lv_misc/lv_color.h **** {
 347:..\..\..\lvgl\version_6.1.2\lvgl\src\lv_draw\../lv_misc/lv_color.h **** #if LV_COLOR_DEPTH == 1
 348:..\..\..\lvgl\version_6.1.2\lvgl\src\lv_draw\../lv_misc/lv_color.h ****     if(color.full == 0)
 349:..\..\..\lvgl\version_6.1.2\lvgl\src\lv_draw\../lv_misc/lv_color.h ****         return 0;
 350:..\..\..\lvgl\version_6.1.2\lvgl\src\lv_draw\../lv_misc/lv_color.h ****     else
 351:..\..\..\lvgl\version_6.1.2\lvgl\src\lv_draw\../lv_misc/lv_color.h ****         return 0xFFFF;
 352:..\..\..\lvgl\version_6.1.2\lvgl\src\lv_draw\../lv_misc/lv_color.h **** #elif LV_COLOR_DEPTH == 8
 353:..\..\..\lvgl\version_6.1.2\lvgl\src\lv_draw\../lv_misc/lv_color.h ****     lv_color16_t ret;
 354:..\..\..\lvgl\version_6.1.2\lvgl\src\lv_draw\../lv_misc/lv_color.h ****     LV_COLOR_SET_R16(ret, LV_COLOR_GET_R(color) * 4);     /*(2^5 - 1)/(2^3 - 1) = 31/7 = 4*/
 355:..\..\..\lvgl\version_6.1.2\lvgl\src\lv_draw\../lv_misc/lv_color.h **** #if LV_COLOR_16_SWAP == 0
 356:..\..\..\lvgl\version_6.1.2\lvgl\src\lv_draw\../lv_misc/lv_color.h ****     LV_COLOR_SET_G16(ret,  LV_COLOR_GET_G(color) * 9); /*(2^6 - 1)/(2^3 - 1) = 63/7 = 9*/
 357:..\..\..\lvgl\version_6.1.2\lvgl\src\lv_draw\../lv_misc/lv_color.h **** #else
 358:..\..\..\lvgl\version_6.1.2\lvgl\src\lv_draw\../lv_misc/lv_color.h ****     LV_COLOR_SET_G16_SWAP(ret, (LV_COLOR_GET_G(color) * 9)); /*(2^6 - 1)/(2^3 - 1) = 63/7 = 9*/
 359:..\..\..\lvgl\version_6.1.2\lvgl\src\lv_draw\../lv_misc/lv_color.h **** #endif
 360:..\..\..\lvgl\version_6.1.2\lvgl\src\lv_draw\../lv_misc/lv_color.h ****     LV_COLOR_SET_B16(ret, LV_COLOR_GET_B(color) * 10);  /*(2^5 - 1)/(2^2 - 1) = 31/3 = 10*/
 361:..\..\..\lvgl\version_6.1.2\lvgl\src\lv_draw\../lv_misc/lv_color.h ****     return ret.full;
 362:..\..\..\lvgl\version_6.1.2\lvgl\src\lv_draw\../lv_misc/lv_color.h **** #elif LV_COLOR_DEPTH == 16
 363:..\..\..\lvgl\version_6.1.2\lvgl\src\lv_draw\../lv_misc/lv_color.h ****     return color.full;
 364:..\..\..\lvgl\version_6.1.2\lvgl\src\lv_draw\../lv_misc/lv_color.h **** #elif LV_COLOR_DEPTH == 32
 365:..\..\..\lvgl\version_6.1.2\lvgl\src\lv_draw\../lv_misc/lv_color.h ****     lv_color16_t ret;
 366:..\..\..\lvgl\version_6.1.2\lvgl\src\lv_draw\../lv_misc/lv_color.h ****     LV_COLOR_SET_R16(ret, LV_COLOR_GET_R(color) >> 3);   /* 8 - 5  = 3*/
 367:..\..\..\lvgl\version_6.1.2\lvgl\src\lv_draw\../lv_misc/lv_color.h **** 
 368:..\..\..\lvgl\version_6.1.2\lvgl\src\lv_draw\../lv_misc/lv_color.h **** #if LV_COLOR_16_SWAP == 0
 369:..\..\..\lvgl\version_6.1.2\lvgl\src\lv_draw\../lv_misc/lv_color.h ****     LV_COLOR_SET_G16(ret, LV_COLOR_GET_G(color) >> 2); /* 8 - 6  = 2*/
 370:..\..\..\lvgl\version_6.1.2\lvgl\src\lv_draw\../lv_misc/lv_color.h **** #else
 371:..\..\..\lvgl\version_6.1.2\lvgl\src\lv_draw\../lv_misc/lv_color.h ****     LV_COLOR_SET_G16_SWAP(ret, ret.ch.green_h = (LV_COLOR_GET_G(color) >> 2); /*(2^6 - 1)/(2^3 - 1)
 372:..\..\..\lvgl\version_6.1.2\lvgl\src\lv_draw\../lv_misc/lv_color.h **** #endif
ARM GAS  C:\Users\tmj32\AppData\Local\Temp\ccgaZSAc.s 			page 8


 373:..\..\..\lvgl\version_6.1.2\lvgl\src\lv_draw\../lv_misc/lv_color.h ****     LV_COLOR_SET_B16(ret, LV_COLOR_GET_B(color) >> 3);  /* 8 - 5  = 3*/
 374:..\..\..\lvgl\version_6.1.2\lvgl\src\lv_draw\../lv_misc/lv_color.h ****     return ret.full;
 375:..\..\..\lvgl\version_6.1.2\lvgl\src\lv_draw\../lv_misc/lv_color.h **** #endif                         
 376:..\..\..\lvgl\version_6.1.2\lvgl\src\lv_draw\../lv_misc/lv_color.h **** }
 377:..\..\..\lvgl\version_6.1.2\lvgl\src\lv_draw\../lv_misc/lv_color.h **** 
 378:..\..\..\lvgl\version_6.1.2\lvgl\src\lv_draw\../lv_misc/lv_color.h **** static inline uint32_t lv_color_to32(lv_color_t color)
 379:..\..\..\lvgl\version_6.1.2\lvgl\src\lv_draw\../lv_misc/lv_color.h **** {
 380:..\..\..\lvgl\version_6.1.2\lvgl\src\lv_draw\../lv_misc/lv_color.h **** #if LV_COLOR_DEPTH == 1
 381:..\..\..\lvgl\version_6.1.2\lvgl\src\lv_draw\../lv_misc/lv_color.h ****     if(color.full == 0)
 382:..\..\..\lvgl\version_6.1.2\lvgl\src\lv_draw\../lv_misc/lv_color.h ****         return 0;
 383:..\..\..\lvgl\version_6.1.2\lvgl\src\lv_draw\../lv_misc/lv_color.h ****     else
 384:..\..\..\lvgl\version_6.1.2\lvgl\src\lv_draw\../lv_misc/lv_color.h ****         return 0xFFFFFFFF;
 385:..\..\..\lvgl\version_6.1.2\lvgl\src\lv_draw\../lv_misc/lv_color.h **** #elif LV_COLOR_DEPTH == 8
 386:..\..\..\lvgl\version_6.1.2\lvgl\src\lv_draw\../lv_misc/lv_color.h ****     lv_color32_t ret;
 387:..\..\..\lvgl\version_6.1.2\lvgl\src\lv_draw\../lv_misc/lv_color.h ****     LV_COLOR_SET_R32(ret, LV_COLOR_GET_R(color) * 36);     /*(2^8 - 1)/(2^3 - 1) = 255/7 = 36*/
 388:..\..\..\lvgl\version_6.1.2\lvgl\src\lv_draw\../lv_misc/lv_color.h ****     LV_COLOR_SET_G32(ret, LV_COLOR_GET_G(color) * 36); /*(2^8 - 1)/(2^3 - 1) = 255/7 = 36*/
 389:..\..\..\lvgl\version_6.1.2\lvgl\src\lv_draw\../lv_misc/lv_color.h ****     LV_COLOR_SET_B32(ret, LV_COLOR_GET_B(color) * 85);   /*(2^8 - 1)/(2^2 - 1) = 255/3 = 85*/
 390:..\..\..\lvgl\version_6.1.2\lvgl\src\lv_draw\../lv_misc/lv_color.h ****     LV_COLOR_SET_A32(ret, 0xFF);
 391:..\..\..\lvgl\version_6.1.2\lvgl\src\lv_draw\../lv_misc/lv_color.h ****     return ret.full;
 392:..\..\..\lvgl\version_6.1.2\lvgl\src\lv_draw\../lv_misc/lv_color.h **** #elif LV_COLOR_DEPTH == 16
 393:..\..\..\lvgl\version_6.1.2\lvgl\src\lv_draw\../lv_misc/lv_color.h ****     /**
 394:..\..\..\lvgl\version_6.1.2\lvgl\src\lv_draw\../lv_misc/lv_color.h ****      * The floating point math for conversion is:
 395:..\..\..\lvgl\version_6.1.2\lvgl\src\lv_draw\../lv_misc/lv_color.h ****      *  valueto = valuefrom * ( (2^bitsto - 1) / (float)(2^bitsfrom - 1) )
 396:..\..\..\lvgl\version_6.1.2\lvgl\src\lv_draw\../lv_misc/lv_color.h ****      * The faster integer math for conversion is:
 397:..\..\..\lvgl\version_6.1.2\lvgl\src\lv_draw\../lv_misc/lv_color.h ****      *  valueto = ( valuefrom * multiplier + adder ) >> divisor
 398:..\..\..\lvgl\version_6.1.2\lvgl\src\lv_draw\../lv_misc/lv_color.h ****      *   multiplier = FLOOR( ( (2^bitsto - 1) << divisor ) / (float)(2^bitsfrom - 1) )
 399:..\..\..\lvgl\version_6.1.2\lvgl\src\lv_draw\../lv_misc/lv_color.h ****      * 
 400:..\..\..\lvgl\version_6.1.2\lvgl\src\lv_draw\../lv_misc/lv_color.h ****      * Find the first divisor where ( adder >> divisor ) <= 0
 401:..\..\..\lvgl\version_6.1.2\lvgl\src\lv_draw\../lv_misc/lv_color.h ****      * 
 402:..\..\..\lvgl\version_6.1.2\lvgl\src\lv_draw\../lv_misc/lv_color.h ****      * 5-bit to 8-bit: ( 31 * multiplier + adder ) >> divisor = 255
 403:..\..\..\lvgl\version_6.1.2\lvgl\src\lv_draw\../lv_misc/lv_color.h ****      * divisor  multiplier  adder  min (0)  max (31)
 404:..\..\..\lvgl\version_6.1.2\lvgl\src\lv_draw\../lv_misc/lv_color.h ****      *       0           8      7        7       255
 405:..\..\..\lvgl\version_6.1.2\lvgl\src\lv_draw\../lv_misc/lv_color.h ****      *       1          16     14        7       255
 406:..\..\..\lvgl\version_6.1.2\lvgl\src\lv_draw\../lv_misc/lv_color.h ****      *       2          32     28        7       255
 407:..\..\..\lvgl\version_6.1.2\lvgl\src\lv_draw\../lv_misc/lv_color.h ****      *       3          65     25        3       255
 408:..\..\..\lvgl\version_6.1.2\lvgl\src\lv_draw\../lv_misc/lv_color.h ****      *       4         131     19        1       255
 409:..\..\..\lvgl\version_6.1.2\lvgl\src\lv_draw\../lv_misc/lv_color.h ****      *       5         263      7        0       255
 410:..\..\..\lvgl\version_6.1.2\lvgl\src\lv_draw\../lv_misc/lv_color.h ****      * 
 411:..\..\..\lvgl\version_6.1.2\lvgl\src\lv_draw\../lv_misc/lv_color.h ****      * 6-bit to 8-bit: 255 = ( 63 * multiplier + adder ) >> divisor
 412:..\..\..\lvgl\version_6.1.2\lvgl\src\lv_draw\../lv_misc/lv_color.h ****      * divisor  multiplier  adder  min (0)  max (63)
 413:..\..\..\lvgl\version_6.1.2\lvgl\src\lv_draw\../lv_misc/lv_color.h ****      *       0           4      3        3       255
 414:..\..\..\lvgl\version_6.1.2\lvgl\src\lv_draw\../lv_misc/lv_color.h ****      *       1           8      6        3       255
 415:..\..\..\lvgl\version_6.1.2\lvgl\src\lv_draw\../lv_misc/lv_color.h ****      *       2          16     12        3       255
 416:..\..\..\lvgl\version_6.1.2\lvgl\src\lv_draw\../lv_misc/lv_color.h ****      *       3          32     24        3       255
 417:..\..\..\lvgl\version_6.1.2\lvgl\src\lv_draw\../lv_misc/lv_color.h ****      *       4          64     48        3       255
 418:..\..\..\lvgl\version_6.1.2\lvgl\src\lv_draw\../lv_misc/lv_color.h ****      *       5         129     33        1       255
 419:..\..\..\lvgl\version_6.1.2\lvgl\src\lv_draw\../lv_misc/lv_color.h ****      *       6         259      3        0       255
 420:..\..\..\lvgl\version_6.1.2\lvgl\src\lv_draw\../lv_misc/lv_color.h ****      */
 421:..\..\..\lvgl\version_6.1.2\lvgl\src\lv_draw\../lv_misc/lv_color.h ****     lv_color32_t ret;
 422:..\..\..\lvgl\version_6.1.2\lvgl\src\lv_draw\../lv_misc/lv_color.h ****     LV_COLOR_SET_R32(ret, (LV_COLOR_GET_R(color) * 263 + 7 ) >> 5);
 423:..\..\..\lvgl\version_6.1.2\lvgl\src\lv_draw\../lv_misc/lv_color.h ****     LV_COLOR_SET_G32(ret, (LV_COLOR_GET_G(color) * 259 + 3 ) >> 6);
 424:..\..\..\lvgl\version_6.1.2\lvgl\src\lv_draw\../lv_misc/lv_color.h ****     LV_COLOR_SET_B32(ret, (LV_COLOR_GET_B(color) * 263 + 7 ) >> 5);
 425:..\..\..\lvgl\version_6.1.2\lvgl\src\lv_draw\../lv_misc/lv_color.h ****     LV_COLOR_SET_A32(ret, 0xFF);
 426:..\..\..\lvgl\version_6.1.2\lvgl\src\lv_draw\../lv_misc/lv_color.h ****     return ret.full;
 427:..\..\..\lvgl\version_6.1.2\lvgl\src\lv_draw\../lv_misc/lv_color.h **** #elif LV_COLOR_DEPTH == 32
 428:..\..\..\lvgl\version_6.1.2\lvgl\src\lv_draw\../lv_misc/lv_color.h ****     return color.full;
 429:..\..\..\lvgl\version_6.1.2\lvgl\src\lv_draw\../lv_misc/lv_color.h **** #endif
ARM GAS  C:\Users\tmj32\AppData\Local\Temp\ccgaZSAc.s 			page 9


 430:..\..\..\lvgl\version_6.1.2\lvgl\src\lv_draw\../lv_misc/lv_color.h **** }
 431:..\..\..\lvgl\version_6.1.2\lvgl\src\lv_draw\../lv_misc/lv_color.h **** 
 432:..\..\..\lvgl\version_6.1.2\lvgl\src\lv_draw\../lv_misc/lv_color.h **** static inline lv_color_t lv_color_mix(lv_color_t c1, lv_color_t c2, uint8_t mix)
 433:..\..\..\lvgl\version_6.1.2\lvgl\src\lv_draw\../lv_misc/lv_color.h **** {
  28              		.loc 1 433 0
  29              		.cfi_startproc
  30              		@ args = 0, pretend = 0, frame = 24
  31              		@ frame_needed = 1, uses_anonymous_args = 0
  32              		@ link register save eliminated.
  33 0000 80B4     		push	{r7}
  34              		.cfi_def_cfa_offset 4
  35              		.cfi_offset 7, -4
  36 0002 87B0     		sub	sp, sp, #28
  37              		.cfi_def_cfa_offset 32
  38 0004 00AF     		add	r7, sp, #0
  39              		.cfi_def_cfa_register 7
  40 0006 F860     		str	r0, [r7, #12]
  41 0008 B960     		str	r1, [r7, #8]
  42 000a 1346     		mov	r3, r2
  43 000c FB71     		strb	r3, [r7, #7]
 434:..\..\..\lvgl\version_6.1.2\lvgl\src\lv_draw\../lv_misc/lv_color.h ****     lv_color_t ret;
 435:..\..\..\lvgl\version_6.1.2\lvgl\src\lv_draw\../lv_misc/lv_color.h **** #if LV_COLOR_DEPTH != 1
 436:..\..\..\lvgl\version_6.1.2\lvgl\src\lv_draw\../lv_misc/lv_color.h ****     /*LV_COLOR_DEPTH == 8, 16 or 32*/
 437:..\..\..\lvgl\version_6.1.2\lvgl\src\lv_draw\../lv_misc/lv_color.h ****     LV_COLOR_SET_R(ret, (uint16_t)((uint16_t) LV_COLOR_GET_R(c1) * mix + LV_COLOR_GET_R(c2) * (255 
  44              		.loc 1 437 0
  45 000e BB7B     		ldrb	r3, [r7, #14]	@ zero_extendqisi2
  46 0010 9AB2     		uxth	r2, r3
  47 0012 FB79     		ldrb	r3, [r7, #7]	@ zero_extendqisi2
  48 0014 9BB2     		uxth	r3, r3
  49 0016 12FB03F3 		smulbb	r3, r2, r3
  50 001a 9AB2     		uxth	r2, r3
  51 001c BB7A     		ldrb	r3, [r7, #10]	@ zero_extendqisi2
  52 001e 99B2     		uxth	r1, r3
  53 0020 FB79     		ldrb	r3, [r7, #7]	@ zero_extendqisi2
  54 0022 C3F1FF03 		rsb	r3, r3, #255
  55 0026 9BB2     		uxth	r3, r3
  56 0028 11FB03F3 		smulbb	r3, r1, r3
  57 002c 9BB2     		uxth	r3, r3
  58 002e 1344     		add	r3, r3, r2
  59 0030 9BB2     		uxth	r3, r3
  60 0032 1B0A     		lsrs	r3, r3, #8
  61 0034 9BB2     		uxth	r3, r3
  62 0036 DBB2     		uxtb	r3, r3
  63 0038 BB75     		strb	r3, [r7, #22]
 438:..\..\..\lvgl\version_6.1.2\lvgl\src\lv_draw\../lv_misc/lv_color.h ****     LV_COLOR_SET_G(ret, (uint16_t)((uint16_t) LV_COLOR_GET_G(c1) * mix + LV_COLOR_GET_G(c2) * (255 
  64              		.loc 1 438 0
  65 003a 7B7B     		ldrb	r3, [r7, #13]	@ zero_extendqisi2
  66 003c 9AB2     		uxth	r2, r3
  67 003e FB79     		ldrb	r3, [r7, #7]	@ zero_extendqisi2
  68 0040 9BB2     		uxth	r3, r3
  69 0042 12FB03F3 		smulbb	r3, r2, r3
  70 0046 9AB2     		uxth	r2, r3
  71 0048 7B7A     		ldrb	r3, [r7, #9]	@ zero_extendqisi2
  72 004a 99B2     		uxth	r1, r3
  73 004c FB79     		ldrb	r3, [r7, #7]	@ zero_extendqisi2
  74 004e C3F1FF03 		rsb	r3, r3, #255
  75 0052 9BB2     		uxth	r3, r3
ARM GAS  C:\Users\tmj32\AppData\Local\Temp\ccgaZSAc.s 			page 10


  76 0054 11FB03F3 		smulbb	r3, r1, r3
  77 0058 9BB2     		uxth	r3, r3
  78 005a 1344     		add	r3, r3, r2
  79 005c 9BB2     		uxth	r3, r3
  80 005e 1B0A     		lsrs	r3, r3, #8
  81 0060 9BB2     		uxth	r3, r3
  82 0062 DBB2     		uxtb	r3, r3
  83 0064 7B75     		strb	r3, [r7, #21]
 439:..\..\..\lvgl\version_6.1.2\lvgl\src\lv_draw\../lv_misc/lv_color.h ****     LV_COLOR_SET_B(ret, (uint16_t)((uint16_t) LV_COLOR_GET_B(c1) * mix + LV_COLOR_GET_B(c2) * (255 
  84              		.loc 1 439 0
  85 0066 3B7B     		ldrb	r3, [r7, #12]	@ zero_extendqisi2
  86 0068 9AB2     		uxth	r2, r3
  87 006a FB79     		ldrb	r3, [r7, #7]	@ zero_extendqisi2
  88 006c 9BB2     		uxth	r3, r3
  89 006e 12FB03F3 		smulbb	r3, r2, r3
  90 0072 9AB2     		uxth	r2, r3
  91 0074 3B7A     		ldrb	r3, [r7, #8]	@ zero_extendqisi2
  92 0076 99B2     		uxth	r1, r3
  93 0078 FB79     		ldrb	r3, [r7, #7]	@ zero_extendqisi2
  94 007a C3F1FF03 		rsb	r3, r3, #255
  95 007e 9BB2     		uxth	r3, r3
  96 0080 11FB03F3 		smulbb	r3, r1, r3
  97 0084 9BB2     		uxth	r3, r3
  98 0086 1344     		add	r3, r3, r2
  99 0088 9BB2     		uxth	r3, r3
 100 008a 1B0A     		lsrs	r3, r3, #8
 101 008c 9BB2     		uxth	r3, r3
 102 008e DBB2     		uxtb	r3, r3
 103 0090 3B75     		strb	r3, [r7, #20]
 440:..\..\..\lvgl\version_6.1.2\lvgl\src\lv_draw\../lv_misc/lv_color.h ****     LV_COLOR_SET_A(ret, 0xFF);
 104              		.loc 1 440 0
 105 0092 FF23     		movs	r3, #255
 106 0094 FB75     		strb	r3, [r7, #23]
 441:..\..\..\lvgl\version_6.1.2\lvgl\src\lv_draw\../lv_misc/lv_color.h **** #else
 442:..\..\..\lvgl\version_6.1.2\lvgl\src\lv_draw\../lv_misc/lv_color.h ****     /*LV_COLOR_DEPTH == 1*/
 443:..\..\..\lvgl\version_6.1.2\lvgl\src\lv_draw\../lv_misc/lv_color.h ****     ret.full = mix > LV_OPA_50 ? c1.full : c2.full;
 444:..\..\..\lvgl\version_6.1.2\lvgl\src\lv_draw\../lv_misc/lv_color.h **** #endif
 445:..\..\..\lvgl\version_6.1.2\lvgl\src\lv_draw\../lv_misc/lv_color.h **** 
 446:..\..\..\lvgl\version_6.1.2\lvgl\src\lv_draw\../lv_misc/lv_color.h ****     return ret;
 107              		.loc 1 446 0
 108 0096 7B69     		ldr	r3, [r7, #20]
 447:..\..\..\lvgl\version_6.1.2\lvgl\src\lv_draw\../lv_misc/lv_color.h **** }
 109              		.loc 1 447 0
 110 0098 1846     		mov	r0, r3
 111 009a 1C37     		adds	r7, r7, #28
 112              		.cfi_def_cfa_offset 4
 113 009c BD46     		mov	sp, r7
 114              		.cfi_def_cfa_register 13
 115              		@ sp needed
 116 009e 5DF8047B 		ldr	r7, [sp], #4
 117              		.cfi_restore 7
 118              		.cfi_def_cfa_offset 0
 119 00a2 7047     		bx	lr
 120              		.cfi_endproc
 121              	.LFE5:
 122              		.size	lv_color_mix, .-lv_color_mix
 123              		.section	.text.lv_area_get_width,"ax",%progbits
ARM GAS  C:\Users\tmj32\AppData\Local\Temp\ccgaZSAc.s 			page 11


 124              		.align	2
 125              		.thumb
 126              		.thumb_func
 127              		.type	lv_area_get_width, %function
 128              	lv_area_get_width:
 129              	.LFB11:
 130              		.file 2 "..\\..\\..\\lvgl\\version_6.1.2\\lvgl\\src\\lv_draw\\../lv_misc/lv_area.h"
   1:..\..\..\lvgl\version_6.1.2\lvgl\src\lv_draw\../lv_misc/lv_area.h **** /**
   2:..\..\..\lvgl\version_6.1.2\lvgl\src\lv_draw\../lv_misc/lv_area.h ****  * @file lv_area.h
   3:..\..\..\lvgl\version_6.1.2\lvgl\src\lv_draw\../lv_misc/lv_area.h ****  *
   4:..\..\..\lvgl\version_6.1.2\lvgl\src\lv_draw\../lv_misc/lv_area.h ****  */
   5:..\..\..\lvgl\version_6.1.2\lvgl\src\lv_draw\../lv_misc/lv_area.h **** 
   6:..\..\..\lvgl\version_6.1.2\lvgl\src\lv_draw\../lv_misc/lv_area.h **** #ifndef LV_AREA_H
   7:..\..\..\lvgl\version_6.1.2\lvgl\src\lv_draw\../lv_misc/lv_area.h **** #define LV_AREA_H
   8:..\..\..\lvgl\version_6.1.2\lvgl\src\lv_draw\../lv_misc/lv_area.h **** 
   9:..\..\..\lvgl\version_6.1.2\lvgl\src\lv_draw\../lv_misc/lv_area.h **** #ifdef __cplusplus
  10:..\..\..\lvgl\version_6.1.2\lvgl\src\lv_draw\../lv_misc/lv_area.h **** extern "C" {
  11:..\..\..\lvgl\version_6.1.2\lvgl\src\lv_draw\../lv_misc/lv_area.h **** #endif
  12:..\..\..\lvgl\version_6.1.2\lvgl\src\lv_draw\../lv_misc/lv_area.h **** 
  13:..\..\..\lvgl\version_6.1.2\lvgl\src\lv_draw\../lv_misc/lv_area.h **** /*********************
  14:..\..\..\lvgl\version_6.1.2\lvgl\src\lv_draw\../lv_misc/lv_area.h ****  *      INCLUDES
  15:..\..\..\lvgl\version_6.1.2\lvgl\src\lv_draw\../lv_misc/lv_area.h ****  *********************/
  16:..\..\..\lvgl\version_6.1.2\lvgl\src\lv_draw\../lv_misc/lv_area.h **** #include <string.h>
  17:..\..\..\lvgl\version_6.1.2\lvgl\src\lv_draw\../lv_misc/lv_area.h **** #include <stdbool.h>
  18:..\..\..\lvgl\version_6.1.2\lvgl\src\lv_draw\../lv_misc/lv_area.h **** #include <stdint.h>
  19:..\..\..\lvgl\version_6.1.2\lvgl\src\lv_draw\../lv_misc/lv_area.h **** #ifdef LV_CONF_INCLUDE_SIMPLE
  20:..\..\..\lvgl\version_6.1.2\lvgl\src\lv_draw\../lv_misc/lv_area.h **** #include "lv_conf.h"
  21:..\..\..\lvgl\version_6.1.2\lvgl\src\lv_draw\../lv_misc/lv_area.h **** #else
  22:..\..\..\lvgl\version_6.1.2\lvgl\src\lv_draw\../lv_misc/lv_area.h **** #include "../../../lv_conf.h"
  23:..\..\..\lvgl\version_6.1.2\lvgl\src\lv_draw\../lv_misc/lv_area.h **** #endif
  24:..\..\..\lvgl\version_6.1.2\lvgl\src\lv_draw\../lv_misc/lv_area.h **** 
  25:..\..\..\lvgl\version_6.1.2\lvgl\src\lv_draw\../lv_misc/lv_area.h **** /*********************
  26:..\..\..\lvgl\version_6.1.2\lvgl\src\lv_draw\../lv_misc/lv_area.h ****  *      DEFINES
  27:..\..\..\lvgl\version_6.1.2\lvgl\src\lv_draw\../lv_misc/lv_area.h ****  *********************/
  28:..\..\..\lvgl\version_6.1.2\lvgl\src\lv_draw\../lv_misc/lv_area.h **** /*To avoid overflow don't let the max ranges (reduce with 1000) */
  29:..\..\..\lvgl\version_6.1.2\lvgl\src\lv_draw\../lv_misc/lv_area.h **** #define LV_COORD_MAX ((lv_coord_t)((uint32_t)((uint32_t)1 << (8 * sizeof(lv_coord_t) - 1)) - 1000))
  30:..\..\..\lvgl\version_6.1.2\lvgl\src\lv_draw\../lv_misc/lv_area.h **** #define LV_COORD_MIN (-LV_COORD_MAX)
  31:..\..\..\lvgl\version_6.1.2\lvgl\src\lv_draw\../lv_misc/lv_area.h **** 
  32:..\..\..\lvgl\version_6.1.2\lvgl\src\lv_draw\../lv_misc/lv_area.h **** LV_EXPORT_CONST_INT(LV_COORD_MAX);
  33:..\..\..\lvgl\version_6.1.2\lvgl\src\lv_draw\../lv_misc/lv_area.h **** LV_EXPORT_CONST_INT(LV_COORD_MIN);
  34:..\..\..\lvgl\version_6.1.2\lvgl\src\lv_draw\../lv_misc/lv_area.h **** 
  35:..\..\..\lvgl\version_6.1.2\lvgl\src\lv_draw\../lv_misc/lv_area.h **** /**********************
  36:..\..\..\lvgl\version_6.1.2\lvgl\src\lv_draw\../lv_misc/lv_area.h ****  *      TYPEDEFS
  37:..\..\..\lvgl\version_6.1.2\lvgl\src\lv_draw\../lv_misc/lv_area.h ****  **********************/
  38:..\..\..\lvgl\version_6.1.2\lvgl\src\lv_draw\../lv_misc/lv_area.h **** 
  39:..\..\..\lvgl\version_6.1.2\lvgl\src\lv_draw\../lv_misc/lv_area.h **** /**
  40:..\..\..\lvgl\version_6.1.2\lvgl\src\lv_draw\../lv_misc/lv_area.h ****  * Represents a point on the screen.
  41:..\..\..\lvgl\version_6.1.2\lvgl\src\lv_draw\../lv_misc/lv_area.h ****  */
  42:..\..\..\lvgl\version_6.1.2\lvgl\src\lv_draw\../lv_misc/lv_area.h **** typedef struct
  43:..\..\..\lvgl\version_6.1.2\lvgl\src\lv_draw\../lv_misc/lv_area.h **** {
  44:..\..\..\lvgl\version_6.1.2\lvgl\src\lv_draw\../lv_misc/lv_area.h ****     lv_coord_t x;
  45:..\..\..\lvgl\version_6.1.2\lvgl\src\lv_draw\../lv_misc/lv_area.h ****     lv_coord_t y;
  46:..\..\..\lvgl\version_6.1.2\lvgl\src\lv_draw\../lv_misc/lv_area.h **** } lv_point_t;
  47:..\..\..\lvgl\version_6.1.2\lvgl\src\lv_draw\../lv_misc/lv_area.h **** 
  48:..\..\..\lvgl\version_6.1.2\lvgl\src\lv_draw\../lv_misc/lv_area.h **** /** Represents an area of the screen. */
  49:..\..\..\lvgl\version_6.1.2\lvgl\src\lv_draw\../lv_misc/lv_area.h **** typedef struct
  50:..\..\..\lvgl\version_6.1.2\lvgl\src\lv_draw\../lv_misc/lv_area.h **** {
ARM GAS  C:\Users\tmj32\AppData\Local\Temp\ccgaZSAc.s 			page 12


  51:..\..\..\lvgl\version_6.1.2\lvgl\src\lv_draw\../lv_misc/lv_area.h ****     lv_coord_t x1;
  52:..\..\..\lvgl\version_6.1.2\lvgl\src\lv_draw\../lv_misc/lv_area.h ****     lv_coord_t y1;
  53:..\..\..\lvgl\version_6.1.2\lvgl\src\lv_draw\../lv_misc/lv_area.h ****     lv_coord_t x2;
  54:..\..\..\lvgl\version_6.1.2\lvgl\src\lv_draw\../lv_misc/lv_area.h ****     lv_coord_t y2;
  55:..\..\..\lvgl\version_6.1.2\lvgl\src\lv_draw\../lv_misc/lv_area.h **** } lv_area_t;
  56:..\..\..\lvgl\version_6.1.2\lvgl\src\lv_draw\../lv_misc/lv_area.h **** 
  57:..\..\..\lvgl\version_6.1.2\lvgl\src\lv_draw\../lv_misc/lv_area.h **** /**********************
  58:..\..\..\lvgl\version_6.1.2\lvgl\src\lv_draw\../lv_misc/lv_area.h ****  * GLOBAL PROTOTYPES
  59:..\..\..\lvgl\version_6.1.2\lvgl\src\lv_draw\../lv_misc/lv_area.h ****  **********************/
  60:..\..\..\lvgl\version_6.1.2\lvgl\src\lv_draw\../lv_misc/lv_area.h **** 
  61:..\..\..\lvgl\version_6.1.2\lvgl\src\lv_draw\../lv_misc/lv_area.h **** /**
  62:..\..\..\lvgl\version_6.1.2\lvgl\src\lv_draw\../lv_misc/lv_area.h ****  * Initialize an area
  63:..\..\..\lvgl\version_6.1.2\lvgl\src\lv_draw\../lv_misc/lv_area.h ****  * @param area_p pointer to an area
  64:..\..\..\lvgl\version_6.1.2\lvgl\src\lv_draw\../lv_misc/lv_area.h ****  * @param x1 left coordinate of the area
  65:..\..\..\lvgl\version_6.1.2\lvgl\src\lv_draw\../lv_misc/lv_area.h ****  * @param y1 top coordinate of the area
  66:..\..\..\lvgl\version_6.1.2\lvgl\src\lv_draw\../lv_misc/lv_area.h ****  * @param x2 right coordinate of the area
  67:..\..\..\lvgl\version_6.1.2\lvgl\src\lv_draw\../lv_misc/lv_area.h ****  * @param y2 bottom coordinate of the area
  68:..\..\..\lvgl\version_6.1.2\lvgl\src\lv_draw\../lv_misc/lv_area.h ****  */
  69:..\..\..\lvgl\version_6.1.2\lvgl\src\lv_draw\../lv_misc/lv_area.h **** void lv_area_set(lv_area_t * area_p, lv_coord_t x1, lv_coord_t y1, lv_coord_t x2, lv_coord_t y2);
  70:..\..\..\lvgl\version_6.1.2\lvgl\src\lv_draw\../lv_misc/lv_area.h **** 
  71:..\..\..\lvgl\version_6.1.2\lvgl\src\lv_draw\../lv_misc/lv_area.h **** /**
  72:..\..\..\lvgl\version_6.1.2\lvgl\src\lv_draw\../lv_misc/lv_area.h ****  * Copy an area
  73:..\..\..\lvgl\version_6.1.2\lvgl\src\lv_draw\../lv_misc/lv_area.h ****  * @param dest pointer to the destination area
  74:..\..\..\lvgl\version_6.1.2\lvgl\src\lv_draw\../lv_misc/lv_area.h ****  * @param src pointer to the source area
  75:..\..\..\lvgl\version_6.1.2\lvgl\src\lv_draw\../lv_misc/lv_area.h ****  */
  76:..\..\..\lvgl\version_6.1.2\lvgl\src\lv_draw\../lv_misc/lv_area.h **** inline static void lv_area_copy(lv_area_t * dest, const lv_area_t * src)
  77:..\..\..\lvgl\version_6.1.2\lvgl\src\lv_draw\../lv_misc/lv_area.h **** {
  78:..\..\..\lvgl\version_6.1.2\lvgl\src\lv_draw\../lv_misc/lv_area.h ****     memcpy(dest, src, sizeof(lv_area_t));
  79:..\..\..\lvgl\version_6.1.2\lvgl\src\lv_draw\../lv_misc/lv_area.h **** }
  80:..\..\..\lvgl\version_6.1.2\lvgl\src\lv_draw\../lv_misc/lv_area.h **** 
  81:..\..\..\lvgl\version_6.1.2\lvgl\src\lv_draw\../lv_misc/lv_area.h **** /**
  82:..\..\..\lvgl\version_6.1.2\lvgl\src\lv_draw\../lv_misc/lv_area.h ****  * Get the width of an area
  83:..\..\..\lvgl\version_6.1.2\lvgl\src\lv_draw\../lv_misc/lv_area.h ****  * @param area_p pointer to an area
  84:..\..\..\lvgl\version_6.1.2\lvgl\src\lv_draw\../lv_misc/lv_area.h ****  * @return the width of the area (if x1 == x2 -> width = 1)
  85:..\..\..\lvgl\version_6.1.2\lvgl\src\lv_draw\../lv_misc/lv_area.h ****  */
  86:..\..\..\lvgl\version_6.1.2\lvgl\src\lv_draw\../lv_misc/lv_area.h **** static inline lv_coord_t lv_area_get_width(const lv_area_t * area_p)
  87:..\..\..\lvgl\version_6.1.2\lvgl\src\lv_draw\../lv_misc/lv_area.h **** {
 131              		.loc 2 87 0
 132              		.cfi_startproc
 133              		@ args = 0, pretend = 0, frame = 8
 134              		@ frame_needed = 1, uses_anonymous_args = 0
 135              		@ link register save eliminated.
 136 0000 80B4     		push	{r7}
 137              		.cfi_def_cfa_offset 4
 138              		.cfi_offset 7, -4
 139 0002 83B0     		sub	sp, sp, #12
 140              		.cfi_def_cfa_offset 16
 141 0004 00AF     		add	r7, sp, #0
 142              		.cfi_def_cfa_register 7
 143 0006 7860     		str	r0, [r7, #4]
  88:..\..\..\lvgl\version_6.1.2\lvgl\src\lv_draw\../lv_misc/lv_area.h ****     return (lv_coord_t)(area_p->x2 - area_p->x1 + 1);
 144              		.loc 2 88 0
 145 0008 7B68     		ldr	r3, [r7, #4]
 146 000a B3F90430 		ldrsh	r3, [r3, #4]
 147 000e 9AB2     		uxth	r2, r3
 148 0010 7B68     		ldr	r3, [r7, #4]
 149 0012 B3F90030 		ldrsh	r3, [r3]
ARM GAS  C:\Users\tmj32\AppData\Local\Temp\ccgaZSAc.s 			page 13


 150 0016 9BB2     		uxth	r3, r3
 151 0018 D31A     		subs	r3, r2, r3
 152 001a 9BB2     		uxth	r3, r3
 153 001c 0133     		adds	r3, r3, #1
 154 001e 9BB2     		uxth	r3, r3
 155 0020 1BB2     		sxth	r3, r3
  89:..\..\..\lvgl\version_6.1.2\lvgl\src\lv_draw\../lv_misc/lv_area.h **** }
 156              		.loc 2 89 0
 157 0022 1846     		mov	r0, r3
 158 0024 0C37     		adds	r7, r7, #12
 159              		.cfi_def_cfa_offset 4
 160 0026 BD46     		mov	sp, r7
 161              		.cfi_def_cfa_register 13
 162              		@ sp needed
 163 0028 5DF8047B 		ldr	r7, [sp], #4
 164              		.cfi_restore 7
 165              		.cfi_def_cfa_offset 0
 166 002c 7047     		bx	lr
 167              		.cfi_endproc
 168              	.LFE11:
 169              		.size	lv_area_get_width, .-lv_area_get_width
 170 002e 00BF     		.section	.text.lv_draw_px,"ax",%progbits
 171              		.align	2
 172              		.global	lv_draw_px
 173              		.thumb
 174              		.thumb_func
 175              		.type	lv_draw_px, %function
 176              	lv_draw_px:
 177              	.LFB31:
 178              		.file 3 "..\\..\\..\\lvgl\\version_6.1.2\\lvgl\\src\\lv_draw\\lv_draw_basic.c"
   1:..\..\..\lvgl\version_6.1.2\lvgl\src\lv_draw/lv_draw_basic.c **** /**
   2:..\..\..\lvgl\version_6.1.2\lvgl\src\lv_draw/lv_draw_basic.c ****  * @file lv_draw_basic.c
   3:..\..\..\lvgl\version_6.1.2\lvgl\src\lv_draw/lv_draw_basic.c ****  *
   4:..\..\..\lvgl\version_6.1.2\lvgl\src\lv_draw/lv_draw_basic.c ****  */
   5:..\..\..\lvgl\version_6.1.2\lvgl\src\lv_draw/lv_draw_basic.c **** 
   6:..\..\..\lvgl\version_6.1.2\lvgl\src\lv_draw/lv_draw_basic.c **** #include "lv_draw_basic.h"
   7:..\..\..\lvgl\version_6.1.2\lvgl\src\lv_draw/lv_draw_basic.c **** 
   8:..\..\..\lvgl\version_6.1.2\lvgl\src\lv_draw/lv_draw_basic.c **** #include <stdbool.h>
   9:..\..\..\lvgl\version_6.1.2\lvgl\src\lv_draw/lv_draw_basic.c **** #include <stdint.h>
  10:..\..\..\lvgl\version_6.1.2\lvgl\src\lv_draw/lv_draw_basic.c **** #include <string.h>
  11:..\..\..\lvgl\version_6.1.2\lvgl\src\lv_draw/lv_draw_basic.c **** 
  12:..\..\..\lvgl\version_6.1.2\lvgl\src\lv_draw/lv_draw_basic.c **** #include "../lv_core/lv_refr.h"
  13:..\..\..\lvgl\version_6.1.2\lvgl\src\lv_draw/lv_draw_basic.c **** #include "../lv_hal/lv_hal.h"
  14:..\..\..\lvgl\version_6.1.2\lvgl\src\lv_draw/lv_draw_basic.c **** #include "../lv_font/lv_font.h"
  15:..\..\..\lvgl\version_6.1.2\lvgl\src\lv_draw/lv_draw_basic.c **** #include "../lv_misc/lv_area.h"
  16:..\..\..\lvgl\version_6.1.2\lvgl\src\lv_draw/lv_draw_basic.c **** #include "../lv_misc/lv_color.h"
  17:..\..\..\lvgl\version_6.1.2\lvgl\src\lv_draw/lv_draw_basic.c **** #include "../lv_misc/lv_log.h"
  18:..\..\..\lvgl\version_6.1.2\lvgl\src\lv_draw/lv_draw_basic.c **** 
  19:..\..\..\lvgl\version_6.1.2\lvgl\src\lv_draw/lv_draw_basic.c **** #include <stddef.h>
  20:..\..\..\lvgl\version_6.1.2\lvgl\src\lv_draw/lv_draw_basic.c **** #include "lv_draw.h"
  21:..\..\..\lvgl\version_6.1.2\lvgl\src\lv_draw/lv_draw_basic.c **** 
  22:..\..\..\lvgl\version_6.1.2\lvgl\src\lv_draw/lv_draw_basic.c **** /*********************
  23:..\..\..\lvgl\version_6.1.2\lvgl\src\lv_draw/lv_draw_basic.c ****  *      INCLUDES
  24:..\..\..\lvgl\version_6.1.2\lvgl\src\lv_draw/lv_draw_basic.c ****  *********************/
  25:..\..\..\lvgl\version_6.1.2\lvgl\src\lv_draw/lv_draw_basic.c **** 
  26:..\..\..\lvgl\version_6.1.2\lvgl\src\lv_draw/lv_draw_basic.c **** /*********************
  27:..\..\..\lvgl\version_6.1.2\lvgl\src\lv_draw/lv_draw_basic.c ****  *      DEFINES
ARM GAS  C:\Users\tmj32\AppData\Local\Temp\ccgaZSAc.s 			page 14


  28:..\..\..\lvgl\version_6.1.2\lvgl\src\lv_draw/lv_draw_basic.c ****  *********************/
  29:..\..\..\lvgl\version_6.1.2\lvgl\src\lv_draw/lv_draw_basic.c **** 
  30:..\..\..\lvgl\version_6.1.2\lvgl\src\lv_draw/lv_draw_basic.c **** /*Always fill < 50 px with 'sw_color_fill' because of the hw. init overhead*/
  31:..\..\..\lvgl\version_6.1.2\lvgl\src\lv_draw/lv_draw_basic.c **** #define VFILL_HW_ACC_SIZE_LIMIT 50
  32:..\..\..\lvgl\version_6.1.2\lvgl\src\lv_draw/lv_draw_basic.c **** 
  33:..\..\..\lvgl\version_6.1.2\lvgl\src\lv_draw/lv_draw_basic.c **** #ifndef LV_ATTRIBUTE_MEM_ALIGN
  34:..\..\..\lvgl\version_6.1.2\lvgl\src\lv_draw/lv_draw_basic.c **** #define LV_ATTRIBUTE_MEM_ALIGN
  35:..\..\..\lvgl\version_6.1.2\lvgl\src\lv_draw/lv_draw_basic.c **** #endif
  36:..\..\..\lvgl\version_6.1.2\lvgl\src\lv_draw/lv_draw_basic.c **** 
  37:..\..\..\lvgl\version_6.1.2\lvgl\src\lv_draw/lv_draw_basic.c **** /**********************
  38:..\..\..\lvgl\version_6.1.2\lvgl\src\lv_draw/lv_draw_basic.c ****  *      TYPEDEFS
  39:..\..\..\lvgl\version_6.1.2\lvgl\src\lv_draw/lv_draw_basic.c ****  **********************/
  40:..\..\..\lvgl\version_6.1.2\lvgl\src\lv_draw/lv_draw_basic.c **** 
  41:..\..\..\lvgl\version_6.1.2\lvgl\src\lv_draw/lv_draw_basic.c **** /**********************
  42:..\..\..\lvgl\version_6.1.2\lvgl\src\lv_draw/lv_draw_basic.c ****  *  STATIC PROTOTYPES
  43:..\..\..\lvgl\version_6.1.2\lvgl\src\lv_draw/lv_draw_basic.c ****  **********************/
  44:..\..\..\lvgl\version_6.1.2\lvgl\src\lv_draw/lv_draw_basic.c **** static void sw_mem_blend(lv_color_t * dest, const lv_color_t * src, uint32_t length, lv_opa_t opa);
  45:..\..\..\lvgl\version_6.1.2\lvgl\src\lv_draw/lv_draw_basic.c **** static void sw_color_fill(lv_color_t * mem, lv_coord_t mem_width, const lv_area_t * fill_area, lv_c
  46:..\..\..\lvgl\version_6.1.2\lvgl\src\lv_draw/lv_draw_basic.c ****                           lv_opa_t opa);
  47:..\..\..\lvgl\version_6.1.2\lvgl\src\lv_draw/lv_draw_basic.c **** 
  48:..\..\..\lvgl\version_6.1.2\lvgl\src\lv_draw/lv_draw_basic.c **** #if LV_COLOR_DEPTH == 32 && LV_COLOR_SCREEN_TRANSP
  49:..\..\..\lvgl\version_6.1.2\lvgl\src\lv_draw/lv_draw_basic.c **** static inline lv_color_t color_mix_2_alpha(lv_color_t bg_color, lv_opa_t bg_opa, lv_color_t fg_colo
  50:..\..\..\lvgl\version_6.1.2\lvgl\src\lv_draw/lv_draw_basic.c **** #endif
  51:..\..\..\lvgl\version_6.1.2\lvgl\src\lv_draw/lv_draw_basic.c **** 
  52:..\..\..\lvgl\version_6.1.2\lvgl\src\lv_draw/lv_draw_basic.c **** /**********************
  53:..\..\..\lvgl\version_6.1.2\lvgl\src\lv_draw/lv_draw_basic.c ****  *  STATIC VARIABLES
  54:..\..\..\lvgl\version_6.1.2\lvgl\src\lv_draw/lv_draw_basic.c ****  **********************/
  55:..\..\..\lvgl\version_6.1.2\lvgl\src\lv_draw/lv_draw_basic.c **** 
  56:..\..\..\lvgl\version_6.1.2\lvgl\src\lv_draw/lv_draw_basic.c **** /**********************
  57:..\..\..\lvgl\version_6.1.2\lvgl\src\lv_draw/lv_draw_basic.c ****  *      MACROS
  58:..\..\..\lvgl\version_6.1.2\lvgl\src\lv_draw/lv_draw_basic.c ****  **********************/
  59:..\..\..\lvgl\version_6.1.2\lvgl\src\lv_draw/lv_draw_basic.c **** 
  60:..\..\..\lvgl\version_6.1.2\lvgl\src\lv_draw/lv_draw_basic.c **** /**********************
  61:..\..\..\lvgl\version_6.1.2\lvgl\src\lv_draw/lv_draw_basic.c ****  *   GLOBAL FUNCTIONS
  62:..\..\..\lvgl\version_6.1.2\lvgl\src\lv_draw/lv_draw_basic.c ****  **********************/
  63:..\..\..\lvgl\version_6.1.2\lvgl\src\lv_draw/lv_draw_basic.c **** 
  64:..\..\..\lvgl\version_6.1.2\lvgl\src\lv_draw/lv_draw_basic.c **** /**
  65:..\..\..\lvgl\version_6.1.2\lvgl\src\lv_draw/lv_draw_basic.c ****  * Put a pixel in the Virtual Display Buffer
  66:..\..\..\lvgl\version_6.1.2\lvgl\src\lv_draw/lv_draw_basic.c ****  * @param x pixel x coordinate
  67:..\..\..\lvgl\version_6.1.2\lvgl\src\lv_draw/lv_draw_basic.c ****  * @param y pixel y coordinate
  68:..\..\..\lvgl\version_6.1.2\lvgl\src\lv_draw/lv_draw_basic.c ****  * @param mask_p fill only on this mask (truncated to VDB area)
  69:..\..\..\lvgl\version_6.1.2\lvgl\src\lv_draw/lv_draw_basic.c ****  * @param color pixel color
  70:..\..\..\lvgl\version_6.1.2\lvgl\src\lv_draw/lv_draw_basic.c ****  * @param opa opacity of the area (0..255)
  71:..\..\..\lvgl\version_6.1.2\lvgl\src\lv_draw/lv_draw_basic.c ****  */
  72:..\..\..\lvgl\version_6.1.2\lvgl\src\lv_draw/lv_draw_basic.c **** void lv_draw_px(lv_coord_t x, lv_coord_t y, const lv_area_t * mask_p, lv_color_t color, lv_opa_t op
  73:..\..\..\lvgl\version_6.1.2\lvgl\src\lv_draw/lv_draw_basic.c **** {
 179              		.loc 3 73 0
 180              		.cfi_startproc
 181              		@ args = 4, pretend = 0, frame = 40
 182              		@ frame_needed = 1, uses_anonymous_args = 0
 183 0000 B0B5     		push	{r4, r5, r7, lr}
 184              		.cfi_def_cfa_offset 16
 185              		.cfi_offset 4, -16
 186              		.cfi_offset 5, -12
 187              		.cfi_offset 7, -8
 188              		.cfi_offset 14, -4
 189 0002 8EB0     		sub	sp, sp, #56
ARM GAS  C:\Users\tmj32\AppData\Local\Temp\ccgaZSAc.s 			page 15


 190              		.cfi_def_cfa_offset 72
 191 0004 04AF     		add	r7, sp, #16
 192              		.cfi_def_cfa 7, 56
 193 0006 BA60     		str	r2, [r7, #8]
 194 0008 7B60     		str	r3, [r7, #4]
 195 000a 0346     		mov	r3, r0	@ movhi
 196 000c FB81     		strh	r3, [r7, #14]	@ movhi
 197 000e 0B46     		mov	r3, r1	@ movhi
 198 0010 BB81     		strh	r3, [r7, #12]	@ movhi
  74:..\..\..\lvgl\version_6.1.2\lvgl\src\lv_draw/lv_draw_basic.c **** 
  75:..\..\..\lvgl\version_6.1.2\lvgl\src\lv_draw/lv_draw_basic.c ****     if(opa < LV_OPA_MIN) return;
 199              		.loc 3 75 0
 200 0012 97F83830 		ldrb	r3, [r7, #56]	@ zero_extendqisi2
 201 0016 0F2B     		cmp	r3, #15
 202 0018 40F28380 		bls	.L14
  76:..\..\..\lvgl\version_6.1.2\lvgl\src\lv_draw/lv_draw_basic.c ****     if(opa > LV_OPA_MAX) opa = LV_OPA_COVER;
 203              		.loc 3 76 0
 204 001c 97F83830 		ldrb	r3, [r7, #56]	@ zero_extendqisi2
 205 0020 FB2B     		cmp	r3, #251
 206 0022 02D9     		bls	.L8
 207              		.loc 3 76 0 is_stmt 0 discriminator 1
 208 0024 FF23     		movs	r3, #255
 209 0026 87F83830 		strb	r3, [r7, #56]
 210              	.L8:
  77:..\..\..\lvgl\version_6.1.2\lvgl\src\lv_draw/lv_draw_basic.c **** 
  78:..\..\..\lvgl\version_6.1.2\lvgl\src\lv_draw/lv_draw_basic.c ****     /*Pixel out of the mask*/
  79:..\..\..\lvgl\version_6.1.2\lvgl\src\lv_draw/lv_draw_basic.c ****     if(x < mask_p->x1 || x > mask_p->x2 || y < mask_p->y1 || y > mask_p->y2) {
 211              		.loc 3 79 0 is_stmt 1
 212 002a BB68     		ldr	r3, [r7, #8]
 213 002c B3F90030 		ldrsh	r3, [r3]
 214 0030 B7F90E20 		ldrsh	r2, [r7, #14]
 215 0034 9A42     		cmp	r2, r3
 216 0036 76DB     		blt	.L15
 217              		.loc 3 79 0 is_stmt 0 discriminator 1
 218 0038 BB68     		ldr	r3, [r7, #8]
 219 003a B3F90430 		ldrsh	r3, [r3, #4]
 220 003e B7F90E20 		ldrsh	r2, [r7, #14]
 221 0042 9A42     		cmp	r2, r3
 222 0044 6FDC     		bgt	.L15
 223              		.loc 3 79 0 discriminator 2
 224 0046 BB68     		ldr	r3, [r7, #8]
 225 0048 B3F90230 		ldrsh	r3, [r3, #2]
 226 004c B7F90C20 		ldrsh	r2, [r7, #12]
 227 0050 9A42     		cmp	r2, r3
 228 0052 68DB     		blt	.L15
 229              		.loc 3 79 0 discriminator 3
 230 0054 BB68     		ldr	r3, [r7, #8]
 231 0056 B3F90630 		ldrsh	r3, [r3, #6]
 232 005a B7F90C20 		ldrsh	r2, [r7, #12]
 233 005e 9A42     		cmp	r2, r3
 234 0060 61DC     		bgt	.L15
  80:..\..\..\lvgl\version_6.1.2\lvgl\src\lv_draw/lv_draw_basic.c ****         return;
  81:..\..\..\lvgl\version_6.1.2\lvgl\src\lv_draw/lv_draw_basic.c ****     }
  82:..\..\..\lvgl\version_6.1.2\lvgl\src\lv_draw/lv_draw_basic.c **** 
  83:..\..\..\lvgl\version_6.1.2\lvgl\src\lv_draw/lv_draw_basic.c ****     lv_disp_t * disp    = lv_refr_get_disp_refreshing();
 235              		.loc 3 83 0 is_stmt 1
 236 0062 FFF7FEFF 		bl	lv_refr_get_disp_refreshing
ARM GAS  C:\Users\tmj32\AppData\Local\Temp\ccgaZSAc.s 			page 16


 237 0066 7862     		str	r0, [r7, #36]
  84:..\..\..\lvgl\version_6.1.2\lvgl\src\lv_draw/lv_draw_basic.c ****     lv_disp_buf_t * vdb = lv_disp_get_buf(disp);
 238              		.loc 3 84 0
 239 0068 786A     		ldr	r0, [r7, #36]
 240 006a FFF7FEFF 		bl	lv_disp_get_buf
 241 006e 3862     		str	r0, [r7, #32]
  85:..\..\..\lvgl\version_6.1.2\lvgl\src\lv_draw/lv_draw_basic.c ****     uint32_t vdb_width  = lv_area_get_width(&vdb->area);
 242              		.loc 3 85 0
 243 0070 3B6A     		ldr	r3, [r7, #32]
 244 0072 1033     		adds	r3, r3, #16
 245 0074 1846     		mov	r0, r3
 246 0076 FFF7FEFF 		bl	lv_area_get_width
 247 007a 0346     		mov	r3, r0
 248 007c FB61     		str	r3, [r7, #28]
  86:..\..\..\lvgl\version_6.1.2\lvgl\src\lv_draw/lv_draw_basic.c **** 
  87:..\..\..\lvgl\version_6.1.2\lvgl\src\lv_draw/lv_draw_basic.c ****     /*Make the coordinates relative to VDB*/
  88:..\..\..\lvgl\version_6.1.2\lvgl\src\lv_draw/lv_draw_basic.c ****     x -= vdb->area.x1;
 249              		.loc 3 88 0
 250 007e FA89     		ldrh	r2, [r7, #14]
 251 0080 3B6A     		ldr	r3, [r7, #32]
 252 0082 B3F91030 		ldrsh	r3, [r3, #16]
 253 0086 9BB2     		uxth	r3, r3
 254 0088 D31A     		subs	r3, r2, r3
 255 008a 9BB2     		uxth	r3, r3
 256 008c FB81     		strh	r3, [r7, #14]	@ movhi
  89:..\..\..\lvgl\version_6.1.2\lvgl\src\lv_draw/lv_draw_basic.c ****     y -= vdb->area.y1;
 257              		.loc 3 89 0
 258 008e BA89     		ldrh	r2, [r7, #12]
 259 0090 3B6A     		ldr	r3, [r7, #32]
 260 0092 B3F91230 		ldrsh	r3, [r3, #18]
 261 0096 9BB2     		uxth	r3, r3
 262 0098 D31A     		subs	r3, r2, r3
 263 009a 9BB2     		uxth	r3, r3
 264 009c BB81     		strh	r3, [r7, #12]	@ movhi
  90:..\..\..\lvgl\version_6.1.2\lvgl\src\lv_draw/lv_draw_basic.c **** 
  91:..\..\..\lvgl\version_6.1.2\lvgl\src\lv_draw/lv_draw_basic.c ****     if(disp->driver.set_px_cb) {
 265              		.loc 3 91 0
 266 009e 7B6A     		ldr	r3, [r7, #36]
 267 00a0 5B69     		ldr	r3, [r3, #20]
 268 00a2 002B     		cmp	r3, #0
 269 00a4 13D0     		beq	.L11
  92:..\..\..\lvgl\version_6.1.2\lvgl\src\lv_draw/lv_draw_basic.c ****         disp->driver.set_px_cb(&disp->driver, (uint8_t *)vdb->buf_act, vdb_width, x, y, color, opa)
 270              		.loc 3 92 0
 271 00a6 7B6A     		ldr	r3, [r7, #36]
 272 00a8 5C69     		ldr	r4, [r3, #20]
 273 00aa 786A     		ldr	r0, [r7, #36]
 274 00ac 3B6A     		ldr	r3, [r7, #32]
 275 00ae 9968     		ldr	r1, [r3, #8]
 276 00b0 FB69     		ldr	r3, [r7, #28]
 277 00b2 1AB2     		sxth	r2, r3
 278 00b4 B7F90E50 		ldrsh	r5, [r7, #14]
 279 00b8 97F83830 		ldrb	r3, [r7, #56]	@ zero_extendqisi2
 280 00bc 0293     		str	r3, [sp, #8]
 281 00be 7B68     		ldr	r3, [r7, #4]
 282 00c0 0193     		str	r3, [sp, #4]
 283 00c2 B7F90C30 		ldrsh	r3, [r7, #12]
 284 00c6 0093     		str	r3, [sp]
ARM GAS  C:\Users\tmj32\AppData\Local\Temp\ccgaZSAc.s 			page 17


 285 00c8 2B46     		mov	r3, r5
 286 00ca A047     		blx	r4
 287 00cc 2CE0     		b	.L5
 288              	.L11:
 289              	.LBB2:
  93:..\..\..\lvgl\version_6.1.2\lvgl\src\lv_draw/lv_draw_basic.c ****     } else {
  94:..\..\..\lvgl\version_6.1.2\lvgl\src\lv_draw/lv_draw_basic.c ****         bool scr_transp = false;
 290              		.loc 3 94 0
 291 00ce 0023     		movs	r3, #0
 292 00d0 FB76     		strb	r3, [r7, #27]
  95:..\..\..\lvgl\version_6.1.2\lvgl\src\lv_draw/lv_draw_basic.c **** #if LV_COLOR_DEPTH == 32 && LV_COLOR_SCREEN_TRANSP
  96:..\..\..\lvgl\version_6.1.2\lvgl\src\lv_draw/lv_draw_basic.c ****         scr_transp = disp->driver.screen_transp;
  97:..\..\..\lvgl\version_6.1.2\lvgl\src\lv_draw/lv_draw_basic.c **** #endif
  98:..\..\..\lvgl\version_6.1.2\lvgl\src\lv_draw/lv_draw_basic.c **** 
  99:..\..\..\lvgl\version_6.1.2\lvgl\src\lv_draw/lv_draw_basic.c ****         lv_color_t * vdb_px_p = vdb->buf_act;
 293              		.loc 3 99 0
 294 00d2 3B6A     		ldr	r3, [r7, #32]
 295 00d4 9B68     		ldr	r3, [r3, #8]
 296 00d6 7B61     		str	r3, [r7, #20]
 100:..\..\..\lvgl\version_6.1.2\lvgl\src\lv_draw/lv_draw_basic.c ****         vdb_px_p += y * vdb_width + x;
 297              		.loc 3 100 0
 298 00d8 B7F90C30 		ldrsh	r3, [r7, #12]
 299 00dc FA69     		ldr	r2, [r7, #28]
 300 00de 02FB03F2 		mul	r2, r2, r3
 301 00e2 B7F90E30 		ldrsh	r3, [r7, #14]
 302 00e6 1344     		add	r3, r3, r2
 303 00e8 9B00     		lsls	r3, r3, #2
 304 00ea 7A69     		ldr	r2, [r7, #20]
 305 00ec 1344     		add	r3, r3, r2
 306 00ee 7B61     		str	r3, [r7, #20]
 101:..\..\..\lvgl\version_6.1.2\lvgl\src\lv_draw/lv_draw_basic.c **** 
 102:..\..\..\lvgl\version_6.1.2\lvgl\src\lv_draw/lv_draw_basic.c ****         if(scr_transp == false) {
 307              		.loc 3 102 0
 308 00f0 FB7E     		ldrb	r3, [r7, #27]
 309 00f2 83F00103 		eor	r3, r3, #1
 310 00f6 DBB2     		uxtb	r3, r3
 311 00f8 002B     		cmp	r3, #0
 312 00fa 15D0     		beq	.L5
 103:..\..\..\lvgl\version_6.1.2\lvgl\src\lv_draw/lv_draw_basic.c ****             if(opa == LV_OPA_COVER) {
 313              		.loc 3 103 0
 314 00fc 97F83830 		ldrb	r3, [r7, #56]	@ zero_extendqisi2
 315 0100 FF2B     		cmp	r3, #255
 316 0102 03D1     		bne	.L12
 104:..\..\..\lvgl\version_6.1.2\lvgl\src\lv_draw/lv_draw_basic.c ****                 *vdb_px_p = color;
 317              		.loc 3 104 0
 318 0104 7B69     		ldr	r3, [r7, #20]
 319 0106 7A68     		ldr	r2, [r7, #4]
 320 0108 1A60     		str	r2, [r3]
 321 010a 0DE0     		b	.L5
 322              	.L12:
 105:..\..\..\lvgl\version_6.1.2\lvgl\src\lv_draw/lv_draw_basic.c ****             } else {
 106:..\..\..\lvgl\version_6.1.2\lvgl\src\lv_draw/lv_draw_basic.c ****                 *vdb_px_p = lv_color_mix(color, *vdb_px_p, opa);
 323              		.loc 3 106 0
 324 010c 97F83820 		ldrb	r2, [r7, #56]	@ zero_extendqisi2
 325 0110 7B69     		ldr	r3, [r7, #20]
 326 0112 1968     		ldr	r1, [r3]
 327 0114 7868     		ldr	r0, [r7, #4]
ARM GAS  C:\Users\tmj32\AppData\Local\Temp\ccgaZSAc.s 			page 18


 328 0116 FFF7FEFF 		bl	lv_color_mix
 329 011a 0246     		mov	r2, r0
 330 011c 7B69     		ldr	r3, [r7, #20]
 331 011e 1A60     		str	r2, [r3]
 332 0120 02E0     		b	.L5
 333              	.L14:
 334              	.LBE2:
  75:..\..\..\lvgl\version_6.1.2\lvgl\src\lv_draw/lv_draw_basic.c ****     if(opa > LV_OPA_MAX) opa = LV_OPA_COVER;
 335              		.loc 3 75 0
 336 0122 00BF     		nop
 337 0124 00E0     		b	.L5
 338              	.L15:
  80:..\..\..\lvgl\version_6.1.2\lvgl\src\lv_draw/lv_draw_basic.c ****     }
 339              		.loc 3 80 0
 340 0126 00BF     		nop
 341              	.L5:
 107:..\..\..\lvgl\version_6.1.2\lvgl\src\lv_draw/lv_draw_basic.c ****             }
 108:..\..\..\lvgl\version_6.1.2\lvgl\src\lv_draw/lv_draw_basic.c ****         } else {
 109:..\..\..\lvgl\version_6.1.2\lvgl\src\lv_draw/lv_draw_basic.c **** #if LV_COLOR_DEPTH == 32 && LV_COLOR_SCREEN_TRANSP
 110:..\..\..\lvgl\version_6.1.2\lvgl\src\lv_draw/lv_draw_basic.c ****             *vdb_px_p = color_mix_2_alpha(*vdb_px_p, (*vdb_px_p).ch.alpha, color, opa);
 111:..\..\..\lvgl\version_6.1.2\lvgl\src\lv_draw/lv_draw_basic.c **** #endif
 112:..\..\..\lvgl\version_6.1.2\lvgl\src\lv_draw/lv_draw_basic.c ****         }
 113:..\..\..\lvgl\version_6.1.2\lvgl\src\lv_draw/lv_draw_basic.c ****     }
 114:..\..\..\lvgl\version_6.1.2\lvgl\src\lv_draw/lv_draw_basic.c **** }
 342              		.loc 3 114 0
 343 0128 2837     		adds	r7, r7, #40
 344              		.cfi_def_cfa_offset 16
 345 012a BD46     		mov	sp, r7
 346              		.cfi_def_cfa_register 13
 347              		@ sp needed
 348 012c B0BD     		pop	{r4, r5, r7, pc}
 349              		.cfi_endproc
 350              	.LFE31:
 351              		.size	lv_draw_px, .-lv_draw_px
 352 012e 00BF     		.section	.text.lv_draw_fill,"ax",%progbits
 353              		.align	2
 354              		.global	lv_draw_fill
 355              		.thumb
 356              		.thumb_func
 357              		.type	lv_draw_fill, %function
 358              	lv_draw_fill:
 359              	.LFB32:
 115:..\..\..\lvgl\version_6.1.2\lvgl\src\lv_draw/lv_draw_basic.c **** 
 116:..\..\..\lvgl\version_6.1.2\lvgl\src\lv_draw/lv_draw_basic.c **** /**
 117:..\..\..\lvgl\version_6.1.2\lvgl\src\lv_draw/lv_draw_basic.c ****  * Fill an area in the Virtual Display Buffer
 118:..\..\..\lvgl\version_6.1.2\lvgl\src\lv_draw/lv_draw_basic.c ****  * @param cords_p coordinates of the area to fill
 119:..\..\..\lvgl\version_6.1.2\lvgl\src\lv_draw/lv_draw_basic.c ****  * @param mask_p fill only o this mask  (truncated to VDB area)
 120:..\..\..\lvgl\version_6.1.2\lvgl\src\lv_draw/lv_draw_basic.c ****  * @param color fill color
 121:..\..\..\lvgl\version_6.1.2\lvgl\src\lv_draw/lv_draw_basic.c ****  * @param opa opacity of the area (0..255)
 122:..\..\..\lvgl\version_6.1.2\lvgl\src\lv_draw/lv_draw_basic.c ****  */
 123:..\..\..\lvgl\version_6.1.2\lvgl\src\lv_draw/lv_draw_basic.c **** void lv_draw_fill(const lv_area_t * cords_p, const lv_area_t * mask_p, lv_color_t color, lv_opa_t o
 124:..\..\..\lvgl\version_6.1.2\lvgl\src\lv_draw/lv_draw_basic.c **** {
 360              		.loc 3 124 0
 361              		.cfi_startproc
 362              		@ args = 0, pretend = 0, frame = 56
 363              		@ frame_needed = 1, uses_anonymous_args = 0
 364 0000 80B5     		push	{r7, lr}
ARM GAS  C:\Users\tmj32\AppData\Local\Temp\ccgaZSAc.s 			page 19


 365              		.cfi_def_cfa_offset 8
 366              		.cfi_offset 7, -8
 367              		.cfi_offset 14, -4
 368 0002 90B0     		sub	sp, sp, #64
 369              		.cfi_def_cfa_offset 72
 370 0004 02AF     		add	r7, sp, #8
 371              		.cfi_def_cfa 7, 64
 372 0006 F860     		str	r0, [r7, #12]
 373 0008 B960     		str	r1, [r7, #8]
 374 000a 7A60     		str	r2, [r7, #4]
 375 000c FB70     		strb	r3, [r7, #3]
 125:..\..\..\lvgl\version_6.1.2\lvgl\src\lv_draw/lv_draw_basic.c ****     if(opa < LV_OPA_MIN) return;
 376              		.loc 3 125 0
 377 000e FB78     		ldrb	r3, [r7, #3]	@ zero_extendqisi2
 378 0010 0F2B     		cmp	r3, #15
 379 0012 68D9     		bls	.L22
 126:..\..\..\lvgl\version_6.1.2\lvgl\src\lv_draw/lv_draw_basic.c ****     if(opa > LV_OPA_MAX) opa = LV_OPA_COVER;
 380              		.loc 3 126 0
 381 0014 FB78     		ldrb	r3, [r7, #3]	@ zero_extendqisi2
 382 0016 FB2B     		cmp	r3, #251
 383 0018 01D9     		bls	.L19
 384              		.loc 3 126 0 is_stmt 0 discriminator 1
 385 001a FF23     		movs	r3, #255
 386 001c FB70     		strb	r3, [r7, #3]
 387              	.L19:
 127:..\..\..\lvgl\version_6.1.2\lvgl\src\lv_draw/lv_draw_basic.c **** 
 128:..\..\..\lvgl\version_6.1.2\lvgl\src\lv_draw/lv_draw_basic.c ****     lv_area_t res_a;
 129:..\..\..\lvgl\version_6.1.2\lvgl\src\lv_draw/lv_draw_basic.c ****     bool union_ok;
 130:..\..\..\lvgl\version_6.1.2\lvgl\src\lv_draw/lv_draw_basic.c **** 
 131:..\..\..\lvgl\version_6.1.2\lvgl\src\lv_draw/lv_draw_basic.c ****     /*Get the union of cord and mask*/
 132:..\..\..\lvgl\version_6.1.2\lvgl\src\lv_draw/lv_draw_basic.c ****     /* The mask is already truncated to the vdb size
 133:..\..\..\lvgl\version_6.1.2\lvgl\src\lv_draw/lv_draw_basic.c ****      * in 'lv_refr_area_with_vdb' function */
 134:..\..\..\lvgl\version_6.1.2\lvgl\src\lv_draw/lv_draw_basic.c ****     union_ok = lv_area_intersect(&res_a, cords_p, mask_p);
 388              		.loc 3 134 0 is_stmt 1
 389 001e 07F11C03 		add	r3, r7, #28
 390 0022 BA68     		ldr	r2, [r7, #8]
 391 0024 F968     		ldr	r1, [r7, #12]
 392 0026 1846     		mov	r0, r3
 393 0028 FFF7FEFF 		bl	lv_area_intersect
 394 002c 0346     		mov	r3, r0
 395 002e 87F83730 		strb	r3, [r7, #55]
 135:..\..\..\lvgl\version_6.1.2\lvgl\src\lv_draw/lv_draw_basic.c **** 
 136:..\..\..\lvgl\version_6.1.2\lvgl\src\lv_draw/lv_draw_basic.c ****     /*If there are common part of the three area then draw to the vdb*/
 137:..\..\..\lvgl\version_6.1.2\lvgl\src\lv_draw/lv_draw_basic.c ****     if(union_ok == false) {
 396              		.loc 3 137 0
 397 0032 97F83730 		ldrb	r3, [r7, #55]
 398 0036 83F00103 		eor	r3, r3, #1
 399 003a DBB2     		uxtb	r3, r3
 400 003c 002B     		cmp	r3, #0
 401 003e 54D1     		bne	.L23
 138:..\..\..\lvgl\version_6.1.2\lvgl\src\lv_draw/lv_draw_basic.c ****         return;
 139:..\..\..\lvgl\version_6.1.2\lvgl\src\lv_draw/lv_draw_basic.c ****     }
 140:..\..\..\lvgl\version_6.1.2\lvgl\src\lv_draw/lv_draw_basic.c **** 
 141:..\..\..\lvgl\version_6.1.2\lvgl\src\lv_draw/lv_draw_basic.c ****     lv_disp_t * disp    = lv_refr_get_disp_refreshing();
 402              		.loc 3 141 0
 403 0040 FFF7FEFF 		bl	lv_refr_get_disp_refreshing
 404 0044 3863     		str	r0, [r7, #48]
ARM GAS  C:\Users\tmj32\AppData\Local\Temp\ccgaZSAc.s 			page 20


 142:..\..\..\lvgl\version_6.1.2\lvgl\src\lv_draw/lv_draw_basic.c ****     lv_disp_buf_t * vdb = lv_disp_get_buf(disp);
 405              		.loc 3 142 0
 406 0046 386B     		ldr	r0, [r7, #48]
 407 0048 FFF7FEFF 		bl	lv_disp_get_buf
 408 004c F862     		str	r0, [r7, #44]
 143:..\..\..\lvgl\version_6.1.2\lvgl\src\lv_draw/lv_draw_basic.c **** 
 144:..\..\..\lvgl\version_6.1.2\lvgl\src\lv_draw/lv_draw_basic.c ****     lv_area_t vdb_rel_a; /*Stores relative coordinates on vdb*/
 145:..\..\..\lvgl\version_6.1.2\lvgl\src\lv_draw/lv_draw_basic.c ****     vdb_rel_a.x1 = res_a.x1 - vdb->area.x1;
 409              		.loc 3 145 0
 410 004e B7F91C30 		ldrsh	r3, [r7, #28]
 411 0052 9AB2     		uxth	r2, r3
 412 0054 FB6A     		ldr	r3, [r7, #44]
 413 0056 B3F91030 		ldrsh	r3, [r3, #16]
 414 005a 9BB2     		uxth	r3, r3
 415 005c D31A     		subs	r3, r2, r3
 416 005e 9BB2     		uxth	r3, r3
 417 0060 1BB2     		sxth	r3, r3
 418 0062 BB82     		strh	r3, [r7, #20]	@ movhi
 146:..\..\..\lvgl\version_6.1.2\lvgl\src\lv_draw/lv_draw_basic.c ****     vdb_rel_a.y1 = res_a.y1 - vdb->area.y1;
 419              		.loc 3 146 0
 420 0064 B7F91E30 		ldrsh	r3, [r7, #30]
 421 0068 9AB2     		uxth	r2, r3
 422 006a FB6A     		ldr	r3, [r7, #44]
 423 006c B3F91230 		ldrsh	r3, [r3, #18]
 424 0070 9BB2     		uxth	r3, r3
 425 0072 D31A     		subs	r3, r2, r3
 426 0074 9BB2     		uxth	r3, r3
 427 0076 1BB2     		sxth	r3, r3
 428 0078 FB82     		strh	r3, [r7, #22]	@ movhi
 147:..\..\..\lvgl\version_6.1.2\lvgl\src\lv_draw/lv_draw_basic.c ****     vdb_rel_a.x2 = res_a.x2 - vdb->area.x1;
 429              		.loc 3 147 0
 430 007a B7F92030 		ldrsh	r3, [r7, #32]
 431 007e 9AB2     		uxth	r2, r3
 432 0080 FB6A     		ldr	r3, [r7, #44]
 433 0082 B3F91030 		ldrsh	r3, [r3, #16]
 434 0086 9BB2     		uxth	r3, r3
 435 0088 D31A     		subs	r3, r2, r3
 436 008a 9BB2     		uxth	r3, r3
 437 008c 1BB2     		sxth	r3, r3
 438 008e 3B83     		strh	r3, [r7, #24]	@ movhi
 148:..\..\..\lvgl\version_6.1.2\lvgl\src\lv_draw/lv_draw_basic.c ****     vdb_rel_a.y2 = res_a.y2 - vdb->area.y1;
 439              		.loc 3 148 0
 440 0090 B7F92230 		ldrsh	r3, [r7, #34]
 441 0094 9AB2     		uxth	r2, r3
 442 0096 FB6A     		ldr	r3, [r7, #44]
 443 0098 B3F91230 		ldrsh	r3, [r3, #18]
 444 009c 9BB2     		uxth	r3, r3
 445 009e D31A     		subs	r3, r2, r3
 446 00a0 9BB2     		uxth	r3, r3
 447 00a2 1BB2     		sxth	r3, r3
 448 00a4 7B83     		strh	r3, [r7, #26]	@ movhi
 149:..\..\..\lvgl\version_6.1.2\lvgl\src\lv_draw/lv_draw_basic.c **** 
 150:..\..\..\lvgl\version_6.1.2\lvgl\src\lv_draw/lv_draw_basic.c ****     lv_color_t * vdb_buf_tmp = vdb->buf_act;
 449              		.loc 3 150 0
 450 00a6 FB6A     		ldr	r3, [r7, #44]
 451 00a8 9B68     		ldr	r3, [r3, #8]
 452 00aa BB62     		str	r3, [r7, #40]
ARM GAS  C:\Users\tmj32\AppData\Local\Temp\ccgaZSAc.s 			page 21


 151:..\..\..\lvgl\version_6.1.2\lvgl\src\lv_draw/lv_draw_basic.c ****     uint32_t vdb_width       = lv_area_get_width(&vdb->area);
 453              		.loc 3 151 0
 454 00ac FB6A     		ldr	r3, [r7, #44]
 455 00ae 1033     		adds	r3, r3, #16
 456 00b0 1846     		mov	r0, r3
 457 00b2 FFF7FEFF 		bl	lv_area_get_width
 458 00b6 0346     		mov	r3, r0
 459 00b8 7B62     		str	r3, [r7, #36]
 152:..\..\..\lvgl\version_6.1.2\lvgl\src\lv_draw/lv_draw_basic.c ****     /*Move the vdb_tmp to the first row*/
 153:..\..\..\lvgl\version_6.1.2\lvgl\src\lv_draw/lv_draw_basic.c ****     vdb_buf_tmp += vdb_width * vdb_rel_a.y1;
 460              		.loc 3 153 0
 461 00ba B7F91630 		ldrsh	r3, [r7, #22]
 462 00be 1A46     		mov	r2, r3
 463 00c0 7B6A     		ldr	r3, [r7, #36]
 464 00c2 03FB02F3 		mul	r3, r3, r2
 465 00c6 9B00     		lsls	r3, r3, #2
 466 00c8 BA6A     		ldr	r2, [r7, #40]
 467 00ca 1344     		add	r3, r3, r2
 468 00cc BB62     		str	r3, [r7, #40]
 154:..\..\..\lvgl\version_6.1.2\lvgl\src\lv_draw/lv_draw_basic.c **** 
 155:..\..\..\lvgl\version_6.1.2\lvgl\src\lv_draw/lv_draw_basic.c **** #if LV_USE_GPU
 156:..\..\..\lvgl\version_6.1.2\lvgl\src\lv_draw/lv_draw_basic.c ****     static LV_ATTRIBUTE_MEM_ALIGN lv_color_t color_array_tmp[LV_HOR_RES_MAX]; /*Used by 'lv_disp_me
 157:..\..\..\lvgl\version_6.1.2\lvgl\src\lv_draw/lv_draw_basic.c ****     static lv_coord_t last_width = -1;
 158:..\..\..\lvgl\version_6.1.2\lvgl\src\lv_draw/lv_draw_basic.c **** 
 159:..\..\..\lvgl\version_6.1.2\lvgl\src\lv_draw/lv_draw_basic.c ****     lv_coord_t w = lv_area_get_width(&vdb_rel_a);
 160:..\..\..\lvgl\version_6.1.2\lvgl\src\lv_draw/lv_draw_basic.c ****     /*Don't use hw. acc. for every small fill (because of the init overhead)*/
 161:..\..\..\lvgl\version_6.1.2\lvgl\src\lv_draw/lv_draw_basic.c ****     if(w < VFILL_HW_ACC_SIZE_LIMIT) {
 162:..\..\..\lvgl\version_6.1.2\lvgl\src\lv_draw/lv_draw_basic.c ****         sw_color_fill(vdb->buf_act, vdb_width, &vdb_rel_a, color, opa);
 163:..\..\..\lvgl\version_6.1.2\lvgl\src\lv_draw/lv_draw_basic.c ****     }
 164:..\..\..\lvgl\version_6.1.2\lvgl\src\lv_draw/lv_draw_basic.c ****     /*Not opaque fill*/
 165:..\..\..\lvgl\version_6.1.2\lvgl\src\lv_draw/lv_draw_basic.c ****     else if(opa == LV_OPA_COVER) {
 166:..\..\..\lvgl\version_6.1.2\lvgl\src\lv_draw/lv_draw_basic.c ****         /*Use hw fill if present*/
 167:..\..\..\lvgl\version_6.1.2\lvgl\src\lv_draw/lv_draw_basic.c ****         if(disp->driver.gpu_fill_cb) {
 168:..\..\..\lvgl\version_6.1.2\lvgl\src\lv_draw/lv_draw_basic.c ****             disp->driver.gpu_fill_cb(&disp->driver, vdb->buf_act, vdb_width, &vdb_rel_a, color);
 169:..\..\..\lvgl\version_6.1.2\lvgl\src\lv_draw/lv_draw_basic.c ****         }
 170:..\..\..\lvgl\version_6.1.2\lvgl\src\lv_draw/lv_draw_basic.c ****         /*Use hw blend if present and the area is not too small*/
 171:..\..\..\lvgl\version_6.1.2\lvgl\src\lv_draw/lv_draw_basic.c ****         else if(lv_area_get_height(&vdb_rel_a) > VFILL_HW_ACC_SIZE_LIMIT && disp->driver.gpu_blend_
 172:..\..\..\lvgl\version_6.1.2\lvgl\src\lv_draw/lv_draw_basic.c ****             /*Fill a  one line sized buffer with a color and blend this later*/
 173:..\..\..\lvgl\version_6.1.2\lvgl\src\lv_draw/lv_draw_basic.c ****             if(color_array_tmp[0].full != color.full || last_width != w) {
 174:..\..\..\lvgl\version_6.1.2\lvgl\src\lv_draw/lv_draw_basic.c ****                 uint16_t i;
 175:..\..\..\lvgl\version_6.1.2\lvgl\src\lv_draw/lv_draw_basic.c ****                 for(i = 0; i < w; i++) {
 176:..\..\..\lvgl\version_6.1.2\lvgl\src\lv_draw/lv_draw_basic.c ****                     color_array_tmp[i].full = color.full;
 177:..\..\..\lvgl\version_6.1.2\lvgl\src\lv_draw/lv_draw_basic.c ****                 }
 178:..\..\..\lvgl\version_6.1.2\lvgl\src\lv_draw/lv_draw_basic.c ****                 last_width = w;
 179:..\..\..\lvgl\version_6.1.2\lvgl\src\lv_draw/lv_draw_basic.c ****             }
 180:..\..\..\lvgl\version_6.1.2\lvgl\src\lv_draw/lv_draw_basic.c **** 
 181:..\..\..\lvgl\version_6.1.2\lvgl\src\lv_draw/lv_draw_basic.c ****             /*Blend the filled line to every line VDB line-by-line*/
 182:..\..\..\lvgl\version_6.1.2\lvgl\src\lv_draw/lv_draw_basic.c ****             lv_coord_t row;
 183:..\..\..\lvgl\version_6.1.2\lvgl\src\lv_draw/lv_draw_basic.c ****             for(row = vdb_rel_a.y1; row <= vdb_rel_a.y2; row++) {
 184:..\..\..\lvgl\version_6.1.2\lvgl\src\lv_draw/lv_draw_basic.c ****                 disp->driver.gpu_blend_cb(&disp->driver, &vdb_buf_tmp[vdb_rel_a.x1], color_array_tm
 185:..\..\..\lvgl\version_6.1.2\lvgl\src\lv_draw/lv_draw_basic.c ****                 vdb_buf_tmp += vdb_width;
 186:..\..\..\lvgl\version_6.1.2\lvgl\src\lv_draw/lv_draw_basic.c ****             }
 187:..\..\..\lvgl\version_6.1.2\lvgl\src\lv_draw/lv_draw_basic.c **** 
 188:..\..\..\lvgl\version_6.1.2\lvgl\src\lv_draw/lv_draw_basic.c ****         }
 189:..\..\..\lvgl\version_6.1.2\lvgl\src\lv_draw/lv_draw_basic.c ****         /*Else use sw fill if no better option*/
 190:..\..\..\lvgl\version_6.1.2\lvgl\src\lv_draw/lv_draw_basic.c ****         else {
 191:..\..\..\lvgl\version_6.1.2\lvgl\src\lv_draw/lv_draw_basic.c ****             sw_color_fill(vdb->buf_act, vdb_width, &vdb_rel_a, color, opa);
ARM GAS  C:\Users\tmj32\AppData\Local\Temp\ccgaZSAc.s 			page 22


 192:..\..\..\lvgl\version_6.1.2\lvgl\src\lv_draw/lv_draw_basic.c ****         }
 193:..\..\..\lvgl\version_6.1.2\lvgl\src\lv_draw/lv_draw_basic.c **** 
 194:..\..\..\lvgl\version_6.1.2\lvgl\src\lv_draw/lv_draw_basic.c ****     }
 195:..\..\..\lvgl\version_6.1.2\lvgl\src\lv_draw/lv_draw_basic.c ****     /*Fill with opacity*/
 196:..\..\..\lvgl\version_6.1.2\lvgl\src\lv_draw/lv_draw_basic.c ****     else {
 197:..\..\..\lvgl\version_6.1.2\lvgl\src\lv_draw/lv_draw_basic.c ****         /*Use hw blend if present*/
 198:..\..\..\lvgl\version_6.1.2\lvgl\src\lv_draw/lv_draw_basic.c ****         if(disp->driver.gpu_blend_cb) {
 199:..\..\..\lvgl\version_6.1.2\lvgl\src\lv_draw/lv_draw_basic.c ****             if(color_array_tmp[0].full != color.full || last_width != w) {
 200:..\..\..\lvgl\version_6.1.2\lvgl\src\lv_draw/lv_draw_basic.c ****                 uint16_t i;
 201:..\..\..\lvgl\version_6.1.2\lvgl\src\lv_draw/lv_draw_basic.c ****                 for(i = 0; i < w; i++) {
 202:..\..\..\lvgl\version_6.1.2\lvgl\src\lv_draw/lv_draw_basic.c ****                     color_array_tmp[i].full = color.full;
 203:..\..\..\lvgl\version_6.1.2\lvgl\src\lv_draw/lv_draw_basic.c ****                 }
 204:..\..\..\lvgl\version_6.1.2\lvgl\src\lv_draw/lv_draw_basic.c **** 
 205:..\..\..\lvgl\version_6.1.2\lvgl\src\lv_draw/lv_draw_basic.c ****                 last_width = w;
 206:..\..\..\lvgl\version_6.1.2\lvgl\src\lv_draw/lv_draw_basic.c ****             }
 207:..\..\..\lvgl\version_6.1.2\lvgl\src\lv_draw/lv_draw_basic.c ****             lv_coord_t row;
 208:..\..\..\lvgl\version_6.1.2\lvgl\src\lv_draw/lv_draw_basic.c ****             for(row = vdb_rel_a.y1; row <= vdb_rel_a.y2; row++) {
 209:..\..\..\lvgl\version_6.1.2\lvgl\src\lv_draw/lv_draw_basic.c ****                 disp->driver.gpu_blend_cb(&disp->driver, &vdb_buf_tmp[vdb_rel_a.x1], color_array_tm
 210:..\..\..\lvgl\version_6.1.2\lvgl\src\lv_draw/lv_draw_basic.c ****                 vdb_buf_tmp += vdb_width;
 211:..\..\..\lvgl\version_6.1.2\lvgl\src\lv_draw/lv_draw_basic.c ****             }
 212:..\..\..\lvgl\version_6.1.2\lvgl\src\lv_draw/lv_draw_basic.c **** 
 213:..\..\..\lvgl\version_6.1.2\lvgl\src\lv_draw/lv_draw_basic.c ****         }
 214:..\..\..\lvgl\version_6.1.2\lvgl\src\lv_draw/lv_draw_basic.c ****         /*Use sw fill with opa if no better option*/
 215:..\..\..\lvgl\version_6.1.2\lvgl\src\lv_draw/lv_draw_basic.c ****         else {
 216:..\..\..\lvgl\version_6.1.2\lvgl\src\lv_draw/lv_draw_basic.c ****             sw_color_fill(vdb->buf_act, vdb_width, &vdb_rel_a, color, opa);
 217:..\..\..\lvgl\version_6.1.2\lvgl\src\lv_draw/lv_draw_basic.c ****         }
 218:..\..\..\lvgl\version_6.1.2\lvgl\src\lv_draw/lv_draw_basic.c ****     }
 219:..\..\..\lvgl\version_6.1.2\lvgl\src\lv_draw/lv_draw_basic.c **** #else
 220:..\..\..\lvgl\version_6.1.2\lvgl\src\lv_draw/lv_draw_basic.c ****     sw_color_fill(vdb->buf_act, vdb_width, &vdb_rel_a, color, opa);
 469              		.loc 3 220 0
 470 00ce FB6A     		ldr	r3, [r7, #44]
 471 00d0 9868     		ldr	r0, [r3, #8]
 472 00d2 7B6A     		ldr	r3, [r7, #36]
 473 00d4 19B2     		sxth	r1, r3
 474 00d6 07F11402 		add	r2, r7, #20
 475 00da FB78     		ldrb	r3, [r7, #3]	@ zero_extendqisi2
 476 00dc 0093     		str	r3, [sp]
 477 00de 7B68     		ldr	r3, [r7, #4]
 478 00e0 FFF7FEFF 		bl	sw_color_fill
 479 00e4 02E0     		b	.L16
 480              	.L22:
 125:..\..\..\lvgl\version_6.1.2\lvgl\src\lv_draw/lv_draw_basic.c ****     if(opa > LV_OPA_MAX) opa = LV_OPA_COVER;
 481              		.loc 3 125 0
 482 00e6 00BF     		nop
 483 00e8 00E0     		b	.L16
 484              	.L23:
 138:..\..\..\lvgl\version_6.1.2\lvgl\src\lv_draw/lv_draw_basic.c ****     }
 485              		.loc 3 138 0
 486 00ea 00BF     		nop
 487              	.L16:
 221:..\..\..\lvgl\version_6.1.2\lvgl\src\lv_draw/lv_draw_basic.c **** #endif
 222:..\..\..\lvgl\version_6.1.2\lvgl\src\lv_draw/lv_draw_basic.c **** }
 488              		.loc 3 222 0
 489 00ec 3837     		adds	r7, r7, #56
 490              		.cfi_def_cfa_offset 8
 491 00ee BD46     		mov	sp, r7
 492              		.cfi_def_cfa_register 13
ARM GAS  C:\Users\tmj32\AppData\Local\Temp\ccgaZSAc.s 			page 23


 493              		@ sp needed
 494 00f0 80BD     		pop	{r7, pc}
 495              		.cfi_endproc
 496              	.LFE32:
 497              		.size	lv_draw_fill, .-lv_draw_fill
 498 00f2 00BF     		.section	.rodata
 499              		.align	2
 500              	.LC0:
 501 0000 00       		.byte	0
 502 0001 55       		.byte	85
 503 0002 AA       		.byte	-86
 504 0003 FF       		.byte	-1
 505              		.align	2
 506              	.LC1:
 507 0004 00       		.byte	0
 508 0005 11       		.byte	17
 509 0006 22       		.byte	34
 510 0007 33       		.byte	51
 511 0008 44       		.byte	68
 512 0009 55       		.byte	85
 513 000a 66       		.byte	102
 514 000b 77       		.byte	119
 515 000c 88       		.byte	-120
 516 000d 99       		.byte	-103
 517 000e AA       		.byte	-86
 518 000f BB       		.byte	-69
 519 0010 CC       		.byte	-52
 520 0011 DD       		.byte	-35
 521 0012 EE       		.byte	-18
 522 0013 FF       		.byte	-1
 523              		.section	.text.lv_draw_letter,"ax",%progbits
 524              		.align	2
 525              		.global	lv_draw_letter
 526              		.thumb
 527              		.thumb_func
 528              		.type	lv_draw_letter, %function
 529              	lv_draw_letter:
 530              	.LFB33:
 223:..\..\..\lvgl\version_6.1.2\lvgl\src\lv_draw/lv_draw_basic.c **** 
 224:..\..\..\lvgl\version_6.1.2\lvgl\src\lv_draw/lv_draw_basic.c **** /**
 225:..\..\..\lvgl\version_6.1.2\lvgl\src\lv_draw/lv_draw_basic.c ****  * Draw a letter in the Virtual Display Buffer
 226:..\..\..\lvgl\version_6.1.2\lvgl\src\lv_draw/lv_draw_basic.c ****  * @param pos_p left-top coordinate of the latter
 227:..\..\..\lvgl\version_6.1.2\lvgl\src\lv_draw/lv_draw_basic.c ****  * @param mask_p the letter will be drawn only on this area  (truncated to VDB area)
 228:..\..\..\lvgl\version_6.1.2\lvgl\src\lv_draw/lv_draw_basic.c ****  * @param font_p pointer to font
 229:..\..\..\lvgl\version_6.1.2\lvgl\src\lv_draw/lv_draw_basic.c ****  * @param letter a letter to draw
 230:..\..\..\lvgl\version_6.1.2\lvgl\src\lv_draw/lv_draw_basic.c ****  * @param color color of letter
 231:..\..\..\lvgl\version_6.1.2\lvgl\src\lv_draw/lv_draw_basic.c ****  * @param opa opacity of letter (0..255)
 232:..\..\..\lvgl\version_6.1.2\lvgl\src\lv_draw/lv_draw_basic.c ****  */
 233:..\..\..\lvgl\version_6.1.2\lvgl\src\lv_draw/lv_draw_basic.c **** void lv_draw_letter(const lv_point_t * pos_p, const lv_area_t * mask_p, const lv_font_t * font_p, u
 234:..\..\..\lvgl\version_6.1.2\lvgl\src\lv_draw/lv_draw_basic.c ****                     lv_color_t color, lv_opa_t opa)
 235:..\..\..\lvgl\version_6.1.2\lvgl\src\lv_draw/lv_draw_basic.c **** {
 531              		.loc 3 235 0
 532              		.cfi_startproc
 533              		@ args = 8, pretend = 0, frame = 128
 534              		@ frame_needed = 1, uses_anonymous_args = 0
 535 0000 F0B5     		push	{r4, r5, r6, r7, lr}
 536              		.cfi_def_cfa_offset 20
ARM GAS  C:\Users\tmj32\AppData\Local\Temp\ccgaZSAc.s 			page 24


 537              		.cfi_offset 4, -20
 538              		.cfi_offset 5, -16
 539              		.cfi_offset 6, -12
 540              		.cfi_offset 7, -8
 541              		.cfi_offset 14, -4
 542 0002 A5B0     		sub	sp, sp, #148
 543              		.cfi_def_cfa_offset 168
 544 0004 04AF     		add	r7, sp, #16
 545              		.cfi_def_cfa 7, 152
 546 0006 F860     		str	r0, [r7, #12]
 547 0008 B960     		str	r1, [r7, #8]
 548 000a 7A60     		str	r2, [r7, #4]
 549 000c 3B60     		str	r3, [r7]
 236:..\..\..\lvgl\version_6.1.2\lvgl\src\lv_draw/lv_draw_basic.c ****     /*clang-format off*/
 237:..\..\..\lvgl\version_6.1.2\lvgl\src\lv_draw/lv_draw_basic.c ****     const uint8_t bpp1_opa_table[2]  = {0, 255};          /*Opacity mapping with bpp = 1 (Just for 
 550              		.loc 3 237 0
 551 000e 0023     		movs	r3, #0
 552 0010 87F84030 		strb	r3, [r7, #64]
 553 0014 FF23     		movs	r3, #255
 554 0016 87F84130 		strb	r3, [r7, #65]
 238:..\..\..\lvgl\version_6.1.2\lvgl\src\lv_draw/lv_draw_basic.c ****     const uint8_t bpp2_opa_table[4]  = {0, 85, 170, 255}; /*Opacity mapping with bpp = 2*/
 555              		.loc 3 238 0
 556 001a C44A     		ldr	r2, .L99
 557 001c 07F13C03 		add	r3, r7, #60
 558 0020 1068     		ldr	r0, [r2]	@ unaligned
 559 0022 1860     		str	r0, [r3]	@ unaligned
 239:..\..\..\lvgl\version_6.1.2\lvgl\src\lv_draw/lv_draw_basic.c ****     const uint8_t bpp4_opa_table[16] = {0,  17, 34,  51,  /*Opacity mapping with bpp = 4*/
 560              		.loc 3 239 0
 561 0024 C24B     		ldr	r3, .L99+4
 562 0026 07F12C04 		add	r4, r7, #44
 563 002a 1868     		ldr	r0, [r3]	@ unaligned
 564 002c 5968     		ldr	r1, [r3, #4]	@ unaligned
 565 002e 9A68     		ldr	r2, [r3, #8]	@ unaligned
 566 0030 DB68     		ldr	r3, [r3, #12]	@ unaligned
 567 0032 0FC4     		stmia	r4!, {r0, r1, r2, r3}
 240:..\..\..\lvgl\version_6.1.2\lvgl\src\lv_draw/lv_draw_basic.c ****                                         68, 85, 102, 119, 136, 153, 170, 187, 204, 221, 238, 255};
 241:..\..\..\lvgl\version_6.1.2\lvgl\src\lv_draw/lv_draw_basic.c ****     /*clang-format on*/
 242:..\..\..\lvgl\version_6.1.2\lvgl\src\lv_draw/lv_draw_basic.c **** 
 243:..\..\..\lvgl\version_6.1.2\lvgl\src\lv_draw/lv_draw_basic.c ****     if(opa < LV_OPA_MIN) return;
 568              		.loc 3 243 0
 569 0034 97F89C30 		ldrb	r3, [r7, #156]	@ zero_extendqisi2
 570 0038 0F2B     		cmp	r3, #15
 571 003a 40F22C84 		bls	.L93
 244:..\..\..\lvgl\version_6.1.2\lvgl\src\lv_draw/lv_draw_basic.c ****     if(opa > LV_OPA_MAX) opa = LV_OPA_COVER;
 572              		.loc 3 244 0
 573 003e 97F89C30 		ldrb	r3, [r7, #156]	@ zero_extendqisi2
 574 0042 FB2B     		cmp	r3, #251
 575 0044 02D9     		bls	.L27
 576              		.loc 3 244 0 is_stmt 0 discriminator 1
 577 0046 FF23     		movs	r3, #255
 578 0048 87F89C30 		strb	r3, [r7, #156]
 579              	.L27:
 245:..\..\..\lvgl\version_6.1.2\lvgl\src\lv_draw/lv_draw_basic.c **** 
 246:..\..\..\lvgl\version_6.1.2\lvgl\src\lv_draw/lv_draw_basic.c ****     if(font_p == NULL) {
 580              		.loc 3 246 0 is_stmt 1
 581 004c 7B68     		ldr	r3, [r7, #4]
 582 004e 002B     		cmp	r3, #0
ARM GAS  C:\Users\tmj32\AppData\Local\Temp\ccgaZSAc.s 			page 25


 583 0050 00F02384 		beq	.L94
 247:..\..\..\lvgl\version_6.1.2\lvgl\src\lv_draw/lv_draw_basic.c ****         LV_LOG_WARN("Font: character's bitmap not found");
 248:..\..\..\lvgl\version_6.1.2\lvgl\src\lv_draw/lv_draw_basic.c ****         return;
 249:..\..\..\lvgl\version_6.1.2\lvgl\src\lv_draw/lv_draw_basic.c ****     }
 250:..\..\..\lvgl\version_6.1.2\lvgl\src\lv_draw/lv_draw_basic.c **** 
 251:..\..\..\lvgl\version_6.1.2\lvgl\src\lv_draw/lv_draw_basic.c ****     lv_font_glyph_dsc_t g;
 252:..\..\..\lvgl\version_6.1.2\lvgl\src\lv_draw/lv_draw_basic.c ****     bool g_ret = lv_font_get_glyph_dsc(font_p, &g, letter, '\0');
 584              		.loc 3 252 0
 585 0054 07F12401 		add	r1, r7, #36
 586 0058 0023     		movs	r3, #0
 587 005a 3A68     		ldr	r2, [r7]
 588 005c 7868     		ldr	r0, [r7, #4]
 589 005e FFF7FEFF 		bl	lv_font_get_glyph_dsc
 590 0062 0346     		mov	r3, r0
 591 0064 87F85E30 		strb	r3, [r7, #94]
 253:..\..\..\lvgl\version_6.1.2\lvgl\src\lv_draw/lv_draw_basic.c ****     if(g_ret == false) return;
 592              		.loc 3 253 0
 593 0068 97F85E30 		ldrb	r3, [r7, #94]
 594 006c 83F00103 		eor	r3, r3, #1
 595 0070 DBB2     		uxtb	r3, r3
 596 0072 002B     		cmp	r3, #0
 597 0074 40F01384 		bne	.L95
 254:..\..\..\lvgl\version_6.1.2\lvgl\src\lv_draw/lv_draw_basic.c **** 
 255:..\..\..\lvgl\version_6.1.2\lvgl\src\lv_draw/lv_draw_basic.c **** 
 256:..\..\..\lvgl\version_6.1.2\lvgl\src\lv_draw/lv_draw_basic.c ****     lv_coord_t pos_x = pos_p->x + g.ofs_x;
 598              		.loc 3 256 0
 599 0078 FB68     		ldr	r3, [r7, #12]
 600 007a B3F90030 		ldrsh	r3, [r3]
 601 007e 9AB2     		uxth	r2, r3
 602 0080 97F92830 		ldrsb	r3, [r7, #40]
 603 0084 9BB2     		uxth	r3, r3
 604 0086 1344     		add	r3, r3, r2
 605 0088 9BB2     		uxth	r3, r3
 606 008a A7F85C30 		strh	r3, [r7, #92]	@ movhi
 257:..\..\..\lvgl\version_6.1.2\lvgl\src\lv_draw/lv_draw_basic.c ****     lv_coord_t pos_y = pos_p->y + (font_p->line_height - font_p->base_line) - g.box_h - g.ofs_y;
 607              		.loc 3 257 0
 608 008e FB68     		ldr	r3, [r7, #12]
 609 0090 B3F90230 		ldrsh	r3, [r3, #2]
 610 0094 9AB2     		uxth	r2, r3
 611 0096 7B68     		ldr	r3, [r7, #4]
 612 0098 1B7A     		ldrb	r3, [r3, #8]	@ zero_extendqisi2
 613 009a 19B2     		sxth	r1, r3
 614 009c 7B68     		ldr	r3, [r7, #4]
 615 009e 93F90930 		ldrsb	r3, [r3, #9]
 616 00a2 1BB2     		sxth	r3, r3
 617 00a4 CB1A     		subs	r3, r1, r3
 618 00a6 1BB2     		sxth	r3, r3
 619 00a8 9BB2     		uxth	r3, r3
 620 00aa 1344     		add	r3, r3, r2
 621 00ac 9AB2     		uxth	r2, r3
 622 00ae 97F82730 		ldrb	r3, [r7, #39]	@ zero_extendqisi2
 623 00b2 9BB2     		uxth	r3, r3
 624 00b4 D31A     		subs	r3, r2, r3
 625 00b6 9AB2     		uxth	r2, r3
 626 00b8 97F92930 		ldrsb	r3, [r7, #41]
 627 00bc 9BB2     		uxth	r3, r3
 628 00be D31A     		subs	r3, r2, r3
ARM GAS  C:\Users\tmj32\AppData\Local\Temp\ccgaZSAc.s 			page 26


 629 00c0 9BB2     		uxth	r3, r3
 630 00c2 A7F85A30 		strh	r3, [r7, #90]	@ movhi
 258:..\..\..\lvgl\version_6.1.2\lvgl\src\lv_draw/lv_draw_basic.c **** 
 259:..\..\..\lvgl\version_6.1.2\lvgl\src\lv_draw/lv_draw_basic.c ****     const uint8_t * bpp_opa_table;
 260:..\..\..\lvgl\version_6.1.2\lvgl\src\lv_draw/lv_draw_basic.c ****     uint8_t bitmask_init;
 261:..\..\..\lvgl\version_6.1.2\lvgl\src\lv_draw/lv_draw_basic.c ****     uint8_t bitmask;
 262:..\..\..\lvgl\version_6.1.2\lvgl\src\lv_draw/lv_draw_basic.c **** 
 263:..\..\..\lvgl\version_6.1.2\lvgl\src\lv_draw/lv_draw_basic.c ****     /*bpp = 3 should be converted to bpp = 4 in lv_font_get_glyph_bitmap */
 264:..\..\..\lvgl\version_6.1.2\lvgl\src\lv_draw/lv_draw_basic.c ****     if(g.bpp == 3) g.bpp = 4;
 631              		.loc 3 264 0
 632 00c6 97F82A30 		ldrb	r3, [r7, #42]	@ zero_extendqisi2
 633 00ca 032B     		cmp	r3, #3
 634 00cc 02D1     		bne	.L30
 635              		.loc 3 264 0 is_stmt 0 discriminator 1
 636 00ce 0423     		movs	r3, #4
 637 00d0 87F82A30 		strb	r3, [r7, #42]
 638              	.L30:
 265:..\..\..\lvgl\version_6.1.2\lvgl\src\lv_draw/lv_draw_basic.c **** 
 266:..\..\..\lvgl\version_6.1.2\lvgl\src\lv_draw/lv_draw_basic.c ****     switch(g.bpp) {
 639              		.loc 3 266 0 is_stmt 1
 640 00d4 97F82A30 		ldrb	r3, [r7, #42]	@ zero_extendqisi2
 641 00d8 013B     		subs	r3, r3, #1
 642 00da 072B     		cmp	r3, #7
 643 00dc 00F2E183 		bhi	.L96
 644 00e0 01A2     		adr	r2, .L33
 645 00e2 52F823F0 		ldr	pc, [r2, r3, lsl #2]
 646 00e6 00BF     		.p2align 2
 647              	.L33:
 648 00e8 09010000 		.word	.L32+1
 649 00ec 17010000 		.word	.L34+1
 650 00f0 A3080000 		.word	.L96+1
 651 00f4 25010000 		.word	.L35+1
 652 00f8 A3080000 		.word	.L96+1
 653 00fc A3080000 		.word	.L96+1
 654 0100 A3080000 		.word	.L96+1
 655 0104 33010000 		.word	.L36+1
 656              		.p2align 1
 657              	.L32:
 267:..\..\..\lvgl\version_6.1.2\lvgl\src\lv_draw/lv_draw_basic.c ****         case 1:
 268:..\..\..\lvgl\version_6.1.2\lvgl\src\lv_draw/lv_draw_basic.c ****             bpp_opa_table = bpp1_opa_table;
 658              		.loc 3 268 0
 659 0108 07F14003 		add	r3, r7, #64
 660 010c FB67     		str	r3, [r7, #124]
 269:..\..\..\lvgl\version_6.1.2\lvgl\src\lv_draw/lv_draw_basic.c ****             bitmask_init  = 0x80;
 661              		.loc 3 269 0
 662 010e 8023     		movs	r3, #128
 663 0110 87F87B30 		strb	r3, [r7, #123]
 270:..\..\..\lvgl\version_6.1.2\lvgl\src\lv_draw/lv_draw_basic.c ****             break;
 664              		.loc 3 270 0
 665 0114 13E0     		b	.L37
 666              	.L34:
 271:..\..\..\lvgl\version_6.1.2\lvgl\src\lv_draw/lv_draw_basic.c ****         case 2:
 272:..\..\..\lvgl\version_6.1.2\lvgl\src\lv_draw/lv_draw_basic.c ****             bpp_opa_table = bpp2_opa_table;
 667              		.loc 3 272 0
 668 0116 07F13C03 		add	r3, r7, #60
 669 011a FB67     		str	r3, [r7, #124]
 273:..\..\..\lvgl\version_6.1.2\lvgl\src\lv_draw/lv_draw_basic.c ****             bitmask_init  = 0xC0;
ARM GAS  C:\Users\tmj32\AppData\Local\Temp\ccgaZSAc.s 			page 27


 670              		.loc 3 273 0
 671 011c C023     		movs	r3, #192
 672 011e 87F87B30 		strb	r3, [r7, #123]
 274:..\..\..\lvgl\version_6.1.2\lvgl\src\lv_draw/lv_draw_basic.c ****             break;
 673              		.loc 3 274 0
 674 0122 0CE0     		b	.L37
 675              	.L35:
 275:..\..\..\lvgl\version_6.1.2\lvgl\src\lv_draw/lv_draw_basic.c ****         case 4:
 276:..\..\..\lvgl\version_6.1.2\lvgl\src\lv_draw/lv_draw_basic.c ****             bpp_opa_table = bpp4_opa_table;
 676              		.loc 3 276 0
 677 0124 07F12C03 		add	r3, r7, #44
 678 0128 FB67     		str	r3, [r7, #124]
 277:..\..\..\lvgl\version_6.1.2\lvgl\src\lv_draw/lv_draw_basic.c ****             bitmask_init  = 0xF0;
 679              		.loc 3 277 0
 680 012a F023     		movs	r3, #240
 681 012c 87F87B30 		strb	r3, [r7, #123]
 278:..\..\..\lvgl\version_6.1.2\lvgl\src\lv_draw/lv_draw_basic.c ****             break;
 682              		.loc 3 278 0
 683 0130 05E0     		b	.L37
 684              	.L36:
 279:..\..\..\lvgl\version_6.1.2\lvgl\src\lv_draw/lv_draw_basic.c ****         case 8:
 280:..\..\..\lvgl\version_6.1.2\lvgl\src\lv_draw/lv_draw_basic.c ****             bpp_opa_table = NULL;
 685              		.loc 3 280 0
 686 0132 0023     		movs	r3, #0
 687 0134 FB67     		str	r3, [r7, #124]
 281:..\..\..\lvgl\version_6.1.2\lvgl\src\lv_draw/lv_draw_basic.c ****             bitmask_init  = 0xFF;
 688              		.loc 3 281 0
 689 0136 FF23     		movs	r3, #255
 690 0138 87F87B30 		strb	r3, [r7, #123]
 282:..\..\..\lvgl\version_6.1.2\lvgl\src\lv_draw/lv_draw_basic.c ****             break;       /*No opa table, pixel value will be used directly*/
 691              		.loc 3 282 0
 692 013c 00BF     		nop
 693              	.L37:
 283:..\..\..\lvgl\version_6.1.2\lvgl\src\lv_draw/lv_draw_basic.c ****         default: return; /*Invalid bpp. Can't render the letter*/
 284:..\..\..\lvgl\version_6.1.2\lvgl\src\lv_draw/lv_draw_basic.c ****     }
 285:..\..\..\lvgl\version_6.1.2\lvgl\src\lv_draw/lv_draw_basic.c **** 
 286:..\..\..\lvgl\version_6.1.2\lvgl\src\lv_draw/lv_draw_basic.c ****     const uint8_t * map_p = lv_font_get_glyph_bitmap(font_p, letter);
 694              		.loc 3 286 0
 695 013e 3968     		ldr	r1, [r7]
 696 0140 7868     		ldr	r0, [r7, #4]
 697 0142 FFF7FEFF 		bl	lv_font_get_glyph_bitmap
 698 0146 7867     		str	r0, [r7, #116]
 287:..\..\..\lvgl\version_6.1.2\lvgl\src\lv_draw/lv_draw_basic.c **** 
 288:..\..\..\lvgl\version_6.1.2\lvgl\src\lv_draw/lv_draw_basic.c ****     if(map_p == NULL) return;
 699              		.loc 3 288 0
 700 0148 7B6F     		ldr	r3, [r7, #116]
 701 014a 002B     		cmp	r3, #0
 702 014c 00F0AB83 		beq	.L97
 289:..\..\..\lvgl\version_6.1.2\lvgl\src\lv_draw/lv_draw_basic.c **** 
 290:..\..\..\lvgl\version_6.1.2\lvgl\src\lv_draw/lv_draw_basic.c ****     /*If the letter is completely out of mask don't draw it */
 291:..\..\..\lvgl\version_6.1.2\lvgl\src\lv_draw/lv_draw_basic.c ****     if(pos_x + g.box_w < mask_p->x1 || pos_x > mask_p->x2 || pos_y + g.box_h < mask_p->y1 || pos_y 
 703              		.loc 3 291 0
 704 0150 B7F95C30 		ldrsh	r3, [r7, #92]
 705 0154 97F82620 		ldrb	r2, [r7, #38]	@ zero_extendqisi2
 706 0158 1344     		add	r3, r3, r2
 707 015a BA68     		ldr	r2, [r7, #8]
 708 015c B2F90020 		ldrsh	r2, [r2]
ARM GAS  C:\Users\tmj32\AppData\Local\Temp\ccgaZSAc.s 			page 28


 709 0160 9342     		cmp	r3, r2
 710 0162 C0F2A283 		blt	.L98
 711              		.loc 3 291 0 is_stmt 0 discriminator 1
 712 0166 BB68     		ldr	r3, [r7, #8]
 713 0168 B3F90430 		ldrsh	r3, [r3, #4]
 714 016c B7F95C20 		ldrsh	r2, [r7, #92]
 715 0170 9A42     		cmp	r2, r3
 716 0172 00F39A83 		bgt	.L98
 717              		.loc 3 291 0 discriminator 2
 718 0176 B7F95A30 		ldrsh	r3, [r7, #90]
 719 017a 97F82720 		ldrb	r2, [r7, #39]	@ zero_extendqisi2
 720 017e 1344     		add	r3, r3, r2
 721 0180 BA68     		ldr	r2, [r7, #8]
 722 0182 B2F90220 		ldrsh	r2, [r2, #2]
 723 0186 9342     		cmp	r3, r2
 724 0188 C0F28F83 		blt	.L98
 725              		.loc 3 291 0 discriminator 3
 726 018c BB68     		ldr	r3, [r7, #8]
 727 018e B3F90630 		ldrsh	r3, [r3, #6]
 728 0192 B7F95A20 		ldrsh	r2, [r7, #90]
 729 0196 9A42     		cmp	r2, r3
 730 0198 00F38783 		bgt	.L98
 292:..\..\..\lvgl\version_6.1.2\lvgl\src\lv_draw/lv_draw_basic.c **** 
 293:..\..\..\lvgl\version_6.1.2\lvgl\src\lv_draw/lv_draw_basic.c ****     lv_disp_t * disp    = lv_refr_get_disp_refreshing();
 731              		.loc 3 293 0 is_stmt 1
 732 019c FFF7FEFF 		bl	lv_refr_get_disp_refreshing
 733 01a0 7865     		str	r0, [r7, #84]
 294:..\..\..\lvgl\version_6.1.2\lvgl\src\lv_draw/lv_draw_basic.c ****     lv_disp_buf_t * vdb = lv_disp_get_buf(disp);
 734              		.loc 3 294 0
 735 01a2 786D     		ldr	r0, [r7, #84]
 736 01a4 FFF7FEFF 		bl	lv_disp_get_buf
 737 01a8 3865     		str	r0, [r7, #80]
 295:..\..\..\lvgl\version_6.1.2\lvgl\src\lv_draw/lv_draw_basic.c **** 
 296:..\..\..\lvgl\version_6.1.2\lvgl\src\lv_draw/lv_draw_basic.c ****     lv_coord_t vdb_width     = lv_area_get_width(&vdb->area);
 738              		.loc 3 296 0
 739 01aa 3B6D     		ldr	r3, [r7, #80]
 740 01ac 1033     		adds	r3, r3, #16
 741 01ae 1846     		mov	r0, r3
 742 01b0 FFF7FEFF 		bl	lv_area_get_width
 743 01b4 0346     		mov	r3, r0
 744 01b6 A7F84E30 		strh	r3, [r7, #78]	@ movhi
 297:..\..\..\lvgl\version_6.1.2\lvgl\src\lv_draw/lv_draw_basic.c ****     lv_color_t * vdb_buf_tmp = vdb->buf_act;
 745              		.loc 3 297 0
 746 01ba 3B6D     		ldr	r3, [r7, #80]
 747 01bc 9B68     		ldr	r3, [r3, #8]
 748 01be 3B67     		str	r3, [r7, #112]
 298:..\..\..\lvgl\version_6.1.2\lvgl\src\lv_draw/lv_draw_basic.c ****     lv_coord_t col, row;
 299:..\..\..\lvgl\version_6.1.2\lvgl\src\lv_draw/lv_draw_basic.c **** 
 300:..\..\..\lvgl\version_6.1.2\lvgl\src\lv_draw/lv_draw_basic.c ****     uint8_t width_byte_scr = g.box_w >> 3; /*Width in bytes (on the screen finally) (e.g. w = 11 ->
 749              		.loc 3 300 0
 750 01c0 97F82630 		ldrb	r3, [r7, #38]	@ zero_extendqisi2
 751 01c4 DB08     		lsrs	r3, r3, #3
 752 01c6 87F84D30 		strb	r3, [r7, #77]
 301:..\..\..\lvgl\version_6.1.2\lvgl\src\lv_draw/lv_draw_basic.c ****     if(g.box_w & 0x7) width_byte_scr++;
 753              		.loc 3 301 0
 754 01ca 97F82630 		ldrb	r3, [r7, #38]	@ zero_extendqisi2
 755 01ce 03F00703 		and	r3, r3, #7
ARM GAS  C:\Users\tmj32\AppData\Local\Temp\ccgaZSAc.s 			page 29


 756 01d2 002B     		cmp	r3, #0
 757 01d4 04D0     		beq	.L41
 758              		.loc 3 301 0 is_stmt 0 discriminator 1
 759 01d6 97F84D30 		ldrb	r3, [r7, #77]	@ zero_extendqisi2
 760 01da 0133     		adds	r3, r3, #1
 761 01dc 87F84D30 		strb	r3, [r7, #77]
 762              	.L41:
 302:..\..\..\lvgl\version_6.1.2\lvgl\src\lv_draw/lv_draw_basic.c ****     uint16_t width_bit = g.box_w * g.bpp; /*Letter width in bits*/
 763              		.loc 3 302 0 is_stmt 1
 764 01e0 97F82630 		ldrb	r3, [r7, #38]	@ zero_extendqisi2
 765 01e4 9AB2     		uxth	r2, r3
 766 01e6 97F82A30 		ldrb	r3, [r7, #42]	@ zero_extendqisi2
 767 01ea 9BB2     		uxth	r3, r3
 768 01ec 12FB03F3 		smulbb	r3, r2, r3
 769 01f0 A7F84A30 		strh	r3, [r7, #74]	@ movhi
 303:..\..\..\lvgl\version_6.1.2\lvgl\src\lv_draw/lv_draw_basic.c **** 
 304:..\..\..\lvgl\version_6.1.2\lvgl\src\lv_draw/lv_draw_basic.c ****     bool subpx = font_p->subpx == LV_FONT_SUBPX_NONE ? false : true;
 770              		.loc 3 304 0
 771 01f4 7B68     		ldr	r3, [r7, #4]
 772 01f6 9B7A     		ldrb	r3, [r3, #10]	@ zero_extendqisi2
 773 01f8 03F00303 		and	r3, r3, #3
 774 01fc DBB2     		uxtb	r3, r3
 775 01fe 002B     		cmp	r3, #0
 776 0200 14BF     		ite	ne
 777 0202 0123     		movne	r3, #1
 778 0204 0023     		moveq	r3, #0
 779 0206 87F84930 		strb	r3, [r7, #73]
 305:..\..\..\lvgl\version_6.1.2\lvgl\src\lv_draw/lv_draw_basic.c **** 
 306:..\..\..\lvgl\version_6.1.2\lvgl\src\lv_draw/lv_draw_basic.c ****     /* Calculate the col/row start/end on the map*/
 307:..\..\..\lvgl\version_6.1.2\lvgl\src\lv_draw/lv_draw_basic.c ****     lv_coord_t col_start;
 308:..\..\..\lvgl\version_6.1.2\lvgl\src\lv_draw/lv_draw_basic.c ****     lv_coord_t col_end;
 309:..\..\..\lvgl\version_6.1.2\lvgl\src\lv_draw/lv_draw_basic.c ****     lv_coord_t row_start;
 310:..\..\..\lvgl\version_6.1.2\lvgl\src\lv_draw/lv_draw_basic.c ****     lv_coord_t row_end;
 311:..\..\..\lvgl\version_6.1.2\lvgl\src\lv_draw/lv_draw_basic.c **** 
 312:..\..\..\lvgl\version_6.1.2\lvgl\src\lv_draw/lv_draw_basic.c ****     if(subpx == false) {
 780              		.loc 3 312 0
 781 020a 97F84930 		ldrb	r3, [r7, #73]
 782 020e 83F00103 		eor	r3, r3, #1
 783 0212 DBB2     		uxtb	r3, r3
 784 0214 002B     		cmp	r3, #0
 785 0216 5ED0     		beq	.L42
 313:..\..\..\lvgl\version_6.1.2\lvgl\src\lv_draw/lv_draw_basic.c ****         col_start = pos_x >= mask_p->x1 ? 0 : mask_p->x1 - pos_x;
 786              		.loc 3 313 0
 787 0218 BB68     		ldr	r3, [r7, #8]
 788 021a B3F90030 		ldrsh	r3, [r3]
 789 021e B7F95C20 		ldrsh	r2, [r7, #92]
 790 0222 9A42     		cmp	r2, r3
 791 0224 09DA     		bge	.L43
 792              		.loc 3 313 0 is_stmt 0 discriminator 1
 793 0226 BB68     		ldr	r3, [r7, #8]
 794 0228 B3F90030 		ldrsh	r3, [r3]
 795 022c 9AB2     		uxth	r2, r3
 796 022e B7F85C30 		ldrh	r3, [r7, #92]
 797 0232 D31A     		subs	r3, r2, r3
 798 0234 9BB2     		uxth	r3, r3
 799 0236 1BB2     		sxth	r3, r3
 800 0238 00E0     		b	.L44
ARM GAS  C:\Users\tmj32\AppData\Local\Temp\ccgaZSAc.s 			page 30


 801              	.L43:
 802              		.loc 3 313 0 discriminator 2
 803 023a 0023     		movs	r3, #0
 804              	.L44:
 805              		.loc 3 313 0 discriminator 4
 806 023c A7F86A30 		strh	r3, [r7, #106]	@ movhi
 314:..\..\..\lvgl\version_6.1.2\lvgl\src\lv_draw/lv_draw_basic.c ****         col_end   = pos_x + g.box_w <= mask_p->x2 ? g.box_w : mask_p->x2 - pos_x + 1;
 807              		.loc 3 314 0 is_stmt 1 discriminator 4
 808 0240 B7F95C30 		ldrsh	r3, [r7, #92]
 809 0244 97F82620 		ldrb	r2, [r7, #38]	@ zero_extendqisi2
 810 0248 1344     		add	r3, r3, r2
 811 024a BA68     		ldr	r2, [r7, #8]
 812 024c B2F90420 		ldrsh	r2, [r2, #4]
 813 0250 9342     		cmp	r3, r2
 814 0252 03DC     		bgt	.L45
 815              		.loc 3 314 0 is_stmt 0 discriminator 1
 816 0254 97F82630 		ldrb	r3, [r7, #38]	@ zero_extendqisi2
 817 0258 1BB2     		sxth	r3, r3
 818 025a 0AE0     		b	.L46
 819              	.L45:
 820              		.loc 3 314 0 discriminator 2
 821 025c BB68     		ldr	r3, [r7, #8]
 822 025e B3F90430 		ldrsh	r3, [r3, #4]
 823 0262 9AB2     		uxth	r2, r3
 824 0264 B7F85C30 		ldrh	r3, [r7, #92]
 825 0268 D31A     		subs	r3, r2, r3
 826 026a 9BB2     		uxth	r3, r3
 827 026c 0133     		adds	r3, r3, #1
 828 026e 9BB2     		uxth	r3, r3
 829 0270 1BB2     		sxth	r3, r3
 830              	.L46:
 831              		.loc 3 314 0 discriminator 4
 832 0272 A7F86830 		strh	r3, [r7, #104]	@ movhi
 315:..\..\..\lvgl\version_6.1.2\lvgl\src\lv_draw/lv_draw_basic.c ****         row_start = pos_y >= mask_p->y1 ? 0 : mask_p->y1 - pos_y;
 833              		.loc 3 315 0 is_stmt 1 discriminator 4
 834 0276 BB68     		ldr	r3, [r7, #8]
 835 0278 B3F90230 		ldrsh	r3, [r3, #2]
 836 027c B7F95A20 		ldrsh	r2, [r7, #90]
 837 0280 9A42     		cmp	r2, r3
 838 0282 09DA     		bge	.L47
 839              		.loc 3 315 0 is_stmt 0 discriminator 1
 840 0284 BB68     		ldr	r3, [r7, #8]
 841 0286 B3F90230 		ldrsh	r3, [r3, #2]
 842 028a 9AB2     		uxth	r2, r3
 843 028c B7F85A30 		ldrh	r3, [r7, #90]
 844 0290 D31A     		subs	r3, r2, r3
 845 0292 9BB2     		uxth	r3, r3
 846 0294 1BB2     		sxth	r3, r3
 847 0296 00E0     		b	.L48
 848              	.L47:
 849              		.loc 3 315 0 discriminator 2
 850 0298 0023     		movs	r3, #0
 851              	.L48:
 852              		.loc 3 315 0 discriminator 4
 853 029a A7F86630 		strh	r3, [r7, #102]	@ movhi
 316:..\..\..\lvgl\version_6.1.2\lvgl\src\lv_draw/lv_draw_basic.c ****         row_end   = pos_y + g.box_h <= mask_p->y2 ? g.box_h : mask_p->y2 - pos_y + 1;
 854              		.loc 3 316 0 is_stmt 1 discriminator 4
ARM GAS  C:\Users\tmj32\AppData\Local\Temp\ccgaZSAc.s 			page 31


 855 029e B7F95A30 		ldrsh	r3, [r7, #90]
 856 02a2 97F82720 		ldrb	r2, [r7, #39]	@ zero_extendqisi2
 857 02a6 1344     		add	r3, r3, r2
 858 02a8 BA68     		ldr	r2, [r7, #8]
 859 02aa B2F90620 		ldrsh	r2, [r2, #6]
 860 02ae 9342     		cmp	r3, r2
 861 02b0 03DC     		bgt	.L49
 862              		.loc 3 316 0 is_stmt 0 discriminator 1
 863 02b2 97F82730 		ldrb	r3, [r7, #39]	@ zero_extendqisi2
 864 02b6 1BB2     		sxth	r3, r3
 865 02b8 0AE0     		b	.L50
 866              	.L49:
 867              		.loc 3 316 0 discriminator 2
 868 02ba BB68     		ldr	r3, [r7, #8]
 869 02bc B3F90630 		ldrsh	r3, [r3, #6]
 870 02c0 9AB2     		uxth	r2, r3
 871 02c2 B7F85A30 		ldrh	r3, [r7, #90]
 872 02c6 D31A     		subs	r3, r2, r3
 873 02c8 9BB2     		uxth	r3, r3
 874 02ca 0133     		adds	r3, r3, #1
 875 02cc 9BB2     		uxth	r3, r3
 876 02ce 1BB2     		sxth	r3, r3
 877              	.L50:
 878              		.loc 3 316 0 discriminator 4
 879 02d0 A7F86430 		strh	r3, [r7, #100]	@ movhi
 880 02d4 6FE0     		b	.L51
 881              	.L42:
 317:..\..\..\lvgl\version_6.1.2\lvgl\src\lv_draw/lv_draw_basic.c ****     } else {
 318:..\..\..\lvgl\version_6.1.2\lvgl\src\lv_draw/lv_draw_basic.c ****         col_start = pos_x >= mask_p->x1 ? 0 : (mask_p->x1 - pos_x) * 3;
 882              		.loc 3 318 0 is_stmt 1
 883 02d6 BB68     		ldr	r3, [r7, #8]
 884 02d8 B3F90030 		ldrsh	r3, [r3]
 885 02dc B7F95C20 		ldrsh	r2, [r7, #92]
 886 02e0 9A42     		cmp	r2, r3
 887 02e2 0DDA     		bge	.L52
 888              		.loc 3 318 0 is_stmt 0 discriminator 1
 889 02e4 BB68     		ldr	r3, [r7, #8]
 890 02e6 B3F90030 		ldrsh	r3, [r3]
 891 02ea 1A46     		mov	r2, r3
 892 02ec B7F95C30 		ldrsh	r3, [r7, #92]
 893 02f0 D31A     		subs	r3, r2, r3
 894 02f2 9BB2     		uxth	r3, r3
 895 02f4 1A46     		mov	r2, r3	@ movhi
 896 02f6 5200     		lsls	r2, r2, #1
 897 02f8 1344     		add	r3, r3, r2
 898 02fa 9BB2     		uxth	r3, r3
 899 02fc 1BB2     		sxth	r3, r3
 900 02fe 00E0     		b	.L53
 901              	.L52:
 902              		.loc 3 318 0 discriminator 2
 903 0300 0023     		movs	r3, #0
 904              	.L53:
 905              		.loc 3 318 0 discriminator 4
 906 0302 A7F86A30 		strh	r3, [r7, #106]	@ movhi
 319:..\..\..\lvgl\version_6.1.2\lvgl\src\lv_draw/lv_draw_basic.c ****         col_end   = pos_x + g.box_w / 3 <= mask_p->x2 ? g.box_w : (mask_p->x2 - pos_x + 1) * 3;
 907              		.loc 3 319 0 is_stmt 1 discriminator 4
 908 0306 B7F95C30 		ldrsh	r3, [r7, #92]
ARM GAS  C:\Users\tmj32\AppData\Local\Temp\ccgaZSAc.s 			page 32


 909 030a 97F82620 		ldrb	r2, [r7, #38]	@ zero_extendqisi2
 910 030e 0949     		ldr	r1, .L99+8
 911 0310 A1FB0212 		umull	r1, r2, r1, r2
 912 0314 5208     		lsrs	r2, r2, #1
 913 0316 D2B2     		uxtb	r2, r2
 914 0318 1344     		add	r3, r3, r2
 915 031a BA68     		ldr	r2, [r7, #8]
 916 031c B2F90420 		ldrsh	r2, [r2, #4]
 917 0320 9342     		cmp	r3, r2
 918 0322 09DC     		bgt	.L54
 919              		.loc 3 319 0 is_stmt 0 discriminator 1
 920 0324 97F82630 		ldrb	r3, [r7, #38]	@ zero_extendqisi2
 921 0328 1BB2     		sxth	r3, r3
 922 032a 13E0     		b	.L55
 923              	.L100:
 924              		.align	2
 925              	.L99:
 926 032c 00000000 		.word	.LC0
 927 0330 04000000 		.word	.LC1
 928 0334 ABAAAAAA 		.word	-1431655765
 929              	.L54:
 930              		.loc 3 319 0 discriminator 2
 931 0338 BB68     		ldr	r3, [r7, #8]
 932 033a B3F90430 		ldrsh	r3, [r3, #4]
 933 033e 1A46     		mov	r2, r3
 934 0340 B7F95C30 		ldrsh	r3, [r7, #92]
 935 0344 D31A     		subs	r3, r2, r3
 936 0346 0133     		adds	r3, r3, #1
 937 0348 9BB2     		uxth	r3, r3
 938 034a 1A46     		mov	r2, r3	@ movhi
 939 034c 5200     		lsls	r2, r2, #1
 940 034e 1344     		add	r3, r3, r2
 941 0350 9BB2     		uxth	r3, r3
 942 0352 1BB2     		sxth	r3, r3
 943              	.L55:
 944              		.loc 3 319 0 discriminator 4
 945 0354 A7F86830 		strh	r3, [r7, #104]	@ movhi
 320:..\..\..\lvgl\version_6.1.2\lvgl\src\lv_draw/lv_draw_basic.c ****         row_start = pos_y >= mask_p->y1 ? 0 : mask_p->y1 - pos_y;
 946              		.loc 3 320 0 is_stmt 1 discriminator 4
 947 0358 BB68     		ldr	r3, [r7, #8]
 948 035a B3F90230 		ldrsh	r3, [r3, #2]
 949 035e B7F95A20 		ldrsh	r2, [r7, #90]
 950 0362 9A42     		cmp	r2, r3
 951 0364 09DA     		bge	.L56
 952              		.loc 3 320 0 is_stmt 0 discriminator 1
 953 0366 BB68     		ldr	r3, [r7, #8]
 954 0368 B3F90230 		ldrsh	r3, [r3, #2]
 955 036c 9AB2     		uxth	r2, r3
 956 036e B7F85A30 		ldrh	r3, [r7, #90]
 957 0372 D31A     		subs	r3, r2, r3
 958 0374 9BB2     		uxth	r3, r3
 959 0376 1BB2     		sxth	r3, r3
 960 0378 00E0     		b	.L57
 961              	.L56:
 962              		.loc 3 320 0 discriminator 2
 963 037a 0023     		movs	r3, #0
 964              	.L57:
ARM GAS  C:\Users\tmj32\AppData\Local\Temp\ccgaZSAc.s 			page 33


 965              		.loc 3 320 0 discriminator 4
 966 037c A7F86630 		strh	r3, [r7, #102]	@ movhi
 321:..\..\..\lvgl\version_6.1.2\lvgl\src\lv_draw/lv_draw_basic.c ****         row_end   = pos_y + g.box_h <= mask_p->y2 ? g.box_h : mask_p->y2 - pos_y + 1;
 967              		.loc 3 321 0 is_stmt 1 discriminator 4
 968 0380 B7F95A30 		ldrsh	r3, [r7, #90]
 969 0384 97F82720 		ldrb	r2, [r7, #39]	@ zero_extendqisi2
 970 0388 1344     		add	r3, r3, r2
 971 038a BA68     		ldr	r2, [r7, #8]
 972 038c B2F90620 		ldrsh	r2, [r2, #6]
 973 0390 9342     		cmp	r3, r2
 974 0392 03DC     		bgt	.L58
 975              		.loc 3 321 0 is_stmt 0 discriminator 1
 976 0394 97F82730 		ldrb	r3, [r7, #39]	@ zero_extendqisi2
 977 0398 1BB2     		sxth	r3, r3
 978 039a 0AE0     		b	.L59
 979              	.L58:
 980              		.loc 3 321 0 discriminator 2
 981 039c BB68     		ldr	r3, [r7, #8]
 982 039e B3F90630 		ldrsh	r3, [r3, #6]
 983 03a2 9AB2     		uxth	r2, r3
 984 03a4 B7F85A30 		ldrh	r3, [r7, #90]
 985 03a8 D31A     		subs	r3, r2, r3
 986 03aa 9BB2     		uxth	r3, r3
 987 03ac 0133     		adds	r3, r3, #1
 988 03ae 9BB2     		uxth	r3, r3
 989 03b0 1BB2     		sxth	r3, r3
 990              	.L59:
 991              		.loc 3 321 0 discriminator 4
 992 03b2 A7F86430 		strh	r3, [r7, #100]	@ movhi
 993              	.L51:
 322:..\..\..\lvgl\version_6.1.2\lvgl\src\lv_draw/lv_draw_basic.c ****     }
 323:..\..\..\lvgl\version_6.1.2\lvgl\src\lv_draw/lv_draw_basic.c **** 
 324:..\..\..\lvgl\version_6.1.2\lvgl\src\lv_draw/lv_draw_basic.c ****     /*Set a pointer on VDB to the first pixel of the letter*/
 325:..\..\..\lvgl\version_6.1.2\lvgl\src\lv_draw/lv_draw_basic.c ****     vdb_buf_tmp += ((pos_y - vdb->area.y1) * vdb_width) + pos_x - vdb->area.x1;
 994              		.loc 3 325 0 is_stmt 1
 995 03b6 B7F95A30 		ldrsh	r3, [r7, #90]
 996 03ba 3A6D     		ldr	r2, [r7, #80]
 997 03bc B2F91220 		ldrsh	r2, [r2, #18]
 998 03c0 9B1A     		subs	r3, r3, r2
 999 03c2 B7F94E20 		ldrsh	r2, [r7, #78]
 1000 03c6 02FB03F2 		mul	r2, r2, r3
 1001 03ca B7F95C30 		ldrsh	r3, [r7, #92]
 1002 03ce 1344     		add	r3, r3, r2
 1003 03d0 3A6D     		ldr	r2, [r7, #80]
 1004 03d2 B2F91020 		ldrsh	r2, [r2, #16]
 1005 03d6 9B1A     		subs	r3, r3, r2
 1006 03d8 9B00     		lsls	r3, r3, #2
 1007 03da 3A6F     		ldr	r2, [r7, #112]
 1008 03dc 1344     		add	r3, r3, r2
 1009 03de 3B67     		str	r3, [r7, #112]
 326:..\..\..\lvgl\version_6.1.2\lvgl\src\lv_draw/lv_draw_basic.c **** 
 327:..\..\..\lvgl\version_6.1.2\lvgl\src\lv_draw/lv_draw_basic.c ****     /*If the letter is partially out of mask the move there on VDB*/
 328:..\..\..\lvgl\version_6.1.2\lvgl\src\lv_draw/lv_draw_basic.c ****     if(subpx) vdb_buf_tmp += (row_start * vdb_width) + col_start / 3;
 1010              		.loc 3 328 0
 1011 03e0 97F84930 		ldrb	r3, [r7, #73]	@ zero_extendqisi2
 1012 03e4 002B     		cmp	r3, #0
 1013 03e6 13D0     		beq	.L60
ARM GAS  C:\Users\tmj32\AppData\Local\Temp\ccgaZSAc.s 			page 34


 1014              		.loc 3 328 0 is_stmt 0 discriminator 1
 1015 03e8 B7F96630 		ldrsh	r3, [r7, #102]
 1016 03ec B7F94E20 		ldrsh	r2, [r7, #78]
 1017 03f0 02FB03F2 		mul	r2, r2, r3
 1018 03f4 B7F96A30 		ldrsh	r3, [r7, #106]
 1019 03f8 B349     		ldr	r1, .L101
 1020 03fa 81FB0301 		smull	r0, r1, r1, r3
 1021 03fe DB17     		asrs	r3, r3, #31
 1022 0400 CB1A     		subs	r3, r1, r3
 1023 0402 1BB2     		sxth	r3, r3
 1024 0404 1344     		add	r3, r3, r2
 1025 0406 9B00     		lsls	r3, r3, #2
 1026 0408 3A6F     		ldr	r2, [r7, #112]
 1027 040a 1344     		add	r3, r3, r2
 1028 040c 3B67     		str	r3, [r7, #112]
 1029 040e 0CE0     		b	.L61
 1030              	.L60:
 329:..\..\..\lvgl\version_6.1.2\lvgl\src\lv_draw/lv_draw_basic.c ****     else vdb_buf_tmp += (row_start * vdb_width) + col_start;
 1031              		.loc 3 329 0 is_stmt 1
 1032 0410 B7F96630 		ldrsh	r3, [r7, #102]
 1033 0414 B7F94E20 		ldrsh	r2, [r7, #78]
 1034 0418 02FB03F2 		mul	r2, r2, r3
 1035 041c B7F96A30 		ldrsh	r3, [r7, #106]
 1036 0420 1344     		add	r3, r3, r2
 1037 0422 9B00     		lsls	r3, r3, #2
 1038 0424 3A6F     		ldr	r2, [r7, #112]
 1039 0426 1344     		add	r3, r3, r2
 1040 0428 3B67     		str	r3, [r7, #112]
 1041              	.L61:
 330:..\..\..\lvgl\version_6.1.2\lvgl\src\lv_draw/lv_draw_basic.c **** 
 331:..\..\..\lvgl\version_6.1.2\lvgl\src\lv_draw/lv_draw_basic.c ****     /*Move on the map too*/
 332:..\..\..\lvgl\version_6.1.2\lvgl\src\lv_draw/lv_draw_basic.c ****     uint32_t bit_ofs = (row_start * width_bit) + (col_start * g.bpp);
 1042              		.loc 3 332 0
 1043 042a B7F96630 		ldrsh	r3, [r7, #102]
 1044 042e B7F84A20 		ldrh	r2, [r7, #74]
 1045 0432 02FB03F2 		mul	r2, r2, r3
 1046 0436 B7F96A30 		ldrsh	r3, [r7, #106]
 1047 043a 97F82A10 		ldrb	r1, [r7, #42]	@ zero_extendqisi2
 1048 043e 01FB03F3 		mul	r3, r1, r3
 1049 0442 1344     		add	r3, r3, r2
 1050 0444 7B64     		str	r3, [r7, #68]
 333:..\..\..\lvgl\version_6.1.2\lvgl\src\lv_draw/lv_draw_basic.c ****     map_p += bit_ofs >> 3;
 1051              		.loc 3 333 0
 1052 0446 7B6C     		ldr	r3, [r7, #68]
 1053 0448 DB08     		lsrs	r3, r3, #3
 1054 044a 7A6F     		ldr	r2, [r7, #116]
 1055 044c 1344     		add	r3, r3, r2
 1056 044e 7B67     		str	r3, [r7, #116]
 334:..\..\..\lvgl\version_6.1.2\lvgl\src\lv_draw/lv_draw_basic.c **** 
 335:..\..\..\lvgl\version_6.1.2\lvgl\src\lv_draw/lv_draw_basic.c ****     uint8_t letter_px;
 336:..\..\..\lvgl\version_6.1.2\lvgl\src\lv_draw/lv_draw_basic.c ****     lv_opa_t px_opa = 0;
 1057              		.loc 3 336 0
 1058 0450 0023     		movs	r3, #0
 1059 0452 87F86330 		strb	r3, [r7, #99]
 337:..\..\..\lvgl\version_6.1.2\lvgl\src\lv_draw/lv_draw_basic.c ****     uint16_t col_bit;
 338:..\..\..\lvgl\version_6.1.2\lvgl\src\lv_draw/lv_draw_basic.c ****     col_bit = bit_ofs & 0x7; /* "& 0x7" equals to "% 8" just faster */
 1060              		.loc 3 338 0
ARM GAS  C:\Users\tmj32\AppData\Local\Temp\ccgaZSAc.s 			page 35


 1061 0456 7B6C     		ldr	r3, [r7, #68]
 1062 0458 9BB2     		uxth	r3, r3
 1063 045a 03F00703 		and	r3, r3, #7
 1064 045e A7F86030 		strh	r3, [r7, #96]	@ movhi
 339:..\..\..\lvgl\version_6.1.2\lvgl\src\lv_draw/lv_draw_basic.c **** 
 340:..\..\..\lvgl\version_6.1.2\lvgl\src\lv_draw/lv_draw_basic.c ****     bool scr_transp = false;
 1065              		.loc 3 340 0
 1066 0462 0023     		movs	r3, #0
 1067 0464 87F84330 		strb	r3, [r7, #67]
 341:..\..\..\lvgl\version_6.1.2\lvgl\src\lv_draw/lv_draw_basic.c **** #if LV_COLOR_DEPTH == 32 && LV_COLOR_SCREEN_TRANSP
 342:..\..\..\lvgl\version_6.1.2\lvgl\src\lv_draw/lv_draw_basic.c ****     scr_transp = disp->driver.screen_transp;
 343:..\..\..\lvgl\version_6.1.2\lvgl\src\lv_draw/lv_draw_basic.c **** #endif
 344:..\..\..\lvgl\version_6.1.2\lvgl\src\lv_draw/lv_draw_basic.c **** 
 345:..\..\..\lvgl\version_6.1.2\lvgl\src\lv_draw/lv_draw_basic.c ****     uint8_t font_rgb[3];
 346:..\..\..\lvgl\version_6.1.2\lvgl\src\lv_draw/lv_draw_basic.c ****     uint8_t txt_rgb[3] = {LV_COLOR_GET_R(color), LV_COLOR_GET_G(color), LV_COLOR_GET_B(color)};
 1068              		.loc 3 346 0
 1069 0468 97F89A30 		ldrb	r3, [r7, #154]	@ zero_extendqisi2
 1070 046c 3B77     		strb	r3, [r7, #28]
 1071 046e 97F89930 		ldrb	r3, [r7, #153]	@ zero_extendqisi2
 1072 0472 7B77     		strb	r3, [r7, #29]
 1073 0474 97F89830 		ldrb	r3, [r7, #152]	@ zero_extendqisi2
 1074 0478 BB77     		strb	r3, [r7, #30]
 347:..\..\..\lvgl\version_6.1.2\lvgl\src\lv_draw/lv_draw_basic.c **** 
 348:..\..\..\lvgl\version_6.1.2\lvgl\src\lv_draw/lv_draw_basic.c ****     for(row = row_start; row < row_end; row++) {
 1075              		.loc 3 348 0
 1076 047a B7F86630 		ldrh	r3, [r7, #102]	@ movhi
 1077 047e A7F86C30 		strh	r3, [r7, #108]	@ movhi
 1078 0482 00E2     		b	.L62
 1079              	.L91:
 1080              	.LBB3:
 349:..\..\..\lvgl\version_6.1.2\lvgl\src\lv_draw/lv_draw_basic.c ****         bitmask = bitmask_init >> col_bit;
 1081              		.loc 3 349 0
 1082 0484 97F87B20 		ldrb	r2, [r7, #123]	@ zero_extendqisi2
 1083 0488 B7F86030 		ldrh	r3, [r7, #96]
 1084 048c 42FA03F3 		asr	r3, r2, r3
 1085 0490 87F87A30 		strb	r3, [r7, #122]
 350:..\..\..\lvgl\version_6.1.2\lvgl\src\lv_draw/lv_draw_basic.c ****         uint8_t sub_px_cnt = 0;
 1086              		.loc 3 350 0
 1087 0494 0023     		movs	r3, #0
 1088 0496 87F85F30 		strb	r3, [r7, #95]
 351:..\..\..\lvgl\version_6.1.2\lvgl\src\lv_draw/lv_draw_basic.c ****         for(col = col_start; col < col_end; col++) {
 1089              		.loc 3 351 0
 1090 049a B7F86A30 		ldrh	r3, [r7, #106]	@ movhi
 1091 049e A7F86E30 		strh	r3, [r7, #110]	@ movhi
 1092 04a2 9DE1     		b	.L63
 1093              	.L88:
 352:..\..\..\lvgl\version_6.1.2\lvgl\src\lv_draw/lv_draw_basic.c ****             letter_px = (*map_p & bitmask) >> (8 - col_bit - g.bpp);
 1094              		.loc 3 352 0
 1095 04a4 7B6F     		ldr	r3, [r7, #116]
 1096 04a6 1A78     		ldrb	r2, [r3]	@ zero_extendqisi2
 1097 04a8 97F87A30 		ldrb	r3, [r7, #122]
 1098 04ac 1340     		ands	r3, r3, r2
 1099 04ae DBB2     		uxtb	r3, r3
 1100 04b0 1A46     		mov	r2, r3
 1101 04b2 B7F86030 		ldrh	r3, [r7, #96]
 1102 04b6 C3F10803 		rsb	r3, r3, #8
 1103 04ba 97F82A10 		ldrb	r1, [r7, #42]	@ zero_extendqisi2
ARM GAS  C:\Users\tmj32\AppData\Local\Temp\ccgaZSAc.s 			page 36


 1104 04be 5B1A     		subs	r3, r3, r1
 1105 04c0 42FA03F3 		asr	r3, r2, r3
 1106 04c4 87F84230 		strb	r3, [r7, #66]
 353:..\..\..\lvgl\version_6.1.2\lvgl\src\lv_draw/lv_draw_basic.c **** 
 354:..\..\..\lvgl\version_6.1.2\lvgl\src\lv_draw/lv_draw_basic.c ****             /*subpx == 0*/
 355:..\..\..\lvgl\version_6.1.2\lvgl\src\lv_draw/lv_draw_basic.c ****             if(subpx == false) {
 1107              		.loc 3 355 0
 1108 04c8 97F84930 		ldrb	r3, [r7, #73]
 1109 04cc 83F00103 		eor	r3, r3, #1
 1110 04d0 DBB2     		uxtb	r3, r3
 1111 04d2 002B     		cmp	r3, #0
 1112 04d4 00F09380 		beq	.L64
 356:..\..\..\lvgl\version_6.1.2\lvgl\src\lv_draw/lv_draw_basic.c ****                 if(letter_px != 0) {
 1113              		.loc 3 356 0
 1114 04d8 97F84230 		ldrb	r3, [r7, #66]	@ zero_extendqisi2
 1115 04dc 002B     		cmp	r3, #0
 1116 04de 00F08A80 		beq	.L65
 357:..\..\..\lvgl\version_6.1.2\lvgl\src\lv_draw/lv_draw_basic.c ****                     if(opa == LV_OPA_COVER) {
 1117              		.loc 3 357 0
 1118 04e2 97F89C30 		ldrb	r3, [r7, #156]	@ zero_extendqisi2
 1119 04e6 FF2B     		cmp	r3, #255
 1120 04e8 0ED1     		bne	.L66
 358:..\..\..\lvgl\version_6.1.2\lvgl\src\lv_draw/lv_draw_basic.c ****                         px_opa = g.bpp == 8 ? letter_px : bpp_opa_table[letter_px];
 1121              		.loc 3 358 0
 1122 04ea 97F82A30 		ldrb	r3, [r7, #42]	@ zero_extendqisi2
 1123 04ee 082B     		cmp	r3, #8
 1124 04f0 05D0     		beq	.L67
 1125              		.loc 3 358 0 is_stmt 0 discriminator 1
 1126 04f2 97F84230 		ldrb	r3, [r7, #66]	@ zero_extendqisi2
 1127 04f6 FA6F     		ldr	r2, [r7, #124]
 1128 04f8 1344     		add	r3, r3, r2
 1129 04fa 1B78     		ldrb	r3, [r3]	@ zero_extendqisi2
 1130 04fc 01E0     		b	.L68
 1131              	.L67:
 1132              		.loc 3 358 0 discriminator 2
 1133 04fe 97F84230 		ldrb	r3, [r7, #66]	@ zero_extendqisi2
 1134              	.L68:
 1135              		.loc 3 358 0 discriminator 4
 1136 0502 87F86330 		strb	r3, [r7, #99]
 1137 0506 21E0     		b	.L69
 1138              	.L66:
 359:..\..\..\lvgl\version_6.1.2\lvgl\src\lv_draw/lv_draw_basic.c ****                     } else {
 360:..\..\..\lvgl\version_6.1.2\lvgl\src\lv_draw/lv_draw_basic.c ****                         px_opa = g.bpp == 8 ? (uint16_t)((uint16_t)letter_px * opa) >> 8
 1139              		.loc 3 360 0 is_stmt 1
 1140 0508 97F82A30 		ldrb	r3, [r7, #42]	@ zero_extendqisi2
 1141 050c 082B     		cmp	r3, #8
 1142 050e 0CD1     		bne	.L70
 1143              		.loc 3 360 0 is_stmt 0 discriminator 1
 1144 0510 97F84230 		ldrb	r3, [r7, #66]	@ zero_extendqisi2
 1145 0514 9AB2     		uxth	r2, r3
 1146 0516 97F89C30 		ldrb	r3, [r7, #156]	@ zero_extendqisi2
 1147 051a 9BB2     		uxth	r3, r3
 1148 051c 12FB03F3 		smulbb	r3, r2, r3
 1149 0520 9BB2     		uxth	r3, r3
 1150 0522 1B0A     		lsrs	r3, r3, #8
 1151 0524 9BB2     		uxth	r3, r3
 1152 0526 DBB2     		uxtb	r3, r3
ARM GAS  C:\Users\tmj32\AppData\Local\Temp\ccgaZSAc.s 			page 37


 1153 0528 0EE0     		b	.L71
 1154              	.L70:
 361:..\..\..\lvgl\version_6.1.2\lvgl\src\lv_draw/lv_draw_basic.c ****                                 : (uint16_t)((uint16_t)bpp_opa_table[letter_px] * opa) >> 8;
 1155              		.loc 3 361 0 is_stmt 1 discriminator 2
 1156 052a 97F84230 		ldrb	r3, [r7, #66]	@ zero_extendqisi2
 1157 052e FA6F     		ldr	r2, [r7, #124]
 1158 0530 1344     		add	r3, r3, r2
 1159 0532 1B78     		ldrb	r3, [r3]	@ zero_extendqisi2
 1160 0534 9AB2     		uxth	r2, r3
 1161 0536 97F89C30 		ldrb	r3, [r7, #156]	@ zero_extendqisi2
 1162 053a 9BB2     		uxth	r3, r3
 1163 053c 12FB03F3 		smulbb	r3, r2, r3
 1164 0540 9BB2     		uxth	r3, r3
 360:..\..\..\lvgl\version_6.1.2\lvgl\src\lv_draw/lv_draw_basic.c ****                                 : (uint16_t)((uint16_t)bpp_opa_table[letter_px] * opa) >> 8;
 1165              		.loc 3 360 0 discriminator 2
 1166 0542 1B0A     		lsrs	r3, r3, #8
 1167 0544 9BB2     		uxth	r3, r3
 1168 0546 DBB2     		uxtb	r3, r3
 1169              	.L71:
 360:..\..\..\lvgl\version_6.1.2\lvgl\src\lv_draw/lv_draw_basic.c ****                                 : (uint16_t)((uint16_t)bpp_opa_table[letter_px] * opa) >> 8;
 1170              		.loc 3 360 0 is_stmt 0 discriminator 4
 1171 0548 87F86330 		strb	r3, [r7, #99]
 1172              	.L69:
 362:..\..\..\lvgl\version_6.1.2\lvgl\src\lv_draw/lv_draw_basic.c ****                     }
 363:..\..\..\lvgl\version_6.1.2\lvgl\src\lv_draw/lv_draw_basic.c **** 
 364:..\..\..\lvgl\version_6.1.2\lvgl\src\lv_draw/lv_draw_basic.c ****                     if(disp->driver.set_px_cb) {
 1173              		.loc 3 364 0 is_stmt 1
 1174 054c 7B6D     		ldr	r3, [r7, #84]
 1175 054e 5B69     		ldr	r3, [r3, #20]
 1176 0550 002B     		cmp	r3, #0
 1177 0552 2BD0     		beq	.L72
 365:..\..\..\lvgl\version_6.1.2\lvgl\src\lv_draw/lv_draw_basic.c ****                         disp->driver.set_px_cb(&disp->driver, (uint8_t *)vdb->buf_act, vdb_width,
 1178              		.loc 3 365 0
 1179 0554 7B6D     		ldr	r3, [r7, #84]
 1180 0556 5C69     		ldr	r4, [r3, #20]
 1181 0558 786D     		ldr	r0, [r7, #84]
 1182 055a 3B6D     		ldr	r3, [r7, #80]
 1183 055c 9968     		ldr	r1, [r3, #8]
 1184 055e B7F86E20 		ldrh	r2, [r7, #110]
 1185 0562 B7F85C30 		ldrh	r3, [r7, #92]
 1186 0566 1344     		add	r3, r3, r2
 1187 0568 9AB2     		uxth	r2, r3
 366:..\..\..\lvgl\version_6.1.2\lvgl\src\lv_draw/lv_draw_basic.c ****                                 (col + pos_x) - vdb->area.x1, (row + pos_y) - vdb->area.y1, color, 
 1188              		.loc 3 366 0
 1189 056a 3B6D     		ldr	r3, [r7, #80]
 1190 056c B3F91030 		ldrsh	r3, [r3, #16]
 365:..\..\..\lvgl\version_6.1.2\lvgl\src\lv_draw/lv_draw_basic.c ****                         disp->driver.set_px_cb(&disp->driver, (uint8_t *)vdb->buf_act, vdb_width,
 1191              		.loc 3 365 0
 1192 0570 9BB2     		uxth	r3, r3
 1193 0572 D31A     		subs	r3, r2, r3
 1194 0574 9BB2     		uxth	r3, r3
 1195 0576 1EB2     		sxth	r6, r3
 1196 0578 B7F86C20 		ldrh	r2, [r7, #108]
 1197 057c B7F85A30 		ldrh	r3, [r7, #90]
 1198 0580 1344     		add	r3, r3, r2
 1199 0582 9AB2     		uxth	r2, r3
 1200              		.loc 3 366 0
ARM GAS  C:\Users\tmj32\AppData\Local\Temp\ccgaZSAc.s 			page 38


 1201 0584 3B6D     		ldr	r3, [r7, #80]
 1202 0586 B3F91230 		ldrsh	r3, [r3, #18]
 365:..\..\..\lvgl\version_6.1.2\lvgl\src\lv_draw/lv_draw_basic.c ****                         disp->driver.set_px_cb(&disp->driver, (uint8_t *)vdb->buf_act, vdb_width,
 1203              		.loc 3 365 0
 1204 058a 9BB2     		uxth	r3, r3
 1205 058c D31A     		subs	r3, r2, r3
 1206 058e 9BB2     		uxth	r3, r3
 1207 0590 1BB2     		sxth	r3, r3
 1208 0592 B7F94E50 		ldrsh	r5, [r7, #78]
 1209 0596 97F86320 		ldrb	r2, [r7, #99]	@ zero_extendqisi2
 1210 059a 0292     		str	r2, [sp, #8]
 1211 059c D7F89820 		ldr	r2, [r7, #152]
 1212 05a0 0192     		str	r2, [sp, #4]
 1213 05a2 0093     		str	r3, [sp]
 1214 05a4 3346     		mov	r3, r6
 1215 05a6 2A46     		mov	r2, r5
 1216 05a8 A047     		blx	r4
 1217 05aa 24E0     		b	.L65
 1218              	.L72:
 367:..\..\..\lvgl\version_6.1.2\lvgl\src\lv_draw/lv_draw_basic.c ****                     } else if(vdb_buf_tmp->full != color.full) {
 1219              		.loc 3 367 0
 1220 05ac 3B6F     		ldr	r3, [r7, #112]
 1221 05ae 1A68     		ldr	r2, [r3]
 1222 05b0 D7F89830 		ldr	r3, [r7, #152]
 1223 05b4 9A42     		cmp	r2, r3
 1224 05b6 1ED0     		beq	.L65
 368:..\..\..\lvgl\version_6.1.2\lvgl\src\lv_draw/lv_draw_basic.c ****                         if(px_opa > LV_OPA_MAX) {
 1225              		.loc 3 368 0
 1226 05b8 97F86330 		ldrb	r3, [r7, #99]	@ zero_extendqisi2
 1227 05bc FB2B     		cmp	r3, #251
 1228 05be 04D9     		bls	.L73
 369:..\..\..\lvgl\version_6.1.2\lvgl\src\lv_draw/lv_draw_basic.c ****                             *vdb_buf_tmp = color;
 1229              		.loc 3 369 0
 1230 05c0 3B6F     		ldr	r3, [r7, #112]
 1231 05c2 D7F89820 		ldr	r2, [r7, #152]
 1232 05c6 1A60     		str	r2, [r3]
 1233 05c8 15E0     		b	.L65
 1234              	.L73:
 370:..\..\..\lvgl\version_6.1.2\lvgl\src\lv_draw/lv_draw_basic.c ****                         } else if(px_opa > LV_OPA_MIN) {
 1235              		.loc 3 370 0
 1236 05ca 97F86330 		ldrb	r3, [r7, #99]	@ zero_extendqisi2
 1237 05ce 102B     		cmp	r3, #16
 1238 05d0 11D9     		bls	.L65
 371:..\..\..\lvgl\version_6.1.2\lvgl\src\lv_draw/lv_draw_basic.c ****                             if(scr_transp == false) {
 1239              		.loc 3 371 0
 1240 05d2 97F84330 		ldrb	r3, [r7, #67]
 1241 05d6 83F00103 		eor	r3, r3, #1
 1242 05da DBB2     		uxtb	r3, r3
 1243 05dc 002B     		cmp	r3, #0
 1244 05de 0AD0     		beq	.L65
 372:..\..\..\lvgl\version_6.1.2\lvgl\src\lv_draw/lv_draw_basic.c ****                                 *vdb_buf_tmp = lv_color_mix(color, *vdb_buf_tmp, px_opa);
 1245              		.loc 3 372 0
 1246 05e0 97F86320 		ldrb	r2, [r7, #99]	@ zero_extendqisi2
 1247 05e4 3B6F     		ldr	r3, [r7, #112]
 1248 05e6 1968     		ldr	r1, [r3]
 1249 05e8 D7F89800 		ldr	r0, [r7, #152]
 1250 05ec FFF7FEFF 		bl	lv_color_mix
ARM GAS  C:\Users\tmj32\AppData\Local\Temp\ccgaZSAc.s 			page 39


 1251 05f0 0246     		mov	r2, r0
 1252 05f2 3B6F     		ldr	r3, [r7, #112]
 1253 05f4 1A60     		str	r2, [r3]
 1254              	.L65:
 373:..\..\..\lvgl\version_6.1.2\lvgl\src\lv_draw/lv_draw_basic.c ****                             } else {
 374:..\..\..\lvgl\version_6.1.2\lvgl\src\lv_draw/lv_draw_basic.c **** #if LV_COLOR_DEPTH == 32 && LV_COLOR_SCREEN_TRANSP
 375:..\..\..\lvgl\version_6.1.2\lvgl\src\lv_draw/lv_draw_basic.c ****         *vdb_buf_tmp = color_mix_2_alpha(*vdb_buf_tmp, (*vdb_buf_tmp).ch.alpha, color, px_opa);
 376:..\..\..\lvgl\version_6.1.2\lvgl\src\lv_draw/lv_draw_basic.c **** #endif
 377:..\..\..\lvgl\version_6.1.2\lvgl\src\lv_draw/lv_draw_basic.c ****                             }
 378:..\..\..\lvgl\version_6.1.2\lvgl\src\lv_draw/lv_draw_basic.c ****                         }
 379:..\..\..\lvgl\version_6.1.2\lvgl\src\lv_draw/lv_draw_basic.c ****                     }
 380:..\..\..\lvgl\version_6.1.2\lvgl\src\lv_draw/lv_draw_basic.c ****                 }
 381:..\..\..\lvgl\version_6.1.2\lvgl\src\lv_draw/lv_draw_basic.c ****                 vdb_buf_tmp++;
 1255              		.loc 3 381 0
 1256 05f6 3B6F     		ldr	r3, [r7, #112]
 1257 05f8 0433     		adds	r3, r3, #4
 1258 05fa 3B67     		str	r3, [r7, #112]
 1259 05fc C7E0     		b	.L74
 1260              	.L64:
 382:..\..\..\lvgl\version_6.1.2\lvgl\src\lv_draw/lv_draw_basic.c ****             }
 383:..\..\..\lvgl\version_6.1.2\lvgl\src\lv_draw/lv_draw_basic.c ****             /*Handle subpx drawing*/
 384:..\..\..\lvgl\version_6.1.2\lvgl\src\lv_draw/lv_draw_basic.c ****             else {
 385:..\..\..\lvgl\version_6.1.2\lvgl\src\lv_draw/lv_draw_basic.c ****                 if(letter_px != 0) {
 1261              		.loc 3 385 0
 1262 05fe 97F84230 		ldrb	r3, [r7, #66]	@ zero_extendqisi2
 1263 0602 002B     		cmp	r3, #0
 1264 0604 3ED0     		beq	.L75
 386:..\..\..\lvgl\version_6.1.2\lvgl\src\lv_draw/lv_draw_basic.c ****                     if(opa == LV_OPA_COVER) {
 1265              		.loc 3 386 0
 1266 0606 97F89C30 		ldrb	r3, [r7, #156]	@ zero_extendqisi2
 1267 060a FF2B     		cmp	r3, #255
 1268 060c 0ED1     		bne	.L76
 387:..\..\..\lvgl\version_6.1.2\lvgl\src\lv_draw/lv_draw_basic.c ****                         px_opa = g.bpp == 8 ? letter_px : bpp_opa_table[letter_px];
 1269              		.loc 3 387 0
 1270 060e 97F82A30 		ldrb	r3, [r7, #42]	@ zero_extendqisi2
 1271 0612 082B     		cmp	r3, #8
 1272 0614 05D0     		beq	.L77
 1273              		.loc 3 387 0 is_stmt 0 discriminator 1
 1274 0616 97F84230 		ldrb	r3, [r7, #66]	@ zero_extendqisi2
 1275 061a FA6F     		ldr	r2, [r7, #124]
 1276 061c 1344     		add	r3, r3, r2
 1277 061e 1B78     		ldrb	r3, [r3]	@ zero_extendqisi2
 1278 0620 01E0     		b	.L78
 1279              	.L77:
 1280              		.loc 3 387 0 discriminator 2
 1281 0622 97F84230 		ldrb	r3, [r7, #66]	@ zero_extendqisi2
 1282              	.L78:
 1283              		.loc 3 387 0 discriminator 4
 1284 0626 87F86330 		strb	r3, [r7, #99]
 1285 062a 21E0     		b	.L79
 1286              	.L76:
 388:..\..\..\lvgl\version_6.1.2\lvgl\src\lv_draw/lv_draw_basic.c ****                     } else {
 389:..\..\..\lvgl\version_6.1.2\lvgl\src\lv_draw/lv_draw_basic.c ****                         px_opa = g.bpp == 8 ? (uint16_t)((uint16_t)letter_px * opa) >> 8
 1287              		.loc 3 389 0 is_stmt 1
 1288 062c 97F82A30 		ldrb	r3, [r7, #42]	@ zero_extendqisi2
 1289 0630 082B     		cmp	r3, #8
 1290 0632 0CD1     		bne	.L80
ARM GAS  C:\Users\tmj32\AppData\Local\Temp\ccgaZSAc.s 			page 40


 1291              		.loc 3 389 0 is_stmt 0 discriminator 1
 1292 0634 97F84230 		ldrb	r3, [r7, #66]	@ zero_extendqisi2
 1293 0638 9AB2     		uxth	r2, r3
 1294 063a 97F89C30 		ldrb	r3, [r7, #156]	@ zero_extendqisi2
 1295 063e 9BB2     		uxth	r3, r3
 1296 0640 12FB03F3 		smulbb	r3, r2, r3
 1297 0644 9BB2     		uxth	r3, r3
 1298 0646 1B0A     		lsrs	r3, r3, #8
 1299 0648 9BB2     		uxth	r3, r3
 1300 064a DBB2     		uxtb	r3, r3
 1301 064c 0EE0     		b	.L81
 1302              	.L80:
 390:..\..\..\lvgl\version_6.1.2\lvgl\src\lv_draw/lv_draw_basic.c ****                                 : (uint16_t)((uint16_t)bpp_opa_table[letter_px] * opa) >> 8;
 1303              		.loc 3 390 0 is_stmt 1 discriminator 2
 1304 064e 97F84230 		ldrb	r3, [r7, #66]	@ zero_extendqisi2
 1305 0652 FA6F     		ldr	r2, [r7, #124]
 1306 0654 1344     		add	r3, r3, r2
 1307 0656 1B78     		ldrb	r3, [r3]	@ zero_extendqisi2
 1308 0658 9AB2     		uxth	r2, r3
 1309 065a 97F89C30 		ldrb	r3, [r7, #156]	@ zero_extendqisi2
 1310 065e 9BB2     		uxth	r3, r3
 1311 0660 12FB03F3 		smulbb	r3, r2, r3
 1312 0664 9BB2     		uxth	r3, r3
 389:..\..\..\lvgl\version_6.1.2\lvgl\src\lv_draw/lv_draw_basic.c ****                                 : (uint16_t)((uint16_t)bpp_opa_table[letter_px] * opa) >> 8;
 1313              		.loc 3 389 0 discriminator 2
 1314 0666 1B0A     		lsrs	r3, r3, #8
 1315 0668 9BB2     		uxth	r3, r3
 1316 066a DBB2     		uxtb	r3, r3
 1317              	.L81:
 389:..\..\..\lvgl\version_6.1.2\lvgl\src\lv_draw/lv_draw_basic.c ****                                 : (uint16_t)((uint16_t)bpp_opa_table[letter_px] * opa) >> 8;
 1318              		.loc 3 389 0 is_stmt 0 discriminator 4
 1319 066c 87F86330 		strb	r3, [r7, #99]
 1320              	.L79:
 391:..\..\..\lvgl\version_6.1.2\lvgl\src\lv_draw/lv_draw_basic.c ****                     }
 392:..\..\..\lvgl\version_6.1.2\lvgl\src\lv_draw/lv_draw_basic.c **** 
 393:..\..\..\lvgl\version_6.1.2\lvgl\src\lv_draw/lv_draw_basic.c ****                     font_rgb[sub_px_cnt] = px_opa;
 1321              		.loc 3 393 0 is_stmt 1
 1322 0670 97F85F30 		ldrb	r3, [r7, #95]	@ zero_extendqisi2
 1323 0674 07F18002 		add	r2, r7, #128
 1324 0678 1344     		add	r3, r3, r2
 1325 067a 97F86320 		ldrb	r2, [r7, #99]
 1326 067e 03F8602C 		strb	r2, [r3, #-96]
 1327 0682 07E0     		b	.L82
 1328              	.L75:
 394:..\..\..\lvgl\version_6.1.2\lvgl\src\lv_draw/lv_draw_basic.c ****                 } else {
 395:..\..\..\lvgl\version_6.1.2\lvgl\src\lv_draw/lv_draw_basic.c ****                     font_rgb[sub_px_cnt] = 0;
 1329              		.loc 3 395 0
 1330 0684 97F85F30 		ldrb	r3, [r7, #95]	@ zero_extendqisi2
 1331 0688 07F18002 		add	r2, r7, #128
 1332 068c 1344     		add	r3, r3, r2
 1333 068e 0022     		movs	r2, #0
 1334 0690 03F8602C 		strb	r2, [r3, #-96]
 1335              	.L82:
 396:..\..\..\lvgl\version_6.1.2\lvgl\src\lv_draw/lv_draw_basic.c ****                 }
 397:..\..\..\lvgl\version_6.1.2\lvgl\src\lv_draw/lv_draw_basic.c ****                 sub_px_cnt ++;
 1336              		.loc 3 397 0
 1337 0694 97F85F30 		ldrb	r3, [r7, #95]	@ zero_extendqisi2
ARM GAS  C:\Users\tmj32\AppData\Local\Temp\ccgaZSAc.s 			page 41


 1338 0698 0133     		adds	r3, r3, #1
 1339 069a 87F85F30 		strb	r3, [r7, #95]
 398:..\..\..\lvgl\version_6.1.2\lvgl\src\lv_draw/lv_draw_basic.c **** 
 399:..\..\..\lvgl\version_6.1.2\lvgl\src\lv_draw/lv_draw_basic.c ****                 if(sub_px_cnt == 3) {
 1340              		.loc 3 399 0
 1341 069e 97F85F30 		ldrb	r3, [r7, #95]	@ zero_extendqisi2
 1342 06a2 032B     		cmp	r3, #3
 1343 06a4 73D1     		bne	.L74
 1344              	.LBB4:
 400:..\..\..\lvgl\version_6.1.2\lvgl\src\lv_draw/lv_draw_basic.c ****                     lv_color_t res_color;
 401:..\..\..\lvgl\version_6.1.2\lvgl\src\lv_draw/lv_draw_basic.c **** 
 402:..\..\..\lvgl\version_6.1.2\lvgl\src\lv_draw/lv_draw_basic.c ****                     if(font_rgb[0] == 0 && font_rgb[1] == 0 && font_rgb[2] == 0) {
 1345              		.loc 3 402 0
 1346 06a6 97F82030 		ldrb	r3, [r7, #32]	@ zero_extendqisi2
 1347 06aa 002B     		cmp	r3, #0
 1348 06ac 0ED1     		bne	.L83
 1349              		.loc 3 402 0 is_stmt 0 discriminator 1
 1350 06ae 97F82130 		ldrb	r3, [r7, #33]	@ zero_extendqisi2
 1351 06b2 002B     		cmp	r3, #0
 1352 06b4 0AD1     		bne	.L83
 1353              		.loc 3 402 0 discriminator 2
 1354 06b6 97F82230 		ldrb	r3, [r7, #34]	@ zero_extendqisi2
 1355 06ba 002B     		cmp	r3, #0
 1356 06bc 06D1     		bne	.L83
 403:..\..\..\lvgl\version_6.1.2\lvgl\src\lv_draw/lv_draw_basic.c ****                         res_color = *vdb_buf_tmp;
 1357              		.loc 3 403 0 is_stmt 1
 1358 06be 3B6F     		ldr	r3, [r7, #112]
 1359 06c0 1B68     		ldr	r3, [r3]
 1360 06c2 BB61     		str	r3, [r7, #24]
 1361 06c4 53E0     		b	.L84
 1362              	.L102:
 1363 06c6 00BF     		.align	2
 1364              	.L101:
 1365 06c8 56555555 		.word	1431655766
 1366              	.L83:
 1367              	.LBB5:
 404:..\..\..\lvgl\version_6.1.2\lvgl\src\lv_draw/lv_draw_basic.c ****                     } else {
 405:..\..\..\lvgl\version_6.1.2\lvgl\src\lv_draw/lv_draw_basic.c **** 
 406:..\..\..\lvgl\version_6.1.2\lvgl\src\lv_draw/lv_draw_basic.c ****                         uint8_t bg_rgb[3] = {LV_COLOR_GET_R(*vdb_buf_tmp), LV_COLOR_GET_G(*vdb_buf_
 1368              		.loc 3 406 0
 1369 06cc 3B6F     		ldr	r3, [r7, #112]
 1370 06ce 9B78     		ldrb	r3, [r3, #2]	@ zero_extendqisi2
 1371 06d0 3B75     		strb	r3, [r7, #20]
 1372 06d2 3B6F     		ldr	r3, [r7, #112]
 1373 06d4 5B78     		ldrb	r3, [r3, #1]	@ zero_extendqisi2
 1374 06d6 7B75     		strb	r3, [r7, #21]
 1375 06d8 3B6F     		ldr	r3, [r7, #112]
 1376 06da 1B78     		ldrb	r3, [r3]	@ zero_extendqisi2
 1377 06dc BB75     		strb	r3, [r7, #22]
 407:..\..\..\lvgl\version_6.1.2\lvgl\src\lv_draw/lv_draw_basic.c **** 
 408:..\..\..\lvgl\version_6.1.2\lvgl\src\lv_draw/lv_draw_basic.c **** #if LV_FONT_SUBPX_BGR
 409:..\..\..\lvgl\version_6.1.2\lvgl\src\lv_draw/lv_draw_basic.c ****                         LV_COLOR_SET_B(res_color, (uint16_t)((uint16_t)txt_rgb[0] * font_rgb[0] + (
 410:..\..\..\lvgl\version_6.1.2\lvgl\src\lv_draw/lv_draw_basic.c ****                         LV_COLOR_SET_R(res_color, (uint16_t)((uint16_t)txt_rgb[2] * font_rgb[2] + (
 411:..\..\..\lvgl\version_6.1.2\lvgl\src\lv_draw/lv_draw_basic.c **** #else
 412:..\..\..\lvgl\version_6.1.2\lvgl\src\lv_draw/lv_draw_basic.c ****                         LV_COLOR_SET_R(res_color, (uint16_t)((uint16_t)txt_rgb[0] * font_rgb[0] + (
 1378              		.loc 3 412 0
 1379 06de 3B7F     		ldrb	r3, [r7, #28]	@ zero_extendqisi2
ARM GAS  C:\Users\tmj32\AppData\Local\Temp\ccgaZSAc.s 			page 42


 1380 06e0 9AB2     		uxth	r2, r3
 1381 06e2 97F82030 		ldrb	r3, [r7, #32]	@ zero_extendqisi2
 1382 06e6 9BB2     		uxth	r3, r3
 1383 06e8 12FB03F3 		smulbb	r3, r2, r3
 1384 06ec 9AB2     		uxth	r2, r3
 1385 06ee 3B7D     		ldrb	r3, [r7, #20]	@ zero_extendqisi2
 1386 06f0 99B2     		uxth	r1, r3
 1387 06f2 97F82030 		ldrb	r3, [r7, #32]	@ zero_extendqisi2
 1388 06f6 C3F1FF03 		rsb	r3, r3, #255
 1389 06fa 9BB2     		uxth	r3, r3
 1390 06fc 11FB03F3 		smulbb	r3, r1, r3
 1391 0700 9BB2     		uxth	r3, r3
 1392 0702 1344     		add	r3, r3, r2
 1393 0704 9BB2     		uxth	r3, r3
 1394 0706 1B0A     		lsrs	r3, r3, #8
 1395 0708 9BB2     		uxth	r3, r3
 1396 070a DBB2     		uxtb	r3, r3
 1397 070c BB76     		strb	r3, [r7, #26]
 413:..\..\..\lvgl\version_6.1.2\lvgl\src\lv_draw/lv_draw_basic.c ****                         LV_COLOR_SET_B(res_color, (uint16_t)((uint16_t)txt_rgb[2] * font_rgb[2] + (
 1398              		.loc 3 413 0
 1399 070e BB7F     		ldrb	r3, [r7, #30]	@ zero_extendqisi2
 1400 0710 9AB2     		uxth	r2, r3
 1401 0712 97F82230 		ldrb	r3, [r7, #34]	@ zero_extendqisi2
 1402 0716 9BB2     		uxth	r3, r3
 1403 0718 12FB03F3 		smulbb	r3, r2, r3
 1404 071c 9AB2     		uxth	r2, r3
 1405 071e BB7D     		ldrb	r3, [r7, #22]	@ zero_extendqisi2
 1406 0720 99B2     		uxth	r1, r3
 1407 0722 97F82230 		ldrb	r3, [r7, #34]	@ zero_extendqisi2
 1408 0726 C3F1FF03 		rsb	r3, r3, #255
 1409 072a 9BB2     		uxth	r3, r3
 1410 072c 11FB03F3 		smulbb	r3, r1, r3
 1411 0730 9BB2     		uxth	r3, r3
 1412 0732 1344     		add	r3, r3, r2
 1413 0734 9BB2     		uxth	r3, r3
 1414 0736 1B0A     		lsrs	r3, r3, #8
 1415 0738 9BB2     		uxth	r3, r3
 1416 073a DBB2     		uxtb	r3, r3
 1417 073c 3B76     		strb	r3, [r7, #24]
 414:..\..\..\lvgl\version_6.1.2\lvgl\src\lv_draw/lv_draw_basic.c **** #endif
 415:..\..\..\lvgl\version_6.1.2\lvgl\src\lv_draw/lv_draw_basic.c ****                         LV_COLOR_SET_G(res_color, (uint16_t)((uint16_t)txt_rgb[1] * font_rgb[1] + (
 1418              		.loc 3 415 0
 1419 073e 7B7F     		ldrb	r3, [r7, #29]	@ zero_extendqisi2
 1420 0740 9AB2     		uxth	r2, r3
 1421 0742 97F82130 		ldrb	r3, [r7, #33]	@ zero_extendqisi2
 1422 0746 9BB2     		uxth	r3, r3
 1423 0748 12FB03F3 		smulbb	r3, r2, r3
 1424 074c 9AB2     		uxth	r2, r3
 1425 074e 7B7D     		ldrb	r3, [r7, #21]	@ zero_extendqisi2
 1426 0750 99B2     		uxth	r1, r3
 1427 0752 97F82130 		ldrb	r3, [r7, #33]	@ zero_extendqisi2
 1428 0756 C3F1FF03 		rsb	r3, r3, #255
 1429 075a 9BB2     		uxth	r3, r3
 1430 075c 11FB03F3 		smulbb	r3, r1, r3
 1431 0760 9BB2     		uxth	r3, r3
 1432 0762 1344     		add	r3, r3, r2
 1433 0764 9BB2     		uxth	r3, r3
ARM GAS  C:\Users\tmj32\AppData\Local\Temp\ccgaZSAc.s 			page 43


 1434 0766 1B0A     		lsrs	r3, r3, #8
 1435 0768 9BB2     		uxth	r3, r3
 1436 076a DBB2     		uxtb	r3, r3
 1437 076c 7B76     		strb	r3, [r7, #25]
 1438              	.L84:
 1439              	.LBE5:
 416:..\..\..\lvgl\version_6.1.2\lvgl\src\lv_draw/lv_draw_basic.c ****                     }
 417:..\..\..\lvgl\version_6.1.2\lvgl\src\lv_draw/lv_draw_basic.c ****                     if(scr_transp == false) {
 1440              		.loc 3 417 0
 1441 076e 97F84330 		ldrb	r3, [r7, #67]
 1442 0772 83F00103 		eor	r3, r3, #1
 1443 0776 DBB2     		uxtb	r3, r3
 1444 0778 002B     		cmp	r3, #0
 1445 077a 02D0     		beq	.L85
 418:..\..\..\lvgl\version_6.1.2\lvgl\src\lv_draw/lv_draw_basic.c ****                         vdb_buf_tmp->full = res_color.full;
 1446              		.loc 3 418 0
 1447 077c BA69     		ldr	r2, [r7, #24]
 1448 077e 3B6F     		ldr	r3, [r7, #112]
 1449 0780 1A60     		str	r2, [r3]
 1450              	.L85:
 419:..\..\..\lvgl\version_6.1.2\lvgl\src\lv_draw/lv_draw_basic.c **** #if LV_COLOR_DEPTH == 32 && LV_COLOR_SCREEN_TRANSP
 420:..\..\..\lvgl\version_6.1.2\lvgl\src\lv_draw/lv_draw_basic.c ****                     } else {
 421:..\..\..\lvgl\version_6.1.2\lvgl\src\lv_draw/lv_draw_basic.c ****                         *vdb_buf_tmp = color_mix_2_alpha(*vdb_buf_tmp, (*vdb_buf_tmp).ch.alpha, col
 422:..\..\..\lvgl\version_6.1.2\lvgl\src\lv_draw/lv_draw_basic.c **** #endif
 423:..\..\..\lvgl\version_6.1.2\lvgl\src\lv_draw/lv_draw_basic.c ****                     }
 424:..\..\..\lvgl\version_6.1.2\lvgl\src\lv_draw/lv_draw_basic.c ****                     sub_px_cnt = 0;
 1451              		.loc 3 424 0
 1452 0782 0023     		movs	r3, #0
 1453 0784 87F85F30 		strb	r3, [r7, #95]
 425:..\..\..\lvgl\version_6.1.2\lvgl\src\lv_draw/lv_draw_basic.c ****                     vdb_buf_tmp++;
 1454              		.loc 3 425 0
 1455 0788 3B6F     		ldr	r3, [r7, #112]
 1456 078a 0433     		adds	r3, r3, #4
 1457 078c 3B67     		str	r3, [r7, #112]
 1458              	.L74:
 1459              	.LBE4:
 426:..\..\..\lvgl\version_6.1.2\lvgl\src\lv_draw/lv_draw_basic.c ****                 }
 427:..\..\..\lvgl\version_6.1.2\lvgl\src\lv_draw/lv_draw_basic.c ****             }
 428:..\..\..\lvgl\version_6.1.2\lvgl\src\lv_draw/lv_draw_basic.c **** 
 429:..\..\..\lvgl\version_6.1.2\lvgl\src\lv_draw/lv_draw_basic.c **** 
 430:..\..\..\lvgl\version_6.1.2\lvgl\src\lv_draw/lv_draw_basic.c ****             if(col_bit < 8 - g.bpp) {
 1460              		.loc 3 430 0
 1461 078e B7F86020 		ldrh	r2, [r7, #96]
 1462 0792 97F82A30 		ldrb	r3, [r7, #42]	@ zero_extendqisi2
 1463 0796 C3F10803 		rsb	r3, r3, #8
 1464 079a 9A42     		cmp	r2, r3
 1465 079c 0FDA     		bge	.L86
 431:..\..\..\lvgl\version_6.1.2\lvgl\src\lv_draw/lv_draw_basic.c ****                 col_bit += g.bpp;
 1466              		.loc 3 431 0
 1467 079e 97F82A30 		ldrb	r3, [r7, #42]	@ zero_extendqisi2
 1468 07a2 9AB2     		uxth	r2, r3
 1469 07a4 B7F86030 		ldrh	r3, [r7, #96]	@ movhi
 1470 07a8 1344     		add	r3, r3, r2
 1471 07aa A7F86030 		strh	r3, [r7, #96]	@ movhi
 432:..\..\..\lvgl\version_6.1.2\lvgl\src\lv_draw/lv_draw_basic.c ****                 bitmask = bitmask >> g.bpp;
 1472              		.loc 3 432 0
 1473 07ae 97F87A30 		ldrb	r3, [r7, #122]	@ zero_extendqisi2
ARM GAS  C:\Users\tmj32\AppData\Local\Temp\ccgaZSAc.s 			page 44


 1474 07b2 97F82A20 		ldrb	r2, [r7, #42]	@ zero_extendqisi2
 1475 07b6 1341     		asrs	r3, r3, r2
 1476 07b8 87F87A30 		strb	r3, [r7, #122]
 1477 07bc 09E0     		b	.L87
 1478              	.L86:
 433:..\..\..\lvgl\version_6.1.2\lvgl\src\lv_draw/lv_draw_basic.c ****             } else {
 434:..\..\..\lvgl\version_6.1.2\lvgl\src\lv_draw/lv_draw_basic.c ****                 col_bit = 0;
 1479              		.loc 3 434 0
 1480 07be 0023     		movs	r3, #0
 1481 07c0 A7F86030 		strh	r3, [r7, #96]	@ movhi
 435:..\..\..\lvgl\version_6.1.2\lvgl\src\lv_draw/lv_draw_basic.c ****                 bitmask = bitmask_init;
 1482              		.loc 3 435 0
 1483 07c4 97F87B30 		ldrb	r3, [r7, #123]
 1484 07c8 87F87A30 		strb	r3, [r7, #122]
 436:..\..\..\lvgl\version_6.1.2\lvgl\src\lv_draw/lv_draw_basic.c ****                 map_p++;
 1485              		.loc 3 436 0
 1486 07cc 7B6F     		ldr	r3, [r7, #116]
 1487 07ce 0133     		adds	r3, r3, #1
 1488 07d0 7B67     		str	r3, [r7, #116]
 1489              	.L87:
 351:..\..\..\lvgl\version_6.1.2\lvgl\src\lv_draw/lv_draw_basic.c ****             letter_px = (*map_p & bitmask) >> (8 - col_bit - g.bpp);
 1490              		.loc 3 351 0 discriminator 2
 1491 07d2 B7F96E30 		ldrsh	r3, [r7, #110]
 1492 07d6 9BB2     		uxth	r3, r3
 1493 07d8 0133     		adds	r3, r3, #1
 1494 07da 9BB2     		uxth	r3, r3
 1495 07dc A7F86E30 		strh	r3, [r7, #110]	@ movhi
 1496              	.L63:
 351:..\..\..\lvgl\version_6.1.2\lvgl\src\lv_draw/lv_draw_basic.c ****             letter_px = (*map_p & bitmask) >> (8 - col_bit - g.bpp);
 1497              		.loc 3 351 0 is_stmt 0 discriminator 1
 1498 07e0 B7F96E20 		ldrsh	r2, [r7, #110]
 1499 07e4 B7F96830 		ldrsh	r3, [r7, #104]
 1500 07e8 9A42     		cmp	r2, r3
 1501 07ea FFF65BAE 		blt	.L88
 437:..\..\..\lvgl\version_6.1.2\lvgl\src\lv_draw/lv_draw_basic.c ****             }
 438:..\..\..\lvgl\version_6.1.2\lvgl\src\lv_draw/lv_draw_basic.c ****         }
 439:..\..\..\lvgl\version_6.1.2\lvgl\src\lv_draw/lv_draw_basic.c **** 
 440:..\..\..\lvgl\version_6.1.2\lvgl\src\lv_draw/lv_draw_basic.c ****         col_bit += ((g.box_w - col_end) + col_start) * g.bpp;
 1502              		.loc 3 440 0 is_stmt 1
 1503 07ee 97F82630 		ldrb	r3, [r7, #38]	@ zero_extendqisi2
 1504 07f2 1A46     		mov	r2, r3
 1505 07f4 B7F96830 		ldrsh	r3, [r7, #104]
 1506 07f8 D21A     		subs	r2, r2, r3
 1507 07fa B7F96A30 		ldrsh	r3, [r7, #106]
 1508 07fe 1344     		add	r3, r3, r2
 1509 0800 9AB2     		uxth	r2, r3
 1510 0802 97F82A30 		ldrb	r3, [r7, #42]	@ zero_extendqisi2
 1511 0806 9BB2     		uxth	r3, r3
 1512 0808 12FB03F3 		smulbb	r3, r2, r3
 1513 080c 9AB2     		uxth	r2, r3
 1514 080e B7F86030 		ldrh	r3, [r7, #96]	@ movhi
 1515 0812 1344     		add	r3, r3, r2
 1516 0814 A7F86030 		strh	r3, [r7, #96]	@ movhi
 441:..\..\..\lvgl\version_6.1.2\lvgl\src\lv_draw/lv_draw_basic.c **** 
 442:..\..\..\lvgl\version_6.1.2\lvgl\src\lv_draw/lv_draw_basic.c ****         map_p += (col_bit >> 3);
 1517              		.loc 3 442 0
 1518 0818 B7F86030 		ldrh	r3, [r7, #96]
ARM GAS  C:\Users\tmj32\AppData\Local\Temp\ccgaZSAc.s 			page 45


 1519 081c DB08     		lsrs	r3, r3, #3
 1520 081e 9BB2     		uxth	r3, r3
 1521 0820 1A46     		mov	r2, r3
 1522 0822 7B6F     		ldr	r3, [r7, #116]
 1523 0824 1344     		add	r3, r3, r2
 1524 0826 7B67     		str	r3, [r7, #116]
 443:..\..\..\lvgl\version_6.1.2\lvgl\src\lv_draw/lv_draw_basic.c ****         col_bit = col_bit & 0x7;
 1525              		.loc 3 443 0
 1526 0828 B7F86030 		ldrh	r3, [r7, #96]	@ movhi
 1527 082c 03F00703 		and	r3, r3, #7
 1528 0830 A7F86030 		strh	r3, [r7, #96]	@ movhi
 444:..\..\..\lvgl\version_6.1.2\lvgl\src\lv_draw/lv_draw_basic.c **** 
 445:..\..\..\lvgl\version_6.1.2\lvgl\src\lv_draw/lv_draw_basic.c ****         /*Next row in VDB*/
 446:..\..\..\lvgl\version_6.1.2\lvgl\src\lv_draw/lv_draw_basic.c ****         if(subpx) vdb_buf_tmp += vdb_width - (col_end - col_start) / 3;
 1529              		.loc 3 446 0
 1530 0834 97F84930 		ldrb	r3, [r7, #73]	@ zero_extendqisi2
 1531 0838 002B     		cmp	r3, #0
 1532 083a 11D0     		beq	.L89
 1533              		.loc 3 446 0 is_stmt 0 discriminator 1
 1534 083c B7F94E20 		ldrsh	r2, [r7, #78]
 1535 0840 B7F96810 		ldrsh	r1, [r7, #104]
 1536 0844 B7F96A30 		ldrsh	r3, [r7, #106]
 1537 0848 CB1A     		subs	r3, r1, r3
 1538 084a 1A49     		ldr	r1, .L103
 1539 084c 81FB0301 		smull	r0, r1, r1, r3
 1540 0850 DB17     		asrs	r3, r3, #31
 1541 0852 CB1A     		subs	r3, r1, r3
 1542 0854 D31A     		subs	r3, r2, r3
 1543 0856 9B00     		lsls	r3, r3, #2
 1544 0858 3A6F     		ldr	r2, [r7, #112]
 1545 085a 1344     		add	r3, r3, r2
 1546 085c 3B67     		str	r3, [r7, #112]
 1547 085e 0BE0     		b	.L90
 1548              	.L89:
 447:..\..\..\lvgl\version_6.1.2\lvgl\src\lv_draw/lv_draw_basic.c ****         else vdb_buf_tmp += vdb_width - (col_end - col_start);
 1549              		.loc 3 447 0 is_stmt 1
 1550 0860 B7F94E20 		ldrsh	r2, [r7, #78]
 1551 0864 B7F96810 		ldrsh	r1, [r7, #104]
 1552 0868 B7F96A30 		ldrsh	r3, [r7, #106]
 1553 086c CB1A     		subs	r3, r1, r3
 1554 086e D31A     		subs	r3, r2, r3
 1555 0870 9B00     		lsls	r3, r3, #2
 1556 0872 3A6F     		ldr	r2, [r7, #112]
 1557 0874 1344     		add	r3, r3, r2
 1558 0876 3B67     		str	r3, [r7, #112]
 1559              	.L90:
 1560              	.LBE3:
 348:..\..\..\lvgl\version_6.1.2\lvgl\src\lv_draw/lv_draw_basic.c ****         bitmask = bitmask_init >> col_bit;
 1561              		.loc 3 348 0 discriminator 2
 1562 0878 B7F96C30 		ldrsh	r3, [r7, #108]
 1563 087c 9BB2     		uxth	r3, r3
 1564 087e 0133     		adds	r3, r3, #1
 1565 0880 9BB2     		uxth	r3, r3
 1566 0882 A7F86C30 		strh	r3, [r7, #108]	@ movhi
 1567              	.L62:
 348:..\..\..\lvgl\version_6.1.2\lvgl\src\lv_draw/lv_draw_basic.c ****         bitmask = bitmask_init >> col_bit;
 1568              		.loc 3 348 0 is_stmt 0 discriminator 1
ARM GAS  C:\Users\tmj32\AppData\Local\Temp\ccgaZSAc.s 			page 46


 1569 0886 B7F96C20 		ldrsh	r2, [r7, #108]
 1570 088a B7F96430 		ldrsh	r3, [r7, #100]
 1571 088e 9A42     		cmp	r2, r3
 1572 0890 FFF6F8AD 		blt	.L91
 1573 0894 0AE0     		b	.L24
 1574              	.L93:
 243:..\..\..\lvgl\version_6.1.2\lvgl\src\lv_draw/lv_draw_basic.c ****     if(opa > LV_OPA_MAX) opa = LV_OPA_COVER;
 1575              		.loc 3 243 0 is_stmt 1
 1576 0896 00BF     		nop
 1577 0898 08E0     		b	.L24
 1578              	.L94:
 248:..\..\..\lvgl\version_6.1.2\lvgl\src\lv_draw/lv_draw_basic.c ****     }
 1579              		.loc 3 248 0
 1580 089a 00BF     		nop
 1581 089c 06E0     		b	.L24
 1582              	.L95:
 253:..\..\..\lvgl\version_6.1.2\lvgl\src\lv_draw/lv_draw_basic.c **** 
 1583              		.loc 3 253 0
 1584 089e 00BF     		nop
 1585 08a0 04E0     		b	.L24
 1586              	.L96:
 283:..\..\..\lvgl\version_6.1.2\lvgl\src\lv_draw/lv_draw_basic.c ****     }
 1587              		.loc 3 283 0
 1588 08a2 00BF     		nop
 1589 08a4 02E0     		b	.L24
 1590              	.L97:
 288:..\..\..\lvgl\version_6.1.2\lvgl\src\lv_draw/lv_draw_basic.c **** 
 1591              		.loc 3 288 0
 1592 08a6 00BF     		nop
 1593 08a8 00E0     		b	.L24
 1594              	.L98:
 291:..\..\..\lvgl\version_6.1.2\lvgl\src\lv_draw/lv_draw_basic.c **** 
 1595              		.loc 3 291 0
 1596 08aa 00BF     		nop
 1597              	.L24:
 448:..\..\..\lvgl\version_6.1.2\lvgl\src\lv_draw/lv_draw_basic.c ****     }
 449:..\..\..\lvgl\version_6.1.2\lvgl\src\lv_draw/lv_draw_basic.c **** }
 1598              		.loc 3 449 0
 1599 08ac 8437     		adds	r7, r7, #132
 1600              		.cfi_def_cfa_offset 20
 1601 08ae BD46     		mov	sp, r7
 1602              		.cfi_def_cfa_register 13
 1603              		@ sp needed
 1604 08b0 F0BD     		pop	{r4, r5, r6, r7, pc}
 1605              	.L104:
 1606 08b2 00BF     		.align	2
 1607              	.L103:
 1608 08b4 56555555 		.word	1431655766
 1609              		.cfi_endproc
 1610              	.LFE33:
 1611              		.size	lv_draw_letter, .-lv_draw_letter
 1612              		.section	.text.lv_draw_map,"ax",%progbits
 1613              		.align	2
 1614              		.global	lv_draw_map
 1615              		.thumb
 1616              		.thumb_func
 1617              		.type	lv_draw_map, %function
ARM GAS  C:\Users\tmj32\AppData\Local\Temp\ccgaZSAc.s 			page 47


 1618              	lv_draw_map:
 1619              	.LFB34:
 450:..\..\..\lvgl\version_6.1.2\lvgl\src\lv_draw/lv_draw_basic.c **** 
 451:..\..\..\lvgl\version_6.1.2\lvgl\src\lv_draw/lv_draw_basic.c **** /**
 452:..\..\..\lvgl\version_6.1.2\lvgl\src\lv_draw/lv_draw_basic.c ****  * Draw a color map to the display (image)
 453:..\..\..\lvgl\version_6.1.2\lvgl\src\lv_draw/lv_draw_basic.c ****  * @param cords_p coordinates the color map
 454:..\..\..\lvgl\version_6.1.2\lvgl\src\lv_draw/lv_draw_basic.c ****  * @param mask_p the map will drawn only on this area  (truncated to VDB area)
 455:..\..\..\lvgl\version_6.1.2\lvgl\src\lv_draw/lv_draw_basic.c ****  * @param map_p pointer to a lv_color_t array
 456:..\..\..\lvgl\version_6.1.2\lvgl\src\lv_draw/lv_draw_basic.c ****  * @param opa opacity of the map
 457:..\..\..\lvgl\version_6.1.2\lvgl\src\lv_draw/lv_draw_basic.c ****  * @param chroma_keyed true: enable transparency of LV_IMG_LV_COLOR_TRANSP color pixels
 458:..\..\..\lvgl\version_6.1.2\lvgl\src\lv_draw/lv_draw_basic.c ****  * @param alpha_byte true: extra alpha byte is inserted for every pixel
 459:..\..\..\lvgl\version_6.1.2\lvgl\src\lv_draw/lv_draw_basic.c ****  * @param recolor mix the pixels with this color
 460:..\..\..\lvgl\version_6.1.2\lvgl\src\lv_draw/lv_draw_basic.c ****  * @param recolor_opa the intense of recoloring
 461:..\..\..\lvgl\version_6.1.2\lvgl\src\lv_draw/lv_draw_basic.c ****  */
 462:..\..\..\lvgl\version_6.1.2\lvgl\src\lv_draw/lv_draw_basic.c **** void lv_draw_map(const lv_area_t * cords_p, const lv_area_t * mask_p, const uint8_t * map_p, lv_opa
 463:..\..\..\lvgl\version_6.1.2\lvgl\src\lv_draw/lv_draw_basic.c ****                  bool chroma_key, bool alpha_byte, lv_color_t recolor, lv_opa_t recolor_opa)
 464:..\..\..\lvgl\version_6.1.2\lvgl\src\lv_draw/lv_draw_basic.c **** {
 1620              		.loc 3 464 0
 1621              		.cfi_startproc
 1622              		@ args = 16, pretend = 0, frame = 80
 1623              		@ frame_needed = 1, uses_anonymous_args = 0
 1624 0000 B0B5     		push	{r4, r5, r7, lr}
 1625              		.cfi_def_cfa_offset 16
 1626              		.cfi_offset 4, -16
 1627              		.cfi_offset 5, -12
 1628              		.cfi_offset 7, -8
 1629              		.cfi_offset 14, -4
 1630 0002 98B0     		sub	sp, sp, #96
 1631              		.cfi_def_cfa_offset 112
 1632 0004 04AF     		add	r7, sp, #16
 1633              		.cfi_def_cfa 7, 96
 1634 0006 F860     		str	r0, [r7, #12]
 1635 0008 B960     		str	r1, [r7, #8]
 1636 000a 7A60     		str	r2, [r7, #4]
 1637 000c FB70     		strb	r3, [r7, #3]
 465:..\..\..\lvgl\version_6.1.2\lvgl\src\lv_draw/lv_draw_basic.c **** 
 466:..\..\..\lvgl\version_6.1.2\lvgl\src\lv_draw/lv_draw_basic.c ****     if(opa < LV_OPA_MIN) return;
 1638              		.loc 3 466 0
 1639 000e FB78     		ldrb	r3, [r7, #3]	@ zero_extendqisi2
 1640 0010 0F2B     		cmp	r3, #15
 1641 0012 40F24D82 		bls	.L142
 467:..\..\..\lvgl\version_6.1.2\lvgl\src\lv_draw/lv_draw_basic.c ****     if(opa > LV_OPA_MAX) opa = LV_OPA_COVER;
 1642              		.loc 3 467 0
 1643 0016 FB78     		ldrb	r3, [r7, #3]	@ zero_extendqisi2
 1644 0018 FB2B     		cmp	r3, #251
 1645 001a 01D9     		bls	.L108
 1646              		.loc 3 467 0 is_stmt 0 discriminator 1
 1647 001c FF23     		movs	r3, #255
 1648 001e FB70     		strb	r3, [r7, #3]
 1649              	.L108:
 468:..\..\..\lvgl\version_6.1.2\lvgl\src\lv_draw/lv_draw_basic.c **** 
 469:..\..\..\lvgl\version_6.1.2\lvgl\src\lv_draw/lv_draw_basic.c ****     lv_area_t masked_a;
 470:..\..\..\lvgl\version_6.1.2\lvgl\src\lv_draw/lv_draw_basic.c ****     bool union_ok;
 471:..\..\..\lvgl\version_6.1.2\lvgl\src\lv_draw/lv_draw_basic.c **** 
 472:..\..\..\lvgl\version_6.1.2\lvgl\src\lv_draw/lv_draw_basic.c ****     /*Get the union of map size and mask*/
 473:..\..\..\lvgl\version_6.1.2\lvgl\src\lv_draw/lv_draw_basic.c ****     /* The mask is already truncated to the vdb size
 474:..\..\..\lvgl\version_6.1.2\lvgl\src\lv_draw/lv_draw_basic.c ****      * in 'lv_refr_area_with_vdb' function */
ARM GAS  C:\Users\tmj32\AppData\Local\Temp\ccgaZSAc.s 			page 48


 475:..\..\..\lvgl\version_6.1.2\lvgl\src\lv_draw/lv_draw_basic.c ****     union_ok = lv_area_intersect(&masked_a, cords_p, mask_p);
 1650              		.loc 3 475 0 is_stmt 1
 1651 0020 07F12003 		add	r3, r7, #32
 1652 0024 BA68     		ldr	r2, [r7, #8]
 1653 0026 F968     		ldr	r1, [r7, #12]
 1654 0028 1846     		mov	r0, r3
 1655 002a FFF7FEFF 		bl	lv_area_intersect
 1656 002e 0346     		mov	r3, r0
 1657 0030 87F84430 		strb	r3, [r7, #68]
 476:..\..\..\lvgl\version_6.1.2\lvgl\src\lv_draw/lv_draw_basic.c **** 
 477:..\..\..\lvgl\version_6.1.2\lvgl\src\lv_draw/lv_draw_basic.c ****     /*If there are common part of the three area then draw to the vdb*/
 478:..\..\..\lvgl\version_6.1.2\lvgl\src\lv_draw/lv_draw_basic.c ****     if(union_ok == false) return;
 1658              		.loc 3 478 0
 1659 0034 97F84430 		ldrb	r3, [r7, #68]
 1660 0038 83F00103 		eor	r3, r3, #1
 1661 003c DBB2     		uxtb	r3, r3
 1662 003e 002B     		cmp	r3, #0
 1663 0040 40F03882 		bne	.L143
 479:..\..\..\lvgl\version_6.1.2\lvgl\src\lv_draw/lv_draw_basic.c **** 
 480:..\..\..\lvgl\version_6.1.2\lvgl\src\lv_draw/lv_draw_basic.c ****     /*The pixel size in byte is different if an alpha byte is added too*/
 481:..\..\..\lvgl\version_6.1.2\lvgl\src\lv_draw/lv_draw_basic.c ****     uint8_t px_size_byte = alpha_byte ? LV_IMG_PX_SIZE_ALPHA_BYTE : sizeof(lv_color_t);
 1664              		.loc 3 481 0
 1665 0044 0423     		movs	r3, #4
 1666 0046 87F84330 		strb	r3, [r7, #67]
 482:..\..\..\lvgl\version_6.1.2\lvgl\src\lv_draw/lv_draw_basic.c **** 
 483:..\..\..\lvgl\version_6.1.2\lvgl\src\lv_draw/lv_draw_basic.c ****     /*If the map starts OUT of the masked area then calc. the first pixel*/
 484:..\..\..\lvgl\version_6.1.2\lvgl\src\lv_draw/lv_draw_basic.c ****     lv_coord_t map_width = lv_area_get_width(cords_p);
 1667              		.loc 3 484 0
 1668 004a F868     		ldr	r0, [r7, #12]
 1669 004c FFF7FEFF 		bl	lv_area_get_width
 1670 0050 0346     		mov	r3, r0
 1671 0052 A7F84030 		strh	r3, [r7, #64]	@ movhi
 485:..\..\..\lvgl\version_6.1.2\lvgl\src\lv_draw/lv_draw_basic.c ****     if(cords_p->y1 < masked_a.y1) {
 1672              		.loc 3 485 0
 1673 0056 FB68     		ldr	r3, [r7, #12]
 1674 0058 B3F90220 		ldrsh	r2, [r3, #2]
 1675 005c B7F92230 		ldrsh	r3, [r7, #34]
 1676 0060 9A42     		cmp	r2, r3
 1677 0062 11DA     		bge	.L110
 486:..\..\..\lvgl\version_6.1.2\lvgl\src\lv_draw/lv_draw_basic.c ****         map_p += (uint32_t)map_width * ((masked_a.y1 - cords_p->y1)) * px_size_byte;
 1678              		.loc 3 486 0
 1679 0064 B7F94030 		ldrsh	r3, [r7, #64]
 1680 0068 B7F92220 		ldrsh	r2, [r7, #34]
 1681 006c 1146     		mov	r1, r2
 1682 006e FA68     		ldr	r2, [r7, #12]
 1683 0070 B2F90220 		ldrsh	r2, [r2, #2]
 1684 0074 8A1A     		subs	r2, r1, r2
 1685 0076 02FB03F3 		mul	r3, r2, r3
 1686 007a 97F84320 		ldrb	r2, [r7, #67]	@ zero_extendqisi2
 1687 007e 02FB03F3 		mul	r3, r2, r3
 1688 0082 7A68     		ldr	r2, [r7, #4]
 1689 0084 1344     		add	r3, r3, r2
 1690 0086 7B60     		str	r3, [r7, #4]
 1691              	.L110:
 487:..\..\..\lvgl\version_6.1.2\lvgl\src\lv_draw/lv_draw_basic.c ****     }
 488:..\..\..\lvgl\version_6.1.2\lvgl\src\lv_draw/lv_draw_basic.c ****     if(cords_p->x1 < masked_a.x1) {
 1692              		.loc 3 488 0
ARM GAS  C:\Users\tmj32\AppData\Local\Temp\ccgaZSAc.s 			page 49


 1693 0088 FB68     		ldr	r3, [r7, #12]
 1694 008a B3F90020 		ldrsh	r2, [r3]
 1695 008e B7F92030 		ldrsh	r3, [r7, #32]
 1696 0092 9A42     		cmp	r2, r3
 1697 0094 0EDA     		bge	.L111
 489:..\..\..\lvgl\version_6.1.2\lvgl\src\lv_draw/lv_draw_basic.c ****         map_p += (masked_a.x1 - cords_p->x1) * px_size_byte;
 1698              		.loc 3 489 0
 1699 0096 B7F92030 		ldrsh	r3, [r7, #32]
 1700 009a 1A46     		mov	r2, r3
 1701 009c FB68     		ldr	r3, [r7, #12]
 1702 009e B3F90030 		ldrsh	r3, [r3]
 1703 00a2 D31A     		subs	r3, r2, r3
 1704 00a4 97F84320 		ldrb	r2, [r7, #67]	@ zero_extendqisi2
 1705 00a8 02FB03F3 		mul	r3, r2, r3
 1706 00ac 1A46     		mov	r2, r3
 1707 00ae 7B68     		ldr	r3, [r7, #4]
 1708 00b0 1344     		add	r3, r3, r2
 1709 00b2 7B60     		str	r3, [r7, #4]
 1710              	.L111:
 490:..\..\..\lvgl\version_6.1.2\lvgl\src\lv_draw/lv_draw_basic.c ****     }
 491:..\..\..\lvgl\version_6.1.2\lvgl\src\lv_draw/lv_draw_basic.c **** 
 492:..\..\..\lvgl\version_6.1.2\lvgl\src\lv_draw/lv_draw_basic.c ****     lv_disp_t * disp    = lv_refr_get_disp_refreshing();
 1711              		.loc 3 492 0
 1712 00b4 FFF7FEFF 		bl	lv_refr_get_disp_refreshing
 1713 00b8 F863     		str	r0, [r7, #60]
 493:..\..\..\lvgl\version_6.1.2\lvgl\src\lv_draw/lv_draw_basic.c ****     lv_disp_buf_t * vdb = lv_disp_get_buf(disp);
 1714              		.loc 3 493 0
 1715 00ba F86B     		ldr	r0, [r7, #60]
 1716 00bc FFF7FEFF 		bl	lv_disp_get_buf
 1717 00c0 B863     		str	r0, [r7, #56]
 494:..\..\..\lvgl\version_6.1.2\lvgl\src\lv_draw/lv_draw_basic.c **** 
 495:..\..\..\lvgl\version_6.1.2\lvgl\src\lv_draw/lv_draw_basic.c ****     /*Stores coordinates relative to the current VDB*/
 496:..\..\..\lvgl\version_6.1.2\lvgl\src\lv_draw/lv_draw_basic.c ****     masked_a.x1 = masked_a.x1 - vdb->area.x1;
 1718              		.loc 3 496 0
 1719 00c2 B7F92030 		ldrsh	r3, [r7, #32]
 1720 00c6 9AB2     		uxth	r2, r3
 1721 00c8 BB6B     		ldr	r3, [r7, #56]
 1722 00ca B3F91030 		ldrsh	r3, [r3, #16]
 1723 00ce 9BB2     		uxth	r3, r3
 1724 00d0 D31A     		subs	r3, r2, r3
 1725 00d2 9BB2     		uxth	r3, r3
 1726 00d4 1BB2     		sxth	r3, r3
 1727 00d6 3B84     		strh	r3, [r7, #32]	@ movhi
 497:..\..\..\lvgl\version_6.1.2\lvgl\src\lv_draw/lv_draw_basic.c ****     masked_a.y1 = masked_a.y1 - vdb->area.y1;
 1728              		.loc 3 497 0
 1729 00d8 B7F92230 		ldrsh	r3, [r7, #34]
 1730 00dc 9AB2     		uxth	r2, r3
 1731 00de BB6B     		ldr	r3, [r7, #56]
 1732 00e0 B3F91230 		ldrsh	r3, [r3, #18]
 1733 00e4 9BB2     		uxth	r3, r3
 1734 00e6 D31A     		subs	r3, r2, r3
 1735 00e8 9BB2     		uxth	r3, r3
 1736 00ea 1BB2     		sxth	r3, r3
 1737 00ec 7B84     		strh	r3, [r7, #34]	@ movhi
 498:..\..\..\lvgl\version_6.1.2\lvgl\src\lv_draw/lv_draw_basic.c ****     masked_a.x2 = masked_a.x2 - vdb->area.x1;
 1738              		.loc 3 498 0
 1739 00ee B7F92430 		ldrsh	r3, [r7, #36]
ARM GAS  C:\Users\tmj32\AppData\Local\Temp\ccgaZSAc.s 			page 50


 1740 00f2 9AB2     		uxth	r2, r3
 1741 00f4 BB6B     		ldr	r3, [r7, #56]
 1742 00f6 B3F91030 		ldrsh	r3, [r3, #16]
 1743 00fa 9BB2     		uxth	r3, r3
 1744 00fc D31A     		subs	r3, r2, r3
 1745 00fe 9BB2     		uxth	r3, r3
 1746 0100 1BB2     		sxth	r3, r3
 1747 0102 BB84     		strh	r3, [r7, #36]	@ movhi
 499:..\..\..\lvgl\version_6.1.2\lvgl\src\lv_draw/lv_draw_basic.c ****     masked_a.y2 = masked_a.y2 - vdb->area.y1;
 1748              		.loc 3 499 0
 1749 0104 B7F92630 		ldrsh	r3, [r7, #38]
 1750 0108 9AB2     		uxth	r2, r3
 1751 010a BB6B     		ldr	r3, [r7, #56]
 1752 010c B3F91230 		ldrsh	r3, [r3, #18]
 1753 0110 9BB2     		uxth	r3, r3
 1754 0112 D31A     		subs	r3, r2, r3
 1755 0114 9BB2     		uxth	r3, r3
 1756 0116 1BB2     		sxth	r3, r3
 1757 0118 FB84     		strh	r3, [r7, #38]	@ movhi
 500:..\..\..\lvgl\version_6.1.2\lvgl\src\lv_draw/lv_draw_basic.c **** 
 501:..\..\..\lvgl\version_6.1.2\lvgl\src\lv_draw/lv_draw_basic.c ****     lv_coord_t vdb_width     = lv_area_get_width(&vdb->area);
 1758              		.loc 3 501 0
 1759 011a BB6B     		ldr	r3, [r7, #56]
 1760 011c 1033     		adds	r3, r3, #16
 1761 011e 1846     		mov	r0, r3
 1762 0120 FFF7FEFF 		bl	lv_area_get_width
 1763 0124 0346     		mov	r3, r0
 1764 0126 FB86     		strh	r3, [r7, #54]	@ movhi
 502:..\..\..\lvgl\version_6.1.2\lvgl\src\lv_draw/lv_draw_basic.c ****     lv_color_t * vdb_buf_tmp = vdb->buf_act;
 1765              		.loc 3 502 0
 1766 0128 BB6B     		ldr	r3, [r7, #56]
 1767 012a 9B68     		ldr	r3, [r3, #8]
 1768 012c FB64     		str	r3, [r7, #76]
 503:..\..\..\lvgl\version_6.1.2\lvgl\src\lv_draw/lv_draw_basic.c ****     vdb_buf_tmp += (uint32_t)vdb_width * masked_a.y1; /*Move to the first row*/
 1769              		.loc 3 503 0
 1770 012e B7F93630 		ldrsh	r3, [r7, #54]
 1771 0132 B7F92220 		ldrsh	r2, [r7, #34]
 1772 0136 02FB03F3 		mul	r3, r2, r3
 1773 013a 9B00     		lsls	r3, r3, #2
 1774 013c FA6C     		ldr	r2, [r7, #76]
 1775 013e 1344     		add	r3, r3, r2
 1776 0140 FB64     		str	r3, [r7, #76]
 504:..\..\..\lvgl\version_6.1.2\lvgl\src\lv_draw/lv_draw_basic.c ****     vdb_buf_tmp += (uint32_t)masked_a.x1;             /*Move to the first col*/
 1777              		.loc 3 504 0
 1778 0142 B7F92030 		ldrsh	r3, [r7, #32]
 1779 0146 9B00     		lsls	r3, r3, #2
 1780 0148 FA6C     		ldr	r2, [r7, #76]
 1781 014a 1344     		add	r3, r3, r2
 1782 014c FB64     		str	r3, [r7, #76]
 505:..\..\..\lvgl\version_6.1.2\lvgl\src\lv_draw/lv_draw_basic.c **** 
 506:..\..\..\lvgl\version_6.1.2\lvgl\src\lv_draw/lv_draw_basic.c ****     lv_coord_t row;
 507:..\..\..\lvgl\version_6.1.2\lvgl\src\lv_draw/lv_draw_basic.c ****     lv_coord_t map_useful_w = lv_area_get_width(&masked_a);
 1783              		.loc 3 507 0
 1784 014e 07F12003 		add	r3, r7, #32
 1785 0152 1846     		mov	r0, r3
 1786 0154 FFF7FEFF 		bl	lv_area_get_width
 1787 0158 0346     		mov	r3, r0
ARM GAS  C:\Users\tmj32\AppData\Local\Temp\ccgaZSAc.s 			page 51


 1788 015a BB86     		strh	r3, [r7, #52]	@ movhi
 508:..\..\..\lvgl\version_6.1.2\lvgl\src\lv_draw/lv_draw_basic.c **** 
 509:..\..\..\lvgl\version_6.1.2\lvgl\src\lv_draw/lv_draw_basic.c ****     bool scr_transp = false;
 1789              		.loc 3 509 0
 1790 015c 0023     		movs	r3, #0
 1791 015e 87F83330 		strb	r3, [r7, #51]
 510:..\..\..\lvgl\version_6.1.2\lvgl\src\lv_draw/lv_draw_basic.c **** #if LV_COLOR_DEPTH == 32 && LV_COLOR_SCREEN_TRANSP
 511:..\..\..\lvgl\version_6.1.2\lvgl\src\lv_draw/lv_draw_basic.c ****     scr_transp = disp->driver.screen_transp;
 512:..\..\..\lvgl\version_6.1.2\lvgl\src\lv_draw/lv_draw_basic.c **** #endif
 513:..\..\..\lvgl\version_6.1.2\lvgl\src\lv_draw/lv_draw_basic.c **** 
 514:..\..\..\lvgl\version_6.1.2\lvgl\src\lv_draw/lv_draw_basic.c ****     /*The simplest case just copy the pixels into the VDB*/
 515:..\..\..\lvgl\version_6.1.2\lvgl\src\lv_draw/lv_draw_basic.c ****     if(chroma_key == false && alpha_byte == false && opa == LV_OPA_COVER && recolor_opa == LV_OPA_T
 1792              		.loc 3 515 0
 1793 0162 97F86030 		ldrb	r3, [r7, #96]
 1794 0166 83F00103 		eor	r3, r3, #1
 1795 016a DBB2     		uxtb	r3, r3
 1796 016c 002B     		cmp	r3, #0
 1797 016e 00F08B80 		beq	.L112
 1798              		.loc 3 515 0 is_stmt 0 discriminator 1
 1799 0172 97F86430 		ldrb	r3, [r7, #100]
 1800 0176 83F00103 		eor	r3, r3, #1
 1801 017a DBB2     		uxtb	r3, r3
 1802 017c 002B     		cmp	r3, #0
 1803 017e 00F08380 		beq	.L112
 1804              		.loc 3 515 0 discriminator 2
 1805 0182 FB78     		ldrb	r3, [r7, #3]	@ zero_extendqisi2
 1806 0184 FF2B     		cmp	r3, #255
 1807 0186 7FD1     		bne	.L112
 1808              		.loc 3 515 0 discriminator 3
 1809 0188 97F86C30 		ldrb	r3, [r7, #108]	@ zero_extendqisi2
 1810 018c 002B     		cmp	r3, #0
 1811 018e 7BD1     		bne	.L112
 516:..\..\..\lvgl\version_6.1.2\lvgl\src\lv_draw/lv_draw_basic.c **** 
 517:..\..\..\lvgl\version_6.1.2\lvgl\src\lv_draw/lv_draw_basic.c ****         /*Use the custom VDB write function is exists*/
 518:..\..\..\lvgl\version_6.1.2\lvgl\src\lv_draw/lv_draw_basic.c ****         if(disp->driver.set_px_cb) {
 1812              		.loc 3 518 0 is_stmt 1
 1813 0190 FB6B     		ldr	r3, [r7, #60]
 1814 0192 5B69     		ldr	r3, [r3, #20]
 1815 0194 002B     		cmp	r3, #0
 1816 0196 4ED0     		beq	.L113
 1817              	.LBB6:
 519:..\..\..\lvgl\version_6.1.2\lvgl\src\lv_draw/lv_draw_basic.c ****             lv_coord_t col;
 520:..\..\..\lvgl\version_6.1.2\lvgl\src\lv_draw/lv_draw_basic.c ****             for(row = masked_a.y1; row <= masked_a.y2; row++) {
 1818              		.loc 3 520 0
 1819 0198 7B8C     		ldrh	r3, [r7, #34]	@ movhi
 1820 019a A7F84A30 		strh	r3, [r7, #74]	@ movhi
 1821 019e 43E0     		b	.L114
 1822              	.L117:
 521:..\..\..\lvgl\version_6.1.2\lvgl\src\lv_draw/lv_draw_basic.c ****                 for(col = 0; col < map_useful_w; col++) {
 1823              		.loc 3 521 0
 1824 01a0 0023     		movs	r3, #0
 1825 01a2 A7F84830 		strh	r3, [r7, #72]	@ movhi
 1826 01a6 28E0     		b	.L115
 1827              	.L116:
 1828              	.LBB7:
 522:..\..\..\lvgl\version_6.1.2\lvgl\src\lv_draw/lv_draw_basic.c ****                     lv_color_t px_color = *((lv_color_t *)&map_p[(uint32_t)col * px_size_byte]);
 1829              		.loc 3 522 0 discriminator 3
ARM GAS  C:\Users\tmj32\AppData\Local\Temp\ccgaZSAc.s 			page 52


 1830 01a8 B7F94830 		ldrsh	r3, [r7, #72]
 1831 01ac 97F84320 		ldrb	r2, [r7, #67]	@ zero_extendqisi2
 1832 01b0 02FB03F3 		mul	r3, r2, r3
 1833 01b4 7A68     		ldr	r2, [r7, #4]
 1834 01b6 1344     		add	r3, r3, r2
 1835 01b8 1B68     		ldr	r3, [r3]
 1836 01ba FB61     		str	r3, [r7, #28]
 523:..\..\..\lvgl\version_6.1.2\lvgl\src\lv_draw/lv_draw_basic.c ****                     disp->driver.set_px_cb(&disp->driver, (uint8_t *)vdb->buf_act, vdb_width, col +
 1837              		.loc 3 523 0 discriminator 3
 1838 01bc FB6B     		ldr	r3, [r7, #60]
 1839 01be 5C69     		ldr	r4, [r3, #20]
 1840 01c0 F86B     		ldr	r0, [r7, #60]
 1841 01c2 BB6B     		ldr	r3, [r7, #56]
 1842 01c4 9968     		ldr	r1, [r3, #8]
 1843 01c6 B7F92030 		ldrsh	r3, [r7, #32]
 1844 01ca 9AB2     		uxth	r2, r3
 1845 01cc B7F84830 		ldrh	r3, [r7, #72]
 1846 01d0 1344     		add	r3, r3, r2
 1847 01d2 9BB2     		uxth	r3, r3
 1848 01d4 1DB2     		sxth	r5, r3
 1849 01d6 B7F93620 		ldrsh	r2, [r7, #54]
 1850 01da FB78     		ldrb	r3, [r7, #3]	@ zero_extendqisi2
 1851 01dc 0293     		str	r3, [sp, #8]
 1852 01de FB69     		ldr	r3, [r7, #28]
 1853 01e0 0193     		str	r3, [sp, #4]
 1854 01e2 B7F94A30 		ldrsh	r3, [r7, #74]
 1855 01e6 0093     		str	r3, [sp]
 1856 01e8 2B46     		mov	r3, r5
 1857 01ea A047     		blx	r4
 1858              	.LBE7:
 521:..\..\..\lvgl\version_6.1.2\lvgl\src\lv_draw/lv_draw_basic.c ****                 for(col = 0; col < map_useful_w; col++) {
 1859              		.loc 3 521 0 discriminator 3
 1860 01ec B7F94830 		ldrsh	r3, [r7, #72]
 1861 01f0 9BB2     		uxth	r3, r3
 1862 01f2 0133     		adds	r3, r3, #1
 1863 01f4 9BB2     		uxth	r3, r3
 1864 01f6 A7F84830 		strh	r3, [r7, #72]	@ movhi
 1865              	.L115:
 521:..\..\..\lvgl\version_6.1.2\lvgl\src\lv_draw/lv_draw_basic.c ****                 for(col = 0; col < map_useful_w; col++) {
 1866              		.loc 3 521 0 is_stmt 0 discriminator 1
 1867 01fa B7F94820 		ldrsh	r2, [r7, #72]
 1868 01fe B7F93430 		ldrsh	r3, [r7, #52]
 1869 0202 9A42     		cmp	r2, r3
 1870 0204 D0DB     		blt	.L116
 524:..\..\..\lvgl\version_6.1.2\lvgl\src\lv_draw/lv_draw_basic.c ****                                            px_color, opa);
 525:..\..\..\lvgl\version_6.1.2\lvgl\src\lv_draw/lv_draw_basic.c ****                 }
 526:..\..\..\lvgl\version_6.1.2\lvgl\src\lv_draw/lv_draw_basic.c ****                 map_p += map_width * px_size_byte; /*Next row on the map*/
 1871              		.loc 3 526 0 is_stmt 1 discriminator 2
 1872 0206 B7F94030 		ldrsh	r3, [r7, #64]
 1873 020a 97F84320 		ldrb	r2, [r7, #67]	@ zero_extendqisi2
 1874 020e 02FB03F3 		mul	r3, r2, r3
 1875 0212 1A46     		mov	r2, r3
 1876 0214 7B68     		ldr	r3, [r7, #4]
 1877 0216 1344     		add	r3, r3, r2
 1878 0218 7B60     		str	r3, [r7, #4]
 520:..\..\..\lvgl\version_6.1.2\lvgl\src\lv_draw/lv_draw_basic.c ****                 for(col = 0; col < map_useful_w; col++) {
 1879              		.loc 3 520 0 discriminator 2
ARM GAS  C:\Users\tmj32\AppData\Local\Temp\ccgaZSAc.s 			page 53


 1880 021a B7F94A30 		ldrsh	r3, [r7, #74]
 1881 021e 9BB2     		uxth	r3, r3
 1882 0220 0133     		adds	r3, r3, #1
 1883 0222 9BB2     		uxth	r3, r3
 1884 0224 A7F84A30 		strh	r3, [r7, #74]	@ movhi
 1885              	.L114:
 520:..\..\..\lvgl\version_6.1.2\lvgl\src\lv_draw/lv_draw_basic.c ****                 for(col = 0; col < map_useful_w; col++) {
 1886              		.loc 3 520 0 is_stmt 0 discriminator 1
 1887 0228 B7F92630 		ldrsh	r3, [r7, #38]
 1888 022c B7F94A20 		ldrsh	r2, [r7, #74]
 1889 0230 9A42     		cmp	r2, r3
 1890 0232 B5DD     		ble	.L117
 1891              	.LBE6:
 518:..\..\..\lvgl\version_6.1.2\lvgl\src\lv_draw/lv_draw_basic.c ****             lv_coord_t col;
 1892              		.loc 3 518 0 is_stmt 1
 1893 0234 3FE1     		b	.L105
 1894              	.L113:
 527:..\..\..\lvgl\version_6.1.2\lvgl\src\lv_draw/lv_draw_basic.c ****             }
 528:..\..\..\lvgl\version_6.1.2\lvgl\src\lv_draw/lv_draw_basic.c ****         }
 529:..\..\..\lvgl\version_6.1.2\lvgl\src\lv_draw/lv_draw_basic.c ****         /*Normal native VDB*/
 530:..\..\..\lvgl\version_6.1.2\lvgl\src\lv_draw/lv_draw_basic.c ****         else {
 531:..\..\..\lvgl\version_6.1.2\lvgl\src\lv_draw/lv_draw_basic.c ****             for(row = masked_a.y1; row <= masked_a.y2; row++) {
 1895              		.loc 3 531 0
 1896 0236 7B8C     		ldrh	r3, [r7, #34]	@ movhi
 1897 0238 A7F84A30 		strh	r3, [r7, #74]	@ movhi
 1898 023c 1DE0     		b	.L119
 1899              	.L120:
 532:..\..\..\lvgl\version_6.1.2\lvgl\src\lv_draw/lv_draw_basic.c **** #if LV_USE_GPU
 533:..\..\..\lvgl\version_6.1.2\lvgl\src\lv_draw/lv_draw_basic.c ****                 if(disp->driver.gpu_blend_cb == false) {
 534:..\..\..\lvgl\version_6.1.2\lvgl\src\lv_draw/lv_draw_basic.c ****                     sw_mem_blend(vdb_buf_tmp, (lv_color_t *)map_p, map_useful_w, opa);
 535:..\..\..\lvgl\version_6.1.2\lvgl\src\lv_draw/lv_draw_basic.c ****                 } else {
 536:..\..\..\lvgl\version_6.1.2\lvgl\src\lv_draw/lv_draw_basic.c ****                     disp->driver.gpu_blend_cb(&disp->driver, vdb_buf_tmp, (lv_color_t *)map_p, map_
 537:..\..\..\lvgl\version_6.1.2\lvgl\src\lv_draw/lv_draw_basic.c ****                 }
 538:..\..\..\lvgl\version_6.1.2\lvgl\src\lv_draw/lv_draw_basic.c **** #else
 539:..\..\..\lvgl\version_6.1.2\lvgl\src\lv_draw/lv_draw_basic.c ****                 sw_mem_blend(vdb_buf_tmp, (lv_color_t *)map_p, map_useful_w, opa);
 1900              		.loc 3 539 0 discriminator 3
 1901 023e B7F93420 		ldrsh	r2, [r7, #52]
 1902 0242 FB78     		ldrb	r3, [r7, #3]	@ zero_extendqisi2
 1903 0244 7968     		ldr	r1, [r7, #4]
 1904 0246 F86C     		ldr	r0, [r7, #76]
 1905 0248 FFF7FEFF 		bl	sw_mem_blend
 540:..\..\..\lvgl\version_6.1.2\lvgl\src\lv_draw/lv_draw_basic.c **** #endif
 541:..\..\..\lvgl\version_6.1.2\lvgl\src\lv_draw/lv_draw_basic.c ****                 map_p += map_width * px_size_byte; /*Next row on the map*/
 1906              		.loc 3 541 0 discriminator 3
 1907 024c B7F94030 		ldrsh	r3, [r7, #64]
 1908 0250 97F84320 		ldrb	r2, [r7, #67]	@ zero_extendqisi2
 1909 0254 02FB03F3 		mul	r3, r2, r3
 1910 0258 1A46     		mov	r2, r3
 1911 025a 7B68     		ldr	r3, [r7, #4]
 1912 025c 1344     		add	r3, r3, r2
 1913 025e 7B60     		str	r3, [r7, #4]
 542:..\..\..\lvgl\version_6.1.2\lvgl\src\lv_draw/lv_draw_basic.c ****                 vdb_buf_tmp += vdb_width;          /*Next row on the VDB*/
 1914              		.loc 3 542 0 discriminator 3
 1915 0260 B7F93630 		ldrsh	r3, [r7, #54]
 1916 0264 9B00     		lsls	r3, r3, #2
 1917 0266 FA6C     		ldr	r2, [r7, #76]
 1918 0268 1344     		add	r3, r3, r2
ARM GAS  C:\Users\tmj32\AppData\Local\Temp\ccgaZSAc.s 			page 54


 1919 026a FB64     		str	r3, [r7, #76]
 531:..\..\..\lvgl\version_6.1.2\lvgl\src\lv_draw/lv_draw_basic.c **** #if LV_USE_GPU
 1920              		.loc 3 531 0 discriminator 3
 1921 026c B7F94A30 		ldrsh	r3, [r7, #74]
 1922 0270 9BB2     		uxth	r3, r3
 1923 0272 0133     		adds	r3, r3, #1
 1924 0274 9BB2     		uxth	r3, r3
 1925 0276 A7F84A30 		strh	r3, [r7, #74]	@ movhi
 1926              	.L119:
 531:..\..\..\lvgl\version_6.1.2\lvgl\src\lv_draw/lv_draw_basic.c **** #if LV_USE_GPU
 1927              		.loc 3 531 0 is_stmt 0 discriminator 1
 1928 027a B7F92630 		ldrsh	r3, [r7, #38]
 1929 027e B7F94A20 		ldrsh	r2, [r7, #74]
 1930 0282 9A42     		cmp	r2, r3
 1931 0284 DBDD     		ble	.L120
 518:..\..\..\lvgl\version_6.1.2\lvgl\src\lv_draw/lv_draw_basic.c ****             lv_coord_t col;
 1932              		.loc 3 518 0 is_stmt 1
 1933 0286 16E1     		b	.L105
 1934              	.L112:
 1935              	.LBB8:
 543:..\..\..\lvgl\version_6.1.2\lvgl\src\lv_draw/lv_draw_basic.c ****             }
 544:..\..\..\lvgl\version_6.1.2\lvgl\src\lv_draw/lv_draw_basic.c ****         }
 545:..\..\..\lvgl\version_6.1.2\lvgl\src\lv_draw/lv_draw_basic.c ****     }
 546:..\..\..\lvgl\version_6.1.2\lvgl\src\lv_draw/lv_draw_basic.c **** 
 547:..\..\..\lvgl\version_6.1.2\lvgl\src\lv_draw/lv_draw_basic.c ****     /*In the other cases every pixel need to be checked one-by-one*/
 548:..\..\..\lvgl\version_6.1.2\lvgl\src\lv_draw/lv_draw_basic.c ****     else {
 549:..\..\..\lvgl\version_6.1.2\lvgl\src\lv_draw/lv_draw_basic.c **** 
 550:..\..\..\lvgl\version_6.1.2\lvgl\src\lv_draw/lv_draw_basic.c ****         lv_coord_t col;
 551:..\..\..\lvgl\version_6.1.2\lvgl\src\lv_draw/lv_draw_basic.c ****         lv_color_t last_img_px  = LV_COLOR_BLACK;
 1936              		.loc 3 551 0
 1937 0288 0023     		movs	r3, #0
 1938 028a 3B76     		strb	r3, [r7, #24]
 1939 028c 0023     		movs	r3, #0
 1940 028e 7B76     		strb	r3, [r7, #25]
 1941 0290 0023     		movs	r3, #0
 1942 0292 BB76     		strb	r3, [r7, #26]
 1943 0294 FF23     		movs	r3, #255
 1944 0296 FB76     		strb	r3, [r7, #27]
 552:..\..\..\lvgl\version_6.1.2\lvgl\src\lv_draw/lv_draw_basic.c ****         lv_color_t recolored_px = lv_color_mix(recolor, last_img_px, recolor_opa);
 1945              		.loc 3 552 0
 1946 0298 97F86C30 		ldrb	r3, [r7, #108]	@ zero_extendqisi2
 1947 029c 1A46     		mov	r2, r3
 1948 029e B969     		ldr	r1, [r7, #24]
 1949 02a0 B86E     		ldr	r0, [r7, #104]
 1950 02a2 FFF7FEFF 		bl	lv_color_mix
 1951 02a6 0346     		mov	r3, r0
 1952 02a8 7B61     		str	r3, [r7, #20]
 553:..\..\..\lvgl\version_6.1.2\lvgl\src\lv_draw/lv_draw_basic.c ****         for(row = masked_a.y1; row <= masked_a.y2; row++) {
 1953              		.loc 3 553 0
 1954 02aa 7B8C     		ldrh	r3, [r7, #34]	@ movhi
 1955 02ac A7F84A30 		strh	r3, [r7, #74]	@ movhi
 1956 02b0 F6E0     		b	.L122
 1957              	.L140:
 554:..\..\..\lvgl\version_6.1.2\lvgl\src\lv_draw/lv_draw_basic.c ****             for(col = 0; col < map_useful_w; col++) {
 1958              		.loc 3 554 0
 1959 02b2 0023     		movs	r3, #0
 1960 02b4 A7F84630 		strh	r3, [r7, #70]	@ movhi
ARM GAS  C:\Users\tmj32\AppData\Local\Temp\ccgaZSAc.s 			page 55


 1961 02b8 D4E0     		b	.L123
 1962              	.L139:
 1963              	.LBB9:
 555:..\..\..\lvgl\version_6.1.2\lvgl\src\lv_draw/lv_draw_basic.c ****                 lv_opa_t opa_result  = opa;
 1964              		.loc 3 555 0
 1965 02ba FB78     		ldrb	r3, [r7, #3]
 1966 02bc 87F84530 		strb	r3, [r7, #69]
 556:..\..\..\lvgl\version_6.1.2\lvgl\src\lv_draw/lv_draw_basic.c ****                 uint8_t * px_color_p = (uint8_t *)&map_p[(uint32_t)col * px_size_byte];
 1967              		.loc 3 556 0
 1968 02c0 B7F94630 		ldrsh	r3, [r7, #70]
 1969 02c4 97F84320 		ldrb	r2, [r7, #67]	@ zero_extendqisi2
 1970 02c8 02FB03F3 		mul	r3, r2, r3
 1971 02cc 7A68     		ldr	r2, [r7, #4]
 1972 02ce 1344     		add	r3, r3, r2
 1973 02d0 FB62     		str	r3, [r7, #44]
 557:..\..\..\lvgl\version_6.1.2\lvgl\src\lv_draw/lv_draw_basic.c ****                 lv_color_t px_color;
 558:..\..\..\lvgl\version_6.1.2\lvgl\src\lv_draw/lv_draw_basic.c **** 
 559:..\..\..\lvgl\version_6.1.2\lvgl\src\lv_draw/lv_draw_basic.c ****                 /*Calculate with the pixel level alpha*/
 560:..\..\..\lvgl\version_6.1.2\lvgl\src\lv_draw/lv_draw_basic.c ****                 if(alpha_byte) {
 1974              		.loc 3 560 0
 1975 02d2 97F86430 		ldrb	r3, [r7, #100]	@ zero_extendqisi2
 1976 02d6 002B     		cmp	r3, #0
 1977 02d8 19D0     		beq	.L124
 1978              	.LBB10:
 561:..\..\..\lvgl\version_6.1.2\lvgl\src\lv_draw/lv_draw_basic.c **** #if LV_COLOR_DEPTH == 8 || LV_COLOR_DEPTH == 1
 562:..\..\..\lvgl\version_6.1.2\lvgl\src\lv_draw/lv_draw_basic.c ****                     px_color.full = px_color_p[0];
 563:..\..\..\lvgl\version_6.1.2\lvgl\src\lv_draw/lv_draw_basic.c **** #elif LV_COLOR_DEPTH == 16
 564:..\..\..\lvgl\version_6.1.2\lvgl\src\lv_draw/lv_draw_basic.c ****                     /*Because of Alpha byte 16 bit color can start on odd address which can cause
 565:..\..\..\lvgl\version_6.1.2\lvgl\src\lv_draw/lv_draw_basic.c ****                      * crash*/
 566:..\..\..\lvgl\version_6.1.2\lvgl\src\lv_draw/lv_draw_basic.c ****                     px_color.full = px_color_p[0] + (px_color_p[1] << 8);
 567:..\..\..\lvgl\version_6.1.2\lvgl\src\lv_draw/lv_draw_basic.c **** #elif LV_COLOR_DEPTH == 32
 568:..\..\..\lvgl\version_6.1.2\lvgl\src\lv_draw/lv_draw_basic.c ****                     px_color = *((lv_color_t *)px_color_p);
 1979              		.loc 3 568 0
 1980 02da FB6A     		ldr	r3, [r7, #44]
 1981 02dc 1B68     		ldr	r3, [r3]
 1982 02de 3B61     		str	r3, [r7, #16]
 569:..\..\..\lvgl\version_6.1.2\lvgl\src\lv_draw/lv_draw_basic.c **** #endif
 570:..\..\..\lvgl\version_6.1.2\lvgl\src\lv_draw/lv_draw_basic.c ****                     lv_opa_t px_opa = *(px_color_p + LV_IMG_PX_SIZE_ALPHA_BYTE - 1);
 1983              		.loc 3 570 0
 1984 02e0 FB6A     		ldr	r3, [r7, #44]
 1985 02e2 DB78     		ldrb	r3, [r3, #3]
 1986 02e4 87F82B30 		strb	r3, [r7, #43]
 571:..\..\..\lvgl\version_6.1.2\lvgl\src\lv_draw/lv_draw_basic.c ****                     if(px_opa == LV_OPA_TRANSP)
 1987              		.loc 3 571 0
 1988 02e8 97F82B30 		ldrb	r3, [r7, #43]	@ zero_extendqisi2
 1989 02ec 002B     		cmp	r3, #0
 1990 02ee 00F0AF80 		beq	.L144
 572:..\..\..\lvgl\version_6.1.2\lvgl\src\lv_draw/lv_draw_basic.c ****                         continue;
 573:..\..\..\lvgl\version_6.1.2\lvgl\src\lv_draw/lv_draw_basic.c ****                     else if(px_opa != LV_OPA_COVER)
 1991              		.loc 3 573 0
 1992 02f2 97F82B30 		ldrb	r3, [r7, #43]	@ zero_extendqisi2
 1993 02f6 FF2B     		cmp	r3, #255
 1994 02f8 0CD0     		beq	.L128
 574:..\..\..\lvgl\version_6.1.2\lvgl\src\lv_draw/lv_draw_basic.c ****                         opa_result = (uint32_t)((uint32_t)px_opa * opa_result) >> 8;
 1995              		.loc 3 574 0
 1996 02fa 97F82B30 		ldrb	r3, [r7, #43]	@ zero_extendqisi2
 1997 02fe 97F84520 		ldrb	r2, [r7, #69]	@ zero_extendqisi2
ARM GAS  C:\Users\tmj32\AppData\Local\Temp\ccgaZSAc.s 			page 56


 1998 0302 02FB03F3 		mul	r3, r2, r3
 1999 0306 1B0A     		lsrs	r3, r3, #8
 2000 0308 87F84530 		strb	r3, [r7, #69]
 2001 030c 02E0     		b	.L128
 2002              	.L124:
 2003              	.LBE10:
 575:..\..\..\lvgl\version_6.1.2\lvgl\src\lv_draw/lv_draw_basic.c ****                 } else {
 576:..\..\..\lvgl\version_6.1.2\lvgl\src\lv_draw/lv_draw_basic.c ****                     px_color = *((lv_color_t *)px_color_p);
 2004              		.loc 3 576 0
 2005 030e FB6A     		ldr	r3, [r7, #44]
 2006 0310 1B68     		ldr	r3, [r3]
 2007 0312 3B61     		str	r3, [r7, #16]
 2008              	.L128:
 577:..\..\..\lvgl\version_6.1.2\lvgl\src\lv_draw/lv_draw_basic.c ****                 }
 578:..\..\..\lvgl\version_6.1.2\lvgl\src\lv_draw/lv_draw_basic.c **** 
 579:..\..\..\lvgl\version_6.1.2\lvgl\src\lv_draw/lv_draw_basic.c ****                 /*Handle chroma key*/
 580:..\..\..\lvgl\version_6.1.2\lvgl\src\lv_draw/lv_draw_basic.c ****                 if(chroma_key && px_color.full == disp->driver.color_chroma_key.full) continue;
 2009              		.loc 3 580 0
 2010 0314 97F86030 		ldrb	r3, [r7, #96]	@ zero_extendqisi2
 2011 0318 002B     		cmp	r3, #0
 2012 031a 05D0     		beq	.L129
 2013              		.loc 3 580 0 is_stmt 0 discriminator 1
 2014 031c 3A69     		ldr	r2, [r7, #16]
 2015 031e FB6B     		ldr	r3, [r7, #60]
 2016 0320 DB69     		ldr	r3, [r3, #28]
 2017 0322 9A42     		cmp	r2, r3
 2018 0324 00F09680 		beq	.L145
 2019              	.L129:
 581:..\..\..\lvgl\version_6.1.2\lvgl\src\lv_draw/lv_draw_basic.c **** 
 582:..\..\..\lvgl\version_6.1.2\lvgl\src\lv_draw/lv_draw_basic.c ****                 /*Re-color the pixel if required*/
 583:..\..\..\lvgl\version_6.1.2\lvgl\src\lv_draw/lv_draw_basic.c ****                 if(recolor_opa != LV_OPA_TRANSP) {
 2020              		.loc 3 583 0 is_stmt 1
 2021 0328 97F86C30 		ldrb	r3, [r7, #108]	@ zero_extendqisi2
 2022 032c 002B     		cmp	r3, #0
 2023 032e 4BD0     		beq	.L130
 584:..\..\..\lvgl\version_6.1.2\lvgl\src\lv_draw/lv_draw_basic.c ****                     if(last_img_px.full != px_color.full) { /*Minor acceleration: calculate only fo
 2024              		.loc 3 584 0
 2025 0330 BA69     		ldr	r2, [r7, #24]
 2026 0332 3B69     		ldr	r3, [r7, #16]
 2027 0334 9A42     		cmp	r2, r3
 2028 0336 0AD0     		beq	.L131
 585:..\..\..\lvgl\version_6.1.2\lvgl\src\lv_draw/lv_draw_basic.c ****                                                                new colors (save the last)*/
 586:..\..\..\lvgl\version_6.1.2\lvgl\src\lv_draw/lv_draw_basic.c ****                         last_img_px  = px_color;
 2029              		.loc 3 586 0
 2030 0338 3B69     		ldr	r3, [r7, #16]
 2031 033a BB61     		str	r3, [r7, #24]
 587:..\..\..\lvgl\version_6.1.2\lvgl\src\lv_draw/lv_draw_basic.c ****                         recolored_px = lv_color_mix(recolor, last_img_px, recolor_opa);
 2032              		.loc 3 587 0
 2033 033c 97F86C30 		ldrb	r3, [r7, #108]	@ zero_extendqisi2
 2034 0340 1A46     		mov	r2, r3
 2035 0342 B969     		ldr	r1, [r7, #24]
 2036 0344 B86E     		ldr	r0, [r7, #104]
 2037 0346 FFF7FEFF 		bl	lv_color_mix
 2038 034a 0346     		mov	r3, r0
 2039 034c 7B61     		str	r3, [r7, #20]
 2040              	.L131:
 588:..\..\..\lvgl\version_6.1.2\lvgl\src\lv_draw/lv_draw_basic.c ****                     }
ARM GAS  C:\Users\tmj32\AppData\Local\Temp\ccgaZSAc.s 			page 57


 589:..\..\..\lvgl\version_6.1.2\lvgl\src\lv_draw/lv_draw_basic.c ****                     /*Handle custom VDB write is present*/
 590:..\..\..\lvgl\version_6.1.2\lvgl\src\lv_draw/lv_draw_basic.c ****                     if(disp->driver.set_px_cb) {
 2041              		.loc 3 590 0
 2042 034e FB6B     		ldr	r3, [r7, #60]
 2043 0350 5B69     		ldr	r3, [r3, #20]
 2044 0352 002B     		cmp	r3, #0
 2045 0354 19D0     		beq	.L132
 591:..\..\..\lvgl\version_6.1.2\lvgl\src\lv_draw/lv_draw_basic.c ****                         disp->driver.set_px_cb(&disp->driver, (uint8_t *)vdb->buf_act, vdb_width, c
 2046              		.loc 3 591 0
 2047 0356 FB6B     		ldr	r3, [r7, #60]
 2048 0358 5C69     		ldr	r4, [r3, #20]
 2049 035a F86B     		ldr	r0, [r7, #60]
 2050 035c BB6B     		ldr	r3, [r7, #56]
 2051 035e 9968     		ldr	r1, [r3, #8]
 2052 0360 B7F92030 		ldrsh	r3, [r7, #32]
 2053 0364 9AB2     		uxth	r2, r3
 2054 0366 B7F84630 		ldrh	r3, [r7, #70]
 2055 036a 1344     		add	r3, r3, r2
 2056 036c 9BB2     		uxth	r3, r3
 2057 036e 1DB2     		sxth	r5, r3
 2058 0370 B7F93620 		ldrsh	r2, [r7, #54]
 2059 0374 97F84530 		ldrb	r3, [r7, #69]	@ zero_extendqisi2
 2060 0378 0293     		str	r3, [sp, #8]
 2061 037a 7B69     		ldr	r3, [r7, #20]
 2062 037c 0193     		str	r3, [sp, #4]
 2063 037e B7F94A30 		ldrsh	r3, [r7, #74]
 2064 0382 0093     		str	r3, [sp]
 2065 0384 2B46     		mov	r3, r5
 2066 0386 A047     		blx	r4
 2067 0388 65E0     		b	.L138
 2068              	.L132:
 592:..\..\..\lvgl\version_6.1.2\lvgl\src\lv_draw/lv_draw_basic.c ****                                                row, recolored_px, opa_result);
 593:..\..\..\lvgl\version_6.1.2\lvgl\src\lv_draw/lv_draw_basic.c ****                     }
 594:..\..\..\lvgl\version_6.1.2\lvgl\src\lv_draw/lv_draw_basic.c ****                     /*Normal native VDB write*/
 595:..\..\..\lvgl\version_6.1.2\lvgl\src\lv_draw/lv_draw_basic.c ****                     else {
 596:..\..\..\lvgl\version_6.1.2\lvgl\src\lv_draw/lv_draw_basic.c ****                         if(opa_result == LV_OPA_COVER)
 2069              		.loc 3 596 0
 2070 038a 97F84530 		ldrb	r3, [r7, #69]	@ zero_extendqisi2
 2071 038e FF2B     		cmp	r3, #255
 2072 0390 07D1     		bne	.L134
 597:..\..\..\lvgl\version_6.1.2\lvgl\src\lv_draw/lv_draw_basic.c ****                             vdb_buf_tmp[col].full = recolored_px.full;
 2073              		.loc 3 597 0
 2074 0392 B7F94630 		ldrsh	r3, [r7, #70]
 2075 0396 9B00     		lsls	r3, r3, #2
 2076 0398 FA6C     		ldr	r2, [r7, #76]
 2077 039a 1344     		add	r3, r3, r2
 2078 039c 7A69     		ldr	r2, [r7, #20]
 2079 039e 1A60     		str	r2, [r3]
 2080 03a0 59E0     		b	.L138
 2081              	.L134:
 598:..\..\..\lvgl\version_6.1.2\lvgl\src\lv_draw/lv_draw_basic.c ****                         else
 599:..\..\..\lvgl\version_6.1.2\lvgl\src\lv_draw/lv_draw_basic.c ****                             vdb_buf_tmp[col] = lv_color_mix(recolored_px, vdb_buf_tmp[col], opa_res
 2082              		.loc 3 599 0
 2083 03a2 B7F94630 		ldrsh	r3, [r7, #70]
 2084 03a6 9B00     		lsls	r3, r3, #2
 2085 03a8 FA6C     		ldr	r2, [r7, #76]
 2086 03aa D418     		adds	r4, r2, r3
ARM GAS  C:\Users\tmj32\AppData\Local\Temp\ccgaZSAc.s 			page 58


 2087 03ac B7F94630 		ldrsh	r3, [r7, #70]
 2088 03b0 9B00     		lsls	r3, r3, #2
 2089 03b2 FA6C     		ldr	r2, [r7, #76]
 2090 03b4 1344     		add	r3, r3, r2
 2091 03b6 97F84520 		ldrb	r2, [r7, #69]	@ zero_extendqisi2
 2092 03ba 1968     		ldr	r1, [r3]
 2093 03bc 7869     		ldr	r0, [r7, #20]
 2094 03be FFF7FEFF 		bl	lv_color_mix
 2095 03c2 0346     		mov	r3, r0
 2096 03c4 2360     		str	r3, [r4]
 2097 03c6 46E0     		b	.L138
 2098              	.L130:
 600:..\..\..\lvgl\version_6.1.2\lvgl\src\lv_draw/lv_draw_basic.c ****                     }
 601:..\..\..\lvgl\version_6.1.2\lvgl\src\lv_draw/lv_draw_basic.c ****                 } else {
 602:..\..\..\lvgl\version_6.1.2\lvgl\src\lv_draw/lv_draw_basic.c ****                     /*Handle custom VDB write is present*/
 603:..\..\..\lvgl\version_6.1.2\lvgl\src\lv_draw/lv_draw_basic.c ****                     if(disp->driver.set_px_cb) {
 2099              		.loc 3 603 0
 2100 03c8 FB6B     		ldr	r3, [r7, #60]
 2101 03ca 5B69     		ldr	r3, [r3, #20]
 2102 03cc 002B     		cmp	r3, #0
 2103 03ce 19D0     		beq	.L136
 604:..\..\..\lvgl\version_6.1.2\lvgl\src\lv_draw/lv_draw_basic.c ****                         disp->driver.set_px_cb(&disp->driver, (uint8_t *)vdb->buf_act, vdb_width, c
 2104              		.loc 3 604 0
 2105 03d0 FB6B     		ldr	r3, [r7, #60]
 2106 03d2 5C69     		ldr	r4, [r3, #20]
 2107 03d4 F86B     		ldr	r0, [r7, #60]
 2108 03d6 BB6B     		ldr	r3, [r7, #56]
 2109 03d8 9968     		ldr	r1, [r3, #8]
 2110 03da B7F92030 		ldrsh	r3, [r7, #32]
 2111 03de 9AB2     		uxth	r2, r3
 2112 03e0 B7F84630 		ldrh	r3, [r7, #70]
 2113 03e4 1344     		add	r3, r3, r2
 2114 03e6 9BB2     		uxth	r3, r3
 2115 03e8 1DB2     		sxth	r5, r3
 2116 03ea B7F93620 		ldrsh	r2, [r7, #54]
 2117 03ee 97F84530 		ldrb	r3, [r7, #69]	@ zero_extendqisi2
 2118 03f2 0293     		str	r3, [sp, #8]
 2119 03f4 3B69     		ldr	r3, [r7, #16]
 2120 03f6 0193     		str	r3, [sp, #4]
 2121 03f8 B7F94A30 		ldrsh	r3, [r7, #74]
 2122 03fc 0093     		str	r3, [sp]
 2123 03fe 2B46     		mov	r3, r5
 2124 0400 A047     		blx	r4
 2125 0402 28E0     		b	.L138
 2126              	.L136:
 605:..\..\..\lvgl\version_6.1.2\lvgl\src\lv_draw/lv_draw_basic.c ****                                                row, px_color, opa_result);
 606:..\..\..\lvgl\version_6.1.2\lvgl\src\lv_draw/lv_draw_basic.c ****                     }
 607:..\..\..\lvgl\version_6.1.2\lvgl\src\lv_draw/lv_draw_basic.c ****                     /*Normal native VDB write*/
 608:..\..\..\lvgl\version_6.1.2\lvgl\src\lv_draw/lv_draw_basic.c ****                     else {
 609:..\..\..\lvgl\version_6.1.2\lvgl\src\lv_draw/lv_draw_basic.c **** 
 610:..\..\..\lvgl\version_6.1.2\lvgl\src\lv_draw/lv_draw_basic.c ****                         if(opa_result == LV_OPA_COVER)
 2127              		.loc 3 610 0
 2128 0404 97F84530 		ldrb	r3, [r7, #69]	@ zero_extendqisi2
 2129 0408 FF2B     		cmp	r3, #255
 2130 040a 07D1     		bne	.L137
 611:..\..\..\lvgl\version_6.1.2\lvgl\src\lv_draw/lv_draw_basic.c ****                             vdb_buf_tmp[col] = px_color;
 2131              		.loc 3 611 0
ARM GAS  C:\Users\tmj32\AppData\Local\Temp\ccgaZSAc.s 			page 59


 2132 040c B7F94630 		ldrsh	r3, [r7, #70]
 2133 0410 9B00     		lsls	r3, r3, #2
 2134 0412 FA6C     		ldr	r2, [r7, #76]
 2135 0414 1344     		add	r3, r3, r2
 2136 0416 3A69     		ldr	r2, [r7, #16]
 2137 0418 1A60     		str	r2, [r3]
 2138 041a 1CE0     		b	.L138
 2139              	.L137:
 612:..\..\..\lvgl\version_6.1.2\lvgl\src\lv_draw/lv_draw_basic.c ****                         else {
 613:..\..\..\lvgl\version_6.1.2\lvgl\src\lv_draw/lv_draw_basic.c ****                             if(scr_transp == false) {
 2140              		.loc 3 613 0
 2141 041c 97F83330 		ldrb	r3, [r7, #51]
 2142 0420 83F00103 		eor	r3, r3, #1
 2143 0424 DBB2     		uxtb	r3, r3
 2144 0426 002B     		cmp	r3, #0
 2145 0428 15D0     		beq	.L138
 614:..\..\..\lvgl\version_6.1.2\lvgl\src\lv_draw/lv_draw_basic.c ****                                 vdb_buf_tmp[col] = lv_color_mix(px_color, vdb_buf_tmp[col], opa_res
 2146              		.loc 3 614 0
 2147 042a B7F94630 		ldrsh	r3, [r7, #70]
 2148 042e 9B00     		lsls	r3, r3, #2
 2149 0430 FA6C     		ldr	r2, [r7, #76]
 2150 0432 D418     		adds	r4, r2, r3
 2151 0434 B7F94630 		ldrsh	r3, [r7, #70]
 2152 0438 9B00     		lsls	r3, r3, #2
 2153 043a FA6C     		ldr	r2, [r7, #76]
 2154 043c 1344     		add	r3, r3, r2
 2155 043e 97F84520 		ldrb	r2, [r7, #69]	@ zero_extendqisi2
 2156 0442 1968     		ldr	r1, [r3]
 2157 0444 3869     		ldr	r0, [r7, #16]
 2158 0446 FFF7FEFF 		bl	lv_color_mix
 2159 044a 0346     		mov	r3, r0
 2160 044c 2360     		str	r3, [r4]
 2161 044e 02E0     		b	.L138
 2162              	.L144:
 2163              	.LBB11:
 572:..\..\..\lvgl\version_6.1.2\lvgl\src\lv_draw/lv_draw_basic.c ****                     else if(px_opa != LV_OPA_COVER)
 2164              		.loc 3 572 0
 2165 0450 00BF     		nop
 2166 0452 00E0     		b	.L138
 2167              	.L145:
 2168              	.LBE11:
 580:..\..\..\lvgl\version_6.1.2\lvgl\src\lv_draw/lv_draw_basic.c **** 
 2169              		.loc 3 580 0
 2170 0454 00BF     		nop
 2171              	.L138:
 2172              	.LBE9:
 554:..\..\..\lvgl\version_6.1.2\lvgl\src\lv_draw/lv_draw_basic.c ****                 lv_opa_t opa_result  = opa;
 2173              		.loc 3 554 0 discriminator 2
 2174 0456 B7F94630 		ldrsh	r3, [r7, #70]
 2175 045a 9BB2     		uxth	r3, r3
 2176 045c 0133     		adds	r3, r3, #1
 2177 045e 9BB2     		uxth	r3, r3
 2178 0460 A7F84630 		strh	r3, [r7, #70]	@ movhi
 2179              	.L123:
 554:..\..\..\lvgl\version_6.1.2\lvgl\src\lv_draw/lv_draw_basic.c ****                 lv_opa_t opa_result  = opa;
 2180              		.loc 3 554 0 is_stmt 0 discriminator 1
 2181 0464 B7F94620 		ldrsh	r2, [r7, #70]
ARM GAS  C:\Users\tmj32\AppData\Local\Temp\ccgaZSAc.s 			page 60


 2182 0468 B7F93430 		ldrsh	r3, [r7, #52]
 2183 046c 9A42     		cmp	r2, r3
 2184 046e FFF624AF 		blt	.L139
 615:..\..\..\lvgl\version_6.1.2\lvgl\src\lv_draw/lv_draw_basic.c ****                             } else {
 616:..\..\..\lvgl\version_6.1.2\lvgl\src\lv_draw/lv_draw_basic.c **** #if LV_COLOR_DEPTH == 32 && LV_COLOR_SCREEN_TRANSP
 617:..\..\..\lvgl\version_6.1.2\lvgl\src\lv_draw/lv_draw_basic.c ****                                 vdb_buf_tmp[col] = color_mix_2_alpha(vdb_buf_tmp[col], vdb_buf_tmp[
 618:..\..\..\lvgl\version_6.1.2\lvgl\src\lv_draw/lv_draw_basic.c ****                                                                      px_color, opa_result);
 619:..\..\..\lvgl\version_6.1.2\lvgl\src\lv_draw/lv_draw_basic.c **** #endif
 620:..\..\..\lvgl\version_6.1.2\lvgl\src\lv_draw/lv_draw_basic.c ****                             }
 621:..\..\..\lvgl\version_6.1.2\lvgl\src\lv_draw/lv_draw_basic.c ****                         }
 622:..\..\..\lvgl\version_6.1.2\lvgl\src\lv_draw/lv_draw_basic.c ****                     }
 623:..\..\..\lvgl\version_6.1.2\lvgl\src\lv_draw/lv_draw_basic.c ****                 }
 624:..\..\..\lvgl\version_6.1.2\lvgl\src\lv_draw/lv_draw_basic.c ****             }
 625:..\..\..\lvgl\version_6.1.2\lvgl\src\lv_draw/lv_draw_basic.c **** 
 626:..\..\..\lvgl\version_6.1.2\lvgl\src\lv_draw/lv_draw_basic.c ****             map_p += map_width * px_size_byte; /*Next row on the map*/
 2185              		.loc 3 626 0 is_stmt 1 discriminator 2
 2186 0472 B7F94030 		ldrsh	r3, [r7, #64]
 2187 0476 97F84320 		ldrb	r2, [r7, #67]	@ zero_extendqisi2
 2188 047a 02FB03F3 		mul	r3, r2, r3
 2189 047e 1A46     		mov	r2, r3
 2190 0480 7B68     		ldr	r3, [r7, #4]
 2191 0482 1344     		add	r3, r3, r2
 2192 0484 7B60     		str	r3, [r7, #4]
 627:..\..\..\lvgl\version_6.1.2\lvgl\src\lv_draw/lv_draw_basic.c ****             vdb_buf_tmp += vdb_width;          /*Next row on the VDB*/
 2193              		.loc 3 627 0 discriminator 2
 2194 0486 B7F93630 		ldrsh	r3, [r7, #54]
 2195 048a 9B00     		lsls	r3, r3, #2
 2196 048c FA6C     		ldr	r2, [r7, #76]
 2197 048e 1344     		add	r3, r3, r2
 2198 0490 FB64     		str	r3, [r7, #76]
 553:..\..\..\lvgl\version_6.1.2\lvgl\src\lv_draw/lv_draw_basic.c ****             for(col = 0; col < map_useful_w; col++) {
 2199              		.loc 3 553 0 discriminator 2
 2200 0492 B7F94A30 		ldrsh	r3, [r7, #74]
 2201 0496 9BB2     		uxth	r3, r3
 2202 0498 0133     		adds	r3, r3, #1
 2203 049a 9BB2     		uxth	r3, r3
 2204 049c A7F84A30 		strh	r3, [r7, #74]	@ movhi
 2205              	.L122:
 553:..\..\..\lvgl\version_6.1.2\lvgl\src\lv_draw/lv_draw_basic.c ****             for(col = 0; col < map_useful_w; col++) {
 2206              		.loc 3 553 0 is_stmt 0 discriminator 1
 2207 04a0 B7F92630 		ldrsh	r3, [r7, #38]
 2208 04a4 B7F94A20 		ldrsh	r2, [r7, #74]
 2209 04a8 9A42     		cmp	r2, r3
 2210 04aa 7FF702AF 		ble	.L140
 2211 04ae 02E0     		b	.L105
 2212              	.L142:
 2213              	.LBE8:
 466:..\..\..\lvgl\version_6.1.2\lvgl\src\lv_draw/lv_draw_basic.c ****     if(opa > LV_OPA_MAX) opa = LV_OPA_COVER;
 2214              		.loc 3 466 0 is_stmt 1
 2215 04b0 00BF     		nop
 2216 04b2 00E0     		b	.L105
 2217              	.L143:
 478:..\..\..\lvgl\version_6.1.2\lvgl\src\lv_draw/lv_draw_basic.c **** 
 2218              		.loc 3 478 0
 2219 04b4 00BF     		nop
 2220              	.L105:
 628:..\..\..\lvgl\version_6.1.2\lvgl\src\lv_draw/lv_draw_basic.c ****         }
ARM GAS  C:\Users\tmj32\AppData\Local\Temp\ccgaZSAc.s 			page 61


 629:..\..\..\lvgl\version_6.1.2\lvgl\src\lv_draw/lv_draw_basic.c ****     }
 630:..\..\..\lvgl\version_6.1.2\lvgl\src\lv_draw/lv_draw_basic.c **** }
 2221              		.loc 3 630 0
 2222 04b6 5037     		adds	r7, r7, #80
 2223              		.cfi_def_cfa_offset 16
 2224 04b8 BD46     		mov	sp, r7
 2225              		.cfi_def_cfa_register 13
 2226              		@ sp needed
 2227 04ba B0BD     		pop	{r4, r5, r7, pc}
 2228              		.cfi_endproc
 2229              	.LFE34:
 2230              		.size	lv_draw_map, .-lv_draw_map
 2231              		.section	.text.sw_mem_blend,"ax",%progbits
 2232              		.align	2
 2233              		.thumb
 2234              		.thumb_func
 2235              		.type	sw_mem_blend, %function
 2236              	sw_mem_blend:
 2237              	.LFB35:
 631:..\..\..\lvgl\version_6.1.2\lvgl\src\lv_draw/lv_draw_basic.c **** 
 632:..\..\..\lvgl\version_6.1.2\lvgl\src\lv_draw/lv_draw_basic.c **** /**********************
 633:..\..\..\lvgl\version_6.1.2\lvgl\src\lv_draw/lv_draw_basic.c ****  *   STATIC FUNCTIONS
 634:..\..\..\lvgl\version_6.1.2\lvgl\src\lv_draw/lv_draw_basic.c ****  **********************/
 635:..\..\..\lvgl\version_6.1.2\lvgl\src\lv_draw/lv_draw_basic.c **** 
 636:..\..\..\lvgl\version_6.1.2\lvgl\src\lv_draw/lv_draw_basic.c **** /**
 637:..\..\..\lvgl\version_6.1.2\lvgl\src\lv_draw/lv_draw_basic.c ****  * Blend pixels to destination memory using opacity
 638:..\..\..\lvgl\version_6.1.2\lvgl\src\lv_draw/lv_draw_basic.c ****  * @param dest a memory address. Copy 'src' here.
 639:..\..\..\lvgl\version_6.1.2\lvgl\src\lv_draw/lv_draw_basic.c ****  * @param src pointer to pixel map. Copy it to 'dest'.
 640:..\..\..\lvgl\version_6.1.2\lvgl\src\lv_draw/lv_draw_basic.c ****  * @param length number of pixels in 'src'
 641:..\..\..\lvgl\version_6.1.2\lvgl\src\lv_draw/lv_draw_basic.c ****  * @param opa opacity (0, LV_OPA_TRANSP: transparent ... 255, LV_OPA_COVER, fully cover)
 642:..\..\..\lvgl\version_6.1.2\lvgl\src\lv_draw/lv_draw_basic.c ****  */
 643:..\..\..\lvgl\version_6.1.2\lvgl\src\lv_draw/lv_draw_basic.c **** static void sw_mem_blend(lv_color_t * dest, const lv_color_t * src, uint32_t length, lv_opa_t opa)
 644:..\..\..\lvgl\version_6.1.2\lvgl\src\lv_draw/lv_draw_basic.c **** {
 2238              		.loc 3 644 0
 2239              		.cfi_startproc
 2240              		@ args = 0, pretend = 0, frame = 24
 2241              		@ frame_needed = 1, uses_anonymous_args = 0
 2242 0000 90B5     		push	{r4, r7, lr}
 2243              		.cfi_def_cfa_offset 12
 2244              		.cfi_offset 4, -12
 2245              		.cfi_offset 7, -8
 2246              		.cfi_offset 14, -4
 2247 0002 87B0     		sub	sp, sp, #28
 2248              		.cfi_def_cfa_offset 40
 2249 0004 00AF     		add	r7, sp, #0
 2250              		.cfi_def_cfa_register 7
 2251 0006 F860     		str	r0, [r7, #12]
 2252 0008 B960     		str	r1, [r7, #8]
 2253 000a 7A60     		str	r2, [r7, #4]
 2254 000c FB70     		strb	r3, [r7, #3]
 645:..\..\..\lvgl\version_6.1.2\lvgl\src\lv_draw/lv_draw_basic.c ****     if(opa == LV_OPA_COVER) {
 2255              		.loc 3 645 0
 2256 000e FB78     		ldrb	r3, [r7, #3]	@ zero_extendqisi2
 2257 0010 FF2B     		cmp	r3, #255
 2258 0012 07D1     		bne	.L147
 646:..\..\..\lvgl\version_6.1.2\lvgl\src\lv_draw/lv_draw_basic.c ****         memcpy(dest, src, length * sizeof(lv_color_t));
 2259              		.loc 3 646 0
ARM GAS  C:\Users\tmj32\AppData\Local\Temp\ccgaZSAc.s 			page 62


 2260 0014 7B68     		ldr	r3, [r7, #4]
 2261 0016 9B00     		lsls	r3, r3, #2
 2262 0018 1A46     		mov	r2, r3
 2263 001a B968     		ldr	r1, [r7, #8]
 2264 001c F868     		ldr	r0, [r7, #12]
 2265 001e FFF7FEFF 		bl	memcpy
 647:..\..\..\lvgl\version_6.1.2\lvgl\src\lv_draw/lv_draw_basic.c ****     } else {
 648:..\..\..\lvgl\version_6.1.2\lvgl\src\lv_draw/lv_draw_basic.c ****         uint32_t col;
 649:..\..\..\lvgl\version_6.1.2\lvgl\src\lv_draw/lv_draw_basic.c ****         for(col = 0; col < length; col++) {
 650:..\..\..\lvgl\version_6.1.2\lvgl\src\lv_draw/lv_draw_basic.c ****             dest[col] = lv_color_mix(src[col], dest[col], opa);
 651:..\..\..\lvgl\version_6.1.2\lvgl\src\lv_draw/lv_draw_basic.c ****         }
 652:..\..\..\lvgl\version_6.1.2\lvgl\src\lv_draw/lv_draw_basic.c ****     }
 653:..\..\..\lvgl\version_6.1.2\lvgl\src\lv_draw/lv_draw_basic.c **** }
 2266              		.loc 3 653 0
 2267 0022 1CE0     		b	.L151
 2268              	.L147:
 2269              	.LBB12:
 649:..\..\..\lvgl\version_6.1.2\lvgl\src\lv_draw/lv_draw_basic.c ****             dest[col] = lv_color_mix(src[col], dest[col], opa);
 2270              		.loc 3 649 0
 2271 0024 0023     		movs	r3, #0
 2272 0026 7B61     		str	r3, [r7, #20]
 2273 0028 15E0     		b	.L149
 2274              	.L150:
 650:..\..\..\lvgl\version_6.1.2\lvgl\src\lv_draw/lv_draw_basic.c ****         }
 2275              		.loc 3 650 0 discriminator 3
 2276 002a 7B69     		ldr	r3, [r7, #20]
 2277 002c 9B00     		lsls	r3, r3, #2
 2278 002e FA68     		ldr	r2, [r7, #12]
 2279 0030 D418     		adds	r4, r2, r3
 2280 0032 7B69     		ldr	r3, [r7, #20]
 2281 0034 9B00     		lsls	r3, r3, #2
 2282 0036 BA68     		ldr	r2, [r7, #8]
 2283 0038 1344     		add	r3, r3, r2
 2284 003a 7A69     		ldr	r2, [r7, #20]
 2285 003c 9200     		lsls	r2, r2, #2
 2286 003e F968     		ldr	r1, [r7, #12]
 2287 0040 1144     		add	r1, r1, r2
 2288 0042 FA78     		ldrb	r2, [r7, #3]	@ zero_extendqisi2
 2289 0044 0968     		ldr	r1, [r1]
 2290 0046 1868     		ldr	r0, [r3]
 2291 0048 FFF7FEFF 		bl	lv_color_mix
 2292 004c 0346     		mov	r3, r0
 2293 004e 2360     		str	r3, [r4]
 649:..\..\..\lvgl\version_6.1.2\lvgl\src\lv_draw/lv_draw_basic.c ****             dest[col] = lv_color_mix(src[col], dest[col], opa);
 2294              		.loc 3 649 0 discriminator 3
 2295 0050 7B69     		ldr	r3, [r7, #20]
 2296 0052 0133     		adds	r3, r3, #1
 2297 0054 7B61     		str	r3, [r7, #20]
 2298              	.L149:
 649:..\..\..\lvgl\version_6.1.2\lvgl\src\lv_draw/lv_draw_basic.c ****             dest[col] = lv_color_mix(src[col], dest[col], opa);
 2299              		.loc 3 649 0 is_stmt 0 discriminator 1
 2300 0056 7A69     		ldr	r2, [r7, #20]
 2301 0058 7B68     		ldr	r3, [r7, #4]
 2302 005a 9A42     		cmp	r2, r3
 2303 005c E5D3     		bcc	.L150
 2304              	.L151:
 2305              	.LBE12:
ARM GAS  C:\Users\tmj32\AppData\Local\Temp\ccgaZSAc.s 			page 63


 2306              		.loc 3 653 0 is_stmt 1
 2307 005e 00BF     		nop
 2308 0060 1C37     		adds	r7, r7, #28
 2309              		.cfi_def_cfa_offset 12
 2310 0062 BD46     		mov	sp, r7
 2311              		.cfi_def_cfa_register 13
 2312              		@ sp needed
 2313 0064 90BD     		pop	{r4, r7, pc}
 2314              		.cfi_endproc
 2315              	.LFE35:
 2316              		.size	sw_mem_blend, .-sw_mem_blend
 2317 0066 00BF     		.section	.text.sw_color_fill,"ax",%progbits
 2318              		.align	2
 2319              		.thumb
 2320              		.thumb_func
 2321              		.type	sw_color_fill, %function
 2322              	sw_color_fill:
 2323              	.LFB36:
 654:..\..\..\lvgl\version_6.1.2\lvgl\src\lv_draw/lv_draw_basic.c **** 
 655:..\..\..\lvgl\version_6.1.2\lvgl\src\lv_draw/lv_draw_basic.c **** /**
 656:..\..\..\lvgl\version_6.1.2\lvgl\src\lv_draw/lv_draw_basic.c ****  * Fill an area with a color
 657:..\..\..\lvgl\version_6.1.2\lvgl\src\lv_draw/lv_draw_basic.c ****  * @param mem a memory address. Considered to a rectangular window according to 'mem_area'
 658:..\..\..\lvgl\version_6.1.2\lvgl\src\lv_draw/lv_draw_basic.c ****  * @param mem_width width of the 'mem' buffer
 659:..\..\..\lvgl\version_6.1.2\lvgl\src\lv_draw/lv_draw_basic.c ****  * @param fill_area coordinates of an area to fill. Relative to 'mem_area'.
 660:..\..\..\lvgl\version_6.1.2\lvgl\src\lv_draw/lv_draw_basic.c ****  * @param color fill color
 661:..\..\..\lvgl\version_6.1.2\lvgl\src\lv_draw/lv_draw_basic.c ****  * @param opa opacity (0, LV_OPA_TRANSP: transparent ... 255, LV_OPA_COVER, fully cover)
 662:..\..\..\lvgl\version_6.1.2\lvgl\src\lv_draw/lv_draw_basic.c ****  */
 663:..\..\..\lvgl\version_6.1.2\lvgl\src\lv_draw/lv_draw_basic.c **** static void sw_color_fill(lv_color_t * mem, lv_coord_t mem_width, const lv_area_t * fill_area, lv_c
 664:..\..\..\lvgl\version_6.1.2\lvgl\src\lv_draw/lv_draw_basic.c ****                           lv_opa_t opa)
 665:..\..\..\lvgl\version_6.1.2\lvgl\src\lv_draw/lv_draw_basic.c **** {
 2324              		.loc 3 665 0
 2325              		.cfi_startproc
 2326              		@ args = 4, pretend = 0, frame = 40
 2327              		@ frame_needed = 1, uses_anonymous_args = 0
 2328 0000 90B5     		push	{r4, r7, lr}
 2329              		.cfi_def_cfa_offset 12
 2330              		.cfi_offset 4, -12
 2331              		.cfi_offset 7, -8
 2332              		.cfi_offset 14, -4
 2333 0002 8FB0     		sub	sp, sp, #60
 2334              		.cfi_def_cfa_offset 72
 2335 0004 04AF     		add	r7, sp, #16
 2336              		.cfi_def_cfa 7, 56
 2337 0006 F860     		str	r0, [r7, #12]
 2338 0008 7A60     		str	r2, [r7, #4]
 2339 000a 3B60     		str	r3, [r7]
 2340 000c 0B46     		mov	r3, r1	@ movhi
 2341 000e 7B81     		strh	r3, [r7, #10]	@ movhi
 666:..\..\..\lvgl\version_6.1.2\lvgl\src\lv_draw/lv_draw_basic.c ****     /*Set all row in vdb to the given color*/
 667:..\..\..\lvgl\version_6.1.2\lvgl\src\lv_draw/lv_draw_basic.c ****     lv_coord_t row;
 668:..\..\..\lvgl\version_6.1.2\lvgl\src\lv_draw/lv_draw_basic.c ****     lv_coord_t col;
 669:..\..\..\lvgl\version_6.1.2\lvgl\src\lv_draw/lv_draw_basic.c **** 
 670:..\..\..\lvgl\version_6.1.2\lvgl\src\lv_draw/lv_draw_basic.c ****     lv_disp_t * disp = lv_refr_get_disp_refreshing();
 2342              		.loc 3 670 0
 2343 0010 FFF7FEFF 		bl	lv_refr_get_disp_refreshing
 2344 0014 3862     		str	r0, [r7, #32]
 671:..\..\..\lvgl\version_6.1.2\lvgl\src\lv_draw/lv_draw_basic.c ****     if(disp->driver.set_px_cb) {
ARM GAS  C:\Users\tmj32\AppData\Local\Temp\ccgaZSAc.s 			page 64


 2345              		.loc 3 671 0
 2346 0016 3B6A     		ldr	r3, [r7, #32]
 2347 0018 5B69     		ldr	r3, [r3, #20]
 2348 001a 002B     		cmp	r3, #0
 2349 001c 34D0     		beq	.L153
 672:..\..\..\lvgl\version_6.1.2\lvgl\src\lv_draw/lv_draw_basic.c ****         for(col = fill_area->x1; col <= fill_area->x2; col++) {
 2350              		.loc 3 672 0
 2351 001e 7B68     		ldr	r3, [r7, #4]
 2352 0020 1B88     		ldrh	r3, [r3]	@ movhi
 2353 0022 BB84     		strh	r3, [r7, #36]	@ movhi
 2354 0024 28E0     		b	.L154
 2355              	.L157:
 673:..\..\..\lvgl\version_6.1.2\lvgl\src\lv_draw/lv_draw_basic.c ****             for(row = fill_area->y1; row <= fill_area->y2; row++) {
 2356              		.loc 3 673 0
 2357 0026 7B68     		ldr	r3, [r7, #4]
 2358 0028 5B88     		ldrh	r3, [r3, #2]	@ movhi
 2359 002a FB84     		strh	r3, [r7, #38]	@ movhi
 2360 002c 17E0     		b	.L155
 2361              	.L156:
 674:..\..\..\lvgl\version_6.1.2\lvgl\src\lv_draw/lv_draw_basic.c ****                 disp->driver.set_px_cb(&disp->driver, (uint8_t *)mem, mem_width, col, row, color, o
 2362              		.loc 3 674 0 discriminator 3
 2363 002e 3B6A     		ldr	r3, [r7, #32]
 2364 0030 5C69     		ldr	r4, [r3, #20]
 2365 0032 386A     		ldr	r0, [r7, #32]
 2366 0034 B7F92410 		ldrsh	r1, [r7, #36]
 2367 0038 B7F90A20 		ldrsh	r2, [r7, #10]
 2368 003c 97F83830 		ldrb	r3, [r7, #56]	@ zero_extendqisi2
 2369 0040 0293     		str	r3, [sp, #8]
 2370 0042 3B68     		ldr	r3, [r7]
 2371 0044 0193     		str	r3, [sp, #4]
 2372 0046 B7F92630 		ldrsh	r3, [r7, #38]
 2373 004a 0093     		str	r3, [sp]
 2374 004c 0B46     		mov	r3, r1
 2375 004e F968     		ldr	r1, [r7, #12]
 2376 0050 A047     		blx	r4
 673:..\..\..\lvgl\version_6.1.2\lvgl\src\lv_draw/lv_draw_basic.c ****             for(row = fill_area->y1; row <= fill_area->y2; row++) {
 2377              		.loc 3 673 0 discriminator 3
 2378 0052 B7F92630 		ldrsh	r3, [r7, #38]
 2379 0056 9BB2     		uxth	r3, r3
 2380 0058 0133     		adds	r3, r3, #1
 2381 005a 9BB2     		uxth	r3, r3
 2382 005c FB84     		strh	r3, [r7, #38]	@ movhi
 2383              	.L155:
 673:..\..\..\lvgl\version_6.1.2\lvgl\src\lv_draw/lv_draw_basic.c ****             for(row = fill_area->y1; row <= fill_area->y2; row++) {
 2384              		.loc 3 673 0 is_stmt 0 discriminator 1
 2385 005e 7B68     		ldr	r3, [r7, #4]
 2386 0060 B3F90630 		ldrsh	r3, [r3, #6]
 2387 0064 B7F92620 		ldrsh	r2, [r7, #38]
 2388 0068 9A42     		cmp	r2, r3
 2389 006a E0DD     		ble	.L156
 672:..\..\..\lvgl\version_6.1.2\lvgl\src\lv_draw/lv_draw_basic.c ****         for(col = fill_area->x1; col <= fill_area->x2; col++) {
 2390              		.loc 3 672 0 is_stmt 1 discriminator 2
 2391 006c B7F92430 		ldrsh	r3, [r7, #36]
 2392 0070 9BB2     		uxth	r3, r3
 2393 0072 0133     		adds	r3, r3, #1
 2394 0074 9BB2     		uxth	r3, r3
 2395 0076 BB84     		strh	r3, [r7, #36]	@ movhi
ARM GAS  C:\Users\tmj32\AppData\Local\Temp\ccgaZSAc.s 			page 65


 2396              	.L154:
 672:..\..\..\lvgl\version_6.1.2\lvgl\src\lv_draw/lv_draw_basic.c ****         for(col = fill_area->x1; col <= fill_area->x2; col++) {
 2397              		.loc 3 672 0 is_stmt 0 discriminator 1
 2398 0078 7B68     		ldr	r3, [r7, #4]
 2399 007a B3F90430 		ldrsh	r3, [r3, #4]
 2400 007e B7F92420 		ldrsh	r2, [r7, #36]
 2401 0082 9A42     		cmp	r2, r3
 2402 0084 CFDD     		ble	.L157
 675:..\..\..\lvgl\version_6.1.2\lvgl\src\lv_draw/lv_draw_basic.c ****             }
 676:..\..\..\lvgl\version_6.1.2\lvgl\src\lv_draw/lv_draw_basic.c ****         }
 677:..\..\..\lvgl\version_6.1.2\lvgl\src\lv_draw/lv_draw_basic.c ****     } else {
 678:..\..\..\lvgl\version_6.1.2\lvgl\src\lv_draw/lv_draw_basic.c ****         mem += fill_area->y1 * mem_width; /*Go to the first row*/
 679:..\..\..\lvgl\version_6.1.2\lvgl\src\lv_draw/lv_draw_basic.c **** 
 680:..\..\..\lvgl\version_6.1.2\lvgl\src\lv_draw/lv_draw_basic.c ****         /*Run simpler function without opacity*/
 681:..\..\..\lvgl\version_6.1.2\lvgl\src\lv_draw/lv_draw_basic.c ****         if(opa == LV_OPA_COVER) {
 682:..\..\..\lvgl\version_6.1.2\lvgl\src\lv_draw/lv_draw_basic.c **** 
 683:..\..\..\lvgl\version_6.1.2\lvgl\src\lv_draw/lv_draw_basic.c ****             /*Fill the first row with 'color'*/
 684:..\..\..\lvgl\version_6.1.2\lvgl\src\lv_draw/lv_draw_basic.c ****             for(col = fill_area->x1; col <= fill_area->x2; col++) {
 685:..\..\..\lvgl\version_6.1.2\lvgl\src\lv_draw/lv_draw_basic.c ****                 mem[col] = color;
 686:..\..\..\lvgl\version_6.1.2\lvgl\src\lv_draw/lv_draw_basic.c ****             }
 687:..\..\..\lvgl\version_6.1.2\lvgl\src\lv_draw/lv_draw_basic.c **** 
 688:..\..\..\lvgl\version_6.1.2\lvgl\src\lv_draw/lv_draw_basic.c ****             /*Copy the first row to all other rows*/
 689:..\..\..\lvgl\version_6.1.2\lvgl\src\lv_draw/lv_draw_basic.c ****             lv_color_t * mem_first = &mem[fill_area->x1];
 690:..\..\..\lvgl\version_6.1.2\lvgl\src\lv_draw/lv_draw_basic.c ****             lv_coord_t copy_size   = (fill_area->x2 - fill_area->x1 + 1) * sizeof(lv_color_t);
 691:..\..\..\lvgl\version_6.1.2\lvgl\src\lv_draw/lv_draw_basic.c ****             mem += mem_width;
 692:..\..\..\lvgl\version_6.1.2\lvgl\src\lv_draw/lv_draw_basic.c **** 
 693:..\..\..\lvgl\version_6.1.2\lvgl\src\lv_draw/lv_draw_basic.c ****             for(row = fill_area->y1 + 1; row <= fill_area->y2; row++) {
 694:..\..\..\lvgl\version_6.1.2\lvgl\src\lv_draw/lv_draw_basic.c ****                 memcpy(&mem[fill_area->x1], mem_first, copy_size);
 695:..\..\..\lvgl\version_6.1.2\lvgl\src\lv_draw/lv_draw_basic.c ****                 mem += mem_width;
 696:..\..\..\lvgl\version_6.1.2\lvgl\src\lv_draw/lv_draw_basic.c ****             }
 697:..\..\..\lvgl\version_6.1.2\lvgl\src\lv_draw/lv_draw_basic.c ****         }
 698:..\..\..\lvgl\version_6.1.2\lvgl\src\lv_draw/lv_draw_basic.c ****         /*Calculate with alpha too*/
 699:..\..\..\lvgl\version_6.1.2\lvgl\src\lv_draw/lv_draw_basic.c ****         else {
 700:..\..\..\lvgl\version_6.1.2\lvgl\src\lv_draw/lv_draw_basic.c ****             bool scr_transp = false;
 701:..\..\..\lvgl\version_6.1.2\lvgl\src\lv_draw/lv_draw_basic.c **** #if LV_COLOR_DEPTH == 32 && LV_COLOR_SCREEN_TRANSP
 702:..\..\..\lvgl\version_6.1.2\lvgl\src\lv_draw/lv_draw_basic.c ****             scr_transp = disp->driver.screen_transp;
 703:..\..\..\lvgl\version_6.1.2\lvgl\src\lv_draw/lv_draw_basic.c **** #endif
 704:..\..\..\lvgl\version_6.1.2\lvgl\src\lv_draw/lv_draw_basic.c **** 
 705:..\..\..\lvgl\version_6.1.2\lvgl\src\lv_draw/lv_draw_basic.c ****             lv_color_t bg_tmp  = LV_COLOR_BLACK;
 706:..\..\..\lvgl\version_6.1.2\lvgl\src\lv_draw/lv_draw_basic.c ****             lv_color_t opa_tmp = lv_color_mix(color, bg_tmp, opa);
 707:..\..\..\lvgl\version_6.1.2\lvgl\src\lv_draw/lv_draw_basic.c ****             for(row = fill_area->y1; row <= fill_area->y2; row++) {
 708:..\..\..\lvgl\version_6.1.2\lvgl\src\lv_draw/lv_draw_basic.c ****                 for(col = fill_area->x1; col <= fill_area->x2; col++) {
 709:..\..\..\lvgl\version_6.1.2\lvgl\src\lv_draw/lv_draw_basic.c ****                     if(scr_transp == false) {
 710:..\..\..\lvgl\version_6.1.2\lvgl\src\lv_draw/lv_draw_basic.c ****                         /*If the bg color changed recalculate the result color*/
 711:..\..\..\lvgl\version_6.1.2\lvgl\src\lv_draw/lv_draw_basic.c ****                         if(mem[col].full != bg_tmp.full) {
 712:..\..\..\lvgl\version_6.1.2\lvgl\src\lv_draw/lv_draw_basic.c ****                             bg_tmp  = mem[col];
 713:..\..\..\lvgl\version_6.1.2\lvgl\src\lv_draw/lv_draw_basic.c ****                             opa_tmp = lv_color_mix(color, bg_tmp, opa);
 714:..\..\..\lvgl\version_6.1.2\lvgl\src\lv_draw/lv_draw_basic.c ****                         }
 715:..\..\..\lvgl\version_6.1.2\lvgl\src\lv_draw/lv_draw_basic.c **** 
 716:..\..\..\lvgl\version_6.1.2\lvgl\src\lv_draw/lv_draw_basic.c ****                         mem[col] = opa_tmp;
 717:..\..\..\lvgl\version_6.1.2\lvgl\src\lv_draw/lv_draw_basic.c **** 
 718:..\..\..\lvgl\version_6.1.2\lvgl\src\lv_draw/lv_draw_basic.c ****                     } else {
 719:..\..\..\lvgl\version_6.1.2\lvgl\src\lv_draw/lv_draw_basic.c **** #if LV_COLOR_DEPTH == 32 && LV_COLOR_SCREEN_TRANSP
 720:..\..\..\lvgl\version_6.1.2\lvgl\src\lv_draw/lv_draw_basic.c ****                         mem[col] = color_mix_2_alpha(mem[col], mem[col].ch.alpha, color, opa);
 721:..\..\..\lvgl\version_6.1.2\lvgl\src\lv_draw/lv_draw_basic.c **** #endif
 722:..\..\..\lvgl\version_6.1.2\lvgl\src\lv_draw/lv_draw_basic.c ****                     }
 723:..\..\..\lvgl\version_6.1.2\lvgl\src\lv_draw/lv_draw_basic.c ****                 }
ARM GAS  C:\Users\tmj32\AppData\Local\Temp\ccgaZSAc.s 			page 66


 724:..\..\..\lvgl\version_6.1.2\lvgl\src\lv_draw/lv_draw_basic.c ****                 mem += mem_width;
 725:..\..\..\lvgl\version_6.1.2\lvgl\src\lv_draw/lv_draw_basic.c ****             }
 726:..\..\..\lvgl\version_6.1.2\lvgl\src\lv_draw/lv_draw_basic.c ****         }
 727:..\..\..\lvgl\version_6.1.2\lvgl\src\lv_draw/lv_draw_basic.c ****     }
 728:..\..\..\lvgl\version_6.1.2\lvgl\src\lv_draw/lv_draw_basic.c **** }
 2403              		.loc 3 728 0 is_stmt 1
 2404 0086 CAE0     		b	.L170
 2405              	.L153:
 678:..\..\..\lvgl\version_6.1.2\lvgl\src\lv_draw/lv_draw_basic.c **** 
 2406              		.loc 3 678 0
 2407 0088 7B68     		ldr	r3, [r7, #4]
 2408 008a B3F90230 		ldrsh	r3, [r3, #2]
 2409 008e 1A46     		mov	r2, r3
 2410 0090 B7F90A30 		ldrsh	r3, [r7, #10]
 2411 0094 03FB02F3 		mul	r3, r3, r2
 2412 0098 9B00     		lsls	r3, r3, #2
 2413 009a FA68     		ldr	r2, [r7, #12]
 2414 009c 1344     		add	r3, r3, r2
 2415 009e FB60     		str	r3, [r7, #12]
 681:..\..\..\lvgl\version_6.1.2\lvgl\src\lv_draw/lv_draw_basic.c **** 
 2416              		.loc 3 681 0
 2417 00a0 97F83830 		ldrb	r3, [r7, #56]	@ zero_extendqisi2
 2418 00a4 FF2B     		cmp	r3, #255
 2419 00a6 59D1     		bne	.L159
 2420              	.LBB13:
 684:..\..\..\lvgl\version_6.1.2\lvgl\src\lv_draw/lv_draw_basic.c ****                 mem[col] = color;
 2421              		.loc 3 684 0
 2422 00a8 7B68     		ldr	r3, [r7, #4]
 2423 00aa 1B88     		ldrh	r3, [r3]	@ movhi
 2424 00ac BB84     		strh	r3, [r7, #36]	@ movhi
 2425 00ae 0CE0     		b	.L160
 2426              	.L161:
 685:..\..\..\lvgl\version_6.1.2\lvgl\src\lv_draw/lv_draw_basic.c ****             }
 2427              		.loc 3 685 0 discriminator 3
 2428 00b0 B7F92430 		ldrsh	r3, [r7, #36]
 2429 00b4 9B00     		lsls	r3, r3, #2
 2430 00b6 FA68     		ldr	r2, [r7, #12]
 2431 00b8 1344     		add	r3, r3, r2
 2432 00ba 3A68     		ldr	r2, [r7]
 2433 00bc 1A60     		str	r2, [r3]
 684:..\..\..\lvgl\version_6.1.2\lvgl\src\lv_draw/lv_draw_basic.c ****                 mem[col] = color;
 2434              		.loc 3 684 0 discriminator 3
 2435 00be B7F92430 		ldrsh	r3, [r7, #36]
 2436 00c2 9BB2     		uxth	r3, r3
 2437 00c4 0133     		adds	r3, r3, #1
 2438 00c6 9BB2     		uxth	r3, r3
 2439 00c8 BB84     		strh	r3, [r7, #36]	@ movhi
 2440              	.L160:
 684:..\..\..\lvgl\version_6.1.2\lvgl\src\lv_draw/lv_draw_basic.c ****                 mem[col] = color;
 2441              		.loc 3 684 0 is_stmt 0 discriminator 1
 2442 00ca 7B68     		ldr	r3, [r7, #4]
 2443 00cc B3F90430 		ldrsh	r3, [r3, #4]
 2444 00d0 B7F92420 		ldrsh	r2, [r7, #36]
 2445 00d4 9A42     		cmp	r2, r3
 2446 00d6 EBDD     		ble	.L161
 689:..\..\..\lvgl\version_6.1.2\lvgl\src\lv_draw/lv_draw_basic.c ****             lv_coord_t copy_size   = (fill_area->x2 - fill_area->x1 + 1) * sizeof(lv_color_t);
 2447              		.loc 3 689 0 is_stmt 1
ARM GAS  C:\Users\tmj32\AppData\Local\Temp\ccgaZSAc.s 			page 67


 2448 00d8 7B68     		ldr	r3, [r7, #4]
 2449 00da B3F90030 		ldrsh	r3, [r3]
 2450 00de 9B00     		lsls	r3, r3, #2
 2451 00e0 FA68     		ldr	r2, [r7, #12]
 2452 00e2 1344     		add	r3, r3, r2
 2453 00e4 FB61     		str	r3, [r7, #28]
 690:..\..\..\lvgl\version_6.1.2\lvgl\src\lv_draw/lv_draw_basic.c ****             mem += mem_width;
 2454              		.loc 3 690 0
 2455 00e6 7B68     		ldr	r3, [r7, #4]
 2456 00e8 B3F90430 		ldrsh	r3, [r3, #4]
 2457 00ec 1A46     		mov	r2, r3
 2458 00ee 7B68     		ldr	r3, [r7, #4]
 2459 00f0 B3F90030 		ldrsh	r3, [r3]
 2460 00f4 D31A     		subs	r3, r2, r3
 2461 00f6 0133     		adds	r3, r3, #1
 2462 00f8 9BB2     		uxth	r3, r3
 2463 00fa 9B00     		lsls	r3, r3, #2
 2464 00fc 9BB2     		uxth	r3, r3
 2465 00fe 7B83     		strh	r3, [r7, #26]	@ movhi
 691:..\..\..\lvgl\version_6.1.2\lvgl\src\lv_draw/lv_draw_basic.c **** 
 2466              		.loc 3 691 0
 2467 0100 B7F90A30 		ldrsh	r3, [r7, #10]
 2468 0104 9B00     		lsls	r3, r3, #2
 2469 0106 FA68     		ldr	r2, [r7, #12]
 2470 0108 1344     		add	r3, r3, r2
 2471 010a FB60     		str	r3, [r7, #12]
 693:..\..\..\lvgl\version_6.1.2\lvgl\src\lv_draw/lv_draw_basic.c ****                 memcpy(&mem[fill_area->x1], mem_first, copy_size);
 2472              		.loc 3 693 0
 2473 010c 7B68     		ldr	r3, [r7, #4]
 2474 010e B3F90230 		ldrsh	r3, [r3, #2]
 2475 0112 9BB2     		uxth	r3, r3
 2476 0114 0133     		adds	r3, r3, #1
 2477 0116 9BB2     		uxth	r3, r3
 2478 0118 FB84     		strh	r3, [r7, #38]	@ movhi
 2479 011a 17E0     		b	.L162
 2480              	.L163:
 694:..\..\..\lvgl\version_6.1.2\lvgl\src\lv_draw/lv_draw_basic.c ****                 mem += mem_width;
 2481              		.loc 3 694 0 discriminator 3
 2482 011c 7B68     		ldr	r3, [r7, #4]
 2483 011e B3F90030 		ldrsh	r3, [r3]
 2484 0122 9B00     		lsls	r3, r3, #2
 2485 0124 FA68     		ldr	r2, [r7, #12]
 2486 0126 1344     		add	r3, r3, r2
 2487 0128 B7F91A20 		ldrsh	r2, [r7, #26]
 2488 012c F969     		ldr	r1, [r7, #28]
 2489 012e 1846     		mov	r0, r3
 2490 0130 FFF7FEFF 		bl	memcpy
 695:..\..\..\lvgl\version_6.1.2\lvgl\src\lv_draw/lv_draw_basic.c ****             }
 2491              		.loc 3 695 0 discriminator 3
 2492 0134 B7F90A30 		ldrsh	r3, [r7, #10]
 2493 0138 9B00     		lsls	r3, r3, #2
 2494 013a FA68     		ldr	r2, [r7, #12]
 2495 013c 1344     		add	r3, r3, r2
 2496 013e FB60     		str	r3, [r7, #12]
 693:..\..\..\lvgl\version_6.1.2\lvgl\src\lv_draw/lv_draw_basic.c ****                 memcpy(&mem[fill_area->x1], mem_first, copy_size);
 2497              		.loc 3 693 0 discriminator 3
 2498 0140 B7F92630 		ldrsh	r3, [r7, #38]
ARM GAS  C:\Users\tmj32\AppData\Local\Temp\ccgaZSAc.s 			page 68


 2499 0144 9BB2     		uxth	r3, r3
 2500 0146 0133     		adds	r3, r3, #1
 2501 0148 9BB2     		uxth	r3, r3
 2502 014a FB84     		strh	r3, [r7, #38]	@ movhi
 2503              	.L162:
 693:..\..\..\lvgl\version_6.1.2\lvgl\src\lv_draw/lv_draw_basic.c ****                 memcpy(&mem[fill_area->x1], mem_first, copy_size);
 2504              		.loc 3 693 0 is_stmt 0 discriminator 1
 2505 014c 7B68     		ldr	r3, [r7, #4]
 2506 014e B3F90630 		ldrsh	r3, [r3, #6]
 2507 0152 B7F92620 		ldrsh	r2, [r7, #38]
 2508 0156 9A42     		cmp	r2, r3
 2509 0158 E0DD     		ble	.L163
 2510              	.LBE13:
 2511              		.loc 3 728 0 is_stmt 1
 2512 015a 60E0     		b	.L170
 2513              	.L159:
 2514              	.LBB14:
 700:..\..\..\lvgl\version_6.1.2\lvgl\src\lv_draw/lv_draw_basic.c **** #if LV_COLOR_DEPTH == 32 && LV_COLOR_SCREEN_TRANSP
 2515              		.loc 3 700 0
 2516 015c 0023     		movs	r3, #0
 2517 015e 7B76     		strb	r3, [r7, #25]
 705:..\..\..\lvgl\version_6.1.2\lvgl\src\lv_draw/lv_draw_basic.c ****             lv_color_t opa_tmp = lv_color_mix(color, bg_tmp, opa);
 2518              		.loc 3 705 0
 2519 0160 0023     		movs	r3, #0
 2520 0162 3B75     		strb	r3, [r7, #20]
 2521 0164 0023     		movs	r3, #0
 2522 0166 7B75     		strb	r3, [r7, #21]
 2523 0168 0023     		movs	r3, #0
 2524 016a BB75     		strb	r3, [r7, #22]
 2525 016c FF23     		movs	r3, #255
 2526 016e FB75     		strb	r3, [r7, #23]
 706:..\..\..\lvgl\version_6.1.2\lvgl\src\lv_draw/lv_draw_basic.c ****             for(row = fill_area->y1; row <= fill_area->y2; row++) {
 2527              		.loc 3 706 0
 2528 0170 97F83830 		ldrb	r3, [r7, #56]	@ zero_extendqisi2
 2529 0174 1A46     		mov	r2, r3
 2530 0176 7969     		ldr	r1, [r7, #20]
 2531 0178 3868     		ldr	r0, [r7]
 2532 017a FFF7FEFF 		bl	lv_color_mix
 2533 017e 0346     		mov	r3, r0
 2534 0180 3B61     		str	r3, [r7, #16]
 707:..\..\..\lvgl\version_6.1.2\lvgl\src\lv_draw/lv_draw_basic.c ****                 for(col = fill_area->x1; col <= fill_area->x2; col++) {
 2535              		.loc 3 707 0
 2536 0182 7B68     		ldr	r3, [r7, #4]
 2537 0184 5B88     		ldrh	r3, [r3, #2]	@ movhi
 2538 0186 FB84     		strh	r3, [r7, #38]	@ movhi
 2539 0188 42E0     		b	.L164
 2540              	.L169:
 708:..\..\..\lvgl\version_6.1.2\lvgl\src\lv_draw/lv_draw_basic.c ****                     if(scr_transp == false) {
 2541              		.loc 3 708 0
 2542 018a 7B68     		ldr	r3, [r7, #4]
 2543 018c 1B88     		ldrh	r3, [r3]	@ movhi
 2544 018e BB84     		strh	r3, [r7, #36]	@ movhi
 2545 0190 2BE0     		b	.L165
 2546              	.L168:
 709:..\..\..\lvgl\version_6.1.2\lvgl\src\lv_draw/lv_draw_basic.c ****                         /*If the bg color changed recalculate the result color*/
 2547              		.loc 3 709 0
 2548 0192 7B7E     		ldrb	r3, [r7, #25]
ARM GAS  C:\Users\tmj32\AppData\Local\Temp\ccgaZSAc.s 			page 69


 2549 0194 83F00103 		eor	r3, r3, #1
 2550 0198 DBB2     		uxtb	r3, r3
 2551 019a 002B     		cmp	r3, #0
 2552 019c 1FD0     		beq	.L166
 711:..\..\..\lvgl\version_6.1.2\lvgl\src\lv_draw/lv_draw_basic.c ****                             bg_tmp  = mem[col];
 2553              		.loc 3 711 0
 2554 019e B7F92430 		ldrsh	r3, [r7, #36]
 2555 01a2 9B00     		lsls	r3, r3, #2
 2556 01a4 FA68     		ldr	r2, [r7, #12]
 2557 01a6 1344     		add	r3, r3, r2
 2558 01a8 1A68     		ldr	r2, [r3]
 2559 01aa 7B69     		ldr	r3, [r7, #20]
 2560 01ac 9A42     		cmp	r2, r3
 2561 01ae 0FD0     		beq	.L167
 712:..\..\..\lvgl\version_6.1.2\lvgl\src\lv_draw/lv_draw_basic.c ****                             opa_tmp = lv_color_mix(color, bg_tmp, opa);
 2562              		.loc 3 712 0
 2563 01b0 B7F92430 		ldrsh	r3, [r7, #36]
 2564 01b4 9B00     		lsls	r3, r3, #2
 2565 01b6 FA68     		ldr	r2, [r7, #12]
 2566 01b8 1344     		add	r3, r3, r2
 2567 01ba 1B68     		ldr	r3, [r3]
 2568 01bc 7B61     		str	r3, [r7, #20]
 713:..\..\..\lvgl\version_6.1.2\lvgl\src\lv_draw/lv_draw_basic.c ****                         }
 2569              		.loc 3 713 0
 2570 01be 97F83830 		ldrb	r3, [r7, #56]	@ zero_extendqisi2
 2571 01c2 1A46     		mov	r2, r3
 2572 01c4 7969     		ldr	r1, [r7, #20]
 2573 01c6 3868     		ldr	r0, [r7]
 2574 01c8 FFF7FEFF 		bl	lv_color_mix
 2575 01cc 0346     		mov	r3, r0
 2576 01ce 3B61     		str	r3, [r7, #16]
 2577              	.L167:
 716:..\..\..\lvgl\version_6.1.2\lvgl\src\lv_draw/lv_draw_basic.c **** 
 2578              		.loc 3 716 0
 2579 01d0 B7F92430 		ldrsh	r3, [r7, #36]
 2580 01d4 9B00     		lsls	r3, r3, #2
 2581 01d6 FA68     		ldr	r2, [r7, #12]
 2582 01d8 1344     		add	r3, r3, r2
 2583 01da 3A69     		ldr	r2, [r7, #16]
 2584 01dc 1A60     		str	r2, [r3]
 2585              	.L166:
 708:..\..\..\lvgl\version_6.1.2\lvgl\src\lv_draw/lv_draw_basic.c ****                     if(scr_transp == false) {
 2586              		.loc 3 708 0 discriminator 2
 2587 01de B7F92430 		ldrsh	r3, [r7, #36]
 2588 01e2 9BB2     		uxth	r3, r3
 2589 01e4 0133     		adds	r3, r3, #1
 2590 01e6 9BB2     		uxth	r3, r3
 2591 01e8 BB84     		strh	r3, [r7, #36]	@ movhi
 2592              	.L165:
 708:..\..\..\lvgl\version_6.1.2\lvgl\src\lv_draw/lv_draw_basic.c ****                     if(scr_transp == false) {
 2593              		.loc 3 708 0 is_stmt 0 discriminator 1
 2594 01ea 7B68     		ldr	r3, [r7, #4]
 2595 01ec B3F90430 		ldrsh	r3, [r3, #4]
 2596 01f0 B7F92420 		ldrsh	r2, [r7, #36]
 2597 01f4 9A42     		cmp	r2, r3
 2598 01f6 CCDD     		ble	.L168
 724:..\..\..\lvgl\version_6.1.2\lvgl\src\lv_draw/lv_draw_basic.c ****             }
ARM GAS  C:\Users\tmj32\AppData\Local\Temp\ccgaZSAc.s 			page 70


 2599              		.loc 3 724 0 is_stmt 1 discriminator 2
 2600 01f8 B7F90A30 		ldrsh	r3, [r7, #10]
 2601 01fc 9B00     		lsls	r3, r3, #2
 2602 01fe FA68     		ldr	r2, [r7, #12]
 2603 0200 1344     		add	r3, r3, r2
 2604 0202 FB60     		str	r3, [r7, #12]
 707:..\..\..\lvgl\version_6.1.2\lvgl\src\lv_draw/lv_draw_basic.c ****                 for(col = fill_area->x1; col <= fill_area->x2; col++) {
 2605              		.loc 3 707 0 discriminator 2
 2606 0204 B7F92630 		ldrsh	r3, [r7, #38]
 2607 0208 9BB2     		uxth	r3, r3
 2608 020a 0133     		adds	r3, r3, #1
 2609 020c 9BB2     		uxth	r3, r3
 2610 020e FB84     		strh	r3, [r7, #38]	@ movhi
 2611              	.L164:
 707:..\..\..\lvgl\version_6.1.2\lvgl\src\lv_draw/lv_draw_basic.c ****                 for(col = fill_area->x1; col <= fill_area->x2; col++) {
 2612              		.loc 3 707 0 is_stmt 0 discriminator 1
 2613 0210 7B68     		ldr	r3, [r7, #4]
 2614 0212 B3F90630 		ldrsh	r3, [r3, #6]
 2615 0216 B7F92620 		ldrsh	r2, [r7, #38]
 2616 021a 9A42     		cmp	r2, r3
 2617 021c B5DD     		ble	.L169
 2618              	.L170:
 2619              	.LBE14:
 2620              		.loc 3 728 0 is_stmt 1
 2621 021e 00BF     		nop
 2622 0220 2C37     		adds	r7, r7, #44
 2623              		.cfi_def_cfa_offset 12
 2624 0222 BD46     		mov	sp, r7
