ARM GAS  C:\Users\tmj32\AppData\Local\Temp\ccHxR1NV.s 			page 1


   1              		.syntax unified
   2              		.cpu cortex-m4
   3              		.eabi_attribute 27, 1
   4              		.fpu fpv4-sp-d16
   5              		.eabi_attribute 20, 1
   6              		.eabi_attribute 21, 1
   7              		.eabi_attribute 23, 3
   8              		.eabi_attribute 24, 1
   9              		.eabi_attribute 25, 1
  10              		.eabi_attribute 26, 1
  11              		.eabi_attribute 30, 6
  12              		.eabi_attribute 34, 1
  13              		.eabi_attribute 18, 4
  14              		.thumb
  15              		.syntax unified
  16              		.file	"lv_draw_label.c"
  17              		.text
  18              	.Ltext0:
  19              		.cfi_sections	.debug_frame
  20              		.section	.text.lv_font_get_line_height,"ax",%progbits
  21              		.align	2
  22              		.thumb
  23              		.thumb_func
  24              		.type	lv_font_get_line_height, %function
  25              	lv_font_get_line_height:
  26              	.LFB0:
  27              		.file 1 "..\\..\\..\\lvgl\\version_6.1.2\\lvgl\\src\\lv_draw\\../lv_core/../lv_font/lv_font.h"
   1:..\..\..\lvgl\version_6.1.2\lvgl\src\lv_draw\../lv_core/../lv_font/lv_font.h **** /**
   2:..\..\..\lvgl\version_6.1.2\lvgl\src\lv_draw\../lv_core/../lv_font/lv_font.h ****  * @file lv_font.h
   3:..\..\..\lvgl\version_6.1.2\lvgl\src\lv_draw\../lv_core/../lv_font/lv_font.h ****  *
   4:..\..\..\lvgl\version_6.1.2\lvgl\src\lv_draw\../lv_core/../lv_font/lv_font.h ****  */
   5:..\..\..\lvgl\version_6.1.2\lvgl\src\lv_draw\../lv_core/../lv_font/lv_font.h **** 
   6:..\..\..\lvgl\version_6.1.2\lvgl\src\lv_draw\../lv_core/../lv_font/lv_font.h **** #ifndef LV_FONT_H
   7:..\..\..\lvgl\version_6.1.2\lvgl\src\lv_draw\../lv_core/../lv_font/lv_font.h **** #define LV_FONT_H
   8:..\..\..\lvgl\version_6.1.2\lvgl\src\lv_draw\../lv_core/../lv_font/lv_font.h **** 
   9:..\..\..\lvgl\version_6.1.2\lvgl\src\lv_draw\../lv_core/../lv_font/lv_font.h **** #ifdef __cplusplus
  10:..\..\..\lvgl\version_6.1.2\lvgl\src\lv_draw\../lv_core/../lv_font/lv_font.h **** extern "C" {
  11:..\..\..\lvgl\version_6.1.2\lvgl\src\lv_draw\../lv_core/../lv_font/lv_font.h **** #endif
  12:..\..\..\lvgl\version_6.1.2\lvgl\src\lv_draw\../lv_core/../lv_font/lv_font.h **** 
  13:..\..\..\lvgl\version_6.1.2\lvgl\src\lv_draw\../lv_core/../lv_font/lv_font.h **** /*********************
  14:..\..\..\lvgl\version_6.1.2\lvgl\src\lv_draw\../lv_core/../lv_font/lv_font.h ****  *      INCLUDES
  15:..\..\..\lvgl\version_6.1.2\lvgl\src\lv_draw\../lv_core/../lv_font/lv_font.h ****  *********************/
  16:..\..\..\lvgl\version_6.1.2\lvgl\src\lv_draw\../lv_core/../lv_font/lv_font.h **** #ifdef LV_CONF_INCLUDE_SIMPLE
  17:..\..\..\lvgl\version_6.1.2\lvgl\src\lv_draw\../lv_core/../lv_font/lv_font.h **** #include "lv_conf.h"
  18:..\..\..\lvgl\version_6.1.2\lvgl\src\lv_draw\../lv_core/../lv_font/lv_font.h **** #else
  19:..\..\..\lvgl\version_6.1.2\lvgl\src\lv_draw\../lv_core/../lv_font/lv_font.h **** #include "../../../lv_conf.h"
  20:..\..\..\lvgl\version_6.1.2\lvgl\src\lv_draw\../lv_core/../lv_font/lv_font.h **** #endif
  21:..\..\..\lvgl\version_6.1.2\lvgl\src\lv_draw\../lv_core/../lv_font/lv_font.h **** 
  22:..\..\..\lvgl\version_6.1.2\lvgl\src\lv_draw\../lv_core/../lv_font/lv_font.h **** #include <stdint.h>
  23:..\..\..\lvgl\version_6.1.2\lvgl\src\lv_draw\../lv_core/../lv_font/lv_font.h **** #include <stddef.h>
  24:..\..\..\lvgl\version_6.1.2\lvgl\src\lv_draw\../lv_core/../lv_font/lv_font.h **** #include <stdbool.h>
  25:..\..\..\lvgl\version_6.1.2\lvgl\src\lv_draw\../lv_core/../lv_font/lv_font.h **** 
  26:..\..\..\lvgl\version_6.1.2\lvgl\src\lv_draw\../lv_core/../lv_font/lv_font.h **** #include "lv_symbol_def.h"
  27:..\..\..\lvgl\version_6.1.2\lvgl\src\lv_draw\../lv_core/../lv_font/lv_font.h **** 
  28:..\..\..\lvgl\version_6.1.2\lvgl\src\lv_draw\../lv_core/../lv_font/lv_font.h **** /*********************
  29:..\..\..\lvgl\version_6.1.2\lvgl\src\lv_draw\../lv_core/../lv_font/lv_font.h ****  *      DEFINES
  30:..\..\..\lvgl\version_6.1.2\lvgl\src\lv_draw\../lv_core/../lv_font/lv_font.h ****  *********************/
ARM GAS  C:\Users\tmj32\AppData\Local\Temp\ccHxR1NV.s 			page 2


  31:..\..\..\lvgl\version_6.1.2\lvgl\src\lv_draw\../lv_core/../lv_font/lv_font.h **** /*Number of fractional digits in the advanced width (`adv_w`) field of `lv_font_glyph_dsc_t`*/
  32:..\..\..\lvgl\version_6.1.2\lvgl\src\lv_draw\../lv_core/../lv_font/lv_font.h **** #define LV_FONT_WIDTH_FRACT_DIGIT       4
  33:..\..\..\lvgl\version_6.1.2\lvgl\src\lv_draw\../lv_core/../lv_font/lv_font.h **** 
  34:..\..\..\lvgl\version_6.1.2\lvgl\src\lv_draw\../lv_core/../lv_font/lv_font.h **** #define LV_FONT_KERN_POSITIVE        0
  35:..\..\..\lvgl\version_6.1.2\lvgl\src\lv_draw\../lv_core/../lv_font/lv_font.h **** #define LV_FONT_KERN_NEGATIVE        1
  36:..\..\..\lvgl\version_6.1.2\lvgl\src\lv_draw\../lv_core/../lv_font/lv_font.h **** 
  37:..\..\..\lvgl\version_6.1.2\lvgl\src\lv_draw\../lv_core/../lv_font/lv_font.h **** /**********************
  38:..\..\..\lvgl\version_6.1.2\lvgl\src\lv_draw\../lv_core/../lv_font/lv_font.h ****  *      TYPEDEFS
  39:..\..\..\lvgl\version_6.1.2\lvgl\src\lv_draw\../lv_core/../lv_font/lv_font.h ****  **********************/
  40:..\..\..\lvgl\version_6.1.2\lvgl\src\lv_draw\../lv_core/../lv_font/lv_font.h **** 
  41:..\..\..\lvgl\version_6.1.2\lvgl\src\lv_draw\../lv_core/../lv_font/lv_font.h **** /*------------------
  42:..\..\..\lvgl\version_6.1.2\lvgl\src\lv_draw\../lv_core/../lv_font/lv_font.h ****  * General types
  43:..\..\..\lvgl\version_6.1.2\lvgl\src\lv_draw\../lv_core/../lv_font/lv_font.h ****  *-----------------*/
  44:..\..\..\lvgl\version_6.1.2\lvgl\src\lv_draw\../lv_core/../lv_font/lv_font.h **** 
  45:..\..\..\lvgl\version_6.1.2\lvgl\src\lv_draw\../lv_core/../lv_font/lv_font.h **** /** Describes the properties of a glyph. */
  46:..\..\..\lvgl\version_6.1.2\lvgl\src\lv_draw\../lv_core/../lv_font/lv_font.h **** typedef struct
  47:..\..\..\lvgl\version_6.1.2\lvgl\src\lv_draw\../lv_core/../lv_font/lv_font.h **** {
  48:..\..\..\lvgl\version_6.1.2\lvgl\src\lv_draw\../lv_core/../lv_font/lv_font.h ****     uint16_t adv_w; /**< The glyph needs this space. Draw the next glyph after this width. 8 bit in
  49:..\..\..\lvgl\version_6.1.2\lvgl\src\lv_draw\../lv_core/../lv_font/lv_font.h ****     uint8_t box_w;  /**< Width of the glyph's bounding box*/
  50:..\..\..\lvgl\version_6.1.2\lvgl\src\lv_draw\../lv_core/../lv_font/lv_font.h ****     uint8_t box_h;  /**< Height of the glyph's bounding box*/
  51:..\..\..\lvgl\version_6.1.2\lvgl\src\lv_draw\../lv_core/../lv_font/lv_font.h ****     int8_t ofs_x;   /**< x offset of the bounding box*/
  52:..\..\..\lvgl\version_6.1.2\lvgl\src\lv_draw\../lv_core/../lv_font/lv_font.h ****     int8_t ofs_y;  /**< y offset of the bounding box*/
  53:..\..\..\lvgl\version_6.1.2\lvgl\src\lv_draw\../lv_core/../lv_font/lv_font.h ****     uint8_t bpp;   /**< Bit-per-pixel: 1, 2, 4, 8*/
  54:..\..\..\lvgl\version_6.1.2\lvgl\src\lv_draw\../lv_core/../lv_font/lv_font.h **** }lv_font_glyph_dsc_t;
  55:..\..\..\lvgl\version_6.1.2\lvgl\src\lv_draw\../lv_core/../lv_font/lv_font.h **** 
  56:..\..\..\lvgl\version_6.1.2\lvgl\src\lv_draw\../lv_core/../lv_font/lv_font.h **** 
  57:..\..\..\lvgl\version_6.1.2\lvgl\src\lv_draw\../lv_core/../lv_font/lv_font.h **** /** The bitmaps might be upscaled by 3 to achieve subpixel rendering. */
  58:..\..\..\lvgl\version_6.1.2\lvgl\src\lv_draw\../lv_core/../lv_font/lv_font.h **** enum {
  59:..\..\..\lvgl\version_6.1.2\lvgl\src\lv_draw\../lv_core/../lv_font/lv_font.h ****     LV_FONT_SUBPX_NONE,
  60:..\..\..\lvgl\version_6.1.2\lvgl\src\lv_draw\../lv_core/../lv_font/lv_font.h ****     LV_FONT_SUBPX_HOR,
  61:..\..\..\lvgl\version_6.1.2\lvgl\src\lv_draw\../lv_core/../lv_font/lv_font.h ****     LV_FONT_SUBPX_VER,
  62:..\..\..\lvgl\version_6.1.2\lvgl\src\lv_draw\../lv_core/../lv_font/lv_font.h ****     LV_FONT_SUBPX_BOTH,
  63:..\..\..\lvgl\version_6.1.2\lvgl\src\lv_draw\../lv_core/../lv_font/lv_font.h **** };
  64:..\..\..\lvgl\version_6.1.2\lvgl\src\lv_draw\../lv_core/../lv_font/lv_font.h **** 
  65:..\..\..\lvgl\version_6.1.2\lvgl\src\lv_draw\../lv_core/../lv_font/lv_font.h **** typedef uint8_t lv_font_subpx_t;
  66:..\..\..\lvgl\version_6.1.2\lvgl\src\lv_draw\../lv_core/../lv_font/lv_font.h **** 
  67:..\..\..\lvgl\version_6.1.2\lvgl\src\lv_draw\../lv_core/../lv_font/lv_font.h **** /** Describe the properties of a font*/
  68:..\..\..\lvgl\version_6.1.2\lvgl\src\lv_draw\../lv_core/../lv_font/lv_font.h **** typedef struct _lv_font_struct
  69:..\..\..\lvgl\version_6.1.2\lvgl\src\lv_draw\../lv_core/../lv_font/lv_font.h **** {
  70:..\..\..\lvgl\version_6.1.2\lvgl\src\lv_draw\../lv_core/../lv_font/lv_font.h ****     /** Get a glyph's  descriptor from a font*/
  71:..\..\..\lvgl\version_6.1.2\lvgl\src\lv_draw\../lv_core/../lv_font/lv_font.h ****     bool (*get_glyph_dsc)(const struct _lv_font_struct *, lv_font_glyph_dsc_t *, uint32_t letter, u
  72:..\..\..\lvgl\version_6.1.2\lvgl\src\lv_draw\../lv_core/../lv_font/lv_font.h **** 
  73:..\..\..\lvgl\version_6.1.2\lvgl\src\lv_draw\../lv_core/../lv_font/lv_font.h ****     /** Get a glyph's bitmap from a font*/
  74:..\..\..\lvgl\version_6.1.2\lvgl\src\lv_draw\../lv_core/../lv_font/lv_font.h ****     const uint8_t * (*get_glyph_bitmap)(const struct _lv_font_struct *, uint32_t);
  75:..\..\..\lvgl\version_6.1.2\lvgl\src\lv_draw\../lv_core/../lv_font/lv_font.h **** 
  76:..\..\..\lvgl\version_6.1.2\lvgl\src\lv_draw\../lv_core/../lv_font/lv_font.h ****     /*Pointer to the font in a font pack (must have the same line height)*/
  77:..\..\..\lvgl\version_6.1.2\lvgl\src\lv_draw\../lv_core/../lv_font/lv_font.h ****     uint8_t line_height;      /**< The real line height where any text fits*/
  78:..\..\..\lvgl\version_6.1.2\lvgl\src\lv_draw\../lv_core/../lv_font/lv_font.h ****     int8_t base_line;        /**< Base line measured from the top of the line_height*/
  79:..\..\..\lvgl\version_6.1.2\lvgl\src\lv_draw\../lv_core/../lv_font/lv_font.h ****     uint8_t subpx  :2;        /**< An element of `lv_font_subpx_t`*/
  80:..\..\..\lvgl\version_6.1.2\lvgl\src\lv_draw\../lv_core/../lv_font/lv_font.h ****     void * dsc;               /**< Store implementation specific or run_time data or caching here*/
  81:..\..\..\lvgl\version_6.1.2\lvgl\src\lv_draw\../lv_core/../lv_font/lv_font.h **** #if LV_USE_USER_DATA
  82:..\..\..\lvgl\version_6.1.2\lvgl\src\lv_draw\../lv_core/../lv_font/lv_font.h ****     lv_font_user_data_t user_data; /**< Custom user data for font. */
  83:..\..\..\lvgl\version_6.1.2\lvgl\src\lv_draw\../lv_core/../lv_font/lv_font.h **** #endif
  84:..\..\..\lvgl\version_6.1.2\lvgl\src\lv_draw\../lv_core/../lv_font/lv_font.h **** 
  85:..\..\..\lvgl\version_6.1.2\lvgl\src\lv_draw\../lv_core/../lv_font/lv_font.h **** 
  86:..\..\..\lvgl\version_6.1.2\lvgl\src\lv_draw\../lv_core/../lv_font/lv_font.h **** } lv_font_t;
  87:..\..\..\lvgl\version_6.1.2\lvgl\src\lv_draw\../lv_core/../lv_font/lv_font.h **** 
ARM GAS  C:\Users\tmj32\AppData\Local\Temp\ccHxR1NV.s 			page 3


  88:..\..\..\lvgl\version_6.1.2\lvgl\src\lv_draw\../lv_core/../lv_font/lv_font.h **** /**********************
  89:..\..\..\lvgl\version_6.1.2\lvgl\src\lv_draw\../lv_core/../lv_font/lv_font.h ****  * GLOBAL PROTOTYPES
  90:..\..\..\lvgl\version_6.1.2\lvgl\src\lv_draw\../lv_core/../lv_font/lv_font.h ****  **********************/
  91:..\..\..\lvgl\version_6.1.2\lvgl\src\lv_draw\../lv_core/../lv_font/lv_font.h **** 
  92:..\..\..\lvgl\version_6.1.2\lvgl\src\lv_draw\../lv_core/../lv_font/lv_font.h **** /**
  93:..\..\..\lvgl\version_6.1.2\lvgl\src\lv_draw\../lv_core/../lv_font/lv_font.h ****  * Return with the bitmap of a font.
  94:..\..\..\lvgl\version_6.1.2\lvgl\src\lv_draw\../lv_core/../lv_font/lv_font.h ****  * @param font_p pointer to a font
  95:..\..\..\lvgl\version_6.1.2\lvgl\src\lv_draw\../lv_core/../lv_font/lv_font.h ****  * @param letter an UNICODE character code
  96:..\..\..\lvgl\version_6.1.2\lvgl\src\lv_draw\../lv_core/../lv_font/lv_font.h ****  * @return  pointer to the bitmap of the letter
  97:..\..\..\lvgl\version_6.1.2\lvgl\src\lv_draw\../lv_core/../lv_font/lv_font.h ****  */
  98:..\..\..\lvgl\version_6.1.2\lvgl\src\lv_draw\../lv_core/../lv_font/lv_font.h **** const uint8_t * lv_font_get_glyph_bitmap(const lv_font_t * font_p, uint32_t letter);
  99:..\..\..\lvgl\version_6.1.2\lvgl\src\lv_draw\../lv_core/../lv_font/lv_font.h **** 
 100:..\..\..\lvgl\version_6.1.2\lvgl\src\lv_draw\../lv_core/../lv_font/lv_font.h **** /**
 101:..\..\..\lvgl\version_6.1.2\lvgl\src\lv_draw\../lv_core/../lv_font/lv_font.h ****  * Get the descriptor of a glyph
 102:..\..\..\lvgl\version_6.1.2\lvgl\src\lv_draw\../lv_core/../lv_font/lv_font.h ****  * @param font_p pointer to font
 103:..\..\..\lvgl\version_6.1.2\lvgl\src\lv_draw\../lv_core/../lv_font/lv_font.h ****  * @param dsc_out store the result descriptor here
 104:..\..\..\lvgl\version_6.1.2\lvgl\src\lv_draw\../lv_core/../lv_font/lv_font.h ****  * @param letter an UNICODE letter code
 105:..\..\..\lvgl\version_6.1.2\lvgl\src\lv_draw\../lv_core/../lv_font/lv_font.h ****  * @return true: descriptor is successfully loaded into `dsc_out`.
 106:..\..\..\lvgl\version_6.1.2\lvgl\src\lv_draw\../lv_core/../lv_font/lv_font.h ****  *         false: the letter was not found, no data is loaded to `dsc_out`
 107:..\..\..\lvgl\version_6.1.2\lvgl\src\lv_draw\../lv_core/../lv_font/lv_font.h ****  */
 108:..\..\..\lvgl\version_6.1.2\lvgl\src\lv_draw\../lv_core/../lv_font/lv_font.h **** bool lv_font_get_glyph_dsc(const lv_font_t * font_p, lv_font_glyph_dsc_t * dsc_out, uint32_t letter
 109:..\..\..\lvgl\version_6.1.2\lvgl\src\lv_draw\../lv_core/../lv_font/lv_font.h **** 
 110:..\..\..\lvgl\version_6.1.2\lvgl\src\lv_draw\../lv_core/../lv_font/lv_font.h **** /**
 111:..\..\..\lvgl\version_6.1.2\lvgl\src\lv_draw\../lv_core/../lv_font/lv_font.h ****  * Get the width of a glyph with kerning
 112:..\..\..\lvgl\version_6.1.2\lvgl\src\lv_draw\../lv_core/../lv_font/lv_font.h ****  * @param font pointer to a font
 113:..\..\..\lvgl\version_6.1.2\lvgl\src\lv_draw\../lv_core/../lv_font/lv_font.h ****  * @param letter an UNICODE letter
 114:..\..\..\lvgl\version_6.1.2\lvgl\src\lv_draw\../lv_core/../lv_font/lv_font.h ****  * @param letter_next the next letter after `letter`. Used for kerning
 115:..\..\..\lvgl\version_6.1.2\lvgl\src\lv_draw\../lv_core/../lv_font/lv_font.h ****  * @return the width of the glyph
 116:..\..\..\lvgl\version_6.1.2\lvgl\src\lv_draw\../lv_core/../lv_font/lv_font.h ****  */
 117:..\..\..\lvgl\version_6.1.2\lvgl\src\lv_draw\../lv_core/../lv_font/lv_font.h **** uint16_t lv_font_get_glyph_width(const lv_font_t * font, uint32_t letter, uint32_t letter_next);
 118:..\..\..\lvgl\version_6.1.2\lvgl\src\lv_draw\../lv_core/../lv_font/lv_font.h **** 
 119:..\..\..\lvgl\version_6.1.2\lvgl\src\lv_draw\../lv_core/../lv_font/lv_font.h **** /**
 120:..\..\..\lvgl\version_6.1.2\lvgl\src\lv_draw\../lv_core/../lv_font/lv_font.h ****  * Get the line height of a font. All characters fit into this height
 121:..\..\..\lvgl\version_6.1.2\lvgl\src\lv_draw\../lv_core/../lv_font/lv_font.h ****  * @param font_p pointer to a font
 122:..\..\..\lvgl\version_6.1.2\lvgl\src\lv_draw\../lv_core/../lv_font/lv_font.h ****  * @return the height of a font
 123:..\..\..\lvgl\version_6.1.2\lvgl\src\lv_draw\../lv_core/../lv_font/lv_font.h ****  */
 124:..\..\..\lvgl\version_6.1.2\lvgl\src\lv_draw\../lv_core/../lv_font/lv_font.h **** static inline uint8_t lv_font_get_line_height(const lv_font_t * font_p)
 125:..\..\..\lvgl\version_6.1.2\lvgl\src\lv_draw\../lv_core/../lv_font/lv_font.h **** {
  28              		.loc 1 125 0
  29              		.cfi_startproc
  30              		@ args = 0, pretend = 0, frame = 8
  31              		@ frame_needed = 1, uses_anonymous_args = 0
  32              		@ link register save eliminated.
  33 0000 80B4     		push	{r7}
  34              		.cfi_def_cfa_offset 4
  35              		.cfi_offset 7, -4
  36 0002 83B0     		sub	sp, sp, #12
  37              		.cfi_def_cfa_offset 16
  38 0004 00AF     		add	r7, sp, #0
  39              		.cfi_def_cfa_register 7
  40 0006 7860     		str	r0, [r7, #4]
 126:..\..\..\lvgl\version_6.1.2\lvgl\src\lv_draw\../lv_core/../lv_font/lv_font.h ****     return font_p->line_height;
  41              		.loc 1 126 0
  42 0008 7B68     		ldr	r3, [r7, #4]
  43 000a 1B7A     		ldrb	r3, [r3, #8]	@ zero_extendqisi2
 127:..\..\..\lvgl\version_6.1.2\lvgl\src\lv_draw\../lv_core/../lv_font/lv_font.h **** }
  44              		.loc 1 127 0
ARM GAS  C:\Users\tmj32\AppData\Local\Temp\ccHxR1NV.s 			page 4


  45 000c 1846     		mov	r0, r3
  46 000e 0C37     		adds	r7, r7, #12
  47              		.cfi_def_cfa_offset 4
  48 0010 BD46     		mov	sp, r7
  49              		.cfi_def_cfa_register 13
  50              		@ sp needed
  51 0012 5DF8047B 		ldr	r7, [sp], #4
  52              		.cfi_restore 7
  53              		.cfi_def_cfa_offset 0
  54 0016 7047     		bx	lr
  55              		.cfi_endproc
  56              	.LFE0:
  57              		.size	lv_font_get_line_height, .-lv_font_get_line_height
  58              		.section	.text.lv_color_make,"ax",%progbits
  59              		.align	2
  60              		.thumb
  61              		.thumb_func
  62              		.type	lv_color_make, %function
  63              	lv_color_make:
  64              	.LFB7:
  65              		.file 2 "..\\..\\..\\lvgl\\version_6.1.2\\lvgl\\src\\lv_draw\\../lv_core/../lv_misc/lv_color.h"
   1:..\..\..\lvgl\version_6.1.2\lvgl\src\lv_draw\../lv_core/../lv_misc/lv_color.h **** /**
   2:..\..\..\lvgl\version_6.1.2\lvgl\src\lv_draw\../lv_core/../lv_misc/lv_color.h ****  * @file lv_color.h
   3:..\..\..\lvgl\version_6.1.2\lvgl\src\lv_draw\../lv_core/../lv_misc/lv_color.h ****  *
   4:..\..\..\lvgl\version_6.1.2\lvgl\src\lv_draw\../lv_core/../lv_misc/lv_color.h ****  */
   5:..\..\..\lvgl\version_6.1.2\lvgl\src\lv_draw\../lv_core/../lv_misc/lv_color.h **** 
   6:..\..\..\lvgl\version_6.1.2\lvgl\src\lv_draw\../lv_core/../lv_misc/lv_color.h **** #ifndef LV_COLOR_H
   7:..\..\..\lvgl\version_6.1.2\lvgl\src\lv_draw\../lv_core/../lv_misc/lv_color.h **** #define LV_COLOR_H
   8:..\..\..\lvgl\version_6.1.2\lvgl\src\lv_draw\../lv_core/../lv_misc/lv_color.h **** 
   9:..\..\..\lvgl\version_6.1.2\lvgl\src\lv_draw\../lv_core/../lv_misc/lv_color.h **** #ifdef __cplusplus
  10:..\..\..\lvgl\version_6.1.2\lvgl\src\lv_draw\../lv_core/../lv_misc/lv_color.h **** extern "C" {
  11:..\..\..\lvgl\version_6.1.2\lvgl\src\lv_draw\../lv_core/../lv_misc/lv_color.h **** #endif
  12:..\..\..\lvgl\version_6.1.2\lvgl\src\lv_draw\../lv_core/../lv_misc/lv_color.h **** 
  13:..\..\..\lvgl\version_6.1.2\lvgl\src\lv_draw\../lv_core/../lv_misc/lv_color.h **** /*********************
  14:..\..\..\lvgl\version_6.1.2\lvgl\src\lv_draw\../lv_core/../lv_misc/lv_color.h ****  *      INCLUDES
  15:..\..\..\lvgl\version_6.1.2\lvgl\src\lv_draw\../lv_core/../lv_misc/lv_color.h ****  *********************/
  16:..\..\..\lvgl\version_6.1.2\lvgl\src\lv_draw\../lv_core/../lv_misc/lv_color.h **** #ifdef LV_CONF_INCLUDE_SIMPLE
  17:..\..\..\lvgl\version_6.1.2\lvgl\src\lv_draw\../lv_core/../lv_misc/lv_color.h **** #include "lv_conf.h"
  18:..\..\..\lvgl\version_6.1.2\lvgl\src\lv_draw\../lv_core/../lv_misc/lv_color.h **** #else
  19:..\..\..\lvgl\version_6.1.2\lvgl\src\lv_draw\../lv_core/../lv_misc/lv_color.h **** #include "../../../lv_conf.h"
  20:..\..\..\lvgl\version_6.1.2\lvgl\src\lv_draw\../lv_core/../lv_misc/lv_color.h **** #endif
  21:..\..\..\lvgl\version_6.1.2\lvgl\src\lv_draw\../lv_core/../lv_misc/lv_color.h **** 
  22:..\..\..\lvgl\version_6.1.2\lvgl\src\lv_draw\../lv_core/../lv_misc/lv_color.h **** /*Error checking*/
  23:..\..\..\lvgl\version_6.1.2\lvgl\src\lv_draw\../lv_core/../lv_misc/lv_color.h **** #if LV_COLOR_DEPTH == 24
  24:..\..\..\lvgl\version_6.1.2\lvgl\src\lv_draw\../lv_core/../lv_misc/lv_color.h **** #error "LV_COLOR_DEPTH  24 is deprecated. Use LV_COLOR_DEPTH  32 instead (lv_conf.h)"
  25:..\..\..\lvgl\version_6.1.2\lvgl\src\lv_draw\../lv_core/../lv_misc/lv_color.h **** #endif
  26:..\..\..\lvgl\version_6.1.2\lvgl\src\lv_draw\../lv_core/../lv_misc/lv_color.h **** 
  27:..\..\..\lvgl\version_6.1.2\lvgl\src\lv_draw\../lv_core/../lv_misc/lv_color.h **** #if LV_COLOR_DEPTH != 32 && LV_COLOR_SCREEN_TRANSP != 0
  28:..\..\..\lvgl\version_6.1.2\lvgl\src\lv_draw\../lv_core/../lv_misc/lv_color.h **** #error "LV_COLOR_SCREEN_TRANSP requires LV_COLOR_DEPTH == 32. Set it in lv_conf.h"
  29:..\..\..\lvgl\version_6.1.2\lvgl\src\lv_draw\../lv_core/../lv_misc/lv_color.h **** #endif
  30:..\..\..\lvgl\version_6.1.2\lvgl\src\lv_draw\../lv_core/../lv_misc/lv_color.h **** 
  31:..\..\..\lvgl\version_6.1.2\lvgl\src\lv_draw\../lv_core/../lv_misc/lv_color.h **** #if LV_COLOR_DEPTH != 16 && LV_COLOR_16_SWAP != 0
  32:..\..\..\lvgl\version_6.1.2\lvgl\src\lv_draw\../lv_core/../lv_misc/lv_color.h **** #error "LV_COLOR_16_SWAP requires LV_COLOR_DEPTH == 16. Set it in lv_conf.h"
  33:..\..\..\lvgl\version_6.1.2\lvgl\src\lv_draw\../lv_core/../lv_misc/lv_color.h **** #endif
  34:..\..\..\lvgl\version_6.1.2\lvgl\src\lv_draw\../lv_core/../lv_misc/lv_color.h **** 
  35:..\..\..\lvgl\version_6.1.2\lvgl\src\lv_draw\../lv_core/../lv_misc/lv_color.h **** #include <stdint.h>
  36:..\..\..\lvgl\version_6.1.2\lvgl\src\lv_draw\../lv_core/../lv_misc/lv_color.h **** 
ARM GAS  C:\Users\tmj32\AppData\Local\Temp\ccHxR1NV.s 			page 5


  37:..\..\..\lvgl\version_6.1.2\lvgl\src\lv_draw\../lv_core/../lv_misc/lv_color.h **** /*********************
  38:..\..\..\lvgl\version_6.1.2\lvgl\src\lv_draw\../lv_core/../lv_misc/lv_color.h ****  *      DEFINES
  39:..\..\..\lvgl\version_6.1.2\lvgl\src\lv_draw\../lv_core/../lv_misc/lv_color.h ****  *********************/
  40:..\..\..\lvgl\version_6.1.2\lvgl\src\lv_draw\../lv_core/../lv_misc/lv_color.h **** #define LV_COLOR_WHITE LV_COLOR_MAKE(0xFF, 0xFF, 0xFF)
  41:..\..\..\lvgl\version_6.1.2\lvgl\src\lv_draw\../lv_core/../lv_misc/lv_color.h **** #define LV_COLOR_SILVER LV_COLOR_MAKE(0xC0, 0xC0, 0xC0)
  42:..\..\..\lvgl\version_6.1.2\lvgl\src\lv_draw\../lv_core/../lv_misc/lv_color.h **** #define LV_COLOR_GRAY LV_COLOR_MAKE(0x80, 0x80, 0x80)
  43:..\..\..\lvgl\version_6.1.2\lvgl\src\lv_draw\../lv_core/../lv_misc/lv_color.h **** #define LV_COLOR_BLACK LV_COLOR_MAKE(0x00, 0x00, 0x00)
  44:..\..\..\lvgl\version_6.1.2\lvgl\src\lv_draw\../lv_core/../lv_misc/lv_color.h **** #define LV_COLOR_RED LV_COLOR_MAKE(0xFF, 0x00, 0x00)
  45:..\..\..\lvgl\version_6.1.2\lvgl\src\lv_draw\../lv_core/../lv_misc/lv_color.h **** #define LV_COLOR_MAROON LV_COLOR_MAKE(0x80, 0x00, 0x00)
  46:..\..\..\lvgl\version_6.1.2\lvgl\src\lv_draw\../lv_core/../lv_misc/lv_color.h **** #define LV_COLOR_YELLOW LV_COLOR_MAKE(0xFF, 0xFF, 0x00)
  47:..\..\..\lvgl\version_6.1.2\lvgl\src\lv_draw\../lv_core/../lv_misc/lv_color.h **** #define LV_COLOR_OLIVE LV_COLOR_MAKE(0x80, 0x80, 0x00)
  48:..\..\..\lvgl\version_6.1.2\lvgl\src\lv_draw\../lv_core/../lv_misc/lv_color.h **** #define LV_COLOR_LIME LV_COLOR_MAKE(0x00, 0xFF, 0x00)
  49:..\..\..\lvgl\version_6.1.2\lvgl\src\lv_draw\../lv_core/../lv_misc/lv_color.h **** #define LV_COLOR_GREEN LV_COLOR_MAKE(0x00, 0x80, 0x00)
  50:..\..\..\lvgl\version_6.1.2\lvgl\src\lv_draw\../lv_core/../lv_misc/lv_color.h **** #define LV_COLOR_CYAN LV_COLOR_MAKE(0x00, 0xFF, 0xFF)
  51:..\..\..\lvgl\version_6.1.2\lvgl\src\lv_draw\../lv_core/../lv_misc/lv_color.h **** #define LV_COLOR_AQUA LV_COLOR_CYAN
  52:..\..\..\lvgl\version_6.1.2\lvgl\src\lv_draw\../lv_core/../lv_misc/lv_color.h **** #define LV_COLOR_TEAL LV_COLOR_MAKE(0x00, 0x80, 0x80)
  53:..\..\..\lvgl\version_6.1.2\lvgl\src\lv_draw\../lv_core/../lv_misc/lv_color.h **** #define LV_COLOR_BLUE LV_COLOR_MAKE(0x00, 0x00, 0xFF)
  54:..\..\..\lvgl\version_6.1.2\lvgl\src\lv_draw\../lv_core/../lv_misc/lv_color.h **** #define LV_COLOR_NAVY LV_COLOR_MAKE(0x00, 0x00, 0x80)
  55:..\..\..\lvgl\version_6.1.2\lvgl\src\lv_draw\../lv_core/../lv_misc/lv_color.h **** #define LV_COLOR_MAGENTA LV_COLOR_MAKE(0xFF, 0x00, 0xFF)
  56:..\..\..\lvgl\version_6.1.2\lvgl\src\lv_draw\../lv_core/../lv_misc/lv_color.h **** #define LV_COLOR_PURPLE LV_COLOR_MAKE(0x80, 0x00, 0x80)
  57:..\..\..\lvgl\version_6.1.2\lvgl\src\lv_draw\../lv_core/../lv_misc/lv_color.h **** #define LV_COLOR_ORANGE LV_COLOR_MAKE(0xFF, 0xA5, 0x00)
  58:..\..\..\lvgl\version_6.1.2\lvgl\src\lv_draw\../lv_core/../lv_misc/lv_color.h **** 
  59:..\..\..\lvgl\version_6.1.2\lvgl\src\lv_draw\../lv_core/../lv_misc/lv_color.h **** /**
  60:..\..\..\lvgl\version_6.1.2\lvgl\src\lv_draw\../lv_core/../lv_misc/lv_color.h ****  * Opacity percentages.
  61:..\..\..\lvgl\version_6.1.2\lvgl\src\lv_draw\../lv_core/../lv_misc/lv_color.h ****  */
  62:..\..\..\lvgl\version_6.1.2\lvgl\src\lv_draw\../lv_core/../lv_misc/lv_color.h **** enum {
  63:..\..\..\lvgl\version_6.1.2\lvgl\src\lv_draw\../lv_core/../lv_misc/lv_color.h ****     LV_OPA_TRANSP = 0,
  64:..\..\..\lvgl\version_6.1.2\lvgl\src\lv_draw\../lv_core/../lv_misc/lv_color.h ****     LV_OPA_0      = 0,
  65:..\..\..\lvgl\version_6.1.2\lvgl\src\lv_draw\../lv_core/../lv_misc/lv_color.h ****     LV_OPA_10     = 25,
  66:..\..\..\lvgl\version_6.1.2\lvgl\src\lv_draw\../lv_core/../lv_misc/lv_color.h ****     LV_OPA_20     = 51,
  67:..\..\..\lvgl\version_6.1.2\lvgl\src\lv_draw\../lv_core/../lv_misc/lv_color.h ****     LV_OPA_30     = 76,
  68:..\..\..\lvgl\version_6.1.2\lvgl\src\lv_draw\../lv_core/../lv_misc/lv_color.h ****     LV_OPA_40     = 102,
  69:..\..\..\lvgl\version_6.1.2\lvgl\src\lv_draw\../lv_core/../lv_misc/lv_color.h ****     LV_OPA_50     = 127,
  70:..\..\..\lvgl\version_6.1.2\lvgl\src\lv_draw\../lv_core/../lv_misc/lv_color.h ****     LV_OPA_60     = 153,
  71:..\..\..\lvgl\version_6.1.2\lvgl\src\lv_draw\../lv_core/../lv_misc/lv_color.h ****     LV_OPA_70     = 178,
  72:..\..\..\lvgl\version_6.1.2\lvgl\src\lv_draw\../lv_core/../lv_misc/lv_color.h ****     LV_OPA_80     = 204,
  73:..\..\..\lvgl\version_6.1.2\lvgl\src\lv_draw\../lv_core/../lv_misc/lv_color.h ****     LV_OPA_90     = 229,
  74:..\..\..\lvgl\version_6.1.2\lvgl\src\lv_draw\../lv_core/../lv_misc/lv_color.h ****     LV_OPA_100    = 255,
  75:..\..\..\lvgl\version_6.1.2\lvgl\src\lv_draw\../lv_core/../lv_misc/lv_color.h ****     LV_OPA_COVER  = 255,
  76:..\..\..\lvgl\version_6.1.2\lvgl\src\lv_draw\../lv_core/../lv_misc/lv_color.h **** };
  77:..\..\..\lvgl\version_6.1.2\lvgl\src\lv_draw\../lv_core/../lv_misc/lv_color.h **** 
  78:..\..\..\lvgl\version_6.1.2\lvgl\src\lv_draw\../lv_core/../lv_misc/lv_color.h **** #define LV_OPA_MIN 16  /*Opacities below this will be transparent*/
  79:..\..\..\lvgl\version_6.1.2\lvgl\src\lv_draw\../lv_core/../lv_misc/lv_color.h **** #define LV_OPA_MAX 251 /*Opacities above this will fully cover*/
  80:..\..\..\lvgl\version_6.1.2\lvgl\src\lv_draw\../lv_core/../lv_misc/lv_color.h **** 
  81:..\..\..\lvgl\version_6.1.2\lvgl\src\lv_draw\../lv_core/../lv_misc/lv_color.h **** #if LV_COLOR_DEPTH == 1
  82:..\..\..\lvgl\version_6.1.2\lvgl\src\lv_draw\../lv_core/../lv_misc/lv_color.h **** #define LV_COLOR_SIZE 8
  83:..\..\..\lvgl\version_6.1.2\lvgl\src\lv_draw\../lv_core/../lv_misc/lv_color.h **** #elif LV_COLOR_DEPTH == 8
  84:..\..\..\lvgl\version_6.1.2\lvgl\src\lv_draw\../lv_core/../lv_misc/lv_color.h **** #define LV_COLOR_SIZE 8
  85:..\..\..\lvgl\version_6.1.2\lvgl\src\lv_draw\../lv_core/../lv_misc/lv_color.h **** #elif LV_COLOR_DEPTH == 16
  86:..\..\..\lvgl\version_6.1.2\lvgl\src\lv_draw\../lv_core/../lv_misc/lv_color.h **** #define LV_COLOR_SIZE 16
  87:..\..\..\lvgl\version_6.1.2\lvgl\src\lv_draw\../lv_core/../lv_misc/lv_color.h **** #elif LV_COLOR_DEPTH == 32
  88:..\..\..\lvgl\version_6.1.2\lvgl\src\lv_draw\../lv_core/../lv_misc/lv_color.h **** #define LV_COLOR_SIZE 32
  89:..\..\..\lvgl\version_6.1.2\lvgl\src\lv_draw\../lv_core/../lv_misc/lv_color.h **** #else
  90:..\..\..\lvgl\version_6.1.2\lvgl\src\lv_draw\../lv_core/../lv_misc/lv_color.h **** #error "Invalid LV_COLOR_DEPTH in lv_conf.h! Set it to 1, 8, 16 or 32!"
  91:..\..\..\lvgl\version_6.1.2\lvgl\src\lv_draw\../lv_core/../lv_misc/lv_color.h **** #endif
  92:..\..\..\lvgl\version_6.1.2\lvgl\src\lv_draw\../lv_core/../lv_misc/lv_color.h **** 
  93:..\..\..\lvgl\version_6.1.2\lvgl\src\lv_draw\../lv_core/../lv_misc/lv_color.h **** /*---------------------------------------
ARM GAS  C:\Users\tmj32\AppData\Local\Temp\ccHxR1NV.s 			page 6


  94:..\..\..\lvgl\version_6.1.2\lvgl\src\lv_draw\../lv_core/../lv_misc/lv_color.h ****  * Macros for all existing  color depths
  95:..\..\..\lvgl\version_6.1.2\lvgl\src\lv_draw\../lv_core/../lv_misc/lv_color.h ****  * to set/get values of the color channels
  96:..\..\..\lvgl\version_6.1.2\lvgl\src\lv_draw\../lv_core/../lv_misc/lv_color.h ****  *------------------------------------------*/
  97:..\..\..\lvgl\version_6.1.2\lvgl\src\lv_draw\../lv_core/../lv_misc/lv_color.h **** # define LV_COLOR_SET_R1(c, v) (c).ch.red = (uint8_t)((v) & 0x1);
  98:..\..\..\lvgl\version_6.1.2\lvgl\src\lv_draw\../lv_core/../lv_misc/lv_color.h **** # define LV_COLOR_SET_G1(c, v) (c).ch.green = (uint8_t)((v) & 0x1);
  99:..\..\..\lvgl\version_6.1.2\lvgl\src\lv_draw\../lv_core/../lv_misc/lv_color.h **** # define LV_COLOR_SET_B1(c, v) (c).ch.blue = (uint8_t)((v) & 0x1);
 100:..\..\..\lvgl\version_6.1.2\lvgl\src\lv_draw\../lv_core/../lv_misc/lv_color.h **** # define LV_COLOR_SET_A1(c, v)
 101:..\..\..\lvgl\version_6.1.2\lvgl\src\lv_draw\../lv_core/../lv_misc/lv_color.h **** 
 102:..\..\..\lvgl\version_6.1.2\lvgl\src\lv_draw\../lv_core/../lv_misc/lv_color.h **** # define LV_COLOR_GET_R1(c) (c).ch.red
 103:..\..\..\lvgl\version_6.1.2\lvgl\src\lv_draw\../lv_core/../lv_misc/lv_color.h **** # define LV_COLOR_GET_G1(c) (c).ch.green
 104:..\..\..\lvgl\version_6.1.2\lvgl\src\lv_draw\../lv_core/../lv_misc/lv_color.h **** # define LV_COLOR_GET_B1(c) (c).ch.blue
 105:..\..\..\lvgl\version_6.1.2\lvgl\src\lv_draw\../lv_core/../lv_misc/lv_color.h **** # define LV_COLOR_GET_A1(c) 1
 106:..\..\..\lvgl\version_6.1.2\lvgl\src\lv_draw\../lv_core/../lv_misc/lv_color.h **** 
 107:..\..\..\lvgl\version_6.1.2\lvgl\src\lv_draw\../lv_core/../lv_misc/lv_color.h **** # define LV_COLOR_SET_R8(c, v) (c).ch.red = (uint8_t)(v) & 0x7U;
 108:..\..\..\lvgl\version_6.1.2\lvgl\src\lv_draw\../lv_core/../lv_misc/lv_color.h **** # define LV_COLOR_SET_G8(c, v) (c).ch.green = (uint8_t)(v) & 0x7U;
 109:..\..\..\lvgl\version_6.1.2\lvgl\src\lv_draw\../lv_core/../lv_misc/lv_color.h **** # define LV_COLOR_SET_B8(c, v) (c).ch.blue = (uint8_t)(v) & 0x3U;
 110:..\..\..\lvgl\version_6.1.2\lvgl\src\lv_draw\../lv_core/../lv_misc/lv_color.h **** # define LV_COLOR_SET_A8(c, v) do {} while(0)
 111:..\..\..\lvgl\version_6.1.2\lvgl\src\lv_draw\../lv_core/../lv_misc/lv_color.h **** 
 112:..\..\..\lvgl\version_6.1.2\lvgl\src\lv_draw\../lv_core/../lv_misc/lv_color.h **** # define LV_COLOR_GET_R8(c) (c).ch.red
 113:..\..\..\lvgl\version_6.1.2\lvgl\src\lv_draw\../lv_core/../lv_misc/lv_color.h **** # define LV_COLOR_GET_G8(c) (c).ch.green
 114:..\..\..\lvgl\version_6.1.2\lvgl\src\lv_draw\../lv_core/../lv_misc/lv_color.h **** # define LV_COLOR_GET_B8(c) (c).ch.blue
 115:..\..\..\lvgl\version_6.1.2\lvgl\src\lv_draw\../lv_core/../lv_misc/lv_color.h **** # define LV_COLOR_GET_A8(c) 0xFF
 116:..\..\..\lvgl\version_6.1.2\lvgl\src\lv_draw\../lv_core/../lv_misc/lv_color.h **** 
 117:..\..\..\lvgl\version_6.1.2\lvgl\src\lv_draw\../lv_core/../lv_misc/lv_color.h **** # define LV_COLOR_SET_R16(c, v) (c).ch.red = (uint8_t)(v) & 0x1FU;
 118:..\..\..\lvgl\version_6.1.2\lvgl\src\lv_draw\../lv_core/../lv_misc/lv_color.h **** # define LV_COLOR_SET_G16(c, v) (c).ch.green = (uint8_t)(v) & 0x3FU;
 119:..\..\..\lvgl\version_6.1.2\lvgl\src\lv_draw\../lv_core/../lv_misc/lv_color.h **** # define LV_COLOR_SET_G16_SWAP(c, v) {(c).ch.green_h = (uint8_t)(((v) >> 3) & 0x7); (c).ch.green_l 
 120:..\..\..\lvgl\version_6.1.2\lvgl\src\lv_draw\../lv_core/../lv_misc/lv_color.h **** # define LV_COLOR_SET_B16(c, v) (c).ch.blue = (uint8_t)(v) & 0x1FU;
 121:..\..\..\lvgl\version_6.1.2\lvgl\src\lv_draw\../lv_core/../lv_misc/lv_color.h **** # define LV_COLOR_SET_A16(c, v) do {} while(0)
 122:..\..\..\lvgl\version_6.1.2\lvgl\src\lv_draw\../lv_core/../lv_misc/lv_color.h **** 
 123:..\..\..\lvgl\version_6.1.2\lvgl\src\lv_draw\../lv_core/../lv_misc/lv_color.h **** # define LV_COLOR_GET_R16(c) (c).ch.red
 124:..\..\..\lvgl\version_6.1.2\lvgl\src\lv_draw\../lv_core/../lv_misc/lv_color.h **** # define LV_COLOR_GET_G16(c) (c).ch.green
 125:..\..\..\lvgl\version_6.1.2\lvgl\src\lv_draw\../lv_core/../lv_misc/lv_color.h **** # define LV_COLOR_GET_G16_SWAP(c) (((c).ch.green_h << 3) + (c).ch.green_l)
 126:..\..\..\lvgl\version_6.1.2\lvgl\src\lv_draw\../lv_core/../lv_misc/lv_color.h **** # define LV_COLOR_GET_B16(c) (c).ch.blue
 127:..\..\..\lvgl\version_6.1.2\lvgl\src\lv_draw\../lv_core/../lv_misc/lv_color.h **** # define LV_COLOR_GET_A16(c) 0xFF
 128:..\..\..\lvgl\version_6.1.2\lvgl\src\lv_draw\../lv_core/../lv_misc/lv_color.h **** 
 129:..\..\..\lvgl\version_6.1.2\lvgl\src\lv_draw\../lv_core/../lv_misc/lv_color.h **** # define LV_COLOR_SET_R32(c, v) (c).ch.red = (uint32_t)((v) & 0xFF);
 130:..\..\..\lvgl\version_6.1.2\lvgl\src\lv_draw\../lv_core/../lv_misc/lv_color.h **** # define LV_COLOR_SET_G32(c, v) (c).ch.green = (uint32_t)((v) & 0xFF);
 131:..\..\..\lvgl\version_6.1.2\lvgl\src\lv_draw\../lv_core/../lv_misc/lv_color.h **** # define LV_COLOR_SET_B32(c, v) (c).ch.blue = (uint32_t)((v) & 0xFF);
 132:..\..\..\lvgl\version_6.1.2\lvgl\src\lv_draw\../lv_core/../lv_misc/lv_color.h **** # define LV_COLOR_SET_A32(c, v) (c).ch.alpha = (uint32_t)((v) & 0xFF);
 133:..\..\..\lvgl\version_6.1.2\lvgl\src\lv_draw\../lv_core/../lv_misc/lv_color.h **** 
 134:..\..\..\lvgl\version_6.1.2\lvgl\src\lv_draw\../lv_core/../lv_misc/lv_color.h **** # define LV_COLOR_GET_R32(c) (c).ch.red
 135:..\..\..\lvgl\version_6.1.2\lvgl\src\lv_draw\../lv_core/../lv_misc/lv_color.h **** # define LV_COLOR_GET_G32(c) (c).ch.green
 136:..\..\..\lvgl\version_6.1.2\lvgl\src\lv_draw\../lv_core/../lv_misc/lv_color.h **** # define LV_COLOR_GET_B32(c) (c).ch.blue
 137:..\..\..\lvgl\version_6.1.2\lvgl\src\lv_draw\../lv_core/../lv_misc/lv_color.h **** # define LV_COLOR_GET_A32(c) (c).ch.alpha
 138:..\..\..\lvgl\version_6.1.2\lvgl\src\lv_draw\../lv_core/../lv_misc/lv_color.h **** 
 139:..\..\..\lvgl\version_6.1.2\lvgl\src\lv_draw\../lv_core/../lv_misc/lv_color.h **** 
 140:..\..\..\lvgl\version_6.1.2\lvgl\src\lv_draw\../lv_core/../lv_misc/lv_color.h **** /*---------------------------------------
 141:..\..\..\lvgl\version_6.1.2\lvgl\src\lv_draw\../lv_core/../lv_misc/lv_color.h ****  * Macros for the current color depth
 142:..\..\..\lvgl\version_6.1.2\lvgl\src\lv_draw\../lv_core/../lv_misc/lv_color.h ****  * to set/get values of the color channels
 143:..\..\..\lvgl\version_6.1.2\lvgl\src\lv_draw\../lv_core/../lv_misc/lv_color.h ****  *------------------------------------------*/
 144:..\..\..\lvgl\version_6.1.2\lvgl\src\lv_draw\../lv_core/../lv_misc/lv_color.h **** #if LV_COLOR_DEPTH == 1
 145:..\..\..\lvgl\version_6.1.2\lvgl\src\lv_draw\../lv_core/../lv_misc/lv_color.h **** # define LV_COLOR_SET_R(c, v) LV_COLOR_SET_R1(c,v)
 146:..\..\..\lvgl\version_6.1.2\lvgl\src\lv_draw\../lv_core/../lv_misc/lv_color.h **** # define LV_COLOR_SET_G(c, v) LV_COLOR_SET_G1(c,v)
 147:..\..\..\lvgl\version_6.1.2\lvgl\src\lv_draw\../lv_core/../lv_misc/lv_color.h **** # define LV_COLOR_SET_B(c, v) LV_COLOR_SET_B1(c,v)
 148:..\..\..\lvgl\version_6.1.2\lvgl\src\lv_draw\../lv_core/../lv_misc/lv_color.h **** # define LV_COLOR_SET_A(c, v) LV_COLOR_SET_A1(c,v)
 149:..\..\..\lvgl\version_6.1.2\lvgl\src\lv_draw\../lv_core/../lv_misc/lv_color.h **** 
 150:..\..\..\lvgl\version_6.1.2\lvgl\src\lv_draw\../lv_core/../lv_misc/lv_color.h **** # define LV_COLOR_GET_R(c) LV_COLOR_GET_R1(c)
ARM GAS  C:\Users\tmj32\AppData\Local\Temp\ccHxR1NV.s 			page 7


 151:..\..\..\lvgl\version_6.1.2\lvgl\src\lv_draw\../lv_core/../lv_misc/lv_color.h **** # define LV_COLOR_GET_G(c) LV_COLOR_GET_G1(c)
 152:..\..\..\lvgl\version_6.1.2\lvgl\src\lv_draw\../lv_core/../lv_misc/lv_color.h **** # define LV_COLOR_GET_B(c) LV_COLOR_GET_B1(c)
 153:..\..\..\lvgl\version_6.1.2\lvgl\src\lv_draw\../lv_core/../lv_misc/lv_color.h **** # define LV_COLOR_GET_A(c) LV_COLOR_GET_A1(c)
 154:..\..\..\lvgl\version_6.1.2\lvgl\src\lv_draw\../lv_core/../lv_misc/lv_color.h **** 
 155:..\..\..\lvgl\version_6.1.2\lvgl\src\lv_draw\../lv_core/../lv_misc/lv_color.h **** #elif LV_COLOR_DEPTH == 8
 156:..\..\..\lvgl\version_6.1.2\lvgl\src\lv_draw\../lv_core/../lv_misc/lv_color.h **** # define LV_COLOR_SET_R(c, v) LV_COLOR_SET_R8(c,v)
 157:..\..\..\lvgl\version_6.1.2\lvgl\src\lv_draw\../lv_core/../lv_misc/lv_color.h **** # define LV_COLOR_SET_G(c, v) LV_COLOR_SET_G8(c,v)
 158:..\..\..\lvgl\version_6.1.2\lvgl\src\lv_draw\../lv_core/../lv_misc/lv_color.h **** # define LV_COLOR_SET_B(c, v) LV_COLOR_SET_B8(c,v)
 159:..\..\..\lvgl\version_6.1.2\lvgl\src\lv_draw\../lv_core/../lv_misc/lv_color.h **** # define LV_COLOR_SET_A(c, v) LV_COLOR_SET_A8(c,v)
 160:..\..\..\lvgl\version_6.1.2\lvgl\src\lv_draw\../lv_core/../lv_misc/lv_color.h **** 
 161:..\..\..\lvgl\version_6.1.2\lvgl\src\lv_draw\../lv_core/../lv_misc/lv_color.h **** # define LV_COLOR_GET_R(c) LV_COLOR_GET_R8(c)
 162:..\..\..\lvgl\version_6.1.2\lvgl\src\lv_draw\../lv_core/../lv_misc/lv_color.h **** # define LV_COLOR_GET_G(c) LV_COLOR_GET_G8(c)
 163:..\..\..\lvgl\version_6.1.2\lvgl\src\lv_draw\../lv_core/../lv_misc/lv_color.h **** # define LV_COLOR_GET_B(c) LV_COLOR_GET_B8(c)
 164:..\..\..\lvgl\version_6.1.2\lvgl\src\lv_draw\../lv_core/../lv_misc/lv_color.h **** # define LV_COLOR_GET_A(c) LV_COLOR_GET_A8(c)
 165:..\..\..\lvgl\version_6.1.2\lvgl\src\lv_draw\../lv_core/../lv_misc/lv_color.h **** 
 166:..\..\..\lvgl\version_6.1.2\lvgl\src\lv_draw\../lv_core/../lv_misc/lv_color.h **** #elif LV_COLOR_DEPTH == 16
 167:..\..\..\lvgl\version_6.1.2\lvgl\src\lv_draw\../lv_core/../lv_misc/lv_color.h **** # define LV_COLOR_SET_R(c, v) LV_COLOR_SET_R16(c,v)
 168:..\..\..\lvgl\version_6.1.2\lvgl\src\lv_draw\../lv_core/../lv_misc/lv_color.h **** # if LV_COLOR_16_SWAP == 0
 169:..\..\..\lvgl\version_6.1.2\lvgl\src\lv_draw\../lv_core/../lv_misc/lv_color.h **** #   define LV_COLOR_SET_G(c, v) LV_COLOR_SET_G16(c,v)
 170:..\..\..\lvgl\version_6.1.2\lvgl\src\lv_draw\../lv_core/../lv_misc/lv_color.h **** # else
 171:..\..\..\lvgl\version_6.1.2\lvgl\src\lv_draw\../lv_core/../lv_misc/lv_color.h **** #   define LV_COLOR_SET_G(c, v) LV_COLOR_SET_G16_SWAP(c,v)
 172:..\..\..\lvgl\version_6.1.2\lvgl\src\lv_draw\../lv_core/../lv_misc/lv_color.h **** # endif
 173:..\..\..\lvgl\version_6.1.2\lvgl\src\lv_draw\../lv_core/../lv_misc/lv_color.h **** # define LV_COLOR_SET_B(c, v) LV_COLOR_SET_B16(c,v)
 174:..\..\..\lvgl\version_6.1.2\lvgl\src\lv_draw\../lv_core/../lv_misc/lv_color.h **** # define LV_COLOR_SET_A(c, v) LV_COLOR_SET_A16(c,v)
 175:..\..\..\lvgl\version_6.1.2\lvgl\src\lv_draw\../lv_core/../lv_misc/lv_color.h **** 
 176:..\..\..\lvgl\version_6.1.2\lvgl\src\lv_draw\../lv_core/../lv_misc/lv_color.h **** # define LV_COLOR_GET_R(c) LV_COLOR_GET_R16(c)
 177:..\..\..\lvgl\version_6.1.2\lvgl\src\lv_draw\../lv_core/../lv_misc/lv_color.h **** # if LV_COLOR_16_SWAP == 0
 178:..\..\..\lvgl\version_6.1.2\lvgl\src\lv_draw\../lv_core/../lv_misc/lv_color.h **** #   define LV_COLOR_GET_G(c) LV_COLOR_GET_G16(c)
 179:..\..\..\lvgl\version_6.1.2\lvgl\src\lv_draw\../lv_core/../lv_misc/lv_color.h **** # else
 180:..\..\..\lvgl\version_6.1.2\lvgl\src\lv_draw\../lv_core/../lv_misc/lv_color.h **** #   define LV_COLOR_GET_G(c) LV_COLOR_GET_G16_SWAP(c)
 181:..\..\..\lvgl\version_6.1.2\lvgl\src\lv_draw\../lv_core/../lv_misc/lv_color.h **** # endif
 182:..\..\..\lvgl\version_6.1.2\lvgl\src\lv_draw\../lv_core/../lv_misc/lv_color.h **** # define LV_COLOR_GET_B(c)   LV_COLOR_GET_B16(c)
 183:..\..\..\lvgl\version_6.1.2\lvgl\src\lv_draw\../lv_core/../lv_misc/lv_color.h **** # define LV_COLOR_GET_A(c)   LV_COLOR_GET_A16(c)
 184:..\..\..\lvgl\version_6.1.2\lvgl\src\lv_draw\../lv_core/../lv_misc/lv_color.h **** 
 185:..\..\..\lvgl\version_6.1.2\lvgl\src\lv_draw\../lv_core/../lv_misc/lv_color.h **** #elif LV_COLOR_DEPTH == 32
 186:..\..\..\lvgl\version_6.1.2\lvgl\src\lv_draw\../lv_core/../lv_misc/lv_color.h **** # define LV_COLOR_SET_R(c, v) LV_COLOR_SET_R32(c,v)
 187:..\..\..\lvgl\version_6.1.2\lvgl\src\lv_draw\../lv_core/../lv_misc/lv_color.h **** # define LV_COLOR_SET_G(c, v) LV_COLOR_SET_G32(c,v)
 188:..\..\..\lvgl\version_6.1.2\lvgl\src\lv_draw\../lv_core/../lv_misc/lv_color.h **** # define LV_COLOR_SET_B(c, v) LV_COLOR_SET_B32(c,v)
 189:..\..\..\lvgl\version_6.1.2\lvgl\src\lv_draw\../lv_core/../lv_misc/lv_color.h **** # define LV_COLOR_SET_A(c, v) LV_COLOR_SET_A32(c,v)
 190:..\..\..\lvgl\version_6.1.2\lvgl\src\lv_draw\../lv_core/../lv_misc/lv_color.h **** 
 191:..\..\..\lvgl\version_6.1.2\lvgl\src\lv_draw\../lv_core/../lv_misc/lv_color.h **** # define LV_COLOR_GET_R(c) LV_COLOR_GET_R32(c)
 192:..\..\..\lvgl\version_6.1.2\lvgl\src\lv_draw\../lv_core/../lv_misc/lv_color.h **** # define LV_COLOR_GET_G(c) LV_COLOR_GET_G32(c)
 193:..\..\..\lvgl\version_6.1.2\lvgl\src\lv_draw\../lv_core/../lv_misc/lv_color.h **** # define LV_COLOR_GET_B(c) LV_COLOR_GET_B32(c)
 194:..\..\..\lvgl\version_6.1.2\lvgl\src\lv_draw\../lv_core/../lv_misc/lv_color.h **** # define LV_COLOR_GET_A(c) LV_COLOR_GET_A32(c)
 195:..\..\..\lvgl\version_6.1.2\lvgl\src\lv_draw\../lv_core/../lv_misc/lv_color.h **** #endif
 196:..\..\..\lvgl\version_6.1.2\lvgl\src\lv_draw\../lv_core/../lv_misc/lv_color.h **** 
 197:..\..\..\lvgl\version_6.1.2\lvgl\src\lv_draw\../lv_core/../lv_misc/lv_color.h **** /**********************
 198:..\..\..\lvgl\version_6.1.2\lvgl\src\lv_draw\../lv_core/../lv_misc/lv_color.h ****  *      TYPEDEFS
 199:..\..\..\lvgl\version_6.1.2\lvgl\src\lv_draw\../lv_core/../lv_misc/lv_color.h ****  **********************/
 200:..\..\..\lvgl\version_6.1.2\lvgl\src\lv_draw\../lv_core/../lv_misc/lv_color.h **** 
 201:..\..\..\lvgl\version_6.1.2\lvgl\src\lv_draw\../lv_core/../lv_misc/lv_color.h **** typedef union
 202:..\..\..\lvgl\version_6.1.2\lvgl\src\lv_draw\../lv_core/../lv_misc/lv_color.h **** {
 203:..\..\..\lvgl\version_6.1.2\lvgl\src\lv_draw\../lv_core/../lv_misc/lv_color.h ****     struct
 204:..\..\..\lvgl\version_6.1.2\lvgl\src\lv_draw\../lv_core/../lv_misc/lv_color.h ****     {
 205:..\..\..\lvgl\version_6.1.2\lvgl\src\lv_draw\../lv_core/../lv_misc/lv_color.h ****         uint8_t blue : 1;
 206:..\..\..\lvgl\version_6.1.2\lvgl\src\lv_draw\../lv_core/../lv_misc/lv_color.h ****         uint8_t green : 1;
 207:..\..\..\lvgl\version_6.1.2\lvgl\src\lv_draw\../lv_core/../lv_misc/lv_color.h ****         uint8_t red : 1;
ARM GAS  C:\Users\tmj32\AppData\Local\Temp\ccHxR1NV.s 			page 8


 208:..\..\..\lvgl\version_6.1.2\lvgl\src\lv_draw\../lv_core/../lv_misc/lv_color.h ****     } ch;
 209:..\..\..\lvgl\version_6.1.2\lvgl\src\lv_draw\../lv_core/../lv_misc/lv_color.h ****     uint8_t full;
 210:..\..\..\lvgl\version_6.1.2\lvgl\src\lv_draw\../lv_core/../lv_misc/lv_color.h **** } lv_color1_t;
 211:..\..\..\lvgl\version_6.1.2\lvgl\src\lv_draw\../lv_core/../lv_misc/lv_color.h **** 
 212:..\..\..\lvgl\version_6.1.2\lvgl\src\lv_draw\../lv_core/../lv_misc/lv_color.h **** typedef union
 213:..\..\..\lvgl\version_6.1.2\lvgl\src\lv_draw\../lv_core/../lv_misc/lv_color.h **** {
 214:..\..\..\lvgl\version_6.1.2\lvgl\src\lv_draw\../lv_core/../lv_misc/lv_color.h ****     struct
 215:..\..\..\lvgl\version_6.1.2\lvgl\src\lv_draw\../lv_core/../lv_misc/lv_color.h ****     {
 216:..\..\..\lvgl\version_6.1.2\lvgl\src\lv_draw\../lv_core/../lv_misc/lv_color.h ****         uint8_t blue : 2;
 217:..\..\..\lvgl\version_6.1.2\lvgl\src\lv_draw\../lv_core/../lv_misc/lv_color.h ****         uint8_t green : 3;
 218:..\..\..\lvgl\version_6.1.2\lvgl\src\lv_draw\../lv_core/../lv_misc/lv_color.h ****         uint8_t red : 3;
 219:..\..\..\lvgl\version_6.1.2\lvgl\src\lv_draw\../lv_core/../lv_misc/lv_color.h ****     } ch;
 220:..\..\..\lvgl\version_6.1.2\lvgl\src\lv_draw\../lv_core/../lv_misc/lv_color.h ****     uint8_t full;
 221:..\..\..\lvgl\version_6.1.2\lvgl\src\lv_draw\../lv_core/../lv_misc/lv_color.h **** } lv_color8_t;
 222:..\..\..\lvgl\version_6.1.2\lvgl\src\lv_draw\../lv_core/../lv_misc/lv_color.h **** 
 223:..\..\..\lvgl\version_6.1.2\lvgl\src\lv_draw\../lv_core/../lv_misc/lv_color.h **** typedef union
 224:..\..\..\lvgl\version_6.1.2\lvgl\src\lv_draw\../lv_core/../lv_misc/lv_color.h **** {
 225:..\..\..\lvgl\version_6.1.2\lvgl\src\lv_draw\../lv_core/../lv_misc/lv_color.h ****     struct
 226:..\..\..\lvgl\version_6.1.2\lvgl\src\lv_draw\../lv_core/../lv_misc/lv_color.h ****     {
 227:..\..\..\lvgl\version_6.1.2\lvgl\src\lv_draw\../lv_core/../lv_misc/lv_color.h **** #if LV_COLOR_16_SWAP == 0
 228:..\..\..\lvgl\version_6.1.2\lvgl\src\lv_draw\../lv_core/../lv_misc/lv_color.h ****         uint16_t blue : 5;
 229:..\..\..\lvgl\version_6.1.2\lvgl\src\lv_draw\../lv_core/../lv_misc/lv_color.h ****         uint16_t green : 6;
 230:..\..\..\lvgl\version_6.1.2\lvgl\src\lv_draw\../lv_core/../lv_misc/lv_color.h ****         uint16_t red : 5;
 231:..\..\..\lvgl\version_6.1.2\lvgl\src\lv_draw\../lv_core/../lv_misc/lv_color.h **** #else
 232:..\..\..\lvgl\version_6.1.2\lvgl\src\lv_draw\../lv_core/../lv_misc/lv_color.h ****         uint16_t green_h : 3;
 233:..\..\..\lvgl\version_6.1.2\lvgl\src\lv_draw\../lv_core/../lv_misc/lv_color.h ****         uint16_t red : 5;
 234:..\..\..\lvgl\version_6.1.2\lvgl\src\lv_draw\../lv_core/../lv_misc/lv_color.h ****         uint16_t blue : 5;
 235:..\..\..\lvgl\version_6.1.2\lvgl\src\lv_draw\../lv_core/../lv_misc/lv_color.h ****         uint16_t green_l : 3;
 236:..\..\..\lvgl\version_6.1.2\lvgl\src\lv_draw\../lv_core/../lv_misc/lv_color.h **** #endif
 237:..\..\..\lvgl\version_6.1.2\lvgl\src\lv_draw\../lv_core/../lv_misc/lv_color.h ****     } ch;
 238:..\..\..\lvgl\version_6.1.2\lvgl\src\lv_draw\../lv_core/../lv_misc/lv_color.h ****     uint16_t full;
 239:..\..\..\lvgl\version_6.1.2\lvgl\src\lv_draw\../lv_core/../lv_misc/lv_color.h **** } lv_color16_t;
 240:..\..\..\lvgl\version_6.1.2\lvgl\src\lv_draw\../lv_core/../lv_misc/lv_color.h **** 
 241:..\..\..\lvgl\version_6.1.2\lvgl\src\lv_draw\../lv_core/../lv_misc/lv_color.h **** typedef union
 242:..\..\..\lvgl\version_6.1.2\lvgl\src\lv_draw\../lv_core/../lv_misc/lv_color.h **** {
 243:..\..\..\lvgl\version_6.1.2\lvgl\src\lv_draw\../lv_core/../lv_misc/lv_color.h ****     struct
 244:..\..\..\lvgl\version_6.1.2\lvgl\src\lv_draw\../lv_core/../lv_misc/lv_color.h ****     {
 245:..\..\..\lvgl\version_6.1.2\lvgl\src\lv_draw\../lv_core/../lv_misc/lv_color.h ****         uint8_t blue;
 246:..\..\..\lvgl\version_6.1.2\lvgl\src\lv_draw\../lv_core/../lv_misc/lv_color.h ****         uint8_t green;
 247:..\..\..\lvgl\version_6.1.2\lvgl\src\lv_draw\../lv_core/../lv_misc/lv_color.h ****         uint8_t red;
 248:..\..\..\lvgl\version_6.1.2\lvgl\src\lv_draw\../lv_core/../lv_misc/lv_color.h ****         uint8_t alpha;
 249:..\..\..\lvgl\version_6.1.2\lvgl\src\lv_draw\../lv_core/../lv_misc/lv_color.h ****     } ch;
 250:..\..\..\lvgl\version_6.1.2\lvgl\src\lv_draw\../lv_core/../lv_misc/lv_color.h ****     uint32_t full;
 251:..\..\..\lvgl\version_6.1.2\lvgl\src\lv_draw\../lv_core/../lv_misc/lv_color.h **** } lv_color32_t;
 252:..\..\..\lvgl\version_6.1.2\lvgl\src\lv_draw\../lv_core/../lv_misc/lv_color.h **** 
 253:..\..\..\lvgl\version_6.1.2\lvgl\src\lv_draw\../lv_core/../lv_misc/lv_color.h **** #if LV_COLOR_DEPTH == 1
 254:..\..\..\lvgl\version_6.1.2\lvgl\src\lv_draw\../lv_core/../lv_misc/lv_color.h **** typedef uint8_t lv_color_int_t;
 255:..\..\..\lvgl\version_6.1.2\lvgl\src\lv_draw\../lv_core/../lv_misc/lv_color.h **** typedef lv_color1_t lv_color_t;
 256:..\..\..\lvgl\version_6.1.2\lvgl\src\lv_draw\../lv_core/../lv_misc/lv_color.h **** #elif LV_COLOR_DEPTH == 8
 257:..\..\..\lvgl\version_6.1.2\lvgl\src\lv_draw\../lv_core/../lv_misc/lv_color.h **** typedef uint8_t lv_color_int_t;
 258:..\..\..\lvgl\version_6.1.2\lvgl\src\lv_draw\../lv_core/../lv_misc/lv_color.h **** typedef lv_color8_t lv_color_t;
 259:..\..\..\lvgl\version_6.1.2\lvgl\src\lv_draw\../lv_core/../lv_misc/lv_color.h **** #elif LV_COLOR_DEPTH == 16
 260:..\..\..\lvgl\version_6.1.2\lvgl\src\lv_draw\../lv_core/../lv_misc/lv_color.h **** typedef uint16_t lv_color_int_t;
 261:..\..\..\lvgl\version_6.1.2\lvgl\src\lv_draw\../lv_core/../lv_misc/lv_color.h **** typedef lv_color16_t lv_color_t;
 262:..\..\..\lvgl\version_6.1.2\lvgl\src\lv_draw\../lv_core/../lv_misc/lv_color.h **** #elif LV_COLOR_DEPTH == 32
 263:..\..\..\lvgl\version_6.1.2\lvgl\src\lv_draw\../lv_core/../lv_misc/lv_color.h **** typedef uint32_t lv_color_int_t;
 264:..\..\..\lvgl\version_6.1.2\lvgl\src\lv_draw\../lv_core/../lv_misc/lv_color.h **** typedef lv_color32_t lv_color_t;
ARM GAS  C:\Users\tmj32\AppData\Local\Temp\ccHxR1NV.s 			page 9


 265:..\..\..\lvgl\version_6.1.2\lvgl\src\lv_draw\../lv_core/../lv_misc/lv_color.h **** #else
 266:..\..\..\lvgl\version_6.1.2\lvgl\src\lv_draw\../lv_core/../lv_misc/lv_color.h **** #error "Invalid LV_COLOR_DEPTH in lv_conf.h! Set it to 1, 8, 16 or 32!"
 267:..\..\..\lvgl\version_6.1.2\lvgl\src\lv_draw\../lv_core/../lv_misc/lv_color.h **** #endif
 268:..\..\..\lvgl\version_6.1.2\lvgl\src\lv_draw\../lv_core/../lv_misc/lv_color.h **** 
 269:..\..\..\lvgl\version_6.1.2\lvgl\src\lv_draw\../lv_core/../lv_misc/lv_color.h **** typedef uint8_t lv_opa_t;
 270:..\..\..\lvgl\version_6.1.2\lvgl\src\lv_draw\../lv_core/../lv_misc/lv_color.h **** 
 271:..\..\..\lvgl\version_6.1.2\lvgl\src\lv_draw\../lv_core/../lv_misc/lv_color.h **** typedef struct
 272:..\..\..\lvgl\version_6.1.2\lvgl\src\lv_draw\../lv_core/../lv_misc/lv_color.h **** {
 273:..\..\..\lvgl\version_6.1.2\lvgl\src\lv_draw\../lv_core/../lv_misc/lv_color.h ****     uint16_t h;
 274:..\..\..\lvgl\version_6.1.2\lvgl\src\lv_draw\../lv_core/../lv_misc/lv_color.h ****     uint8_t s;
 275:..\..\..\lvgl\version_6.1.2\lvgl\src\lv_draw\../lv_core/../lv_misc/lv_color.h ****     uint8_t v;
 276:..\..\..\lvgl\version_6.1.2\lvgl\src\lv_draw\../lv_core/../lv_misc/lv_color.h **** } lv_color_hsv_t;
 277:..\..\..\lvgl\version_6.1.2\lvgl\src\lv_draw\../lv_core/../lv_misc/lv_color.h **** 
 278:..\..\..\lvgl\version_6.1.2\lvgl\src\lv_draw\../lv_core/../lv_misc/lv_color.h **** /**********************
 279:..\..\..\lvgl\version_6.1.2\lvgl\src\lv_draw\../lv_core/../lv_misc/lv_color.h ****  * GLOBAL PROTOTYPES
 280:..\..\..\lvgl\version_6.1.2\lvgl\src\lv_draw\../lv_core/../lv_misc/lv_color.h ****  **********************/
 281:..\..\..\lvgl\version_6.1.2\lvgl\src\lv_draw\../lv_core/../lv_misc/lv_color.h **** 
 282:..\..\..\lvgl\version_6.1.2\lvgl\src\lv_draw\../lv_core/../lv_misc/lv_color.h **** /*In color conversations:
 283:..\..\..\lvgl\version_6.1.2\lvgl\src\lv_draw\../lv_core/../lv_misc/lv_color.h ****  * - When converting to bigger color type the LSB weight of 1 LSB is calculated
 284:..\..\..\lvgl\version_6.1.2\lvgl\src\lv_draw\../lv_core/../lv_misc/lv_color.h ****  *   E.g. 16 bit Red has 5 bits
 285:..\..\..\lvgl\version_6.1.2\lvgl\src\lv_draw\../lv_core/../lv_misc/lv_color.h ****  *         8 bit Red has 2 bits
 286:..\..\..\lvgl\version_6.1.2\lvgl\src\lv_draw\../lv_core/../lv_misc/lv_color.h ****  *        ----------------------
 287:..\..\..\lvgl\version_6.1.2\lvgl\src\lv_draw\../lv_core/../lv_misc/lv_color.h ****  *        8 bit red LSB = (2^5 - 1) / (2^2 - 1) = 31 / 3 = 10
 288:..\..\..\lvgl\version_6.1.2\lvgl\src\lv_draw\../lv_core/../lv_misc/lv_color.h ****  *
 289:..\..\..\lvgl\version_6.1.2\lvgl\src\lv_draw\../lv_core/../lv_misc/lv_color.h ****  * - When calculating to smaller color type simply shift out the LSBs
 290:..\..\..\lvgl\version_6.1.2\lvgl\src\lv_draw\../lv_core/../lv_misc/lv_color.h ****  *   E.g.  8 bit Red has 2 bits
 291:..\..\..\lvgl\version_6.1.2\lvgl\src\lv_draw\../lv_core/../lv_misc/lv_color.h ****  *        16 bit Red has 5 bits
 292:..\..\..\lvgl\version_6.1.2\lvgl\src\lv_draw\../lv_core/../lv_misc/lv_color.h ****  *        ----------------------
 293:..\..\..\lvgl\version_6.1.2\lvgl\src\lv_draw\../lv_core/../lv_misc/lv_color.h ****  *         Shift right with 5 - 3 = 2
 294:..\..\..\lvgl\version_6.1.2\lvgl\src\lv_draw\../lv_core/../lv_misc/lv_color.h ****  */
 295:..\..\..\lvgl\version_6.1.2\lvgl\src\lv_draw\../lv_core/../lv_misc/lv_color.h **** 
 296:..\..\..\lvgl\version_6.1.2\lvgl\src\lv_draw\../lv_core/../lv_misc/lv_color.h **** static inline uint8_t lv_color_to1(lv_color_t color)
 297:..\..\..\lvgl\version_6.1.2\lvgl\src\lv_draw\../lv_core/../lv_misc/lv_color.h **** {
 298:..\..\..\lvgl\version_6.1.2\lvgl\src\lv_draw\../lv_core/../lv_misc/lv_color.h **** #if LV_COLOR_DEPTH == 1
 299:..\..\..\lvgl\version_6.1.2\lvgl\src\lv_draw\../lv_core/../lv_misc/lv_color.h ****     return color.full;
 300:..\..\..\lvgl\version_6.1.2\lvgl\src\lv_draw\../lv_core/../lv_misc/lv_color.h **** #elif LV_COLOR_DEPTH == 8
 301:..\..\..\lvgl\version_6.1.2\lvgl\src\lv_draw\../lv_core/../lv_misc/lv_color.h ****     if((LV_COLOR_GET_R(color) & 0x4) || (LV_COLOR_GET_G(color) & 0x4) || (LV_COLOR_GET_B(color) & 0
 302:..\..\..\lvgl\version_6.1.2\lvgl\src\lv_draw\../lv_core/../lv_misc/lv_color.h ****         return 1;
 303:..\..\..\lvgl\version_6.1.2\lvgl\src\lv_draw\../lv_core/../lv_misc/lv_color.h ****     } else {
 304:..\..\..\lvgl\version_6.1.2\lvgl\src\lv_draw\../lv_core/../lv_misc/lv_color.h ****         return 0;
 305:..\..\..\lvgl\version_6.1.2\lvgl\src\lv_draw\../lv_core/../lv_misc/lv_color.h ****     }
 306:..\..\..\lvgl\version_6.1.2\lvgl\src\lv_draw\../lv_core/../lv_misc/lv_color.h **** #elif LV_COLOR_DEPTH == 16
 307:..\..\..\lvgl\version_6.1.2\lvgl\src\lv_draw\../lv_core/../lv_misc/lv_color.h ****     if((LV_COLOR_GET_R(color) & 0x10) || (LV_COLOR_GET_G(color) & 0x20) || (LV_COLOR_GET_B(color) &
 308:..\..\..\lvgl\version_6.1.2\lvgl\src\lv_draw\../lv_core/../lv_misc/lv_color.h ****         return 1;
 309:..\..\..\lvgl\version_6.1.2\lvgl\src\lv_draw\../lv_core/../lv_misc/lv_color.h ****     } else {
 310:..\..\..\lvgl\version_6.1.2\lvgl\src\lv_draw\../lv_core/../lv_misc/lv_color.h ****         return 0;
 311:..\..\..\lvgl\version_6.1.2\lvgl\src\lv_draw\../lv_core/../lv_misc/lv_color.h ****     }
 312:..\..\..\lvgl\version_6.1.2\lvgl\src\lv_draw\../lv_core/../lv_misc/lv_color.h **** #elif LV_COLOR_DEPTH == 32
 313:..\..\..\lvgl\version_6.1.2\lvgl\src\lv_draw\../lv_core/../lv_misc/lv_color.h ****     if((LV_COLOR_GET_R(color) & 0x80) || (LV_COLOR_GET_G(color) & 0x80) || (LV_COLOR_GET_B(color) &
 314:..\..\..\lvgl\version_6.1.2\lvgl\src\lv_draw\../lv_core/../lv_misc/lv_color.h ****         return 1;
 315:..\..\..\lvgl\version_6.1.2\lvgl\src\lv_draw\../lv_core/../lv_misc/lv_color.h ****     } else {
 316:..\..\..\lvgl\version_6.1.2\lvgl\src\lv_draw\../lv_core/../lv_misc/lv_color.h ****         return 0;
 317:..\..\..\lvgl\version_6.1.2\lvgl\src\lv_draw\../lv_core/../lv_misc/lv_color.h ****     }
 318:..\..\..\lvgl\version_6.1.2\lvgl\src\lv_draw\../lv_core/../lv_misc/lv_color.h **** #endif
 319:..\..\..\lvgl\version_6.1.2\lvgl\src\lv_draw\../lv_core/../lv_misc/lv_color.h **** }
 320:..\..\..\lvgl\version_6.1.2\lvgl\src\lv_draw\../lv_core/../lv_misc/lv_color.h **** 
 321:..\..\..\lvgl\version_6.1.2\lvgl\src\lv_draw\../lv_core/../lv_misc/lv_color.h **** static inline uint8_t lv_color_to8(lv_color_t color)
ARM GAS  C:\Users\tmj32\AppData\Local\Temp\ccHxR1NV.s 			page 10


 322:..\..\..\lvgl\version_6.1.2\lvgl\src\lv_draw\../lv_core/../lv_misc/lv_color.h **** {
 323:..\..\..\lvgl\version_6.1.2\lvgl\src\lv_draw\../lv_core/../lv_misc/lv_color.h **** #if LV_COLOR_DEPTH == 1
 324:..\..\..\lvgl\version_6.1.2\lvgl\src\lv_draw\../lv_core/../lv_misc/lv_color.h ****     if(color.full == 0)
 325:..\..\..\lvgl\version_6.1.2\lvgl\src\lv_draw\../lv_core/../lv_misc/lv_color.h ****         return 0;
 326:..\..\..\lvgl\version_6.1.2\lvgl\src\lv_draw\../lv_core/../lv_misc/lv_color.h ****     else
 327:..\..\..\lvgl\version_6.1.2\lvgl\src\lv_draw\../lv_core/../lv_misc/lv_color.h ****         return 0xFF;
 328:..\..\..\lvgl\version_6.1.2\lvgl\src\lv_draw\../lv_core/../lv_misc/lv_color.h **** #elif LV_COLOR_DEPTH == 8
 329:..\..\..\lvgl\version_6.1.2\lvgl\src\lv_draw\../lv_core/../lv_misc/lv_color.h ****     return color.full;
 330:..\..\..\lvgl\version_6.1.2\lvgl\src\lv_draw\../lv_core/../lv_misc/lv_color.h **** #elif LV_COLOR_DEPTH == 16
 331:..\..\..\lvgl\version_6.1.2\lvgl\src\lv_draw\../lv_core/../lv_misc/lv_color.h ****     lv_color8_t ret;
 332:..\..\..\lvgl\version_6.1.2\lvgl\src\lv_draw\../lv_core/../lv_misc/lv_color.h ****     LV_COLOR_SET_R8(ret, LV_COLOR_GET_R(color) >> 2);   /* 5 - 3  = 2*/
 333:..\..\..\lvgl\version_6.1.2\lvgl\src\lv_draw\../lv_core/../lv_misc/lv_color.h ****     LV_COLOR_SET_G8(ret, LV_COLOR_GET_G(color) >> 3); /* 6 - 3  = 3*/
 334:..\..\..\lvgl\version_6.1.2\lvgl\src\lv_draw\../lv_core/../lv_misc/lv_color.h ****     LV_COLOR_SET_B8(ret, LV_COLOR_GET_B(color) >> 3);  /* 5 - 2  = 3*/
 335:..\..\..\lvgl\version_6.1.2\lvgl\src\lv_draw\../lv_core/../lv_misc/lv_color.h ****     return ret.full;
 336:..\..\..\lvgl\version_6.1.2\lvgl\src\lv_draw\../lv_core/../lv_misc/lv_color.h **** #elif LV_COLOR_DEPTH == 32
 337:..\..\..\lvgl\version_6.1.2\lvgl\src\lv_draw\../lv_core/../lv_misc/lv_color.h ****     lv_color8_t ret;
 338:..\..\..\lvgl\version_6.1.2\lvgl\src\lv_draw\../lv_core/../lv_misc/lv_color.h ****     LV_COLOR_SET_R8(ret, LV_COLOR_GET_R(color) >> 5);   /* 8 - 3  = 5*/
 339:..\..\..\lvgl\version_6.1.2\lvgl\src\lv_draw\../lv_core/../lv_misc/lv_color.h ****     LV_COLOR_SET_G8(ret, LV_COLOR_GET_G(color) >> 5); /* 8 - 3  = 5*/
 340:..\..\..\lvgl\version_6.1.2\lvgl\src\lv_draw\../lv_core/../lv_misc/lv_color.h ****     LV_COLOR_SET_B8(ret, LV_COLOR_GET_B(color) >> 6);  /* 8 - 2  = 6*/
 341:..\..\..\lvgl\version_6.1.2\lvgl\src\lv_draw\../lv_core/../lv_misc/lv_color.h ****     return ret.full;
 342:..\..\..\lvgl\version_6.1.2\lvgl\src\lv_draw\../lv_core/../lv_misc/lv_color.h **** #endif
 343:..\..\..\lvgl\version_6.1.2\lvgl\src\lv_draw\../lv_core/../lv_misc/lv_color.h **** }
 344:..\..\..\lvgl\version_6.1.2\lvgl\src\lv_draw\../lv_core/../lv_misc/lv_color.h **** 
 345:..\..\..\lvgl\version_6.1.2\lvgl\src\lv_draw\../lv_core/../lv_misc/lv_color.h **** static inline uint16_t lv_color_to16(lv_color_t color)
 346:..\..\..\lvgl\version_6.1.2\lvgl\src\lv_draw\../lv_core/../lv_misc/lv_color.h **** {
 347:..\..\..\lvgl\version_6.1.2\lvgl\src\lv_draw\../lv_core/../lv_misc/lv_color.h **** #if LV_COLOR_DEPTH == 1
 348:..\..\..\lvgl\version_6.1.2\lvgl\src\lv_draw\../lv_core/../lv_misc/lv_color.h ****     if(color.full == 0)
 349:..\..\..\lvgl\version_6.1.2\lvgl\src\lv_draw\../lv_core/../lv_misc/lv_color.h ****         return 0;
 350:..\..\..\lvgl\version_6.1.2\lvgl\src\lv_draw\../lv_core/../lv_misc/lv_color.h ****     else
 351:..\..\..\lvgl\version_6.1.2\lvgl\src\lv_draw\../lv_core/../lv_misc/lv_color.h ****         return 0xFFFF;
 352:..\..\..\lvgl\version_6.1.2\lvgl\src\lv_draw\../lv_core/../lv_misc/lv_color.h **** #elif LV_COLOR_DEPTH == 8
 353:..\..\..\lvgl\version_6.1.2\lvgl\src\lv_draw\../lv_core/../lv_misc/lv_color.h ****     lv_color16_t ret;
 354:..\..\..\lvgl\version_6.1.2\lvgl\src\lv_draw\../lv_core/../lv_misc/lv_color.h ****     LV_COLOR_SET_R16(ret, LV_COLOR_GET_R(color) * 4);     /*(2^5 - 1)/(2^3 - 1) = 31/7 = 4*/
 355:..\..\..\lvgl\version_6.1.2\lvgl\src\lv_draw\../lv_core/../lv_misc/lv_color.h **** #if LV_COLOR_16_SWAP == 0
 356:..\..\..\lvgl\version_6.1.2\lvgl\src\lv_draw\../lv_core/../lv_misc/lv_color.h ****     LV_COLOR_SET_G16(ret,  LV_COLOR_GET_G(color) * 9); /*(2^6 - 1)/(2^3 - 1) = 63/7 = 9*/
 357:..\..\..\lvgl\version_6.1.2\lvgl\src\lv_draw\../lv_core/../lv_misc/lv_color.h **** #else
 358:..\..\..\lvgl\version_6.1.2\lvgl\src\lv_draw\../lv_core/../lv_misc/lv_color.h ****     LV_COLOR_SET_G16_SWAP(ret, (LV_COLOR_GET_G(color) * 9)); /*(2^6 - 1)/(2^3 - 1) = 63/7 = 9*/
 359:..\..\..\lvgl\version_6.1.2\lvgl\src\lv_draw\../lv_core/../lv_misc/lv_color.h **** #endif
 360:..\..\..\lvgl\version_6.1.2\lvgl\src\lv_draw\../lv_core/../lv_misc/lv_color.h ****     LV_COLOR_SET_B16(ret, LV_COLOR_GET_B(color) * 10);  /*(2^5 - 1)/(2^2 - 1) = 31/3 = 10*/
 361:..\..\..\lvgl\version_6.1.2\lvgl\src\lv_draw\../lv_core/../lv_misc/lv_color.h ****     return ret.full;
 362:..\..\..\lvgl\version_6.1.2\lvgl\src\lv_draw\../lv_core/../lv_misc/lv_color.h **** #elif LV_COLOR_DEPTH == 16
 363:..\..\..\lvgl\version_6.1.2\lvgl\src\lv_draw\../lv_core/../lv_misc/lv_color.h ****     return color.full;
 364:..\..\..\lvgl\version_6.1.2\lvgl\src\lv_draw\../lv_core/../lv_misc/lv_color.h **** #elif LV_COLOR_DEPTH == 32
 365:..\..\..\lvgl\version_6.1.2\lvgl\src\lv_draw\../lv_core/../lv_misc/lv_color.h ****     lv_color16_t ret;
 366:..\..\..\lvgl\version_6.1.2\lvgl\src\lv_draw\../lv_core/../lv_misc/lv_color.h ****     LV_COLOR_SET_R16(ret, LV_COLOR_GET_R(color) >> 3);   /* 8 - 5  = 3*/
 367:..\..\..\lvgl\version_6.1.2\lvgl\src\lv_draw\../lv_core/../lv_misc/lv_color.h **** 
 368:..\..\..\lvgl\version_6.1.2\lvgl\src\lv_draw\../lv_core/../lv_misc/lv_color.h **** #if LV_COLOR_16_SWAP == 0
 369:..\..\..\lvgl\version_6.1.2\lvgl\src\lv_draw\../lv_core/../lv_misc/lv_color.h ****     LV_COLOR_SET_G16(ret, LV_COLOR_GET_G(color) >> 2); /* 8 - 6  = 2*/
 370:..\..\..\lvgl\version_6.1.2\lvgl\src\lv_draw\../lv_core/../lv_misc/lv_color.h **** #else
 371:..\..\..\lvgl\version_6.1.2\lvgl\src\lv_draw\../lv_core/../lv_misc/lv_color.h ****     LV_COLOR_SET_G16_SWAP(ret, ret.ch.green_h = (LV_COLOR_GET_G(color) >> 2); /*(2^6 - 1)/(2^3 - 1)
 372:..\..\..\lvgl\version_6.1.2\lvgl\src\lv_draw\../lv_core/../lv_misc/lv_color.h **** #endif
 373:..\..\..\lvgl\version_6.1.2\lvgl\src\lv_draw\../lv_core/../lv_misc/lv_color.h ****     LV_COLOR_SET_B16(ret, LV_COLOR_GET_B(color) >> 3);  /* 8 - 5  = 3*/
 374:..\..\..\lvgl\version_6.1.2\lvgl\src\lv_draw\../lv_core/../lv_misc/lv_color.h ****     return ret.full;
 375:..\..\..\lvgl\version_6.1.2\lvgl\src\lv_draw\../lv_core/../lv_misc/lv_color.h **** #endif                         
 376:..\..\..\lvgl\version_6.1.2\lvgl\src\lv_draw\../lv_core/../lv_misc/lv_color.h **** }
 377:..\..\..\lvgl\version_6.1.2\lvgl\src\lv_draw\../lv_core/../lv_misc/lv_color.h **** 
 378:..\..\..\lvgl\version_6.1.2\lvgl\src\lv_draw\../lv_core/../lv_misc/lv_color.h **** static inline uint32_t lv_color_to32(lv_color_t color)
ARM GAS  C:\Users\tmj32\AppData\Local\Temp\ccHxR1NV.s 			page 11


 379:..\..\..\lvgl\version_6.1.2\lvgl\src\lv_draw\../lv_core/../lv_misc/lv_color.h **** {
 380:..\..\..\lvgl\version_6.1.2\lvgl\src\lv_draw\../lv_core/../lv_misc/lv_color.h **** #if LV_COLOR_DEPTH == 1
 381:..\..\..\lvgl\version_6.1.2\lvgl\src\lv_draw\../lv_core/../lv_misc/lv_color.h ****     if(color.full == 0)
 382:..\..\..\lvgl\version_6.1.2\lvgl\src\lv_draw\../lv_core/../lv_misc/lv_color.h ****         return 0;
 383:..\..\..\lvgl\version_6.1.2\lvgl\src\lv_draw\../lv_core/../lv_misc/lv_color.h ****     else
 384:..\..\..\lvgl\version_6.1.2\lvgl\src\lv_draw\../lv_core/../lv_misc/lv_color.h ****         return 0xFFFFFFFF;
 385:..\..\..\lvgl\version_6.1.2\lvgl\src\lv_draw\../lv_core/../lv_misc/lv_color.h **** #elif LV_COLOR_DEPTH == 8
 386:..\..\..\lvgl\version_6.1.2\lvgl\src\lv_draw\../lv_core/../lv_misc/lv_color.h ****     lv_color32_t ret;
 387:..\..\..\lvgl\version_6.1.2\lvgl\src\lv_draw\../lv_core/../lv_misc/lv_color.h ****     LV_COLOR_SET_R32(ret, LV_COLOR_GET_R(color) * 36);     /*(2^8 - 1)/(2^3 - 1) = 255/7 = 36*/
 388:..\..\..\lvgl\version_6.1.2\lvgl\src\lv_draw\../lv_core/../lv_misc/lv_color.h ****     LV_COLOR_SET_G32(ret, LV_COLOR_GET_G(color) * 36); /*(2^8 - 1)/(2^3 - 1) = 255/7 = 36*/
 389:..\..\..\lvgl\version_6.1.2\lvgl\src\lv_draw\../lv_core/../lv_misc/lv_color.h ****     LV_COLOR_SET_B32(ret, LV_COLOR_GET_B(color) * 85);   /*(2^8 - 1)/(2^2 - 1) = 255/3 = 85*/
 390:..\..\..\lvgl\version_6.1.2\lvgl\src\lv_draw\../lv_core/../lv_misc/lv_color.h ****     LV_COLOR_SET_A32(ret, 0xFF);
 391:..\..\..\lvgl\version_6.1.2\lvgl\src\lv_draw\../lv_core/../lv_misc/lv_color.h ****     return ret.full;
 392:..\..\..\lvgl\version_6.1.2\lvgl\src\lv_draw\../lv_core/../lv_misc/lv_color.h **** #elif LV_COLOR_DEPTH == 16
 393:..\..\..\lvgl\version_6.1.2\lvgl\src\lv_draw\../lv_core/../lv_misc/lv_color.h ****     /**
 394:..\..\..\lvgl\version_6.1.2\lvgl\src\lv_draw\../lv_core/../lv_misc/lv_color.h ****      * The floating point math for conversion is:
 395:..\..\..\lvgl\version_6.1.2\lvgl\src\lv_draw\../lv_core/../lv_misc/lv_color.h ****      *  valueto = valuefrom * ( (2^bitsto - 1) / (float)(2^bitsfrom - 1) )
 396:..\..\..\lvgl\version_6.1.2\lvgl\src\lv_draw\../lv_core/../lv_misc/lv_color.h ****      * The faster integer math for conversion is:
 397:..\..\..\lvgl\version_6.1.2\lvgl\src\lv_draw\../lv_core/../lv_misc/lv_color.h ****      *  valueto = ( valuefrom * multiplier + adder ) >> divisor
 398:..\..\..\lvgl\version_6.1.2\lvgl\src\lv_draw\../lv_core/../lv_misc/lv_color.h ****      *   multiplier = FLOOR( ( (2^bitsto - 1) << divisor ) / (float)(2^bitsfrom - 1) )
 399:..\..\..\lvgl\version_6.1.2\lvgl\src\lv_draw\../lv_core/../lv_misc/lv_color.h ****      * 
 400:..\..\..\lvgl\version_6.1.2\lvgl\src\lv_draw\../lv_core/../lv_misc/lv_color.h ****      * Find the first divisor where ( adder >> divisor ) <= 0
 401:..\..\..\lvgl\version_6.1.2\lvgl\src\lv_draw\../lv_core/../lv_misc/lv_color.h ****      * 
 402:..\..\..\lvgl\version_6.1.2\lvgl\src\lv_draw\../lv_core/../lv_misc/lv_color.h ****      * 5-bit to 8-bit: ( 31 * multiplier + adder ) >> divisor = 255
 403:..\..\..\lvgl\version_6.1.2\lvgl\src\lv_draw\../lv_core/../lv_misc/lv_color.h ****      * divisor  multiplier  adder  min (0)  max (31)
 404:..\..\..\lvgl\version_6.1.2\lvgl\src\lv_draw\../lv_core/../lv_misc/lv_color.h ****      *       0           8      7        7       255
 405:..\..\..\lvgl\version_6.1.2\lvgl\src\lv_draw\../lv_core/../lv_misc/lv_color.h ****      *       1          16     14        7       255
 406:..\..\..\lvgl\version_6.1.2\lvgl\src\lv_draw\../lv_core/../lv_misc/lv_color.h ****      *       2          32     28        7       255
 407:..\..\..\lvgl\version_6.1.2\lvgl\src\lv_draw\../lv_core/../lv_misc/lv_color.h ****      *       3          65     25        3       255
 408:..\..\..\lvgl\version_6.1.2\lvgl\src\lv_draw\../lv_core/../lv_misc/lv_color.h ****      *       4         131     19        1       255
 409:..\..\..\lvgl\version_6.1.2\lvgl\src\lv_draw\../lv_core/../lv_misc/lv_color.h ****      *       5         263      7        0       255
 410:..\..\..\lvgl\version_6.1.2\lvgl\src\lv_draw\../lv_core/../lv_misc/lv_color.h ****      * 
 411:..\..\..\lvgl\version_6.1.2\lvgl\src\lv_draw\../lv_core/../lv_misc/lv_color.h ****      * 6-bit to 8-bit: 255 = ( 63 * multiplier + adder ) >> divisor
 412:..\..\..\lvgl\version_6.1.2\lvgl\src\lv_draw\../lv_core/../lv_misc/lv_color.h ****      * divisor  multiplier  adder  min (0)  max (63)
 413:..\..\..\lvgl\version_6.1.2\lvgl\src\lv_draw\../lv_core/../lv_misc/lv_color.h ****      *       0           4      3        3       255
 414:..\..\..\lvgl\version_6.1.2\lvgl\src\lv_draw\../lv_core/../lv_misc/lv_color.h ****      *       1           8      6        3       255
 415:..\..\..\lvgl\version_6.1.2\lvgl\src\lv_draw\../lv_core/../lv_misc/lv_color.h ****      *       2          16     12        3       255
 416:..\..\..\lvgl\version_6.1.2\lvgl\src\lv_draw\../lv_core/../lv_misc/lv_color.h ****      *       3          32     24        3       255
 417:..\..\..\lvgl\version_6.1.2\lvgl\src\lv_draw\../lv_core/../lv_misc/lv_color.h ****      *       4          64     48        3       255
 418:..\..\..\lvgl\version_6.1.2\lvgl\src\lv_draw\../lv_core/../lv_misc/lv_color.h ****      *       5         129     33        1       255
 419:..\..\..\lvgl\version_6.1.2\lvgl\src\lv_draw\../lv_core/../lv_misc/lv_color.h ****      *       6         259      3        0       255
 420:..\..\..\lvgl\version_6.1.2\lvgl\src\lv_draw\../lv_core/../lv_misc/lv_color.h ****      */
 421:..\..\..\lvgl\version_6.1.2\lvgl\src\lv_draw\../lv_core/../lv_misc/lv_color.h ****     lv_color32_t ret;
 422:..\..\..\lvgl\version_6.1.2\lvgl\src\lv_draw\../lv_core/../lv_misc/lv_color.h ****     LV_COLOR_SET_R32(ret, (LV_COLOR_GET_R(color) * 263 + 7 ) >> 5);
 423:..\..\..\lvgl\version_6.1.2\lvgl\src\lv_draw\../lv_core/../lv_misc/lv_color.h ****     LV_COLOR_SET_G32(ret, (LV_COLOR_GET_G(color) * 259 + 3 ) >> 6);
 424:..\..\..\lvgl\version_6.1.2\lvgl\src\lv_draw\../lv_core/../lv_misc/lv_color.h ****     LV_COLOR_SET_B32(ret, (LV_COLOR_GET_B(color) * 263 + 7 ) >> 5);
 425:..\..\..\lvgl\version_6.1.2\lvgl\src\lv_draw\../lv_core/../lv_misc/lv_color.h ****     LV_COLOR_SET_A32(ret, 0xFF);
 426:..\..\..\lvgl\version_6.1.2\lvgl\src\lv_draw\../lv_core/../lv_misc/lv_color.h ****     return ret.full;
 427:..\..\..\lvgl\version_6.1.2\lvgl\src\lv_draw\../lv_core/../lv_misc/lv_color.h **** #elif LV_COLOR_DEPTH == 32
 428:..\..\..\lvgl\version_6.1.2\lvgl\src\lv_draw\../lv_core/../lv_misc/lv_color.h ****     return color.full;
 429:..\..\..\lvgl\version_6.1.2\lvgl\src\lv_draw\../lv_core/../lv_misc/lv_color.h **** #endif
 430:..\..\..\lvgl\version_6.1.2\lvgl\src\lv_draw\../lv_core/../lv_misc/lv_color.h **** }
 431:..\..\..\lvgl\version_6.1.2\lvgl\src\lv_draw\../lv_core/../lv_misc/lv_color.h **** 
 432:..\..\..\lvgl\version_6.1.2\lvgl\src\lv_draw\../lv_core/../lv_misc/lv_color.h **** static inline lv_color_t lv_color_mix(lv_color_t c1, lv_color_t c2, uint8_t mix)
 433:..\..\..\lvgl\version_6.1.2\lvgl\src\lv_draw\../lv_core/../lv_misc/lv_color.h **** {
 434:..\..\..\lvgl\version_6.1.2\lvgl\src\lv_draw\../lv_core/../lv_misc/lv_color.h ****     lv_color_t ret;
 435:..\..\..\lvgl\version_6.1.2\lvgl\src\lv_draw\../lv_core/../lv_misc/lv_color.h **** #if LV_COLOR_DEPTH != 1
ARM GAS  C:\Users\tmj32\AppData\Local\Temp\ccHxR1NV.s 			page 12


 436:..\..\..\lvgl\version_6.1.2\lvgl\src\lv_draw\../lv_core/../lv_misc/lv_color.h ****     /*LV_COLOR_DEPTH == 8, 16 or 32*/
 437:..\..\..\lvgl\version_6.1.2\lvgl\src\lv_draw\../lv_core/../lv_misc/lv_color.h ****     LV_COLOR_SET_R(ret, (uint16_t)((uint16_t) LV_COLOR_GET_R(c1) * mix + LV_COLOR_GET_R(c2) * (255 
 438:..\..\..\lvgl\version_6.1.2\lvgl\src\lv_draw\../lv_core/../lv_misc/lv_color.h ****     LV_COLOR_SET_G(ret, (uint16_t)((uint16_t) LV_COLOR_GET_G(c1) * mix + LV_COLOR_GET_G(c2) * (255 
 439:..\..\..\lvgl\version_6.1.2\lvgl\src\lv_draw\../lv_core/../lv_misc/lv_color.h ****     LV_COLOR_SET_B(ret, (uint16_t)((uint16_t) LV_COLOR_GET_B(c1) * mix + LV_COLOR_GET_B(c2) * (255 
 440:..\..\..\lvgl\version_6.1.2\lvgl\src\lv_draw\../lv_core/../lv_misc/lv_color.h ****     LV_COLOR_SET_A(ret, 0xFF);
 441:..\..\..\lvgl\version_6.1.2\lvgl\src\lv_draw\../lv_core/../lv_misc/lv_color.h **** #else
 442:..\..\..\lvgl\version_6.1.2\lvgl\src\lv_draw\../lv_core/../lv_misc/lv_color.h ****     /*LV_COLOR_DEPTH == 1*/
 443:..\..\..\lvgl\version_6.1.2\lvgl\src\lv_draw\../lv_core/../lv_misc/lv_color.h ****     ret.full = mix > LV_OPA_50 ? c1.full : c2.full;
 444:..\..\..\lvgl\version_6.1.2\lvgl\src\lv_draw\../lv_core/../lv_misc/lv_color.h **** #endif
 445:..\..\..\lvgl\version_6.1.2\lvgl\src\lv_draw\../lv_core/../lv_misc/lv_color.h **** 
 446:..\..\..\lvgl\version_6.1.2\lvgl\src\lv_draw\../lv_core/../lv_misc/lv_color.h ****     return ret;
 447:..\..\..\lvgl\version_6.1.2\lvgl\src\lv_draw\../lv_core/../lv_misc/lv_color.h **** }
 448:..\..\..\lvgl\version_6.1.2\lvgl\src\lv_draw\../lv_core/../lv_misc/lv_color.h **** 
 449:..\..\..\lvgl\version_6.1.2\lvgl\src\lv_draw\../lv_core/../lv_misc/lv_color.h **** /**
 450:..\..\..\lvgl\version_6.1.2\lvgl\src\lv_draw\../lv_core/../lv_misc/lv_color.h ****  * Get the brightness of a color
 451:..\..\..\lvgl\version_6.1.2\lvgl\src\lv_draw\../lv_core/../lv_misc/lv_color.h ****  * @param color a color
 452:..\..\..\lvgl\version_6.1.2\lvgl\src\lv_draw\../lv_core/../lv_misc/lv_color.h ****  * @return the brightness [0..255]
 453:..\..\..\lvgl\version_6.1.2\lvgl\src\lv_draw\../lv_core/../lv_misc/lv_color.h ****  */
 454:..\..\..\lvgl\version_6.1.2\lvgl\src\lv_draw\../lv_core/../lv_misc/lv_color.h **** static inline uint8_t lv_color_brightness(lv_color_t color)
 455:..\..\..\lvgl\version_6.1.2\lvgl\src\lv_draw\../lv_core/../lv_misc/lv_color.h **** {
 456:..\..\..\lvgl\version_6.1.2\lvgl\src\lv_draw\../lv_core/../lv_misc/lv_color.h ****     lv_color32_t c32;
 457:..\..\..\lvgl\version_6.1.2\lvgl\src\lv_draw\../lv_core/../lv_misc/lv_color.h ****     c32.full        = lv_color_to32(color);
 458:..\..\..\lvgl\version_6.1.2\lvgl\src\lv_draw\../lv_core/../lv_misc/lv_color.h ****     uint16_t bright = (uint16_t)(3u * LV_COLOR_GET_R32(c32) + LV_COLOR_GET_B32(c32) + 4u * LV_COLOR
 459:..\..\..\lvgl\version_6.1.2\lvgl\src\lv_draw\../lv_core/../lv_misc/lv_color.h ****     return (uint8_t)(bright >> 3);
 460:..\..\..\lvgl\version_6.1.2\lvgl\src\lv_draw\../lv_core/../lv_misc/lv_color.h **** }
 461:..\..\..\lvgl\version_6.1.2\lvgl\src\lv_draw\../lv_core/../lv_misc/lv_color.h **** 
 462:..\..\..\lvgl\version_6.1.2\lvgl\src\lv_draw\../lv_core/../lv_misc/lv_color.h **** /* The most simple macro to create a color from R,G and B values */
 463:..\..\..\lvgl\version_6.1.2\lvgl\src\lv_draw\../lv_core/../lv_misc/lv_color.h **** #if LV_COLOR_DEPTH == 1
 464:..\..\..\lvgl\version_6.1.2\lvgl\src\lv_draw\../lv_core/../lv_misc/lv_color.h **** #define LV_COLOR_MAKE(r8, g8, b8) ((lv_color_t){.full = (uint8_t)((b8 >> 7) | (g8 >> 7) | (r8 >> 7)
 465:..\..\..\lvgl\version_6.1.2\lvgl\src\lv_draw\../lv_core/../lv_misc/lv_color.h **** #elif LV_COLOR_DEPTH == 8
 466:..\..\..\lvgl\version_6.1.2\lvgl\src\lv_draw\../lv_core/../lv_misc/lv_color.h **** #define LV_COLOR_MAKE(r8, g8, b8) ((lv_color_t){{(uint8_t)((b8 >> 6) & 0x3U), (uint8_t)((g8 >> 5) &
 467:..\..\..\lvgl\version_6.1.2\lvgl\src\lv_draw\../lv_core/../lv_misc/lv_color.h **** #elif LV_COLOR_DEPTH == 16
 468:..\..\..\lvgl\version_6.1.2\lvgl\src\lv_draw\../lv_core/../lv_misc/lv_color.h **** #if LV_COLOR_16_SWAP == 0
 469:..\..\..\lvgl\version_6.1.2\lvgl\src\lv_draw\../lv_core/../lv_misc/lv_color.h **** #define LV_COLOR_MAKE(r8, g8, b8) ((lv_color_t){{(uint16_t)((b8 >> 3) & 0x1FU), (uint16_t)((g8 >> 2
 470:..\..\..\lvgl\version_6.1.2\lvgl\src\lv_draw\../lv_core/../lv_misc/lv_color.h **** #else
 471:..\..\..\lvgl\version_6.1.2\lvgl\src\lv_draw\../lv_core/../lv_misc/lv_color.h **** #define LV_COLOR_MAKE(r8, g8, b8) ((lv_color_t){{(uint16_t)((g8 >> 5) & 0x7U), (uint16_t)((r8 >> 3)
 472:..\..\..\lvgl\version_6.1.2\lvgl\src\lv_draw\../lv_core/../lv_misc/lv_color.h **** #endif
 473:..\..\..\lvgl\version_6.1.2\lvgl\src\lv_draw\../lv_core/../lv_misc/lv_color.h **** #elif LV_COLOR_DEPTH == 32
 474:..\..\..\lvgl\version_6.1.2\lvgl\src\lv_draw\../lv_core/../lv_misc/lv_color.h **** #define LV_COLOR_MAKE(r8, g8, b8) ((lv_color_t){{b8, g8, r8, 0xff}}) /*Fix 0xff alpha*/
 475:..\..\..\lvgl\version_6.1.2\lvgl\src\lv_draw\../lv_core/../lv_misc/lv_color.h **** #endif
 476:..\..\..\lvgl\version_6.1.2\lvgl\src\lv_draw\../lv_core/../lv_misc/lv_color.h **** 
 477:..\..\..\lvgl\version_6.1.2\lvgl\src\lv_draw\../lv_core/../lv_misc/lv_color.h **** static inline lv_color_t lv_color_make(uint8_t r, uint8_t g, uint8_t b)
 478:..\..\..\lvgl\version_6.1.2\lvgl\src\lv_draw\../lv_core/../lv_misc/lv_color.h **** {
  66              		.loc 2 478 0
  67              		.cfi_startproc
  68              		@ args = 0, pretend = 0, frame = 8
  69              		@ frame_needed = 1, uses_anonymous_args = 0
  70              		@ link register save eliminated.
  71 0000 90B4     		push	{r4, r7}
  72              		.cfi_def_cfa_offset 8
  73              		.cfi_offset 4, -8
  74              		.cfi_offset 7, -4
  75 0002 82B0     		sub	sp, sp, #8
  76              		.cfi_def_cfa_offset 16
  77 0004 00AF     		add	r7, sp, #0
  78              		.cfi_def_cfa_register 7
  79 0006 0446     		mov	r4, r0
ARM GAS  C:\Users\tmj32\AppData\Local\Temp\ccHxR1NV.s 			page 13


  80 0008 0846     		mov	r0, r1
  81 000a 1146     		mov	r1, r2
  82 000c 2246     		mov	r2, r4
  83 000e FA71     		strb	r2, [r7, #7]
  84 0010 0246     		mov	r2, r0
  85 0012 BA71     		strb	r2, [r7, #6]
  86 0014 0A46     		mov	r2, r1
  87 0016 7A71     		strb	r2, [r7, #5]
 479:..\..\..\lvgl\version_6.1.2\lvgl\src\lv_draw\../lv_core/../lv_misc/lv_color.h ****     return LV_COLOR_MAKE(r, g, b);
  88              		.loc 2 479 0
  89 0018 7A79     		ldrb	r2, [r7, #5]
  90 001a 62F30703 		bfi	r3, r2, #0, #8
  91 001e BA79     		ldrb	r2, [r7, #6]
  92 0020 62F30F23 		bfi	r3, r2, #8, #8
  93 0024 FA79     		ldrb	r2, [r7, #7]
  94 0026 62F31743 		bfi	r3, r2, #16, #8
  95 002a 43F07F43 		orr	r3, r3, #-16777216
 480:..\..\..\lvgl\version_6.1.2\lvgl\src\lv_draw\../lv_core/../lv_misc/lv_color.h **** }
  96              		.loc 2 480 0
  97 002e 1846     		mov	r0, r3
  98 0030 0837     		adds	r7, r7, #8
  99              		.cfi_def_cfa_offset 8
 100 0032 BD46     		mov	sp, r7
 101              		.cfi_def_cfa_register 13
 102              		@ sp needed
 103 0034 90BC     		pop	{r4, r7}
 104              		.cfi_restore 7
 105              		.cfi_restore 4
 106              		.cfi_def_cfa_offset 0
 107 0036 7047     		bx	lr
 108              		.cfi_endproc
 109              	.LFE7:
 110              		.size	lv_color_make, .-lv_color_make
 111              		.section	.text.lv_area_get_width,"ax",%progbits
 112              		.align	2
 113              		.thumb
 114              		.thumb_func
 115              		.type	lv_area_get_width, %function
 116              	lv_area_get_width:
 117              	.LFB11:
 118              		.file 3 "..\\..\\..\\lvgl\\version_6.1.2\\lvgl\\src\\lv_draw\\../lv_core/../lv_misc/lv_area.h"
   1:..\..\..\lvgl\version_6.1.2\lvgl\src\lv_draw\../lv_core/../lv_misc/lv_area.h **** /**
   2:..\..\..\lvgl\version_6.1.2\lvgl\src\lv_draw\../lv_core/../lv_misc/lv_area.h ****  * @file lv_area.h
   3:..\..\..\lvgl\version_6.1.2\lvgl\src\lv_draw\../lv_core/../lv_misc/lv_area.h ****  *
   4:..\..\..\lvgl\version_6.1.2\lvgl\src\lv_draw\../lv_core/../lv_misc/lv_area.h ****  */
   5:..\..\..\lvgl\version_6.1.2\lvgl\src\lv_draw\../lv_core/../lv_misc/lv_area.h **** 
   6:..\..\..\lvgl\version_6.1.2\lvgl\src\lv_draw\../lv_core/../lv_misc/lv_area.h **** #ifndef LV_AREA_H
   7:..\..\..\lvgl\version_6.1.2\lvgl\src\lv_draw\../lv_core/../lv_misc/lv_area.h **** #define LV_AREA_H
   8:..\..\..\lvgl\version_6.1.2\lvgl\src\lv_draw\../lv_core/../lv_misc/lv_area.h **** 
   9:..\..\..\lvgl\version_6.1.2\lvgl\src\lv_draw\../lv_core/../lv_misc/lv_area.h **** #ifdef __cplusplus
  10:..\..\..\lvgl\version_6.1.2\lvgl\src\lv_draw\../lv_core/../lv_misc/lv_area.h **** extern "C" {
  11:..\..\..\lvgl\version_6.1.2\lvgl\src\lv_draw\../lv_core/../lv_misc/lv_area.h **** #endif
  12:..\..\..\lvgl\version_6.1.2\lvgl\src\lv_draw\../lv_core/../lv_misc/lv_area.h **** 
  13:..\..\..\lvgl\version_6.1.2\lvgl\src\lv_draw\../lv_core/../lv_misc/lv_area.h **** /*********************
  14:..\..\..\lvgl\version_6.1.2\lvgl\src\lv_draw\../lv_core/../lv_misc/lv_area.h ****  *      INCLUDES
  15:..\..\..\lvgl\version_6.1.2\lvgl\src\lv_draw\../lv_core/../lv_misc/lv_area.h ****  *********************/
  16:..\..\..\lvgl\version_6.1.2\lvgl\src\lv_draw\../lv_core/../lv_misc/lv_area.h **** #include <string.h>
ARM GAS  C:\Users\tmj32\AppData\Local\Temp\ccHxR1NV.s 			page 14


  17:..\..\..\lvgl\version_6.1.2\lvgl\src\lv_draw\../lv_core/../lv_misc/lv_area.h **** #include <stdbool.h>
  18:..\..\..\lvgl\version_6.1.2\lvgl\src\lv_draw\../lv_core/../lv_misc/lv_area.h **** #include <stdint.h>
  19:..\..\..\lvgl\version_6.1.2\lvgl\src\lv_draw\../lv_core/../lv_misc/lv_area.h **** #ifdef LV_CONF_INCLUDE_SIMPLE
  20:..\..\..\lvgl\version_6.1.2\lvgl\src\lv_draw\../lv_core/../lv_misc/lv_area.h **** #include "lv_conf.h"
  21:..\..\..\lvgl\version_6.1.2\lvgl\src\lv_draw\../lv_core/../lv_misc/lv_area.h **** #else
  22:..\..\..\lvgl\version_6.1.2\lvgl\src\lv_draw\../lv_core/../lv_misc/lv_area.h **** #include "../../../lv_conf.h"
  23:..\..\..\lvgl\version_6.1.2\lvgl\src\lv_draw\../lv_core/../lv_misc/lv_area.h **** #endif
  24:..\..\..\lvgl\version_6.1.2\lvgl\src\lv_draw\../lv_core/../lv_misc/lv_area.h **** 
  25:..\..\..\lvgl\version_6.1.2\lvgl\src\lv_draw\../lv_core/../lv_misc/lv_area.h **** /*********************
  26:..\..\..\lvgl\version_6.1.2\lvgl\src\lv_draw\../lv_core/../lv_misc/lv_area.h ****  *      DEFINES
  27:..\..\..\lvgl\version_6.1.2\lvgl\src\lv_draw\../lv_core/../lv_misc/lv_area.h ****  *********************/
  28:..\..\..\lvgl\version_6.1.2\lvgl\src\lv_draw\../lv_core/../lv_misc/lv_area.h **** /*To avoid overflow don't let the max ranges (reduce with 1000) */
  29:..\..\..\lvgl\version_6.1.2\lvgl\src\lv_draw\../lv_core/../lv_misc/lv_area.h **** #define LV_COORD_MAX ((lv_coord_t)((uint32_t)((uint32_t)1 << (8 * sizeof(lv_coord_t) - 1)) - 1000))
  30:..\..\..\lvgl\version_6.1.2\lvgl\src\lv_draw\../lv_core/../lv_misc/lv_area.h **** #define LV_COORD_MIN (-LV_COORD_MAX)
  31:..\..\..\lvgl\version_6.1.2\lvgl\src\lv_draw\../lv_core/../lv_misc/lv_area.h **** 
  32:..\..\..\lvgl\version_6.1.2\lvgl\src\lv_draw\../lv_core/../lv_misc/lv_area.h **** LV_EXPORT_CONST_INT(LV_COORD_MAX);
  33:..\..\..\lvgl\version_6.1.2\lvgl\src\lv_draw\../lv_core/../lv_misc/lv_area.h **** LV_EXPORT_CONST_INT(LV_COORD_MIN);
  34:..\..\..\lvgl\version_6.1.2\lvgl\src\lv_draw\../lv_core/../lv_misc/lv_area.h **** 
  35:..\..\..\lvgl\version_6.1.2\lvgl\src\lv_draw\../lv_core/../lv_misc/lv_area.h **** /**********************
  36:..\..\..\lvgl\version_6.1.2\lvgl\src\lv_draw\../lv_core/../lv_misc/lv_area.h ****  *      TYPEDEFS
  37:..\..\..\lvgl\version_6.1.2\lvgl\src\lv_draw\../lv_core/../lv_misc/lv_area.h ****  **********************/
  38:..\..\..\lvgl\version_6.1.2\lvgl\src\lv_draw\../lv_core/../lv_misc/lv_area.h **** 
  39:..\..\..\lvgl\version_6.1.2\lvgl\src\lv_draw\../lv_core/../lv_misc/lv_area.h **** /**
  40:..\..\..\lvgl\version_6.1.2\lvgl\src\lv_draw\../lv_core/../lv_misc/lv_area.h ****  * Represents a point on the screen.
  41:..\..\..\lvgl\version_6.1.2\lvgl\src\lv_draw\../lv_core/../lv_misc/lv_area.h ****  */
  42:..\..\..\lvgl\version_6.1.2\lvgl\src\lv_draw\../lv_core/../lv_misc/lv_area.h **** typedef struct
  43:..\..\..\lvgl\version_6.1.2\lvgl\src\lv_draw\../lv_core/../lv_misc/lv_area.h **** {
  44:..\..\..\lvgl\version_6.1.2\lvgl\src\lv_draw\../lv_core/../lv_misc/lv_area.h ****     lv_coord_t x;
  45:..\..\..\lvgl\version_6.1.2\lvgl\src\lv_draw\../lv_core/../lv_misc/lv_area.h ****     lv_coord_t y;
  46:..\..\..\lvgl\version_6.1.2\lvgl\src\lv_draw\../lv_core/../lv_misc/lv_area.h **** } lv_point_t;
  47:..\..\..\lvgl\version_6.1.2\lvgl\src\lv_draw\../lv_core/../lv_misc/lv_area.h **** 
  48:..\..\..\lvgl\version_6.1.2\lvgl\src\lv_draw\../lv_core/../lv_misc/lv_area.h **** /** Represents an area of the screen. */
  49:..\..\..\lvgl\version_6.1.2\lvgl\src\lv_draw\../lv_core/../lv_misc/lv_area.h **** typedef struct
  50:..\..\..\lvgl\version_6.1.2\lvgl\src\lv_draw\../lv_core/../lv_misc/lv_area.h **** {
  51:..\..\..\lvgl\version_6.1.2\lvgl\src\lv_draw\../lv_core/../lv_misc/lv_area.h ****     lv_coord_t x1;
  52:..\..\..\lvgl\version_6.1.2\lvgl\src\lv_draw\../lv_core/../lv_misc/lv_area.h ****     lv_coord_t y1;
  53:..\..\..\lvgl\version_6.1.2\lvgl\src\lv_draw\../lv_core/../lv_misc/lv_area.h ****     lv_coord_t x2;
  54:..\..\..\lvgl\version_6.1.2\lvgl\src\lv_draw\../lv_core/../lv_misc/lv_area.h ****     lv_coord_t y2;
  55:..\..\..\lvgl\version_6.1.2\lvgl\src\lv_draw\../lv_core/../lv_misc/lv_area.h **** } lv_area_t;
  56:..\..\..\lvgl\version_6.1.2\lvgl\src\lv_draw\../lv_core/../lv_misc/lv_area.h **** 
  57:..\..\..\lvgl\version_6.1.2\lvgl\src\lv_draw\../lv_core/../lv_misc/lv_area.h **** /**********************
  58:..\..\..\lvgl\version_6.1.2\lvgl\src\lv_draw\../lv_core/../lv_misc/lv_area.h ****  * GLOBAL PROTOTYPES
  59:..\..\..\lvgl\version_6.1.2\lvgl\src\lv_draw\../lv_core/../lv_misc/lv_area.h ****  **********************/
  60:..\..\..\lvgl\version_6.1.2\lvgl\src\lv_draw\../lv_core/../lv_misc/lv_area.h **** 
  61:..\..\..\lvgl\version_6.1.2\lvgl\src\lv_draw\../lv_core/../lv_misc/lv_area.h **** /**
  62:..\..\..\lvgl\version_6.1.2\lvgl\src\lv_draw\../lv_core/../lv_misc/lv_area.h ****  * Initialize an area
  63:..\..\..\lvgl\version_6.1.2\lvgl\src\lv_draw\../lv_core/../lv_misc/lv_area.h ****  * @param area_p pointer to an area
  64:..\..\..\lvgl\version_6.1.2\lvgl\src\lv_draw\../lv_core/../lv_misc/lv_area.h ****  * @param x1 left coordinate of the area
  65:..\..\..\lvgl\version_6.1.2\lvgl\src\lv_draw\../lv_core/../lv_misc/lv_area.h ****  * @param y1 top coordinate of the area
  66:..\..\..\lvgl\version_6.1.2\lvgl\src\lv_draw\../lv_core/../lv_misc/lv_area.h ****  * @param x2 right coordinate of the area
  67:..\..\..\lvgl\version_6.1.2\lvgl\src\lv_draw\../lv_core/../lv_misc/lv_area.h ****  * @param y2 bottom coordinate of the area
  68:..\..\..\lvgl\version_6.1.2\lvgl\src\lv_draw\../lv_core/../lv_misc/lv_area.h ****  */
  69:..\..\..\lvgl\version_6.1.2\lvgl\src\lv_draw\../lv_core/../lv_misc/lv_area.h **** void lv_area_set(lv_area_t * area_p, lv_coord_t x1, lv_coord_t y1, lv_coord_t x2, lv_coord_t y2);
  70:..\..\..\lvgl\version_6.1.2\lvgl\src\lv_draw\../lv_core/../lv_misc/lv_area.h **** 
  71:..\..\..\lvgl\version_6.1.2\lvgl\src\lv_draw\../lv_core/../lv_misc/lv_area.h **** /**
  72:..\..\..\lvgl\version_6.1.2\lvgl\src\lv_draw\../lv_core/../lv_misc/lv_area.h ****  * Copy an area
  73:..\..\..\lvgl\version_6.1.2\lvgl\src\lv_draw\../lv_core/../lv_misc/lv_area.h ****  * @param dest pointer to the destination area
ARM GAS  C:\Users\tmj32\AppData\Local\Temp\ccHxR1NV.s 			page 15


  74:..\..\..\lvgl\version_6.1.2\lvgl\src\lv_draw\../lv_core/../lv_misc/lv_area.h ****  * @param src pointer to the source area
  75:..\..\..\lvgl\version_6.1.2\lvgl\src\lv_draw\../lv_core/../lv_misc/lv_area.h ****  */
  76:..\..\..\lvgl\version_6.1.2\lvgl\src\lv_draw\../lv_core/../lv_misc/lv_area.h **** inline static void lv_area_copy(lv_area_t * dest, const lv_area_t * src)
  77:..\..\..\lvgl\version_6.1.2\lvgl\src\lv_draw\../lv_core/../lv_misc/lv_area.h **** {
  78:..\..\..\lvgl\version_6.1.2\lvgl\src\lv_draw\../lv_core/../lv_misc/lv_area.h ****     memcpy(dest, src, sizeof(lv_area_t));
  79:..\..\..\lvgl\version_6.1.2\lvgl\src\lv_draw\../lv_core/../lv_misc/lv_area.h **** }
  80:..\..\..\lvgl\version_6.1.2\lvgl\src\lv_draw\../lv_core/../lv_misc/lv_area.h **** 
  81:..\..\..\lvgl\version_6.1.2\lvgl\src\lv_draw\../lv_core/../lv_misc/lv_area.h **** /**
  82:..\..\..\lvgl\version_6.1.2\lvgl\src\lv_draw\../lv_core/../lv_misc/lv_area.h ****  * Get the width of an area
  83:..\..\..\lvgl\version_6.1.2\lvgl\src\lv_draw\../lv_core/../lv_misc/lv_area.h ****  * @param area_p pointer to an area
  84:..\..\..\lvgl\version_6.1.2\lvgl\src\lv_draw\../lv_core/../lv_misc/lv_area.h ****  * @return the width of the area (if x1 == x2 -> width = 1)
  85:..\..\..\lvgl\version_6.1.2\lvgl\src\lv_draw\../lv_core/../lv_misc/lv_area.h ****  */
  86:..\..\..\lvgl\version_6.1.2\lvgl\src\lv_draw\../lv_core/../lv_misc/lv_area.h **** static inline lv_coord_t lv_area_get_width(const lv_area_t * area_p)
  87:..\..\..\lvgl\version_6.1.2\lvgl\src\lv_draw\../lv_core/../lv_misc/lv_area.h **** {
 119              		.loc 3 87 0
 120              		.cfi_startproc
 121              		@ args = 0, pretend = 0, frame = 8
 122              		@ frame_needed = 1, uses_anonymous_args = 0
 123              		@ link register save eliminated.
 124 0000 80B4     		push	{r7}
 125              		.cfi_def_cfa_offset 4
 126              		.cfi_offset 7, -4
 127 0002 83B0     		sub	sp, sp, #12
 128              		.cfi_def_cfa_offset 16
 129 0004 00AF     		add	r7, sp, #0
 130              		.cfi_def_cfa_register 7
 131 0006 7860     		str	r0, [r7, #4]
  88:..\..\..\lvgl\version_6.1.2\lvgl\src\lv_draw\../lv_core/../lv_misc/lv_area.h ****     return (lv_coord_t)(area_p->x2 - area_p->x1 + 1);
 132              		.loc 3 88 0
 133 0008 7B68     		ldr	r3, [r7, #4]
 134 000a B3F90430 		ldrsh	r3, [r3, #4]
 135 000e 9AB2     		uxth	r2, r3
 136 0010 7B68     		ldr	r3, [r7, #4]
 137 0012 B3F90030 		ldrsh	r3, [r3]
 138 0016 9BB2     		uxth	r3, r3
 139 0018 D31A     		subs	r3, r2, r3
 140 001a 9BB2     		uxth	r3, r3
 141 001c 0133     		adds	r3, r3, #1
 142 001e 9BB2     		uxth	r3, r3
 143 0020 1BB2     		sxth	r3, r3
  89:..\..\..\lvgl\version_6.1.2\lvgl\src\lv_draw\../lv_core/../lv_misc/lv_area.h **** }
 144              		.loc 3 89 0
 145 0022 1846     		mov	r0, r3
 146 0024 0C37     		adds	r7, r7, #12
 147              		.cfi_def_cfa_offset 4
 148 0026 BD46     		mov	sp, r7
 149              		.cfi_def_cfa_register 13
 150              		@ sp needed
 151 0028 5DF8047B 		ldr	r7, [sp], #4
 152              		.cfi_restore 7
 153              		.cfi_def_cfa_offset 0
 154 002c 7047     		bx	lr
 155              		.cfi_endproc
 156              	.LFE11:
 157              		.size	lv_area_get_width, .-lv_area_get_width
 158 002e 00BF     		.section	.text.lv_draw_label,"ax",%progbits
 159              		.align	2
ARM GAS  C:\Users\tmj32\AppData\Local\Temp\ccHxR1NV.s 			page 16


 160              		.global	lv_draw_label
 161              		.thumb
 162              		.thumb_func
 163              		.type	lv_draw_label, %function
 164              	lv_draw_label:
 165              	.LFB31:
 166              		.file 4 "..\\..\\..\\lvgl\\version_6.1.2\\lvgl\\src\\lv_draw\\lv_draw_label.c"
   1:..\..\..\lvgl\version_6.1.2\lvgl\src\lv_draw/lv_draw_label.c **** /**
   2:..\..\..\lvgl\version_6.1.2\lvgl\src\lv_draw/lv_draw_label.c ****  * @file lv_draw_label.c
   3:..\..\..\lvgl\version_6.1.2\lvgl\src\lv_draw/lv_draw_label.c ****  *
   4:..\..\..\lvgl\version_6.1.2\lvgl\src\lv_draw/lv_draw_label.c ****  */
   5:..\..\..\lvgl\version_6.1.2\lvgl\src\lv_draw/lv_draw_label.c **** 
   6:..\..\..\lvgl\version_6.1.2\lvgl\src\lv_draw/lv_draw_label.c **** /*********************
   7:..\..\..\lvgl\version_6.1.2\lvgl\src\lv_draw/lv_draw_label.c ****  *      INCLUDES
   8:..\..\..\lvgl\version_6.1.2\lvgl\src\lv_draw/lv_draw_label.c ****  *********************/
   9:..\..\..\lvgl\version_6.1.2\lvgl\src\lv_draw/lv_draw_label.c **** #include "lv_draw_label.h"
  10:..\..\..\lvgl\version_6.1.2\lvgl\src\lv_draw/lv_draw_label.c **** #include "../lv_misc/lv_math.h"
  11:..\..\..\lvgl\version_6.1.2\lvgl\src\lv_draw/lv_draw_label.c **** #include "../lv_misc/lv_bidi.h"
  12:..\..\..\lvgl\version_6.1.2\lvgl\src\lv_draw/lv_draw_label.c **** 
  13:..\..\..\lvgl\version_6.1.2\lvgl\src\lv_draw/lv_draw_label.c **** /*********************
  14:..\..\..\lvgl\version_6.1.2\lvgl\src\lv_draw/lv_draw_label.c ****  *      DEFINES
  15:..\..\..\lvgl\version_6.1.2\lvgl\src\lv_draw/lv_draw_label.c ****  *********************/
  16:..\..\..\lvgl\version_6.1.2\lvgl\src\lv_draw/lv_draw_label.c **** #define LABEL_RECOLOR_PAR_LENGTH 6
  17:..\..\..\lvgl\version_6.1.2\lvgl\src\lv_draw/lv_draw_label.c **** #define LV_LABEL_HINT_UPDATE_TH 1024 /*Update the "hint" if the label's y coordinates have changed 
  18:..\..\..\lvgl\version_6.1.2\lvgl\src\lv_draw/lv_draw_label.c **** 
  19:..\..\..\lvgl\version_6.1.2\lvgl\src\lv_draw/lv_draw_label.c **** /**********************
  20:..\..\..\lvgl\version_6.1.2\lvgl\src\lv_draw/lv_draw_label.c ****  *      TYPEDEFS
  21:..\..\..\lvgl\version_6.1.2\lvgl\src\lv_draw/lv_draw_label.c ****  **********************/
  22:..\..\..\lvgl\version_6.1.2\lvgl\src\lv_draw/lv_draw_label.c **** enum {
  23:..\..\..\lvgl\version_6.1.2\lvgl\src\lv_draw/lv_draw_label.c ****     CMD_STATE_WAIT,
  24:..\..\..\lvgl\version_6.1.2\lvgl\src\lv_draw/lv_draw_label.c ****     CMD_STATE_PAR,
  25:..\..\..\lvgl\version_6.1.2\lvgl\src\lv_draw/lv_draw_label.c ****     CMD_STATE_IN,
  26:..\..\..\lvgl\version_6.1.2\lvgl\src\lv_draw/lv_draw_label.c **** };
  27:..\..\..\lvgl\version_6.1.2\lvgl\src\lv_draw/lv_draw_label.c **** typedef uint8_t cmd_state_t;
  28:..\..\..\lvgl\version_6.1.2\lvgl\src\lv_draw/lv_draw_label.c **** 
  29:..\..\..\lvgl\version_6.1.2\lvgl\src\lv_draw/lv_draw_label.c **** /**********************
  30:..\..\..\lvgl\version_6.1.2\lvgl\src\lv_draw/lv_draw_label.c ****  *  STATIC PROTOTYPES
  31:..\..\..\lvgl\version_6.1.2\lvgl\src\lv_draw/lv_draw_label.c ****  **********************/
  32:..\..\..\lvgl\version_6.1.2\lvgl\src\lv_draw/lv_draw_label.c **** static uint8_t hex_char_to_num(char hex);
  33:..\..\..\lvgl\version_6.1.2\lvgl\src\lv_draw/lv_draw_label.c **** 
  34:..\..\..\lvgl\version_6.1.2\lvgl\src\lv_draw/lv_draw_label.c **** /**********************
  35:..\..\..\lvgl\version_6.1.2\lvgl\src\lv_draw/lv_draw_label.c ****  *  STATIC VARIABLES
  36:..\..\..\lvgl\version_6.1.2\lvgl\src\lv_draw/lv_draw_label.c ****  **********************/
  37:..\..\..\lvgl\version_6.1.2\lvgl\src\lv_draw/lv_draw_label.c **** 
  38:..\..\..\lvgl\version_6.1.2\lvgl\src\lv_draw/lv_draw_label.c **** /**********************
  39:..\..\..\lvgl\version_6.1.2\lvgl\src\lv_draw/lv_draw_label.c ****  *      MACROS
  40:..\..\..\lvgl\version_6.1.2\lvgl\src\lv_draw/lv_draw_label.c ****  **********************/
  41:..\..\..\lvgl\version_6.1.2\lvgl\src\lv_draw/lv_draw_label.c **** 
  42:..\..\..\lvgl\version_6.1.2\lvgl\src\lv_draw/lv_draw_label.c **** /**********************
  43:..\..\..\lvgl\version_6.1.2\lvgl\src\lv_draw/lv_draw_label.c ****  *   GLOBAL FUNCTIONS
  44:..\..\..\lvgl\version_6.1.2\lvgl\src\lv_draw/lv_draw_label.c ****  **********************/
  45:..\..\..\lvgl\version_6.1.2\lvgl\src\lv_draw/lv_draw_label.c **** 
  46:..\..\..\lvgl\version_6.1.2\lvgl\src\lv_draw/lv_draw_label.c **** /**
  47:..\..\..\lvgl\version_6.1.2\lvgl\src\lv_draw/lv_draw_label.c ****  * Write a text
  48:..\..\..\lvgl\version_6.1.2\lvgl\src\lv_draw/lv_draw_label.c ****  * @param coords coordinates of the label
  49:..\..\..\lvgl\version_6.1.2\lvgl\src\lv_draw/lv_draw_label.c ****  * @param mask the label will be drawn only in this area
  50:..\..\..\lvgl\version_6.1.2\lvgl\src\lv_draw/lv_draw_label.c ****  * @param style pointer to a style
ARM GAS  C:\Users\tmj32\AppData\Local\Temp\ccHxR1NV.s 			page 17


  51:..\..\..\lvgl\version_6.1.2\lvgl\src\lv_draw/lv_draw_label.c ****  * @param opa_scale scale down all opacities by the factor
  52:..\..\..\lvgl\version_6.1.2\lvgl\src\lv_draw/lv_draw_label.c ****  * @param txt 0 terminated text to write
  53:..\..\..\lvgl\version_6.1.2\lvgl\src\lv_draw/lv_draw_label.c ****  * @param flag settings for the text from 'txt_flag_t' enum
  54:..\..\..\lvgl\version_6.1.2\lvgl\src\lv_draw/lv_draw_label.c ****  * @param offset text offset in x and y direction (NULL if unused)
  55:..\..\..\lvgl\version_6.1.2\lvgl\src\lv_draw/lv_draw_label.c ****  * @param sel make the text selected in the range by drawing a background there
  56:..\..\..\lvgl\version_6.1.2\lvgl\src\lv_draw/lv_draw_label.c ****  */
  57:..\..\..\lvgl\version_6.1.2\lvgl\src\lv_draw/lv_draw_label.c **** void lv_draw_label(const lv_area_t * coords, const lv_area_t * mask, const lv_style_t * style, lv_o
  58:..\..\..\lvgl\version_6.1.2\lvgl\src\lv_draw/lv_draw_label.c ****                    const char * txt, lv_txt_flag_t flag, lv_point_t * offset, lv_draw_label_txt_sel
  59:..\..\..\lvgl\version_6.1.2\lvgl\src\lv_draw/lv_draw_label.c ****                    lv_draw_label_hint_t * hint, lv_bidi_dir_t bidi_dir)
  60:..\..\..\lvgl\version_6.1.2\lvgl\src\lv_draw/lv_draw_label.c **** {
 167              		.loc 4 60 0
 168              		.cfi_startproc
 169              		@ args = 24, pretend = 0, frame = 208
 170              		@ frame_needed = 1, uses_anonymous_args = 0
 171 0000 90B5     		push	{r4, r7, lr}
 172              		.cfi_def_cfa_offset 12
 173              		.cfi_offset 4, -12
 174              		.cfi_offset 7, -8
 175              		.cfi_offset 14, -4
 176 0002 B9B0     		sub	sp, sp, #228
 177              		.cfi_def_cfa_offset 240
 178 0004 04AF     		add	r7, sp, #16
 179              		.cfi_def_cfa 7, 224
 180 0006 F860     		str	r0, [r7, #12]
 181 0008 B960     		str	r1, [r7, #8]
 182 000a 7A60     		str	r2, [r7, #4]
 183 000c FB70     		strb	r3, [r7, #3]
  61:..\..\..\lvgl\version_6.1.2\lvgl\src\lv_draw/lv_draw_label.c ****     const lv_font_t * font = style->text.font;
 184              		.loc 4 61 0
 185 000e 7B68     		ldr	r3, [r7, #4]
 186 0010 5B6B     		ldr	r3, [r3, #52]
 187 0012 C7F8AC30 		str	r3, [r7, #172]
  62:..\..\..\lvgl\version_6.1.2\lvgl\src\lv_draw/lv_draw_label.c ****     lv_coord_t w;
  63:..\..\..\lvgl\version_6.1.2\lvgl\src\lv_draw/lv_draw_label.c **** 
  64:..\..\..\lvgl\version_6.1.2\lvgl\src\lv_draw/lv_draw_label.c ****     /*No need to waste processor time if string is empty*/
  65:..\..\..\lvgl\version_6.1.2\lvgl\src\lv_draw/lv_draw_label.c ****     if (txt[0] == '\0')  return;
 188              		.loc 4 65 0
 189 0016 D7F8E030 		ldr	r3, [r7, #224]
 190 001a 1B78     		ldrb	r3, [r3]	@ zero_extendqisi2
 191 001c 002B     		cmp	r3, #0
 192 001e 00F0E283 		beq	.L44
  66:..\..\..\lvgl\version_6.1.2\lvgl\src\lv_draw/lv_draw_label.c **** 
  67:..\..\..\lvgl\version_6.1.2\lvgl\src\lv_draw/lv_draw_label.c ****     if((flag & LV_TXT_FLAG_EXPAND) == 0) {
 193              		.loc 4 67 0
 194 0022 97F8E430 		ldrb	r3, [r7, #228]	@ zero_extendqisi2
 195 0026 03F00203 		and	r3, r3, #2
 196 002a 002B     		cmp	r3, #0
 197 002c 06D1     		bne	.L10
  68:..\..\..\lvgl\version_6.1.2\lvgl\src\lv_draw/lv_draw_label.c ****         /*Normally use the label's width as width*/
  69:..\..\..\lvgl\version_6.1.2\lvgl\src\lv_draw/lv_draw_label.c ****         w = lv_area_get_width(coords);
 198              		.loc 4 69 0
 199 002e F868     		ldr	r0, [r7, #12]
 200 0030 FFF7FEFF 		bl	lv_area_get_width
 201 0034 0346     		mov	r3, r0
 202 0036 A7F8CE30 		strh	r3, [r7, #206]	@ movhi
 203 003a 19E0     		b	.L11
 204              	.L10:
ARM GAS  C:\Users\tmj32\AppData\Local\Temp\ccHxR1NV.s 			page 18


 205              	.LBB2:
  70:..\..\..\lvgl\version_6.1.2\lvgl\src\lv_draw/lv_draw_label.c ****     } else {
  71:..\..\..\lvgl\version_6.1.2\lvgl\src\lv_draw/lv_draw_label.c ****         /*If EXAPND is enabled then not limit the text's width to the object's width*/
  72:..\..\..\lvgl\version_6.1.2\lvgl\src\lv_draw/lv_draw_label.c ****         lv_point_t p;
  73:..\..\..\lvgl\version_6.1.2\lvgl\src\lv_draw/lv_draw_label.c ****         lv_txt_get_size(&p, txt, style->text.font, style->text.letter_space, style->text.line_space
 206              		.loc 4 73 0
 207 003c 7B68     		ldr	r3, [r7, #4]
 208 003e 596B     		ldr	r1, [r3, #52]
 209 0040 7B68     		ldr	r3, [r7, #4]
 210 0042 B3F93840 		ldrsh	r4, [r3, #56]
 211 0046 7B68     		ldr	r3, [r7, #4]
 212 0048 B3F93A30 		ldrsh	r3, [r3, #58]
 213 004c 07F12800 		add	r0, r7, #40
 214 0050 97F8E420 		ldrb	r2, [r7, #228]	@ zero_extendqisi2
 215 0054 0292     		str	r2, [sp, #8]
 216 0056 47F61842 		movw	r2, #31768
 217 005a 0192     		str	r2, [sp, #4]
 218 005c 0093     		str	r3, [sp]
 219 005e 2346     		mov	r3, r4
 220 0060 0A46     		mov	r2, r1
 221 0062 D7F8E010 		ldr	r1, [r7, #224]
 222 0066 FFF7FEFF 		bl	lv_txt_get_size
  74:..\..\..\lvgl\version_6.1.2\lvgl\src\lv_draw/lv_draw_label.c ****                 flag);
  75:..\..\..\lvgl\version_6.1.2\lvgl\src\lv_draw/lv_draw_label.c ****         w = p.x;
 223              		.loc 4 75 0
 224 006a 3B8D     		ldrh	r3, [r7, #40]	@ movhi
 225 006c A7F8CE30 		strh	r3, [r7, #206]	@ movhi
 226              	.L11:
 227              	.LBE2:
  76:..\..\..\lvgl\version_6.1.2\lvgl\src\lv_draw/lv_draw_label.c ****     }
  77:..\..\..\lvgl\version_6.1.2\lvgl\src\lv_draw/lv_draw_label.c **** 
  78:..\..\..\lvgl\version_6.1.2\lvgl\src\lv_draw/lv_draw_label.c ****     lv_coord_t line_height = lv_font_get_line_height(font) + style->text.line_space;
 228              		.loc 4 78 0
 229 0070 D7F8AC00 		ldr	r0, [r7, #172]
 230 0074 FFF7FEFF 		bl	lv_font_get_line_height
 231 0078 0346     		mov	r3, r0
 232 007a 9AB2     		uxth	r2, r3
 233 007c 7B68     		ldr	r3, [r7, #4]
 234 007e B3F93A30 		ldrsh	r3, [r3, #58]
 235 0082 9BB2     		uxth	r3, r3
 236 0084 1344     		add	r3, r3, r2
 237 0086 9BB2     		uxth	r3, r3
 238 0088 A7F8AA30 		strh	r3, [r7, #170]	@ movhi
  79:..\..\..\lvgl\version_6.1.2\lvgl\src\lv_draw/lv_draw_label.c **** 
  80:..\..\..\lvgl\version_6.1.2\lvgl\src\lv_draw/lv_draw_label.c ****     /*Init variables for the first line*/
  81:..\..\..\lvgl\version_6.1.2\lvgl\src\lv_draw/lv_draw_label.c ****     lv_coord_t line_width = 0;
 239              		.loc 4 81 0
 240 008c 0023     		movs	r3, #0
 241 008e A7F8A830 		strh	r3, [r7, #168]	@ movhi
  82:..\..\..\lvgl\version_6.1.2\lvgl\src\lv_draw/lv_draw_label.c ****     lv_point_t pos;
  83:..\..\..\lvgl\version_6.1.2\lvgl\src\lv_draw/lv_draw_label.c ****     pos.x = coords->x1;
 242              		.loc 4 83 0
 243 0092 FB68     		ldr	r3, [r7, #12]
 244 0094 B3F90030 		ldrsh	r3, [r3]
 245 0098 A7F88430 		strh	r3, [r7, #132]	@ movhi
  84:..\..\..\lvgl\version_6.1.2\lvgl\src\lv_draw/lv_draw_label.c ****     pos.y = coords->y1;
 246              		.loc 4 84 0
ARM GAS  C:\Users\tmj32\AppData\Local\Temp\ccHxR1NV.s 			page 19


 247 009c FB68     		ldr	r3, [r7, #12]
 248 009e B3F90230 		ldrsh	r3, [r3, #2]
 249 00a2 A7F88630 		strh	r3, [r7, #134]	@ movhi
  85:..\..\..\lvgl\version_6.1.2\lvgl\src\lv_draw/lv_draw_label.c **** 
  86:..\..\..\lvgl\version_6.1.2\lvgl\src\lv_draw/lv_draw_label.c ****     lv_coord_t x_ofs = 0;
 250              		.loc 4 86 0
 251 00a6 0023     		movs	r3, #0
 252 00a8 A7F8CC30 		strh	r3, [r7, #204]	@ movhi
  87:..\..\..\lvgl\version_6.1.2\lvgl\src\lv_draw/lv_draw_label.c ****     lv_coord_t y_ofs = 0;
 253              		.loc 4 87 0
 254 00ac 0023     		movs	r3, #0
 255 00ae A7F8CA30 		strh	r3, [r7, #202]	@ movhi
  88:..\..\..\lvgl\version_6.1.2\lvgl\src\lv_draw/lv_draw_label.c ****     if(offset != NULL) {
 256              		.loc 4 88 0
 257 00b2 D7F8E830 		ldr	r3, [r7, #232]
 258 00b6 002B     		cmp	r3, #0
 259 00b8 13D0     		beq	.L12
  89:..\..\..\lvgl\version_6.1.2\lvgl\src\lv_draw/lv_draw_label.c ****         x_ofs = offset->x;
 260              		.loc 4 89 0
 261 00ba D7F8E830 		ldr	r3, [r7, #232]
 262 00be 1B88     		ldrh	r3, [r3]	@ movhi
 263 00c0 A7F8CC30 		strh	r3, [r7, #204]	@ movhi
  90:..\..\..\lvgl\version_6.1.2\lvgl\src\lv_draw/lv_draw_label.c ****         y_ofs = offset->y;
 264              		.loc 4 90 0
 265 00c4 D7F8E830 		ldr	r3, [r7, #232]
 266 00c8 5B88     		ldrh	r3, [r3, #2]	@ movhi
 267 00ca A7F8CA30 		strh	r3, [r7, #202]	@ movhi
  91:..\..\..\lvgl\version_6.1.2\lvgl\src\lv_draw/lv_draw_label.c ****         pos.y += y_ofs;
 268              		.loc 4 91 0
 269 00ce B7F98630 		ldrsh	r3, [r7, #134]
 270 00d2 9AB2     		uxth	r2, r3
 271 00d4 B7F8CA30 		ldrh	r3, [r7, #202]
 272 00d8 1344     		add	r3, r3, r2
 273 00da 9BB2     		uxth	r3, r3
 274 00dc 1BB2     		sxth	r3, r3
 275 00de A7F88630 		strh	r3, [r7, #134]	@ movhi
 276              	.L12:
  92:..\..\..\lvgl\version_6.1.2\lvgl\src\lv_draw/lv_draw_label.c ****     }
  93:..\..\..\lvgl\version_6.1.2\lvgl\src\lv_draw/lv_draw_label.c **** 
  94:..\..\..\lvgl\version_6.1.2\lvgl\src\lv_draw/lv_draw_label.c ****     uint32_t line_start     = 0;
 277              		.loc 4 94 0
 278 00e2 0023     		movs	r3, #0
 279 00e4 C7F8C430 		str	r3, [r7, #196]
  95:..\..\..\lvgl\version_6.1.2\lvgl\src\lv_draw/lv_draw_label.c ****     int32_t last_line_start = -1;
 280              		.loc 4 95 0
 281 00e8 4FF0FF33 		mov	r3, #-1
 282 00ec C7F8C030 		str	r3, [r7, #192]
  96:..\..\..\lvgl\version_6.1.2\lvgl\src\lv_draw/lv_draw_label.c **** 
  97:..\..\..\lvgl\version_6.1.2\lvgl\src\lv_draw/lv_draw_label.c ****     /*Check the hint to use the cached info*/
  98:..\..\..\lvgl\version_6.1.2\lvgl\src\lv_draw/lv_draw_label.c ****     if(hint && y_ofs == 0 && coords->y1 < 0) {
 283              		.loc 4 98 0
 284 00f0 D7F8F030 		ldr	r3, [r7, #240]
 285 00f4 002B     		cmp	r3, #0
 286 00f6 24D0     		beq	.L13
 287              		.loc 4 98 0 is_stmt 0 discriminator 1
 288 00f8 B7F9CA30 		ldrsh	r3, [r7, #202]
 289 00fc 002B     		cmp	r3, #0
ARM GAS  C:\Users\tmj32\AppData\Local\Temp\ccHxR1NV.s 			page 20


 290 00fe 20D1     		bne	.L13
 291              		.loc 4 98 0 discriminator 2
 292 0100 FB68     		ldr	r3, [r7, #12]
 293 0102 B3F90230 		ldrsh	r3, [r3, #2]
 294 0106 002B     		cmp	r3, #0
 295 0108 1BDA     		bge	.L13
  99:..\..\..\lvgl\version_6.1.2\lvgl\src\lv_draw/lv_draw_label.c ****         /*If the label changed too much recalculate the hint.*/
 100:..\..\..\lvgl\version_6.1.2\lvgl\src\lv_draw/lv_draw_label.c ****         if(LV_MATH_ABS(hint->coord_y - coords->y1) > LV_LABEL_HINT_UPDATE_TH - 2 * line_height) {
 296              		.loc 4 100 0 is_stmt 1
 297 010a D7F8F030 		ldr	r3, [r7, #240]
 298 010e 9B68     		ldr	r3, [r3, #8]
 299 0110 FA68     		ldr	r2, [r7, #12]
 300 0112 B2F90220 		ldrsh	r2, [r2, #2]
 301 0116 9B1A     		subs	r3, r3, r2
 302 0118 83EAE372 		eor	r2, r3, r3, asr #31
 303 011c A2EBE372 		sub	r2, r2, r3, asr #31
 304 0120 B7F9AA30 		ldrsh	r3, [r7, #170]
 305 0124 C3F50073 		rsb	r3, r3, #512
 306 0128 5B00     		lsls	r3, r3, #1
 307 012a 9A42     		cmp	r2, r3
 308 012c 04DD     		ble	.L14
 101:..\..\..\lvgl\version_6.1.2\lvgl\src\lv_draw/lv_draw_label.c ****             hint->line_start = -1;
 309              		.loc 4 101 0
 310 012e D7F8F030 		ldr	r3, [r7, #240]
 311 0132 4FF0FF32 		mov	r2, #-1
 312 0136 1A60     		str	r2, [r3]
 313              	.L14:
 102:..\..\..\lvgl\version_6.1.2\lvgl\src\lv_draw/lv_draw_label.c ****         }
 103:..\..\..\lvgl\version_6.1.2\lvgl\src\lv_draw/lv_draw_label.c ****         last_line_start = hint->line_start;
 314              		.loc 4 103 0
 315 0138 D7F8F030 		ldr	r3, [r7, #240]
 316 013c 1B68     		ldr	r3, [r3]
 317 013e C7F8C030 		str	r3, [r7, #192]
 318              	.L13:
 104:..\..\..\lvgl\version_6.1.2\lvgl\src\lv_draw/lv_draw_label.c ****     }
 105:..\..\..\lvgl\version_6.1.2\lvgl\src\lv_draw/lv_draw_label.c **** 
 106:..\..\..\lvgl\version_6.1.2\lvgl\src\lv_draw/lv_draw_label.c ****     /*Use the hint if it's valid*/
 107:..\..\..\lvgl\version_6.1.2\lvgl\src\lv_draw/lv_draw_label.c ****     if(hint && last_line_start >= 0) {
 319              		.loc 4 107 0
 320 0142 D7F8F030 		ldr	r3, [r7, #240]
 321 0146 002B     		cmp	r3, #0
 322 0148 13D0     		beq	.L15
 323              		.loc 4 107 0 is_stmt 0 discriminator 1
 324 014a D7F8C030 		ldr	r3, [r7, #192]
 325 014e 002B     		cmp	r3, #0
 326 0150 0FDB     		blt	.L15
 108:..\..\..\lvgl\version_6.1.2\lvgl\src\lv_draw/lv_draw_label.c ****         line_start = last_line_start;
 327              		.loc 4 108 0 is_stmt 1
 328 0152 D7F8C030 		ldr	r3, [r7, #192]
 329 0156 C7F8C430 		str	r3, [r7, #196]
 109:..\..\..\lvgl\version_6.1.2\lvgl\src\lv_draw/lv_draw_label.c ****         pos.y += hint->y;
 330              		.loc 4 109 0
 331 015a B7F98630 		ldrsh	r3, [r7, #134]
 332 015e 9AB2     		uxth	r2, r3
 333 0160 D7F8F030 		ldr	r3, [r7, #240]
 334 0164 5B68     		ldr	r3, [r3, #4]
 335 0166 9BB2     		uxth	r3, r3
ARM GAS  C:\Users\tmj32\AppData\Local\Temp\ccHxR1NV.s 			page 21


 336 0168 1344     		add	r3, r3, r2
 337 016a 9BB2     		uxth	r3, r3
 338 016c 1BB2     		sxth	r3, r3
 339 016e A7F88630 		strh	r3, [r7, #134]	@ movhi
 340              	.L15:
 110:..\..\..\lvgl\version_6.1.2\lvgl\src\lv_draw/lv_draw_label.c ****     }
 111:..\..\..\lvgl\version_6.1.2\lvgl\src\lv_draw/lv_draw_label.c **** 
 112:..\..\..\lvgl\version_6.1.2\lvgl\src\lv_draw/lv_draw_label.c **** 
 113:..\..\..\lvgl\version_6.1.2\lvgl\src\lv_draw/lv_draw_label.c ****     uint32_t line_end = line_start + lv_txt_get_next_line(&txt[line_start], font, style->text.lette
 341              		.loc 4 113 0
 342 0172 D7F8E020 		ldr	r2, [r7, #224]
 343 0176 D7F8C430 		ldr	r3, [r7, #196]
 344 017a D018     		adds	r0, r2, r3
 345 017c 7B68     		ldr	r3, [r7, #4]
 346 017e B3F93820 		ldrsh	r2, [r3, #56]
 347 0182 B7F9CE10 		ldrsh	r1, [r7, #206]
 348 0186 97F8E430 		ldrb	r3, [r7, #228]	@ zero_extendqisi2
 349 018a 0093     		str	r3, [sp]
 350 018c 0B46     		mov	r3, r1
 351 018e D7F8AC10 		ldr	r1, [r7, #172]
 352 0192 FFF7FEFF 		bl	lv_txt_get_next_line
 353 0196 0346     		mov	r3, r0
 354 0198 1A46     		mov	r2, r3
 355 019a D7F8C430 		ldr	r3, [r7, #196]
 356 019e 1344     		add	r3, r3, r2
 357 01a0 C7F8BC30 		str	r3, [r7, #188]
 114:..\..\..\lvgl\version_6.1.2\lvgl\src\lv_draw/lv_draw_label.c **** 
 115:..\..\..\lvgl\version_6.1.2\lvgl\src\lv_draw/lv_draw_label.c ****     /*Go the first visible line*/
 116:..\..\..\lvgl\version_6.1.2\lvgl\src\lv_draw/lv_draw_label.c ****     while(pos.y + line_height < mask->y1) {
 358              		.loc 4 116 0
 359 01a4 53E0     		b	.L16
 360              	.L18:
 117:..\..\..\lvgl\version_6.1.2\lvgl\src\lv_draw/lv_draw_label.c ****         /*Go to next line*/
 118:..\..\..\lvgl\version_6.1.2\lvgl\src\lv_draw/lv_draw_label.c ****         line_start = line_end;
 361              		.loc 4 118 0
 362 01a6 D7F8BC30 		ldr	r3, [r7, #188]
 363 01aa C7F8C430 		str	r3, [r7, #196]
 119:..\..\..\lvgl\version_6.1.2\lvgl\src\lv_draw/lv_draw_label.c ****         line_end += lv_txt_get_next_line(&txt[line_start], font, style->text.letter_space, w, flag)
 364              		.loc 4 119 0
 365 01ae D7F8E020 		ldr	r2, [r7, #224]
 366 01b2 D7F8C430 		ldr	r3, [r7, #196]
 367 01b6 D018     		adds	r0, r2, r3
 368 01b8 7B68     		ldr	r3, [r7, #4]
 369 01ba B3F93820 		ldrsh	r2, [r3, #56]
 370 01be B7F9CE10 		ldrsh	r1, [r7, #206]
 371 01c2 97F8E430 		ldrb	r3, [r7, #228]	@ zero_extendqisi2
 372 01c6 0093     		str	r3, [sp]
 373 01c8 0B46     		mov	r3, r1
 374 01ca D7F8AC10 		ldr	r1, [r7, #172]
 375 01ce FFF7FEFF 		bl	lv_txt_get_next_line
 376 01d2 0346     		mov	r3, r0
 377 01d4 1A46     		mov	r2, r3
 378 01d6 D7F8BC30 		ldr	r3, [r7, #188]
 379 01da 1344     		add	r3, r3, r2
 380 01dc C7F8BC30 		str	r3, [r7, #188]
 120:..\..\..\lvgl\version_6.1.2\lvgl\src\lv_draw/lv_draw_label.c ****         pos.y += line_height;
 381              		.loc 4 120 0
ARM GAS  C:\Users\tmj32\AppData\Local\Temp\ccHxR1NV.s 			page 22


 382 01e0 B7F98630 		ldrsh	r3, [r7, #134]
 383 01e4 9AB2     		uxth	r2, r3
 384 01e6 B7F8AA30 		ldrh	r3, [r7, #170]
 385 01ea 1344     		add	r3, r3, r2
 386 01ec 9BB2     		uxth	r3, r3
 387 01ee 1BB2     		sxth	r3, r3
 388 01f0 A7F88630 		strh	r3, [r7, #134]	@ movhi
 121:..\..\..\lvgl\version_6.1.2\lvgl\src\lv_draw/lv_draw_label.c **** 
 122:..\..\..\lvgl\version_6.1.2\lvgl\src\lv_draw/lv_draw_label.c ****         /*Save at the threshold coordinate*/
 123:..\..\..\lvgl\version_6.1.2\lvgl\src\lv_draw/lv_draw_label.c ****         if(hint && pos.y >= -LV_LABEL_HINT_UPDATE_TH && hint->line_start < 0) {
 389              		.loc 4 123 0
 390 01f4 D7F8F030 		ldr	r3, [r7, #240]
 391 01f8 002B     		cmp	r3, #0
 392 01fa 1FD0     		beq	.L17
 393              		.loc 4 123 0 is_stmt 0 discriminator 1
 394 01fc B7F98630 		ldrsh	r3, [r7, #134]
 395 0200 13F5806F 		cmn	r3, #1024
 396 0204 1ADB     		blt	.L17
 397              		.loc 4 123 0 discriminator 2
 398 0206 D7F8F030 		ldr	r3, [r7, #240]
 399 020a 1B68     		ldr	r3, [r3]
 400 020c 002B     		cmp	r3, #0
 401 020e 15DA     		bge	.L17
 124:..\..\..\lvgl\version_6.1.2\lvgl\src\lv_draw/lv_draw_label.c ****             hint->line_start = line_start;
 402              		.loc 4 124 0 is_stmt 1
 403 0210 D7F8C420 		ldr	r2, [r7, #196]
 404 0214 D7F8F030 		ldr	r3, [r7, #240]
 405 0218 1A60     		str	r2, [r3]
 125:..\..\..\lvgl\version_6.1.2\lvgl\src\lv_draw/lv_draw_label.c ****             hint->y          = pos.y - coords->y1;
 406              		.loc 4 125 0
 407 021a B7F98630 		ldrsh	r3, [r7, #134]
 408 021e 1A46     		mov	r2, r3
 409 0220 FB68     		ldr	r3, [r7, #12]
 410 0222 B3F90230 		ldrsh	r3, [r3, #2]
 411 0226 D21A     		subs	r2, r2, r3
 412 0228 D7F8F030 		ldr	r3, [r7, #240]
 413 022c 5A60     		str	r2, [r3, #4]
 126:..\..\..\lvgl\version_6.1.2\lvgl\src\lv_draw/lv_draw_label.c ****             hint->coord_y    = coords->y1;
 414              		.loc 4 126 0
 415 022e FB68     		ldr	r3, [r7, #12]
 416 0230 B3F90230 		ldrsh	r3, [r3, #2]
 417 0234 1A46     		mov	r2, r3
 418 0236 D7F8F030 		ldr	r3, [r7, #240]
 419 023a 9A60     		str	r2, [r3, #8]
 420              	.L17:
 127:..\..\..\lvgl\version_6.1.2\lvgl\src\lv_draw/lv_draw_label.c ****         }
 128:..\..\..\lvgl\version_6.1.2\lvgl\src\lv_draw/lv_draw_label.c **** 
 129:..\..\..\lvgl\version_6.1.2\lvgl\src\lv_draw/lv_draw_label.c ****         if(txt[line_start] == '\0') return;
 421              		.loc 4 129 0
 422 023c D7F8E020 		ldr	r2, [r7, #224]
 423 0240 D7F8C430 		ldr	r3, [r7, #196]
 424 0244 1344     		add	r3, r3, r2
 425 0246 1B78     		ldrb	r3, [r3]	@ zero_extendqisi2
 426 0248 002B     		cmp	r3, #0
 427 024a 00F0CE82 		beq	.L45
 428              	.L16:
 116:..\..\..\lvgl\version_6.1.2\lvgl\src\lv_draw/lv_draw_label.c ****         /*Go to next line*/
ARM GAS  C:\Users\tmj32\AppData\Local\Temp\ccHxR1NV.s 			page 23


 429              		.loc 4 116 0
 430 024e B7F98630 		ldrsh	r3, [r7, #134]
 431 0252 1A46     		mov	r2, r3
 432 0254 B7F9AA30 		ldrsh	r3, [r7, #170]
 433 0258 1344     		add	r3, r3, r2
 434 025a BA68     		ldr	r2, [r7, #8]
 435 025c B2F90220 		ldrsh	r2, [r2, #2]
 436 0260 9342     		cmp	r3, r2
 437 0262 A0DB     		blt	.L18
 130:..\..\..\lvgl\version_6.1.2\lvgl\src\lv_draw/lv_draw_label.c ****     }
 131:..\..\..\lvgl\version_6.1.2\lvgl\src\lv_draw/lv_draw_label.c **** 
 132:..\..\..\lvgl\version_6.1.2\lvgl\src\lv_draw/lv_draw_label.c ****     /*Align to middle*/
 133:..\..\..\lvgl\version_6.1.2\lvgl\src\lv_draw/lv_draw_label.c ****     if(flag & LV_TXT_FLAG_CENTER) {
 438              		.loc 4 133 0
 439 0264 97F8E430 		ldrb	r3, [r7, #228]	@ zero_extendqisi2
 440 0268 03F00403 		and	r3, r3, #4
 441 026c 002B     		cmp	r3, #0
 442 026e 30D0     		beq	.L19
 134:..\..\..\lvgl\version_6.1.2\lvgl\src\lv_draw/lv_draw_label.c ****         line_width = lv_txt_get_width(&txt[line_start], line_end - line_start, font, style->text.le
 443              		.loc 4 134 0
 444 0270 D7F8E020 		ldr	r2, [r7, #224]
 445 0274 D7F8C430 		ldr	r3, [r7, #196]
 446 0278 D018     		adds	r0, r2, r3
 447 027a D7F8BC30 		ldr	r3, [r7, #188]
 448 027e 9AB2     		uxth	r2, r3
 449 0280 D7F8C430 		ldr	r3, [r7, #196]
 450 0284 9BB2     		uxth	r3, r3
 451 0286 D31A     		subs	r3, r2, r3
 452 0288 99B2     		uxth	r1, r3
 453 028a 7B68     		ldr	r3, [r7, #4]
 454 028c B3F93820 		ldrsh	r2, [r3, #56]
 455 0290 97F8E430 		ldrb	r3, [r7, #228]	@ zero_extendqisi2
 456 0294 0093     		str	r3, [sp]
 457 0296 1346     		mov	r3, r2
 458 0298 D7F8AC20 		ldr	r2, [r7, #172]
 459 029c FFF7FEFF 		bl	lv_txt_get_width
 460 02a0 0346     		mov	r3, r0
 461 02a2 A7F8A830 		strh	r3, [r7, #168]	@ movhi
 135:..\..\..\lvgl\version_6.1.2\lvgl\src\lv_draw/lv_draw_label.c **** 
 136:..\..\..\lvgl\version_6.1.2\lvgl\src\lv_draw/lv_draw_label.c ****         pos.x += (lv_area_get_width(coords) - line_width) / 2;
 462              		.loc 4 136 0
 463 02a6 F868     		ldr	r0, [r7, #12]
 464 02a8 FFF7FEFF 		bl	lv_area_get_width
 465 02ac 0346     		mov	r3, r0
 466 02ae 1A46     		mov	r2, r3
 467 02b0 B7F9A830 		ldrsh	r3, [r7, #168]
 468 02b4 D31A     		subs	r3, r2, r3
 469 02b6 DA0F     		lsrs	r2, r3, #31
 470 02b8 1344     		add	r3, r3, r2
 471 02ba 5B10     		asrs	r3, r3, #1
 472 02bc 1946     		mov	r1, r3
 473 02be B7F98430 		ldrsh	r3, [r7, #132]
 474 02c2 9AB2     		uxth	r2, r3
 475 02c4 8BB2     		uxth	r3, r1
 476 02c6 1344     		add	r3, r3, r2
 477 02c8 9BB2     		uxth	r3, r3
 478 02ca 1BB2     		sxth	r3, r3
ARM GAS  C:\Users\tmj32\AppData\Local\Temp\ccHxR1NV.s 			page 24


 479 02cc A7F88430 		strh	r3, [r7, #132]	@ movhi
 480 02d0 31E0     		b	.L20
 481              	.L19:
 137:..\..\..\lvgl\version_6.1.2\lvgl\src\lv_draw/lv_draw_label.c **** 
 138:..\..\..\lvgl\version_6.1.2\lvgl\src\lv_draw/lv_draw_label.c ****     }
 139:..\..\..\lvgl\version_6.1.2\lvgl\src\lv_draw/lv_draw_label.c ****     /*Align to the right*/
 140:..\..\..\lvgl\version_6.1.2\lvgl\src\lv_draw/lv_draw_label.c ****     else if(flag & LV_TXT_FLAG_RIGHT) {
 482              		.loc 4 140 0
 483 02d2 97F8E430 		ldrb	r3, [r7, #228]	@ zero_extendqisi2
 484 02d6 03F00803 		and	r3, r3, #8
 485 02da 002B     		cmp	r3, #0
 486 02dc 2BD0     		beq	.L20
 141:..\..\..\lvgl\version_6.1.2\lvgl\src\lv_draw/lv_draw_label.c ****         line_width = lv_txt_get_width(&txt[line_start], line_end - line_start, font, style->text.le
 487              		.loc 4 141 0
 488 02de D7F8E020 		ldr	r2, [r7, #224]
 489 02e2 D7F8C430 		ldr	r3, [r7, #196]
 490 02e6 D018     		adds	r0, r2, r3
 491 02e8 D7F8BC30 		ldr	r3, [r7, #188]
 492 02ec 9AB2     		uxth	r2, r3
 493 02ee D7F8C430 		ldr	r3, [r7, #196]
 494 02f2 9BB2     		uxth	r3, r3
 495 02f4 D31A     		subs	r3, r2, r3
 496 02f6 99B2     		uxth	r1, r3
 497 02f8 7B68     		ldr	r3, [r7, #4]
 498 02fa B3F93820 		ldrsh	r2, [r3, #56]
 499 02fe 97F8E430 		ldrb	r3, [r7, #228]	@ zero_extendqisi2
 500 0302 0093     		str	r3, [sp]
 501 0304 1346     		mov	r3, r2
 502 0306 D7F8AC20 		ldr	r2, [r7, #172]
 503 030a FFF7FEFF 		bl	lv_txt_get_width
 504 030e 0346     		mov	r3, r0
 505 0310 A7F8A830 		strh	r3, [r7, #168]	@ movhi
 142:..\..\..\lvgl\version_6.1.2\lvgl\src\lv_draw/lv_draw_label.c ****         pos.x += lv_area_get_width(coords) - line_width;
 506              		.loc 4 142 0
 507 0314 F868     		ldr	r0, [r7, #12]
 508 0316 FFF7FEFF 		bl	lv_area_get_width
 509 031a 0346     		mov	r3, r0
 510 031c 1A46     		mov	r2, r3
 511 031e B7F9A830 		ldrsh	r3, [r7, #168]
 512 0322 D31A     		subs	r3, r2, r3
 513 0324 B7F98420 		ldrsh	r2, [r7, #132]
 514 0328 92B2     		uxth	r2, r2
 515 032a 9BB2     		uxth	r3, r3
 516 032c 1344     		add	r3, r3, r2
 517 032e 9BB2     		uxth	r3, r3
 518 0330 1BB2     		sxth	r3, r3
 519 0332 A7F88430 		strh	r3, [r7, #132]	@ movhi
 520              	.L20:
 143:..\..\..\lvgl\version_6.1.2\lvgl\src\lv_draw/lv_draw_label.c ****     }
 144:..\..\..\lvgl\version_6.1.2\lvgl\src\lv_draw/lv_draw_label.c **** 
 145:..\..\..\lvgl\version_6.1.2\lvgl\src\lv_draw/lv_draw_label.c ****     lv_opa_t opa = opa_scale == LV_OPA_COVER ? style->text.opa : (uint16_t)((uint16_t)style->text.o
 521              		.loc 4 145 0
 522 0336 FB78     		ldrb	r3, [r7, #3]	@ zero_extendqisi2
 523 0338 FF2B     		cmp	r3, #255
 524 033a 03D1     		bne	.L21
 525              		.loc 4 145 0 is_stmt 0 discriminator 1
 526 033c 7B68     		ldr	r3, [r7, #4]
ARM GAS  C:\Users\tmj32\AppData\Local\Temp\ccHxR1NV.s 			page 25


 527 033e 93F83C30 		ldrb	r3, [r3, #60]	@ zero_extendqisi2
 528 0342 0BE0     		b	.L22
 529              	.L21:
 530              		.loc 4 145 0 discriminator 2
 531 0344 7B68     		ldr	r3, [r7, #4]
 532 0346 93F83C30 		ldrb	r3, [r3, #60]	@ zero_extendqisi2
 533 034a 9AB2     		uxth	r2, r3
 534 034c FB78     		ldrb	r3, [r7, #3]	@ zero_extendqisi2
 535 034e 9BB2     		uxth	r3, r3
 536 0350 12FB03F3 		smulbb	r3, r2, r3
 537 0354 9BB2     		uxth	r3, r3
 538 0356 1B0A     		lsrs	r3, r3, #8
 539 0358 9BB2     		uxth	r3, r3
 540 035a DBB2     		uxtb	r3, r3
 541              	.L22:
 542              		.loc 4 145 0 discriminator 4
 543 035c 87F8A730 		strb	r3, [r7, #167]
 146:..\..\..\lvgl\version_6.1.2\lvgl\src\lv_draw/lv_draw_label.c **** 
 147:..\..\..\lvgl\version_6.1.2\lvgl\src\lv_draw/lv_draw_label.c ****     uint16_t sel_start = 0xFFFF;
 544              		.loc 4 147 0 is_stmt 1 discriminator 4
 545 0360 4FF6FF73 		movw	r3, #65535
 546 0364 A7F8BA30 		strh	r3, [r7, #186]	@ movhi
 148:..\..\..\lvgl\version_6.1.2\lvgl\src\lv_draw/lv_draw_label.c ****     uint16_t sel_end = 0xFFFF;
 547              		.loc 4 148 0 discriminator 4
 548 0368 4FF6FF73 		movw	r3, #65535
 549 036c A7F8B830 		strh	r3, [r7, #184]	@ movhi
 149:..\..\..\lvgl\version_6.1.2\lvgl\src\lv_draw/lv_draw_label.c ****     if(sel) {
 550              		.loc 4 149 0 discriminator 4
 551 0370 D7F8EC30 		ldr	r3, [r7, #236]
 552 0374 002B     		cmp	r3, #0
 553 0376 1BD0     		beq	.L23
 150:..\..\..\lvgl\version_6.1.2\lvgl\src\lv_draw/lv_draw_label.c ****         sel_start = sel->start;
 554              		.loc 4 150 0
 555 0378 D7F8EC30 		ldr	r3, [r7, #236]
 556 037c 1B88     		ldrh	r3, [r3]	@ movhi
 557 037e A7F8BA30 		strh	r3, [r7, #186]	@ movhi
 151:..\..\..\lvgl\version_6.1.2\lvgl\src\lv_draw/lv_draw_label.c ****         sel_end = sel->end;
 558              		.loc 4 151 0
 559 0382 D7F8EC30 		ldr	r3, [r7, #236]
 560 0386 5B88     		ldrh	r3, [r3, #2]	@ movhi
 561 0388 A7F8B830 		strh	r3, [r7, #184]	@ movhi
 152:..\..\..\lvgl\version_6.1.2\lvgl\src\lv_draw/lv_draw_label.c ****         if(sel_start > sel_end) {
 562              		.loc 4 152 0
 563 038c B7F8BA20 		ldrh	r2, [r7, #186]
 564 0390 B7F8B830 		ldrh	r3, [r7, #184]
 565 0394 9A42     		cmp	r2, r3
 566 0396 0BD9     		bls	.L23
 567              	.LBB3:
 153:..\..\..\lvgl\version_6.1.2\lvgl\src\lv_draw/lv_draw_label.c ****             uint16_t tmp = sel_start;
 568              		.loc 4 153 0
 569 0398 B7F8BA30 		ldrh	r3, [r7, #186]	@ movhi
 570 039c A7F8A430 		strh	r3, [r7, #164]	@ movhi
 154:..\..\..\lvgl\version_6.1.2\lvgl\src\lv_draw/lv_draw_label.c ****             sel_start = sel_end;
 571              		.loc 4 154 0
 572 03a0 B7F8B830 		ldrh	r3, [r7, #184]	@ movhi
 573 03a4 A7F8BA30 		strh	r3, [r7, #186]	@ movhi
 155:..\..\..\lvgl\version_6.1.2\lvgl\src\lv_draw/lv_draw_label.c ****             sel_end = tmp;
ARM GAS  C:\Users\tmj32\AppData\Local\Temp\ccHxR1NV.s 			page 26


 574              		.loc 4 155 0
 575 03a8 B7F8A430 		ldrh	r3, [r7, #164]	@ movhi
 576 03ac A7F8B830 		strh	r3, [r7, #184]	@ movhi
 577              	.L23:
 578              	.LBE3:
 156:..\..\..\lvgl\version_6.1.2\lvgl\src\lv_draw/lv_draw_label.c ****         }
 157:..\..\..\lvgl\version_6.1.2\lvgl\src\lv_draw/lv_draw_label.c ****     }
 158:..\..\..\lvgl\version_6.1.2\lvgl\src\lv_draw/lv_draw_label.c **** 
 159:..\..\..\lvgl\version_6.1.2\lvgl\src\lv_draw/lv_draw_label.c ****     cmd_state_t cmd_state = CMD_STATE_WAIT;
 579              		.loc 4 159 0
 580 03b0 0023     		movs	r3, #0
 581 03b2 87F8B730 		strb	r3, [r7, #183]
 160:..\..\..\lvgl\version_6.1.2\lvgl\src\lv_draw/lv_draw_label.c ****     uint32_t i;
 161:..\..\..\lvgl\version_6.1.2\lvgl\src\lv_draw/lv_draw_label.c ****     uint16_t par_start = 0;
 582              		.loc 4 161 0
 583 03b6 0023     		movs	r3, #0
 584 03b8 A7F8B430 		strh	r3, [r7, #180]	@ movhi
 162:..\..\..\lvgl\version_6.1.2\lvgl\src\lv_draw/lv_draw_label.c ****     lv_color_t recolor;
 163:..\..\..\lvgl\version_6.1.2\lvgl\src\lv_draw/lv_draw_label.c ****     lv_coord_t letter_w;
 164:..\..\..\lvgl\version_6.1.2\lvgl\src\lv_draw/lv_draw_label.c ****     lv_style_t sel_style;
 165:..\..\..\lvgl\version_6.1.2\lvgl\src\lv_draw/lv_draw_label.c ****     lv_style_copy(&sel_style, &lv_style_plain_color);
 585              		.loc 4 165 0
 586 03bc 07F12C03 		add	r3, r7, #44
 587 03c0 AD49     		ldr	r1, .L48
 588 03c2 1846     		mov	r0, r3
 589 03c4 FFF7FEFF 		bl	lv_style_copy
 166:..\..\..\lvgl\version_6.1.2\lvgl\src\lv_draw/lv_draw_label.c ****     sel_style.body.main_color = sel_style.body.grad_color = style->text.sel_color;
 590              		.loc 4 166 0
 591 03c8 7B68     		ldr	r3, [r7, #4]
 592 03ca 1B6B     		ldr	r3, [r3, #48]
 593 03cc 7B63     		str	r3, [r7, #52]
 594 03ce 7B6B     		ldr	r3, [r7, #52]
 595 03d0 3B63     		str	r3, [r7, #48]
 167:..\..\..\lvgl\version_6.1.2\lvgl\src\lv_draw/lv_draw_label.c **** 
 168:..\..\..\lvgl\version_6.1.2\lvgl\src\lv_draw/lv_draw_label.c ****     /*Write out all lines*/
 169:..\..\..\lvgl\version_6.1.2\lvgl\src\lv_draw/lv_draw_label.c ****     while(txt[line_start] != '\0') {
 596              		.loc 4 169 0
 597 03d2 FEE1     		b	.L24
 598              	.L42:
 599              	.LBB4:
 170:..\..\..\lvgl\version_6.1.2\lvgl\src\lv_draw/lv_draw_label.c ****         if(offset != NULL) {
 600              		.loc 4 170 0
 601 03d4 D7F8E830 		ldr	r3, [r7, #232]
 602 03d8 002B     		cmp	r3, #0
 603 03da 09D0     		beq	.L25
 171:..\..\..\lvgl\version_6.1.2\lvgl\src\lv_draw/lv_draw_label.c ****             pos.x += x_ofs;
 604              		.loc 4 171 0
 605 03dc B7F98430 		ldrsh	r3, [r7, #132]
 606 03e0 9AB2     		uxth	r2, r3
 607 03e2 B7F8CC30 		ldrh	r3, [r7, #204]
 608 03e6 1344     		add	r3, r3, r2
 609 03e8 9BB2     		uxth	r3, r3
 610 03ea 1BB2     		sxth	r3, r3
 611 03ec A7F88430 		strh	r3, [r7, #132]	@ movhi
 612              	.L25:
 172:..\..\..\lvgl\version_6.1.2\lvgl\src\lv_draw/lv_draw_label.c ****         }
 173:..\..\..\lvgl\version_6.1.2\lvgl\src\lv_draw/lv_draw_label.c ****         /*Write all letter of a line*/
ARM GAS  C:\Users\tmj32\AppData\Local\Temp\ccHxR1NV.s 			page 27


 174:..\..\..\lvgl\version_6.1.2\lvgl\src\lv_draw/lv_draw_label.c ****         cmd_state = CMD_STATE_WAIT;
 613              		.loc 4 174 0
 614 03f0 0023     		movs	r3, #0
 615 03f2 87F8B730 		strb	r3, [r7, #183]
 175:..\..\..\lvgl\version_6.1.2\lvgl\src\lv_draw/lv_draw_label.c ****         i         = 0;
 616              		.loc 4 175 0
 617 03f6 0023     		movs	r3, #0
 618 03f8 C7F88030 		str	r3, [r7, #128]
 176:..\..\..\lvgl\version_6.1.2\lvgl\src\lv_draw/lv_draw_label.c ****         uint32_t letter;
 177:..\..\..\lvgl\version_6.1.2\lvgl\src\lv_draw/lv_draw_label.c ****         uint32_t letter_next;
 178:..\..\..\lvgl\version_6.1.2\lvgl\src\lv_draw/lv_draw_label.c **** #if LV_USE_BIDI
 179:..\..\..\lvgl\version_6.1.2\lvgl\src\lv_draw/lv_draw_label.c ****         char *bidi_txt = lv_draw_get_buf(line_end - line_start + 1);
 180:..\..\..\lvgl\version_6.1.2\lvgl\src\lv_draw/lv_draw_label.c ****         lv_bidi_process_paragraph(txt + line_start, bidi_txt, line_end - line_start, bidi_dir, NULL
 181:..\..\..\lvgl\version_6.1.2\lvgl\src\lv_draw/lv_draw_label.c **** #else
 182:..\..\..\lvgl\version_6.1.2\lvgl\src\lv_draw/lv_draw_label.c ****         (void)bidi_dir;
 183:..\..\..\lvgl\version_6.1.2\lvgl\src\lv_draw/lv_draw_label.c ****         const char *bidi_txt = txt + line_start;
 619              		.loc 4 183 0
 620 03fc D7F8E020 		ldr	r2, [r7, #224]
 621 0400 D7F8C430 		ldr	r3, [r7, #196]
 622 0404 1344     		add	r3, r3, r2
 623 0406 C7F8A030 		str	r3, [r7, #160]
 184:..\..\..\lvgl\version_6.1.2\lvgl\src\lv_draw/lv_draw_label.c **** #endif
 185:..\..\..\lvgl\version_6.1.2\lvgl\src\lv_draw/lv_draw_label.c **** 
 186:..\..\..\lvgl\version_6.1.2\lvgl\src\lv_draw/lv_draw_label.c ****         while(i < line_end - line_start) {
 624              		.loc 4 186 0
 625 040a 3CE1     		b	.L26
 626              	.L39:
 627              	.LBB5:
 187:..\..\..\lvgl\version_6.1.2\lvgl\src\lv_draw/lv_draw_label.c ****             uint16_t logical_char_pos = 0;
 628              		.loc 4 187 0
 629 040c 0023     		movs	r3, #0
 630 040e A7F8B230 		strh	r3, [r7, #178]	@ movhi
 188:..\..\..\lvgl\version_6.1.2\lvgl\src\lv_draw/lv_draw_label.c ****             if(sel_start != 0xFFFF && sel_end != 0xFFFF) {
 631              		.loc 4 188 0
 632 0412 B7F8BA30 		ldrh	r3, [r7, #186]
 633 0416 4FF6FF72 		movw	r2, #65535
 634 041a 9342     		cmp	r3, r2
 635 041c 13D0     		beq	.L27
 636              		.loc 4 188 0 is_stmt 0 discriminator 1
 637 041e B7F8B830 		ldrh	r3, [r7, #184]
 638 0422 4FF6FF72 		movw	r2, #65535
 639 0426 9342     		cmp	r3, r2
 640 0428 0DD0     		beq	.L27
 189:..\..\..\lvgl\version_6.1.2\lvgl\src\lv_draw/lv_draw_label.c **** #if LV_USE_BIDI
 190:..\..\..\lvgl\version_6.1.2\lvgl\src\lv_draw/lv_draw_label.c ****                 logical_char_pos = lv_txt_encoded_get_char_id(txt, line_start);
 191:..\..\..\lvgl\version_6.1.2\lvgl\src\lv_draw/lv_draw_label.c ****                 uint16_t t = lv_txt_encoded_get_char_id(bidi_txt, i);
 192:..\..\..\lvgl\version_6.1.2\lvgl\src\lv_draw/lv_draw_label.c ****                 logical_char_pos += lv_bidi_get_logical_pos(bidi_txt, NULL, line_end - line_start, 
 193:..\..\..\lvgl\version_6.1.2\lvgl\src\lv_draw/lv_draw_label.c **** #else
 194:..\..\..\lvgl\version_6.1.2\lvgl\src\lv_draw/lv_draw_label.c ****                 logical_char_pos = lv_txt_encoded_get_char_id(txt, line_start + i);
 641              		.loc 4 194 0 is_stmt 1
 642 042a 944B     		ldr	r3, .L48+4
 643 042c 1B68     		ldr	r3, [r3]
 644 042e D7F88010 		ldr	r1, [r7, #128]
 645 0432 D7F8C420 		ldr	r2, [r7, #196]
 646 0436 0A44     		add	r2, r2, r1
 647 0438 1146     		mov	r1, r2
 648 043a D7F8E000 		ldr	r0, [r7, #224]
ARM GAS  C:\Users\tmj32\AppData\Local\Temp\ccHxR1NV.s 			page 28


 649 043e 9847     		blx	r3
 650 0440 0346     		mov	r3, r0
 651 0442 A7F8B230 		strh	r3, [r7, #178]	@ movhi
 652              	.L27:
 195:..\..\..\lvgl\version_6.1.2\lvgl\src\lv_draw/lv_draw_label.c **** #endif
 196:..\..\..\lvgl\version_6.1.2\lvgl\src\lv_draw/lv_draw_label.c ****             }
 197:..\..\..\lvgl\version_6.1.2\lvgl\src\lv_draw/lv_draw_label.c **** 
 198:..\..\..\lvgl\version_6.1.2\lvgl\src\lv_draw/lv_draw_label.c ****             letter      = lv_txt_encoded_next(bidi_txt, &i);
 653              		.loc 4 198 0
 654 0446 8E4B     		ldr	r3, .L48+8
 655 0448 1B68     		ldr	r3, [r3]
 656 044a 07F18002 		add	r2, r7, #128
 657 044e 1146     		mov	r1, r2
 658 0450 D7F8A000 		ldr	r0, [r7, #160]
 659 0454 9847     		blx	r3
 660 0456 C7F89C00 		str	r0, [r7, #156]
 199:..\..\..\lvgl\version_6.1.2\lvgl\src\lv_draw/lv_draw_label.c ****             letter_next = lv_txt_encoded_next(&bidi_txt[i], NULL);
 661              		.loc 4 199 0
 662 045a 894B     		ldr	r3, .L48+8
 663 045c 1B68     		ldr	r3, [r3]
 664 045e D7F88020 		ldr	r2, [r7, #128]
 665 0462 D7F8A010 		ldr	r1, [r7, #160]
 666 0466 0A44     		add	r2, r2, r1
 667 0468 0021     		movs	r1, #0
 668 046a 1046     		mov	r0, r2
 669 046c 9847     		blx	r3
 670 046e C7F89800 		str	r0, [r7, #152]
 200:..\..\..\lvgl\version_6.1.2\lvgl\src\lv_draw/lv_draw_label.c **** 
 201:..\..\..\lvgl\version_6.1.2\lvgl\src\lv_draw/lv_draw_label.c **** 
 202:..\..\..\lvgl\version_6.1.2\lvgl\src\lv_draw/lv_draw_label.c ****             /*Handle the re-color command*/
 203:..\..\..\lvgl\version_6.1.2\lvgl\src\lv_draw/lv_draw_label.c ****             if((flag & LV_TXT_FLAG_RECOLOR) != 0) {
 671              		.loc 4 203 0
 672 0472 97F8E430 		ldrb	r3, [r7, #228]	@ zero_extendqisi2
 673 0476 03F00103 		and	r3, r3, #1
 674 047a 002B     		cmp	r3, #0
 675 047c 00F08280 		beq	.L28
 204:..\..\..\lvgl\version_6.1.2\lvgl\src\lv_draw/lv_draw_label.c ****                 if(letter == (uint32_t)LV_TXT_COLOR_CMD[0]) {
 676              		.loc 4 204 0
 677 0480 2323     		movs	r3, #35
 678 0482 1A46     		mov	r2, r3
 679 0484 D7F89C30 		ldr	r3, [r7, #156]
 680 0488 9A42     		cmp	r2, r3
 681 048a 1BD1     		bne	.L29
 205:..\..\..\lvgl\version_6.1.2\lvgl\src\lv_draw/lv_draw_label.c ****                     if(cmd_state == CMD_STATE_WAIT) { /*Start char*/
 682              		.loc 4 205 0
 683 048c 97F8B730 		ldrb	r3, [r7, #183]	@ zero_extendqisi2
 684 0490 002B     		cmp	r3, #0
 685 0492 07D1     		bne	.L30
 206:..\..\..\lvgl\version_6.1.2\lvgl\src\lv_draw/lv_draw_label.c ****                         par_start = i;
 686              		.loc 4 206 0
 687 0494 D7F88030 		ldr	r3, [r7, #128]
 688 0498 A7F8B430 		strh	r3, [r7, #180]	@ movhi
 207:..\..\..\lvgl\version_6.1.2\lvgl\src\lv_draw/lv_draw_label.c ****                         cmd_state = CMD_STATE_PAR;
 689              		.loc 4 207 0
 690 049c 0123     		movs	r3, #1
 691 049e 87F8B730 		strb	r3, [r7, #183]
 208:..\..\..\lvgl\version_6.1.2\lvgl\src\lv_draw/lv_draw_label.c ****                         continue;
ARM GAS  C:\Users\tmj32\AppData\Local\Temp\ccHxR1NV.s 			page 29


 692              		.loc 4 208 0
 693 04a2 F0E0     		b	.L26
 694              	.L30:
 209:..\..\..\lvgl\version_6.1.2\lvgl\src\lv_draw/lv_draw_label.c ****                     } else if(cmd_state == CMD_STATE_PAR) { /*Other start char in parameter escaped
 695              		.loc 4 209 0
 696 04a4 97F8B730 		ldrb	r3, [r7, #183]	@ zero_extendqisi2
 697 04a8 012B     		cmp	r3, #1
 698 04aa 03D1     		bne	.L32
 210:..\..\..\lvgl\version_6.1.2\lvgl\src\lv_draw/lv_draw_label.c ****                         cmd_state = CMD_STATE_WAIT;
 699              		.loc 4 210 0
 700 04ac 0023     		movs	r3, #0
 701 04ae 87F8B730 		strb	r3, [r7, #183]
 702 04b2 07E0     		b	.L29
 703              	.L32:
 211:..\..\..\lvgl\version_6.1.2\lvgl\src\lv_draw/lv_draw_label.c ****                     } else if(cmd_state == CMD_STATE_IN) { /*Command end */
 704              		.loc 4 211 0
 705 04b4 97F8B730 		ldrb	r3, [r7, #183]	@ zero_extendqisi2
 706 04b8 022B     		cmp	r3, #2
 707 04ba 03D1     		bne	.L29
 212:..\..\..\lvgl\version_6.1.2\lvgl\src\lv_draw/lv_draw_label.c ****                         cmd_state = CMD_STATE_WAIT;
 708              		.loc 4 212 0
 709 04bc 0023     		movs	r3, #0
 710 04be 87F8B730 		strb	r3, [r7, #183]
 213:..\..\..\lvgl\version_6.1.2\lvgl\src\lv_draw/lv_draw_label.c ****                         continue;
 711              		.loc 4 213 0
 712 04c2 E0E0     		b	.L26
 713              	.L29:
 214:..\..\..\lvgl\version_6.1.2\lvgl\src\lv_draw/lv_draw_label.c ****                     }
 215:..\..\..\lvgl\version_6.1.2\lvgl\src\lv_draw/lv_draw_label.c ****                 }
 216:..\..\..\lvgl\version_6.1.2\lvgl\src\lv_draw/lv_draw_label.c **** 
 217:..\..\..\lvgl\version_6.1.2\lvgl\src\lv_draw/lv_draw_label.c ****                 /*Skip the color parameter and wait the space after it*/
 218:..\..\..\lvgl\version_6.1.2\lvgl\src\lv_draw/lv_draw_label.c ****                 if(cmd_state == CMD_STATE_PAR) {
 714              		.loc 4 218 0
 715 04c4 97F8B730 		ldrb	r3, [r7, #183]	@ zero_extendqisi2
 716 04c8 012B     		cmp	r3, #1
 717 04ca 5BD1     		bne	.L28
 219:..\..\..\lvgl\version_6.1.2\lvgl\src\lv_draw/lv_draw_label.c ****                     if(letter == ' ') {
 718              		.loc 4 219 0
 719 04cc D7F89C30 		ldr	r3, [r7, #156]
 720 04d0 202B     		cmp	r3, #32
 721 04d2 40F0D780 		bne	.L46
 220:..\..\..\lvgl\version_6.1.2\lvgl\src\lv_draw/lv_draw_label.c ****                         /*Get the parameter*/
 221:..\..\..\lvgl\version_6.1.2\lvgl\src\lv_draw/lv_draw_label.c ****                         if(i - par_start == LABEL_RECOLOR_PAR_LENGTH + 1) {
 722              		.loc 4 221 0
 723 04d6 D7F88020 		ldr	r2, [r7, #128]
 724 04da B7F8B430 		ldrh	r3, [r7, #180]
 725 04de D31A     		subs	r3, r2, r3
 726 04e0 072B     		cmp	r3, #7
 727 04e2 48D1     		bne	.L34
 728              	.LBB6:
 222:..\..\..\lvgl\version_6.1.2\lvgl\src\lv_draw/lv_draw_label.c ****                             char buf[LABEL_RECOLOR_PAR_LENGTH + 1];
 223:..\..\..\lvgl\version_6.1.2\lvgl\src\lv_draw/lv_draw_label.c ****                             memcpy(buf, &bidi_txt[par_start], LABEL_RECOLOR_PAR_LENGTH);
 729              		.loc 4 223 0
 730 04e4 B7F8B430 		ldrh	r3, [r7, #180]
 731 04e8 D7F8A020 		ldr	r2, [r7, #160]
 732 04ec D118     		adds	r1, r2, r3
 733 04ee 07F11C03 		add	r3, r7, #28
ARM GAS  C:\Users\tmj32\AppData\Local\Temp\ccHxR1NV.s 			page 30


 734 04f2 0622     		movs	r2, #6
 735 04f4 1846     		mov	r0, r3
 736 04f6 FFF7FEFF 		bl	memcpy
 224:..\..\..\lvgl\version_6.1.2\lvgl\src\lv_draw/lv_draw_label.c ****                             buf[LABEL_RECOLOR_PAR_LENGTH] = '\0';
 737              		.loc 4 224 0
 738 04fa 0023     		movs	r3, #0
 739 04fc 87F82230 		strb	r3, [r7, #34]
 225:..\..\..\lvgl\version_6.1.2\lvgl\src\lv_draw/lv_draw_label.c ****                             int r, g, b;
 226:..\..\..\lvgl\version_6.1.2\lvgl\src\lv_draw/lv_draw_label.c ****                             r       = (hex_char_to_num(buf[0]) << 4) + hex_char_to_num(buf[1]);
 740              		.loc 4 226 0
 741 0500 3B7F     		ldrb	r3, [r7, #28]	@ zero_extendqisi2
 742 0502 1846     		mov	r0, r3
 743 0504 FFF7FEFF 		bl	hex_char_to_num
 744 0508 0346     		mov	r3, r0
 745 050a 1C01     		lsls	r4, r3, #4
 746 050c 7B7F     		ldrb	r3, [r7, #29]	@ zero_extendqisi2
 747 050e 1846     		mov	r0, r3
 748 0510 FFF7FEFF 		bl	hex_char_to_num
 749 0514 0346     		mov	r3, r0
 750 0516 2344     		add	r3, r3, r4
 751 0518 C7F89430 		str	r3, [r7, #148]
 227:..\..\..\lvgl\version_6.1.2\lvgl\src\lv_draw/lv_draw_label.c ****                             g       = (hex_char_to_num(buf[2]) << 4) + hex_char_to_num(buf[3]);
 752              		.loc 4 227 0
 753 051c BB7F     		ldrb	r3, [r7, #30]	@ zero_extendqisi2
 754 051e 1846     		mov	r0, r3
 755 0520 FFF7FEFF 		bl	hex_char_to_num
 756 0524 0346     		mov	r3, r0
 757 0526 1C01     		lsls	r4, r3, #4
 758 0528 FB7F     		ldrb	r3, [r7, #31]	@ zero_extendqisi2
 759 052a 1846     		mov	r0, r3
 760 052c FFF7FEFF 		bl	hex_char_to_num
 761 0530 0346     		mov	r3, r0
 762 0532 2344     		add	r3, r3, r4
 763 0534 C7F89030 		str	r3, [r7, #144]
 228:..\..\..\lvgl\version_6.1.2\lvgl\src\lv_draw/lv_draw_label.c ****                             b       = (hex_char_to_num(buf[4]) << 4) + hex_char_to_num(buf[5]);
 764              		.loc 4 228 0
 765 0538 97F82030 		ldrb	r3, [r7, #32]	@ zero_extendqisi2
 766 053c 1846     		mov	r0, r3
 767 053e FFF7FEFF 		bl	hex_char_to_num
 768 0542 0346     		mov	r3, r0
 769 0544 1C01     		lsls	r4, r3, #4
 770 0546 97F82130 		ldrb	r3, [r7, #33]	@ zero_extendqisi2
 771 054a 1846     		mov	r0, r3
 772 054c FFF7FEFF 		bl	hex_char_to_num
 773 0550 0346     		mov	r3, r0
 774 0552 2344     		add	r3, r3, r4
 775 0554 C7F88C30 		str	r3, [r7, #140]
 229:..\..\..\lvgl\version_6.1.2\lvgl\src\lv_draw/lv_draw_label.c ****                             recolor = lv_color_make(r, g, b);
 776              		.loc 4 229 0
 777 0558 D7F89430 		ldr	r3, [r7, #148]
 778 055c DBB2     		uxtb	r3, r3
 779 055e D7F89020 		ldr	r2, [r7, #144]
 780 0562 D1B2     		uxtb	r1, r2
 781 0564 D7F88C20 		ldr	r2, [r7, #140]
 782 0568 D2B2     		uxtb	r2, r2
 783 056a 1846     		mov	r0, r3
 784 056c FFF7FEFF 		bl	lv_color_make
ARM GAS  C:\Users\tmj32\AppData\Local\Temp\ccHxR1NV.s 			page 31


 785 0570 0346     		mov	r3, r0
 786 0572 FB67     		str	r3, [r7, #124]
 787              	.LBE6:
 788 0574 02E0     		b	.L35
 789              	.L34:
 230:..\..\..\lvgl\version_6.1.2\lvgl\src\lv_draw/lv_draw_label.c ****                         } else {
 231:..\..\..\lvgl\version_6.1.2\lvgl\src\lv_draw/lv_draw_label.c ****                             recolor.full = style->text.color.full;
 790              		.loc 4 231 0
 791 0576 7B68     		ldr	r3, [r7, #4]
 792 0578 DB6A     		ldr	r3, [r3, #44]
 793 057a FB67     		str	r3, [r7, #124]
 794              	.L35:
 232:..\..\..\lvgl\version_6.1.2\lvgl\src\lv_draw/lv_draw_label.c ****                         }
 233:..\..\..\lvgl\version_6.1.2\lvgl\src\lv_draw/lv_draw_label.c ****                         cmd_state = CMD_STATE_IN; /*After the parameter the text is in the command*
 795              		.loc 4 233 0
 796 057c 0223     		movs	r3, #2
 797 057e 87F8B730 		strb	r3, [r7, #183]
 234:..\..\..\lvgl\version_6.1.2\lvgl\src\lv_draw/lv_draw_label.c ****                     }
 235:..\..\..\lvgl\version_6.1.2\lvgl\src\lv_draw/lv_draw_label.c ****                     continue;
 798              		.loc 4 235 0
 799 0582 7FE0     		b	.L46
 800              	.L28:
 236:..\..\..\lvgl\version_6.1.2\lvgl\src\lv_draw/lv_draw_label.c ****                 }
 237:..\..\..\lvgl\version_6.1.2\lvgl\src\lv_draw/lv_draw_label.c ****             }
 238:..\..\..\lvgl\version_6.1.2\lvgl\src\lv_draw/lv_draw_label.c **** 
 239:..\..\..\lvgl\version_6.1.2\lvgl\src\lv_draw/lv_draw_label.c ****             lv_color_t color = style->text.color;
 801              		.loc 4 239 0
 802 0584 7B68     		ldr	r3, [r7, #4]
 803 0586 DB6A     		ldr	r3, [r3, #44]
 804 0588 7B62     		str	r3, [r7, #36]
 240:..\..\..\lvgl\version_6.1.2\lvgl\src\lv_draw/lv_draw_label.c **** 
 241:..\..\..\lvgl\version_6.1.2\lvgl\src\lv_draw/lv_draw_label.c ****             if(cmd_state == CMD_STATE_IN) color = recolor;
 805              		.loc 4 241 0
 806 058a 97F8B730 		ldrb	r3, [r7, #183]	@ zero_extendqisi2
 807 058e 022B     		cmp	r3, #2
 808 0590 01D1     		bne	.L36
 809              		.loc 4 241 0 is_stmt 0 discriminator 1
 810 0592 FB6F     		ldr	r3, [r7, #124]
 811 0594 7B62     		str	r3, [r7, #36]
 812              	.L36:
 242:..\..\..\lvgl\version_6.1.2\lvgl\src\lv_draw/lv_draw_label.c **** 
 243:..\..\..\lvgl\version_6.1.2\lvgl\src\lv_draw/lv_draw_label.c ****             letter_w = lv_font_get_glyph_width(font, letter, letter_next);
 813              		.loc 4 243 0 is_stmt 1
 814 0596 D7F89820 		ldr	r2, [r7, #152]
 815 059a D7F89C10 		ldr	r1, [r7, #156]
 816 059e D7F8AC00 		ldr	r0, [r7, #172]
 817 05a2 FFF7FEFF 		bl	lv_font_get_glyph_width
 818 05a6 0346     		mov	r3, r0
 819 05a8 A7F88A30 		strh	r3, [r7, #138]	@ movhi
 244:..\..\..\lvgl\version_6.1.2\lvgl\src\lv_draw/lv_draw_label.c **** 
 245:..\..\..\lvgl\version_6.1.2\lvgl\src\lv_draw/lv_draw_label.c ****             if(sel_start != 0xFFFF && sel_end != 0xFFFF) {
 820              		.loc 4 245 0
 821 05ac B7F8BA30 		ldrh	r3, [r7, #186]
 822 05b0 4FF6FF72 		movw	r2, #65535
 823 05b4 9342     		cmp	r3, r2
 824 05b6 3CD0     		beq	.L37
 825              		.loc 4 245 0 is_stmt 0 discriminator 1
ARM GAS  C:\Users\tmj32\AppData\Local\Temp\ccHxR1NV.s 			page 32


 826 05b8 B7F8B830 		ldrh	r3, [r7, #184]
 827 05bc 4FF6FF72 		movw	r2, #65535
 828 05c0 9342     		cmp	r3, r2
 829 05c2 36D0     		beq	.L37
 246:..\..\..\lvgl\version_6.1.2\lvgl\src\lv_draw/lv_draw_label.c ****                 if(logical_char_pos >= sel_start && logical_char_pos < sel_end) {
 830              		.loc 4 246 0 is_stmt 1
 831 05c4 B7F8B220 		ldrh	r2, [r7, #178]
 832 05c8 B7F8BA30 		ldrh	r3, [r7, #186]
 833 05cc 9A42     		cmp	r2, r3
 834 05ce 30D3     		bcc	.L37
 835              		.loc 4 246 0 is_stmt 0 discriminator 1
 836 05d0 B7F8B220 		ldrh	r2, [r7, #178]
 837 05d4 B7F8B830 		ldrh	r3, [r7, #184]
 838 05d8 9A42     		cmp	r2, r3
 839 05da 2AD2     		bcs	.L37
 840              	.LBB7:
 247:..\..\..\lvgl\version_6.1.2\lvgl\src\lv_draw/lv_draw_label.c ****                     lv_area_t sel_coords;
 248:..\..\..\lvgl\version_6.1.2\lvgl\src\lv_draw/lv_draw_label.c ****                     sel_coords.x1 = pos.x;
 841              		.loc 4 248 0 is_stmt 1
 842 05dc B7F98430 		ldrsh	r3, [r7, #132]
 843 05e0 BB82     		strh	r3, [r7, #20]	@ movhi
 249:..\..\..\lvgl\version_6.1.2\lvgl\src\lv_draw/lv_draw_label.c ****                     sel_coords.y1 = pos.y;
 844              		.loc 4 249 0
 845 05e2 B7F98630 		ldrsh	r3, [r7, #134]
 846 05e6 FB82     		strh	r3, [r7, #22]	@ movhi
 250:..\..\..\lvgl\version_6.1.2\lvgl\src\lv_draw/lv_draw_label.c ****                     sel_coords.x2 = pos.x + letter_w + style->text.letter_space - 1;
 847              		.loc 4 250 0
 848 05e8 B7F98430 		ldrsh	r3, [r7, #132]
 849 05ec 9AB2     		uxth	r2, r3
 850 05ee B7F88A30 		ldrh	r3, [r7, #138]
 851 05f2 1344     		add	r3, r3, r2
 852 05f4 9AB2     		uxth	r2, r3
 853 05f6 7B68     		ldr	r3, [r7, #4]
 854 05f8 B3F93830 		ldrsh	r3, [r3, #56]
 855 05fc 9BB2     		uxth	r3, r3
 856 05fe 1344     		add	r3, r3, r2
 857 0600 9BB2     		uxth	r3, r3
 858 0602 013B     		subs	r3, r3, #1
 859 0604 9BB2     		uxth	r3, r3
 860 0606 1BB2     		sxth	r3, r3
 861 0608 3B83     		strh	r3, [r7, #24]	@ movhi
 251:..\..\..\lvgl\version_6.1.2\lvgl\src\lv_draw/lv_draw_label.c ****                     sel_coords.y2 = pos.y + line_height - 1;
 862              		.loc 4 251 0
 863 060a B7F98630 		ldrsh	r3, [r7, #134]
 864 060e 9AB2     		uxth	r2, r3
 865 0610 B7F8AA30 		ldrh	r3, [r7, #170]
 866 0614 1344     		add	r3, r3, r2
 867 0616 9BB2     		uxth	r3, r3
 868 0618 013B     		subs	r3, r3, #1
 869 061a 9BB2     		uxth	r3, r3
 870 061c 1BB2     		sxth	r3, r3
 871 061e 7B83     		strh	r3, [r7, #26]	@ movhi
 252:..\..\..\lvgl\version_6.1.2\lvgl\src\lv_draw/lv_draw_label.c ****                     lv_draw_rect(&sel_coords, mask, &sel_style, opa);
 872              		.loc 4 252 0
 873 0620 97F8A730 		ldrb	r3, [r7, #167]	@ zero_extendqisi2
 874 0624 07F12C02 		add	r2, r7, #44
 875 0628 07F11400 		add	r0, r7, #20
ARM GAS  C:\Users\tmj32\AppData\Local\Temp\ccHxR1NV.s 			page 33


 876 062c B968     		ldr	r1, [r7, #8]
 877 062e FFF7FEFF 		bl	lv_draw_rect
 878              	.L37:
 879              	.LBE7:
 253:..\..\..\lvgl\version_6.1.2\lvgl\src\lv_draw/lv_draw_label.c ****                 }
 254:..\..\..\lvgl\version_6.1.2\lvgl\src\lv_draw/lv_draw_label.c ****             }
 255:..\..\..\lvgl\version_6.1.2\lvgl\src\lv_draw/lv_draw_label.c **** 
 256:..\..\..\lvgl\version_6.1.2\lvgl\src\lv_draw/lv_draw_label.c ****             lv_draw_letter(&pos, mask, font, letter, color, opa);
 880              		.loc 4 256 0
 881 0632 07F18400 		add	r0, r7, #132
 882 0636 97F8A730 		ldrb	r3, [r7, #167]	@ zero_extendqisi2
 883 063a 0193     		str	r3, [sp, #4]
 884 063c 7B6A     		ldr	r3, [r7, #36]
 885 063e 0093     		str	r3, [sp]
 886 0640 D7F89C30 		ldr	r3, [r7, #156]
 887 0644 D7F8AC20 		ldr	r2, [r7, #172]
 888 0648 B968     		ldr	r1, [r7, #8]
 889 064a FFF7FEFF 		bl	lv_draw_letter
 257:..\..\..\lvgl\version_6.1.2\lvgl\src\lv_draw/lv_draw_label.c **** 
 258:..\..\..\lvgl\version_6.1.2\lvgl\src\lv_draw/lv_draw_label.c ****             if(letter_w > 0) {
 890              		.loc 4 258 0
 891 064e B7F98A30 		ldrsh	r3, [r7, #138]
 892 0652 002B     		cmp	r3, #0
 893 0654 17DD     		ble	.L26
 259:..\..\..\lvgl\version_6.1.2\lvgl\src\lv_draw/lv_draw_label.c ****                 pos.x += letter_w + style->text.letter_space;
 894              		.loc 4 259 0
 895 0656 B7F98430 		ldrsh	r3, [r7, #132]
 896 065a 9AB2     		uxth	r2, r3
 897 065c 7B68     		ldr	r3, [r7, #4]
 898 065e B3F93830 		ldrsh	r3, [r3, #56]
 899 0662 99B2     		uxth	r1, r3
 900 0664 B7F88A30 		ldrh	r3, [r7, #138]
 901 0668 0B44     		add	r3, r3, r1
 902 066a 9BB2     		uxth	r3, r3
 903 066c 1344     		add	r3, r3, r2
 904 066e 9BB2     		uxth	r3, r3
 905 0670 1BB2     		sxth	r3, r3
 906 0672 A7F88430 		strh	r3, [r7, #132]	@ movhi
 907 0676 06E0     		b	.L26
 908              	.L49:
 909              		.align	2
 910              	.L48:
 911 0678 00000000 		.word	lv_style_plain_color
 912 067c 00000000 		.word	lv_txt_encoded_get_char_id
 913 0680 00000000 		.word	lv_txt_encoded_next
 914              	.L46:
 235:..\..\..\lvgl\version_6.1.2\lvgl\src\lv_draw/lv_draw_label.c ****                 }
 915              		.loc 4 235 0
 916 0684 00BF     		nop
 917              	.L26:
 918              	.LBE5:
 186:..\..\..\lvgl\version_6.1.2\lvgl\src\lv_draw/lv_draw_label.c ****             uint16_t logical_char_pos = 0;
 919              		.loc 4 186 0
 920 0686 D7F8BC20 		ldr	r2, [r7, #188]
 921 068a D7F8C430 		ldr	r3, [r7, #196]
 922 068e D21A     		subs	r2, r2, r3
 923 0690 D7F88030 		ldr	r3, [r7, #128]
ARM GAS  C:\Users\tmj32\AppData\Local\Temp\ccHxR1NV.s 			page 34


 924 0694 9A42     		cmp	r2, r3
 925 0696 3FF6B9AE 		bhi	.L39
 260:..\..\..\lvgl\version_6.1.2\lvgl\src\lv_draw/lv_draw_label.c ****             }
 261:..\..\..\lvgl\version_6.1.2\lvgl\src\lv_draw/lv_draw_label.c ****         }
 262:..\..\..\lvgl\version_6.1.2\lvgl\src\lv_draw/lv_draw_label.c ****         /*Go to next line*/
 263:..\..\..\lvgl\version_6.1.2\lvgl\src\lv_draw/lv_draw_label.c ****         line_start = line_end;
 926              		.loc 4 263 0
 927 069a D7F8BC30 		ldr	r3, [r7, #188]
 928 069e C7F8C430 		str	r3, [r7, #196]
 264:..\..\..\lvgl\version_6.1.2\lvgl\src\lv_draw/lv_draw_label.c ****         line_end += lv_txt_get_next_line(&txt[line_start], font, style->text.letter_space, w, flag)
 929              		.loc 4 264 0
 930 06a2 D7F8E020 		ldr	r2, [r7, #224]
 931 06a6 D7F8C430 		ldr	r3, [r7, #196]
 932 06aa D018     		adds	r0, r2, r3
 933 06ac 7B68     		ldr	r3, [r7, #4]
 934 06ae B3F93820 		ldrsh	r2, [r3, #56]
 935 06b2 B7F9CE10 		ldrsh	r1, [r7, #206]
 936 06b6 97F8E430 		ldrb	r3, [r7, #228]	@ zero_extendqisi2
 937 06ba 0093     		str	r3, [sp]
 938 06bc 0B46     		mov	r3, r1
 939 06be D7F8AC10 		ldr	r1, [r7, #172]
 940 06c2 FFF7FEFF 		bl	lv_txt_get_next_line
 941 06c6 0346     		mov	r3, r0
 942 06c8 1A46     		mov	r2, r3
 943 06ca D7F8BC30 		ldr	r3, [r7, #188]
 944 06ce 1344     		add	r3, r3, r2
 945 06d0 C7F8BC30 		str	r3, [r7, #188]
 265:..\..\..\lvgl\version_6.1.2\lvgl\src\lv_draw/lv_draw_label.c **** 
 266:..\..\..\lvgl\version_6.1.2\lvgl\src\lv_draw/lv_draw_label.c ****         pos.x = coords->x1;
 946              		.loc 4 266 0
 947 06d4 FB68     		ldr	r3, [r7, #12]
 948 06d6 B3F90030 		ldrsh	r3, [r3]
 949 06da A7F88430 		strh	r3, [r7, #132]	@ movhi
 267:..\..\..\lvgl\version_6.1.2\lvgl\src\lv_draw/lv_draw_label.c ****         /*Align to middle*/
 268:..\..\..\lvgl\version_6.1.2\lvgl\src\lv_draw/lv_draw_label.c ****         if(flag & LV_TXT_FLAG_CENTER) {
 950              		.loc 4 268 0
 951 06de 97F8E430 		ldrb	r3, [r7, #228]	@ zero_extendqisi2
 952 06e2 03F00403 		and	r3, r3, #4
 953 06e6 002B     		cmp	r3, #0
 954 06e8 30D0     		beq	.L40
 269:..\..\..\lvgl\version_6.1.2\lvgl\src\lv_draw/lv_draw_label.c ****             line_width =
 270:..\..\..\lvgl\version_6.1.2\lvgl\src\lv_draw/lv_draw_label.c ****                     lv_txt_get_width(&txt[line_start], line_end - line_start, font, style->text.let
 955              		.loc 4 270 0
 956 06ea D7F8E020 		ldr	r2, [r7, #224]
 957 06ee D7F8C430 		ldr	r3, [r7, #196]
 958 06f2 D018     		adds	r0, r2, r3
 959 06f4 D7F8BC30 		ldr	r3, [r7, #188]
 960 06f8 9AB2     		uxth	r2, r3
 961 06fa D7F8C430 		ldr	r3, [r7, #196]
 962 06fe 9BB2     		uxth	r3, r3
 963 0700 D31A     		subs	r3, r2, r3
 964 0702 99B2     		uxth	r1, r3
 965 0704 7B68     		ldr	r3, [r7, #4]
 966 0706 B3F93820 		ldrsh	r2, [r3, #56]
 269:..\..\..\lvgl\version_6.1.2\lvgl\src\lv_draw/lv_draw_label.c ****             line_width =
 967              		.loc 4 269 0
 968 070a 97F8E430 		ldrb	r3, [r7, #228]	@ zero_extendqisi2
ARM GAS  C:\Users\tmj32\AppData\Local\Temp\ccHxR1NV.s 			page 35


 969 070e 0093     		str	r3, [sp]
 970 0710 1346     		mov	r3, r2
 971 0712 D7F8AC20 		ldr	r2, [r7, #172]
 972 0716 FFF7FEFF 		bl	lv_txt_get_width
 973 071a 0346     		mov	r3, r0
 974 071c A7F8A830 		strh	r3, [r7, #168]	@ movhi
 271:..\..\..\lvgl\version_6.1.2\lvgl\src\lv_draw/lv_draw_label.c **** 
 272:..\..\..\lvgl\version_6.1.2\lvgl\src\lv_draw/lv_draw_label.c ****             pos.x += (lv_area_get_width(coords) - line_width) / 2;
 975              		.loc 4 272 0
 976 0720 F868     		ldr	r0, [r7, #12]
 977 0722 FFF7FEFF 		bl	lv_area_get_width
 978 0726 0346     		mov	r3, r0
 979 0728 1A46     		mov	r2, r3
 980 072a B7F9A830 		ldrsh	r3, [r7, #168]
 981 072e D31A     		subs	r3, r2, r3
 982 0730 DA0F     		lsrs	r2, r3, #31
 983 0732 1344     		add	r3, r3, r2
 984 0734 5B10     		asrs	r3, r3, #1
 985 0736 1946     		mov	r1, r3
 986 0738 B7F98430 		ldrsh	r3, [r7, #132]
 987 073c 9AB2     		uxth	r2, r3
 988 073e 8BB2     		uxth	r3, r1
 989 0740 1344     		add	r3, r3, r2
 990 0742 9BB2     		uxth	r3, r3
 991 0744 1BB2     		sxth	r3, r3
 992 0746 A7F88430 		strh	r3, [r7, #132]	@ movhi
 993 074a 31E0     		b	.L41
 994              	.L40:
 273:..\..\..\lvgl\version_6.1.2\lvgl\src\lv_draw/lv_draw_label.c **** 
 274:..\..\..\lvgl\version_6.1.2\lvgl\src\lv_draw/lv_draw_label.c ****         }
 275:..\..\..\lvgl\version_6.1.2\lvgl\src\lv_draw/lv_draw_label.c ****         /*Align to the right*/
 276:..\..\..\lvgl\version_6.1.2\lvgl\src\lv_draw/lv_draw_label.c ****         else if(flag & LV_TXT_FLAG_RIGHT) {
 995              		.loc 4 276 0
 996 074c 97F8E430 		ldrb	r3, [r7, #228]	@ zero_extendqisi2
 997 0750 03F00803 		and	r3, r3, #8
 998 0754 002B     		cmp	r3, #0
 999 0756 2BD0     		beq	.L41
 277:..\..\..\lvgl\version_6.1.2\lvgl\src\lv_draw/lv_draw_label.c ****             line_width =
 278:..\..\..\lvgl\version_6.1.2\lvgl\src\lv_draw/lv_draw_label.c ****                     lv_txt_get_width(&txt[line_start], line_end - line_start, font, style->text.let
 1000              		.loc 4 278 0
 1001 0758 D7F8E020 		ldr	r2, [r7, #224]
 1002 075c D7F8C430 		ldr	r3, [r7, #196]
 1003 0760 D018     		adds	r0, r2, r3
 1004 0762 D7F8BC30 		ldr	r3, [r7, #188]
 1005 0766 9AB2     		uxth	r2, r3
 1006 0768 D7F8C430 		ldr	r3, [r7, #196]
 1007 076c 9BB2     		uxth	r3, r3
 1008 076e D31A     		subs	r3, r2, r3
 1009 0770 99B2     		uxth	r1, r3
 1010 0772 7B68     		ldr	r3, [r7, #4]
 1011 0774 B3F93820 		ldrsh	r2, [r3, #56]
 277:..\..\..\lvgl\version_6.1.2\lvgl\src\lv_draw/lv_draw_label.c ****             line_width =
 1012              		.loc 4 277 0
 1013 0778 97F8E430 		ldrb	r3, [r7, #228]	@ zero_extendqisi2
 1014 077c 0093     		str	r3, [sp]
 1015 077e 1346     		mov	r3, r2
 1016 0780 D7F8AC20 		ldr	r2, [r7, #172]
ARM GAS  C:\Users\tmj32\AppData\Local\Temp\ccHxR1NV.s 			page 36


 1017 0784 FFF7FEFF 		bl	lv_txt_get_width
 1018 0788 0346     		mov	r3, r0
 1019 078a A7F8A830 		strh	r3, [r7, #168]	@ movhi
 279:..\..\..\lvgl\version_6.1.2\lvgl\src\lv_draw/lv_draw_label.c ****             pos.x += lv_area_get_width(coords) - line_width;
 1020              		.loc 4 279 0
 1021 078e F868     		ldr	r0, [r7, #12]
 1022 0790 FFF7FEFF 		bl	lv_area_get_width
 1023 0794 0346     		mov	r3, r0
 1024 0796 1A46     		mov	r2, r3
 1025 0798 B7F9A830 		ldrsh	r3, [r7, #168]
 1026 079c D31A     		subs	r3, r2, r3
 1027 079e B7F98420 		ldrsh	r2, [r7, #132]
 1028 07a2 92B2     		uxth	r2, r2
 1029 07a4 9BB2     		uxth	r3, r3
 1030 07a6 1344     		add	r3, r3, r2
 1031 07a8 9BB2     		uxth	r3, r3
 1032 07aa 1BB2     		sxth	r3, r3
 1033 07ac A7F88430 		strh	r3, [r7, #132]	@ movhi
 1034              	.L41:
 280:..\..\..\lvgl\version_6.1.2\lvgl\src\lv_draw/lv_draw_label.c ****         }
 281:..\..\..\lvgl\version_6.1.2\lvgl\src\lv_draw/lv_draw_label.c **** 
 282:..\..\..\lvgl\version_6.1.2\lvgl\src\lv_draw/lv_draw_label.c ****         /*Go the next line position*/
 283:..\..\..\lvgl\version_6.1.2\lvgl\src\lv_draw/lv_draw_label.c ****         pos.y += line_height;
 1035              		.loc 4 283 0
 1036 07b0 B7F98630 		ldrsh	r3, [r7, #134]
 1037 07b4 9AB2     		uxth	r2, r3
 1038 07b6 B7F8AA30 		ldrh	r3, [r7, #170]
 1039 07ba 1344     		add	r3, r3, r2
 1040 07bc 9BB2     		uxth	r3, r3
 1041 07be 1BB2     		sxth	r3, r3
 1042 07c0 A7F88630 		strh	r3, [r7, #134]	@ movhi
 284:..\..\..\lvgl\version_6.1.2\lvgl\src\lv_draw/lv_draw_label.c **** 
 285:..\..\..\lvgl\version_6.1.2\lvgl\src\lv_draw/lv_draw_label.c ****         if(pos.y > mask->y2) return;
 1043              		.loc 4 285 0
 1044 07c4 B7F98620 		ldrsh	r2, [r7, #134]
 1045 07c8 BB68     		ldr	r3, [r7, #8]
 1046 07ca B3F90630 		ldrsh	r3, [r3, #6]
 1047 07ce 9A42     		cmp	r2, r3
 1048 07d0 0DDC     		bgt	.L47
 1049              	.L24:
 1050              	.LBE4:
 169:..\..\..\lvgl\version_6.1.2\lvgl\src\lv_draw/lv_draw_label.c ****         if(offset != NULL) {
 1051              		.loc 4 169 0
 1052 07d2 D7F8E020 		ldr	r2, [r7, #224]
 1053 07d6 D7F8C430 		ldr	r3, [r7, #196]
 1054 07da 1344     		add	r3, r3, r2
 1055 07dc 1B78     		ldrb	r3, [r3]	@ zero_extendqisi2
 1056 07de 002B     		cmp	r3, #0
 1057 07e0 7FF4F8AD 		bne	.L42
 1058 07e4 04E0     		b	.L7
 1059              	.L44:
  65:..\..\..\lvgl\version_6.1.2\lvgl\src\lv_draw/lv_draw_label.c **** 
 1060              		.loc 4 65 0
 1061 07e6 00BF     		nop
 1062 07e8 02E0     		b	.L7
 1063              	.L45:
 129:..\..\..\lvgl\version_6.1.2\lvgl\src\lv_draw/lv_draw_label.c ****     }
ARM GAS  C:\Users\tmj32\AppData\Local\Temp\ccHxR1NV.s 			page 37


 1064              		.loc 4 129 0
 1065 07ea 00BF     		nop
 1066 07ec 00E0     		b	.L7
 1067              	.L47:
 1068              	.LBB8:
 1069              		.loc 4 285 0
 1070 07ee 00BF     		nop
 1071              	.L7:
 1072              	.LBE8:
 286:..\..\..\lvgl\version_6.1.2\lvgl\src\lv_draw/lv_draw_label.c ****     }
 287:..\..\..\lvgl\version_6.1.2\lvgl\src\lv_draw/lv_draw_label.c **** }
 1073              		.loc 4 287 0
 1074 07f0 D437     		adds	r7, r7, #212
 1075              		.cfi_def_cfa_offset 12
 1076 07f2 BD46     		mov	sp, r7
 1077              		.cfi_def_cfa_register 13
 1078              		@ sp needed
 1079 07f4 90BD     		pop	{r4, r7, pc}
 1080              		.cfi_endproc
 1081              	.LFE31:
 1082              		.size	lv_draw_label, .-lv_draw_label
 1083 07f6 00BF     		.section	.text.hex_char_to_num,"ax",%progbits
 1084              		.align	2
 1085              		.thumb
 1086              		.thumb_func
 1087              		.type	hex_char_to_num, %function
 1088              	hex_char_to_num:
 1089              	.LFB32:
 288:..\..\..\lvgl\version_6.1.2\lvgl\src\lv_draw/lv_draw_label.c **** 
 289:..\..\..\lvgl\version_6.1.2\lvgl\src\lv_draw/lv_draw_label.c **** /**********************
 290:..\..\..\lvgl\version_6.1.2\lvgl\src\lv_draw/lv_draw_label.c ****  *   STATIC FUNCTIONS
 291:..\..\..\lvgl\version_6.1.2\lvgl\src\lv_draw/lv_draw_label.c ****  **********************/
 292:..\..\..\lvgl\version_6.1.2\lvgl\src\lv_draw/lv_draw_label.c **** 
 293:..\..\..\lvgl\version_6.1.2\lvgl\src\lv_draw/lv_draw_label.c **** /**
 294:..\..\..\lvgl\version_6.1.2\lvgl\src\lv_draw/lv_draw_label.c ****  * Convert a hexadecimal characters to a number (0..15)
 295:..\..\..\lvgl\version_6.1.2\lvgl\src\lv_draw/lv_draw_label.c ****  * @param hex Pointer to a hexadecimal character (0..9, A..F)
 296:..\..\..\lvgl\version_6.1.2\lvgl\src\lv_draw/lv_draw_label.c ****  * @return the numerical value of `hex` or 0 on error
 297:..\..\..\lvgl\version_6.1.2\lvgl\src\lv_draw/lv_draw_label.c ****  */
 298:..\..\..\lvgl\version_6.1.2\lvgl\src\lv_draw/lv_draw_label.c **** static uint8_t hex_char_to_num(char hex)
 299:..\..\..\lvgl\version_6.1.2\lvgl\src\lv_draw/lv_draw_label.c **** {
 1090              		.loc 4 299 0
 1091              		.cfi_startproc
 1092              		@ args = 0, pretend = 0, frame = 16
 1093              		@ frame_needed = 1, uses_anonymous_args = 0
 1094              		@ link register save eliminated.
 1095 0000 80B4     		push	{r7}
 1096              		.cfi_def_cfa_offset 4
 1097              		.cfi_offset 7, -4
 1098 0002 85B0     		sub	sp, sp, #20
 1099              		.cfi_def_cfa_offset 24
 1100 0004 00AF     		add	r7, sp, #0
 1101              		.cfi_def_cfa_register 7
 1102 0006 0346     		mov	r3, r0
 1103 0008 FB71     		strb	r3, [r7, #7]
 300:..\..\..\lvgl\version_6.1.2\lvgl\src\lv_draw/lv_draw_label.c ****     uint8_t result = 0;
 1104              		.loc 4 300 0
 1105 000a 0023     		movs	r3, #0
ARM GAS  C:\Users\tmj32\AppData\Local\Temp\ccHxR1NV.s 			page 38


 1106 000c FB73     		strb	r3, [r7, #15]
 301:..\..\..\lvgl\version_6.1.2\lvgl\src\lv_draw/lv_draw_label.c **** 
 302:..\..\..\lvgl\version_6.1.2\lvgl\src\lv_draw/lv_draw_label.c ****     if(hex >= '0' && hex <= '9') {
 1107              		.loc 4 302 0
 1108 000e FB79     		ldrb	r3, [r7, #7]	@ zero_extendqisi2
 1109 0010 2F2B     		cmp	r3, #47
 1110 0012 06D9     		bls	.L51
 1111              		.loc 4 302 0 is_stmt 0 discriminator 1
 1112 0014 FB79     		ldrb	r3, [r7, #7]	@ zero_extendqisi2
 1113 0016 392B     		cmp	r3, #57
 1114 0018 03D8     		bhi	.L51
 303:..\..\..\lvgl\version_6.1.2\lvgl\src\lv_draw/lv_draw_label.c ****         result = hex - '0';
 1115              		.loc 4 303 0 is_stmt 1
 1116 001a FB79     		ldrb	r3, [r7, #7]
 1117 001c 303B     		subs	r3, r3, #48
 1118 001e FB73     		strb	r3, [r7, #15]
 1119 0020 2DE0     		b	.L52
 1120              	.L51:
 304:..\..\..\lvgl\version_6.1.2\lvgl\src\lv_draw/lv_draw_label.c ****     } else {
 305:..\..\..\lvgl\version_6.1.2\lvgl\src\lv_draw/lv_draw_label.c ****         if(hex >= 'a') hex -= 'a' - 'A'; /*Convert to upper case*/
 1121              		.loc 4 305 0
 1122 0022 FB79     		ldrb	r3, [r7, #7]	@ zero_extendqisi2
 1123 0024 602B     		cmp	r3, #96
 1124 0026 02D9     		bls	.L53
 1125              		.loc 4 305 0 is_stmt 0 discriminator 1
 1126 0028 FB79     		ldrb	r3, [r7, #7]
 1127 002a 203B     		subs	r3, r3, #32
 1128 002c FB71     		strb	r3, [r7, #7]
 1129              	.L53:
 306:..\..\..\lvgl\version_6.1.2\lvgl\src\lv_draw/lv_draw_label.c **** 
 307:..\..\..\lvgl\version_6.1.2\lvgl\src\lv_draw/lv_draw_label.c ****         switch(hex) {
 1130              		.loc 4 307 0 is_stmt 1
 1131 002e FB79     		ldrb	r3, [r7, #7]	@ zero_extendqisi2
 1132 0030 413B     		subs	r3, r3, #65
 1133 0032 052B     		cmp	r3, #5
 1134 0034 20D8     		bhi	.L54
 1135 0036 01A2     		adr	r2, .L56
 1136 0038 52F823F0 		ldr	pc, [r2, r3, lsl #2]
 1137              		.p2align 2
 1138              	.L56:
 1139 003c 55000000 		.word	.L55+1
 1140 0040 5B000000 		.word	.L57+1
 1141 0044 61000000 		.word	.L58+1
 1142 0048 67000000 		.word	.L59+1
 1143 004c 6D000000 		.word	.L60+1
 1144 0050 73000000 		.word	.L61+1
 1145              		.p2align 1
 1146              	.L55:
 308:..\..\..\lvgl\version_6.1.2\lvgl\src\lv_draw/lv_draw_label.c ****         case 'A': result = 10; break;
 1147              		.loc 4 308 0
 1148 0054 0A23     		movs	r3, #10
 1149 0056 FB73     		strb	r3, [r7, #15]
 1150 0058 11E0     		b	.L52
 1151              	.L57:
 309:..\..\..\lvgl\version_6.1.2\lvgl\src\lv_draw/lv_draw_label.c ****         case 'B': result = 11; break;
 1152              		.loc 4 309 0
 1153 005a 0B23     		movs	r3, #11
ARM GAS  C:\Users\tmj32\AppData\Local\Temp\ccHxR1NV.s 			page 39


 1154 005c FB73     		strb	r3, [r7, #15]
 1155 005e 0EE0     		b	.L52
 1156              	.L58:
 310:..\..\..\lvgl\version_6.1.2\lvgl\src\lv_draw/lv_draw_label.c ****         case 'C': result = 12; break;
 1157              		.loc 4 310 0
 1158 0060 0C23     		movs	r3, #12
 1159 0062 FB73     		strb	r3, [r7, #15]
 1160 0064 0BE0     		b	.L52
 1161              	.L59:
 311:..\..\..\lvgl\version_6.1.2\lvgl\src\lv_draw/lv_draw_label.c ****         case 'D': result = 13; break;
 1162              		.loc 4 311 0
 1163 0066 0D23     		movs	r3, #13
 1164 0068 FB73     		strb	r3, [r7, #15]
 1165 006a 08E0     		b	.L52
 1166              	.L60:
 312:..\..\..\lvgl\version_6.1.2\lvgl\src\lv_draw/lv_draw_label.c ****         case 'E': result = 14; break;
 1167              		.loc 4 312 0
 1168 006c 0E23     		movs	r3, #14
 1169 006e FB73     		strb	r3, [r7, #15]
 1170 0070 05E0     		b	.L52
 1171              	.L61:
 313:..\..\..\lvgl\version_6.1.2\lvgl\src\lv_draw/lv_draw_label.c ****         case 'F': result = 15; break;
 1172              		.loc 4 313 0
 1173 0072 0F23     		movs	r3, #15
 1174 0074 FB73     		strb	r3, [r7, #15]
 1175 0076 02E0     		b	.L52
 1176              	.L54:
 314:..\..\..\lvgl\version_6.1.2\lvgl\src\lv_draw/lv_draw_label.c ****         default: result = 0; break;
 1177              		.loc 4 314 0
 1178 0078 0023     		movs	r3, #0
 1179 007a FB73     		strb	r3, [r7, #15]
 1180 007c 00BF     		nop
 1181              	.L52:
 315:..\..\..\lvgl\version_6.1.2\lvgl\src\lv_draw/lv_draw_label.c ****         }
 316:..\..\..\lvgl\version_6.1.2\lvgl\src\lv_draw/lv_draw_label.c ****     }
 317:..\..\..\lvgl\version_6.1.2\lvgl\src\lv_draw/lv_draw_label.c **** 
 318:..\..\..\lvgl\version_6.1.2\lvgl\src\lv_draw/lv_draw_label.c ****     return result;
 1182              		.loc 4 318 0
 1183 007e FB7B     		ldrb	r3, [r7, #15]	@ zero_extendqisi2
 319:..\..\..\lvgl\version_6.1.2\lvgl\src\lv_draw/lv_draw_label.c **** }
 1184              		.loc 4 319 0
 1185 0080 1846     		mov	r0, r3
 1186 0082 1437     		adds	r7, r7, #20
 1187              		.cfi_def_cfa_offset 4
 1188 0084 BD46     		mov	sp, r7
 1189              		.cfi_def_cfa_register 13
 1190              		@ sp needed
 1191 0086 5DF8047B 		ldr	r7, [sp], #4
 1192              		.cfi_restore 7
 1193              		.cfi_def_cfa_offset 0
 1194 008a 7047     		bx	lr
 1195              		.cfi_endproc
 1196              	.LFE32:
 1197              		.size	hex_char_to_num, .-hex_char_to_num
 1198              		.text
 1199              	.Letext0:
 1200              		.file 5 "c:\\program files (x86)\\cypress\\psoc creator\\4.3\\psoc creator\\import\\gnu\\arm\\5.4.
ARM GAS  C:\Users\tmj32\AppData\Local\Temp\ccHxR1NV.s 			page 40


 1201              		.file 6 "c:\\program files (x86)\\cypress\\psoc creator\\4.3\\psoc creator\\import\\gnu\\arm\\5.4.
 1202              		.file 7 "..\\..\\..\\lvgl\\version_6.1.2\\lvgl\\src\\lv_draw\\../../../lv_conf.h"
 1203              		.file 8 "..\\..\\..\\lvgl\\version_6.1.2\\lvgl\\src\\lv_draw\\../lv_core/lv_style.h"
 1204              		.file 9 "..\\..\\..\\lvgl\\version_6.1.2\\lvgl\\src\\lv_draw\\../lv_misc/lv_txt.h"
 1205              		.file 10 "..\\..\\..\\lvgl\\version_6.1.2\\lvgl\\src\\lv_draw\\../lv_misc/lv_bidi.h"
 1206              		.file 11 "..\\..\\..\\lvgl\\version_6.1.2\\lvgl\\src\\lv_draw\\lv_draw_label.h"
 1207              		.section	.debug_info,"",%progbits
 1208              	.Ldebug_info0:
 1209 0000 760A0000 		.4byte	0xa76
 1210 0004 0400     		.2byte	0x4
 1211 0006 00000000 		.4byte	.Ldebug_abbrev0
 1212 000a 04       		.byte	0x4
 1213 000b 01       		.uleb128 0x1
 1214 000c 6D060000 		.4byte	.LASF139
 1215 0010 0C       		.byte	0xc
 1216 0011 A7000000 		.4byte	.LASF140
 1217 0015 01010000 		.4byte	.LASF141
 1218 0019 18000000 		.4byte	.Ldebug_ranges0+0x18
 1219 001d 00000000 		.4byte	0
 1220 0021 00000000 		.4byte	.Ldebug_line0
 1221 0025 02       		.uleb128 0x2
 1222 0026 CC030000 		.4byte	.LASF0
 1223 002a 05       		.byte	0x5
 1224 002b 1B       		.byte	0x1b
 1225 002c 30000000 		.4byte	0x30
 1226 0030 03       		.uleb128 0x3
 1227 0031 01       		.byte	0x1
 1228 0032 06       		.byte	0x6
 1229 0033 0A060000 		.4byte	.LASF2
 1230 0037 02       		.uleb128 0x2
 1231 0038 DC040000 		.4byte	.LASF1
 1232 003c 05       		.byte	0x5
 1233 003d 1D       		.byte	0x1d
 1234 003e 42000000 		.4byte	0x42
 1235 0042 03       		.uleb128 0x3
 1236 0043 01       		.byte	0x1
 1237 0044 08       		.byte	0x8
 1238 0045 8E050000 		.4byte	.LASF3
 1239 0049 02       		.uleb128 0x2
 1240 004a 97030000 		.4byte	.LASF4
 1241 004e 05       		.byte	0x5
 1242 004f 29       		.byte	0x29
 1243 0050 54000000 		.4byte	0x54
 1244 0054 03       		.uleb128 0x3
 1245 0055 02       		.byte	0x2
 1246 0056 05       		.byte	0x5
 1247 0057 76040000 		.4byte	.LASF5
 1248 005b 02       		.uleb128 0x2
 1249 005c 45020000 		.4byte	.LASF6
 1250 0060 05       		.byte	0x5
 1251 0061 2B       		.byte	0x2b
 1252 0062 66000000 		.4byte	0x66
 1253 0066 03       		.uleb128 0x3
 1254 0067 02       		.byte	0x2
 1255 0068 07       		.byte	0x7
 1256 0069 24060000 		.4byte	.LASF7
 1257 006d 02       		.uleb128 0x2
ARM GAS  C:\Users\tmj32\AppData\Local\Temp\ccHxR1NV.s 			page 41


 1258 006e 6B000000 		.4byte	.LASF8
 1259 0072 05       		.byte	0x5
 1260 0073 3F       		.byte	0x3f
 1261 0074 78000000 		.4byte	0x78
 1262 0078 03       		.uleb128 0x3
 1263 0079 04       		.byte	0x4
 1264 007a 05       		.byte	0x5
 1265 007b 9B040000 		.4byte	.LASF9
 1266 007f 02       		.uleb128 0x2
 1267 0080 B4050000 		.4byte	.LASF10
 1268 0084 05       		.byte	0x5
 1269 0085 41       		.byte	0x41
 1270 0086 8A000000 		.4byte	0x8a
 1271 008a 03       		.uleb128 0x3
 1272 008b 04       		.byte	0x4
 1273 008c 07       		.byte	0x7
 1274 008d 07050000 		.4byte	.LASF11
 1275 0091 03       		.uleb128 0x3
 1276 0092 08       		.byte	0x8
 1277 0093 05       		.byte	0x5
 1278 0094 61030000 		.4byte	.LASF12
 1279 0098 03       		.uleb128 0x3
 1280 0099 08       		.byte	0x8
 1281 009a 07       		.byte	0x7
 1282 009b 11020000 		.4byte	.LASF13
 1283 009f 04       		.uleb128 0x4
 1284 00a0 04       		.byte	0x4
 1285 00a1 05       		.byte	0x5
 1286 00a2 696E7400 		.ascii	"int\000"
 1287 00a6 03       		.uleb128 0x3
 1288 00a7 04       		.byte	0x4
 1289 00a8 07       		.byte	0x7
 1290 00a9 2E000000 		.4byte	.LASF14
 1291 00ad 02       		.uleb128 0x2
 1292 00ae CC010000 		.4byte	.LASF15
 1293 00b2 06       		.byte	0x6
 1294 00b3 14       		.byte	0x14
 1295 00b4 25000000 		.4byte	0x25
 1296 00b8 02       		.uleb128 0x2
 1297 00b9 20030000 		.4byte	.LASF16
 1298 00bd 06       		.byte	0x6
 1299 00be 18       		.byte	0x18
 1300 00bf 37000000 		.4byte	0x37
 1301 00c3 02       		.uleb128 0x2
 1302 00c4 F7010000 		.4byte	.LASF17
 1303 00c8 06       		.byte	0x6
 1304 00c9 20       		.byte	0x20
 1305 00ca 49000000 		.4byte	0x49
 1306 00ce 02       		.uleb128 0x2
 1307 00cf 09040000 		.4byte	.LASF18
 1308 00d3 06       		.byte	0x6
 1309 00d4 24       		.byte	0x24
 1310 00d5 5B000000 		.4byte	0x5b
 1311 00d9 02       		.uleb128 0x2
 1312 00da 3C050000 		.4byte	.LASF19
 1313 00de 06       		.byte	0x6
 1314 00df 2C       		.byte	0x2c
ARM GAS  C:\Users\tmj32\AppData\Local\Temp\ccHxR1NV.s 			page 42


 1315 00e0 6D000000 		.4byte	0x6d
 1316 00e4 02       		.uleb128 0x2
 1317 00e5 C3010000 		.4byte	.LASF20
 1318 00e9 06       		.byte	0x6
 1319 00ea 30       		.byte	0x30
 1320 00eb 7F000000 		.4byte	0x7f
 1321 00ef 02       		.uleb128 0x2
 1322 00f0 C1040000 		.4byte	.LASF21
 1323 00f4 07       		.byte	0x7
 1324 00f5 3C       		.byte	0x3c
 1325 00f6 C3000000 		.4byte	0xc3
 1326 00fa 05       		.uleb128 0x5
 1327 00fb 04       		.byte	0x4
 1328 00fc 03       		.uleb128 0x3
 1329 00fd 08       		.byte	0x8
 1330 00fe 04       		.byte	0x4
 1331 00ff FD030000 		.4byte	.LASF22
 1332 0103 06       		.uleb128 0x6
 1333 0104 08       		.byte	0x8
 1334 0105 01       		.byte	0x1
 1335 0106 2E       		.byte	0x2e
 1336 0107 54010000 		.4byte	0x154
 1337 010b 07       		.uleb128 0x7
 1338 010c 63070000 		.4byte	.LASF23
 1339 0110 01       		.byte	0x1
 1340 0111 30       		.byte	0x30
 1341 0112 CE000000 		.4byte	0xce
 1342 0116 00       		.byte	0
 1343 0117 07       		.uleb128 0x7
 1344 0118 01050000 		.4byte	.LASF24
 1345 011c 01       		.byte	0x1
 1346 011d 31       		.byte	0x31
 1347 011e B8000000 		.4byte	0xb8
 1348 0122 02       		.byte	0x2
 1349 0123 07       		.uleb128 0x7
 1350 0124 F6040000 		.4byte	.LASF25
 1351 0128 01       		.byte	0x1
 1352 0129 32       		.byte	0x32
 1353 012a B8000000 		.4byte	0xb8
 1354 012e 03       		.byte	0x3
 1355 012f 07       		.uleb128 0x7
 1356 0130 3B000000 		.4byte	.LASF26
 1357 0134 01       		.byte	0x1
 1358 0135 33       		.byte	0x33
 1359 0136 AD000000 		.4byte	0xad
 1360 013a 04       		.byte	0x4
 1361 013b 07       		.uleb128 0x7
 1362 013c 41000000 		.4byte	.LASF27
 1363 0140 01       		.byte	0x1
 1364 0141 34       		.byte	0x34
 1365 0142 AD000000 		.4byte	0xad
 1366 0146 05       		.byte	0x5
 1367 0147 08       		.uleb128 0x8
 1368 0148 62707000 		.ascii	"bpp\000"
 1369 014c 01       		.byte	0x1
 1370 014d 35       		.byte	0x35
 1371 014e B8000000 		.4byte	0xb8
ARM GAS  C:\Users\tmj32\AppData\Local\Temp\ccHxR1NV.s 			page 43


 1372 0152 06       		.byte	0x6
 1373 0153 00       		.byte	0
 1374 0154 02       		.uleb128 0x2
 1375 0155 0C030000 		.4byte	.LASF28
 1376 0159 01       		.byte	0x1
 1377 015a 36       		.byte	0x36
 1378 015b 03010000 		.4byte	0x103
 1379 015f 09       		.uleb128 0x9
 1380 0160 AF020000 		.4byte	.LASF142
 1381 0164 10       		.byte	0x10
 1382 0165 01       		.byte	0x1
 1383 0166 44       		.byte	0x44
 1384 0167 B7010000 		.4byte	0x1b7
 1385 016b 07       		.uleb128 0x7
 1386 016c 47000000 		.4byte	.LASF29
 1387 0170 01       		.byte	0x1
 1388 0171 47       		.byte	0x47
 1389 0172 ED010000 		.4byte	0x1ed
 1390 0176 00       		.byte	0
 1391 0177 07       		.uleb128 0x7
 1392 0178 CD050000 		.4byte	.LASF30
 1393 017c 01       		.byte	0x1
 1394 017d 4A       		.byte	0x4a
 1395 017e 12020000 		.4byte	0x212
 1396 0182 04       		.byte	0x4
 1397 0183 07       		.uleb128 0x7
 1398 0184 EA020000 		.4byte	.LASF31
 1399 0188 01       		.byte	0x1
 1400 0189 4D       		.byte	0x4d
 1401 018a B8000000 		.4byte	0xb8
 1402 018e 08       		.byte	0x8
 1403 018f 07       		.uleb128 0x7
 1404 0190 44050000 		.4byte	.LASF32
 1405 0194 01       		.byte	0x1
 1406 0195 4E       		.byte	0x4e
 1407 0196 AD000000 		.4byte	0xad
 1408 019a 09       		.byte	0x9
 1409 019b 0A       		.uleb128 0xa
 1410 019c BB030000 		.4byte	.LASF80
 1411 01a0 01       		.byte	0x1
 1412 01a1 4F       		.byte	0x4f
 1413 01a2 B8000000 		.4byte	0xb8
 1414 01a6 01       		.byte	0x1
 1415 01a7 02       		.byte	0x2
 1416 01a8 06       		.byte	0x6
 1417 01a9 0A       		.byte	0xa
 1418 01aa 08       		.uleb128 0x8
 1419 01ab 64736300 		.ascii	"dsc\000"
 1420 01af 01       		.byte	0x1
 1421 01b0 50       		.byte	0x50
 1422 01b1 FA000000 		.4byte	0xfa
 1423 01b5 0C       		.byte	0xc
 1424 01b6 00       		.byte	0
 1425 01b7 0B       		.uleb128 0xb
 1426 01b8 D5010000 		.4byte	0x1d5
 1427 01bc D5010000 		.4byte	0x1d5
 1428 01c0 0C       		.uleb128 0xc
ARM GAS  C:\Users\tmj32\AppData\Local\Temp\ccHxR1NV.s 			page 44


 1429 01c1 DC010000 		.4byte	0x1dc
 1430 01c5 0C       		.uleb128 0xc
 1431 01c6 E7010000 		.4byte	0x1e7
 1432 01ca 0C       		.uleb128 0xc
 1433 01cb E4000000 		.4byte	0xe4
 1434 01cf 0C       		.uleb128 0xc
 1435 01d0 E4000000 		.4byte	0xe4
 1436 01d4 00       		.byte	0
 1437 01d5 03       		.uleb128 0x3
 1438 01d6 01       		.byte	0x1
 1439 01d7 02       		.byte	0x2
 1440 01d8 99020000 		.4byte	.LASF33
 1441 01dc 0D       		.uleb128 0xd
 1442 01dd 04       		.byte	0x4
 1443 01de E2010000 		.4byte	0x1e2
 1444 01e2 0E       		.uleb128 0xe
 1445 01e3 5F010000 		.4byte	0x15f
 1446 01e7 0D       		.uleb128 0xd
 1447 01e8 04       		.byte	0x4
 1448 01e9 54010000 		.4byte	0x154
 1449 01ed 0D       		.uleb128 0xd
 1450 01ee 04       		.byte	0x4
 1451 01ef B7010000 		.4byte	0x1b7
 1452 01f3 0B       		.uleb128 0xb
 1453 01f4 07020000 		.4byte	0x207
 1454 01f8 07020000 		.4byte	0x207
 1455 01fc 0C       		.uleb128 0xc
 1456 01fd DC010000 		.4byte	0x1dc
 1457 0201 0C       		.uleb128 0xc
 1458 0202 E4000000 		.4byte	0xe4
 1459 0206 00       		.byte	0
 1460 0207 0D       		.uleb128 0xd
 1461 0208 04       		.byte	0x4
 1462 0209 0D020000 		.4byte	0x20d
 1463 020d 0E       		.uleb128 0xe
 1464 020e B8000000 		.4byte	0xb8
 1465 0212 0D       		.uleb128 0xd
 1466 0213 04       		.byte	0x4
 1467 0214 F3010000 		.4byte	0x1f3
 1468 0218 02       		.uleb128 0x2
 1469 0219 46040000 		.4byte	.LASF34
 1470 021d 01       		.byte	0x1
 1471 021e 56       		.byte	0x56
 1472 021f 5F010000 		.4byte	0x15f
 1473 0223 0F       		.uleb128 0xf
 1474 0224 01       		.byte	0x1
 1475 0225 42000000 		.4byte	0x42
 1476 0229 02       		.byte	0x2
 1477 022a 3E       		.byte	0x3e
 1478 022b 7E020000 		.4byte	0x27e
 1479 022f 10       		.uleb128 0x10
 1480 0230 2D020000 		.4byte	.LASF35
 1481 0234 00       		.byte	0
 1482 0235 10       		.uleb128 0x10
 1483 0236 25000000 		.4byte	.LASF36
 1484 023a 00       		.byte	0
 1485 023b 10       		.uleb128 0x10
ARM GAS  C:\Users\tmj32\AppData\Local\Temp\ccHxR1NV.s 			page 45


 1486 023c 57030000 		.4byte	.LASF37
 1487 0240 19       		.byte	0x19
 1488 0241 10       		.uleb128 0x10
 1489 0242 A6030000 		.4byte	.LASF38
 1490 0246 33       		.byte	0x33
 1491 0247 10       		.uleb128 0x10
 1492 0248 F3030000 		.4byte	.LASF39
 1493 024c 4C       		.byte	0x4c
 1494 024d 10       		.uleb128 0x10
 1495 024e A4040000 		.4byte	.LASF40
 1496 0252 66       		.byte	0x66
 1497 0253 10       		.uleb128 0x10
 1498 0254 E6040000 		.4byte	.LASF41
 1499 0258 7F       		.byte	0x7f
 1500 0259 10       		.uleb128 0x10
 1501 025a 64050000 		.4byte	.LASF42
 1502 025e 99       		.byte	0x99
 1503 025f 10       		.uleb128 0x10
 1504 0260 EF050000 		.4byte	.LASF43
 1505 0264 B2       		.byte	0xb2
 1506 0265 10       		.uleb128 0x10
 1507 0266 63060000 		.4byte	.LASF44
 1508 026a CC       		.byte	0xcc
 1509 026b 10       		.uleb128 0x10
 1510 026c 12000000 		.4byte	.LASF45
 1511 0270 E5       		.byte	0xe5
 1512 0271 10       		.uleb128 0x10
 1513 0272 D1040000 		.4byte	.LASF46
 1514 0276 FF       		.byte	0xff
 1515 0277 10       		.uleb128 0x10
 1516 0278 00000000 		.4byte	.LASF47
 1517 027c FF       		.byte	0xff
 1518 027d 00       		.byte	0
 1519 027e 06       		.uleb128 0x6
 1520 027f 04       		.byte	0x4
 1521 0280 02       		.byte	0x2
 1522 0281 F3       		.byte	0xf3
 1523 0282 B7020000 		.4byte	0x2b7
 1524 0286 07       		.uleb128 0x7
 1525 0287 BC040000 		.4byte	.LASF48
 1526 028b 02       		.byte	0x2
 1527 028c F5       		.byte	0xf5
 1528 028d B8000000 		.4byte	0xb8
 1529 0291 00       		.byte	0
 1530 0292 07       		.uleb128 0x7
 1531 0293 DC030000 		.4byte	.LASF49
 1532 0297 02       		.byte	0x2
 1533 0298 F6       		.byte	0xf6
 1534 0299 B8000000 		.4byte	0xb8
 1535 029d 01       		.byte	0x1
 1536 029e 08       		.uleb128 0x8
 1537 029f 72656400 		.ascii	"red\000"
 1538 02a3 02       		.byte	0x2
 1539 02a4 F7       		.byte	0xf7
 1540 02a5 B8000000 		.4byte	0xb8
 1541 02a9 02       		.byte	0x2
 1542 02aa 07       		.uleb128 0x7
ARM GAS  C:\Users\tmj32\AppData\Local\Temp\ccHxR1NV.s 			page 46


 1543 02ab 36050000 		.4byte	.LASF50
 1544 02af 02       		.byte	0x2
 1545 02b0 F8       		.byte	0xf8
 1546 02b1 B8000000 		.4byte	0xb8
 1547 02b5 03       		.byte	0x3
 1548 02b6 00       		.byte	0
 1549 02b7 11       		.uleb128 0x11
 1550 02b8 04       		.byte	0x4
 1551 02b9 02       		.byte	0x2
 1552 02ba F1       		.byte	0xf1
 1553 02bb D5020000 		.4byte	0x2d5
 1554 02bf 12       		.uleb128 0x12
 1555 02c0 636800   		.ascii	"ch\000"
 1556 02c3 02       		.byte	0x2
 1557 02c4 F9       		.byte	0xf9
 1558 02c5 7E020000 		.4byte	0x27e
 1559 02c9 13       		.uleb128 0x13
 1560 02ca 0D000000 		.4byte	.LASF51
 1561 02ce 02       		.byte	0x2
 1562 02cf FA       		.byte	0xfa
 1563 02d0 E4000000 		.4byte	0xe4
 1564 02d4 00       		.byte	0
 1565 02d5 02       		.uleb128 0x2
 1566 02d6 D3010000 		.4byte	.LASF52
 1567 02da 02       		.byte	0x2
 1568 02db FB       		.byte	0xfb
 1569 02dc B7020000 		.4byte	0x2b7
 1570 02e0 14       		.uleb128 0x14
 1571 02e1 C1030000 		.4byte	.LASF53
 1572 02e5 02       		.byte	0x2
 1573 02e6 0801     		.2byte	0x108
 1574 02e8 D5020000 		.4byte	0x2d5
 1575 02ec 14       		.uleb128 0x14
 1576 02ed 92040000 		.4byte	.LASF54
 1577 02f1 02       		.byte	0x2
 1578 02f2 0D01     		.2byte	0x10d
 1579 02f4 B8000000 		.4byte	0xb8
 1580 02f8 03       		.uleb128 0x3
 1581 02f9 04       		.byte	0x4
 1582 02fa 07       		.byte	0x7
 1583 02fb 37040000 		.4byte	.LASF55
 1584 02ff 03       		.uleb128 0x3
 1585 0300 01       		.byte	0x1
 1586 0301 08       		.byte	0x8
 1587 0302 00030000 		.4byte	.LASF56
 1588 0306 0D       		.uleb128 0xd
 1589 0307 04       		.byte	0x4
 1590 0308 0C030000 		.4byte	0x30c
 1591 030c 0E       		.uleb128 0xe
 1592 030d FF020000 		.4byte	0x2ff
 1593 0311 06       		.uleb128 0x6
 1594 0312 04       		.byte	0x4
 1595 0313 03       		.byte	0x3
 1596 0314 2A       		.byte	0x2a
 1597 0315 2E030000 		.4byte	0x32e
 1598 0319 08       		.uleb128 0x8
 1599 031a 7800     		.ascii	"x\000"
ARM GAS  C:\Users\tmj32\AppData\Local\Temp\ccHxR1NV.s 			page 47


 1600 031c 03       		.byte	0x3
 1601 031d 2C       		.byte	0x2c
 1602 031e EF000000 		.4byte	0xef
 1603 0322 00       		.byte	0
 1604 0323 08       		.uleb128 0x8
 1605 0324 7900     		.ascii	"y\000"
 1606 0326 03       		.byte	0x3
 1607 0327 2D       		.byte	0x2d
 1608 0328 EF000000 		.4byte	0xef
 1609 032c 02       		.byte	0x2
 1610 032d 00       		.byte	0
 1611 032e 02       		.uleb128 0x2
 1612 032f 60000000 		.4byte	.LASF57
 1613 0333 03       		.byte	0x3
 1614 0334 2E       		.byte	0x2e
 1615 0335 11030000 		.4byte	0x311
 1616 0339 06       		.uleb128 0x6
 1617 033a 08       		.byte	0x8
 1618 033b 03       		.byte	0x3
 1619 033c 31       		.byte	0x31
 1620 033d 6E030000 		.4byte	0x36e
 1621 0341 08       		.uleb128 0x8
 1622 0342 783100   		.ascii	"x1\000"
 1623 0345 03       		.byte	0x3
 1624 0346 33       		.byte	0x33
 1625 0347 EF000000 		.4byte	0xef
 1626 034b 00       		.byte	0
 1627 034c 08       		.uleb128 0x8
 1628 034d 793100   		.ascii	"y1\000"
 1629 0350 03       		.byte	0x3
 1630 0351 34       		.byte	0x34
 1631 0352 EF000000 		.4byte	0xef
 1632 0356 02       		.byte	0x2
 1633 0357 08       		.uleb128 0x8
 1634 0358 783200   		.ascii	"x2\000"
 1635 035b 03       		.byte	0x3
 1636 035c 35       		.byte	0x35
 1637 035d EF000000 		.4byte	0xef
 1638 0361 04       		.byte	0x4
 1639 0362 08       		.uleb128 0x8
 1640 0363 793200   		.ascii	"y2\000"
 1641 0366 03       		.byte	0x3
 1642 0367 36       		.byte	0x36
 1643 0368 EF000000 		.4byte	0xef
 1644 036c 06       		.byte	0x6
 1645 036d 00       		.byte	0
 1646 036e 02       		.uleb128 0x2
 1647 036f 00060000 		.4byte	.LASF58
 1648 0373 03       		.byte	0x3
 1649 0374 37       		.byte	0x37
 1650 0375 39030000 		.4byte	0x339
 1651 0379 02       		.uleb128 0x2
 1652 037a 20070000 		.4byte	.LASF59
 1653 037e 08       		.byte	0x8
 1654 037f 2C       		.byte	0x2c
 1655 0380 B8000000 		.4byte	0xb8
 1656 0384 02       		.uleb128 0x2
ARM GAS  C:\Users\tmj32\AppData\Local\Temp\ccHxR1NV.s 			page 48


 1657 0385 32030000 		.4byte	.LASF60
 1658 0389 08       		.byte	0x8
 1659 038a 33       		.byte	0x33
 1660 038b B8000000 		.4byte	0xb8
 1661 038f 06       		.uleb128 0x6
 1662 0390 08       		.byte	0x8
 1663 0391 08       		.byte	0x8
 1664 0392 48       		.byte	0x48
 1665 0393 C8030000 		.4byte	0x3c8
 1666 0397 07       		.uleb128 0x7
 1667 0398 71020000 		.4byte	.LASF61
 1668 039c 08       		.byte	0x8
 1669 039d 4A       		.byte	0x4a
 1670 039e E0020000 		.4byte	0x2e0
 1671 03a2 00       		.byte	0
 1672 03a3 07       		.uleb128 0x7
 1673 03a4 85020000 		.4byte	.LASF62
 1674 03a8 08       		.byte	0x8
 1675 03a9 4B       		.byte	0x4b
 1676 03aa EF000000 		.4byte	0xef
 1677 03ae 04       		.byte	0x4
 1678 03af 07       		.uleb128 0x7
 1679 03b0 28020000 		.4byte	.LASF63
 1680 03b4 08       		.byte	0x8
 1681 03b5 4C       		.byte	0x4c
 1682 03b6 79030000 		.4byte	0x379
 1683 03ba 06       		.byte	0x6
 1684 03bb 08       		.uleb128 0x8
 1685 03bc 6F706100 		.ascii	"opa\000"
 1686 03c0 08       		.byte	0x8
 1687 03c1 4D       		.byte	0x4d
 1688 03c2 EC020000 		.4byte	0x2ec
 1689 03c6 07       		.byte	0x7
 1690 03c7 00       		.byte	0
 1691 03c8 06       		.uleb128 0x6
 1692 03c9 08       		.byte	0x8
 1693 03ca 08       		.byte	0x8
 1694 03cb 51       		.byte	0x51
 1695 03cc F5030000 		.4byte	0x3f5
 1696 03d0 07       		.uleb128 0x7
 1697 03d1 71020000 		.4byte	.LASF61
 1698 03d5 08       		.byte	0x8
 1699 03d6 53       		.byte	0x53
 1700 03d7 E0020000 		.4byte	0x2e0
 1701 03db 00       		.byte	0
 1702 03dc 07       		.uleb128 0x7
 1703 03dd 85020000 		.4byte	.LASF62
 1704 03e1 08       		.byte	0x8
 1705 03e2 54       		.byte	0x54
 1706 03e3 EF000000 		.4byte	0xef
 1707 03e7 04       		.byte	0x4
 1708 03e8 07       		.uleb128 0x7
 1709 03e9 89050000 		.4byte	.LASF64
 1710 03ed 08       		.byte	0x8
 1711 03ee 55       		.byte	0x55
 1712 03ef 84030000 		.4byte	0x384
 1713 03f3 06       		.byte	0x6
ARM GAS  C:\Users\tmj32\AppData\Local\Temp\ccHxR1NV.s 			page 49


 1714 03f4 00       		.byte	0
 1715 03f5 06       		.uleb128 0x6
 1716 03f6 0A       		.byte	0xa
 1717 03f7 08       		.byte	0x8
 1718 03f8 58       		.byte	0x58
 1719 03f9 3A040000 		.4byte	0x43a
 1720 03fd 08       		.uleb128 0x8
 1721 03fe 746F7000 		.ascii	"top\000"
 1722 0402 08       		.byte	0x8
 1723 0403 5A       		.byte	0x5a
 1724 0404 EF000000 		.4byte	0xef
 1725 0408 00       		.byte	0
 1726 0409 07       		.uleb128 0x7
 1727 040a 05030000 		.4byte	.LASF65
 1728 040e 08       		.byte	0x8
 1729 040f 5B       		.byte	0x5b
 1730 0410 EF000000 		.4byte	0xef
 1731 0414 02       		.byte	0x2
 1732 0415 07       		.uleb128 0x7
 1733 0416 CC040000 		.4byte	.LASF66
 1734 041a 08       		.byte	0x8
 1735 041b 5C       		.byte	0x5c
 1736 041c EF000000 		.4byte	0xef
 1737 0420 04       		.byte	0x4
 1738 0421 07       		.uleb128 0x7
 1739 0422 51030000 		.4byte	.LASF67
 1740 0426 08       		.byte	0x8
 1741 0427 5D       		.byte	0x5d
 1742 0428 EF000000 		.4byte	0xef
 1743 042c 06       		.byte	0x6
 1744 042d 07       		.uleb128 0x7
 1745 042e AA010000 		.4byte	.LASF68
 1746 0432 08       		.byte	0x8
 1747 0433 5E       		.byte	0x5e
 1748 0434 EF000000 		.4byte	0xef
 1749 0438 08       		.byte	0x8
 1750 0439 00       		.byte	0
 1751 043a 06       		.uleb128 0x6
 1752 043b 28       		.byte	0x28
 1753 043c 08       		.byte	0x8
 1754 043d 41       		.byte	0x41
 1755 043e 97040000 		.4byte	0x497
 1756 0442 07       		.uleb128 0x7
 1757 0443 5D040000 		.4byte	.LASF69
 1758 0447 08       		.byte	0x8
 1759 0448 43       		.byte	0x43
 1760 0449 E0020000 		.4byte	0x2e0
 1761 044d 00       		.byte	0
 1762 044e 07       		.uleb128 0x7
 1763 044f 1E040000 		.4byte	.LASF70
 1764 0453 08       		.byte	0x8
 1765 0454 44       		.byte	0x44
 1766 0455 E0020000 		.4byte	0x2e0
 1767 0459 04       		.byte	0x4
 1768 045a 07       		.uleb128 0x7
 1769 045b 4E050000 		.4byte	.LASF71
 1770 045f 08       		.byte	0x8
ARM GAS  C:\Users\tmj32\AppData\Local\Temp\ccHxR1NV.s 			page 50


 1771 0460 45       		.byte	0x45
 1772 0461 EF000000 		.4byte	0xef
 1773 0465 08       		.byte	0x8
 1774 0466 08       		.uleb128 0x8
 1775 0467 6F706100 		.ascii	"opa\000"
 1776 046b 08       		.byte	0x8
 1777 046c 46       		.byte	0x46
 1778 046d EC020000 		.4byte	0x2ec
 1779 0471 0A       		.byte	0xa
 1780 0472 07       		.uleb128 0x7
 1781 0473 58020000 		.4byte	.LASF72
 1782 0477 08       		.byte	0x8
 1783 0478 4E       		.byte	0x4e
 1784 0479 8F030000 		.4byte	0x38f
 1785 047d 0C       		.byte	0xc
 1786 047e 07       		.uleb128 0x7
 1787 047f F9050000 		.4byte	.LASF73
 1788 0483 08       		.byte	0x8
 1789 0484 56       		.byte	0x56
 1790 0485 C8030000 		.4byte	0x3c8
 1791 0489 14       		.byte	0x14
 1792 048a 07       		.uleb128 0x7
 1793 048b 7A030000 		.4byte	.LASF74
 1794 048f 08       		.byte	0x8
 1795 0490 5F       		.byte	0x5f
 1796 0491 F5030000 		.4byte	0x3f5
 1797 0495 1C       		.byte	0x1c
 1798 0496 00       		.byte	0
 1799 0497 06       		.uleb128 0x6
 1800 0498 14       		.byte	0x14
 1801 0499 08       		.byte	0x8
 1802 049a 63       		.byte	0x63
 1803 049b E8040000 		.4byte	0x4e8
 1804 049f 07       		.uleb128 0x7
 1805 04a0 71020000 		.4byte	.LASF61
 1806 04a4 08       		.byte	0x8
 1807 04a5 65       		.byte	0x65
 1808 04a6 E0020000 		.4byte	0x2e0
 1809 04aa 00       		.byte	0
 1810 04ab 07       		.uleb128 0x7
 1811 04ac E0010000 		.4byte	.LASF75
 1812 04b0 08       		.byte	0x8
 1813 04b1 66       		.byte	0x66
 1814 04b2 E0020000 		.4byte	0x2e0
 1815 04b6 04       		.byte	0x4
 1816 04b7 07       		.uleb128 0x7
 1817 04b8 FC040000 		.4byte	.LASF76
 1818 04bc 08       		.byte	0x8
 1819 04bd 67       		.byte	0x67
 1820 04be E8040000 		.4byte	0x4e8
 1821 04c2 08       		.byte	0x8
 1822 04c3 07       		.uleb128 0x7
 1823 04c4 50040000 		.4byte	.LASF77
 1824 04c8 08       		.byte	0x8
 1825 04c9 68       		.byte	0x68
 1826 04ca EF000000 		.4byte	0xef
 1827 04ce 0C       		.byte	0xc
ARM GAS  C:\Users\tmj32\AppData\Local\Temp\ccHxR1NV.s 			page 51


 1828 04cf 07       		.uleb128 0x7
 1829 04d0 D8020000 		.4byte	.LASF78
 1830 04d4 08       		.byte	0x8
 1831 04d5 69       		.byte	0x69
 1832 04d6 EF000000 		.4byte	0xef
 1833 04da 0E       		.byte	0xe
 1834 04db 08       		.uleb128 0x8
 1835 04dc 6F706100 		.ascii	"opa\000"
 1836 04e0 08       		.byte	0x8
 1837 04e1 6A       		.byte	0x6a
 1838 04e2 EC020000 		.4byte	0x2ec
 1839 04e6 10       		.byte	0x10
 1840 04e7 00       		.byte	0
 1841 04e8 0D       		.uleb128 0xd
 1842 04e9 04       		.byte	0x4
 1843 04ea EE040000 		.4byte	0x4ee
 1844 04ee 0E       		.uleb128 0xe
 1845 04ef 18020000 		.4byte	0x218
 1846 04f3 06       		.uleb128 0x6
 1847 04f4 08       		.byte	0x8
 1848 04f5 08       		.byte	0x8
 1849 04f6 6E       		.byte	0x6e
 1850 04f7 20050000 		.4byte	0x520
 1851 04fb 07       		.uleb128 0x7
 1852 04fc 71020000 		.4byte	.LASF61
 1853 0500 08       		.byte	0x8
 1854 0501 70       		.byte	0x70
 1855 0502 E0020000 		.4byte	0x2e0
 1856 0506 00       		.byte	0
 1857 0507 07       		.uleb128 0x7
 1858 0508 2E050000 		.4byte	.LASF79
 1859 050c 08       		.byte	0x8
 1860 050d 71       		.byte	0x71
 1861 050e EC020000 		.4byte	0x2ec
 1862 0512 04       		.byte	0x4
 1863 0513 08       		.uleb128 0x8
 1864 0514 6F706100 		.ascii	"opa\000"
 1865 0518 08       		.byte	0x8
 1866 0519 72       		.byte	0x72
 1867 051a EC020000 		.4byte	0x2ec
 1868 051e 05       		.byte	0x5
 1869 051f 00       		.byte	0
 1870 0520 06       		.uleb128 0x6
 1871 0521 08       		.byte	0x8
 1872 0522 08       		.byte	0x8
 1873 0523 76       		.byte	0x76
 1874 0524 5C050000 		.4byte	0x55c
 1875 0528 07       		.uleb128 0x7
 1876 0529 71020000 		.4byte	.LASF61
 1877 052d 08       		.byte	0x8
 1878 052e 78       		.byte	0x78
 1879 052f E0020000 		.4byte	0x2e0
 1880 0533 00       		.byte	0
 1881 0534 07       		.uleb128 0x7
 1882 0535 85020000 		.4byte	.LASF62
 1883 0539 08       		.byte	0x8
 1884 053a 79       		.byte	0x79
ARM GAS  C:\Users\tmj32\AppData\Local\Temp\ccHxR1NV.s 			page 52


 1885 053b EF000000 		.4byte	0xef
 1886 053f 04       		.byte	0x4
 1887 0540 08       		.uleb128 0x8
 1888 0541 6F706100 		.ascii	"opa\000"
 1889 0545 08       		.byte	0x8
 1890 0546 7A       		.byte	0x7a
 1891 0547 EC020000 		.4byte	0x2ec
 1892 054b 06       		.byte	0x6
 1893 054c 0A       		.uleb128 0xa
 1894 054d 77020000 		.4byte	.LASF81
 1895 0551 08       		.byte	0x8
 1896 0552 7B       		.byte	0x7b
 1897 0553 B8000000 		.4byte	0xb8
 1898 0557 01       		.byte	0x1
 1899 0558 01       		.byte	0x1
 1900 0559 07       		.byte	0x7
 1901 055a 07       		.byte	0x7
 1902 055b 00       		.byte	0
 1903 055c 06       		.uleb128 0x6
 1904 055d 50       		.byte	0x50
 1905 055e 08       		.byte	0x8
 1906 055f 3C       		.byte	0x3c
 1907 0560 A4050000 		.4byte	0x5a4
 1908 0564 0A       		.uleb128 0xa
 1909 0565 6F030000 		.4byte	.LASF82
 1910 0569 08       		.byte	0x8
 1911 056a 3E       		.byte	0x3e
 1912 056b B8000000 		.4byte	0xb8
 1913 056f 01       		.byte	0x1
 1914 0570 01       		.byte	0x1
 1915 0571 07       		.byte	0x7
 1916 0572 00       		.byte	0
 1917 0573 07       		.uleb128 0x7
 1918 0574 5F050000 		.4byte	.LASF83
 1919 0578 08       		.byte	0x8
 1920 0579 60       		.byte	0x60
 1921 057a 3A040000 		.4byte	0x43a
 1922 057e 04       		.byte	0x4
 1923 057f 07       		.uleb128 0x7
 1924 0580 75030000 		.4byte	.LASF84
 1925 0584 08       		.byte	0x8
 1926 0585 6B       		.byte	0x6b
 1927 0586 97040000 		.4byte	0x497
 1928 058a 2C       		.byte	0x2c
 1929 058b 07       		.uleb128 0x7
 1930 058c B0030000 		.4byte	.LASF85
 1931 0590 08       		.byte	0x8
 1932 0591 73       		.byte	0x73
 1933 0592 F3040000 		.4byte	0x4f3
 1934 0596 40       		.byte	0x40
 1935 0597 07       		.uleb128 0x7
 1936 0598 BF050000 		.4byte	.LASF86
 1937 059c 08       		.byte	0x8
 1938 059d 7C       		.byte	0x7c
 1939 059e 20050000 		.4byte	0x520
 1940 05a2 48       		.byte	0x48
 1941 05a3 00       		.byte	0
ARM GAS  C:\Users\tmj32\AppData\Local\Temp\ccHxR1NV.s 			page 53


 1942 05a4 02       		.uleb128 0x2
 1943 05a5 55000000 		.4byte	.LASF87
 1944 05a9 08       		.byte	0x8
 1945 05aa 84       		.byte	0x84
 1946 05ab 5C050000 		.4byte	0x55c
 1947 05af 0F       		.uleb128 0xf
 1948 05b0 01       		.byte	0x1
 1949 05b1 42000000 		.4byte	0x42
 1950 05b5 09       		.byte	0x9
 1951 05b6 2B       		.byte	0x2b
 1952 05b7 DA050000 		.4byte	0x5da
 1953 05bb 10       		.uleb128 0x10
 1954 05bc 37060000 		.4byte	.LASF88
 1955 05c0 00       		.byte	0
 1956 05c1 10       		.uleb128 0x10
 1957 05c2 ED000000 		.4byte	.LASF89
 1958 05c6 01       		.byte	0x1
 1959 05c7 10       		.uleb128 0x10
 1960 05c8 48060000 		.4byte	.LASF90
 1961 05cc 02       		.byte	0x2
 1962 05cd 10       		.uleb128 0x10
 1963 05ce B0010000 		.4byte	.LASF91
 1964 05d2 04       		.byte	0x4
 1965 05d3 10       		.uleb128 0x10
 1966 05d4 5F020000 		.4byte	.LASF92
 1967 05d8 08       		.byte	0x8
 1968 05d9 00       		.byte	0
 1969 05da 02       		.uleb128 0x2
 1970 05db 16060000 		.4byte	.LASF93
 1971 05df 09       		.byte	0x9
 1972 05e0 32       		.byte	0x32
 1973 05e1 B8000000 		.4byte	0xb8
 1974 05e5 0D       		.uleb128 0xd
 1975 05e6 04       		.byte	0x4
 1976 05e7 EB050000 		.4byte	0x5eb
 1977 05eb 0E       		.uleb128 0xe
 1978 05ec A4050000 		.4byte	0x5a4
 1979 05f0 02       		.uleb128 0x2
 1980 05f1 68040000 		.4byte	.LASF94
 1981 05f5 0A       		.byte	0xa
 1982 05f6 30       		.byte	0x30
 1983 05f7 B8000000 		.4byte	0xb8
 1984 05fb 06       		.uleb128 0x6
 1985 05fc 04       		.byte	0x4
 1986 05fd 0B       		.byte	0xb
 1987 05fe 1C       		.byte	0x1c
 1988 05ff 1C060000 		.4byte	0x61c
 1989 0603 07       		.uleb128 0x7
 1990 0604 F0040000 		.4byte	.LASF95
 1991 0608 0B       		.byte	0xb
 1992 0609 1E       		.byte	0x1e
 1993 060a CE000000 		.4byte	0xce
 1994 060e 00       		.byte	0
 1995 060f 08       		.uleb128 0x8
 1996 0610 656E6400 		.ascii	"end\000"
 1997 0614 0B       		.byte	0xb
 1998 0615 1F       		.byte	0x1f
ARM GAS  C:\Users\tmj32\AppData\Local\Temp\ccHxR1NV.s 			page 54


 1999 0616 CE000000 		.4byte	0xce
 2000 061a 02       		.byte	0x2
 2001 061b 00       		.byte	0
 2002 061c 02       		.uleb128 0x2
 2003 061d 9C050000 		.4byte	.LASF96
 2004 0621 0B       		.byte	0xb
 2005 0622 20       		.byte	0x20
 2006 0623 FB050000 		.4byte	0x5fb
 2007 0627 06       		.uleb128 0x6
 2008 0628 0C       		.byte	0xc
 2009 0629 0B       		.byte	0xb
 2010 062a 28       		.byte	0x28
 2011 062b 52060000 		.4byte	0x652
 2012 062f 07       		.uleb128 0x7
 2013 0630 80040000 		.4byte	.LASF97
 2014 0634 0B       		.byte	0xb
 2015 0635 2A       		.byte	0x2a
 2016 0636 D9000000 		.4byte	0xd9
 2017 063a 00       		.byte	0
 2018 063b 08       		.uleb128 0x8
 2019 063c 7900     		.ascii	"y\000"
 2020 063e 0B       		.byte	0xb
 2021 063f 2D       		.byte	0x2d
 2022 0640 D9000000 		.4byte	0xd9
 2023 0644 04       		.byte	0x4
 2024 0645 07       		.uleb128 0x7
 2025 0646 5B070000 		.4byte	.LASF98
 2026 064a 0B       		.byte	0xb
 2027 064b 31       		.byte	0x31
 2028 064c D9000000 		.4byte	0xd9
 2029 0650 08       		.byte	0x8
 2030 0651 00       		.byte	0
 2031 0652 02       		.uleb128 0x2
 2032 0653 19050000 		.4byte	.LASF99
 2033 0657 0B       		.byte	0xb
 2034 0658 32       		.byte	0x32
 2035 0659 27060000 		.4byte	0x627
 2036 065d 0F       		.uleb128 0xf
 2037 065e 01       		.byte	0x1
 2038 065f 42000000 		.4byte	0x42
 2039 0663 04       		.byte	0x4
 2040 0664 16       		.byte	0x16
 2041 0665 7C060000 		.4byte	0x67c
 2042 0669 10       		.uleb128 0x10
 2043 066a BF020000 		.4byte	.LASF100
 2044 066e 00       		.byte	0
 2045 066f 10       		.uleb128 0x10
 2046 0670 29040000 		.4byte	.LASF101
 2047 0674 01       		.byte	0x1
 2048 0675 10       		.uleb128 0x10
 2049 0676 EA010000 		.4byte	.LASF102
 2050 067a 02       		.byte	0x2
 2051 067b 00       		.byte	0
 2052 067c 02       		.uleb128 0x2
 2053 067d 12040000 		.4byte	.LASF103
 2054 0681 04       		.byte	0x4
 2055 0682 1B       		.byte	0x1b
ARM GAS  C:\Users\tmj32\AppData\Local\Temp\ccHxR1NV.s 			page 55


 2056 0683 B8000000 		.4byte	0xb8
 2057 0687 15       		.uleb128 0x15
 2058 0688 43070000 		.4byte	.LASF104
 2059 068c 01       		.byte	0x1
 2060 068d 7C       		.byte	0x7c
 2061 068e B8000000 		.4byte	0xb8
 2062 0692 00000000 		.4byte	.LFB0
 2063 0696 18000000 		.4byte	.LFE0-.LFB0
 2064 069a 01       		.uleb128 0x1
 2065 069b 9C       		.byte	0x9c
 2066 069c AF060000 		.4byte	0x6af
 2067 06a0 16       		.uleb128 0x16
 2068 06a1 E3020000 		.4byte	.LASF106
 2069 06a5 01       		.byte	0x1
 2070 06a6 7C       		.byte	0x7c
 2071 06a7 E8040000 		.4byte	0x4e8
 2072 06ab 02       		.uleb128 0x2
 2073 06ac 91       		.byte	0x91
 2074 06ad 74       		.sleb128 -12
 2075 06ae 00       		.byte	0
 2076 06af 17       		.uleb128 0x17
 2077 06b0 43030000 		.4byte	.LASF105
 2078 06b4 02       		.byte	0x2
 2079 06b5 DD01     		.2byte	0x1dd
 2080 06b7 E0020000 		.4byte	0x2e0
 2081 06bb 00000000 		.4byte	.LFB7
 2082 06bf 38000000 		.4byte	.LFE7-.LFB7
 2083 06c3 01       		.uleb128 0x1
 2084 06c4 9C       		.byte	0x9c
 2085 06c5 F1060000 		.4byte	0x6f1
 2086 06c9 18       		.uleb128 0x18
 2087 06ca 7200     		.ascii	"r\000"
 2088 06cc 02       		.byte	0x2
 2089 06cd DD01     		.2byte	0x1dd
 2090 06cf B8000000 		.4byte	0xb8
 2091 06d3 02       		.uleb128 0x2
 2092 06d4 91       		.byte	0x91
 2093 06d5 77       		.sleb128 -9
 2094 06d6 18       		.uleb128 0x18
 2095 06d7 6700     		.ascii	"g\000"
 2096 06d9 02       		.byte	0x2
 2097 06da DD01     		.2byte	0x1dd
 2098 06dc B8000000 		.4byte	0xb8
 2099 06e0 02       		.uleb128 0x2
 2100 06e1 91       		.byte	0x91
 2101 06e2 76       		.sleb128 -10
 2102 06e3 18       		.uleb128 0x18
 2103 06e4 6200     		.ascii	"b\000"
 2104 06e6 02       		.byte	0x2
 2105 06e7 DD01     		.2byte	0x1dd
 2106 06e9 B8000000 		.4byte	0xb8
 2107 06ed 02       		.uleb128 0x2
 2108 06ee 91       		.byte	0x91
 2109 06ef 75       		.sleb128 -11
 2110 06f0 00       		.byte	0
 2111 06f1 15       		.uleb128 0x15
 2112 06f2 31070000 		.4byte	.LASF107
ARM GAS  C:\Users\tmj32\AppData\Local\Temp\ccHxR1NV.s 			page 56


 2113 06f6 03       		.byte	0x3
 2114 06f7 56       		.byte	0x56
 2115 06f8 EF000000 		.4byte	0xef
 2116 06fc 00000000 		.4byte	.LFB11
 2117 0700 2E000000 		.4byte	.LFE11-.LFB11
 2118 0704 01       		.uleb128 0x1
 2119 0705 9C       		.byte	0x9c
 2120 0706 19070000 		.4byte	0x719
 2121 070a 16       		.uleb128 0x16
 2122 070b D5030000 		.4byte	.LASF108
 2123 070f 03       		.byte	0x3
 2124 0710 56       		.byte	0x56
 2125 0711 19070000 		.4byte	0x719
 2126 0715 02       		.uleb128 0x2
 2127 0716 91       		.byte	0x91
 2128 0717 74       		.sleb128 -12
 2129 0718 00       		.byte	0
 2130 0719 0D       		.uleb128 0xd
 2131 071a 04       		.byte	0x4
 2132 071b 1F070000 		.4byte	0x71f
 2133 071f 0E       		.uleb128 0xe
 2134 0720 6E030000 		.4byte	0x36e
 2135 0724 19       		.uleb128 0x19
 2136 0725 99000000 		.4byte	.LASF143
 2137 0729 04       		.byte	0x4
 2138 072a 39       		.byte	0x39
 2139 072b 00000000 		.4byte	.LFB31
 2140 072f F6070000 		.4byte	.LFE31-.LFB31
 2141 0733 01       		.uleb128 0x1
 2142 0734 9C       		.byte	0x9c
 2143 0735 C2090000 		.4byte	0x9c2
 2144 0739 16       		.uleb128 0x16
 2145 073a 8B040000 		.4byte	.LASF109
 2146 073e 04       		.byte	0x4
 2147 073f 39       		.byte	0x39
 2148 0740 19070000 		.4byte	0x719
 2149 0744 03       		.uleb128 0x3
 2150 0745 91       		.byte	0x91
 2151 0746 AC7E     		.sleb128 -212
 2152 0748 16       		.uleb128 0x16
 2153 0749 B6030000 		.4byte	.LASF110
 2154 074d 04       		.byte	0x4
 2155 074e 39       		.byte	0x39
 2156 074f 19070000 		.4byte	0x719
 2157 0753 03       		.uleb128 0x3
 2158 0754 91       		.byte	0x91
 2159 0755 A87E     		.sleb128 -216
 2160 0757 16       		.uleb128 0x16
 2161 0758 DE050000 		.4byte	.LASF111
 2162 075c 04       		.byte	0x4
 2163 075d 39       		.byte	0x39
 2164 075e E5050000 		.4byte	0x5e5
 2165 0762 03       		.uleb128 0x3
 2166 0763 91       		.byte	0x91
 2167 0764 A47E     		.sleb128 -220
 2168 0766 16       		.uleb128 0x16
 2169 0767 55050000 		.4byte	.LASF112
ARM GAS  C:\Users\tmj32\AppData\Local\Temp\ccHxR1NV.s 			page 57


 2170 076b 04       		.byte	0x4
 2171 076c 39       		.byte	0x39
 2172 076d EC020000 		.4byte	0x2ec
 2173 0771 03       		.uleb128 0x3
 2174 0772 91       		.byte	0x91
 2175 0773 A37E     		.sleb128 -221
 2176 0775 1A       		.uleb128 0x1a
 2177 0776 74787400 		.ascii	"txt\000"
 2178 077a 04       		.byte	0x4
 2179 077b 3A       		.byte	0x3a
 2180 077c 06030000 		.4byte	0x306
 2181 0780 02       		.uleb128 0x2
 2182 0781 91       		.byte	0x91
 2183 0782 00       		.sleb128 0
 2184 0783 16       		.uleb128 0x16
 2185 0784 B7040000 		.4byte	.LASF113
 2186 0788 04       		.byte	0x4
 2187 0789 3A       		.byte	0x3a
 2188 078a DA050000 		.4byte	0x5da
 2189 078e 02       		.uleb128 0x2
 2190 078f 91       		.byte	0x91
 2191 0790 04       		.sleb128 4
 2192 0791 16       		.uleb128 0x16
 2193 0792 8B020000 		.4byte	.LASF114
 2194 0796 04       		.byte	0x4
 2195 0797 3A       		.byte	0x3a
 2196 0798 C2090000 		.4byte	0x9c2
 2197 079c 02       		.uleb128 0x2
 2198 079d 91       		.byte	0x91
 2199 079e 08       		.sleb128 8
 2200 079f 1A       		.uleb128 0x1a
 2201 07a0 73656C00 		.ascii	"sel\000"
 2202 07a4 04       		.byte	0x4
 2203 07a5 3A       		.byte	0x3a
 2204 07a6 C8090000 		.4byte	0x9c8
 2205 07aa 02       		.uleb128 0x2
 2206 07ab 91       		.byte	0x91
 2207 07ac 0C       		.sleb128 12
 2208 07ad 16       		.uleb128 0x16
 2209 07ae A1030000 		.4byte	.LASF115
 2210 07b2 04       		.byte	0x4
 2211 07b3 3B       		.byte	0x3b
 2212 07b4 CE090000 		.4byte	0x9ce
 2213 07b8 02       		.uleb128 0x2
 2214 07b9 91       		.byte	0x91
 2215 07ba 10       		.sleb128 16
 2216 07bb 16       		.uleb128 0x16
 2217 07bc 1C000000 		.4byte	.LASF116
 2218 07c0 04       		.byte	0x4
 2219 07c1 3B       		.byte	0x3b
 2220 07c2 F0050000 		.4byte	0x5f0
 2221 07c6 02       		.uleb128 0x2
 2222 07c7 91       		.byte	0x91
 2223 07c8 14       		.sleb128 20
 2224 07c9 1B       		.uleb128 0x1b
 2225 07ca FC040000 		.4byte	.LASF76
 2226 07ce 04       		.byte	0x4
ARM GAS  C:\Users\tmj32\AppData\Local\Temp\ccHxR1NV.s 			page 58


 2227 07cf 3D       		.byte	0x3d
 2228 07d0 E8040000 		.4byte	0x4e8
 2229 07d4 02       		.uleb128 0x2
 2230 07d5 91       		.byte	0x91
 2231 07d6 4C       		.sleb128 -52
 2232 07d7 1C       		.uleb128 0x1c
 2233 07d8 7700     		.ascii	"w\000"
 2234 07da 04       		.byte	0x4
 2235 07db 3E       		.byte	0x3e
 2236 07dc EF000000 		.4byte	0xef
 2237 07e0 02       		.uleb128 0x2
 2238 07e1 91       		.byte	0x91
 2239 07e2 6E       		.sleb128 -18
 2240 07e3 1B       		.uleb128 0x1b
 2241 07e4 EA020000 		.4byte	.LASF31
 2242 07e8 04       		.byte	0x4
 2243 07e9 4E       		.byte	0x4e
 2244 07ea EF000000 		.4byte	0xef
 2245 07ee 02       		.uleb128 0x2
 2246 07ef 91       		.byte	0x91
 2247 07f0 4A       		.sleb128 -54
 2248 07f1 1B       		.uleb128 0x1b
 2249 07f2 06020000 		.4byte	.LASF117
 2250 07f6 04       		.byte	0x4
 2251 07f7 51       		.byte	0x51
 2252 07f8 EF000000 		.4byte	0xef
 2253 07fc 02       		.uleb128 0x2
 2254 07fd 91       		.byte	0x91
 2255 07fe 48       		.sleb128 -56
 2256 07ff 1C       		.uleb128 0x1c
 2257 0800 706F7300 		.ascii	"pos\000"
 2258 0804 04       		.byte	0x4
 2259 0805 52       		.byte	0x52
 2260 0806 2E030000 		.4byte	0x32e
 2261 080a 03       		.uleb128 0x3
 2262 080b 91       		.byte	0x91
 2263 080c A47F     		.sleb128 -92
 2264 080e 1B       		.uleb128 0x1b
 2265 080f 40040000 		.4byte	.LASF118
 2266 0813 04       		.byte	0x4
 2267 0814 56       		.byte	0x56
 2268 0815 EF000000 		.4byte	0xef
 2269 0819 02       		.uleb128 0x2
 2270 081a 91       		.byte	0x91
 2271 081b 6C       		.sleb128 -20
 2272 081c 1B       		.uleb128 0x1b
 2273 081d 7F020000 		.4byte	.LASF119
 2274 0821 04       		.byte	0x4
 2275 0822 57       		.byte	0x57
 2276 0823 EF000000 		.4byte	0xef
 2277 0827 02       		.uleb128 0x2
 2278 0828 91       		.byte	0x91
 2279 0829 6A       		.sleb128 -22
 2280 082a 1B       		.uleb128 0x1b
 2281 082b 80040000 		.4byte	.LASF97
 2282 082f 04       		.byte	0x4
 2283 0830 5E       		.byte	0x5e
ARM GAS  C:\Users\tmj32\AppData\Local\Temp\ccHxR1NV.s 			page 59


 2284 0831 E4000000 		.4byte	0xe4
 2285 0835 02       		.uleb128 0x2
 2286 0836 91       		.byte	0x91
 2287 0837 64       		.sleb128 -28
 2288 0838 1B       		.uleb128 0x1b
 2289 0839 9F020000 		.4byte	.LASF120
 2290 083d 04       		.byte	0x4
 2291 083e 5F       		.byte	0x5f
 2292 083f D9000000 		.4byte	0xd9
 2293 0843 02       		.uleb128 0x2
 2294 0844 91       		.byte	0x91
 2295 0845 60       		.sleb128 -32
 2296 0846 1B       		.uleb128 0x1b
 2297 0847 C4050000 		.4byte	.LASF121
 2298 084b 04       		.byte	0x4
 2299 084c 71       		.byte	0x71
 2300 084d E4000000 		.4byte	0xe4
 2301 0851 02       		.uleb128 0x2
 2302 0852 91       		.byte	0x91
 2303 0853 5C       		.sleb128 -36
 2304 0854 1C       		.uleb128 0x1c
 2305 0855 6F706100 		.ascii	"opa\000"
 2306 0859 04       		.byte	0x4
 2307 085a 91       		.byte	0x91
 2308 085b EC020000 		.4byte	0x2ec
 2309 085f 02       		.uleb128 0x2
 2310 0860 91       		.byte	0x91
 2311 0861 47       		.sleb128 -57
 2312 0862 1B       		.uleb128 0x1b
 2313 0863 CE020000 		.4byte	.LASF122
 2314 0867 04       		.byte	0x4
 2315 0868 93       		.byte	0x93
 2316 0869 CE000000 		.4byte	0xce
 2317 086d 02       		.uleb128 0x2
 2318 086e 91       		.byte	0x91
 2319 086f 5A       		.sleb128 -38
 2320 0870 1B       		.uleb128 0x1b
 2321 0871 50020000 		.4byte	.LASF123
 2322 0875 04       		.byte	0x4
 2323 0876 94       		.byte	0x94
 2324 0877 CE000000 		.4byte	0xce
 2325 087b 02       		.uleb128 0x2
 2326 087c 91       		.byte	0x91
 2327 087d 58       		.sleb128 -40
 2328 087e 1B       		.uleb128 0x1b
 2329 087f 3B020000 		.4byte	.LASF124
 2330 0883 04       		.byte	0x4
 2331 0884 9F       		.byte	0x9f
 2332 0885 7C060000 		.4byte	0x67c
 2333 0889 02       		.uleb128 0x2
 2334 088a 91       		.byte	0x91
 2335 088b 57       		.sleb128 -41
 2336 088c 1C       		.uleb128 0x1c
 2337 088d 6900     		.ascii	"i\000"
 2338 088f 04       		.byte	0x4
 2339 0890 A0       		.byte	0xa0
 2340 0891 E4000000 		.4byte	0xe4
ARM GAS  C:\Users\tmj32\AppData\Local\Temp\ccHxR1NV.s 			page 60


 2341 0895 03       		.uleb128 0x3
 2342 0896 91       		.byte	0x91
 2343 0897 A07F     		.sleb128 -96
 2344 0899 1B       		.uleb128 0x1b
 2345 089a F6020000 		.4byte	.LASF125
 2346 089e 04       		.byte	0x4
 2347 089f A1       		.byte	0xa1
 2348 08a0 CE000000 		.4byte	0xce
 2349 08a4 02       		.uleb128 0x2
 2350 08a5 91       		.byte	0x91
 2351 08a6 54       		.sleb128 -44
 2352 08a7 1B       		.uleb128 0x1b
 2353 08a8 5B060000 		.4byte	.LASF126
 2354 08ac 04       		.byte	0x4
 2355 08ad A2       		.byte	0xa2
 2356 08ae E0020000 		.4byte	0x2e0
 2357 08b2 03       		.uleb128 0x3
 2358 08b3 91       		.byte	0x91
 2359 08b4 9C7F     		.sleb128 -100
 2360 08b6 1B       		.uleb128 0x1b
 2361 08b7 E4000000 		.4byte	.LASF127
 2362 08bb 04       		.byte	0x4
 2363 08bc A3       		.byte	0xa3
 2364 08bd EF000000 		.4byte	0xef
 2365 08c1 03       		.uleb128 0x3
 2366 08c2 91       		.byte	0x91
 2367 08c3 AA7F     		.sleb128 -86
 2368 08c5 1B       		.uleb128 0x1b
 2369 08c6 28030000 		.4byte	.LASF128
 2370 08ca 04       		.byte	0x4
 2371 08cb A4       		.byte	0xa4
 2372 08cc A4050000 		.4byte	0x5a4
 2373 08d0 03       		.uleb128 0x3
 2374 08d1 91       		.byte	0x91
 2375 08d2 CC7E     		.sleb128 -180
 2376 08d4 1D       		.uleb128 0x1d
 2377 08d5 3C000000 		.4byte	.LBB2
 2378 08d9 34000000 		.4byte	.LBE2-.LBB2
 2379 08dd EF080000 		.4byte	0x8ef
 2380 08e1 1C       		.uleb128 0x1c
 2381 08e2 7000     		.ascii	"p\000"
 2382 08e4 04       		.byte	0x4
 2383 08e5 48       		.byte	0x48
 2384 08e6 2E030000 		.4byte	0x32e
 2385 08ea 03       		.uleb128 0x3
 2386 08eb 91       		.byte	0x91
 2387 08ec C87E     		.sleb128 -184
 2388 08ee 00       		.byte	0
 2389 08ef 1D       		.uleb128 0x1d
 2390 08f0 98030000 		.4byte	.LBB3
 2391 08f4 18000000 		.4byte	.LBE3-.LBB3
 2392 08f8 0B090000 		.4byte	0x90b
 2393 08fc 1C       		.uleb128 0x1c
 2394 08fd 746D7000 		.ascii	"tmp\000"
 2395 0901 04       		.byte	0x4
 2396 0902 99       		.byte	0x99
 2397 0903 CE000000 		.4byte	0xce
ARM GAS  C:\Users\tmj32\AppData\Local\Temp\ccHxR1NV.s 			page 61


 2398 0907 02       		.uleb128 0x2
 2399 0908 91       		.byte	0x91
 2400 0909 44       		.sleb128 -60
 2401 090a 00       		.byte	0
 2402 090b 1E       		.uleb128 0x1e
 2403 090c 00000000 		.4byte	.Ldebug_ranges0+0
 2404 0910 1B       		.uleb128 0x1b
 2405 0911 92020000 		.4byte	.LASF129
 2406 0915 04       		.byte	0x4
 2407 0916 B0       		.byte	0xb0
 2408 0917 E4000000 		.4byte	0xe4
 2409 091b 03       		.uleb128 0x3
 2410 091c 91       		.byte	0x91
 2411 091d BC7F     		.sleb128 -68
 2412 091f 1B       		.uleb128 0x1b
 2413 0920 9E010000 		.4byte	.LASF130
 2414 0924 04       		.byte	0x4
 2415 0925 B1       		.byte	0xb1
 2416 0926 E4000000 		.4byte	0xe4
 2417 092a 03       		.uleb128 0x3
 2418 092b 91       		.byte	0x91
 2419 092c B87F     		.sleb128 -72
 2420 092e 1B       		.uleb128 0x1b
 2421 092f AE040000 		.4byte	.LASF131
 2422 0933 04       		.byte	0x4
 2423 0934 B7       		.byte	0xb7
 2424 0935 06030000 		.4byte	0x306
 2425 0939 02       		.uleb128 0x2
 2426 093a 91       		.byte	0x91
 2427 093b 40       		.sleb128 -64
 2428 093c 1F       		.uleb128 0x1f
 2429 093d 0C040000 		.4byte	.LBB5
 2430 0941 7A020000 		.4byte	.LBE5-.LBB5
 2431 0945 1B       		.uleb128 0x1b
 2432 0946 E2030000 		.4byte	.LASF132
 2433 094a 04       		.byte	0x4
 2434 094b BB       		.byte	0xbb
 2435 094c CE000000 		.4byte	0xce
 2436 0950 02       		.uleb128 0x2
 2437 0951 91       		.byte	0x91
 2438 0952 52       		.sleb128 -46
 2439 0953 1B       		.uleb128 0x1b
 2440 0954 71020000 		.4byte	.LASF61
 2441 0958 04       		.byte	0x4
 2442 0959 EF       		.byte	0xef
 2443 095a E0020000 		.4byte	0x2e0
 2444 095e 03       		.uleb128 0x3
 2445 095f 91       		.byte	0x91
 2446 0960 C47E     		.sleb128 -188
 2447 0962 1D       		.uleb128 0x1d
 2448 0963 E4040000 		.4byte	.LBB6
 2449 0967 90000000 		.4byte	.LBE6-.LBB6
 2450 096b A6090000 		.4byte	0x9a6
 2451 096f 1C       		.uleb128 0x1c
 2452 0970 62756600 		.ascii	"buf\000"
 2453 0974 04       		.byte	0x4
 2454 0975 DE       		.byte	0xde
ARM GAS  C:\Users\tmj32\AppData\Local\Temp\ccHxR1NV.s 			page 62


 2455 0976 D4090000 		.4byte	0x9d4
 2456 097a 03       		.uleb128 0x3
 2457 097b 91       		.byte	0x91
 2458 097c BC7E     		.sleb128 -196
 2459 097e 1C       		.uleb128 0x1c
 2460 097f 7200     		.ascii	"r\000"
 2461 0981 04       		.byte	0x4
 2462 0982 E1       		.byte	0xe1
 2463 0983 9F000000 		.4byte	0x9f
 2464 0987 03       		.uleb128 0x3
 2465 0988 91       		.byte	0x91
 2466 0989 B47F     		.sleb128 -76
 2467 098b 1C       		.uleb128 0x1c
 2468 098c 6700     		.ascii	"g\000"
 2469 098e 04       		.byte	0x4
 2470 098f E1       		.byte	0xe1
 2471 0990 9F000000 		.4byte	0x9f
 2472 0994 03       		.uleb128 0x3
 2473 0995 91       		.byte	0x91
 2474 0996 B07F     		.sleb128 -80
 2475 0998 1C       		.uleb128 0x1c
 2476 0999 6200     		.ascii	"b\000"
 2477 099b 04       		.byte	0x4
 2478 099c E1       		.byte	0xe1
 2479 099d 9F000000 		.4byte	0x9f
 2480 09a1 03       		.uleb128 0x3
 2481 09a2 91       		.byte	0x91
 2482 09a3 AC7F     		.sleb128 -84
 2483 09a5 00       		.byte	0
 2484 09a6 1F       		.uleb128 0x1f
 2485 09a7 DC050000 		.4byte	.LBB7
 2486 09ab 56000000 		.4byte	.LBE7-.LBB7
 2487 09af 1B       		.uleb128 0x1b
 2488 09b0 E4050000 		.4byte	.LASF133
 2489 09b4 04       		.byte	0x4
 2490 09b5 F7       		.byte	0xf7
 2491 09b6 6E030000 		.4byte	0x36e
 2492 09ba 03       		.uleb128 0x3
 2493 09bb 91       		.byte	0x91
 2494 09bc B47E     		.sleb128 -204
 2495 09be 00       		.byte	0
 2496 09bf 00       		.byte	0
 2497 09c0 00       		.byte	0
 2498 09c1 00       		.byte	0
 2499 09c2 0D       		.uleb128 0xd
 2500 09c3 04       		.byte	0x4
 2501 09c4 2E030000 		.4byte	0x32e
 2502 09c8 0D       		.uleb128 0xd
 2503 09c9 04       		.byte	0x4
 2504 09ca 1C060000 		.4byte	0x61c
 2505 09ce 0D       		.uleb128 0xd
 2506 09cf 04       		.byte	0x4
 2507 09d0 52060000 		.4byte	0x652
 2508 09d4 20       		.uleb128 0x20
 2509 09d5 FF020000 		.4byte	0x2ff
 2510 09d9 E4090000 		.4byte	0x9e4
 2511 09dd 21       		.uleb128 0x21
ARM GAS  C:\Users\tmj32\AppData\Local\Temp\ccHxR1NV.s 			page 63


 2512 09de F8020000 		.4byte	0x2f8
 2513 09e2 06       		.byte	0x6
 2514 09e3 00       		.byte	0
 2515 09e4 17       		.uleb128 0x17
 2516 09e5 75000000 		.4byte	.LASF134
 2517 09e9 04       		.byte	0x4
 2518 09ea 2A01     		.2byte	0x12a
 2519 09ec B8000000 		.4byte	0xb8
 2520 09f0 00000000 		.4byte	.LFB32
 2521 09f4 8C000000 		.4byte	.LFE32-.LFB32
 2522 09f8 01       		.uleb128 0x1
 2523 09f9 9C       		.byte	0x9c
 2524 09fa 1D0A0000 		.4byte	0xa1d
 2525 09fe 18       		.uleb128 0x18
 2526 09ff 68657800 		.ascii	"hex\000"
 2527 0a03 04       		.byte	0x4
 2528 0a04 2A01     		.2byte	0x12a
 2529 0a06 FF020000 		.4byte	0x2ff
 2530 0a0a 02       		.uleb128 0x2
 2531 0a0b 91       		.byte	0x91
 2532 0a0c 6F       		.sleb128 -17
 2533 0a0d 22       		.uleb128 0x22
 2534 0a0e FF010000 		.4byte	.LASF135
 2535 0a12 04       		.byte	0x4
 2536 0a13 2C01     		.2byte	0x12c
 2537 0a15 B8000000 		.4byte	0xb8
 2538 0a19 02       		.uleb128 0x2
 2539 0a1a 91       		.byte	0x91
 2540 0a1b 77       		.sleb128 -9
 2541 0a1c 00       		.byte	0
 2542 0a1d 23       		.uleb128 0x23
 2543 0a1e 82030000 		.4byte	.LASF136
 2544 0a22 08       		.byte	0x8
 2545 0a23 1001     		.2byte	0x110
 2546 0a25 A4050000 		.4byte	0x5a4
 2547 0a29 0B       		.uleb128 0xb
 2548 0a2a E4000000 		.4byte	0xe4
 2549 0a2e 3D0A0000 		.4byte	0xa3d
 2550 0a32 0C       		.uleb128 0xc
 2551 0a33 06030000 		.4byte	0x306
 2552 0a37 0C       		.uleb128 0xc
 2553 0a38 3D0A0000 		.4byte	0xa3d
 2554 0a3c 00       		.byte	0
 2555 0a3d 0D       		.uleb128 0xd
 2556 0a3e 04       		.byte	0x4
 2557 0a3f E4000000 		.4byte	0xe4
 2558 0a43 24       		.uleb128 0x24
 2559 0a44 85000000 		.4byte	.LASF137
 2560 0a48 09       		.byte	0x9
 2561 0a49 A6       		.byte	0xa6
 2562 0a4a 4E0A0000 		.4byte	0xa4e
 2563 0a4e 0D       		.uleb128 0xd
 2564 0a4f 04       		.byte	0x4
 2565 0a50 290A0000 		.4byte	0xa29
 2566 0a54 0B       		.uleb128 0xb
 2567 0a55 E4000000 		.4byte	0xe4
 2568 0a59 680A0000 		.4byte	0xa68
ARM GAS  C:\Users\tmj32\AppData\Local\Temp\ccHxR1NV.s 			page 64


 2569 0a5d 0C       		.uleb128 0xc
 2570 0a5e 06030000 		.4byte	0x306
 2571 0a62 0C       		.uleb128 0xc
 2572 0a63 E4000000 		.4byte	0xe4
 2573 0a67 00       		.byte	0
 2574 0a68 24       		.uleb128 0x24
 2575 0a69 6E050000 		.4byte	.LASF138
 2576 0a6d 09       		.byte	0x9
 2577 0a6e C1       		.byte	0xc1
 2578 0a6f 730A0000 		.4byte	0xa73
 2579 0a73 0D       		.uleb128 0xd
 2580 0a74 04       		.byte	0x4
 2581 0a75 540A0000 		.4byte	0xa54
 2582 0a79 00       		.byte	0
 2583              		.section	.debug_abbrev,"",%progbits
 2584              	.Ldebug_abbrev0:
 2585 0000 01       		.uleb128 0x1
 2586 0001 11       		.uleb128 0x11
 2587 0002 01       		.byte	0x1
 2588 0003 25       		.uleb128 0x25
 2589 0004 0E       		.uleb128 0xe
 2590 0005 13       		.uleb128 0x13
 2591 0006 0B       		.uleb128 0xb
 2592 0007 03       		.uleb128 0x3
 2593 0008 0E       		.uleb128 0xe
 2594 0009 1B       		.uleb128 0x1b
 2595 000a 0E       		.uleb128 0xe
 2596 000b 55       		.uleb128 0x55
 2597 000c 17       		.uleb128 0x17
 2598 000d 11       		.uleb128 0x11
 2599 000e 01       		.uleb128 0x1
 2600 000f 10       		.uleb128 0x10
 2601 0010 17       		.uleb128 0x17
 2602 0011 00       		.byte	0
 2603 0012 00       		.byte	0
 2604 0013 02       		.uleb128 0x2
 2605 0014 16       		.uleb128 0x16
 2606 0015 00       		.byte	0
 2607 0016 03       		.uleb128 0x3
 2608 0017 0E       		.uleb128 0xe
 2609 0018 3A       		.uleb128 0x3a
 2610 0019 0B       		.uleb128 0xb
 2611 001a 3B       		.uleb128 0x3b
 2612 001b 0B       		.uleb128 0xb
 2613 001c 49       		.uleb128 0x49
 2614 001d 13       		.uleb128 0x13
 2615 001e 00       		.byte	0
 2616 001f 00       		.byte	0
 2617 0020 03       		.uleb128 0x3
 2618 0021 24       		.uleb128 0x24
 2619 0022 00       		.byte	0
 2620 0023 0B       		.uleb128 0xb
 2621 0024 0B       		.uleb128 0xb
 2622 0025 3E       		.uleb128 0x3e
 2623 0026 0B       		.uleb128 0xb
 2624 0027 03       		.uleb128 0x3
 2625 0028 0E       		.uleb128 0xe
ARM GAS  C:\Users\tmj32\AppData\Local\Temp\ccHxR1NV.s 			page 65


 2626 0029 00       		.byte	0
 2627 002a 00       		.byte	0
 2628 002b 04       		.uleb128 0x4
 2629 002c 24       		.uleb128 0x24
 2630 002d 00       		.byte	0
 2631 002e 0B       		.uleb128 0xb
 2632 002f 0B       		.uleb128 0xb
 2633 0030 3E       		.uleb128 0x3e
 2634 0031 0B       		.uleb128 0xb
 2635 0032 03       		.uleb128 0x3
 2636 0033 08       		.uleb128 0x8
 2637 0034 00       		.byte	0
 2638 0035 00       		.byte	0
 2639 0036 05       		.uleb128 0x5
 2640 0037 0F       		.uleb128 0xf
 2641 0038 00       		.byte	0
 2642 0039 0B       		.uleb128 0xb
 2643 003a 0B       		.uleb128 0xb
 2644 003b 00       		.byte	0
 2645 003c 00       		.byte	0
 2646 003d 06       		.uleb128 0x6
 2647 003e 13       		.uleb128 0x13
 2648 003f 01       		.byte	0x1
 2649 0040 0B       		.uleb128 0xb
 2650 0041 0B       		.uleb128 0xb
 2651 0042 3A       		.uleb128 0x3a
 2652 0043 0B       		.uleb128 0xb
 2653 0044 3B       		.uleb128 0x3b
 2654 0045 0B       		.uleb128 0xb
 2655 0046 01       		.uleb128 0x1
 2656 0047 13       		.uleb128 0x13
 2657 0048 00       		.byte	0
 2658 0049 00       		.byte	0
 2659 004a 07       		.uleb128 0x7
 2660 004b 0D       		.uleb128 0xd
 2661 004c 00       		.byte	0
 2662 004d 03       		.uleb128 0x3
 2663 004e 0E       		.uleb128 0xe
 2664 004f 3A       		.uleb128 0x3a
 2665 0050 0B       		.uleb128 0xb
 2666 0051 3B       		.uleb128 0x3b
 2667 0052 0B       		.uleb128 0xb
 2668 0053 49       		.uleb128 0x49
 2669 0054 13       		.uleb128 0x13
 2670 0055 38       		.uleb128 0x38
 2671 0056 0B       		.uleb128 0xb
 2672 0057 00       		.byte	0
 2673 0058 00       		.byte	0
 2674 0059 08       		.uleb128 0x8
 2675 005a 0D       		.uleb128 0xd
 2676 005b 00       		.byte	0
 2677 005c 03       		.uleb128 0x3
 2678 005d 08       		.uleb128 0x8
 2679 005e 3A       		.uleb128 0x3a
 2680 005f 0B       		.uleb128 0xb
 2681 0060 3B       		.uleb128 0x3b
 2682 0061 0B       		.uleb128 0xb
ARM GAS  C:\Users\tmj32\AppData\Local\Temp\ccHxR1NV.s 			page 66


 2683 0062 49       		.uleb128 0x49
 2684 0063 13       		.uleb128 0x13
 2685 0064 38       		.uleb128 0x38
 2686 0065 0B       		.uleb128 0xb
 2687 0066 00       		.byte	0
 2688 0067 00       		.byte	0
 2689 0068 09       		.uleb128 0x9
 2690 0069 13       		.uleb128 0x13
 2691 006a 01       		.byte	0x1
 2692 006b 03       		.uleb128 0x3
 2693 006c 0E       		.uleb128 0xe
 2694 006d 0B       		.uleb128 0xb
 2695 006e 0B       		.uleb128 0xb
 2696 006f 3A       		.uleb128 0x3a
 2697 0070 0B       		.uleb128 0xb
 2698 0071 3B       		.uleb128 0x3b
 2699 0072 0B       		.uleb128 0xb
 2700 0073 01       		.uleb128 0x1
 2701 0074 13       		.uleb128 0x13
 2702 0075 00       		.byte	0
 2703 0076 00       		.byte	0
 2704 0077 0A       		.uleb128 0xa
 2705 0078 0D       		.uleb128 0xd
 2706 0079 00       		.byte	0
 2707 007a 03       		.uleb128 0x3
 2708 007b 0E       		.uleb128 0xe
 2709 007c 3A       		.uleb128 0x3a
 2710 007d 0B       		.uleb128 0xb
 2711 007e 3B       		.uleb128 0x3b
 2712 007f 0B       		.uleb128 0xb
 2713 0080 49       		.uleb128 0x49
 2714 0081 13       		.uleb128 0x13
 2715 0082 0B       		.uleb128 0xb
 2716 0083 0B       		.uleb128 0xb
 2717 0084 0D       		.uleb128 0xd
 2718 0085 0B       		.uleb128 0xb
 2719 0086 0C       		.uleb128 0xc
 2720 0087 0B       		.uleb128 0xb
 2721 0088 38       		.uleb128 0x38
 2722 0089 0B       		.uleb128 0xb
 2723 008a 00       		.byte	0
 2724 008b 00       		.byte	0
 2725 008c 0B       		.uleb128 0xb
 2726 008d 15       		.uleb128 0x15
 2727 008e 01       		.byte	0x1
 2728 008f 27       		.uleb128 0x27
 2729 0090 19       		.uleb128 0x19
 2730 0091 49       		.uleb128 0x49
 2731 0092 13       		.uleb128 0x13
 2732 0093 01       		.uleb128 0x1
 2733 0094 13       		.uleb128 0x13
 2734 0095 00       		.byte	0
 2735 0096 00       		.byte	0
 2736 0097 0C       		.uleb128 0xc
 2737 0098 05       		.uleb128 0x5
 2738 0099 00       		.byte	0
 2739 009a 49       		.uleb128 0x49
ARM GAS  C:\Users\tmj32\AppData\Local\Temp\ccHxR1NV.s 			page 67


 2740 009b 13       		.uleb128 0x13
 2741 009c 00       		.byte	0
 2742 009d 00       		.byte	0
 2743 009e 0D       		.uleb128 0xd
 2744 009f 0F       		.uleb128 0xf
 2745 00a0 00       		.byte	0
 2746 00a1 0B       		.uleb128 0xb
 2747 00a2 0B       		.uleb128 0xb
 2748 00a3 49       		.uleb128 0x49
 2749 00a4 13       		.uleb128 0x13
 2750 00a5 00       		.byte	0
 2751 00a6 00       		.byte	0
 2752 00a7 0E       		.uleb128 0xe
 2753 00a8 26       		.uleb128 0x26
 2754 00a9 00       		.byte	0
 2755 00aa 49       		.uleb128 0x49
 2756 00ab 13       		.uleb128 0x13
 2757 00ac 00       		.byte	0
 2758 00ad 00       		.byte	0
 2759 00ae 0F       		.uleb128 0xf
 2760 00af 04       		.uleb128 0x4
 2761 00b0 01       		.byte	0x1
 2762 00b1 0B       		.uleb128 0xb
 2763 00b2 0B       		.uleb128 0xb
 2764 00b3 49       		.uleb128 0x49
 2765 00b4 13       		.uleb128 0x13
 2766 00b5 3A       		.uleb128 0x3a
 2767 00b6 0B       		.uleb128 0xb
 2768 00b7 3B       		.uleb128 0x3b
 2769 00b8 0B       		.uleb128 0xb
 2770 00b9 01       		.uleb128 0x1
 2771 00ba 13       		.uleb128 0x13
 2772 00bb 00       		.byte	0
 2773 00bc 00       		.byte	0
 2774 00bd 10       		.uleb128 0x10
 2775 00be 28       		.uleb128 0x28
 2776 00bf 00       		.byte	0
 2777 00c0 03       		.uleb128 0x3
 2778 00c1 0E       		.uleb128 0xe
 2779 00c2 1C       		.uleb128 0x1c
 2780 00c3 0B       		.uleb128 0xb
 2781 00c4 00       		.byte	0
 2782 00c5 00       		.byte	0
 2783 00c6 11       		.uleb128 0x11
 2784 00c7 17       		.uleb128 0x17
 2785 00c8 01       		.byte	0x1
 2786 00c9 0B       		.uleb128 0xb
 2787 00ca 0B       		.uleb128 0xb
 2788 00cb 3A       		.uleb128 0x3a
 2789 00cc 0B       		.uleb128 0xb
 2790 00cd 3B       		.uleb128 0x3b
 2791 00ce 0B       		.uleb128 0xb
 2792 00cf 01       		.uleb128 0x1
 2793 00d0 13       		.uleb128 0x13
 2794 00d1 00       		.byte	0
 2795 00d2 00       		.byte	0
 2796 00d3 12       		.uleb128 0x12
ARM GAS  C:\Users\tmj32\AppData\Local\Temp\ccHxR1NV.s 			page 68


 2797 00d4 0D       		.uleb128 0xd
 2798 00d5 00       		.byte	0
 2799 00d6 03       		.uleb128 0x3
 2800 00d7 08       		.uleb128 0x8
 2801 00d8 3A       		.uleb128 0x3a
 2802 00d9 0B       		.uleb128 0xb
 2803 00da 3B       		.uleb128 0x3b
 2804 00db 0B       		.uleb128 0xb
 2805 00dc 49       		.uleb128 0x49
 2806 00dd 13       		.uleb128 0x13
 2807 00de 00       		.byte	0
 2808 00df 00       		.byte	0
 2809 00e0 13       		.uleb128 0x13
 2810 00e1 0D       		.uleb128 0xd
 2811 00e2 00       		.byte	0
 2812 00e3 03       		.uleb128 0x3
 2813 00e4 0E       		.uleb128 0xe
 2814 00e5 3A       		.uleb128 0x3a
 2815 00e6 0B       		.uleb128 0xb
 2816 00e7 3B       		.uleb128 0x3b
 2817 00e8 0B       		.uleb128 0xb
 2818 00e9 49       		.uleb128 0x49
 2819 00ea 13       		.uleb128 0x13
 2820 00eb 00       		.byte	0
 2821 00ec 00       		.byte	0
 2822 00ed 14       		.uleb128 0x14
 2823 00ee 16       		.uleb128 0x16
 2824 00ef 00       		.byte	0
 2825 00f0 03       		.uleb128 0x3
 2826 00f1 0E       		.uleb128 0xe
 2827 00f2 3A       		.uleb128 0x3a
 2828 00f3 0B       		.uleb128 0xb
 2829 00f4 3B       		.uleb128 0x3b
 2830 00f5 05       		.uleb128 0x5
 2831 00f6 49       		.uleb128 0x49
 2832 00f7 13       		.uleb128 0x13
 2833 00f8 00       		.byte	0
 2834 00f9 00       		.byte	0
 2835 00fa 15       		.uleb128 0x15
 2836 00fb 2E       		.uleb128 0x2e
 2837 00fc 01       		.byte	0x1
 2838 00fd 03       		.uleb128 0x3
 2839 00fe 0E       		.uleb128 0xe
 2840 00ff 3A       		.uleb128 0x3a
 2841 0100 0B       		.uleb128 0xb
 2842 0101 3B       		.uleb128 0x3b
 2843 0102 0B       		.uleb128 0xb
 2844 0103 27       		.uleb128 0x27
 2845 0104 19       		.uleb128 0x19
 2846 0105 49       		.uleb128 0x49
 2847 0106 13       		.uleb128 0x13
 2848 0107 11       		.uleb128 0x11
 2849 0108 01       		.uleb128 0x1
 2850 0109 12       		.uleb128 0x12
 2851 010a 06       		.uleb128 0x6
 2852 010b 40       		.uleb128 0x40
 2853 010c 18       		.uleb128 0x18
ARM GAS  C:\Users\tmj32\AppData\Local\Temp\ccHxR1NV.s 			page 69


 2854 010d 9742     		.uleb128 0x2117
 2855 010f 19       		.uleb128 0x19
 2856 0110 01       		.uleb128 0x1
 2857 0111 13       		.uleb128 0x13
 2858 0112 00       		.byte	0
 2859 0113 00       		.byte	0
 2860 0114 16       		.uleb128 0x16
 2861 0115 05       		.uleb128 0x5
 2862 0116 00       		.byte	0
 2863 0117 03       		.uleb128 0x3
 2864 0118 0E       		.uleb128 0xe
 2865 0119 3A       		.uleb128 0x3a
 2866 011a 0B       		.uleb128 0xb
 2867 011b 3B       		.uleb128 0x3b
 2868 011c 0B       		.uleb128 0xb
 2869 011d 49       		.uleb128 0x49
 2870 011e 13       		.uleb128 0x13
 2871 011f 02       		.uleb128 0x2
 2872 0120 18       		.uleb128 0x18
 2873 0121 00       		.byte	0
 2874 0122 00       		.byte	0
 2875 0123 17       		.uleb128 0x17
 2876 0124 2E       		.uleb128 0x2e
 2877 0125 01       		.byte	0x1
 2878 0126 03       		.uleb128 0x3
 2879 0127 0E       		.uleb128 0xe
 2880 0128 3A       		.uleb128 0x3a
 2881 0129 0B       		.uleb128 0xb
 2882 012a 3B       		.uleb128 0x3b
 2883 012b 05       		.uleb128 0x5
 2884 012c 27       		.uleb128 0x27
 2885 012d 19       		.uleb128 0x19
 2886 012e 49       		.uleb128 0x49
 2887 012f 13       		.uleb128 0x13
 2888 0130 11       		.uleb128 0x11
 2889 0131 01       		.uleb128 0x1
 2890 0132 12       		.uleb128 0x12
 2891 0133 06       		.uleb128 0x6
 2892 0134 40       		.uleb128 0x40
 2893 0135 18       		.uleb128 0x18
 2894 0136 9742     		.uleb128 0x2117
 2895 0138 19       		.uleb128 0x19
 2896 0139 01       		.uleb128 0x1
 2897 013a 13       		.uleb128 0x13
 2898 013b 00       		.byte	0
 2899 013c 00       		.byte	0
 2900 013d 18       		.uleb128 0x18
 2901 013e 05       		.uleb128 0x5
 2902 013f 00       		.byte	0
 2903 0140 03       		.uleb128 0x3
 2904 0141 08       		.uleb128 0x8
 2905 0142 3A       		.uleb128 0x3a
 2906 0143 0B       		.uleb128 0xb
 2907 0144 3B       		.uleb128 0x3b
 2908 0145 05       		.uleb128 0x5
 2909 0146 49       		.uleb128 0x49
 2910 0147 13       		.uleb128 0x13
ARM GAS  C:\Users\tmj32\AppData\Local\Temp\ccHxR1NV.s 			page 70


 2911 0148 02       		.uleb128 0x2
 2912 0149 18       		.uleb128 0x18
 2913 014a 00       		.byte	0
 2914 014b 00       		.byte	0
 2915 014c 19       		.uleb128 0x19
 2916 014d 2E       		.uleb128 0x2e
 2917 014e 01       		.byte	0x1
 2918 014f 3F       		.uleb128 0x3f
 2919 0150 19       		.uleb128 0x19
 2920 0151 03       		.uleb128 0x3
 2921 0152 0E       		.uleb128 0xe
 2922 0153 3A       		.uleb128 0x3a
 2923 0154 0B       		.uleb128 0xb
 2924 0155 3B       		.uleb128 0x3b
 2925 0156 0B       		.uleb128 0xb
 2926 0157 27       		.uleb128 0x27
 2927 0158 19       		.uleb128 0x19
 2928 0159 11       		.uleb128 0x11
 2929 015a 01       		.uleb128 0x1
 2930 015b 12       		.uleb128 0x12
 2931 015c 06       		.uleb128 0x6
 2932 015d 40       		.uleb128 0x40
 2933 015e 18       		.uleb128 0x18
 2934 015f 9642     		.uleb128 0x2116
 2935 0161 19       		.uleb128 0x19
 2936 0162 01       		.uleb128 0x1
 2937 0163 13       		.uleb128 0x13
 2938 0164 00       		.byte	0
 2939 0165 00       		.byte	0
 2940 0166 1A       		.uleb128 0x1a
 2941 0167 05       		.uleb128 0x5
 2942 0168 00       		.byte	0
 2943 0169 03       		.uleb128 0x3
 2944 016a 08       		.uleb128 0x8
 2945 016b 3A       		.uleb128 0x3a
 2946 016c 0B       		.uleb128 0xb
 2947 016d 3B       		.uleb128 0x3b
 2948 016e 0B       		.uleb128 0xb
 2949 016f 49       		.uleb128 0x49
 2950 0170 13       		.uleb128 0x13
 2951 0171 02       		.uleb128 0x2
 2952 0172 18       		.uleb128 0x18
 2953 0173 00       		.byte	0
 2954 0174 00       		.byte	0
 2955 0175 1B       		.uleb128 0x1b
 2956 0176 34       		.uleb128 0x34
 2957 0177 00       		.byte	0
 2958 0178 03       		.uleb128 0x3
 2959 0179 0E       		.uleb128 0xe
 2960 017a 3A       		.uleb128 0x3a
 2961 017b 0B       		.uleb128 0xb
 2962 017c 3B       		.uleb128 0x3b
 2963 017d 0B       		.uleb128 0xb
 2964 017e 49       		.uleb128 0x49
 2965 017f 13       		.uleb128 0x13
 2966 0180 02       		.uleb128 0x2
 2967 0181 18       		.uleb128 0x18
ARM GAS  C:\Users\tmj32\AppData\Local\Temp\ccHxR1NV.s 			page 71


 2968 0182 00       		.byte	0
 2969 0183 00       		.byte	0
 2970 0184 1C       		.uleb128 0x1c
 2971 0185 34       		.uleb128 0x34
 2972 0186 00       		.byte	0
 2973 0187 03       		.uleb128 0x3
 2974 0188 08       		.uleb128 0x8
 2975 0189 3A       		.uleb128 0x3a
 2976 018a 0B       		.uleb128 0xb
 2977 018b 3B       		.uleb128 0x3b
 2978 018c 0B       		.uleb128 0xb
 2979 018d 49       		.uleb128 0x49
 2980 018e 13       		.uleb128 0x13
 2981 018f 02       		.uleb128 0x2
 2982 0190 18       		.uleb128 0x18
 2983 0191 00       		.byte	0
 2984 0192 00       		.byte	0
 2985 0193 1D       		.uleb128 0x1d
 2986 0194 0B       		.uleb128 0xb
 2987 0195 01       		.byte	0x1
 2988 0196 11       		.uleb128 0x11
 2989 0197 01       		.uleb128 0x1
 2990 0198 12       		.uleb128 0x12
 2991 0199 06       		.uleb128 0x6
 2992 019a 01       		.uleb128 0x1
 2993 019b 13       		.uleb128 0x13
 2994 019c 00       		.byte	0
 2995 019d 00       		.byte	0
 2996 019e 1E       		.uleb128 0x1e
 2997 019f 0B       		.uleb128 0xb
 2998 01a0 01       		.byte	0x1
 2999 01a1 55       		.uleb128 0x55
 3000 01a2 17       		.uleb128 0x17
 3001 01a3 00       		.byte	0
 3002 01a4 00       		.byte	0
 3003 01a5 1F       		.uleb128 0x1f
 3004 01a6 0B       		.uleb128 0xb
 3005 01a7 01       		.byte	0x1
 3006 01a8 11       		.uleb128 0x11
 3007 01a9 01       		.uleb128 0x1
 3008 01aa 12       		.uleb128 0x12
 3009 01ab 06       		.uleb128 0x6
 3010 01ac 00       		.byte	0
 3011 01ad 00       		.byte	0
 3012 01ae 20       		.uleb128 0x20
 3013 01af 01       		.uleb128 0x1
 3014 01b0 01       		.byte	0x1
 3015 01b1 49       		.uleb128 0x49
 3016 01b2 13       		.uleb128 0x13
 3017 01b3 01       		.uleb128 0x1
 3018 01b4 13       		.uleb128 0x13
 3019 01b5 00       		.byte	0
 3020 01b6 00       		.byte	0
 3021 01b7 21       		.uleb128 0x21
 3022 01b8 21       		.uleb128 0x21
 3023 01b9 00       		.byte	0
 3024 01ba 49       		.uleb128 0x49
ARM GAS  C:\Users\tmj32\AppData\Local\Temp\ccHxR1NV.s 			page 72


 3025 01bb 13       		.uleb128 0x13
 3026 01bc 2F       		.uleb128 0x2f
 3027 01bd 0B       		.uleb128 0xb
 3028 01be 00       		.byte	0
 3029 01bf 00       		.byte	0
 3030 01c0 22       		.uleb128 0x22
 3031 01c1 34       		.uleb128 0x34
 3032 01c2 00       		.byte	0
 3033 01c3 03       		.uleb128 0x3
 3034 01c4 0E       		.uleb128 0xe
 3035 01c5 3A       		.uleb128 0x3a
 3036 01c6 0B       		.uleb128 0xb
 3037 01c7 3B       		.uleb128 0x3b
 3038 01c8 05       		.uleb128 0x5
 3039 01c9 49       		.uleb128 0x49
 3040 01ca 13       		.uleb128 0x13
 3041 01cb 02       		.uleb128 0x2
 3042 01cc 18       		.uleb128 0x18
 3043 01cd 00       		.byte	0
 3044 01ce 00       		.byte	0
 3045 01cf 23       		.uleb128 0x23
 3046 01d0 34       		.uleb128 0x34
 3047 01d1 00       		.byte	0
 3048 01d2 03       		.uleb128 0x3
 3049 01d3 0E       		.uleb128 0xe
 3050 01d4 3A       		.uleb128 0x3a
 3051 01d5 0B       		.uleb128 0xb
 3052 01d6 3B       		.uleb128 0x3b
 3053 01d7 05       		.uleb128 0x5
 3054 01d8 49       		.uleb128 0x49
 3055 01d9 13       		.uleb128 0x13
 3056 01da 3F       		.uleb128 0x3f
 3057 01db 19       		.uleb128 0x19
 3058 01dc 3C       		.uleb128 0x3c
 3059 01dd 19       		.uleb128 0x19
 3060 01de 00       		.byte	0
 3061 01df 00       		.byte	0
 3062 01e0 24       		.uleb128 0x24
 3063 01e1 34       		.uleb128 0x34
 3064 01e2 00       		.byte	0
 3065 01e3 03       		.uleb128 0x3
 3066 01e4 0E       		.uleb128 0xe
 3067 01e5 3A       		.uleb128 0x3a
 3068 01e6 0B       		.uleb128 0xb
 3069 01e7 3B       		.uleb128 0x3b
 3070 01e8 0B       		.uleb128 0xb
 3071 01e9 49       		.uleb128 0x49
 3072 01ea 13       		.uleb128 0x13
 3073 01eb 3F       		.uleb128 0x3f
 3074 01ec 19       		.uleb128 0x19
 3075 01ed 3C       		.uleb128 0x3c
 3076 01ee 19       		.uleb128 0x19
 3077 01ef 00       		.byte	0
 3078 01f0 00       		.byte	0
 3079 01f1 00       		.byte	0
 3080              		.section	.debug_aranges,"",%progbits
 3081 0000 3C000000 		.4byte	0x3c
ARM GAS  C:\Users\tmj32\AppData\Local\Temp\ccHxR1NV.s 			page 73


 3082 0004 0200     		.2byte	0x2
 3083 0006 00000000 		.4byte	.Ldebug_info0
 3084 000a 04       		.byte	0x4
 3085 000b 00       		.byte	0
 3086 000c 0000     		.2byte	0
 3087 000e 0000     		.2byte	0
 3088 0010 00000000 		.4byte	.LFB0
 3089 0014 18000000 		.4byte	.LFE0-.LFB0
 3090 0018 00000000 		.4byte	.LFB7
 3091 001c 38000000 		.4byte	.LFE7-.LFB7
 3092 0020 00000000 		.4byte	.LFB11
 3093 0024 2E000000 		.4byte	.LFE11-.LFB11
 3094 0028 00000000 		.4byte	.LFB31
 3095 002c F6070000 		.4byte	.LFE31-.LFB31
 3096 0030 00000000 		.4byte	.LFB32
 3097 0034 8C000000 		.4byte	.LFE32-.LFB32
 3098 0038 00000000 		.4byte	0
 3099 003c 00000000 		.4byte	0
 3100              		.section	.debug_ranges,"",%progbits
 3101              	.Ldebug_ranges0:
 3102 0000 D4030000 		.4byte	.LBB4
 3103 0004 D2070000 		.4byte	.LBE4
 3104 0008 EE070000 		.4byte	.LBB8
 3105 000c F0070000 		.4byte	.LBE8
 3106 0010 00000000 		.4byte	0
 3107 0014 00000000 		.4byte	0
 3108 0018 00000000 		.4byte	.LFB0
 3109 001c 18000000 		.4byte	.LFE0
 3110 0020 00000000 		.4byte	.LFB7
 3111 0024 38000000 		.4byte	.LFE7
 3112 0028 00000000 		.4byte	.LFB11
 3113 002c 2E000000 		.4byte	.LFE11
 3114 0030 00000000 		.4byte	.LFB31
 3115 0034 F6070000 		.4byte	.LFE31
 3116 0038 00000000 		.4byte	.LFB32
 3117 003c 8C000000 		.4byte	.LFE32
 3118 0040 00000000 		.4byte	0
 3119 0044 00000000 		.4byte	0
 3120              		.section	.debug_line,"",%progbits
 3121              	.Ldebug_line0:
 3122 0000 63040000 		.section	.debug_str,"MS",%progbits,1
 3122      0200EB02 
 3122      00000201 
 3122      FB0E0D00 
 3122      01010101 
 3123              	.LASF47:
 3124 0000 4C565F4F 		.ascii	"LV_OPA_COVER\000"
 3124      50415F43 
 3124      4F564552 
 3124      00
 3125              	.LASF51:
 3126 000d 66756C6C 		.ascii	"full\000"
 3126      00
 3127              	.LASF45:
 3128 0012 4C565F4F 		.ascii	"LV_OPA_90\000"
 3128      50415F39 
 3128      3000
ARM GAS  C:\Users\tmj32\AppData\Local\Temp\ccHxR1NV.s 			page 74


 3129              	.LASF116:
 3130 001c 62696469 		.ascii	"bidi_dir\000"
 3130      5F646972 
 3130      00
 3131              	.LASF36:
 3132 0025 4C565F4F 		.ascii	"LV_OPA_0\000"
 3132      50415F30 
 3132      00
 3133              	.LASF14:
 3134 002e 756E7369 		.ascii	"unsigned int\000"
 3134      676E6564 
 3134      20696E74 
 3134      00
 3135              	.LASF26:
 3136 003b 6F66735F 		.ascii	"ofs_x\000"
 3136      7800
 3137              	.LASF27:
 3138 0041 6F66735F 		.ascii	"ofs_y\000"
 3138      7900
 3139              	.LASF29:
 3140 0047 6765745F 		.ascii	"get_glyph_dsc\000"
 3140      676C7970 
 3140      685F6473 
 3140      6300
 3141              	.LASF87:
 3142 0055 6C765F73 		.ascii	"lv_style_t\000"
 3142      74796C65 
 3142      5F7400
 3143              	.LASF57:
 3144 0060 6C765F70 		.ascii	"lv_point_t\000"
 3144      6F696E74 
 3144      5F7400
 3145              	.LASF8:
 3146 006b 5F5F696E 		.ascii	"__int32_t\000"
 3146      7433325F 
 3146      7400
 3147              	.LASF134:
 3148 0075 6865785F 		.ascii	"hex_char_to_num\000"
 3148      63686172 
 3148      5F746F5F 
 3148      6E756D00 
 3149              	.LASF137:
 3150 0085 6C765F74 		.ascii	"lv_txt_encoded_next\000"
 3150      78745F65 
 3150      6E636F64 
 3150      65645F6E 
 3150      65787400 
 3151              	.LASF143:
 3152 0099 6C765F64 		.ascii	"lv_draw_label\000"
 3152      7261775F 
 3152      6C616265 
 3152      6C00
 3153              	.LASF140:
 3154 00a7 2E2E5C2E 		.ascii	"..\\..\\..\\lvgl\\version_6.1.2\\lvgl\\src\\lv_draw"
 3154      2E5C2E2E 
 3154      5C6C7667 
 3154      6C5C7665 
ARM GAS  C:\Users\tmj32\AppData\Local\Temp\ccHxR1NV.s 			page 75


 3154      7273696F 
 3155 00d3 5C6C765F 		.ascii	"\\lv_draw_label.c\000"
 3155      64726177 
 3155      5F6C6162 
 3155      656C2E63 
 3155      00
 3156              	.LASF127:
 3157 00e4 6C657474 		.ascii	"letter_w\000"
 3157      65725F77 
 3157      00
 3158              	.LASF89:
 3159 00ed 4C565F54 		.ascii	"LV_TXT_FLAG_RECOLOR\000"
 3159      58545F46 
 3159      4C41475F 
 3159      5245434F 
 3159      4C4F5200 
 3160              	.LASF141:
 3161 0101 433A5C55 		.ascii	"C:\\Users\\tmj32\\Documents\\TCNJ\\Senior_Project\\"
 3161      73657273 
 3161      5C746D6A 
 3161      33325C44 
 3161      6F63756D 
 3162 012e 4F736369 		.ascii	"Oscilloscope_Senior_Project\\tcom_engineering\\embe"
 3162      6C6C6F73 
 3162      636F7065 
 3162      5F53656E 
 3162      696F725F 
 3163 015f 645F7377 		.ascii	"d_sw\\tcom_app\\tcom_app_psoc6_lvgl6\\tcom_displ_te"
 3163      5C74636F 
 3163      6D5F6170 
 3163      705C7463 
 3163      6F6D5F61 
 3164 018f 73745F70 		.ascii	"st_psoc6.cydsn\000"
 3164      736F6336 
 3164      2E637964 
 3164      736E00
 3165              	.LASF130:
 3166 019e 6C657474 		.ascii	"letter_next\000"
 3166      65725F6E 
 3166      65787400 
 3167              	.LASF68:
 3168 01aa 696E6E65 		.ascii	"inner\000"
 3168      7200
 3169              	.LASF91:
 3170 01b0 4C565F54 		.ascii	"LV_TXT_FLAG_CENTER\000"
 3170      58545F46 
 3170      4C41475F 
 3170      43454E54 
 3170      455200
 3171              	.LASF20:
 3172 01c3 75696E74 		.ascii	"uint32_t\000"
 3172      33325F74 
 3172      00
 3173              	.LASF15:
 3174 01cc 696E7438 		.ascii	"int8_t\000"
 3174      5F7400
 3175              	.LASF52:
ARM GAS  C:\Users\tmj32\AppData\Local\Temp\ccHxR1NV.s 			page 76


 3176 01d3 6C765F63 		.ascii	"lv_color32_t\000"
 3176      6F6C6F72 
 3176      33325F74 
 3176      00
 3177              	.LASF75:
 3178 01e0 73656C5F 		.ascii	"sel_color\000"
 3178      636F6C6F 
 3178      7200
 3179              	.LASF102:
 3180 01ea 434D445F 		.ascii	"CMD_STATE_IN\000"
 3180      53544154 
 3180      455F494E 
 3180      00
 3181              	.LASF17:
 3182 01f7 696E7431 		.ascii	"int16_t\000"
 3182      365F7400 
 3183              	.LASF135:
 3184 01ff 72657375 		.ascii	"result\000"
 3184      6C7400
 3185              	.LASF117:
 3186 0206 6C696E65 		.ascii	"line_width\000"
 3186      5F776964 
 3186      746800
 3187              	.LASF13:
 3188 0211 6C6F6E67 		.ascii	"long long unsigned int\000"
 3188      206C6F6E 
 3188      6720756E 
 3188      7369676E 
 3188      65642069 
 3189              	.LASF63:
 3190 0228 70617274 		.ascii	"part\000"
 3190      00
 3191              	.LASF35:
 3192 022d 4C565F4F 		.ascii	"LV_OPA_TRANSP\000"
 3192      50415F54 
 3192      52414E53 
 3192      5000
 3193              	.LASF124:
 3194 023b 636D645F 		.ascii	"cmd_state\000"
 3194      73746174 
 3194      6500
 3195              	.LASF6:
 3196 0245 5F5F7569 		.ascii	"__uint16_t\000"
 3196      6E743136 
 3196      5F7400
 3197              	.LASF123:
 3198 0250 73656C5F 		.ascii	"sel_end\000"
 3198      656E6400 
 3199              	.LASF72:
 3200 0258 626F7264 		.ascii	"border\000"
 3200      657200
 3201              	.LASF92:
 3202 025f 4C565F54 		.ascii	"LV_TXT_FLAG_RIGHT\000"
 3202      58545F46 
 3202      4C41475F 
 3202      52494748 
 3202      5400
ARM GAS  C:\Users\tmj32\AppData\Local\Temp\ccHxR1NV.s 			page 77


 3203              	.LASF61:
 3204 0271 636F6C6F 		.ascii	"color\000"
 3204      7200
 3205              	.LASF81:
 3206 0277 726F756E 		.ascii	"rounded\000"
 3206      64656400 
 3207              	.LASF119:
 3208 027f 795F6F66 		.ascii	"y_ofs\000"
 3208      7300
 3209              	.LASF62:
 3210 0285 77696474 		.ascii	"width\000"
 3210      6800
 3211              	.LASF114:
 3212 028b 6F666673 		.ascii	"offset\000"
 3212      657400
 3213              	.LASF129:
 3214 0292 6C657474 		.ascii	"letter\000"
 3214      657200
 3215              	.LASF33:
 3216 0299 5F426F6F 		.ascii	"_Bool\000"
 3216      6C00
 3217              	.LASF120:
 3218 029f 6C617374 		.ascii	"last_line_start\000"
 3218      5F6C696E 
 3218      655F7374 
 3218      61727400 
 3219              	.LASF142:
 3220 02af 5F6C765F 		.ascii	"_lv_font_struct\000"
 3220      666F6E74 
 3220      5F737472 
 3220      75637400 
 3221              	.LASF100:
 3222 02bf 434D445F 		.ascii	"CMD_STATE_WAIT\000"
 3222      53544154 
 3222      455F5741 
 3222      495400
 3223              	.LASF122:
 3224 02ce 73656C5F 		.ascii	"sel_start\000"
 3224      73746172 
 3224      7400
 3225              	.LASF78:
 3226 02d8 6C696E65 		.ascii	"line_space\000"
 3226      5F737061 
 3226      636500
 3227              	.LASF106:
 3228 02e3 666F6E74 		.ascii	"font_p\000"
 3228      5F7000
 3229              	.LASF31:
 3230 02ea 6C696E65 		.ascii	"line_height\000"
 3230      5F686569 
 3230      67687400 
 3231              	.LASF125:
 3232 02f6 7061725F 		.ascii	"par_start\000"
 3232      73746172 
 3232      7400
 3233              	.LASF56:
 3234 0300 63686172 		.ascii	"char\000"
ARM GAS  C:\Users\tmj32\AppData\Local\Temp\ccHxR1NV.s 			page 78


 3234      00
 3235              	.LASF65:
 3236 0305 626F7474 		.ascii	"bottom\000"
 3236      6F6D00
 3237              	.LASF28:
 3238 030c 6C765F66 		.ascii	"lv_font_glyph_dsc_t\000"
 3238      6F6E745F 
 3238      676C7970 
 3238      685F6473 
 3238      635F7400 
 3239              	.LASF16:
 3240 0320 75696E74 		.ascii	"uint8_t\000"
 3240      385F7400 
 3241              	.LASF128:
 3242 0328 73656C5F 		.ascii	"sel_style\000"
 3242      7374796C 
 3242      6500
 3243              	.LASF60:
 3244 0332 6C765F73 		.ascii	"lv_shadow_type_t\000"
 3244      6861646F 
 3244      775F7479 
 3244      70655F74 
 3244      00
 3245              	.LASF105:
 3246 0343 6C765F63 		.ascii	"lv_color_make\000"
 3246      6F6C6F72 
 3246      5F6D616B 
 3246      6500
 3247              	.LASF67:
 3248 0351 72696768 		.ascii	"right\000"
 3248      7400
 3249              	.LASF37:
 3250 0357 4C565F4F 		.ascii	"LV_OPA_10\000"
 3250      50415F31 
 3250      3000
 3251              	.LASF12:
 3252 0361 6C6F6E67 		.ascii	"long long int\000"
 3252      206C6F6E 
 3252      6720696E 
 3252      7400
 3253              	.LASF82:
 3254 036f 676C6173 		.ascii	"glass\000"
 3254      7300
 3255              	.LASF84:
 3256 0375 74657874 		.ascii	"text\000"
 3256      00
 3257              	.LASF74:
 3258 037a 70616464 		.ascii	"padding\000"
 3258      696E6700 
 3259              	.LASF136:
 3260 0382 6C765F73 		.ascii	"lv_style_plain_color\000"
 3260      74796C65 
 3260      5F706C61 
 3260      696E5F63 
 3260      6F6C6F72 
 3261              	.LASF4:
 3262 0397 5F5F696E 		.ascii	"__int16_t\000"
ARM GAS  C:\Users\tmj32\AppData\Local\Temp\ccHxR1NV.s 			page 79


 3262      7431365F 
 3262      7400
 3263              	.LASF115:
 3264 03a1 68696E74 		.ascii	"hint\000"
 3264      00
 3265              	.LASF38:
 3266 03a6 4C565F4F 		.ascii	"LV_OPA_20\000"
 3266      50415F32 
 3266      3000
 3267              	.LASF85:
 3268 03b0 696D6167 		.ascii	"image\000"
 3268      6500
 3269              	.LASF110:
 3270 03b6 6D61736B 		.ascii	"mask\000"
 3270      00
 3271              	.LASF80:
 3272 03bb 73756270 		.ascii	"subpx\000"
 3272      7800
 3273              	.LASF53:
 3274 03c1 6C765F63 		.ascii	"lv_color_t\000"
 3274      6F6C6F72 
 3274      5F7400
 3275              	.LASF0:
 3276 03cc 5F5F696E 		.ascii	"__int8_t\000"
 3276      74385F74 
 3276      00
 3277              	.LASF108:
 3278 03d5 61726561 		.ascii	"area_p\000"
 3278      5F7000
 3279              	.LASF49:
 3280 03dc 67726565 		.ascii	"green\000"
 3280      6E00
 3281              	.LASF132:
 3282 03e2 6C6F6769 		.ascii	"logical_char_pos\000"
 3282      63616C5F 
 3282      63686172 
 3282      5F706F73 
 3282      00
 3283              	.LASF39:
 3284 03f3 4C565F4F 		.ascii	"LV_OPA_30\000"
 3284      50415F33 
 3284      3000
 3285              	.LASF22:
 3286 03fd 6C6F6E67 		.ascii	"long double\000"
 3286      20646F75 
 3286      626C6500 
 3287              	.LASF18:
 3288 0409 75696E74 		.ascii	"uint16_t\000"
 3288      31365F74 
 3288      00
 3289              	.LASF103:
 3290 0412 636D645F 		.ascii	"cmd_state_t\000"
 3290      73746174 
 3290      655F7400 
 3291              	.LASF70:
 3292 041e 67726164 		.ascii	"grad_color\000"
 3292      5F636F6C 
ARM GAS  C:\Users\tmj32\AppData\Local\Temp\ccHxR1NV.s 			page 80


 3292      6F7200
 3293              	.LASF101:
 3294 0429 434D445F 		.ascii	"CMD_STATE_PAR\000"
 3294      53544154 
 3294      455F5041 
 3294      5200
 3295              	.LASF55:
 3296 0437 73697A65 		.ascii	"sizetype\000"
 3296      74797065 
 3296      00
 3297              	.LASF118:
 3298 0440 785F6F66 		.ascii	"x_ofs\000"
 3298      7300
 3299              	.LASF34:
 3300 0446 6C765F66 		.ascii	"lv_font_t\000"
 3300      6F6E745F 
 3300      7400
 3301              	.LASF77:
 3302 0450 6C657474 		.ascii	"letter_space\000"
 3302      65725F73 
 3302      70616365 
 3302      00
 3303              	.LASF69:
 3304 045d 6D61696E 		.ascii	"main_color\000"
 3304      5F636F6C 
 3304      6F7200
 3305              	.LASF94:
 3306 0468 6C765F62 		.ascii	"lv_bidi_dir_t\000"
 3306      6964695F 
 3306      6469725F 
 3306      7400
 3307              	.LASF5:
 3308 0476 73686F72 		.ascii	"short int\000"
 3308      7420696E 
 3308      7400
 3309              	.LASF97:
 3310 0480 6C696E65 		.ascii	"line_start\000"
 3310      5F737461 
 3310      727400
 3311              	.LASF109:
 3312 048b 636F6F72 		.ascii	"coords\000"
 3312      647300
 3313              	.LASF54:
 3314 0492 6C765F6F 		.ascii	"lv_opa_t\000"
 3314      70615F74 
 3314      00
 3315              	.LASF9:
 3316 049b 6C6F6E67 		.ascii	"long int\000"
 3316      20696E74 
 3316      00
 3317              	.LASF40:
 3318 04a4 4C565F4F 		.ascii	"LV_OPA_40\000"
 3318      50415F34 
 3318      3000
 3319              	.LASF131:
 3320 04ae 62696469 		.ascii	"bidi_txt\000"
 3320      5F747874 
ARM GAS  C:\Users\tmj32\AppData\Local\Temp\ccHxR1NV.s 			page 81


 3320      00
 3321              	.LASF113:
 3322 04b7 666C6167 		.ascii	"flag\000"
 3322      00
 3323              	.LASF48:
 3324 04bc 626C7565 		.ascii	"blue\000"
 3324      00
 3325              	.LASF21:
 3326 04c1 6C765F63 		.ascii	"lv_coord_t\000"
 3326      6F6F7264 
 3326      5F7400
 3327              	.LASF66:
 3328 04cc 6C656674 		.ascii	"left\000"
 3328      00
 3329              	.LASF46:
 3330 04d1 4C565F4F 		.ascii	"LV_OPA_100\000"
 3330      50415F31 
 3330      303000
 3331              	.LASF1:
 3332 04dc 5F5F7569 		.ascii	"__uint8_t\000"
 3332      6E74385F 
 3332      7400
 3333              	.LASF41:
 3334 04e6 4C565F4F 		.ascii	"LV_OPA_50\000"
 3334      50415F35 
 3334      3000
 3335              	.LASF95:
 3336 04f0 73746172 		.ascii	"start\000"
 3336      7400
 3337              	.LASF25:
 3338 04f6 626F785F 		.ascii	"box_h\000"
 3338      6800
 3339              	.LASF76:
 3340 04fc 666F6E74 		.ascii	"font\000"
 3340      00
 3341              	.LASF24:
 3342 0501 626F785F 		.ascii	"box_w\000"
 3342      7700
 3343              	.LASF11:
 3344 0507 6C6F6E67 		.ascii	"long unsigned int\000"
 3344      20756E73 
 3344      69676E65 
 3344      6420696E 
 3344      7400
 3345              	.LASF99:
 3346 0519 6C765F64 		.ascii	"lv_draw_label_hint_t\000"
 3346      7261775F 
 3346      6C616265 
 3346      6C5F6869 
 3346      6E745F74 
 3347              	.LASF79:
 3348 052e 696E7465 		.ascii	"intense\000"
 3348      6E736500 
 3349              	.LASF50:
 3350 0536 616C7068 		.ascii	"alpha\000"
 3350      6100
 3351              	.LASF19:
ARM GAS  C:\Users\tmj32\AppData\Local\Temp\ccHxR1NV.s 			page 82


 3352 053c 696E7433 		.ascii	"int32_t\000"
 3352      325F7400 
 3353              	.LASF32:
 3354 0544 62617365 		.ascii	"base_line\000"
 3354      5F6C696E 
 3354      6500
 3355              	.LASF71:
 3356 054e 72616469 		.ascii	"radius\000"
 3356      757300
 3357              	.LASF112:
 3358 0555 6F70615F 		.ascii	"opa_scale\000"
 3358      7363616C 
 3358      6500
 3359              	.LASF83:
 3360 055f 626F6479 		.ascii	"body\000"
 3360      00
 3361              	.LASF42:
 3362 0564 4C565F4F 		.ascii	"LV_OPA_60\000"
 3362      50415F36 
 3362      3000
 3363              	.LASF138:
 3364 056e 6C765F74 		.ascii	"lv_txt_encoded_get_char_id\000"
 3364      78745F65 
 3364      6E636F64 
 3364      65645F67 
 3364      65745F63 
 3365              	.LASF64:
 3366 0589 74797065 		.ascii	"type\000"
 3366      00
 3367              	.LASF3:
 3368 058e 756E7369 		.ascii	"unsigned char\000"
 3368      676E6564 
 3368      20636861 
 3368      7200
 3369              	.LASF96:
 3370 059c 6C765F64 		.ascii	"lv_draw_label_txt_sel_t\000"
 3370      7261775F 
 3370      6C616265 
 3370      6C5F7478 
 3370      745F7365 
 3371              	.LASF10:
 3372 05b4 5F5F7569 		.ascii	"__uint32_t\000"
 3372      6E743332 
 3372      5F7400
 3373              	.LASF86:
 3374 05bf 6C696E65 		.ascii	"line\000"
 3374      00
 3375              	.LASF121:
 3376 05c4 6C696E65 		.ascii	"line_end\000"
 3376      5F656E64 
 3376      00
 3377              	.LASF30:
 3378 05cd 6765745F 		.ascii	"get_glyph_bitmap\000"
 3378      676C7970 
 3378      685F6269 
 3378      746D6170 
 3378      00
ARM GAS  C:\Users\tmj32\AppData\Local\Temp\ccHxR1NV.s 			page 83


 3379              	.LASF111:
 3380 05de 7374796C 		.ascii	"style\000"
 3380      6500
 3381              	.LASF133:
 3382 05e4 73656C5F 		.ascii	"sel_coords\000"
 3382      636F6F72 
 3382      647300
 3383              	.LASF43:
 3384 05ef 4C565F4F 		.ascii	"LV_OPA_70\000"
 3384      50415F37 
 3384      3000
 3385              	.LASF73:
 3386 05f9 73686164 		.ascii	"shadow\000"
 3386      6F7700
 3387              	.LASF58:
 3388 0600 6C765F61 		.ascii	"lv_area_t\000"
 3388      7265615F 
 3388      7400
 3389              	.LASF2:
 3390 060a 7369676E 		.ascii	"signed char\000"
 3390      65642063 
 3390      68617200 
 3391              	.LASF93:
 3392 0616 6C765F74 		.ascii	"lv_txt_flag_t\000"
 3392      78745F66 
 3392      6C61675F 
 3392      7400
 3393              	.LASF7:
 3394 0624 73686F72 		.ascii	"short unsigned int\000"
 3394      7420756E 
 3394      7369676E 
 3394      65642069 
 3394      6E7400
 3395              	.LASF88:
 3396 0637 4C565F54 		.ascii	"LV_TXT_FLAG_NONE\000"
 3396      58545F46 
 3396      4C41475F 
 3396      4E4F4E45 
 3396      00
 3397              	.LASF90:
 3398 0648 4C565F54 		.ascii	"LV_TXT_FLAG_EXPAND\000"
 3398      58545F46 
 3398      4C41475F 
 3398      45585041 
 3398      4E4400
 3399              	.LASF126:
 3400 065b 7265636F 		.ascii	"recolor\000"
 3400      6C6F7200 
 3401              	.LASF44:
 3402 0663 4C565F4F 		.ascii	"LV_OPA_80\000"
 3402      50415F38 
 3402      3000
 3403              	.LASF139:
 3404 066d 474E5520 		.ascii	"GNU C11 5.4.1 20160609 (release) [ARM/embedded-5-br"
 3404      43313120 
 3404      352E342E 
 3404      31203230 
ARM GAS  C:\Users\tmj32\AppData\Local\Temp\ccHxR1NV.s 			page 84


 3404      31363036 
 3405 06a0 616E6368 		.ascii	"anch revision 237715] -mcpu=cortex-m4 -mfloat-abi=s"
 3405      20726576 
 3405      6973696F 
 3405      6E203233 
 3405      37373135 
 3406 06d3 6F667466 		.ascii	"oftfp -mfpu=fpv4-sp-d16 -mthumb -g -O0 -ffunction-s"
 3406      70202D6D 
 3406      6670753D 
 3406      66707634 
 3406      2D73702D 
 3407 0706 65637469 		.ascii	"ections -ffat-lto-objects\000"
 3407      6F6E7320 
 3407      2D666661 
 3407      742D6C74 
 3407      6F2D6F62 
 3408              	.LASF59:
 3409 0720 6C765F62 		.ascii	"lv_border_part_t\000"
 3409      6F726465 
 3409      725F7061 
 3409      72745F74 
 3409      00
 3410              	.LASF107:
 3411 0731 6C765F61 		.ascii	"lv_area_get_width\000"
 3411      7265615F 
 3411      6765745F 
 3411      77696474 
 3411      6800
 3412              	.LASF104:
 3413 0743 6C765F66 		.ascii	"lv_font_get_line_height\000"
 3413      6F6E745F 
 3413      6765745F 
 3413      6C696E65 
 3413      5F686569 
 3414              	.LASF98:
 3415 075b 636F6F72 		.ascii	"coord_y\000"
 3415      645F7900 
 3416              	.LASF23:
 3417 0763 6164765F 		.ascii	"adv_w\000"
 3417      7700
 3418              		.ident	"GCC: (GNU Tools for ARM Embedded Processors) 5.4.1 20160609 (release) [ARM/embedded-5-bran
