ARM GAS  C:\Users\pearlstl\AppData\Local\Temp\ccc6DM2e.s 			page 1


   1              		.syntax unified
   2              		.cpu cortex-m4
   3              		.eabi_attribute 27, 1
   4              		.fpu fpv4-sp-d16
   5              		.eabi_attribute 20, 1
   6              		.eabi_attribute 21, 1
   7              		.eabi_attribute 23, 3
   8              		.eabi_attribute 24, 1
   9              		.eabi_attribute 25, 1
  10              		.eabi_attribute 26, 1
  11              		.eabi_attribute 30, 6
  12              		.eabi_attribute 34, 1
  13              		.eabi_attribute 18, 4
  14              		.thumb
  15              		.syntax unified
  16              		.file	"lv_draw_rbasic.c"
  17              		.text
  18              	.Ltext0:
  19              		.cfi_sections	.debug_frame
  20              		.section	.text.lv_color_mix,"ax",%progbits
  21              		.align	2
  22              		.thumb
  23              		.thumb_func
  24              		.type	lv_color_mix, %function
  25              	lv_color_mix:
  26              	.LFB4:
  27              		.file 1 "..\\..\\..\\display\\lvgl\\lv_draw\\../lv_misc/lv_color.h"
   1:..\..\..\display\lvgl\lv_draw\../lv_misc/lv_color.h **** /**
   2:..\..\..\display\lvgl\lv_draw\../lv_misc/lv_color.h ****  * @file lv_color.h
   3:..\..\..\display\lvgl\lv_draw\../lv_misc/lv_color.h ****  *
   4:..\..\..\display\lvgl\lv_draw\../lv_misc/lv_color.h ****  */
   5:..\..\..\display\lvgl\lv_draw\../lv_misc/lv_color.h **** 
   6:..\..\..\display\lvgl\lv_draw\../lv_misc/lv_color.h **** #ifndef LV_COLOR_H
   7:..\..\..\display\lvgl\lv_draw\../lv_misc/lv_color.h **** #define LV_COLOR_H
   8:..\..\..\display\lvgl\lv_draw\../lv_misc/lv_color.h **** 
   9:..\..\..\display\lvgl\lv_draw\../lv_misc/lv_color.h **** #ifdef __cplusplus
  10:..\..\..\display\lvgl\lv_draw\../lv_misc/lv_color.h **** extern "C" {
  11:..\..\..\display\lvgl\lv_draw\../lv_misc/lv_color.h **** #endif
  12:..\..\..\display\lvgl\lv_draw\../lv_misc/lv_color.h **** 
  13:..\..\..\display\lvgl\lv_draw\../lv_misc/lv_color.h **** /*********************
  14:..\..\..\display\lvgl\lv_draw\../lv_misc/lv_color.h ****  *      INCLUDES
  15:..\..\..\display\lvgl\lv_draw\../lv_misc/lv_color.h ****  *********************/
  16:..\..\..\display\lvgl\lv_draw\../lv_misc/lv_color.h **** #ifdef LV_CONF_INCLUDE_SIMPLE
  17:..\..\..\display\lvgl\lv_draw\../lv_misc/lv_color.h **** #include "lv_conf.h"
  18:..\..\..\display\lvgl\lv_draw\../lv_misc/lv_color.h **** #else
  19:..\..\..\display\lvgl\lv_draw\../lv_misc/lv_color.h **** #include "../../lv_conf.h"
  20:..\..\..\display\lvgl\lv_draw\../lv_misc/lv_color.h **** #endif
  21:..\..\..\display\lvgl\lv_draw\../lv_misc/lv_color.h **** 
  22:..\..\..\display\lvgl\lv_draw\../lv_misc/lv_color.h **** /*Error checking*/
  23:..\..\..\display\lvgl\lv_draw\../lv_misc/lv_color.h **** #if LV_COLOR_DEPTH == 24
  24:..\..\..\display\lvgl\lv_draw\../lv_misc/lv_color.h **** #error "LV_COLOR_DEPTH  24 is deprecated. Use LV_COLOR_DEPTH  32 instead (lv_conf.h)"
  25:..\..\..\display\lvgl\lv_draw\../lv_misc/lv_color.h **** #endif
  26:..\..\..\display\lvgl\lv_draw\../lv_misc/lv_color.h **** 
  27:..\..\..\display\lvgl\lv_draw\../lv_misc/lv_color.h **** #if LV_COLOR_DEPTH != 32 && LV_COLOR_SCREEN_TRANSP != 0
  28:..\..\..\display\lvgl\lv_draw\../lv_misc/lv_color.h **** #error "LV_COLOR_SCREEN_TRANSP requires LV_COLOR_DEPTH == 32. Set it in lv_conf.h"
  29:..\..\..\display\lvgl\lv_draw\../lv_misc/lv_color.h **** #endif
  30:..\..\..\display\lvgl\lv_draw\../lv_misc/lv_color.h **** 
ARM GAS  C:\Users\pearlstl\AppData\Local\Temp\ccc6DM2e.s 			page 2


  31:..\..\..\display\lvgl\lv_draw\../lv_misc/lv_color.h **** #if LV_COLOR_DEPTH != 16 && LV_COLOR_16_SWAP != 0
  32:..\..\..\display\lvgl\lv_draw\../lv_misc/lv_color.h **** #error "LV_COLOR_16_SWAP requires LV_COLOR_DEPTH == 16. Set it in lv_conf.h"
  33:..\..\..\display\lvgl\lv_draw\../lv_misc/lv_color.h **** #endif
  34:..\..\..\display\lvgl\lv_draw\../lv_misc/lv_color.h **** 
  35:..\..\..\display\lvgl\lv_draw\../lv_misc/lv_color.h **** 
  36:..\..\..\display\lvgl\lv_draw\../lv_misc/lv_color.h **** #include <stdint.h>
  37:..\..\..\display\lvgl\lv_draw\../lv_misc/lv_color.h **** 
  38:..\..\..\display\lvgl\lv_draw\../lv_misc/lv_color.h **** /*********************
  39:..\..\..\display\lvgl\lv_draw\../lv_misc/lv_color.h ****  *      DEFINES
  40:..\..\..\display\lvgl\lv_draw\../lv_misc/lv_color.h ****  *********************/
  41:..\..\..\display\lvgl\lv_draw\../lv_misc/lv_color.h **** #define LV_COLOR_WHITE   LV_COLOR_MAKE(0xFF,0xFF,0xFF)
  42:..\..\..\display\lvgl\lv_draw\../lv_misc/lv_color.h **** #define LV_COLOR_SILVER  LV_COLOR_MAKE(0xC0,0xC0,0xC0)
  43:..\..\..\display\lvgl\lv_draw\../lv_misc/lv_color.h **** #define LV_COLOR_GRAY    LV_COLOR_MAKE(0x80,0x80,0x80)
  44:..\..\..\display\lvgl\lv_draw\../lv_misc/lv_color.h **** #define LV_COLOR_BLACK   LV_COLOR_MAKE(0x00,0x00,0x00)
  45:..\..\..\display\lvgl\lv_draw\../lv_misc/lv_color.h **** #define LV_COLOR_RED     LV_COLOR_MAKE(0xFF,0x00,0x00)
  46:..\..\..\display\lvgl\lv_draw\../lv_misc/lv_color.h **** #define LV_COLOR_MAROON  LV_COLOR_MAKE(0x80,0x00,0x00)
  47:..\..\..\display\lvgl\lv_draw\../lv_misc/lv_color.h **** #define LV_COLOR_YELLOW  LV_COLOR_MAKE(0xFF,0xFF,0x00)
  48:..\..\..\display\lvgl\lv_draw\../lv_misc/lv_color.h **** #define LV_COLOR_OLIVE   LV_COLOR_MAKE(0x80,0x80,0x00)
  49:..\..\..\display\lvgl\lv_draw\../lv_misc/lv_color.h **** #define LV_COLOR_LIME    LV_COLOR_MAKE(0x00,0xFF,0x00)
  50:..\..\..\display\lvgl\lv_draw\../lv_misc/lv_color.h **** #define LV_COLOR_GREEN   LV_COLOR_MAKE(0x00,0x80,0x00)
  51:..\..\..\display\lvgl\lv_draw\../lv_misc/lv_color.h **** #define LV_COLOR_CYAN    LV_COLOR_MAKE(0x00,0xFF,0xFF)
  52:..\..\..\display\lvgl\lv_draw\../lv_misc/lv_color.h **** #define LV_COLOR_AQUA    LV_COLOR_CYAN
  53:..\..\..\display\lvgl\lv_draw\../lv_misc/lv_color.h **** #define LV_COLOR_TEAL    LV_COLOR_MAKE(0x00,0x80,0x80)
  54:..\..\..\display\lvgl\lv_draw\../lv_misc/lv_color.h **** #define LV_COLOR_BLUE    LV_COLOR_MAKE(0x00,0x00,0xFF)
  55:..\..\..\display\lvgl\lv_draw\../lv_misc/lv_color.h **** #define LV_COLOR_NAVY    LV_COLOR_MAKE(0x00,0x00,0x80)
  56:..\..\..\display\lvgl\lv_draw\../lv_misc/lv_color.h **** #define LV_COLOR_MAGENTA LV_COLOR_MAKE(0xFF,0x00,0xFF)
  57:..\..\..\display\lvgl\lv_draw\../lv_misc/lv_color.h **** #define LV_COLOR_PURPLE  LV_COLOR_MAKE(0x80,0x00,0x80)
  58:..\..\..\display\lvgl\lv_draw\../lv_misc/lv_color.h **** #define LV_COLOR_ORANGE  LV_COLOR_MAKE(0xFF,0xA5,0x00)
  59:..\..\..\display\lvgl\lv_draw\../lv_misc/lv_color.h **** 
  60:..\..\..\display\lvgl\lv_draw\../lv_misc/lv_color.h **** enum {
  61:..\..\..\display\lvgl\lv_draw\../lv_misc/lv_color.h ****     LV_OPA_TRANSP =  0,
  62:..\..\..\display\lvgl\lv_draw\../lv_misc/lv_color.h ****     LV_OPA_0      =  0,
  63:..\..\..\display\lvgl\lv_draw\../lv_misc/lv_color.h ****     LV_OPA_10     =  25,
  64:..\..\..\display\lvgl\lv_draw\../lv_misc/lv_color.h ****     LV_OPA_20     =  51,
  65:..\..\..\display\lvgl\lv_draw\../lv_misc/lv_color.h ****     LV_OPA_30     =  76,
  66:..\..\..\display\lvgl\lv_draw\../lv_misc/lv_color.h ****     LV_OPA_40     =  102,
  67:..\..\..\display\lvgl\lv_draw\../lv_misc/lv_color.h ****     LV_OPA_50     =  127,
  68:..\..\..\display\lvgl\lv_draw\../lv_misc/lv_color.h ****     LV_OPA_60     =  153,
  69:..\..\..\display\lvgl\lv_draw\../lv_misc/lv_color.h ****     LV_OPA_70     =  178,
  70:..\..\..\display\lvgl\lv_draw\../lv_misc/lv_color.h ****     LV_OPA_80     =  204,
  71:..\..\..\display\lvgl\lv_draw\../lv_misc/lv_color.h ****     LV_OPA_90     =  229,
  72:..\..\..\display\lvgl\lv_draw\../lv_misc/lv_color.h ****     LV_OPA_100    =  255,
  73:..\..\..\display\lvgl\lv_draw\../lv_misc/lv_color.h ****     LV_OPA_COVER  =  255,
  74:..\..\..\display\lvgl\lv_draw\../lv_misc/lv_color.h **** };
  75:..\..\..\display\lvgl\lv_draw\../lv_misc/lv_color.h **** 
  76:..\..\..\display\lvgl\lv_draw\../lv_misc/lv_color.h **** #define LV_OPA_MIN      16      /*Opacities below this will be transparent*/
  77:..\..\..\display\lvgl\lv_draw\../lv_misc/lv_color.h **** #define LV_OPA_MAX      251     /*Opacities above this will fully cover*/
  78:..\..\..\display\lvgl\lv_draw\../lv_misc/lv_color.h **** 
  79:..\..\..\display\lvgl\lv_draw\../lv_misc/lv_color.h **** #if LV_COLOR_DEPTH == 1
  80:..\..\..\display\lvgl\lv_draw\../lv_misc/lv_color.h **** #define LV_COLOR_SIZE           8
  81:..\..\..\display\lvgl\lv_draw\../lv_misc/lv_color.h **** #elif LV_COLOR_DEPTH == 8
  82:..\..\..\display\lvgl\lv_draw\../lv_misc/lv_color.h **** #define LV_COLOR_SIZE           8
  83:..\..\..\display\lvgl\lv_draw\../lv_misc/lv_color.h **** #elif LV_COLOR_DEPTH == 16
  84:..\..\..\display\lvgl\lv_draw\../lv_misc/lv_color.h **** #define LV_COLOR_SIZE           16
  85:..\..\..\display\lvgl\lv_draw\../lv_misc/lv_color.h **** #elif LV_COLOR_DEPTH == 32
  86:..\..\..\display\lvgl\lv_draw\../lv_misc/lv_color.h **** #define LV_COLOR_SIZE           32
  87:..\..\..\display\lvgl\lv_draw\../lv_misc/lv_color.h **** #else
ARM GAS  C:\Users\pearlstl\AppData\Local\Temp\ccc6DM2e.s 			page 3


  88:..\..\..\display\lvgl\lv_draw\../lv_misc/lv_color.h **** #error "Invalid LV_COLOR_DEPTH in lv_conf.h! Set it to 1, 8, 16 or 32!"
  89:..\..\..\display\lvgl\lv_draw\../lv_misc/lv_color.h **** #endif
  90:..\..\..\display\lvgl\lv_draw\../lv_misc/lv_color.h **** 
  91:..\..\..\display\lvgl\lv_draw\../lv_misc/lv_color.h **** /**********************
  92:..\..\..\display\lvgl\lv_draw\../lv_misc/lv_color.h ****  *      TYPEDEFS
  93:..\..\..\display\lvgl\lv_draw\../lv_misc/lv_color.h ****  **********************/
  94:..\..\..\display\lvgl\lv_draw\../lv_misc/lv_color.h **** 
  95:..\..\..\display\lvgl\lv_draw\../lv_misc/lv_color.h **** typedef union
  96:..\..\..\display\lvgl\lv_draw\../lv_misc/lv_color.h **** {
  97:..\..\..\display\lvgl\lv_draw\../lv_misc/lv_color.h ****     uint8_t blue  :1;
  98:..\..\..\display\lvgl\lv_draw\../lv_misc/lv_color.h ****     uint8_t green :1;
  99:..\..\..\display\lvgl\lv_draw\../lv_misc/lv_color.h ****     uint8_t red   :1;
 100:..\..\..\display\lvgl\lv_draw\../lv_misc/lv_color.h ****     uint8_t full  :1;
 101:..\..\..\display\lvgl\lv_draw\../lv_misc/lv_color.h **** } lv_color1_t;
 102:..\..\..\display\lvgl\lv_draw\../lv_misc/lv_color.h **** 
 103:..\..\..\display\lvgl\lv_draw\../lv_misc/lv_color.h **** typedef union
 104:..\..\..\display\lvgl\lv_draw\../lv_misc/lv_color.h **** {
 105:..\..\..\display\lvgl\lv_draw\../lv_misc/lv_color.h ****     struct
 106:..\..\..\display\lvgl\lv_draw\../lv_misc/lv_color.h ****     {
 107:..\..\..\display\lvgl\lv_draw\../lv_misc/lv_color.h ****         uint8_t blue  :2;
 108:..\..\..\display\lvgl\lv_draw\../lv_misc/lv_color.h ****         uint8_t green :3;
 109:..\..\..\display\lvgl\lv_draw\../lv_misc/lv_color.h ****         uint8_t red   :3;
 110:..\..\..\display\lvgl\lv_draw\../lv_misc/lv_color.h ****     };
 111:..\..\..\display\lvgl\lv_draw\../lv_misc/lv_color.h ****     uint8_t full;
 112:..\..\..\display\lvgl\lv_draw\../lv_misc/lv_color.h **** } lv_color8_t;
 113:..\..\..\display\lvgl\lv_draw\../lv_misc/lv_color.h **** 
 114:..\..\..\display\lvgl\lv_draw\../lv_misc/lv_color.h **** typedef union
 115:..\..\..\display\lvgl\lv_draw\../lv_misc/lv_color.h **** {
 116:..\..\..\display\lvgl\lv_draw\../lv_misc/lv_color.h ****     struct
 117:..\..\..\display\lvgl\lv_draw\../lv_misc/lv_color.h ****     {
 118:..\..\..\display\lvgl\lv_draw\../lv_misc/lv_color.h **** #if LV_COLOR_16_SWAP == 0
 119:..\..\..\display\lvgl\lv_draw\../lv_misc/lv_color.h ****         uint16_t blue  :5;
 120:..\..\..\display\lvgl\lv_draw\../lv_misc/lv_color.h ****         uint16_t green :6;
 121:..\..\..\display\lvgl\lv_draw\../lv_misc/lv_color.h ****         uint16_t red   :5;
 122:..\..\..\display\lvgl\lv_draw\../lv_misc/lv_color.h **** #else
 123:..\..\..\display\lvgl\lv_draw\../lv_misc/lv_color.h ****         uint16_t green_h :3;
 124:..\..\..\display\lvgl\lv_draw\../lv_misc/lv_color.h ****         uint16_t red   :5;
 125:..\..\..\display\lvgl\lv_draw\../lv_misc/lv_color.h ****         uint16_t blue  :5;
 126:..\..\..\display\lvgl\lv_draw\../lv_misc/lv_color.h ****         uint16_t green_l :3;
 127:..\..\..\display\lvgl\lv_draw\../lv_misc/lv_color.h **** #endif
 128:..\..\..\display\lvgl\lv_draw\../lv_misc/lv_color.h ****     };
 129:..\..\..\display\lvgl\lv_draw\../lv_misc/lv_color.h ****     uint16_t full;
 130:..\..\..\display\lvgl\lv_draw\../lv_misc/lv_color.h **** } lv_color16_t;
 131:..\..\..\display\lvgl\lv_draw\../lv_misc/lv_color.h **** 
 132:..\..\..\display\lvgl\lv_draw\../lv_misc/lv_color.h **** typedef union
 133:..\..\..\display\lvgl\lv_draw\../lv_misc/lv_color.h **** {
 134:..\..\..\display\lvgl\lv_draw\../lv_misc/lv_color.h ****     struct
 135:..\..\..\display\lvgl\lv_draw\../lv_misc/lv_color.h ****     {
 136:..\..\..\display\lvgl\lv_draw\../lv_misc/lv_color.h ****         uint8_t blue;
 137:..\..\..\display\lvgl\lv_draw\../lv_misc/lv_color.h ****         uint8_t green;
 138:..\..\..\display\lvgl\lv_draw\../lv_misc/lv_color.h ****         uint8_t red;
 139:..\..\..\display\lvgl\lv_draw\../lv_misc/lv_color.h ****         uint8_t alpha;
 140:..\..\..\display\lvgl\lv_draw\../lv_misc/lv_color.h ****     };
 141:..\..\..\display\lvgl\lv_draw\../lv_misc/lv_color.h ****     uint32_t full;
 142:..\..\..\display\lvgl\lv_draw\../lv_misc/lv_color.h **** } lv_color32_t;
 143:..\..\..\display\lvgl\lv_draw\../lv_misc/lv_color.h **** 
 144:..\..\..\display\lvgl\lv_draw\../lv_misc/lv_color.h **** #if LV_COLOR_DEPTH == 1
ARM GAS  C:\Users\pearlstl\AppData\Local\Temp\ccc6DM2e.s 			page 4


 145:..\..\..\display\lvgl\lv_draw\../lv_misc/lv_color.h **** typedef uint8_t lv_color_int_t;
 146:..\..\..\display\lvgl\lv_draw\../lv_misc/lv_color.h **** typedef lv_color1_t lv_color_t;
 147:..\..\..\display\lvgl\lv_draw\../lv_misc/lv_color.h **** #elif LV_COLOR_DEPTH == 8
 148:..\..\..\display\lvgl\lv_draw\../lv_misc/lv_color.h **** typedef uint8_t lv_color_int_t;
 149:..\..\..\display\lvgl\lv_draw\../lv_misc/lv_color.h **** typedef lv_color8_t lv_color_t;
 150:..\..\..\display\lvgl\lv_draw\../lv_misc/lv_color.h **** #elif LV_COLOR_DEPTH == 16
 151:..\..\..\display\lvgl\lv_draw\../lv_misc/lv_color.h **** typedef uint16_t lv_color_int_t;
 152:..\..\..\display\lvgl\lv_draw\../lv_misc/lv_color.h **** typedef lv_color16_t lv_color_t;
 153:..\..\..\display\lvgl\lv_draw\../lv_misc/lv_color.h **** #elif LV_COLOR_DEPTH == 32
 154:..\..\..\display\lvgl\lv_draw\../lv_misc/lv_color.h **** typedef uint32_t lv_color_int_t;
 155:..\..\..\display\lvgl\lv_draw\../lv_misc/lv_color.h **** typedef lv_color32_t lv_color_t;
 156:..\..\..\display\lvgl\lv_draw\../lv_misc/lv_color.h **** #else
 157:..\..\..\display\lvgl\lv_draw\../lv_misc/lv_color.h **** #error "Invalid LV_COLOR_DEPTH in lv_conf.h! Set it to 1, 8, 16 or 32!"
 158:..\..\..\display\lvgl\lv_draw\../lv_misc/lv_color.h **** #endif
 159:..\..\..\display\lvgl\lv_draw\../lv_misc/lv_color.h **** 
 160:..\..\..\display\lvgl\lv_draw\../lv_misc/lv_color.h **** typedef uint8_t lv_opa_t;
 161:..\..\..\display\lvgl\lv_draw\../lv_misc/lv_color.h **** 
 162:..\..\..\display\lvgl\lv_draw\../lv_misc/lv_color.h **** typedef struct
 163:..\..\..\display\lvgl\lv_draw\../lv_misc/lv_color.h **** {
 164:..\..\..\display\lvgl\lv_draw\../lv_misc/lv_color.h ****     uint16_t h;
 165:..\..\..\display\lvgl\lv_draw\../lv_misc/lv_color.h ****     uint8_t s;
 166:..\..\..\display\lvgl\lv_draw\../lv_misc/lv_color.h ****     uint8_t v;
 167:..\..\..\display\lvgl\lv_draw\../lv_misc/lv_color.h **** } lv_color_hsv_t;
 168:..\..\..\display\lvgl\lv_draw\../lv_misc/lv_color.h **** 
 169:..\..\..\display\lvgl\lv_draw\../lv_misc/lv_color.h **** /**********************
 170:..\..\..\display\lvgl\lv_draw\../lv_misc/lv_color.h ****  * GLOBAL PROTOTYPES
 171:..\..\..\display\lvgl\lv_draw\../lv_misc/lv_color.h ****  **********************/
 172:..\..\..\display\lvgl\lv_draw\../lv_misc/lv_color.h **** 
 173:..\..\..\display\lvgl\lv_draw\../lv_misc/lv_color.h **** /*In color conversations:
 174:..\..\..\display\lvgl\lv_draw\../lv_misc/lv_color.h ****  * - When converting to bigger color type the LSB weight of 1 LSB is calculated
 175:..\..\..\display\lvgl\lv_draw\../lv_misc/lv_color.h ****  *   E.g. 16 bit Red has 5 bits
 176:..\..\..\display\lvgl\lv_draw\../lv_misc/lv_color.h ****  *         8 bit Red has 2 bits
 177:..\..\..\display\lvgl\lv_draw\../lv_misc/lv_color.h ****  *        ----------------------
 178:..\..\..\display\lvgl\lv_draw\../lv_misc/lv_color.h ****  *        8 bit red LSB = (2^5 - 1) / (2^2 - 1) = 31 / 3 = 10
 179:..\..\..\display\lvgl\lv_draw\../lv_misc/lv_color.h ****  *
 180:..\..\..\display\lvgl\lv_draw\../lv_misc/lv_color.h ****  * - When calculating to smaller color type simply shift out the LSBs
 181:..\..\..\display\lvgl\lv_draw\../lv_misc/lv_color.h ****  *   E.g.  8 bit Red has 2 bits
 182:..\..\..\display\lvgl\lv_draw\../lv_misc/lv_color.h ****  *        16 bit Red has 5 bits
 183:..\..\..\display\lvgl\lv_draw\../lv_misc/lv_color.h ****  *        ----------------------
 184:..\..\..\display\lvgl\lv_draw\../lv_misc/lv_color.h ****  *         Shift right with 5 - 3 = 2
 185:..\..\..\display\lvgl\lv_draw\../lv_misc/lv_color.h ****  */
 186:..\..\..\display\lvgl\lv_draw\../lv_misc/lv_color.h **** 
 187:..\..\..\display\lvgl\lv_draw\../lv_misc/lv_color.h **** static inline uint8_t lv_color_to1(lv_color_t color)
 188:..\..\..\display\lvgl\lv_draw\../lv_misc/lv_color.h **** {
 189:..\..\..\display\lvgl\lv_draw\../lv_misc/lv_color.h **** #if LV_COLOR_DEPTH == 1
 190:..\..\..\display\lvgl\lv_draw\../lv_misc/lv_color.h ****     return color.full;
 191:..\..\..\display\lvgl\lv_draw\../lv_misc/lv_color.h **** #elif LV_COLOR_DEPTH == 8
 192:..\..\..\display\lvgl\lv_draw\../lv_misc/lv_color.h ****     if((color.red   & 0x4) ||
 193:..\..\..\display\lvgl\lv_draw\../lv_misc/lv_color.h ****             (color.green & 0x4) ||
 194:..\..\..\display\lvgl\lv_draw\../lv_misc/lv_color.h ****             (color.blue  & 0x2)) {
 195:..\..\..\display\lvgl\lv_draw\../lv_misc/lv_color.h ****         return 1;
 196:..\..\..\display\lvgl\lv_draw\../lv_misc/lv_color.h ****     } else {
 197:..\..\..\display\lvgl\lv_draw\../lv_misc/lv_color.h ****         return 0;
 198:..\..\..\display\lvgl\lv_draw\../lv_misc/lv_color.h ****     }
 199:..\..\..\display\lvgl\lv_draw\../lv_misc/lv_color.h **** #elif LV_COLOR_DEPTH == 16
 200:..\..\..\display\lvgl\lv_draw\../lv_misc/lv_color.h **** #  if LV_COLOR_16_SWAP == 0
 201:..\..\..\display\lvgl\lv_draw\../lv_misc/lv_color.h ****     if((color.red   & 0x10) ||
ARM GAS  C:\Users\pearlstl\AppData\Local\Temp\ccc6DM2e.s 			page 5


 202:..\..\..\display\lvgl\lv_draw\../lv_misc/lv_color.h ****             (color.green & 0x20) ||
 203:..\..\..\display\lvgl\lv_draw\../lv_misc/lv_color.h ****             (color.blue  & 0x10)) {
 204:..\..\..\display\lvgl\lv_draw\../lv_misc/lv_color.h ****         return 1;
 205:..\..\..\display\lvgl\lv_draw\../lv_misc/lv_color.h **** #  else
 206:..\..\..\display\lvgl\lv_draw\../lv_misc/lv_color.h ****     if((color.red   & 0x10) ||
 207:..\..\..\display\lvgl\lv_draw\../lv_misc/lv_color.h ****             (color.green_h & 0x20) ||
 208:..\..\..\display\lvgl\lv_draw\../lv_misc/lv_color.h ****             (color.blue  & 0x10)) {
 209:..\..\..\display\lvgl\lv_draw\../lv_misc/lv_color.h ****         return 1;
 210:..\..\..\display\lvgl\lv_draw\../lv_misc/lv_color.h **** #  endif
 211:..\..\..\display\lvgl\lv_draw\../lv_misc/lv_color.h ****     } else {
 212:..\..\..\display\lvgl\lv_draw\../lv_misc/lv_color.h ****         return 0;
 213:..\..\..\display\lvgl\lv_draw\../lv_misc/lv_color.h ****     }
 214:..\..\..\display\lvgl\lv_draw\../lv_misc/lv_color.h **** #elif LV_COLOR_DEPTH == 32
 215:..\..\..\display\lvgl\lv_draw\../lv_misc/lv_color.h ****     if((color.red   & 0x80) ||
 216:..\..\..\display\lvgl\lv_draw\../lv_misc/lv_color.h ****             (color.green & 0x80) ||
 217:..\..\..\display\lvgl\lv_draw\../lv_misc/lv_color.h ****             (color.blue  & 0x80)) {
 218:..\..\..\display\lvgl\lv_draw\../lv_misc/lv_color.h ****         return 1;
 219:..\..\..\display\lvgl\lv_draw\../lv_misc/lv_color.h ****     } else {
 220:..\..\..\display\lvgl\lv_draw\../lv_misc/lv_color.h ****         return 0;
 221:..\..\..\display\lvgl\lv_draw\../lv_misc/lv_color.h ****     }
 222:..\..\..\display\lvgl\lv_draw\../lv_misc/lv_color.h **** #endif
 223:..\..\..\display\lvgl\lv_draw\../lv_misc/lv_color.h **** }
 224:..\..\..\display\lvgl\lv_draw\../lv_misc/lv_color.h **** 
 225:..\..\..\display\lvgl\lv_draw\../lv_misc/lv_color.h **** static inline uint8_t lv_color_to8(lv_color_t color)
 226:..\..\..\display\lvgl\lv_draw\../lv_misc/lv_color.h **** {
 227:..\..\..\display\lvgl\lv_draw\../lv_misc/lv_color.h **** #if LV_COLOR_DEPTH == 1
 228:..\..\..\display\lvgl\lv_draw\../lv_misc/lv_color.h ****     if(color.full == 0) return 0;
 229:..\..\..\display\lvgl\lv_draw\../lv_misc/lv_color.h ****     else return 0xFF;
 230:..\..\..\display\lvgl\lv_draw\../lv_misc/lv_color.h **** #elif LV_COLOR_DEPTH == 8
 231:..\..\..\display\lvgl\lv_draw\../lv_misc/lv_color.h ****     return color.full;
 232:..\..\..\display\lvgl\lv_draw\../lv_misc/lv_color.h **** #elif LV_COLOR_DEPTH == 16
 233:..\..\..\display\lvgl\lv_draw\../lv_misc/lv_color.h **** 
 234:..\..\..\display\lvgl\lv_draw\../lv_misc/lv_color.h **** #  if LV_COLOR_16_SWAP == 0
 235:..\..\..\display\lvgl\lv_draw\../lv_misc/lv_color.h ****     lv_color8_t ret;
 236:..\..\..\display\lvgl\lv_draw\../lv_misc/lv_color.h ****     ret.red = color.red >> 2;       /* 5 - 3  = 2*/
 237:..\..\..\display\lvgl\lv_draw\../lv_misc/lv_color.h ****     ret.green = color.green >> 3;   /* 6 - 3  = 3*/
 238:..\..\..\display\lvgl\lv_draw\../lv_misc/lv_color.h ****     ret.blue = color.blue >> 3;     /* 5 - 2  = 3*/
 239:..\..\..\display\lvgl\lv_draw\../lv_misc/lv_color.h ****     return ret.full;
 240:..\..\..\display\lvgl\lv_draw\../lv_misc/lv_color.h **** #  else
 241:..\..\..\display\lvgl\lv_draw\../lv_misc/lv_color.h ****     lv_color8_t ret;
 242:..\..\..\display\lvgl\lv_draw\../lv_misc/lv_color.h ****     ret.red = color.red >> 2;       /* 5 - 3  = 2*/
 243:..\..\..\display\lvgl\lv_draw\../lv_misc/lv_color.h ****     ret.green = color.green_h;      /* 6 - 3  = 3*/
 244:..\..\..\display\lvgl\lv_draw\../lv_misc/lv_color.h ****     ret.blue = color.blue >> 3;     /* 5 - 2  = 3*/
 245:..\..\..\display\lvgl\lv_draw\../lv_misc/lv_color.h ****     return ret.full;
 246:..\..\..\display\lvgl\lv_draw\../lv_misc/lv_color.h **** #  endif
 247:..\..\..\display\lvgl\lv_draw\../lv_misc/lv_color.h **** #elif LV_COLOR_DEPTH == 32
 248:..\..\..\display\lvgl\lv_draw\../lv_misc/lv_color.h ****     lv_color8_t ret;
 249:..\..\..\display\lvgl\lv_draw\../lv_misc/lv_color.h ****     ret.red = color.red >> 5;       /* 8 - 3  = 5*/
 250:..\..\..\display\lvgl\lv_draw\../lv_misc/lv_color.h ****     ret.green = color.green >> 5;   /* 8 - 3  = 5*/
 251:..\..\..\display\lvgl\lv_draw\../lv_misc/lv_color.h ****     ret.blue = color.blue >> 6;     /* 8 - 2  = 6*/
 252:..\..\..\display\lvgl\lv_draw\../lv_misc/lv_color.h ****     return ret.full;
 253:..\..\..\display\lvgl\lv_draw\../lv_misc/lv_color.h **** #endif
 254:..\..\..\display\lvgl\lv_draw\../lv_misc/lv_color.h **** }
 255:..\..\..\display\lvgl\lv_draw\../lv_misc/lv_color.h **** 
 256:..\..\..\display\lvgl\lv_draw\../lv_misc/lv_color.h **** static inline uint16_t lv_color_to16(lv_color_t color)
 257:..\..\..\display\lvgl\lv_draw\../lv_misc/lv_color.h **** {
 258:..\..\..\display\lvgl\lv_draw\../lv_misc/lv_color.h **** #if LV_COLOR_DEPTH == 1
ARM GAS  C:\Users\pearlstl\AppData\Local\Temp\ccc6DM2e.s 			page 6


 259:..\..\..\display\lvgl\lv_draw\../lv_misc/lv_color.h ****     if(color.full == 0) return 0;
 260:..\..\..\display\lvgl\lv_draw\../lv_misc/lv_color.h ****     else return 0xFFFF;
 261:..\..\..\display\lvgl\lv_draw\../lv_misc/lv_color.h **** #elif LV_COLOR_DEPTH == 8
 262:..\..\..\display\lvgl\lv_draw\../lv_misc/lv_color.h ****     lv_color16_t ret;
 263:..\..\..\display\lvgl\lv_draw\../lv_misc/lv_color.h **** #  if LV_COLOR_16_SWAP == 0
 264:..\..\..\display\lvgl\lv_draw\../lv_misc/lv_color.h ****     ret.red = color.red * 4;       /*(2^5 - 1)/(2^3 - 1) = 31/7 = 4*/
 265:..\..\..\display\lvgl\lv_draw\../lv_misc/lv_color.h ****     ret.green = color.green * 9;   /*(2^6 - 1)/(2^3 - 1) = 63/7 = 9*/
 266:..\..\..\display\lvgl\lv_draw\../lv_misc/lv_color.h ****     ret.blue = color.blue * 10;    /*(2^5 - 1)/(2^2 - 1) = 31/3 = 10*/
 267:..\..\..\display\lvgl\lv_draw\../lv_misc/lv_color.h **** #  else
 268:..\..\..\display\lvgl\lv_draw\../lv_misc/lv_color.h ****     ret.red = color.red * 4;
 269:..\..\..\display\lvgl\lv_draw\../lv_misc/lv_color.h ****     uint8_t g_tmp = color.green * 9;
 270:..\..\..\display\lvgl\lv_draw\../lv_misc/lv_color.h ****     ret.green_h = (g_tmp & 0x1F) >> 3;
 271:..\..\..\display\lvgl\lv_draw\../lv_misc/lv_color.h ****     ret.green_l = g_tmp & 0x07;
 272:..\..\..\display\lvgl\lv_draw\../lv_misc/lv_color.h ****     ret.blue = color.blue * 10;
 273:..\..\..\display\lvgl\lv_draw\../lv_misc/lv_color.h **** #  endif
 274:..\..\..\display\lvgl\lv_draw\../lv_misc/lv_color.h ****     return ret.full;
 275:..\..\..\display\lvgl\lv_draw\../lv_misc/lv_color.h **** #elif LV_COLOR_DEPTH == 16
 276:..\..\..\display\lvgl\lv_draw\../lv_misc/lv_color.h ****     return color.full;
 277:..\..\..\display\lvgl\lv_draw\../lv_misc/lv_color.h **** #elif LV_COLOR_DEPTH == 32
 278:..\..\..\display\lvgl\lv_draw\../lv_misc/lv_color.h ****     lv_color16_t ret;
 279:..\..\..\display\lvgl\lv_draw\../lv_misc/lv_color.h **** #  if LV_COLOR_16_SWAP == 0
 280:..\..\..\display\lvgl\lv_draw\../lv_misc/lv_color.h ****     ret.red = color.red >> 3;       /* 8 - 5  = 3*/
 281:..\..\..\display\lvgl\lv_draw\../lv_misc/lv_color.h ****     ret.green = color.green >> 2;   /* 8 - 6  = 2*/
 282:..\..\..\display\lvgl\lv_draw\../lv_misc/lv_color.h ****     ret.blue = color.blue >> 3;     /* 8 - 5  = 3*/
 283:..\..\..\display\lvgl\lv_draw\../lv_misc/lv_color.h **** #  else
 284:..\..\..\display\lvgl\lv_draw\../lv_misc/lv_color.h ****     ret.red = color.red >> 3;
 285:..\..\..\display\lvgl\lv_draw\../lv_misc/lv_color.h ****     ret.green_h = (color.green & 0xE0) >> 5;
 286:..\..\..\display\lvgl\lv_draw\../lv_misc/lv_color.h ****     ret.green_l = (color.green & 0x1C) >> 2;
 287:..\..\..\display\lvgl\lv_draw\../lv_misc/lv_color.h ****     ret.blue = color.blue >> 3;
 288:..\..\..\display\lvgl\lv_draw\../lv_misc/lv_color.h **** #  endif
 289:..\..\..\display\lvgl\lv_draw\../lv_misc/lv_color.h ****     return ret.full;
 290:..\..\..\display\lvgl\lv_draw\../lv_misc/lv_color.h **** #endif
 291:..\..\..\display\lvgl\lv_draw\../lv_misc/lv_color.h **** }
 292:..\..\..\display\lvgl\lv_draw\../lv_misc/lv_color.h **** 
 293:..\..\..\display\lvgl\lv_draw\../lv_misc/lv_color.h **** static inline uint32_t lv_color_to32(lv_color_t color)
 294:..\..\..\display\lvgl\lv_draw\../lv_misc/lv_color.h **** {
 295:..\..\..\display\lvgl\lv_draw\../lv_misc/lv_color.h **** #if LV_COLOR_DEPTH == 1
 296:..\..\..\display\lvgl\lv_draw\../lv_misc/lv_color.h ****     if(color.full == 0) return 0;
 297:..\..\..\display\lvgl\lv_draw\../lv_misc/lv_color.h ****     else return 0xFFFFFFFF;
 298:..\..\..\display\lvgl\lv_draw\../lv_misc/lv_color.h **** #elif LV_COLOR_DEPTH == 8
 299:..\..\..\display\lvgl\lv_draw\../lv_misc/lv_color.h ****     lv_color32_t ret;
 300:..\..\..\display\lvgl\lv_draw\../lv_misc/lv_color.h ****     ret.red = color.red * 36;        /*(2^8 - 1)/(2^3 - 1) = 255/7 = 36*/
 301:..\..\..\display\lvgl\lv_draw\../lv_misc/lv_color.h ****     ret.green = color.green * 36;    /*(2^8 - 1)/(2^3 - 1) = 255/7 = 36*/
 302:..\..\..\display\lvgl\lv_draw\../lv_misc/lv_color.h ****     ret.blue = color.blue * 85;      /*(2^8 - 1)/(2^2 - 1) = 255/3 = 85*/
 303:..\..\..\display\lvgl\lv_draw\../lv_misc/lv_color.h ****     ret.alpha = 0xFF;
 304:..\..\..\display\lvgl\lv_draw\../lv_misc/lv_color.h ****     return ret.full;
 305:..\..\..\display\lvgl\lv_draw\../lv_misc/lv_color.h **** #elif LV_COLOR_DEPTH == 16
 306:..\..\..\display\lvgl\lv_draw\../lv_misc/lv_color.h **** #  if LV_COLOR_16_SWAP == 0
 307:..\..\..\display\lvgl\lv_draw\../lv_misc/lv_color.h ****     lv_color32_t ret;
 308:..\..\..\display\lvgl\lv_draw\../lv_misc/lv_color.h ****     ret.red = color.red * 8;       /*(2^8 - 1)/(2^5 - 1) = 255/31 = 8*/
 309:..\..\..\display\lvgl\lv_draw\../lv_misc/lv_color.h ****     ret.green = color.green * 4;   /*(2^8 - 1)/(2^6 - 1) = 255/63 = 4*/
 310:..\..\..\display\lvgl\lv_draw\../lv_misc/lv_color.h ****     ret.blue = color.blue * 8;     /*(2^8 - 1)/(2^5 - 1) = 255/31 = 8*/
 311:..\..\..\display\lvgl\lv_draw\../lv_misc/lv_color.h ****     ret.alpha = 0xFF;
 312:..\..\..\display\lvgl\lv_draw\../lv_misc/lv_color.h ****     return ret.full;
 313:..\..\..\display\lvgl\lv_draw\../lv_misc/lv_color.h **** #  else
 314:..\..\..\display\lvgl\lv_draw\../lv_misc/lv_color.h ****     lv_color32_t ret;
 315:..\..\..\display\lvgl\lv_draw\../lv_misc/lv_color.h ****     ret.red = color.red * 8;                                    /*(2^8 - 1)/(2^5 - 1) = 255/31 = 8*
ARM GAS  C:\Users\pearlstl\AppData\Local\Temp\ccc6DM2e.s 			page 7


 316:..\..\..\display\lvgl\lv_draw\../lv_misc/lv_color.h ****     ret.green = ((color.green_h << 3) + color.green_l) * 4;     /*(2^8 - 1)/(2^6 - 1) = 255/63 = 4*
 317:..\..\..\display\lvgl\lv_draw\../lv_misc/lv_color.h ****     ret.blue = color.blue * 8;                                   /*(2^8 - 1)/(2^5 - 1) = 255/31 = 8
 318:..\..\..\display\lvgl\lv_draw\../lv_misc/lv_color.h ****     ret.alpha = 0xFF;
 319:..\..\..\display\lvgl\lv_draw\../lv_misc/lv_color.h ****     return ret.full;
 320:..\..\..\display\lvgl\lv_draw\../lv_misc/lv_color.h **** #  endif
 321:..\..\..\display\lvgl\lv_draw\../lv_misc/lv_color.h **** #elif LV_COLOR_DEPTH == 32
 322:..\..\..\display\lvgl\lv_draw\../lv_misc/lv_color.h ****     return color.full;
 323:..\..\..\display\lvgl\lv_draw\../lv_misc/lv_color.h **** #endif
 324:..\..\..\display\lvgl\lv_draw\../lv_misc/lv_color.h **** }
 325:..\..\..\display\lvgl\lv_draw\../lv_misc/lv_color.h **** 
 326:..\..\..\display\lvgl\lv_draw\../lv_misc/lv_color.h **** static inline lv_color_t lv_color_mix(lv_color_t c1, lv_color_t c2, uint8_t mix)
 327:..\..\..\display\lvgl\lv_draw\../lv_misc/lv_color.h **** {
  28              		.loc 1 327 0
  29              		.cfi_startproc
  30              		@ args = 0, pretend = 0, frame = 24
  31              		@ frame_needed = 1, uses_anonymous_args = 0
  32              		@ link register save eliminated.
  33 0000 80B4     		push	{r7}
  34              		.cfi_def_cfa_offset 4
  35              		.cfi_offset 7, -4
  36 0002 87B0     		sub	sp, sp, #28
  37              		.cfi_def_cfa_offset 32
  38 0004 00AF     		add	r7, sp, #0
  39              		.cfi_def_cfa_register 7
  40 0006 F860     		str	r0, [r7, #12]
  41 0008 B960     		str	r1, [r7, #8]
  42 000a 1346     		mov	r3, r2
  43 000c FB71     		strb	r3, [r7, #7]
 328:..\..\..\display\lvgl\lv_draw\../lv_misc/lv_color.h ****     lv_color_t ret;
 329:..\..\..\display\lvgl\lv_draw\../lv_misc/lv_color.h **** #if LV_COLOR_DEPTH != 1
 330:..\..\..\display\lvgl\lv_draw\../lv_misc/lv_color.h ****     /*LV_COLOR_DEPTH == 8, 16 or 32*/
 331:..\..\..\display\lvgl\lv_draw\../lv_misc/lv_color.h ****     ret.red =   (uint16_t)((uint16_t) c1.red * mix + (c2.red * (255 - mix))) >> 8;
  44              		.loc 1 331 0
  45 000e BB7B     		ldrb	r3, [r7, #14]	@ zero_extendqisi2
  46 0010 9AB2     		uxth	r2, r3
  47 0012 FB79     		ldrb	r3, [r7, #7]	@ zero_extendqisi2
  48 0014 9BB2     		uxth	r3, r3
  49 0016 12FB03F3 		smulbb	r3, r2, r3
  50 001a 9AB2     		uxth	r2, r3
  51 001c BB7A     		ldrb	r3, [r7, #10]	@ zero_extendqisi2
  52 001e 99B2     		uxth	r1, r3
  53 0020 FB79     		ldrb	r3, [r7, #7]	@ zero_extendqisi2
  54 0022 C3F1FF03 		rsb	r3, r3, #255
  55 0026 9BB2     		uxth	r3, r3
  56 0028 11FB03F3 		smulbb	r3, r1, r3
  57 002c 9BB2     		uxth	r3, r3
  58 002e 1344     		add	r3, r3, r2
  59 0030 9BB2     		uxth	r3, r3
  60 0032 1B0A     		lsrs	r3, r3, #8
  61 0034 9BB2     		uxth	r3, r3
  62 0036 DBB2     		uxtb	r3, r3
  63 0038 BB75     		strb	r3, [r7, #22]
 332:..\..\..\display\lvgl\lv_draw\../lv_misc/lv_color.h **** #  if LV_COLOR_DEPTH == 16 && LV_COLOR_16_SWAP
 333:..\..\..\display\lvgl\lv_draw\../lv_misc/lv_color.h ****     /*If swapped Green is in 2 parts*/
 334:..\..\..\display\lvgl\lv_draw\../lv_misc/lv_color.h ****     uint16_t g_1 = (c1.green_h << 3) + c1.green_l;
 335:..\..\..\display\lvgl\lv_draw\../lv_misc/lv_color.h ****     uint16_t g_2 = (c2.green_h << 3) + c2.green_l;
 336:..\..\..\display\lvgl\lv_draw\../lv_misc/lv_color.h ****     uint16_t g_out = (uint16_t)((uint16_t) g_1 * mix + (g_2 * (255 - mix))) >> 8;
ARM GAS  C:\Users\pearlstl\AppData\Local\Temp\ccc6DM2e.s 			page 8


 337:..\..\..\display\lvgl\lv_draw\../lv_misc/lv_color.h ****     ret.green_h = g_out >> 3;
 338:..\..\..\display\lvgl\lv_draw\../lv_misc/lv_color.h ****     ret.green_l = g_out & 0x7;
 339:..\..\..\display\lvgl\lv_draw\../lv_misc/lv_color.h **** #  else
 340:..\..\..\display\lvgl\lv_draw\../lv_misc/lv_color.h ****     ret.green = (uint16_t)((uint16_t) c1.green * mix + (c2.green * (255 - mix))) >> 8;
  64              		.loc 1 340 0
  65 003a 7B7B     		ldrb	r3, [r7, #13]	@ zero_extendqisi2
  66 003c 9AB2     		uxth	r2, r3
  67 003e FB79     		ldrb	r3, [r7, #7]	@ zero_extendqisi2
  68 0040 9BB2     		uxth	r3, r3
  69 0042 12FB03F3 		smulbb	r3, r2, r3
  70 0046 9AB2     		uxth	r2, r3
  71 0048 7B7A     		ldrb	r3, [r7, #9]	@ zero_extendqisi2
  72 004a 99B2     		uxth	r1, r3
  73 004c FB79     		ldrb	r3, [r7, #7]	@ zero_extendqisi2
  74 004e C3F1FF03 		rsb	r3, r3, #255
  75 0052 9BB2     		uxth	r3, r3
  76 0054 11FB03F3 		smulbb	r3, r1, r3
  77 0058 9BB2     		uxth	r3, r3
  78 005a 1344     		add	r3, r3, r2
  79 005c 9BB2     		uxth	r3, r3
  80 005e 1B0A     		lsrs	r3, r3, #8
  81 0060 9BB2     		uxth	r3, r3
  82 0062 DBB2     		uxtb	r3, r3
  83 0064 7B75     		strb	r3, [r7, #21]
 341:..\..\..\display\lvgl\lv_draw\../lv_misc/lv_color.h **** #  endif
 342:..\..\..\display\lvgl\lv_draw\../lv_misc/lv_color.h ****     ret.blue =  (uint16_t)((uint16_t) c1.blue * mix + (c2.blue * (255 - mix))) >> 8;
  84              		.loc 1 342 0
  85 0066 3B7B     		ldrb	r3, [r7, #12]	@ zero_extendqisi2
  86 0068 9AB2     		uxth	r2, r3
  87 006a FB79     		ldrb	r3, [r7, #7]	@ zero_extendqisi2
  88 006c 9BB2     		uxth	r3, r3
  89 006e 12FB03F3 		smulbb	r3, r2, r3
  90 0072 9AB2     		uxth	r2, r3
  91 0074 3B7A     		ldrb	r3, [r7, #8]	@ zero_extendqisi2
  92 0076 99B2     		uxth	r1, r3
  93 0078 FB79     		ldrb	r3, [r7, #7]	@ zero_extendqisi2
  94 007a C3F1FF03 		rsb	r3, r3, #255
  95 007e 9BB2     		uxth	r3, r3
  96 0080 11FB03F3 		smulbb	r3, r1, r3
  97 0084 9BB2     		uxth	r3, r3
  98 0086 1344     		add	r3, r3, r2
  99 0088 9BB2     		uxth	r3, r3
 100 008a 1B0A     		lsrs	r3, r3, #8
 101 008c 9BB2     		uxth	r3, r3
 102 008e DBB2     		uxtb	r3, r3
 103 0090 3B75     		strb	r3, [r7, #20]
 343:..\..\..\display\lvgl\lv_draw\../lv_misc/lv_color.h **** # if LV_COLOR_DEPTH == 32
 344:..\..\..\display\lvgl\lv_draw\../lv_misc/lv_color.h ****     ret.alpha = 0xFF;
 104              		.loc 1 344 0
 105 0092 FF23     		movs	r3, #255
 106 0094 FB75     		strb	r3, [r7, #23]
 345:..\..\..\display\lvgl\lv_draw\../lv_misc/lv_color.h **** # endif
 346:..\..\..\display\lvgl\lv_draw\../lv_misc/lv_color.h **** #else
 347:..\..\..\display\lvgl\lv_draw\../lv_misc/lv_color.h ****     /*LV_COLOR_DEPTH == 1*/
 348:..\..\..\display\lvgl\lv_draw\../lv_misc/lv_color.h ****     ret.full = mix > LV_OPA_50 ? c1.full : c2.full;
 349:..\..\..\display\lvgl\lv_draw\../lv_misc/lv_color.h **** #endif
 350:..\..\..\display\lvgl\lv_draw\../lv_misc/lv_color.h **** 
ARM GAS  C:\Users\pearlstl\AppData\Local\Temp\ccc6DM2e.s 			page 9


 351:..\..\..\display\lvgl\lv_draw\../lv_misc/lv_color.h ****     return ret;
 107              		.loc 1 351 0
 108 0096 7B69     		ldr	r3, [r7, #20]
 352:..\..\..\display\lvgl\lv_draw\../lv_misc/lv_color.h **** }
 109              		.loc 1 352 0
 110 0098 1846     		mov	r0, r3
 111 009a 1C37     		adds	r7, r7, #28
 112              		.cfi_def_cfa_offset 4
 113 009c BD46     		mov	sp, r7
 114              		.cfi_def_cfa_register 13
 115              		@ sp needed
 116 009e 5DF8047B 		ldr	r7, [sp], #4
 117              		.cfi_restore 7
 118              		.cfi_def_cfa_offset 0
 119 00a2 7047     		bx	lr
 120              		.cfi_endproc
 121              	.LFE4:
 122              		.size	lv_color_mix, .-lv_color_mix
 123              		.section	.text.lv_area_get_width,"ax",%progbits
 124              		.align	2
 125              		.thumb
 126              		.thumb_func
 127              		.type	lv_area_get_width, %function
 128              	lv_area_get_width:
 129              	.LFB9:
 130              		.file 2 "..\\..\\..\\display\\lvgl\\lv_draw\\../lv_misc/lv_area.h"
   1:..\..\..\display\lvgl\lv_draw\../lv_misc/lv_area.h **** /**
   2:..\..\..\display\lvgl\lv_draw\../lv_misc/lv_area.h ****  * @file lv_area.h
   3:..\..\..\display\lvgl\lv_draw\../lv_misc/lv_area.h ****  *
   4:..\..\..\display\lvgl\lv_draw\../lv_misc/lv_area.h ****  */
   5:..\..\..\display\lvgl\lv_draw\../lv_misc/lv_area.h **** 
   6:..\..\..\display\lvgl\lv_draw\../lv_misc/lv_area.h **** #ifndef LV_AREA_H
   7:..\..\..\display\lvgl\lv_draw\../lv_misc/lv_area.h **** #define LV_AREA_H
   8:..\..\..\display\lvgl\lv_draw\../lv_misc/lv_area.h **** 
   9:..\..\..\display\lvgl\lv_draw\../lv_misc/lv_area.h **** #ifdef __cplusplus
  10:..\..\..\display\lvgl\lv_draw\../lv_misc/lv_area.h **** extern "C" {
  11:..\..\..\display\lvgl\lv_draw\../lv_misc/lv_area.h **** #endif
  12:..\..\..\display\lvgl\lv_draw\../lv_misc/lv_area.h **** 
  13:..\..\..\display\lvgl\lv_draw\../lv_misc/lv_area.h **** 
  14:..\..\..\display\lvgl\lv_draw\../lv_misc/lv_area.h **** /*********************
  15:..\..\..\display\lvgl\lv_draw\../lv_misc/lv_area.h ****  *      INCLUDES
  16:..\..\..\display\lvgl\lv_draw\../lv_misc/lv_area.h ****  *********************/
  17:..\..\..\display\lvgl\lv_draw\../lv_misc/lv_area.h **** #include <string.h>
  18:..\..\..\display\lvgl\lv_draw\../lv_misc/lv_area.h **** #include <stdbool.h>
  19:..\..\..\display\lvgl\lv_draw\../lv_misc/lv_area.h **** #include <stdint.h>
  20:..\..\..\display\lvgl\lv_draw\../lv_misc/lv_area.h **** 
  21:..\..\..\display\lvgl\lv_draw\../lv_misc/lv_area.h **** /*********************
  22:..\..\..\display\lvgl\lv_draw\../lv_misc/lv_area.h ****  *      DEFINES
  23:..\..\..\display\lvgl\lv_draw\../lv_misc/lv_area.h ****  *********************/
  24:..\..\..\display\lvgl\lv_draw\../lv_misc/lv_area.h **** #define LV_COORD_MAX     (16383)    /*To avoid overflow don't let the max [-32,32k] range */
  25:..\..\..\display\lvgl\lv_draw\../lv_misc/lv_area.h **** #define LV_COORD_MIN     (-16384)
  26:..\..\..\display\lvgl\lv_draw\../lv_misc/lv_area.h **** 
  27:..\..\..\display\lvgl\lv_draw\../lv_misc/lv_area.h **** /**********************
  28:..\..\..\display\lvgl\lv_draw\../lv_misc/lv_area.h ****  *      TYPEDEFS
  29:..\..\..\display\lvgl\lv_draw\../lv_misc/lv_area.h ****  **********************/
  30:..\..\..\display\lvgl\lv_draw\../lv_misc/lv_area.h **** typedef int16_t lv_coord_t;
  31:..\..\..\display\lvgl\lv_draw\../lv_misc/lv_area.h **** 
ARM GAS  C:\Users\pearlstl\AppData\Local\Temp\ccc6DM2e.s 			page 10


  32:..\..\..\display\lvgl\lv_draw\../lv_misc/lv_area.h **** typedef struct
  33:..\..\..\display\lvgl\lv_draw\../lv_misc/lv_area.h **** {
  34:..\..\..\display\lvgl\lv_draw\../lv_misc/lv_area.h ****     lv_coord_t x;
  35:..\..\..\display\lvgl\lv_draw\../lv_misc/lv_area.h ****     lv_coord_t y;
  36:..\..\..\display\lvgl\lv_draw\../lv_misc/lv_area.h **** } lv_point_t;
  37:..\..\..\display\lvgl\lv_draw\../lv_misc/lv_area.h **** 
  38:..\..\..\display\lvgl\lv_draw\../lv_misc/lv_area.h **** typedef struct
  39:..\..\..\display\lvgl\lv_draw\../lv_misc/lv_area.h **** {
  40:..\..\..\display\lvgl\lv_draw\../lv_misc/lv_area.h ****     lv_coord_t x1;
  41:..\..\..\display\lvgl\lv_draw\../lv_misc/lv_area.h ****     lv_coord_t y1;
  42:..\..\..\display\lvgl\lv_draw\../lv_misc/lv_area.h ****     lv_coord_t x2;
  43:..\..\..\display\lvgl\lv_draw\../lv_misc/lv_area.h ****     lv_coord_t y2;
  44:..\..\..\display\lvgl\lv_draw\../lv_misc/lv_area.h **** } lv_area_t;
  45:..\..\..\display\lvgl\lv_draw\../lv_misc/lv_area.h **** 
  46:..\..\..\display\lvgl\lv_draw\../lv_misc/lv_area.h **** /**********************
  47:..\..\..\display\lvgl\lv_draw\../lv_misc/lv_area.h ****  * GLOBAL PROTOTYPES
  48:..\..\..\display\lvgl\lv_draw\../lv_misc/lv_area.h ****  **********************/
  49:..\..\..\display\lvgl\lv_draw\../lv_misc/lv_area.h **** 
  50:..\..\..\display\lvgl\lv_draw\../lv_misc/lv_area.h **** /**
  51:..\..\..\display\lvgl\lv_draw\../lv_misc/lv_area.h ****  * Initialize an area
  52:..\..\..\display\lvgl\lv_draw\../lv_misc/lv_area.h ****  * @param area_p pointer to an area
  53:..\..\..\display\lvgl\lv_draw\../lv_misc/lv_area.h ****  * @param x1 left coordinate of the area
  54:..\..\..\display\lvgl\lv_draw\../lv_misc/lv_area.h ****  * @param y1 top coordinate of the area
  55:..\..\..\display\lvgl\lv_draw\../lv_misc/lv_area.h ****  * @param x2 right coordinate of the area
  56:..\..\..\display\lvgl\lv_draw\../lv_misc/lv_area.h ****  * @param y2 bottom coordinate of the area
  57:..\..\..\display\lvgl\lv_draw\../lv_misc/lv_area.h ****  */
  58:..\..\..\display\lvgl\lv_draw\../lv_misc/lv_area.h **** void lv_area_set(lv_area_t * area_p, lv_coord_t x1, lv_coord_t y1, lv_coord_t x2, lv_coord_t y2);
  59:..\..\..\display\lvgl\lv_draw\../lv_misc/lv_area.h **** 
  60:..\..\..\display\lvgl\lv_draw\../lv_misc/lv_area.h **** /**
  61:..\..\..\display\lvgl\lv_draw\../lv_misc/lv_area.h ****  * Copy an area
  62:..\..\..\display\lvgl\lv_draw\../lv_misc/lv_area.h ****  * @param dest pointer to the destination area
  63:..\..\..\display\lvgl\lv_draw\../lv_misc/lv_area.h ****  * @param src pointer to the source area
  64:..\..\..\display\lvgl\lv_draw\../lv_misc/lv_area.h ****  */
  65:..\..\..\display\lvgl\lv_draw\../lv_misc/lv_area.h **** inline static void lv_area_copy(lv_area_t * dest, const lv_area_t * src)
  66:..\..\..\display\lvgl\lv_draw\../lv_misc/lv_area.h **** {
  67:..\..\..\display\lvgl\lv_draw\../lv_misc/lv_area.h ****     memcpy(dest, src, sizeof(lv_area_t));
  68:..\..\..\display\lvgl\lv_draw\../lv_misc/lv_area.h **** }
  69:..\..\..\display\lvgl\lv_draw\../lv_misc/lv_area.h **** 
  70:..\..\..\display\lvgl\lv_draw\../lv_misc/lv_area.h **** /**
  71:..\..\..\display\lvgl\lv_draw\../lv_misc/lv_area.h ****  * Get the width of an area
  72:..\..\..\display\lvgl\lv_draw\../lv_misc/lv_area.h ****  * @param area_p pointer to an area
  73:..\..\..\display\lvgl\lv_draw\../lv_misc/lv_area.h ****  * @return the width of the area (if x1 == x2 -> width = 1)
  74:..\..\..\display\lvgl\lv_draw\../lv_misc/lv_area.h ****  */
  75:..\..\..\display\lvgl\lv_draw\../lv_misc/lv_area.h **** static inline lv_coord_t lv_area_get_width(const lv_area_t * area_p)
  76:..\..\..\display\lvgl\lv_draw\../lv_misc/lv_area.h **** {
 131              		.loc 2 76 0
 132              		.cfi_startproc
 133              		@ args = 0, pretend = 0, frame = 8
 134              		@ frame_needed = 1, uses_anonymous_args = 0
 135              		@ link register save eliminated.
 136 0000 80B4     		push	{r7}
 137              		.cfi_def_cfa_offset 4
 138              		.cfi_offset 7, -4
 139 0002 83B0     		sub	sp, sp, #12
 140              		.cfi_def_cfa_offset 16
 141 0004 00AF     		add	r7, sp, #0
 142              		.cfi_def_cfa_register 7
ARM GAS  C:\Users\pearlstl\AppData\Local\Temp\ccc6DM2e.s 			page 11


 143 0006 7860     		str	r0, [r7, #4]
  77:..\..\..\display\lvgl\lv_draw\../lv_misc/lv_area.h ****     return area_p->x2 - area_p->x1 + 1;
 144              		.loc 2 77 0
 145 0008 7B68     		ldr	r3, [r7, #4]
 146 000a B3F90430 		ldrsh	r3, [r3, #4]
 147 000e 9AB2     		uxth	r2, r3
 148 0010 7B68     		ldr	r3, [r7, #4]
 149 0012 B3F90030 		ldrsh	r3, [r3]
 150 0016 9BB2     		uxth	r3, r3
 151 0018 D31A     		subs	r3, r2, r3
 152 001a 9BB2     		uxth	r3, r3
 153 001c 0133     		adds	r3, r3, #1
 154 001e 9BB2     		uxth	r3, r3
 155 0020 1BB2     		sxth	r3, r3
  78:..\..\..\display\lvgl\lv_draw\../lv_misc/lv_area.h **** }
 156              		.loc 2 78 0
 157 0022 1846     		mov	r0, r3
 158 0024 0C37     		adds	r7, r7, #12
 159              		.cfi_def_cfa_offset 4
 160 0026 BD46     		mov	sp, r7
 161              		.cfi_def_cfa_register 13
 162              		@ sp needed
 163 0028 5DF8047B 		ldr	r7, [sp], #4
 164              		.cfi_restore 7
 165              		.cfi_def_cfa_offset 0
 166 002c 7047     		bx	lr
 167              		.cfi_endproc
 168              	.LFE9:
 169              		.size	lv_area_get_width, .-lv_area_get_width
 170 002e 00BF     		.section	.text.lv_font_get_height,"ax",%progbits
 171              		.align	2
 172              		.thumb
 173              		.thumb_func
 174              		.type	lv_font_get_height, %function
 175              	lv_font_get_height:
 176              	.LFB11:
 177              		.file 3 "..\\..\\..\\display\\lvgl\\lv_draw\\../lv_misc/lv_font.h"
   1:..\..\..\display\lvgl\lv_draw\../lv_misc/lv_font.h **** /**
   2:..\..\..\display\lvgl\lv_draw\../lv_misc/lv_font.h ****  * @file lv_font.h
   3:..\..\..\display\lvgl\lv_draw\../lv_misc/lv_font.h ****  *
   4:..\..\..\display\lvgl\lv_draw\../lv_misc/lv_font.h ****  */
   5:..\..\..\display\lvgl\lv_draw\../lv_misc/lv_font.h **** 
   6:..\..\..\display\lvgl\lv_draw\../lv_misc/lv_font.h **** #ifndef LV_FONT_H
   7:..\..\..\display\lvgl\lv_draw\../lv_misc/lv_font.h **** #define LV_FONT_H
   8:..\..\..\display\lvgl\lv_draw\../lv_misc/lv_font.h **** 
   9:..\..\..\display\lvgl\lv_draw\../lv_misc/lv_font.h **** #ifdef __cplusplus
  10:..\..\..\display\lvgl\lv_draw\../lv_misc/lv_font.h **** extern "C" {
  11:..\..\..\display\lvgl\lv_draw\../lv_misc/lv_font.h **** #endif
  12:..\..\..\display\lvgl\lv_draw\../lv_misc/lv_font.h **** 
  13:..\..\..\display\lvgl\lv_draw\../lv_misc/lv_font.h **** 
  14:..\..\..\display\lvgl\lv_draw\../lv_misc/lv_font.h **** /*********************
  15:..\..\..\display\lvgl\lv_draw\../lv_misc/lv_font.h ****  *      INCLUDES
  16:..\..\..\display\lvgl\lv_draw\../lv_misc/lv_font.h ****  *********************/
  17:..\..\..\display\lvgl\lv_draw\../lv_misc/lv_font.h **** #ifdef LV_CONF_INCLUDE_SIMPLE
  18:..\..\..\display\lvgl\lv_draw\../lv_misc/lv_font.h **** #include "lv_conf.h"
  19:..\..\..\display\lvgl\lv_draw\../lv_misc/lv_font.h **** #else
  20:..\..\..\display\lvgl\lv_draw\../lv_misc/lv_font.h **** #include "../../lv_conf.h"
ARM GAS  C:\Users\pearlstl\AppData\Local\Temp\ccc6DM2e.s 			page 12


  21:..\..\..\display\lvgl\lv_draw\../lv_misc/lv_font.h **** #endif
  22:..\..\..\display\lvgl\lv_draw\../lv_misc/lv_font.h **** 
  23:..\..\..\display\lvgl\lv_draw\../lv_misc/lv_font.h **** #include <stdint.h>
  24:..\..\..\display\lvgl\lv_draw\../lv_misc/lv_font.h **** #include <stddef.h>
  25:..\..\..\display\lvgl\lv_draw\../lv_misc/lv_font.h **** #include <stdbool.h>
  26:..\..\..\display\lvgl\lv_draw\../lv_misc/lv_font.h **** 
  27:..\..\..\display\lvgl\lv_draw\../lv_misc/lv_font.h **** #include "lv_symbol_def.h"
  28:..\..\..\display\lvgl\lv_draw\../lv_misc/lv_font.h **** 
  29:..\..\..\display\lvgl\lv_draw\../lv_misc/lv_font.h **** /*********************
  30:..\..\..\display\lvgl\lv_draw\../lv_misc/lv_font.h ****  *      DEFINES
  31:..\..\..\display\lvgl\lv_draw\../lv_misc/lv_font.h ****  *********************/
  32:..\..\..\display\lvgl\lv_draw\../lv_misc/lv_font.h **** 
  33:..\..\..\display\lvgl\lv_draw\../lv_misc/lv_font.h **** /**********************
  34:..\..\..\display\lvgl\lv_draw\../lv_misc/lv_font.h ****  *      TYPEDEFS
  35:..\..\..\display\lvgl\lv_draw\../lv_misc/lv_font.h ****  **********************/
  36:..\..\..\display\lvgl\lv_draw\../lv_misc/lv_font.h **** 
  37:..\..\..\display\lvgl\lv_draw\../lv_misc/lv_font.h **** typedef struct
  38:..\..\..\display\lvgl\lv_draw\../lv_misc/lv_font.h **** {
  39:..\..\..\display\lvgl\lv_draw\../lv_misc/lv_font.h ****     uint32_t w_px         :8;
  40:..\..\..\display\lvgl\lv_draw\../lv_misc/lv_font.h ****     uint32_t glyph_index  :24;
  41:..\..\..\display\lvgl\lv_draw\../lv_misc/lv_font.h **** } lv_font_glyph_dsc_t;
  42:..\..\..\display\lvgl\lv_draw\../lv_misc/lv_font.h **** 
  43:..\..\..\display\lvgl\lv_draw\../lv_misc/lv_font.h **** typedef struct
  44:..\..\..\display\lvgl\lv_draw\../lv_misc/lv_font.h **** {
  45:..\..\..\display\lvgl\lv_draw\../lv_misc/lv_font.h ****     uint32_t unicode         :21;
  46:..\..\..\display\lvgl\lv_draw\../lv_misc/lv_font.h ****     uint32_t glyph_dsc_index :11;
  47:..\..\..\display\lvgl\lv_draw\../lv_misc/lv_font.h **** } lv_font_unicode_map_t;
  48:..\..\..\display\lvgl\lv_draw\../lv_misc/lv_font.h **** 
  49:..\..\..\display\lvgl\lv_draw\../lv_misc/lv_font.h **** typedef struct _lv_font_struct
  50:..\..\..\display\lvgl\lv_draw\../lv_misc/lv_font.h **** {
  51:..\..\..\display\lvgl\lv_draw\../lv_misc/lv_font.h ****     uint32_t unicode_first;
  52:..\..\..\display\lvgl\lv_draw\../lv_misc/lv_font.h ****     uint32_t unicode_last;
  53:..\..\..\display\lvgl\lv_draw\../lv_misc/lv_font.h ****     const uint8_t * glyph_bitmap;
  54:..\..\..\display\lvgl\lv_draw\../lv_misc/lv_font.h ****     const lv_font_glyph_dsc_t * glyph_dsc;
  55:..\..\..\display\lvgl\lv_draw\../lv_misc/lv_font.h ****     const uint32_t * unicode_list;
  56:..\..\..\display\lvgl\lv_draw\../lv_misc/lv_font.h ****     const uint8_t * (*get_bitmap)(const struct _lv_font_struct *,uint32_t);     /*Get a glyph's  bi
  57:..\..\..\display\lvgl\lv_draw\../lv_misc/lv_font.h ****     int16_t (*get_width)(const struct _lv_font_struct *,uint32_t);        /*Get a glyph's with with
  58:..\..\..\display\lvgl\lv_draw\../lv_misc/lv_font.h ****     struct _lv_font_struct * next_page;    /*Pointer to a font extension*/
  59:..\..\..\display\lvgl\lv_draw\../lv_misc/lv_font.h ****     uint32_t h_px       :8;
  60:..\..\..\display\lvgl\lv_draw\../lv_misc/lv_font.h ****     uint32_t bpp        :4;                /*Bit per pixel: 1, 2 or 4*/
  61:..\..\..\display\lvgl\lv_draw\../lv_misc/lv_font.h ****     uint32_t monospace  :8;                /*Fix width (0: normal width)*/
  62:..\..\..\display\lvgl\lv_draw\../lv_misc/lv_font.h ****     uint16_t glyph_cnt;                    /*Number of glyphs (letters) in the font*/
  63:..\..\..\display\lvgl\lv_draw\../lv_misc/lv_font.h **** } lv_font_t;
  64:..\..\..\display\lvgl\lv_draw\../lv_misc/lv_font.h **** 
  65:..\..\..\display\lvgl\lv_draw\../lv_misc/lv_font.h **** /**********************
  66:..\..\..\display\lvgl\lv_draw\../lv_misc/lv_font.h ****  * GLOBAL PROTOTYPES
  67:..\..\..\display\lvgl\lv_draw\../lv_misc/lv_font.h ****  **********************/
  68:..\..\..\display\lvgl\lv_draw\../lv_misc/lv_font.h **** 
  69:..\..\..\display\lvgl\lv_draw\../lv_misc/lv_font.h **** /**
  70:..\..\..\display\lvgl\lv_draw\../lv_misc/lv_font.h ****  * Initialize the fonts
  71:..\..\..\display\lvgl\lv_draw\../lv_misc/lv_font.h ****  */
  72:..\..\..\display\lvgl\lv_draw\../lv_misc/lv_font.h **** void lv_font_init(void);
  73:..\..\..\display\lvgl\lv_draw\../lv_misc/lv_font.h **** 
  74:..\..\..\display\lvgl\lv_draw\../lv_misc/lv_font.h **** /**
  75:..\..\..\display\lvgl\lv_draw\../lv_misc/lv_font.h ****  * Add a font to an other to extend the character set.
  76:..\..\..\display\lvgl\lv_draw\../lv_misc/lv_font.h ****  * @param child the font to add
  77:..\..\..\display\lvgl\lv_draw\../lv_misc/lv_font.h ****  * @param parent this font will be extended. Using it later will contain the characters from `child
ARM GAS  C:\Users\pearlstl\AppData\Local\Temp\ccc6DM2e.s 			page 13


  78:..\..\..\display\lvgl\lv_draw\../lv_misc/lv_font.h ****  */
  79:..\..\..\display\lvgl\lv_draw\../lv_misc/lv_font.h **** void lv_font_add(lv_font_t *child, lv_font_t *parent);
  80:..\..\..\display\lvgl\lv_draw\../lv_misc/lv_font.h **** 
  81:..\..\..\display\lvgl\lv_draw\../lv_misc/lv_font.h **** /**
  82:..\..\..\display\lvgl\lv_draw\../lv_misc/lv_font.h ****  * Remove a font from a character set.
  83:..\..\..\display\lvgl\lv_draw\../lv_misc/lv_font.h ****  * @param child the font to remove
  84:..\..\..\display\lvgl\lv_draw\../lv_misc/lv_font.h ****  * @param parent remove `child` from here
  85:..\..\..\display\lvgl\lv_draw\../lv_misc/lv_font.h ****  */
  86:..\..\..\display\lvgl\lv_draw\../lv_misc/lv_font.h **** void lv_font_remove(lv_font_t * child, lv_font_t * parent);
  87:..\..\..\display\lvgl\lv_draw\../lv_misc/lv_font.h **** 
  88:..\..\..\display\lvgl\lv_draw\../lv_misc/lv_font.h **** /**
  89:..\..\..\display\lvgl\lv_draw\../lv_misc/lv_font.h ****  * Tells if font which contains `letter` is monospace or not
  90:..\..\..\display\lvgl\lv_draw\../lv_misc/lv_font.h ****  * @param font_p point to font
  91:..\..\..\display\lvgl\lv_draw\../lv_misc/lv_font.h ****  * @param letter an UNICODE character code
  92:..\..\..\display\lvgl\lv_draw\../lv_misc/lv_font.h ****  * @return true: the letter is monospace; false not monospace
  93:..\..\..\display\lvgl\lv_draw\../lv_misc/lv_font.h ****  */
  94:..\..\..\display\lvgl\lv_draw\../lv_misc/lv_font.h **** bool lv_font_is_monospace(const lv_font_t * font_p, uint32_t letter);
  95:..\..\..\display\lvgl\lv_draw\../lv_misc/lv_font.h **** 
  96:..\..\..\display\lvgl\lv_draw\../lv_misc/lv_font.h **** /**
  97:..\..\..\display\lvgl\lv_draw\../lv_misc/lv_font.h ****  * Return with the bitmap of a font.
  98:..\..\..\display\lvgl\lv_draw\../lv_misc/lv_font.h ****  * @param font_p pointer to a font
  99:..\..\..\display\lvgl\lv_draw\../lv_misc/lv_font.h ****  * @param letter an UNICODE character code
 100:..\..\..\display\lvgl\lv_draw\../lv_misc/lv_font.h ****  * @return  pointer to the bitmap of the letter
 101:..\..\..\display\lvgl\lv_draw\../lv_misc/lv_font.h ****  */
 102:..\..\..\display\lvgl\lv_draw\../lv_misc/lv_font.h **** const uint8_t * lv_font_get_bitmap(const lv_font_t * font_p, uint32_t letter);
 103:..\..\..\display\lvgl\lv_draw\../lv_misc/lv_font.h **** 
 104:..\..\..\display\lvgl\lv_draw\../lv_misc/lv_font.h **** /**
 105:..\..\..\display\lvgl\lv_draw\../lv_misc/lv_font.h ****  * Get the width of a letter in a font. If `monospace` is set then return with it.
 106:..\..\..\display\lvgl\lv_draw\../lv_misc/lv_font.h ****  * @param font_p pointer to a font
 107:..\..\..\display\lvgl\lv_draw\../lv_misc/lv_font.h ****  * @param letter an UNICODE character code
 108:..\..\..\display\lvgl\lv_draw\../lv_misc/lv_font.h ****  * @return the width of a letter
 109:..\..\..\display\lvgl\lv_draw\../lv_misc/lv_font.h ****  */
 110:..\..\..\display\lvgl\lv_draw\../lv_misc/lv_font.h **** uint8_t lv_font_get_width(const lv_font_t * font_p, uint32_t letter);
 111:..\..\..\display\lvgl\lv_draw\../lv_misc/lv_font.h **** 
 112:..\..\..\display\lvgl\lv_draw\../lv_misc/lv_font.h **** 
 113:..\..\..\display\lvgl\lv_draw\../lv_misc/lv_font.h **** /**
 114:..\..\..\display\lvgl\lv_draw\../lv_misc/lv_font.h ****  * Get the width of the letter without overwriting it with the `monospace` attribute
 115:..\..\..\display\lvgl\lv_draw\../lv_misc/lv_font.h ****  * @param font_p pointer to a font
 116:..\..\..\display\lvgl\lv_draw\../lv_misc/lv_font.h ****  * @param letter an UNICODE character code
 117:..\..\..\display\lvgl\lv_draw\../lv_misc/lv_font.h ****  * @return the width of a letter
 118:..\..\..\display\lvgl\lv_draw\../lv_misc/lv_font.h ****  */
 119:..\..\..\display\lvgl\lv_draw\../lv_misc/lv_font.h **** uint8_t lv_font_get_real_width(const lv_font_t * font_p, uint32_t letter);
 120:..\..\..\display\lvgl\lv_draw\../lv_misc/lv_font.h **** 
 121:..\..\..\display\lvgl\lv_draw\../lv_misc/lv_font.h **** /**
 122:..\..\..\display\lvgl\lv_draw\../lv_misc/lv_font.h ****  * Get the height of a font
 123:..\..\..\display\lvgl\lv_draw\../lv_misc/lv_font.h ****  * @param font_p pointer to a font
 124:..\..\..\display\lvgl\lv_draw\../lv_misc/lv_font.h ****  * @return the height of a font
 125:..\..\..\display\lvgl\lv_draw\../lv_misc/lv_font.h ****  */
 126:..\..\..\display\lvgl\lv_draw\../lv_misc/lv_font.h **** static inline uint8_t lv_font_get_height(const lv_font_t * font_p)
 127:..\..\..\display\lvgl\lv_draw\../lv_misc/lv_font.h **** {
 178              		.loc 3 127 0
 179              		.cfi_startproc
 180              		@ args = 0, pretend = 0, frame = 8
 181              		@ frame_needed = 1, uses_anonymous_args = 0
 182              		@ link register save eliminated.
 183 0000 80B4     		push	{r7}
 184              		.cfi_def_cfa_offset 4
ARM GAS  C:\Users\pearlstl\AppData\Local\Temp\ccc6DM2e.s 			page 14


 185              		.cfi_offset 7, -4
 186 0002 83B0     		sub	sp, sp, #12
 187              		.cfi_def_cfa_offset 16
 188 0004 00AF     		add	r7, sp, #0
 189              		.cfi_def_cfa_register 7
 190 0006 7860     		str	r0, [r7, #4]
 128:..\..\..\display\lvgl\lv_draw\../lv_misc/lv_font.h ****     return font_p->h_px;
 191              		.loc 3 128 0
 192 0008 7B68     		ldr	r3, [r7, #4]
 193 000a 93F82030 		ldrb	r3, [r3, #32]	@ zero_extendqisi2
 129:..\..\..\display\lvgl\lv_draw\../lv_misc/lv_font.h **** }
 194              		.loc 3 129 0
 195 000e 1846     		mov	r0, r3
 196 0010 0C37     		adds	r7, r7, #12
 197              		.cfi_def_cfa_offset 4
 198 0012 BD46     		mov	sp, r7
 199              		.cfi_def_cfa_register 13
 200              		@ sp needed
 201 0014 5DF8047B 		ldr	r7, [sp], #4
 202              		.cfi_restore 7
 203              		.cfi_def_cfa_offset 0
 204 0018 7047     		bx	lr
 205              		.cfi_endproc
 206              	.LFE11:
 207              		.size	lv_font_get_height, .-lv_font_get_height
 208 001a 00BF     		.bss
 209              		.align	2
 210              	letter_bg_color:
 211 0000 00000000 		.space	4
 212              		.section	.text.lv_rpx,"ax",%progbits
 213              		.align	2
 214              		.global	lv_rpx
 215              		.thumb
 216              		.thumb_func
 217              		.type	lv_rpx, %function
 218              	lv_rpx:
 219              	.LFB12:
 220              		.file 4 "..\\..\\..\\display\\lvgl\\lv_draw\\lv_draw_rbasic.c"
   1:..\..\..\display\lvgl\lv_draw/lv_draw_rbasic.c **** /**
   2:..\..\..\display\lvgl\lv_draw/lv_draw_rbasic.c ****  * @file lv_draw_rbasic.c
   3:..\..\..\display\lvgl\lv_draw/lv_draw_rbasic.c ****  *
   4:..\..\..\display\lvgl\lv_draw/lv_draw_rbasic.c ****  */
   5:..\..\..\display\lvgl\lv_draw/lv_draw_rbasic.c **** 
   6:..\..\..\display\lvgl\lv_draw/lv_draw_rbasic.c **** /*********************
   7:..\..\..\display\lvgl\lv_draw/lv_draw_rbasic.c ****  *      INCLUDES
   8:..\..\..\display\lvgl\lv_draw/lv_draw_rbasic.c ****  *********************/
   9:..\..\..\display\lvgl\lv_draw/lv_draw_rbasic.c **** #include "lv_draw_rbasic.h"
  10:..\..\..\display\lvgl\lv_draw/lv_draw_rbasic.c **** #if USE_LV_REAL_DRAW != 0
  11:..\..\..\display\lvgl\lv_draw/lv_draw_rbasic.c **** 
  12:..\..\..\display\lvgl\lv_draw/lv_draw_rbasic.c **** #include "../lv_hal/lv_hal_disp.h"
  13:..\..\..\display\lvgl\lv_draw/lv_draw_rbasic.c **** #include "../lv_misc/lv_font.h"
  14:..\..\..\display\lvgl\lv_draw/lv_draw_rbasic.c **** #include "lv_draw.h"
  15:..\..\..\display\lvgl\lv_draw/lv_draw_rbasic.c **** 
  16:..\..\..\display\lvgl\lv_draw/lv_draw_rbasic.c **** /*********************
  17:..\..\..\display\lvgl\lv_draw/lv_draw_rbasic.c ****  *      DEFINES
  18:..\..\..\display\lvgl\lv_draw/lv_draw_rbasic.c ****  *********************/
  19:..\..\..\display\lvgl\lv_draw/lv_draw_rbasic.c **** 
ARM GAS  C:\Users\pearlstl\AppData\Local\Temp\ccc6DM2e.s 			page 15


  20:..\..\..\display\lvgl\lv_draw/lv_draw_rbasic.c **** /**********************
  21:..\..\..\display\lvgl\lv_draw/lv_draw_rbasic.c ****  *      TYPEDEFS
  22:..\..\..\display\lvgl\lv_draw/lv_draw_rbasic.c ****  **********************/
  23:..\..\..\display\lvgl\lv_draw/lv_draw_rbasic.c **** 
  24:..\..\..\display\lvgl\lv_draw/lv_draw_rbasic.c **** /**********************
  25:..\..\..\display\lvgl\lv_draw/lv_draw_rbasic.c ****  *  STATIC PROTOTYPES
  26:..\..\..\display\lvgl\lv_draw/lv_draw_rbasic.c ****  **********************/
  27:..\..\..\display\lvgl\lv_draw/lv_draw_rbasic.c **** 
  28:..\..\..\display\lvgl\lv_draw/lv_draw_rbasic.c **** /**********************
  29:..\..\..\display\lvgl\lv_draw/lv_draw_rbasic.c ****  *  STATIC VARIABLES
  30:..\..\..\display\lvgl\lv_draw/lv_draw_rbasic.c ****  **********************/
  31:..\..\..\display\lvgl\lv_draw/lv_draw_rbasic.c **** static lv_color_t letter_bg_color;
  32:..\..\..\display\lvgl\lv_draw/lv_draw_rbasic.c **** 
  33:..\..\..\display\lvgl\lv_draw/lv_draw_rbasic.c **** /**********************
  34:..\..\..\display\lvgl\lv_draw/lv_draw_rbasic.c ****  *      MACROS
  35:..\..\..\display\lvgl\lv_draw/lv_draw_rbasic.c ****  **********************/
  36:..\..\..\display\lvgl\lv_draw/lv_draw_rbasic.c **** 
  37:..\..\..\display\lvgl\lv_draw/lv_draw_rbasic.c **** /**********************
  38:..\..\..\display\lvgl\lv_draw/lv_draw_rbasic.c ****  *   GLOBAL FUNCTIONS
  39:..\..\..\display\lvgl\lv_draw/lv_draw_rbasic.c ****  **********************/
  40:..\..\..\display\lvgl\lv_draw/lv_draw_rbasic.c **** 
  41:..\..\..\display\lvgl\lv_draw/lv_draw_rbasic.c **** /**
  42:..\..\..\display\lvgl\lv_draw/lv_draw_rbasic.c ****  * Put a pixel to the display
  43:..\..\..\display\lvgl\lv_draw/lv_draw_rbasic.c ****  * @param x x coordinate of the pixel
  44:..\..\..\display\lvgl\lv_draw/lv_draw_rbasic.c ****  * @param y y coordinate of the pixel
  45:..\..\..\display\lvgl\lv_draw/lv_draw_rbasic.c ****  * @param mask_p the pixel will be drawn on this area
  46:..\..\..\display\lvgl\lv_draw/lv_draw_rbasic.c ****  * @param color color of the pixel
  47:..\..\..\display\lvgl\lv_draw/lv_draw_rbasic.c ****  * @param opa opacity (ignored, only for compatibility with lv_vpx)
  48:..\..\..\display\lvgl\lv_draw/lv_draw_rbasic.c ****  */
  49:..\..\..\display\lvgl\lv_draw/lv_draw_rbasic.c **** void lv_rpx(lv_coord_t x, lv_coord_t y, const lv_area_t * mask_p, lv_color_t color, lv_opa_t opa)
  50:..\..\..\display\lvgl\lv_draw/lv_draw_rbasic.c **** {
 221              		.loc 4 50 0
 222              		.cfi_startproc
 223              		@ args = 4, pretend = 0, frame = 24
 224              		@ frame_needed = 1, uses_anonymous_args = 0
 225 0000 80B5     		push	{r7, lr}
 226              		.cfi_def_cfa_offset 8
 227              		.cfi_offset 7, -8
 228              		.cfi_offset 14, -4
 229 0002 86B0     		sub	sp, sp, #24
 230              		.cfi_def_cfa_offset 32
 231 0004 00AF     		add	r7, sp, #0
 232              		.cfi_def_cfa_register 7
 233 0006 BA60     		str	r2, [r7, #8]
 234 0008 7B60     		str	r3, [r7, #4]
 235 000a 0346     		mov	r3, r0	@ movhi
 236 000c FB81     		strh	r3, [r7, #14]	@ movhi
 237 000e 0B46     		mov	r3, r1	@ movhi
 238 0010 BB81     		strh	r3, [r7, #12]	@ movhi
  51:..\..\..\display\lvgl\lv_draw/lv_draw_rbasic.c ****     (void)opa;      /*Opa is used only for compatibility with lv_vpx*/
  52:..\..\..\display\lvgl\lv_draw/lv_draw_rbasic.c **** 
  53:..\..\..\display\lvgl\lv_draw/lv_draw_rbasic.c ****     lv_area_t area;
  54:..\..\..\display\lvgl\lv_draw/lv_draw_rbasic.c ****     area.x1 = x;
 239              		.loc 4 54 0
 240 0012 FB89     		ldrh	r3, [r7, #14]	@ movhi
 241 0014 3B82     		strh	r3, [r7, #16]	@ movhi
  55:..\..\..\display\lvgl\lv_draw/lv_draw_rbasic.c ****     area.y1 = y;
ARM GAS  C:\Users\pearlstl\AppData\Local\Temp\ccc6DM2e.s 			page 16


 242              		.loc 4 55 0
 243 0016 BB89     		ldrh	r3, [r7, #12]	@ movhi
 244 0018 7B82     		strh	r3, [r7, #18]	@ movhi
  56:..\..\..\display\lvgl\lv_draw/lv_draw_rbasic.c ****     area.x2 = x;
 245              		.loc 4 56 0
 246 001a FB89     		ldrh	r3, [r7, #14]	@ movhi
 247 001c BB82     		strh	r3, [r7, #20]	@ movhi
  57:..\..\..\display\lvgl\lv_draw/lv_draw_rbasic.c ****     area.y2 = y;
 248              		.loc 4 57 0
 249 001e BB89     		ldrh	r3, [r7, #12]	@ movhi
 250 0020 FB82     		strh	r3, [r7, #22]	@ movhi
  58:..\..\..\display\lvgl\lv_draw/lv_draw_rbasic.c **** 
  59:..\..\..\display\lvgl\lv_draw/lv_draw_rbasic.c ****     lv_rfill(&area, mask_p, color, LV_OPA_COVER);
 251              		.loc 4 59 0
 252 0022 07F11000 		add	r0, r7, #16
 253 0026 FF23     		movs	r3, #255
 254 0028 7A68     		ldr	r2, [r7, #4]
 255 002a B968     		ldr	r1, [r7, #8]
 256 002c FFF7FEFF 		bl	lv_rfill
  60:..\..\..\display\lvgl\lv_draw/lv_draw_rbasic.c **** }
 257              		.loc 4 60 0
 258 0030 00BF     		nop
 259 0032 1837     		adds	r7, r7, #24
 260              		.cfi_def_cfa_offset 8
 261 0034 BD46     		mov	sp, r7
 262              		.cfi_def_cfa_register 13
 263              		@ sp needed
 264 0036 80BD     		pop	{r7, pc}
 265              		.cfi_endproc
 266              	.LFE12:
 267              		.size	lv_rpx, .-lv_rpx
 268              		.section	.text.lv_rfill,"ax",%progbits
 269              		.align	2
 270              		.global	lv_rfill
 271              		.thumb
 272              		.thumb_func
 273              		.type	lv_rfill, %function
 274              	lv_rfill:
 275              	.LFB13:
  61:..\..\..\display\lvgl\lv_draw/lv_draw_rbasic.c **** 
  62:..\..\..\display\lvgl\lv_draw/lv_draw_rbasic.c **** /**
  63:..\..\..\display\lvgl\lv_draw/lv_draw_rbasic.c ****  * Fill an area on the display
  64:..\..\..\display\lvgl\lv_draw/lv_draw_rbasic.c ****  * @param cords_p coordinates of the area to fill
  65:..\..\..\display\lvgl\lv_draw/lv_draw_rbasic.c ****  * @param mask_p fill only o this mask
  66:..\..\..\display\lvgl\lv_draw/lv_draw_rbasic.c ****  * @param color fill color
  67:..\..\..\display\lvgl\lv_draw/lv_draw_rbasic.c ****  * @param opa opacity (ignored, only for compatibility with lv_vfill)
  68:..\..\..\display\lvgl\lv_draw/lv_draw_rbasic.c ****  */
  69:..\..\..\display\lvgl\lv_draw/lv_draw_rbasic.c **** void lv_rfill(const lv_area_t * cords_p, const lv_area_t * mask_p,
  70:..\..\..\display\lvgl\lv_draw/lv_draw_rbasic.c ****               lv_color_t color, lv_opa_t opa)
  71:..\..\..\display\lvgl\lv_draw/lv_draw_rbasic.c **** {
 276              		.loc 4 71 0
 277              		.cfi_startproc
 278              		@ args = 0, pretend = 0, frame = 40
 279              		@ frame_needed = 1, uses_anonymous_args = 0
 280 0000 90B5     		push	{r4, r7, lr}
 281              		.cfi_def_cfa_offset 12
 282              		.cfi_offset 4, -12
ARM GAS  C:\Users\pearlstl\AppData\Local\Temp\ccc6DM2e.s 			page 17


 283              		.cfi_offset 7, -8
 284              		.cfi_offset 14, -4
 285 0002 8DB0     		sub	sp, sp, #52
 286              		.cfi_def_cfa_offset 64
 287 0004 02AF     		add	r7, sp, #8
 288              		.cfi_def_cfa 7, 56
 289 0006 F860     		str	r0, [r7, #12]
 290 0008 B960     		str	r1, [r7, #8]
 291 000a 7A60     		str	r2, [r7, #4]
 292 000c FB70     		strb	r3, [r7, #3]
  72:..\..\..\display\lvgl\lv_draw/lv_draw_rbasic.c **** 
  73:..\..\..\display\lvgl\lv_draw/lv_draw_rbasic.c ****     (void)opa;      /*Opa is used only for compatibility with lv_vfill*/
  74:..\..\..\display\lvgl\lv_draw/lv_draw_rbasic.c **** 
  75:..\..\..\display\lvgl\lv_draw/lv_draw_rbasic.c ****     lv_area_t masked_area;
  76:..\..\..\display\lvgl\lv_draw/lv_draw_rbasic.c ****     bool union_ok = true;
 293              		.loc 4 76 0
 294 000e 0123     		movs	r3, #1
 295 0010 87F82730 		strb	r3, [r7, #39]
  77:..\..\..\display\lvgl\lv_draw/lv_draw_rbasic.c **** 
  78:..\..\..\display\lvgl\lv_draw/lv_draw_rbasic.c ****     if(mask_p != NULL) {
 296              		.loc 4 78 0
 297 0014 BB68     		ldr	r3, [r7, #8]
 298 0016 002B     		cmp	r3, #0
 299 0018 0AD0     		beq	.L9
  79:..\..\..\display\lvgl\lv_draw/lv_draw_rbasic.c ****         union_ok = lv_area_intersect(&masked_area, cords_p, mask_p);
 300              		.loc 4 79 0
 301 001a 07F11C03 		add	r3, r7, #28
 302 001e BA68     		ldr	r2, [r7, #8]
 303 0020 F968     		ldr	r1, [r7, #12]
 304 0022 1846     		mov	r0, r3
 305 0024 FFF7FEFF 		bl	lv_area_intersect
 306 0028 0346     		mov	r3, r0
 307 002a 87F82730 		strb	r3, [r7, #39]
 308 002e 15E0     		b	.L10
 309              	.L9:
 310              	.LBB2:
  80:..\..\..\display\lvgl\lv_draw/lv_draw_rbasic.c ****     } else {
  81:..\..\..\display\lvgl\lv_draw/lv_draw_rbasic.c ****         lv_area_t scr_area;
  82:..\..\..\display\lvgl\lv_draw/lv_draw_rbasic.c ****         lv_area_set(&scr_area, 0, 0, LV_HOR_RES - 1, LV_VER_RES - 1);
 311              		.loc 4 82 0
 312 0030 07F11400 		add	r0, r7, #20
 313 0034 40F2DF13 		movw	r3, #479
 314 0038 0093     		str	r3, [sp]
 315 003a 40F23F13 		movw	r3, #319
 316 003e 0022     		movs	r2, #0
 317 0040 0021     		movs	r1, #0
 318 0042 FFF7FEFF 		bl	lv_area_set
  83:..\..\..\display\lvgl\lv_draw/lv_draw_rbasic.c ****         union_ok = lv_area_intersect(&masked_area, cords_p, &scr_area);
 319              		.loc 4 83 0
 320 0046 07F11402 		add	r2, r7, #20
 321 004a 07F11C03 		add	r3, r7, #28
 322 004e F968     		ldr	r1, [r7, #12]
 323 0050 1846     		mov	r0, r3
 324 0052 FFF7FEFF 		bl	lv_area_intersect
 325 0056 0346     		mov	r3, r0
 326 0058 87F82730 		strb	r3, [r7, #39]
 327              	.L10:
ARM GAS  C:\Users\pearlstl\AppData\Local\Temp\ccc6DM2e.s 			page 18


 328              	.LBE2:
  84:..\..\..\display\lvgl\lv_draw/lv_draw_rbasic.c ****     }
  85:..\..\..\display\lvgl\lv_draw/lv_draw_rbasic.c **** 
  86:..\..\..\display\lvgl\lv_draw/lv_draw_rbasic.c ****     if(union_ok != false) {
 329              		.loc 4 86 0
 330 005c 97F82730 		ldrb	r3, [r7, #39]	@ zero_extendqisi2
 331 0060 002B     		cmp	r3, #0
 332 0062 10D0     		beq	.L12
  87:..\..\..\display\lvgl\lv_draw/lv_draw_rbasic.c ****         lv_disp_fill(masked_area.x1, masked_area.y1, masked_area.x2, masked_area.y2, color);
 333              		.loc 4 87 0
 334 0064 B7F91C30 		ldrsh	r3, [r7, #28]
 335 0068 1846     		mov	r0, r3
 336 006a B7F91E30 		ldrsh	r3, [r7, #30]
 337 006e 1946     		mov	r1, r3
 338 0070 B7F92030 		ldrsh	r3, [r7, #32]
 339 0074 1A46     		mov	r2, r3
 340 0076 B7F92230 		ldrsh	r3, [r7, #34]
 341 007a 1C46     		mov	r4, r3
 342 007c 7B68     		ldr	r3, [r7, #4]
 343 007e 0093     		str	r3, [sp]
 344 0080 2346     		mov	r3, r4
 345 0082 FFF7FEFF 		bl	lv_disp_fill
 346              	.L12:
  88:..\..\..\display\lvgl\lv_draw/lv_draw_rbasic.c ****     }
  89:..\..\..\display\lvgl\lv_draw/lv_draw_rbasic.c **** }
 347              		.loc 4 89 0
 348 0086 00BF     		nop
 349 0088 2C37     		adds	r7, r7, #44
 350              		.cfi_def_cfa_offset 12
 351 008a BD46     		mov	sp, r7
 352              		.cfi_def_cfa_register 13
 353              		@ sp needed
 354 008c 90BD     		pop	{r4, r7, pc}
 355              		.cfi_endproc
 356              	.LFE13:
 357              		.size	lv_rfill, .-lv_rfill
 358 008e 00BF     		.section	.text.lv_rletter,"ax",%progbits
 359              		.align	2
 360              		.global	lv_rletter
 361              		.thumb
 362              		.thumb_func
 363              		.type	lv_rletter, %function
 364              	lv_rletter:
 365              	.LFB14:
  90:..\..\..\display\lvgl\lv_draw/lv_draw_rbasic.c **** 
  91:..\..\..\display\lvgl\lv_draw/lv_draw_rbasic.c **** /**
  92:..\..\..\display\lvgl\lv_draw/lv_draw_rbasic.c ****  * Draw a letter to the display
  93:..\..\..\display\lvgl\lv_draw/lv_draw_rbasic.c ****  * @param pos_p left-top coordinate of the latter
  94:..\..\..\display\lvgl\lv_draw/lv_draw_rbasic.c ****  * @param mask_p the letter will be drawn only on this area
  95:..\..\..\display\lvgl\lv_draw/lv_draw_rbasic.c ****  * @param font_p pointer to font
  96:..\..\..\display\lvgl\lv_draw/lv_draw_rbasic.c ****  * @param letter a letter to draw
  97:..\..\..\display\lvgl\lv_draw/lv_draw_rbasic.c ****  * @param color color of letter
  98:..\..\..\display\lvgl\lv_draw/lv_draw_rbasic.c ****  * @param opa opacity of letter (ignored, only for compatibility with lv_vletter)
  99:..\..\..\display\lvgl\lv_draw/lv_draw_rbasic.c ****  */
 100:..\..\..\display\lvgl\lv_draw/lv_draw_rbasic.c **** void lv_rletter(const lv_point_t * pos_p, const lv_area_t * mask_p,
 101:..\..\..\display\lvgl\lv_draw/lv_draw_rbasic.c ****                 const lv_font_t * font_p, uint32_t letter,
 102:..\..\..\display\lvgl\lv_draw/lv_draw_rbasic.c ****                 lv_color_t color, lv_opa_t opa)
ARM GAS  C:\Users\pearlstl\AppData\Local\Temp\ccc6DM2e.s 			page 19


 103:..\..\..\display\lvgl\lv_draw/lv_draw_rbasic.c **** {
 366              		.loc 4 103 0
 367              		.cfi_startproc
 368              		@ args = 8, pretend = 0, frame = 56
 369              		@ frame_needed = 1, uses_anonymous_args = 0
 370 0000 B0B5     		push	{r4, r5, r7, lr}
 371              		.cfi_def_cfa_offset 16
 372              		.cfi_offset 4, -16
 373              		.cfi_offset 5, -12
 374              		.cfi_offset 7, -8
 375              		.cfi_offset 14, -4
 376 0002 90B0     		sub	sp, sp, #64
 377              		.cfi_def_cfa_offset 80
 378 0004 02AF     		add	r7, sp, #8
 379              		.cfi_def_cfa 7, 72
 380 0006 F860     		str	r0, [r7, #12]
 381 0008 B960     		str	r1, [r7, #8]
 382 000a 7A60     		str	r2, [r7, #4]
 383 000c 3B60     		str	r3, [r7]
 104:..\..\..\display\lvgl\lv_draw/lv_draw_rbasic.c ****     (void)opa;      /*Opa is used only for compatibility with lv_vletter*/
 105:..\..\..\display\lvgl\lv_draw/lv_draw_rbasic.c **** 
 106:..\..\..\display\lvgl\lv_draw/lv_draw_rbasic.c ****     static uint8_t bpp1_opa_table[2] =  {0, 255};                   /*Opacity mapping with bpp = 1 
 107:..\..\..\display\lvgl\lv_draw/lv_draw_rbasic.c ****     static uint8_t bpp2_opa_table[4] =  {0, 85, 170, 255};          /*Opacity mapping with bpp = 2*
 108:..\..\..\display\lvgl\lv_draw/lv_draw_rbasic.c ****     static uint8_t bpp4_opa_table[16] = {0,   17,  34,  51,         /*Opacity mapping with bpp = 4*
 109:..\..\..\display\lvgl\lv_draw/lv_draw_rbasic.c ****                                          68,  85,  102, 119,
 110:..\..\..\display\lvgl\lv_draw/lv_draw_rbasic.c ****                                          136, 153, 170, 187,
 111:..\..\..\display\lvgl\lv_draw/lv_draw_rbasic.c ****                                          204, 221, 238, 255
 112:..\..\..\display\lvgl\lv_draw/lv_draw_rbasic.c ****                                         };
 113:..\..\..\display\lvgl\lv_draw/lv_draw_rbasic.c **** 
 114:..\..\..\display\lvgl\lv_draw/lv_draw_rbasic.c ****     if(font_p == NULL) return;
 384              		.loc 4 114 0
 385 000e 7B68     		ldr	r3, [r7, #4]
 386 0010 002B     		cmp	r3, #0
 387 0012 00F0CF81 		beq	.L46
 115:..\..\..\display\lvgl\lv_draw/lv_draw_rbasic.c **** 
 116:..\..\..\display\lvgl\lv_draw/lv_draw_rbasic.c ****     uint8_t letter_w = lv_font_get_width(font_p, letter);
 388              		.loc 4 116 0
 389 0016 3968     		ldr	r1, [r7]
 390 0018 7868     		ldr	r0, [r7, #4]
 391 001a FFF7FEFF 		bl	lv_font_get_width
 392 001e 0346     		mov	r3, r0
 393 0020 87F82430 		strb	r3, [r7, #36]
 117:..\..\..\display\lvgl\lv_draw/lv_draw_rbasic.c ****     uint8_t letter_h = lv_font_get_height(font_p);
 394              		.loc 4 117 0
 395 0024 7868     		ldr	r0, [r7, #4]
 396 0026 FFF7FEFF 		bl	lv_font_get_height
 397 002a 0346     		mov	r3, r0
 398 002c 87F82330 		strb	r3, [r7, #35]
 118:..\..\..\display\lvgl\lv_draw/lv_draw_rbasic.c ****     uint8_t bpp = lv_font_get_bpp(font_p, letter);  /*Bit per pixel (1,2, 4 or 8)*/
 399              		.loc 4 118 0
 400 0030 3968     		ldr	r1, [r7]
 401 0032 7868     		ldr	r0, [r7, #4]
 402 0034 FFF7FEFF 		bl	lv_font_get_bpp
 403 0038 0346     		mov	r3, r0
 404 003a 87F82230 		strb	r3, [r7, #34]
 119:..\..\..\display\lvgl\lv_draw/lv_draw_rbasic.c ****     uint8_t * bpp_opa_table;
 120:..\..\..\display\lvgl\lv_draw/lv_draw_rbasic.c ****     uint8_t mask_init;
ARM GAS  C:\Users\pearlstl\AppData\Local\Temp\ccc6DM2e.s 			page 20


 121:..\..\..\display\lvgl\lv_draw/lv_draw_rbasic.c ****     uint8_t mask;
 122:..\..\..\display\lvgl\lv_draw/lv_draw_rbasic.c **** 
 123:..\..\..\display\lvgl\lv_draw/lv_draw_rbasic.c ****     switch(bpp) {
 405              		.loc 4 123 0
 406 003e 97F82230 		ldrb	r3, [r7, #34]	@ zero_extendqisi2
 407 0042 013B     		subs	r3, r3, #1
 408 0044 072B     		cmp	r3, #7
 409 0046 00F2B781 		bhi	.L47
 410 004a 01A2     		adr	r2, .L18
 411 004c 52F823F0 		ldr	pc, [r2, r3, lsl #2]
 412              		.p2align 2
 413              	.L18:
 414 0050 71000000 		.word	.L17+1
 415 0054 7D000000 		.word	.L19+1
 416 0058 B9030000 		.word	.L47+1
 417 005c 89000000 		.word	.L20+1
 418 0060 B9030000 		.word	.L47+1
 419 0064 B9030000 		.word	.L47+1
 420 0068 B9030000 		.word	.L47+1
 421 006c 95000000 		.word	.L21+1
 422              		.p2align 1
 423              	.L17:
 124:..\..\..\display\lvgl\lv_draw/lv_draw_rbasic.c ****         case 1:
 125:..\..\..\display\lvgl\lv_draw/lv_draw_rbasic.c ****             bpp_opa_table = bpp1_opa_table;
 424              		.loc 4 125 0
 425 0070 B24B     		ldr	r3, .L50
 426 0072 7B63     		str	r3, [r7, #52]
 126:..\..\..\display\lvgl\lv_draw/lv_draw_rbasic.c ****             mask_init = 0x80;
 427              		.loc 4 126 0
 428 0074 8023     		movs	r3, #128
 429 0076 87F83330 		strb	r3, [r7, #51]
 127:..\..\..\display\lvgl\lv_draw/lv_draw_rbasic.c ****             break;
 430              		.loc 4 127 0
 431 007a 11E0     		b	.L22
 432              	.L19:
 128:..\..\..\display\lvgl\lv_draw/lv_draw_rbasic.c ****         case 2:
 129:..\..\..\display\lvgl\lv_draw/lv_draw_rbasic.c ****             bpp_opa_table = bpp2_opa_table;
 433              		.loc 4 129 0
 434 007c B04B     		ldr	r3, .L50+4
 435 007e 7B63     		str	r3, [r7, #52]
 130:..\..\..\display\lvgl\lv_draw/lv_draw_rbasic.c ****             mask_init = 0xC0;
 436              		.loc 4 130 0
 437 0080 C023     		movs	r3, #192
 438 0082 87F83330 		strb	r3, [r7, #51]
 131:..\..\..\display\lvgl\lv_draw/lv_draw_rbasic.c ****             break;
 439              		.loc 4 131 0
 440 0086 0BE0     		b	.L22
 441              	.L20:
 132:..\..\..\display\lvgl\lv_draw/lv_draw_rbasic.c ****         case 4:
 133:..\..\..\display\lvgl\lv_draw/lv_draw_rbasic.c ****             bpp_opa_table = bpp4_opa_table;
 442              		.loc 4 133 0
 443 0088 AE4B     		ldr	r3, .L50+8
 444 008a 7B63     		str	r3, [r7, #52]
 134:..\..\..\display\lvgl\lv_draw/lv_draw_rbasic.c ****             mask_init = 0xF0;
 445              		.loc 4 134 0
 446 008c F023     		movs	r3, #240
 447 008e 87F83330 		strb	r3, [r7, #51]
ARM GAS  C:\Users\pearlstl\AppData\Local\Temp\ccc6DM2e.s 			page 21


 135:..\..\..\display\lvgl\lv_draw/lv_draw_rbasic.c ****             break;
 448              		.loc 4 135 0
 449 0092 05E0     		b	.L22
 450              	.L21:
 136:..\..\..\display\lvgl\lv_draw/lv_draw_rbasic.c ****         case 8:
 137:..\..\..\display\lvgl\lv_draw/lv_draw_rbasic.c ****             bpp_opa_table = NULL;
 451              		.loc 4 137 0
 452 0094 0023     		movs	r3, #0
 453 0096 7B63     		str	r3, [r7, #52]
 138:..\..\..\display\lvgl\lv_draw/lv_draw_rbasic.c ****             mask_init = 0xFF;
 454              		.loc 4 138 0
 455 0098 FF23     		movs	r3, #255
 456 009a 87F83330 		strb	r3, [r7, #51]
 139:..\..\..\display\lvgl\lv_draw/lv_draw_rbasic.c ****             break;             /*No opa table, pixel value will be used directly*/
 457              		.loc 4 139 0
 458 009e 00BF     		nop
 459              	.L22:
 140:..\..\..\display\lvgl\lv_draw/lv_draw_rbasic.c ****         default:
 141:..\..\..\display\lvgl\lv_draw/lv_draw_rbasic.c ****             return;        /*Invalid bpp. Can't render the letter*/
 142:..\..\..\display\lvgl\lv_draw/lv_draw_rbasic.c ****     }
 143:..\..\..\display\lvgl\lv_draw/lv_draw_rbasic.c **** 
 144:..\..\..\display\lvgl\lv_draw/lv_draw_rbasic.c ****     const uint8_t * map_p = lv_font_get_bitmap(font_p, letter);
 460              		.loc 4 144 0
 461 00a0 3968     		ldr	r1, [r7]
 462 00a2 7868     		ldr	r0, [r7, #4]
 463 00a4 FFF7FEFF 		bl	lv_font_get_bitmap
 464 00a8 F862     		str	r0, [r7, #44]
 145:..\..\..\display\lvgl\lv_draw/lv_draw_rbasic.c **** 
 146:..\..\..\display\lvgl\lv_draw/lv_draw_rbasic.c ****     if(map_p == NULL) return;
 465              		.loc 4 146 0
 466 00aa FB6A     		ldr	r3, [r7, #44]
 467 00ac 002B     		cmp	r3, #0
 468 00ae 00F08581 		beq	.L48
 147:..\..\..\display\lvgl\lv_draw/lv_draw_rbasic.c **** 
 148:..\..\..\display\lvgl\lv_draw/lv_draw_rbasic.c ****     /*If the letter is completely out of mask don't draw it */
 149:..\..\..\display\lvgl\lv_draw/lv_draw_rbasic.c ****     if(pos_p->x + letter_w < mask_p->x1 || pos_p->x > mask_p->x2 ||
 469              		.loc 4 149 0
 470 00b2 FB68     		ldr	r3, [r7, #12]
 471 00b4 B3F90030 		ldrsh	r3, [r3]
 472 00b8 1A46     		mov	r2, r3
 473 00ba 97F82430 		ldrb	r3, [r7, #36]	@ zero_extendqisi2
 474 00be 1344     		add	r3, r3, r2
 475 00c0 BA68     		ldr	r2, [r7, #8]
 476 00c2 B2F90020 		ldrsh	r2, [r2]
 477 00c6 9342     		cmp	r3, r2
 478 00c8 C0F27A81 		blt	.L49
 479              		.loc 4 149 0 is_stmt 0 discriminator 1
 480 00cc FB68     		ldr	r3, [r7, #12]
 481 00ce B3F90020 		ldrsh	r2, [r3]
 482 00d2 BB68     		ldr	r3, [r7, #8]
 483 00d4 B3F90430 		ldrsh	r3, [r3, #4]
 484 00d8 9A42     		cmp	r2, r3
 485 00da 00F37181 		bgt	.L49
 150:..\..\..\display\lvgl\lv_draw/lv_draw_rbasic.c ****             pos_p->y + letter_h < mask_p->y1 || pos_p->y > mask_p->y2) return;
 486              		.loc 4 150 0 is_stmt 1 discriminator 2
 487 00de FB68     		ldr	r3, [r7, #12]
 488 00e0 B3F90230 		ldrsh	r3, [r3, #2]
ARM GAS  C:\Users\pearlstl\AppData\Local\Temp\ccc6DM2e.s 			page 22


 489 00e4 1A46     		mov	r2, r3
 490 00e6 97F82330 		ldrb	r3, [r7, #35]	@ zero_extendqisi2
 491 00ea 1344     		add	r3, r3, r2
 492 00ec BA68     		ldr	r2, [r7, #8]
 493 00ee B2F90220 		ldrsh	r2, [r2, #2]
 149:..\..\..\display\lvgl\lv_draw/lv_draw_rbasic.c ****             pos_p->y + letter_h < mask_p->y1 || pos_p->y > mask_p->y2) return;
 494              		.loc 4 149 0 discriminator 2
 495 00f2 9342     		cmp	r3, r2
 496 00f4 C0F26481 		blt	.L49
 497              		.loc 4 150 0
 498 00f8 FB68     		ldr	r3, [r7, #12]
 499 00fa B3F90220 		ldrsh	r2, [r3, #2]
 500 00fe BB68     		ldr	r3, [r7, #8]
 501 0100 B3F90630 		ldrsh	r3, [r3, #6]
 502 0104 9A42     		cmp	r2, r3
 503 0106 00F35B81 		bgt	.L49
 151:..\..\..\display\lvgl\lv_draw/lv_draw_rbasic.c **** 
 152:..\..\..\display\lvgl\lv_draw/lv_draw_rbasic.c ****     lv_coord_t col, row;
 153:..\..\..\display\lvgl\lv_draw/lv_draw_rbasic.c ****     uint8_t col_bit;
 154:..\..\..\display\lvgl\lv_draw/lv_draw_rbasic.c ****     uint8_t col_byte_cnt;
 155:..\..\..\display\lvgl\lv_draw/lv_draw_rbasic.c ****     uint8_t width_byte_scr = letter_w >> 3;      /*Width in bytes (on the screen finally) (e.g. w =
 504              		.loc 4 155 0
 505 010a 97F82430 		ldrb	r3, [r7, #36]	@ zero_extendqisi2
 506 010e DB08     		lsrs	r3, r3, #3
 507 0110 87F82130 		strb	r3, [r7, #33]
 156:..\..\..\display\lvgl\lv_draw/lv_draw_rbasic.c ****     if(letter_w & 0x7) width_byte_scr++;
 508              		.loc 4 156 0
 509 0114 97F82430 		ldrb	r3, [r7, #36]	@ zero_extendqisi2
 510 0118 03F00703 		and	r3, r3, #7
 511 011c 002B     		cmp	r3, #0
 512 011e 04D0     		beq	.L26
 513              		.loc 4 156 0 is_stmt 0 discriminator 1
 514 0120 97F82130 		ldrb	r3, [r7, #33]	@ zero_extendqisi2
 515 0124 0133     		adds	r3, r3, #1
 516 0126 87F82130 		strb	r3, [r7, #33]
 517              	.L26:
 157:..\..\..\display\lvgl\lv_draw/lv_draw_rbasic.c ****     uint8_t width_byte_bpp = (letter_w * bpp) >> 3;    /*Letter width in byte. Real width in the fo
 518              		.loc 4 157 0 is_stmt 1
 519 012a 97F82430 		ldrb	r3, [r7, #36]	@ zero_extendqisi2
 520 012e 97F82220 		ldrb	r2, [r7, #34]	@ zero_extendqisi2
 521 0132 02FB03F3 		mul	r3, r2, r3
 522 0136 DB10     		asrs	r3, r3, #3
 523 0138 87F82530 		strb	r3, [r7, #37]
 158:..\..\..\display\lvgl\lv_draw/lv_draw_rbasic.c ****     if((letter_w * bpp) & 0x7) width_byte_bpp++;
 524              		.loc 4 158 0
 525 013c 97F82430 		ldrb	r3, [r7, #36]	@ zero_extendqisi2
 526 0140 97F82220 		ldrb	r2, [r7, #34]	@ zero_extendqisi2
 527 0144 02FB03F3 		mul	r3, r2, r3
 528 0148 03F00703 		and	r3, r3, #7
 529 014c 002B     		cmp	r3, #0
 530 014e 04D0     		beq	.L27
 531              		.loc 4 158 0 is_stmt 0 discriminator 1
 532 0150 97F82530 		ldrb	r3, [r7, #37]	@ zero_extendqisi2
 533 0154 0133     		adds	r3, r3, #1
 534 0156 87F82530 		strb	r3, [r7, #37]
 535              	.L27:
 159:..\..\..\display\lvgl\lv_draw/lv_draw_rbasic.c **** 
ARM GAS  C:\Users\pearlstl\AppData\Local\Temp\ccc6DM2e.s 			page 23


 160:..\..\..\display\lvgl\lv_draw/lv_draw_rbasic.c ****     /* Calculate the col/row start/end on the map*/
 161:..\..\..\display\lvgl\lv_draw/lv_draw_rbasic.c ****     lv_coord_t col_start = pos_p->x >= mask_p->x1 ? 0 : mask_p->x1 - pos_p->x;
 536              		.loc 4 161 0 is_stmt 1
 537 015a FB68     		ldr	r3, [r7, #12]
 538 015c B3F90020 		ldrsh	r2, [r3]
 539 0160 BB68     		ldr	r3, [r7, #8]
 540 0162 B3F90030 		ldrsh	r3, [r3]
 541 0166 9A42     		cmp	r2, r3
 542 0168 0BDA     		bge	.L28
 543              		.loc 4 161 0 is_stmt 0 discriminator 1
 544 016a BB68     		ldr	r3, [r7, #8]
 545 016c B3F90030 		ldrsh	r3, [r3]
 546 0170 9AB2     		uxth	r2, r3
 547 0172 FB68     		ldr	r3, [r7, #12]
 548 0174 B3F90030 		ldrsh	r3, [r3]
 549 0178 9BB2     		uxth	r3, r3
 550 017a D31A     		subs	r3, r2, r3
 551 017c 9BB2     		uxth	r3, r3
 552 017e 1BB2     		sxth	r3, r3
 553 0180 00E0     		b	.L29
 554              	.L28:
 555              		.loc 4 161 0 discriminator 2
 556 0182 0023     		movs	r3, #0
 557              	.L29:
 558              		.loc 4 161 0 discriminator 4
 559 0184 FB83     		strh	r3, [r7, #30]	@ movhi
 162:..\..\..\display\lvgl\lv_draw/lv_draw_rbasic.c ****     lv_coord_t col_end = pos_p->x + letter_w <= mask_p->x2 ? letter_w : mask_p->x2 - pos_p->x + 1;
 560              		.loc 4 162 0 is_stmt 1 discriminator 4
 561 0186 FB68     		ldr	r3, [r7, #12]
 562 0188 B3F90030 		ldrsh	r3, [r3]
 563 018c 1A46     		mov	r2, r3
 564 018e 97F82430 		ldrb	r3, [r7, #36]	@ zero_extendqisi2
 565 0192 1344     		add	r3, r3, r2
 566 0194 BA68     		ldr	r2, [r7, #8]
 567 0196 B2F90420 		ldrsh	r2, [r2, #4]
 568 019a 9342     		cmp	r3, r2
 569 019c 03DC     		bgt	.L30
 570              		.loc 4 162 0 is_stmt 0 discriminator 1
 571 019e 97F82430 		ldrb	r3, [r7, #36]	@ zero_extendqisi2
 572 01a2 1BB2     		sxth	r3, r3
 573 01a4 0CE0     		b	.L31
 574              	.L30:
 575              		.loc 4 162 0 discriminator 2
 576 01a6 BB68     		ldr	r3, [r7, #8]
 577 01a8 B3F90430 		ldrsh	r3, [r3, #4]
 578 01ac 9AB2     		uxth	r2, r3
 579 01ae FB68     		ldr	r3, [r7, #12]
 580 01b0 B3F90030 		ldrsh	r3, [r3]
 581 01b4 9BB2     		uxth	r3, r3
 582 01b6 D31A     		subs	r3, r2, r3
 583 01b8 9BB2     		uxth	r3, r3
 584 01ba 0133     		adds	r3, r3, #1
 585 01bc 9BB2     		uxth	r3, r3
 586 01be 1BB2     		sxth	r3, r3
 587              	.L31:
 588              		.loc 4 162 0 discriminator 4
 589 01c0 BB83     		strh	r3, [r7, #28]	@ movhi
ARM GAS  C:\Users\pearlstl\AppData\Local\Temp\ccc6DM2e.s 			page 24


 163:..\..\..\display\lvgl\lv_draw/lv_draw_rbasic.c ****     lv_coord_t row_start = pos_p->y >= mask_p->y1 ? 0 : mask_p->y1 - pos_p->y;
 590              		.loc 4 163 0 is_stmt 1 discriminator 4
 591 01c2 FB68     		ldr	r3, [r7, #12]
 592 01c4 B3F90220 		ldrsh	r2, [r3, #2]
 593 01c8 BB68     		ldr	r3, [r7, #8]
 594 01ca B3F90230 		ldrsh	r3, [r3, #2]
 595 01ce 9A42     		cmp	r2, r3
 596 01d0 0BDA     		bge	.L32
 597              		.loc 4 163 0 is_stmt 0 discriminator 1
 598 01d2 BB68     		ldr	r3, [r7, #8]
 599 01d4 B3F90230 		ldrsh	r3, [r3, #2]
 600 01d8 9AB2     		uxth	r2, r3
 601 01da FB68     		ldr	r3, [r7, #12]
 602 01dc B3F90230 		ldrsh	r3, [r3, #2]
 603 01e0 9BB2     		uxth	r3, r3
 604 01e2 D31A     		subs	r3, r2, r3
 605 01e4 9BB2     		uxth	r3, r3
 606 01e6 1BB2     		sxth	r3, r3
 607 01e8 00E0     		b	.L33
 608              	.L32:
 609              		.loc 4 163 0 discriminator 2
 610 01ea 0023     		movs	r3, #0
 611              	.L33:
 612              		.loc 4 163 0 discriminator 4
 613 01ec 7B83     		strh	r3, [r7, #26]	@ movhi
 164:..\..\..\display\lvgl\lv_draw/lv_draw_rbasic.c ****     lv_coord_t row_end  = pos_p->y + letter_h <= mask_p->y2 ? letter_h : mask_p->y2 - pos_p->y + 1;
 614              		.loc 4 164 0 is_stmt 1 discriminator 4
 615 01ee FB68     		ldr	r3, [r7, #12]
 616 01f0 B3F90230 		ldrsh	r3, [r3, #2]
 617 01f4 1A46     		mov	r2, r3
 618 01f6 97F82330 		ldrb	r3, [r7, #35]	@ zero_extendqisi2
 619 01fa 1344     		add	r3, r3, r2
 620 01fc BA68     		ldr	r2, [r7, #8]
 621 01fe B2F90620 		ldrsh	r2, [r2, #6]
 622 0202 9342     		cmp	r3, r2
 623 0204 03DC     		bgt	.L34
 624              		.loc 4 164 0 is_stmt 0 discriminator 1
 625 0206 97F82330 		ldrb	r3, [r7, #35]	@ zero_extendqisi2
 626 020a 1BB2     		sxth	r3, r3
 627 020c 0CE0     		b	.L35
 628              	.L34:
 629              		.loc 4 164 0 discriminator 2
 630 020e BB68     		ldr	r3, [r7, #8]
 631 0210 B3F90630 		ldrsh	r3, [r3, #6]
 632 0214 9AB2     		uxth	r2, r3
 633 0216 FB68     		ldr	r3, [r7, #12]
 634 0218 B3F90230 		ldrsh	r3, [r3, #2]
 635 021c 9BB2     		uxth	r3, r3
 636 021e D31A     		subs	r3, r2, r3
 637 0220 9BB2     		uxth	r3, r3
 638 0222 0133     		adds	r3, r3, #1
 639 0224 9BB2     		uxth	r3, r3
 640 0226 1BB2     		sxth	r3, r3
 641              	.L35:
 642              		.loc 4 164 0 discriminator 4
 643 0228 3B83     		strh	r3, [r7, #24]	@ movhi
 165:..\..\..\display\lvgl\lv_draw/lv_draw_rbasic.c **** 
ARM GAS  C:\Users\pearlstl\AppData\Local\Temp\ccc6DM2e.s 			page 25


 166:..\..\..\display\lvgl\lv_draw/lv_draw_rbasic.c ****     /*Move on the map too*/
 167:..\..\..\display\lvgl\lv_draw/lv_draw_rbasic.c ****     map_p += (row_start * width_byte_bpp) + ((col_start * bpp) >> 3);
 644              		.loc 4 167 0 is_stmt 1 discriminator 4
 645 022a B7F91A30 		ldrsh	r3, [r7, #26]
 646 022e 97F82520 		ldrb	r2, [r7, #37]	@ zero_extendqisi2
 647 0232 02FB03F2 		mul	r2, r2, r3
 648 0236 B7F91E30 		ldrsh	r3, [r7, #30]
 649 023a 97F82210 		ldrb	r1, [r7, #34]	@ zero_extendqisi2
 650 023e 01FB03F3 		mul	r3, r1, r3
 651 0242 DB10     		asrs	r3, r3, #3
 652 0244 1344     		add	r3, r3, r2
 653 0246 1A46     		mov	r2, r3
 654 0248 FB6A     		ldr	r3, [r7, #44]
 655 024a 1344     		add	r3, r3, r2
 656 024c FB62     		str	r3, [r7, #44]
 168:..\..\..\display\lvgl\lv_draw/lv_draw_rbasic.c **** 
 169:..\..\..\display\lvgl\lv_draw/lv_draw_rbasic.c ****     uint8_t letter_px;
 170:..\..\..\display\lvgl\lv_draw/lv_draw_rbasic.c ****     for(row = row_start; row < row_end; row ++) {
 657              		.loc 4 170 0 discriminator 4
 658 024e 7B8B     		ldrh	r3, [r7, #26]	@ movhi
 659 0250 3B85     		strh	r3, [r7, #40]	@ movhi
 660 0252 A7E0     		b	.L36
 661              	.L45:
 171:..\..\..\display\lvgl\lv_draw/lv_draw_rbasic.c ****         col_byte_cnt = 0;
 662              		.loc 4 171 0
 663 0254 0023     		movs	r3, #0
 664 0256 87F82630 		strb	r3, [r7, #38]
 172:..\..\..\display\lvgl\lv_draw/lv_draw_rbasic.c ****         col_bit = (col_start * bpp) % 8;
 665              		.loc 4 172 0
 666 025a B7F91E30 		ldrsh	r3, [r7, #30]
 667 025e 97F82220 		ldrb	r2, [r7, #34]	@ zero_extendqisi2
 668 0262 02FB03F2 		mul	r2, r2, r3
 669 0266 384B     		ldr	r3, .L50+12
 670 0268 1340     		ands	r3, r3, r2
 671 026a 002B     		cmp	r3, #0
 672 026c 03DA     		bge	.L37
 673 026e 013B     		subs	r3, r3, #1
 674 0270 63F00703 		orn	r3, r3, #7
 675 0274 0133     		adds	r3, r3, #1
 676              	.L37:
 677 0276 87F82730 		strb	r3, [r7, #39]
 173:..\..\..\display\lvgl\lv_draw/lv_draw_rbasic.c ****         mask = mask_init >> col_bit;
 678              		.loc 4 173 0
 679 027a 97F83320 		ldrb	r2, [r7, #51]	@ zero_extendqisi2
 680 027e 97F82730 		ldrb	r3, [r7, #39]	@ zero_extendqisi2
 681 0282 42FA03F3 		asr	r3, r2, r3
 682 0286 87F83230 		strb	r3, [r7, #50]
 174:..\..\..\display\lvgl\lv_draw/lv_draw_rbasic.c ****         for(col = col_start; col < col_end; col ++) {
 683              		.loc 4 174 0
 684 028a FB8B     		ldrh	r3, [r7, #30]	@ movhi
 685 028c 7B85     		strh	r3, [r7, #42]	@ movhi
 686 028e 74E0     		b	.L38
 687              	.L44:
 175:..\..\..\display\lvgl\lv_draw/lv_draw_rbasic.c ****             letter_px = (*map_p & mask) >> (8 - col_bit - bpp);
 688              		.loc 4 175 0
 689 0290 FB6A     		ldr	r3, [r7, #44]
 690 0292 1A78     		ldrb	r2, [r3]	@ zero_extendqisi2
ARM GAS  C:\Users\pearlstl\AppData\Local\Temp\ccc6DM2e.s 			page 26


 691 0294 97F83230 		ldrb	r3, [r7, #50]
 692 0298 1340     		ands	r3, r3, r2
 693 029a DBB2     		uxtb	r3, r3
 694 029c 1946     		mov	r1, r3
 695 029e 97F82730 		ldrb	r3, [r7, #39]	@ zero_extendqisi2
 696 02a2 C3F10802 		rsb	r2, r3, #8
 697 02a6 97F82230 		ldrb	r3, [r7, #34]	@ zero_extendqisi2
 698 02aa D31A     		subs	r3, r2, r3
 699 02ac 41FA03F3 		asr	r3, r1, r3
 700 02b0 FB75     		strb	r3, [r7, #23]
 176:..\..\..\display\lvgl\lv_draw/lv_draw_rbasic.c ****             if(letter_px != 0) {
 701              		.loc 4 176 0
 702 02b2 FB7D     		ldrb	r3, [r7, #23]	@ zero_extendqisi2
 703 02b4 002B     		cmp	r3, #0
 704 02b6 28D0     		beq	.L39
 177:..\..\..\display\lvgl\lv_draw/lv_draw_rbasic.c ****                 lv_rpx(pos_p->x + col, pos_p->y + row, mask_p, lv_color_mix(color, letter_bg_color,
 705              		.loc 4 177 0
 706 02b8 FB68     		ldr	r3, [r7, #12]
 707 02ba B3F90030 		ldrsh	r3, [r3]
 708 02be 9AB2     		uxth	r2, r3
 709 02c0 7B8D     		ldrh	r3, [r7, #42]
 710 02c2 1344     		add	r3, r3, r2
 711 02c4 9BB2     		uxth	r3, r3
 712 02c6 1CB2     		sxth	r4, r3
 713 02c8 FB68     		ldr	r3, [r7, #12]
 714 02ca B3F90230 		ldrsh	r3, [r3, #2]
 715 02ce 9AB2     		uxth	r2, r3
 716 02d0 3B8D     		ldrh	r3, [r7, #40]
 717 02d2 1344     		add	r3, r3, r2
 718 02d4 9BB2     		uxth	r3, r3
 719 02d6 1DB2     		sxth	r5, r3
 720 02d8 97F82230 		ldrb	r3, [r7, #34]	@ zero_extendqisi2
 721 02dc 082B     		cmp	r3, #8
 722 02de 04D0     		beq	.L40
 723              		.loc 4 177 0 is_stmt 0 discriminator 1
 724 02e0 FB7D     		ldrb	r3, [r7, #23]	@ zero_extendqisi2
 725 02e2 7A6B     		ldr	r2, [r7, #52]
 726 02e4 1344     		add	r3, r3, r2
 727 02e6 1B78     		ldrb	r3, [r3]	@ zero_extendqisi2
 728 02e8 00E0     		b	.L41
 729              	.L40:
 730              		.loc 4 177 0 discriminator 2
 731 02ea FB7D     		ldrb	r3, [r7, #23]	@ zero_extendqisi2
 732              	.L41:
 733              		.loc 4 177 0 discriminator 4
 734 02ec 1749     		ldr	r1, .L50+16
 735 02ee 1A46     		mov	r2, r3
 736 02f0 0968     		ldr	r1, [r1]
 737 02f2 B86C     		ldr	r0, [r7, #72]
 738 02f4 FFF7FEFF 		bl	lv_color_mix
 739 02f8 0246     		mov	r2, r0
 740 02fa FF23     		movs	r3, #255
 741 02fc 0093     		str	r3, [sp]
 742 02fe 1346     		mov	r3, r2
 743 0300 BA68     		ldr	r2, [r7, #8]
 744 0302 2946     		mov	r1, r5
 745 0304 2046     		mov	r0, r4
ARM GAS  C:\Users\pearlstl\AppData\Local\Temp\ccc6DM2e.s 			page 27


 746 0306 FFF7FEFF 		bl	lv_rpx
 747              	.L39:
 178:..\..\..\display\lvgl\lv_draw/lv_draw_rbasic.c ****             }
 179:..\..\..\display\lvgl\lv_draw/lv_draw_rbasic.c **** 
 180:..\..\..\display\lvgl\lv_draw/lv_draw_rbasic.c ****             if(col_bit < 8 - bpp) {
 748              		.loc 4 180 0 is_stmt 1
 749 030a 97F82720 		ldrb	r2, [r7, #39]	@ zero_extendqisi2
 750 030e 97F82230 		ldrb	r3, [r7, #34]	@ zero_extendqisi2
 751 0312 C3F10803 		rsb	r3, r3, #8
 752 0316 9A42     		cmp	r2, r3
 753 0318 1ADA     		bge	.L42
 181:..\..\..\display\lvgl\lv_draw/lv_draw_rbasic.c ****                 col_bit += bpp;
 754              		.loc 4 181 0
 755 031a 97F82720 		ldrb	r2, [r7, #39]
 756 031e 97F82230 		ldrb	r3, [r7, #34]
 757 0322 1344     		add	r3, r3, r2
 758 0324 87F82730 		strb	r3, [r7, #39]
 182:..\..\..\display\lvgl\lv_draw/lv_draw_rbasic.c ****                 mask = mask >> bpp;
 759              		.loc 4 182 0
 760 0328 97F83220 		ldrb	r2, [r7, #50]	@ zero_extendqisi2
 761 032c 97F82230 		ldrb	r3, [r7, #34]	@ zero_extendqisi2
 762 0330 42FA03F3 		asr	r3, r2, r3
 763 0334 87F83230 		strb	r3, [r7, #50]
 764 0338 19E0     		b	.L43
 765              	.L51:
 766 033a 00BF     		.align	2
 767              	.L50:
 768 033c 00000000 		.word	bpp1_opa_table.5745
 769 0340 04000000 		.word	bpp2_opa_table.5746
 770 0344 08000000 		.word	bpp4_opa_table.5747
 771 0348 07000080 		.word	-2147483641
 772 034c 00000000 		.word	letter_bg_color
 773              	.L42:
 183:..\..\..\display\lvgl\lv_draw/lv_draw_rbasic.c ****             } else {
 184:..\..\..\display\lvgl\lv_draw/lv_draw_rbasic.c ****                 col_bit = 0;
 774              		.loc 4 184 0
 775 0350 0023     		movs	r3, #0
 776 0352 87F82730 		strb	r3, [r7, #39]
 185:..\..\..\display\lvgl\lv_draw/lv_draw_rbasic.c ****                 col_byte_cnt ++;
 777              		.loc 4 185 0
 778 0356 97F82630 		ldrb	r3, [r7, #38]	@ zero_extendqisi2
 779 035a 0133     		adds	r3, r3, #1
 780 035c 87F82630 		strb	r3, [r7, #38]
 186:..\..\..\display\lvgl\lv_draw/lv_draw_rbasic.c ****                 mask = mask_init;
 781              		.loc 4 186 0
 782 0360 97F83330 		ldrb	r3, [r7, #51]
 783 0364 87F83230 		strb	r3, [r7, #50]
 187:..\..\..\display\lvgl\lv_draw/lv_draw_rbasic.c ****                 map_p ++;
 784              		.loc 4 187 0
 785 0368 FB6A     		ldr	r3, [r7, #44]
 786 036a 0133     		adds	r3, r3, #1
 787 036c FB62     		str	r3, [r7, #44]
 788              	.L43:
 174:..\..\..\display\lvgl\lv_draw/lv_draw_rbasic.c ****             letter_px = (*map_p & mask) >> (8 - col_bit - bpp);
 789              		.loc 4 174 0 discriminator 2
 790 036e B7F92A30 		ldrsh	r3, [r7, #42]
 791 0372 9BB2     		uxth	r3, r3
ARM GAS  C:\Users\pearlstl\AppData\Local\Temp\ccc6DM2e.s 			page 28


 792 0374 0133     		adds	r3, r3, #1
 793 0376 9BB2     		uxth	r3, r3
 794 0378 7B85     		strh	r3, [r7, #42]	@ movhi
 795              	.L38:
 174:..\..\..\display\lvgl\lv_draw/lv_draw_rbasic.c ****             letter_px = (*map_p & mask) >> (8 - col_bit - bpp);
 796              		.loc 4 174 0 is_stmt 0 discriminator 1
 797 037a B7F92A20 		ldrsh	r2, [r7, #42]
 798 037e B7F91C30 		ldrsh	r3, [r7, #28]
 799 0382 9A42     		cmp	r2, r3
 800 0384 84DB     		blt	.L44
 188:..\..\..\display\lvgl\lv_draw/lv_draw_rbasic.c ****             }
 189:..\..\..\display\lvgl\lv_draw/lv_draw_rbasic.c ****         }
 190:..\..\..\display\lvgl\lv_draw/lv_draw_rbasic.c **** 
 191:..\..\..\display\lvgl\lv_draw/lv_draw_rbasic.c ****         map_p += (width_byte_bpp) - col_byte_cnt;
 801              		.loc 4 191 0 is_stmt 1 discriminator 2
 802 0386 97F82520 		ldrb	r2, [r7, #37]	@ zero_extendqisi2
 803 038a 97F82630 		ldrb	r3, [r7, #38]	@ zero_extendqisi2
 804 038e D31A     		subs	r3, r2, r3
 805 0390 1A46     		mov	r2, r3
 806 0392 FB6A     		ldr	r3, [r7, #44]
 807 0394 1344     		add	r3, r3, r2
 808 0396 FB62     		str	r3, [r7, #44]
 170:..\..\..\display\lvgl\lv_draw/lv_draw_rbasic.c ****         col_byte_cnt = 0;
 809              		.loc 4 170 0 discriminator 2
 810 0398 B7F92830 		ldrsh	r3, [r7, #40]
 811 039c 9BB2     		uxth	r3, r3
 812 039e 0133     		adds	r3, r3, #1
 813 03a0 9BB2     		uxth	r3, r3
 814 03a2 3B85     		strh	r3, [r7, #40]	@ movhi
 815              	.L36:
 170:..\..\..\display\lvgl\lv_draw/lv_draw_rbasic.c ****         col_byte_cnt = 0;
 816              		.loc 4 170 0 is_stmt 0 discriminator 1
 817 03a4 B7F92820 		ldrsh	r2, [r7, #40]
 818 03a8 B7F91830 		ldrsh	r3, [r7, #24]
 819 03ac 9A42     		cmp	r2, r3
 820 03ae FFF651AF 		blt	.L45
 821 03b2 06E0     		b	.L13
 822              	.L46:
 114:..\..\..\display\lvgl\lv_draw/lv_draw_rbasic.c **** 
 823              		.loc 4 114 0 is_stmt 1
 824 03b4 00BF     		nop
 825 03b6 04E0     		b	.L13
 826              	.L47:
 141:..\..\..\display\lvgl\lv_draw/lv_draw_rbasic.c ****     }
 827              		.loc 4 141 0
 828 03b8 00BF     		nop
 829 03ba 02E0     		b	.L13
 830              	.L48:
 146:..\..\..\display\lvgl\lv_draw/lv_draw_rbasic.c **** 
 831              		.loc 4 146 0
 832 03bc 00BF     		nop
 833 03be 00E0     		b	.L13
 834              	.L49:
 150:..\..\..\display\lvgl\lv_draw/lv_draw_rbasic.c **** 
 835              		.loc 4 150 0
 836 03c0 00BF     		nop
 837              	.L13:
ARM GAS  C:\Users\pearlstl\AppData\Local\Temp\ccc6DM2e.s 			page 29


 192:..\..\..\display\lvgl\lv_draw/lv_draw_rbasic.c ****     }
 193:..\..\..\display\lvgl\lv_draw/lv_draw_rbasic.c **** }
 838              		.loc 4 193 0
 839 03c2 3837     		adds	r7, r7, #56
 840              		.cfi_def_cfa_offset 16
 841 03c4 BD46     		mov	sp, r7
 842              		.cfi_def_cfa_register 13
 843              		@ sp needed
 844 03c6 B0BD     		pop	{r4, r5, r7, pc}
 845              		.cfi_endproc
 846              	.LFE14:
 847              		.size	lv_rletter, .-lv_rletter
 848              		.section	.text.lv_rletter_set_background,"ax",%progbits
 849              		.align	2
 850              		.global	lv_rletter_set_background
 851              		.thumb
 852              		.thumb_func
 853              		.type	lv_rletter_set_background, %function
 854              	lv_rletter_set_background:
 855              	.LFB15:
 194:..\..\..\display\lvgl\lv_draw/lv_draw_rbasic.c **** 
 195:..\..\..\display\lvgl\lv_draw/lv_draw_rbasic.c **** /**
 196:..\..\..\display\lvgl\lv_draw/lv_draw_rbasic.c ****  * When the letter is ant-aliased it needs to know the background color
 197:..\..\..\display\lvgl\lv_draw/lv_draw_rbasic.c ****  * @param bg_color the background color of the currently drawn letter
 198:..\..\..\display\lvgl\lv_draw/lv_draw_rbasic.c ****  */
 199:..\..\..\display\lvgl\lv_draw/lv_draw_rbasic.c **** void lv_rletter_set_background(lv_color_t color)
 200:..\..\..\display\lvgl\lv_draw/lv_draw_rbasic.c **** {
 856              		.loc 4 200 0
 857              		.cfi_startproc
 858              		@ args = 0, pretend = 0, frame = 8
 859              		@ frame_needed = 1, uses_anonymous_args = 0
 860              		@ link register save eliminated.
 861 0000 80B4     		push	{r7}
 862              		.cfi_def_cfa_offset 4
 863              		.cfi_offset 7, -4
 864 0002 83B0     		sub	sp, sp, #12
 865              		.cfi_def_cfa_offset 16
 866 0004 00AF     		add	r7, sp, #0
 867              		.cfi_def_cfa_register 7
 868 0006 7860     		str	r0, [r7, #4]
 201:..\..\..\display\lvgl\lv_draw/lv_draw_rbasic.c ****     letter_bg_color = color;
 869              		.loc 4 201 0
 870 0008 044A     		ldr	r2, .L53
 871 000a 7B68     		ldr	r3, [r7, #4]
 872 000c 1360     		str	r3, [r2]
 202:..\..\..\display\lvgl\lv_draw/lv_draw_rbasic.c **** }
 873              		.loc 4 202 0
 874 000e 00BF     		nop
 875 0010 0C37     		adds	r7, r7, #12
 876              		.cfi_def_cfa_offset 4
 877 0012 BD46     		mov	sp, r7
 878              		.cfi_def_cfa_register 13
 879              		@ sp needed
 880 0014 5DF8047B 		ldr	r7, [sp], #4
 881              		.cfi_restore 7
 882              		.cfi_def_cfa_offset 0
 883 0018 7047     		bx	lr
ARM GAS  C:\Users\pearlstl\AppData\Local\Temp\ccc6DM2e.s 			page 30


 884              	.L54:
 885 001a 00BF     		.align	2
 886              	.L53:
 887 001c 00000000 		.word	letter_bg_color
 888              		.cfi_endproc
 889              	.LFE15:
 890              		.size	lv_rletter_set_background, .-lv_rletter_set_background
 891              		.section	.text.lv_rmap,"ax",%progbits
 892              		.align	2
 893              		.global	lv_rmap
 894              		.thumb
 895              		.thumb_func
 896              		.type	lv_rmap, %function
 897              	lv_rmap:
 898              	.LFB16:
 203:..\..\..\display\lvgl\lv_draw/lv_draw_rbasic.c **** 
 204:..\..\..\display\lvgl\lv_draw/lv_draw_rbasic.c **** /**
 205:..\..\..\display\lvgl\lv_draw/lv_draw_rbasic.c ****  * Draw a color map to the display (image)
 206:..\..\..\display\lvgl\lv_draw/lv_draw_rbasic.c ****  * @param cords_p coordinates the color map
 207:..\..\..\display\lvgl\lv_draw/lv_draw_rbasic.c ****  * @param mask_p the map will drawn only on this area
 208:..\..\..\display\lvgl\lv_draw/lv_draw_rbasic.c ****  * @param map_p pointer to a lv_color_t array
 209:..\..\..\display\lvgl\lv_draw/lv_draw_rbasic.c ****  * @param opa opacity of the map (ignored, only for compatibility with 'lv_vmap')
 210:..\..\..\display\lvgl\lv_draw/lv_draw_rbasic.c ****  * @param chroma_keyed true: enable transparency of LV_IMG_LV_COLOR_TRANSP color pixels
 211:..\..\..\display\lvgl\lv_draw/lv_draw_rbasic.c ****  * @param alpha_byte true: extra alpha byte is inserted for every pixel (not supported, only l'v_vm
 212:..\..\..\display\lvgl\lv_draw/lv_draw_rbasic.c ****  * @param recolor mix the pixels with this color
 213:..\..\..\display\lvgl\lv_draw/lv_draw_rbasic.c ****  * @param recolor_opa the intense of recoloring
 214:..\..\..\display\lvgl\lv_draw/lv_draw_rbasic.c ****  */
 215:..\..\..\display\lvgl\lv_draw/lv_draw_rbasic.c **** void lv_rmap(const lv_area_t * cords_p, const lv_area_t * mask_p,
 216:..\..\..\display\lvgl\lv_draw/lv_draw_rbasic.c ****              const uint8_t * map_p, lv_opa_t opa, bool chroma_key, bool alpha_byte,
 217:..\..\..\display\lvgl\lv_draw/lv_draw_rbasic.c ****              lv_color_t recolor, lv_opa_t recolor_opa)
 218:..\..\..\display\lvgl\lv_draw/lv_draw_rbasic.c **** {
 899              		.loc 4 218 0
 900              		.cfi_startproc
 901              		@ args = 16, pretend = 0, frame = 48
 902              		@ frame_needed = 1, uses_anonymous_args = 0
 903 0000 90B5     		push	{r4, r7, lr}
 904              		.cfi_def_cfa_offset 12
 905              		.cfi_offset 4, -12
 906              		.cfi_offset 7, -8
 907              		.cfi_offset 14, -4
 908 0002 8FB0     		sub	sp, sp, #60
 909              		.cfi_def_cfa_offset 72
 910 0004 02AF     		add	r7, sp, #8
 911              		.cfi_def_cfa 7, 64
 912 0006 F860     		str	r0, [r7, #12]
 913 0008 B960     		str	r1, [r7, #8]
 914 000a 7A60     		str	r2, [r7, #4]
 915 000c FB70     		strb	r3, [r7, #3]
 219:..\..\..\display\lvgl\lv_draw/lv_draw_rbasic.c ****     if(alpha_byte) return;      /*Pixel level opacity i not supported in real map drawing*/
 916              		.loc 4 219 0
 917 000e 97F84430 		ldrb	r3, [r7, #68]	@ zero_extendqisi2
 918 0012 002B     		cmp	r3, #0
 919 0014 40F0D380 		bne	.L71
 220:..\..\..\display\lvgl\lv_draw/lv_draw_rbasic.c **** 
 221:..\..\..\display\lvgl\lv_draw/lv_draw_rbasic.c ****     (void)opa;              /*opa is used only for compatibility with lv_vmap*/
 222:..\..\..\display\lvgl\lv_draw/lv_draw_rbasic.c ****     lv_area_t masked_a;
 223:..\..\..\display\lvgl\lv_draw/lv_draw_rbasic.c ****     bool union_ok;
ARM GAS  C:\Users\pearlstl\AppData\Local\Temp\ccc6DM2e.s 			page 31


 224:..\..\..\display\lvgl\lv_draw/lv_draw_rbasic.c **** 
 225:..\..\..\display\lvgl\lv_draw/lv_draw_rbasic.c ****     union_ok = lv_area_intersect(&masked_a, cords_p, mask_p);
 920              		.loc 4 225 0
 921 0018 07F11803 		add	r3, r7, #24
 922 001c BA68     		ldr	r2, [r7, #8]
 923 001e F968     		ldr	r1, [r7, #12]
 924 0020 1846     		mov	r0, r3
 925 0022 FFF7FEFF 		bl	lv_area_intersect
 926 0026 0346     		mov	r3, r0
 927 0028 87F82B30 		strb	r3, [r7, #43]
 226:..\..\..\display\lvgl\lv_draw/lv_draw_rbasic.c **** 
 227:..\..\..\display\lvgl\lv_draw/lv_draw_rbasic.c ****     /*If there are common part of the mask and map then draw the map*/
 228:..\..\..\display\lvgl\lv_draw/lv_draw_rbasic.c ****     if(union_ok == false) return;
 928              		.loc 4 228 0
 929 002c 97F82B30 		ldrb	r3, [r7, #43]
 930 0030 83F00103 		eor	r3, r3, #1
 931 0034 DBB2     		uxtb	r3, r3
 932 0036 002B     		cmp	r3, #0
 933 0038 40F0C380 		bne	.L72
 229:..\..\..\display\lvgl\lv_draw/lv_draw_rbasic.c **** 
 230:..\..\..\display\lvgl\lv_draw/lv_draw_rbasic.c ****     /*Go to the first pixel*/
 231:..\..\..\display\lvgl\lv_draw/lv_draw_rbasic.c ****     lv_coord_t map_width = lv_area_get_width(cords_p);
 934              		.loc 4 231 0
 935 003c F868     		ldr	r0, [r7, #12]
 936 003e FFF7FEFF 		bl	lv_area_get_width
 937 0042 0346     		mov	r3, r0
 938 0044 3B85     		strh	r3, [r7, #40]	@ movhi
 232:..\..\..\display\lvgl\lv_draw/lv_draw_rbasic.c ****     map_p += (masked_a.y1 - cords_p->y1) * map_width * sizeof(lv_color_t);
 939              		.loc 4 232 0
 940 0046 B7F91A30 		ldrsh	r3, [r7, #26]
 941 004a 1A46     		mov	r2, r3
 942 004c FB68     		ldr	r3, [r7, #12]
 943 004e B3F90230 		ldrsh	r3, [r3, #2]
 944 0052 D31A     		subs	r3, r2, r3
 945 0054 B7F92820 		ldrsh	r2, [r7, #40]
 946 0058 02FB03F3 		mul	r3, r2, r3
 947 005c 9B00     		lsls	r3, r3, #2
 948 005e 7A68     		ldr	r2, [r7, #4]
 949 0060 1344     		add	r3, r3, r2
 950 0062 7B60     		str	r3, [r7, #4]
 233:..\..\..\display\lvgl\lv_draw/lv_draw_rbasic.c ****     map_p += (masked_a.x1 - cords_p->x1) * sizeof(lv_color_t);
 951              		.loc 4 233 0
 952 0064 B7F91830 		ldrsh	r3, [r7, #24]
 953 0068 1A46     		mov	r2, r3
 954 006a FB68     		ldr	r3, [r7, #12]
 955 006c B3F90030 		ldrsh	r3, [r3]
 956 0070 D31A     		subs	r3, r2, r3
 957 0072 9B00     		lsls	r3, r3, #2
 958 0074 7A68     		ldr	r2, [r7, #4]
 959 0076 1344     		add	r3, r3, r2
 960 0078 7B60     		str	r3, [r7, #4]
 234:..\..\..\display\lvgl\lv_draw/lv_draw_rbasic.c **** 
 235:..\..\..\display\lvgl\lv_draw/lv_draw_rbasic.c ****     lv_coord_t row;
 236:..\..\..\display\lvgl\lv_draw/lv_draw_rbasic.c ****     if(recolor_opa == LV_OPA_TRANSP && chroma_key == false) {
 961              		.loc 4 236 0
 962 007a 97F84C30 		ldrb	r3, [r7, #76]	@ zero_extendqisi2
 963 007e 002B     		cmp	r3, #0
ARM GAS  C:\Users\pearlstl\AppData\Local\Temp\ccc6DM2e.s 			page 32


 964 0080 39D1     		bne	.L59
 965              		.loc 4 236 0 is_stmt 0 discriminator 1
 966 0082 97F84030 		ldrb	r3, [r7, #64]
 967 0086 83F00103 		eor	r3, r3, #1
 968 008a DBB2     		uxtb	r3, r3
 969 008c 002B     		cmp	r3, #0
 970 008e 32D0     		beq	.L59
 971              	.LBB3:
 237:..\..\..\display\lvgl\lv_draw/lv_draw_rbasic.c ****         lv_coord_t mask_w = lv_area_get_width(&masked_a) - 1;
 972              		.loc 4 237 0 is_stmt 1
 973 0090 07F11803 		add	r3, r7, #24
 974 0094 1846     		mov	r0, r3
 975 0096 FFF7FEFF 		bl	lv_area_get_width
 976 009a 0346     		mov	r3, r0
 977 009c 9BB2     		uxth	r3, r3
 978 009e 013B     		subs	r3, r3, #1
 979 00a0 9BB2     		uxth	r3, r3
 980 00a2 FB84     		strh	r3, [r7, #38]	@ movhi
 238:..\..\..\display\lvgl\lv_draw/lv_draw_rbasic.c ****         for(row = masked_a.y1; row <= masked_a.y2; row++) {
 981              		.loc 4 238 0
 982 00a4 7B8B     		ldrh	r3, [r7, #26]	@ movhi
 983 00a6 FB85     		strh	r3, [r7, #46]	@ movhi
 984 00a8 1EE0     		b	.L60
 985              	.L61:
 239:..\..\..\display\lvgl\lv_draw/lv_draw_rbasic.c ****             lv_disp_map(masked_a.x1, row, masked_a.x1 + mask_w, row, (lv_color_t *)map_p);
 986              		.loc 4 239 0 discriminator 3
 987 00aa B7F91830 		ldrsh	r3, [r7, #24]
 988 00ae 1C46     		mov	r4, r3
 989 00b0 B7F92E10 		ldrsh	r1, [r7, #46]
 990 00b4 B7F91830 		ldrsh	r3, [r7, #24]
 991 00b8 1A46     		mov	r2, r3
 992 00ba B7F92630 		ldrsh	r3, [r7, #38]
 993 00be 1A44     		add	r2, r2, r3
 994 00c0 B7F92E00 		ldrsh	r0, [r7, #46]
 995 00c4 7B68     		ldr	r3, [r7, #4]
 996 00c6 0093     		str	r3, [sp]
 997 00c8 0346     		mov	r3, r0
 998 00ca 2046     		mov	r0, r4
 999 00cc FFF7FEFF 		bl	lv_disp_map
 240:..\..\..\display\lvgl\lv_draw/lv_draw_rbasic.c ****             map_p += map_width * sizeof(lv_color_t);               /*Next row on the map*/
 1000              		.loc 4 240 0 discriminator 3
 1001 00d0 B7F92830 		ldrsh	r3, [r7, #40]
 1002 00d4 9B00     		lsls	r3, r3, #2
 1003 00d6 7A68     		ldr	r2, [r7, #4]
 1004 00d8 1344     		add	r3, r3, r2
 1005 00da 7B60     		str	r3, [r7, #4]
 238:..\..\..\display\lvgl\lv_draw/lv_draw_rbasic.c ****         for(row = masked_a.y1; row <= masked_a.y2; row++) {
 1006              		.loc 4 238 0 discriminator 3
 1007 00dc B7F92E30 		ldrsh	r3, [r7, #46]
 1008 00e0 9BB2     		uxth	r3, r3
 1009 00e2 0133     		adds	r3, r3, #1
 1010 00e4 9BB2     		uxth	r3, r3
 1011 00e6 FB85     		strh	r3, [r7, #46]	@ movhi
 1012              	.L60:
 238:..\..\..\display\lvgl\lv_draw/lv_draw_rbasic.c ****         for(row = masked_a.y1; row <= masked_a.y2; row++) {
 1013              		.loc 4 238 0 is_stmt 0 discriminator 1
 1014 00e8 B7F91E30 		ldrsh	r3, [r7, #30]
ARM GAS  C:\Users\pearlstl\AppData\Local\Temp\ccc6DM2e.s 			page 33


 1015 00ec B7F92E20 		ldrsh	r2, [r7, #46]
 1016 00f0 9A42     		cmp	r2, r3
 1017 00f2 DADD     		ble	.L61
 1018              	.LBE3:
 236:..\..\..\display\lvgl\lv_draw/lv_draw_rbasic.c ****         lv_coord_t mask_w = lv_area_get_width(&masked_a) - 1;
 1019              		.loc 4 236 0 is_stmt 1
 1020 00f4 66E0     		b	.L55
 1021              	.L59:
 1022              	.LBB4:
 241:..\..\..\display\lvgl\lv_draw/lv_draw_rbasic.c ****         }
 242:..\..\..\display\lvgl\lv_draw/lv_draw_rbasic.c ****     } else {
 243:..\..\..\display\lvgl\lv_draw/lv_draw_rbasic.c ****         lv_color_t chroma_key_color = LV_COLOR_TRANSP;
 1023              		.loc 4 243 0
 1024 00f6 0023     		movs	r3, #0
 1025 00f8 3B75     		strb	r3, [r7, #20]
 1026 00fa FF23     		movs	r3, #255
 1027 00fc 7B75     		strb	r3, [r7, #21]
 1028 00fe 0023     		movs	r3, #0
 1029 0100 BB75     		strb	r3, [r7, #22]
 1030 0102 FF23     		movs	r3, #255
 1031 0104 FB75     		strb	r3, [r7, #23]
 244:..\..\..\display\lvgl\lv_draw/lv_draw_rbasic.c ****         lv_coord_t col;
 245:..\..\..\display\lvgl\lv_draw/lv_draw_rbasic.c ****         for(row = masked_a.y1; row <= masked_a.y2; row++) {
 1032              		.loc 4 245 0
 1033 0106 7B8B     		ldrh	r3, [r7, #26]	@ movhi
 1034 0108 FB85     		strh	r3, [r7, #46]	@ movhi
 1035 010a 51E0     		b	.L63
 1036              	.L69:
 246:..\..\..\display\lvgl\lv_draw/lv_draw_rbasic.c ****             for(col = masked_a.x1; col <= masked_a.x2; col++) {
 1037              		.loc 4 246 0
 1038 010c 3B8B     		ldrh	r3, [r7, #24]	@ movhi
 1039 010e BB85     		strh	r3, [r7, #44]	@ movhi
 1040 0110 3CE0     		b	.L64
 1041              	.L68:
 1042              	.LBB5:
 247:..\..\..\display\lvgl\lv_draw/lv_draw_rbasic.c ****                 lv_color_t * px_color = (lv_color_t *) &map_p[(uint32_t)(col - masked_a.x1) * sizeo
 1043              		.loc 4 247 0
 1044 0112 B7F92C30 		ldrsh	r3, [r7, #44]
 1045 0116 B7F91820 		ldrsh	r2, [r7, #24]
 1046 011a 9B1A     		subs	r3, r3, r2
 1047 011c 9B00     		lsls	r3, r3, #2
 1048 011e 7A68     		ldr	r2, [r7, #4]
 1049 0120 1344     		add	r3, r3, r2
 1050 0122 3B62     		str	r3, [r7, #32]
 248:..\..\..\display\lvgl\lv_draw/lv_draw_rbasic.c **** 
 249:..\..\..\display\lvgl\lv_draw/lv_draw_rbasic.c ****                 if(chroma_key && chroma_key_color.full == px_color->full) continue;
 1051              		.loc 4 249 0
 1052 0124 97F84030 		ldrb	r3, [r7, #64]	@ zero_extendqisi2
 1053 0128 002B     		cmp	r3, #0
 1054 012a 04D0     		beq	.L65
 1055              		.loc 4 249 0 is_stmt 0 discriminator 1
 1056 012c 7A69     		ldr	r2, [r7, #20]
 1057 012e 3B6A     		ldr	r3, [r7, #32]
 1058 0130 1B68     		ldr	r3, [r3]
 1059 0132 9A42     		cmp	r2, r3
 1060 0134 23D0     		beq	.L73
 1061              	.L65:
ARM GAS  C:\Users\pearlstl\AppData\Local\Temp\ccc6DM2e.s 			page 34


 250:..\..\..\display\lvgl\lv_draw/lv_draw_rbasic.c **** 
 251:..\..\..\display\lvgl\lv_draw/lv_draw_rbasic.c ****                 if(recolor_opa != LV_OPA_TRANSP) {
 1062              		.loc 4 251 0 is_stmt 1
 1063 0136 97F84C30 		ldrb	r3, [r7, #76]	@ zero_extendqisi2
 1064 013a 002B     		cmp	r3, #0
 1065 013c 13D0     		beq	.L67
 1066              	.LBB6:
 252:..\..\..\display\lvgl\lv_draw/lv_draw_rbasic.c ****                     lv_color_t recolored_px = lv_color_mix(recolor, *px_color, recolor_opa);
 1067              		.loc 4 252 0
 1068 013e 97F84C20 		ldrb	r2, [r7, #76]	@ zero_extendqisi2
 1069 0142 3B6A     		ldr	r3, [r7, #32]
 1070 0144 1968     		ldr	r1, [r3]
 1071 0146 B86C     		ldr	r0, [r7, #72]
 1072 0148 FFF7FEFF 		bl	lv_color_mix
 1073 014c 0346     		mov	r3, r0
 1074 014e 3B61     		str	r3, [r7, #16]
 253:..\..\..\display\lvgl\lv_draw/lv_draw_rbasic.c **** 
 254:..\..\..\display\lvgl\lv_draw/lv_draw_rbasic.c ****                     lv_rpx(col, row, mask_p, recolored_px, LV_OPA_COVER);
 1075              		.loc 4 254 0
 1076 0150 B7F92E10 		ldrsh	r1, [r7, #46]
 1077 0154 B7F92C00 		ldrsh	r0, [r7, #44]
 1078 0158 FF23     		movs	r3, #255
 1079 015a 0093     		str	r3, [sp]
 1080 015c 3B69     		ldr	r3, [r7, #16]
 1081 015e BA68     		ldr	r2, [r7, #8]
 1082 0160 FFF7FEFF 		bl	lv_rpx
 1083              	.LBE6:
 1084 0164 0CE0     		b	.L66
 1085              	.L67:
 255:..\..\..\display\lvgl\lv_draw/lv_draw_rbasic.c ****                 } else {
 256:..\..\..\display\lvgl\lv_draw/lv_draw_rbasic.c ****                     lv_rpx(col, row, mask_p, *px_color, LV_OPA_COVER);
 1086              		.loc 4 256 0
 1087 0166 3B6A     		ldr	r3, [r7, #32]
 1088 0168 B7F92E10 		ldrsh	r1, [r7, #46]
 1089 016c B7F92C00 		ldrsh	r0, [r7, #44]
 1090 0170 FF22     		movs	r2, #255
 1091 0172 0092     		str	r2, [sp]
 1092 0174 1B68     		ldr	r3, [r3]
 1093 0176 BA68     		ldr	r2, [r7, #8]
 1094 0178 FFF7FEFF 		bl	lv_rpx
 1095 017c 00E0     		b	.L66
 1096              	.L73:
 249:..\..\..\display\lvgl\lv_draw/lv_draw_rbasic.c **** 
 1097              		.loc 4 249 0
 1098 017e 00BF     		nop
 1099              	.L66:
 1100              	.LBE5:
 246:..\..\..\display\lvgl\lv_draw/lv_draw_rbasic.c ****                 lv_color_t * px_color = (lv_color_t *) &map_p[(uint32_t)(col - masked_a.x1) * sizeo
 1101              		.loc 4 246 0 discriminator 2
 1102 0180 B7F92C30 		ldrsh	r3, [r7, #44]
 1103 0184 9BB2     		uxth	r3, r3
 1104 0186 0133     		adds	r3, r3, #1
 1105 0188 9BB2     		uxth	r3, r3
 1106 018a BB85     		strh	r3, [r7, #44]	@ movhi
 1107              	.L64:
 246:..\..\..\display\lvgl\lv_draw/lv_draw_rbasic.c ****                 lv_color_t * px_color = (lv_color_t *) &map_p[(uint32_t)(col - masked_a.x1) * sizeo
 1108              		.loc 4 246 0 is_stmt 0 discriminator 1
ARM GAS  C:\Users\pearlstl\AppData\Local\Temp\ccc6DM2e.s 			page 35


 1109 018c B7F91C30 		ldrsh	r3, [r7, #28]
 1110 0190 B7F92C20 		ldrsh	r2, [r7, #44]
 1111 0194 9A42     		cmp	r2, r3
 1112 0196 BCDD     		ble	.L68
 257:..\..\..\display\lvgl\lv_draw/lv_draw_rbasic.c ****                 }
 258:..\..\..\display\lvgl\lv_draw/lv_draw_rbasic.c **** 
 259:..\..\..\display\lvgl\lv_draw/lv_draw_rbasic.c ****             }
 260:..\..\..\display\lvgl\lv_draw/lv_draw_rbasic.c ****             map_p += map_width * sizeof(lv_color_t);               /*Next row on the map*/
 1113              		.loc 4 260 0 is_stmt 1 discriminator 2
 1114 0198 B7F92830 		ldrsh	r3, [r7, #40]
 1115 019c 9B00     		lsls	r3, r3, #2
 1116 019e 7A68     		ldr	r2, [r7, #4]
 1117 01a0 1344     		add	r3, r3, r2
 1118 01a2 7B60     		str	r3, [r7, #4]
 245:..\..\..\display\lvgl\lv_draw/lv_draw_rbasic.c ****             for(col = masked_a.x1; col <= masked_a.x2; col++) {
 1119              		.loc 4 245 0 discriminator 2
 1120 01a4 B7F92E30 		ldrsh	r3, [r7, #46]
 1121 01a8 9BB2     		uxth	r3, r3
 1122 01aa 0133     		adds	r3, r3, #1
 1123 01ac 9BB2     		uxth	r3, r3
 1124 01ae FB85     		strh	r3, [r7, #46]	@ movhi
 1125              	.L63:
 245:..\..\..\display\lvgl\lv_draw/lv_draw_rbasic.c ****             for(col = masked_a.x1; col <= masked_a.x2; col++) {
 1126              		.loc 4 245 0 is_stmt 0 discriminator 1
 1127 01b0 B7F91E30 		ldrsh	r3, [r7, #30]
 1128 01b4 B7F92E20 		ldrsh	r2, [r7, #46]
 1129 01b8 9A42     		cmp	r2, r3
 1130 01ba A7DD     		ble	.L69
 1131 01bc 02E0     		b	.L55
 1132              	.L71:
 1133              	.LBE4:
 219:..\..\..\display\lvgl\lv_draw/lv_draw_rbasic.c **** 
 1134              		.loc 4 219 0 is_stmt 1
 1135 01be 00BF     		nop
 1136 01c0 00E0     		b	.L55
 1137              	.L72:
 228:..\..\..\display\lvgl\lv_draw/lv_draw_rbasic.c **** 
 1138              		.loc 4 228 0
 1139 01c2 00BF     		nop
 1140              	.L55:
 261:..\..\..\display\lvgl\lv_draw/lv_draw_rbasic.c ****         }
 262:..\..\..\display\lvgl\lv_draw/lv_draw_rbasic.c ****     }
 263:..\..\..\display\lvgl\lv_draw/lv_draw_rbasic.c **** }
 1141              		.loc 4 263 0
 1142 01c4 3437     		adds	r7, r7, #52
 1143              		.cfi_def_cfa_offset 12
 1144 01c6 BD46     		mov	sp, r7
 1145              		.cfi_def_cfa_register 13
 1146              		@ sp needed
 1147 01c8 90BD     		pop	{r4, r7, pc}
 1148              		.cfi_endproc
 1149              	.LFE16:
 1150              		.size	lv_rmap, .-lv_rmap
 1151 01ca 00BF     		.data
 1152              		.align	2
 1153              		.type	bpp1_opa_table.5745, %object
 1154              		.size	bpp1_opa_table.5745, 2
ARM GAS  C:\Users\pearlstl\AppData\Local\Temp\ccc6DM2e.s 			page 36


 1155              	bpp1_opa_table.5745:
 1156 0000 00       		.byte	0
 1157 0001 FF       		.byte	-1
 1158 0002 0000     		.align	2
 1159              		.type	bpp2_opa_table.5746, %object
 1160              		.size	bpp2_opa_table.5746, 4
 1161              	bpp2_opa_table.5746:
 1162 0004 00       		.byte	0
 1163 0005 55       		.byte	85
 1164 0006 AA       		.byte	-86
 1165 0007 FF       		.byte	-1
 1166              		.align	2
 1167              		.type	bpp4_opa_table.5747, %object
 1168              		.size	bpp4_opa_table.5747, 16
 1169              	bpp4_opa_table.5747:
 1170 0008 00       		.byte	0
 1171 0009 11       		.byte	17
 1172 000a 22       		.byte	34
 1173 000b 33       		.byte	51
 1174 000c 44       		.byte	68
 1175 000d 55       		.byte	85
 1176 000e 66       		.byte	102
 1177 000f 77       		.byte	119
 1178 0010 88       		.byte	-120
 1179 0011 99       		.byte	-103
 1180 0012 AA       		.byte	-86
 1181 0013 BB       		.byte	-69
 1182 0014 CC       		.byte	-52
 1183 0015 DD       		.byte	-35
 1184 0016 EE       		.byte	-18
 1185 0017 FF       		.byte	-1
 1186              		.text
 1187              	.Letext0:
 1188              		.file 5 "c:\\program files (x86)\\cypress\\psoc creator\\4.2\\psoc creator\\import\\gnu\\arm\\5.4.
 1189              		.file 6 "c:\\program files (x86)\\cypress\\psoc creator\\4.2\\psoc creator\\import\\gnu\\arm\\5.4.