ARM GAS  C:\Users\pearlstl\AppData\Local\Temp\ccc6DM2e.s 			page 1


   1              		.syntax unified
   2              		.cpu cortex-m4
   3              		.eabi_attribute 27, 1
   4              		.fpu fpv4-sp-d16
   5              		.eabi_attribute 20, 1
   6              		.eabi_attribute 21, 1
   7              		.eabi_attribute 23, 3
   8              		.eabi_attribute 24, 1
   9              		.eabi_attribute 25, 1
  10              		.eabi_attribute 26, 1
  11              		.eabi_attribute 30, 6
  12              		.eabi_attribute 34, 1
  13              		.eabi_attribute 18, 4
  14              		.thumb
  15              		.syntax unified
  16              		.file	"lv_draw_rbasic.c"
  17              		.text
  18              	.Ltext0:
  19              		.cfi_sections	.debug_frame
  20              		.section	.text.lv_color_mix,"ax",%progbits
  21              		.align	2
  22              		.thumb
  23              		.thumb_func
  24              		.type	lv_color_mix, %function
  25              	lv_color_mix:
  26              	.LFB4:
  27              		.file 1 "..\\..\\..\\display\\lvgl\\lv_draw\\../lv_misc/lv_color.h"
   1:..\..\..\display\lvgl\lv_draw\../lv_misc/lv_color.h **** /**
   2:..\..\..\display\lvgl\lv_draw\../lv_misc/lv_color.h ****  * @file lv_color.h
   3:..\..\..\display\lvgl\lv_draw\../lv_misc/lv_color.h ****  *
   4:..\..\..\display\lvgl\lv_draw\../lv_misc/lv_color.h ****  */
   5:..\..\..\display\lvgl\lv_draw\../lv_misc/lv_color.h **** 
   6:..\..\..\display\lvgl\lv_draw\../lv_misc/lv_color.h **** #ifndef LV_COLOR_H
   7:..\..\..\display\lvgl\lv_draw\../lv_misc/lv_color.h **** #define LV_COLOR_H
   8:..\..\..\display\lvgl\lv_draw\../lv_misc/lv_color.h **** 
   9:..\..\..\display\lvgl\lv_draw\../lv_misc/lv_color.h **** #ifdef __cplusplus
  10:..\..\..\display\lvgl\lv_draw\../lv_misc/lv_color.h **** extern "C" {
  11:..\..\..\display\lvgl\lv_draw\../lv_misc/lv_color.h **** #endif
  12:..\..\..\display\lvgl\lv_draw\../lv_misc/lv_color.h **** 
  13:..\..\..\display\lvgl\lv_draw\../lv_misc/lv_color.h **** /*********************
  14:..\..\..\display\lvgl\lv_draw\../lv_misc/lv_color.h ****  *      INCLUDES
  15:..\..\..\display\lvgl\lv_draw\../lv_misc/lv_color.h ****  *********************/
  16:..\..\..\display\lvgl\lv_draw\../lv_misc/lv_color.h **** #ifdef LV_CONF_INCLUDE_SIMPLE
  17:..\..\..\display\lvgl\lv_draw\../lv_misc/lv_color.h **** #include "lv_conf.h"
  18:..\..\..\display\lvgl\lv_draw\../lv_misc/lv_color.h **** #else
  19:..\..\..\display\lvgl\lv_draw\../lv_misc/lv_color.h **** #include "../../lv_conf.h"
  20:..\..\..\display\lvgl\lv_draw\../lv_misc/lv_color.h **** #endif
  21:..\..\..\display\lvgl\lv_draw\../lv_misc/lv_color.h **** 
  22:..\..\..\display\lvgl\lv_draw\../lv_misc/lv_color.h **** /*Error checking*/
  23:..\..\..\display\lvgl\lv_draw\../lv_misc/lv_color.h **** #if LV_COLOR_DEPTH == 24
  24:..\..\..\display\lvgl\lv_draw\../lv_misc/lv_color.h **** #error "LV_COLOR_DEPTH  24 is deprecated. Use LV_COLOR_DEPTH  32 instead (lv_conf.h)"
  25:..\..\..\display\lvgl\lv_draw\../lv_misc/lv_color.h **** #endif
  26:..\..\..\display\lvgl\lv_draw\../lv_misc/lv_color.h **** 
  27:..\..\..\display\lvgl\lv_draw\../lv_misc/lv_color.h **** #if LV_COLOR_DEPTH != 32 && LV_COLOR_SCREEN_TRANSP != 0
  28:..\..\..\display\lvgl\lv_draw\../lv_misc/lv_color.h **** #error "LV_COLOR_SCREEN_TRANSP requires LV_COLOR_DEPTH == 32. Set it in lv_conf.h"
  29:..\..\..\display\lvgl\lv_draw\../lv_misc/lv_color.h **** #endif
  30:..\..\..\display\lvgl\lv_draw\../lv_misc/lv_color.h **** 
ARM GAS  C:\Users\pearlstl\AppData\Local\Temp\ccc6DM2e.s 			page 2


  31:..\..\..\display\lvgl\lv_draw\../lv_misc/lv_color.h **** #if LV_COLOR_DEPTH != 16 && LV_COLOR_16_SWAP != 0
  32:..\..\..\display\lvgl\lv_draw\../lv_misc/lv_color.h **** #error "LV_COLOR_16_SWAP requires LV_COLOR_DEPTH == 16. Set it in lv_conf.h"
  33:..\..\..\display\lvgl\lv_draw\../lv_misc/lv_color.h **** #endif
  34:..\..\..\display\lvgl\lv_draw\../lv_misc/lv_color.h **** 
  35:..\..\..\display\lvgl\lv_draw\../lv_misc/lv_color.h **** 
  36:..\..\..\display\lvgl\lv_draw\../lv_misc/lv_color.h **** #include <stdint.h>
  37:..\..\..\display\lvgl\lv_draw\../lv_misc/lv_color.h **** 
  38:..\..\..\display\lvgl\lv_draw\../lv_misc/lv_color.h **** /*********************
  39:..\..\..\display\lvgl\lv_draw\../lv_misc/lv_color.h ****  *      DEFINES
  40:..\..\..\display\lvgl\lv_draw\../lv_misc/lv_color.h ****  *********************/
  41:..\..\..\display\lvgl\lv_draw\../lv_misc/lv_color.h **** #define LV_COLOR_WHITE   LV_COLOR_MAKE(0xFF,0xFF,0xFF)
  42:..\..\..\display\lvgl\lv_draw\../lv_misc/lv_color.h **** #define LV_COLOR_SILVER  LV_COLOR_MAKE(0xC0,0xC0,0xC0)
  43:..\..\..\display\lvgl\lv_draw\../lv_misc/lv_color.h **** #define LV_COLOR_GRAY    LV_COLOR_MAKE(0x80,0x80,0x80)
  44:..\..\..\display\lvgl\lv_draw\../lv_misc/lv_color.h **** #define LV_COLOR_BLACK   LV_COLOR_MAKE(0x00,0x00,0x00)
  45:..\..\..\display\lvgl\lv_draw\../lv_misc/lv_color.h **** #define LV_COLOR_RED     LV_COLOR_MAKE(0xFF,0x00,0x00)
  46:..\..\..\display\lvgl\lv_draw\../lv_misc/lv_color.h **** #define LV_COLOR_MAROON  LV_COLOR_MAKE(0x80,0x00,0x00)
  47:..\..\..\display\lvgl\lv_draw\../lv_misc/lv_color.h **** #define LV_COLOR_YELLOW  LV_COLOR_MAKE(0xFF,0xFF,0x00)
  48:..\..\..\display\lvgl\lv_draw\../lv_misc/lv_color.h **** #define LV_COLOR_OLIVE   LV_COLOR_MAKE(0x80,0x80,0x00)
  49:..\..\..\display\lvgl\lv_draw\../lv_misc/lv_color.h **** #define LV_COLOR_LIME    LV_COLOR_MAKE(0x00,0xFF,0x00)
  50:..\..\..\display\lvgl\lv_draw\../lv_misc/lv_color.h **** #define LV_COLOR_GREEN   LV_COLOR_MAKE(0x00,0x80,0x00)
  51:..\..\..\display\lvgl\lv_draw\../lv_misc/lv_color.h **** #define LV_COLOR_CYAN    LV_COLOR_MAKE(0x00,0xFF,0xFF)
  52:..\..\..\display\lvgl\lv_draw\../lv_misc/lv_color.h **** #define LV_COLOR_AQUA    LV_COLOR_CYAN
  53:..\..\..\display\lvgl\lv_draw\../lv_misc/lv_color.h **** #define LV_COLOR_TEAL    LV_COLOR_MAKE(0x00,0x80,0x80)
  54:..\..\..\display\lvgl\lv_draw\../lv_misc/lv_color.h **** #define LV_COLOR_BLUE    LV_COLOR_MAKE(0x00,0x00,0xFF)
  55:..\..\..\display\lvgl\lv_draw\../lv_misc/lv_color.h **** #define LV_COLOR_NAVY    LV_COLOR_MAKE(0x00,0x00,0x80)
  56:..\..\..\display\lvgl\lv_draw\../lv_misc/lv_color.h **** #define LV_COLOR_MAGENTA LV_COLOR_MAKE(0xFF,0x00,0xFF)
  57:..\..\..\display\lvgl\lv_draw\../lv_misc/lv_color.h **** #define LV_COLOR_PURPLE  LV_COLOR_MAKE(0x80,0x00,0x80)
  58:..\..\..\display\lvgl\lv_draw\../lv_misc/lv_color.h **** #define LV_COLOR_ORANGE  LV_COLOR_MAKE(0xFF,0xA5,0x00)
  59:..\..\..\display\lvgl\lv_draw\../lv_misc/lv_color.h **** 
  60:..\..\..\display\lvgl\lv_draw\../lv_misc/lv_color.h **** enum {
  61:..\..\..\display\lvgl\lv_draw\../lv_misc/lv_color.h ****     LV_OPA_TRANSP =  0,
  62:..\..\..\display\lvgl\lv_draw\../lv_misc/lv_color.h ****     LV_OPA_0      =  0,
  63:..\..\..\display\lvgl\lv_draw\../lv_misc/lv_color.h ****     LV_OPA_10     =  25,
  64:..\..\..\display\lvgl\lv_draw\../lv_misc/lv_color.h ****     LV_OPA_20     =  51,
  65:..\..\..\display\lvgl\lv_draw\../lv_misc/lv_color.h ****     LV_OPA_30     =  76,
  66:..\..\..\display\lvgl\lv_draw\../lv_misc/lv_color.h ****     LV_OPA_40     =  102,
  67:..\..\..\display\lvgl\lv_draw\../lv_misc/lv_color.h ****     LV_OPA_50     =  127,
  68:..\..\..\display\lvgl\lv_draw\../lv_misc/lv_color.h ****     LV_OPA_60     =  153,
  69:..\..\..\display\lvgl\lv_draw\../lv_misc/lv_color.h ****     LV_OPA_70     =  178,
  70:..\..\..\display\lvgl\lv_draw\../lv_misc/lv_color.h ****     LV_OPA_80     =  204,
  71:..\..\..\display\lvgl\lv_draw\../lv_misc/lv_color.h ****     LV_OPA_90     =  229,
  72:..\..\..\display\lvgl\lv_draw\../lv_misc/lv_color.h ****     LV_OPA_100    =  255,
  73:..\..\..\display\lvgl\lv_draw\../lv_misc/lv_color.h ****     LV_OPA_COVER  =  255,
  74:..\..\..\display\lvgl\lv_draw\../lv_misc/lv_color.h **** };
  75:..\..\..\display\lvgl\lv_draw\../lv_misc/lv_color.h **** 
  76:..\..\..\display\lvgl\lv_draw\../lv_misc/lv_color.h **** #define LV_OPA_MIN      16      /*Opacities below this will be transparent*/
  77:..\..\..\display\lvgl\lv_draw\../lv_misc/lv_color.h **** #define LV_OPA_MAX      251     /*Opacities above this will fully cover*/
  78:..\..\..\display\lvgl\lv_draw\../lv_misc/lv_color.h **** 
  79:..\..\..\display\lvgl\lv_draw\../lv_misc/lv_color.h **** #if LV_COLOR_DEPTH == 1
  80:..\..\..\display\lvgl\lv_draw\../lv_misc/lv_color.h **** #define LV_COLOR_SIZE           8
  81:..\..\..\display\lvgl\lv_draw\../lv_misc/lv_color.h **** #elif LV_COLOR_DEPTH == 8
  82:..\..\..\display\lvgl\lv_draw\../lv_misc/lv_color.h **** #define LV_COLOR_SIZE           8
  83:..\..\..\display\lvgl\lv_draw\../lv_misc/lv_color.h **** #elif LV_COLOR_DEPTH == 16
  84:..\..\..\display\lvgl\lv_draw\../lv_misc/lv_color.h **** #define LV_COLOR_SIZE           16
  85:..\..\..\display\lvgl\lv_draw\../lv_misc/lv_color.h **** #elif LV_COLOR_DEPTH == 32
  86:..\..\..\display\lvgl\lv_draw\../lv_misc/lv_color.h **** #define LV_COLOR_SIZE           32
  87:..\..\..\display\lvgl\lv_draw\../lv_misc/lv_color.h **** #else
ARM GAS  C:\Users\pearlstl\AppData\Local\Temp\ccc6DM2e.s 			page 3


  88:..\..\..\display\lvgl\lv_draw\../lv_misc/lv_color.h **** #error "Invalid LV_COLOR_DEPTH in lv_conf.h! Set it to 1, 8, 16 or 32!"
  89:..\..\..\display\lvgl\lv_draw\../lv_misc/lv_color.h **** #endif
  90:..\..\..\display\lvgl\lv_draw\../lv_misc/lv_color.h **** 
  91:..\..\..\display\lvgl\lv_draw\../lv_misc/lv_color.h **** /**********************
  92:..\..\..\display\lvgl\lv_draw\../lv_misc/lv_color.h ****  *      TYPEDEFS
  93:..\..\..\display\lvgl\lv_draw\../lv_misc/lv_color.h ****  **********************/
  94:..\..\..\display\lvgl\lv_draw\../lv_misc/lv_color.h **** 
  95:..\..\..\display\lvgl\lv_draw\../lv_misc/lv_color.h **** typedef union
  96:..\..\..\display\lvgl\lv_draw\../lv_misc/lv_color.h **** {
  97:..\..\..\display\lvgl\lv_draw\../lv_misc/lv_color.h ****     uint8_t blue  :1;
  98:..\..\..\display\lvgl\lv_draw\../lv_misc/lv_color.h ****     uint8_t green :1;
  99:..\..\..\display\lvgl\lv_draw\../lv_misc/lv_color.h ****     uint8_t red   :1;
 100:..\..\..\display\lvgl\lv_draw\../lv_misc/lv_color.h ****     uint8_t full  :1;
 101:..\..\..\display\lvgl\lv_draw\../lv_misc/lv_color.h **** } lv_color1_t;
 102:..\..\..\display\lvgl\lv_draw\../lv_misc/lv_color.h **** 
 103:..\..\..\display\lvgl\lv_draw\../lv_misc/lv_color.h **** typedef union
 104:..\..\..\display\lvgl\lv_draw\../lv_misc/lv_color.h **** {
 105:..\..\..\display\lvgl\lv_draw\../lv_misc/lv_color.h ****     struct
 106:..\..\..\display\lvgl\lv_draw\../lv_misc/lv_color.h ****     {
 107:..\..\..\display\lvgl\lv_draw\../lv_misc/lv_color.h ****         uint8_t blue  :2;
 108:..\..\..\display\lvgl\lv_draw\../lv_misc/lv_color.h ****         uint8_t green :3;
 109:..\..\..\display\lvgl\lv_draw\../lv_misc/lv_color.h ****         uint8_t red   :3;
 110:..\..\..\display\lvgl\lv_draw\../lv_misc/lv_color.h ****     };
 111:..\..\..\display\lvgl\lv_draw\../lv_misc/lv_color.h ****     uint8_t full;
 112:..\..\..\display\lvgl\lv_draw\../lv_misc/lv_color.h **** } lv_color8_t;
 113:..\..\..\display\lvgl\lv_draw\../lv_misc/lv_color.h **** 
 114:..\..\..\display\lvgl\lv_draw\../lv_misc/lv_color.h **** typedef union
 115:..\..\..\display\lvgl\lv_draw\../lv_misc/lv_color.h **** {
 116:..\..\..\display\lvgl\lv_draw\../lv_misc/lv_color.h ****     struct
 117:..\..\..\display\lvgl\lv_draw\../lv_misc/lv_color.h ****     {
 118:..\..\..\display\lvgl\lv_draw\../lv_misc/lv_color.h **** #if LV_COLOR_16_SWAP == 0
 119:..\..\..\display\lvgl\lv_draw\../lv_misc/lv_color.h ****         uint16_t blue  :5;
 120:..\..\..\display\lvgl\lv_draw\../lv_misc/lv_color.h ****         uint16_t green :6;
 121:..\..\..\display\lvgl\lv_draw\../lv_misc/lv_color.h ****         uint16_t red   :5;
 122:..\..\..\display\lvgl\lv_draw\../lv_misc/lv_color.h **** #else
 123:..\..\..\display\lvgl\lv_draw\../lv_misc/lv_color.h ****         uint16_t green_h :3;
 124:..\..\..\display\lvgl\lv_draw\../lv_misc/lv_color.h ****         uint16_t red   :5;
 125:..\..\..\display\lvgl\lv_draw\../lv_misc/lv_color.h ****         uint16_t blue  :5;
 126:..\..\..\display\lvgl\lv_draw\../lv_misc/lv_color.h ****         uint16_t green_l :3;
 127:..\..\..\display\lvgl\lv_draw\../lv_misc/lv_color.h **** #endif
 128:..\..\..\display\lvgl\lv_draw\../lv_misc/lv_color.h ****     };
 129:..\..\..\display\lvgl\lv_draw\../lv_misc/lv_color.h ****     uint16_t full;
 130:..\..\..\display\lvgl\lv_draw\../lv_misc/lv_color.h **** } lv_color16_t;
 131:..\..\..\display\lvgl\lv_draw\../lv_misc/lv_color.h **** 
 132:..\..\..\display\lvgl\lv_draw\../lv_misc/lv_color.h **** typedef union
 133:..\..\..\display\lvgl\lv_draw\../lv_misc/lv_color.h **** {
 134:..\..\..\display\lvgl\lv_draw\../lv_misc/lv_color.h ****     struct
 135:..\..\..\display\lvgl\lv_draw\../lv_misc/lv_color.h ****     {
 136:..\..\..\display\lvgl\lv_draw\../lv_misc/lv_color.h ****         uint8_t blue;
 137:..\..\..\display\lvgl\lv_draw\../lv_misc/lv_color.h ****         uint8_t green;
 138:..\..\..\display\lvgl\lv_draw\../lv_misc/lv_color.h ****         uint8_t red;
 139:..\..\..\display\lvgl\lv_draw\../lv_misc/lv_color.h ****         uint8_t alpha;
 140:..\..\..\display\lvgl\lv_draw\../lv_misc/lv_color.h ****     };
 141:..\..\..\display\lvgl\lv_draw\../lv_misc/lv_color.h ****     uint32_t full;
 142:..\..\..\display\lvgl\lv_draw\../lv_misc/lv_color.h **** } lv_color32_t;
 143:..\..\..\display\lvgl\lv_draw\../lv_misc/lv_color.h **** 
 144:..\..\..\display\lvgl\lv_draw\../lv_misc/lv_color.h **** #if LV_COLOR_DEPTH == 1
ARM GAS  C:\Users\pearlstl\AppData\Local\Temp\ccc6DM2e.s 			page 4


 145:..\..\..\display\lvgl\lv_draw\../lv_misc/lv_color.h **** typedef uint8_t lv_color_int_t;
 146:..\..\..\display\lvgl\lv_draw\../lv_misc/lv_color.h **** typedef lv_color1_t lv_color_t;
 147:..\..\..\display\lvgl\lv_draw\../lv_misc/lv_color.h **** #elif LV_COLOR_DEPTH == 8
 148:..\..\..\display\lvgl\lv_draw\../lv_misc/lv_color.h **** typedef uint8_t lv_color_int_t;
 149:..\..\..\display\lvgl\lv_draw\../lv_misc/lv_color.h **** typedef lv_color8_t lv_color_t;
 150:..\..\..\display\lvgl\lv_draw\../lv_misc/lv_color.h **** #elif LV_COLOR_DEPTH == 16
 151:..\..\..\display\lvgl\lv_draw\../lv_misc/lv_color.h **** typedef uint16_t lv_color_int_t;
 152:..\..\..\display\lvgl\lv_draw\../lv_misc/lv_color.h **** typedef lv_color16_t lv_color_t;
 153:..\..\..\display\lvgl\lv_draw\../lv_misc/lv_color.h **** #elif LV_COLOR_DEPTH == 32
 154:..\..\..\display\lvgl\lv_draw\../lv_misc/lv_color.h **** typedef uint32_t lv_color_int_t;
 155:..\..\..\display\lvgl\lv_draw\../lv_misc/lv_color.h **** typedef lv_color32_t lv_color_t;
 156:..\..\..\display\lvgl\lv_draw\../lv_misc/lv_color.h **** #else
 157:..\..\..\display\lvgl\lv_draw\../lv_misc/lv_color.h **** #error "Invalid LV_COLOR_DEPTH in lv_conf.h! Set it to 1, 8, 16 or 32!"
 158:..\..\..\display\lvgl\lv_draw\../lv_misc/lv_color.h **** #endif
 159:..\..\..\display\lvgl\lv_draw\../lv_misc/lv_color.h **** 
 160:..\..\..\display\lvgl\lv_draw\../lv_misc/lv_color.h **** typedef uint8_t lv_opa_t;
 161:..\..\..\display\lvgl\lv_draw\../lv_misc/lv_color.h **** 
 162:..\..\..\display\lvgl\lv_draw\../lv_misc/lv_color.h **** typedef struct
 163:..\..\..\display\lvgl\lv_draw\../lv_misc/lv_color.h **** {
 164:..\..\..\display\lvgl\lv_draw\../lv_misc/lv_color.h ****     uint16_t h;
 165:..\..\..\display\lvgl\lv_draw\../lv_misc/lv_color.h ****     uint8_t s;
 166:..\..\..\display\lvgl\lv_draw\../lv_misc/lv_color.h ****     uint8_t v;
 167:..\..\..\display\lvgl\lv_draw\../lv_misc/lv_color.h **** } lv_color_hsv_t;
 168:..\..\..\display\lvgl\lv_draw\../lv_misc/lv_color.h **** 
 169:..\..\..\display\lvgl\lv_draw\../lv_misc/lv_color.h **** /**********************
 170:..\..\..\display\lvgl\lv_draw\../lv_misc/lv_color.h ****  * GLOBAL PROTOTYPES
 171:..\..\..\display\lvgl\lv_draw\../lv_misc/lv_color.h ****  **********************/
 172:..\..\..\display\lvgl\lv_draw\../lv_misc/lv_color.h **** 
 173:..\..\..\display\lvgl\lv_draw\../lv_misc/lv_color.h **** /*In color conversations:
 174:..\..\..\display\lvgl\lv_draw\../lv_misc/lv_color.h ****  * - When converting to bigger color type the LSB weight of 1 LSB is calculated
 175:..\..\..\display\lvgl\lv_draw\../lv_misc/lv_color.h ****  *   E.g. 16 bit Red has 5 bits
 176:..\..\..\display\lvgl\lv_draw\../lv_misc/lv_color.h ****  *         8 bit Red has 2 bits
 177:..\..\..\display\lvgl\lv_draw\../lv_misc/lv_color.h ****  *        ----------------------
 178:..\..\..\display\lvgl\lv_draw\../lv_misc/lv_color.h ****  *        8 bit red LSB = (2^5 - 1) / (2^2 - 1) = 31 / 3 = 10
 179:..\..\..\display\lvgl\lv_draw\../lv_misc/lv_color.h ****  *
 180:..\..\..\display\lvgl\lv_draw\../lv_misc/lv_color.h ****  * - When calculating to smaller color type simply shift out the LSBs
 181:..\..\..\display\lvgl\lv_draw\../lv_misc/lv_color.h ****  *   E.g.  8 bit Red has 2 bits
 182:..\..\..\display\lvgl\lv_draw\../lv_misc/lv_color.h ****  *        16 bit Red has 5 bits
 183:..\..\..\display\lvgl\lv_draw\../lv_misc/lv_color.h ****  *        ----------------------
 184:..\..\..\display\lvgl\lv_draw\../lv_misc/lv_color.h ****  *         Shift right with 5 - 3 = 2
 185:..\..\..\display\lvgl\lv_draw\../lv_misc/lv_color.h ****  */
 186:..\..\..\display\lvgl\lv_draw\../lv_misc/lv_color.h **** 
 187:..\..\..\display\lvgl\lv_draw\../lv_misc/lv_color.h **** static inline uint8_t lv_color_to1(lv_color_t color)
 188:..\..\..\display\lvgl\lv_draw\../lv_misc/lv_color.h **** {
 189:..\..\..\display\lvgl\lv_draw\../lv_misc/lv_color.h **** #if LV_COLOR_DEPTH == 1
 190:..\..\..\display\lvgl\lv_draw\../lv_misc/lv_color.h ****     return color.full;
 191:..\..\..\display\lvgl\lv_draw\../lv_misc/lv_color.h **** #elif LV_COLOR_DEPTH == 8
 192:..\..\..\display\lvgl\lv_draw\../lv_misc/lv_color.h ****     if((color.red   & 0x4) ||
 193:..\..\..\display\lvgl\lv_draw\../lv_misc/lv_color.h ****             (color.green & 0x4) ||
 194:..\..\..\display\lvgl\lv_draw\../lv_misc/lv_color.h ****             (color.blue  & 0x2)) {
 195:..\..\..\display\lvgl\lv_draw\../lv_misc/lv_color.h ****         return 1;
 196:..\..\..\display\lvgl\lv_draw\../lv_misc/lv_color.h ****     } else {
 197:..\..\..\display\lvgl\lv_draw\../lv_misc/lv_color.h ****         return 0;
 198:..\..\..\display\lvgl\lv_draw\../lv_misc/lv_color.h ****     }
 199:..\..\..\display\lvgl\lv_draw\../lv_misc/lv_color.h **** #elif LV_COLOR_DEPTH == 16
 200:..\..\..\display\lvgl\lv_draw\../lv_misc/lv_color.h **** #  if LV_COLOR_16_SWAP == 0
 201:..\..\..\display\lvgl\lv_draw\../lv_misc/lv_color.h ****     if((color.red   & 0x10) ||
ARM GAS  C:\Users\pearlstl\AppData\Local\Temp\ccc6DM2e.s 			page 5


 202:..\..\..\display\lvgl\lv_draw\../lv_misc/lv_color.h ****             (color.green & 0x20) ||
 203:..\..\..\display\lvgl\lv_draw\../lv_misc/lv_color.h ****             (color.blue  & 0x10)) {
 204:..\..\..\display\lvgl\lv_draw\../lv_misc/lv_color.h ****         return 1;
 205:..\..\..\display\lvgl\lv_draw\../lv_misc/lv_color.h **** #  else
 206:..\..\..\display\lvgl\lv_draw\../lv_misc/lv_color.h ****     if((color.red   & 0x10) ||
 207:..\..\..\display\lvgl\lv_draw\../lv_misc/lv_color.h ****             (color.green_h & 0x20) ||
 208:..\..\..\display\lvgl\lv_draw\../lv_misc/lv_color.h ****             (color.blue  & 0x10)) {
 209:..\..\..\display\lvgl\lv_draw\../lv_misc/lv_color.h ****         return 1;
 210:..\..\..\display\lvgl\lv_draw\../lv_misc/lv_color.h **** #  endif
 211:..\..\..\display\lvgl\lv_draw\../lv_misc/lv_color.h ****     } else {
 212:..\..\..\display\lvgl\lv_draw\../lv_misc/lv_color.h ****         return 0;
 213:..\..\..\display\lvgl\lv_draw\../lv_misc/lv_color.h ****     }
 214:..\..\..\display\lvgl\lv_draw\../lv_misc/lv_color.h **** #elif LV_COLOR_DEPTH == 32
 215:..\..\..\display\lvgl\lv_draw\../lv_misc/lv_color.h ****     if((color.red   & 0x80) ||
 216:..\..\..\display\lvgl\lv_draw\../lv_misc/lv_color.h ****             (color.green & 0x80) ||
 217:..\..\..\display\lvgl\lv_draw\../lv_misc/lv_color.h ****             (color.blue  & 0x80)) {
 218:..\..\..\display\lvgl\lv_draw\../lv_misc/lv_color.h ****         return 1;
 219:..\..\..\display\lvgl\lv_draw\../lv_misc/lv_color.h ****     } else {
 220:..\..\..\display\lvgl\lv_draw\../lv_misc/lv_color.h ****         return 0;
 221:..\..\..\display\lvgl\lv_draw\../lv_misc/lv_color.h ****     }
 222:..\..\..\display\lvgl\lv_draw\../lv_misc/lv_color.h **** #endif
 223:..\..\..\display\lvgl\lv_draw\../lv_misc/lv_color.h **** }
 224:..\..\..\display\lvgl\lv_draw\../lv_misc/lv_color.h **** 
 225:..\..\..\display\lvgl\lv_draw\../lv_misc/lv_color.h **** static inline uint8_t lv_color_to8(lv_color_t color)
 226:..\..\..\display\lvgl\lv_draw\../lv_misc/lv_color.h **** {
 227:..\..\..\display\lvgl\lv_draw\../lv_misc/lv_color.h **** #if LV_COLOR_DEPTH == 1
 228:..\..\..\display\lvgl\lv_draw\../lv_misc/lv_color.h ****     if(color.full == 0) return 0;
 229:..\..\..\display\lvgl\lv_draw\../lv_misc/lv_color.h ****     else return 0xFF;
 230:..\..\..\display\lvgl\lv_draw\../lv_misc/lv_color.h **** #elif LV_COLOR_DEPTH == 8
 231:..\..\..\display\lvgl\lv_draw\../lv_misc/lv_color.h ****     return color.full;
 232:..\..\..\display\lvgl\lv_draw\../lv_misc/lv_color.h **** #elif LV_COLOR_DEPTH == 16
 233:..\..\..\display\lvgl\lv_draw\../lv_misc/lv_color.h **** 
 234:..\..\..\display\lvgl\lv_draw\../lv_misc/lv_color.h **** #  if LV_COLOR_16_SWAP == 0
 235:..\..\..\display\lvgl\lv_draw\../lv_misc/lv_color.h ****     lv_color8_t ret;
 236:..\..\..\display\lvgl\lv_draw\../lv_misc/lv_color.h ****     ret.red = color.red >> 2;       /* 5 - 3  = 2*/
 237:..\..\..\display\lvgl\lv_draw\../lv_misc/lv_color.h ****     ret.green = color.green >> 3;   /* 6 - 3  = 3*/
 238:..\..\..\display\lvgl\lv_draw\../lv_misc/lv_color.h ****     ret.blue = color.blue >> 3;     /* 5 - 2  = 3*/
 239:..\..\..\display\lvgl\lv_draw\../lv_misc/lv_color.h ****     return ret.full;
 240:..\..\..\display\lvgl\lv_draw\../lv_misc/lv_color.h **** #  else
 241:..\..\..\display\lvgl\lv_draw\../lv_misc/lv_color.h ****     lv_color8_t ret;
 242:..\..\..\display\lvgl\lv_draw\../lv_misc/lv_color.h ****     ret.red = color.red >> 2;       /* 5 - 3  = 2*/
 243:..\..\..\display\lvgl\lv_draw\../lv_misc/lv_color.h ****     ret.green = color.green_h;      /* 6 - 3  = 3*/
 244:..\..\..\display\lvgl\lv_draw\../lv_misc/lv_color.h ****     ret.blue = color.blue >> 3;     /* 5 - 2  = 3*/
 245:..\..\..\display\lvgl\lv_draw\../lv_misc/lv_color.h ****     return ret.full;
 246:..\..\..\display\lvgl\lv_draw\../lv_misc/lv_color.h **** #  endif
 247:..\..\..\display\lvgl\lv_draw\../lv_misc/lv_color.h **** #elif LV_COLOR_DEPTH == 32
 248:..\..\..\display\lvgl\lv_draw\../lv_misc/lv_color.h ****     lv_color8_t ret;
 249:..\..\..\display\lvgl\lv_draw\../lv_misc/lv_color.h ****     ret.red = color.red >> 5;       /* 8 - 3  = 5*/
 250:..\..\..\display\lvgl\lv_draw\../lv_misc/lv_color.h ****     ret.green = color.green >> 5;   /* 8 - 3  = 5*/
 251:..\..\..\display\lvgl\lv_draw\../lv_misc/lv_color.h ****     ret.blue = color.blue >> 6;     /* 8 - 2  = 6*/
 252:..\..\..\display\lvgl\lv_draw\../lv_misc/lv_color.h ****     return ret.full;
 253:..\..\..\display\lvgl\lv_draw\../lv_misc/lv_color.h **** #endif
 254:..\..\..\display\lvgl\lv_draw\../lv_misc/lv_color.h **** }
 255:..\..\..\display\lvgl\lv_draw\../lv_misc/lv_color.h **** 
 256:..\..\..\display\lvgl\lv_draw\../lv_misc/lv_color.h **** static inline uint16_t lv_color_to16(lv_color_t color)
 257:..\..\..\display\lvgl\lv_draw\../lv_misc/lv_color.h **** {
 258:..\..\..\display\lvgl\lv_draw\../lv_misc/lv_color.h **** #if LV_COLOR_DEPTH == 1
ARM GAS  C:\Users\pearlstl\AppData\Local\Temp\ccc6DM2e.s 			page 6


 259:..\..\..\display\lvgl\lv_draw\../lv_misc/lv_color.h ****     if(color.full == 0) return 0;
 260:..\..\..\display\lvgl\lv_draw\../lv_misc/lv_color.h ****     else return 0xFFFF;
 261:..\..\..\display\lvgl\lv_draw\../lv_misc/lv_color.h **** #elif LV_COLOR_DEPTH == 8
 262:..\..\..\display\lvgl\lv_draw\../lv_misc/lv_color.h ****     lv_color16_t ret;
 263:..\..\..\display\lvgl\lv_draw\../lv_misc/lv_color.h **** #  if LV_COLOR_16_SWAP == 0
 264:..\..\..\display\lvgl\lv_draw\../lv_misc/lv_color.h ****     ret.red = color.red * 4;       /*(2^5 - 1)/(2^3 - 1) = 31/7 = 4*/
 265:..\..\..\display\lvgl\lv_draw\../lv_misc/lv_color.h ****     ret.green = color.green * 9;   /*(2^6 - 1)/(2^3 - 1) = 63/7 = 9*/
 266:..\..\..\display\lvgl\lv_draw\../lv_misc/lv_color.h ****     ret.blue = color.blue * 10;    /*(2^5 - 1)/(2^2 - 1) = 31/3 = 10*/
 267:..\..\..\display\lvgl\lv_draw\../lv_misc/lv_color.h **** #  else
 268:..\..\..\display\lvgl\lv_draw\../lv_misc/lv_color.h ****     ret.red = color.red * 4;
 269:..\..\..\display\lvgl\lv_draw\../lv_misc/lv_color.h ****     uint8_t g_tmp = color.green * 9;
 270:..\..\..\display\lvgl\lv_draw\../lv_misc/lv_color.h ****     ret.green_h = (g_tmp & 0x1F) >> 3;
 271:..\..\..\display\lvgl\lv_draw\../lv_misc/lv_color.h ****     ret.green_l = g_tmp & 0x07;
 272:..\..\..\display\lvgl\lv_draw\../lv_misc/lv_color.h ****     ret.blue = color.blue * 10;
 273:..\..\..\display\lvgl\lv_draw\../lv_misc/lv_color.h **** #  endif
 274:..\..\..\display\lvgl\lv_draw\../lv_misc/lv_color.h ****     return ret.full;
 275:..\..\..\display\lvgl\lv_draw\../lv_misc/lv_color.h **** #elif LV_COLOR_DEPTH == 16
 276:..\..\..\display\lvgl\lv_draw\../lv_misc/lv_color.h ****     return color.full;
 277:..\..\..\display\lvgl\lv_draw\../lv_misc/lv_color.h **** #elif LV_COLOR_DEPTH == 32
 278:..\..\..\display\lvgl\lv_draw\../lv_misc/lv_color.h ****     lv_color16_t ret;
 279:..\..\..\display\lvgl\lv_draw\../lv_misc/lv_color.h **** #  if LV_COLOR_16_SWAP == 0
 280:..\..\..\display\lvgl\lv_draw\../lv_misc/lv_color.h ****     ret.red = color.red >> 3;       /* 8 - 5  = 3*/
 281:..\..\..\display\lvgl\lv_draw\../lv_misc/lv_color.h ****     ret.green = color.green >> 2;   /* 8 - 6  = 2*/
 282:..\..\..\display\lvgl\lv_draw\../lv_misc/lv_color.h ****     ret.blue = color.blue >> 3;     /* 8 - 5  = 3*/
 283:..\..\..\display\lvgl\lv_draw\../lv_misc/lv_color.h **** #  else
 284:..\..\..\display\lvgl\lv_draw\../lv_misc/lv_color.h ****     ret.red = color.red >> 3;
 285:..\..\..\display\lvgl\lv_draw\../lv_misc/lv_color.h ****     ret.green_h = (color.green & 0xE0) >> 5;
 286:..\..\..\display\lvgl\lv_draw\../lv_misc/lv_color.h ****     ret.green_l = (color.green & 0x1C) >> 2;
 287:..\..\..\display\lvgl\lv_draw\../lv_misc/lv_color.h ****     ret.blue = color.blue >> 3;
 288:..\..\..\display\lvgl\lv_draw\../lv_misc/lv_color.h **** #  endif
 289:..\..\..\display\lvgl\lv_draw\../lv_misc/lv_color.h ****     return ret.full;
 290:..\..\..\display\lvgl\lv_draw\../lv_misc/lv_color.h **** #endif
 291:..\..\..\display\lvgl\lv_draw\../lv_misc/lv_color.h **** }
 292:..\..\..\display\lvgl\lv_draw\../lv_misc/lv_color.h **** 
 293:..\..\..\display\lvgl\lv_draw\../lv_misc/lv_color.h **** static inline uint32_t lv_color_to32(lv_color_t color)
 294:..\..\..\display\lvgl\lv_draw\../lv_misc/lv_color.h **** {
 295:..\..\..\display\lvgl\lv_draw\../lv_misc/lv_color.h **** #if LV_COLOR_DEPTH == 1
 296:..\..\..\display\lvgl\lv_draw\../lv_misc/lv_color.h ****     if(color.full == 0) return 0;
 297:..\..\..\display\lvgl\lv_draw\../lv_misc/lv_color.h ****     else return 0xFFFFFFFF;
 298:..\..\..\display\lvgl\lv_draw\../lv_misc/lv_color.h **** #elif LV_COLOR_DEPTH == 8
 299:..\..\..\display\lvgl\lv_draw\../lv_misc/lv_color.h ****     lv_color32_t ret;
 300:..\..\..\display\lvgl\lv_draw\../lv_misc/lv_color.h ****     ret.red = color.red * 36;        /*(2^8 - 1)/(2^3 - 1) = 255/7 = 36*/
 301:..\..\..\display\lvgl\lv_draw\../lv_misc/lv_color.h ****     ret.green = color.green * 36;    /*(2^8 - 1)/(2^3 - 1) = 255/7 = 36*/
 302:..\..\..\display\lvgl\lv_draw\../lv_misc/lv_color.h ****     ret.blue = color.blue * 85;      /*(2^8 - 1)/(2^2 - 1) = 255/3 = 85*/
 303:..\..\..\display\lvgl\lv_draw\../lv_misc/lv_color.h ****     ret.alpha = 0xFF;
 304:..\..\..\display\lvgl\lv_draw\../lv_misc/lv_color.h ****     return ret.full;
 305:..\..\..\display\lvgl\lv_draw\../lv_misc/lv_color.h **** #elif LV_COLOR_DEPTH == 16
 306:..\..\..\display\lvgl\lv_draw\../lv_misc/lv_color.h **** #  if LV_COLOR_16_SWAP == 0
 307:..\..\..\display\lvgl\lv_draw\../lv_misc/lv_color.h ****     lv_color32_t ret;
 308:..\..\..\display\lvgl\lv_draw\../lv_misc/lv_color.h ****     ret.red = color.red * 8;       /*(2^8 - 1)/(2^5 - 1) = 255/31 = 8*/
 309:..\..\..\display\lvgl\lv_draw\../lv_misc/lv_color.h ****     ret.green = color.green * 4;   /*(2^8 - 1)/(2^6 - 1) = 255/63 = 4*/
 310:..\..\..\display\lvgl\lv_draw\../lv_misc/lv_color.h ****     ret.blue = color.blue * 8;     /*(2^8 - 1)/(2^5 - 1) = 255/31 = 8*/
 311:..\..\..\display\lvgl\lv_draw\../lv_misc/lv_color.h ****     ret.alpha = 0xFF;
 312:..\..\..\display\lvgl\lv_draw\../lv_misc/lv_color.h ****     return ret.full;
 313:..\..\..\display\lvgl\lv_draw\../lv_misc/lv_color.h **** #  else
 314:..\..\..\display\lvgl\lv_draw\../lv_misc/lv_color.h ****     lv_color32_t ret;
 315:..\..\..\display\lvgl\lv_draw\../lv_misc/lv_color.h ****     ret.red = color.red * 8;                                    /*(2^8 - 1)/(2^5 - 1) = 255/31 = 8*
ARM GAS  C:\Users\pearlstl\AppData\Local\Temp\ccc6DM2e.s 			page 7


 316:..\..\..\display\lvgl\lv_draw\../lv_misc/lv_color.h ****     ret.green = ((color.green_h << 3) + color.green_l) * 4;     /*(2^8 - 1)/(2^6 - 1) = 255/63 = 4*
 317:..\..\..\display\lvgl\lv_draw\../lv_misc/lv_color.h ****     ret.blue = color.blue * 8;                                   /*(2^8 - 1)/(2^5 - 1) = 255/31 = 8
 318:..\..\..\display\lvgl\lv_draw\../lv_misc/lv_color.h ****     ret.alpha = 0xFF;
 319:..\..\..\display\lvgl\lv_draw\../lv_misc/lv_color.h ****     return ret.full;
 320:..\..\..\display\lvgl\lv_draw\../lv_misc/lv_color.h **** #  endif
 321:..\..\..\display\lvgl\lv_draw\../lv_misc/lv_color.h **** #elif LV_COLOR_DEPTH == 32
 322:..\..\..\display\lvgl\lv_draw\../lv_misc/lv_color.h ****     return color.full;
 323:..\..\..\display\lvgl\lv_draw\../lv_misc/lv_color.h **** #endif
 324:..\..\..\display\lvgl\lv_draw\../lv_misc/lv_color.h **** }
 325:..\..\..\display\lvgl\lv_draw\../lv_misc/lv_color.h **** 
 326:..\..\..\display\lvgl\lv_draw\../lv_misc/lv_color.h **** static inline lv_color_t lv_color_mix(lv_color_t c1, lv_color_t c2, uint8_t mix)
 327:..\..\..\display\lvgl\lv_draw\../lv_misc/lv_color.h **** {
  28              		.loc 1 327 0
  29              		.cfi_startproc
  30              		@ args = 0, pretend = 0, frame = 24
  31              		@ frame_needed = 1, uses_anonymous_args = 0
  32              		@ link register save eliminated.
  33 0000 80B4     		push	{r7}
  34              		.cfi_def_cfa_offset 4
  35              		.cfi_offset 7, -4
  36 0002 87B0     		sub	sp, sp, #28
  37              		.cfi_def_cfa_offset 32
  38 0004 00AF     		add	r7, sp, #0
  39              		.cfi_def_cfa_register 7
  40 0006 F860     		str	r0, [r7, #12]
  41 0008 B960     		str	r1, [r7, #8]
  42 000a 1346     		mov	r3, r2
  43 000c FB71     		strb	r3, [r7, #7]
 328:..\..\..\display\lvgl\lv_draw\../lv_misc/lv_color.h ****     lv_color_t ret;
 329:..\..\..\display\lvgl\lv_draw\../lv_misc/lv_color.h **** #if LV_COLOR_DEPTH != 1
 330:..\..\..\display\lvgl\lv_draw\../lv_misc/lv_color.h ****     /*LV_COLOR_DEPTH == 8, 16 or 32*/
 331:..\..\..\display\lvgl\lv_draw\../lv_misc/lv_color.h ****     ret.red =   (uint16_t)((uint16_t) c1.red * mix + (c2.red * (255 - mix))) >> 8;
  44              		.loc 1 331 0
  45 000e BB7B     		ldrb	r3, [r7, #14]	@ zero_extendqisi2
  46 0010 9AB2     		uxth	r2, r3
  47 0012 FB79     		ldrb	r3, [r7, #7]	@ zero_extendqisi2
  48 0014 9BB2     		uxth	r3, r3
  49 0016 12FB03F3 		smulbb	r3, r2, r3
  50 001a 9AB2     		uxth	r2, r3
  51 001c BB7A     		ldrb	r3, [r7, #10]	@ zero_extendqisi2
  52 001e 99B2     		uxth	r1, r3
  53 0020 FB79     		ldrb	r3, [r7, #7]	@ zero_extendqisi2
  54 0022 C3F1FF03 		rsb	r3, r3, #255
  55 0026 9BB2     		uxth	r3, r3
  56 0028 11FB03F3 		smulbb	r3, r1, r3
  57 002c 9BB2     		uxth	r3, r3
  58 002e 1344     		add	r3, r3, r2
  59 0030 9BB2     		uxth	r3, r3
  60 0032 1B0A     		lsrs	r3, r3, #8
  61 0034 9BB2     		uxth	r3, r3
  62 0036 DBB2     		uxtb	r3, r3
  63 0038 BB75     		strb	r3, [r7, #22]
 332:..\..\..\display\lvgl\lv_draw\../lv_misc/lv_color.h **** #  if LV_COLOR_DEPTH == 16 && LV_COLOR_16_SWAP
 333:..\..\..\display\lvgl\lv_draw\../lv_misc/lv_color.h ****     /*If swapped Green is in 2 parts*/
 334:..\..\..\display\lvgl\lv_draw\../lv_misc/lv_color.h ****     uint16_t g_1 = (c1.green_h << 3) + c1.green_l;
 335:..\..\..\display\lvgl\lv_draw\../lv_misc/lv_color.h ****     uint16_t g_2 = (c2.green_h << 3) + c2.green_l;
 336:..\..\..\display\lvgl\lv_draw\../lv_misc/lv_color.h ****     uint16_t g_out = (uint16_t)((uint16_t) g_1 * mix + (g_2 * (255 - mix))) >> 8;
ARM GAS  C:\Users\pearlstl\AppData\Local\Temp\ccc6DM2e.s 			page 8


 337:..\..\..\display\lvgl\lv_draw\../lv_misc/lv_color.h ****     ret.green_h = g_out >> 3;
 338:..\..\..\display\lvgl\lv_draw\../lv_misc/lv_color.h ****     ret.green_l = g_out & 0x7;
 339:..\..\..\display\lvgl\lv_draw\../lv_misc/lv_color.h **** #  else
 340:..\..\..\display\lvgl\lv_draw\../lv_misc/lv_color.h ****     ret.green = (uint16_t)((uint16_t) c1.green * mix + (c2.green * (255 - mix))) >> 8;
  64              		.loc 1 340 0
  65 003a 7B7B     		ldrb	r3, [r7, #13]	@ zero_extendqisi2
  66 003c 9AB2     		uxth	r2, r3
  67 003e FB79     		ldrb	r3, [r7, #7]	@ zero_extendqisi2
  68 0040 9BB2     		uxth	r3, r3
  69 0042 12FB03F3 		smulbb	r3, r2, r3
  70 0046 9AB2     		uxth	r2, r3
  71 0048 7B7A     		ldrb	r3, [r7, #9]	@ zero_extendqisi2
  72 004a 99B2     		uxth	r1, r3
  73 004c FB79     		ldrb	r3, [r7, #7]	@ zero_extendqisi2
  74 004e C3F1FF03 		rsb	r3, r3, #255
  75 0052 9BB2     		uxth	r3, r3
  76 0054 11FB03F3 		smulbb	r3, r1, r3
  77 0058 9BB2     		uxth	r3, r3
  78 005a 1344     		add	r3, r3, r2
  79 005c 9BB2     		uxth	r3, r3
  80 005e 1B0A     		lsrs	r3, r3, #8
  81 0060 9BB2     		uxth	r3, r3
  82 0062 DBB2     		uxtb	r3, r3
  83 0064 7B75     		strb	r3, [r7, #21]
 341:..\..\..\display\lvgl\lv_draw\../lv_misc/lv_color.h **** #  endif
 342:..\..\..\display\lvgl\lv_draw\../lv_misc/lv_color.h ****     ret.blue =  (uint16_t)((uint16_t) c1.blue * mix + (c2.blue * (255 - mix))) >> 8;
  84              		.loc 1 342 0
  85 0066 3B7B     		ldrb	r3, [r7, #12]	@ zero_extendqisi2
  86 0068 9AB2     		uxth	r2, r3
  87 006a FB79     		ldrb	r3, [r7, #7]	@ zero_extendqisi2
  88 006c 9BB2     		uxth	r3, r3
  89 006e 12FB03F3 		smulbb	r3, r2, r3
  90 0072 9AB2     		uxth	r2, r3
  91 0074 3B7A     		ldrb	r3, [r7, #8]	@ zero_extendqisi2
  92 0076 99B2     		uxth	r1, r3
  93 0078 FB79     		ldrb	r3, [r7, #7]	@ zero_extendqisi2
  94 007a C3F1FF03 		rsb	r3, r3, #255
  95 007e 9BB2     		uxth	r3, r3
  96 0080 11FB03F3 		smulbb	r3, r1, r3
  97 0084 9BB2     		uxth	r3, r3
  98 0086 1344     		add	r3, r3, r2
  99 0088 9BB2     		uxth	r3, r3
 100 008a 1B0A     		lsrs	r3, r3, #8
 101 008c 9BB2     		uxth	r3, r3
 102 008e DBB2     		uxtb	r3, r3
 103 0090 3B75     		strb	r3, [r7, #20]
 343:..\..\..\display\lvgl\lv_draw\../lv_misc/lv_color.h **** # if LV_COLOR_DEPTH == 32
 344:..\..\..\display\lvgl\lv_draw\../lv_misc/lv_color.h ****     ret.alpha = 0xFF;
 104              		.loc 1 344 0
 105 0092 FF23     		movs	r3, #255
 106 0094 FB75     		strb	r3, [r7, #23]
 345:..\..\..\display\lvgl\lv_draw\../lv_misc/lv_color.h **** # endif
 346:..\..\..\display\lvgl\lv_draw\../lv_misc/lv_color.h **** #else
 347:..\..\..\display\lvgl\lv_draw\../lv_misc/lv_color.h ****     /*LV_COLOR_DEPTH == 1*/
 348:..\..\..\display\lvgl\lv_draw\../lv_misc/lv_color.h ****     ret.full = mix > LV_OPA_50 ? c1.full : c2.full;
 349:..\..\..\display\lvgl\lv_draw\../lv_misc/lv_color.h **** #endif
 350:..\..\..\display\lvgl\lv_draw\../lv_misc/lv_color.h **** 
ARM GAS  C:\Users\pearlstl\AppData\Local\Temp\ccc6DM2e.s 			page 9


 351:..\..\..\display\lvgl\lv_draw\../lv_misc/lv_color.h ****     return ret;
 107              		.loc 1 351 0
 108 0096 7B69     		ldr	r3, [r7, #20]
 352:..\..\..\display\lvgl\lv_draw\../lv_misc/lv_color.h **** }
 109              		.loc 1 352 0
 110 0098 1846     		mov	r0, r3
 111 009a 1C37     		adds	r7, r7, #28
 112              		.cfi_def_cfa_offset 4
 113 009c BD46     		mov	sp, r7
 114              		.cfi_def_cfa_register 13
 115              		@ sp needed
 116 009e 5DF8047B 		ldr	r7, [sp], #4
 117              		.cfi_restore 7
 118              		.cfi_def_cfa_offset 0
 119 00a2 7047     		bx	lr
 120              		.cfi_endproc
 121              	.LFE4:
 122              		.size	lv_color_mix, .-lv_color_mix
 123              		.section	.text.lv_area_get_width,"ax",%progbits
 124              		.align	2
 125              		.thumb
 126              		.thumb_func
 127              		.type	lv_area_get_width, %function
 128              	lv_area_get_width:
 129              	.LFB9:
 130              		.file 2 "..\\..\\..\\display\\lvgl\\lv_draw\\../lv_misc/lv_area.h"
   1:..\..\..\display\lvgl\lv_draw\../lv_misc/lv_area.h **** /**
   2:..\..\..\display\lvgl\lv_draw\../lv_misc/lv_area.h ****  * @file lv_area.h
   3:..\..\..\display\lvgl\lv_draw\../lv_misc/lv_area.h ****  *
   4:..\..\..\display\lvgl\lv_draw\../lv_misc/lv_area.h ****  */
   5:..\..\..\display\lvgl\lv_draw\../lv_misc/lv_area.h **** 
   6:..\..\..\display\lvgl\lv_draw\../lv_misc/lv_area.h **** #ifndef LV_AREA_H
   7:..\..\..\display\lvgl\lv_draw\../lv_misc/lv_area.h **** #define LV_AREA_H
   8:..\..\..\display\lvgl\lv_draw\../lv_misc/lv_area.h **** 
   9:..\..\..\display\lvgl\lv_draw\../lv_misc/lv_area.h **** #ifdef __cplusplus
  10:..\..\..\display\lvgl\lv_draw\../lv_misc/lv_area.h **** extern "C" {
  11:..\..\..\display\lvgl\lv_draw\../lv_misc/lv_area.h **** #endif
  12:..\..\..\display\lvgl\lv_draw\../lv_misc/lv_area.h **** 
  13:..\..\..\display\lvgl\lv_draw\../lv_misc/lv_area.h **** 
  14:..\..\..\display\lvgl\lv_draw\../lv_misc/lv_area.h **** /*********************
  15:..\..\..\display\lvgl\lv_draw\../lv_misc/lv_area.h ****  *      INCLUDES
  16:..\..\..\display\lvgl\lv_draw\../lv_misc/lv_area.h ****  *********************/
  17:..\..\..\display\lvgl\lv_draw\../lv_misc/lv_area.h **** #include <string.h>
  18:..\..\..\display\lvgl\lv_draw\../lv_misc/lv_area.h **** #include <stdbool.h>
  19:..\..\..\display\lvgl\lv_draw\../lv_misc/lv_area.h **** #include <stdint.h>
  20:..\..\..\display\lvgl\lv_draw\../lv_misc/lv_area.h **** 
  21:..\..\..\display\lvgl\lv_draw\../lv_misc/lv_area.h **** /*********************
  22:..\..\..\display\lvgl\lv_draw\../lv_misc/lv_area.h ****  *      DEFINES
  23:..\..\..\display\lvgl\lv_draw\../lv_misc/lv_area.h ****  *********************/
  24:..\..\..\display\lvgl\lv_draw\../lv_misc/lv_area.h **** #define LV_COORD_MAX     (16383)    /*To avoid overflow don't let the max [-32,32k] range */
  25:..\..\..\display\lvgl\lv_draw\../lv_misc/lv_area.h **** #define LV_COORD_MIN     (-16384)
  26:..\..\..\display\lvgl\lv_draw\../lv_misc/lv_area.h **** 
  27:..\..\..\display\lvgl\lv_draw\../lv_misc/lv_area.h **** /**********************
  28:..\..\..\display\lvgl\lv_draw\../lv_misc/lv_area.h ****  *      TYPEDEFS
  29:..\..\..\display\lvgl\lv_draw\../lv_misc/lv_area.h ****  **********************/
  30:..\..\..\display\lvgl\lv_draw\../lv_misc/lv_area.h **** typedef int16_t lv_coord_t;
  31:..\..\..\display\lvgl\lv_draw\../lv_misc/lv_area.h **** 
ARM GAS  C:\Users\pearlstl\AppData\Local\Temp\ccc6DM2e.s 			page 10


  32:..\..\..\display\lvgl\lv_draw\../lv_misc/lv_area.h **** typedef struct
  33:..\..\..\display\lvgl\lv_draw\../lv_misc/lv_area.h **** {
  34:..\..\..\display\lvgl\lv_draw\../lv_misc/lv_area.h ****     lv_coord_t x;
  35:..\..\..\display\lvgl\lv_draw\../lv_misc/lv_area.h ****     lv_coord_t y;
  36:..\..\..\display\lvgl\lv_draw\../lv_misc/lv_area.h **** } lv_point_t;
  37:..\..\..\display\lvgl\lv_draw\../lv_misc/lv_area.h **** 
  38:..\..\..\display\lvgl\lv_draw\../lv_misc/lv_area.h **** typedef struct
  39:..\..\..\display\lvgl\lv_draw\../lv_misc/lv_area.h **** {
  40:..\..\..\display\lvgl\lv_draw\../lv_misc/lv_area.h ****     lv_coord_t x1;
  41:..\..\..\display\lvgl\lv_draw\../lv_misc/lv_area.h ****     lv_coord_t y1;
  42:..\..\..\display\lvgl\lv_draw\../lv_misc/lv_area.h ****     lv_coord_t x2;
  43:..\..\..\display\lvgl\lv_draw\../lv_misc/lv_area.h ****     lv_coord_t y2;
  44:..\..\..\display\lvgl\lv_draw\../lv_misc/lv_area.h **** } lv_area_t;
  45:..\..\..\display\lvgl\lv_draw\../lv_misc/lv_area.h **** 
  46:..\..\..\display\lvgl\lv_draw\../lv_misc/lv_area.h **** /**********************
  47:..\..\..\display\lvgl\lv_draw\../lv_misc/lv_area.h ****  * GLOBAL PROTOTYPES
  48:..\..\..\display\lvgl\lv_draw\../lv_misc/lv_area.h ****  **********************/
  49:..\..\..\display\lvgl\lv_draw\../lv_misc/lv_area.h **** 
  50:..\..\..\display\lvgl\lv_draw\../lv_misc/lv_area.h **** /**
  51:..\..\..\display\lvgl\lv_draw\../lv_misc/lv_area.h ****  * Initialize an area
  52:..\..\..\display\lvgl\lv_draw\../lv_misc/lv_area.h ****  * @param area_p pointer to an area
  53:..\..\..\display\lvgl\lv_draw\../lv_misc/lv_area.h ****  * @param x1 left coordinate of the area
  54:..\..\..\display\lvgl\lv_draw\../lv_misc/lv_area.h ****  * @param y1 top coordinate of the area
  55:..\..\..\display\lvgl\lv_draw\../lv_misc/lv_area.h ****  * @param x2 right coordinate of the area
  56:..\..\..\display\lvgl\lv_draw\../lv_misc/lv_area.h ****  * @param y2 bottom coordinate of the area
  57:..\..\..\display\lvgl\lv_draw\../lv_misc/lv_area.h ****  */
  58:..\..\..\display\lvgl\lv_draw\../lv_misc/lv_area.h **** void lv_area_set(lv_area_t * area_p, lv_coord_t x1, lv_coord_t y1, lv_coord_t x2, lv_coord_t y2);
  59:..\..\..\display\lvgl\lv_draw\../lv_misc/lv_area.h **** 
  60:..\..\..\display\lvgl\lv_draw\../lv_misc/lv_area.h **** /**
  61:..\..\..\display\lvgl\lv_draw\../lv_misc/lv_area.h ****  * Copy an area
  62:..\..\..\display\lvgl\lv_draw\../lv_misc/lv_area.h ****  * @param dest pointer to the destination area
  63:..\..\..\display\lvgl\lv_draw\../lv_misc/lv_area.h ****  * @param src pointer to the source area
  64:..\..\..\display\lvgl\lv_draw\../lv_misc/lv_area.h ****  */
  65:..\..\..\display\lvgl\lv_draw\../lv_misc/lv_area.h **** inline static void lv_area_copy(lv_area_t * dest, const lv_area_t * src)
  66:..\..\..\display\lvgl\lv_draw\../lv_misc/lv_area.h **** {
  67:..\..\..\display\lvgl\lv_draw\../lv_misc/lv_area.h ****     memcpy(dest, src, sizeof(lv_area_t));
  68:..\..\..\display\lvgl\lv_draw\../lv_misc/lv_area.h **** }
  69:..\..\..\display\lvgl\lv_draw\../lv_misc/lv_area.h **** 
  70:..\..\..\display\lvgl\lv_draw\../lv_misc/lv_area.h **** /**
  71:..\..\..\display\lvgl\lv_draw\../lv_misc/lv_area.h ****  * Get the width of an area
  72:..\..\..\display\lvgl\lv_draw\../lv_misc/lv_area.h ****  * @param area_p pointer to an area
  73:..\..\..\display\lvgl\lv_draw\../lv_misc/lv_area.h ****  * @return the width of the area (if x1 == x2 -> width = 1)
  74:..\..\..\display\lvgl\lv_draw\../lv_misc/lv_area.h ****  */
  75:..\..\..\display\lvgl\lv_draw\../lv_misc/lv_area.h **** static inline lv_coord_t lv_area_get_width(const lv_area_t * area_p)
  76:..\..\..\display\lvgl\lv_draw\../lv_misc/lv_area.h **** {
 131              		.loc 2 76 0
 132              		.cfi_startproc
 133              		@ args = 0, pretend = 0, frame = 8
 134              		@ frame_needed = 1, uses_anonymous_args = 0
 135              		@ link register save eliminated.
 136 0000 80B4     		push	{r7}
 137              		.cfi_def_cfa_offset 4
 138              		.cfi_offset 7, -4
 139 0002 83B0     		sub	sp, sp, #12
 140              		.cfi_def_cfa_offset 16
 141 0004 00AF     		add	r7, sp, #0
 142              		.cfi_def_cfa_register 7
ARM GAS  C:\Users\pearlstl\AppData\Local\Temp\ccc6DM2e.s 			page 11


 143 0006 7860     		str	r0, [r7, #4]
  77:..\..\..\display\lvgl\lv_draw\../lv_misc/lv_area.h ****     return area_p->x2 - area_p->x1 + 1;
 144              		.loc 2 77 0
 145 0008 7B68     		ldr	r3, [r7, #4]
 146 000a B3F90430 		ldrsh	r3, [r3, #4]
 147 000e 9AB2     		uxth	r2, r3
 148 0010 7B68     		ldr	r3, [r7, #4]
 149 0012 B3F90030 		ldrsh	r3, [r3]
 150 0016 9BB2     		uxth	r3, r3
 151 0018 D31A     		subs	r3, r2, r3
 152 001a 9BB2     		uxth	r3, r3
 153 001c 0133     		adds	r3, r3, #1
 154 001e 9BB2     		uxth	r3, r3
 155 0020 1BB2     		sxth	r3, r3
  78:..\..\..\display\lvgl\lv_draw\../lv_misc/lv_area.h **** }
 156              		.loc 2 78 0
 157 0022 1846     		mov	r0, r3
 158 0024 0C37     		adds	r7, r7, #12
 159              		.cfi_def_cfa_offset 4
 160 0026 BD46     		mov	sp, r7
 161              		.cfi_def_cfa_register 13
 162              		@ sp needed
 163 0028 5DF8047B 		ldr	r7, [sp], #4
 164              		.cfi_restore 7
 165              		.cfi_def_cfa_offset 0
 166 002c 7047     		bx	lr
 167              		.cfi_endproc
 168              	.LFE9:
 169              		.size	lv_area_get_width, .-lv_area_get_width
 170 002e 00BF     		.section	.text.lv_font_get_height,"ax",%progbits
 171              		.align	2
 172              		.thumb
 173              		.thumb_func
 174              		.type	lv_font_get_height, %function
 175              	lv_font_get_height:
 176              	.LFB11:
 177              		.file 3 "..\\..\\..\\display\\lvgl\\lv_draw\\../lv_misc/lv_font.h"
   1:..\..\..\display\lvgl\lv_draw\../lv_misc/lv_font.h **** /**
   2:..\..\..\display\lvgl\lv_draw\../lv_misc/lv_font.h ****  * @file lv_font.h
   3:..\..\..\display\lvgl\lv_draw\../lv_misc/lv_font.h ****  *
   4:..\..\..\display\lvgl\lv_draw\../lv_misc/lv_font.h ****  */
   5:..\..\..\display\lvgl\lv_draw\../lv_misc/lv_font.h **** 
   6:..\..\..\display\lvgl\lv_draw\../lv_misc/lv_font.h **** #ifndef LV_FONT_H
   7:..\..\..\display\lvgl\lv_draw\../lv_misc/lv_font.h **** #define LV_FONT_H
   8:..\..\..\display\lvgl\lv_draw\../lv_misc/lv_font.h **** 
   9:..\..\..\display\lvgl\lv_draw\../lv_misc/lv_font.h **** #ifdef __cplusplus
  10:..\..\..\display\lvgl\lv_draw\../lv_misc/lv_font.h **** extern "C" {
  11:..\..\..\display\lvgl\lv_draw\../lv_misc/lv_font.h **** #endif
  12:..\..\..\display\lvgl\lv_draw\../lv_misc/lv_font.h **** 
  13:..\..\..\display\lvgl\lv_draw\../lv_misc/lv_font.h **** 
  14:..\..\..\display\lvgl\lv_draw\../lv_misc/lv_font.h **** /*********************
  15:..\..\..\display\lvgl\lv_draw\../lv_misc/lv_font.h ****  *      INCLUDES
  16:..\..\..\display\lvgl\lv_draw\../lv_misc/lv_font.h ****  *********************/
  17:..\..\..\display\lvgl\lv_draw\../lv_misc/lv_font.h **** #ifdef LV_CONF_INCLUDE_SIMPLE
  18:..\..\..\display\lvgl\lv_draw\../lv_misc/lv_font.h **** #include "lv_conf.h"
  19:..\..\..\display\lvgl\lv_draw\../lv_misc/lv_font.h **** #else
  20:..\..\..\display\lvgl\lv_draw\../lv_misc/lv_font.h **** #include "../../lv_conf.h"
ARM GAS  C:\Users\pearlstl\AppData\Local\Temp\ccc6DM2e.s 			page 12


  21:..\..\..\display\lvgl\lv_draw\../lv_misc/lv_font.h **** #endif
  22:..\..\..\display\lvgl\lv_draw\../lv_misc/lv_font.h **** 
  23:..\..\..\display\lvgl\lv_draw\../lv_misc/lv_font.h **** #include <stdint.h>
  24:..\..\..\display\lvgl\lv_draw\../lv_misc/lv_font.h **** #include <stddef.h>
  25:..\..\..\display\lvgl\lv_draw\../lv_misc/lv_font.h **** #include <stdbool.h>
  26:..\..\..\display\lvgl\lv_draw\../lv_misc/lv_font.h **** 
  27:..\..\..\display\lvgl\lv_draw\../lv_misc/lv_font.h **** #include "lv_symbol_def.h"
  28:..\..\..\display\lvgl\lv_draw\../lv_misc/lv_font.h **** 
  29:..\..\..\display\lvgl\lv_draw\../lv_misc/lv_font.h **** /*********************
  30:..\..\..\display\lvgl\lv_draw\../lv_misc/lv_font.h ****  *      DEFINES
  31:..\..\..\display\lvgl\lv_draw\../lv_misc/lv_font.h ****  *********************/
  32:..\..\..\display\lvgl\lv_draw\../lv_misc/lv_font.h **** 
  33:..\..\..\display\lvgl\lv_draw\../lv_misc/lv_font.h **** /**********************
  34:..\..\..\display\lvgl\lv_draw\../lv_misc/lv_font.h ****  *      TYPEDEFS
  35:..\..\..\display\lvgl\lv_draw\../lv_misc/lv_font.h ****  **********************/
  36:..\..\..\display\lvgl\lv_draw\../lv_misc/lv_font.h **** 
  37:..\..\..\display\lvgl\lv_draw\../lv_misc/lv_font.h **** typedef struct
  38:..\..\..\display\lvgl\lv_draw\../lv_misc/lv_font.h **** {
  39:..\..\..\display\lvgl\lv_draw\../lv_misc/lv_font.h ****     uint32_t w_px         :8;
  40:..\..\..\display\lvgl\lv_draw\../lv_misc/lv_font.h ****     uint32_t glyph_index  :24;
  41:..\..\..\display\lvgl\lv_draw\../lv_misc/lv_font.h **** } lv_font_glyph_dsc_t;
  42:..\..\..\display\lvgl\lv_draw\../lv_misc/lv_font.h **** 
  43:..\..\..\display\lvgl\lv_draw\../lv_misc/lv_font.h **** typedef struct
  44:..\..\..\display\lvgl\lv_draw\../lv_misc/lv_font.h **** {
  45:..\..\..\display\lvgl\lv_draw\../lv_misc/lv_font.h ****     uint32_t unicode         :21;
  46:..\..\..\display\lvgl\lv_draw\../lv_misc/lv_font.h ****     uint32_t glyph_dsc_index :11;
  47:..\..\..\display\lvgl\lv_draw\../lv_misc/lv_font.h **** } lv_font_unicode_map_t;
  48:..\..\..\display\lvgl\lv_draw\../lv_misc/lv_font.h **** 
  49:..\..\..\display\lvgl\lv_draw\../lv_misc/lv_font.h **** typedef struct _lv_font_struct
  50:..\..\..\display\lvgl\lv_draw\../lv_misc/lv_font.h **** {
  51:..\..\..\display\lvgl\lv_draw\../lv_misc/lv_font.h ****     uint32_t unicode_first;
  52:..\..\..\display\lvgl\lv_draw\../lv_misc/lv_font.h ****     uint32_t unicode_last;
  53:..\..\..\display\lvgl\lv_draw\../lv_misc/lv_font.h ****     const uint8_t * glyph_bitmap;
  54:..\..\..\display\lvgl\lv_draw\../lv_misc/lv_font.h ****     const lv_font_glyph_dsc_t * glyph_dsc;
  55:..\..\..\display\lvgl\lv_draw\../lv_misc/lv_font.h ****     const uint32_t * unicode_list;
  56:..\..\..\display\lvgl\lv_draw\../lv_misc/lv_font.h ****     const uint8_t * (*get_bitmap)(const struct _lv_font_struct *,uint32_t);     /*Get a glyph's  bi
  57:..\..\..\display\lvgl\lv_draw\../lv_misc/lv_font.h ****     int16_t (*get_width)(const struct _lv_font_struct *,uint32_t);        /*Get a glyph's with with
  58:..\..\..\display\lvgl\lv_draw\../lv_misc/lv_font.h ****     struct _lv_font_struct * next_page;    /*Pointer to a font extension*/
  59:..\..\..\display\lvgl\lv_draw\../lv_misc/lv_font.h ****     uint32_t h_px       :8;
  60:..\..\..\display\lvgl\lv_draw\../lv_misc/lv_font.h ****     uint32_t bpp        :4;                /*Bit per pixel: 1, 2 or 4*/
  61:..\..\..\display\lvgl\lv_draw\../lv_misc/lv_font.h ****     uint32_t monospace  :8;                /*Fix width (0: normal width)*/
  62:..\..\..\display\lvgl\lv_draw\../lv_misc/lv_font.h ****     uint16_t glyph_cnt;                    /*Number of glyphs (letters) in the font*/
  63:..\..\..\display\lvgl\lv_draw\../lv_misc/lv_font.h **** } lv_font_t;
  64:..\..\..\display\lvgl\lv_draw\../lv_misc/lv_font.h **** 
  65:..\..\..\display\lvgl\lv_draw\../lv_misc/lv_font.h **** /**********************
  66:..\..\..\display\lvgl\lv_draw\../lv_misc/lv_font.h ****  * GLOBAL PROTOTYPES
  67:..\..\..\display\lvgl\lv_draw\../lv_misc/lv_font.h ****  **********************/
  68:..\..\..\display\lvgl\lv_draw\../lv_misc/lv_font.h **** 
  69:..\..\..\display\lvgl\lv_draw\../lv_misc/lv_font.h **** /**
  70:..\..\..\display\lvgl\lv_draw\../lv_misc/lv_font.h ****  * Initialize the fonts
  71:..\..\..\display\lvgl\lv_draw\../lv_misc/lv_font.h ****  */
  72:..\..\..\display\lvgl\lv_draw\../lv_misc/lv_font.h **** void lv_font_init(void);
  73:..\..\..\display\lvgl\lv_draw\../lv_misc/lv_font.h **** 
  74:..\..\..\display\lvgl\lv_draw\../lv_misc/lv_font.h **** /**
  75:..\..\..\display\lvgl\lv_draw\../lv_misc/lv_font.h ****  * Add a font to an other to extend the character set.
  76:..\..\..\display\lvgl\lv_draw\../lv_misc/lv_font.h ****  * @param child the font to add
  77:..\..\..\display\lvgl\lv_draw\../lv_misc/lv_font.h ****  * @param parent this font will be extended. Using it later will contain the characters from `child
ARM GAS  C:\Users\pearlstl\AppData\Local\Temp\ccc6DM2e.s 			page 13


  78:..\..\..\display\lvgl\lv_draw\../lv_misc/lv_font.h ****  */
  79:..\..\..\display\lvgl\lv_draw\../lv_misc/lv_font.h **** void lv_font_add(lv_font_t *child, lv_font_t *parent);
  80:..\..\..\display\lvgl\lv_draw\../lv_misc/lv_font.h **** 
  81:..\..\..\display\lvgl\lv_draw\../lv_misc/lv_font.h **** /**
  82:..\..\..\display\lvgl\lv_draw\../lv_misc/lv_font.h ****  * Remove a font from a character set.
  83:..\..\..\display\lvgl\lv_draw\../lv_misc/lv_font.h ****  * @param child the font to remove
  84:..\..\..\display\lvgl\lv_draw\../lv_misc/lv_font.h ****  * @param parent remove `child` from here
  85:..\..\..\display\lvgl\lv_draw\../lv_misc/lv_font.h ****  */
  86:..\..\..\display\lvgl\lv_draw\../lv_misc/lv_font.h **** void lv_font_remove(lv_font_t * child, lv_font_t * parent);
  87:..\..\..\display\lvgl\lv_draw\../lv_misc/lv_font.h **** 
  88:..\..\..\display\lvgl\lv_draw\../lv_misc/lv_font.h **** /**
  89:..\..\..\display\lvgl\lv_draw\../lv_misc/lv_font.h ****  * Tells if font which contains `letter` is monospace or not
  90:..\..\..\display\lvgl\lv_draw\../lv_misc/lv_font.h ****  * @param font_p point to font
  91:..\..\..\display\lvgl\lv_draw\../lv_misc/lv_font.h ****  * @param letter an UNICODE character code
  92:..\..\..\display\lvgl\lv_draw\../lv_misc/lv_font.h ****  * @return true: the letter is monospace; false not monospace
  93:..\..\..\display\lvgl\lv_draw\../lv_misc/lv_font.h ****  */
  94:..\..\..\display\lvgl\lv_draw\../lv_misc/lv_font.h **** bool lv_font_is_monospace(const lv_font_t * font_p, uint32_t letter);
  95:..\..\..\display\lvgl\lv_draw\../lv_misc/lv_font.h **** 
  96:..\..\..\display\lvgl\lv_draw\../lv_misc/lv_font.h **** /**
  97:..\..\..\display\lvgl\lv_draw\../lv_misc/lv_font.h ****  * Return with the bitmap of a font.
  98:..\..\..\display\lvgl\lv_draw\../lv_misc/lv_font.h ****  * @param font_p pointer to a font
  99:..\..\..\display\lvgl\lv_draw\../lv_misc/lv_font.h ****  * @param letter an UNICODE character code
 100:..\..\..\display\lvgl\lv_draw\../lv_misc/lv_font.h ****  * @return  pointer to the bitmap of the letter
 101:..\..\..\display\lvgl\lv_draw\../lv_misc/lv_font.h ****  */
 102:..\..\..\display\lvgl\lv_draw\../lv_misc/lv_font.h **** const uint8_t * lv_font_get_bitmap(const lv_font_t * font_p, uint32_t letter);
 103:..\..\..\display\lvgl\lv_draw\../lv_misc/lv_font.h **** 
 104:..\..\..\display\lvgl\lv_draw\../lv_misc/lv_font.h **** /**
 105:..\..\..\display\lvgl\lv_draw\../lv_misc/lv_font.h ****  * Get the width of a letter in a font. If `monospace` is set then return with it.
 106:..\..\..\display\lvgl\lv_draw\../lv_misc/lv_font.h ****  * @param font_p pointer to a font
 107:..\..\..\display\lvgl\lv_draw\../lv_misc/lv_font.h ****  * @param letter an UNICODE character code
 108:..\..\..\display\lvgl\lv_draw\../lv_misc/lv_font.h ****  * @return the width of a letter
 109:..\..\..\display\lvgl\lv_draw\../lv_misc/lv_font.h ****  */
 110:..\..\..\display\lvgl\lv_draw\../lv_misc/lv_font.h **** uint8_t lv_font_get_width(const lv_font_t * font_p, uint32_t letter);
 111:..\..\..\display\lvgl\lv_draw\../lv_misc/lv_font.h **** 
 112:..\..\..\display\lvgl\lv_draw\../lv_misc/lv_font.h **** 
 113:..\..\..\display\lvgl\lv_draw\../lv_misc/lv_font.h **** /**
 114:..\..\..\display\lvgl\lv_draw\../lv_misc/lv_font.h ****  * Get the width of the letter without overwriting it with the `monospace` attribute
 115:..\..\..\display\lvgl\lv_draw\../lv_misc/lv_font.h ****  * @param font_p pointer to a font
 116:..\..\..\display\lvgl\lv_draw\../lv_misc/lv_font.h ****  * @param letter an UNICODE character code
 117:..\..\..\display\lvgl\lv_draw\../lv_misc/lv_font.h ****  * @return the width of a letter
 118:..\..\..\display\lvgl\lv_draw\../lv_misc/lv_font.h ****  */
 119:..\..\..\display\lvgl\lv_draw\../lv_misc/lv_font.h **** uint8_t lv_font_get_real_width(const lv_font_t * font_p, uint32_t letter);
 120:..\..\..\display\lvgl\lv_draw\../lv_misc/lv_font.h **** 
 121:..\..\..\display\lvgl\lv_draw\../lv_misc/lv_font.h **** /**
 122:..\..\..\display\lvgl\lv_draw\../lv_misc/lv_font.h ****  * Get the height of a font
 123:..\..\..\display\lvgl\lv_draw\../lv_misc/lv_font.h ****  * @param font_p pointer to a font
 124:..\..\..\display\lvgl\lv_draw\../lv_misc/lv_font.h ****  * @return the height of a font
 125:..\..\..\display\lvgl\lv_draw\../lv_misc/lv_font.h ****  */
 126:..\..\..\display\lvgl\lv_draw\../lv_misc/lv_font.h **** static inline uint8_t lv_font_get_height(const lv_font_t * font_p)
 127:..\..\..\display\lvgl\lv_draw\../lv_misc/lv_font.h **** {
 178              		.loc 3 127 0
 179              		.cfi_startproc
 180              		@ args = 0, pretend = 0, frame = 8
 181              		@ frame_needed = 1, uses_anonymous_args = 0
 182              		@ link register save eliminated.
 183 0000 80B4     		push	{r7}
 184              		.cfi_def_cfa_offset 4
ARM GAS  C:\Users\pearlstl\AppData\Local\Temp\ccc6DM2e.s 			page 14


 185              		.cfi_offset 7, -4
 186 0002 83B0     		sub	sp, sp, #12
 187              		.cfi_def_cfa_offset 16
 188 0004 00AF     		add	r7, sp, #0
 189              		.cfi_def_cfa_register 7
 190 0006 7860     		str	r0, [r7, #4]
 128:..\..\..\display\lvgl\lv_draw\../lv_misc/lv_font.h ****     return font_p->h_px;
 191              		.loc 3 128 0
 192 0008 7B68     		ldr	r3, [r7, #4]
 193 000a 93F82030 		ldrb	r3, [r3, #32]	@ zero_extendqisi2
 129:..\..\..\display\lvgl\lv_draw\../lv_misc/lv_font.h **** }
 194              		.loc 3 129 0
 195 000e 1846     		mov	r0, r3
 196 0010 0C37     		adds	r7, r7, #12
 197              		.cfi_def_cfa_offset 4
 198 0012 BD46     		mov	sp, r7
 199              		.cfi_def_cfa_register 13
 200              		@ sp needed
 201 0014 5DF8047B 		ldr	r7, [sp], #4
 202              		.cfi_restore 7
 203              		.cfi_def_cfa_offset 0
 204 0018 7047     		bx	lr
 205              		.cfi_endproc
 206              	.LFE11:
 207              		.size	lv_font_get_height, .-lv_font_get_height
 208 001a 00BF     		.bss
 209              		.align	2
 210              	letter_bg_color:
 211 0000 00000000 		.space	4
 212              		.section	.text.lv_rpx,"ax",%progbits
 213              		.align	2
 214              		.global	lv_rpx
 215              		.thumb
 216              		.thumb_func
 217              		.type	lv_rpx, %function
 218              	lv_rpx:
 219              	.LFB12:
 220              		.file 4 "..\\..\\..\\display\\lvgl\\lv_draw\\lv_draw_rbasic.c"
   1:..\..\..\display\lvgl\lv_draw/lv_draw_rbasic.c **** /**
   2:..\..\..\display\lvgl\lv_draw/lv_draw_rbasic.c ****  * @file lv_draw_rbasic.c
   3:..\..\..\display\lvgl\lv_draw/lv_draw_rbasic.c ****  *
   4:..\..\..\display\lvgl\lv_draw/lv_draw_rbasic.c ****  */
   5:..\..\..\display\lvgl\lv_draw/lv_draw_rbasic.c **** 
   6:..\..\..\display\lvgl\lv_draw/lv_draw_rbasic.c **** /*********************
   7:..\..\..\display\lvgl\lv_draw/lv_draw_rbasic.c ****  *      INCLUDES
   8:..\..\..\display\lvgl\lv_draw/lv_draw_rbasic.c ****  *********************/
   9:..\..\..\display\lvgl\lv_draw/lv_draw_rbasic.c **** #include "lv_draw_rbasic.h"
  10:..\..\..\display\lvgl\lv_draw/lv_draw_rbasic.c **** #if USE_LV_REAL_DRAW != 0
  11:..\..\..\display\lvgl\lv_draw/lv_draw_rbasic.c **** 
  12:..\..\..\display\lvgl\lv_draw/lv_draw_rbasic.c **** #include "../lv_hal/lv_hal_disp.h"
  13:..\..\..\display\lvgl\lv_draw/lv_draw_rbasic.c **** #include "../lv_misc/lv_font.h"
  14:..\..\..\display\lvgl\lv_draw/lv_draw_rbasic.c **** #include "lv_draw.h"
  15:..\..\..\display\lvgl\lv_draw/lv_draw_rbasic.c **** 
  16:..\..\..\display\lvgl\lv_draw/lv_draw_rbasic.c **** /*********************
  17:..\..\..\display\lvgl\lv_draw/lv_draw_rbasic.c ****  *      DEFINES
  18:..\..\..\display\lvgl\lv_draw/lv_draw_rbasic.c ****  *********************/
  19:..\..\..\display\lvgl\lv_draw/lv_draw_rbasic.c **** 
ARM GAS  C:\Users\pearlstl\AppData\Local\Temp\ccc6DM2e.s 			page 15


  20:..\..\..\display\lvgl\lv_draw/lv_draw_rbasic.c **** /**********************
  21:..\..\..\display\lvgl\lv_draw/lv_draw_rbasic.c ****  *      TYPEDEFS
  22:..\..\..\display\lvgl\lv_draw/lv_draw_rbasic.c ****  **********************/
  23:..\..\..\display\lvgl\lv_draw/lv_draw_rbasic.c **** 
  24:..\..\..\display\lvgl\lv_draw/lv_draw_rbasic.c **** /**********************
  25:..\..\..\display\lvgl\lv_draw/lv_draw_rbasic.c ****  *  STATIC PROTOTYPES
  26:..\..\..\display\lvgl\lv_draw/lv_draw_rbasic.c ****  **********************/
  27:..\..\..\display\lvgl\lv_draw/lv_draw_rbasic.c **** 
  28:..\..\..\display\lvgl\lv_draw/lv_draw_rbasic.c **** /**********************
  29:..\..\..\display\lvgl\lv_draw/lv_draw_rbasic.c ****  *  STATIC VARIABLES
  30:..\..\..\display\lvgl\lv_draw/lv_draw_rbasic.c ****  **********************/
  31:..\..\..\display\lvgl\lv_draw/lv_draw_rbasic.c **** static lv_color_t letter_bg_color;
  32:..\..\..\display\lvgl\lv_draw/lv_draw_rbasic.c **** 
  33:..\..\..\display\lvgl\lv_draw/lv_draw_rbasic.c **** /**********************
  34:..\..\..\display\lvgl\lv_draw/lv_draw_rbasic.c ****  *      MACROS
  35:..\..\..\display\lvgl\lv_draw/lv_draw_rbasic.c ****  **********************/
  36:..\..\..\display\lvgl\lv_draw/lv_draw_rbasic.c **** 
  37:..\..\..\display\lvgl\lv_draw/lv_draw_rbasic.c **** /**********************
  38:..\..\..\display\lvgl\lv_draw/lv_draw_rbasic.c ****  *   GLOBAL FUNCTIONS
  39:..\..\..\display\lvgl\lv_draw/lv_draw_rbasic.c ****  **********************/
  40:..\..\..\display\lvgl\lv_draw/lv_draw_rbasic.c **** 
  41:..\..\..\display\lvgl\lv_draw/lv_draw_rbasic.c **** /**
  42:..\..\..\display\lvgl\lv_draw/lv_draw_rbasic.c ****  * Put a pixel to the display
  43:..\..\..\display\lvgl\lv_draw/lv_draw_rbasic.c ****  * @param x x coordinate of the pixel
  44:..\..\..\display\lvgl\lv_draw/lv_draw_rbasic.c ****  * @param y y coordinate of the pixel
  45:..\..\..\display\lvgl\lv_draw/lv_draw_rbasic.c ****  * @param mask_p the pixel will be drawn on this area
  46:..\..\..\display\lvgl\lv_draw/lv_draw_rbasic.c ****  * @param color color of the pixel
  47:..\..\..\display\lvgl\lv_draw/lv_draw_rbasic.c ****  * @param opa opacity (ignored, only for compatibility with lv_vpx)
  48:..\..\..\display\lvgl\lv_draw/lv_draw_rbasic.c ****  */
  49:..\..\..\display\lvgl\lv_draw/lv_draw_rbasic.c **** void lv_rpx(lv_coord_t x, lv_coord_t y, const lv_area_t * mask_p, lv_color_t color, lv_opa_t opa)
  50:..\..\..\display\lvgl\lv_draw/lv_draw_rbasic.c **** {
 221              		.loc 4 50 0
 222              		.cfi_startproc
 223              		@ args = 4, pretend = 0, frame = 24
 224              		@ frame_needed = 1, uses_anonymous_args = 0
 225 0000 80B5     		push	{r7, lr}
 226              		.cfi_def_cfa_offset 8
 227              		.cfi_offset 7, -8
 228              		.cfi_offset 14, -4
 229 0002 86B0     		sub	sp, sp, #24
 230              		.cfi_def_cfa_offset 32
 231 0004 00AF     		add	r7, sp, #0
 232              		.cfi_def_cfa_register 7
 233 0006 BA60     		str	r2, [r7, #8]
 234 0008 7B60     		str	r3, [r7, #4]
 235 000a 0346     		mov	r3, r0	@ movhi
 236 000c FB81     		strh	r3, [r7, #14]	@ movhi
 237 000e 0B46     		mov	r3, r1	@ movhi
 238 0010 BB81     		strh	r3, [r7, #12]	@ movhi
  51:..\..\..\display\lvgl\lv_draw/lv_draw_rbasic.c ****     (void)opa;      /*Opa is used only for compatibility with lv_vpx*/
  52:..\..\..\display\lvgl\lv_draw/lv_draw_rbasic.c **** 
  53:..\..\..\display\lvgl\lv_draw/lv_draw_rbasic.c ****     lv_area_t area;
  54:..\..\..\display\lvgl\lv_draw/lv_draw_rbasic.c ****     area.x1 = x;
 239              		.loc 4 54 0
 240 0012 FB89     		ldrh	r3, [r7, #14]	@ movhi
 241 0014 3B82     		strh	r3, [r7, #16]	@ movhi
  55:..\..\..\display\lvgl\lv_draw/lv_draw_rbasic.c ****     area.y1 = y;
ARM GAS  C:\Users\pearlstl\AppData\Local\Temp\ccc6DM2e.s 			page 16


 242              		.loc 4 55 0
 243 0016 BB89     		ldrh	r3, [r7, #12]	@ movhi
 244 0018 7B82     		strh	r3, [r7, #18]	@ movhi
  56:..\..\..\display\lvgl\lv_draw/lv_draw_rbasic.c ****     area.x2 = x;
 245              		.loc 4 56 0
 246 001a FB89     		ldrh	r3, [r7, #14]	@ movhi
 247 001c BB82     		strh	r3, [r7, #20]	@ movhi
  57:..\..\..\display\lvgl\lv_draw/lv_draw_rbasic.c ****     area.y2 = y;
 248              		.loc 4 57 0
 249 001e BB89     		ldrh	r3, [r7, #12]	@ movhi
 250 0020 FB82     		strh	r3, [r7, #22]	@ movhi
  58:..\..\..\display\lvgl\lv_draw/lv_draw_rbasic.c **** 
  59:..\..\..\display\lvgl\lv_draw/lv_draw_rbasic.c ****     lv_rfill(&area, mask_p, color, LV_OPA_COVER);
 251              		.loc 4 59 0
 252 0022 07F11000 		add	r0, r7, #16
 253 0026 FF23     		movs	r3, #255
 254 0028 7A68     		ldr	r2, [r7, #4]
 255 002a B968     		ldr	r1, [r7, #8]
 256 002c FFF7FEFF 		bl	lv_rfill
  60:..\..\..\display\lvgl\lv_draw/lv_draw_rbasic.c **** }
 257              		.loc 4 60 0
 258 0030 00BF     		nop
 259 0032 1837     		adds	r7, r7, #24
 260              		.cfi_def_cfa_offset 8
 261 0034 BD46     		mov	sp, r7
 262              		.cfi_def_cfa_register 13
 263              		@ sp needed
 264 0036 80BD     		pop	{r7, pc}
 265              		.cfi_endproc
 266              	.LFE12:
 267              		.size	lv_rpx, .-lv_rpx
 268              		.section	.text.lv_rfill,"ax",%progbits
 269              		.align	2
 270              		.global	lv_rfill
 271              		.thumb
 272              		.thumb_func
 273              		.type	lv_rfill, %function
 274              	lv_rfill:
 275              	.LFB13:
  61:..\..\..\display\lvgl\lv_draw/lv_draw_rbasic.c **** 
  62:..\..\..\display\lvgl\lv_draw/lv_draw_rbasic.c **** /**
  63:..\..\..\display\lvgl\lv_draw/lv_draw_rbasic.c ****  * Fill an area on the display
  64:..\..\..\display\lvgl\lv_draw/lv_draw_rbasic.c ****  * @param cords_p coordinates of the area to fill
  65:..\..\..\display\lvgl\lv_draw/lv_draw_rbasic.c ****  * @param mask_p fill only o this mask
  66:..\..\..\display\lvgl\lv_draw/lv_draw_rbasic.c ****  * @param color fill color
  67:..\..\..\display\lvgl\lv_draw/lv_draw_rbasic.c ****  * @param opa opacity (ignored, only for compatibility with lv_vfill)
  68:..\..\..\display\lvgl\lv_draw/lv_draw_rbasic.c ****  */
  69:..\..\..\display\lvgl\lv_draw/lv_draw_rbasic.c **** void lv_rfill(const lv_area_t * cords_p, const lv_area_t * mask_p,
  70:..\..\..\display\lvgl\lv_draw/lv_draw_rbasic.c ****               lv_color_t color, lv_opa_t opa)
  71:..\..\..\display\lvgl\lv_draw/lv_draw_rbasic.c **** {
 276              		.loc 4 71 0
 277              		.cfi_startproc
 278              		@ args = 0, pretend = 0, frame = 40
 279              		@ frame_needed = 1, uses_anonymous_args = 0
 280 0000 90B5     		push	{r4, r7, lr}
 281              		.cfi_def_cfa_offset 12
 282              		.cfi_offset 4, -12
ARM GAS  C:\Users\pearlstl\AppData\Local\Temp\ccc6DM2e.s 			page 17


 283              		.cfi_offset 7, -8
 284              		.cfi_offset 14, -4
 285 0002 8DB0     		sub	sp, sp, #52
 286              		.cfi_def_cfa_offset 64
 287 0004 02AF     		add	r7, sp, #8
 288              		.cfi_def_cfa 7, 56
 289 0006 F860     		str	r0, [r7, #12]
 290 0008 B960     		str	r1, [r7, #8]
 291 000a 7A60     		str	r2, [r7, #4]
 292 000c FB70     		strb	r3, [r7, #3]
  72:..\..\..\display\lvgl\lv_draw/lv_draw_rbasic.c **** 
  73:..\..\..\display\lvgl\lv_draw/lv_draw_rbasic.c ****     (void)opa;      /*Opa is used only for compatibility with lv_vfill*/
  74:..\..\..\display\lvgl\lv_draw/lv_draw_rbasic.c **** 
  75:..\..\..\display\lvgl\lv_draw/lv_draw_rbasic.c ****     lv_area_t masked_area;
  76:..\..\..\display\lvgl\lv_draw/lv_draw_rbasic.c ****     bool union_ok = true;
 293              		.loc 4 76 0
 294 000e 0123     		movs	r3, #1
 295 0010 87F82730 		strb	r3, [r7, #39]
  77:..\..\..\display\lvgl\lv_draw/lv_draw_rbasic.c **** 
  78:..\..\..\display\lvgl\lv_draw/lv_draw_rbasic.c ****     if(mask_p != NULL) {
 296              		.loc 4 78 0
 297 0014 BB68     		ldr	r3, [r7, #8]
 298 0016 002B     		cmp	r3, #0
 299 0018 0AD0     		beq	.L9
  79:..\..\..\display\lvgl\lv_draw/lv_draw_rbasic.c ****         union_ok = lv_area_intersect(&masked_area, cords_p, mask_p);
 300              		.loc 4 79 0
 301 001a 07F11C03 		add	r3, r7, #28
 302 001e BA68     		ldr	r2, [r7, #8]
 303 0020 F968     		ldr	r1, [r7, #12]
 304 0022 1846     		mov	r0, r3
 305 0024 FFF7FEFF 		bl	lv_area_intersect
 306 0028 0346     		mov	r3, r0
 307 002a 87F82730 		strb	r3, [r7, #39]
 308 002e 15E0     		b	.L10
 309              	.L9:
 310              	.LBB2:
  80:..\..\..\display\lvgl\lv_draw/lv_draw_rbasic.c ****     } else {
  81:..\..\..\display\lvgl\lv_draw/lv_draw_rbasic.c ****         lv_area_t scr_area;
  82:..\..\..\display\lvgl\lv_draw/lv_draw_rbasic.c ****         lv_area_set(&scr_area, 0, 0, LV_HOR_RES - 1, LV_VER_RES - 1);
 311              		.loc 4 82 0
 312 0030 07F11400 		add	r0, r7, #20
 313 0034 40F2DF13 		movw	r3, #479
 314 0038 0093     		str	r3, [sp]
 315 003a 40F23F13 		movw	r3, #319
 316 003e 0022     		movs	r2, #0
 317 0040 0021     		movs	r1, #0
 318 0042 FFF7FEFF 		bl	lv_area_set
  83:..\..\..\display\lvgl\lv_draw/lv_draw_rbasic.c ****         union_ok = lv_area_intersect(&masked_area, cords_p, &scr_area);
 319              		.loc 4 83 0
 320 0046 07F11402 		add	r2, r7, #20
 321 004a 07F11C03 		add	r3, r7, #28
 322 004e F968     		ldr	r1, [r7, #12]
 323 0050 1846     		mov	r0, r3
 324 0052 FFF7FEFF 		bl	lv_area_intersect
 325 0056 0346     		mov	r3, r0
 326 0058 87F82730 		strb	r3, [r7, #39]
 327              	.L10:
ARM GAS  C:\Users\pearlstl\AppData\Local\Temp\ccc6DM2e.s 			page 18


 328              	.LBE2:
  84:..\..\..\display\lvgl\lv_draw/lv_draw_rbasic.c ****     }
  85:..\..\..\display\lvgl\lv_draw/lv_draw_rbasic.c **** 
  86:..\..\..\display\lvgl\lv_draw/lv_draw_rbasic.c ****     if(union_ok != false) {
 329              		.loc 4 86 0
 330 005c 97F82730 		ldrb	r3, [r7, #39]	@ zero_extendqisi2
 331 0060 002B     		cmp	r3, #0
 332 0062 10D0     		beq	.L12
  87:..\..\..\display\lvgl\lv_draw/lv_draw_rbasic.c ****         lv_disp_fill(masked_area.x1, masked_area.y1, masked_area.x2, masked_area.y2, color);
 333              		.loc 4 87 0
 334 0064 B7F91C30 		ldrsh	r3, [r7, #28]
 335 0068 1846     		mov	r0, r3
 336 006a B7F91E30 		ldrsh	r3, [r7, #30]
 337 006e 1946     		mov	r1, r3
 338 0070 B7F92030 		ldrsh	r3, [r7, #32]
 339 0074 1A46     		mov	r2, r3
 340 0076 B7F92230 		ldrsh	r3, [r7, #34]
 341 007a 1C46     		mov	r4, r3
 342 007c 7B68     		ldr	r3, [r7, #4]
 343 007e 0093     		str	r3, [sp]
 344 0080 2346     		mov	r3, r4
 345 0082 FFF7FEFF 		bl	lv_disp_fill
 346              	.L12:
  88:..\..\..\display\lvgl\lv_draw/lv_draw_rbasic.c ****     }
  89:..\..\..\display\lvgl\lv_draw/lv_draw_rbasic.c **** }
 347              		.loc 4 89 0
 348 0086 00BF     		nop
 349 0088 2C37     		adds	r7, r7, #44
 350              		.cfi_def_cfa_offset 12
 351 008a BD46     		mov	sp, r7
 352              		.cfi_def_cfa_register 13
 353              		@ sp needed
 354 008c 90BD     		pop	{r4, r7, pc}
 355              		.cfi_endproc
 356              	.LFE13:
 357              		.size	lv_rfill, .-lv_rfill
 358 008e 00BF     		.section	.text.lv_rletter,"ax",%progbits
 359              		.align	2
 360              		.global	lv_rletter
 361              		.thumb
 362              		.thumb_func
 363              		.type	lv_rletter, %function
 364              	lv_rletter:
 365              	.LFB14:
  90:..\..\..\display\lvgl\lv_draw/lv_draw_rbasic.c **** 
  91:..\..\..\display\lvgl\lv_draw/lv_draw_rbasic.c **** /**
  92:..\..\..\display\lvgl\lv_draw/lv_draw_rbasic.c ****  * Draw a letter to the display
  93:..\..\..\display\lvgl\lv_draw/lv_draw_rbasic.c ****  * @param pos_p left-top coordinate of the latter
  94:..\..\..\display\lvgl\lv_draw/lv_draw_rbasic.c ****  * @param mask_p the letter will be drawn only on this area
  95:..\..\..\display\lvgl\lv_draw/lv_draw_rbasic.c ****  * @param font_p pointer to font
  96:..\..\..\display\lvgl\lv_draw/lv_draw_rbasic.c ****  * @param letter a letter to draw
  97:..\..\..\display\lvgl\lv_draw/lv_draw_rbasic.c ****  * @param color color of letter
  98:..\..\..\display\lvgl\lv_draw/lv_draw_rbasic.c ****  * @param opa opacity of letter (ignored, only for compatibility with lv_vletter)
  99:..\..\..\display\lvgl\lv_draw/lv_draw_rbasic.c ****  */
 100:..\..\..\display\lvgl\lv_draw/lv_draw_rbasic.c **** void lv_rletter(const lv_point_t * pos_p, const lv_area_t * mask_p,
 101:..\..\..\display\lvgl\lv_draw/lv_draw_rbasic.c ****                 const lv_font_t * font_p, uint32_t letter,
 102:..\..\..\display\lvgl\lv_draw/lv_draw_rbasic.c ****                 lv_color_t color, lv_opa_t opa)
ARM GAS  C:\Users\pearlstl\AppData\Local\Temp\ccc6DM2e.s 			page 19


 103:..\..\..\display\lvgl\lv_draw/lv_draw_rbasic.c **** {
 366              		.loc 4 103 0
 367              		.cfi_startproc
 368              		@ args = 8, pretend = 0, frame = 56
 369              		@ frame_needed = 1, uses_anonymous_args = 0
 370 0000 B0B5     		push	{r4, r5, r7, lr}
 371              		.cfi_def_cfa_offset 16
 372              		.cfi_offset 4, -16
 373              		.cfi_offset 5, -12
 374              		.cfi_offset 7, -8
 375              		.cfi_offset 14, -4
 376 0002 90B0     		sub	sp, sp, #64
 377              		.cfi_def_cfa_offset 80
 378 0004 02AF     		add	r7, sp, #8
 379              		.cfi_def_cfa 7, 72
 380 0006 F860     		str	r0, [r7, #12]
 381 0008 B960     		str	r1, [r7, #8]
 382 000a 7A60     		str	r2, [r7, #4]
 383 000c 3B60     		str	r3, [r7]
 104:..\..\..\display\lvgl\lv_draw/lv_draw_rbasic.c ****     (void)opa;      /*Opa is used only for compatibility with lv_vletter*/
 105:..\..\..\display\lvgl\lv_draw/lv_draw_rbasic.c **** 
 106:..\..\..\display\lvgl\lv_draw/lv_draw_rbasic.c ****     static uint8_t bpp1_opa_table[2] =  {0, 255};                   /*Opacity mapping with bpp = 1 
 107:..\..\..\display\lvgl\lv_draw/lv_draw_rbasic.c ****     static uint8_t bpp2_opa_table[4] =  {0, 85, 170, 255};          /*Opacity mapping with bpp = 2*
 108:..\..\..\display\lvgl\lv_draw/lv_draw_rbasic.c ****     static uint8_t bpp4_opa_table[16] = {0,   17,  34,  51,         /*Opacity mapping with bpp = 4*
 109:..\..\..\display\lvgl\lv_draw/lv_draw_rbasic.c ****                                          68,  85,  102, 119,
 110:..\..\..\display\lvgl\lv_draw/lv_draw_rbasic.c ****                                          136, 153, 170, 187,
 111:..\..\..\display\lvgl\lv_draw/lv_draw_rbasic.c ****                                          204, 221, 238, 255
 112:..\..\..\display\lvgl\lv_draw/lv_draw_rbasic.c ****                                         };
 113:..\..\..\display\lvgl\lv_draw/lv_draw_rbasic.c **** 
 114:..\..\..\display\lvgl\lv_draw/lv_draw_rbasic.c ****     if(font_p == NULL) return;
 384              		.loc 4 114 0
 385 000e 7B68     		ldr	r3, [r7, #4]
 386 0010 002B     		cmp	r3, #0
 387 0012 00F0CF81 		beq	.L46
 115:..\..\..\display\lvgl\lv_draw/lv_draw_rbasic.c **** 
 116:..\..\..\display\lvgl\lv_draw/lv_draw_rbasic.c ****     uint8_t letter_w = lv_font_get_width(font_p, letter);
 388              		.loc 4 116 0
 389 0016 3968     		ldr	r1, [r7]
 390 0018 7868     		ldr	r0, [r7, #4]
 391 001a FFF7FEFF 		bl	lv_font_get_width
 392 001e 0346     		mov	r3, r0
 393 0020 87F82430 		strb	r3, [r7, #36]
 117:..\..\..\display\lvgl\lv_draw/lv_draw_rbasic.c ****     uint8_t letter_h = lv_font_get_height(font_p);
 394              		.loc 4 117 0
 395 0024 7868     		ldr	r0, [r7, #4]
 396 0026 FFF7FEFF 		bl	lv_font_get_height
 397 002a 0346     		mov	r3, r0
 398 002c 87F82330 		strb	r3, [r7, #35]
 118:..\..\..\display\lvgl\lv_draw/lv_draw_rbasic.c ****     uint8_t bpp = lv_font_get_bpp(font_p, letter);  /*Bit per pixel (1,2, 4 or 8)*/
 399              		.loc 4 118 0
 400 0030 3968     		ldr	r1, [r7]
 401 0032 7868     		ldr	r0, [r7, #4]
 402 0034 FFF7FEFF 		bl	lv_font_get_bpp
 403 0038 0346     		mov	r3, r0
 404 003a 87F82230 		strb	r3, [r7, #34]
 119:..\..\..\display\lvgl\lv_draw/lv_draw_rbasic.c ****     uint8_t * bpp_opa_table;
 120:..\..\..\display\lvgl\lv_draw/lv_draw_rbasic.c ****     uint8_t mask_init;
ARM GAS  C:\Users\pearlstl\AppData\Local\Temp\ccc6DM2e.s 			page 20


 121:..\..\..\display\lvgl\lv_draw/lv_draw_rbasic.c ****     uint8_t mask;
 122:..\..\..\display\lvgl\lv_draw/lv_draw_rbasic.c **** 
 123:..\..\..\display\lvgl\lv_draw/lv_draw_rbasic.c ****     switch(bpp) {
 405              		.loc 4 123 0
 406 003e 97F82230 		ldrb	r3, [r7, #34]	@ zero_extendqisi2
 407 0042 013B     		subs	r3, r3, #1
 408 0044 072B     		cmp	r3, #7
 409 0046 00F2B781 		bhi	.L47
 410 004a 01A2     		adr	r2, .L18
 411 004c 52F823F0 		ldr	pc, [r2, r3, lsl #2]
 412              		.p2align 2
 413              	.L18:
 414 0050 71000000 		.word	.L17+1
 415 0054 7D000000 		.word	.L19+1
 416 0058 B9030000 		.word	.L47+1
 417 005c 89000000 		.word	.L20+1
 418 0060 B9030000 		.word	.L47+1
 419 0064 B9030000 		.word	.L47+1
 420 0068 B9030000 		.word	.L47+1
 421 006c 95000000 		.word	.L21+1
 422              		.p2align 1
 423              	.L17:
 124:..\..\..\display\lvgl\lv_draw/lv_draw_rbasic.c ****         case 1:
 125:..\..\..\display\lvgl\lv_draw/lv_draw_rbasic.c ****             bpp_opa_table = bpp1_opa_table;
 424              		.loc 4 125 0
 425 0070 B24B     		ldr	r3, .L50
 426 0072 7B63     		str	r3, [r7, #52]
 126:..\..\..\display\lvgl\lv_draw/lv_draw_rbasic.c ****             mask_init = 0x80;
 427              		.loc 4 126 0
 428 0074 8023     		movs	r3, #128
 429 0076 87F83330 		strb	r3, [r7, #51]
 127:..\..\..\display\lvgl\lv_draw/lv_draw_rbasic.c ****             break;
 430              		.loc 4 127 0
 431 007a 11E0     		b	.L22
 432              	.L19:
 128:..\..\..\display\lvgl\lv_draw/lv_draw_rbasic.c ****         case 2:
 129:..\..\..\display\lvgl\lv_draw/lv_draw_rbasic.c ****             bpp_opa_table = bpp2_opa_table;
 433              		.loc 4 129 0
 434 007c B04B     		ldr	r3, .L50+4
 435 007e 7B63     		str	r3, [r7, #52]
 130:..\..\..\display\lvgl\lv_draw/lv_draw_rbasic.c ****             mask_init = 0xC0;
 436              		.loc 4 130 0
 437 0080 C023     		movs	r3, #192
 438 0082 87F83330 		strb	r3, [r7, #51]
 131:..\..\..\display\lvgl\lv_draw/lv_draw_rbasic.c ****             break;
 439              		.loc 4 131 0
 440 0086 0BE0     		b	.L22
 441              	.L20:
 132:..\..\..\display\lvgl\lv_draw/lv_draw_rbasic.c ****         case 4:
 133:..\..\..\display\lvgl\lv_draw/lv_draw_rbasic.c ****             bpp_opa_table = bpp4_opa_table;
 442              		.loc 4 133 0
 443 0088 AE4B     		ldr	r3, .L50+8
 444 008a 7B63     		str	r3, [r7, #52]
 134:..\..\..\display\lvgl\lv_draw/lv_draw_rbasic.c ****             mask_init = 0xF0;
 445              		.loc 4 134 0
 446 008c F023     		movs	r3, #240
 447 008e 87F83330 		strb	r3, [r7, #51]
ARM GAS  C:\Users\pearlstl\AppData\Local\Temp\ccc6DM2e.s 			page 21


 135:..\..\..\display\lvgl\lv_draw/lv_draw_rbasic.c ****             break;
 448              		.loc 4 135 0
 449 0092 05E0     		b	.L22
 450              	.L21:
 136:..\..\..\display\lvgl\lv_draw/lv_draw_rbasic.c ****         case 8:
 137:..\..\..\display\lvgl\lv_draw/lv_draw_rbasic.c ****             bpp_opa_table = NULL;
 451              		.loc 4 137 0
 452 0094 0023     		movs	r3, #0
 453 0096 7B63     		str	r3, [r7, #52]
 138:..\..\..\display\lvgl\lv_draw/lv_draw_rbasic.c ****             mask_init = 0xFF;
 454              		.loc 4 138 0
 455 0098 FF23     		movs	r3, #255
 456 009a 87F83330 		strb	r3, [r7, #51]
 139:..\..\..\display\lvgl\lv_draw/lv_draw_rbasic.c ****             break;             /*No opa table, pixel value will be used directly*/
 457              		.loc 4 139 0
 458 009e 00BF     		nop
 459              	.L22:
 140:..\..\..\display\lvgl\lv_draw/lv_draw_rbasic.c ****         default:
 141:..\..\..\display\lvgl\lv_draw/lv_draw_rbasic.c ****             return;        /*Invalid bpp. Can't render the letter*/
 142:..\..\..\display\lvgl\lv_draw/lv_draw_rbasic.c ****     }
 143:..\..\..\display\lvgl\lv_draw/lv_draw_rbasic.c **** 
 144:..\..\..\display\lvgl\lv_draw/lv_draw_rbasic.c ****     const uint8_t * map_p = lv_font_get_bitmap(font_p, letter);
 460              		.loc 4 144 0
 461 00a0 3968     		ldr	r1, [r7]
 462 00a2 7868     		ldr	r0, [r7, #4]
 463 00a4 FFF7FEFF 		bl	lv_font_get_bitmap
 464 00a8 F862     		str	r0, [r7, #44]
 145:..\..\..\display\lvgl\lv_draw/lv_draw_rbasic.c **** 
 146:..\..\..\display\lvgl\lv_draw/lv_draw_rbasic.c ****     if(map_p == NULL) return;
 465              		.loc 4 146 0
 466 00aa FB6A     		ldr	r3, [r7, #44]
 467 00ac 002B     		cmp	r3, #0
 468 00ae 00F08581 		beq	.L48
 147:..\..\..\display\lvgl\lv_draw/lv_draw_rbasic.c **** 
 148:..\..\..\display\lvgl\lv_draw/lv_draw_rbasic.c ****     /*If the letter is completely out of mask don't draw it */
 149:..\..\..\display\lvgl\lv_draw/lv_draw_rbasic.c ****     if(pos_p->x + letter_w < mask_p->x1 || pos_p->x > mask_p->x2 ||
 469              		.loc 4 149 0
 470 00b2 FB68     		ldr	r3, [r7, #12]
 471 00b4 B3F90030 		ldrsh	r3, [r3]
 472 00b8 1A46     		mov	r2, r3
 473 00ba 97F82430 		ldrb	r3, [r7, #36]	@ zero_extendqisi2
 474 00be 1344     		add	r3, r3, r2
 475 00c0 BA68     		ldr	r2, [r7, #8]
 476 00c2 B2F90020 		ldrsh	r2, [r2]
 477 00c6 9342     		cmp	r3, r2
 478 00c8 C0F27A81 		blt	.L49
 479              		.loc 4 149 0 is_stmt 0 discriminator 1
 480 00cc FB68     		ldr	r3, [r7, #12]
 481 00ce B3F90020 		ldrsh	r2, [r3]
 482 00d2 BB68     		ldr	r3, [r7, #8]
 483 00d4 B3F90430 		ldrsh	r3, [r3, #4]
 484 00d8 9A42     		cmp	r2, r3
 485 00da 00F37181 		bgt	.L49
 150:..\..\..\display\lvgl\lv_draw/lv_draw_rbasic.c ****             pos_p->y + letter_h < mask_p->y1 || pos_p->y > mask_p->y2) return;
 486              		.loc 4 150 0 is_stmt 1 discriminator 2
 487 00de FB68     		ldr	r3, [r7, #12]
 488 00e0 B3F90230 		ldrsh	r3, [r3, #2]
ARM GAS  C:\Users\pearlstl\AppData\Local\Temp\ccc6DM2e.s 			page 22


 489 00e4 1A46     		mov	r2, r3
 490 00e6 97F82330 		ldrb	r3, [r7, #35]	@ zero_extendqisi2
 491 00ea 1344     		add	r3, r3, r2
 492 00ec BA68     		ldr	r2, [r7, #8]
 493 00ee B2F90220 		ldrsh	r2, [r2, #2]
 149:..\..\..\display\lvgl\lv_draw/lv_draw_rbasic.c ****             pos_p->y + letter_h < mask_p->y1 || pos_p->y > mask_p->y2) return;
 494              		.loc 4 149 0 discriminator 2
 495 00f2 9342     		cmp	r3, r2
 496 00f4 C0F26481 		blt	.L49
 497              		.loc 4 150 0
 498 00f8 FB68     		ldr	r3, [r7, #12]
 499 00fa B3F90220 		ldrsh	r2, [r3, #2]
 500 00fe BB68     		ldr	r3, [r7, #8]
 501 0100 B3F90630 		ldrsh	r3, [r3, #6]
 502 0104 9A42     		cmp	r2, r3
 503 0106 00F35B81 		bgt	.L49
 151:..\..\..\display\lvgl\lv_draw/lv_draw_rbasic.c **** 
 152:..\..\..\display\lvgl\lv_draw/lv_draw_rbasic.c ****     lv_coord_t col, row;
 153:..\..\..\display\lvgl\lv_draw/lv_draw_rbasic.c ****     uint8_t col_bit;
 154:..\..\..\display\lvgl\lv_draw/lv_draw_rbasic.c ****     uint8_t col_byte_cnt;
 155:..\..\..\display\lvgl\lv_draw/lv_draw_rbasic.c ****     uint8_t width_byte_scr = letter_w >> 3;      /*Width in bytes (on the screen finally) (e.g. w =
 504              		.loc 4 155 0
 505 010a 97F82430 		ldrb	r3, [r7, #36]	@ zero_extendqisi2
 506 010e DB08     		lsrs	r3, r3, #3
 507 0110 87F82130 		strb	r3, [r7, #33]
 156:..\..\..\display\lvgl\lv_draw/lv_draw_rbasic.c ****     if(letter_w & 0x7) width_byte_scr++;
 508              		.loc 4 156 0
 509 0114 97F82430 		ldrb	r3, [r7, #36]	@ zero_extendqisi2
 510 0118 03F00703 		and	r3, r3, #7
 511 011c 002B     		cmp	r3, #0
 512 011e 04D0     		beq	.L26
 513              		.loc 4 156 0 is_stmt 0 discriminator 1
 514 0120 97F82130 		ldrb	r3, [r7, #33]	@ zero_extendqisi2
 515 0124 0133     		adds	r3, r3, #1
 516 0126 87F82130 		strb	r3, [r7, #33]
 517              	.L26:
 157:..\..\..\display\lvgl\lv_draw/lv_draw_rbasic.c ****     uint8_t width_byte_bpp = (letter_w * bpp) >> 3;    /*Letter width in byte. Real width in the fo
 518              		.loc 4 157 0 is_stmt 1
 519 012a 97F82430 		ldrb	r3, [r7, #36]	@ zero_extendqisi2
 520 012e 97F82220 		ldrb	r2, [r7, #34]	@ zero_extendqisi2
 521 0132 02FB03F3 		mul	r3, r2, r3
 522 0136 DB10     		asrs	r3, r3, #3
 523 0138 87F82530 		strb	r3, [r7, #37]
 158:..\..\..\display\lvgl\lv_draw/lv_draw_rbasic.c ****     if((letter_w * bpp) & 0x7) width_byte_bpp++;
 524              		.loc 4 158 0
 525 013c 97F82430 		ldrb	r3, [r7, #36]	@ zero_extendqisi2
 526 0140 97F82220 		ldrb	r2, [r7, #34]	@ zero_extendqisi2
 527 0144 02FB03F3 		mul	r3, r2, r3
 528 0148 03F00703 		and	r3, r3, #7
 529 014c 002B     		cmp	r3, #0
 530 014e 04D0     		beq	.L27
 531              		.loc 4 158 0 is_stmt 0 discriminator 1
 532 0150 97F82530 		ldrb	r3, [r7, #37]	@ zero_extendqisi2
 533 0154 0133     		adds	r3, r3, #1
 534 0156 87F82530 		strb	r3, [r7, #37]
 535              	.L27:
 159:..\..\..\display\lvgl\lv_draw/lv_draw_rbasic.c **** 
ARM GAS  C:\Users\pearlstl\AppData\Local\Temp\ccc6DM2e.s 			page 23


 160:..\..\..\display\lvgl\lv_draw/lv_draw_rbasic.c ****     /* Calculate the col/row start/end on the map*/
 161:..\..\..\display\lvgl\lv_draw/lv_draw_rbasic.c ****     lv_coord_t col_start = pos_p->x >= mask_p->x1 ? 0 : mask_p->x1 - pos_p->x;
 536              		.loc 4 161 0 is_stmt 1
 537 015a FB68     		ldr	r3, [r7, #12]
 538 015c B3F90020 		ldrsh	r2, [r3]
 539 0160 BB68     		ldr	r3, [r7, #8]
 540 0162 B3F90030 		ldrsh	r3, [r3]
 541 0166 9A42     		cmp	r2, r3
 542 0168 0BDA     		bge	.L28
 543              		.loc 4 161 0 is_stmt 0 discriminator 1
 544 016a BB68     		ldr	r3, [r7, #8]
 545 016c B3F90030 		ldrsh	r3, [r3]
 546 0170 9AB2     		uxth	r2, r3
 547 0172 FB68     		ldr	r3, [r7, #12]
 548 0174 B3F90030 		ldrsh	r3, [r3]
 549 0178 9BB2     		uxth	r3, r3
 550 017a D31A     		subs	r3, r2, r3
 551 017c 9BB2     		uxth	r3, r3
 552 017e 1BB2     		sxth	r3, r3
 553 0180 00E0     		b	.L29
 554              	.L28:
 555              		.loc 4 161 0 discriminator 2
 556 0182 0023     		movs	r3, #0
 557              	.L29:
 558              		.loc 4 161 0 discriminator 4
 559 0184 FB83     		strh	r3, [r7, #30]	@ movhi
 162:..\..\..\display\lvgl\lv_draw/lv_draw_rbasic.c ****     lv_coord_t col_end = pos_p->x + letter_w <= mask_p->x2 ? letter_w : mask_p->x2 - pos_p->x + 1;
 560              		.loc 4 162 0 is_stmt 1 discriminator 4
 561 0186 FB68     		ldr	r3, [r7, #12]
 562 0188 B3F90030 		ldrsh	r3, [r3]
 563 018c 1A46     		mov	r2, r3
 564 018e 97F82430 		ldrb	r3, [r7, #36]	@ zero_extendqisi2
 565 0192 1344     		add	r3, r3, r2
 566 0194 BA68     		ldr	r2, [r7, #8]
 567 0196 B2F90420 		ldrsh	r2, [r2, #4]
 568 019a 9342     		cmp	r3, r2
 569 019c 03DC     		bgt	.L30
 570              		.loc 4 162 0 is_stmt 0 discriminator 1
 571 019e 97F82430 		ldrb	r3, [r7, #36]	@ zero_extendqisi2
 572 01a2 1BB2     		sxth	r3, r3
 573 01a4 0CE0     		b	.L31
 574              	.L30:
 575              		.loc 4 162 0 discriminator 2
 576 01a6 BB68     		ldr	r3, [r7, #8]
 577 01a8 B3F90430 		ldrsh	r3, [r3, #4]
 578 01ac 9AB2     		uxth	r2, r3
 579 01ae FB68     		ldr	r3, [r7, #12]
 580 01b0 B3F90030 		ldrsh	r3, [r3]
 581 01b4 9BB2     		uxth	r3, r3
 582 01b6 D31A     		subs	r3, r2, r3
 583 01b8 9BB2     		uxth	r3, r3
 584 01ba 0133     		adds	r3, r3, #1
 585 01bc 9BB2     		uxth	r3, r3
 586 01be 1BB2     		sxth	r3, r3
 587              	.L31:
 588              		.loc 4 162 0 discriminator 4
 589 01c0 BB83     		strh	r3, [r7, #28]	@ movhi
ARM GAS  C:\Users\pearlstl\AppData\Local\Temp\ccc6DM2e.s 			page 24


 163:..\..\..\display\lvgl\lv_draw/lv_draw_rbasic.c ****     lv_coord_t row_start = pos_p->y >= mask_p->y1 ? 0 : mask_p->y1 - pos_p->y;
 590              		.loc 4 163 0 is_stmt 1 discriminator 4
 591 01c2 FB68     		ldr	r3, [r7, #12]
 592 01c4 B3F90220 		ldrsh	r2, [r3, #2]
 593 01c8 BB68     		ldr	r3, [r7, #8]
 594 01ca B3F90230 		ldrsh	r3, [r3, #2]
 595 01ce 9A42     		cmp	r2, r3
 596 01d0 0BDA     		bge	.L32
 597              		.loc 4 163 0 is_stmt 0 discriminator 1
 598 01d2 BB68     		ldr	r3, [r7, #8]
 599 01d4 B3F90230 		ldrsh	r3, [r3, #2]
 600 01d8 9AB2     		uxth	r2, r3
 601 01da FB68     		ldr	r3, [r7, #12]
 602 01dc B3F90230 		ldrsh	r3, [r3, #2]
 603 01e0 9BB2     		uxth	r3, r3
 604 01e2 D31A     		subs	r3, r2, r3
 605 01e4 9BB2     		uxth	r3, r3
 606 01e6 1BB2     		sxth	r3, r3
 607 01e8 00E0     		b	.L33
 608              	.L32:
 609              		.loc 4 163 0 discriminator 2
 610 01ea 0023     		movs	r3, #0
 611              	.L33:
 612              		.loc 4 163 0 discriminator 4
 613 01ec 7B83     		strh	r3, [r7, #26]	@ movhi
 164:..\..\..\display\lvgl\lv_draw/lv_draw_rbasic.c ****     lv_coord_t row_end  = pos_p->y + letter_h <= mask_p->y2 ? letter_h : mask_p->y2 - pos_p->y + 1;
 614              		.loc 4 164 0 is_stmt 1 discriminator 4
 615 01ee FB68     		ldr	r3, [r7, #12]
 616 01f0 B3F90230 		ldrsh	r3, [r3, #2]
 617 01f4 1A46     		mov	r2, r3
 618 01f6 97F82330 		ldrb	r3, [r7, #35]	@ zero_extendqisi2
 619 01fa 1344     		add	r3, r3, r2
 620 01fc BA68     		ldr	r2, [r7, #8]
 621 01fe B2F90620 		ldrsh	r2, [r2, #6]
 622 0202 9342     		cmp	r3, r2
 623 0204 03DC     		bgt	.L34
 624              		.loc 4 164 0 is_stmt 0 discriminator 1
 625 0206 97F82330 		ldrb	r3, [r7, #35]	@ zero_extendqisi2
 626 020a 1BB2     		sxth	r3, r3
 627 020c 0CE0     		b	.L35
 628              	.L34:
 629              		.loc 4 164 0 discriminator 2
 630 020e BB68     		ldr	r3, [r7, #8]
 631 0210 B3F90630 		ldrsh	r3, [r3, #6]
 632 0214 9AB2     		uxth	r2, r3
 633 0216 FB68     		ldr	r3, [r7, #12]
 634 0218 B3F90230 		ldrsh	r3, [r3, #2]
 635 021c 9BB2     		uxth	r3, r3
 636 021e D31A     		subs	r3, r2, r3
 637 0220 9BB2     		uxth	r3, r3
 638 0222 0133     		adds	r3, r3, #1
 639 0224 9BB2     		uxth	r3, r3
 640 0226 1BB2     		sxth	r3, r3
 641              	.L35:
 642              		.loc 4 164 0 discriminator 4
 643 0228 3B83     		strh	r3, [r7, #24]	@ movhi
 165:..\..\..\display\lvgl\lv_draw/lv_draw_rbasic.c **** 
ARM GAS  C:\Users\pearlstl\AppData\Local\Temp\ccc6DM2e.s 			page 25


 166:..\..\..\display\lvgl\lv_draw/lv_draw_rbasic.c ****     /*Move on the map too*/
 167:..\..\..\display\lvgl\lv_draw/lv_draw_rbasic.c ****     map_p += (row_start * width_byte_bpp) + ((col_start * bpp) >> 3);
 644              		.loc 4 167 0 is_stmt 1 discriminator 4
 645 022a B7F91A30 		ldrsh	r3, [r7, #26]
 646 022e 97F82520 		ldrb	r2, [r7, #37]	@ zero_extendqisi2
 647 0232 02FB03F2 		mul	r2, r2, r3
 648 0236 B7F91E30 		ldrsh	r3, [r7, #30]
 649 023a 97F82210 		ldrb	r1, [r7, #34]	@ zero_extendqisi2
 650 023e 01FB03F3 		mul	r3, r1, r3
 651 0242 DB10     		asrs	r3, r3, #3
 652 0244 1344     		add	r3, r3, r2
 653 0246 1A46     		mov	r2, r3
 654 0248 FB6A     		ldr	r3, [r7, #44]
 655 024a 1344     		add	r3, r3, r2
 656 024c FB62     		str	r3, [r7, #44]
 168:..\..\..\display\lvgl\lv_draw/lv_draw_rbasic.c **** 
 169:..\..\..\display\lvgl\lv_draw/lv_draw_rbasic.c ****     uint8_t letter_px;
 170:..\..\..\display\lvgl\lv_draw/lv_draw_rbasic.c ****     for(row = row_start; row < row_end; row ++) {
 657              		.loc 4 170 0 discriminator 4
 658 024e 7B8B     		ldrh	r3, [r7, #26]	@ movhi
 659 0250 3B85     		strh	r3, [r7, #40]	@ movhi
 660 0252 A7E0     		b	.L36
 661              	.L45:
 171:..\..\..\display\lvgl\lv_draw/lv_draw_rbasic.c ****         col_byte_cnt = 0;
 662              		.loc 4 171 0
 663 0254 0023     		movs	r3, #0
 664 0256 87F82630 		strb	r3, [r7, #38]
 172:..\..\..\display\lvgl\lv_draw/lv_draw_rbasic.c ****         col_bit = (col_start * bpp) % 8;
 665              		.loc 4 172 0
 666 025a B7F91E30 		ldrsh	r3, [r7, #30]
 667 025e 97F82220 		ldrb	r2, [r7, #34]	@ zero_extendqisi2
 668 0262 02FB03F2 		mul	r2, r2, r3
 669 0266 384B     		ldr	r3, .L50+12
 670 0268 1340     		ands	r3, r3, r2
 671 026a 002B     		cmp	r3, #0
 672 026c 03DA     		bge	.L37
 673 026e 013B     		subs	r3, r3, #1
 674 0270 63F00703 		orn	r3, r3, #7
 675 0274 0133     		adds	r3, r3, #1
 676              	.L37:
 677 0276 87F82730 		strb	r3, [r7, #39]
 173:..\..\..\display\lvgl\lv_draw/lv_draw_rbasic.c ****         mask = mask_init >> col_bit;
 678              		.loc 4 173 0
 679 027a 97F83320 		ldrb	r2, [r7, #51]	@ zero_extendqisi2
 680 027e 97F82730 		ldrb	r3, [r7, #39]	@ zero_extendqisi2
 681 0282 42FA03F3 		asr	r3, r2, r3
 682 0286 87F83230 		strb	r3, [r7, #50]
 174:..\..\..\display\lvgl\lv_draw/lv_draw_rbasic.c ****         for(col = col_start; col < col_end; col ++) {
 683              		.loc 4 174 0
 684 028a FB8B     		ldrh	r3, [r7, #30]	@ movhi
 685 028c 7B85     		strh	r3, [r7, #42]	@ movhi
 686 028e 74E0     		b	.L38
 687              	.L44:
 175:..\..\..\display\lvgl\lv_draw/lv_draw_rbasic.c ****             letter_px = (*map_p & mask) >> (8 - col_bit - bpp);
 688              		.loc 4 175 0
 689 0290 FB6A     		ldr	r3, [r7, #44]
 690 0292 1A78     		ldrb	r2, [r3]	@ zero_extendqisi2
ARM GAS  C:\Users\pearlstl\AppData\Local\Temp\ccc6DM2e.s 			page 26


 691 0294 97F83230 		ldrb	r3, [r7, #50]
 692 0298 1340     		ands	r3, r3, r2
 693 029a DBB2     		uxtb	r3, r3
 694 029c 1946     		mov	r1, r3
 695 029e 97F82730 		ldrb	r3, [r7, #39]	@ zero_extendqisi2
 696 02a2 C3F10802 		rsb	r2, r3, #8
 697 02a6 97F82230 		ldrb	r3, [r7, #34]	@ zero_extendqisi2
 698 02aa D31A     		subs	r3, r2, r3
 699 02ac 41FA03F3 		asr	r3, r1, r3
 700 02b0 FB75     		strb	r3, [r7, #23]
 176:..\..\..\display\lvgl\lv_draw/lv_draw_rbasic.c ****             if(letter_px != 0) {
 701              		.loc 4 176 0
 702 02b2 FB7D     		ldrb	r3, [r7, #23]	@ zero_extendqisi2
 703 02b4 002B     		cmp	r3, #0
 704 02b6 28D0     		beq	.L39
 177:..\..\..\display\lvgl\lv_draw/lv_draw_rbasic.c ****                 lv_rpx(pos_p->x + col, pos_p->y + row, mask_p, lv_color_mix(color, letter_bg_color,
 705              		.loc 4 177 0
 706 02b8 FB68     		ldr	r3, [r7, #12]
 707 02ba B3F90030 		ldrsh	r3, [r3]
 708 02be 9AB2     		uxth	r2, r3
 709 02c0 7B8D     		ldrh	r3, [r7, #42]
 710 02c2 1344     		add	r3, r3, r2
 711 02c4 9BB2     		uxth	r3, r3
 712 02c6 1CB2     		sxth	r4, r3
 713 02c8 FB68     		ldr	r3, [r7, #12]
 714 02ca B3F90230 		ldrsh	r3, [r3, #2]
 715 02ce 9AB2     		uxth	r2, r3
 716 02d0 3B8D     		ldrh	r3, [r7, #40]
 717 02d2 1344     		add	r3, r3, r2
 718 02d4 9BB2     		uxth	r3, r3
 719 02d6 1DB2     		sxth	r5, r3
 720 02d8 97F82230 		ldrb	r3, [r7, #34]	@ zero_extendqisi2
 721 02dc 082B     		cmp	r3, #8
 722 02de 04D0     		beq	.L40
 723              		.loc 4 177 0 is_stmt 0 discriminator 1
 724 02e0 FB7D     		ldrb	r3, [r7, #23]	@ zero_extendqisi2
 725 02e2 7A6B     		ldr	r2, [r7, #52]
 726 02e4 1344     		add	r3, r3, r2
 727 02e6 1B78     		ldrb	r3, [r3]	@ zero_extendqisi2
 728 02e8 00E0     		b	.L41
 729              	.L40:
 730              		.loc 4 177 0 discriminator 2
 731 02ea FB7D     		ldrb	r3, [r7, #23]	@ zero_extendqisi2
 732              	.L41:
 733              		.loc 4 177 0 discriminator 4
 734 02ec 1749     		ldr	r1, .L50+16
 735 02ee 1A46     		mov	r2, r3
 736 02f0 0968     		ldr	r1, [r1]
 737 02f2 B86C     		ldr	r0, [r7, #72]
 738 02f4 FFF7FEFF 		bl	lv_color_mix
 739 02f8 0246     		mov	r2, r0
 740 02fa FF23     		movs	r3, #255
 741 02fc 0093     		str	r3, [sp]
 742 02fe 1346     		mov	r3, r2
 743 0300 BA68     		ldr	r2, [r7, #8]
 744 0302 2946     		mov	r1, r5
 745 0304 2046     		mov	r0, r4
ARM GAS  C:\Users\pearlstl\AppData\Local\Temp\ccc6DM2e.s 			page 27


 746 0306 FFF7FEFF 		bl	lv_rpx
 747              	.L39:
 178:..\..\..\display\lvgl\lv_draw/lv_draw_rbasic.c ****             }
 179:..\..\..\display\lvgl\lv_draw/lv_draw_rbasic.c **** 
 180:..\..\..\display\lvgl\lv_draw/lv_draw_rbasic.c ****             if(col_bit < 8 - bpp) {
 748              		.loc 4 180 0 is_stmt 1
 749 030a 97F82720 		ldrb	r2, [r7, #39]	@ zero_extendqisi2
 750 030e 97F82230 		ldrb	r3, [r7, #34]	@ zero_extendqisi2
 751 0312 C3F10803 		rsb	r3, r3, #8
 752 0316 9A42     		cmp	r2, r3
 753 0318 1ADA     		bge	.L42
 181:..\..\..\display\lvgl\lv_draw/lv_draw_rbasic.c ****                 col_bit += bpp;
 754              		.loc 4 181 0
 755 031a 97F82720 		ldrb	r2, [r7, #39]
 756 031e 97F82230 		ldrb	r3, [r7, #34]
 757 0322 1344     		add	r3, r3, r2
 758 0324 87F82730 		strb	r3, [r7, #39]
 182:..\..\..\display\lvgl\lv_draw/lv_draw_rbasic.c ****                 mask = mask >> bpp;
 759              		.loc 4 182 0
 760 0328 97F83220 		ldrb	r2, [r7, #50]	@ zero_extendqisi2
 761 032c 97F82230 		ldrb	r3, [r7, #34]	@ zero_extendqisi2
 762 0330 42FA03F3 		asr	r3, r2, r3
 763 0334 87F83230 		strb	r3, [r7, #50]
 764 0338 19E0     		b	.L43
 765              	.L51:
 766 033a 00BF     		.align	2
 767              	.L50:
 768 033c 00000000 		.word	bpp1_opa_table.5745
 769 0340 04000000 		.word	bpp2_opa_table.5746
 770 0344 08000000 		.word	bpp4_opa_table.5747
 771 0348 07000080 		.word	-2147483641
 772 034c 00000000 		.word	letter_bg_color
 773              	.L42:
 183:..\..\..\display\lvgl\lv_draw/lv_draw_rbasic.c ****             } else {
 184:..\..\..\display\lvgl\lv_draw/lv_draw_rbasic.c ****                 col_bit = 0;
 774              		.loc 4 184 0
 775 0350 0023     		movs	r3, #0
 776 0352 87F82730 		strb	r3, [r7, #39]
 185:..\..\..\display\lvgl\lv_draw/lv_draw_rbasic.c ****                 col_byte_cnt ++;
 777              		.loc 4 185 0
 778 0356 97F82630 		ldrb	r3, [r7, #38]	@ zero_extendqisi2
 779 035a 0133     		adds	r3, r3, #1
 780 035c 87F82630 		strb	r3, [r7, #38]
 186:..\..\..\display\lvgl\lv_draw/lv_draw_rbasic.c ****                 mask = mask_init;
 781              		.loc 4 186 0
 782 0360 97F83330 		ldrb	r3, [r7, #51]
 783 0364 87F83230 		strb	r3, [r7, #50]
 187:..\..\..\display\lvgl\lv_draw/lv_draw_rbasic.c ****                 map_p ++;
 784              		.loc 4 187 0
 785 0368 FB6A     		ldr	r3, [r7, #44]
 786 036a 0133     		adds	r3, r3, #1
 787 036c FB62     		str	r3, [r7, #44]
 788              	.L43:
 174:..\..\..\display\lvgl\lv_draw/lv_draw_rbasic.c ****             letter_px = (*map_p & mask) >> (8 - col_bit - bpp);
 789              		.loc 4 174 0 discriminator 2
 790 036e B7F92A30 		ldrsh	r3, [r7, #42]
 791 0372 9BB2     		uxth	r3, r3
ARM GAS  C:\Users\pearlstl\AppData\Local\Temp\ccc6DM2e.s 			page 28


 792 0374 0133     		adds	r3, r3, #1
 793 0376 9BB2     		uxth	r3, r3
 794 0378 7B85     		strh	r3, [r7, #42]	@ movhi
 795              	.L38:
 174:..\..\..\display\lvgl\lv_draw/lv_draw_rbasic.c ****             letter_px = (*map_p & mask) >> (8 - col_bit - bpp);
 796              		.loc 4 174 0 is_stmt 0 discriminator 1
 797 037a B7F92A20 		ldrsh	r2, [r7, #42]
 798 037e B7F91C30 		ldrsh	r3, [r7, #28]
 799 0382 9A42     		cmp	r2, r3
 800 0384 84DB     		blt	.L44
 188:..\..\..\display\lvgl\lv_draw/lv_draw_rbasic.c ****             }
 189:..\..\..\display\lvgl\lv_draw/lv_draw_rbasic.c ****         }
 190:..\..\..\display\lvgl\lv_draw/lv_draw_rbasic.c **** 
 191:..\..\..\display\lvgl\lv_draw/lv_draw_rbasic.c ****         map_p += (width_byte_bpp) - col_byte_cnt;
 801              		.loc 4 191 0 is_stmt 1 discriminator 2
 802 0386 97F82520 		ldrb	r2, [r7, #37]	@ zero_extendqisi2
 803 038a 97F82630 		ldrb	r3, [r7, #38]	@ zero_extendqisi2
 804 038e D31A     		subs	r3, r2, r3
 805 0390 1A46     		mov	r2, r3
 806 0392 FB6A     		ldr	r3, [r7, #44]
 807 0394 1344     		add	r3, r3, r2
 808 0396 FB62     		str	r3, [r7, #44]
 170:..\..\..\display\lvgl\lv_draw/lv_draw_rbasic.c ****         col_byte_cnt = 0;
 809              		.loc 4 170 0 discriminator 2
 810 0398 B7F92830 		ldrsh	r3, [r7, #40]
 811 039c 9BB2     		uxth	r3, r3
 812 039e 0133     		adds	r3, r3, #1
 813 03a0 9BB2     		uxth	r3, r3
 814 03a2 3B85     		strh	r3, [r7, #40]	@ movhi
 815              	.L36:
 170:..\..\..\display\lvgl\lv_draw/lv_draw_rbasic.c ****         col_byte_cnt = 0;
 816              		.loc 4 170 0 is_stmt 0 discriminator 1
 817 03a4 B7F92820 		ldrsh	r2, [r7, #40]
 818 03a8 B7F91830 		ldrsh	r3, [r7, #24]
 819 03ac 9A42     		cmp	r2, r3
 820 03ae FFF651AF 		blt	.L45
 821 03b2 06E0     		b	.L13
 822              	.L46:
 114:..\..\..\display\lvgl\lv_draw/lv_draw_rbasic.c **** 
 823              		.loc 4 114 0 is_stmt 1
 824 03b4 00BF     		nop
 825 03b6 04E0     		b	.L13
 826              	.L47:
 141:..\..\..\display\lvgl\lv_draw/lv_draw_rbasic.c ****     }
 827              		.loc 4 141 0
 828 03b8 00BF     		nop
 829 03ba 02E0     		b	.L13
 830              	.L48:
 146:..\..\..\display\lvgl\lv_draw/lv_draw_rbasic.c **** 
 831              		.loc 4 146 0
 832 03bc 00BF     		nop
 833 03be 00E0     		b	.L13
 834              	.L49:
 150:..\..\..\display\lvgl\lv_draw/lv_draw_rbasic.c **** 
 835              		.loc 4 150 0
 836 03c0 00BF     		nop
 837              	.L13:
ARM GAS  C:\Users\pearlstl\AppData\Local\Temp\ccc6DM2e.s 			page 29


 192:..\..\..\display\lvgl\lv_draw/lv_draw_rbasic.c ****     }
 193:..\..\..\display\lvgl\lv_draw/lv_draw_rbasic.c **** }
 838              		.loc 4 193 0
 839 03c2 3837     		adds	r7, r7, #56
 840              		.cfi_def_cfa_offset 16
 841 03c4 BD46     		mov	sp, r7
 842              		.cfi_def_cfa_register 13
 843              		@ sp needed
 844 03c6 B0BD     		pop	{r4, r5, r7, pc}
 845              		.cfi_endproc
 846              	.LFE14:
 847              		.size	lv_rletter, .-lv_rletter
 848              		.section	.text.lv_rletter_set_background,"ax",%progbits
 849              		.align	2
 850              		.global	lv_rletter_set_background
 851              		.thumb
 852              		.thumb_func
 853              		.type	lv_rletter_set_background, %function
 854              	lv_rletter_set_background:
 855              	.LFB15:
 194:..\..\..\display\lvgl\lv_draw/lv_draw_rbasic.c **** 
 195:..\..\..\display\lvgl\lv_draw/lv_draw_rbasic.c **** /**
 196:..\..\..\display\lvgl\lv_draw/lv_draw_rbasic.c ****  * When the letter is ant-aliased it needs to know the background color
 197:..\..\..\display\lvgl\lv_draw/lv_draw_rbasic.c ****  * @param bg_color the background color of the currently drawn letter
 198:..\..\..\display\lvgl\lv_draw/lv_draw_rbasic.c ****  */
 199:..\..\..\display\lvgl\lv_draw/lv_draw_rbasic.c **** void lv_rletter_set_background(lv_color_t color)
 200:..\..\..\display\lvgl\lv_draw/lv_draw_rbasic.c **** {
 856              		.loc 4 200 0
 857              		.cfi_startproc
 858              		@ args = 0, pretend = 0, frame = 8
 859              		@ frame_needed = 1, uses_anonymous_args = 0
 860              		@ link register save eliminated.
 861 0000 80B4     		push	{r7}
 862              		.cfi_def_cfa_offset 4
 863              		.cfi_offset 7, -4
 864 0002 83B0     		sub	sp, sp, #12
 865              		.cfi_def_cfa_offset 16
 866 0004 00AF     		add	r7, sp, #0
 867              		.cfi_def_cfa_register 7
 868 0006 7860     		str	r0, [r7, #4]
 201:..\..\..\display\lvgl\lv_draw/lv_draw_rbasic.c ****     letter_bg_color = color;
 869              		.loc 4 201 0
 870 0008 044A     		ldr	r2, .L53
 871 000a 7B68     		ldr	r3, [r7, #4]
 872 000c 1360     		str	r3, [r2]
 202:..\..\..\display\lvgl\lv_draw/lv_draw_rbasic.c **** }
 873              		.loc 4 202 0
 874 000e 00BF     		nop
 875 0010 0C37     		adds	r7, r7, #12
 876              		.cfi_def_cfa_offset 4
 877 0012 BD46     		mov	sp, r7
 878              		.cfi_def_cfa_register 13
 879              		@ sp needed
 880 0014 5DF8047B 		ldr	r7, [sp], #4
 881              		.cfi_restore 7
 882              		.cfi_def_cfa_offset 0
 883 0018 7047     		bx	lr
ARM GAS  C:\Users\pearlstl\AppData\Local\Temp\ccc6DM2e.s 			page 30


 884              	.L54:
 885 001a 00BF     		.align	2
 886              	.L53:
 887 001c 00000000 		.word	letter_bg_color
 888              		.cfi_endproc
 889              	.LFE15:
 890              		.size	lv_rletter_set_background, .-lv_rletter_set_background
 891              		.section	.text.lv_rmap,"ax",%progbits
 892              		.align	2
 893              		.global	lv_rmap
 894              		.thumb
 895              		.thumb_func
 896              		.type	lv_rmap, %function
 897              	lv_rmap:
 898              	.LFB16:
 203:..\..\..\display\lvgl\lv_draw/lv_draw_rbasic.c **** 
 204:..\..\..\display\lvgl\lv_draw/lv_draw_rbasic.c **** /**
 205:..\..\..\display\lvgl\lv_draw/lv_draw_rbasic.c ****  * Draw a color map to the display (image)
 206:..\..\..\display\lvgl\lv_draw/lv_draw_rbasic.c ****  * @param cords_p coordinates the color map
 207:..\..\..\display\lvgl\lv_draw/lv_draw_rbasic.c ****  * @param mask_p the map will drawn only on this area
 208:..\..\..\display\lvgl\lv_draw/lv_draw_rbasic.c ****  * @param map_p pointer to a lv_color_t array
 209:..\..\..\display\lvgl\lv_draw/lv_draw_rbasic.c ****  * @param opa opacity of the map (ignored, only for compatibility with 'lv_vmap')
 210:..\..\..\display\lvgl\lv_draw/lv_draw_rbasic.c ****  * @param chroma_keyed true: enable transparency of LV_IMG_LV_COLOR_TRANSP color pixels
 211:..\..\..\display\lvgl\lv_draw/lv_draw_rbasic.c ****  * @param alpha_byte true: extra alpha byte is inserted for every pixel (not supported, only l'v_vm
 212:..\..\..\display\lvgl\lv_draw/lv_draw_rbasic.c ****  * @param recolor mix the pixels with this color
 213:..\..\..\display\lvgl\lv_draw/lv_draw_rbasic.c ****  * @param recolor_opa the intense of recoloring
 214:..\..\..\display\lvgl\lv_draw/lv_draw_rbasic.c ****  */
 215:..\..\..\display\lvgl\lv_draw/lv_draw_rbasic.c **** void lv_rmap(const lv_area_t * cords_p, const lv_area_t * mask_p,
 216:..\..\..\display\lvgl\lv_draw/lv_draw_rbasic.c ****              const uint8_t * map_p, lv_opa_t opa, bool chroma_key, bool alpha_byte,
 217:..\..\..\display\lvgl\lv_draw/lv_draw_rbasic.c ****              lv_color_t recolor, lv_opa_t recolor_opa)
 218:..\..\..\display\lvgl\lv_draw/lv_draw_rbasic.c **** {
 899              		.loc 4 218 0
 900              		.cfi_startproc
 901              		@ args = 16, pretend = 0, frame = 48
 902              		@ frame_needed = 1, uses_anonymous_args = 0
 903 0000 90B5     		push	{r4, r7, lr}
 904              		.cfi_def_cfa_offset 12
 905              		.cfi_offset 4, -12
 906              		.cfi_offset 7, -8
 907              		.cfi_offset 14, -4
 908 0002 8FB0     		sub	sp, sp, #60
 909              		.cfi_def_cfa_offset 72
 910 0004 02AF     		add	r7, sp, #8
 911              		.cfi_def_cfa 7, 64
 912 0006 F860     		str	r0, [r7, #12]
 913 0008 B960     		str	r1, [r7, #8]
 914 000a 7A60     		str	r2, [r7, #4]
 915 000c FB70     		strb	r3, [r7, #3]
 219:..\..\..\display\lvgl\lv_draw/lv_draw_rbasic.c ****     if(alpha_byte) return;      /*Pixel level opacity i not supported in real map drawing*/
 916              		.loc 4 219 0
 917 000e 97F84430 		ldrb	r3, [r7, #68]	@ zero_extendqisi2
 918 0012 002B     		cmp	r3, #0
 919 0014 40F0D380 		bne	.L71
 220:..\..\..\display\lvgl\lv_draw/lv_draw_rbasic.c **** 
 221:..\..\..\display\lvgl\lv_draw/lv_draw_rbasic.c ****     (void)opa;              /*opa is used only for compatibility with lv_vmap*/
 222:..\..\..\display\lvgl\lv_draw/lv_draw_rbasic.c ****     lv_area_t masked_a;
 223:..\..\..\display\lvgl\lv_draw/lv_draw_rbasic.c ****     bool union_ok;
ARM GAS  C:\Users\pearlstl\AppData\Local\Temp\ccc6DM2e.s 			page 31


 224:..\..\..\display\lvgl\lv_draw/lv_draw_rbasic.c **** 
 225:..\..\..\display\lvgl\lv_draw/lv_draw_rbasic.c ****     union_ok = lv_area_intersect(&masked_a, cords_p, mask_p);
 920              		.loc 4 225 0
 921 0018 07F11803 		add	r3, r7, #24
 922 001c BA68     		ldr	r2, [r7, #8]
 923 001e F968     		ldr	r1, [r7, #12]
 924 0020 1846     		mov	r0, r3
 925 0022 FFF7FEFF 		bl	lv_area_intersect
 926 0026 0346     		mov	r3, r0
 927 0028 87F82B30 		strb	r3, [r7, #43]
 226:..\..\..\display\lvgl\lv_draw/lv_draw_rbasic.c **** 
 227:..\..\..\display\lvgl\lv_draw/lv_draw_rbasic.c ****     /*If there are common part of the mask and map then draw the map*/
 228:..\..\..\display\lvgl\lv_draw/lv_draw_rbasic.c ****     if(union_ok == false) return;
 928              		.loc 4 228 0
 929 002c 97F82B30 		ldrb	r3, [r7, #43]
 930 0030 83F00103 		eor	r3, r3, #1
 931 0034 DBB2     		uxtb	r3, r3
 932 0036 002B     		cmp	r3, #0
 933 0038 40F0C380 		bne	.L72
 229:..\..\..\display\lvgl\lv_draw/lv_draw_rbasic.c **** 
 230:..\..\..\display\lvgl\lv_draw/lv_draw_rbasic.c ****     /*Go to the first pixel*/
 231:..\..\..\display\lvgl\lv_draw/lv_draw_rbasic.c ****     lv_coord_t map_width = lv_area_get_width(cords_p);
 934              		.loc 4 231 0
 935 003c F868     		ldr	r0, [r7, #12]
 936 003e FFF7FEFF 		bl	lv_area_get_width
 937 0042 0346     		mov	r3, r0
 938 0044 3B85     		strh	r3, [r7, #40]	@ movhi
 232:..\..\..\display\lvgl\lv_draw/lv_draw_rbasic.c ****     map_p += (masked_a.y1 - cords_p->y1) * map_width * sizeof(lv_color_t);
 939              		.loc 4 232 0
 940 0046 B7F91A30 		ldrsh	r3, [r7, #26]
 941 004a 1A46     		mov	r2, r3
 942 004c FB68     		ldr	r3, [r7, #12]
 943 004e B3F90230 		ldrsh	r3, [r3, #2]
 944 0052 D31A     		subs	r3, r2, r3
 945 0054 B7F92820 		ldrsh	r2, [r7, #40]
 946 0058 02FB03F3 		mul	r3, r2, r3
 947 005c 9B00     		lsls	r3, r3, #2
 948 005e 7A68     		ldr	r2, [r7, #4]
 949 0060 1344     		add	r3, r3, r2
 950 0062 7B60     		str	r3, [r7, #4]
 233:..\..\..\display\lvgl\lv_draw/lv_draw_rbasic.c ****     map_p += (masked_a.x1 - cords_p->x1) * sizeof(lv_color_t);
 951              		.loc 4 233 0
 952 0064 B7F91830 		ldrsh	r3, [r7, #24]
 953 0068 1A46     		mov	r2, r3
 954 006a FB68     		ldr	r3, [r7, #12]
 955 006c B3F90030 		ldrsh	r3, [r3]
 956 0070 D31A     		subs	r3, r2, r3
 957 0072 9B00     		lsls	r3, r3, #2
 958 0074 7A68     		ldr	r2, [r7, #4]
 959 0076 1344     		add	r3, r3, r2
 960 0078 7B60     		str	r3, [r7, #4]
 234:..\..\..\display\lvgl\lv_draw/lv_draw_rbasic.c **** 
 235:..\..\..\display\lvgl\lv_draw/lv_draw_rbasic.c ****     lv_coord_t row;
 236:..\..\..\display\lvgl\lv_draw/lv_draw_rbasic.c ****     if(recolor_opa == LV_OPA_TRANSP && chroma_key == false) {
 961              		.loc 4 236 0
 962 007a 97F84C30 		ldrb	r3, [r7, #76]	@ zero_extendqisi2
 963 007e 002B     		cmp	r3, #0
ARM GAS  C:\Users\pearlstl\AppData\Local\Temp\ccc6DM2e.s 			page 32


 964 0080 39D1     		bne	.L59
 965              		.loc 4 236 0 is_stmt 0 discriminator 1
 966 0082 97F84030 		ldrb	r3, [r7, #64]
 967 0086 83F00103 		eor	r3, r3, #1
 968 008a DBB2     		uxtb	r3, r3
 969 008c 002B     		cmp	r3, #0
 970 008e 32D0     		beq	.L59
 971              	.LBB3:
 237:..\..\..\display\lvgl\lv_draw/lv_draw_rbasic.c ****         lv_coord_t mask_w = lv_area_get_width(&masked_a) - 1;
 972              		.loc 4 237 0 is_stmt 1
 973 0090 07F11803 		add	r3, r7, #24
 974 0094 1846     		mov	r0, r3
 975 0096 FFF7FEFF 		bl	lv_area_get_width
 976 009a 0346     		mov	r3, r0
 977 009c 9BB2     		uxth	r3, r3
 978 009e 013B     		subs	r3, r3, #1
 979 00a0 9BB2     		uxth	r3, r3
 980 00a2 FB84     		strh	r3, [r7, #38]	@ movhi
 238:..\..\..\display\lvgl\lv_draw/lv_draw_rbasic.c ****         for(row = masked_a.y1; row <= masked_a.y2; row++) {
 981              		.loc 4 238 0
 982 00a4 7B8B     		ldrh	r3, [r7, #26]	@ movhi
 983 00a6 FB85     		strh	r3, [r7, #46]	@ movhi
 984 00a8 1EE0     		b	.L60
 985              	.L61:
 239:..\..\..\display\lvgl\lv_draw/lv_draw_rbasic.c ****             lv_disp_map(masked_a.x1, row, masked_a.x1 + mask_w, row, (lv_color_t *)map_p);
 986              		.loc 4 239 0 discriminator 3
 987 00aa B7F91830 		ldrsh	r3, [r7, #24]
 988 00ae 1C46     		mov	r4, r3
 989 00b0 B7F92E10 		ldrsh	r1, [r7, #46]
 990 00b4 B7F91830 		ldrsh	r3, [r7, #24]
 991 00b8 1A46     		mov	r2, r3
 992 00ba B7F92630 		ldrsh	r3, [r7, #38]
 993 00be 1A44     		add	r2, r2, r3
 994 00c0 B7F92E00 		ldrsh	r0, [r7, #46]
 995 00c4 7B68     		ldr	r3, [r7, #4]
 996 00c6 0093     		str	r3, [sp]
 997 00c8 0346     		mov	r3, r0
 998 00ca 2046     		mov	r0, r4
 999 00cc FFF7FEFF 		bl	lv_disp_map
 240:..\..\..\display\lvgl\lv_draw/lv_draw_rbasic.c ****             map_p += map_width * sizeof(lv_color_t);               /*Next row on the map*/
 1000              		.loc 4 240 0 discriminator 3
 1001 00d0 B7F92830 		ldrsh	r3, [r7, #40]
 1002 00d4 9B00     		lsls	r3, r3, #2
 1003 00d6 7A68     		ldr	r2, [r7, #4]
 1004 00d8 1344     		add	r3, r3, r2
 1005 00da 7B60     		str	r3, [r7, #4]
 238:..\..\..\display\lvgl\lv_draw/lv_draw_rbasic.c ****         for(row = masked_a.y1; row <= masked_a.y2; row++) {
 1006              		.loc 4 238 0 discriminator 3
 1007 00dc B7F92E30 		ldrsh	r3, [r7, #46]
 1008 00e0 9BB2     		uxth	r3, r3
 1009 00e2 0133     		adds	r3, r3, #1
 1010 00e4 9BB2     		uxth	r3, r3
 1011 00e6 FB85     		strh	r3, [r7, #46]	@ movhi
 1012              	.L60:
 238:..\..\..\display\lvgl\lv_draw/lv_draw_rbasic.c ****         for(row = masked_a.y1; row <= masked_a.y2; row++) {
 1013              		.loc 4 238 0 is_stmt 0 discriminator 1
 1014 00e8 B7F91E30 		ldrsh	r3, [r7, #30]
ARM GAS  C:\Users\pearlstl\AppData\Local\Temp\ccc6DM2e.s 			page 33


 1015 00ec B7F92E20 		ldrsh	r2, [r7, #46]
 1016 00f0 9A42     		cmp	r2, r3
 1017 00f2 DADD     		ble	.L61
 1018              	.LBE3:
 236:..\..\..\display\lvgl\lv_draw/lv_draw_rbasic.c ****         lv_coord_t mask_w = lv_area_get_width(&masked_a) - 1;
 1019              		.loc 4 236 0 is_stmt 1
 1020 00f4 66E0     		b	.L55
 1021              	.L59:
 1022              	.LBB4:
 241:..\..\..\display\lvgl\lv_draw/lv_draw_rbasic.c ****         }
 242:..\..\..\display\lvgl\lv_draw/lv_draw_rbasic.c ****     } else {
 243:..\..\..\display\lvgl\lv_draw/lv_draw_rbasic.c ****         lv_color_t chroma_key_color = LV_COLOR_TRANSP;
 1023              		.loc 4 243 0
 1024 00f6 0023     		movs	r3, #0
 1025 00f8 3B75     		strb	r3, [r7, #20]
 1026 00fa FF23     		movs	r3, #255
 1027 00fc 7B75     		strb	r3, [r7, #21]
 1028 00fe 0023     		movs	r3, #0
 1029 0100 BB75     		strb	r3, [r7, #22]
 1030 0102 FF23     		movs	r3, #255
 1031 0104 FB75     		strb	r3, [r7, #23]
 244:..\..\..\display\lvgl\lv_draw/lv_draw_rbasic.c ****         lv_coord_t col;
 245:..\..\..\display\lvgl\lv_draw/lv_draw_rbasic.c ****         for(row = masked_a.y1; row <= masked_a.y2; row++) {
 1032              		.loc 4 245 0
 1033 0106 7B8B     		ldrh	r3, [r7, #26]	@ movhi
 1034 0108 FB85     		strh	r3, [r7, #46]	@ movhi
 1035 010a 51E0     		b	.L63
 1036              	.L69:
 246:..\..\..\display\lvgl\lv_draw/lv_draw_rbasic.c ****             for(col = masked_a.x1; col <= masked_a.x2; col++) {
 1037              		.loc 4 246 0
 1038 010c 3B8B     		ldrh	r3, [r7, #24]	@ movhi
 1039 010e BB85     		strh	r3, [r7, #44]	@ movhi
 1040 0110 3CE0     		b	.L64
 1041              	.L68:
 1042              	.LBB5:
 247:..\..\..\display\lvgl\lv_draw/lv_draw_rbasic.c ****                 lv_color_t * px_color = (lv_color_t *) &map_p[(uint32_t)(col - masked_a.x1) * sizeo
 1043              		.loc 4 247 0
 1044 0112 B7F92C30 		ldrsh	r3, [r7, #44]
 1045 0116 B7F91820 		ldrsh	r2, [r7, #24]
 1046 011a 9B1A     		subs	r3, r3, r2
 1047 011c 9B00     		lsls	r3, r3, #2
 1048 011e 7A68     		ldr	r2, [r7, #4]
 1049 0120 1344     		add	r3, r3, r2
 1050 0122 3B62     		str	r3, [r7, #32]
 248:..\..\..\display\lvgl\lv_draw/lv_draw_rbasic.c **** 
 249:..\..\..\display\lvgl\lv_draw/lv_draw_rbasic.c ****                 if(chroma_key && chroma_key_color.full == px_color->full) continue;
 1051              		.loc 4 249 0
 1052 0124 97F84030 		ldrb	r3, [r7, #64]	@ zero_extendqisi2
 1053 0128 002B     		cmp	r3, #0
 1054 012a 04D0     		beq	.L65
 1055              		.loc 4 249 0 is_stmt 0 discriminator 1
 1056 012c 7A69     		ldr	r2, [r7, #20]
 1057 012e 3B6A     		ldr	r3, [r7, #32]
 1058 0130 1B68     		ldr	r3, [r3]
 1059 0132 9A42     		cmp	r2, r3
 1060 0134 23D0     		beq	.L73
 1061              	.L65:
ARM GAS  C:\Users\pearlstl\AppData\Local\Temp\ccc6DM2e.s 			page 34


 250:..\..\..\display\lvgl\lv_draw/lv_draw_rbasic.c **** 
 251:..\..\..\display\lvgl\lv_draw/lv_draw_rbasic.c ****                 if(recolor_opa != LV_OPA_TRANSP) {
 1062              		.loc 4 251 0 is_stmt 1
 1063 0136 97F84C30 		ldrb	r3, [r7, #76]	@ zero_extendqisi2
 1064 013a 002B     		cmp	r3, #0
 1065 013c 13D0     		beq	.L67
 1066              	.LBB6:
 252:..\..\..\display\lvgl\lv_draw/lv_draw_rbasic.c ****                     lv_color_t recolored_px = lv_color_mix(recolor, *px_color, recolor_opa);
 1067              		.loc 4 252 0
 1068 013e 97F84C20 		ldrb	r2, [r7, #76]	@ zero_extendqisi2
 1069 0142 3B6A     		ldr	r3, [r7, #32]
 1070 0144 1968     		ldr	r1, [r3]
 1071 0146 B86C     		ldr	r0, [r7, #72]
 1072 0148 FFF7FEFF 		bl	lv_color_mix
 1073 014c 0346     		mov	r3, r0
 1074 014e 3B61     		str	r3, [r7, #16]
 253:..\..\..\display\lvgl\lv_draw/lv_draw_rbasic.c **** 
 254:..\..\..\display\lvgl\lv_draw/lv_draw_rbasic.c ****                     lv_rpx(col, row, mask_p, recolored_px, LV_OPA_COVER);
 1075              		.loc 4 254 0
 1076 0150 B7F92E10 		ldrsh	r1, [r7, #46]
 1077 0154 B7F92C00 		ldrsh	r0, [r7, #44]
 1078 0158 FF23     		movs	r3, #255
 1079 015a 0093     		str	r3, [sp]
 1080 015c 3B69     		ldr	r3, [r7, #16]
 1081 015e BA68     		ldr	r2, [r7, #8]
 1082 0160 FFF7FEFF 		bl	lv_rpx
 1083              	.LBE6:
 1084 0164 0CE0     		b	.L66
 1085              	.L67:
 255:..\..\..\display\lvgl\lv_draw/lv_draw_rbasic.c ****                 } else {
 256:..\..\..\display\lvgl\lv_draw/lv_draw_rbasic.c ****                     lv_rpx(col, row, mask_p, *px_color, LV_OPA_COVER);
 1086              		.loc 4 256 0
 1087 0166 3B6A     		ldr	r3, [r7, #32]
 1088 0168 B7F92E10 		ldrsh	r1, [r7, #46]
 1089 016c B7F92C00 		ldrsh	r0, [r7, #44]
 1090 0170 FF22     		movs	r2, #255
 1091 0172 0092     		str	r2, [sp]
 1092 0174 1B68     		ldr	r3, [r3]
 1093 0176 BA68     		ldr	r2, [r7, #8]
 1094 0178 FFF7FEFF 		bl	lv_rpx
 1095 017c 00E0     		b	.L66
 1096              	.L73:
 249:..\..\..\display\lvgl\lv_draw/lv_draw_rbasic.c **** 
 1097              		.loc 4 249 0
 1098 017e 00BF     		nop
 1099              	.L66:
 1100              	.LBE5:
 246:..\..\..\display\lvgl\lv_draw/lv_draw_rbasic.c ****                 lv_color_t * px_color = (lv_color_t *) &map_p[(uint32_t)(col - masked_a.x1) * sizeo
 1101              		.loc 4 246 0 discriminator 2
 1102 0180 B7F92C30 		ldrsh	r3, [r7, #44]
 1103 0184 9BB2     		uxth	r3, r3
 1104 0186 0133     		adds	r3, r3, #1
 1105 0188 9BB2     		uxth	r3, r3
 1106 018a BB85     		strh	r3, [r7, #44]	@ movhi
 1107              	.L64:
 246:..\..\..\display\lvgl\lv_draw/lv_draw_rbasic.c ****                 lv_color_t * px_color = (lv_color_t *) &map_p[(uint32_t)(col - masked_a.x1) * sizeo
 1108              		.loc 4 246 0 is_stmt 0 discriminator 1
ARM GAS  C:\Users\pearlstl\AppData\Local\Temp\ccc6DM2e.s 			page 35


 1109 018c B7F91C30 		ldrsh	r3, [r7, #28]
 1110 0190 B7F92C20 		ldrsh	r2, [r7, #44]
 1111 0194 9A42     		cmp	r2, r3
 1112 0196 BCDD     		ble	.L68
 257:..\..\..\display\lvgl\lv_draw/lv_draw_rbasic.c ****                 }
 258:..\..\..\display\lvgl\lv_draw/lv_draw_rbasic.c **** 
 259:..\..\..\display\lvgl\lv_draw/lv_draw_rbasic.c ****             }
 260:..\..\..\display\lvgl\lv_draw/lv_draw_rbasic.c ****             map_p += map_width * sizeof(lv_color_t);               /*Next row on the map*/
 1113              		.loc 4 260 0 is_stmt 1 discriminator 2
 1114 0198 B7F92830 		ldrsh	r3, [r7, #40]
 1115 019c 9B00     		lsls	r3, r3, #2
 1116 019e 7A68     		ldr	r2, [r7, #4]
 1117 01a0 1344     		add	r3, r3, r2
 1118 01a2 7B60     		str	r3, [r7, #4]
 245:..\..\..\display\lvgl\lv_draw/lv_draw_rbasic.c ****             for(col = masked_a.x1; col <= masked_a.x2; col++) {
 1119              		.loc 4 245 0 discriminator 2
 1120 01a4 B7F92E30 		ldrsh	r3, [r7, #46]
 1121 01a8 9BB2     		uxth	r3, r3
 1122 01aa 0133     		adds	r3, r3, #1
 1123 01ac 9BB2     		uxth	r3, r3
 1124 01ae FB85     		strh	r3, [r7, #46]	@ movhi
 1125              	.L63:
 245:..\..\..\display\lvgl\lv_draw/lv_draw_rbasic.c ****             for(col = masked_a.x1; col <= masked_a.x2; col++) {
 1126              		.loc 4 245 0 is_stmt 0 discriminator 1
 1127 01b0 B7F91E30 		ldrsh	r3, [r7, #30]
 1128 01b4 B7F92E20 		ldrsh	r2, [r7, #46]
 1129 01b8 9A42     		cmp	r2, r3
 1130 01ba A7DD     		ble	.L69
 1131 01bc 02E0     		b	.L55
 1132              	.L71:
 1133              	.LBE4:
 219:..\..\..\display\lvgl\lv_draw/lv_draw_rbasic.c **** 
 1134              		.loc 4 219 0 is_stmt 1
 1135 01be 00BF     		nop
 1136 01c0 00E0     		b	.L55
 1137              	.L72:
 228:..\..\..\display\lvgl\lv_draw/lv_draw_rbasic.c **** 
 1138              		.loc 4 228 0
 1139 01c2 00BF     		nop
 1140              	.L55:
 261:..\..\..\display\lvgl\lv_draw/lv_draw_rbasic.c ****         }
 262:..\..\..\display\lvgl\lv_draw/lv_draw_rbasic.c ****     }
 263:..\..\..\display\lvgl\lv_draw/lv_draw_rbasic.c **** }
 1141              		.loc 4 263 0
 1142 01c4 3437     		adds	r7, r7, #52
 1143              		.cfi_def_cfa_offset 12
 1144 01c6 BD46     		mov	sp, r7
 1145              		.cfi_def_cfa_register 13
 1146              		@ sp needed
 1147 01c8 90BD     		pop	{r4, r7, pc}
 1148              		.cfi_endproc
 1149              	.LFE16:
 1150              		.size	lv_rmap, .-lv_rmap
 1151 01ca 00BF     		.data
 1152              		.align	2
 1153              		.type	bpp1_opa_table.5745, %object
 1154              		.size	bpp1_opa_table.5745, 2
ARM GAS  C:\Users\pearlstl\AppData\Local\Temp\ccc6DM2e.s 			page 36


 1155              	bpp1_opa_table.5745:
 1156 0000 00       		.byte	0
 1157 0001 FF       		.byte	-1
 1158 0002 0000     		.align	2
 1159              		.type	bpp2_opa_table.5746, %object
 1160              		.size	bpp2_opa_table.5746, 4
 1161              	bpp2_opa_table.5746:
 1162 0004 00       		.byte	0
 1163 0005 55       		.byte	85
 1164 0006 AA       		.byte	-86
 1165 0007 FF       		.byte	-1
 1166              		.align	2
 1167              		.type	bpp4_opa_table.5747, %object
 1168              		.size	bpp4_opa_table.5747, 16
 1169              	bpp4_opa_table.5747:
 1170 0008 00       		.byte	0
 1171 0009 11       		.byte	17
 1172 000a 22       		.byte	34
 1173 000b 33       		.byte	51
 1174 000c 44       		.byte	68
 1175 000d 55       		.byte	85
 1176 000e 66       		.byte	102
 1177 000f 77       		.byte	119
 1178 0010 88       		.byte	-120
 1179 0011 99       		.byte	-103
 1180 0012 AA       		.byte	-86
 1181 0013 BB       		.byte	-69
 1182 0014 CC       		.byte	-52
 1183 0015 DD       		.byte	-35
 1184 0016 EE       		.byte	-18
 1185 0017 FF       		.byte	-1
 1186              		.text
 1187              	.Letext0:
 1188              		.file 5 "c:\\program files (x86)\\cypress\\psoc creator\\4.2\\psoc creator\\import\\gnu\\arm\\5.4.
 1189              		.file 6 "c:\\program files (x86)\\cypress\\psoc creator\\4.2\\psoc creator\\import\\gnu\\arm\\5.4.
 1190              		.section	.debug_info,"",%progbits
 1191              	.Ldebug_info0:
 1192 0000 50080000 		.4byte	0x850
 1193 0004 0400     		.2byte	0x4
 1194 0006 00000000 		.4byte	.Ldebug_abbrev0
 1195 000a 04       		.byte	0x4
 1196 000b 01       		.uleb128 0x1
 1197 000c 0C050000 		.4byte	.LASF106
 1198 0010 0C       		.byte	0xc
 1199 0011 97020000 		.4byte	.LASF107
 1200 0015 D7030000 		.4byte	.LASF108
 1201 0019 00000000 		.4byte	.Ldebug_ranges0+0
 1202 001d 00000000 		.4byte	0
 1203 0021 00000000 		.4byte	.Ldebug_line0
 1204 0025 02       		.uleb128 0x2
 1205 0026 01       		.byte	0x1
 1206 0027 06       		.byte	0x6
 1207 0028 AF000000 		.4byte	.LASF0
 1208 002c 03       		.uleb128 0x3
 1209 002d 32000000 		.4byte	.LASF2
 1210 0031 05       		.byte	0x5
 1211 0032 1D       		.byte	0x1d
ARM GAS  C:\Users\pearlstl\AppData\Local\Temp\ccc6DM2e.s 			page 37


 1212 0033 37000000 		.4byte	0x37
 1213 0037 02       		.uleb128 0x2
 1214 0038 01       		.byte	0x1
 1215 0039 08       		.byte	0x8
 1216 003a 05030000 		.4byte	.LASF1
 1217 003e 03       		.uleb128 0x3
 1218 003f 46010000 		.4byte	.LASF3
 1219 0043 05       		.byte	0x5
 1220 0044 29       		.byte	0x29
 1221 0045 49000000 		.4byte	0x49
 1222 0049 02       		.uleb128 0x2
 1223 004a 02       		.byte	0x2
 1224 004b 05       		.byte	0x5
 1225 004c 07020000 		.4byte	.LASF4
 1226 0050 03       		.uleb128 0x3
 1227 0051 AC030000 		.4byte	.LASF5
 1228 0055 05       		.byte	0x5
 1229 0056 2B       		.byte	0x2b
 1230 0057 5B000000 		.4byte	0x5b
 1231 005b 02       		.uleb128 0x2
 1232 005c 02       		.byte	0x2
 1233 005d 07       		.byte	0x7
 1234 005e AD010000 		.4byte	.LASF6
 1235 0062 02       		.uleb128 0x2
 1236 0063 04       		.byte	0x4
 1237 0064 05       		.byte	0x5
 1238 0065 45000000 		.4byte	.LASF7
 1239 0069 03       		.uleb128 0x3
 1240 006a 2C010000 		.4byte	.LASF8
 1241 006e 05       		.byte	0x5
 1242 006f 41       		.byte	0x41
 1243 0070 74000000 		.4byte	0x74
 1244 0074 02       		.uleb128 0x2
 1245 0075 04       		.byte	0x4
 1246 0076 07       		.byte	0x7
 1247 0077 70010000 		.4byte	.LASF9
 1248 007b 02       		.uleb128 0x2
 1249 007c 08       		.byte	0x8
 1250 007d 05       		.byte	0x5
 1251 007e A1000000 		.4byte	.LASF10
 1252 0082 02       		.uleb128 0x2
 1253 0083 08       		.byte	0x8
 1254 0084 07       		.byte	0x7
 1255 0085 60000000 		.4byte	.LASF11
 1256 0089 04       		.uleb128 0x4
 1257 008a 04       		.byte	0x4
 1258 008b 05       		.byte	0x5
 1259 008c 696E7400 		.ascii	"int\000"
 1260 0090 02       		.uleb128 0x2
 1261 0091 04       		.byte	0x4
 1262 0092 07       		.byte	0x7
 1263 0093 50010000 		.4byte	.LASF12
 1264 0097 03       		.uleb128 0x3
 1265 0098 99040000 		.4byte	.LASF13
 1266 009c 06       		.byte	0x6
 1267 009d 18       		.byte	0x18
 1268 009e 2C000000 		.4byte	0x2c
ARM GAS  C:\Users\pearlstl\AppData\Local\Temp\ccc6DM2e.s 			page 38


 1269 00a2 03       		.uleb128 0x3
 1270 00a3 99000000 		.4byte	.LASF14
 1271 00a7 06       		.byte	0x6
 1272 00a8 20       		.byte	0x20
 1273 00a9 3E000000 		.4byte	0x3e
 1274 00ad 03       		.uleb128 0x3
 1275 00ae F1000000 		.4byte	.LASF15
 1276 00b2 06       		.byte	0x6
 1277 00b3 24       		.byte	0x24
 1278 00b4 50000000 		.4byte	0x50
 1279 00b8 03       		.uleb128 0x3
 1280 00b9 62030000 		.4byte	.LASF16
 1281 00bd 06       		.byte	0x6
 1282 00be 30       		.byte	0x30
 1283 00bf 69000000 		.4byte	0x69
 1284 00c3 05       		.uleb128 0x5
 1285 00c4 01       		.byte	0x1
 1286 00c5 37000000 		.4byte	0x37
 1287 00c9 01       		.byte	0x1
 1288 00ca 3C       		.byte	0x3c
 1289 00cb 1E010000 		.4byte	0x11e
 1290 00cf 06       		.uleb128 0x6
 1291 00d0 5F020000 		.4byte	.LASF17
 1292 00d4 00       		.byte	0
 1293 00d5 06       		.uleb128 0x6
 1294 00d6 C0040000 		.4byte	.LASF18
 1295 00da 00       		.byte	0
 1296 00db 06       		.uleb128 0x6
 1297 00dc F5020000 		.4byte	.LASF19
 1298 00e0 19       		.byte	0x19
 1299 00e1 06       		.uleb128 0x6
 1300 00e2 A2030000 		.4byte	.LASF20
 1301 00e6 33       		.byte	0x33
 1302 00e7 06       		.uleb128 0x6
 1303 00e8 14000000 		.4byte	.LASF21
 1304 00ec 4C       		.byte	0x4c
 1305 00ed 06       		.uleb128 0x6
 1306 00ee 0A000000 		.4byte	.LASF22
 1307 00f2 66       		.byte	0x66
 1308 00f3 06       		.uleb128 0x6
 1309 00f4 C1000000 		.4byte	.LASF23
 1310 00f8 7F       		.byte	0x7f
 1311 00f9 06       		.uleb128 0x6
 1312 00fa 3C010000 		.4byte	.LASF24
 1313 00fe 99       		.byte	0x99
 1314 00ff 06       		.uleb128 0x6
 1315 0100 FD010000 		.4byte	.LASF25
 1316 0104 B2       		.byte	0xb2
 1317 0105 06       		.uleb128 0x6
 1318 0106 82020000 		.4byte	.LASF26
 1319 010a CC       		.byte	0xcc
 1320 010b 06       		.uleb128 0x6
 1321 010c 39030000 		.4byte	.LASF27
 1322 0110 E5       		.byte	0xe5
 1323 0111 06       		.uleb128 0x6
 1324 0112 C7030000 		.4byte	.LASF28
 1325 0116 FF       		.byte	0xff
ARM GAS  C:\Users\pearlstl\AppData\Local\Temp\ccc6DM2e.s 			page 39


 1326 0117 06       		.uleb128 0x6
 1327 0118 FA000000 		.4byte	.LASF29
 1328 011c FF       		.byte	0xff
 1329 011d 00       		.byte	0
 1330 011e 07       		.uleb128 0x7
 1331 011f 04       		.byte	0x4
 1332 0120 01       		.byte	0x1
 1333 0121 86       		.byte	0x86
 1334 0122 57010000 		.4byte	0x157
 1335 0126 08       		.uleb128 0x8
 1336 0127 92020000 		.4byte	.LASF30
 1337 012b 01       		.byte	0x1
 1338 012c 88       		.byte	0x88
 1339 012d 97000000 		.4byte	0x97
 1340 0131 00       		.byte	0
 1341 0132 08       		.uleb128 0x8
 1342 0133 84040000 		.4byte	.LASF31
 1343 0137 01       		.byte	0x1
 1344 0138 89       		.byte	0x89
 1345 0139 97000000 		.4byte	0x97
 1346 013d 01       		.byte	0x1
 1347 013e 09       		.uleb128 0x9
 1348 013f 72656400 		.ascii	"red\000"
 1349 0143 01       		.byte	0x1
 1350 0144 8A       		.byte	0x8a
 1351 0145 97000000 		.4byte	0x97
 1352 0149 02       		.byte	0x2
 1353 014a 08       		.uleb128 0x8
 1354 014b BB000000 		.4byte	.LASF32
 1355 014f 01       		.byte	0x1
 1356 0150 8B       		.byte	0x8b
 1357 0151 97000000 		.4byte	0x97
 1358 0155 03       		.byte	0x3
 1359 0156 00       		.byte	0
 1360 0157 0A       		.uleb128 0xa
 1361 0158 04       		.byte	0x4
 1362 0159 01       		.byte	0x1
 1363 015a 84       		.byte	0x84
 1364 015b 70010000 		.4byte	0x170
 1365 015f 0B       		.uleb128 0xb
 1366 0160 1E010000 		.4byte	0x11e
 1367 0164 0C       		.uleb128 0xc
 1368 0165 6D020000 		.4byte	.LASF109
 1369 0169 01       		.byte	0x1
 1370 016a 8D       		.byte	0x8d
 1371 016b B8000000 		.4byte	0xb8
 1372 016f 00       		.byte	0
 1373 0170 03       		.uleb128 0x3
 1374 0171 81000000 		.4byte	.LASF33
 1375 0175 01       		.byte	0x1
 1376 0176 8E       		.byte	0x8e
 1377 0177 57010000 		.4byte	0x157
 1378 017b 03       		.uleb128 0x3
 1379 017c 27000000 		.4byte	.LASF34
 1380 0180 01       		.byte	0x1
 1381 0181 9B       		.byte	0x9b
 1382 0182 70010000 		.4byte	0x170
ARM GAS  C:\Users\pearlstl\AppData\Local\Temp\ccc6DM2e.s 			page 40


 1383 0186 03       		.uleb128 0x3
 1384 0187 BE030000 		.4byte	.LASF35
 1385 018b 01       		.byte	0x1
 1386 018c A0       		.byte	0xa0
 1387 018d 97000000 		.4byte	0x97
 1388 0191 02       		.uleb128 0x2
 1389 0192 08       		.byte	0x8
 1390 0193 04       		.byte	0x4
 1391 0194 7B030000 		.4byte	.LASF36
 1392 0198 02       		.uleb128 0x2
 1393 0199 04       		.byte	0x4
 1394 019a 07       		.byte	0x7
 1395 019b 56020000 		.4byte	.LASF37
 1396 019f 02       		.uleb128 0x2
 1397 01a0 01       		.byte	0x1
 1398 01a1 08       		.byte	0x8
 1399 01a2 8D030000 		.4byte	.LASF38
 1400 01a6 03       		.uleb128 0x3
 1401 01a7 8E000000 		.4byte	.LASF39
 1402 01ab 02       		.byte	0x2
 1403 01ac 1E       		.byte	0x1e
 1404 01ad A2000000 		.4byte	0xa2
 1405 01b1 07       		.uleb128 0x7
 1406 01b2 04       		.byte	0x4
 1407 01b3 02       		.byte	0x2
 1408 01b4 20       		.byte	0x20
 1409 01b5 CE010000 		.4byte	0x1ce
 1410 01b9 09       		.uleb128 0x9
 1411 01ba 7800     		.ascii	"x\000"
 1412 01bc 02       		.byte	0x2
 1413 01bd 22       		.byte	0x22
 1414 01be A6010000 		.4byte	0x1a6
 1415 01c2 00       		.byte	0
 1416 01c3 09       		.uleb128 0x9
 1417 01c4 7900     		.ascii	"y\000"
 1418 01c6 02       		.byte	0x2
 1419 01c7 23       		.byte	0x23
 1420 01c8 A6010000 		.4byte	0x1a6
 1421 01cc 02       		.byte	0x2
 1422 01cd 00       		.byte	0
 1423 01ce 03       		.uleb128 0x3
 1424 01cf A1040000 		.4byte	.LASF40
 1425 01d3 02       		.byte	0x2
 1426 01d4 24       		.byte	0x24
 1427 01d5 B1010000 		.4byte	0x1b1
 1428 01d9 07       		.uleb128 0x7
 1429 01da 08       		.byte	0x8
 1430 01db 02       		.byte	0x2
 1431 01dc 26       		.byte	0x26
 1432 01dd 0E020000 		.4byte	0x20e
 1433 01e1 09       		.uleb128 0x9
 1434 01e2 783100   		.ascii	"x1\000"
 1435 01e5 02       		.byte	0x2
 1436 01e6 28       		.byte	0x28
 1437 01e7 A6010000 		.4byte	0x1a6
 1438 01eb 00       		.byte	0
 1439 01ec 09       		.uleb128 0x9
ARM GAS  C:\Users\pearlstl\AppData\Local\Temp\ccc6DM2e.s 			page 41


 1440 01ed 793100   		.ascii	"y1\000"
 1441 01f0 02       		.byte	0x2
 1442 01f1 29       		.byte	0x29
 1443 01f2 A6010000 		.4byte	0x1a6
 1444 01f6 02       		.byte	0x2
 1445 01f7 09       		.uleb128 0x9
 1446 01f8 783200   		.ascii	"x2\000"
 1447 01fb 02       		.byte	0x2
 1448 01fc 2A       		.byte	0x2a
 1449 01fd A6010000 		.4byte	0x1a6
 1450 0201 04       		.byte	0x4
 1451 0202 09       		.uleb128 0x9
 1452 0203 793200   		.ascii	"y2\000"
 1453 0206 02       		.byte	0x2
 1454 0207 2B       		.byte	0x2b
 1455 0208 A6010000 		.4byte	0x1a6
 1456 020c 06       		.byte	0x6
 1457 020d 00       		.byte	0
 1458 020e 03       		.uleb128 0x3
 1459 020f D5000000 		.4byte	.LASF41
 1460 0213 02       		.byte	0x2
 1461 0214 2C       		.byte	0x2c
 1462 0215 D9010000 		.4byte	0x1d9
 1463 0219 07       		.uleb128 0x7
 1464 021a 04       		.byte	0x4
 1465 021b 03       		.byte	0x3
 1466 021c 25       		.byte	0x25
 1467 021d 40020000 		.4byte	0x240
 1468 0221 0D       		.uleb128 0xd
 1469 0222 3A020000 		.4byte	.LASF42
 1470 0226 03       		.byte	0x3
 1471 0227 27       		.byte	0x27
 1472 0228 B8000000 		.4byte	0xb8
 1473 022c 04       		.byte	0x4
 1474 022d 08       		.byte	0x8
 1475 022e 18       		.byte	0x18
 1476 022f 00       		.byte	0
 1477 0230 0D       		.uleb128 0xd
 1478 0231 78040000 		.4byte	.LASF43
 1479 0235 03       		.byte	0x3
 1480 0236 28       		.byte	0x28
 1481 0237 B8000000 		.4byte	0xb8
 1482 023b 04       		.byte	0x4
 1483 023c 18       		.byte	0x18
 1484 023d 00       		.byte	0
 1485 023e 00       		.byte	0
 1486 023f 00       		.byte	0
 1487 0240 03       		.uleb128 0x3
 1488 0241 1E020000 		.4byte	.LASF44
 1489 0245 03       		.byte	0x3
 1490 0246 29       		.byte	0x29
 1491 0247 19020000 		.4byte	0x219
 1492 024b 0E       		.uleb128 0xe
 1493 024c 5D040000 		.4byte	.LASF110
 1494 0250 28       		.byte	0x28
 1495 0251 03       		.byte	0x3
 1496 0252 31       		.byte	0x31
ARM GAS  C:\Users\pearlstl\AppData\Local\Temp\ccc6DM2e.s 			page 42


 1497 0253 F1020000 		.4byte	0x2f1
 1498 0257 08       		.uleb128 0x8
 1499 0258 EF010000 		.4byte	.LASF45
 1500 025c 03       		.byte	0x3
 1501 025d 33       		.byte	0x33
 1502 025e B8000000 		.4byte	0xb8
 1503 0262 00       		.byte	0
 1504 0263 08       		.uleb128 0x8
 1505 0264 2C030000 		.4byte	.LASF46
 1506 0268 03       		.byte	0x3
 1507 0269 34       		.byte	0x34
 1508 026a B8000000 		.4byte	0xb8
 1509 026e 04       		.byte	0x4
 1510 026f 08       		.uleb128 0x8
 1511 0270 11020000 		.4byte	.LASF47
 1512 0274 03       		.byte	0x3
 1513 0275 35       		.byte	0x35
 1514 0276 F1020000 		.4byte	0x2f1
 1515 027a 08       		.byte	0x8
 1516 027b 08       		.uleb128 0x8
 1517 027c EB020000 		.4byte	.LASF48
 1518 0280 03       		.byte	0x3
 1519 0281 36       		.byte	0x36
 1520 0282 FC020000 		.4byte	0x2fc
 1521 0286 0C       		.byte	0xc
 1522 0287 08       		.uleb128 0x8
 1523 0288 C6020000 		.4byte	.LASF49
 1524 028c 03       		.byte	0x3
 1525 028d 37       		.byte	0x37
 1526 028e 07030000 		.4byte	0x307
 1527 0292 10       		.byte	0x10
 1528 0293 08       		.uleb128 0x8
 1529 0294 C9040000 		.4byte	.LASF50
 1530 0298 03       		.byte	0x3
 1531 0299 38       		.byte	0x38
 1532 029a 31030000 		.4byte	0x331
 1533 029e 14       		.byte	0x14
 1534 029f 08       		.uleb128 0x8
 1535 02a0 6B030000 		.4byte	.LASF51
 1536 02a4 03       		.byte	0x3
 1537 02a5 39       		.byte	0x39
 1538 02a6 4B030000 		.4byte	0x34b
 1539 02aa 18       		.byte	0x18
 1540 02ab 08       		.uleb128 0x8
 1541 02ac DF000000 		.4byte	.LASF52
 1542 02b0 03       		.byte	0x3
 1543 02b1 3A       		.byte	0x3a
 1544 02b2 51030000 		.4byte	0x351
 1545 02b6 1C       		.byte	0x1c
 1546 02b7 0D       		.uleb128 0xd
 1547 02b8 D2030000 		.4byte	.LASF53
 1548 02bc 03       		.byte	0x3
 1549 02bd 3B       		.byte	0x3b
 1550 02be B8000000 		.4byte	0xb8
 1551 02c2 04       		.byte	0x4
 1552 02c3 08       		.byte	0x8
 1553 02c4 18       		.byte	0x18
ARM GAS  C:\Users\pearlstl\AppData\Local\Temp\ccc6DM2e.s 			page 43


 1554 02c5 20       		.byte	0x20
 1555 02c6 0F       		.uleb128 0xf
 1556 02c7 62707000 		.ascii	"bpp\000"
 1557 02cb 03       		.byte	0x3
 1558 02cc 3C       		.byte	0x3c
 1559 02cd B8000000 		.4byte	0xb8
 1560 02d1 04       		.byte	0x4
 1561 02d2 04       		.byte	0x4
 1562 02d3 14       		.byte	0x14
 1563 02d4 20       		.byte	0x20
 1564 02d5 0D       		.uleb128 0xd
 1565 02d6 00000000 		.4byte	.LASF54
 1566 02da 03       		.byte	0x3
 1567 02db 3D       		.byte	0x3d
 1568 02dc B8000000 		.4byte	0xb8
 1569 02e0 04       		.byte	0x4
 1570 02e1 08       		.byte	0x8
 1571 02e2 0C       		.byte	0xc
 1572 02e3 20       		.byte	0x20
 1573 02e4 08       		.uleb128 0x8
 1574 02e5 CB000000 		.4byte	.LASF55
 1575 02e9 03       		.byte	0x3
 1576 02ea 3E       		.byte	0x3e
 1577 02eb AD000000 		.4byte	0xad
 1578 02ef 24       		.byte	0x24
 1579 02f0 00       		.byte	0
 1580 02f1 10       		.uleb128 0x10
 1581 02f2 04       		.byte	0x4
 1582 02f3 F7020000 		.4byte	0x2f7
 1583 02f7 11       		.uleb128 0x11
 1584 02f8 97000000 		.4byte	0x97
 1585 02fc 10       		.uleb128 0x10
 1586 02fd 04       		.byte	0x4
 1587 02fe 02030000 		.4byte	0x302
 1588 0302 11       		.uleb128 0x11
 1589 0303 40020000 		.4byte	0x240
 1590 0307 10       		.uleb128 0x10
 1591 0308 04       		.byte	0x4
 1592 0309 0D030000 		.4byte	0x30d
 1593 030d 11       		.uleb128 0x11
 1594 030e B8000000 		.4byte	0xb8
 1595 0312 12       		.uleb128 0x12
 1596 0313 F1020000 		.4byte	0x2f1
 1597 0317 26030000 		.4byte	0x326
 1598 031b 13       		.uleb128 0x13
 1599 031c 26030000 		.4byte	0x326
 1600 0320 13       		.uleb128 0x13
 1601 0321 B8000000 		.4byte	0xb8
 1602 0325 00       		.byte	0
 1603 0326 10       		.uleb128 0x10
 1604 0327 04       		.byte	0x4
 1605 0328 2C030000 		.4byte	0x32c
 1606 032c 11       		.uleb128 0x11
 1607 032d 4B020000 		.4byte	0x24b
 1608 0331 10       		.uleb128 0x10
 1609 0332 04       		.byte	0x4
 1610 0333 12030000 		.4byte	0x312
ARM GAS  C:\Users\pearlstl\AppData\Local\Temp\ccc6DM2e.s 			page 44


 1611 0337 12       		.uleb128 0x12
 1612 0338 A2000000 		.4byte	0xa2
 1613 033c 4B030000 		.4byte	0x34b
 1614 0340 13       		.uleb128 0x13
 1615 0341 26030000 		.4byte	0x326
 1616 0345 13       		.uleb128 0x13
 1617 0346 B8000000 		.4byte	0xb8
 1618 034a 00       		.byte	0
 1619 034b 10       		.uleb128 0x10
 1620 034c 04       		.byte	0x4
 1621 034d 37030000 		.4byte	0x337
 1622 0351 10       		.uleb128 0x10
 1623 0352 04       		.byte	0x4
 1624 0353 4B020000 		.4byte	0x24b
 1625 0357 03       		.uleb128 0x3
 1626 0358 77000000 		.4byte	.LASF56
 1627 035c 03       		.byte	0x3
 1628 035d 3F       		.byte	0x3f
 1629 035e 4B020000 		.4byte	0x24b
 1630 0362 10       		.uleb128 0x10
 1631 0363 04       		.byte	0x4
 1632 0364 68030000 		.4byte	0x368
 1633 0368 11       		.uleb128 0x11
 1634 0369 57030000 		.4byte	0x357
 1635 036d 02       		.uleb128 0x2
 1636 036e 01       		.byte	0x1
 1637 036f 02       		.byte	0x2
 1638 0370 FF020000 		.4byte	.LASF57
 1639 0374 10       		.uleb128 0x10
 1640 0375 04       		.byte	0x4
 1641 0376 7A030000 		.4byte	0x37a
 1642 037a 11       		.uleb128 0x11
 1643 037b 0E020000 		.4byte	0x20e
 1644 037f 10       		.uleb128 0x10
 1645 0380 04       		.byte	0x4
 1646 0381 85030000 		.4byte	0x385
 1647 0385 11       		.uleb128 0x11
 1648 0386 CE010000 		.4byte	0x1ce
 1649 038a 10       		.uleb128 0x10
 1650 038b 04       		.byte	0x4
 1651 038c 97000000 		.4byte	0x97
 1652 0390 14       		.uleb128 0x14
 1653 0391 EE040000 		.4byte	.LASF58
 1654 0395 01       		.byte	0x1
 1655 0396 4601     		.2byte	0x146
 1656 0398 7B010000 		.4byte	0x17b
 1657 039c 00000000 		.4byte	.LFB4
 1658 03a0 A4000000 		.4byte	.LFE4-.LFB4
 1659 03a4 01       		.uleb128 0x1
 1660 03a5 9C       		.byte	0x9c
 1661 03a6 E5030000 		.4byte	0x3e5
 1662 03aa 15       		.uleb128 0x15
 1663 03ab 633100   		.ascii	"c1\000"
 1664 03ae 01       		.byte	0x1
 1665 03af 4601     		.2byte	0x146
 1666 03b1 7B010000 		.4byte	0x17b
 1667 03b5 02       		.uleb128 0x2
ARM GAS  C:\Users\pearlstl\AppData\Local\Temp\ccc6DM2e.s 			page 45


 1668 03b6 91       		.byte	0x91
 1669 03b7 6C       		.sleb128 -20
 1670 03b8 15       		.uleb128 0x15
 1671 03b9 633200   		.ascii	"c2\000"
 1672 03bc 01       		.byte	0x1
 1673 03bd 4601     		.2byte	0x146
 1674 03bf 7B010000 		.4byte	0x17b
 1675 03c3 02       		.uleb128 0x2
 1676 03c4 91       		.byte	0x91
 1677 03c5 68       		.sleb128 -24
 1678 03c6 15       		.uleb128 0x15
 1679 03c7 6D697800 		.ascii	"mix\000"
 1680 03cb 01       		.byte	0x1
 1681 03cc 4601     		.2byte	0x146
 1682 03ce 97000000 		.4byte	0x97
 1683 03d2 02       		.uleb128 0x2
 1684 03d3 91       		.byte	0x91
 1685 03d4 67       		.sleb128 -25
 1686 03d5 16       		.uleb128 0x16
 1687 03d6 72657400 		.ascii	"ret\000"
 1688 03da 01       		.byte	0x1
 1689 03db 4801     		.2byte	0x148
 1690 03dd 7B010000 		.4byte	0x17b
 1691 03e1 02       		.uleb128 0x2
 1692 03e2 91       		.byte	0x91
 1693 03e3 74       		.sleb128 -12
 1694 03e4 00       		.byte	0
 1695 03e5 17       		.uleb128 0x17
 1696 03e6 4E000000 		.4byte	.LASF59
 1697 03ea 02       		.byte	0x2
 1698 03eb 4B       		.byte	0x4b
 1699 03ec A6010000 		.4byte	0x1a6
 1700 03f0 00000000 		.4byte	.LFB9
 1701 03f4 2E000000 		.4byte	.LFE9-.LFB9
 1702 03f8 01       		.uleb128 0x1
 1703 03f9 9C       		.byte	0x9c
 1704 03fa 0D040000 		.4byte	0x40d
 1705 03fe 18       		.uleb128 0x18
 1706 03ff 5B030000 		.4byte	.LASF60
 1707 0403 02       		.byte	0x2
 1708 0404 4B       		.byte	0x4b
 1709 0405 74030000 		.4byte	0x374
 1710 0409 02       		.uleb128 0x2
 1711 040a 91       		.byte	0x91
 1712 040b 74       		.sleb128 -12
 1713 040c 00       		.byte	0
 1714 040d 17       		.uleb128 0x17
 1715 040e CA010000 		.4byte	.LASF61
 1716 0412 03       		.byte	0x3
 1717 0413 7E       		.byte	0x7e
 1718 0414 97000000 		.4byte	0x97
 1719 0418 00000000 		.4byte	.LFB11
 1720 041c 1A000000 		.4byte	.LFE11-.LFB11
 1721 0420 01       		.uleb128 0x1
 1722 0421 9C       		.byte	0x9c
 1723 0422 35040000 		.4byte	0x435
 1724 0426 18       		.uleb128 0x18
ARM GAS  C:\Users\pearlstl\AppData\Local\Temp\ccc6DM2e.s 			page 46


 1725 0427 DD020000 		.4byte	.LASF62
 1726 042b 03       		.byte	0x3
 1727 042c 7E       		.byte	0x7e
 1728 042d 62030000 		.4byte	0x362
 1729 0431 02       		.uleb128 0x2
 1730 0432 91       		.byte	0x91
 1731 0433 74       		.sleb128 -12
 1732 0434 00       		.byte	0
 1733 0435 19       		.uleb128 0x19
 1734 0436 E4020000 		.4byte	.LASF66
 1735 043a 04       		.byte	0x4
 1736 043b 31       		.byte	0x31
 1737 043c 00000000 		.4byte	.LFB12
 1738 0440 38000000 		.4byte	.LFE12-.LFB12
 1739 0444 01       		.uleb128 0x1
 1740 0445 9C       		.byte	0x9c
 1741 0446 9B040000 		.4byte	0x49b
 1742 044a 1A       		.uleb128 0x1a
 1743 044b 7800     		.ascii	"x\000"
 1744 044d 04       		.byte	0x4
 1745 044e 31       		.byte	0x31
 1746 044f A6010000 		.4byte	0x1a6
 1747 0453 02       		.uleb128 0x2
 1748 0454 91       		.byte	0x91
 1749 0455 6E       		.sleb128 -18
 1750 0456 1A       		.uleb128 0x1a
 1751 0457 7900     		.ascii	"y\000"
 1752 0459 04       		.byte	0x4
 1753 045a 31       		.byte	0x31
 1754 045b A6010000 		.4byte	0x1a6
 1755 045f 02       		.uleb128 0x2
 1756 0460 91       		.byte	0x91
 1757 0461 6C       		.sleb128 -20
 1758 0462 18       		.uleb128 0x18
 1759 0463 69010000 		.4byte	.LASF63
 1760 0467 04       		.byte	0x4
 1761 0468 31       		.byte	0x31
 1762 0469 74030000 		.4byte	0x374
 1763 046d 02       		.uleb128 0x2
 1764 046e 91       		.byte	0x91
 1765 046f 68       		.sleb128 -24
 1766 0470 18       		.uleb128 0x18
 1767 0471 87030000 		.4byte	.LASF64
 1768 0475 04       		.byte	0x4
 1769 0476 31       		.byte	0x31
 1770 0477 7B010000 		.4byte	0x17b
 1771 047b 02       		.uleb128 0x2
 1772 047c 91       		.byte	0x91
 1773 047d 64       		.sleb128 -28
 1774 047e 1A       		.uleb128 0x1a
 1775 047f 6F706100 		.ascii	"opa\000"
 1776 0483 04       		.byte	0x4
 1777 0484 31       		.byte	0x31
 1778 0485 86010000 		.4byte	0x186
 1779 0489 02       		.uleb128 0x2
 1780 048a 91       		.byte	0x91
 1781 048b 00       		.sleb128 0
ARM GAS  C:\Users\pearlstl\AppData\Local\Temp\ccc6DM2e.s 			page 47


 1782 048c 1B       		.uleb128 0x1b
 1783 048d 27030000 		.4byte	.LASF65
 1784 0491 04       		.byte	0x4
 1785 0492 35       		.byte	0x35
 1786 0493 0E020000 		.4byte	0x20e
 1787 0497 02       		.uleb128 0x2
 1788 0498 91       		.byte	0x91
 1789 0499 70       		.sleb128 -16
 1790 049a 00       		.byte	0
 1791 049b 19       		.uleb128 0x19
 1792 049c 43030000 		.4byte	.LASF67
 1793 04a0 04       		.byte	0x4
 1794 04a1 45       		.byte	0x45
 1795 04a2 00000000 		.4byte	.LFB13
 1796 04a6 8E000000 		.4byte	.LFE13-.LFB13
 1797 04aa 01       		.uleb128 0x1
 1798 04ab 9C       		.byte	0x9c
 1799 04ac 1D050000 		.4byte	0x51d
 1800 04b0 18       		.uleb128 0x18
 1801 04b1 16010000 		.4byte	.LASF68
 1802 04b5 04       		.byte	0x4
 1803 04b6 45       		.byte	0x45
 1804 04b7 74030000 		.4byte	0x374
 1805 04bb 02       		.uleb128 0x2
 1806 04bc 91       		.byte	0x91
 1807 04bd 54       		.sleb128 -44
 1808 04be 18       		.uleb128 0x18
 1809 04bf 69010000 		.4byte	.LASF63
 1810 04c3 04       		.byte	0x4
 1811 04c4 45       		.byte	0x45
 1812 04c5 74030000 		.4byte	0x374
 1813 04c9 02       		.uleb128 0x2
 1814 04ca 91       		.byte	0x91
 1815 04cb 50       		.sleb128 -48
 1816 04cc 18       		.uleb128 0x18
 1817 04cd 87030000 		.4byte	.LASF64
 1818 04d1 04       		.byte	0x4
 1819 04d2 46       		.byte	0x46
 1820 04d3 7B010000 		.4byte	0x17b
 1821 04d7 02       		.uleb128 0x2
 1822 04d8 91       		.byte	0x91
 1823 04d9 4C       		.sleb128 -52
 1824 04da 1A       		.uleb128 0x1a
 1825 04db 6F706100 		.ascii	"opa\000"
 1826 04df 04       		.byte	0x4
 1827 04e0 46       		.byte	0x46
 1828 04e1 86010000 		.4byte	0x186
 1829 04e5 02       		.uleb128 0x2
 1830 04e6 91       		.byte	0x91
 1831 04e7 4B       		.sleb128 -53
 1832 04e8 1B       		.uleb128 0x1b
 1833 04e9 5D010000 		.4byte	.LASF69
 1834 04ed 04       		.byte	0x4
 1835 04ee 4B       		.byte	0x4b
 1836 04ef 0E020000 		.4byte	0x20e
 1837 04f3 02       		.uleb128 0x2
 1838 04f4 91       		.byte	0x91
ARM GAS  C:\Users\pearlstl\AppData\Local\Temp\ccc6DM2e.s 			page 48


 1839 04f5 64       		.sleb128 -28
 1840 04f6 1B       		.uleb128 0x1b
 1841 04f7 E6010000 		.4byte	.LASF70
 1842 04fb 04       		.byte	0x4
 1843 04fc 4C       		.byte	0x4c
 1844 04fd 6D030000 		.4byte	0x36d
 1845 0501 02       		.uleb128 0x2
 1846 0502 91       		.byte	0x91
 1847 0503 6F       		.sleb128 -17
 1848 0504 1C       		.uleb128 0x1c
 1849 0505 30000000 		.4byte	.LBB2
 1850 0509 2C000000 		.4byte	.LBE2-.LBB2
 1851 050d 1B       		.uleb128 0x1b
 1852 050e 1E030000 		.4byte	.LASF71
 1853 0512 04       		.byte	0x4
 1854 0513 51       		.byte	0x51
 1855 0514 0E020000 		.4byte	0x20e
 1856 0518 02       		.uleb128 0x2
 1857 0519 91       		.byte	0x91
 1858 051a 5C       		.sleb128 -36
 1859 051b 00       		.byte	0
 1860 051c 00       		.byte	0
 1861 051d 19       		.uleb128 0x19
 1862 051e 6D040000 		.4byte	.LASF72
 1863 0522 04       		.byte	0x4
 1864 0523 64       		.byte	0x64
 1865 0524 00000000 		.4byte	.LFB14
 1866 0528 C8030000 		.4byte	.LFE14-.LFB14
 1867 052c 01       		.uleb128 0x1
 1868 052d 9C       		.byte	0x9c
 1869 052e B8060000 		.4byte	0x6b8
 1870 0532 18       		.uleb128 0x18
 1871 0533 8C020000 		.4byte	.LASF73
 1872 0537 04       		.byte	0x4
 1873 0538 64       		.byte	0x64
 1874 0539 7F030000 		.4byte	0x37f
 1875 053d 02       		.uleb128 0x2
 1876 053e 91       		.byte	0x91
 1877 053f 44       		.sleb128 -60
 1878 0540 18       		.uleb128 0x18
 1879 0541 69010000 		.4byte	.LASF63
 1880 0545 04       		.byte	0x4
 1881 0546 64       		.byte	0x64
 1882 0547 74030000 		.4byte	0x374
 1883 054b 02       		.uleb128 0x2
 1884 054c 91       		.byte	0x91
 1885 054d 40       		.sleb128 -64
 1886 054e 18       		.uleb128 0x18
 1887 054f DD020000 		.4byte	.LASF62
 1888 0553 04       		.byte	0x4
 1889 0554 65       		.byte	0x65
 1890 0555 62030000 		.4byte	0x362
 1891 0559 03       		.uleb128 0x3
 1892 055a 91       		.byte	0x91
 1893 055b BC7F     		.sleb128 -68
 1894 055d 18       		.uleb128 0x18
 1895 055e B7030000 		.4byte	.LASF74
ARM GAS  C:\Users\pearlstl\AppData\Local\Temp\ccc6DM2e.s 			page 49


 1896 0562 04       		.byte	0x4
 1897 0563 65       		.byte	0x65
 1898 0564 B8000000 		.4byte	0xb8
 1899 0568 03       		.uleb128 0x3
 1900 0569 91       		.byte	0x91
 1901 056a B87F     		.sleb128 -72
 1902 056c 18       		.uleb128 0x18
 1903 056d 87030000 		.4byte	.LASF64
 1904 0571 04       		.byte	0x4
 1905 0572 66       		.byte	0x66
 1906 0573 7B010000 		.4byte	0x17b
 1907 0577 02       		.uleb128 0x2
 1908 0578 91       		.byte	0x91
 1909 0579 00       		.sleb128 0
 1910 057a 1A       		.uleb128 0x1a
 1911 057b 6F706100 		.ascii	"opa\000"
 1912 057f 04       		.byte	0x4
 1913 0580 66       		.byte	0x66
 1914 0581 86010000 		.4byte	0x186
 1915 0585 02       		.uleb128 0x2
 1916 0586 91       		.byte	0x91
 1917 0587 04       		.sleb128 4
 1918 0588 1B       		.uleb128 0x1b
 1919 0589 07010000 		.4byte	.LASF75
 1920 058d 04       		.byte	0x4
 1921 058e 6A       		.byte	0x6a
 1922 058f B8060000 		.4byte	0x6b8
 1923 0593 05       		.uleb128 0x5
 1924 0594 03       		.byte	0x3
 1925 0595 00000000 		.4byte	bpp1_opa_table.5745
 1926 0599 1B       		.uleb128 0x1b
 1927 059a DF050000 		.4byte	.LASF76
 1928 059e 04       		.byte	0x4
 1929 059f 6B       		.byte	0x6b
 1930 05a0 C8060000 		.4byte	0x6c8
 1931 05a4 05       		.uleb128 0x5
 1932 05a5 03       		.byte	0x3
 1933 05a6 04000000 		.4byte	bpp2_opa_table.5746
 1934 05aa 1B       		.uleb128 0x1b
 1935 05ab 8A040000 		.4byte	.LASF77
 1936 05af 04       		.byte	0x4
 1937 05b0 6C       		.byte	0x6c
 1938 05b1 D8060000 		.4byte	0x6d8
 1939 05b5 05       		.uleb128 0x5
 1940 05b6 03       		.byte	0x3
 1941 05b7 08000000 		.4byte	bpp4_opa_table.5747
 1942 05bb 1B       		.uleb128 0x1b
 1943 05bc 3C000000 		.4byte	.LASF78
 1944 05c0 04       		.byte	0x4
 1945 05c1 74       		.byte	0x74
 1946 05c2 97000000 		.4byte	0x97
 1947 05c6 02       		.uleb128 0x2
 1948 05c7 91       		.byte	0x91
 1949 05c8 5C       		.sleb128 -36
 1950 05c9 1B       		.uleb128 0x1b
 1951 05ca 1E000000 		.4byte	.LASF79
 1952 05ce 04       		.byte	0x4
ARM GAS  C:\Users\pearlstl\AppData\Local\Temp\ccc6DM2e.s 			page 50


 1953 05cf 75       		.byte	0x75
 1954 05d0 97000000 		.4byte	0x97
 1955 05d4 02       		.uleb128 0x2
 1956 05d5 91       		.byte	0x91
 1957 05d6 5B       		.sleb128 -37
 1958 05d7 1D       		.uleb128 0x1d
 1959 05d8 62707000 		.ascii	"bpp\000"
 1960 05dc 04       		.byte	0x4
 1961 05dd 76       		.byte	0x76
 1962 05de 97000000 		.4byte	0x97
 1963 05e2 02       		.uleb128 0x2
 1964 05e3 91       		.byte	0x91
 1965 05e4 5A       		.sleb128 -38
 1966 05e5 1B       		.uleb128 0x1b
 1967 05e6 1E010000 		.4byte	.LASF80
 1968 05ea 04       		.byte	0x4
 1969 05eb 77       		.byte	0x77
 1970 05ec 8A030000 		.4byte	0x38a
 1971 05f0 02       		.uleb128 0x2
 1972 05f1 91       		.byte	0x91
 1973 05f2 6C       		.sleb128 -20
 1974 05f3 1B       		.uleb128 0x1b
 1975 05f4 C0010000 		.4byte	.LASF81
 1976 05f8 04       		.byte	0x4
 1977 05f9 78       		.byte	0x78
 1978 05fa 97000000 		.4byte	0x97
 1979 05fe 02       		.uleb128 0x2
 1980 05ff 91       		.byte	0x91
 1981 0600 6B       		.sleb128 -21
 1982 0601 1B       		.uleb128 0x1b
 1983 0602 37010000 		.4byte	.LASF82
 1984 0606 04       		.byte	0x4
 1985 0607 79       		.byte	0x79
 1986 0608 97000000 		.4byte	0x97
 1987 060c 02       		.uleb128 0x2
 1988 060d 91       		.byte	0x91
 1989 060e 6A       		.sleb128 -22
 1990 060f 1B       		.uleb128 0x1b
 1991 0610 75030000 		.4byte	.LASF83
 1992 0614 04       		.byte	0x4
 1993 0615 90       		.byte	0x90
 1994 0616 F1020000 		.4byte	0x2f1
 1995 061a 02       		.uleb128 0x2
 1996 061b 91       		.byte	0x91
 1997 061c 64       		.sleb128 -28
 1998 061d 1D       		.uleb128 0x1d
 1999 061e 636F6C00 		.ascii	"col\000"
 2000 0622 04       		.byte	0x4
 2001 0623 98       		.byte	0x98
 2002 0624 A6010000 		.4byte	0x1a6
 2003 0628 02       		.uleb128 0x2
 2004 0629 91       		.byte	0x91
 2005 062a 62       		.sleb128 -30
 2006 062b 1D       		.uleb128 0x1d
 2007 062c 726F7700 		.ascii	"row\000"
 2008 0630 04       		.byte	0x4
 2009 0631 98       		.byte	0x98
ARM GAS  C:\Users\pearlstl\AppData\Local\Temp\ccc6DM2e.s 			page 51


 2010 0632 A6010000 		.4byte	0x1a6
 2011 0636 02       		.uleb128 0x2
 2012 0637 91       		.byte	0x91
 2013 0638 60       		.sleb128 -32
 2014 0639 1B       		.uleb128 0x1b
 2015 063a E9000000 		.4byte	.LASF84
 2016 063e 04       		.byte	0x4
 2017 063f 99       		.byte	0x99
 2018 0640 97000000 		.4byte	0x97
 2019 0644 02       		.uleb128 0x2
 2020 0645 91       		.byte	0x91
 2021 0646 5F       		.sleb128 -33
 2022 0647 1B       		.uleb128 0x1b
 2023 0648 3F020000 		.4byte	.LASF85
 2024 064c 04       		.byte	0x4
 2025 064d 9A       		.byte	0x9a
 2026 064e 97000000 		.4byte	0x97
 2027 0652 02       		.uleb128 0x2
 2028 0653 91       		.byte	0x91
 2029 0654 5E       		.sleb128 -34
 2030 0655 1B       		.uleb128 0x1b
 2031 0656 DF040000 		.4byte	.LASF86
 2032 065a 04       		.byte	0x4
 2033 065b 9B       		.byte	0x9b
 2034 065c 97000000 		.4byte	0x97
 2035 0660 02       		.uleb128 0x2
 2036 0661 91       		.byte	0x91
 2037 0662 59       		.sleb128 -39
 2038 0663 1B       		.uleb128 0x1b
 2039 0664 4C030000 		.4byte	.LASF87
 2040 0668 04       		.byte	0x4
 2041 0669 9D       		.byte	0x9d
 2042 066a 97000000 		.4byte	0x97
 2043 066e 02       		.uleb128 0x2
 2044 066f 91       		.byte	0x91
 2045 0670 5D       		.sleb128 -35
 2046 0671 1B       		.uleb128 0x1b
 2047 0672 D3020000 		.4byte	.LASF88
 2048 0676 04       		.byte	0x4
 2049 0677 A1       		.byte	0xa1
 2050 0678 A6010000 		.4byte	0x1a6
 2051 067c 02       		.uleb128 0x2
 2052 067d 91       		.byte	0x91
 2053 067e 56       		.sleb128 -42
 2054 067f 1B       		.uleb128 0x1b
 2055 0680 7A020000 		.4byte	.LASF89
 2056 0684 04       		.byte	0x4
 2057 0685 A2       		.byte	0xa2
 2058 0686 A6010000 		.4byte	0x1a6
 2059 068a 02       		.uleb128 0x2
 2060 068b 91       		.byte	0x91
 2061 068c 54       		.sleb128 -44
 2062 068d 1B       		.uleb128 0x1b
 2063 068e A3010000 		.4byte	.LASF90
 2064 0692 04       		.byte	0x4
 2065 0693 A3       		.byte	0xa3
 2066 0694 A6010000 		.4byte	0x1a6
ARM GAS  C:\Users\pearlstl\AppData\Local\Temp\ccc6DM2e.s 			page 52


 2067 0698 02       		.uleb128 0x2
 2068 0699 91       		.byte	0x91
 2069 069a 52       		.sleb128 -46
 2070 069b 1B       		.uleb128 0x1b
 2071 069c 32020000 		.4byte	.LASF91
 2072 06a0 04       		.byte	0x4
 2073 06a1 A4       		.byte	0xa4
 2074 06a2 A6010000 		.4byte	0x1a6
 2075 06a6 02       		.uleb128 0x2
 2076 06a7 91       		.byte	0x91
 2077 06a8 50       		.sleb128 -48
 2078 06a9 1B       		.uleb128 0x1b
 2079 06aa C8050000 		.4byte	.LASF92
 2080 06ae 04       		.byte	0x4
 2081 06af A9       		.byte	0xa9
 2082 06b0 97000000 		.4byte	0x97
 2083 06b4 02       		.uleb128 0x2
 2084 06b5 91       		.byte	0x91
 2085 06b6 4F       		.sleb128 -49
 2086 06b7 00       		.byte	0
 2087 06b8 1E       		.uleb128 0x1e
 2088 06b9 97000000 		.4byte	0x97
 2089 06bd C8060000 		.4byte	0x6c8
 2090 06c1 1F       		.uleb128 0x1f
 2091 06c2 98010000 		.4byte	0x198
 2092 06c6 01       		.byte	0x1
 2093 06c7 00       		.byte	0
 2094 06c8 1E       		.uleb128 0x1e
 2095 06c9 97000000 		.4byte	0x97
 2096 06cd D8060000 		.4byte	0x6d8
 2097 06d1 1F       		.uleb128 0x1f
 2098 06d2 98010000 		.4byte	0x198
 2099 06d6 03       		.byte	0x3
 2100 06d7 00       		.byte	0
 2101 06d8 1E       		.uleb128 0x1e
 2102 06d9 97000000 		.4byte	0x97
 2103 06dd E8060000 		.4byte	0x6e8
 2104 06e1 1F       		.uleb128 0x1f
 2105 06e2 98010000 		.4byte	0x198
 2106 06e6 0F       		.byte	0xf
 2107 06e7 00       		.byte	0
 2108 06e8 20       		.uleb128 0x20
 2109 06e9 89010000 		.4byte	.LASF93
 2110 06ed 04       		.byte	0x4
 2111 06ee C7       		.byte	0xc7
 2112 06ef 00000000 		.4byte	.LFB15
 2113 06f3 20000000 		.4byte	.LFE15-.LFB15
 2114 06f7 01       		.uleb128 0x1
 2115 06f8 9C       		.byte	0x9c
 2116 06f9 0C070000 		.4byte	0x70c
 2117 06fd 18       		.uleb128 0x18
 2118 06fe 87030000 		.4byte	.LASF64
 2119 0702 04       		.byte	0x4
 2120 0703 C7       		.byte	0xc7
 2121 0704 7B010000 		.4byte	0x17b
 2122 0708 02       		.uleb128 0x2
 2123 0709 91       		.byte	0x91
ARM GAS  C:\Users\pearlstl\AppData\Local\Temp\ccc6DM2e.s 			page 53


 2124 070a 74       		.sleb128 -12
 2125 070b 00       		.byte	0
 2126 070c 19       		.uleb128 0x19
 2127 070d 72020000 		.4byte	.LASF94
 2128 0711 04       		.byte	0x4
 2129 0712 D7       		.byte	0xd7
 2130 0713 00000000 		.4byte	.LFB16
 2131 0717 CA010000 		.4byte	.LFE16-.LFB16
 2132 071b 01       		.uleb128 0x1
 2133 071c 9C       		.byte	0x9c
 2134 071d 3C080000 		.4byte	0x83c
 2135 0721 18       		.uleb128 0x18
 2136 0722 16010000 		.4byte	.LASF68
 2137 0726 04       		.byte	0x4
 2138 0727 D7       		.byte	0xd7
 2139 0728 74030000 		.4byte	0x374
 2140 072c 02       		.uleb128 0x2
 2141 072d 91       		.byte	0x91
 2142 072e 4C       		.sleb128 -52
 2143 072f 18       		.uleb128 0x18
 2144 0730 69010000 		.4byte	.LASF63
 2145 0734 04       		.byte	0x4
 2146 0735 D7       		.byte	0xd7
 2147 0736 74030000 		.4byte	0x374
 2148 073a 02       		.uleb128 0x2
 2149 073b 91       		.byte	0x91
 2150 073c 48       		.sleb128 -56
 2151 073d 18       		.uleb128 0x18
 2152 073e 75030000 		.4byte	.LASF83
 2153 0742 04       		.byte	0x4
 2154 0743 D8       		.byte	0xd8
 2155 0744 F1020000 		.4byte	0x2f1
 2156 0748 02       		.uleb128 0x2
 2157 0749 91       		.byte	0x91
 2158 074a 44       		.sleb128 -60
 2159 074b 1A       		.uleb128 0x1a
 2160 074c 6F706100 		.ascii	"opa\000"
 2161 0750 04       		.byte	0x4
 2162 0751 D8       		.byte	0xd8
 2163 0752 86010000 		.4byte	0x186
 2164 0756 02       		.uleb128 0x2
 2165 0757 91       		.byte	0x91
 2166 0758 43       		.sleb128 -61
 2167 0759 18       		.uleb128 0x18
 2168 075a D4040000 		.4byte	.LASF95
 2169 075e 04       		.byte	0x4
 2170 075f D8       		.byte	0xd8
 2171 0760 6D030000 		.4byte	0x36d
 2172 0764 02       		.uleb128 0x2
 2173 0765 91       		.byte	0x91
 2174 0766 00       		.sleb128 0
 2175 0767 18       		.uleb128 0x18
 2176 0768 13030000 		.4byte	.LASF96
 2177 076c 04       		.byte	0x4
 2178 076d D8       		.byte	0xd8
 2179 076e 6D030000 		.4byte	0x36d
 2180 0772 02       		.uleb128 0x2
ARM GAS  C:\Users\pearlstl\AppData\Local\Temp\ccc6DM2e.s 			page 54


 2181 0773 91       		.byte	0x91
 2182 0774 04       		.sleb128 4
 2183 0775 18       		.uleb128 0x18
 2184 0776 AC040000 		.4byte	.LASF97
 2185 077a 04       		.byte	0x4
 2186 077b D9       		.byte	0xd9
 2187 077c 7B010000 		.4byte	0x17b
 2188 0780 02       		.uleb128 0x2
 2189 0781 91       		.byte	0x91
 2190 0782 08       		.sleb128 8
 2191 0783 18       		.uleb128 0x18
 2192 0784 B4040000 		.4byte	.LASF98
 2193 0788 04       		.byte	0x4
 2194 0789 D9       		.byte	0xd9
 2195 078a 86010000 		.4byte	0x186
 2196 078e 02       		.uleb128 0x2
 2197 078f 91       		.byte	0x91
 2198 0790 0C       		.sleb128 12
 2199 0791 1B       		.uleb128 0x1b
 2200 0792 DD010000 		.4byte	.LASF99
 2201 0796 04       		.byte	0x4
 2202 0797 DE       		.byte	0xde
 2203 0798 0E020000 		.4byte	0x20e
 2204 079c 02       		.uleb128 0x2
 2205 079d 91       		.byte	0x91
 2206 079e 58       		.sleb128 -40
 2207 079f 1B       		.uleb128 0x1b
 2208 07a0 E6010000 		.4byte	.LASF70
 2209 07a4 04       		.byte	0x4
 2210 07a5 DF       		.byte	0xdf
 2211 07a6 6D030000 		.4byte	0x36d
 2212 07aa 02       		.uleb128 0x2
 2213 07ab 91       		.byte	0x91
 2214 07ac 6B       		.sleb128 -21
 2215 07ad 1B       		.uleb128 0x1b
 2216 07ae 4C020000 		.4byte	.LASF100
 2217 07b2 04       		.byte	0x4
 2218 07b3 E7       		.byte	0xe7
 2219 07b4 A6010000 		.4byte	0x1a6
 2220 07b8 02       		.uleb128 0x2
 2221 07b9 91       		.byte	0x91
 2222 07ba 68       		.sleb128 -24
 2223 07bb 1D       		.uleb128 0x1d
 2224 07bc 726F7700 		.ascii	"row\000"
 2225 07c0 04       		.byte	0x4
 2226 07c1 EB       		.byte	0xeb
 2227 07c2 A6010000 		.4byte	0x1a6
 2228 07c6 02       		.uleb128 0x2
 2229 07c7 91       		.byte	0x91
 2230 07c8 6E       		.sleb128 -18
 2231 07c9 21       		.uleb128 0x21
 2232 07ca 90000000 		.4byte	.LBB3
 2233 07ce 64000000 		.4byte	.LBE3-.LBB3
 2234 07d2 E5070000 		.4byte	0x7e5
 2235 07d6 1B       		.uleb128 0x1b
 2236 07d7 82010000 		.4byte	.LASF101
 2237 07db 04       		.byte	0x4
ARM GAS  C:\Users\pearlstl\AppData\Local\Temp\ccc6DM2e.s 			page 55


 2238 07dc ED       		.byte	0xed
 2239 07dd A6010000 		.4byte	0x1a6
 2240 07e1 02       		.uleb128 0x2
 2241 07e2 91       		.byte	0x91
 2242 07e3 66       		.sleb128 -26
 2243 07e4 00       		.byte	0
 2244 07e5 1C       		.uleb128 0x1c
 2245 07e6 F6000000 		.4byte	.LBB4
 2246 07ea C8000000 		.4byte	.LBE4-.LBB4
 2247 07ee 1B       		.uleb128 0x1b
 2248 07ef FB040000 		.4byte	.LASF102
 2249 07f3 04       		.byte	0x4
 2250 07f4 F3       		.byte	0xf3
 2251 07f5 7B010000 		.4byte	0x17b
 2252 07f9 02       		.uleb128 0x2
 2253 07fa 91       		.byte	0x91
 2254 07fb 54       		.sleb128 -44
 2255 07fc 1D       		.uleb128 0x1d
 2256 07fd 636F6C00 		.ascii	"col\000"
 2257 0801 04       		.byte	0x4
 2258 0802 F4       		.byte	0xf4
 2259 0803 A6010000 		.4byte	0x1a6
 2260 0807 02       		.uleb128 0x2
 2261 0808 91       		.byte	0x91
 2262 0809 6C       		.sleb128 -20
 2263 080a 1C       		.uleb128 0x1c
 2264 080b 12010000 		.4byte	.LBB5
 2265 080f 6E000000 		.4byte	.LBE5-.LBB5
 2266 0813 1B       		.uleb128 0x1b
 2267 0814 BF050000 		.4byte	.LASF103
 2268 0818 04       		.byte	0x4
 2269 0819 F7       		.byte	0xf7
 2270 081a 3C080000 		.4byte	0x83c
 2271 081e 02       		.uleb128 0x2
 2272 081f 91       		.byte	0x91
 2273 0820 60       		.sleb128 -32
 2274 0821 1C       		.uleb128 0x1c
 2275 0822 3E010000 		.4byte	.LBB6
 2276 0826 26000000 		.4byte	.LBE6-.LBB6
 2277 082a 1B       		.uleb128 0x1b
 2278 082b D2050000 		.4byte	.LASF104
 2279 082f 04       		.byte	0x4
 2280 0830 FC       		.byte	0xfc
 2281 0831 7B010000 		.4byte	0x17b
 2282 0835 02       		.uleb128 0x2
 2283 0836 91       		.byte	0x91
 2284 0837 50       		.sleb128 -48
 2285 0838 00       		.byte	0
 2286 0839 00       		.byte	0
 2287 083a 00       		.byte	0
 2288 083b 00       		.byte	0
 2289 083c 10       		.uleb128 0x10
 2290 083d 04       		.byte	0x4
 2291 083e 7B010000 		.4byte	0x17b
 2292 0842 1B       		.uleb128 0x1b
 2293 0843 92030000 		.4byte	.LASF105
 2294 0847 04       		.byte	0x4
ARM GAS  C:\Users\pearlstl\AppData\Local\Temp\ccc6DM2e.s 			page 56


 2295 0848 1F       		.byte	0x1f
 2296 0849 7B010000 		.4byte	0x17b
 2297 084d 05       		.uleb128 0x5
 2298 084e 03       		.byte	0x3
 2299 084f 00000000 		.4byte	letter_bg_color
 2300 0853 00       		.byte	0
 2301              		.section	.debug_abbrev,"",%progbits
 2302              	.Ldebug_abbrev0:
 2303 0000 01       		.uleb128 0x1
 2304 0001 11       		.uleb128 0x11
 2305 0002 01       		.byte	0x1
 2306 0003 25       		.uleb128 0x25
 2307 0004 0E       		.uleb128 0xe
 2308 0005 13       		.uleb128 0x13
 2309 0006 0B       		.uleb128 0xb
 2310 0007 03       		.uleb128 0x3
 2311 0008 0E       		.uleb128 0xe
 2312 0009 1B       		.uleb128 0x1b
 2313 000a 0E       		.uleb128 0xe
 2314 000b 55       		.uleb128 0x55
 2315 000c 17       		.uleb128 0x17
 2316 000d 11       		.uleb128 0x11
 2317 000e 01       		.uleb128 0x1
 2318 000f 10       		.uleb128 0x10
 2319 0010 17       		.uleb128 0x17
 2320 0011 00       		.byte	0
 2321 0012 00       		.byte	0
 2322 0013 02       		.uleb128 0x2
 2323 0014 24       		.uleb128 0x24
 2324 0015 00       		.byte	0
 2325 0016 0B       		.uleb128 0xb
 2326 0017 0B       		.uleb128 0xb
 2327 0018 3E       		.uleb128 0x3e
 2328 0019 0B       		.uleb128 0xb
 2329 001a 03       		.uleb128 0x3
 2330 001b 0E       		.uleb128 0xe
 2331 001c 00       		.byte	0
 2332 001d 00       		.byte	0
 2333 001e 03       		.uleb128 0x3
 2334 001f 16       		.uleb128 0x16
 2335 0020 00       		.byte	0
 2336 0021 03       		.uleb128 0x3
 2337 0022 0E       		.uleb128 0xe
 2338 0023 3A       		.uleb128 0x3a
 2339 0024 0B       		.uleb128 0xb
 2340 0025 3B       		.uleb128 0x3b
 2341 0026 0B       		.uleb128 0xb
 2342 0027 49       		.uleb128 0x49
 2343 0028 13       		.uleb128 0x13
 2344 0029 00       		.byte	0
 2345 002a 00       		.byte	0
 2346 002b 04       		.uleb128 0x4
 2347 002c 24       		.uleb128 0x24
 2348 002d 00       		.byte	0
 2349 002e 0B       		.uleb128 0xb
 2350 002f 0B       		.uleb128 0xb
 2351 0030 3E       		.uleb128 0x3e
ARM GAS  C:\Users\pearlstl\AppData\Local\Temp\ccc6DM2e.s 			page 57


 2352 0031 0B       		.uleb128 0xb
 2353 0032 03       		.uleb128 0x3
 2354 0033 08       		.uleb128 0x8
 2355 0034 00       		.byte	0
 2356 0035 00       		.byte	0
 2357 0036 05       		.uleb128 0x5
 2358 0037 04       		.uleb128 0x4
 2359 0038 01       		.byte	0x1
 2360 0039 0B       		.uleb128 0xb
 2361 003a 0B       		.uleb128 0xb
 2362 003b 49       		.uleb128 0x49
 2363 003c 13       		.uleb128 0x13
 2364 003d 3A       		.uleb128 0x3a
 2365 003e 0B       		.uleb128 0xb
 2366 003f 3B       		.uleb128 0x3b
 2367 0040 0B       		.uleb128 0xb
 2368 0041 01       		.uleb128 0x1
 2369 0042 13       		.uleb128 0x13
 2370 0043 00       		.byte	0
 2371 0044 00       		.byte	0
 2372 0045 06       		.uleb128 0x6
 2373 0046 28       		.uleb128 0x28
 2374 0047 00       		.byte	0
 2375 0048 03       		.uleb128 0x3
 2376 0049 0E       		.uleb128 0xe
 2377 004a 1C       		.uleb128 0x1c
 2378 004b 0B       		.uleb128 0xb
 2379 004c 00       		.byte	0
 2380 004d 00       		.byte	0
 2381 004e 07       		.uleb128 0x7
 2382 004f 13       		.uleb128 0x13
 2383 0050 01       		.byte	0x1
 2384 0051 0B       		.uleb128 0xb
 2385 0052 0B       		.uleb128 0xb
 2386 0053 3A       		.uleb128 0x3a
 2387 0054 0B       		.uleb128 0xb
 2388 0055 3B       		.uleb128 0x3b
 2389 0056 0B       		.uleb128 0xb
 2390 0057 01       		.uleb128 0x1
 2391 0058 13       		.uleb128 0x13
 2392 0059 00       		.byte	0
 2393 005a 00       		.byte	0
 2394 005b 08       		.uleb128 0x8
 2395 005c 0D       		.uleb128 0xd
 2396 005d 00       		.byte	0
 2397 005e 03       		.uleb128 0x3
 2398 005f 0E       		.uleb128 0xe
 2399 0060 3A       		.uleb128 0x3a
 2400 0061 0B       		.uleb128 0xb
 2401 0062 3B       		.uleb128 0x3b
 2402 0063 0B       		.uleb128 0xb
 2403 0064 49       		.uleb128 0x49
 2404 0065 13       		.uleb128 0x13
 2405 0066 38       		.uleb128 0x38
 2406 0067 0B       		.uleb128 0xb
 2407 0068 00       		.byte	0
 2408 0069 00       		.byte	0
ARM GAS  C:\Users\pearlstl\AppData\Local\Temp\ccc6DM2e.s 			page 58


 2409 006a 09       		.uleb128 0x9
 2410 006b 0D       		.uleb128 0xd
 2411 006c 00       		.byte	0
 2412 006d 03       		.uleb128 0x3
 2413 006e 08       		.uleb128 0x8
 2414 006f 3A       		.uleb128 0x3a
 2415 0070 0B       		.uleb128 0xb
 2416 0071 3B       		.uleb128 0x3b
 2417 0072 0B       		.uleb128 0xb
 2418 0073 49       		.uleb128 0x49
 2419 0074 13       		.uleb128 0x13
 2420 0075 38       		.uleb128 0x38
 2421 0076 0B       		.uleb128 0xb
 2422 0077 00       		.byte	0
 2423 0078 00       		.byte	0
 2424 0079 0A       		.uleb128 0xa
 2425 007a 17       		.uleb128 0x17
 2426 007b 01       		.byte	0x1
 2427 007c 0B       		.uleb128 0xb
 2428 007d 0B       		.uleb128 0xb
 2429 007e 3A       		.uleb128 0x3a
 2430 007f 0B       		.uleb128 0xb
 2431 0080 3B       		.uleb128 0x3b
 2432 0081 0B       		.uleb128 0xb
 2433 0082 01       		.uleb128 0x1
 2434 0083 13       		.uleb128 0x13
 2435 0084 00       		.byte	0
 2436 0085 00       		.byte	0
 2437 0086 0B       		.uleb128 0xb
 2438 0087 0D       		.uleb128 0xd
 2439 0088 00       		.byte	0
 2440 0089 49       		.uleb128 0x49
 2441 008a 13       		.uleb128 0x13
 2442 008b 00       		.byte	0
 2443 008c 00       		.byte	0
 2444 008d 0C       		.uleb128 0xc
 2445 008e 0D       		.uleb128 0xd
 2446 008f 00       		.byte	0
 2447 0090 03       		.uleb128 0x3
 2448 0091 0E       		.uleb128 0xe
 2449 0092 3A       		.uleb128 0x3a
 2450 0093 0B       		.uleb128 0xb
 2451 0094 3B       		.uleb128 0x3b
 2452 0095 0B       		.uleb128 0xb
 2453 0096 49       		.uleb128 0x49
 2454 0097 13       		.uleb128 0x13
 2455 0098 00       		.byte	0
 2456 0099 00       		.byte	0
 2457 009a 0D       		.uleb128 0xd
 2458 009b 0D       		.uleb128 0xd
 2459 009c 00       		.byte	0
 2460 009d 03       		.uleb128 0x3
 2461 009e 0E       		.uleb128 0xe
 2462 009f 3A       		.uleb128 0x3a
 2463 00a0 0B       		.uleb128 0xb
 2464 00a1 3B       		.uleb128 0x3b
 2465 00a2 0B       		.uleb128 0xb
ARM GAS  C:\Users\pearlstl\AppData\Local\Temp\ccc6DM2e.s 			page 59


 2466 00a3 49       		.uleb128 0x49
 2467 00a4 13       		.uleb128 0x13
 2468 00a5 0B       		.uleb128 0xb
 2469 00a6 0B       		.uleb128 0xb
 2470 00a7 0D       		.uleb128 0xd
 2471 00a8 0B       		.uleb128 0xb
 2472 00a9 0C       		.uleb128 0xc
 2473 00aa 0B       		.uleb128 0xb
 2474 00ab 38       		.uleb128 0x38
 2475 00ac 0B       		.uleb128 0xb
 2476 00ad 00       		.byte	0
 2477 00ae 00       		.byte	0
 2478 00af 0E       		.uleb128 0xe
 2479 00b0 13       		.uleb128 0x13
 2480 00b1 01       		.byte	0x1
 2481 00b2 03       		.uleb128 0x3
 2482 00b3 0E       		.uleb128 0xe
 2483 00b4 0B       		.uleb128 0xb
 2484 00b5 0B       		.uleb128 0xb
 2485 00b6 3A       		.uleb128 0x3a
 2486 00b7 0B       		.uleb128 0xb
 2487 00b8 3B       		.uleb128 0x3b
 2488 00b9 0B       		.uleb128 0xb
 2489 00ba 01       		.uleb128 0x1
 2490 00bb 13       		.uleb128 0x13
 2491 00bc 00       		.byte	0
 2492 00bd 00       		.byte	0
 2493 00be 0F       		.uleb128 0xf
 2494 00bf 0D       		.uleb128 0xd
 2495 00c0 00       		.byte	0
 2496 00c1 03       		.uleb128 0x3
 2497 00c2 08       		.uleb128 0x8
 2498 00c3 3A       		.uleb128 0x3a
 2499 00c4 0B       		.uleb128 0xb
 2500 00c5 3B       		.uleb128 0x3b
 2501 00c6 0B       		.uleb128 0xb
 2502 00c7 49       		.uleb128 0x49
 2503 00c8 13       		.uleb128 0x13
 2504 00c9 0B       		.uleb128 0xb
 2505 00ca 0B       		.uleb128 0xb
 2506 00cb 0D       		.uleb128 0xd
 2507 00cc 0B       		.uleb128 0xb
 2508 00cd 0C       		.uleb128 0xc
 2509 00ce 0B       		.uleb128 0xb
 2510 00cf 38       		.uleb128 0x38
 2511 00d0 0B       		.uleb128 0xb
 2512 00d1 00       		.byte	0
 2513 00d2 00       		.byte	0
 2514 00d3 10       		.uleb128 0x10
 2515 00d4 0F       		.uleb128 0xf
 2516 00d5 00       		.byte	0
 2517 00d6 0B       		.uleb128 0xb
 2518 00d7 0B       		.uleb128 0xb
 2519 00d8 49       		.uleb128 0x49
 2520 00d9 13       		.uleb128 0x13
 2521 00da 00       		.byte	0
 2522 00db 00       		.byte	0
ARM GAS  C:\Users\pearlstl\AppData\Local\Temp\ccc6DM2e.s 			page 60


 2523 00dc 11       		.uleb128 0x11
 2524 00dd 26       		.uleb128 0x26
 2525 00de 00       		.byte	0
 2526 00df 49       		.uleb128 0x49
 2527 00e0 13       		.uleb128 0x13
 2528 00e1 00       		.byte	0
 2529 00e2 00       		.byte	0
 2530 00e3 12       		.uleb128 0x12
 2531 00e4 15       		.uleb128 0x15
 2532 00e5 01       		.byte	0x1
 2533 00e6 27       		.uleb128 0x27
 2534 00e7 19       		.uleb128 0x19
 2535 00e8 49       		.uleb128 0x49
 2536 00e9 13       		.uleb128 0x13
 2537 00ea 01       		.uleb128 0x1
 2538 00eb 13       		.uleb128 0x13
 2539 00ec 00       		.byte	0
 2540 00ed 00       		.byte	0
 2541 00ee 13       		.uleb128 0x13
 2542 00ef 05       		.uleb128 0x5
 2543 00f0 00       		.byte	0
 2544 00f1 49       		.uleb128 0x49
 2545 00f2 13       		.uleb128 0x13
 2546 00f3 00       		.byte	0
 2547 00f4 00       		.byte	0
 2548 00f5 14       		.uleb128 0x14
 2549 00f6 2E       		.uleb128 0x2e
 2550 00f7 01       		.byte	0x1
 2551 00f8 03       		.uleb128 0x3
 2552 00f9 0E       		.uleb128 0xe
 2553 00fa 3A       		.uleb128 0x3a
 2554 00fb 0B       		.uleb128 0xb
 2555 00fc 3B       		.uleb128 0x3b
 2556 00fd 05       		.uleb128 0x5
 2557 00fe 27       		.uleb128 0x27
 2558 00ff 19       		.uleb128 0x19
 2559 0100 49       		.uleb128 0x49
 2560 0101 13       		.uleb128 0x13
 2561 0102 11       		.uleb128 0x11
 2562 0103 01       		.uleb128 0x1
 2563 0104 12       		.uleb128 0x12
 2564 0105 06       		.uleb128 0x6
 2565 0106 40       		.uleb128 0x40
 2566 0107 18       		.uleb128 0x18
 2567 0108 9742     		.uleb128 0x2117
 2568 010a 19       		.uleb128 0x19
 2569 010b 01       		.uleb128 0x1
 2570 010c 13       		.uleb128 0x13
 2571 010d 00       		.byte	0
 2572 010e 00       		.byte	0
 2573 010f 15       		.uleb128 0x15
 2574 0110 05       		.uleb128 0x5
 2575 0111 00       		.byte	0
 2576 0112 03       		.uleb128 0x3
 2577 0113 08       		.uleb128 0x8
 2578 0114 3A       		.uleb128 0x3a
 2579 0115 0B       		.uleb128 0xb
ARM GAS  C:\Users\pearlstl\AppData\Local\Temp\ccc6DM2e.s 			page 61


 2580 0116 3B       		.uleb128 0x3b
 2581 0117 05       		.uleb128 0x5
 2582 0118 49       		.uleb128 0x49
 2583 0119 13       		.uleb128 0x13
 2584 011a 02       		.uleb128 0x2
 2585 011b 18       		.uleb128 0x18
 2586 011c 00       		.byte	0
 2587 011d 00       		.byte	0
 2588 011e 16       		.uleb128 0x16
 2589 011f 34       		.uleb128 0x34
 2590 0120 00       		.byte	0
 2591 0121 03       		.uleb128 0x3
 2592 0122 08       		.uleb128 0x8
 2593 0123 3A       		.uleb128 0x3a
 2594 0124 0B       		.uleb128 0xb
 2595 0125 3B       		.uleb128 0x3b
 2596 0126 05       		.uleb128 0x5
 2597 0127 49       		.uleb128 0x49
 2598 0128 13       		.uleb128 0x13
 2599 0129 02       		.uleb128 0x2
 2600 012a 18       		.uleb128 0x18
 2601 012b 00       		.byte	0
 2602 012c 00       		.byte	0
 2603 012d 17       		.uleb128 0x17
 2604 012e 2E       		.uleb128 0x2e
 2605 012f 01       		.byte	0x1
 2606 0130 03       		.uleb128 0x3
 2607 0131 0E       		.uleb128 0xe
 2608 0132 3A       		.uleb128 0x3a
 2609 0133 0B       		.uleb128 0xb
 2610 0134 3B       		.uleb128 0x3b
 2611 0135 0B       		.uleb128 0xb
 2612 0136 27       		.uleb128 0x27
 2613 0137 19       		.uleb128 0x19
 2614 0138 49       		.uleb128 0x49
 2615 0139 13       		.uleb128 0x13
 2616 013a 11       		.uleb128 0x11
 2617 013b 01       		.uleb128 0x1
 2618 013c 12       		.uleb128 0x12
 2619 013d 06       		.uleb128 0x6
 2620 013e 40       		.uleb128 0x40
 2621 013f 18       		.uleb128 0x18
 2622 0140 9742     		.uleb128 0x2117
 2623 0142 19       		.uleb128 0x19
 2624 0143 01       		.uleb128 0x1
 2625 0144 13       		.uleb128 0x13
 2626 0145 00       		.byte	0
 2627 0146 00       		.byte	0
 2628 0147 18       		.uleb128 0x18
 2629 0148 05       		.uleb128 0x5
 2630 0149 00       		.byte	0
 2631 014a 03       		.uleb128 0x3
 2632 014b 0E       		.uleb128 0xe
 2633 014c 3A       		.uleb128 0x3a
 2634 014d 0B       		.uleb128 0xb
 2635 014e 3B       		.uleb128 0x3b
 2636 014f 0B       		.uleb128 0xb
ARM GAS  C:\Users\pearlstl\AppData\Local\Temp\ccc6DM2e.s 			page 62


 2637 0150 49       		.uleb128 0x49
 2638 0151 13       		.uleb128 0x13
 2639 0152 02       		.uleb128 0x2
 2640 0153 18       		.uleb128 0x18
 2641 0154 00       		.byte	0
 2642 0155 00       		.byte	0
 2643 0156 19       		.uleb128 0x19
 2644 0157 2E       		.uleb128 0x2e
 2645 0158 01       		.byte	0x1
 2646 0159 3F       		.uleb128 0x3f
 2647 015a 19       		.uleb128 0x19
 2648 015b 03       		.uleb128 0x3
 2649 015c 0E       		.uleb128 0xe
 2650 015d 3A       		.uleb128 0x3a
 2651 015e 0B       		.uleb128 0xb
 2652 015f 3B       		.uleb128 0x3b
 2653 0160 0B       		.uleb128 0xb
 2654 0161 27       		.uleb128 0x27
 2655 0162 19       		.uleb128 0x19
 2656 0163 11       		.uleb128 0x11
 2657 0164 01       		.uleb128 0x1
 2658 0165 12       		.uleb128 0x12
 2659 0166 06       		.uleb128 0x6
 2660 0167 40       		.uleb128 0x40
 2661 0168 18       		.uleb128 0x18
 2662 0169 9642     		.uleb128 0x2116
 2663 016b 19       		.uleb128 0x19
 2664 016c 01       		.uleb128 0x1
 2665 016d 13       		.uleb128 0x13
 2666 016e 00       		.byte	0
 2667 016f 00       		.byte	0
 2668 0170 1A       		.uleb128 0x1a
 2669 0171 05       		.uleb128 0x5
 2670 0172 00       		.byte	0
 2671 0173 03       		.uleb128 0x3
 2672 0174 08       		.uleb128 0x8
 2673 0175 3A       		.uleb128 0x3a
 2674 0176 0B       		.uleb128 0xb
 2675 0177 3B       		.uleb128 0x3b
 2676 0178 0B       		.uleb128 0xb
 2677 0179 49       		.uleb128 0x49
 2678 017a 13       		.uleb128 0x13
 2679 017b 02       		.uleb128 0x2
 2680 017c 18       		.uleb128 0x18
 2681 017d 00       		.byte	0
 2682 017e 00       		.byte	0
 2683 017f 1B       		.uleb128 0x1b
 2684 0180 34       		.uleb128 0x34
 2685 0181 00       		.byte	0
 2686 0182 03       		.uleb128 0x3
 2687 0183 0E       		.uleb128 0xe
 2688 0184 3A       		.uleb128 0x3a
 2689 0185 0B       		.uleb128 0xb
 2690 0186 3B       		.uleb128 0x3b
 2691 0187 0B       		.uleb128 0xb
 2692 0188 49       		.uleb128 0x49
 2693 0189 13       		.uleb128 0x13
ARM GAS  C:\Users\pearlstl\AppData\Local\Temp\ccc6DM2e.s 			page 63


 2694 018a 02       		.uleb128 0x2
 2695 018b 18       		.uleb128 0x18
 2696 018c 00       		.byte	0
 2697 018d 00       		.byte	0
 2698 018e 1C       		.uleb128 0x1c
 2699 018f 0B       		.uleb128 0xb
 2700 0190 01       		.byte	0x1
 2701 0191 11       		.uleb128 0x11
 2702 0192 01       		.uleb128 0x1
 2703 0193 12       		.uleb128 0x12
 2704 0194 06       		.uleb128 0x6
 2705 0195 00       		.byte	0
 2706 0196 00       		.byte	0
 2707 0197 1D       		.uleb128 0x1d
 2708 0198 34       		.uleb128 0x34
 2709 0199 00       		.byte	0
 2710 019a 03       		.uleb128 0x3
 2711 019b 08       		.uleb128 0x8
 2712 019c 3A       		.uleb128 0x3a
 2713 019d 0B       		.uleb128 0xb
 2714 019e 3B       		.uleb128 0x3b
 2715 019f 0B       		.uleb128 0xb
 2716 01a0 49       		.uleb128 0x49
 2717 01a1 13       		.uleb128 0x13
 2718 01a2 02       		.uleb128 0x2
 2719 01a3 18       		.uleb128 0x18
 2720 01a4 00       		.byte	0
 2721 01a5 00       		.byte	0
 2722 01a6 1E       		.uleb128 0x1e
 2723 01a7 01       		.uleb128 0x1
 2724 01a8 01       		.byte	0x1
 2725 01a9 49       		.uleb128 0x49
 2726 01aa 13       		.uleb128 0x13
 2727 01ab 01       		.uleb128 0x1
 2728 01ac 13       		.uleb128 0x13
 2729 01ad 00       		.byte	0
 2730 01ae 00       		.byte	0
 2731 01af 1F       		.uleb128 0x1f
 2732 01b0 21       		.uleb128 0x21
 2733 01b1 00       		.byte	0
 2734 01b2 49       		.uleb128 0x49
 2735 01b3 13       		.uleb128 0x13
 2736 01b4 2F       		.uleb128 0x2f
 2737 01b5 0B       		.uleb128 0xb
 2738 01b6 00       		.byte	0
 2739 01b7 00       		.byte	0
 2740 01b8 20       		.uleb128 0x20
 2741 01b9 2E       		.uleb128 0x2e
 2742 01ba 01       		.byte	0x1
 2743 01bb 3F       		.uleb128 0x3f
 2744 01bc 19       		.uleb128 0x19
 2745 01bd 03       		.uleb128 0x3
 2746 01be 0E       		.uleb128 0xe
 2747 01bf 3A       		.uleb128 0x3a
 2748 01c0 0B       		.uleb128 0xb
 2749 01c1 3B       		.uleb128 0x3b
 2750 01c2 0B       		.uleb128 0xb
ARM GAS  C:\Users\pearlstl\AppData\Local\Temp\ccc6DM2e.s 			page 64


 2751 01c3 27       		.uleb128 0x27
 2752 01c4 19       		.uleb128 0x19
 2753 01c5 11       		.uleb128 0x11
 2754 01c6 01       		.uleb128 0x1
 2755 01c7 12       		.uleb128 0x12
 2756 01c8 06       		.uleb128 0x6
 2757 01c9 40       		.uleb128 0x40
 2758 01ca 18       		.uleb128 0x18
 2759 01cb 9742     		.uleb128 0x2117
 2760 01cd 19       		.uleb128 0x19
 2761 01ce 01       		.uleb128 0x1
 2762 01cf 13       		.uleb128 0x13
 2763 01d0 00       		.byte	0
 2764 01d1 00       		.byte	0
 2765 01d2 21       		.uleb128 0x21
 2766 01d3 0B       		.uleb128 0xb
 2767 01d4 01       		.byte	0x1
 2768 01d5 11       		.uleb128 0x11
 2769 01d6 01       		.uleb128 0x1
 2770 01d7 12       		.uleb128 0x12
 2771 01d8 06       		.uleb128 0x6
 2772 01d9 01       		.uleb128 0x1
 2773 01da 13       		.uleb128 0x13
 2774 01db 00       		.byte	0
 2775 01dc 00       		.byte	0
 2776 01dd 00       		.byte	0
 2777              		.section	.debug_aranges,"",%progbits
 2778 0000 54000000 		.4byte	0x54
 2779 0004 0200     		.2byte	0x2
 2780 0006 00000000 		.4byte	.Ldebug_info0
 2781 000a 04       		.byte	0x4
 2782 000b 00       		.byte	0
 2783 000c 0000     		.2byte	0
 2784 000e 0000     		.2byte	0
 2785 0010 00000000 		.4byte	.LFB4
 2786 0014 A4000000 		.4byte	.LFE4-.LFB4
 2787 0018 00000000 		.4byte	.LFB9
 2788 001c 2E000000 		.4byte	.LFE9-.LFB9
 2789 0020 00000000 		.4byte	.LFB11
 2790 0024 1A000000 		.4byte	.LFE11-.LFB11
 2791 0028 00000000 		.4byte	.LFB12
 2792 002c 38000000 		.4byte	.LFE12-.LFB12
 2793 0030 00000000 		.4byte	.LFB13
 2794 0034 8E000000 		.4byte	.LFE13-.LFB13
 2795 0038 00000000 		.4byte	.LFB14
 2796 003c C8030000 		.4byte	.LFE14-.LFB14
 2797 0040 00000000 		.4byte	.LFB15
 2798 0044 20000000 		.4byte	.LFE15-.LFB15
 2799 0048 00000000 		.4byte	.LFB16
 2800 004c CA010000 		.4byte	.LFE16-.LFB16
 2801 0050 00000000 		.4byte	0
 2802 0054 00000000 		.4byte	0
 2803              		.section	.debug_ranges,"",%progbits
 2804              	.Ldebug_ranges0:
 2805 0000 00000000 		.4byte	.LFB4
 2806 0004 A4000000 		.4byte	.LFE4
 2807 0008 00000000 		.4byte	.LFB9
ARM GAS  C:\Users\pearlstl\AppData\Local\Temp\ccc6DM2e.s 			page 65


 2808 000c 2E000000 		.4byte	.LFE9
 2809 0010 00000000 		.4byte	.LFB11
 2810 0014 1A000000 		.4byte	.LFE11
 2811 0018 00000000 		.4byte	.LFB12
 2812 001c 38000000 		.4byte	.LFE12
 2813 0020 00000000 		.4byte	.LFB13
 2814 0024 8E000000 		.4byte	.LFE13
 2815 0028 00000000 		.4byte	.LFB14
 2816 002c C8030000 		.4byte	.LFE14
 2817 0030 00000000 		.4byte	.LFB15
 2818 0034 20000000 		.4byte	.LFE15
 2819 0038 00000000 		.4byte	.LFB16
 2820 003c CA010000 		.4byte	.LFE16
 2821 0040 00000000 		.4byte	0
 2822 0044 00000000 		.4byte	0
 2823              		.section	.debug_line,"",%progbits
 2824              	.Ldebug_line0:
 2825 0000 95030000 		.section	.debug_str,"MS",%progbits,1
 2825      02009301 
 2825      00000201 
 2825      FB0E0D00 
 2825      01010101 
 2826              	.LASF54:
 2827 0000 6D6F6E6F 		.ascii	"monospace\000"
 2827      73706163 
 2827      6500
 2828              	.LASF22:
 2829 000a 4C565F4F 		.ascii	"LV_OPA_40\000"
 2829      50415F34 
 2829      3000
 2830              	.LASF21:
 2831 0014 4C565F4F 		.ascii	"LV_OPA_30\000"
 2831      50415F33 
 2831      3000
 2832              	.LASF79:
 2833 001e 6C657474 		.ascii	"letter_h\000"
 2833      65725F68 
 2833      00
 2834              	.LASF34:
 2835 0027 6C765F63 		.ascii	"lv_color_t\000"
 2835      6F6C6F72 
 2835      5F7400
 2836              	.LASF2:
 2837 0032 5F5F7569 		.ascii	"__uint8_t\000"
 2837      6E74385F 
 2837      7400
 2838              	.LASF78:
 2839 003c 6C657474 		.ascii	"letter_w\000"
 2839      65725F77 
 2839      00
 2840              	.LASF7:
 2841 0045 6C6F6E67 		.ascii	"long int\000"
 2841      20696E74 
 2841      00
 2842              	.LASF59:
 2843 004e 6C765F61 		.ascii	"lv_area_get_width\000"
 2843      7265615F 
ARM GAS  C:\Users\pearlstl\AppData\Local\Temp\ccc6DM2e.s 			page 66


 2843      6765745F 
 2843      77696474 
 2843      6800
 2844              	.LASF11:
 2845 0060 6C6F6E67 		.ascii	"long long unsigned int\000"
 2845      206C6F6E 
 2845      6720756E 
 2845      7369676E 
 2845      65642069 
 2846              	.LASF56:
 2847 0077 6C765F66 		.ascii	"lv_font_t\000"
 2847      6F6E745F 
 2847      7400
 2848              	.LASF33:
 2849 0081 6C765F63 		.ascii	"lv_color32_t\000"
 2849      6F6C6F72 
 2849      33325F74 
 2849      00
 2850              	.LASF39:
 2851 008e 6C765F63 		.ascii	"lv_coord_t\000"
 2851      6F6F7264 
 2851      5F7400
 2852              	.LASF14:
 2853 0099 696E7431 		.ascii	"int16_t\000"
 2853      365F7400 
 2854              	.LASF10:
 2855 00a1 6C6F6E67 		.ascii	"long long int\000"
 2855      206C6F6E 
 2855      6720696E 
 2855      7400
 2856              	.LASF0:
 2857 00af 7369676E 		.ascii	"signed char\000"
 2857      65642063 
 2857      68617200 
 2858              	.LASF32:
 2859 00bb 616C7068 		.ascii	"alpha\000"
 2859      6100
 2860              	.LASF23:
 2861 00c1 4C565F4F 		.ascii	"LV_OPA_50\000"
 2861      50415F35 
 2861      3000
 2862              	.LASF55:
 2863 00cb 676C7970 		.ascii	"glyph_cnt\000"
 2863      685F636E 
 2863      7400
 2864              	.LASF41:
 2865 00d5 6C765F61 		.ascii	"lv_area_t\000"
 2865      7265615F 
 2865      7400
 2866              	.LASF52:
 2867 00df 6E657874 		.ascii	"next_page\000"
 2867      5F706167 
 2867      6500
 2868              	.LASF84:
 2869 00e9 636F6C5F 		.ascii	"col_bit\000"
 2869      62697400 
 2870              	.LASF15:
ARM GAS  C:\Users\pearlstl\AppData\Local\Temp\ccc6DM2e.s 			page 67


 2871 00f1 75696E74 		.ascii	"uint16_t\000"
 2871      31365F74 
 2871      00
 2872              	.LASF29:
 2873 00fa 4C565F4F 		.ascii	"LV_OPA_COVER\000"
 2873      50415F43 
 2873      4F564552 
 2873      00
 2874              	.LASF75:
 2875 0107 62707031 		.ascii	"bpp1_opa_table\000"
 2875      5F6F7061 
 2875      5F746162 
 2875      6C6500
 2876              	.LASF68:
 2877 0116 636F7264 		.ascii	"cords_p\000"
 2877      735F7000 
 2878              	.LASF80:
 2879 011e 6270705F 		.ascii	"bpp_opa_table\000"
 2879      6F70615F 
 2879      7461626C 
 2879      6500
 2880              	.LASF8:
 2881 012c 5F5F7569 		.ascii	"__uint32_t\000"
 2881      6E743332 
 2881      5F7400
 2882              	.LASF82:
 2883 0137 6D61736B 		.ascii	"mask\000"
 2883      00
 2884              	.LASF24:
 2885 013c 4C565F4F 		.ascii	"LV_OPA_60\000"
 2885      50415F36 
 2885      3000
 2886              	.LASF3:
 2887 0146 5F5F696E 		.ascii	"__int16_t\000"
 2887      7431365F 
 2887      7400
 2888              	.LASF12:
 2889 0150 756E7369 		.ascii	"unsigned int\000"
 2889      676E6564 
 2889      20696E74 
 2889      00
 2890              	.LASF69:
 2891 015d 6D61736B 		.ascii	"masked_area\000"
 2891      65645F61 
 2891      72656100 
 2892              	.LASF63:
 2893 0169 6D61736B 		.ascii	"mask_p\000"
 2893      5F7000
 2894              	.LASF9:
 2895 0170 6C6F6E67 		.ascii	"long unsigned int\000"
 2895      20756E73 
 2895      69676E65 
 2895      6420696E 
 2895      7400
 2896              	.LASF101:
 2897 0182 6D61736B 		.ascii	"mask_w\000"
 2897      5F7700
ARM GAS  C:\Users\pearlstl\AppData\Local\Temp\ccc6DM2e.s 			page 68


 2898              	.LASF93:
 2899 0189 6C765F72 		.ascii	"lv_rletter_set_background\000"
 2899      6C657474 
 2899      65725F73 
 2899      65745F62 
 2899      61636B67 
 2900              	.LASF90:
 2901 01a3 726F775F 		.ascii	"row_start\000"
 2901      73746172 
 2901      7400
 2902              	.LASF6:
 2903 01ad 73686F72 		.ascii	"short unsigned int\000"
 2903      7420756E 
 2903      7369676E 
 2903      65642069 
 2903      6E7400
 2904              	.LASF81:
 2905 01c0 6D61736B 		.ascii	"mask_init\000"
 2905      5F696E69 
 2905      7400
 2906              	.LASF61:
 2907 01ca 6C765F66 		.ascii	"lv_font_get_height\000"
 2907      6F6E745F 
 2907      6765745F 
 2907      68656967 
 2907      687400
 2908              	.LASF99:
 2909 01dd 6D61736B 		.ascii	"masked_a\000"
 2909      65645F61 
 2909      00
 2910              	.LASF70:
 2911 01e6 756E696F 		.ascii	"union_ok\000"
 2911      6E5F6F6B 
 2911      00
 2912              	.LASF45:
 2913 01ef 756E6963 		.ascii	"unicode_first\000"
 2913      6F64655F 
 2913      66697273 
 2913      7400
 2914              	.LASF25:
 2915 01fd 4C565F4F 		.ascii	"LV_OPA_70\000"
 2915      50415F37 
 2915      3000
 2916              	.LASF4:
 2917 0207 73686F72 		.ascii	"short int\000"
 2917      7420696E 
 2917      7400
 2918              	.LASF47:
 2919 0211 676C7970 		.ascii	"glyph_bitmap\000"
 2919      685F6269 
 2919      746D6170 
 2919      00
 2920              	.LASF44:
 2921 021e 6C765F66 		.ascii	"lv_font_glyph_dsc_t\000"
 2921      6F6E745F 
 2921      676C7970 
 2921      685F6473 
ARM GAS  C:\Users\pearlstl\AppData\Local\Temp\ccc6DM2e.s 			page 69


 2921      635F7400 
 2922              	.LASF91:
 2923 0232 726F775F 		.ascii	"row_end\000"
 2923      656E6400 
 2924              	.LASF42:
 2925 023a 775F7078 		.ascii	"w_px\000"
 2925      00
 2926              	.LASF85:
 2927 023f 636F6C5F 		.ascii	"col_byte_cnt\000"
 2927      62797465 
 2927      5F636E74 
 2927      00
 2928              	.LASF100:
 2929 024c 6D61705F 		.ascii	"map_width\000"
 2929      77696474 
 2929      6800
 2930              	.LASF37:
 2931 0256 73697A65 		.ascii	"sizetype\000"
 2931      74797065 
 2931      00
 2932              	.LASF17:
 2933 025f 4C565F4F 		.ascii	"LV_OPA_TRANSP\000"
 2933      50415F54 
 2933      52414E53 
 2933      5000
 2934              	.LASF109:
 2935 026d 66756C6C 		.ascii	"full\000"
 2935      00
 2936              	.LASF94:
 2937 0272 6C765F72 		.ascii	"lv_rmap\000"
 2937      6D617000 
 2938              	.LASF89:
 2939 027a 636F6C5F 		.ascii	"col_end\000"
 2939      656E6400 
 2940              	.LASF26:
 2941 0282 4C565F4F 		.ascii	"LV_OPA_80\000"
 2941      50415F38 
 2941      3000
 2942              	.LASF73:
 2943 028c 706F735F 		.ascii	"pos_p\000"
 2943      7000
 2944              	.LASF30:
 2945 0292 626C7565 		.ascii	"blue\000"
 2945      00
 2946              	.LASF107:
 2947 0297 2E2E5C2E 		.ascii	"..\\..\\..\\display\\lvgl\\lv_draw\\lv_draw_rbasic."
 2947      2E5C2E2E 
 2947      5C646973 
 2947      706C6179 
 2947      5C6C7667 
 2948 02c4 6300     		.ascii	"c\000"
 2949              	.LASF49:
 2950 02c6 756E6963 		.ascii	"unicode_list\000"
 2950      6F64655F 
 2950      6C697374 
 2950      00
 2951              	.LASF88:
ARM GAS  C:\Users\pearlstl\AppData\Local\Temp\ccc6DM2e.s 			page 70


 2952 02d3 636F6C5F 		.ascii	"col_start\000"
 2952      73746172 
 2952      7400
 2953              	.LASF62:
 2954 02dd 666F6E74 		.ascii	"font_p\000"
 2954      5F7000
 2955              	.LASF66:
 2956 02e4 6C765F72 		.ascii	"lv_rpx\000"
 2956      707800
 2957              	.LASF48:
 2958 02eb 676C7970 		.ascii	"glyph_dsc\000"
 2958      685F6473 
 2958      6300
 2959              	.LASF19:
 2960 02f5 4C565F4F 		.ascii	"LV_OPA_10\000"
 2960      50415F31 
 2960      3000
 2961              	.LASF57:
 2962 02ff 5F426F6F 		.ascii	"_Bool\000"
 2962      6C00
 2963              	.LASF1:
 2964 0305 756E7369 		.ascii	"unsigned char\000"
 2964      676E6564 
 2964      20636861 
 2964      7200
 2965              	.LASF96:
 2966 0313 616C7068 		.ascii	"alpha_byte\000"
 2966      615F6279 
 2966      746500
 2967              	.LASF71:
 2968 031e 7363725F 		.ascii	"scr_area\000"
 2968      61726561 
 2968      00
 2969              	.LASF65:
 2970 0327 61726561 		.ascii	"area\000"
 2970      00
 2971              	.LASF46:
 2972 032c 756E6963 		.ascii	"unicode_last\000"
 2972      6F64655F 
 2972      6C617374 
 2972      00
 2973              	.LASF27:
 2974 0339 4C565F4F 		.ascii	"LV_OPA_90\000"
 2974      50415F39 
 2974      3000
 2975              	.LASF67:
 2976 0343 6C765F72 		.ascii	"lv_rfill\000"
 2976      66696C6C 
 2976      00
 2977              	.LASF87:
 2978 034c 77696474 		.ascii	"width_byte_bpp\000"
 2978      685F6279 
 2978      74655F62 
 2978      707000
 2979              	.LASF60:
 2980 035b 61726561 		.ascii	"area_p\000"
 2980      5F7000
ARM GAS  C:\Users\pearlstl\AppData\Local\Temp\ccc6DM2e.s 			page 71


 2981              	.LASF16:
 2982 0362 75696E74 		.ascii	"uint32_t\000"
 2982      33325F74 
 2982      00
 2983              	.LASF51:
 2984 036b 6765745F 		.ascii	"get_width\000"
 2984      77696474 
 2984      6800
 2985              	.LASF83:
 2986 0375 6D61705F 		.ascii	"map_p\000"
 2986      7000
 2987              	.LASF36:
 2988 037b 6C6F6E67 		.ascii	"long double\000"
 2988      20646F75 
 2988      626C6500 
 2989              	.LASF64:
 2990 0387 636F6C6F 		.ascii	"color\000"
 2990      7200
 2991              	.LASF38:
 2992 038d 63686172 		.ascii	"char\000"
 2992      00
 2993              	.LASF105:
 2994 0392 6C657474 		.ascii	"letter_bg_color\000"
 2994      65725F62 
 2994      675F636F 
 2994      6C6F7200 
 2995              	.LASF20:
 2996 03a2 4C565F4F 		.ascii	"LV_OPA_20\000"
 2996      50415F32 
 2996      3000
 2997              	.LASF5:
 2998 03ac 5F5F7569 		.ascii	"__uint16_t\000"
 2998      6E743136 
 2998      5F7400
 2999              	.LASF74:
 3000 03b7 6C657474 		.ascii	"letter\000"
 3000      657200
 3001              	.LASF35:
 3002 03be 6C765F6F 		.ascii	"lv_opa_t\000"
 3002      70615F74 
 3002      00
 3003              	.LASF28:
 3004 03c7 4C565F4F 		.ascii	"LV_OPA_100\000"
 3004      50415F31 
 3004      303000
 3005              	.LASF53:
 3006 03d2 685F7078 		.ascii	"h_px\000"
 3006      00
 3007              	.LASF108:
 3008 03d7 433A5C55 		.ascii	"C:\\Users\\pearlstl\\Documents\\_Research\\projects"
 3008      73657273 
 3008      5C706561 
 3008      726C7374 
 3008      6C5C446F 
 3009 0405 5C74636F 		.ascii	"\\tcom_engineering\\embed_sw\\tcom_app\\tcom_app_ps"
 3009      6D5F656E 
 3009      67696E65 
ARM GAS  C:\Users\pearlstl\AppData\Local\Temp\ccc6DM2e.s 			page 72


 3009      6572696E 
 3009      675C656D 
 3010 0434 6F63365F 		.ascii	"oc6_fixed_io\\tcom_displ_test_psoc6.cydsn\000"
 3010      66697865 
 3010      645F696F 
 3010      5C74636F 
 3010      6D5F6469 
 3011              	.LASF110:
 3012 045d 5F6C765F 		.ascii	"_lv_font_struct\000"
 3012      666F6E74 
 3012      5F737472 
 3012      75637400 
 3013              	.LASF72:
 3014 046d 6C765F72 		.ascii	"lv_rletter\000"
 3014      6C657474 
 3014      657200
 3015              	.LASF43:
 3016 0478 676C7970 		.ascii	"glyph_index\000"
 3016      685F696E 
 3016      64657800 
 3017              	.LASF31:
 3018 0484 67726565 		.ascii	"green\000"
 3018      6E00
 3019              	.LASF77:
 3020 048a 62707034 		.ascii	"bpp4_opa_table\000"
 3020      5F6F7061 
 3020      5F746162 
 3020      6C6500
 3021              	.LASF13:
 3022 0499 75696E74 		.ascii	"uint8_t\000"
 3022      385F7400 
 3023              	.LASF40:
 3024 04a1 6C765F70 		.ascii	"lv_point_t\000"
 3024      6F696E74 
 3024      5F7400
 3025              	.LASF97:
 3026 04ac 7265636F 		.ascii	"recolor\000"
 3026      6C6F7200 
 3027              	.LASF98:
 3028 04b4 7265636F 		.ascii	"recolor_opa\000"
 3028      6C6F725F 
 3028      6F706100 
 3029              	.LASF18:
 3030 04c0 4C565F4F 		.ascii	"LV_OPA_0\000"
 3030      50415F30 
 3030      00
 3031              	.LASF50:
 3032 04c9 6765745F 		.ascii	"get_bitmap\000"
 3032      6269746D 
 3032      617000
 3033              	.LASF95:
 3034 04d4 6368726F 		.ascii	"chroma_key\000"
 3034      6D615F6B 
 3034      657900
 3035              	.LASF86:
 3036 04df 77696474 		.ascii	"width_byte_scr\000"
 3036      685F6279 
ARM GAS  C:\Users\pearlstl\AppData\Local\Temp\ccc6DM2e.s 			page 73


 3036      74655F73 
 3036      637200
 3037              	.LASF58:
 3038 04ee 6C765F63 		.ascii	"lv_color_mix\000"
 3038      6F6C6F72 
 3038      5F6D6978 
 3038      00
 3039              	.LASF102:
 3040 04fb 6368726F 		.ascii	"chroma_key_color\000"
 3040      6D615F6B 
 3040      65795F63 
 3040      6F6C6F72 
 3040      00
 3041              	.LASF106:
 3042 050c 474E5520 		.ascii	"GNU C11 5.4.1 20160609 (release) [ARM/embedded-5-br"
 3042      43313120 
 3042      352E342E 
 3042      31203230 
 3042      31363036 
 3043 053f 616E6368 		.ascii	"anch revision 237715] -mcpu=cortex-m4 -mfloat-abi=s"
 3043      20726576 
 3043      6973696F 
 3043      6E203233 
 3043      37373135 
 3044 0572 6F667466 		.ascii	"oftfp -mfpu=fpv4-sp-d16 -mthumb -g -O0 -ffunction-s"
 3044      70202D6D 
 3044      6670753D 
 3044      66707634 
 3044      2D73702D 
 3045 05a5 65637469 		.ascii	"ections -ffat-lto-objects\000"
 3045      6F6E7320 
 3045      2D666661 
 3045      742D6C74 
 3045      6F2D6F62 
 3046              	.LASF103:
 3047 05bf 70785F63 		.ascii	"px_color\000"
 3047      6F6C6F72 
 3047      00
 3048              	.LASF92:
 3049 05c8 6C657474 		.ascii	"letter_px\000"
 3049      65725F70 
 3049      7800
 3050              	.LASF104:
 3051 05d2 7265636F 		.ascii	"recolored_px\000"
 3051      6C6F7265 
 3051      645F7078 
 3051      00
 3052              	.LASF76:
 3053 05df 62707032 		.ascii	"bpp2_opa_table\000"
 3053      5F6F7061 
 3053      5F746162 
 3053      6C6500
 3054              		.ident	"GCC: (GNU Tools for ARM Embedded Processors) 5.4.1 20160609 (release) [ARM/embedded-5-bran
