ARM GAS  C:\Users\tmj32\AppData\Local\Temp\ccmyxrAJ.s 			page 1


   1              		.syntax unified
   2              		.cpu cortex-m4
   3              		.eabi_attribute 27, 1
   4              		.fpu fpv4-sp-d16
   5              		.eabi_attribute 20, 1
   6              		.eabi_attribute 21, 1
   7              		.eabi_attribute 23, 3
   8              		.eabi_attribute 24, 1
   9              		.eabi_attribute 25, 1
  10              		.eabi_attribute 26, 1
  11              		.eabi_attribute 30, 6
  12              		.eabi_attribute 34, 1
  13              		.eabi_attribute 18, 4
  14              		.thumb
  15              		.syntax unified
  16              		.file	"lv_gauge.c"
  17              		.text
  18              	.Ltext0:
  19              		.cfi_sections	.debug_frame
  20              		.section	.text.lv_gauge_set_critical_value,"ax",%progbits
  21              		.align	2
  22              		.thumb
  23              		.thumb_func
  24              		.type	lv_gauge_set_critical_value, %function
  25              	lv_gauge_set_critical_value:
  26              	.LFB38:
  27              		.file 1 "..\\..\\..\\lvgl\\version_6.1.2\\lvgl\\src\\lv_objx\\lv_gauge.h"
   1:..\..\..\lvgl\version_6.1.2\lvgl\src\lv_objx/lv_gauge.h **** /**
   2:..\..\..\lvgl\version_6.1.2\lvgl\src\lv_objx/lv_gauge.h ****  * @file lv_gauge.h
   3:..\..\..\lvgl\version_6.1.2\lvgl\src\lv_objx/lv_gauge.h ****  *
   4:..\..\..\lvgl\version_6.1.2\lvgl\src\lv_objx/lv_gauge.h ****  */
   5:..\..\..\lvgl\version_6.1.2\lvgl\src\lv_objx/lv_gauge.h **** 
   6:..\..\..\lvgl\version_6.1.2\lvgl\src\lv_objx/lv_gauge.h **** #ifndef LV_GAUGE_H
   7:..\..\..\lvgl\version_6.1.2\lvgl\src\lv_objx/lv_gauge.h **** #define LV_GAUGE_H
   8:..\..\..\lvgl\version_6.1.2\lvgl\src\lv_objx/lv_gauge.h **** 
   9:..\..\..\lvgl\version_6.1.2\lvgl\src\lv_objx/lv_gauge.h **** #ifdef __cplusplus
  10:..\..\..\lvgl\version_6.1.2\lvgl\src\lv_objx/lv_gauge.h **** extern "C" {
  11:..\..\..\lvgl\version_6.1.2\lvgl\src\lv_objx/lv_gauge.h **** #endif
  12:..\..\..\lvgl\version_6.1.2\lvgl\src\lv_objx/lv_gauge.h **** 
  13:..\..\..\lvgl\version_6.1.2\lvgl\src\lv_objx/lv_gauge.h **** /*********************
  14:..\..\..\lvgl\version_6.1.2\lvgl\src\lv_objx/lv_gauge.h ****  *      INCLUDES
  15:..\..\..\lvgl\version_6.1.2\lvgl\src\lv_objx/lv_gauge.h ****  *********************/
  16:..\..\..\lvgl\version_6.1.2\lvgl\src\lv_objx/lv_gauge.h **** #ifdef LV_CONF_INCLUDE_SIMPLE
  17:..\..\..\lvgl\version_6.1.2\lvgl\src\lv_objx/lv_gauge.h **** #include "lv_conf.h"
  18:..\..\..\lvgl\version_6.1.2\lvgl\src\lv_objx/lv_gauge.h **** #else
  19:..\..\..\lvgl\version_6.1.2\lvgl\src\lv_objx/lv_gauge.h **** #include "../../../lv_conf.h"
  20:..\..\..\lvgl\version_6.1.2\lvgl\src\lv_objx/lv_gauge.h **** #endif
  21:..\..\..\lvgl\version_6.1.2\lvgl\src\lv_objx/lv_gauge.h **** 
  22:..\..\..\lvgl\version_6.1.2\lvgl\src\lv_objx/lv_gauge.h **** #if LV_USE_GAUGE != 0
  23:..\..\..\lvgl\version_6.1.2\lvgl\src\lv_objx/lv_gauge.h **** 
  24:..\..\..\lvgl\version_6.1.2\lvgl\src\lv_objx/lv_gauge.h **** /*Testing of dependencies*/
  25:..\..\..\lvgl\version_6.1.2\lvgl\src\lv_objx/lv_gauge.h **** #if LV_USE_LMETER == 0
  26:..\..\..\lvgl\version_6.1.2\lvgl\src\lv_objx/lv_gauge.h **** #error "lv_gauge: lv_lmeter is required. Enable it in lv_conf.h (LV_USE_LMETER  1) "
  27:..\..\..\lvgl\version_6.1.2\lvgl\src\lv_objx/lv_gauge.h **** #endif
  28:..\..\..\lvgl\version_6.1.2\lvgl\src\lv_objx/lv_gauge.h **** 
  29:..\..\..\lvgl\version_6.1.2\lvgl\src\lv_objx/lv_gauge.h **** #include "../lv_core/lv_obj.h"
  30:..\..\..\lvgl\version_6.1.2\lvgl\src\lv_objx/lv_gauge.h **** #include "lv_lmeter.h"
ARM GAS  C:\Users\tmj32\AppData\Local\Temp\ccmyxrAJ.s 			page 2


  31:..\..\..\lvgl\version_6.1.2\lvgl\src\lv_objx/lv_gauge.h **** #include "lv_label.h"
  32:..\..\..\lvgl\version_6.1.2\lvgl\src\lv_objx/lv_gauge.h **** #include "lv_line.h"
  33:..\..\..\lvgl\version_6.1.2\lvgl\src\lv_objx/lv_gauge.h **** 
  34:..\..\..\lvgl\version_6.1.2\lvgl\src\lv_objx/lv_gauge.h **** /*********************
  35:..\..\..\lvgl\version_6.1.2\lvgl\src\lv_objx/lv_gauge.h ****  *      DEFINES
  36:..\..\..\lvgl\version_6.1.2\lvgl\src\lv_objx/lv_gauge.h ****  *********************/
  37:..\..\..\lvgl\version_6.1.2\lvgl\src\lv_objx/lv_gauge.h **** 
  38:..\..\..\lvgl\version_6.1.2\lvgl\src\lv_objx/lv_gauge.h **** /**********************
  39:..\..\..\lvgl\version_6.1.2\lvgl\src\lv_objx/lv_gauge.h ****  *      TYPEDEFS
  40:..\..\..\lvgl\version_6.1.2\lvgl\src\lv_objx/lv_gauge.h ****  **********************/
  41:..\..\..\lvgl\version_6.1.2\lvgl\src\lv_objx/lv_gauge.h **** 
  42:..\..\..\lvgl\version_6.1.2\lvgl\src\lv_objx/lv_gauge.h **** /*Data of gauge*/
  43:..\..\..\lvgl\version_6.1.2\lvgl\src\lv_objx/lv_gauge.h **** typedef struct
  44:..\..\..\lvgl\version_6.1.2\lvgl\src\lv_objx/lv_gauge.h **** {
  45:..\..\..\lvgl\version_6.1.2\lvgl\src\lv_objx/lv_gauge.h ****     lv_lmeter_ext_t lmeter; /*Ext. of ancestor*/
  46:..\..\..\lvgl\version_6.1.2\lvgl\src\lv_objx/lv_gauge.h ****     /*New data for this type */
  47:..\..\..\lvgl\version_6.1.2\lvgl\src\lv_objx/lv_gauge.h ****     int16_t * values;                 /*Array of the set values (for needles) */
  48:..\..\..\lvgl\version_6.1.2\lvgl\src\lv_objx/lv_gauge.h ****     const lv_color_t * needle_colors; /*Color of the needles (lv_color_t my_colors[needle_num])*/
  49:..\..\..\lvgl\version_6.1.2\lvgl\src\lv_objx/lv_gauge.h ****     uint8_t needle_count;             /*Number of needles*/
  50:..\..\..\lvgl\version_6.1.2\lvgl\src\lv_objx/lv_gauge.h ****     uint8_t label_count;              /*Number of labels on the scale*/
  51:..\..\..\lvgl\version_6.1.2\lvgl\src\lv_objx/lv_gauge.h **** } lv_gauge_ext_t;
  52:..\..\..\lvgl\version_6.1.2\lvgl\src\lv_objx/lv_gauge.h **** 
  53:..\..\..\lvgl\version_6.1.2\lvgl\src\lv_objx/lv_gauge.h **** /*Styles*/
  54:..\..\..\lvgl\version_6.1.2\lvgl\src\lv_objx/lv_gauge.h **** enum {
  55:..\..\..\lvgl\version_6.1.2\lvgl\src\lv_objx/lv_gauge.h ****     LV_GAUGE_STYLE_MAIN,
  56:..\..\..\lvgl\version_6.1.2\lvgl\src\lv_objx/lv_gauge.h **** };
  57:..\..\..\lvgl\version_6.1.2\lvgl\src\lv_objx/lv_gauge.h **** typedef uint8_t lv_gauge_style_t;
  58:..\..\..\lvgl\version_6.1.2\lvgl\src\lv_objx/lv_gauge.h **** 
  59:..\..\..\lvgl\version_6.1.2\lvgl\src\lv_objx/lv_gauge.h **** /**********************
  60:..\..\..\lvgl\version_6.1.2\lvgl\src\lv_objx/lv_gauge.h ****  * GLOBAL PROTOTYPES
  61:..\..\..\lvgl\version_6.1.2\lvgl\src\lv_objx/lv_gauge.h ****  **********************/
  62:..\..\..\lvgl\version_6.1.2\lvgl\src\lv_objx/lv_gauge.h **** 
  63:..\..\..\lvgl\version_6.1.2\lvgl\src\lv_objx/lv_gauge.h **** /**
  64:..\..\..\lvgl\version_6.1.2\lvgl\src\lv_objx/lv_gauge.h ****  * Create a gauge objects
  65:..\..\..\lvgl\version_6.1.2\lvgl\src\lv_objx/lv_gauge.h ****  * @param par pointer to an object, it will be the parent of the new gauge
  66:..\..\..\lvgl\version_6.1.2\lvgl\src\lv_objx/lv_gauge.h ****  * @param copy pointer to a gauge object, if not NULL then the new object will be copied from it
  67:..\..\..\lvgl\version_6.1.2\lvgl\src\lv_objx/lv_gauge.h ****  * @return pointer to the created gauge
  68:..\..\..\lvgl\version_6.1.2\lvgl\src\lv_objx/lv_gauge.h ****  */
  69:..\..\..\lvgl\version_6.1.2\lvgl\src\lv_objx/lv_gauge.h **** lv_obj_t * lv_gauge_create(lv_obj_t * par, const lv_obj_t * copy);
  70:..\..\..\lvgl\version_6.1.2\lvgl\src\lv_objx/lv_gauge.h **** 
  71:..\..\..\lvgl\version_6.1.2\lvgl\src\lv_objx/lv_gauge.h **** /*=====================
  72:..\..\..\lvgl\version_6.1.2\lvgl\src\lv_objx/lv_gauge.h ****  * Setter functions
  73:..\..\..\lvgl\version_6.1.2\lvgl\src\lv_objx/lv_gauge.h ****  *====================*/
  74:..\..\..\lvgl\version_6.1.2\lvgl\src\lv_objx/lv_gauge.h **** 
  75:..\..\..\lvgl\version_6.1.2\lvgl\src\lv_objx/lv_gauge.h **** /**
  76:..\..\..\lvgl\version_6.1.2\lvgl\src\lv_objx/lv_gauge.h ****  * Set the number of needles
  77:..\..\..\lvgl\version_6.1.2\lvgl\src\lv_objx/lv_gauge.h ****  * @param gauge pointer to gauge object
  78:..\..\..\lvgl\version_6.1.2\lvgl\src\lv_objx/lv_gauge.h ****  * @param needle_cnt new count of needles
  79:..\..\..\lvgl\version_6.1.2\lvgl\src\lv_objx/lv_gauge.h ****  * @param colors an array of colors for needles (with 'num' elements)
  80:..\..\..\lvgl\version_6.1.2\lvgl\src\lv_objx/lv_gauge.h ****  */
  81:..\..\..\lvgl\version_6.1.2\lvgl\src\lv_objx/lv_gauge.h **** void lv_gauge_set_needle_count(lv_obj_t * gauge, uint8_t needle_cnt, const lv_color_t colors[]);
  82:..\..\..\lvgl\version_6.1.2\lvgl\src\lv_objx/lv_gauge.h **** 
  83:..\..\..\lvgl\version_6.1.2\lvgl\src\lv_objx/lv_gauge.h **** /**
  84:..\..\..\lvgl\version_6.1.2\lvgl\src\lv_objx/lv_gauge.h ****  * Set the value of a needle
  85:..\..\..\lvgl\version_6.1.2\lvgl\src\lv_objx/lv_gauge.h ****  * @param gauge pointer to a gauge
  86:..\..\..\lvgl\version_6.1.2\lvgl\src\lv_objx/lv_gauge.h ****  * @param needle_id the id of the needle
  87:..\..\..\lvgl\version_6.1.2\lvgl\src\lv_objx/lv_gauge.h ****  * @param value the new value
ARM GAS  C:\Users\tmj32\AppData\Local\Temp\ccmyxrAJ.s 			page 3


  88:..\..\..\lvgl\version_6.1.2\lvgl\src\lv_objx/lv_gauge.h ****  */
  89:..\..\..\lvgl\version_6.1.2\lvgl\src\lv_objx/lv_gauge.h **** void lv_gauge_set_value(lv_obj_t * gauge, uint8_t needle_id, int16_t value);
  90:..\..\..\lvgl\version_6.1.2\lvgl\src\lv_objx/lv_gauge.h **** 
  91:..\..\..\lvgl\version_6.1.2\lvgl\src\lv_objx/lv_gauge.h **** /**
  92:..\..\..\lvgl\version_6.1.2\lvgl\src\lv_objx/lv_gauge.h ****  * Set minimum and the maximum values of a gauge
  93:..\..\..\lvgl\version_6.1.2\lvgl\src\lv_objx/lv_gauge.h ****  * @param gauge pointer to he gauge object
  94:..\..\..\lvgl\version_6.1.2\lvgl\src\lv_objx/lv_gauge.h ****  * @param min minimum value
  95:..\..\..\lvgl\version_6.1.2\lvgl\src\lv_objx/lv_gauge.h ****  * @param max maximum value
  96:..\..\..\lvgl\version_6.1.2\lvgl\src\lv_objx/lv_gauge.h ****  */
  97:..\..\..\lvgl\version_6.1.2\lvgl\src\lv_objx/lv_gauge.h **** static inline void lv_gauge_set_range(lv_obj_t * gauge, int16_t min, int16_t max)
  98:..\..\..\lvgl\version_6.1.2\lvgl\src\lv_objx/lv_gauge.h **** {
  99:..\..\..\lvgl\version_6.1.2\lvgl\src\lv_objx/lv_gauge.h ****     lv_lmeter_set_range(gauge, min, max);
 100:..\..\..\lvgl\version_6.1.2\lvgl\src\lv_objx/lv_gauge.h **** }
 101:..\..\..\lvgl\version_6.1.2\lvgl\src\lv_objx/lv_gauge.h **** 
 102:..\..\..\lvgl\version_6.1.2\lvgl\src\lv_objx/lv_gauge.h **** /**
 103:..\..\..\lvgl\version_6.1.2\lvgl\src\lv_objx/lv_gauge.h ****  * Set a critical value on the scale. After this value 'line.color' scale lines will be drawn
 104:..\..\..\lvgl\version_6.1.2\lvgl\src\lv_objx/lv_gauge.h ****  * @param gauge pointer to a gauge object
 105:..\..\..\lvgl\version_6.1.2\lvgl\src\lv_objx/lv_gauge.h ****  * @param value the critical value
 106:..\..\..\lvgl\version_6.1.2\lvgl\src\lv_objx/lv_gauge.h ****  */
 107:..\..\..\lvgl\version_6.1.2\lvgl\src\lv_objx/lv_gauge.h **** static inline void lv_gauge_set_critical_value(lv_obj_t * gauge, int16_t value)
 108:..\..\..\lvgl\version_6.1.2\lvgl\src\lv_objx/lv_gauge.h **** {
  28              		.loc 1 108 0
  29              		.cfi_startproc
  30              		@ args = 0, pretend = 0, frame = 8
  31              		@ frame_needed = 1, uses_anonymous_args = 0
  32 0000 80B5     		push	{r7, lr}
  33              		.cfi_def_cfa_offset 8
  34              		.cfi_offset 7, -8
  35              		.cfi_offset 14, -4
  36 0002 82B0     		sub	sp, sp, #8
  37              		.cfi_def_cfa_offset 16
  38 0004 00AF     		add	r7, sp, #0
  39              		.cfi_def_cfa_register 7
  40 0006 7860     		str	r0, [r7, #4]
  41 0008 0B46     		mov	r3, r1
  42 000a 7B80     		strh	r3, [r7, #2]	@ movhi
 109:..\..\..\lvgl\version_6.1.2\lvgl\src\lv_objx/lv_gauge.h ****     lv_lmeter_set_value(gauge, value);
  43              		.loc 1 109 0
  44 000c B7F90230 		ldrsh	r3, [r7, #2]
  45 0010 1946     		mov	r1, r3
  46 0012 7868     		ldr	r0, [r7, #4]
  47 0014 FFF7FEFF 		bl	lv_lmeter_set_value
 110:..\..\..\lvgl\version_6.1.2\lvgl\src\lv_objx/lv_gauge.h **** }
  48              		.loc 1 110 0
  49 0018 00BF     		nop
  50 001a 0837     		adds	r7, r7, #8
  51              		.cfi_def_cfa_offset 8
  52 001c BD46     		mov	sp, r7
  53              		.cfi_def_cfa_register 13
  54              		@ sp needed
  55 001e 80BD     		pop	{r7, pc}
  56              		.cfi_endproc
  57              	.LFE38:
  58              		.size	lv_gauge_set_critical_value, .-lv_gauge_set_critical_value
  59              		.section	.text.lv_gauge_set_style,"ax",%progbits
  60              		.align	2
  61              		.thumb
ARM GAS  C:\Users\tmj32\AppData\Local\Temp\ccmyxrAJ.s 			page 4


  62              		.thumb_func
  63              		.type	lv_gauge_set_style, %function
  64              	lv_gauge_set_style:
  65              	.LFB39:
 111:..\..\..\lvgl\version_6.1.2\lvgl\src\lv_objx/lv_gauge.h **** 
 112:..\..\..\lvgl\version_6.1.2\lvgl\src\lv_objx/lv_gauge.h **** /**
 113:..\..\..\lvgl\version_6.1.2\lvgl\src\lv_objx/lv_gauge.h ****  * Set the scale settings of a gauge
 114:..\..\..\lvgl\version_6.1.2\lvgl\src\lv_objx/lv_gauge.h ****  * @param gauge pointer to a gauge object
 115:..\..\..\lvgl\version_6.1.2\lvgl\src\lv_objx/lv_gauge.h ****  * @param angle angle of the scale (0..360)
 116:..\..\..\lvgl\version_6.1.2\lvgl\src\lv_objx/lv_gauge.h ****  * @param line_cnt count of scale lines.
 117:..\..\..\lvgl\version_6.1.2\lvgl\src\lv_objx/lv_gauge.h ****  * The get a given "subdivision" lines between label, `line_cnt` = (sub_div + 1) * (label_cnt - 1) 
 118:..\..\..\lvgl\version_6.1.2\lvgl\src\lv_objx/lv_gauge.h ****  * 1
 119:..\..\..\lvgl\version_6.1.2\lvgl\src\lv_objx/lv_gauge.h ****  * @param label_cnt count of scale labels.
 120:..\..\..\lvgl\version_6.1.2\lvgl\src\lv_objx/lv_gauge.h ****  */
 121:..\..\..\lvgl\version_6.1.2\lvgl\src\lv_objx/lv_gauge.h **** void lv_gauge_set_scale(lv_obj_t * gauge, uint16_t angle, uint8_t line_cnt, uint8_t label_cnt);
 122:..\..\..\lvgl\version_6.1.2\lvgl\src\lv_objx/lv_gauge.h **** 
 123:..\..\..\lvgl\version_6.1.2\lvgl\src\lv_objx/lv_gauge.h **** /**
 124:..\..\..\lvgl\version_6.1.2\lvgl\src\lv_objx/lv_gauge.h ****  * Set the styles of a gauge
 125:..\..\..\lvgl\version_6.1.2\lvgl\src\lv_objx/lv_gauge.h ****  * @param gauge pointer to a gauge object
 126:..\..\..\lvgl\version_6.1.2\lvgl\src\lv_objx/lv_gauge.h ****  * @param type which style should be set (can be only `LV_GAUGE_STYLE_MAIN`)
 127:..\..\..\lvgl\version_6.1.2\lvgl\src\lv_objx/lv_gauge.h ****  * @param style set the style of the gauge
 128:..\..\..\lvgl\version_6.1.2\lvgl\src\lv_objx/lv_gauge.h ****  *  */
 129:..\..\..\lvgl\version_6.1.2\lvgl\src\lv_objx/lv_gauge.h **** static inline void lv_gauge_set_style(lv_obj_t * gauge, lv_gauge_style_t type, lv_style_t * style)
 130:..\..\..\lvgl\version_6.1.2\lvgl\src\lv_objx/lv_gauge.h **** {
  66              		.loc 1 130 0
  67              		.cfi_startproc
  68              		@ args = 0, pretend = 0, frame = 16
  69              		@ frame_needed = 1, uses_anonymous_args = 0
  70 0000 80B5     		push	{r7, lr}
  71              		.cfi_def_cfa_offset 8
  72              		.cfi_offset 7, -8
  73              		.cfi_offset 14, -4
  74 0002 84B0     		sub	sp, sp, #16
  75              		.cfi_def_cfa_offset 24
  76 0004 00AF     		add	r7, sp, #0
  77              		.cfi_def_cfa_register 7
  78 0006 F860     		str	r0, [r7, #12]
  79 0008 0B46     		mov	r3, r1
  80 000a 7A60     		str	r2, [r7, #4]
  81 000c FB72     		strb	r3, [r7, #11]
 131:..\..\..\lvgl\version_6.1.2\lvgl\src\lv_objx/lv_gauge.h ****     (void)type; /*Unused*/
 132:..\..\..\lvgl\version_6.1.2\lvgl\src\lv_objx/lv_gauge.h ****     lv_obj_set_style(gauge, style);
  82              		.loc 1 132 0
  83 000e 7968     		ldr	r1, [r7, #4]
  84 0010 F868     		ldr	r0, [r7, #12]
  85 0012 FFF7FEFF 		bl	lv_obj_set_style
 133:..\..\..\lvgl\version_6.1.2\lvgl\src\lv_objx/lv_gauge.h **** }
  86              		.loc 1 133 0
  87 0016 00BF     		nop
  88 0018 1037     		adds	r7, r7, #16
  89              		.cfi_def_cfa_offset 8
  90 001a BD46     		mov	sp, r7
  91              		.cfi_def_cfa_register 13
  92              		@ sp needed
  93 001c 80BD     		pop	{r7, pc}
  94              		.cfi_endproc
  95              	.LFE39:
ARM GAS  C:\Users\tmj32\AppData\Local\Temp\ccmyxrAJ.s 			page 5


  96              		.size	lv_gauge_set_style, .-lv_gauge_set_style
  97 001e 00BF     		.section	.text.lv_gauge_get_min_value,"ax",%progbits
  98              		.align	2
  99              		.thumb
 100              		.thumb_func
 101              		.type	lv_gauge_get_min_value, %function
 102              	lv_gauge_get_min_value:
 103              	.LFB40:
 134:..\..\..\lvgl\version_6.1.2\lvgl\src\lv_objx/lv_gauge.h **** 
 135:..\..\..\lvgl\version_6.1.2\lvgl\src\lv_objx/lv_gauge.h **** /*=====================
 136:..\..\..\lvgl\version_6.1.2\lvgl\src\lv_objx/lv_gauge.h ****  * Getter functions
 137:..\..\..\lvgl\version_6.1.2\lvgl\src\lv_objx/lv_gauge.h ****  *====================*/
 138:..\..\..\lvgl\version_6.1.2\lvgl\src\lv_objx/lv_gauge.h **** 
 139:..\..\..\lvgl\version_6.1.2\lvgl\src\lv_objx/lv_gauge.h **** /**
 140:..\..\..\lvgl\version_6.1.2\lvgl\src\lv_objx/lv_gauge.h ****  * Get the value of a needle
 141:..\..\..\lvgl\version_6.1.2\lvgl\src\lv_objx/lv_gauge.h ****  * @param gauge pointer to gauge object
 142:..\..\..\lvgl\version_6.1.2\lvgl\src\lv_objx/lv_gauge.h ****  * @param needle the id of the needle
 143:..\..\..\lvgl\version_6.1.2\lvgl\src\lv_objx/lv_gauge.h ****  * @return the value of the needle [min,max]
 144:..\..\..\lvgl\version_6.1.2\lvgl\src\lv_objx/lv_gauge.h ****  */
 145:..\..\..\lvgl\version_6.1.2\lvgl\src\lv_objx/lv_gauge.h **** int16_t lv_gauge_get_value(const lv_obj_t * gauge, uint8_t needle);
 146:..\..\..\lvgl\version_6.1.2\lvgl\src\lv_objx/lv_gauge.h **** 
 147:..\..\..\lvgl\version_6.1.2\lvgl\src\lv_objx/lv_gauge.h **** /**
 148:..\..\..\lvgl\version_6.1.2\lvgl\src\lv_objx/lv_gauge.h ****  * Get the count of needles on a gauge
 149:..\..\..\lvgl\version_6.1.2\lvgl\src\lv_objx/lv_gauge.h ****  * @param gauge pointer to gauge
 150:..\..\..\lvgl\version_6.1.2\lvgl\src\lv_objx/lv_gauge.h ****  * @return count of needles
 151:..\..\..\lvgl\version_6.1.2\lvgl\src\lv_objx/lv_gauge.h ****  */
 152:..\..\..\lvgl\version_6.1.2\lvgl\src\lv_objx/lv_gauge.h **** uint8_t lv_gauge_get_needle_count(const lv_obj_t * gauge);
 153:..\..\..\lvgl\version_6.1.2\lvgl\src\lv_objx/lv_gauge.h **** 
 154:..\..\..\lvgl\version_6.1.2\lvgl\src\lv_objx/lv_gauge.h **** /**
 155:..\..\..\lvgl\version_6.1.2\lvgl\src\lv_objx/lv_gauge.h ****  * Get the minimum value of a gauge
 156:..\..\..\lvgl\version_6.1.2\lvgl\src\lv_objx/lv_gauge.h ****  * @param gauge pointer to a gauge object
 157:..\..\..\lvgl\version_6.1.2\lvgl\src\lv_objx/lv_gauge.h ****  * @return the minimum value of the gauge
 158:..\..\..\lvgl\version_6.1.2\lvgl\src\lv_objx/lv_gauge.h ****  */
 159:..\..\..\lvgl\version_6.1.2\lvgl\src\lv_objx/lv_gauge.h **** static inline int16_t lv_gauge_get_min_value(const lv_obj_t * lmeter)
 160:..\..\..\lvgl\version_6.1.2\lvgl\src\lv_objx/lv_gauge.h **** {
 104              		.loc 1 160 0
 105              		.cfi_startproc
 106              		@ args = 0, pretend = 0, frame = 8
 107              		@ frame_needed = 1, uses_anonymous_args = 0
 108 0000 80B5     		push	{r7, lr}
 109              		.cfi_def_cfa_offset 8
 110              		.cfi_offset 7, -8
 111              		.cfi_offset 14, -4
 112 0002 82B0     		sub	sp, sp, #8
 113              		.cfi_def_cfa_offset 16
 114 0004 00AF     		add	r7, sp, #0
 115              		.cfi_def_cfa_register 7
 116 0006 7860     		str	r0, [r7, #4]
 161:..\..\..\lvgl\version_6.1.2\lvgl\src\lv_objx/lv_gauge.h ****     return lv_lmeter_get_min_value(lmeter);
 117              		.loc 1 161 0
 118 0008 7868     		ldr	r0, [r7, #4]
 119 000a FFF7FEFF 		bl	lv_lmeter_get_min_value
 120 000e 0346     		mov	r3, r0
 162:..\..\..\lvgl\version_6.1.2\lvgl\src\lv_objx/lv_gauge.h **** }
 121              		.loc 1 162 0
 122 0010 1846     		mov	r0, r3
 123 0012 0837     		adds	r7, r7, #8
ARM GAS  C:\Users\tmj32\AppData\Local\Temp\ccmyxrAJ.s 			page 6


 124              		.cfi_def_cfa_offset 8
 125 0014 BD46     		mov	sp, r7
 126              		.cfi_def_cfa_register 13
 127              		@ sp needed
 128 0016 80BD     		pop	{r7, pc}
 129              		.cfi_endproc
 130              	.LFE40:
 131              		.size	lv_gauge_get_min_value, .-lv_gauge_get_min_value
 132              		.section	.text.lv_gauge_get_max_value,"ax",%progbits
 133              		.align	2
 134              		.thumb
 135              		.thumb_func
 136              		.type	lv_gauge_get_max_value, %function
 137              	lv_gauge_get_max_value:
 138              	.LFB41:
 163:..\..\..\lvgl\version_6.1.2\lvgl\src\lv_objx/lv_gauge.h **** 
 164:..\..\..\lvgl\version_6.1.2\lvgl\src\lv_objx/lv_gauge.h **** /**
 165:..\..\..\lvgl\version_6.1.2\lvgl\src\lv_objx/lv_gauge.h ****  * Get the maximum value of a gauge
 166:..\..\..\lvgl\version_6.1.2\lvgl\src\lv_objx/lv_gauge.h ****  * @param gauge pointer to a gauge object
 167:..\..\..\lvgl\version_6.1.2\lvgl\src\lv_objx/lv_gauge.h ****  * @return the maximum value of the gauge
 168:..\..\..\lvgl\version_6.1.2\lvgl\src\lv_objx/lv_gauge.h ****  */
 169:..\..\..\lvgl\version_6.1.2\lvgl\src\lv_objx/lv_gauge.h **** static inline int16_t lv_gauge_get_max_value(const lv_obj_t * lmeter)
 170:..\..\..\lvgl\version_6.1.2\lvgl\src\lv_objx/lv_gauge.h **** {
 139              		.loc 1 170 0
 140              		.cfi_startproc
 141              		@ args = 0, pretend = 0, frame = 8
 142              		@ frame_needed = 1, uses_anonymous_args = 0
 143 0000 80B5     		push	{r7, lr}
 144              		.cfi_def_cfa_offset 8
 145              		.cfi_offset 7, -8
 146              		.cfi_offset 14, -4
 147 0002 82B0     		sub	sp, sp, #8
 148              		.cfi_def_cfa_offset 16
 149 0004 00AF     		add	r7, sp, #0
 150              		.cfi_def_cfa_register 7
 151 0006 7860     		str	r0, [r7, #4]
 171:..\..\..\lvgl\version_6.1.2\lvgl\src\lv_objx/lv_gauge.h ****     return lv_lmeter_get_max_value(lmeter);
 152              		.loc 1 171 0
 153 0008 7868     		ldr	r0, [r7, #4]
 154 000a FFF7FEFF 		bl	lv_lmeter_get_max_value
 155 000e 0346     		mov	r3, r0
 172:..\..\..\lvgl\version_6.1.2\lvgl\src\lv_objx/lv_gauge.h **** }
 156              		.loc 1 172 0
 157 0010 1846     		mov	r0, r3
 158 0012 0837     		adds	r7, r7, #8
 159              		.cfi_def_cfa_offset 8
 160 0014 BD46     		mov	sp, r7
 161              		.cfi_def_cfa_register 13
 162              		@ sp needed
 163 0016 80BD     		pop	{r7, pc}
 164              		.cfi_endproc
 165              	.LFE41:
 166              		.size	lv_gauge_get_max_value, .-lv_gauge_get_max_value
 167              		.section	.text.lv_gauge_get_style,"ax",%progbits
 168              		.align	2
 169              		.thumb
 170              		.thumb_func
ARM GAS  C:\Users\tmj32\AppData\Local\Temp\ccmyxrAJ.s 			page 7


 171              		.type	lv_gauge_get_style, %function
 172              	lv_gauge_get_style:
 173              	.LFB45:
 173:..\..\..\lvgl\version_6.1.2\lvgl\src\lv_objx/lv_gauge.h **** 
 174:..\..\..\lvgl\version_6.1.2\lvgl\src\lv_objx/lv_gauge.h **** /**
 175:..\..\..\lvgl\version_6.1.2\lvgl\src\lv_objx/lv_gauge.h ****  * Get a critical value on the scale.
 176:..\..\..\lvgl\version_6.1.2\lvgl\src\lv_objx/lv_gauge.h ****  * @param gauge pointer to a gauge object
 177:..\..\..\lvgl\version_6.1.2\lvgl\src\lv_objx/lv_gauge.h ****  * @return the critical value
 178:..\..\..\lvgl\version_6.1.2\lvgl\src\lv_objx/lv_gauge.h ****  */
 179:..\..\..\lvgl\version_6.1.2\lvgl\src\lv_objx/lv_gauge.h **** static inline int16_t lv_gauge_get_critical_value(const lv_obj_t * gauge)
 180:..\..\..\lvgl\version_6.1.2\lvgl\src\lv_objx/lv_gauge.h **** {
 181:..\..\..\lvgl\version_6.1.2\lvgl\src\lv_objx/lv_gauge.h ****     return lv_lmeter_get_value(gauge);
 182:..\..\..\lvgl\version_6.1.2\lvgl\src\lv_objx/lv_gauge.h **** }
 183:..\..\..\lvgl\version_6.1.2\lvgl\src\lv_objx/lv_gauge.h **** 
 184:..\..\..\lvgl\version_6.1.2\lvgl\src\lv_objx/lv_gauge.h **** /**
 185:..\..\..\lvgl\version_6.1.2\lvgl\src\lv_objx/lv_gauge.h ****  * Set the number of labels (and the thicker lines too)
 186:..\..\..\lvgl\version_6.1.2\lvgl\src\lv_objx/lv_gauge.h ****  * @param gauge pointer to a gauge object
 187:..\..\..\lvgl\version_6.1.2\lvgl\src\lv_objx/lv_gauge.h ****  * @return count of labels
 188:..\..\..\lvgl\version_6.1.2\lvgl\src\lv_objx/lv_gauge.h ****  */
 189:..\..\..\lvgl\version_6.1.2\lvgl\src\lv_objx/lv_gauge.h **** uint8_t lv_gauge_get_label_count(const lv_obj_t * gauge);
 190:..\..\..\lvgl\version_6.1.2\lvgl\src\lv_objx/lv_gauge.h **** 
 191:..\..\..\lvgl\version_6.1.2\lvgl\src\lv_objx/lv_gauge.h **** /**
 192:..\..\..\lvgl\version_6.1.2\lvgl\src\lv_objx/lv_gauge.h ****  * Get the scale number of a gauge
 193:..\..\..\lvgl\version_6.1.2\lvgl\src\lv_objx/lv_gauge.h ****  * @param gauge pointer to a gauge object
 194:..\..\..\lvgl\version_6.1.2\lvgl\src\lv_objx/lv_gauge.h ****  * @return number of the scale units
 195:..\..\..\lvgl\version_6.1.2\lvgl\src\lv_objx/lv_gauge.h ****  */
 196:..\..\..\lvgl\version_6.1.2\lvgl\src\lv_objx/lv_gauge.h **** static inline uint16_t lv_gauge_get_line_count(const lv_obj_t * gauge)
 197:..\..\..\lvgl\version_6.1.2\lvgl\src\lv_objx/lv_gauge.h **** {
 198:..\..\..\lvgl\version_6.1.2\lvgl\src\lv_objx/lv_gauge.h ****     return lv_lmeter_get_line_count(gauge);
 199:..\..\..\lvgl\version_6.1.2\lvgl\src\lv_objx/lv_gauge.h **** }
 200:..\..\..\lvgl\version_6.1.2\lvgl\src\lv_objx/lv_gauge.h **** 
 201:..\..\..\lvgl\version_6.1.2\lvgl\src\lv_objx/lv_gauge.h **** /**
 202:..\..\..\lvgl\version_6.1.2\lvgl\src\lv_objx/lv_gauge.h ****  * Get the scale angle of a gauge
 203:..\..\..\lvgl\version_6.1.2\lvgl\src\lv_objx/lv_gauge.h ****  * @param gauge pointer to a gauge object
 204:..\..\..\lvgl\version_6.1.2\lvgl\src\lv_objx/lv_gauge.h ****  * @return angle of the scale
 205:..\..\..\lvgl\version_6.1.2\lvgl\src\lv_objx/lv_gauge.h ****  */
 206:..\..\..\lvgl\version_6.1.2\lvgl\src\lv_objx/lv_gauge.h **** static inline uint16_t lv_gauge_get_scale_angle(const lv_obj_t * gauge)
 207:..\..\..\lvgl\version_6.1.2\lvgl\src\lv_objx/lv_gauge.h **** {
 208:..\..\..\lvgl\version_6.1.2\lvgl\src\lv_objx/lv_gauge.h ****     return lv_lmeter_get_scale_angle(gauge);
 209:..\..\..\lvgl\version_6.1.2\lvgl\src\lv_objx/lv_gauge.h **** }
 210:..\..\..\lvgl\version_6.1.2\lvgl\src\lv_objx/lv_gauge.h **** 
 211:..\..\..\lvgl\version_6.1.2\lvgl\src\lv_objx/lv_gauge.h **** /**
 212:..\..\..\lvgl\version_6.1.2\lvgl\src\lv_objx/lv_gauge.h ****  * Get the style of a gauge
 213:..\..\..\lvgl\version_6.1.2\lvgl\src\lv_objx/lv_gauge.h ****  * @param gauge pointer to a gauge object
 214:..\..\..\lvgl\version_6.1.2\lvgl\src\lv_objx/lv_gauge.h ****  * @param type which style should be get (can be only `LV_GAUGE_STYLE_MAIN`)
 215:..\..\..\lvgl\version_6.1.2\lvgl\src\lv_objx/lv_gauge.h ****  * @return pointer to the gauge's style
 216:..\..\..\lvgl\version_6.1.2\lvgl\src\lv_objx/lv_gauge.h ****  */
 217:..\..\..\lvgl\version_6.1.2\lvgl\src\lv_objx/lv_gauge.h **** static inline const lv_style_t * lv_gauge_get_style(const lv_obj_t * gauge, lv_gauge_style_t type)
 218:..\..\..\lvgl\version_6.1.2\lvgl\src\lv_objx/lv_gauge.h **** {
 174              		.loc 1 218 0
 175              		.cfi_startproc
 176              		@ args = 0, pretend = 0, frame = 8
 177              		@ frame_needed = 1, uses_anonymous_args = 0
 178 0000 80B5     		push	{r7, lr}
 179              		.cfi_def_cfa_offset 8
 180              		.cfi_offset 7, -8
 181              		.cfi_offset 14, -4
ARM GAS  C:\Users\tmj32\AppData\Local\Temp\ccmyxrAJ.s 			page 8


 182 0002 82B0     		sub	sp, sp, #8
 183              		.cfi_def_cfa_offset 16
 184 0004 00AF     		add	r7, sp, #0
 185              		.cfi_def_cfa_register 7
 186 0006 7860     		str	r0, [r7, #4]
 187 0008 0B46     		mov	r3, r1
 188 000a FB70     		strb	r3, [r7, #3]
 219:..\..\..\lvgl\version_6.1.2\lvgl\src\lv_objx/lv_gauge.h ****     (void)type; /*Unused*/
 220:..\..\..\lvgl\version_6.1.2\lvgl\src\lv_objx/lv_gauge.h ****     return lv_obj_get_style(gauge);
 189              		.loc 1 220 0
 190 000c 7868     		ldr	r0, [r7, #4]
 191 000e FFF7FEFF 		bl	lv_obj_get_style
 192 0012 0346     		mov	r3, r0
 221:..\..\..\lvgl\version_6.1.2\lvgl\src\lv_objx/lv_gauge.h **** }
 193              		.loc 1 221 0
 194 0014 1846     		mov	r0, r3
 195 0016 0837     		adds	r7, r7, #8
 196              		.cfi_def_cfa_offset 8
 197 0018 BD46     		mov	sp, r7
 198              		.cfi_def_cfa_register 13
 199              		@ sp needed
 200 001a 80BD     		pop	{r7, pc}
 201              		.cfi_endproc
 202              	.LFE45:
 203              		.size	lv_gauge_get_style, .-lv_gauge_get_style
 204              		.bss
 205              		.align	2
 206              	ancestor_design:
 207 0000 00000000 		.space	4
 208              		.align	2
 209              	ancestor_signal:
 210 0004 00000000 		.space	4
 211              		.section	.text.lv_gauge_create,"ax",%progbits
 212              		.align	2
 213              		.global	lv_gauge_create
 214              		.thumb
 215              		.thumb_func
 216              		.type	lv_gauge_create, %function
 217              	lv_gauge_create:
 218              	.LFB47:
 219              		.file 2 "..\\..\\..\\lvgl\\version_6.1.2\\lvgl\\src\\lv_objx\\lv_gauge.c"
   1:..\..\..\lvgl\version_6.1.2\lvgl\src\lv_objx/lv_gauge.c **** /**
   2:..\..\..\lvgl\version_6.1.2\lvgl\src\lv_objx/lv_gauge.c ****  * @file lv_gauge.c
   3:..\..\..\lvgl\version_6.1.2\lvgl\src\lv_objx/lv_gauge.c ****  *
   4:..\..\..\lvgl\version_6.1.2\lvgl\src\lv_objx/lv_gauge.c ****  */
   5:..\..\..\lvgl\version_6.1.2\lvgl\src\lv_objx/lv_gauge.c **** 
   6:..\..\..\lvgl\version_6.1.2\lvgl\src\lv_objx/lv_gauge.c **** /*********************
   7:..\..\..\lvgl\version_6.1.2\lvgl\src\lv_objx/lv_gauge.c ****  *      INCLUDES
   8:..\..\..\lvgl\version_6.1.2\lvgl\src\lv_objx/lv_gauge.c ****  *********************/
   9:..\..\..\lvgl\version_6.1.2\lvgl\src\lv_objx/lv_gauge.c **** #include "lv_gauge.h"
  10:..\..\..\lvgl\version_6.1.2\lvgl\src\lv_objx/lv_gauge.c **** #if LV_USE_GAUGE != 0
  11:..\..\..\lvgl\version_6.1.2\lvgl\src\lv_objx/lv_gauge.c **** 
  12:..\..\..\lvgl\version_6.1.2\lvgl\src\lv_objx/lv_gauge.c **** #include "../lv_core/lv_debug.h"
  13:..\..\..\lvgl\version_6.1.2\lvgl\src\lv_objx/lv_gauge.c **** #include "../lv_draw/lv_draw.h"
  14:..\..\..\lvgl\version_6.1.2\lvgl\src\lv_objx/lv_gauge.c **** #include "../lv_themes/lv_theme.h"
  15:..\..\..\lvgl\version_6.1.2\lvgl\src\lv_objx/lv_gauge.c **** #include "../lv_misc/lv_txt.h"
  16:..\..\..\lvgl\version_6.1.2\lvgl\src\lv_objx/lv_gauge.c **** #include "../lv_misc/lv_math.h"
ARM GAS  C:\Users\tmj32\AppData\Local\Temp\ccmyxrAJ.s 			page 9


  17:..\..\..\lvgl\version_6.1.2\lvgl\src\lv_objx/lv_gauge.c **** #include "../lv_misc/lv_utils.h"
  18:..\..\..\lvgl\version_6.1.2\lvgl\src\lv_objx/lv_gauge.c **** #include <stdio.h>
  19:..\..\..\lvgl\version_6.1.2\lvgl\src\lv_objx/lv_gauge.c **** #include <string.h>
  20:..\..\..\lvgl\version_6.1.2\lvgl\src\lv_objx/lv_gauge.c **** 
  21:..\..\..\lvgl\version_6.1.2\lvgl\src\lv_objx/lv_gauge.c **** /*********************
  22:..\..\..\lvgl\version_6.1.2\lvgl\src\lv_objx/lv_gauge.c ****  *      DEFINES
  23:..\..\..\lvgl\version_6.1.2\lvgl\src\lv_objx/lv_gauge.c ****  *********************/
  24:..\..\..\lvgl\version_6.1.2\lvgl\src\lv_objx/lv_gauge.c **** #define LV_OBJX_NAME "lv_gauge"
  25:..\..\..\lvgl\version_6.1.2\lvgl\src\lv_objx/lv_gauge.c **** 
  26:..\..\..\lvgl\version_6.1.2\lvgl\src\lv_objx/lv_gauge.c **** #define LV_GAUGE_DEF_NEEDLE_COLOR LV_COLOR_RED
  27:..\..\..\lvgl\version_6.1.2\lvgl\src\lv_objx/lv_gauge.c **** #define LV_GAUGE_DEF_LABEL_COUNT 6
  28:..\..\..\lvgl\version_6.1.2\lvgl\src\lv_objx/lv_gauge.c **** #define LV_GAUGE_DEF_LINE_COUNT 21 /*Should be: ((label_cnt - 1) * internal_lines) + 1*/
  29:..\..\..\lvgl\version_6.1.2\lvgl\src\lv_objx/lv_gauge.c **** #define LV_GAUGE_DEF_ANGLE 220
  30:..\..\..\lvgl\version_6.1.2\lvgl\src\lv_objx/lv_gauge.c **** #define LV_GAUGE_INTERPOLATE_SHIFT 5 /*Interpolate the needle drawing between to degrees*/
  31:..\..\..\lvgl\version_6.1.2\lvgl\src\lv_objx/lv_gauge.c **** #define LV_GAUGE_INTERPOLATE_MASK 0x1F
  32:..\..\..\lvgl\version_6.1.2\lvgl\src\lv_objx/lv_gauge.c **** 
  33:..\..\..\lvgl\version_6.1.2\lvgl\src\lv_objx/lv_gauge.c **** /**********************
  34:..\..\..\lvgl\version_6.1.2\lvgl\src\lv_objx/lv_gauge.c ****  *      TYPEDEFS
  35:..\..\..\lvgl\version_6.1.2\lvgl\src\lv_objx/lv_gauge.c ****  **********************/
  36:..\..\..\lvgl\version_6.1.2\lvgl\src\lv_objx/lv_gauge.c **** 
  37:..\..\..\lvgl\version_6.1.2\lvgl\src\lv_objx/lv_gauge.c **** /**********************
  38:..\..\..\lvgl\version_6.1.2\lvgl\src\lv_objx/lv_gauge.c ****  *  STATIC PROTOTYPES
  39:..\..\..\lvgl\version_6.1.2\lvgl\src\lv_objx/lv_gauge.c ****  **********************/
  40:..\..\..\lvgl\version_6.1.2\lvgl\src\lv_objx/lv_gauge.c **** static bool lv_gauge_design(lv_obj_t * gauge, const lv_area_t * mask, lv_design_mode_t mode);
  41:..\..\..\lvgl\version_6.1.2\lvgl\src\lv_objx/lv_gauge.c **** static lv_res_t lv_gauge_signal(lv_obj_t * gauge, lv_signal_t sign, void * param);
  42:..\..\..\lvgl\version_6.1.2\lvgl\src\lv_objx/lv_gauge.c **** static void lv_gauge_draw_scale(lv_obj_t * gauge, const lv_area_t * mask);
  43:..\..\..\lvgl\version_6.1.2\lvgl\src\lv_objx/lv_gauge.c **** static void lv_gauge_draw_needle(lv_obj_t * gauge, const lv_area_t * mask);
  44:..\..\..\lvgl\version_6.1.2\lvgl\src\lv_objx/lv_gauge.c **** 
  45:..\..\..\lvgl\version_6.1.2\lvgl\src\lv_objx/lv_gauge.c **** /**********************
  46:..\..\..\lvgl\version_6.1.2\lvgl\src\lv_objx/lv_gauge.c ****  *  STATIC VARIABLES
  47:..\..\..\lvgl\version_6.1.2\lvgl\src\lv_objx/lv_gauge.c ****  **********************/
  48:..\..\..\lvgl\version_6.1.2\lvgl\src\lv_objx/lv_gauge.c **** static lv_design_cb_t ancestor_design;
  49:..\..\..\lvgl\version_6.1.2\lvgl\src\lv_objx/lv_gauge.c **** static lv_signal_cb_t ancestor_signal;
  50:..\..\..\lvgl\version_6.1.2\lvgl\src\lv_objx/lv_gauge.c **** 
  51:..\..\..\lvgl\version_6.1.2\lvgl\src\lv_objx/lv_gauge.c **** /**********************
  52:..\..\..\lvgl\version_6.1.2\lvgl\src\lv_objx/lv_gauge.c ****  *      MACROS
  53:..\..\..\lvgl\version_6.1.2\lvgl\src\lv_objx/lv_gauge.c ****  **********************/
  54:..\..\..\lvgl\version_6.1.2\lvgl\src\lv_objx/lv_gauge.c **** 
  55:..\..\..\lvgl\version_6.1.2\lvgl\src\lv_objx/lv_gauge.c **** /**********************
  56:..\..\..\lvgl\version_6.1.2\lvgl\src\lv_objx/lv_gauge.c ****  *   GLOBAL FUNCTIONS
  57:..\..\..\lvgl\version_6.1.2\lvgl\src\lv_objx/lv_gauge.c ****  **********************/
  58:..\..\..\lvgl\version_6.1.2\lvgl\src\lv_objx/lv_gauge.c **** 
  59:..\..\..\lvgl\version_6.1.2\lvgl\src\lv_objx/lv_gauge.c **** /**
  60:..\..\..\lvgl\version_6.1.2\lvgl\src\lv_objx/lv_gauge.c ****  * Create a gauge objects
  61:..\..\..\lvgl\version_6.1.2\lvgl\src\lv_objx/lv_gauge.c ****  * @param par pointer to an object, it will be the parent of the new gauge
  62:..\..\..\lvgl\version_6.1.2\lvgl\src\lv_objx/lv_gauge.c ****  * @param copy pointer to a gauge object, if not NULL then the new object will be copied from it
  63:..\..\..\lvgl\version_6.1.2\lvgl\src\lv_objx/lv_gauge.c ****  * @return pointer to the created gauge
  64:..\..\..\lvgl\version_6.1.2\lvgl\src\lv_objx/lv_gauge.c ****  */
  65:..\..\..\lvgl\version_6.1.2\lvgl\src\lv_objx/lv_gauge.c **** lv_obj_t * lv_gauge_create(lv_obj_t * par, const lv_obj_t * copy)
  66:..\..\..\lvgl\version_6.1.2\lvgl\src\lv_objx/lv_gauge.c **** {
 220              		.loc 2 66 0
 221              		.cfi_startproc
 222              		@ args = 0, pretend = 0, frame = 32
 223              		@ frame_needed = 1, uses_anonymous_args = 0
 224 0000 80B5     		push	{r7, lr}
 225              		.cfi_def_cfa_offset 8
 226              		.cfi_offset 7, -8
ARM GAS  C:\Users\tmj32\AppData\Local\Temp\ccmyxrAJ.s 			page 10


 227              		.cfi_offset 14, -4
 228 0002 88B0     		sub	sp, sp, #32
 229              		.cfi_def_cfa_offset 40
 230 0004 00AF     		add	r7, sp, #0
 231              		.cfi_def_cfa_register 7
 232 0006 7860     		str	r0, [r7, #4]
 233 0008 3960     		str	r1, [r7]
  67:..\..\..\lvgl\version_6.1.2\lvgl\src\lv_objx/lv_gauge.c ****     LV_LOG_TRACE("gauge create started");
  68:..\..\..\lvgl\version_6.1.2\lvgl\src\lv_objx/lv_gauge.c **** 
  69:..\..\..\lvgl\version_6.1.2\lvgl\src\lv_objx/lv_gauge.c ****     /*Create the ancestor gauge*/
  70:..\..\..\lvgl\version_6.1.2\lvgl\src\lv_objx/lv_gauge.c ****     lv_obj_t * new_gauge = lv_lmeter_create(par, copy);
 234              		.loc 2 70 0
 235 000a 3968     		ldr	r1, [r7]
 236 000c 7868     		ldr	r0, [r7, #4]
 237 000e FFF7FEFF 		bl	lv_lmeter_create
 238 0012 B861     		str	r0, [r7, #24]
  71:..\..\..\lvgl\version_6.1.2\lvgl\src\lv_objx/lv_gauge.c ****     LV_ASSERT_MEM(new_gauge);
  72:..\..\..\lvgl\version_6.1.2\lvgl\src\lv_objx/lv_gauge.c ****     if(new_gauge == NULL) return NULL;
 239              		.loc 2 72 0
 240 0014 BB69     		ldr	r3, [r7, #24]
 241 0016 002B     		cmp	r3, #0
 242 0018 01D1     		bne	.L10
 243              		.loc 2 72 0 is_stmt 0 discriminator 1
 244 001a 0023     		movs	r3, #0
 245 001c 8AE0     		b	.L11
 246              	.L10:
  73:..\..\..\lvgl\version_6.1.2\lvgl\src\lv_objx/lv_gauge.c **** 
  74:..\..\..\lvgl\version_6.1.2\lvgl\src\lv_objx/lv_gauge.c ****     /*Allocate the gauge type specific extended data*/
  75:..\..\..\lvgl\version_6.1.2\lvgl\src\lv_objx/lv_gauge.c ****     lv_gauge_ext_t * ext = lv_obj_allocate_ext_attr(new_gauge, sizeof(lv_gauge_ext_t));
 247              		.loc 2 75 0 is_stmt 1
 248 001e 1821     		movs	r1, #24
 249 0020 B869     		ldr	r0, [r7, #24]
 250 0022 FFF7FEFF 		bl	lv_obj_allocate_ext_attr
 251 0026 7861     		str	r0, [r7, #20]
  76:..\..\..\lvgl\version_6.1.2\lvgl\src\lv_objx/lv_gauge.c ****     LV_ASSERT_MEM(ext);
  77:..\..\..\lvgl\version_6.1.2\lvgl\src\lv_objx/lv_gauge.c ****     if(ext == NULL) return NULL;
 252              		.loc 2 77 0
 253 0028 7B69     		ldr	r3, [r7, #20]
 254 002a 002B     		cmp	r3, #0
 255 002c 01D1     		bne	.L12
 256              		.loc 2 77 0 is_stmt 0 discriminator 1
 257 002e 0023     		movs	r3, #0
 258 0030 80E0     		b	.L11
 259              	.L12:
  78:..\..\..\lvgl\version_6.1.2\lvgl\src\lv_objx/lv_gauge.c **** 
  79:..\..\..\lvgl\version_6.1.2\lvgl\src\lv_objx/lv_gauge.c ****     /*Initialize the allocated 'ext' */
  80:..\..\..\lvgl\version_6.1.2\lvgl\src\lv_objx/lv_gauge.c ****     ext->needle_count  = 0;
 260              		.loc 2 80 0 is_stmt 1
 261 0032 7B69     		ldr	r3, [r7, #20]
 262 0034 0022     		movs	r2, #0
 263 0036 1A75     		strb	r2, [r3, #20]
  81:..\..\..\lvgl\version_6.1.2\lvgl\src\lv_objx/lv_gauge.c ****     ext->values        = NULL;
 264              		.loc 2 81 0
 265 0038 7B69     		ldr	r3, [r7, #20]
 266 003a 0022     		movs	r2, #0
 267 003c DA60     		str	r2, [r3, #12]
  82:..\..\..\lvgl\version_6.1.2\lvgl\src\lv_objx/lv_gauge.c ****     ext->needle_colors = NULL;
ARM GAS  C:\Users\tmj32\AppData\Local\Temp\ccmyxrAJ.s 			page 11


 268              		.loc 2 82 0
 269 003e 7B69     		ldr	r3, [r7, #20]
 270 0040 0022     		movs	r2, #0
 271 0042 1A61     		str	r2, [r3, #16]
  83:..\..\..\lvgl\version_6.1.2\lvgl\src\lv_objx/lv_gauge.c ****     ext->label_count   = LV_GAUGE_DEF_LABEL_COUNT;
 272              		.loc 2 83 0
 273 0044 7B69     		ldr	r3, [r7, #20]
 274 0046 0622     		movs	r2, #6
 275 0048 5A75     		strb	r2, [r3, #21]
  84:..\..\..\lvgl\version_6.1.2\lvgl\src\lv_objx/lv_gauge.c ****     if(ancestor_signal == NULL) ancestor_signal = lv_obj_get_signal_cb(new_gauge);
 276              		.loc 2 84 0
 277 004a 3C4B     		ldr	r3, .L21
 278 004c 1B68     		ldr	r3, [r3]
 279 004e 002B     		cmp	r3, #0
 280 0050 05D1     		bne	.L13
 281              		.loc 2 84 0 is_stmt 0 discriminator 1
 282 0052 B869     		ldr	r0, [r7, #24]
 283 0054 FFF7FEFF 		bl	lv_obj_get_signal_cb
 284 0058 0246     		mov	r2, r0
 285 005a 384B     		ldr	r3, .L21
 286 005c 1A60     		str	r2, [r3]
 287              	.L13:
  85:..\..\..\lvgl\version_6.1.2\lvgl\src\lv_objx/lv_gauge.c ****     if(ancestor_design == NULL) ancestor_design = lv_obj_get_design_cb(new_gauge);
 288              		.loc 2 85 0 is_stmt 1
 289 005e 384B     		ldr	r3, .L21+4
 290 0060 1B68     		ldr	r3, [r3]
 291 0062 002B     		cmp	r3, #0
 292 0064 05D1     		bne	.L14
 293              		.loc 2 85 0 is_stmt 0 discriminator 1
 294 0066 B869     		ldr	r0, [r7, #24]
 295 0068 FFF7FEFF 		bl	lv_obj_get_design_cb
 296 006c 0246     		mov	r2, r0
 297 006e 344B     		ldr	r3, .L21+4
 298 0070 1A60     		str	r2, [r3]
 299              	.L14:
  86:..\..\..\lvgl\version_6.1.2\lvgl\src\lv_objx/lv_gauge.c **** 
  87:..\..\..\lvgl\version_6.1.2\lvgl\src\lv_objx/lv_gauge.c ****     /*The signal and design functions are not copied so set them here*/
  88:..\..\..\lvgl\version_6.1.2\lvgl\src\lv_objx/lv_gauge.c ****     lv_obj_set_signal_cb(new_gauge, lv_gauge_signal);
 300              		.loc 2 88 0 is_stmt 1
 301 0072 3449     		ldr	r1, .L21+8
 302 0074 B869     		ldr	r0, [r7, #24]
 303 0076 FFF7FEFF 		bl	lv_obj_set_signal_cb
  89:..\..\..\lvgl\version_6.1.2\lvgl\src\lv_objx/lv_gauge.c ****     lv_obj_set_design_cb(new_gauge, lv_gauge_design);
 304              		.loc 2 89 0
 305 007a 3349     		ldr	r1, .L21+12
 306 007c B869     		ldr	r0, [r7, #24]
 307 007e FFF7FEFF 		bl	lv_obj_set_design_cb
  90:..\..\..\lvgl\version_6.1.2\lvgl\src\lv_objx/lv_gauge.c **** 
  91:..\..\..\lvgl\version_6.1.2\lvgl\src\lv_objx/lv_gauge.c ****     /*Init the new gauge gauge*/
  92:..\..\..\lvgl\version_6.1.2\lvgl\src\lv_objx/lv_gauge.c ****     if(copy == NULL) {
 308              		.loc 2 92 0
 309 0082 3B68     		ldr	r3, [r7]
 310 0084 002B     		cmp	r3, #0
 311 0086 29D1     		bne	.L15
 312              	.LBB2:
  93:..\..\..\lvgl\version_6.1.2\lvgl\src\lv_objx/lv_gauge.c ****         lv_gauge_set_scale(new_gauge, LV_GAUGE_DEF_ANGLE, LV_GAUGE_DEF_LINE_COUNT, LV_GAUGE_DEF_LAB
 313              		.loc 2 93 0
ARM GAS  C:\Users\tmj32\AppData\Local\Temp\ccmyxrAJ.s 			page 12


 314 0088 0623     		movs	r3, #6
 315 008a 1522     		movs	r2, #21
 316 008c DC21     		movs	r1, #220
 317 008e B869     		ldr	r0, [r7, #24]
 318 0090 FFF7FEFF 		bl	lv_gauge_set_scale
  94:..\..\..\lvgl\version_6.1.2\lvgl\src\lv_objx/lv_gauge.c ****         lv_gauge_set_needle_count(new_gauge, 1, NULL);
 319              		.loc 2 94 0
 320 0094 0022     		movs	r2, #0
 321 0096 0121     		movs	r1, #1
 322 0098 B869     		ldr	r0, [r7, #24]
 323 009a FFF7FEFF 		bl	lv_gauge_set_needle_count
  95:..\..\..\lvgl\version_6.1.2\lvgl\src\lv_objx/lv_gauge.c ****         lv_gauge_set_critical_value(new_gauge, 80);
 324              		.loc 2 95 0
 325 009e 5021     		movs	r1, #80
 326 00a0 B869     		ldr	r0, [r7, #24]
 327 00a2 FFF7FEFF 		bl	lv_gauge_set_critical_value
  96:..\..\..\lvgl\version_6.1.2\lvgl\src\lv_objx/lv_gauge.c ****         lv_obj_set_size(new_gauge, 2 * LV_DPI, 2 * LV_DPI);
 328              		.loc 2 96 0
 329 00a6 4FF49672 		mov	r2, #300
 330 00aa 4FF49671 		mov	r1, #300
 331 00ae B869     		ldr	r0, [r7, #24]
 332 00b0 FFF7FEFF 		bl	lv_obj_set_size
  97:..\..\..\lvgl\version_6.1.2\lvgl\src\lv_objx/lv_gauge.c **** 
  98:..\..\..\lvgl\version_6.1.2\lvgl\src\lv_objx/lv_gauge.c ****         /*Set the default styles*/
  99:..\..\..\lvgl\version_6.1.2\lvgl\src\lv_objx/lv_gauge.c ****         lv_theme_t * th = lv_theme_get_current();
 333              		.loc 2 99 0
 334 00b4 FFF7FEFF 		bl	lv_theme_get_current
 335 00b8 3861     		str	r0, [r7, #16]
 100:..\..\..\lvgl\version_6.1.2\lvgl\src\lv_objx/lv_gauge.c ****         if(th) {
 336              		.loc 2 100 0
 337 00ba 3B69     		ldr	r3, [r7, #16]
 338 00bc 002B     		cmp	r3, #0
 339 00be 07D0     		beq	.L16
 101:..\..\..\lvgl\version_6.1.2\lvgl\src\lv_objx/lv_gauge.c ****             lv_gauge_set_style(new_gauge, LV_GAUGE_STYLE_MAIN, th->style.gauge);
 340              		.loc 2 101 0
 341 00c0 3B69     		ldr	r3, [r7, #16]
 342 00c2 DB6E     		ldr	r3, [r3, #108]
 343 00c4 1A46     		mov	r2, r3
 344 00c6 0021     		movs	r1, #0
 345 00c8 B869     		ldr	r0, [r7, #24]
 346 00ca FFF7FEFF 		bl	lv_gauge_set_style
 347 00ce 30E0     		b	.L18
 348              	.L16:
 102:..\..\..\lvgl\version_6.1.2\lvgl\src\lv_objx/lv_gauge.c ****         } else {
 103:..\..\..\lvgl\version_6.1.2\lvgl\src\lv_objx/lv_gauge.c ****             lv_gauge_set_style(new_gauge, LV_GAUGE_STYLE_MAIN, &lv_style_pretty_color);
 349              		.loc 2 103 0
 350 00d0 1E4A     		ldr	r2, .L21+16
 351 00d2 0021     		movs	r1, #0
 352 00d4 B869     		ldr	r0, [r7, #24]
 353 00d6 FFF7FEFF 		bl	lv_gauge_set_style
 354 00da 2AE0     		b	.L18
 355              	.L15:
 356              	.LBE2:
 357              	.LBB3:
 104:..\..\..\lvgl\version_6.1.2\lvgl\src\lv_objx/lv_gauge.c ****         }
 105:..\..\..\lvgl\version_6.1.2\lvgl\src\lv_objx/lv_gauge.c ****     }
 106:..\..\..\lvgl\version_6.1.2\lvgl\src\lv_objx/lv_gauge.c ****     /*Copy an existing gauge*/
ARM GAS  C:\Users\tmj32\AppData\Local\Temp\ccmyxrAJ.s 			page 13


 107:..\..\..\lvgl\version_6.1.2\lvgl\src\lv_objx/lv_gauge.c ****     else {
 108:..\..\..\lvgl\version_6.1.2\lvgl\src\lv_objx/lv_gauge.c ****         lv_gauge_ext_t * copy_ext = lv_obj_get_ext_attr(copy);
 358              		.loc 2 108 0
 359 00dc 3868     		ldr	r0, [r7]
 360 00de FFF7FEFF 		bl	lv_obj_get_ext_attr
 361 00e2 F860     		str	r0, [r7, #12]
 109:..\..\..\lvgl\version_6.1.2\lvgl\src\lv_objx/lv_gauge.c ****         lv_gauge_set_needle_count(new_gauge, copy_ext->needle_count, copy_ext->needle_colors);
 362              		.loc 2 109 0
 363 00e4 FB68     		ldr	r3, [r7, #12]
 364 00e6 197D     		ldrb	r1, [r3, #20]	@ zero_extendqisi2
 365 00e8 FB68     		ldr	r3, [r7, #12]
 366 00ea 1B69     		ldr	r3, [r3, #16]
 367 00ec 1A46     		mov	r2, r3
 368 00ee B869     		ldr	r0, [r7, #24]
 369 00f0 FFF7FEFF 		bl	lv_gauge_set_needle_count
 110:..\..\..\lvgl\version_6.1.2\lvgl\src\lv_objx/lv_gauge.c **** 
 111:..\..\..\lvgl\version_6.1.2\lvgl\src\lv_objx/lv_gauge.c ****         uint8_t i;
 112:..\..\..\lvgl\version_6.1.2\lvgl\src\lv_objx/lv_gauge.c ****         for(i = 0; i < ext->needle_count; i++) {
 370              		.loc 2 112 0
 371 00f4 0023     		movs	r3, #0
 372 00f6 FB77     		strb	r3, [r7, #31]
 373 00f8 0FE0     		b	.L19
 374              	.L20:
 113:..\..\..\lvgl\version_6.1.2\lvgl\src\lv_objx/lv_gauge.c ****             ext->values[i] = copy_ext->values[i];
 375              		.loc 2 113 0 discriminator 3
 376 00fa 7B69     		ldr	r3, [r7, #20]
 377 00fc DA68     		ldr	r2, [r3, #12]
 378 00fe FB7F     		ldrb	r3, [r7, #31]	@ zero_extendqisi2
 379 0100 5B00     		lsls	r3, r3, #1
 380 0102 1344     		add	r3, r3, r2
 381 0104 FA68     		ldr	r2, [r7, #12]
 382 0106 D168     		ldr	r1, [r2, #12]
 383 0108 FA7F     		ldrb	r2, [r7, #31]	@ zero_extendqisi2
 384 010a 5200     		lsls	r2, r2, #1
 385 010c 0A44     		add	r2, r2, r1
 386 010e B2F90020 		ldrsh	r2, [r2]
 387 0112 1A80     		strh	r2, [r3]	@ movhi
 112:..\..\..\lvgl\version_6.1.2\lvgl\src\lv_objx/lv_gauge.c ****             ext->values[i] = copy_ext->values[i];
 388              		.loc 2 112 0 discriminator 3
 389 0114 FB7F     		ldrb	r3, [r7, #31]	@ zero_extendqisi2
 390 0116 0133     		adds	r3, r3, #1
 391 0118 FB77     		strb	r3, [r7, #31]
 392              	.L19:
 112:..\..\..\lvgl\version_6.1.2\lvgl\src\lv_objx/lv_gauge.c ****             ext->values[i] = copy_ext->values[i];
 393              		.loc 2 112 0 is_stmt 0 discriminator 1
 394 011a 7B69     		ldr	r3, [r7, #20]
 395 011c 1B7D     		ldrb	r3, [r3, #20]	@ zero_extendqisi2
 396 011e FA7F     		ldrb	r2, [r7, #31]	@ zero_extendqisi2
 397 0120 9A42     		cmp	r2, r3
 398 0122 EAD3     		bcc	.L20
 114:..\..\..\lvgl\version_6.1.2\lvgl\src\lv_objx/lv_gauge.c ****         }
 115:..\..\..\lvgl\version_6.1.2\lvgl\src\lv_objx/lv_gauge.c ****         ext->label_count = copy_ext->label_count;
 399              		.loc 2 115 0 is_stmt 1
 400 0124 FB68     		ldr	r3, [r7, #12]
 401 0126 5A7D     		ldrb	r2, [r3, #21]	@ zero_extendqisi2
 402 0128 7B69     		ldr	r3, [r7, #20]
 403 012a 5A75     		strb	r2, [r3, #21]
ARM GAS  C:\Users\tmj32\AppData\Local\Temp\ccmyxrAJ.s 			page 14


 116:..\..\..\lvgl\version_6.1.2\lvgl\src\lv_objx/lv_gauge.c ****         /*Refresh the style with new signal function*/
 117:..\..\..\lvgl\version_6.1.2\lvgl\src\lv_objx/lv_gauge.c ****         lv_obj_refresh_style(new_gauge);
 404              		.loc 2 117 0
 405 012c B869     		ldr	r0, [r7, #24]
 406 012e FFF7FEFF 		bl	lv_obj_refresh_style
 407              	.L18:
 408              	.LBE3:
 118:..\..\..\lvgl\version_6.1.2\lvgl\src\lv_objx/lv_gauge.c ****     }
 119:..\..\..\lvgl\version_6.1.2\lvgl\src\lv_objx/lv_gauge.c **** 
 120:..\..\..\lvgl\version_6.1.2\lvgl\src\lv_objx/lv_gauge.c ****     LV_LOG_INFO("gauge created");
 121:..\..\..\lvgl\version_6.1.2\lvgl\src\lv_objx/lv_gauge.c **** 
 122:..\..\..\lvgl\version_6.1.2\lvgl\src\lv_objx/lv_gauge.c ****     return new_gauge;
 409              		.loc 2 122 0
 410 0132 BB69     		ldr	r3, [r7, #24]
 411              	.L11:
 123:..\..\..\lvgl\version_6.1.2\lvgl\src\lv_objx/lv_gauge.c **** }
 412              		.loc 2 123 0
 413 0134 1846     		mov	r0, r3
 414 0136 2037     		adds	r7, r7, #32
 415              		.cfi_def_cfa_offset 8
 416 0138 BD46     		mov	sp, r7
 417              		.cfi_def_cfa_register 13
 418              		@ sp needed
 419 013a 80BD     		pop	{r7, pc}
 420              	.L22:
 421              		.align	2
 422              	.L21:
 423 013c 04000000 		.word	ancestor_signal
 424 0140 00000000 		.word	ancestor_design
 425 0144 00000000 		.word	lv_gauge_signal
 426 0148 00000000 		.word	lv_gauge_design
 427 014c 00000000 		.word	lv_style_pretty_color
 428              		.cfi_endproc
 429              	.LFE47:
 430              		.size	lv_gauge_create, .-lv_gauge_create
 431              		.section	.text.lv_gauge_set_needle_count,"ax",%progbits
 432              		.align	2
 433              		.global	lv_gauge_set_needle_count
 434              		.thumb
 435              		.thumb_func
 436              		.type	lv_gauge_set_needle_count, %function
 437              	lv_gauge_set_needle_count:
 438              	.LFB48:
 124:..\..\..\lvgl\version_6.1.2\lvgl\src\lv_objx/lv_gauge.c **** 
 125:..\..\..\lvgl\version_6.1.2\lvgl\src\lv_objx/lv_gauge.c **** /*=====================
 126:..\..\..\lvgl\version_6.1.2\lvgl\src\lv_objx/lv_gauge.c ****  * Setter functions
 127:..\..\..\lvgl\version_6.1.2\lvgl\src\lv_objx/lv_gauge.c ****  *====================*/
 128:..\..\..\lvgl\version_6.1.2\lvgl\src\lv_objx/lv_gauge.c **** 
 129:..\..\..\lvgl\version_6.1.2\lvgl\src\lv_objx/lv_gauge.c **** /**
 130:..\..\..\lvgl\version_6.1.2\lvgl\src\lv_objx/lv_gauge.c ****  * Set the number of needles
 131:..\..\..\lvgl\version_6.1.2\lvgl\src\lv_objx/lv_gauge.c ****  * @param gauge pointer to gauge object
 132:..\..\..\lvgl\version_6.1.2\lvgl\src\lv_objx/lv_gauge.c ****  * @param needle_cnt new count of needles
 133:..\..\..\lvgl\version_6.1.2\lvgl\src\lv_objx/lv_gauge.c ****  * @param colors an array of colors for needles (with 'num' elements)
 134:..\..\..\lvgl\version_6.1.2\lvgl\src\lv_objx/lv_gauge.c ****  */
 135:..\..\..\lvgl\version_6.1.2\lvgl\src\lv_objx/lv_gauge.c **** void lv_gauge_set_needle_count(lv_obj_t * gauge, uint8_t needle_cnt, const lv_color_t colors[])
 136:..\..\..\lvgl\version_6.1.2\lvgl\src\lv_objx/lv_gauge.c **** {
 439              		.loc 2 136 0
ARM GAS  C:\Users\tmj32\AppData\Local\Temp\ccmyxrAJ.s 			page 15


 440              		.cfi_startproc
 441              		@ args = 0, pretend = 0, frame = 32
 442              		@ frame_needed = 1, uses_anonymous_args = 0
 443 0000 80B5     		push	{r7, lr}
 444              		.cfi_def_cfa_offset 8
 445              		.cfi_offset 7, -8
 446              		.cfi_offset 14, -4
 447 0002 88B0     		sub	sp, sp, #32
 448              		.cfi_def_cfa_offset 40
 449 0004 00AF     		add	r7, sp, #0
 450              		.cfi_def_cfa_register 7
 451 0006 F860     		str	r0, [r7, #12]
 452 0008 0B46     		mov	r3, r1
 453 000a 7A60     		str	r2, [r7, #4]
 454 000c FB72     		strb	r3, [r7, #11]
 137:..\..\..\lvgl\version_6.1.2\lvgl\src\lv_objx/lv_gauge.c ****     LV_ASSERT_OBJ(gauge, LV_OBJX_NAME);
 138:..\..\..\lvgl\version_6.1.2\lvgl\src\lv_objx/lv_gauge.c **** 
 139:..\..\..\lvgl\version_6.1.2\lvgl\src\lv_objx/lv_gauge.c ****     lv_gauge_ext_t * ext = lv_obj_get_ext_attr(gauge);
 455              		.loc 2 139 0
 456 000e F868     		ldr	r0, [r7, #12]
 457 0010 FFF7FEFF 		bl	lv_obj_get_ext_attr
 458 0014 B861     		str	r0, [r7, #24]
 140:..\..\..\lvgl\version_6.1.2\lvgl\src\lv_objx/lv_gauge.c **** 
 141:..\..\..\lvgl\version_6.1.2\lvgl\src\lv_objx/lv_gauge.c ****     if(ext->needle_count != needle_cnt) {
 459              		.loc 2 141 0
 460 0016 BB69     		ldr	r3, [r7, #24]
 461 0018 1B7D     		ldrb	r3, [r3, #20]	@ zero_extendqisi2
 462 001a FA7A     		ldrb	r2, [r7, #11]	@ zero_extendqisi2
 463 001c 9A42     		cmp	r2, r3
 464 001e 34D0     		beq	.L24
 465              	.LBB4:
 142:..\..\..\lvgl\version_6.1.2\lvgl\src\lv_objx/lv_gauge.c ****         if(ext->values != NULL) {
 466              		.loc 2 142 0
 467 0020 BB69     		ldr	r3, [r7, #24]
 468 0022 DB68     		ldr	r3, [r3, #12]
 469 0024 002B     		cmp	r3, #0
 470 0026 07D0     		beq	.L25
 143:..\..\..\lvgl\version_6.1.2\lvgl\src\lv_objx/lv_gauge.c ****             lv_mem_free(ext->values);
 471              		.loc 2 143 0
 472 0028 BB69     		ldr	r3, [r7, #24]
 473 002a DB68     		ldr	r3, [r3, #12]
 474 002c 1846     		mov	r0, r3
 475 002e FFF7FEFF 		bl	lv_mem_free
 144:..\..\..\lvgl\version_6.1.2\lvgl\src\lv_objx/lv_gauge.c ****             ext->values = NULL;
 476              		.loc 2 144 0
 477 0032 BB69     		ldr	r3, [r7, #24]
 478 0034 0022     		movs	r2, #0
 479 0036 DA60     		str	r2, [r3, #12]
 480              	.L25:
 145:..\..\..\lvgl\version_6.1.2\lvgl\src\lv_objx/lv_gauge.c ****         }
 146:..\..\..\lvgl\version_6.1.2\lvgl\src\lv_objx/lv_gauge.c **** 
 147:..\..\..\lvgl\version_6.1.2\lvgl\src\lv_objx/lv_gauge.c ****         ext->values = lv_mem_realloc(ext->values, needle_cnt * sizeof(int16_t));
 481              		.loc 2 147 0
 482 0038 BB69     		ldr	r3, [r7, #24]
 483 003a DA68     		ldr	r2, [r3, #12]
 484 003c FB7A     		ldrb	r3, [r7, #11]	@ zero_extendqisi2
 485 003e 5B00     		lsls	r3, r3, #1
ARM GAS  C:\Users\tmj32\AppData\Local\Temp\ccmyxrAJ.s 			page 16


 486 0040 1946     		mov	r1, r3
 487 0042 1046     		mov	r0, r2
 488 0044 FFF7FEFF 		bl	lv_mem_realloc
 489 0048 0246     		mov	r2, r0
 490 004a BB69     		ldr	r3, [r7, #24]
 491 004c DA60     		str	r2, [r3, #12]
 148:..\..\..\lvgl\version_6.1.2\lvgl\src\lv_objx/lv_gauge.c ****         LV_ASSERT_MEM(ext->values);
 149:..\..\..\lvgl\version_6.1.2\lvgl\src\lv_objx/lv_gauge.c ****         if(ext->values == NULL) return;
 492              		.loc 2 149 0
 493 004e BB69     		ldr	r3, [r7, #24]
 494 0050 DB68     		ldr	r3, [r3, #12]
 495 0052 002B     		cmp	r3, #0
 496 0054 20D0     		beq	.L30
 150:..\..\..\lvgl\version_6.1.2\lvgl\src\lv_objx/lv_gauge.c **** 
 151:..\..\..\lvgl\version_6.1.2\lvgl\src\lv_objx/lv_gauge.c ****         int16_t min = lv_gauge_get_min_value(gauge);
 497              		.loc 2 151 0
 498 0056 F868     		ldr	r0, [r7, #12]
 499 0058 FFF7FEFF 		bl	lv_gauge_get_min_value
 500 005c 0346     		mov	r3, r0
 501 005e FB82     		strh	r3, [r7, #22]	@ movhi
 152:..\..\..\lvgl\version_6.1.2\lvgl\src\lv_objx/lv_gauge.c ****         uint8_t n;
 153:..\..\..\lvgl\version_6.1.2\lvgl\src\lv_objx/lv_gauge.c ****         for(n = ext->needle_count; n < needle_cnt; n++) {
 502              		.loc 2 153 0
 503 0060 BB69     		ldr	r3, [r7, #24]
 504 0062 1B7D     		ldrb	r3, [r3, #20]
 505 0064 FB77     		strb	r3, [r7, #31]
 506 0066 09E0     		b	.L28
 507              	.L29:
 154:..\..\..\lvgl\version_6.1.2\lvgl\src\lv_objx/lv_gauge.c ****             ext->values[n] = min;
 508              		.loc 2 154 0 discriminator 3
 509 0068 BB69     		ldr	r3, [r7, #24]
 510 006a DA68     		ldr	r2, [r3, #12]
 511 006c FB7F     		ldrb	r3, [r7, #31]	@ zero_extendqisi2
 512 006e 5B00     		lsls	r3, r3, #1
 513 0070 1344     		add	r3, r3, r2
 514 0072 FA8A     		ldrh	r2, [r7, #22]	@ movhi
 515 0074 1A80     		strh	r2, [r3]	@ movhi
 153:..\..\..\lvgl\version_6.1.2\lvgl\src\lv_objx/lv_gauge.c ****             ext->values[n] = min;
 516              		.loc 2 153 0 discriminator 3
 517 0076 FB7F     		ldrb	r3, [r7, #31]	@ zero_extendqisi2
 518 0078 0133     		adds	r3, r3, #1
 519 007a FB77     		strb	r3, [r7, #31]
 520              	.L28:
 153:..\..\..\lvgl\version_6.1.2\lvgl\src\lv_objx/lv_gauge.c ****             ext->values[n] = min;
 521              		.loc 2 153 0 is_stmt 0 discriminator 1
 522 007c FA7F     		ldrb	r2, [r7, #31]	@ zero_extendqisi2
 523 007e FB7A     		ldrb	r3, [r7, #11]	@ zero_extendqisi2
 524 0080 9A42     		cmp	r2, r3
 525 0082 F1D3     		bcc	.L29
 155:..\..\..\lvgl\version_6.1.2\lvgl\src\lv_objx/lv_gauge.c ****         }
 156:..\..\..\lvgl\version_6.1.2\lvgl\src\lv_objx/lv_gauge.c **** 
 157:..\..\..\lvgl\version_6.1.2\lvgl\src\lv_objx/lv_gauge.c ****         ext->needle_count = needle_cnt;
 526              		.loc 2 157 0 is_stmt 1
 527 0084 BB69     		ldr	r3, [r7, #24]
 528 0086 FA7A     		ldrb	r2, [r7, #11]
 529 0088 1A75     		strb	r2, [r3, #20]
 530              	.L24:
ARM GAS  C:\Users\tmj32\AppData\Local\Temp\ccmyxrAJ.s 			page 17


 531              	.LBE4:
 158:..\..\..\lvgl\version_6.1.2\lvgl\src\lv_objx/lv_gauge.c ****     }
 159:..\..\..\lvgl\version_6.1.2\lvgl\src\lv_objx/lv_gauge.c **** 
 160:..\..\..\lvgl\version_6.1.2\lvgl\src\lv_objx/lv_gauge.c ****     ext->needle_colors = colors;
 532              		.loc 2 160 0
 533 008a BB69     		ldr	r3, [r7, #24]
 534 008c 7A68     		ldr	r2, [r7, #4]
 535 008e 1A61     		str	r2, [r3, #16]
 161:..\..\..\lvgl\version_6.1.2\lvgl\src\lv_objx/lv_gauge.c ****     lv_obj_invalidate(gauge);
 536              		.loc 2 161 0
 537 0090 F868     		ldr	r0, [r7, #12]
 538 0092 FFF7FEFF 		bl	lv_obj_invalidate
 539 0096 00E0     		b	.L23
 540              	.L30:
 541              	.LBB5:
 149:..\..\..\lvgl\version_6.1.2\lvgl\src\lv_objx/lv_gauge.c **** 
 542              		.loc 2 149 0
 543 0098 00BF     		nop
 544              	.L23:
 545              	.LBE5:
 162:..\..\..\lvgl\version_6.1.2\lvgl\src\lv_objx/lv_gauge.c **** }
 546              		.loc 2 162 0
 547 009a 2037     		adds	r7, r7, #32
 548              		.cfi_def_cfa_offset 8
 549 009c BD46     		mov	sp, r7
 550              		.cfi_def_cfa_register 13
 551              		@ sp needed
 552 009e 80BD     		pop	{r7, pc}
 553              		.cfi_endproc
 554              	.LFE48:
 555              		.size	lv_gauge_set_needle_count, .-lv_gauge_set_needle_count
 556              		.section	.text.lv_gauge_set_value,"ax",%progbits
 557              		.align	2
 558              		.global	lv_gauge_set_value
 559              		.thumb
 560              		.thumb_func
 561              		.type	lv_gauge_set_value, %function
 562              	lv_gauge_set_value:
 563              	.LFB49:
 163:..\..\..\lvgl\version_6.1.2\lvgl\src\lv_objx/lv_gauge.c **** 
 164:..\..\..\lvgl\version_6.1.2\lvgl\src\lv_objx/lv_gauge.c **** /**
 165:..\..\..\lvgl\version_6.1.2\lvgl\src\lv_objx/lv_gauge.c ****  * Set the value of a needle
 166:..\..\..\lvgl\version_6.1.2\lvgl\src\lv_objx/lv_gauge.c ****  * @param gauge pointer to a gauge
 167:..\..\..\lvgl\version_6.1.2\lvgl\src\lv_objx/lv_gauge.c ****  * @param needle_id the id of the needle
 168:..\..\..\lvgl\version_6.1.2\lvgl\src\lv_objx/lv_gauge.c ****  * @param value the new value
 169:..\..\..\lvgl\version_6.1.2\lvgl\src\lv_objx/lv_gauge.c ****  */
 170:..\..\..\lvgl\version_6.1.2\lvgl\src\lv_objx/lv_gauge.c **** void lv_gauge_set_value(lv_obj_t * gauge, uint8_t needle_id, int16_t value)
 171:..\..\..\lvgl\version_6.1.2\lvgl\src\lv_objx/lv_gauge.c **** {
 564              		.loc 2 171 0
 565              		.cfi_startproc
 566              		@ args = 0, pretend = 0, frame = 16
 567              		@ frame_needed = 1, uses_anonymous_args = 0
 568 0000 80B5     		push	{r7, lr}
 569              		.cfi_def_cfa_offset 8
 570              		.cfi_offset 7, -8
 571              		.cfi_offset 14, -4
 572 0002 84B0     		sub	sp, sp, #16
ARM GAS  C:\Users\tmj32\AppData\Local\Temp\ccmyxrAJ.s 			page 18


 573              		.cfi_def_cfa_offset 24
 574 0004 00AF     		add	r7, sp, #0
 575              		.cfi_def_cfa_register 7
 576 0006 7860     		str	r0, [r7, #4]
 577 0008 0B46     		mov	r3, r1
 578 000a FB70     		strb	r3, [r7, #3]
 579 000c 1346     		mov	r3, r2	@ movhi
 580 000e 3B80     		strh	r3, [r7]	@ movhi
 172:..\..\..\lvgl\version_6.1.2\lvgl\src\lv_objx/lv_gauge.c ****     LV_ASSERT_OBJ(gauge, LV_OBJX_NAME);
 173:..\..\..\lvgl\version_6.1.2\lvgl\src\lv_objx/lv_gauge.c **** 
 174:..\..\..\lvgl\version_6.1.2\lvgl\src\lv_objx/lv_gauge.c ****     lv_gauge_ext_t * ext = lv_obj_get_ext_attr(gauge);
 581              		.loc 2 174 0
 582 0010 7868     		ldr	r0, [r7, #4]
 583 0012 FFF7FEFF 		bl	lv_obj_get_ext_attr
 584 0016 F860     		str	r0, [r7, #12]
 175:..\..\..\lvgl\version_6.1.2\lvgl\src\lv_objx/lv_gauge.c **** 
 176:..\..\..\lvgl\version_6.1.2\lvgl\src\lv_objx/lv_gauge.c ****     if(needle_id >= ext->needle_count) return;
 585              		.loc 2 176 0
 586 0018 FB68     		ldr	r3, [r7, #12]
 587 001a 1B7D     		ldrb	r3, [r3, #20]	@ zero_extendqisi2
 588 001c FA78     		ldrb	r2, [r7, #3]	@ zero_extendqisi2
 589 001e 9A42     		cmp	r2, r3
 590 0020 30D2     		bcs	.L37
 177:..\..\..\lvgl\version_6.1.2\lvgl\src\lv_objx/lv_gauge.c ****     if(ext->values[needle_id] == value) return;
 591              		.loc 2 177 0
 592 0022 FB68     		ldr	r3, [r7, #12]
 593 0024 DA68     		ldr	r2, [r3, #12]
 594 0026 FB78     		ldrb	r3, [r7, #3]	@ zero_extendqisi2
 595 0028 5B00     		lsls	r3, r3, #1
 596 002a 1344     		add	r3, r3, r2
 597 002c B3F90030 		ldrsh	r3, [r3]
 598 0030 B7F90020 		ldrsh	r2, [r7]
 599 0034 9A42     		cmp	r2, r3
 600 0036 27D0     		beq	.L38
 178:..\..\..\lvgl\version_6.1.2\lvgl\src\lv_objx/lv_gauge.c **** 
 179:..\..\..\lvgl\version_6.1.2\lvgl\src\lv_objx/lv_gauge.c ****     int16_t min = lv_gauge_get_min_value(gauge);
 601              		.loc 2 179 0
 602 0038 7868     		ldr	r0, [r7, #4]
 603 003a FFF7FEFF 		bl	lv_gauge_get_min_value
 604 003e 0346     		mov	r3, r0
 605 0040 7B81     		strh	r3, [r7, #10]	@ movhi
 180:..\..\..\lvgl\version_6.1.2\lvgl\src\lv_objx/lv_gauge.c ****     int16_t max = lv_gauge_get_max_value(gauge);
 606              		.loc 2 180 0
 607 0042 7868     		ldr	r0, [r7, #4]
 608 0044 FFF7FEFF 		bl	lv_gauge_get_max_value
 609 0048 0346     		mov	r3, r0
 610 004a 3B81     		strh	r3, [r7, #8]	@ movhi
 181:..\..\..\lvgl\version_6.1.2\lvgl\src\lv_objx/lv_gauge.c **** 
 182:..\..\..\lvgl\version_6.1.2\lvgl\src\lv_objx/lv_gauge.c ****     if(value > max)
 611              		.loc 2 182 0
 612 004c B7F90020 		ldrsh	r2, [r7]
 613 0050 B7F90830 		ldrsh	r3, [r7, #8]
 614 0054 9A42     		cmp	r2, r3
 615 0056 02DD     		ble	.L35
 183:..\..\..\lvgl\version_6.1.2\lvgl\src\lv_objx/lv_gauge.c ****         value = max;
 616              		.loc 2 183 0
 617 0058 3B89     		ldrh	r3, [r7, #8]	@ movhi
ARM GAS  C:\Users\tmj32\AppData\Local\Temp\ccmyxrAJ.s 			page 19


 618 005a 3B80     		strh	r3, [r7]	@ movhi
 619 005c 07E0     		b	.L36
 620              	.L35:
 184:..\..\..\lvgl\version_6.1.2\lvgl\src\lv_objx/lv_gauge.c ****     else if(value < min)
 621              		.loc 2 184 0
 622 005e B7F90020 		ldrsh	r2, [r7]
 623 0062 B7F90A30 		ldrsh	r3, [r7, #10]
 624 0066 9A42     		cmp	r2, r3
 625 0068 01DA     		bge	.L36
 185:..\..\..\lvgl\version_6.1.2\lvgl\src\lv_objx/lv_gauge.c ****         value = min;
 626              		.loc 2 185 0
 627 006a 7B89     		ldrh	r3, [r7, #10]	@ movhi
 628 006c 3B80     		strh	r3, [r7]	@ movhi
 629              	.L36:
 186:..\..\..\lvgl\version_6.1.2\lvgl\src\lv_objx/lv_gauge.c **** 
 187:..\..\..\lvgl\version_6.1.2\lvgl\src\lv_objx/lv_gauge.c ****     ext->values[needle_id] = value;
 630              		.loc 2 187 0
 631 006e FB68     		ldr	r3, [r7, #12]
 632 0070 DA68     		ldr	r2, [r3, #12]
 633 0072 FB78     		ldrb	r3, [r7, #3]	@ zero_extendqisi2
 634 0074 5B00     		lsls	r3, r3, #1
 635 0076 1344     		add	r3, r3, r2
 636 0078 3A88     		ldrh	r2, [r7]	@ movhi
 637 007a 1A80     		strh	r2, [r3]	@ movhi
 188:..\..\..\lvgl\version_6.1.2\lvgl\src\lv_objx/lv_gauge.c **** 
 189:..\..\..\lvgl\version_6.1.2\lvgl\src\lv_objx/lv_gauge.c ****     lv_obj_invalidate(gauge);
 638              		.loc 2 189 0
 639 007c 7868     		ldr	r0, [r7, #4]
 640 007e FFF7FEFF 		bl	lv_obj_invalidate
 641 0082 02E0     		b	.L31
 642              	.L37:
 176:..\..\..\lvgl\version_6.1.2\lvgl\src\lv_objx/lv_gauge.c ****     if(ext->values[needle_id] == value) return;
 643              		.loc 2 176 0
 644 0084 00BF     		nop
 645 0086 00E0     		b	.L31
 646              	.L38:
 177:..\..\..\lvgl\version_6.1.2\lvgl\src\lv_objx/lv_gauge.c **** 
 647              		.loc 2 177 0
 648 0088 00BF     		nop
 649              	.L31:
 190:..\..\..\lvgl\version_6.1.2\lvgl\src\lv_objx/lv_gauge.c **** }
 650              		.loc 2 190 0
 651 008a 1037     		adds	r7, r7, #16
 652              		.cfi_def_cfa_offset 8
 653 008c BD46     		mov	sp, r7
 654              		.cfi_def_cfa_register 13
 655              		@ sp needed
 656 008e 80BD     		pop	{r7, pc}
 657              		.cfi_endproc
 658              	.LFE49:
 659              		.size	lv_gauge_set_value, .-lv_gauge_set_value
 660              		.section	.text.lv_gauge_set_scale,"ax",%progbits
 661              		.align	2
 662              		.global	lv_gauge_set_scale
 663              		.thumb
 664              		.thumb_func
 665              		.type	lv_gauge_set_scale, %function
ARM GAS  C:\Users\tmj32\AppData\Local\Temp\ccmyxrAJ.s 			page 20


 666              	lv_gauge_set_scale:
 667              	.LFB50:
 191:..\..\..\lvgl\version_6.1.2\lvgl\src\lv_objx/lv_gauge.c **** 
 192:..\..\..\lvgl\version_6.1.2\lvgl\src\lv_objx/lv_gauge.c **** /**
 193:..\..\..\lvgl\version_6.1.2\lvgl\src\lv_objx/lv_gauge.c ****  * Set the scale settings of a gauge
 194:..\..\..\lvgl\version_6.1.2\lvgl\src\lv_objx/lv_gauge.c ****  * @param gauge pointer to a gauge object
 195:..\..\..\lvgl\version_6.1.2\lvgl\src\lv_objx/lv_gauge.c ****  * @param angle angle of the scale (0..360)
 196:..\..\..\lvgl\version_6.1.2\lvgl\src\lv_objx/lv_gauge.c ****  * @param line_cnt count of scale lines.
 197:..\..\..\lvgl\version_6.1.2\lvgl\src\lv_objx/lv_gauge.c ****  * The get a given "subdivision" lines between label, `line_cnt` = (sub_div + 1) * (label_cnt - 1) 
 198:..\..\..\lvgl\version_6.1.2\lvgl\src\lv_objx/lv_gauge.c ****  * 1
 199:..\..\..\lvgl\version_6.1.2\lvgl\src\lv_objx/lv_gauge.c ****  * @param label_cnt count of scale labels.
 200:..\..\..\lvgl\version_6.1.2\lvgl\src\lv_objx/lv_gauge.c ****  */
 201:..\..\..\lvgl\version_6.1.2\lvgl\src\lv_objx/lv_gauge.c **** void lv_gauge_set_scale(lv_obj_t * gauge, uint16_t angle, uint8_t line_cnt, uint8_t label_cnt)
 202:..\..\..\lvgl\version_6.1.2\lvgl\src\lv_objx/lv_gauge.c **** {
 668              		.loc 2 202 0
 669              		.cfi_startproc
 670              		@ args = 0, pretend = 0, frame = 16
 671              		@ frame_needed = 1, uses_anonymous_args = 0
 672 0000 80B5     		push	{r7, lr}
 673              		.cfi_def_cfa_offset 8
 674              		.cfi_offset 7, -8
 675              		.cfi_offset 14, -4
 676 0002 84B0     		sub	sp, sp, #16
 677              		.cfi_def_cfa_offset 24
 678 0004 00AF     		add	r7, sp, #0
 679              		.cfi_def_cfa_register 7
 680 0006 7860     		str	r0, [r7, #4]
 681 0008 0846     		mov	r0, r1
 682 000a 1146     		mov	r1, r2
 683 000c 1A46     		mov	r2, r3
 684 000e 0346     		mov	r3, r0	@ movhi
 685 0010 7B80     		strh	r3, [r7, #2]	@ movhi
 686 0012 0B46     		mov	r3, r1
 687 0014 7B70     		strb	r3, [r7, #1]
 688 0016 1346     		mov	r3, r2
 689 0018 3B70     		strb	r3, [r7]
 203:..\..\..\lvgl\version_6.1.2\lvgl\src\lv_objx/lv_gauge.c ****     LV_ASSERT_OBJ(gauge, LV_OBJX_NAME);
 204:..\..\..\lvgl\version_6.1.2\lvgl\src\lv_objx/lv_gauge.c **** 
 205:..\..\..\lvgl\version_6.1.2\lvgl\src\lv_objx/lv_gauge.c ****     lv_lmeter_set_scale(gauge, angle, line_cnt);
 690              		.loc 2 205 0
 691 001a 7B78     		ldrb	r3, [r7, #1]	@ zero_extendqisi2
 692 001c 9AB2     		uxth	r2, r3
 693 001e 7B88     		ldrh	r3, [r7, #2]
 694 0020 1946     		mov	r1, r3
 695 0022 7868     		ldr	r0, [r7, #4]
 696 0024 FFF7FEFF 		bl	lv_lmeter_set_scale
 206:..\..\..\lvgl\version_6.1.2\lvgl\src\lv_objx/lv_gauge.c **** 
 207:..\..\..\lvgl\version_6.1.2\lvgl\src\lv_objx/lv_gauge.c ****     lv_gauge_ext_t * ext = lv_obj_get_ext_attr(gauge);
 697              		.loc 2 207 0
 698 0028 7868     		ldr	r0, [r7, #4]
 699 002a FFF7FEFF 		bl	lv_obj_get_ext_attr
 700 002e F860     		str	r0, [r7, #12]
 208:..\..\..\lvgl\version_6.1.2\lvgl\src\lv_objx/lv_gauge.c ****     ext->label_count     = label_cnt;
 701              		.loc 2 208 0
 702 0030 FB68     		ldr	r3, [r7, #12]
 703 0032 3A78     		ldrb	r2, [r7]
 704 0034 5A75     		strb	r2, [r3, #21]
ARM GAS  C:\Users\tmj32\AppData\Local\Temp\ccmyxrAJ.s 			page 21


 209:..\..\..\lvgl\version_6.1.2\lvgl\src\lv_objx/lv_gauge.c ****     lv_obj_invalidate(gauge);
 705              		.loc 2 209 0
 706 0036 7868     		ldr	r0, [r7, #4]
 707 0038 FFF7FEFF 		bl	lv_obj_invalidate
 210:..\..\..\lvgl\version_6.1.2\lvgl\src\lv_objx/lv_gauge.c **** }
 708              		.loc 2 210 0
 709 003c 00BF     		nop
 710 003e 1037     		adds	r7, r7, #16
 711              		.cfi_def_cfa_offset 8
 712 0040 BD46     		mov	sp, r7
 713              		.cfi_def_cfa_register 13
 714              		@ sp needed
 715 0042 80BD     		pop	{r7, pc}
 716              		.cfi_endproc
 717              	.LFE50:
 718              		.size	lv_gauge_set_scale, .-lv_gauge_set_scale
 719              		.section	.text.lv_gauge_get_value,"ax",%progbits
 720              		.align	2
 721              		.global	lv_gauge_get_value
 722              		.thumb
 723              		.thumb_func
 724              		.type	lv_gauge_get_value, %function
 725              	lv_gauge_get_value:
 726              	.LFB51:
 211:..\..\..\lvgl\version_6.1.2\lvgl\src\lv_objx/lv_gauge.c **** 
 212:..\..\..\lvgl\version_6.1.2\lvgl\src\lv_objx/lv_gauge.c **** /*=====================
 213:..\..\..\lvgl\version_6.1.2\lvgl\src\lv_objx/lv_gauge.c ****  * Getter functions
 214:..\..\..\lvgl\version_6.1.2\lvgl\src\lv_objx/lv_gauge.c ****  *====================*/
 215:..\..\..\lvgl\version_6.1.2\lvgl\src\lv_objx/lv_gauge.c **** 
 216:..\..\..\lvgl\version_6.1.2\lvgl\src\lv_objx/lv_gauge.c **** /**
 217:..\..\..\lvgl\version_6.1.2\lvgl\src\lv_objx/lv_gauge.c ****  * Get the value of a needle
 218:..\..\..\lvgl\version_6.1.2\lvgl\src\lv_objx/lv_gauge.c ****  * @param gauge pointer to gauge object
 219:..\..\..\lvgl\version_6.1.2\lvgl\src\lv_objx/lv_gauge.c ****  * @param needle the id of the needle
 220:..\..\..\lvgl\version_6.1.2\lvgl\src\lv_objx/lv_gauge.c ****  * @return the value of the needle [min,max]
 221:..\..\..\lvgl\version_6.1.2\lvgl\src\lv_objx/lv_gauge.c ****  */
 222:..\..\..\lvgl\version_6.1.2\lvgl\src\lv_objx/lv_gauge.c **** int16_t lv_gauge_get_value(const lv_obj_t * gauge, uint8_t needle)
 223:..\..\..\lvgl\version_6.1.2\lvgl\src\lv_objx/lv_gauge.c **** {
 727              		.loc 2 223 0
 728              		.cfi_startproc
 729              		@ args = 0, pretend = 0, frame = 16
 730              		@ frame_needed = 1, uses_anonymous_args = 0
 731 0000 80B5     		push	{r7, lr}
 732              		.cfi_def_cfa_offset 8
 733              		.cfi_offset 7, -8
 734              		.cfi_offset 14, -4
 735 0002 84B0     		sub	sp, sp, #16
 736              		.cfi_def_cfa_offset 24
 737 0004 00AF     		add	r7, sp, #0
 738              		.cfi_def_cfa_register 7
 739 0006 7860     		str	r0, [r7, #4]
 740 0008 0B46     		mov	r3, r1
 741 000a FB70     		strb	r3, [r7, #3]
 224:..\..\..\lvgl\version_6.1.2\lvgl\src\lv_objx/lv_gauge.c ****     LV_ASSERT_OBJ(gauge, LV_OBJX_NAME);
 225:..\..\..\lvgl\version_6.1.2\lvgl\src\lv_objx/lv_gauge.c **** 
 226:..\..\..\lvgl\version_6.1.2\lvgl\src\lv_objx/lv_gauge.c ****     lv_gauge_ext_t * ext = lv_obj_get_ext_attr(gauge);
 742              		.loc 2 226 0
 743 000c 7868     		ldr	r0, [r7, #4]
ARM GAS  C:\Users\tmj32\AppData\Local\Temp\ccmyxrAJ.s 			page 22


 744 000e FFF7FEFF 		bl	lv_obj_get_ext_attr
 745 0012 F860     		str	r0, [r7, #12]
 227:..\..\..\lvgl\version_6.1.2\lvgl\src\lv_objx/lv_gauge.c ****     int16_t min          = lv_gauge_get_min_value(gauge);
 746              		.loc 2 227 0
 747 0014 7868     		ldr	r0, [r7, #4]
 748 0016 FFF7FEFF 		bl	lv_gauge_get_min_value
 749 001a 0346     		mov	r3, r0
 750 001c 7B81     		strh	r3, [r7, #10]	@ movhi
 228:..\..\..\lvgl\version_6.1.2\lvgl\src\lv_objx/lv_gauge.c **** 
 229:..\..\..\lvgl\version_6.1.2\lvgl\src\lv_objx/lv_gauge.c ****     if(needle >= ext->needle_count) return min;
 751              		.loc 2 229 0
 752 001e FB68     		ldr	r3, [r7, #12]
 753 0020 1B7D     		ldrb	r3, [r3, #20]	@ zero_extendqisi2
 754 0022 FA78     		ldrb	r2, [r7, #3]	@ zero_extendqisi2
 755 0024 9A42     		cmp	r2, r3
 756 0026 02D3     		bcc	.L41
 757              		.loc 2 229 0 is_stmt 0 discriminator 1
 758 0028 B7F90A30 		ldrsh	r3, [r7, #10]
 759 002c 06E0     		b	.L42
 760              	.L41:
 230:..\..\..\lvgl\version_6.1.2\lvgl\src\lv_objx/lv_gauge.c **** 
 231:..\..\..\lvgl\version_6.1.2\lvgl\src\lv_objx/lv_gauge.c ****     return ext->values[needle];
 761              		.loc 2 231 0 is_stmt 1
 762 002e FB68     		ldr	r3, [r7, #12]
 763 0030 DA68     		ldr	r2, [r3, #12]
 764 0032 FB78     		ldrb	r3, [r7, #3]	@ zero_extendqisi2
 765 0034 5B00     		lsls	r3, r3, #1
 766 0036 1344     		add	r3, r3, r2
 767 0038 B3F90030 		ldrsh	r3, [r3]
 768              	.L42:
 232:..\..\..\lvgl\version_6.1.2\lvgl\src\lv_objx/lv_gauge.c **** }
 769              		.loc 2 232 0
 770 003c 1846     		mov	r0, r3
 771 003e 1037     		adds	r7, r7, #16
 772              		.cfi_def_cfa_offset 8
 773 0040 BD46     		mov	sp, r7
 774              		.cfi_def_cfa_register 13
 775              		@ sp needed
 776 0042 80BD     		pop	{r7, pc}
 777              		.cfi_endproc
 778              	.LFE51:
 779              		.size	lv_gauge_get_value, .-lv_gauge_get_value
 780              		.section	.text.lv_gauge_get_needle_count,"ax",%progbits
 781              		.align	2
 782              		.global	lv_gauge_get_needle_count
 783              		.thumb
 784              		.thumb_func
 785              		.type	lv_gauge_get_needle_count, %function
 786              	lv_gauge_get_needle_count:
 787              	.LFB52:
 233:..\..\..\lvgl\version_6.1.2\lvgl\src\lv_objx/lv_gauge.c **** 
 234:..\..\..\lvgl\version_6.1.2\lvgl\src\lv_objx/lv_gauge.c **** /**
 235:..\..\..\lvgl\version_6.1.2\lvgl\src\lv_objx/lv_gauge.c ****  * Get the count of needles on a gauge
 236:..\..\..\lvgl\version_6.1.2\lvgl\src\lv_objx/lv_gauge.c ****  * @param gauge pointer to gauge
 237:..\..\..\lvgl\version_6.1.2\lvgl\src\lv_objx/lv_gauge.c ****  * @return count of needles
 238:..\..\..\lvgl\version_6.1.2\lvgl\src\lv_objx/lv_gauge.c ****  */
 239:..\..\..\lvgl\version_6.1.2\lvgl\src\lv_objx/lv_gauge.c **** uint8_t lv_gauge_get_needle_count(const lv_obj_t * gauge)
ARM GAS  C:\Users\tmj32\AppData\Local\Temp\ccmyxrAJ.s 			page 23


 240:..\..\..\lvgl\version_6.1.2\lvgl\src\lv_objx/lv_gauge.c **** {
 788              		.loc 2 240 0
 789              		.cfi_startproc
 790              		@ args = 0, pretend = 0, frame = 16
 791              		@ frame_needed = 1, uses_anonymous_args = 0
 792 0000 80B5     		push	{r7, lr}
 793              		.cfi_def_cfa_offset 8
 794              		.cfi_offset 7, -8
 795              		.cfi_offset 14, -4
 796 0002 84B0     		sub	sp, sp, #16
 797              		.cfi_def_cfa_offset 24
 798 0004 00AF     		add	r7, sp, #0
 799              		.cfi_def_cfa_register 7
 800 0006 7860     		str	r0, [r7, #4]
 241:..\..\..\lvgl\version_6.1.2\lvgl\src\lv_objx/lv_gauge.c ****     LV_ASSERT_OBJ(gauge, LV_OBJX_NAME);
 242:..\..\..\lvgl\version_6.1.2\lvgl\src\lv_objx/lv_gauge.c **** 
 243:..\..\..\lvgl\version_6.1.2\lvgl\src\lv_objx/lv_gauge.c ****     lv_gauge_ext_t * ext = lv_obj_get_ext_attr(gauge);
 801              		.loc 2 243 0
 802 0008 7868     		ldr	r0, [r7, #4]
 803 000a FFF7FEFF 		bl	lv_obj_get_ext_attr
 804 000e F860     		str	r0, [r7, #12]
 244:..\..\..\lvgl\version_6.1.2\lvgl\src\lv_objx/lv_gauge.c ****     return ext->needle_count;
 805              		.loc 2 244 0
 806 0010 FB68     		ldr	r3, [r7, #12]
 807 0012 1B7D     		ldrb	r3, [r3, #20]	@ zero_extendqisi2
 245:..\..\..\lvgl\version_6.1.2\lvgl\src\lv_objx/lv_gauge.c **** }
 808              		.loc 2 245 0
 809 0014 1846     		mov	r0, r3
 810 0016 1037     		adds	r7, r7, #16
 811              		.cfi_def_cfa_offset 8
 812 0018 BD46     		mov	sp, r7
 813              		.cfi_def_cfa_register 13
 814              		@ sp needed
 815 001a 80BD     		pop	{r7, pc}
 816              		.cfi_endproc
 817              	.LFE52:
 818              		.size	lv_gauge_get_needle_count, .-lv_gauge_get_needle_count
 819              		.section	.text.lv_gauge_get_label_count,"ax",%progbits
 820              		.align	2
 821              		.global	lv_gauge_get_label_count
 822              		.thumb
 823              		.thumb_func
 824              		.type	lv_gauge_get_label_count, %function
 825              	lv_gauge_get_label_count:
 826              	.LFB53:
 246:..\..\..\lvgl\version_6.1.2\lvgl\src\lv_objx/lv_gauge.c **** 
 247:..\..\..\lvgl\version_6.1.2\lvgl\src\lv_objx/lv_gauge.c **** /**
 248:..\..\..\lvgl\version_6.1.2\lvgl\src\lv_objx/lv_gauge.c ****  * Set the number of labels (and the thicker lines too)
 249:..\..\..\lvgl\version_6.1.2\lvgl\src\lv_objx/lv_gauge.c ****  * @param gauge pointer to a gauge object
 250:..\..\..\lvgl\version_6.1.2\lvgl\src\lv_objx/lv_gauge.c ****  * @return count of labels
 251:..\..\..\lvgl\version_6.1.2\lvgl\src\lv_objx/lv_gauge.c ****  */
 252:..\..\..\lvgl\version_6.1.2\lvgl\src\lv_objx/lv_gauge.c **** uint8_t lv_gauge_get_label_count(const lv_obj_t * gauge)
 253:..\..\..\lvgl\version_6.1.2\lvgl\src\lv_objx/lv_gauge.c **** {
 827              		.loc 2 253 0
 828              		.cfi_startproc
 829              		@ args = 0, pretend = 0, frame = 16
 830              		@ frame_needed = 1, uses_anonymous_args = 0
ARM GAS  C:\Users\tmj32\AppData\Local\Temp\ccmyxrAJ.s 			page 24


 831 0000 80B5     		push	{r7, lr}
 832              		.cfi_def_cfa_offset 8
 833              		.cfi_offset 7, -8
 834              		.cfi_offset 14, -4
 835 0002 84B0     		sub	sp, sp, #16
 836              		.cfi_def_cfa_offset 24
 837 0004 00AF     		add	r7, sp, #0
 838              		.cfi_def_cfa_register 7
 839 0006 7860     		str	r0, [r7, #4]
 254:..\..\..\lvgl\version_6.1.2\lvgl\src\lv_objx/lv_gauge.c ****     LV_ASSERT_OBJ(gauge, LV_OBJX_NAME);
 255:..\..\..\lvgl\version_6.1.2\lvgl\src\lv_objx/lv_gauge.c **** 
 256:..\..\..\lvgl\version_6.1.2\lvgl\src\lv_objx/lv_gauge.c ****     lv_gauge_ext_t * ext = lv_obj_get_ext_attr(gauge);
 840              		.loc 2 256 0
 841 0008 7868     		ldr	r0, [r7, #4]
 842 000a FFF7FEFF 		bl	lv_obj_get_ext_attr
 843 000e F860     		str	r0, [r7, #12]
 257:..\..\..\lvgl\version_6.1.2\lvgl\src\lv_objx/lv_gauge.c ****     return ext->label_count;
 844              		.loc 2 257 0
 845 0010 FB68     		ldr	r3, [r7, #12]
 846 0012 5B7D     		ldrb	r3, [r3, #21]	@ zero_extendqisi2
 258:..\..\..\lvgl\version_6.1.2\lvgl\src\lv_objx/lv_gauge.c **** }
 847              		.loc 2 258 0
 848 0014 1846     		mov	r0, r3
 849 0016 1037     		adds	r7, r7, #16
 850              		.cfi_def_cfa_offset 8
 851 0018 BD46     		mov	sp, r7
 852              		.cfi_def_cfa_register 13
 853              		@ sp needed
 854 001a 80BD     		pop	{r7, pc}
 855              		.cfi_endproc
 856              	.LFE53:
 857              		.size	lv_gauge_get_label_count, .-lv_gauge_get_label_count
 858              		.section	.text.lv_gauge_design,"ax",%progbits
 859              		.align	2
 860              		.thumb
 861              		.thumb_func
 862              		.type	lv_gauge_design, %function
 863              	lv_gauge_design:
 864              	.LFB54:
 259:..\..\..\lvgl\version_6.1.2\lvgl\src\lv_objx/lv_gauge.c **** 
 260:..\..\..\lvgl\version_6.1.2\lvgl\src\lv_objx/lv_gauge.c **** /**********************
 261:..\..\..\lvgl\version_6.1.2\lvgl\src\lv_objx/lv_gauge.c ****  *   STATIC FUNCTIONS
 262:..\..\..\lvgl\version_6.1.2\lvgl\src\lv_objx/lv_gauge.c ****  **********************/
 263:..\..\..\lvgl\version_6.1.2\lvgl\src\lv_objx/lv_gauge.c **** 
 264:..\..\..\lvgl\version_6.1.2\lvgl\src\lv_objx/lv_gauge.c **** /**
 265:..\..\..\lvgl\version_6.1.2\lvgl\src\lv_objx/lv_gauge.c ****  * Handle the drawing related tasks of the gauges
 266:..\..\..\lvgl\version_6.1.2\lvgl\src\lv_objx/lv_gauge.c ****  * @param gauge pointer to an object
 267:..\..\..\lvgl\version_6.1.2\lvgl\src\lv_objx/lv_gauge.c ****  * @param mask the object will be drawn only in this area
 268:..\..\..\lvgl\version_6.1.2\lvgl\src\lv_objx/lv_gauge.c ****  * @param mode LV_DESIGN_COVER_CHK: only check if the object fully covers the 'mask_p' area
 269:..\..\..\lvgl\version_6.1.2\lvgl\src\lv_objx/lv_gauge.c ****  *                                  (return 'true' if yes)
 270:..\..\..\lvgl\version_6.1.2\lvgl\src\lv_objx/lv_gauge.c ****  *             LV_DESIGN_DRAW: draw the object (always return 'true')
 271:..\..\..\lvgl\version_6.1.2\lvgl\src\lv_objx/lv_gauge.c ****  *             LV_DESIGN_DRAW_POST: drawing after every children are drawn
 272:..\..\..\lvgl\version_6.1.2\lvgl\src\lv_objx/lv_gauge.c ****  * @param return true/false, depends on 'mode'
 273:..\..\..\lvgl\version_6.1.2\lvgl\src\lv_objx/lv_gauge.c ****  */
 274:..\..\..\lvgl\version_6.1.2\lvgl\src\lv_objx/lv_gauge.c **** static bool lv_gauge_design(lv_obj_t * gauge, const lv_area_t * mask, lv_design_mode_t mode)
 275:..\..\..\lvgl\version_6.1.2\lvgl\src\lv_objx/lv_gauge.c **** {
 865              		.loc 2 275 0
ARM GAS  C:\Users\tmj32\AppData\Local\Temp\ccmyxrAJ.s 			page 25


 866              		.cfi_startproc
 867              		@ args = 0, pretend = 0, frame = 112
 868              		@ frame_needed = 1, uses_anonymous_args = 0
 869 0000 80B5     		push	{r7, lr}
 870              		.cfi_def_cfa_offset 8
 871              		.cfi_offset 7, -8
 872              		.cfi_offset 14, -4
 873 0002 9CB0     		sub	sp, sp, #112
 874              		.cfi_def_cfa_offset 120
 875 0004 00AF     		add	r7, sp, #0
 876              		.cfi_def_cfa_register 7
 877 0006 F860     		str	r0, [r7, #12]
 878 0008 B960     		str	r1, [r7, #8]
 879 000a 1346     		mov	r3, r2
 880 000c FB71     		strb	r3, [r7, #7]
 276:..\..\..\lvgl\version_6.1.2\lvgl\src\lv_objx/lv_gauge.c ****     /*Return false if the object is not covers the mask_p area*/
 277:..\..\..\lvgl\version_6.1.2\lvgl\src\lv_objx/lv_gauge.c ****     if(mode == LV_DESIGN_COVER_CHK) {
 881              		.loc 2 277 0
 882 000e FB79     		ldrb	r3, [r7, #7]	@ zero_extendqisi2
 883 0010 022B     		cmp	r3, #2
 884 0012 01D1     		bne	.L48
 278:..\..\..\lvgl\version_6.1.2\lvgl\src\lv_objx/lv_gauge.c ****         return false;
 885              		.loc 2 278 0
 886 0014 0023     		movs	r3, #0
 887 0016 54E0     		b	.L49
 888              	.L48:
 279:..\..\..\lvgl\version_6.1.2\lvgl\src\lv_objx/lv_gauge.c ****     }
 280:..\..\..\lvgl\version_6.1.2\lvgl\src\lv_objx/lv_gauge.c ****     /*Draw the object*/
 281:..\..\..\lvgl\version_6.1.2\lvgl\src\lv_objx/lv_gauge.c ****     else if(mode == LV_DESIGN_DRAW_MAIN) {
 889              		.loc 2 281 0
 890 0018 FB79     		ldrb	r3, [r7, #7]	@ zero_extendqisi2
 891 001a 002B     		cmp	r3, #0
 892 001c 47D1     		bne	.L50
 893              	.LBB6:
 282:..\..\..\lvgl\version_6.1.2\lvgl\src\lv_objx/lv_gauge.c **** 
 283:..\..\..\lvgl\version_6.1.2\lvgl\src\lv_objx/lv_gauge.c ****         /* Store the real pointer because of 'lv_group'
 284:..\..\..\lvgl\version_6.1.2\lvgl\src\lv_objx/lv_gauge.c ****          * If the object is in focus 'lv_obj_get_style()' will give a pointer to tmp style
 285:..\..\..\lvgl\version_6.1.2\lvgl\src\lv_objx/lv_gauge.c ****          * and to the real object style. It is important because of style change tricks below*/
 286:..\..\..\lvgl\version_6.1.2\lvgl\src\lv_objx/lv_gauge.c ****         const lv_style_t * style_ori_p = gauge->style_p;
 894              		.loc 2 286 0
 895 001e FB68     		ldr	r3, [r7, #12]
 896 0020 9B6A     		ldr	r3, [r3, #40]
 897 0022 FB66     		str	r3, [r7, #108]
 287:..\..\..\lvgl\version_6.1.2\lvgl\src\lv_objx/lv_gauge.c ****         const lv_style_t * style       = lv_obj_get_style(gauge);
 898              		.loc 2 287 0
 899 0024 F868     		ldr	r0, [r7, #12]
 900 0026 FFF7FEFF 		bl	lv_obj_get_style
 901 002a B866     		str	r0, [r7, #104]
 288:..\..\..\lvgl\version_6.1.2\lvgl\src\lv_objx/lv_gauge.c ****         lv_gauge_ext_t * ext           = lv_obj_get_ext_attr(gauge);
 902              		.loc 2 288 0
 903 002c F868     		ldr	r0, [r7, #12]
 904 002e FFF7FEFF 		bl	lv_obj_get_ext_attr
 905 0032 7866     		str	r0, [r7, #100]
 289:..\..\..\lvgl\version_6.1.2\lvgl\src\lv_objx/lv_gauge.c **** 
 290:..\..\..\lvgl\version_6.1.2\lvgl\src\lv_objx/lv_gauge.c ****         lv_gauge_draw_scale(gauge, mask);
 906              		.loc 2 290 0
 907 0034 B968     		ldr	r1, [r7, #8]
ARM GAS  C:\Users\tmj32\AppData\Local\Temp\ccmyxrAJ.s 			page 26


 908 0036 F868     		ldr	r0, [r7, #12]
 909 0038 FFF7FEFF 		bl	lv_gauge_draw_scale
 291:..\..\..\lvgl\version_6.1.2\lvgl\src\lv_objx/lv_gauge.c **** 
 292:..\..\..\lvgl\version_6.1.2\lvgl\src\lv_objx/lv_gauge.c ****         /*Draw the ancestor line meter with max value to show the rainbow like line colors*/
 293:..\..\..\lvgl\version_6.1.2\lvgl\src\lv_objx/lv_gauge.c ****         uint16_t line_cnt_tmp = ext->lmeter.line_cnt;
 910              		.loc 2 293 0
 911 003c 7B6E     		ldr	r3, [r7, #100]
 912 003e 9B88     		ldrh	r3, [r3, #4]	@ movhi
 913 0040 A7F86230 		strh	r3, [r7, #98]	@ movhi
 294:..\..\..\lvgl\version_6.1.2\lvgl\src\lv_objx/lv_gauge.c ****         ancestor_design(gauge, mask, mode); /*To draw lines*/
 914              		.loc 2 294 0
 915 0044 214B     		ldr	r3, .L52
 916 0046 1B68     		ldr	r3, [r3]
 917 0048 FA79     		ldrb	r2, [r7, #7]	@ zero_extendqisi2
 918 004a B968     		ldr	r1, [r7, #8]
 919 004c F868     		ldr	r0, [r7, #12]
 920 004e 9847     		blx	r3
 295:..\..\..\lvgl\version_6.1.2\lvgl\src\lv_objx/lv_gauge.c **** 
 296:..\..\..\lvgl\version_6.1.2\lvgl\src\lv_objx/lv_gauge.c ****         /*Temporally modify the line meter to draw longer lines where labels are*/
 297:..\..\..\lvgl\version_6.1.2\lvgl\src\lv_objx/lv_gauge.c ****         lv_style_t style_tmp;
 298:..\..\..\lvgl\version_6.1.2\lvgl\src\lv_objx/lv_gauge.c ****         lv_style_copy(&style_tmp, style);
 921              		.loc 2 298 0
 922 0050 07F11003 		add	r3, r7, #16
 923 0054 B96E     		ldr	r1, [r7, #104]
 924 0056 1846     		mov	r0, r3
 925 0058 FFF7FEFF 		bl	lv_style_copy
 299:..\..\..\lvgl\version_6.1.2\lvgl\src\lv_objx/lv_gauge.c ****         ext->lmeter.line_cnt         = ext->label_count;                 /*Only to labels*/
 926              		.loc 2 299 0
 927 005c 7B6E     		ldr	r3, [r7, #100]
 928 005e 5B7D     		ldrb	r3, [r3, #21]	@ zero_extendqisi2
 929 0060 9AB2     		uxth	r2, r3
 930 0062 7B6E     		ldr	r3, [r7, #100]
 931 0064 9A80     		strh	r2, [r3, #4]	@ movhi
 300:..\..\..\lvgl\version_6.1.2\lvgl\src\lv_objx/lv_gauge.c ****         style_tmp.body.padding.left  = style_tmp.body.padding.left * 2;  /*Longer lines*/
 932              		.loc 2 300 0
 933 0066 B7F93430 		ldrsh	r3, [r7, #52]
 934 006a 9BB2     		uxth	r3, r3
 935 006c 5B00     		lsls	r3, r3, #1
 936 006e 9BB2     		uxth	r3, r3
 937 0070 1BB2     		sxth	r3, r3
 938 0072 BB86     		strh	r3, [r7, #52]	@ movhi
 301:..\..\..\lvgl\version_6.1.2\lvgl\src\lv_objx/lv_gauge.c ****         style_tmp.body.padding.right = style_tmp.body.padding.right * 2; /*Longer lines*/
 939              		.loc 2 301 0
 940 0074 B7F93630 		ldrsh	r3, [r7, #54]
 941 0078 9BB2     		uxth	r3, r3
 942 007a 5B00     		lsls	r3, r3, #1
 943 007c 9BB2     		uxth	r3, r3
 944 007e 1BB2     		sxth	r3, r3
 945 0080 FB86     		strh	r3, [r7, #54]	@ movhi
 302:..\..\..\lvgl\version_6.1.2\lvgl\src\lv_objx/lv_gauge.c ****         gauge->style_p               = &style_tmp;
 946              		.loc 2 302 0
 947 0082 FB68     		ldr	r3, [r7, #12]
 948 0084 07F11002 		add	r2, r7, #16
 949 0088 9A62     		str	r2, [r3, #40]
 303:..\..\..\lvgl\version_6.1.2\lvgl\src\lv_objx/lv_gauge.c **** 
 304:..\..\..\lvgl\version_6.1.2\lvgl\src\lv_objx/lv_gauge.c ****         ancestor_design(gauge, mask, mode); /*To draw lines*/
 950              		.loc 2 304 0
ARM GAS  C:\Users\tmj32\AppData\Local\Temp\ccmyxrAJ.s 			page 27


 951 008a 104B     		ldr	r3, .L52
 952 008c 1B68     		ldr	r3, [r3]
 953 008e FA79     		ldrb	r2, [r7, #7]	@ zero_extendqisi2
 954 0090 B968     		ldr	r1, [r7, #8]
 955 0092 F868     		ldr	r0, [r7, #12]
 956 0094 9847     		blx	r3
 305:..\..\..\lvgl\version_6.1.2\lvgl\src\lv_objx/lv_gauge.c **** 
 306:..\..\..\lvgl\version_6.1.2\lvgl\src\lv_objx/lv_gauge.c ****         ext->lmeter.line_cnt = line_cnt_tmp; /*Restore the parameters*/
 957              		.loc 2 306 0
 958 0096 7B6E     		ldr	r3, [r7, #100]
 959 0098 B7F86220 		ldrh	r2, [r7, #98]	@ movhi
 960 009c 9A80     		strh	r2, [r3, #4]	@ movhi
 307:..\..\..\lvgl\version_6.1.2\lvgl\src\lv_objx/lv_gauge.c ****         gauge->style_p       = style_ori_p;  /*Restore the ORIGINAL style pointer*/
 961              		.loc 2 307 0
 962 009e FB68     		ldr	r3, [r7, #12]
 963 00a0 FA6E     		ldr	r2, [r7, #108]
 964 00a2 9A62     		str	r2, [r3, #40]
 308:..\..\..\lvgl\version_6.1.2\lvgl\src\lv_objx/lv_gauge.c **** 
 309:..\..\..\lvgl\version_6.1.2\lvgl\src\lv_objx/lv_gauge.c ****         lv_gauge_draw_needle(gauge, mask);
 965              		.loc 2 309 0
 966 00a4 B968     		ldr	r1, [r7, #8]
 967 00a6 F868     		ldr	r0, [r7, #12]
 968 00a8 FFF7FEFF 		bl	lv_gauge_draw_needle
 969              	.LBE6:
 970 00ac 08E0     		b	.L51
 971              	.L50:
 310:..\..\..\lvgl\version_6.1.2\lvgl\src\lv_objx/lv_gauge.c **** 
 311:..\..\..\lvgl\version_6.1.2\lvgl\src\lv_objx/lv_gauge.c ****     }
 312:..\..\..\lvgl\version_6.1.2\lvgl\src\lv_objx/lv_gauge.c ****     /*Post draw when the children are drawn*/
 313:..\..\..\lvgl\version_6.1.2\lvgl\src\lv_objx/lv_gauge.c ****     else if(mode == LV_DESIGN_DRAW_POST) {
 972              		.loc 2 313 0
 973 00ae FB79     		ldrb	r3, [r7, #7]	@ zero_extendqisi2
 974 00b0 012B     		cmp	r3, #1
 975 00b2 05D1     		bne	.L51
 314:..\..\..\lvgl\version_6.1.2\lvgl\src\lv_objx/lv_gauge.c ****         ancestor_design(gauge, mask, mode);
 976              		.loc 2 314 0
 977 00b4 054B     		ldr	r3, .L52
 978 00b6 1B68     		ldr	r3, [r3]
 979 00b8 FA79     		ldrb	r2, [r7, #7]	@ zero_extendqisi2
 980 00ba B968     		ldr	r1, [r7, #8]
 981 00bc F868     		ldr	r0, [r7, #12]
 982 00be 9847     		blx	r3
 983              	.L51:
 315:..\..\..\lvgl\version_6.1.2\lvgl\src\lv_objx/lv_gauge.c ****     }
 316:..\..\..\lvgl\version_6.1.2\lvgl\src\lv_objx/lv_gauge.c **** 
 317:..\..\..\lvgl\version_6.1.2\lvgl\src\lv_objx/lv_gauge.c ****     return true;
 984              		.loc 2 317 0
 985 00c0 0123     		movs	r3, #1
 986              	.L49:
 318:..\..\..\lvgl\version_6.1.2\lvgl\src\lv_objx/lv_gauge.c **** }
 987              		.loc 2 318 0
 988 00c2 1846     		mov	r0, r3
 989 00c4 7037     		adds	r7, r7, #112
 990              		.cfi_def_cfa_offset 8
 991 00c6 BD46     		mov	sp, r7
 992              		.cfi_def_cfa_register 13
 993              		@ sp needed
ARM GAS  C:\Users\tmj32\AppData\Local\Temp\ccmyxrAJ.s 			page 28


 994 00c8 80BD     		pop	{r7, pc}
 995              	.L53:
 996 00ca 00BF     		.align	2
 997              	.L52:
 998 00cc 00000000 		.word	ancestor_design
 999              		.cfi_endproc
 1000              	.LFE54:
 1001              		.size	lv_gauge_design, .-lv_gauge_design
 1002              		.section	.rodata
 1003              		.align	2
 1004              	.LC0:
 1005 0000 6C765F67 		.ascii	"lv_gauge\000"
 1005      61756765 
 1005      00
 1006              		.section	.text.lv_gauge_signal,"ax",%progbits
 1007              		.align	2
 1008              		.thumb
 1009              		.thumb_func
 1010              		.type	lv_gauge_signal, %function
 1011              	lv_gauge_signal:
 1012              	.LFB55:
 319:..\..\..\lvgl\version_6.1.2\lvgl\src\lv_objx/lv_gauge.c **** 
 320:..\..\..\lvgl\version_6.1.2\lvgl\src\lv_objx/lv_gauge.c **** /**
 321:..\..\..\lvgl\version_6.1.2\lvgl\src\lv_objx/lv_gauge.c ****  * Signal function of the gauge
 322:..\..\..\lvgl\version_6.1.2\lvgl\src\lv_objx/lv_gauge.c ****  * @param gauge pointer to a gauge object
 323:..\..\..\lvgl\version_6.1.2\lvgl\src\lv_objx/lv_gauge.c ****  * @param sign a signal type from lv_signal_t enum
 324:..\..\..\lvgl\version_6.1.2\lvgl\src\lv_objx/lv_gauge.c ****  * @param param pointer to a signal specific variable
 325:..\..\..\lvgl\version_6.1.2\lvgl\src\lv_objx/lv_gauge.c ****  * @return LV_RES_OK: the object is not deleted in the function; LV_RES_INV: the object is deleted
 326:..\..\..\lvgl\version_6.1.2\lvgl\src\lv_objx/lv_gauge.c ****  */
 327:..\..\..\lvgl\version_6.1.2\lvgl\src\lv_objx/lv_gauge.c **** static lv_res_t lv_gauge_signal(lv_obj_t * gauge, lv_signal_t sign, void * param)
 328:..\..\..\lvgl\version_6.1.2\lvgl\src\lv_objx/lv_gauge.c **** {
 1013              		.loc 2 328 0
 1014              		.cfi_startproc
 1015              		@ args = 0, pretend = 0, frame = 24
 1016              		@ frame_needed = 1, uses_anonymous_args = 0
 1017 0000 80B5     		push	{r7, lr}
 1018              		.cfi_def_cfa_offset 8
 1019              		.cfi_offset 7, -8
 1020              		.cfi_offset 14, -4
 1021 0002 86B0     		sub	sp, sp, #24
 1022              		.cfi_def_cfa_offset 32
 1023 0004 00AF     		add	r7, sp, #0
 1024              		.cfi_def_cfa_register 7
 1025 0006 F860     		str	r0, [r7, #12]
 1026 0008 0B46     		mov	r3, r1
 1027 000a 7A60     		str	r2, [r7, #4]
 1028 000c FB72     		strb	r3, [r7, #11]
 329:..\..\..\lvgl\version_6.1.2\lvgl\src\lv_objx/lv_gauge.c ****     lv_res_t res;
 330:..\..\..\lvgl\version_6.1.2\lvgl\src\lv_objx/lv_gauge.c **** 
 331:..\..\..\lvgl\version_6.1.2\lvgl\src\lv_objx/lv_gauge.c ****     /* Include the ancient signal function */
 332:..\..\..\lvgl\version_6.1.2\lvgl\src\lv_objx/lv_gauge.c ****     res = ancestor_signal(gauge, sign, param);
 1029              		.loc 2 332 0
 1030 000e 154B     		ldr	r3, .L59
 1031 0010 1B68     		ldr	r3, [r3]
 1032 0012 F97A     		ldrb	r1, [r7, #11]	@ zero_extendqisi2
 1033 0014 7A68     		ldr	r2, [r7, #4]
 1034 0016 F868     		ldr	r0, [r7, #12]
ARM GAS  C:\Users\tmj32\AppData\Local\Temp\ccmyxrAJ.s 			page 29


 1035 0018 9847     		blx	r3
 1036 001a 0346     		mov	r3, r0
 1037 001c FB75     		strb	r3, [r7, #23]
 333:..\..\..\lvgl\version_6.1.2\lvgl\src\lv_objx/lv_gauge.c ****     if(res != LV_RES_OK) return res;
 1038              		.loc 2 333 0
 1039 001e FB7D     		ldrb	r3, [r7, #23]	@ zero_extendqisi2
 1040 0020 012B     		cmp	r3, #1
 1041 0022 01D0     		beq	.L55
 1042              		.loc 2 333 0 is_stmt 0 discriminator 1
 1043 0024 FB7D     		ldrb	r3, [r7, #23]	@ zero_extendqisi2
 1044 0026 18E0     		b	.L56
 1045              	.L55:
 334:..\..\..\lvgl\version_6.1.2\lvgl\src\lv_objx/lv_gauge.c ****     if(sign == LV_SIGNAL_GET_TYPE) return lv_obj_handle_get_type_signal(param, LV_OBJX_NAME);
 1046              		.loc 2 334 0 is_stmt 1
 1047 0028 FB7A     		ldrb	r3, [r7, #11]	@ zero_extendqisi2
 1048 002a 072B     		cmp	r3, #7
 1049 002c 05D1     		bne	.L57
 1050              		.loc 2 334 0 is_stmt 0 discriminator 1
 1051 002e 0E49     		ldr	r1, .L59+4
 1052 0030 7868     		ldr	r0, [r7, #4]
 1053 0032 FFF7FEFF 		bl	lv_obj_handle_get_type_signal
 1054 0036 0346     		mov	r3, r0
 1055 0038 0FE0     		b	.L56
 1056              	.L57:
 335:..\..\..\lvgl\version_6.1.2\lvgl\src\lv_objx/lv_gauge.c **** 
 336:..\..\..\lvgl\version_6.1.2\lvgl\src\lv_objx/lv_gauge.c ****     lv_gauge_ext_t * ext = lv_obj_get_ext_attr(gauge);
 1057              		.loc 2 336 0 is_stmt 1
 1058 003a F868     		ldr	r0, [r7, #12]
 1059 003c FFF7FEFF 		bl	lv_obj_get_ext_attr
 1060 0040 3861     		str	r0, [r7, #16]
 337:..\..\..\lvgl\version_6.1.2\lvgl\src\lv_objx/lv_gauge.c ****     if(sign == LV_SIGNAL_CLEANUP) {
 1061              		.loc 2 337 0
 1062 0042 FB7A     		ldrb	r3, [r7, #11]	@ zero_extendqisi2
 1063 0044 002B     		cmp	r3, #0
 1064 0046 07D1     		bne	.L58
 338:..\..\..\lvgl\version_6.1.2\lvgl\src\lv_objx/lv_gauge.c ****         lv_mem_free(ext->values);
 1065              		.loc 2 338 0
 1066 0048 3B69     		ldr	r3, [r7, #16]
 1067 004a DB68     		ldr	r3, [r3, #12]
 1068 004c 1846     		mov	r0, r3
 1069 004e FFF7FEFF 		bl	lv_mem_free
 339:..\..\..\lvgl\version_6.1.2\lvgl\src\lv_objx/lv_gauge.c ****         ext->values = NULL;
 1070              		.loc 2 339 0
 1071 0052 3B69     		ldr	r3, [r7, #16]
 1072 0054 0022     		movs	r2, #0
 1073 0056 DA60     		str	r2, [r3, #12]
 1074              	.L58:
 340:..\..\..\lvgl\version_6.1.2\lvgl\src\lv_objx/lv_gauge.c ****     }
 341:..\..\..\lvgl\version_6.1.2\lvgl\src\lv_objx/lv_gauge.c **** 
 342:..\..\..\lvgl\version_6.1.2\lvgl\src\lv_objx/lv_gauge.c ****     return res;
 1075              		.loc 2 342 0
 1076 0058 FB7D     		ldrb	r3, [r7, #23]	@ zero_extendqisi2
 1077              	.L56:
 343:..\..\..\lvgl\version_6.1.2\lvgl\src\lv_objx/lv_gauge.c **** }
 1078              		.loc 2 343 0
 1079 005a 1846     		mov	r0, r3
 1080 005c 1837     		adds	r7, r7, #24
ARM GAS  C:\Users\tmj32\AppData\Local\Temp\ccmyxrAJ.s 			page 30


 1081              		.cfi_def_cfa_offset 8
 1082 005e BD46     		mov	sp, r7
 1083              		.cfi_def_cfa_register 13
 1084              		@ sp needed
 1085 0060 80BD     		pop	{r7, pc}
 1086              	.L60:
 1087 0062 00BF     		.align	2
 1088              	.L59:
 1089 0064 04000000 		.word	ancestor_signal
 1090 0068 00000000 		.word	.LC0
 1091              		.cfi_endproc
 1092              	.LFE55:
 1093              		.size	lv_gauge_signal, .-lv_gauge_signal
 1094              		.section	.text.lv_gauge_draw_scale,"ax",%progbits
 1095              		.align	2
 1096              		.thumb
 1097              		.thumb_func
 1098              		.type	lv_gauge_draw_scale, %function
 1099              	lv_gauge_draw_scale:
 1100              	.LFB56:
 344:..\..\..\lvgl\version_6.1.2\lvgl\src\lv_objx/lv_gauge.c **** 
 345:..\..\..\lvgl\version_6.1.2\lvgl\src\lv_objx/lv_gauge.c **** /**
 346:..\..\..\lvgl\version_6.1.2\lvgl\src\lv_objx/lv_gauge.c ****  * Draw the scale on a gauge
 347:..\..\..\lvgl\version_6.1.2\lvgl\src\lv_objx/lv_gauge.c ****  * @param gauge pointer to gauge object
 348:..\..\..\lvgl\version_6.1.2\lvgl\src\lv_objx/lv_gauge.c ****  * @param mask mask of drawing
 349:..\..\..\lvgl\version_6.1.2\lvgl\src\lv_objx/lv_gauge.c ****  */
 350:..\..\..\lvgl\version_6.1.2\lvgl\src\lv_objx/lv_gauge.c **** static void lv_gauge_draw_scale(lv_obj_t * gauge, const lv_area_t * mask)
 351:..\..\..\lvgl\version_6.1.2\lvgl\src\lv_objx/lv_gauge.c **** {
 1101              		.loc 2 351 0
 1102              		.cfi_startproc
 1103              		@ args = 0, pretend = 0, frame = 80
 1104              		@ frame_needed = 1, uses_anonymous_args = 0
 1105 0000 B0B5     		push	{r4, r5, r7, lr}
 1106              		.cfi_def_cfa_offset 16
 1107              		.cfi_offset 4, -16
 1108              		.cfi_offset 5, -12
 1109              		.cfi_offset 7, -8
 1110              		.cfi_offset 14, -4
 1111 0002 9AB0     		sub	sp, sp, #104
 1112              		.cfi_def_cfa_offset 120
 1113 0004 06AF     		add	r7, sp, #24
 1114              		.cfi_def_cfa 7, 96
 1115 0006 7860     		str	r0, [r7, #4]
 1116 0008 3960     		str	r1, [r7]
 352:..\..\..\lvgl\version_6.1.2\lvgl\src\lv_objx/lv_gauge.c ****     char scale_txt[16];
 353:..\..\..\lvgl\version_6.1.2\lvgl\src\lv_objx/lv_gauge.c **** 
 354:..\..\..\lvgl\version_6.1.2\lvgl\src\lv_objx/lv_gauge.c ****     lv_gauge_ext_t * ext     = lv_obj_get_ext_attr(gauge);
 1117              		.loc 2 354 0
 1118 000a 7868     		ldr	r0, [r7, #4]
 1119 000c FFF7FEFF 		bl	lv_obj_get_ext_attr
 1120 0010 B864     		str	r0, [r7, #72]
 355:..\..\..\lvgl\version_6.1.2\lvgl\src\lv_objx/lv_gauge.c ****     const lv_style_t * style = lv_obj_get_style(gauge);
 1121              		.loc 2 355 0
 1122 0012 7868     		ldr	r0, [r7, #4]
 1123 0014 FFF7FEFF 		bl	lv_obj_get_style
 1124 0018 7864     		str	r0, [r7, #68]
 356:..\..\..\lvgl\version_6.1.2\lvgl\src\lv_objx/lv_gauge.c ****     lv_opa_t opa_scale       = lv_obj_get_opa_scale(gauge);
ARM GAS  C:\Users\tmj32\AppData\Local\Temp\ccmyxrAJ.s 			page 31


 1125              		.loc 2 356 0
 1126 001a 7868     		ldr	r0, [r7, #4]
 1127 001c FFF7FEFF 		bl	lv_obj_get_opa_scale
 1128 0020 0346     		mov	r3, r0
 1129 0022 87F84330 		strb	r3, [r7, #67]
 357:..\..\..\lvgl\version_6.1.2\lvgl\src\lv_objx/lv_gauge.c ****     lv_coord_t r             = lv_obj_get_width(gauge) / 2 - (3 * style->body.padding.left) - style
 1130              		.loc 2 357 0
 1131 0026 7868     		ldr	r0, [r7, #4]
 1132 0028 FFF7FEFF 		bl	lv_obj_get_width
 1133 002c 0346     		mov	r3, r0
 1134 002e DA0F     		lsrs	r2, r3, #31
 1135 0030 1344     		add	r3, r3, r2
 1136 0032 5B10     		asrs	r3, r3, #1
 1137 0034 1BB2     		sxth	r3, r3
 1138 0036 9AB2     		uxth	r2, r3
 1139 0038 7B6C     		ldr	r3, [r7, #68]
 1140 003a B3F92430 		ldrsh	r3, [r3, #36]
 1141 003e 9BB2     		uxth	r3, r3
 1142 0040 1946     		mov	r1, r3	@ movhi
 1143 0042 9B00     		lsls	r3, r3, #2
 1144 0044 CB1A     		subs	r3, r1, r3
 1145 0046 9BB2     		uxth	r3, r3
 1146 0048 1344     		add	r3, r3, r2
 1147 004a 9AB2     		uxth	r2, r3
 1148 004c 7B6C     		ldr	r3, [r7, #68]
 1149 004e B3F92830 		ldrsh	r3, [r3, #40]
 1150 0052 9BB2     		uxth	r3, r3
 1151 0054 D31A     		subs	r3, r2, r3
 1152 0056 9BB2     		uxth	r3, r3
 1153 0058 A7F84030 		strh	r3, [r7, #64]	@ movhi
 358:..\..\..\lvgl\version_6.1.2\lvgl\src\lv_objx/lv_gauge.c ****     lv_coord_t x_ofs         = lv_obj_get_width(gauge) / 2 + gauge->coords.x1;
 1154              		.loc 2 358 0
 1155 005c 7868     		ldr	r0, [r7, #4]
 1156 005e FFF7FEFF 		bl	lv_obj_get_width
 1157 0062 0346     		mov	r3, r0
 1158 0064 DA0F     		lsrs	r2, r3, #31
 1159 0066 1344     		add	r3, r3, r2
 1160 0068 5B10     		asrs	r3, r3, #1
 1161 006a 1BB2     		sxth	r3, r3
 1162 006c 9AB2     		uxth	r2, r3
 1163 006e 7B68     		ldr	r3, [r7, #4]
 1164 0070 B3F91030 		ldrsh	r3, [r3, #16]
 1165 0074 9BB2     		uxth	r3, r3
 1166 0076 1344     		add	r3, r3, r2
 1167 0078 9BB2     		uxth	r3, r3
 1168 007a FB87     		strh	r3, [r7, #62]	@ movhi
 359:..\..\..\lvgl\version_6.1.2\lvgl\src\lv_objx/lv_gauge.c ****     lv_coord_t y_ofs         = lv_obj_get_height(gauge) / 2 + gauge->coords.y1;
 1169              		.loc 2 359 0
 1170 007c 7868     		ldr	r0, [r7, #4]
 1171 007e FFF7FEFF 		bl	lv_obj_get_height
 1172 0082 0346     		mov	r3, r0
 1173 0084 DA0F     		lsrs	r2, r3, #31
 1174 0086 1344     		add	r3, r3, r2
 1175 0088 5B10     		asrs	r3, r3, #1
 1176 008a 1BB2     		sxth	r3, r3
 1177 008c 9AB2     		uxth	r2, r3
 1178 008e 7B68     		ldr	r3, [r7, #4]
ARM GAS  C:\Users\tmj32\AppData\Local\Temp\ccmyxrAJ.s 			page 32


 1179 0090 B3F91230 		ldrsh	r3, [r3, #18]
 1180 0094 9BB2     		uxth	r3, r3
 1181 0096 1344     		add	r3, r3, r2
 1182 0098 9BB2     		uxth	r3, r3
 1183 009a BB87     		strh	r3, [r7, #60]	@ movhi
 360:..\..\..\lvgl\version_6.1.2\lvgl\src\lv_objx/lv_gauge.c ****     int16_t scale_angle      = lv_lmeter_get_scale_angle(gauge);
 1184              		.loc 2 360 0
 1185 009c 7868     		ldr	r0, [r7, #4]
 1186 009e FFF7FEFF 		bl	lv_lmeter_get_scale_angle
 1187 00a2 0346     		mov	r3, r0
 1188 00a4 7B87     		strh	r3, [r7, #58]	@ movhi
 361:..\..\..\lvgl\version_6.1.2\lvgl\src\lv_objx/lv_gauge.c ****     uint16_t label_num       = ext->label_count;
 1189              		.loc 2 361 0
 1190 00a6 BB6C     		ldr	r3, [r7, #72]
 1191 00a8 5B7D     		ldrb	r3, [r3, #21]	@ zero_extendqisi2
 1192 00aa 3B87     		strh	r3, [r7, #56]	@ movhi
 362:..\..\..\lvgl\version_6.1.2\lvgl\src\lv_objx/lv_gauge.c ****     int16_t angle_ofs        = 90 + (360 - scale_angle) / 2;
 1193              		.loc 2 362 0
 1194 00ac B7F93A30 		ldrsh	r3, [r7, #58]
 1195 00b0 C3F5B473 		rsb	r3, r3, #360
 1196 00b4 DA0F     		lsrs	r2, r3, #31
 1197 00b6 1344     		add	r3, r3, r2
 1198 00b8 5B10     		asrs	r3, r3, #1
 1199 00ba 9BB2     		uxth	r3, r3
 1200 00bc 5A33     		adds	r3, r3, #90
 1201 00be 9BB2     		uxth	r3, r3
 1202 00c0 FB86     		strh	r3, [r7, #54]	@ movhi
 363:..\..\..\lvgl\version_6.1.2\lvgl\src\lv_objx/lv_gauge.c ****     int16_t min              = lv_gauge_get_min_value(gauge);
 1203              		.loc 2 363 0
 1204 00c2 7868     		ldr	r0, [r7, #4]
 1205 00c4 FFF7FEFF 		bl	lv_gauge_get_min_value
 1206 00c8 0346     		mov	r3, r0
 1207 00ca BB86     		strh	r3, [r7, #52]	@ movhi
 364:..\..\..\lvgl\version_6.1.2\lvgl\src\lv_objx/lv_gauge.c ****     int16_t max              = lv_gauge_get_max_value(gauge);
 1208              		.loc 2 364 0
 1209 00cc 7868     		ldr	r0, [r7, #4]
 1210 00ce FFF7FEFF 		bl	lv_gauge_get_max_value
 1211 00d2 0346     		mov	r3, r0
 1212 00d4 7B86     		strh	r3, [r7, #50]	@ movhi
 365:..\..\..\lvgl\version_6.1.2\lvgl\src\lv_objx/lv_gauge.c **** 
 366:..\..\..\lvgl\version_6.1.2\lvgl\src\lv_objx/lv_gauge.c ****     uint8_t i;
 367:..\..\..\lvgl\version_6.1.2\lvgl\src\lv_objx/lv_gauge.c ****     for(i = 0; i < label_num; i++) {
 1213              		.loc 2 367 0
 1214 00d6 0023     		movs	r3, #0
 1215 00d8 87F84F30 		strb	r3, [r7, #79]
 1216 00dc BBE0     		b	.L62
 1217              	.L63:
 1218              	.LBB7:
 368:..\..\..\lvgl\version_6.1.2\lvgl\src\lv_objx/lv_gauge.c ****         /*Calculate the position a scale label*/
 369:..\..\..\lvgl\version_6.1.2\lvgl\src\lv_objx/lv_gauge.c ****         int16_t angle = (i * scale_angle) / (label_num - 1) + angle_ofs;
 1219              		.loc 2 369 0 discriminator 3
 1220 00de 97F84F30 		ldrb	r3, [r7, #79]	@ zero_extendqisi2
 1221 00e2 B7F93A20 		ldrsh	r2, [r7, #58]
 1222 00e6 02FB03F2 		mul	r2, r2, r3
 1223 00ea 3B8F     		ldrh	r3, [r7, #56]
 1224 00ec 013B     		subs	r3, r3, #1
 1225 00ee 92FBF3F3 		sdiv	r3, r2, r3
ARM GAS  C:\Users\tmj32\AppData\Local\Temp\ccmyxrAJ.s 			page 33


 1226 00f2 9AB2     		uxth	r2, r3
 1227 00f4 FB8E     		ldrh	r3, [r7, #54]
 1228 00f6 1344     		add	r3, r3, r2
 1229 00f8 9BB2     		uxth	r3, r3
 1230 00fa 3B86     		strh	r3, [r7, #48]	@ movhi
 370:..\..\..\lvgl\version_6.1.2\lvgl\src\lv_objx/lv_gauge.c **** 
 371:..\..\..\lvgl\version_6.1.2\lvgl\src\lv_objx/lv_gauge.c ****         lv_coord_t y = (int32_t)((int32_t)lv_trigo_sin(angle) * r) / LV_TRIGO_SIN_MAX;
 1231              		.loc 2 371 0 discriminator 3
 1232 00fc B7F93030 		ldrsh	r3, [r7, #48]
 1233 0100 1846     		mov	r0, r3
 1234 0102 FFF7FEFF 		bl	lv_trigo_sin
 1235 0106 0346     		mov	r3, r0
 1236 0108 1A46     		mov	r2, r3
 1237 010a B7F94030 		ldrsh	r3, [r7, #64]
 1238 010e 03FB02F3 		mul	r3, r3, r2
 1239 0112 564A     		ldr	r2, .L64
 1240 0114 82FB0312 		smull	r1, r2, r2, r3
 1241 0118 1A44     		add	r2, r2, r3
 1242 011a 9213     		asrs	r2, r2, #14
 1243 011c DB17     		asrs	r3, r3, #31
 1244 011e D31A     		subs	r3, r2, r3
 1245 0120 FB85     		strh	r3, [r7, #46]	@ movhi
 372:..\..\..\lvgl\version_6.1.2\lvgl\src\lv_objx/lv_gauge.c ****         y += y_ofs;
 1246              		.loc 2 372 0 discriminator 3
 1247 0122 FA8D     		ldrh	r2, [r7, #46]
 1248 0124 BB8F     		ldrh	r3, [r7, #60]
 1249 0126 1344     		add	r3, r3, r2
 1250 0128 9BB2     		uxth	r3, r3
 1251 012a FB85     		strh	r3, [r7, #46]	@ movhi
 373:..\..\..\lvgl\version_6.1.2\lvgl\src\lv_objx/lv_gauge.c **** 
 374:..\..\..\lvgl\version_6.1.2\lvgl\src\lv_objx/lv_gauge.c ****         lv_coord_t x = (int32_t)((int32_t)lv_trigo_sin(angle + 90) * r) / LV_TRIGO_SIN_MAX;
 1252              		.loc 2 374 0 discriminator 3
 1253 012c 3B8E     		ldrh	r3, [r7, #48]
 1254 012e 5A33     		adds	r3, r3, #90
 1255 0130 9BB2     		uxth	r3, r3
 1256 0132 1BB2     		sxth	r3, r3
 1257 0134 1846     		mov	r0, r3
 1258 0136 FFF7FEFF 		bl	lv_trigo_sin
 1259 013a 0346     		mov	r3, r0
 1260 013c 1A46     		mov	r2, r3
 1261 013e B7F94030 		ldrsh	r3, [r7, #64]
 1262 0142 03FB02F3 		mul	r3, r3, r2
 1263 0146 494A     		ldr	r2, .L64
 1264 0148 82FB0312 		smull	r1, r2, r2, r3
 1265 014c 1A44     		add	r2, r2, r3
 1266 014e 9213     		asrs	r2, r2, #14
 1267 0150 DB17     		asrs	r3, r3, #31
 1268 0152 D31A     		subs	r3, r2, r3
 1269 0154 BB85     		strh	r3, [r7, #44]	@ movhi
 375:..\..\..\lvgl\version_6.1.2\lvgl\src\lv_objx/lv_gauge.c ****         x += x_ofs;
 1270              		.loc 2 375 0 discriminator 3
 1271 0156 BA8D     		ldrh	r2, [r7, #44]
 1272 0158 FB8F     		ldrh	r3, [r7, #62]
 1273 015a 1344     		add	r3, r3, r2
 1274 015c 9BB2     		uxth	r3, r3
 1275 015e BB85     		strh	r3, [r7, #44]	@ movhi
 376:..\..\..\lvgl\version_6.1.2\lvgl\src\lv_objx/lv_gauge.c **** 
ARM GAS  C:\Users\tmj32\AppData\Local\Temp\ccmyxrAJ.s 			page 34


 377:..\..\..\lvgl\version_6.1.2\lvgl\src\lv_objx/lv_gauge.c ****         int16_t scale_act = (int32_t)((int32_t)(max - min) * i) / (label_num - 1);
 1276              		.loc 2 377 0 discriminator 3
 1277 0160 B7F93220 		ldrsh	r2, [r7, #50]
 1278 0164 B7F93430 		ldrsh	r3, [r7, #52]
 1279 0168 D31A     		subs	r3, r2, r3
 1280 016a 97F84F20 		ldrb	r2, [r7, #79]	@ zero_extendqisi2
 1281 016e 02FB03F2 		mul	r2, r2, r3
 1282 0172 3B8F     		ldrh	r3, [r7, #56]
 1283 0174 013B     		subs	r3, r3, #1
 1284 0176 92FBF3F3 		sdiv	r3, r2, r3
 1285 017a 7B85     		strh	r3, [r7, #42]	@ movhi
 378:..\..\..\lvgl\version_6.1.2\lvgl\src\lv_objx/lv_gauge.c ****         scale_act += min;
 1286              		.loc 2 378 0 discriminator 3
 1287 017c 7A8D     		ldrh	r2, [r7, #42]
 1288 017e BB8E     		ldrh	r3, [r7, #52]
 1289 0180 1344     		add	r3, r3, r2
 1290 0182 9BB2     		uxth	r3, r3
 1291 0184 7B85     		strh	r3, [r7, #42]	@ movhi
 379:..\..\..\lvgl\version_6.1.2\lvgl\src\lv_objx/lv_gauge.c ****         lv_utils_num_to_str(scale_act, scale_txt);
 1292              		.loc 2 379 0 discriminator 3
 1293 0186 B7F92A30 		ldrsh	r3, [r7, #42]
 1294 018a 07F11802 		add	r2, r7, #24
 1295 018e 1146     		mov	r1, r2
 1296 0190 1846     		mov	r0, r3
 1297 0192 FFF7FEFF 		bl	lv_utils_num_to_str
 380:..\..\..\lvgl\version_6.1.2\lvgl\src\lv_objx/lv_gauge.c **** 
 381:..\..\..\lvgl\version_6.1.2\lvgl\src\lv_objx/lv_gauge.c ****         lv_area_t label_cord;
 382:..\..\..\lvgl\version_6.1.2\lvgl\src\lv_objx/lv_gauge.c ****         lv_point_t label_size;
 383:..\..\..\lvgl\version_6.1.2\lvgl\src\lv_objx/lv_gauge.c ****         lv_txt_get_size(&label_size, scale_txt, style->text.font, style->text.letter_space, style->
 1298              		.loc 2 383 0 discriminator 3
 1299 0196 7B6C     		ldr	r3, [r7, #68]
 1300 0198 5C6B     		ldr	r4, [r3, #52]
 1301 019a 7B6C     		ldr	r3, [r7, #68]
 1302 019c B3F93850 		ldrsh	r5, [r3, #56]
 1303 01a0 7B6C     		ldr	r3, [r7, #68]
 1304 01a2 B3F93A30 		ldrsh	r3, [r3, #58]
 1305 01a6 07F11801 		add	r1, r7, #24
 1306 01aa 07F10C00 		add	r0, r7, #12
 1307 01ae 0022     		movs	r2, #0
 1308 01b0 0292     		str	r2, [sp, #8]
 1309 01b2 47F61842 		movw	r2, #31768
 1310 01b6 0192     		str	r2, [sp, #4]
 1311 01b8 0093     		str	r3, [sp]
 1312 01ba 2B46     		mov	r3, r5
 1313 01bc 2246     		mov	r2, r4
 1314 01be FFF7FEFF 		bl	lv_txt_get_size
 384:..\..\..\lvgl\version_6.1.2\lvgl\src\lv_objx/lv_gauge.c ****                         LV_COORD_MAX, LV_TXT_FLAG_NONE);
 385:..\..\..\lvgl\version_6.1.2\lvgl\src\lv_objx/lv_gauge.c **** 
 386:..\..\..\lvgl\version_6.1.2\lvgl\src\lv_objx/lv_gauge.c ****         /*Draw the label*/
 387:..\..\..\lvgl\version_6.1.2\lvgl\src\lv_objx/lv_gauge.c ****         label_cord.x1 = x - label_size.x / 2;
 1315              		.loc 2 387 0 discriminator 3
 1316 01c2 BA8D     		ldrh	r2, [r7, #44]
 1317 01c4 B7F90C30 		ldrsh	r3, [r7, #12]
 1318 01c8 D90F     		lsrs	r1, r3, #31
 1319 01ca 0B44     		add	r3, r3, r1
 1320 01cc 5B10     		asrs	r3, r3, #1
 1321 01ce 1BB2     		sxth	r3, r3
ARM GAS  C:\Users\tmj32\AppData\Local\Temp\ccmyxrAJ.s 			page 35


 1322 01d0 9BB2     		uxth	r3, r3
 1323 01d2 D31A     		subs	r3, r2, r3
 1324 01d4 9BB2     		uxth	r3, r3
 1325 01d6 1BB2     		sxth	r3, r3
 1326 01d8 3B82     		strh	r3, [r7, #16]	@ movhi
 388:..\..\..\lvgl\version_6.1.2\lvgl\src\lv_objx/lv_gauge.c ****         label_cord.y1 = y - label_size.y / 2;
 1327              		.loc 2 388 0 discriminator 3
 1328 01da FA8D     		ldrh	r2, [r7, #46]
 1329 01dc B7F90E30 		ldrsh	r3, [r7, #14]
 1330 01e0 D90F     		lsrs	r1, r3, #31
 1331 01e2 0B44     		add	r3, r3, r1
 1332 01e4 5B10     		asrs	r3, r3, #1
 1333 01e6 1BB2     		sxth	r3, r3
 1334 01e8 9BB2     		uxth	r3, r3
 1335 01ea D31A     		subs	r3, r2, r3
 1336 01ec 9BB2     		uxth	r3, r3
 1337 01ee 1BB2     		sxth	r3, r3
 1338 01f0 7B82     		strh	r3, [r7, #18]	@ movhi
 389:..\..\..\lvgl\version_6.1.2\lvgl\src\lv_objx/lv_gauge.c ****         label_cord.x2 = label_cord.x1 + label_size.x;
 1339              		.loc 2 389 0 discriminator 3
 1340 01f2 B7F91030 		ldrsh	r3, [r7, #16]
 1341 01f6 9AB2     		uxth	r2, r3
 1342 01f8 B7F90C30 		ldrsh	r3, [r7, #12]
 1343 01fc 9BB2     		uxth	r3, r3
 1344 01fe 1344     		add	r3, r3, r2
 1345 0200 9BB2     		uxth	r3, r3
 1346 0202 1BB2     		sxth	r3, r3
 1347 0204 BB82     		strh	r3, [r7, #20]	@ movhi
 390:..\..\..\lvgl\version_6.1.2\lvgl\src\lv_objx/lv_gauge.c ****         label_cord.y2 = label_cord.y1 + label_size.y;
 1348              		.loc 2 390 0 discriminator 3
 1349 0206 B7F91230 		ldrsh	r3, [r7, #18]
 1350 020a 9AB2     		uxth	r2, r3
 1351 020c B7F90E30 		ldrsh	r3, [r7, #14]
 1352 0210 9BB2     		uxth	r3, r3
 1353 0212 1344     		add	r3, r3, r2
 1354 0214 9BB2     		uxth	r3, r3
 1355 0216 1BB2     		sxth	r3, r3
 1356 0218 FB82     		strh	r3, [r7, #22]	@ movhi
 391:..\..\..\lvgl\version_6.1.2\lvgl\src\lv_objx/lv_gauge.c **** 
 392:..\..\..\lvgl\version_6.1.2\lvgl\src\lv_objx/lv_gauge.c ****         lv_draw_label(&label_cord, mask, style, opa_scale, scale_txt, LV_TXT_FLAG_NONE, NULL, NULL,
 1357              		.loc 2 392 0 discriminator 3
 1358 021a 7868     		ldr	r0, [r7, #4]
 1359 021c FFF7FEFF 		bl	lv_obj_get_base_dir
 1360 0220 0346     		mov	r3, r0
 1361 0222 97F84320 		ldrb	r2, [r7, #67]	@ zero_extendqisi2
 1362 0226 07F11000 		add	r0, r7, #16
 1363 022a 0593     		str	r3, [sp, #20]
 1364 022c 0023     		movs	r3, #0
 1365 022e 0493     		str	r3, [sp, #16]
 1366 0230 0023     		movs	r3, #0
 1367 0232 0393     		str	r3, [sp, #12]
 1368 0234 0023     		movs	r3, #0
 1369 0236 0293     		str	r3, [sp, #8]
 1370 0238 0023     		movs	r3, #0
 1371 023a 0193     		str	r3, [sp, #4]
 1372 023c 07F11803 		add	r3, r7, #24
 1373 0240 0093     		str	r3, [sp]
ARM GAS  C:\Users\tmj32\AppData\Local\Temp\ccmyxrAJ.s 			page 36


 1374 0242 1346     		mov	r3, r2
 1375 0244 7A6C     		ldr	r2, [r7, #68]
 1376 0246 3968     		ldr	r1, [r7]
 1377 0248 FFF7FEFF 		bl	lv_draw_label
 1378              	.LBE7:
 367:..\..\..\lvgl\version_6.1.2\lvgl\src\lv_objx/lv_gauge.c ****         /*Calculate the position a scale label*/
 1379              		.loc 2 367 0 discriminator 3
 1380 024c 97F84F30 		ldrb	r3, [r7, #79]	@ zero_extendqisi2
 1381 0250 0133     		adds	r3, r3, #1
 1382 0252 87F84F30 		strb	r3, [r7, #79]
 1383              	.L62:
 367:..\..\..\lvgl\version_6.1.2\lvgl\src\lv_objx/lv_gauge.c ****         /*Calculate the position a scale label*/
 1384              		.loc 2 367 0 is_stmt 0 discriminator 1
 1385 0256 97F84F30 		ldrb	r3, [r7, #79]	@ zero_extendqisi2
 1386 025a 9BB2     		uxth	r3, r3
 1387 025c 3A8F     		ldrh	r2, [r7, #56]
 1388 025e 9A42     		cmp	r2, r3
 1389 0260 3FF63DAF 		bhi	.L63
 393:..\..\..\lvgl\version_6.1.2\lvgl\src\lv_objx/lv_gauge.c ****     }
 394:..\..\..\lvgl\version_6.1.2\lvgl\src\lv_objx/lv_gauge.c **** }
 1390              		.loc 2 394 0 is_stmt 1
 1391 0264 00BF     		nop
 1392 0266 5037     		adds	r7, r7, #80
 1393              		.cfi_def_cfa_offset 16
 1394 0268 BD46     		mov	sp, r7
 1395              		.cfi_def_cfa_register 13
 1396              		@ sp needed
 1397 026a B0BD     		pop	{r4, r5, r7, pc}
 1398              	.L65:
 1399              		.align	2
 1400              	.L64:
 1401 026c 03000180 		.word	-2147418109
 1402              		.cfi_endproc
 1403              	.LFE56:
 1404              		.size	lv_gauge_draw_scale, .-lv_gauge_draw_scale
 1405              		.section	.text.lv_gauge_draw_needle,"ax",%progbits
 1406              		.align	2
 1407              		.thumb
 1408              		.thumb_func
 1409              		.type	lv_gauge_draw_needle, %function
 1410              	lv_gauge_draw_needle:
 1411              	.LFB57:
 395:..\..\..\lvgl\version_6.1.2\lvgl\src\lv_objx/lv_gauge.c **** /**
 396:..\..\..\lvgl\version_6.1.2\lvgl\src\lv_objx/lv_gauge.c ****  * Draw the needles of a gauge
 397:..\..\..\lvgl\version_6.1.2\lvgl\src\lv_objx/lv_gauge.c ****  * @param gauge pointer to gauge object
 398:..\..\..\lvgl\version_6.1.2\lvgl\src\lv_objx/lv_gauge.c ****  * @param mask mask of drawing
 399:..\..\..\lvgl\version_6.1.2\lvgl\src\lv_objx/lv_gauge.c ****  */
 400:..\..\..\lvgl\version_6.1.2\lvgl\src\lv_objx/lv_gauge.c **** static void lv_gauge_draw_needle(lv_obj_t * gauge, const lv_area_t * mask)
 401:..\..\..\lvgl\version_6.1.2\lvgl\src\lv_objx/lv_gauge.c **** {
 1412              		.loc 2 401 0
 1413              		.cfi_startproc
 1414              		@ args = 0, pretend = 0, frame = 232
 1415              		@ frame_needed = 1, uses_anonymous_args = 0
 1416 0000 80B5     		push	{r7, lr}
 1417              		.cfi_def_cfa_offset 8
 1418              		.cfi_offset 7, -8
 1419              		.cfi_offset 14, -4
ARM GAS  C:\Users\tmj32\AppData\Local\Temp\ccmyxrAJ.s 			page 37


 1420 0002 BCB0     		sub	sp, sp, #240
 1421              		.cfi_def_cfa_offset 248
 1422 0004 02AF     		add	r7, sp, #8
 1423              		.cfi_def_cfa 7, 240
 1424 0006 7860     		str	r0, [r7, #4]
 1425 0008 3960     		str	r1, [r7]
 402:..\..\..\lvgl\version_6.1.2\lvgl\src\lv_objx/lv_gauge.c ****     lv_style_t style_needle;
 403:..\..\..\lvgl\version_6.1.2\lvgl\src\lv_objx/lv_gauge.c ****     lv_gauge_ext_t * ext     = lv_obj_get_ext_attr(gauge);
 1426              		.loc 2 403 0
 1427 000a 7868     		ldr	r0, [r7, #4]
 1428 000c FFF7FEFF 		bl	lv_obj_get_ext_attr
 1429 0010 C7F8DC00 		str	r0, [r7, #220]
 404:..\..\..\lvgl\version_6.1.2\lvgl\src\lv_objx/lv_gauge.c ****     const lv_style_t * style = lv_gauge_get_style(gauge, LV_GAUGE_STYLE_MAIN);
 1430              		.loc 2 404 0
 1431 0014 0021     		movs	r1, #0
 1432 0016 7868     		ldr	r0, [r7, #4]
 1433 0018 FFF7FEFF 		bl	lv_gauge_get_style
 1434 001c C7F8D800 		str	r0, [r7, #216]
 405:..\..\..\lvgl\version_6.1.2\lvgl\src\lv_objx/lv_gauge.c ****     lv_opa_t opa_scale       = lv_obj_get_opa_scale(gauge);
 1435              		.loc 2 405 0
 1436 0020 7868     		ldr	r0, [r7, #4]
 1437 0022 FFF7FEFF 		bl	lv_obj_get_opa_scale
 1438 0026 0346     		mov	r3, r0
 1439 0028 87F8D730 		strb	r3, [r7, #215]
 406:..\..\..\lvgl\version_6.1.2\lvgl\src\lv_objx/lv_gauge.c **** 
 407:..\..\..\lvgl\version_6.1.2\lvgl\src\lv_objx/lv_gauge.c ****     lv_coord_t r      = lv_obj_get_width(gauge) / 2 - style->body.padding.left;
 1440              		.loc 2 407 0
 1441 002c 7868     		ldr	r0, [r7, #4]
 1442 002e FFF7FEFF 		bl	lv_obj_get_width
 1443 0032 0346     		mov	r3, r0
 1444 0034 DA0F     		lsrs	r2, r3, #31
 1445 0036 1344     		add	r3, r3, r2
 1446 0038 5B10     		asrs	r3, r3, #1
 1447 003a 1BB2     		sxth	r3, r3
 1448 003c 9AB2     		uxth	r2, r3
 1449 003e D7F8D830 		ldr	r3, [r7, #216]
 1450 0042 B3F92430 		ldrsh	r3, [r3, #36]
 1451 0046 9BB2     		uxth	r3, r3
 1452 0048 D31A     		subs	r3, r2, r3
 1453 004a 9BB2     		uxth	r3, r3
 1454 004c A7F8D430 		strh	r3, [r7, #212]	@ movhi
 408:..\..\..\lvgl\version_6.1.2\lvgl\src\lv_objx/lv_gauge.c ****     lv_coord_t x_ofs  = lv_obj_get_width(gauge) / 2 + gauge->coords.x1;
 1455              		.loc 2 408 0
 1456 0050 7868     		ldr	r0, [r7, #4]
 1457 0052 FFF7FEFF 		bl	lv_obj_get_width
 1458 0056 0346     		mov	r3, r0
 1459 0058 DA0F     		lsrs	r2, r3, #31
 1460 005a 1344     		add	r3, r3, r2
 1461 005c 5B10     		asrs	r3, r3, #1
 1462 005e 1BB2     		sxth	r3, r3
 1463 0060 9AB2     		uxth	r2, r3
 1464 0062 7B68     		ldr	r3, [r7, #4]
 1465 0064 B3F91030 		ldrsh	r3, [r3, #16]
 1466 0068 9BB2     		uxth	r3, r3
 1467 006a 1344     		add	r3, r3, r2
 1468 006c 9BB2     		uxth	r3, r3
 1469 006e A7F8D230 		strh	r3, [r7, #210]	@ movhi
ARM GAS  C:\Users\tmj32\AppData\Local\Temp\ccmyxrAJ.s 			page 38


 409:..\..\..\lvgl\version_6.1.2\lvgl\src\lv_objx/lv_gauge.c ****     lv_coord_t y_ofs  = lv_obj_get_height(gauge) / 2 + gauge->coords.y1;
 1470              		.loc 2 409 0
 1471 0072 7868     		ldr	r0, [r7, #4]
 1472 0074 FFF7FEFF 		bl	lv_obj_get_height
 1473 0078 0346     		mov	r3, r0
 1474 007a DA0F     		lsrs	r2, r3, #31
 1475 007c 1344     		add	r3, r3, r2
 1476 007e 5B10     		asrs	r3, r3, #1
 1477 0080 1BB2     		sxth	r3, r3
 1478 0082 9AB2     		uxth	r2, r3
 1479 0084 7B68     		ldr	r3, [r7, #4]
 1480 0086 B3F91230 		ldrsh	r3, [r3, #18]
 1481 008a 9BB2     		uxth	r3, r3
 1482 008c 1344     		add	r3, r3, r2
 1483 008e 9BB2     		uxth	r3, r3
 1484 0090 A7F8D030 		strh	r3, [r7, #208]	@ movhi
 410:..\..\..\lvgl\version_6.1.2\lvgl\src\lv_objx/lv_gauge.c ****     uint16_t angle    = lv_lmeter_get_scale_angle(gauge);
 1485              		.loc 2 410 0
 1486 0094 7868     		ldr	r0, [r7, #4]
 1487 0096 FFF7FEFF 		bl	lv_lmeter_get_scale_angle
 1488 009a 0346     		mov	r3, r0
 1489 009c A7F8CE30 		strh	r3, [r7, #206]	@ movhi
 411:..\..\..\lvgl\version_6.1.2\lvgl\src\lv_objx/lv_gauge.c ****     int16_t angle_ofs = 90 + (360 - angle) / 2;
 1490              		.loc 2 411 0
 1491 00a0 B7F8CE30 		ldrh	r3, [r7, #206]
 1492 00a4 C3F5B473 		rsb	r3, r3, #360
 1493 00a8 DA0F     		lsrs	r2, r3, #31
 1494 00aa 1344     		add	r3, r3, r2
 1495 00ac 5B10     		asrs	r3, r3, #1
 1496 00ae 9BB2     		uxth	r3, r3
 1497 00b0 5A33     		adds	r3, r3, #90
 1498 00b2 9BB2     		uxth	r3, r3
 1499 00b4 A7F8CC30 		strh	r3, [r7, #204]	@ movhi
 412:..\..\..\lvgl\version_6.1.2\lvgl\src\lv_objx/lv_gauge.c ****     int16_t min       = lv_gauge_get_min_value(gauge);
 1500              		.loc 2 412 0
 1501 00b8 7868     		ldr	r0, [r7, #4]
 1502 00ba FFF7FEFF 		bl	lv_gauge_get_min_value
 1503 00be 0346     		mov	r3, r0
 1504 00c0 A7F8CA30 		strh	r3, [r7, #202]	@ movhi
 413:..\..\..\lvgl\version_6.1.2\lvgl\src\lv_objx/lv_gauge.c ****     int16_t max       = lv_gauge_get_max_value(gauge);
 1505              		.loc 2 413 0
 1506 00c4 7868     		ldr	r0, [r7, #4]
 1507 00c6 FFF7FEFF 		bl	lv_gauge_get_max_value
 1508 00ca 0346     		mov	r3, r0
 1509 00cc A7F8C830 		strh	r3, [r7, #200]	@ movhi
 414:..\..\..\lvgl\version_6.1.2\lvgl\src\lv_objx/lv_gauge.c ****     lv_point_t p_mid;
 415:..\..\..\lvgl\version_6.1.2\lvgl\src\lv_objx/lv_gauge.c ****     lv_point_t p_end;
 416:..\..\..\lvgl\version_6.1.2\lvgl\src\lv_objx/lv_gauge.c ****     lv_point_t p_end_low;
 417:..\..\..\lvgl\version_6.1.2\lvgl\src\lv_objx/lv_gauge.c ****     lv_point_t p_end_high;
 418:..\..\..\lvgl\version_6.1.2\lvgl\src\lv_objx/lv_gauge.c ****     uint8_t i;
 419:..\..\..\lvgl\version_6.1.2\lvgl\src\lv_objx/lv_gauge.c **** 
 420:..\..\..\lvgl\version_6.1.2\lvgl\src\lv_objx/lv_gauge.c ****     lv_style_copy(&style_needle, style);
 1510              		.loc 2 420 0
 1511 00d0 07F17003 		add	r3, r7, #112
 1512 00d4 D7F8D810 		ldr	r1, [r7, #216]
 1513 00d8 1846     		mov	r0, r3
 1514 00da FFF7FEFF 		bl	lv_style_copy
ARM GAS  C:\Users\tmj32\AppData\Local\Temp\ccmyxrAJ.s 			page 39


 421:..\..\..\lvgl\version_6.1.2\lvgl\src\lv_objx/lv_gauge.c **** 
 422:..\..\..\lvgl\version_6.1.2\lvgl\src\lv_objx/lv_gauge.c ****     p_mid.x = x_ofs;
 1515              		.loc 2 422 0
 1516 00de B7F8D230 		ldrh	r3, [r7, #210]	@ movhi
 1517 00e2 A7F86C30 		strh	r3, [r7, #108]	@ movhi
 423:..\..\..\lvgl\version_6.1.2\lvgl\src\lv_objx/lv_gauge.c ****     p_mid.y = y_ofs;
 1518              		.loc 2 423 0
 1519 00e6 B7F8D030 		ldrh	r3, [r7, #208]	@ movhi
 1520 00ea A7F86E30 		strh	r3, [r7, #110]	@ movhi
 424:..\..\..\lvgl\version_6.1.2\lvgl\src\lv_objx/lv_gauge.c ****     for(i = 0; i < ext->needle_count; i++) {
 1521              		.loc 2 424 0
 1522 00ee 0023     		movs	r3, #0
 1523 00f0 87F8E730 		strb	r3, [r7, #231]
 1524 00f4 19E1     		b	.L67
 1525              	.L72:
 1526              	.LBB8:
 425:..\..\..\lvgl\version_6.1.2\lvgl\src\lv_objx/lv_gauge.c ****         /*Calculate the end point of a needle*/
 426:..\..\..\lvgl\version_6.1.2\lvgl\src\lv_objx/lv_gauge.c ****         int16_t needle_angle =
 427:..\..\..\lvgl\version_6.1.2\lvgl\src\lv_objx/lv_gauge.c ****             (ext->values[i] - min) * angle * (1 << LV_GAUGE_INTERPOLATE_SHIFT) / (max - min);
 1527              		.loc 2 427 0
 1528 00f6 D7F8DC30 		ldr	r3, [r7, #220]
 1529 00fa DA68     		ldr	r2, [r3, #12]
 1530 00fc 97F8E730 		ldrb	r3, [r7, #231]	@ zero_extendqisi2
 1531 0100 5B00     		lsls	r3, r3, #1
 1532 0102 1344     		add	r3, r3, r2
 1533 0104 B3F90030 		ldrsh	r3, [r3]
 1534 0108 1A46     		mov	r2, r3
 1535 010a B7F9CA30 		ldrsh	r3, [r7, #202]
 1536 010e D31A     		subs	r3, r2, r3
 1537 0110 B7F8CE20 		ldrh	r2, [r7, #206]
 1538 0114 02FB03F3 		mul	r3, r2, r3
 1539 0118 5A01     		lsls	r2, r3, #5
 1540 011a B7F9C810 		ldrsh	r1, [r7, #200]
 1541 011e B7F9CA30 		ldrsh	r3, [r7, #202]
 1542 0122 CB1A     		subs	r3, r1, r3
 1543 0124 92FBF3F3 		sdiv	r3, r2, r3
 426:..\..\..\lvgl\version_6.1.2\lvgl\src\lv_objx/lv_gauge.c ****             (ext->values[i] - min) * angle * (1 << LV_GAUGE_INTERPOLATE_SHIFT) / (max - min);
 1544              		.loc 2 426 0
 1545 0128 A7F8C630 		strh	r3, [r7, #198]	@ movhi
 428:..\..\..\lvgl\version_6.1.2\lvgl\src\lv_objx/lv_gauge.c **** 
 429:..\..\..\lvgl\version_6.1.2\lvgl\src\lv_objx/lv_gauge.c ****         int16_t needle_angle_low  = (needle_angle >> LV_GAUGE_INTERPOLATE_SHIFT) + angle_ofs;
 1546              		.loc 2 429 0
 1547 012c B7F9C630 		ldrsh	r3, [r7, #198]
 1548 0130 5B11     		asrs	r3, r3, #5
 1549 0132 1BB2     		sxth	r3, r3
 1550 0134 9AB2     		uxth	r2, r3
 1551 0136 B7F8CC30 		ldrh	r3, [r7, #204]
 1552 013a 1344     		add	r3, r3, r2
 1553 013c 9BB2     		uxth	r3, r3
 1554 013e A7F8C430 		strh	r3, [r7, #196]	@ movhi
 430:..\..\..\lvgl\version_6.1.2\lvgl\src\lv_objx/lv_gauge.c ****         int16_t needle_angle_high = needle_angle_low + 1;
 1555              		.loc 2 430 0
 1556 0142 B7F8C430 		ldrh	r3, [r7, #196]
 1557 0146 0133     		adds	r3, r3, #1
 1558 0148 9BB2     		uxth	r3, r3
 1559 014a A7F8C230 		strh	r3, [r7, #194]	@ movhi
 431:..\..\..\lvgl\version_6.1.2\lvgl\src\lv_objx/lv_gauge.c **** 
ARM GAS  C:\Users\tmj32\AppData\Local\Temp\ccmyxrAJ.s 			page 40


 432:..\..\..\lvgl\version_6.1.2\lvgl\src\lv_objx/lv_gauge.c ****         p_end_low.y = (lv_trigo_sin(needle_angle_low) * r) / LV_TRIGO_SIN_MAX + y_ofs;
 1560              		.loc 2 432 0
 1561 014e B7F9C430 		ldrsh	r3, [r7, #196]
 1562 0152 1846     		mov	r0, r3
 1563 0154 FFF7FEFF 		bl	lv_trigo_sin
 1564 0158 0346     		mov	r3, r0
 1565 015a 1A46     		mov	r2, r3
 1566 015c B7F9D430 		ldrsh	r3, [r7, #212]
 1567 0160 03FB02F3 		mul	r3, r3, r2
 1568 0164 9B4A     		ldr	r2, .L73
 1569 0166 82FB0312 		smull	r1, r2, r2, r3
 1570 016a 1A44     		add	r2, r2, r3
 1571 016c 9213     		asrs	r2, r2, #14
 1572 016e DB17     		asrs	r3, r3, #31
 1573 0170 D31A     		subs	r3, r2, r3
 1574 0172 9AB2     		uxth	r2, r3
 1575 0174 B7F8D030 		ldrh	r3, [r7, #208]
 1576 0178 1344     		add	r3, r3, r2
 1577 017a 9BB2     		uxth	r3, r3
 1578 017c 1BB2     		sxth	r3, r3
 1579 017e A7F86630 		strh	r3, [r7, #102]	@ movhi
 433:..\..\..\lvgl\version_6.1.2\lvgl\src\lv_objx/lv_gauge.c ****         p_end_low.x = (lv_trigo_sin(needle_angle_low + 90) * r) / LV_TRIGO_SIN_MAX + x_ofs;
 1580              		.loc 2 433 0
 1581 0182 B7F8C430 		ldrh	r3, [r7, #196]
 1582 0186 5A33     		adds	r3, r3, #90
 1583 0188 9BB2     		uxth	r3, r3
 1584 018a 1BB2     		sxth	r3, r3
 1585 018c 1846     		mov	r0, r3
 1586 018e FFF7FEFF 		bl	lv_trigo_sin
 1587 0192 0346     		mov	r3, r0
 1588 0194 1A46     		mov	r2, r3
 1589 0196 B7F9D430 		ldrsh	r3, [r7, #212]
 1590 019a 03FB02F3 		mul	r3, r3, r2
 1591 019e 8D4A     		ldr	r2, .L73
 1592 01a0 82FB0312 		smull	r1, r2, r2, r3
 1593 01a4 1A44     		add	r2, r2, r3
 1594 01a6 9213     		asrs	r2, r2, #14
 1595 01a8 DB17     		asrs	r3, r3, #31
 1596 01aa D31A     		subs	r3, r2, r3
 1597 01ac 9AB2     		uxth	r2, r3
 1598 01ae B7F8D230 		ldrh	r3, [r7, #210]
 1599 01b2 1344     		add	r3, r3, r2
 1600 01b4 9BB2     		uxth	r3, r3
 1601 01b6 1BB2     		sxth	r3, r3
 1602 01b8 A7F86430 		strh	r3, [r7, #100]	@ movhi
 434:..\..\..\lvgl\version_6.1.2\lvgl\src\lv_objx/lv_gauge.c **** 
 435:..\..\..\lvgl\version_6.1.2\lvgl\src\lv_objx/lv_gauge.c ****         p_end_high.y = (lv_trigo_sin(needle_angle_high) * r) / LV_TRIGO_SIN_MAX + y_ofs;
 1603              		.loc 2 435 0
 1604 01bc B7F9C230 		ldrsh	r3, [r7, #194]
 1605 01c0 1846     		mov	r0, r3
 1606 01c2 FFF7FEFF 		bl	lv_trigo_sin
 1607 01c6 0346     		mov	r3, r0
 1608 01c8 1A46     		mov	r2, r3
 1609 01ca B7F9D430 		ldrsh	r3, [r7, #212]
 1610 01ce 03FB02F3 		mul	r3, r3, r2
 1611 01d2 804A     		ldr	r2, .L73
 1612 01d4 82FB0312 		smull	r1, r2, r2, r3
ARM GAS  C:\Users\tmj32\AppData\Local\Temp\ccmyxrAJ.s 			page 41


 1613 01d8 1A44     		add	r2, r2, r3
 1614 01da 9213     		asrs	r2, r2, #14
 1615 01dc DB17     		asrs	r3, r3, #31
 1616 01de D31A     		subs	r3, r2, r3
 1617 01e0 9AB2     		uxth	r2, r3
 1618 01e2 B7F8D030 		ldrh	r3, [r7, #208]
 1619 01e6 1344     		add	r3, r3, r2
 1620 01e8 9BB2     		uxth	r3, r3
 1621 01ea 1BB2     		sxth	r3, r3
 1622 01ec A7F86230 		strh	r3, [r7, #98]	@ movhi
 436:..\..\..\lvgl\version_6.1.2\lvgl\src\lv_objx/lv_gauge.c ****         p_end_high.x = (lv_trigo_sin(needle_angle_high + 90) * r) / LV_TRIGO_SIN_MAX + x_ofs;
 1623              		.loc 2 436 0
 1624 01f0 B7F8C230 		ldrh	r3, [r7, #194]
 1625 01f4 5A33     		adds	r3, r3, #90
 1626 01f6 9BB2     		uxth	r3, r3
 1627 01f8 1BB2     		sxth	r3, r3
 1628 01fa 1846     		mov	r0, r3
 1629 01fc FFF7FEFF 		bl	lv_trigo_sin
 1630 0200 0346     		mov	r3, r0
 1631 0202 1A46     		mov	r2, r3
 1632 0204 B7F9D430 		ldrsh	r3, [r7, #212]
 1633 0208 03FB02F3 		mul	r3, r3, r2
 1634 020c 714A     		ldr	r2, .L73
 1635 020e 82FB0312 		smull	r1, r2, r2, r3
 1636 0212 1A44     		add	r2, r2, r3
 1637 0214 9213     		asrs	r2, r2, #14
 1638 0216 DB17     		asrs	r3, r3, #31
 1639 0218 D31A     		subs	r3, r2, r3
 1640 021a 9AB2     		uxth	r2, r3
 1641 021c B7F8D230 		ldrh	r3, [r7, #210]
 1642 0220 1344     		add	r3, r3, r2
 1643 0222 9BB2     		uxth	r3, r3
 1644 0224 1BB2     		sxth	r3, r3
 1645 0226 A7F86030 		strh	r3, [r7, #96]	@ movhi
 437:..\..\..\lvgl\version_6.1.2\lvgl\src\lv_objx/lv_gauge.c **** 
 438:..\..\..\lvgl\version_6.1.2\lvgl\src\lv_objx/lv_gauge.c ****         uint16_t rem  = needle_angle & ((1 << LV_GAUGE_INTERPOLATE_SHIFT) - 1);
 1646              		.loc 2 438 0
 1647 022a B7F8C630 		ldrh	r3, [r7, #198]
 1648 022e 03F01F03 		and	r3, r3, #31
 1649 0232 A7F8C030 		strh	r3, [r7, #192]	@ movhi
 439:..\..\..\lvgl\version_6.1.2\lvgl\src\lv_objx/lv_gauge.c ****         int16_t x_mod = ((LV_MATH_ABS(p_end_high.x - p_end_low.x)) * rem) >> LV_GAUGE_INTERPOLATE_S
 1650              		.loc 2 439 0
 1651 0236 B7F96030 		ldrsh	r3, [r7, #96]
 1652 023a 1A46     		mov	r2, r3
 1653 023c B7F96430 		ldrsh	r3, [r7, #100]
 1654 0240 D31A     		subs	r3, r2, r3
 1655 0242 002B     		cmp	r3, #0
 1656 0244 B8BF     		it	lt
 1657 0246 5B42     		rsblt	r3, r3, #0
 1658 0248 B7F8C020 		ldrh	r2, [r7, #192]
 1659 024c 02FB03F3 		mul	r3, r2, r3
 1660 0250 5B11     		asrs	r3, r3, #5
 1661 0252 A7F8E430 		strh	r3, [r7, #228]	@ movhi
 440:..\..\..\lvgl\version_6.1.2\lvgl\src\lv_objx/lv_gauge.c ****         int16_t y_mod = ((LV_MATH_ABS(p_end_high.y - p_end_low.y)) * rem) >> LV_GAUGE_INTERPOLATE_S
 1662              		.loc 2 440 0
 1663 0256 B7F96230 		ldrsh	r3, [r7, #98]
 1664 025a 1A46     		mov	r2, r3
ARM GAS  C:\Users\tmj32\AppData\Local\Temp\ccmyxrAJ.s 			page 42


 1665 025c B7F96630 		ldrsh	r3, [r7, #102]
 1666 0260 D31A     		subs	r3, r2, r3
 1667 0262 002B     		cmp	r3, #0
 1668 0264 B8BF     		it	lt
 1669 0266 5B42     		rsblt	r3, r3, #0
 1670 0268 B7F8C020 		ldrh	r2, [r7, #192]
 1671 026c 02FB03F3 		mul	r3, r2, r3
 1672 0270 5B11     		asrs	r3, r3, #5
 1673 0272 A7F8E230 		strh	r3, [r7, #226]	@ movhi
 441:..\..\..\lvgl\version_6.1.2\lvgl\src\lv_objx/lv_gauge.c **** 
 442:..\..\..\lvgl\version_6.1.2\lvgl\src\lv_objx/lv_gauge.c ****         if(p_end_high.x < p_end_low.x) x_mod = -x_mod;
 1674              		.loc 2 442 0
 1675 0276 B7F96020 		ldrsh	r2, [r7, #96]
 1676 027a B7F96430 		ldrsh	r3, [r7, #100]
 1677 027e 9A42     		cmp	r2, r3
 1678 0280 05DA     		bge	.L68
 1679              		.loc 2 442 0 is_stmt 0 discriminator 1
 1680 0282 B7F8E430 		ldrh	r3, [r7, #228]
 1681 0286 5B42     		negs	r3, r3
 1682 0288 9BB2     		uxth	r3, r3
 1683 028a A7F8E430 		strh	r3, [r7, #228]	@ movhi
 1684              	.L68:
 443:..\..\..\lvgl\version_6.1.2\lvgl\src\lv_objx/lv_gauge.c ****         if(p_end_high.y < p_end_low.y) y_mod = -y_mod;
 1685              		.loc 2 443 0 is_stmt 1
 1686 028e B7F96220 		ldrsh	r2, [r7, #98]
 1687 0292 B7F96630 		ldrsh	r3, [r7, #102]
 1688 0296 9A42     		cmp	r2, r3
 1689 0298 05DA     		bge	.L69
 1690              		.loc 2 443 0 is_stmt 0 discriminator 1
 1691 029a B7F8E230 		ldrh	r3, [r7, #226]
 1692 029e 5B42     		negs	r3, r3
 1693 02a0 9BB2     		uxth	r3, r3
 1694 02a2 A7F8E230 		strh	r3, [r7, #226]	@ movhi
 1695              	.L69:
 444:..\..\..\lvgl\version_6.1.2\lvgl\src\lv_objx/lv_gauge.c **** 
 445:..\..\..\lvgl\version_6.1.2\lvgl\src\lv_objx/lv_gauge.c ****         p_end.x = p_end_low.x + x_mod;
 1696              		.loc 2 445 0 is_stmt 1
 1697 02a6 B7F96430 		ldrsh	r3, [r7, #100]
 1698 02aa 9AB2     		uxth	r2, r3
 1699 02ac B7F8E430 		ldrh	r3, [r7, #228]
 1700 02b0 1344     		add	r3, r3, r2
 1701 02b2 9BB2     		uxth	r3, r3
 1702 02b4 1BB2     		sxth	r3, r3
 1703 02b6 A7F86830 		strh	r3, [r7, #104]	@ movhi
 446:..\..\..\lvgl\version_6.1.2\lvgl\src\lv_objx/lv_gauge.c ****         p_end.y = p_end_low.y + y_mod;
 1704              		.loc 2 446 0
 1705 02ba B7F96630 		ldrsh	r3, [r7, #102]
 1706 02be 9AB2     		uxth	r2, r3
 1707 02c0 B7F8E230 		ldrh	r3, [r7, #226]
 1708 02c4 1344     		add	r3, r3, r2
 1709 02c6 9BB2     		uxth	r3, r3
 1710 02c8 1BB2     		sxth	r3, r3
 1711 02ca A7F86A30 		strh	r3, [r7, #106]	@ movhi
 447:..\..\..\lvgl\version_6.1.2\lvgl\src\lv_objx/lv_gauge.c **** 
 448:..\..\..\lvgl\version_6.1.2\lvgl\src\lv_objx/lv_gauge.c ****         /*Draw the needle with the corresponding color*/
 449:..\..\..\lvgl\version_6.1.2\lvgl\src\lv_objx/lv_gauge.c ****         if(ext->needle_colors == NULL)
 1712              		.loc 2 449 0
ARM GAS  C:\Users\tmj32\AppData\Local\Temp\ccmyxrAJ.s 			page 43


 1713 02ce D7F8DC30 		ldr	r3, [r7, #220]
 1714 02d2 1B69     		ldr	r3, [r3, #16]
 1715 02d4 002B     		cmp	r3, #0
 1716 02d6 0CD1     		bne	.L70
 450:..\..\..\lvgl\version_6.1.2\lvgl\src\lv_objx/lv_gauge.c ****             style_needle.line.color = LV_GAUGE_DEF_NEEDLE_COLOR;
 1717              		.loc 2 450 0
 1718 02d8 0023     		movs	r3, #0
 1719 02da 87F8B830 		strb	r3, [r7, #184]
 1720 02de 0023     		movs	r3, #0
 1721 02e0 87F8B930 		strb	r3, [r7, #185]
 1722 02e4 FF23     		movs	r3, #255
 1723 02e6 87F8BA30 		strb	r3, [r7, #186]
 1724 02ea FF23     		movs	r3, #255
 1725 02ec 87F8BB30 		strb	r3, [r7, #187]
 1726 02f0 09E0     		b	.L71
 1727              	.L70:
 451:..\..\..\lvgl\version_6.1.2\lvgl\src\lv_objx/lv_gauge.c ****         else
 452:..\..\..\lvgl\version_6.1.2\lvgl\src\lv_objx/lv_gauge.c ****             style_needle.line.color = ext->needle_colors[i];
 1728              		.loc 2 452 0
 1729 02f2 D7F8DC30 		ldr	r3, [r7, #220]
 1730 02f6 1A69     		ldr	r2, [r3, #16]
 1731 02f8 97F8E730 		ldrb	r3, [r7, #231]	@ zero_extendqisi2
 1732 02fc 9B00     		lsls	r3, r3, #2
 1733 02fe 1344     		add	r3, r3, r2
 1734 0300 1B68     		ldr	r3, [r3]
 1735 0302 C7F8B830 		str	r3, [r7, #184]
 1736              	.L71:
 453:..\..\..\lvgl\version_6.1.2\lvgl\src\lv_objx/lv_gauge.c **** 
 454:..\..\..\lvgl\version_6.1.2\lvgl\src\lv_objx/lv_gauge.c ****         lv_draw_line(&p_mid, &p_end, mask, &style_needle, opa_scale);
 1737              		.loc 2 454 0 discriminator 2
 1738 0306 07F17002 		add	r2, r7, #112
 1739 030a 07F16801 		add	r1, r7, #104
 1740 030e 07F16C00 		add	r0, r7, #108
 1741 0312 97F8D730 		ldrb	r3, [r7, #215]	@ zero_extendqisi2
 1742 0316 0093     		str	r3, [sp]
 1743 0318 1346     		mov	r3, r2
 1744 031a 3A68     		ldr	r2, [r7]
 1745 031c FFF7FEFF 		bl	lv_draw_line
 1746              	.LBE8:
 424:..\..\..\lvgl\version_6.1.2\lvgl\src\lv_objx/lv_gauge.c ****         /*Calculate the end point of a needle*/
 1747              		.loc 2 424 0 discriminator 2
 1748 0320 97F8E730 		ldrb	r3, [r7, #231]	@ zero_extendqisi2
 1749 0324 0133     		adds	r3, r3, #1
 1750 0326 87F8E730 		strb	r3, [r7, #231]
 1751              	.L67:
 424:..\..\..\lvgl\version_6.1.2\lvgl\src\lv_objx/lv_gauge.c ****         /*Calculate the end point of a needle*/
 1752              		.loc 2 424 0 is_stmt 0 discriminator 1
 1753 032a D7F8DC30 		ldr	r3, [r7, #220]
 1754 032e 1B7D     		ldrb	r3, [r3, #20]	@ zero_extendqisi2
 1755 0330 97F8E720 		ldrb	r2, [r7, #231]	@ zero_extendqisi2
 1756 0334 9A42     		cmp	r2, r3
 1757 0336 FFF4DEAE 		bcc	.L72
 455:..\..\..\lvgl\version_6.1.2\lvgl\src\lv_objx/lv_gauge.c ****     }
 456:..\..\..\lvgl\version_6.1.2\lvgl\src\lv_objx/lv_gauge.c **** 
 457:..\..\..\lvgl\version_6.1.2\lvgl\src\lv_objx/lv_gauge.c ****     /*Draw the needle middle area*/
 458:..\..\..\lvgl\version_6.1.2\lvgl\src\lv_objx/lv_gauge.c ****     lv_style_t style_neddle_mid;
 459:..\..\..\lvgl\version_6.1.2\lvgl\src\lv_objx/lv_gauge.c ****     lv_style_copy(&style_neddle_mid, &lv_style_plain);
ARM GAS  C:\Users\tmj32\AppData\Local\Temp\ccmyxrAJ.s 			page 44


 1758              		.loc 2 459 0 is_stmt 1
 1759 033a 07F11003 		add	r3, r7, #16
 1760 033e 2649     		ldr	r1, .L73+4
 1761 0340 1846     		mov	r0, r3
 1762 0342 FFF7FEFF 		bl	lv_style_copy
 460:..\..\..\lvgl\version_6.1.2\lvgl\src\lv_objx/lv_gauge.c ****     style_neddle_mid.body.main_color = style->body.border.color;
 1763              		.loc 2 460 0
 1764 0346 D7F8D830 		ldr	r3, [r7, #216]
 1765 034a 1B69     		ldr	r3, [r3, #16]
 1766 034c 7B61     		str	r3, [r7, #20]
 461:..\..\..\lvgl\version_6.1.2\lvgl\src\lv_objx/lv_gauge.c ****     style_neddle_mid.body.grad_color = style->body.border.color;
 1767              		.loc 2 461 0
 1768 034e D7F8D830 		ldr	r3, [r7, #216]
 1769 0352 1B69     		ldr	r3, [r3, #16]
 1770 0354 BB61     		str	r3, [r7, #24]
 462:..\..\..\lvgl\version_6.1.2\lvgl\src\lv_objx/lv_gauge.c ****     style_neddle_mid.body.radius     = LV_RADIUS_CIRCLE;
 1771              		.loc 2 462 0
 1772 0356 47F61843 		movw	r3, #31768
 1773 035a BB83     		strh	r3, [r7, #28]	@ movhi
 463:..\..\..\lvgl\version_6.1.2\lvgl\src\lv_objx/lv_gauge.c **** 
 464:..\..\..\lvgl\version_6.1.2\lvgl\src\lv_objx/lv_gauge.c ****     lv_area_t nm_cord;
 465:..\..\..\lvgl\version_6.1.2\lvgl\src\lv_objx/lv_gauge.c ****     nm_cord.x1 = x_ofs - style->body.radius;
 1774              		.loc 2 465 0
 1775 035c B7F8D220 		ldrh	r2, [r7, #210]
 1776 0360 D7F8D830 		ldr	r3, [r7, #216]
 1777 0364 B3F90C30 		ldrsh	r3, [r3, #12]
 1778 0368 9BB2     		uxth	r3, r3
 1779 036a D31A     		subs	r3, r2, r3
 1780 036c 9BB2     		uxth	r3, r3
 1781 036e 1BB2     		sxth	r3, r3
 1782 0370 3B81     		strh	r3, [r7, #8]	@ movhi
 466:..\..\..\lvgl\version_6.1.2\lvgl\src\lv_objx/lv_gauge.c ****     nm_cord.y1 = y_ofs - style->body.radius;
 1783              		.loc 2 466 0
 1784 0372 B7F8D020 		ldrh	r2, [r7, #208]
 1785 0376 D7F8D830 		ldr	r3, [r7, #216]
 1786 037a B3F90C30 		ldrsh	r3, [r3, #12]
 1787 037e 9BB2     		uxth	r3, r3
 1788 0380 D31A     		subs	r3, r2, r3
 1789 0382 9BB2     		uxth	r3, r3
 1790 0384 1BB2     		sxth	r3, r3
 1791 0386 7B81     		strh	r3, [r7, #10]	@ movhi
 467:..\..\..\lvgl\version_6.1.2\lvgl\src\lv_objx/lv_gauge.c ****     nm_cord.x2 = x_ofs + style->body.radius;
 1792              		.loc 2 467 0
 1793 0388 D7F8D830 		ldr	r3, [r7, #216]
 1794 038c B3F90C30 		ldrsh	r3, [r3, #12]
 1795 0390 9AB2     		uxth	r2, r3
 1796 0392 B7F8D230 		ldrh	r3, [r7, #210]
 1797 0396 1344     		add	r3, r3, r2
 1798 0398 9BB2     		uxth	r3, r3
 1799 039a 1BB2     		sxth	r3, r3
 1800 039c BB81     		strh	r3, [r7, #12]	@ movhi
 468:..\..\..\lvgl\version_6.1.2\lvgl\src\lv_objx/lv_gauge.c ****     nm_cord.y2 = y_ofs + style->body.radius;
 1801              		.loc 2 468 0
 1802 039e D7F8D830 		ldr	r3, [r7, #216]
 1803 03a2 B3F90C30 		ldrsh	r3, [r3, #12]
 1804 03a6 9AB2     		uxth	r2, r3
 1805 03a8 B7F8D030 		ldrh	r3, [r7, #208]
ARM GAS  C:\Users\tmj32\AppData\Local\Temp\ccmyxrAJ.s 			page 45


 1806 03ac 1344     		add	r3, r3, r2
 1807 03ae 9BB2     		uxth	r3, r3
 1808 03b0 1BB2     		sxth	r3, r3
 1809 03b2 FB81     		strh	r3, [r7, #14]	@ movhi
 469:..\..\..\lvgl\version_6.1.2\lvgl\src\lv_objx/lv_gauge.c **** 
 470:..\..\..\lvgl\version_6.1.2\lvgl\src\lv_objx/lv_gauge.c ****     lv_draw_rect(&nm_cord, mask, &style_neddle_mid, lv_obj_get_opa_scale(gauge));
 1810              		.loc 2 470 0
 1811 03b4 7868     		ldr	r0, [r7, #4]
 1812 03b6 FFF7FEFF 		bl	lv_obj_get_opa_scale
 1813 03ba 0346     		mov	r3, r0
 1814 03bc 07F11002 		add	r2, r7, #16
 1815 03c0 07F10800 		add	r0, r7, #8
 1816 03c4 3968     		ldr	r1, [r7]
 1817 03c6 FFF7FEFF 		bl	lv_draw_rect
 471:..\..\..\lvgl\version_6.1.2\lvgl\src\lv_objx/lv_gauge.c **** }
 1818              		.loc 2 471 0
 1819 03ca 00BF     		nop
 1820 03cc E837     		adds	r7, r7, #232
 1821              		.cfi_def_cfa_offset 8
 1822 03ce BD46     		mov	sp, r7
 1823              		.cfi_def_cfa_register 13
 1824              		@ sp needed
 1825 03d0 80BD     		pop	{r7, pc}
 1826              	.L74:
 1827 03d2 00BF     		.align	2
 1828              	.L73:
 1829 03d4 03000180 		.word	-2147418109
 1830 03d8 00000000 		.word	lv_style_plain
 1831              		.cfi_endproc
 1832              	.LFE57:
 1833              		.size	lv_gauge_draw_needle, .-lv_gauge_draw_needle
 1834              		.text
 1835              	.Letext0:
 1836              		.file 3 "c:\\program files (x86)\\cypress\\psoc creator\\4.3\\psoc creator\\import\\gnu\\arm\\5.4.
 1837              		.file 4 "c:\\program files (x86)\\cypress\\psoc creator\\4.3\\psoc creator\\import\\gnu\\arm\\5.4.
 1838              		.file 5 "..\\..\\..\\lvgl\\version_6.1.2\\lvgl\\src\\lv_objx\\../../../lv_conf.h"
 1839              		.file 6 "..\\..\\..\\lvgl\\version_6.1.2\\lvgl\\src\\lv_objx\\../lv_core/../lv_font/lv_font.h"
 1840              		.file 7 "..\\..\\..\\lvgl\\version_6.1.2\\lvgl\\src\\lv_objx\\../lv_core/../lv_misc/lv_color.h"
 1841              		.file 8 "..\\..\\..\\lvgl\\version_6.1.2\\lvgl\\src\\lv_objx\\../lv_core/../lv_misc/lv_area.h"
 1842              		.file 9 "..\\..\\..\\lvgl\\version_6.1.2\\lvgl\\src\\lv_objx\\../lv_core/lv_style.h"
 1843              		.file 10 "..\\..\\..\\lvgl\\version_6.1.2\\lvgl\\src\\lv_objx\\../lv_core/../lv_misc/lv_types.h"
 1844              		.file 11 "..\\..\\..\\lvgl\\version_6.1.2\\lvgl\\src\\lv_objx\\../lv_core/../lv_misc/lv_ll.h"
 1845              		.file 12 "..\\..\\..\\lvgl\\version_6.1.2\\lvgl\\src\\lv_objx\\../lv_core/../lv_misc/lv_bidi.h"
 1846              		.file 13 "..\\..\\..\\lvgl\\version_6.1.2\\lvgl\\src\\lv_objx\\../lv_core/lv_obj.h"
 1847              		.file 14 "..\\..\\..\\lvgl\\version_6.1.2\\lvgl\\src\\lv_objx\\lv_lmeter.h"
 1848              		.file 15 "..\\..\\..\\lvgl\\version_6.1.2\\lvgl\\src\\lv_objx\\../lv_misc/lv_txt.h"
 1849              		.file 16 "..\\..\\..\\lvgl\\version_6.1.2\\lvgl\\src\\lv_objx\\../lv_themes/lv_theme.h"