ARM GAS  C:\Users\tmj32\AppData\Local\Temp\ccmyxrAJ.s 			page 1


   1              		.syntax unified
   2              		.cpu cortex-m4
   3              		.eabi_attribute 27, 1
   4              		.fpu fpv4-sp-d16
   5              		.eabi_attribute 20, 1
   6              		.eabi_attribute 21, 1
   7              		.eabi_attribute 23, 3
   8              		.eabi_attribute 24, 1
   9              		.eabi_attribute 25, 1
  10              		.eabi_attribute 26, 1
  11              		.eabi_attribute 30, 6
  12              		.eabi_attribute 34, 1
  13              		.eabi_attribute 18, 4
  14              		.thumb
  15              		.syntax unified
  16              		.file	"lv_gauge.c"
  17              		.text
  18              	.Ltext0:
  19              		.cfi_sections	.debug_frame
  20              		.section	.text.lv_gauge_set_critical_value,"ax",%progbits
  21              		.align	2
  22              		.thumb
  23              		.thumb_func
  24              		.type	lv_gauge_set_critical_value, %function
  25              	lv_gauge_set_critical_value:
  26              	.LFB38:
  27              		.file 1 "..\\..\\..\\lvgl\\version_6.1.2\\lvgl\\src\\lv_objx\\lv_gauge.h"
   1:..\..\..\lvgl\version_6.1.2\lvgl\src\lv_objx/lv_gauge.h **** /**
   2:..\..\..\lvgl\version_6.1.2\lvgl\src\lv_objx/lv_gauge.h ****  * @file lv_gauge.h
   3:..\..\..\lvgl\version_6.1.2\lvgl\src\lv_objx/lv_gauge.h ****  *
   4:..\..\..\lvgl\version_6.1.2\lvgl\src\lv_objx/lv_gauge.h ****  */
   5:..\..\..\lvgl\version_6.1.2\lvgl\src\lv_objx/lv_gauge.h **** 
   6:..\..\..\lvgl\version_6.1.2\lvgl\src\lv_objx/lv_gauge.h **** #ifndef LV_GAUGE_H
   7:..\..\..\lvgl\version_6.1.2\lvgl\src\lv_objx/lv_gauge.h **** #define LV_GAUGE_H
   8:..\..\..\lvgl\version_6.1.2\lvgl\src\lv_objx/lv_gauge.h **** 
   9:..\..\..\lvgl\version_6.1.2\lvgl\src\lv_objx/lv_gauge.h **** #ifdef __cplusplus
  10:..\..\..\lvgl\version_6.1.2\lvgl\src\lv_objx/lv_gauge.h **** extern "C" {
  11:..\..\..\lvgl\version_6.1.2\lvgl\src\lv_objx/lv_gauge.h **** #endif
  12:..\..\..\lvgl\version_6.1.2\lvgl\src\lv_objx/lv_gauge.h **** 
  13:..\..\..\lvgl\version_6.1.2\lvgl\src\lv_objx/lv_gauge.h **** /*********************
  14:..\..\..\lvgl\version_6.1.2\lvgl\src\lv_objx/lv_gauge.h ****  *      INCLUDES
  15:..\..\..\lvgl\version_6.1.2\lvgl\src\lv_objx/lv_gauge.h ****  *********************/
  16:..\..\..\lvgl\version_6.1.2\lvgl\src\lv_objx/lv_gauge.h **** #ifdef LV_CONF_INCLUDE_SIMPLE
  17:..\..\..\lvgl\version_6.1.2\lvgl\src\lv_objx/lv_gauge.h **** #include "lv_conf.h"
  18:..\..\..\lvgl\version_6.1.2\lvgl\src\lv_objx/lv_gauge.h **** #else
  19:..\..\..\lvgl\version_6.1.2\lvgl\src\lv_objx/lv_gauge.h **** #include "../../../lv_conf.h"
  20:..\..\..\lvgl\version_6.1.2\lvgl\src\lv_objx/lv_gauge.h **** #endif
  21:..\..\..\lvgl\version_6.1.2\lvgl\src\lv_objx/lv_gauge.h **** 
  22:..\..\..\lvgl\version_6.1.2\lvgl\src\lv_objx/lv_gauge.h **** #if LV_USE_GAUGE != 0
  23:..\..\..\lvgl\version_6.1.2\lvgl\src\lv_objx/lv_gauge.h **** 
  24:..\..\..\lvgl\version_6.1.2\lvgl\src\lv_objx/lv_gauge.h **** /*Testing of dependencies*/
  25:..\..\..\lvgl\version_6.1.2\lvgl\src\lv_objx/lv_gauge.h **** #if LV_USE_LMETER == 0
  26:..\..\..\lvgl\version_6.1.2\lvgl\src\lv_objx/lv_gauge.h **** #error "lv_gauge: lv_lmeter is required. Enable it in lv_conf.h (LV_USE_LMETER  1) "
  27:..\..\..\lvgl\version_6.1.2\lvgl\src\lv_objx/lv_gauge.h **** #endif
  28:..\..\..\lvgl\version_6.1.2\lvgl\src\lv_objx/lv_gauge.h **** 
  29:..\..\..\lvgl\version_6.1.2\lvgl\src\lv_objx/lv_gauge.h **** #include "../lv_core/lv_obj.h"
  30:..\..\..\lvgl\version_6.1.2\lvgl\src\lv_objx/lv_gauge.h **** #include "lv_lmeter.h"
ARM GAS  C:\Users\tmj32\AppData\Local\Temp\ccmyxrAJ.s 			page 2


  31:..\..\..\lvgl\version_6.1.2\lvgl\src\lv_objx/lv_gauge.h **** #include "lv_label.h"
  32:..\..\..\lvgl\version_6.1.2\lvgl\src\lv_objx/lv_gauge.h **** #include "lv_line.h"
  33:..\..\..\lvgl\version_6.1.2\lvgl\src\lv_objx/lv_gauge.h **** 
  34:..\..\..\lvgl\version_6.1.2\lvgl\src\lv_objx/lv_gauge.h **** /*********************
  35:..\..\..\lvgl\version_6.1.2\lvgl\src\lv_objx/lv_gauge.h ****  *      DEFINES
  36:..\..\..\lvgl\version_6.1.2\lvgl\src\lv_objx/lv_gauge.h ****  *********************/
  37:..\..\..\lvgl\version_6.1.2\lvgl\src\lv_objx/lv_gauge.h **** 
  38:..\..\..\lvgl\version_6.1.2\lvgl\src\lv_objx/lv_gauge.h **** /**********************
  39:..\..\..\lvgl\version_6.1.2\lvgl\src\lv_objx/lv_gauge.h ****  *      TYPEDEFS
  40:..\..\..\lvgl\version_6.1.2\lvgl\src\lv_objx/lv_gauge.h ****  **********************/
  41:..\..\..\lvgl\version_6.1.2\lvgl\src\lv_objx/lv_gauge.h **** 
  42:..\..\..\lvgl\version_6.1.2\lvgl\src\lv_objx/lv_gauge.h **** /*Data of gauge*/
  43:..\..\..\lvgl\version_6.1.2\lvgl\src\lv_objx/lv_gauge.h **** typedef struct
  44:..\..\..\lvgl\version_6.1.2\lvgl\src\lv_objx/lv_gauge.h **** {
  45:..\..\..\lvgl\version_6.1.2\lvgl\src\lv_objx/lv_gauge.h ****     lv_lmeter_ext_t lmeter; /*Ext. of ancestor*/
  46:..\..\..\lvgl\version_6.1.2\lvgl\src\lv_objx/lv_gauge.h ****     /*New data for this type */
  47:..\..\..\lvgl\version_6.1.2\lvgl\src\lv_objx/lv_gauge.h ****     int16_t * values;                 /*Array of the set values (for needles) */
  48:..\..\..\lvgl\version_6.1.2\lvgl\src\lv_objx/lv_gauge.h ****     const lv_color_t * needle_colors; /*Color of the needles (lv_color_t my_colors[needle_num])*/
  49:..\..\..\lvgl\version_6.1.2\lvgl\src\lv_objx/lv_gauge.h ****     uint8_t needle_count;             /*Number of needles*/
  50:..\..\..\lvgl\version_6.1.2\lvgl\src\lv_objx/lv_gauge.h ****     uint8_t label_count;              /*Number of labels on the scale*/
  51:..\..\..\lvgl\version_6.1.2\lvgl\src\lv_objx/lv_gauge.h **** } lv_gauge_ext_t;
  52:..\..\..\lvgl\version_6.1.2\lvgl\src\lv_objx/lv_gauge.h **** 
  53:..\..\..\lvgl\version_6.1.2\lvgl\src\lv_objx/lv_gauge.h **** /*Styles*/
  54:..\..\..\lvgl\version_6.1.2\lvgl\src\lv_objx/lv_gauge.h **** enum {
  55:..\..\..\lvgl\version_6.1.2\lvgl\src\lv_objx/lv_gauge.h ****     LV_GAUGE_STYLE_MAIN,
  56:..\..\..\lvgl\version_6.1.2\lvgl\src\lv_objx/lv_gauge.h **** };
  57:..\..\..\lvgl\version_6.1.2\lvgl\src\lv_objx/lv_gauge.h **** typedef uint8_t lv_gauge_style_t;
  58:..\..\..\lvgl\version_6.1.2\lvgl\src\lv_objx/lv_gauge.h **** 
  59:..\..\..\lvgl\version_6.1.2\lvgl\src\lv_objx/lv_gauge.h **** /**********************
  60:..\..\..\lvgl\version_6.1.2\lvgl\src\lv_objx/lv_gauge.h ****  * GLOBAL PROTOTYPES
  61:..\..\..\lvgl\version_6.1.2\lvgl\src\lv_objx/lv_gauge.h ****  **********************/
  62:..\..\..\lvgl\version_6.1.2\lvgl\src\lv_objx/lv_gauge.h **** 
  63:..\..\..\lvgl\version_6.1.2\lvgl\src\lv_objx/lv_gauge.h **** /**
  64:..\..\..\lvgl\version_6.1.2\lvgl\src\lv_objx/lv_gauge.h ****  * Create a gauge objects
  65:..\..\..\lvgl\version_6.1.2\lvgl\src\lv_objx/lv_gauge.h ****  * @param par pointer to an object, it will be the parent of the new gauge
  66:..\..\..\lvgl\version_6.1.2\lvgl\src\lv_objx/lv_gauge.h ****  * @param copy pointer to a gauge object, if not NULL then the new object will be copied from it
  67:..\..\..\lvgl\version_6.1.2\lvgl\src\lv_objx/lv_gauge.h ****  * @return pointer to the created gauge
  68:..\..\..\lvgl\version_6.1.2\lvgl\src\lv_objx/lv_gauge.h ****  */
  69:..\..\..\lvgl\version_6.1.2\lvgl\src\lv_objx/lv_gauge.h **** lv_obj_t * lv_gauge_create(lv_obj_t * par, const lv_obj_t * copy);
  70:..\..\..\lvgl\version_6.1.2\lvgl\src\lv_objx/lv_gauge.h **** 
  71:..\..\..\lvgl\version_6.1.2\lvgl\src\lv_objx/lv_gauge.h **** /*=====================
  72:..\..\..\lvgl\version_6.1.2\lvgl\src\lv_objx/lv_gauge.h ****  * Setter functions
  73:..\..\..\lvgl\version_6.1.2\lvgl\src\lv_objx/lv_gauge.h ****  *====================*/
  74:..\..\..\lvgl\version_6.1.2\lvgl\src\lv_objx/lv_gauge.h **** 
  75:..\..\..\lvgl\version_6.1.2\lvgl\src\lv_objx/lv_gauge.h **** /**
  76:..\..\..\lvgl\version_6.1.2\lvgl\src\lv_objx/lv_gauge.h ****  * Set the number of needles
  77:..\..\..\lvgl\version_6.1.2\lvgl\src\lv_objx/lv_gauge.h ****  * @param gauge pointer to gauge object
  78:..\..\..\lvgl\version_6.1.2\lvgl\src\lv_objx/lv_gauge.h ****  * @param needle_cnt new count of needles
  79:..\..\..\lvgl\version_6.1.2\lvgl\src\lv_objx/lv_gauge.h ****  * @param colors an array of colors for needles (with 'num' elements)
  80:..\..\..\lvgl\version_6.1.2\lvgl\src\lv_objx/lv_gauge.h ****  */
  81:..\..\..\lvgl\version_6.1.2\lvgl\src\lv_objx/lv_gauge.h **** void lv_gauge_set_needle_count(lv_obj_t * gauge, uint8_t needle_cnt, const lv_color_t colors[]);
  82:..\..\..\lvgl\version_6.1.2\lvgl\src\lv_objx/lv_gauge.h **** 
  83:..\..\..\lvgl\version_6.1.2\lvgl\src\lv_objx/lv_gauge.h **** /**
  84:..\..\..\lvgl\version_6.1.2\lvgl\src\lv_objx/lv_gauge.h ****  * Set the value of a needle
  85:..\..\..\lvgl\version_6.1.2\lvgl\src\lv_objx/lv_gauge.h ****  * @param gauge pointer to a gauge
  86:..\..\..\lvgl\version_6.1.2\lvgl\src\lv_objx/lv_gauge.h ****  * @param needle_id the id of the needle
  87:..\..\..\lvgl\version_6.1.2\lvgl\src\lv_objx/lv_gauge.h ****  * @param value the new value
ARM GAS  C:\Users\tmj32\AppData\Local\Temp\ccmyxrAJ.s 			page 3


  88:..\..\..\lvgl\version_6.1.2\lvgl\src\lv_objx/lv_gauge.h ****  */
  89:..\..\..\lvgl\version_6.1.2\lvgl\src\lv_objx/lv_gauge.h **** void lv_gauge_set_value(lv_obj_t * gauge, uint8_t needle_id, int16_t value);
  90:..\..\..\lvgl\version_6.1.2\lvgl\src\lv_objx/lv_gauge.h **** 
  91:..\..\..\lvgl\version_6.1.2\lvgl\src\lv_objx/lv_gauge.h **** /**
  92:..\..\..\lvgl\version_6.1.2\lvgl\src\lv_objx/lv_gauge.h ****  * Set minimum and the maximum values of a gauge
  93:..\..\..\lvgl\version_6.1.2\lvgl\src\lv_objx/lv_gauge.h ****  * @param gauge pointer to he gauge object
  94:..\..\..\lvgl\version_6.1.2\lvgl\src\lv_objx/lv_gauge.h ****  * @param min minimum value
  95:..\..\..\lvgl\version_6.1.2\lvgl\src\lv_objx/lv_gauge.h ****  * @param max maximum value
  96:..\..\..\lvgl\version_6.1.2\lvgl\src\lv_objx/lv_gauge.h ****  */
  97:..\..\..\lvgl\version_6.1.2\lvgl\src\lv_objx/lv_gauge.h **** static inline void lv_gauge_set_range(lv_obj_t * gauge, int16_t min, int16_t max)
  98:..\..\..\lvgl\version_6.1.2\lvgl\src\lv_objx/lv_gauge.h **** {
  99:..\..\..\lvgl\version_6.1.2\lvgl\src\lv_objx/lv_gauge.h ****     lv_lmeter_set_range(gauge, min, max);
 100:..\..\..\lvgl\version_6.1.2\lvgl\src\lv_objx/lv_gauge.h **** }
 101:..\..\..\lvgl\version_6.1.2\lvgl\src\lv_objx/lv_gauge.h **** 
 102:..\..\..\lvgl\version_6.1.2\lvgl\src\lv_objx/lv_gauge.h **** /**
 103:..\..\..\lvgl\version_6.1.2\lvgl\src\lv_objx/lv_gauge.h ****  * Set a critical value on the scale. After this value 'line.color' scale lines will be drawn
 104:..\..\..\lvgl\version_6.1.2\lvgl\src\lv_objx/lv_gauge.h ****  * @param gauge pointer to a gauge object
 105:..\..\..\lvgl\version_6.1.2\lvgl\src\lv_objx/lv_gauge.h ****  * @param value the critical value
 106:..\..\..\lvgl\version_6.1.2\lvgl\src\lv_objx/lv_gauge.h ****  */
 107:..\..\..\lvgl\version_6.1.2\lvgl\src\lv_objx/lv_gauge.h **** static inline void lv_gauge_set_critical_value(lv_obj_t * gauge, int16_t value)
 108:..\..\..\lvgl\version_6.1.2\lvgl\src\lv_objx/lv_gauge.h **** {
  28              		.loc 1 108 0
  29              		.cfi_startproc
  30              		@ args = 0, pretend = 0, frame = 8
  31              		@ frame_needed = 1, uses_anonymous_args = 0
  32 0000 80B5     		push	{r7, lr}
  33              		.cfi_def_cfa_offset 8
  34              		.cfi_offset 7, -8
  35              		.cfi_offset 14, -4
  36 0002 82B0     		sub	sp, sp, #8
  37              		.cfi_def_cfa_offset 16
  38 0004 00AF     		add	r7, sp, #0
  39              		.cfi_def_cfa_register 7
  40 0006 7860     		str	r0, [r7, #4]
  41 0008 0B46     		mov	r3, r1
  42 000a 7B80     		strh	r3, [r7, #2]	@ movhi
 109:..\..\..\lvgl\version_6.1.2\lvgl\src\lv_objx/lv_gauge.h ****     lv_lmeter_set_value(gauge, value);
  43              		.loc 1 109 0
  44 000c B7F90230 		ldrsh	r3, [r7, #2]
  45 0010 1946     		mov	r1, r3
  46 0012 7868     		ldr	r0, [r7, #4]
  47 0014 FFF7FEFF 		bl	lv_lmeter_set_value
 110:..\..\..\lvgl\version_6.1.2\lvgl\src\lv_objx/lv_gauge.h **** }
  48              		.loc 1 110 0
  49 0018 00BF     		nop
  50 001a 0837     		adds	r7, r7, #8
  51              		.cfi_def_cfa_offset 8
  52 001c BD46     		mov	sp, r7
  53              		.cfi_def_cfa_register 13
  54              		@ sp needed
  55 001e 80BD     		pop	{r7, pc}
  56              		.cfi_endproc
  57              	.LFE38:
  58              		.size	lv_gauge_set_critical_value, .-lv_gauge_set_critical_value
  59              		.section	.text.lv_gauge_set_style,"ax",%progbits
  60              		.align	2
  61              		.thumb
ARM GAS  C:\Users\tmj32\AppData\Local\Temp\ccmyxrAJ.s 			page 4


  62              		.thumb_func
  63              		.type	lv_gauge_set_style, %function
  64              	lv_gauge_set_style:
  65              	.LFB39:
 111:..\..\..\lvgl\version_6.1.2\lvgl\src\lv_objx/lv_gauge.h **** 
 112:..\..\..\lvgl\version_6.1.2\lvgl\src\lv_objx/lv_gauge.h **** /**
 113:..\..\..\lvgl\version_6.1.2\lvgl\src\lv_objx/lv_gauge.h ****  * Set the scale settings of a gauge
 114:..\..\..\lvgl\version_6.1.2\lvgl\src\lv_objx/lv_gauge.h ****  * @param gauge pointer to a gauge object
 115:..\..\..\lvgl\version_6.1.2\lvgl\src\lv_objx/lv_gauge.h ****  * @param angle angle of the scale (0..360)
 116:..\..\..\lvgl\version_6.1.2\lvgl\src\lv_objx/lv_gauge.h ****  * @param line_cnt count of scale lines.
 117:..\..\..\lvgl\version_6.1.2\lvgl\src\lv_objx/lv_gauge.h ****  * The get a given "subdivision" lines between label, `line_cnt` = (sub_div + 1) * (label_cnt - 1) 
 118:..\..\..\lvgl\version_6.1.2\lvgl\src\lv_objx/lv_gauge.h ****  * 1
 119:..\..\..\lvgl\version_6.1.2\lvgl\src\lv_objx/lv_gauge.h ****  * @param label_cnt count of scale labels.
 120:..\..\..\lvgl\version_6.1.2\lvgl\src\lv_objx/lv_gauge.h ****  */
 121:..\..\..\lvgl\version_6.1.2\lvgl\src\lv_objx/lv_gauge.h **** void lv_gauge_set_scale(lv_obj_t * gauge, uint16_t angle, uint8_t line_cnt, uint8_t label_cnt);
 122:..\..\..\lvgl\version_6.1.2\lvgl\src\lv_objx/lv_gauge.h **** 
 123:..\..\..\lvgl\version_6.1.2\lvgl\src\lv_objx/lv_gauge.h **** /**
 124:..\..\..\lvgl\version_6.1.2\lvgl\src\lv_objx/lv_gauge.h ****  * Set the styles of a gauge
 125:..\..\..\lvgl\version_6.1.2\lvgl\src\lv_objx/lv_gauge.h ****  * @param gauge pointer to a gauge object
 126:..\..\..\lvgl\version_6.1.2\lvgl\src\lv_objx/lv_gauge.h ****  * @param type which style should be set (can be only `LV_GAUGE_STYLE_MAIN`)
 127:..\..\..\lvgl\version_6.1.2\lvgl\src\lv_objx/lv_gauge.h ****  * @param style set the style of the gauge
 128:..\..\..\lvgl\version_6.1.2\lvgl\src\lv_objx/lv_gauge.h ****  *  */
 129:..\..\..\lvgl\version_6.1.2\lvgl\src\lv_objx/lv_gauge.h **** static inline void lv_gauge_set_style(lv_obj_t * gauge, lv_gauge_style_t type, lv_style_t * style)
 130:..\..\..\lvgl\version_6.1.2\lvgl\src\lv_objx/lv_gauge.h **** {
  66              		.loc 1 130 0
  67              		.cfi_startproc
  68              		@ args = 0, pretend = 0, frame = 16
  69              		@ frame_needed = 1, uses_anonymous_args = 0
  70 0000 80B5     		push	{r7, lr}
  71              		.cfi_def_cfa_offset 8
  72              		.cfi_offset 7, -8
  73              		.cfi_offset 14, -4
  74 0002 84B0     		sub	sp, sp, #16
  75              		.cfi_def_cfa_offset 24
  76 0004 00AF     		add	r7, sp, #0
  77              		.cfi_def_cfa_register 7
  78 0006 F860     		str	r0, [r7, #12]
  79 0008 0B46     		mov	r3, r1
  80 000a 7A60     		str	r2, [r7, #4]
  81 000c FB72     		strb	r3, [r7, #11]
 131:..\..\..\lvgl\version_6.1.2\lvgl\src\lv_objx/lv_gauge.h ****     (void)type; /*Unused*/
 132:..\..\..\lvgl\version_6.1.2\lvgl\src\lv_objx/lv_gauge.h ****     lv_obj_set_style(gauge, style);
  82              		.loc 1 132 0
  83 000e 7968     		ldr	r1, [r7, #4]
  84 0010 F868     		ldr	r0, [r7, #12]
  85 0012 FFF7FEFF 		bl	lv_obj_set_style
 133:..\..\..\lvgl\version_6.1.2\lvgl\src\lv_objx/lv_gauge.h **** }
  86              		.loc 1 133 0
  87 0016 00BF     		nop
  88 0018 1037     		adds	r7, r7, #16
  89              		.cfi_def_cfa_offset 8
  90 001a BD46     		mov	sp, r7
  91              		.cfi_def_cfa_register 13
  92              		@ sp needed
  93 001c 80BD     		pop	{r7, pc}
  94              		.cfi_endproc
  95              	.LFE39:
ARM GAS  C:\Users\tmj32\AppData\Local\Temp\ccmyxrAJ.s 			page 5


  96              		.size	lv_gauge_set_style, .-lv_gauge_set_style
  97 001e 00BF     		.section	.text.lv_gauge_get_min_value,"ax",%progbits
  98              		.align	2
  99              		.thumb
 100              		.thumb_func
 101              		.type	lv_gauge_get_min_value, %function
 102              	lv_gauge_get_min_value:
 103              	.LFB40:
 134:..\..\..\lvgl\version_6.1.2\lvgl\src\lv_objx/lv_gauge.h **** 
 135:..\..\..\lvgl\version_6.1.2\lvgl\src\lv_objx/lv_gauge.h **** /*=====================
 136:..\..\..\lvgl\version_6.1.2\lvgl\src\lv_objx/lv_gauge.h ****  * Getter functions
 137:..\..\..\lvgl\version_6.1.2\lvgl\src\lv_objx/lv_gauge.h ****  *====================*/
 138:..\..\..\lvgl\version_6.1.2\lvgl\src\lv_objx/lv_gauge.h **** 
 139:..\..\..\lvgl\version_6.1.2\lvgl\src\lv_objx/lv_gauge.h **** /**
 140:..\..\..\lvgl\version_6.1.2\lvgl\src\lv_objx/lv_gauge.h ****  * Get the value of a needle
 141:..\..\..\lvgl\version_6.1.2\lvgl\src\lv_objx/lv_gauge.h ****  * @param gauge pointer to gauge object
 142:..\..\..\lvgl\version_6.1.2\lvgl\src\lv_objx/lv_gauge.h ****  * @param needle the id of the needle
 143:..\..\..\lvgl\version_6.1.2\lvgl\src\lv_objx/lv_gauge.h ****  * @return the value of the needle [min,max]
 144:..\..\..\lvgl\version_6.1.2\lvgl\src\lv_objx/lv_gauge.h ****  */
 145:..\..\..\lvgl\version_6.1.2\lvgl\src\lv_objx/lv_gauge.h **** int16_t lv_gauge_get_value(const lv_obj_t * gauge, uint8_t needle);
 146:..\..\..\lvgl\version_6.1.2\lvgl\src\lv_objx/lv_gauge.h **** 
 147:..\..\..\lvgl\version_6.1.2\lvgl\src\lv_objx/lv_gauge.h **** /**
 148:..\..\..\lvgl\version_6.1.2\lvgl\src\lv_objx/lv_gauge.h ****  * Get the count of needles on a gauge
 149:..\..\..\lvgl\version_6.1.2\lvgl\src\lv_objx/lv_gauge.h ****  * @param gauge pointer to gauge
 150:..\..\..\lvgl\version_6.1.2\lvgl\src\lv_objx/lv_gauge.h ****  * @return count of needles
 151:..\..\..\lvgl\version_6.1.2\lvgl\src\lv_objx/lv_gauge.h ****  */
 152:..\..\..\lvgl\version_6.1.2\lvgl\src\lv_objx/lv_gauge.h **** uint8_t lv_gauge_get_needle_count(const lv_obj_t * gauge);
 153:..\..\..\lvgl\version_6.1.2\lvgl\src\lv_objx/lv_gauge.h **** 
 154:..\..\..\lvgl\version_6.1.2\lvgl\src\lv_objx/lv_gauge.h **** /**
 155:..\..\..\lvgl\version_6.1.2\lvgl\src\lv_objx/lv_gauge.h ****  * Get the minimum value of a gauge
 156:..\..\..\lvgl\version_6.1.2\lvgl\src\lv_objx/lv_gauge.h ****  * @param gauge pointer to a gauge object
 157:..\..\..\lvgl\version_6.1.2\lvgl\src\lv_objx/lv_gauge.h ****  * @return the minimum value of the gauge
 158:..\..\..\lvgl\version_6.1.2\lvgl\src\lv_objx/lv_gauge.h ****  */
 159:..\..\..\lvgl\version_6.1.2\lvgl\src\lv_objx/lv_gauge.h **** static inline int16_t lv_gauge_get_min_value(const lv_obj_t * lmeter)
 160:..\..\..\lvgl\version_6.1.2\lvgl\src\lv_objx/lv_gauge.h **** {
 104              		.loc 1 160 0
 105              		.cfi_startproc
 106              		@ args = 0, pretend = 0, frame = 8
 107              		@ frame_needed = 1, uses_anonymous_args = 0
 108 0000 80B5     		push	{r7, lr}
 109              		.cfi_def_cfa_offset 8
 110              		.cfi_offset 7, -8
 111              		.cfi_offset 14, -4
 112 0002 82B0     		sub	sp, sp, #8
 113              		.cfi_def_cfa_offset 16
 114 0004 00AF     		add	r7, sp, #0
 115              		.cfi_def_cfa_register 7
 116 0006 7860     		str	r0, [r7, #4]
 161:..\..\..\lvgl\version_6.1.2\lvgl\src\lv_objx/lv_gauge.h ****     return lv_lmeter_get_min_value(lmeter);
 117              		.loc 1 161 0
 118 0008 7868     		ldr	r0, [r7, #4]
 119 000a FFF7FEFF 		bl	lv_lmeter_get_min_value
 120 000e 0346     		mov	r3, r0
 162:..\..\..\lvgl\version_6.1.2\lvgl\src\lv_objx/lv_gauge.h **** }
 121              		.loc 1 162 0
 122 0010 1846     		mov	r0, r3
 123 0012 0837     		adds	r7, r7, #8
ARM GAS  C:\Users\tmj32\AppData\Local\Temp\ccmyxrAJ.s 			page 6


 124              		.cfi_def_cfa_offset 8
 125 0014 BD46     		mov	sp, r7
 126              		.cfi_def_cfa_register 13
 127              		@ sp needed
 128 0016 80BD     		pop	{r7, pc}
 129              		.cfi_endproc
 130              	.LFE40:
 131              		.size	lv_gauge_get_min_value, .-lv_gauge_get_min_value
 132              		.section	.text.lv_gauge_get_max_value,"ax",%progbits
 133              		.align	2
 134              		.thumb
 135              		.thumb_func
 136              		.type	lv_gauge_get_max_value, %function
 137              	lv_gauge_get_max_value:
 138              	.LFB41:
 163:..\..\..\lvgl\version_6.1.2\lvgl\src\lv_objx/lv_gauge.h **** 
 164:..\..\..\lvgl\version_6.1.2\lvgl\src\lv_objx/lv_gauge.h **** /**
 165:..\..\..\lvgl\version_6.1.2\lvgl\src\lv_objx/lv_gauge.h ****  * Get the maximum value of a gauge
 166:..\..\..\lvgl\version_6.1.2\lvgl\src\lv_objx/lv_gauge.h ****  * @param gauge pointer to a gauge object
 167:..\..\..\lvgl\version_6.1.2\lvgl\src\lv_objx/lv_gauge.h ****  * @return the maximum value of the gauge
 168:..\..\..\lvgl\version_6.1.2\lvgl\src\lv_objx/lv_gauge.h ****  */
 169:..\..\..\lvgl\version_6.1.2\lvgl\src\lv_objx/lv_gauge.h **** static inline int16_t lv_gauge_get_max_value(const lv_obj_t * lmeter)
 170:..\..\..\lvgl\version_6.1.2\lvgl\src\lv_objx/lv_gauge.h **** {
 139              		.loc 1 170 0
 140              		.cfi_startproc
 141              		@ args = 0, pretend = 0, frame = 8
 142              		@ frame_needed = 1, uses_anonymous_args = 0
 143 0000 80B5     		push	{r7, lr}
 144              		.cfi_def_cfa_offset 8
 145              		.cfi_offset 7, -8
 146              		.cfi_offset 14, -4
 147 0002 82B0     		sub	sp, sp, #8
 148              		.cfi_def_cfa_offset 16
 149 0004 00AF     		add	r7, sp, #0
 150              		.cfi_def_cfa_register 7
 151 0006 7860     		str	r0, [r7, #4]
 171:..\..\..\lvgl\version_6.1.2\lvgl\src\lv_objx/lv_gauge.h ****     return lv_lmeter_get_max_value(lmeter);
 152              		.loc 1 171 0
 153 0008 7868     		ldr	r0, [r7, #4]
 154 000a FFF7FEFF 		bl	lv_lmeter_get_max_value
 155 000e 0346     		mov	r3, r0
 172:..\..\..\lvgl\version_6.1.2\lvgl\src\lv_objx/lv_gauge.h **** }
 156              		.loc 1 172 0
 157 0010 1846     		mov	r0, r3
 158 0012 0837     		adds	r7, r7, #8
 159              		.cfi_def_cfa_offset 8
 160 0014 BD46     		mov	sp, r7
 161              		.cfi_def_cfa_register 13
 162              		@ sp needed
 163 0016 80BD     		pop	{r7, pc}
 164              		.cfi_endproc
 165              	.LFE41:
 166              		.size	lv_gauge_get_max_value, .-lv_gauge_get_max_value
 167              		.section	.text.lv_gauge_get_style,"ax",%progbits
 168              		.align	2
 169              		.thumb
 170              		.thumb_func
ARM GAS  C:\Users\tmj32\AppData\Local\Temp\ccmyxrAJ.s 			page 7


 171              		.type	lv_gauge_get_style, %function
 172              	lv_gauge_get_style:
 173              	.LFB45:
 173:..\..\..\lvgl\version_6.1.2\lvgl\src\lv_objx/lv_gauge.h **** 
 174:..\..\..\lvgl\version_6.1.2\lvgl\src\lv_objx/lv_gauge.h **** /**
 175:..\..\..\lvgl\version_6.1.2\lvgl\src\lv_objx/lv_gauge.h ****  * Get a critical value on the scale.
 176:..\..\..\lvgl\version_6.1.2\lvgl\src\lv_objx/lv_gauge.h ****  * @param gauge pointer to a gauge object
 177:..\..\..\lvgl\version_6.1.2\lvgl\src\lv_objx/lv_gauge.h ****  * @return the critical value
 178:..\..\..\lvgl\version_6.1.2\lvgl\src\lv_objx/lv_gauge.h ****  */
 179:..\..\..\lvgl\version_6.1.2\lvgl\src\lv_objx/lv_gauge.h **** static inline int16_t lv_gauge_get_critical_value(const lv_obj_t * gauge)
 180:..\..\..\lvgl\version_6.1.2\lvgl\src\lv_objx/lv_gauge.h **** {
 181:..\..\..\lvgl\version_6.1.2\lvgl\src\lv_objx/lv_gauge.h ****     return lv_lmeter_get_value(gauge);
 182:..\..\..\lvgl\version_6.1.2\lvgl\src\lv_objx/lv_gauge.h **** }
 183:..\..\..\lvgl\version_6.1.2\lvgl\src\lv_objx/lv_gauge.h **** 
 184:..\..\..\lvgl\version_6.1.2\lvgl\src\lv_objx/lv_gauge.h **** /**
 185:..\..\..\lvgl\version_6.1.2\lvgl\src\lv_objx/lv_gauge.h ****  * Set the number of labels (and the thicker lines too)
 186:..\..\..\lvgl\version_6.1.2\lvgl\src\lv_objx/lv_gauge.h ****  * @param gauge pointer to a gauge object
 187:..\..\..\lvgl\version_6.1.2\lvgl\src\lv_objx/lv_gauge.h ****  * @return count of labels
 188:..\..\..\lvgl\version_6.1.2\lvgl\src\lv_objx/lv_gauge.h ****  */
 189:..\..\..\lvgl\version_6.1.2\lvgl\src\lv_objx/lv_gauge.h **** uint8_t lv_gauge_get_label_count(const lv_obj_t * gauge);
 190:..\..\..\lvgl\version_6.1.2\lvgl\src\lv_objx/lv_gauge.h **** 
 191:..\..\..\lvgl\version_6.1.2\lvgl\src\lv_objx/lv_gauge.h **** /**
 192:..\..\..\lvgl\version_6.1.2\lvgl\src\lv_objx/lv_gauge.h ****  * Get the scale number of a gauge
 193:..\..\..\lvgl\version_6.1.2\lvgl\src\lv_objx/lv_gauge.h ****  * @param gauge pointer to a gauge object
 194:..\..\..\lvgl\version_6.1.2\lvgl\src\lv_objx/lv_gauge.h ****  * @return number of the scale units
 195:..\..\..\lvgl\version_6.1.2\lvgl\src\lv_objx/lv_gauge.h ****  */
 196:..\..\..\lvgl\version_6.1.2\lvgl\src\lv_objx/lv_gauge.h **** static inline uint16_t lv_gauge_get_line_count(const lv_obj_t * gauge)
 197:..\..\..\lvgl\version_6.1.2\lvgl\src\lv_objx/lv_gauge.h **** {
 198:..\..\..\lvgl\version_6.1.2\lvgl\src\lv_objx/lv_gauge.h ****     return lv_lmeter_get_line_count(gauge);
 199:..\..\..\lvgl\version_6.1.2\lvgl\src\lv_objx/lv_gauge.h **** }
 200:..\..\..\lvgl\version_6.1.2\lvgl\src\lv_objx/lv_gauge.h **** 
 201:..\..\..\lvgl\version_6.1.2\lvgl\src\lv_objx/lv_gauge.h **** /**
 202:..\..\..\lvgl\version_6.1.2\lvgl\src\lv_objx/lv_gauge.h ****  * Get the scale angle of a gauge
 203:..\..\..\lvgl\version_6.1.2\lvgl\src\lv_objx/lv_gauge.h ****  * @param gauge pointer to a gauge object
 204:..\..\..\lvgl\version_6.1.2\lvgl\src\lv_objx/lv_gauge.h ****  * @return angle of the scale
 205:..\..\..\lvgl\version_6.1.2\lvgl\src\lv_objx/lv_gauge.h ****  */
 206:..\..\..\lvgl\version_6.1.2\lvgl\src\lv_objx/lv_gauge.h **** static inline uint16_t lv_gauge_get_scale_angle(const lv_obj_t * gauge)
 207:..\..\..\lvgl\version_6.1.2\lvgl\src\lv_objx/lv_gauge.h **** {
 208:..\..\..\lvgl\version_6.1.2\lvgl\src\lv_objx/lv_gauge.h ****     return lv_lmeter_get_scale_angle(gauge);
 209:..\..\..\lvgl\version_6.1.2\lvgl\src\lv_objx/lv_gauge.h **** }
 210:..\..\..\lvgl\version_6.1.2\lvgl\src\lv_objx/lv_gauge.h **** 
 211:..\..\..\lvgl\version_6.1.2\lvgl\src\lv_objx/lv_gauge.h **** /**
 212:..\..\..\lvgl\version_6.1.2\lvgl\src\lv_objx/lv_gauge.h ****  * Get the style of a gauge
 213:..\..\..\lvgl\version_6.1.2\lvgl\src\lv_objx/lv_gauge.h ****  * @param gauge pointer to a gauge object
 214:..\..\..\lvgl\version_6.1.2\lvgl\src\lv_objx/lv_gauge.h ****  * @param type which style should be get (can be only `LV_GAUGE_STYLE_MAIN`)
 215:..\..\..\lvgl\version_6.1.2\lvgl\src\lv_objx/lv_gauge.h ****  * @return pointer to the gauge's style
 216:..\..\..\lvgl\version_6.1.2\lvgl\src\lv_objx/lv_gauge.h ****  */
 217:..\..\..\lvgl\version_6.1.2\lvgl\src\lv_objx/lv_gauge.h **** static inline const lv_style_t * lv_gauge_get_style(const lv_obj_t * gauge, lv_gauge_style_t type)
 218:..\..\..\lvgl\version_6.1.2\lvgl\src\lv_objx/lv_gauge.h **** {
 174              		.loc 1 218 0
 175              		.cfi_startproc
 176              		@ args = 0, pretend = 0, frame = 8
 177              		@ frame_needed = 1, uses_anonymous_args = 0
 178 0000 80B5     		push	{r7, lr}
 179              		.cfi_def_cfa_offset 8
 180              		.cfi_offset 7, -8
 181              		.cfi_offset 14, -4
ARM GAS  C:\Users\tmj32\AppData\Local\Temp\ccmyxrAJ.s 			page 8


 182 0002 82B0     		sub	sp, sp, #8
 183              		.cfi_def_cfa_offset 16
 184 0004 00AF     		add	r7, sp, #0
 185              		.cfi_def_cfa_register 7
 186 0006 7860     		str	r0, [r7, #4]
 187 0008 0B46     		mov	r3, r1
 188 000a FB70     		strb	r3, [r7, #3]
 219:..\..\..\lvgl\version_6.1.2\lvgl\src\lv_objx/lv_gauge.h ****     (void)type; /*Unused*/
 220:..\..\..\lvgl\version_6.1.2\lvgl\src\lv_objx/lv_gauge.h ****     return lv_obj_get_style(gauge);
 189              		.loc 1 220 0
 190 000c 7868     		ldr	r0, [r7, #4]
 191 000e FFF7FEFF 		bl	lv_obj_get_style
 192 0012 0346     		mov	r3, r0
 221:..\..\..\lvgl\version_6.1.2\lvgl\src\lv_objx/lv_gauge.h **** }
 193              		.loc 1 221 0
 194 0014 1846     		mov	r0, r3
 195 0016 0837     		adds	r7, r7, #8
 196              		.cfi_def_cfa_offset 8
 197 0018 BD46     		mov	sp, r7
 198              		.cfi_def_cfa_register 13
 199              		@ sp needed
 200 001a 80BD     		pop	{r7, pc}
 201              		.cfi_endproc
 202              	.LFE45:
 203              		.size	lv_gauge_get_style, .-lv_gauge_get_style
 204              		.bss
 205              		.align	2
 206              	ancestor_design:
 207 0000 00000000 		.space	4
 208              		.align	2
 209              	ancestor_signal:
 210 0004 00000000 		.space	4
 211              		.section	.text.lv_gauge_create,"ax",%progbits
 212              		.align	2
 213              		.global	lv_gauge_create
 214              		.thumb
 215              		.thumb_func
 216              		.type	lv_gauge_create, %function
 217              	lv_gauge_create:
 218              	.LFB47:
 219              		.file 2 "..\\..\\..\\lvgl\\version_6.1.2\\lvgl\\src\\lv_objx\\lv_gauge.c"
   1:..\..\..\lvgl\version_6.1.2\lvgl\src\lv_objx/lv_gauge.c **** /**
   2:..\..\..\lvgl\version_6.1.2\lvgl\src\lv_objx/lv_gauge.c ****  * @file lv_gauge.c
   3:..\..\..\lvgl\version_6.1.2\lvgl\src\lv_objx/lv_gauge.c ****  *
   4:..\..\..\lvgl\version_6.1.2\lvgl\src\lv_objx/lv_gauge.c ****  */
   5:..\..\..\lvgl\version_6.1.2\lvgl\src\lv_objx/lv_gauge.c **** 
   6:..\..\..\lvgl\version_6.1.2\lvgl\src\lv_objx/lv_gauge.c **** /*********************
   7:..\..\..\lvgl\version_6.1.2\lvgl\src\lv_objx/lv_gauge.c ****  *      INCLUDES
   8:..\..\..\lvgl\version_6.1.2\lvgl\src\lv_objx/lv_gauge.c ****  *********************/
   9:..\..\..\lvgl\version_6.1.2\lvgl\src\lv_objx/lv_gauge.c **** #include "lv_gauge.h"
  10:..\..\..\lvgl\version_6.1.2\lvgl\src\lv_objx/lv_gauge.c **** #if LV_USE_GAUGE != 0
  11:..\..\..\lvgl\version_6.1.2\lvgl\src\lv_objx/lv_gauge.c **** 
  12:..\..\..\lvgl\version_6.1.2\lvgl\src\lv_objx/lv_gauge.c **** #include "../lv_core/lv_debug.h"
  13:..\..\..\lvgl\version_6.1.2\lvgl\src\lv_objx/lv_gauge.c **** #include "../lv_draw/lv_draw.h"
  14:..\..\..\lvgl\version_6.1.2\lvgl\src\lv_objx/lv_gauge.c **** #include "../lv_themes/lv_theme.h"
  15:..\..\..\lvgl\version_6.1.2\lvgl\src\lv_objx/lv_gauge.c **** #include "../lv_misc/lv_txt.h"
  16:..\..\..\lvgl\version_6.1.2\lvgl\src\lv_objx/lv_gauge.c **** #include "../lv_misc/lv_math.h"
ARM GAS  C:\Users\tmj32\AppData\Local\Temp\ccmyxrAJ.s 			page 9


  17:..\..\..\lvgl\version_6.1.2\lvgl\src\lv_objx/lv_gauge.c **** #include "../lv_misc/lv_utils.h"
  18:..\..\..\lvgl\version_6.1.2\lvgl\src\lv_objx/lv_gauge.c **** #include <stdio.h>
  19:..\..\..\lvgl\version_6.1.2\lvgl\src\lv_objx/lv_gauge.c **** #include <string.h>
  20:..\..\..\lvgl\version_6.1.2\lvgl\src\lv_objx/lv_gauge.c **** 
  21:..\..\..\lvgl\version_6.1.2\lvgl\src\lv_objx/lv_gauge.c **** /*********************
  22:..\..\..\lvgl\version_6.1.2\lvgl\src\lv_objx/lv_gauge.c ****  *      DEFINES
  23:..\..\..\lvgl\version_6.1.2\lvgl\src\lv_objx/lv_gauge.c ****  *********************/
  24:..\..\..\lvgl\version_6.1.2\lvgl\src\lv_objx/lv_gauge.c **** #define LV_OBJX_NAME "lv_gauge"
  25:..\..\..\lvgl\version_6.1.2\lvgl\src\lv_objx/lv_gauge.c **** 
  26:..\..\..\lvgl\version_6.1.2\lvgl\src\lv_objx/lv_gauge.c **** #define LV_GAUGE_DEF_NEEDLE_COLOR LV_COLOR_RED
  27:..\..\..\lvgl\version_6.1.2\lvgl\src\lv_objx/lv_gauge.c **** #define LV_GAUGE_DEF_LABEL_COUNT 6
  28:..\..\..\lvgl\version_6.1.2\lvgl\src\lv_objx/lv_gauge.c **** #define LV_GAUGE_DEF_LINE_COUNT 21 /*Should be: ((label_cnt - 1) * internal_lines) + 1*/
  29:..\..\..\lvgl\version_6.1.2\lvgl\src\lv_objx/lv_gauge.c **** #define LV_GAUGE_DEF_ANGLE 220
  30:..\..\..\lvgl\version_6.1.2\lvgl\src\lv_objx/lv_gauge.c **** #define LV_GAUGE_INTERPOLATE_SHIFT 5 /*Interpolate the needle drawing between to degrees*/
  31:..\..\..\lvgl\version_6.1.2\lvgl\src\lv_objx/lv_gauge.c **** #define LV_GAUGE_INTERPOLATE_MASK 0x1F
  32:..\..\..\lvgl\version_6.1.2\lvgl\src\lv_objx/lv_gauge.c **** 
  33:..\..\..\lvgl\version_6.1.2\lvgl\src\lv_objx/lv_gauge.c **** /**********************
  34:..\..\..\lvgl\version_6.1.2\lvgl\src\lv_objx/lv_gauge.c ****  *      TYPEDEFS
  35:..\..\..\lvgl\version_6.1.2\lvgl\src\lv_objx/lv_gauge.c ****  **********************/
  36:..\..\..\lvgl\version_6.1.2\lvgl\src\lv_objx/lv_gauge.c **** 
  37:..\..\..\lvgl\version_6.1.2\lvgl\src\lv_objx/lv_gauge.c **** /**********************
  38:..\..\..\lvgl\version_6.1.2\lvgl\src\lv_objx/lv_gauge.c ****  *  STATIC PROTOTYPES
  39:..\..\..\lvgl\version_6.1.2\lvgl\src\lv_objx/lv_gauge.c ****  **********************/
  40:..\..\..\lvgl\version_6.1.2\lvgl\src\lv_objx/lv_gauge.c **** static bool lv_gauge_design(lv_obj_t * gauge, const lv_area_t * mask, lv_design_mode_t mode);
  41:..\..\..\lvgl\version_6.1.2\lvgl\src\lv_objx/lv_gauge.c **** static lv_res_t lv_gauge_signal(lv_obj_t * gauge, lv_signal_t sign, void * param);
  42:..\..\..\lvgl\version_6.1.2\lvgl\src\lv_objx/lv_gauge.c **** static void lv_gauge_draw_scale(lv_obj_t * gauge, const lv_area_t * mask);
  43:..\..\..\lvgl\version_6.1.2\lvgl\src\lv_objx/lv_gauge.c **** static void lv_gauge_draw_needle(lv_obj_t * gauge, const lv_area_t * mask);
  44:..\..\..\lvgl\version_6.1.2\lvgl\src\lv_objx/lv_gauge.c **** 
  45:..\..\..\lvgl\version_6.1.2\lvgl\src\lv_objx/lv_gauge.c **** /**********************
  46:..\..\..\lvgl\version_6.1.2\lvgl\src\lv_objx/lv_gauge.c ****  *  STATIC VARIABLES
  47:..\..\..\lvgl\version_6.1.2\lvgl\src\lv_objx/lv_gauge.c ****  **********************/
  48:..\..\..\lvgl\version_6.1.2\lvgl\src\lv_objx/lv_gauge.c **** static lv_design_cb_t ancestor_design;
  49:..\..\..\lvgl\version_6.1.2\lvgl\src\lv_objx/lv_gauge.c **** static lv_signal_cb_t ancestor_signal;
  50:..\..\..\lvgl\version_6.1.2\lvgl\src\lv_objx/lv_gauge.c **** 
  51:..\..\..\lvgl\version_6.1.2\lvgl\src\lv_objx/lv_gauge.c **** /**********************
  52:..\..\..\lvgl\version_6.1.2\lvgl\src\lv_objx/lv_gauge.c ****  *      MACROS
  53:..\..\..\lvgl\version_6.1.2\lvgl\src\lv_objx/lv_gauge.c ****  **********************/
  54:..\..\..\lvgl\version_6.1.2\lvgl\src\lv_objx/lv_gauge.c **** 
  55:..\..\..\lvgl\version_6.1.2\lvgl\src\lv_objx/lv_gauge.c **** /**********************
  56:..\..\..\lvgl\version_6.1.2\lvgl\src\lv_objx/lv_gauge.c ****  *   GLOBAL FUNCTIONS
  57:..\..\..\lvgl\version_6.1.2\lvgl\src\lv_objx/lv_gauge.c ****  **********************/
  58:..\..\..\lvgl\version_6.1.2\lvgl\src\lv_objx/lv_gauge.c **** 
  59:..\..\..\lvgl\version_6.1.2\lvgl\src\lv_objx/lv_gauge.c **** /**
  60:..\..\..\lvgl\version_6.1.2\lvgl\src\lv_objx/lv_gauge.c ****  * Create a gauge objects
  61:..\..\..\lvgl\version_6.1.2\lvgl\src\lv_objx/lv_gauge.c ****  * @param par pointer to an object, it will be the parent of the new gauge
  62:..\..\..\lvgl\version_6.1.2\lvgl\src\lv_objx/lv_gauge.c ****  * @param copy pointer to a gauge object, if not NULL then the new object will be copied from it
  63:..\..\..\lvgl\version_6.1.2\lvgl\src\lv_objx/lv_gauge.c ****  * @return pointer to the created gauge
  64:..\..\..\lvgl\version_6.1.2\lvgl\src\lv_objx/lv_gauge.c ****  */
  65:..\..\..\lvgl\version_6.1.2\lvgl\src\lv_objx/lv_gauge.c **** lv_obj_t * lv_gauge_create(lv_obj_t * par, const lv_obj_t * copy)
  66:..\..\..\lvgl\version_6.1.2\lvgl\src\lv_objx/lv_gauge.c **** {
 220              		.loc 2 66 0
 221              		.cfi_startproc
 222              		@ args = 0, pretend = 0, frame = 32
 223              		@ frame_needed = 1, uses_anonymous_args = 0
 224 0000 80B5     		push	{r7, lr}
 225              		.cfi_def_cfa_offset 8
 226              		.cfi_offset 7, -8
ARM GAS  C:\Users\tmj32\AppData\Local\Temp\ccmyxrAJ.s 			page 10


 227              		.cfi_offset 14, -4
 228 0002 88B0     		sub	sp, sp, #32
 229              		.cfi_def_cfa_offset 40
 230 0004 00AF     		add	r7, sp, #0
 231              		.cfi_def_cfa_register 7
 232 0006 7860     		str	r0, [r7, #4]
 233 0008 3960     		str	r1, [r7]
  67:..\..\..\lvgl\version_6.1.2\lvgl\src\lv_objx/lv_gauge.c ****     LV_LOG_TRACE("gauge create started");
  68:..\..\..\lvgl\version_6.1.2\lvgl\src\lv_objx/lv_gauge.c **** 
  69:..\..\..\lvgl\version_6.1.2\lvgl\src\lv_objx/lv_gauge.c ****     /*Create the ancestor gauge*/
  70:..\..\..\lvgl\version_6.1.2\lvgl\src\lv_objx/lv_gauge.c ****     lv_obj_t * new_gauge = lv_lmeter_create(par, copy);
 234              		.loc 2 70 0
 235 000a 3968     		ldr	r1, [r7]
 236 000c 7868     		ldr	r0, [r7, #4]
 237 000e FFF7FEFF 		bl	lv_lmeter_create
 238 0012 B861     		str	r0, [r7, #24]
  71:..\..\..\lvgl\version_6.1.2\lvgl\src\lv_objx/lv_gauge.c ****     LV_ASSERT_MEM(new_gauge);
  72:..\..\..\lvgl\version_6.1.2\lvgl\src\lv_objx/lv_gauge.c ****     if(new_gauge == NULL) return NULL;
 239              		.loc 2 72 0
 240 0014 BB69     		ldr	r3, [r7, #24]
 241 0016 002B     		cmp	r3, #0
 242 0018 01D1     		bne	.L10
 243              		.loc 2 72 0 is_stmt 0 discriminator 1
 244 001a 0023     		movs	r3, #0
 245 001c 8AE0     		b	.L11
 246              	.L10:
  73:..\..\..\lvgl\version_6.1.2\lvgl\src\lv_objx/lv_gauge.c **** 
  74:..\..\..\lvgl\version_6.1.2\lvgl\src\lv_objx/lv_gauge.c ****     /*Allocate the gauge type specific extended data*/
  75:..\..\..\lvgl\version_6.1.2\lvgl\src\lv_objx/lv_gauge.c ****     lv_gauge_ext_t * ext = lv_obj_allocate_ext_attr(new_gauge, sizeof(lv_gauge_ext_t));
 247              		.loc 2 75 0 is_stmt 1
 248 001e 1821     		movs	r1, #24
 249 0020 B869     		ldr	r0, [r7, #24]
 250 0022 FFF7FEFF 		bl	lv_obj_allocate_ext_attr
 251 0026 7861     		str	r0, [r7, #20]
  76:..\..\..\lvgl\version_6.1.2\lvgl\src\lv_objx/lv_gauge.c ****     LV_ASSERT_MEM(ext);
  77:..\..\..\lvgl\version_6.1.2\lvgl\src\lv_objx/lv_gauge.c ****     if(ext == NULL) return NULL;
 252              		.loc 2 77 0
 253 0028 7B69     		ldr	r3, [r7, #20]
 254 002a 002B     		cmp	r3, #0
 255 002c 01D1     		bne	.L12
 256              		.loc 2 77 0 is_stmt 0 discriminator 1
 257 002e 0023     		movs	r3, #0
 258 0030 80E0     		b	.L11
 259              	.L12:
  78:..\..\..\lvgl\version_6.1.2\lvgl\src\lv_objx/lv_gauge.c **** 
  79:..\..\..\lvgl\version_6.1.2\lvgl\src\lv_objx/lv_gauge.c ****     /*Initialize the allocated 'ext' */
  80:..\..\..\lvgl\version_6.1.2\lvgl\src\lv_objx/lv_gauge.c ****     ext->needle_count  = 0;
 260              		.loc 2 80 0 is_stmt 1
 261 0032 7B69     		ldr	r3, [r7, #20]
 262 0034 0022     		movs	r2, #0
 263 0036 1A75     		strb	r2, [r3, #20]
  81:..\..\..\lvgl\version_6.1.2\lvgl\src\lv_objx/lv_gauge.c ****     ext->values        = NULL;
 264              		.loc 2 81 0
 265 0038 7B69     		ldr	r3, [r7, #20]
 266 003a 0022     		movs	r2, #0
 267 003c DA60     		str	r2, [r3, #12]
  82:..\..\..\lvgl\version_6.1.2\lvgl\src\lv_objx/lv_gauge.c ****     ext->needle_colors = NULL;
ARM GAS  C:\Users\tmj32\AppData\Local\Temp\ccmyxrAJ.s 			page 11


 268              		.loc 2 82 0
 269 003e 7B69     		ldr	r3, [r7, #20]
 270 0040 0022     		movs	r2, #0
 271 0042 1A61     		str	r2, [r3, #16]
  83:..\..\..\lvgl\version_6.1.2\lvgl\src\lv_objx/lv_gauge.c ****     ext->label_count   = LV_GAUGE_DEF_LABEL_COUNT;
 272              		.loc 2 83 0
 273 0044 7B69     		ldr	r3, [r7, #20]
 274 0046 0622     		movs	r2, #6
 275 0048 5A75     		strb	r2, [r3, #21]
  84:..\..\..\lvgl\version_6.1.2\lvgl\src\lv_objx/lv_gauge.c ****     if(ancestor_signal == NULL) ancestor_signal = lv_obj_get_signal_cb(new_gauge);
 276              		.loc 2 84 0
 277 004a 3C4B     		ldr	r3, .L21
 278 004c 1B68     		ldr	r3, [r3]
 279 004e 002B     		cmp	r3, #0
 280 0050 05D1     		bne	.L13
 281              		.loc 2 84 0 is_stmt 0 discriminator 1
 282 0052 B869     		ldr	r0, [r7, #24]
 283 0054 FFF7FEFF 		bl	lv_obj_get_signal_cb
 284 0058 0246     		mov	r2, r0
 285 005a 384B     		ldr	r3, .L21
 286 005c 1A60     		str	r2, [r3]
 287              	.L13:
  85:..\..\..\lvgl\version_6.1.2\lvgl\src\lv_objx/lv_gauge.c ****     if(ancestor_design == NULL) ancestor_design = lv_obj_get_design_cb(new_gauge);
 288              		.loc 2 85 0 is_stmt 1
 289 005e 384B     		ldr	r3, .L21+4
 290 0060 1B68     		ldr	r3, [r3]
 291 0062 002B     		cmp	r3, #0
 292 0064 05D1     		bne	.L14
 293              		.loc 2 85 0 is_stmt 0 discriminator 1
 294 0066 B869     		ldr	r0, [r7, #24]
 295 0068 FFF7FEFF 		bl	lv_obj_get_design_cb
 296 006c 0246     		mov	r2, r0
 297 006e 344B     		ldr	r3, .L21+4
 298 0070 1A60     		str	r2, [r3]
 299              	.L14:
  86:..\..\..\lvgl\version_6.1.2\lvgl\src\lv_objx/lv_gauge.c **** 
  87:..\..\..\lvgl\version_6.1.2\lvgl\src\lv_objx/lv_gauge.c ****     /*The signal and design functions are not copied so set them here*/
  88:..\..\..\lvgl\version_6.1.2\lvgl\src\lv_objx/lv_gauge.c ****     lv_obj_set_signal_cb(new_gauge, lv_gauge_signal);
 300              		.loc 2 88 0 is_stmt 1
 301 0072 3449     		ldr	r1, .L21+8
 302 0074 B869     		ldr	r0, [r7, #24]
 303 0076 FFF7FEFF 		bl	lv_obj_set_signal_cb
  89:..\..\..\lvgl\version_6.1.2\lvgl\src\lv_objx/lv_gauge.c ****     lv_obj_set_design_cb(new_gauge, lv_gauge_design);
 304              		.loc 2 89 0
 305 007a 3349     		ldr	r1, .L21+12
 306 007c B869     		ldr	r0, [r7, #24]
 307 007e FFF7FEFF 		bl	lv_obj_set_design_cb
  90:..\..\..\lvgl\version_6.1.2\lvgl\src\lv_objx/lv_gauge.c **** 
  91:..\..\..\lvgl\version_6.1.2\lvgl\src\lv_objx/lv_gauge.c ****     /*Init the new gauge gauge*/
  92:..\..\..\lvgl\version_6.1.2\lvgl\src\lv_objx/lv_gauge.c ****     if(copy == NULL) {
 308              		.loc 2 92 0
 309 0082 3B68     		ldr	r3, [r7]
 310 0084 002B     		cmp	r3, #0
 311 0086 29D1     		bne	.L15
 312              	.LBB2:
  93:..\..\..\lvgl\version_6.1.2\lvgl\src\lv_objx/lv_gauge.c ****         lv_gauge_set_scale(new_gauge, LV_GAUGE_DEF_ANGLE, LV_GAUGE_DEF_LINE_COUNT, LV_GAUGE_DEF_LAB
 313              		.loc 2 93 0
ARM GAS  C:\Users\tmj32\AppData\Local\Temp\ccmyxrAJ.s 			page 12


 314 0088 0623     		movs	r3, #6
 315 008a 1522     		movs	r2, #21
 316 008c DC21     		movs	r1, #220
 317 008e B869     		ldr	r0, [r7, #24]
 318 0090 FFF7FEFF 		bl	lv_gauge_set_scale
  94:..\..\..\lvgl\version_6.1.2\lvgl\src\lv_objx/lv_gauge.c ****         lv_gauge_set_needle_count(new_gauge, 1, NULL);
 319              		.loc 2 94 0
 320 0094 0022     		movs	r2, #0
 321 0096 0121     		movs	r1, #1
 322 0098 B869     		ldr	r0, [r7, #24]
 323 009a FFF7FEFF 		bl	lv_gauge_set_needle_count
  95:..\..\..\lvgl\version_6.1.2\lvgl\src\lv_objx/lv_gauge.c ****         lv_gauge_set_critical_value(new_gauge, 80);
 324              		.loc 2 95 0
 325 009e 5021     		movs	r1, #80
 326 00a0 B869     		ldr	r0, [r7, #24]
 327 00a2 FFF7FEFF 		bl	lv_gauge_set_critical_value
  96:..\..\..\lvgl\version_6.1.2\lvgl\src\lv_objx/lv_gauge.c ****         lv_obj_set_size(new_gauge, 2 * LV_DPI, 2 * LV_DPI);
 328              		.loc 2 96 0
 329 00a6 4FF49672 		mov	r2, #300
 330 00aa 4FF49671 		mov	r1, #300
 331 00ae B869     		ldr	r0, [r7, #24]
 332 00b0 FFF7FEFF 		bl	lv_obj_set_size
  97:..\..\..\lvgl\version_6.1.2\lvgl\src\lv_objx/lv_gauge.c **** 
  98:..\..\..\lvgl\version_6.1.2\lvgl\src\lv_objx/lv_gauge.c ****         /*Set the default styles*/
  99:..\..\..\lvgl\version_6.1.2\lvgl\src\lv_objx/lv_gauge.c ****         lv_theme_t * th = lv_theme_get_current();
 333              		.loc 2 99 0
 334 00b4 FFF7FEFF 		bl	lv_theme_get_current
 335 00b8 3861     		str	r0, [r7, #16]
 100:..\..\..\lvgl\version_6.1.2\lvgl\src\lv_objx/lv_gauge.c ****         if(th) {
 336              		.loc 2 100 0
 337 00ba 3B69     		ldr	r3, [r7, #16]
 338 00bc 002B     		cmp	r3, #0
 339 00be 07D0     		beq	.L16
 101:..\..\..\lvgl\version_6.1.2\lvgl\src\lv_objx/lv_gauge.c ****             lv_gauge_set_style(new_gauge, LV_GAUGE_STYLE_MAIN, th->style.gauge);
 340              		.loc 2 101 0
 341 00c0 3B69     		ldr	r3, [r7, #16]
 342 00c2 DB6E     		ldr	r3, [r3, #108]
 343 00c4 1A46     		mov	r2, r3
 344 00c6 0021     		movs	r1, #0
 345 00c8 B869     		ldr	r0, [r7, #24]
 346 00ca FFF7FEFF 		bl	lv_gauge_set_style
 347 00ce 30E0     		b	.L18
 348              	.L16:
 102:..\..\..\lvgl\version_6.1.2\lvgl\src\lv_objx/lv_gauge.c ****         } else {
 103:..\..\..\lvgl\version_6.1.2\lvgl\src\lv_objx/lv_gauge.c ****             lv_gauge_set_style(new_gauge, LV_GAUGE_STYLE_MAIN, &lv_style_pretty_color);
 349              		.loc 2 103 0
 350 00d0 1E4A     		ldr	r2, .L21+16
 351 00d2 0021     		movs	r1, #0
 352 00d4 B869     		ldr	r0, [r7, #24]
 353 00d6 FFF7FEFF 		bl	lv_gauge_set_style
 354 00da 2AE0     		b	.L18
 355              	.L15:
 356              	.LBE2:
 357              	.LBB3:
 104:..\..\..\lvgl\version_6.1.2\lvgl\src\lv_objx/lv_gauge.c ****         }
 105:..\..\..\lvgl\version_6.1.2\lvgl\src\lv_objx/lv_gauge.c ****     }
 106:..\..\..\lvgl\version_6.1.2\lvgl\src\lv_objx/lv_gauge.c ****     /*Copy an existing gauge*/
ARM GAS  C:\Users\tmj32\AppData\Local\Temp\ccmyxrAJ.s 			page 13


 107:..\..\..\lvgl\version_6.1.2\lvgl\src\lv_objx/lv_gauge.c ****     else {
 108:..\..\..\lvgl\version_6.1.2\lvgl\src\lv_objx/lv_gauge.c ****         lv_gauge_ext_t * copy_ext = lv_obj_get_ext_attr(copy);
 358              		.loc 2 108 0
 359 00dc 3868     		ldr	r0, [r7]
 360 00de FFF7FEFF 		bl	lv_obj_get_ext_attr
 361 00e2 F860     		str	r0, [r7, #12]
 109:..\..\..\lvgl\version_6.1.2\lvgl\src\lv_objx/lv_gauge.c ****         lv_gauge_set_needle_count(new_gauge, copy_ext->needle_count, copy_ext->needle_colors);
 362              		.loc 2 109 0
 363 00e4 FB68     		ldr	r3, [r7, #12]
 364 00e6 197D     		ldrb	r1, [r3, #20]	@ zero_extendqisi2
 365 00e8 FB68     		ldr	r3, [r7, #12]
 366 00ea 1B69     		ldr	r3, [r3, #16]
 367 00ec 1A46     		mov	r2, r3
 368 00ee B869     		ldr	r0, [r7, #24]
 369 00f0 FFF7FEFF 		bl	lv_gauge_set_needle_count
 110:..\..\..\lvgl\version_6.1.2\lvgl\src\lv_objx/lv_gauge.c **** 
 111:..\..\..\lvgl\version_6.1.2\lvgl\src\lv_objx/lv_gauge.c ****         uint8_t i;
 112:..\..\..\lvgl\version_6.1.2\lvgl\src\lv_objx/lv_gauge.c ****         for(i = 0; i < ext->needle_count; i++) {
 370              		.loc 2 112 0
 371 00f4 0023     		movs	r3, #0
 372 00f6 FB77     		strb	r3, [r7, #31]
 373 00f8 0FE0     		b	.L19
 374              	.L20:
 113:..\..\..\lvgl\version_6.1.2\lvgl\src\lv_objx/lv_gauge.c ****             ext->values[i] = copy_ext->values[i];
 375              		.loc 2 113 0 discriminator 3
 376 00fa 7B69     		ldr	r3, [r7, #20]
 377 00fc DA68     		ldr	r2, [r3, #12]
 378 00fe FB7F     		ldrb	r3, [r7, #31]	@ zero_extendqisi2
 379 0100 5B00     		lsls	r3, r3, #1
 380 0102 1344     		add	r3, r3, r2
 381 0104 FA68     		ldr	r2, [r7, #12]
 382 0106 D168     		ldr	r1, [r2, #12]
 383 0108 FA7F     		ldrb	r2, [r7, #31]	@ zero_extendqisi2
 384 010a 5200     		lsls	r2, r2, #1
 385 010c 0A44     		add	r2, r2, r1
 386 010e B2F90020 		ldrsh	r2, [r2]
 387 0112 1A80     		strh	r2, [r3]	@ movhi
 112:..\..\..\lvgl\version_6.1.2\lvgl\src\lv_objx/lv_gauge.c ****             ext->values[i] = copy_ext->values[i];
 388              		.loc 2 112 0 discriminator 3
 389 0114 FB7F     		ldrb	r3, [r7, #31]	@ zero_extendqisi2
 390 0116 0133     		adds	r3, r3, #1
 391 0118 FB77     		strb	r3, [r7, #31]
 392              	.L19:
 112:..\..\..\lvgl\version_6.1.2\lvgl\src\lv_objx/lv_gauge.c ****             ext->values[i] = copy_ext->values[i];
 393              		.loc 2 112 0 is_stmt 0 discriminator 1
 394 011a 7B69     		ldr	r3, [r7, #20]
 395 011c 1B7D     		ldrb	r3, [r3, #20]	@ zero_extendqisi2
 396 011e FA7F     		ldrb	r2, [r7, #31]	@ zero_extendqisi2
 397 0120 9A42     		cmp	r2, r3
 398 0122 EAD3     		bcc	.L20
 114:..\..\..\lvgl\version_6.1.2\lvgl\src\lv_objx/lv_gauge.c ****         }
 115:..\..\..\lvgl\version_6.1.2\lvgl\src\lv_objx/lv_gauge.c ****         ext->label_count = copy_ext->label_count;
 399              		.loc 2 115 0 is_stmt 1
 400 0124 FB68     		ldr	r3, [r7, #12]
 401 0126 5A7D     		ldrb	r2, [r3, #21]	@ zero_extendqisi2
 402 0128 7B69     		ldr	r3, [r7, #20]
 403 012a 5A75     		strb	r2, [r3, #21]
ARM GAS  C:\Users\tmj32\AppData\Local\Temp\ccmyxrAJ.s 			page 14


 116:..\..\..\lvgl\version_6.1.2\lvgl\src\lv_objx/lv_gauge.c ****         /*Refresh the style with new signal function*/
 117:..\..\..\lvgl\version_6.1.2\lvgl\src\lv_objx/lv_gauge.c ****         lv_obj_refresh_style(new_gauge);
 404              		.loc 2 117 0
 405 012c B869     		ldr	r0, [r7, #24]
 406 012e FFF7FEFF 		bl	lv_obj_refresh_style
 407              	.L18:
 408              	.LBE3:
 118:..\..\..\lvgl\version_6.1.2\lvgl\src\lv_objx/lv_gauge.c ****     }
 119:..\..\..\lvgl\version_6.1.2\lvgl\src\lv_objx/lv_gauge.c **** 
 120:..\..\..\lvgl\version_6.1.2\lvgl\src\lv_objx/lv_gauge.c ****     LV_LOG_INFO("gauge created");
 121:..\..\..\lvgl\version_6.1.2\lvgl\src\lv_objx/lv_gauge.c **** 
 122:..\..\..\lvgl\version_6.1.2\lvgl\src\lv_objx/lv_gauge.c ****     return new_gauge;
 409              		.loc 2 122 0
 410 0132 BB69     		ldr	r3, [r7, #24]
 411              	.L11:
 123:..\..\..\lvgl\version_6.1.2\lvgl\src\lv_objx/lv_gauge.c **** }
 412              		.loc 2 123 0
 413 0134 1846     		mov	r0, r3
 414 0136 2037     		adds	r7, r7, #32
 415              		.cfi_def_cfa_offset 8
 416 0138 BD46     		mov	sp, r7
 417              		.cfi_def_cfa_register 13
 418              		@ sp needed
 419 013a 80BD     		pop	{r7, pc}
 420              	.L22:
 421              		.align	2
 422              	.L21:
 423 013c 04000000 		.word	ancestor_signal
 424 0140 00000000 		.word	ancestor_design
 425 0144 00000000 		.word	lv_gauge_signal
 426 0148 00000000 		.word	lv_gauge_design
 427 014c 00000000 		.word	lv_style_pretty_color
 428              		.cfi_endproc
 429              	.LFE47:
 430              		.size	lv_gauge_create, .-lv_gauge_create
 431              		.section	.text.lv_gauge_set_needle_count,"ax",%progbits
 432              		.align	2
 433              		.global	lv_gauge_set_needle_count
 434              		.thumb
 435              		.thumb_func
 436              		.type	lv_gauge_set_needle_count, %function
 437              	lv_gauge_set_needle_count:
 438              	.LFB48:
 124:..\..\..\lvgl\version_6.1.2\lvgl\src\lv_objx/lv_gauge.c **** 
 125:..\..\..\lvgl\version_6.1.2\lvgl\src\lv_objx/lv_gauge.c **** /*=====================
 126:..\..\..\lvgl\version_6.1.2\lvgl\src\lv_objx/lv_gauge.c ****  * Setter functions
 127:..\..\..\lvgl\version_6.1.2\lvgl\src\lv_objx/lv_gauge.c ****  *====================*/
 128:..\..\..\lvgl\version_6.1.2\lvgl\src\lv_objx/lv_gauge.c **** 
 129:..\..\..\lvgl\version_6.1.2\lvgl\src\lv_objx/lv_gauge.c **** /**
 130:..\..\..\lvgl\version_6.1.2\lvgl\src\lv_objx/lv_gauge.c ****  * Set the number of needles
 131:..\..\..\lvgl\version_6.1.2\lvgl\src\lv_objx/lv_gauge.c ****  * @param gauge pointer to gauge object
 132:..\..\..\lvgl\version_6.1.2\lvgl\src\lv_objx/lv_gauge.c ****  * @param needle_cnt new count of needles
 133:..\..\..\lvgl\version_6.1.2\lvgl\src\lv_objx/lv_gauge.c ****  * @param colors an array of colors for needles (with 'num' elements)
 134:..\..\..\lvgl\version_6.1.2\lvgl\src\lv_objx/lv_gauge.c ****  */
 135:..\..\..\lvgl\version_6.1.2\lvgl\src\lv_objx/lv_gauge.c **** void lv_gauge_set_needle_count(lv_obj_t * gauge, uint8_t needle_cnt, const lv_color_t colors[])
 136:..\..\..\lvgl\version_6.1.2\lvgl\src\lv_objx/lv_gauge.c **** {
 439              		.loc 2 136 0
ARM GAS  C:\Users\tmj32\AppData\Local\Temp\ccmyxrAJ.s 			page 15


 440              		.cfi_startproc
 441              		@ args = 0, pretend = 0, frame = 32
 442              		@ frame_needed = 1, uses_anonymous_args = 0
 443 0000 80B5     		push	{r7, lr}
 444              		.cfi_def_cfa_offset 8
 445              		.cfi_offset 7, -8
 446              		.cfi_offset 14, -4
 447 0002 88B0     		sub	sp, sp, #32
 448              		.cfi_def_cfa_offset 40
 449 0004 00AF     		add	r7, sp, #0
 450              		.cfi_def_cfa_register 7
 451 0006 F860     		str	r0, [r7, #12]
 452 0008 0B46     		mov	r3, r1
 453 000a 7A60     		str	r2, [r7, #4]
 454 000c FB72     		strb	r3, [r7, #11]
 137:..\..\..\lvgl\version_6.1.2\lvgl\src\lv_objx/lv_gauge.c ****     LV_ASSERT_OBJ(gauge, LV_OBJX_NAME);
 138:..\..\..\lvgl\version_6.1.2\lvgl\src\lv_objx/lv_gauge.c **** 
 139:..\..\..\lvgl\version_6.1.2\lvgl\src\lv_objx/lv_gauge.c ****     lv_gauge_ext_t * ext = lv_obj_get_ext_attr(gauge);
 455              		.loc 2 139 0
 456 000e F868     		ldr	r0, [r7, #12]
 457 0010 FFF7FEFF 		bl	lv_obj_get_ext_attr
 458 0014 B861     		str	r0, [r7, #24]
 140:..\..\..\lvgl\version_6.1.2\lvgl\src\lv_objx/lv_gauge.c **** 
 141:..\..\..\lvgl\version_6.1.2\lvgl\src\lv_objx/lv_gauge.c ****     if(ext->needle_count != needle_cnt) {
 459              		.loc 2 141 0
 460 0016 BB69     		ldr	r3, [r7, #24]
 461 0018 1B7D     		ldrb	r3, [r3, #20]	@ zero_extendqisi2
 462 001a FA7A     		ldrb	r2, [r7, #11]	@ zero_extendqisi2
 463 001c 9A42     		cmp	r2, r3
 464 001e 34D0     		beq	.L24
 465              	.LBB4:
 142:..\..\..\lvgl\version_6.1.2\lvgl\src\lv_objx/lv_gauge.c ****         if(ext->values != NULL) {
 466              		.loc 2 142 0
 467 0020 BB69     		ldr	r3, [r7, #24]
 468 0022 DB68     		ldr	r3, [r3, #12]
 469 0024 002B     		cmp	r3, #0
 470 0026 07D0     		beq	.L25
 143:..\..\..\lvgl\version_6.1.2\lvgl\src\lv_objx/lv_gauge.c ****             lv_mem_free(ext->values);
 471              		.loc 2 143 0
 472 0028 BB69     		ldr	r3, [r7, #24]
 473 002a DB68     		ldr	r3, [r3, #12]
 474 002c 1846     		mov	r0, r3
 475 002e FFF7FEFF 		bl	lv_mem_free
 144:..\..\..\lvgl\version_6.1.2\lvgl\src\lv_objx/lv_gauge.c ****             ext->values = NULL;
 476              		.loc 2 144 0
 477 0032 BB69     		ldr	r3, [r7, #24]
 478 0034 0022     		movs	r2, #0
 479 0036 DA60     		str	r2, [r3, #12]
 480              	.L25:
 145:..\..\..\lvgl\version_6.1.2\lvgl\src\lv_objx/lv_gauge.c ****         }
 146:..\..\..\lvgl\version_6.1.2\lvgl\src\lv_objx/lv_gauge.c **** 
 147:..\..\..\lvgl\version_6.1.2\lvgl\src\lv_objx/lv_gauge.c ****         ext->values = lv_mem_realloc(ext->values, needle_cnt * sizeof(int16_t));
 481              		.loc 2 147 0
 482 0038 BB69     		ldr	r3, [r7, #24]
 483 003a DA68     		ldr	r2, [r3, #12]
 484 003c FB7A     		ldrb	r3, [r7, #11]	@ zero_extendqisi2
 485 003e 5B00     		lsls	r3, r3, #1
ARM GAS  C:\Users\tmj32\AppData\Local\Temp\ccmyxrAJ.s 			page 16


 486 0040 1946     		mov	r1, r3
 487 0042 1046     		mov	r0, r2
 488 0044 FFF7FEFF 		bl	lv_mem_realloc
 489 0048 0246     		mov	r2, r0
 490 004a BB69     		ldr	r3, [r7, #24]
 491 004c DA60     		str	r2, [r3, #12]
 148:..\..\..\lvgl\version_6.1.2\lvgl\src\lv_objx/lv_gauge.c ****         LV_ASSERT_MEM(ext->values);
 149:..\..\..\lvgl\version_6.1.2\lvgl\src\lv_objx/lv_gauge.c ****         if(ext->values == NULL) return;
 492              		.loc 2 149 0
 493 004e BB69     		ldr	r3, [r7, #24]
 494 0050 DB68     		ldr	r3, [r3, #12]
 495 0052 002B     		cmp	r3, #0
 496 0054 20D0     		beq	.L30
 150:..\..\..\lvgl\version_6.1.2\lvgl\src\lv_objx/lv_gauge.c **** 
 151:..\..\..\lvgl\version_6.1.2\lvgl\src\lv_objx/lv_gauge.c ****         int16_t min = lv_gauge_get_min_value(gauge);
 497              		.loc 2 151 0
 498 0056 F868     		ldr	r0, [r7, #12]
 499 0058 FFF7FEFF 		bl	lv_gauge_get_min_value
 500 005c 0346     		mov	r3, r0
 501 005e FB82     		strh	r3, [r7, #22]	@ movhi
 152:..\..\..\lvgl\version_6.1.2\lvgl\src\lv_objx/lv_gauge.c ****         uint8_t n;
 153:..\..\..\lvgl\version_6.1.2\lvgl\src\lv_objx/lv_gauge.c ****         for(n = ext->needle_count; n < needle_cnt; n++) {
 502              		.loc 2 153 0
 503 0060 BB69     		ldr	r3, [r7, #24]
 504 0062 1B7D     		ldrb	r3, [r3, #20]
 505 0064 FB77     		strb	r3, [r7, #31]
 506 0066 09E0     		b	.L28
 507              	.L29:
 154:..\..\..\lvgl\version_6.1.2\lvgl\src\lv_objx/lv_gauge.c ****             ext->values[n] = min;
 508              		.loc 2 154 0 discriminator 3
 509 0068 BB69     		ldr	r3, [r7, #24]
 510 006a DA68     		ldr	r2, [r3, #12]
 511 006c FB7F     		ldrb	r3, [r7, #31]	@ zero_extendqisi2
 512 006e 5B00     		lsls	r3, r3, #1
 513 0070 1344     		add	r3, r3, r2
 514 0072 FA8A     		ldrh	r2, [r7, #22]	@ movhi
 515 0074 1A80     		strh	r2, [r3]	@ movhi
 153:..\..\..\lvgl\version_6.1.2\lvgl\src\lv_objx/lv_gauge.c ****             ext->values[n] = min;
 516              		.loc 2 153 0 discriminator 3
 517 0076 FB7F     		ldrb	r3, [r7, #31]	@ zero_extendqisi2
 518 0078 0133     		adds	r3, r3, #1
 519 007a FB77     		strb	r3, [r7, #31]
 520              	.L28:
 153:..\..\..\lvgl\version_6.1.2\lvgl\src\lv_objx/lv_gauge.c ****             ext->values[n] = min;
 521              		.loc 2 153 0 is_stmt 0 discriminator 1
 522 007c FA7F     		ldrb	r2, [r7, #31]	@ zero_extendqisi2
 523 007e FB7A     		ldrb	r3, [r7, #11]	@ zero_extendqisi2
 524 0080 9A42     		cmp	r2, r3
 525 0082 F1D3     		bcc	.L29
 155:..\..\..\lvgl\version_6.1.2\lvgl\src\lv_objx/lv_gauge.c ****         }
 156:..\..\..\lvgl\version_6.1.2\lvgl\src\lv_objx/lv_gauge.c **** 
 157:..\..\..\lvgl\version_6.1.2\lvgl\src\lv_objx/lv_gauge.c ****         ext->needle_count = needle_cnt;
 526              		.loc 2 157 0 is_stmt 1
 527 0084 BB69     		ldr	r3, [r7, #24]
 528 0086 FA7A     		ldrb	r2, [r7, #11]
 529 0088 1A75     		strb	r2, [r3, #20]
 530              	.L24:
ARM GAS  C:\Users\tmj32\AppData\Local\Temp\ccmyxrAJ.s 			page 17


 531              	.LBE4:
 158:..\..\..\lvgl\version_6.1.2\lvgl\src\lv_objx/lv_gauge.c ****     }
 159:..\..\..\lvgl\version_6.1.2\lvgl\src\lv_objx/lv_gauge.c **** 
 160:..\..\..\lvgl\version_6.1.2\lvgl\src\lv_objx/lv_gauge.c ****     ext->needle_colors = colors;
 532              		.loc 2 160 0
 533 008a BB69     		ldr	r3, [r7, #24]
 534 008c 7A68     		ldr	r2, [r7, #4]
 535 008e 1A61     		str	r2, [r3, #16]
 161:..\..\..\lvgl\version_6.1.2\lvgl\src\lv_objx/lv_gauge.c ****     lv_obj_invalidate(gauge);
 536              		.loc 2 161 0
 537 0090 F868     		ldr	r0, [r7, #12]
 538 0092 FFF7FEFF 		bl	lv_obj_invalidate
 539 0096 00E0     		b	.L23
 540              	.L30:
 541              	.LBB5:
 149:..\..\..\lvgl\version_6.1.2\lvgl\src\lv_objx/lv_gauge.c **** 
 542              		.loc 2 149 0
 543 0098 00BF     		nop
 544              	.L23:
 545              	.LBE5:
 162:..\..\..\lvgl\version_6.1.2\lvgl\src\lv_objx/lv_gauge.c **** }
 546              		.loc 2 162 0
 547 009a 2037     		adds	r7, r7, #32
 548              		.cfi_def_cfa_offset 8
 549 009c BD46     		mov	sp, r7
 550              		.cfi_def_cfa_register 13
 551              		@ sp needed
 552 009e 80BD     		pop	{r7, pc}
 553              		.cfi_endproc
 554              	.LFE48:
 555              		.size	lv_gauge_set_needle_count, .-lv_gauge_set_needle_count
 556              		.section	.text.lv_gauge_set_value,"ax",%progbits
 557              		.align	2
 558              		.global	lv_gauge_set_value
 559              		.thumb
 560              		.thumb_func
 561              		.type	lv_gauge_set_value, %function
 562              	lv_gauge_set_value:
 563              	.LFB49:
 163:..\..\..\lvgl\version_6.1.2\lvgl\src\lv_objx/lv_gauge.c **** 
 164:..\..\..\lvgl\version_6.1.2\lvgl\src\lv_objx/lv_gauge.c **** /**
 165:..\..\..\lvgl\version_6.1.2\lvgl\src\lv_objx/lv_gauge.c ****  * Set the value of a needle
 166:..\..\..\lvgl\version_6.1.2\lvgl\src\lv_objx/lv_gauge.c ****  * @param gauge pointer to a gauge
 167:..\..\..\lvgl\version_6.1.2\lvgl\src\lv_objx/lv_gauge.c ****  * @param needle_id the id of the needle
 168:..\..\..\lvgl\version_6.1.2\lvgl\src\lv_objx/lv_gauge.c ****  * @param value the new value
 169:..\..\..\lvgl\version_6.1.2\lvgl\src\lv_objx/lv_gauge.c ****  */
 170:..\..\..\lvgl\version_6.1.2\lvgl\src\lv_objx/lv_gauge.c **** void lv_gauge_set_value(lv_obj_t * gauge, uint8_t needle_id, int16_t value)
 171:..\..\..\lvgl\version_6.1.2\lvgl\src\lv_objx/lv_gauge.c **** {
 564              		.loc 2 171 0
 565              		.cfi_startproc
 566              		@ args = 0, pretend = 0, frame = 16
 567              		@ frame_needed = 1, uses_anonymous_args = 0
 568 0000 80B5     		push	{r7, lr}
 569              		.cfi_def_cfa_offset 8
 570              		.cfi_offset 7, -8
 571              		.cfi_offset 14, -4
 572 0002 84B0     		sub	sp, sp, #16
ARM GAS  C:\Users\tmj32\AppData\Local\Temp\ccmyxrAJ.s 			page 18


 573              		.cfi_def_cfa_offset 24
 574 0004 00AF     		add	r7, sp, #0
 575              		.cfi_def_cfa_register 7
 576 0006 7860     		str	r0, [r7, #4]
 577 0008 0B46     		mov	r3, r1
 578 000a FB70     		strb	r3, [r7, #3]
 579 000c 1346     		mov	r3, r2	@ movhi
 580 000e 3B80     		strh	r3, [r7]	@ movhi
 172:..\..\..\lvgl\version_6.1.2\lvgl\src\lv_objx/lv_gauge.c ****     LV_ASSERT_OBJ(gauge, LV_OBJX_NAME);
 173:..\..\..\lvgl\version_6.1.2\lvgl\src\lv_objx/lv_gauge.c **** 
 174:..\..\..\lvgl\version_6.1.2\lvgl\src\lv_objx/lv_gauge.c ****     lv_gauge_ext_t * ext = lv_obj_get_ext_attr(gauge);
 581              		.loc 2 174 0
 582 0010 7868     		ldr	r0, [r7, #4]
 583 0012 FFF7FEFF 		bl	lv_obj_get_ext_attr
 584 0016 F860     		str	r0, [r7, #12]
 175:..\..\..\lvgl\version_6.1.2\lvgl\src\lv_objx/lv_gauge.c **** 
 176:..\..\..\lvgl\version_6.1.2\lvgl\src\lv_objx/lv_gauge.c ****     if(needle_id >= ext->needle_count) return;
 585              		.loc 2 176 0
 586 0018 FB68     		ldr	r3, [r7, #12]
 587 001a 1B7D     		ldrb	r3, [r3, #20]	@ zero_extendqisi2
 588 001c FA78     		ldrb	r2, [r7, #3]	@ zero_extendqisi2
 589 001e 9A42     		cmp	r2, r3
 590 0020 30D2     		bcs	.L37
 177:..\..\..\lvgl\version_6.1.2\lvgl\src\lv_objx/lv_gauge.c ****     if(ext->values[needle_id] == value) return;
 591              		.loc 2 177 0
 592 0022 FB68     		ldr	r3, [r7, #12]
 593 0024 DA68     		ldr	r2, [r3, #12]
 594 0026 FB78     		ldrb	r3, [r7, #3]	@ zero_extendqisi2
 595 0028 5B00     		lsls	r3, r3, #1
 596 002a 1344     		add	r3, r3, r2
 597 002c B3F90030 		ldrsh	r3, [r3]
 598 0030 B7F90020 		ldrsh	r2, [r7]
 599 0034 9A42     		cmp	r2, r3
 600 0036 27D0     		beq	.L38
 178:..\..\..\lvgl\version_6.1.2\lvgl\src\lv_objx/lv_gauge.c **** 
 179:..\..\..\lvgl\version_6.1.2\lvgl\src\lv_objx/lv_gauge.c ****     int16_t min = lv_gauge_get_min_value(gauge);
 601              		.loc 2 179 0
 602 0038 7868     		ldr	r0, [r7, #4]
 603 003a FFF7FEFF 		bl	lv_gauge_get_min_value
 604 003e 0346     		mov	r3, r0
 605 0040 7B81     		strh	r3, [r7, #10]	@ movhi
 180:..\..\..\lvgl\version_6.1.2\lvgl\src\lv_objx/lv_gauge.c ****     int16_t max = lv_gauge_get_max_value(gauge);
 606              		.loc 2 180 0
 607 0042 7868     		ldr	r0, [r7, #4]
 608 0044 FFF7FEFF 		bl	lv_gauge_get_max_value
 609 0048 0346     		mov	r3, r0
 610 004a 3B81     		strh	r3, [r7, #8]	@ movhi
 181:..\..\..\lvgl\version_6.1.2\lvgl\src\lv_objx/lv_gauge.c **** 
 182:..\..\..\lvgl\version_6.1.2\lvgl\src\lv_objx/lv_gauge.c ****     if(value > max)
 611              		.loc 2 182 0
 612 004c B7F90020 		ldrsh	r2, [r7]
 613 0050 B7F90830 		ldrsh	r3, [r7, #8]
 614 0054 9A42     		cmp	r2, r3
 615 0056 02DD     		ble	.L35
 183:..\..\..\lvgl\version_6.1.2\lvgl\src\lv_objx/lv_gauge.c ****         value = max;
 616              		.loc 2 183 0
 617 0058 3B89     		ldrh	r3, [r7, #8]	@ movhi
ARM GAS  C:\Users\tmj32\AppData\Local\Temp\ccmyxrAJ.s 			page 19


 618 005a 3B80     		strh	r3, [r7]	@ movhi
 619 005c 07E0     		b	.L36
 620              	.L35:
 184:..\..\..\lvgl\version_6.1.2\lvgl\src\lv_objx/lv_gauge.c ****     else if(value < min)
 621              		.loc 2 184 0
 622 005e B7F90020 		ldrsh	r2, [r7]
 623 0062 B7F90A30 		ldrsh	r3, [r7, #10]
 624 0066 9A42     		cmp	r2, r3
 625 0068 01DA     		bge	.L36
 185:..\..\..\lvgl\version_6.1.2\lvgl\src\lv_objx/lv_gauge.c ****         value = min;
 626              		.loc 2 185 0
 627 006a 7B89     		ldrh	r3, [r7, #10]	@ movhi
 628 006c 3B80     		strh	r3, [r7]	@ movhi
 629              	.L36:
 186:..\..\..\lvgl\version_6.1.2\lvgl\src\lv_objx/lv_gauge.c **** 
 187:..\..\..\lvgl\version_6.1.2\lvgl\src\lv_objx/lv_gauge.c ****     ext->values[needle_id] = value;
 630              		.loc 2 187 0
 631 006e FB68     		ldr	r3, [r7, #12]
 632 0070 DA68     		ldr	r2, [r3, #12]
 633 0072 FB78     		ldrb	r3, [r7, #3]	@ zero_extendqisi2
 634 0074 5B00     		lsls	r3, r3, #1
 635 0076 1344     		add	r3, r3, r2
 636 0078 3A88     		ldrh	r2, [r7]	@ movhi
 637 007a 1A80     		strh	r2, [r3]	@ movhi
 188:..\..\..\lvgl\version_6.1.2\lvgl\src\lv_objx/lv_gauge.c **** 
 189:..\..\..\lvgl\version_6.1.2\lvgl\src\lv_objx/lv_gauge.c ****     lv_obj_invalidate(gauge);
 638              		.loc 2 189 0
 639 007c 7868     		ldr	r0, [r7, #4]
 640 007e FFF7FEFF 		bl	lv_obj_invalidate
 641 0082 02E0     		b	.L31
 642              	.L37:
 176:..\..\..\lvgl\version_6.1.2\lvgl\src\lv_objx/lv_gauge.c ****     if(ext->values[needle_id] == value) return;
 643              		.loc 2 176 0
 644 0084 00BF     		nop
 645 0086 00E0     		b	.L31
 646              	.L38:
 177:..\..\..\lvgl\version_6.1.2\lvgl\src\lv_objx/lv_gauge.c **** 
 647              		.loc 2 177 0
 648 0088 00BF     		nop
 649              	.L31:
 190:..\..\..\lvgl\version_6.1.2\lvgl\src\lv_objx/lv_gauge.c **** }
 650              		.loc 2 190 0
 651 008a 1037     		adds	r7, r7, #16
 652              		.cfi_def_cfa_offset 8
 653 008c BD46     		mov	sp, r7
 654              		.cfi_def_cfa_register 13
 655              		@ sp needed
 656 008e 80BD     		pop	{r7, pc}
 657              		.cfi_endproc
 658              	.LFE49:
 659              		.size	lv_gauge_set_value, .-lv_gauge_set_value
 660              		.section	.text.lv_gauge_set_scale,"ax",%progbits
 661              		.align	2
 662              		.global	lv_gauge_set_scale
 663              		.thumb
 664              		.thumb_func
 665              		.type	lv_gauge_set_scale, %function
ARM GAS  C:\Users\tmj32\AppData\Local\Temp\ccmyxrAJ.s 			page 20


 666              	lv_gauge_set_scale:
 667              	.LFB50:
 191:..\..\..\lvgl\version_6.1.2\lvgl\src\lv_objx/lv_gauge.c **** 
 192:..\..\..\lvgl\version_6.1.2\lvgl\src\lv_objx/lv_gauge.c **** /**
 193:..\..\..\lvgl\version_6.1.2\lvgl\src\lv_objx/lv_gauge.c ****  * Set the scale settings of a gauge
 194:..\..\..\lvgl\version_6.1.2\lvgl\src\lv_objx/lv_gauge.c ****  * @param gauge pointer to a gauge object
 195:..\..\..\lvgl\version_6.1.2\lvgl\src\lv_objx/lv_gauge.c ****  * @param angle angle of the scale (0..360)
 196:..\..\..\lvgl\version_6.1.2\lvgl\src\lv_objx/lv_gauge.c ****  * @param line_cnt count of scale lines.
 197:..\..\..\lvgl\version_6.1.2\lvgl\src\lv_objx/lv_gauge.c ****  * The get a given "subdivision" lines between label, `line_cnt` = (sub_div + 1) * (label_cnt - 1) 
 198:..\..\..\lvgl\version_6.1.2\lvgl\src\lv_objx/lv_gauge.c ****  * 1
 199:..\..\..\lvgl\version_6.1.2\lvgl\src\lv_objx/lv_gauge.c ****  * @param label_cnt count of scale labels.
 200:..\..\..\lvgl\version_6.1.2\lvgl\src\lv_objx/lv_gauge.c ****  */
 201:..\..\..\lvgl\version_6.1.2\lvgl\src\lv_objx/lv_gauge.c **** void lv_gauge_set_scale(lv_obj_t * gauge, uint16_t angle, uint8_t line_cnt, uint8_t label_cnt)
 202:..\..\..\lvgl\version_6.1.2\lvgl\src\lv_objx/lv_gauge.c **** {
 668              		.loc 2 202 0
 669              		.cfi_startproc
 670              		@ args = 0, pretend = 0, frame = 16
 671              		@ frame_needed = 1, uses_anonymous_args = 0
 672 0000 80B5     		push	{r7, lr}
 673              		.cfi_def_cfa_offset 8
 674              		.cfi_offset 7, -8
 675              		.cfi_offset 14, -4
 676 0002 84B0     		sub	sp, sp, #16
 677              		.cfi_def_cfa_offset 24
 678 0004 00AF     		add	r7, sp, #0
 679              		.cfi_def_cfa_register 7
 680 0006 7860     		str	r0, [r7, #4]
 681 0008 0846     		mov	r0, r1
 682 000a 1146     		mov	r1, r2
 683 000c 1A46     		mov	r2, r3
 684 000e 0346     		mov	r3, r0	@ movhi
 685 0010 7B80     		strh	r3, [r7, #2]	@ movhi
 686 0012 0B46     		mov	r3, r1
 687 0014 7B70     		strb	r3, [r7, #1]
 688 0016 1346     		mov	r3, r2
 689 0018 3B70     		strb	r3, [r7]
 203:..\..\..\lvgl\version_6.1.2\lvgl\src\lv_objx/lv_gauge.c ****     LV_ASSERT_OBJ(gauge, LV_OBJX_NAME);
 204:..\..\..\lvgl\version_6.1.2\lvgl\src\lv_objx/lv_gauge.c **** 
 205:..\..\..\lvgl\version_6.1.2\lvgl\src\lv_objx/lv_gauge.c ****     lv_lmeter_set_scale(gauge, angle, line_cnt);
 690              		.loc 2 205 0
 691 001a 7B78     		ldrb	r3, [r7, #1]	@ zero_extendqisi2
 692 001c 9AB2     		uxth	r2, r3
 693 001e 7B88     		ldrh	r3, [r7, #2]
 694 0020 1946     		mov	r1, r3
 695 0022 7868     		ldr	r0, [r7, #4]
 696 0024 FFF7FEFF 		bl	lv_lmeter_set_scale
 206:..\..\..\lvgl\version_6.1.2\lvgl\src\lv_objx/lv_gauge.c **** 
 207:..\..\..\lvgl\version_6.1.2\lvgl\src\lv_objx/lv_gauge.c ****     lv_gauge_ext_t * ext = lv_obj_get_ext_attr(gauge);
 697              		.loc 2 207 0
 698 0028 7868     		ldr	r0, [r7, #4]
 699 002a FFF7FEFF 		bl	lv_obj_get_ext_attr
 700 002e F860     		str	r0, [r7, #12]
 208:..\..\..\lvgl\version_6.1.2\lvgl\src\lv_objx/lv_gauge.c ****     ext->label_count     = label_cnt;
 701              		.loc 2 208 0
 702 0030 FB68     		ldr	r3, [r7, #12]
 703 0032 3A78     		ldrb	r2, [r7]
 704 0034 5A75     		strb	r2, [r3, #21]
ARM GAS  C:\Users\tmj32\AppData\Local\Temp\ccmyxrAJ.s 			page 21


 209:..\..\..\lvgl\version_6.1.2\lvgl\src\lv_objx/lv_gauge.c ****     lv_obj_invalidate(gauge);
 705              		.loc 2 209 0
 706 0036 7868     		ldr	r0, [r7, #4]
 707 0038 FFF7FEFF 		bl	lv_obj_invalidate
 210:..\..\..\lvgl\version_6.1.2\lvgl\src\lv_objx/lv_gauge.c **** }
 708              		.loc 2 210 0
 709 003c 00BF     		nop
 710 003e 1037     		adds	r7, r7, #16
 711              		.cfi_def_cfa_offset 8
 712 0040 BD46     		mov	sp, r7
 713              		.cfi_def_cfa_register 13
 714              		@ sp needed
 715 0042 80BD     		pop	{r7, pc}
 716              		.cfi_endproc
 717              	.LFE50:
 718              		.size	lv_gauge_set_scale, .-lv_gauge_set_scale
 719              		.section	.text.lv_gauge_get_value,"ax",%progbits
 720              		.align	2
 721              		.global	lv_gauge_get_value
 722              		.thumb
 723              		.thumb_func
 724              		.type	lv_gauge_get_value, %function
 725              	lv_gauge_get_value:
 726              	.LFB51:
 211:..\..\..\lvgl\version_6.1.2\lvgl\src\lv_objx/lv_gauge.c **** 
 212:..\..\..\lvgl\version_6.1.2\lvgl\src\lv_objx/lv_gauge.c **** /*=====================
 213:..\..\..\lvgl\version_6.1.2\lvgl\src\lv_objx/lv_gauge.c ****  * Getter functions
 214:..\..\..\lvgl\version_6.1.2\lvgl\src\lv_objx/lv_gauge.c ****  *====================*/
 215:..\..\..\lvgl\version_6.1.2\lvgl\src\lv_objx/lv_gauge.c **** 
 216:..\..\..\lvgl\version_6.1.2\lvgl\src\lv_objx/lv_gauge.c **** /**
 217:..\..\..\lvgl\version_6.1.2\lvgl\src\lv_objx/lv_gauge.c ****  * Get the value of a needle
 218:..\..\..\lvgl\version_6.1.2\lvgl\src\lv_objx/lv_gauge.c ****  * @param gauge pointer to gauge object
 219:..\..\..\lvgl\version_6.1.2\lvgl\src\lv_objx/lv_gauge.c ****  * @param needle the id of the needle
 220:..\..\..\lvgl\version_6.1.2\lvgl\src\lv_objx/lv_gauge.c ****  * @return the value of the needle [min,max]
 221:..\..\..\lvgl\version_6.1.2\lvgl\src\lv_objx/lv_gauge.c ****  */
 222:..\..\..\lvgl\version_6.1.2\lvgl\src\lv_objx/lv_gauge.c **** int16_t lv_gauge_get_value(const lv_obj_t * gauge, uint8_t needle)
 223:..\..\..\lvgl\version_6.1.2\lvgl\src\lv_objx/lv_gauge.c **** {
 727              		.loc 2 223 0
 728              		.cfi_startproc
 729              		@ args = 0, pretend = 0, frame = 16
 730              		@ frame_needed = 1, uses_anonymous_args = 0
 731 0000 80B5     		push	{r7, lr}
 732              		.cfi_def_cfa_offset 8
 733              		.cfi_offset 7, -8
 734              		.cfi_offset 14, -4
 735 0002 84B0     		sub	sp, sp, #16
 736              		.cfi_def_cfa_offset 24
 737 0004 00AF     		add	r7, sp, #0
 738              		.cfi_def_cfa_register 7
 739 0006 7860     		str	r0, [r7, #4]
 740 0008 0B46     		mov	r3, r1
 741 000a FB70     		strb	r3, [r7, #3]
 224:..\..\..\lvgl\version_6.1.2\lvgl\src\lv_objx/lv_gauge.c ****     LV_ASSERT_OBJ(gauge, LV_OBJX_NAME);
 225:..\..\..\lvgl\version_6.1.2\lvgl\src\lv_objx/lv_gauge.c **** 
 226:..\..\..\lvgl\version_6.1.2\lvgl\src\lv_objx/lv_gauge.c ****     lv_gauge_ext_t * ext = lv_obj_get_ext_attr(gauge);
 742              		.loc 2 226 0
 743 000c 7868     		ldr	r0, [r7, #4]
ARM GAS  C:\Users\tmj32\AppData\Local\Temp\ccmyxrAJ.s 			page 22


 744 000e FFF7FEFF 		bl	lv_obj_get_ext_attr
 745 0012 F860     		str	r0, [r7, #12]
 227:..\..\..\lvgl\version_6.1.2\lvgl\src\lv_objx/lv_gauge.c ****     int16_t min          = lv_gauge_get_min_value(gauge);
 746              		.loc 2 227 0
 747 0014 7868     		ldr	r0, [r7, #4]
 748 0016 FFF7FEFF 		bl	lv_gauge_get_min_value
 749 001a 0346     		mov	r3, r0
 750 001c 7B81     		strh	r3, [r7, #10]	@ movhi
 228:..\..\..\lvgl\version_6.1.2\lvgl\src\lv_objx/lv_gauge.c **** 
 229:..\..\..\lvgl\version_6.1.2\lvgl\src\lv_objx/lv_gauge.c ****     if(needle >= ext->needle_count) return min;
 751              		.loc 2 229 0
 752 001e FB68     		ldr	r3, [r7, #12]
 753 0020 1B7D     		ldrb	r3, [r3, #20]	@ zero_extendqisi2
 754 0022 FA78     		ldrb	r2, [r7, #3]	@ zero_extendqisi2
 755 0024 9A42     		cmp	r2, r3
 756 0026 02D3     		bcc	.L41
 757              		.loc 2 229 0 is_stmt 0 discriminator 1
 758 0028 B7F90A30 		ldrsh	r3, [r7, #10]
 759 002c 06E0     		b	.L42
 760              	.L41:
 230:..\..\..\lvgl\version_6.1.2\lvgl\src\lv_objx/lv_gauge.c **** 
 231:..\..\..\lvgl\version_6.1.2\lvgl\src\lv_objx/lv_gauge.c ****     return ext->values[needle];
 761              		.loc 2 231 0 is_stmt 1
 762 002e FB68     		ldr	r3, [r7, #12]
 763 0030 DA68     		ldr	r2, [r3, #12]
 764 0032 FB78     		ldrb	r3, [r7, #3]	@ zero_extendqisi2
 765 0034 5B00     		lsls	r3, r3, #1
 766 0036 1344     		add	r3, r3, r2
 767 0038 B3F90030 		ldrsh	r3, [r3]
 768              	.L42:
 232:..\..\..\lvgl\version_6.1.2\lvgl\src\lv_objx/lv_gauge.c **** }
 769              		.loc 2 232 0
 770 003c 1846     		mov	r0, r3
 771 003e 1037     		adds	r7, r7, #16
 772              		.cfi_def_cfa_offset 8
 773 0040 BD46     		mov	sp, r7
 774              		.cfi_def_cfa_register 13
 775              		@ sp needed
 776 0042 80BD     		pop	{r7, pc}
 777              		.cfi_endproc
 778              	.LFE51:
 779              		.size	lv_gauge_get_value, .-lv_gauge_get_value
 780              		.section	.text.lv_gauge_get_needle_count,"ax",%progbits
 781              		.align	2
 782              		.global	lv_gauge_get_needle_count
 783              		.thumb
 784              		.thumb_func
 785              		.type	lv_gauge_get_needle_count, %function
 786              	lv_gauge_get_needle_count:
 787              	.LFB52:
 233:..\..\..\lvgl\version_6.1.2\lvgl\src\lv_objx/lv_gauge.c **** 
 234:..\..\..\lvgl\version_6.1.2\lvgl\src\lv_objx/lv_gauge.c **** /**
 235:..\..\..\lvgl\version_6.1.2\lvgl\src\lv_objx/lv_gauge.c ****  * Get the count of needles on a gauge
 236:..\..\..\lvgl\version_6.1.2\lvgl\src\lv_objx/lv_gauge.c ****  * @param gauge pointer to gauge
 237:..\..\..\lvgl\version_6.1.2\lvgl\src\lv_objx/lv_gauge.c ****  * @return count of needles
 238:..\..\..\lvgl\version_6.1.2\lvgl\src\lv_objx/lv_gauge.c ****  */
 239:..\..\..\lvgl\version_6.1.2\lvgl\src\lv_objx/lv_gauge.c **** uint8_t lv_gauge_get_needle_count(const lv_obj_t * gauge)
ARM GAS  C:\Users\tmj32\AppData\Local\Temp\ccmyxrAJ.s 			page 23


 240:..\..\..\lvgl\version_6.1.2\lvgl\src\lv_objx/lv_gauge.c **** {
 788              		.loc 2 240 0
 789              		.cfi_startproc
 790              		@ args = 0, pretend = 0, frame = 16
 791              		@ frame_needed = 1, uses_anonymous_args = 0
 792 0000 80B5     		push	{r7, lr}
 793              		.cfi_def_cfa_offset 8
 794              		.cfi_offset 7, -8
 795              		.cfi_offset 14, -4
 796 0002 84B0     		sub	sp, sp, #16
 797              		.cfi_def_cfa_offset 24
 798 0004 00AF     		add	r7, sp, #0
 799              		.cfi_def_cfa_register 7
 800 0006 7860     		str	r0, [r7, #4]
 241:..\..\..\lvgl\version_6.1.2\lvgl\src\lv_objx/lv_gauge.c ****     LV_ASSERT_OBJ(gauge, LV_OBJX_NAME);
 242:..\..\..\lvgl\version_6.1.2\lvgl\src\lv_objx/lv_gauge.c **** 
 243:..\..\..\lvgl\version_6.1.2\lvgl\src\lv_objx/lv_gauge.c ****     lv_gauge_ext_t * ext = lv_obj_get_ext_attr(gauge);
 801              		.loc 2 243 0
 802 0008 7868     		ldr	r0, [r7, #4]
 803 000a FFF7FEFF 		bl	lv_obj_get_ext_attr
 804 000e F860     		str	r0, [r7, #12]
 244:..\..\..\lvgl\version_6.1.2\lvgl\src\lv_objx/lv_gauge.c ****     return ext->needle_count;
 805              		.loc 2 244 0
 806 0010 FB68     		ldr	r3, [r7, #12]
 807 0012 1B7D     		ldrb	r3, [r3, #20]	@ zero_extendqisi2
 245:..\..\..\lvgl\version_6.1.2\lvgl\src\lv_objx/lv_gauge.c **** }
 808              		.loc 2 245 0
 809 0014 1846     		mov	r0, r3
 810 0016 1037     		adds	r7, r7, #16
 811              		.cfi_def_cfa_offset 8
 812 0018 BD46     		mov	sp, r7
 813              		.cfi_def_cfa_register 13
 814              		@ sp needed
 815 001a 80BD     		pop	{r7, pc}
 816              		.cfi_endproc
 817              	.LFE52:
 818              		.size	lv_gauge_get_needle_count, .-lv_gauge_get_needle_count
 819              		.section	.text.lv_gauge_get_label_count,"ax",%progbits
 820              		.align	2
 821              		.global	lv_gauge_get_label_count
 822              		.thumb
 823              		.thumb_func
 824              		.type	lv_gauge_get_label_count, %function
 825              	lv_gauge_get_label_count:
 826              	.LFB53:
 246:..\..\..\lvgl\version_6.1.2\lvgl\src\lv_objx/lv_gauge.c **** 
 247:..\..\..\lvgl\version_6.1.2\lvgl\src\lv_objx/lv_gauge.c **** /**
 248:..\..\..\lvgl\version_6.1.2\lvgl\src\lv_objx/lv_gauge.c ****  * Set the number of labels (and the thicker lines too)
 249:..\..\..\lvgl\version_6.1.2\lvgl\src\lv_objx/lv_gauge.c ****  * @param gauge pointer to a gauge object
 250:..\..\..\lvgl\version_6.1.2\lvgl\src\lv_objx/lv_gauge.c ****  * @return count of labels
 251:..\..\..\lvgl\version_6.1.2\lvgl\src\lv_objx/lv_gauge.c ****  */
 252:..\..\..\lvgl\version_6.1.2\lvgl\src\lv_objx/lv_gauge.c **** uint8_t lv_gauge_get_label_count(const lv_obj_t * gauge)
 253:..\..\..\lvgl\version_6.1.2\lvgl\src\lv_objx/lv_gauge.c **** {
 827              		.loc 2 253 0
 828              		.cfi_startproc
 829              		@ args = 0, pretend = 0, frame = 16
 830              		@ frame_needed = 1, uses_anonymous_args = 0
ARM GAS  C:\Users\tmj32\AppData\Local\Temp\ccmyxrAJ.s 			page 24


 831 0000 80B5     		push	{r7, lr}
 832              		.cfi_def_cfa_offset 8
 833              		.cfi_offset 7, -8
 834              		.cfi_offset 14, -4
 835 0002 84B0     		sub	sp, sp, #16
 836              		.cfi_def_cfa_offset 24
 837 0004 00AF     		add	r7, sp, #0
 838              		.cfi_def_cfa_register 7
 839 0006 7860     		str	r0, [r7, #4]
 254:..\..\..\lvgl\version_6.1.2\lvgl\src\lv_objx/lv_gauge.c ****     LV_ASSERT_OBJ(gauge, LV_OBJX_NAME);
 255:..\..\..\lvgl\version_6.1.2\lvgl\src\lv_objx/lv_gauge.c **** 
 256:..\..\..\lvgl\version_6.1.2\lvgl\src\lv_objx/lv_gauge.c ****     lv_gauge_ext_t * ext = lv_obj_get_ext_attr(gauge);
 840              		.loc 2 256 0
 841 0008 7868     		ldr	r0, [r7, #4]
 842 000a FFF7FEFF 		bl	lv_obj_get_ext_attr
 843 000e F860     		str	r0, [r7, #12]
 257:..\..\..\lvgl\version_6.1.2\lvgl\src\lv_objx/lv_gauge.c ****     return ext->label_count;
 844              		.loc 2 257 0
 845 0010 FB68     		ldr	r3, [r7, #12]
 846 0012 5B7D     		ldrb	r3, [r3, #21]	@ zero_extendqisi2
 258:..\..\..\lvgl\version_6.1.2\lvgl\src\lv_objx/lv_gauge.c **** }
 847              		.loc 2 258 0
 848 0014 1846     		mov	r0, r3
 849 0016 1037     		adds	r7, r7, #16
 850              		.cfi_def_cfa_offset 8
 851 0018 BD46     		mov	sp, r7
 852              		.cfi_def_cfa_register 13
 853              		@ sp needed
 854 001a 80BD     		pop	{r7, pc}
 855              		.cfi_endproc
 856              	.LFE53:
 857              		.size	lv_gauge_get_label_count, .-lv_gauge_get_label_count
 858              		.section	.text.lv_gauge_design,"ax",%progbits
 859              		.align	2
 860              		.thumb
 861              		.thumb_func
 862              		.type	lv_gauge_design, %function
 863              	lv_gauge_design:
 864              	.LFB54:
 259:..\..\..\lvgl\version_6.1.2\lvgl\src\lv_objx/lv_gauge.c **** 
 260:..\..\..\lvgl\version_6.1.2\lvgl\src\lv_objx/lv_gauge.c **** /**********************
 261:..\..\..\lvgl\version_6.1.2\lvgl\src\lv_objx/lv_gauge.c ****  *   STATIC FUNCTIONS
 262:..\..\..\lvgl\version_6.1.2\lvgl\src\lv_objx/lv_gauge.c ****  **********************/
 263:..\..\..\lvgl\version_6.1.2\lvgl\src\lv_objx/lv_gauge.c **** 
 264:..\..\..\lvgl\version_6.1.2\lvgl\src\lv_objx/lv_gauge.c **** /**
 265:..\..\..\lvgl\version_6.1.2\lvgl\src\lv_objx/lv_gauge.c ****  * Handle the drawing related tasks of the gauges
 266:..\..\..\lvgl\version_6.1.2\lvgl\src\lv_objx/lv_gauge.c ****  * @param gauge pointer to an object
 267:..\..\..\lvgl\version_6.1.2\lvgl\src\lv_objx/lv_gauge.c ****  * @param mask the object will be drawn only in this area
 268:..\..\..\lvgl\version_6.1.2\lvgl\src\lv_objx/lv_gauge.c ****  * @param mode LV_DESIGN_COVER_CHK: only check if the object fully covers the 'mask_p' area
 269:..\..\..\lvgl\version_6.1.2\lvgl\src\lv_objx/lv_gauge.c ****  *                                  (return 'true' if yes)
 270:..\..\..\lvgl\version_6.1.2\lvgl\src\lv_objx/lv_gauge.c ****  *             LV_DESIGN_DRAW: draw the object (always return 'true')
 271:..\..\..\lvgl\version_6.1.2\lvgl\src\lv_objx/lv_gauge.c ****  *             LV_DESIGN_DRAW_POST: drawing after every children are drawn
 272:..\..\..\lvgl\version_6.1.2\lvgl\src\lv_objx/lv_gauge.c ****  * @param return true/false, depends on 'mode'
 273:..\..\..\lvgl\version_6.1.2\lvgl\src\lv_objx/lv_gauge.c ****  */
 274:..\..\..\lvgl\version_6.1.2\lvgl\src\lv_objx/lv_gauge.c **** static bool lv_gauge_design(lv_obj_t * gauge, const lv_area_t * mask, lv_design_mode_t mode)
 275:..\..\..\lvgl\version_6.1.2\lvgl\src\lv_objx/lv_gauge.c **** {
 865              		.loc 2 275 0
ARM GAS  C:\Users\tmj32\AppData\Local\Temp\ccmyxrAJ.s 			page 25


 866              		.cfi_startproc
 867              		@ args = 0, pretend = 0, frame = 112
 868              		@ frame_needed = 1, uses_anonymous_args = 0
 869 0000 80B5     		push	{r7, lr}
 870              		.cfi_def_cfa_offset 8
 871              		.cfi_offset 7, -8
 872              		.cfi_offset 14, -4
 873 0002 9CB0     		sub	sp, sp, #112
 874              		.cfi_def_cfa_offset 120
 875 0004 00AF     		add	r7, sp, #0
 876              		.cfi_def_cfa_register 7
 877 0006 F860     		str	r0, [r7, #12]
 878 0008 B960     		str	r1, [r7, #8]
 879 000a 1346     		mov	r3, r2
 880 000c FB71     		strb	r3, [r7, #7]
 276:..\..\..\lvgl\version_6.1.2\lvgl\src\lv_objx/lv_gauge.c ****     /*Return false if the object is not covers the mask_p area*/
 277:..\..\..\lvgl\version_6.1.2\lvgl\src\lv_objx/lv_gauge.c ****     if(mode == LV_DESIGN_COVER_CHK) {
 881              		.loc 2 277 0
 882 000e FB79     		ldrb	r3, [r7, #7]	@ zero_extendqisi2
 883 0010 022B     		cmp	r3, #2
 884 0012 01D1     		bne	.L48
 278:..\..\..\lvgl\version_6.1.2\lvgl\src\lv_objx/lv_gauge.c ****         return false;
 885              		.loc 2 278 0
 886 0014 0023     		movs	r3, #0
 887 0016 54E0     		b	.L49
 888              	.L48:
 279:..\..\..\lvgl\version_6.1.2\lvgl\src\lv_objx/lv_gauge.c ****     }
 280:..\..\..\lvgl\version_6.1.2\lvgl\src\lv_objx/lv_gauge.c ****     /*Draw the object*/
 281:..\..\..\lvgl\version_6.1.2\lvgl\src\lv_objx/lv_gauge.c ****     else if(mode == LV_DESIGN_DRAW_MAIN) {
 889              		.loc 2 281 0
 890 0018 FB79     		ldrb	r3, [r7, #7]	@ zero_extendqisi2
 891 001a 002B     		cmp	r3, #0
 892 001c 47D1     		bne	.L50
 893              	.LBB6:
 282:..\..\..\lvgl\version_6.1.2\lvgl\src\lv_objx/lv_gauge.c **** 
 283:..\..\..\lvgl\version_6.1.2\lvgl\src\lv_objx/lv_gauge.c ****         /* Store the real pointer because of 'lv_group'
 284:..\..\..\lvgl\version_6.1.2\lvgl\src\lv_objx/lv_gauge.c ****          * If the object is in focus 'lv_obj_get_style()' will give a pointer to tmp style
 285:..\..\..\lvgl\version_6.1.2\lvgl\src\lv_objx/lv_gauge.c ****          * and to the real object style. It is important because of style change tricks below*/
 286:..\..\..\lvgl\version_6.1.2\lvgl\src\lv_objx/lv_gauge.c ****         const lv_style_t * style_ori_p = gauge->style_p;
 894              		.loc 2 286 0
 895 001e FB68     		ldr	r3, [r7, #12]
 896 0020 9B6A     		ldr	r3, [r3, #40]
 897 0022 FB66     		str	r3, [r7, #108]
 287:..\..\..\lvgl\version_6.1.2\lvgl\src\lv_objx/lv_gauge.c ****         const lv_style_t * style       = lv_obj_get_style(gauge);
 898              		.loc 2 287 0
 899 0024 F868     		ldr	r0, [r7, #12]
 900 0026 FFF7FEFF 		bl	lv_obj_get_style
 901 002a B866     		str	r0, [r7, #104]
 288:..\..\..\lvgl\version_6.1.2\lvgl\src\lv_objx/lv_gauge.c ****         lv_gauge_ext_t * ext           = lv_obj_get_ext_attr(gauge);
 902              		.loc 2 288 0
 903 002c F868     		ldr	r0, [r7, #12]
 904 002e FFF7FEFF 		bl	lv_obj_get_ext_attr
 905 0032 7866     		str	r0, [r7, #100]
 289:..\..\..\lvgl\version_6.1.2\lvgl\src\lv_objx/lv_gauge.c **** 
 290:..\..\..\lvgl\version_6.1.2\lvgl\src\lv_objx/lv_gauge.c ****         lv_gauge_draw_scale(gauge, mask);
 906              		.loc 2 290 0
 907 0034 B968     		ldr	r1, [r7, #8]
ARM GAS  C:\Users\tmj32\AppData\Local\Temp\ccmyxrAJ.s 			page 26


 908 0036 F868     		ldr	r0, [r7, #12]
 909 0038 FFF7FEFF 		bl	lv_gauge_draw_scale
 291:..\..\..\lvgl\version_6.1.2\lvgl\src\lv_objx/lv_gauge.c **** 
 292:..\..\..\lvgl\version_6.1.2\lvgl\src\lv_objx/lv_gauge.c ****         /*Draw the ancestor line meter with max value to show the rainbow like line colors*/
 293:..\..\..\lvgl\version_6.1.2\lvgl\src\lv_objx/lv_gauge.c ****         uint16_t line_cnt_tmp = ext->lmeter.line_cnt;
 910              		.loc 2 293 0
 911 003c 7B6E     		ldr	r3, [r7, #100]
 912 003e 9B88     		ldrh	r3, [r3, #4]	@ movhi
 913 0040 A7F86230 		strh	r3, [r7, #98]	@ movhi
 294:..\..\..\lvgl\version_6.1.2\lvgl\src\lv_objx/lv_gauge.c ****         ancestor_design(gauge, mask, mode); /*To draw lines*/
 914              		.loc 2 294 0
 915 0044 214B     		ldr	r3, .L52
 916 0046 1B68     		ldr	r3, [r3]
 917 0048 FA79     		ldrb	r2, [r7, #7]	@ zero_extendqisi2
 918 004a B968     		ldr	r1, [r7, #8]
 919 004c F868     		ldr	r0, [r7, #12]
 920 004e 9847     		blx	r3
 295:..\..\..\lvgl\version_6.1.2\lvgl\src\lv_objx/lv_gauge.c **** 
 296:..\..\..\lvgl\version_6.1.2\lvgl\src\lv_objx/lv_gauge.c ****         /*Temporally modify the line meter to draw longer lines where labels are*/
 297:..\..\..\lvgl\version_6.1.2\lvgl\src\lv_objx/lv_gauge.c ****         lv_style_t style_tmp;
 298:..\..\..\lvgl\version_6.1.2\lvgl\src\lv_objx/lv_gauge.c ****         lv_style_copy(&style_tmp, style);
 921              		.loc 2 298 0
 922 0050 07F11003 		add	r3, r7, #16
 923 0054 B96E     		ldr	r1, [r7, #104]
 924 0056 1846     		mov	r0, r3
 925 0058 FFF7FEFF 		bl	lv_style_copy
 299:..\..\..\lvgl\version_6.1.2\lvgl\src\lv_objx/lv_gauge.c ****         ext->lmeter.line_cnt         = ext->label_count;                 /*Only to labels*/
 926              		.loc 2 299 0
 927 005c 7B6E     		ldr	r3, [r7, #100]
 928 005e 5B7D     		ldrb	r3, [r3, #21]	@ zero_extendqisi2
 929 0060 9AB2     		uxth	r2, r3
 930 0062 7B6E     		ldr	r3, [r7, #100]
 931 0064 9A80     		strh	r2, [r3, #4]	@ movhi
 300:..\..\..\lvgl\version_6.1.2\lvgl\src\lv_objx/lv_gauge.c ****         style_tmp.body.padding.left  = style_tmp.body.padding.left * 2;  /*Longer lines*/
 932              		.loc 2 300 0
 933 0066 B7F93430 		ldrsh	r3, [r7, #52]
 934 006a 9BB2     		uxth	r3, r3
 935 006c 5B00     		lsls	r3, r3, #1
 936 006e 9BB2     		uxth	r3, r3
 937 0070 1BB2     		sxth	r3, r3
 938 0072 BB86     		strh	r3, [r7, #52]	@ movhi
 301:..\..\..\lvgl\version_6.1.2\lvgl\src\lv_objx/lv_gauge.c ****         style_tmp.body.padding.right = style_tmp.body.padding.right * 2; /*Longer lines*/
 939              		.loc 2 301 0
 940 0074 B7F93630 		ldrsh	r3, [r7, #54]
 941 0078 9BB2     		uxth	r3, r3
 942 007a 5B00     		lsls	r3, r3, #1
 943 007c 9BB2     		uxth	r3, r3
 944 007e 1BB2     		sxth	r3, r3
 945 0080 FB86     		strh	r3, [r7, #54]	@ movhi
 302:..\..\..\lvgl\version_6.1.2\lvgl\src\lv_objx/lv_gauge.c ****         gauge->style_p               = &style_tmp;
 946              		.loc 2 302 0
 947 0082 FB68     		ldr	r3, [r7, #12]
 948 0084 07F11002 		add	r2, r7, #16
 949 0088 9A62     		str	r2, [r3, #40]
 303:..\..\..\lvgl\version_6.1.2\lvgl\src\lv_objx/lv_gauge.c **** 
 304:..\..\..\lvgl\version_6.1.2\lvgl\src\lv_objx/lv_gauge.c ****         ancestor_design(gauge, mask, mode); /*To draw lines*/
 950              		.loc 2 304 0
ARM GAS  C:\Users\tmj32\AppData\Local\Temp\ccmyxrAJ.s 			page 27


 951 008a 104B     		ldr	r3, .L52
 952 008c 1B68     		ldr	r3, [r3]
 953 008e FA79     		ldrb	r2, [r7, #7]	@ zero_extendqisi2
 954 0090 B968     		ldr	r1, [r7, #8]
 955 0092 F868     		ldr	r0, [r7, #12]
 956 0094 9847     		blx	r3
 305:..\..\..\lvgl\version_6.1.2\lvgl\src\lv_objx/lv_gauge.c **** 
 306:..\..\..\lvgl\version_6.1.2\lvgl\src\lv_objx/lv_gauge.c ****         ext->lmeter.line_cnt = line_cnt_tmp; /*Restore the parameters*/
 957              		.loc 2 306 0
 958 0096 7B6E     		ldr	r3, [r7, #100]
 959 0098 B7F86220 		ldrh	r2, [r7, #98]	@ movhi
 960 009c 9A80     		strh	r2, [r3, #4]	@ movhi
 307:..\..\..\lvgl\version_6.1.2\lvgl\src\lv_objx/lv_gauge.c ****         gauge->style_p       = style_ori_p;  /*Restore the ORIGINAL style pointer*/
 961              		.loc 2 307 0
 962 009e FB68     		ldr	r3, [r7, #12]
 963 00a0 FA6E     		ldr	r2, [r7, #108]
 964 00a2 9A62     		str	r2, [r3, #40]
 308:..\..\..\lvgl\version_6.1.2\lvgl\src\lv_objx/lv_gauge.c **** 
 309:..\..\..\lvgl\version_6.1.2\lvgl\src\lv_objx/lv_gauge.c ****         lv_gauge_draw_needle(gauge, mask);
 965              		.loc 2 309 0
 966 00a4 B968     		ldr	r1, [r7, #8]
 967 00a6 F868     		ldr	r0, [r7, #12]
 968 00a8 FFF7FEFF 		bl	lv_gauge_draw_needle
 969              	.LBE6:
 970 00ac 08E0     		b	.L51
 971              	.L50:
 310:..\..\..\lvgl\version_6.1.2\lvgl\src\lv_objx/lv_gauge.c **** 
 311:..\..\..\lvgl\version_6.1.2\lvgl\src\lv_objx/lv_gauge.c ****     }
 312:..\..\..\lvgl\version_6.1.2\lvgl\src\lv_objx/lv_gauge.c ****     /*Post draw when the children are drawn*/
 313:..\..\..\lvgl\version_6.1.2\lvgl\src\lv_objx/lv_gauge.c ****     else if(mode == LV_DESIGN_DRAW_POST) {
 972              		.loc 2 313 0
 973 00ae FB79     		ldrb	r3, [r7, #7]	@ zero_extendqisi2
 974 00b0 012B     		cmp	r3, #1
 975 00b2 05D1     		bne	.L51
 314:..\..\..\lvgl\version_6.1.2\lvgl\src\lv_objx/lv_gauge.c ****         ancestor_design(gauge, mask, mode);
 976              		.loc 2 314 0
 977 00b4 054B     		ldr	r3, .L52
 978 00b6 1B68     		ldr	r3, [r3]
 979 00b8 FA79     		ldrb	r2, [r7, #7]	@ zero_extendqisi2
 980 00ba B968     		ldr	r1, [r7, #8]
 981 00bc F868     		ldr	r0, [r7, #12]
 982 00be 9847     		blx	r3
 983              	.L51:
 315:..\..\..\lvgl\version_6.1.2\lvgl\src\lv_objx/lv_gauge.c ****     }
 316:..\..\..\lvgl\version_6.1.2\lvgl\src\lv_objx/lv_gauge.c **** 
 317:..\..\..\lvgl\version_6.1.2\lvgl\src\lv_objx/lv_gauge.c ****     return true;
 984              		.loc 2 317 0
 985 00c0 0123     		movs	r3, #1
 986              	.L49:
 318:..\..\..\lvgl\version_6.1.2\lvgl\src\lv_objx/lv_gauge.c **** }
 987              		.loc 2 318 0
 988 00c2 1846     		mov	r0, r3
 989 00c4 7037     		adds	r7, r7, #112
 990              		.cfi_def_cfa_offset 8
 991 00c6 BD46     		mov	sp, r7
 992              		.cfi_def_cfa_register 13
 993              		@ sp needed
ARM GAS  C:\Users\tmj32\AppData\Local\Temp\ccmyxrAJ.s 			page 28


 994 00c8 80BD     		pop	{r7, pc}
 995              	.L53:
 996 00ca 00BF     		.align	2
 997              	.L52:
 998 00cc 00000000 		.word	ancestor_design
 999              		.cfi_endproc
 1000              	.LFE54:
 1001              		.size	lv_gauge_design, .-lv_gauge_design
 1002              		.section	.rodata
 1003              		.align	2
 1004              	.LC0:
 1005 0000 6C765F67 		.ascii	"lv_gauge\000"
 1005      61756765 
 1005      00
 1006              		.section	.text.lv_gauge_signal,"ax",%progbits
 1007              		.align	2
 1008              		.thumb
 1009              		.thumb_func
 1010              		.type	lv_gauge_signal, %function
 1011              	lv_gauge_signal:
 1012              	.LFB55:
 319:..\..\..\lvgl\version_6.1.2\lvgl\src\lv_objx/lv_gauge.c **** 
 320:..\..\..\lvgl\version_6.1.2\lvgl\src\lv_objx/lv_gauge.c **** /**
 321:..\..\..\lvgl\version_6.1.2\lvgl\src\lv_objx/lv_gauge.c ****  * Signal function of the gauge
 322:..\..\..\lvgl\version_6.1.2\lvgl\src\lv_objx/lv_gauge.c ****  * @param gauge pointer to a gauge object
 323:..\..\..\lvgl\version_6.1.2\lvgl\src\lv_objx/lv_gauge.c ****  * @param sign a signal type from lv_signal_t enum
 324:..\..\..\lvgl\version_6.1.2\lvgl\src\lv_objx/lv_gauge.c ****  * @param param pointer to a signal specific variable
 325:..\..\..\lvgl\version_6.1.2\lvgl\src\lv_objx/lv_gauge.c ****  * @return LV_RES_OK: the object is not deleted in the function; LV_RES_INV: the object is deleted
 326:..\..\..\lvgl\version_6.1.2\lvgl\src\lv_objx/lv_gauge.c ****  */
 327:..\..\..\lvgl\version_6.1.2\lvgl\src\lv_objx/lv_gauge.c **** static lv_res_t lv_gauge_signal(lv_obj_t * gauge, lv_signal_t sign, void * param)
 328:..\..\..\lvgl\version_6.1.2\lvgl\src\lv_objx/lv_gauge.c **** {
 1013              		.loc 2 328 0
 1014              		.cfi_startproc
 1015              		@ args = 0, pretend = 0, frame = 24
 1016              		@ frame_needed = 1, uses_anonymous_args = 0
 1017 0000 80B5     		push	{r7, lr}
 1018              		.cfi_def_cfa_offset 8
 1019              		.cfi_offset 7, -8
 1020              		.cfi_offset 14, -4
 1021 0002 86B0     		sub	sp, sp, #24
 1022              		.cfi_def_cfa_offset 32
 1023 0004 00AF     		add	r7, sp, #0
 1024              		.cfi_def_cfa_register 7
 1025 0006 F860     		str	r0, [r7, #12]
 1026 0008 0B46     		mov	r3, r1
 1027 000a 7A60     		str	r2, [r7, #4]
 1028 000c FB72     		strb	r3, [r7, #11]
 329:..\..\..\lvgl\version_6.1.2\lvgl\src\lv_objx/lv_gauge.c ****     lv_res_t res;
 330:..\..\..\lvgl\version_6.1.2\lvgl\src\lv_objx/lv_gauge.c **** 
 331:..\..\..\lvgl\version_6.1.2\lvgl\src\lv_objx/lv_gauge.c ****     /* Include the ancient signal function */
 332:..\..\..\lvgl\version_6.1.2\lvgl\src\lv_objx/lv_gauge.c ****     res = ancestor_signal(gauge, sign, param);
 1029              		.loc 2 332 0
 1030 000e 154B     		ldr	r3, .L59
 1031 0010 1B68     		ldr	r3, [r3]
 1032 0012 F97A     		ldrb	r1, [r7, #11]	@ zero_extendqisi2
 1033 0014 7A68     		ldr	r2, [r7, #4]
 1034 0016 F868     		ldr	r0, [r7, #12]
ARM GAS  C:\Users\tmj32\AppData\Local\Temp\ccmyxrAJ.s 			page 29


 1035 0018 9847     		blx	r3
 1036 001a 0346     		mov	r3, r0
 1037 001c FB75     		strb	r3, [r7, #23]
 333:..\..\..\lvgl\version_6.1.2\lvgl\src\lv_objx/lv_gauge.c ****     if(res != LV_RES_OK) return res;
 1038              		.loc 2 333 0
 1039 001e FB7D     		ldrb	r3, [r7, #23]	@ zero_extendqisi2
 1040 0020 012B     		cmp	r3, #1
 1041 0022 01D0     		beq	.L55
 1042              		.loc 2 333 0 is_stmt 0 discriminator 1
 1043 0024 FB7D     		ldrb	r3, [r7, #23]	@ zero_extendqisi2
 1044 0026 18E0     		b	.L56
 1045              	.L55:
 334:..\..\..\lvgl\version_6.1.2\lvgl\src\lv_objx/lv_gauge.c ****     if(sign == LV_SIGNAL_GET_TYPE) return lv_obj_handle_get_type_signal(param, LV_OBJX_NAME);
 1046              		.loc 2 334 0 is_stmt 1
 1047 0028 FB7A     		ldrb	r3, [r7, #11]	@ zero_extendqisi2
 1048 002a 072B     		cmp	r3, #7
 1049 002c 05D1     		bne	.L57
 1050              		.loc 2 334 0 is_stmt 0 discriminator 1
 1051 002e 0E49     		ldr	r1, .L59+4
 1052 0030 7868     		ldr	r0, [r7, #4]
 1053 0032 FFF7FEFF 		bl	lv_obj_handle_get_type_signal
 1054 0036 0346     		mov	r3, r0
 1055 0038 0FE0     		b	.L56
 1056              	.L57:
 335:..\..\..\lvgl\version_6.1.2\lvgl\src\lv_objx/lv_gauge.c **** 
 336:..\..\..\lvgl\version_6.1.2\lvgl\src\lv_objx/lv_gauge.c ****     lv_gauge_ext_t * ext = lv_obj_get_ext_attr(gauge);
 1057              		.loc 2 336 0 is_stmt 1
 1058 003a F868     		ldr	r0, [r7, #12]
 1059 003c FFF7FEFF 		bl	lv_obj_get_ext_attr
 1060 0040 3861     		str	r0, [r7, #16]
 337:..\..\..\lvgl\version_6.1.2\lvgl\src\lv_objx/lv_gauge.c ****     if(sign == LV_SIGNAL_CLEANUP) {
 1061              		.loc 2 337 0
 1062 0042 FB7A     		ldrb	r3, [r7, #11]	@ zero_extendqisi2
 1063 0044 002B     		cmp	r3, #0
 1064 0046 07D1     		bne	.L58
 338:..\..\..\lvgl\version_6.1.2\lvgl\src\lv_objx/lv_gauge.c ****         lv_mem_free(ext->values);
 1065              		.loc 2 338 0
 1066 0048 3B69     		ldr	r3, [r7, #16]
 1067 004a DB68     		ldr	r3, [r3, #12]
 1068 004c 1846     		mov	r0, r3
 1069 004e FFF7FEFF 		bl	lv_mem_free
 339:..\..\..\lvgl\version_6.1.2\lvgl\src\lv_objx/lv_gauge.c ****         ext->values = NULL;
 1070              		.loc 2 339 0
 1071 0052 3B69     		ldr	r3, [r7, #16]
 1072 0054 0022     		movs	r2, #0
 1073 0056 DA60     		str	r2, [r3, #12]
 1074              	.L58:
 340:..\..\..\lvgl\version_6.1.2\lvgl\src\lv_objx/lv_gauge.c ****     }
 341:..\..\..\lvgl\version_6.1.2\lvgl\src\lv_objx/lv_gauge.c **** 
 342:..\..\..\lvgl\version_6.1.2\lvgl\src\lv_objx/lv_gauge.c ****     return res;
 1075              		.loc 2 342 0
 1076 0058 FB7D     		ldrb	r3, [r7, #23]	@ zero_extendqisi2
 1077              	.L56:
 343:..\..\..\lvgl\version_6.1.2\lvgl\src\lv_objx/lv_gauge.c **** }
 1078              		.loc 2 343 0
 1079 005a 1846     		mov	r0, r3
 1080 005c 1837     		adds	r7, r7, #24
ARM GAS  C:\Users\tmj32\AppData\Local\Temp\ccmyxrAJ.s 			page 30


 1081              		.cfi_def_cfa_offset 8
 1082 005e BD46     		mov	sp, r7
 1083              		.cfi_def_cfa_register 13
 1084              		@ sp needed
 1085 0060 80BD     		pop	{r7, pc}
 1086              	.L60:
 1087 0062 00BF     		.align	2
 1088              	.L59:
 1089 0064 04000000 		.word	ancestor_signal
 1090 0068 00000000 		.word	.LC0
 1091              		.cfi_endproc
 1092              	.LFE55:
 1093              		.size	lv_gauge_signal, .-lv_gauge_signal
 1094              		.section	.text.lv_gauge_draw_scale,"ax",%progbits
 1095              		.align	2
 1096              		.thumb
 1097              		.thumb_func
 1098              		.type	lv_gauge_draw_scale, %function
 1099              	lv_gauge_draw_scale:
 1100              	.LFB56:
 344:..\..\..\lvgl\version_6.1.2\lvgl\src\lv_objx/lv_gauge.c **** 
 345:..\..\..\lvgl\version_6.1.2\lvgl\src\lv_objx/lv_gauge.c **** /**
 346:..\..\..\lvgl\version_6.1.2\lvgl\src\lv_objx/lv_gauge.c ****  * Draw the scale on a gauge
 347:..\..\..\lvgl\version_6.1.2\lvgl\src\lv_objx/lv_gauge.c ****  * @param gauge pointer to gauge object
 348:..\..\..\lvgl\version_6.1.2\lvgl\src\lv_objx/lv_gauge.c ****  * @param mask mask of drawing
 349:..\..\..\lvgl\version_6.1.2\lvgl\src\lv_objx/lv_gauge.c ****  */
 350:..\..\..\lvgl\version_6.1.2\lvgl\src\lv_objx/lv_gauge.c **** static void lv_gauge_draw_scale(lv_obj_t * gauge, const lv_area_t * mask)
 351:..\..\..\lvgl\version_6.1.2\lvgl\src\lv_objx/lv_gauge.c **** {
 1101              		.loc 2 351 0
 1102              		.cfi_startproc
 1103              		@ args = 0, pretend = 0, frame = 80
 1104              		@ frame_needed = 1, uses_anonymous_args = 0
 1105 0000 B0B5     		push	{r4, r5, r7, lr}
 1106              		.cfi_def_cfa_offset 16
 1107              		.cfi_offset 4, -16
 1108              		.cfi_offset 5, -12
 1109              		.cfi_offset 7, -8
 1110              		.cfi_offset 14, -4
 1111 0002 9AB0     		sub	sp, sp, #104
 1112              		.cfi_def_cfa_offset 120
 1113 0004 06AF     		add	r7, sp, #24
 1114              		.cfi_def_cfa 7, 96
 1115 0006 7860     		str	r0, [r7, #4]
 1116 0008 3960     		str	r1, [r7]
 352:..\..\..\lvgl\version_6.1.2\lvgl\src\lv_objx/lv_gauge.c ****     char scale_txt[16];
 353:..\..\..\lvgl\version_6.1.2\lvgl\src\lv_objx/lv_gauge.c **** 
 354:..\..\..\lvgl\version_6.1.2\lvgl\src\lv_objx/lv_gauge.c ****     lv_gauge_ext_t * ext     = lv_obj_get_ext_attr(gauge);
 1117              		.loc 2 354 0
 1118 000a 7868     		ldr	r0, [r7, #4]
 1119 000c FFF7FEFF 		bl	lv_obj_get_ext_attr
 1120 0010 B864     		str	r0, [r7, #72]
 355:..\..\..\lvgl\version_6.1.2\lvgl\src\lv_objx/lv_gauge.c ****     const lv_style_t * style = lv_obj_get_style(gauge);
 1121              		.loc 2 355 0
 1122 0012 7868     		ldr	r0, [r7, #4]
 1123 0014 FFF7FEFF 		bl	lv_obj_get_style
 1124 0018 7864     		str	r0, [r7, #68]
 356:..\..\..\lvgl\version_6.1.2\lvgl\src\lv_objx/lv_gauge.c ****     lv_opa_t opa_scale       = lv_obj_get_opa_scale(gauge);
ARM GAS  C:\Users\tmj32\AppData\Local\Temp\ccmyxrAJ.s 			page 31


 1125              		.loc 2 356 0
 1126 001a 7868     		ldr	r0, [r7, #4]
 1127 001c FFF7FEFF 		bl	lv_obj_get_opa_scale
 1128 0020 0346     		mov	r3, r0
 1129 0022 87F84330 		strb	r3, [r7, #67]
 357:..\..\..\lvgl\version_6.1.2\lvgl\src\lv_objx/lv_gauge.c ****     lv_coord_t r             = lv_obj_get_width(gauge) / 2 - (3 * style->body.padding.left) - style
 1130              		.loc 2 357 0
 1131 0026 7868     		ldr	r0, [r7, #4]
 1132 0028 FFF7FEFF 		bl	lv_obj_get_width
 1133 002c 0346     		mov	r3, r0
 1134 002e DA0F     		lsrs	r2, r3, #31
 1135 0030 1344     		add	r3, r3, r2
 1136 0032 5B10     		asrs	r3, r3, #1
 1137 0034 1BB2     		sxth	r3, r3
 1138 0036 9AB2     		uxth	r2, r3
 1139 0038 7B6C     		ldr	r3, [r7, #68]
 1140 003a B3F92430 		ldrsh	r3, [r3, #36]
 1141 003e 9BB2     		uxth	r3, r3
 1142 0040 1946     		mov	r1, r3	@ movhi
 1143 0042 9B00     		lsls	r3, r3, #2
 1144 0044 CB1A     		subs	r3, r1, r3
 1145 0046 9BB2     		uxth	r3, r3
 1146 0048 1344     		add	r3, r3, r2
 1147 004a 9AB2     		uxth	r2, r3
 1148 004c 7B6C     		ldr	r3, [r7, #68]
 1149 004e B3F92830 		ldrsh	r3, [r3, #40]
 1150 0052 9BB2     		uxth	r3, r3
 1151 0054 D31A     		subs	r3, r2, r3
 1152 0056 9BB2     		uxth	r3, r3
 1153 0058 A7F84030 		strh	r3, [r7, #64]	@ movhi
 358:..\..\..\lvgl\version_6.1.2\lvgl\src\lv_objx/lv_gauge.c ****     lv_coord_t x_ofs         = lv_obj_get_width(gauge) / 2 + gauge->coords.x1;
 1154              		.loc 2 358 0
 1155 005c 7868     		ldr	r0, [r7, #4]
 1156 005e FFF7FEFF 		bl	lv_obj_get_width
 1157 0062 0346     		mov	r3, r0
 1158 0064 DA0F     		lsrs	r2, r3, #31
 1159 0066 1344     		add	r3, r3, r2
 1160 0068 5B10     		asrs	r3, r3, #1
 1161 006a 1BB2     		sxth	r3, r3
 1162 006c 9AB2     		uxth	r2, r3
 1163 006e 7B68     		ldr	r3, [r7, #4]
 1164 0070 B3F91030 		ldrsh	r3, [r3, #16]
 1165 0074 9BB2     		uxth	r3, r3
 1166 0076 1344     		add	r3, r3, r2
 1167 0078 9BB2     		uxth	r3, r3
 1168 007a FB87     		strh	r3, [r7, #62]	@ movhi
 359:..\..\..\lvgl\version_6.1.2\lvgl\src\lv_objx/lv_gauge.c ****     lv_coord_t y_ofs         = lv_obj_get_height(gauge) / 2 + gauge->coords.y1;
 1169              		.loc 2 359 0
 1170 007c 7868     		ldr	r0, [r7, #4]
 1171 007e FFF7FEFF 		bl	lv_obj_get_height
 1172 0082 0346     		mov	r3, r0
 1173 0084 DA0F     		lsrs	r2, r3, #31
 1174 0086 1344     		add	r3, r3, r2
 1175 0088 5B10     		asrs	r3, r3, #1
 1176 008a 1BB2     		sxth	r3, r3
 1177 008c 9AB2     		uxth	r2, r3
 1178 008e 7B68     		ldr	r3, [r7, #4]
ARM GAS  C:\Users\tmj32\AppData\Local\Temp\ccmyxrAJ.s 			page 32


 1179 0090 B3F91230 		ldrsh	r3, [r3, #18]
 1180 0094 9BB2     		uxth	r3, r3
 1181 0096 1344     		add	r3, r3, r2
 1182 0098 9BB2     		uxth	r3, r3
 1183 009a BB87     		strh	r3, [r7, #60]	@ movhi
 360:..\..\..\lvgl\version_6.1.2\lvgl\src\lv_objx/lv_gauge.c ****     int16_t scale_angle      = lv_lmeter_get_scale_angle(gauge);
 1184              		.loc 2 360 0
 1185 009c 7868     		ldr	r0, [r7, #4]
 1186 009e FFF7FEFF 		bl	lv_lmeter_get_scale_angle
 1187 00a2 0346     		mov	r3, r0
 1188 00a4 7B87     		strh	r3, [r7, #58]	@ movhi
 361:..\..\..\lvgl\version_6.1.2\lvgl\src\lv_objx/lv_gauge.c ****     uint16_t label_num       = ext->label_count;
 1189              		.loc 2 361 0
 1190 00a6 BB6C     		ldr	r3, [r7, #72]
 1191 00a8 5B7D     		ldrb	r3, [r3, #21]	@ zero_extendqisi2
 1192 00aa 3B87     		strh	r3, [r7, #56]	@ movhi
 362:..\..\..\lvgl\version_6.1.2\lvgl\src\lv_objx/lv_gauge.c ****     int16_t angle_ofs        = 90 + (360 - scale_angle) / 2;
 1193              		.loc 2 362 0
 1194 00ac B7F93A30 		ldrsh	r3, [r7, #58]
 1195 00b0 C3F5B473 		rsb	r3, r3, #360
 1196 00b4 DA0F     		lsrs	r2, r3, #31
 1197 00b6 1344     		add	r3, r3, r2
 1198 00b8 5B10     		asrs	r3, r3, #1
 1199 00ba 9BB2     		uxth	r3, r3
 1200 00bc 5A33     		adds	r3, r3, #90
 1201 00be 9BB2     		uxth	r3, r3
 1202 00c0 FB86     		strh	r3, [r7, #54]	@ movhi
 363:..\..\..\lvgl\version_6.1.2\lvgl\src\lv_objx/lv_gauge.c ****     int16_t min              = lv_gauge_get_min_value(gauge);
 1203              		.loc 2 363 0
 1204 00c2 7868     		ldr	r0, [r7, #4]
 1205 00c4 FFF7FEFF 		bl	lv_gauge_get_min_value
 1206 00c8 0346     		mov	r3, r0
 1207 00ca BB86     		strh	r3, [r7, #52]	@ movhi
 364:..\..\..\lvgl\version_6.1.2\lvgl\src\lv_objx/lv_gauge.c ****     int16_t max              = lv_gauge_get_max_value(gauge);
 1208              		.loc 2 364 0
 1209 00cc 7868     		ldr	r0, [r7, #4]
 1210 00ce FFF7FEFF 		bl	lv_gauge_get_max_value
 1211 00d2 0346     		mov	r3, r0
 1212 00d4 7B86     		strh	r3, [r7, #50]	@ movhi
 365:..\..\..\lvgl\version_6.1.2\lvgl\src\lv_objx/lv_gauge.c **** 
 366:..\..\..\lvgl\version_6.1.2\lvgl\src\lv_objx/lv_gauge.c ****     uint8_t i;
 367:..\..\..\lvgl\version_6.1.2\lvgl\src\lv_objx/lv_gauge.c ****     for(i = 0; i < label_num; i++) {
 1213              		.loc 2 367 0
 1214 00d6 0023     		movs	r3, #0
 1215 00d8 87F84F30 		strb	r3, [r7, #79]
 1216 00dc BBE0     		b	.L62
 1217              	.L63:
 1218              	.LBB7:
 368:..\..\..\lvgl\version_6.1.2\lvgl\src\lv_objx/lv_gauge.c ****         /*Calculate the position a scale label*/
 369:..\..\..\lvgl\version_6.1.2\lvgl\src\lv_objx/lv_gauge.c ****         int16_t angle = (i * scale_angle) / (label_num - 1) + angle_ofs;
 1219              		.loc 2 369 0 discriminator 3
 1220 00de 97F84F30 		ldrb	r3, [r7, #79]	@ zero_extendqisi2
 1221 00e2 B7F93A20 		ldrsh	r2, [r7, #58]
 1222 00e6 02FB03F2 		mul	r2, r2, r3
 1223 00ea 3B8F     		ldrh	r3, [r7, #56]
 1224 00ec 013B     		subs	r3, r3, #1
 1225 00ee 92FBF3F3 		sdiv	r3, r2, r3
ARM GAS  C:\Users\tmj32\AppData\Local\Temp\ccmyxrAJ.s 			page 33


 1226 00f2 9AB2     		uxth	r2, r3
 1227 00f4 FB8E     		ldrh	r3, [r7, #54]
 1228 00f6 1344     		add	r3, r3, r2
 1229 00f8 9BB2     		uxth	r3, r3
 1230 00fa 3B86     		strh	r3, [r7, #48]	@ movhi
 370:..\..\..\lvgl\version_6.1.2\lvgl\src\lv_objx/lv_gauge.c **** 
 371:..\..\..\lvgl\version_6.1.2\lvgl\src\lv_objx/lv_gauge.c ****         lv_coord_t y = (int32_t)((int32_t)lv_trigo_sin(angle) * r) / LV_TRIGO_SIN_MAX;
 1231              		.loc 2 371 0 discriminator 3
 1232 00fc B7F93030 		ldrsh	r3, [r7, #48]
 1233 0100 1846     		mov	r0, r3
 1234 0102 FFF7FEFF 		bl	lv_trigo_sin
 1235 0106 0346     		mov	r3, r0
 1236 0108 1A46     		mov	r2, r3
 1237 010a B7F94030 		ldrsh	r3, [r7, #64]
 1238 010e 03FB02F3 		mul	r3, r3, r2
 1239 0112 564A     		ldr	r2, .L64
 1240 0114 82FB0312 		smull	r1, r2, r2, r3
 1241 0118 1A44     		add	r2, r2, r3
 1242 011a 9213     		asrs	r2, r2, #14
 1243 011c DB17     		asrs	r3, r3, #31
 1244 011e D31A     		subs	r3, r2, r3
 1245 0120 FB85     		strh	r3, [r7, #46]	@ movhi
 372:..\..\..\lvgl\version_6.1.2\lvgl\src\lv_objx/lv_gauge.c ****         y += y_ofs;
 1246              		.loc 2 372 0 discriminator 3
 1247 0122 FA8D     		ldrh	r2, [r7, #46]
 1248 0124 BB8F     		ldrh	r3, [r7, #60]
 1249 0126 1344     		add	r3, r3, r2
 1250 0128 9BB2     		uxth	r3, r3
 1251 012a FB85     		strh	r3, [r7, #46]	@ movhi
 373:..\..\..\lvgl\version_6.1.2\lvgl\src\lv_objx/lv_gauge.c **** 
 374:..\..\..\lvgl\version_6.1.2\lvgl\src\lv_objx/lv_gauge.c ****         lv_coord_t x = (int32_t)((int32_t)lv_trigo_sin(angle + 90) * r) / LV_TRIGO_SIN_MAX;
 1252              		.loc 2 374 0 discriminator 3
 1253 012c 3B8E     		ldrh	r3, [r7, #48]
 1254 012e 5A33     		adds	r3, r3, #90
 1255 0130 9BB2     		uxth	r3, r3
 1256 0132 1BB2     		sxth	r3, r3
 1257 0134 1846     		mov	r0, r3
 1258 0136 FFF7FEFF 		bl	lv_trigo_sin
 1259 013a 0346     		mov	r3, r0
 1260 013c 1A46     		mov	r2, r3
 1261 013e B7F94030 		ldrsh	r3, [r7, #64]
 1262 0142 03FB02F3 		mul	r3, r3, r2
 1263 0146 494A     		ldr	r2, .L64
 1264 0148 82FB0312 		smull	r1, r2, r2, r3
 1265 014c 1A44     		add	r2, r2, r3
 1266 014e 9213     		asrs	r2, r2, #14
 1267 0150 DB17     		asrs	r3, r3, #31
 1268 0152 D31A     		subs	r3, r2, r3
 1269 0154 BB85     		strh	r3, [r7, #44]	@ movhi
 375:..\..\..\lvgl\version_6.1.2\lvgl\src\lv_objx/lv_gauge.c ****         x += x_ofs;
 1270              		.loc 2 375 0 discriminator 3
 1271 0156 BA8D     		ldrh	r2, [r7, #44]
 1272 0158 FB8F     		ldrh	r3, [r7, #62]
 1273 015a 1344     		add	r3, r3, r2
 1274 015c 9BB2     		uxth	r3, r3
 1275 015e BB85     		strh	r3, [r7, #44]	@ movhi
 376:..\..\..\lvgl\version_6.1.2\lvgl\src\lv_objx/lv_gauge.c **** 
ARM GAS  C:\Users\tmj32\AppData\Local\Temp\ccmyxrAJ.s 			page 34


 377:..\..\..\lvgl\version_6.1.2\lvgl\src\lv_objx/lv_gauge.c ****         int16_t scale_act = (int32_t)((int32_t)(max - min) * i) / (label_num - 1);
 1276              		.loc 2 377 0 discriminator 3
 1277 0160 B7F93220 		ldrsh	r2, [r7, #50]
 1278 0164 B7F93430 		ldrsh	r3, [r7, #52]
 1279 0168 D31A     		subs	r3, r2, r3
 1280 016a 97F84F20 		ldrb	r2, [r7, #79]	@ zero_extendqisi2
 1281 016e 02FB03F2 		mul	r2, r2, r3
 1282 0172 3B8F     		ldrh	r3, [r7, #56]
 1283 0174 013B     		subs	r3, r3, #1
 1284 0176 92FBF3F3 		sdiv	r3, r2, r3
 1285 017a 7B85     		strh	r3, [r7, #42]	@ movhi
 378:..\..\..\lvgl\version_6.1.2\lvgl\src\lv_objx/lv_gauge.c ****         scale_act += min;
 1286              		.loc 2 378 0 discriminator 3
 1287 017c 7A8D     		ldrh	r2, [r7, #42]
 1288 017e BB8E     		ldrh	r3, [r7, #52]
 1289 0180 1344     		add	r3, r3, r2
 1290 0182 9BB2     		uxth	r3, r3
 1291 0184 7B85     		strh	r3, [r7, #42]	@ movhi
 379:..\..\..\lvgl\version_6.1.2\lvgl\src\lv_objx/lv_gauge.c ****         lv_utils_num_to_str(scale_act, scale_txt);
 1292              		.loc 2 379 0 discriminator 3
 1293 0186 B7F92A30 		ldrsh	r3, [r7, #42]
 1294 018a 07F11802 		add	r2, r7, #24
 1295 018e 1146     		mov	r1, r2
 1296 0190 1846     		mov	r0, r3
 1297 0192 FFF7FEFF 		bl	lv_utils_num_to_str
 380:..\..\..\lvgl\version_6.1.2\lvgl\src\lv_objx/lv_gauge.c **** 
 381:..\..\..\lvgl\version_6.1.2\lvgl\src\lv_objx/lv_gauge.c ****         lv_area_t label_cord;
 382:..\..\..\lvgl\version_6.1.2\lvgl\src\lv_objx/lv_gauge.c ****         lv_point_t label_size;
 383:..\..\..\lvgl\version_6.1.2\lvgl\src\lv_objx/lv_gauge.c ****         lv_txt_get_size(&label_size, scale_txt, style->text.font, style->text.letter_space, style->
 1298              		.loc 2 383 0 discriminator 3
 1299 0196 7B6C     		ldr	r3, [r7, #68]
 1300 0198 5C6B     		ldr	r4, [r3, #52]
 1301 019a 7B6C     		ldr	r3, [r7, #68]
 1302 019c B3F93850 		ldrsh	r5, [r3, #56]
 1303 01a0 7B6C     		ldr	r3, [r7, #68]
 1304 01a2 B3F93A30 		ldrsh	r3, [r3, #58]
 1305 01a6 07F11801 		add	r1, r7, #24
 1306 01aa 07F10C00 		add	r0, r7, #12
 1307 01ae 0022     		movs	r2, #0
 1308 01b0 0292     		str	r2, [sp, #8]
 1309 01b2 47F61842 		movw	r2, #31768
 1310 01b6 0192     		str	r2, [sp, #4]
 1311 01b8 0093     		str	r3, [sp]
 1312 01ba 2B46     		mov	r3, r5
 1313 01bc 2246     		mov	r2, r4
 1314 01be FFF7FEFF 		bl	lv_txt_get_size
 384:..\..\..\lvgl\version_6.1.2\lvgl\src\lv_objx/lv_gauge.c ****                         LV_COORD_MAX, LV_TXT_FLAG_NONE);
 385:..\..\..\lvgl\version_6.1.2\lvgl\src\lv_objx/lv_gauge.c **** 
 386:..\..\..\lvgl\version_6.1.2\lvgl\src\lv_objx/lv_gauge.c ****         /*Draw the label*/
 387:..\..\..\lvgl\version_6.1.2\lvgl\src\lv_objx/lv_gauge.c ****         label_cord.x1 = x - label_size.x / 2;
 1315              		.loc 2 387 0 discriminator 3
 1316 01c2 BA8D     		ldrh	r2, [r7, #44]
 1317 01c4 B7F90C30 		ldrsh	r3, [r7, #12]
 1318 01c8 D90F     		lsrs	r1, r3, #31
 1319 01ca 0B44     		add	r3, r3, r1
 1320 01cc 5B10     		asrs	r3, r3, #1
 1321 01ce 1BB2     		sxth	r3, r3
ARM GAS  C:\Users\tmj32\AppData\Local\Temp\ccmyxrAJ.s 			page 35


 1322 01d0 9BB2     		uxth	r3, r3
 1323 01d2 D31A     		subs	r3, r2, r3
 1324 01d4 9BB2     		uxth	r3, r3
 1325 01d6 1BB2     		sxth	r3, r3
 1326 01d8 3B82     		strh	r3, [r7, #16]	@ movhi
 388:..\..\..\lvgl\version_6.1.2\lvgl\src\lv_objx/lv_gauge.c ****         label_cord.y1 = y - label_size.y / 2;
 1327              		.loc 2 388 0 discriminator 3
 1328 01da FA8D     		ldrh	r2, [r7, #46]
 1329 01dc B7F90E30 		ldrsh	r3, [r7, #14]
 1330 01e0 D90F     		lsrs	r1, r3, #31
 1331 01e2 0B44     		add	r3, r3, r1
 1332 01e4 5B10     		asrs	r3, r3, #1
 1333 01e6 1BB2     		sxth	r3, r3
 1334 01e8 9BB2     		uxth	r3, r3
 1335 01ea D31A     		subs	r3, r2, r3
 1336 01ec 9BB2     		uxth	r3, r3
 1337 01ee 1BB2     		sxth	r3, r3
 1338 01f0 7B82     		strh	r3, [r7, #18]	@ movhi
 389:..\..\..\lvgl\version_6.1.2\lvgl\src\lv_objx/lv_gauge.c ****         label_cord.x2 = label_cord.x1 + label_size.x;
 1339              		.loc 2 389 0 discriminator 3
 1340 01f2 B7F91030 		ldrsh	r3, [r7, #16]
 1341 01f6 9AB2     		uxth	r2, r3
 1342 01f8 B7F90C30 		ldrsh	r3, [r7, #12]
 1343 01fc 9BB2     		uxth	r3, r3
 1344 01fe 1344     		add	r3, r3, r2
 1345 0200 9BB2     		uxth	r3, r3
 1346 0202 1BB2     		sxth	r3, r3
 1347 0204 BB82     		strh	r3, [r7, #20]	@ movhi
 390:..\..\..\lvgl\version_6.1.2\lvgl\src\lv_objx/lv_gauge.c ****         label_cord.y2 = label_cord.y1 + label_size.y;
 1348              		.loc 2 390 0 discriminator 3
 1349 0206 B7F91230 		ldrsh	r3, [r7, #18]
 1350 020a 9AB2     		uxth	r2, r3
 1351 020c B7F90E30 		ldrsh	r3, [r7, #14]
 1352 0210 9BB2     		uxth	r3, r3
 1353 0212 1344     		add	r3, r3, r2
 1354 0214 9BB2     		uxth	r3, r3
 1355 0216 1BB2     		sxth	r3, r3
 1356 0218 FB82     		strh	r3, [r7, #22]	@ movhi
 391:..\..\..\lvgl\version_6.1.2\lvgl\src\lv_objx/lv_gauge.c **** 
 392:..\..\..\lvgl\version_6.1.2\lvgl\src\lv_objx/lv_gauge.c ****         lv_draw_label(&label_cord, mask, style, opa_scale, scale_txt, LV_TXT_FLAG_NONE, NULL, NULL,
 1357              		.loc 2 392 0 discriminator 3
 1358 021a 7868     		ldr	r0, [r7, #4]
 1359 021c FFF7FEFF 		bl	lv_obj_get_base_dir
 1360 0220 0346     		mov	r3, r0
 1361 0222 97F84320 		ldrb	r2, [r7, #67]	@ zero_extendqisi2
 1362 0226 07F11000 		add	r0, r7, #16
 1363 022a 0593     		str	r3, [sp, #20]
 1364 022c 0023     		movs	r3, #0
 1365 022e 0493     		str	r3, [sp, #16]
 1366 0230 0023     		movs	r3, #0
 1367 0232 0393     		str	r3, [sp, #12]
 1368 0234 0023     		movs	r3, #0
 1369 0236 0293     		str	r3, [sp, #8]
 1370 0238 0023     		movs	r3, #0
 1371 023a 0193     		str	r3, [sp, #4]
 1372 023c 07F11803 		add	r3, r7, #24
 1373 0240 0093     		str	r3, [sp]
ARM GAS  C:\Users\tmj32\AppData\Local\Temp\ccmyxrAJ.s 			page 36


 1374 0242 1346     		mov	r3, r2
 1375 0244 7A6C     		ldr	r2, [r7, #68]
 1376 0246 3968     		ldr	r1, [r7]
 1377 0248 FFF7FEFF 		bl	lv_draw_label
 1378              	.LBE7:
 367:..\..\..\lvgl\version_6.1.2\lvgl\src\lv_objx/lv_gauge.c ****         /*Calculate the position a scale label*/
 1379              		.loc 2 367 0 discriminator 3
 1380 024c 97F84F30 		ldrb	r3, [r7, #79]	@ zero_extendqisi2
 1381 0250 0133     		adds	r3, r3, #1
 1382 0252 87F84F30 		strb	r3, [r7, #79]
 1383              	.L62:
 367:..\..\..\lvgl\version_6.1.2\lvgl\src\lv_objx/lv_gauge.c ****         /*Calculate the position a scale label*/
 1384              		.loc 2 367 0 is_stmt 0 discriminator 1
 1385 0256 97F84F30 		ldrb	r3, [r7, #79]	@ zero_extendqisi2
 1386 025a 9BB2     		uxth	r3, r3
 1387 025c 3A8F     		ldrh	r2, [r7, #56]
 1388 025e 9A42     		cmp	r2, r3
 1389 0260 3FF63DAF 		bhi	.L63
 393:..\..\..\lvgl\version_6.1.2\lvgl\src\lv_objx/lv_gauge.c ****     }
 394:..\..\..\lvgl\version_6.1.2\lvgl\src\lv_objx/lv_gauge.c **** }
 1390              		.loc 2 394 0 is_stmt 1
 1391 0264 00BF     		nop
 1392 0266 5037     		adds	r7, r7, #80
 1393              		.cfi_def_cfa_offset 16
 1394 0268 BD46     		mov	sp, r7
 1395              		.cfi_def_cfa_register 13
 1396              		@ sp needed
 1397 026a B0BD     		pop	{r4, r5, r7, pc}
 1398              	.L65:
 1399              		.align	2
 1400              	.L64:
 1401 026c 03000180 		.word	-2147418109
 1402              		.cfi_endproc
 1403              	.LFE56:
 1404              		.size	lv_gauge_draw_scale, .-lv_gauge_draw_scale
 1405              		.section	.text.lv_gauge_draw_needle,"ax",%progbits
 1406              		.align	2
 1407              		.thumb
 1408              		.thumb_func
 1409              		.type	lv_gauge_draw_needle, %function
 1410              	lv_gauge_draw_needle:
 1411              	.LFB57:
 395:..\..\..\lvgl\version_6.1.2\lvgl\src\lv_objx/lv_gauge.c **** /**
 396:..\..\..\lvgl\version_6.1.2\lvgl\src\lv_objx/lv_gauge.c ****  * Draw the needles of a gauge
 397:..\..\..\lvgl\version_6.1.2\lvgl\src\lv_objx/lv_gauge.c ****  * @param gauge pointer to gauge object
 398:..\..\..\lvgl\version_6.1.2\lvgl\src\lv_objx/lv_gauge.c ****  * @param mask mask of drawing
 399:..\..\..\lvgl\version_6.1.2\lvgl\src\lv_objx/lv_gauge.c ****  */
 400:..\..\..\lvgl\version_6.1.2\lvgl\src\lv_objx/lv_gauge.c **** static void lv_gauge_draw_needle(lv_obj_t * gauge, const lv_area_t * mask)
 401:..\..\..\lvgl\version_6.1.2\lvgl\src\lv_objx/lv_gauge.c **** {
 1412              		.loc 2 401 0
 1413              		.cfi_startproc
 1414              		@ args = 0, pretend = 0, frame = 232
 1415              		@ frame_needed = 1, uses_anonymous_args = 0
 1416 0000 80B5     		push	{r7, lr}
 1417              		.cfi_def_cfa_offset 8
 1418              		.cfi_offset 7, -8
 1419              		.cfi_offset 14, -4
ARM GAS  C:\Users\tmj32\AppData\Local\Temp\ccmyxrAJ.s 			page 37


 1420 0002 BCB0     		sub	sp, sp, #240
 1421              		.cfi_def_cfa_offset 248
 1422 0004 02AF     		add	r7, sp, #8
 1423              		.cfi_def_cfa 7, 240
 1424 0006 7860     		str	r0, [r7, #4]
 1425 0008 3960     		str	r1, [r7]
 402:..\..\..\lvgl\version_6.1.2\lvgl\src\lv_objx/lv_gauge.c ****     lv_style_t style_needle;
 403:..\..\..\lvgl\version_6.1.2\lvgl\src\lv_objx/lv_gauge.c ****     lv_gauge_ext_t * ext     = lv_obj_get_ext_attr(gauge);
 1426              		.loc 2 403 0
 1427 000a 7868     		ldr	r0, [r7, #4]
 1428 000c FFF7FEFF 		bl	lv_obj_get_ext_attr
 1429 0010 C7F8DC00 		str	r0, [r7, #220]
 404:..\..\..\lvgl\version_6.1.2\lvgl\src\lv_objx/lv_gauge.c ****     const lv_style_t * style = lv_gauge_get_style(gauge, LV_GAUGE_STYLE_MAIN);
 1430              		.loc 2 404 0
 1431 0014 0021     		movs	r1, #0
 1432 0016 7868     		ldr	r0, [r7, #4]
 1433 0018 FFF7FEFF 		bl	lv_gauge_get_style
 1434 001c C7F8D800 		str	r0, [r7, #216]
 405:..\..\..\lvgl\version_6.1.2\lvgl\src\lv_objx/lv_gauge.c ****     lv_opa_t opa_scale       = lv_obj_get_opa_scale(gauge);
 1435              		.loc 2 405 0
 1436 0020 7868     		ldr	r0, [r7, #4]
 1437 0022 FFF7FEFF 		bl	lv_obj_get_opa_scale
 1438 0026 0346     		mov	r3, r0
 1439 0028 87F8D730 		strb	r3, [r7, #215]
 406:..\..\..\lvgl\version_6.1.2\lvgl\src\lv_objx/lv_gauge.c **** 
 407:..\..\..\lvgl\version_6.1.2\lvgl\src\lv_objx/lv_gauge.c ****     lv_coord_t r      = lv_obj_get_width(gauge) / 2 - style->body.padding.left;
 1440              		.loc 2 407 0
 1441 002c 7868     		ldr	r0, [r7, #4]
 1442 002e FFF7FEFF 		bl	lv_obj_get_width
 1443 0032 0346     		mov	r3, r0
 1444 0034 DA0F     		lsrs	r2, r3, #31
 1445 0036 1344     		add	r3, r3, r2
 1446 0038 5B10     		asrs	r3, r3, #1
 1447 003a 1BB2     		sxth	r3, r3
 1448 003c 9AB2     		uxth	r2, r3
 1449 003e D7F8D830 		ldr	r3, [r7, #216]
 1450 0042 B3F92430 		ldrsh	r3, [r3, #36]
 1451 0046 9BB2     		uxth	r3, r3
 1452 0048 D31A     		subs	r3, r2, r3
 1453 004a 9BB2     		uxth	r3, r3
 1454 004c A7F8D430 		strh	r3, [r7, #212]	@ movhi
 408:..\..\..\lvgl\version_6.1.2\lvgl\src\lv_objx/lv_gauge.c ****     lv_coord_t x_ofs  = lv_obj_get_width(gauge) / 2 + gauge->coords.x1;
 1455              		.loc 2 408 0
 1456 0050 7868     		ldr	r0, [r7, #4]
 1457 0052 FFF7FEFF 		bl	lv_obj_get_width
 1458 0056 0346     		mov	r3, r0
 1459 0058 DA0F     		lsrs	r2, r3, #31
 1460 005a 1344     		add	r3, r3, r2
 1461 005c 5B10     		asrs	r3, r3, #1
 1462 005e 1BB2     		sxth	r3, r3
 1463 0060 9AB2     		uxth	r2, r3
 1464 0062 7B68     		ldr	r3, [r7, #4]
 1465 0064 B3F91030 		ldrsh	r3, [r3, #16]
 1466 0068 9BB2     		uxth	r3, r3
 1467 006a 1344     		add	r3, r3, r2
 1468 006c 9BB2     		uxth	r3, r3
 1469 006e A7F8D230 		strh	r3, [r7, #210]	@ movhi
ARM GAS  C:\Users\tmj32\AppData\Local\Temp\ccmyxrAJ.s 			page 38


 409:..\..\..\lvgl\version_6.1.2\lvgl\src\lv_objx/lv_gauge.c ****     lv_coord_t y_ofs  = lv_obj_get_height(gauge) / 2 + gauge->coords.y1;
 1470              		.loc 2 409 0
 1471 0072 7868     		ldr	r0, [r7, #4]
 1472 0074 FFF7FEFF 		bl	lv_obj_get_height
 1473 0078 0346     		mov	r3, r0
 1474 007a DA0F     		lsrs	r2, r3, #31
 1475 007c 1344     		add	r3, r3, r2
 1476 007e 5B10     		asrs	r3, r3, #1
 1477 0080 1BB2     		sxth	r3, r3
 1478 0082 9AB2     		uxth	r2, r3
 1479 0084 7B68     		ldr	r3, [r7, #4]
 1480 0086 B3F91230 		ldrsh	r3, [r3, #18]
 1481 008a 9BB2     		uxth	r3, r3
 1482 008c 1344     		add	r3, r3, r2
 1483 008e 9BB2     		uxth	r3, r3
 1484 0090 A7F8D030 		strh	r3, [r7, #208]	@ movhi
 410:..\..\..\lvgl\version_6.1.2\lvgl\src\lv_objx/lv_gauge.c ****     uint16_t angle    = lv_lmeter_get_scale_angle(gauge);
 1485              		.loc 2 410 0
 1486 0094 7868     		ldr	r0, [r7, #4]
 1487 0096 FFF7FEFF 		bl	lv_lmeter_get_scale_angle
 1488 009a 0346     		mov	r3, r0
 1489 009c A7F8CE30 		strh	r3, [r7, #206]	@ movhi
 411:..\..\..\lvgl\version_6.1.2\lvgl\src\lv_objx/lv_gauge.c ****     int16_t angle_ofs = 90 + (360 - angle) / 2;
 1490              		.loc 2 411 0
 1491 00a0 B7F8CE30 		ldrh	r3, [r7, #206]
 1492 00a4 C3F5B473 		rsb	r3, r3, #360
 1493 00a8 DA0F     		lsrs	r2, r3, #31
 1494 00aa 1344     		add	r3, r3, r2
 1495 00ac 5B10     		asrs	r3, r3, #1
 1496 00ae 9BB2     		uxth	r3, r3
 1497 00b0 5A33     		adds	r3, r3, #90
 1498 00b2 9BB2     		uxth	r3, r3
 1499 00b4 A7F8CC30 		strh	r3, [r7, #204]	@ movhi
 412:..\..\..\lvgl\version_6.1.2\lvgl\src\lv_objx/lv_gauge.c ****     int16_t min       = lv_gauge_get_min_value(gauge);
 1500              		.loc 2 412 0
 1501 00b8 7868     		ldr	r0, [r7, #4]
 1502 00ba FFF7FEFF 		bl	lv_gauge_get_min_value
 1503 00be 0346     		mov	r3, r0
 1504 00c0 A7F8CA30 		strh	r3, [r7, #202]	@ movhi
 413:..\..\..\lvgl\version_6.1.2\lvgl\src\lv_objx/lv_gauge.c ****     int16_t max       = lv_gauge_get_max_value(gauge);
 1505              		.loc 2 413 0
 1506 00c4 7868     		ldr	r0, [r7, #4]
 1507 00c6 FFF7FEFF 		bl	lv_gauge_get_max_value
 1508 00ca 0346     		mov	r3, r0
 1509 00cc A7F8C830 		strh	r3, [r7, #200]	@ movhi
 414:..\..\..\lvgl\version_6.1.2\lvgl\src\lv_objx/lv_gauge.c ****     lv_point_t p_mid;
 415:..\..\..\lvgl\version_6.1.2\lvgl\src\lv_objx/lv_gauge.c ****     lv_point_t p_end;
 416:..\..\..\lvgl\version_6.1.2\lvgl\src\lv_objx/lv_gauge.c ****     lv_point_t p_end_low;
 417:..\..\..\lvgl\version_6.1.2\lvgl\src\lv_objx/lv_gauge.c ****     lv_point_t p_end_high;
 418:..\..\..\lvgl\version_6.1.2\lvgl\src\lv_objx/lv_gauge.c ****     uint8_t i;
 419:..\..\..\lvgl\version_6.1.2\lvgl\src\lv_objx/lv_gauge.c **** 
 420:..\..\..\lvgl\version_6.1.2\lvgl\src\lv_objx/lv_gauge.c ****     lv_style_copy(&style_needle, style);
 1510              		.loc 2 420 0
 1511 00d0 07F17003 		add	r3, r7, #112
 1512 00d4 D7F8D810 		ldr	r1, [r7, #216]
 1513 00d8 1846     		mov	r0, r3
 1514 00da FFF7FEFF 		bl	lv_style_copy
ARM GAS  C:\Users\tmj32\AppData\Local\Temp\ccmyxrAJ.s 			page 39


 421:..\..\..\lvgl\version_6.1.2\lvgl\src\lv_objx/lv_gauge.c **** 
 422:..\..\..\lvgl\version_6.1.2\lvgl\src\lv_objx/lv_gauge.c ****     p_mid.x = x_ofs;
 1515              		.loc 2 422 0
 1516 00de B7F8D230 		ldrh	r3, [r7, #210]	@ movhi
 1517 00e2 A7F86C30 		strh	r3, [r7, #108]	@ movhi
 423:..\..\..\lvgl\version_6.1.2\lvgl\src\lv_objx/lv_gauge.c ****     p_mid.y = y_ofs;
 1518              		.loc 2 423 0
 1519 00e6 B7F8D030 		ldrh	r3, [r7, #208]	@ movhi
 1520 00ea A7F86E30 		strh	r3, [r7, #110]	@ movhi
 424:..\..\..\lvgl\version_6.1.2\lvgl\src\lv_objx/lv_gauge.c ****     for(i = 0; i < ext->needle_count; i++) {
 1521              		.loc 2 424 0
 1522 00ee 0023     		movs	r3, #0
 1523 00f0 87F8E730 		strb	r3, [r7, #231]
 1524 00f4 19E1     		b	.L67
 1525              	.L72:
 1526              	.LBB8:
 425:..\..\..\lvgl\version_6.1.2\lvgl\src\lv_objx/lv_gauge.c ****         /*Calculate the end point of a needle*/
 426:..\..\..\lvgl\version_6.1.2\lvgl\src\lv_objx/lv_gauge.c ****         int16_t needle_angle =
 427:..\..\..\lvgl\version_6.1.2\lvgl\src\lv_objx/lv_gauge.c ****             (ext->values[i] - min) * angle * (1 << LV_GAUGE_INTERPOLATE_SHIFT) / (max - min);
 1527              		.loc 2 427 0
 1528 00f6 D7F8DC30 		ldr	r3, [r7, #220]
 1529 00fa DA68     		ldr	r2, [r3, #12]
 1530 00fc 97F8E730 		ldrb	r3, [r7, #231]	@ zero_extendqisi2
 1531 0100 5B00     		lsls	r3, r3, #1
 1532 0102 1344     		add	r3, r3, r2
 1533 0104 B3F90030 		ldrsh	r3, [r3]
 1534 0108 1A46     		mov	r2, r3
 1535 010a B7F9CA30 		ldrsh	r3, [r7, #202]
 1536 010e D31A     		subs	r3, r2, r3
 1537 0110 B7F8CE20 		ldrh	r2, [r7, #206]
 1538 0114 02FB03F3 		mul	r3, r2, r3
 1539 0118 5A01     		lsls	r2, r3, #5
 1540 011a B7F9C810 		ldrsh	r1, [r7, #200]
 1541 011e B7F9CA30 		ldrsh	r3, [r7, #202]
 1542 0122 CB1A     		subs	r3, r1, r3
 1543 0124 92FBF3F3 		sdiv	r3, r2, r3
 426:..\..\..\lvgl\version_6.1.2\lvgl\src\lv_objx/lv_gauge.c ****             (ext->values[i] - min) * angle * (1 << LV_GAUGE_INTERPOLATE_SHIFT) / (max - min);
 1544              		.loc 2 426 0
 1545 0128 A7F8C630 		strh	r3, [r7, #198]	@ movhi
 428:..\..\..\lvgl\version_6.1.2\lvgl\src\lv_objx/lv_gauge.c **** 
 429:..\..\..\lvgl\version_6.1.2\lvgl\src\lv_objx/lv_gauge.c ****         int16_t needle_angle_low  = (needle_angle >> LV_GAUGE_INTERPOLATE_SHIFT) + angle_ofs;
 1546              		.loc 2 429 0
 1547 012c B7F9C630 		ldrsh	r3, [r7, #198]
 1548 0130 5B11     		asrs	r3, r3, #5
 1549 0132 1BB2     		sxth	r3, r3
 1550 0134 9AB2     		uxth	r2, r3
 1551 0136 B7F8CC30 		ldrh	r3, [r7, #204]
 1552 013a 1344     		add	r3, r3, r2
 1553 013c 9BB2     		uxth	r3, r3
 1554 013e A7F8C430 		strh	r3, [r7, #196]	@ movhi
 430:..\..\..\lvgl\version_6.1.2\lvgl\src\lv_objx/lv_gauge.c ****         int16_t needle_angle_high = needle_angle_low + 1;
 1555              		.loc 2 430 0
 1556 0142 B7F8C430 		ldrh	r3, [r7, #196]
 1557 0146 0133     		adds	r3, r3, #1
 1558 0148 9BB2     		uxth	r3, r3
 1559 014a A7F8C230 		strh	r3, [r7, #194]	@ movhi
 431:..\..\..\lvgl\version_6.1.2\lvgl\src\lv_objx/lv_gauge.c **** 
ARM GAS  C:\Users\tmj32\AppData\Local\Temp\ccmyxrAJ.s 			page 40


 432:..\..\..\lvgl\version_6.1.2\lvgl\src\lv_objx/lv_gauge.c ****         p_end_low.y = (lv_trigo_sin(needle_angle_low) * r) / LV_TRIGO_SIN_MAX + y_ofs;
 1560              		.loc 2 432 0
 1561 014e B7F9C430 		ldrsh	r3, [r7, #196]
 1562 0152 1846     		mov	r0, r3
 1563 0154 FFF7FEFF 		bl	lv_trigo_sin
 1564 0158 0346     		mov	r3, r0
 1565 015a 1A46     		mov	r2, r3
 1566 015c B7F9D430 		ldrsh	r3, [r7, #212]
 1567 0160 03FB02F3 		mul	r3, r3, r2
 1568 0164 9B4A     		ldr	r2, .L73
 1569 0166 82FB0312 		smull	r1, r2, r2, r3
 1570 016a 1A44     		add	r2, r2, r3
 1571 016c 9213     		asrs	r2, r2, #14
 1572 016e DB17     		asrs	r3, r3, #31
 1573 0170 D31A     		subs	r3, r2, r3
 1574 0172 9AB2     		uxth	r2, r3
 1575 0174 B7F8D030 		ldrh	r3, [r7, #208]
 1576 0178 1344     		add	r3, r3, r2
 1577 017a 9BB2     		uxth	r3, r3
 1578 017c 1BB2     		sxth	r3, r3
 1579 017e A7F86630 		strh	r3, [r7, #102]	@ movhi
 433:..\..\..\lvgl\version_6.1.2\lvgl\src\lv_objx/lv_gauge.c ****         p_end_low.x = (lv_trigo_sin(needle_angle_low + 90) * r) / LV_TRIGO_SIN_MAX + x_ofs;
 1580              		.loc 2 433 0
 1581 0182 B7F8C430 		ldrh	r3, [r7, #196]
 1582 0186 5A33     		adds	r3, r3, #90
 1583 0188 9BB2     		uxth	r3, r3
 1584 018a 1BB2     		sxth	r3, r3
 1585 018c 1846     		mov	r0, r3
 1586 018e FFF7FEFF 		bl	lv_trigo_sin
 1587 0192 0346     		mov	r3, r0
 1588 0194 1A46     		mov	r2, r3
 1589 0196 B7F9D430 		ldrsh	r3, [r7, #212]
 1590 019a 03FB02F3 		mul	r3, r3, r2
 1591 019e 8D4A     		ldr	r2, .L73
 1592 01a0 82FB0312 		smull	r1, r2, r2, r3
 1593 01a4 1A44     		add	r2, r2, r3
 1594 01a6 9213     		asrs	r2, r2, #14
 1595 01a8 DB17     		asrs	r3, r3, #31
 1596 01aa D31A     		subs	r3, r2, r3
 1597 01ac 9AB2     		uxth	r2, r3
 1598 01ae B7F8D230 		ldrh	r3, [r7, #210]
 1599 01b2 1344     		add	r3, r3, r2
 1600 01b4 9BB2     		uxth	r3, r3
 1601 01b6 1BB2     		sxth	r3, r3
 1602 01b8 A7F86430 		strh	r3, [r7, #100]	@ movhi
 434:..\..\..\lvgl\version_6.1.2\lvgl\src\lv_objx/lv_gauge.c **** 
 435:..\..\..\lvgl\version_6.1.2\lvgl\src\lv_objx/lv_gauge.c ****         p_end_high.y = (lv_trigo_sin(needle_angle_high) * r) / LV_TRIGO_SIN_MAX + y_ofs;
 1603              		.loc 2 435 0
 1604 01bc B7F9C230 		ldrsh	r3, [r7, #194]
 1605 01c0 1846     		mov	r0, r3
 1606 01c2 FFF7FEFF 		bl	lv_trigo_sin
 1607 01c6 0346     		mov	r3, r0
 1608 01c8 1A46     		mov	r2, r3
 1609 01ca B7F9D430 		ldrsh	r3, [r7, #212]
 1610 01ce 03FB02F3 		mul	r3, r3, r2
 1611 01d2 804A     		ldr	r2, .L73
 1612 01d4 82FB0312 		smull	r1, r2, r2, r3
ARM GAS  C:\Users\tmj32\AppData\Local\Temp\ccmyxrAJ.s 			page 41


 1613 01d8 1A44     		add	r2, r2, r3
 1614 01da 9213     		asrs	r2, r2, #14
 1615 01dc DB17     		asrs	r3, r3, #31
 1616 01de D31A     		subs	r3, r2, r3
 1617 01e0 9AB2     		uxth	r2, r3
 1618 01e2 B7F8D030 		ldrh	r3, [r7, #208]
 1619 01e6 1344     		add	r3, r3, r2
 1620 01e8 9BB2     		uxth	r3, r3
 1621 01ea 1BB2     		sxth	r3, r3
 1622 01ec A7F86230 		strh	r3, [r7, #98]	@ movhi
 436:..\..\..\lvgl\version_6.1.2\lvgl\src\lv_objx/lv_gauge.c ****         p_end_high.x = (lv_trigo_sin(needle_angle_high + 90) * r) / LV_TRIGO_SIN_MAX + x_ofs;
 1623              		.loc 2 436 0
 1624 01f0 B7F8C230 		ldrh	r3, [r7, #194]
 1625 01f4 5A33     		adds	r3, r3, #90
 1626 01f6 9BB2     		uxth	r3, r3
 1627 01f8 1BB2     		sxth	r3, r3
 1628 01fa 1846     		mov	r0, r3
 1629 01fc FFF7FEFF 		bl	lv_trigo_sin
 1630 0200 0346     		mov	r3, r0
 1631 0202 1A46     		mov	r2, r3
 1632 0204 B7F9D430 		ldrsh	r3, [r7, #212]
 1633 0208 03FB02F3 		mul	r3, r3, r2
 1634 020c 714A     		ldr	r2, .L73
 1635 020e 82FB0312 		smull	r1, r2, r2, r3
 1636 0212 1A44     		add	r2, r2, r3
 1637 0214 9213     		asrs	r2, r2, #14
 1638 0216 DB17     		asrs	r3, r3, #31
 1639 0218 D31A     		subs	r3, r2, r3
 1640 021a 9AB2     		uxth	r2, r3
 1641 021c B7F8D230 		ldrh	r3, [r7, #210]
 1642 0220 1344     		add	r3, r3, r2
 1643 0222 9BB2     		uxth	r3, r3
 1644 0224 1BB2     		sxth	r3, r3
 1645 0226 A7F86030 		strh	r3, [r7, #96]	@ movhi
 437:..\..\..\lvgl\version_6.1.2\lvgl\src\lv_objx/lv_gauge.c **** 
 438:..\..\..\lvgl\version_6.1.2\lvgl\src\lv_objx/lv_gauge.c ****         uint16_t rem  = needle_angle & ((1 << LV_GAUGE_INTERPOLATE_SHIFT) - 1);
 1646              		.loc 2 438 0
 1647 022a B7F8C630 		ldrh	r3, [r7, #198]
 1648 022e 03F01F03 		and	r3, r3, #31
 1649 0232 A7F8C030 		strh	r3, [r7, #192]	@ movhi
 439:..\..\..\lvgl\version_6.1.2\lvgl\src\lv_objx/lv_gauge.c ****         int16_t x_mod = ((LV_MATH_ABS(p_end_high.x - p_end_low.x)) * rem) >> LV_GAUGE_INTERPOLATE_S
 1650              		.loc 2 439 0
 1651 0236 B7F96030 		ldrsh	r3, [r7, #96]
 1652 023a 1A46     		mov	r2, r3
 1653 023c B7F96430 		ldrsh	r3, [r7, #100]
 1654 0240 D31A     		subs	r3, r2, r3
 1655 0242 002B     		cmp	r3, #0
 1656 0244 B8BF     		it	lt
 1657 0246 5B42     		rsblt	r3, r3, #0
 1658 0248 B7F8C020 		ldrh	r2, [r7, #192]
 1659 024c 02FB03F3 		mul	r3, r2, r3
 1660 0250 5B11     		asrs	r3, r3, #5
 1661 0252 A7F8E430 		strh	r3, [r7, #228]	@ movhi
 440:..\..\..\lvgl\version_6.1.2\lvgl\src\lv_objx/lv_gauge.c ****         int16_t y_mod = ((LV_MATH_ABS(p_end_high.y - p_end_low.y)) * rem) >> LV_GAUGE_INTERPOLATE_S
 1662              		.loc 2 440 0
 1663 0256 B7F96230 		ldrsh	r3, [r7, #98]
 1664 025a 1A46     		mov	r2, r3
ARM GAS  C:\Users\tmj32\AppData\Local\Temp\ccmyxrAJ.s 			page 42


 1665 025c B7F96630 		ldrsh	r3, [r7, #102]
 1666 0260 D31A     		subs	r3, r2, r3
 1667 0262 002B     		cmp	r3, #0
 1668 0264 B8BF     		it	lt
 1669 0266 5B42     		rsblt	r3, r3, #0
 1670 0268 B7F8C020 		ldrh	r2, [r7, #192]
 1671 026c 02FB03F3 		mul	r3, r2, r3
 1672 0270 5B11     		asrs	r3, r3, #5
 1673 0272 A7F8E230 		strh	r3, [r7, #226]	@ movhi
 441:..\..\..\lvgl\version_6.1.2\lvgl\src\lv_objx/lv_gauge.c **** 
 442:..\..\..\lvgl\version_6.1.2\lvgl\src\lv_objx/lv_gauge.c ****         if(p_end_high.x < p_end_low.x) x_mod = -x_mod;
 1674              		.loc 2 442 0
 1675 0276 B7F96020 		ldrsh	r2, [r7, #96]
 1676 027a B7F96430 		ldrsh	r3, [r7, #100]
 1677 027e 9A42     		cmp	r2, r3
 1678 0280 05DA     		bge	.L68
 1679              		.loc 2 442 0 is_stmt 0 discriminator 1
 1680 0282 B7F8E430 		ldrh	r3, [r7, #228]
 1681 0286 5B42     		negs	r3, r3
 1682 0288 9BB2     		uxth	r3, r3
 1683 028a A7F8E430 		strh	r3, [r7, #228]	@ movhi
 1684              	.L68:
 443:..\..\..\lvgl\version_6.1.2\lvgl\src\lv_objx/lv_gauge.c ****         if(p_end_high.y < p_end_low.y) y_mod = -y_mod;
 1685              		.loc 2 443 0 is_stmt 1
 1686 028e B7F96220 		ldrsh	r2, [r7, #98]
 1687 0292 B7F96630 		ldrsh	r3, [r7, #102]
 1688 0296 9A42     		cmp	r2, r3
 1689 0298 05DA     		bge	.L69
 1690              		.loc 2 443 0 is_stmt 0 discriminator 1
 1691 029a B7F8E230 		ldrh	r3, [r7, #226]
 1692 029e 5B42     		negs	r3, r3
 1693 02a0 9BB2     		uxth	r3, r3
 1694 02a2 A7F8E230 		strh	r3, [r7, #226]	@ movhi
 1695              	.L69:
 444:..\..\..\lvgl\version_6.1.2\lvgl\src\lv_objx/lv_gauge.c **** 
 445:..\..\..\lvgl\version_6.1.2\lvgl\src\lv_objx/lv_gauge.c ****         p_end.x = p_end_low.x + x_mod;
 1696              		.loc 2 445 0 is_stmt 1
 1697 02a6 B7F96430 		ldrsh	r3, [r7, #100]
 1698 02aa 9AB2     		uxth	r2, r3
 1699 02ac B7F8E430 		ldrh	r3, [r7, #228]
 1700 02b0 1344     		add	r3, r3, r2
 1701 02b2 9BB2     		uxth	r3, r3
 1702 02b4 1BB2     		sxth	r3, r3
 1703 02b6 A7F86830 		strh	r3, [r7, #104]	@ movhi
 446:..\..\..\lvgl\version_6.1.2\lvgl\src\lv_objx/lv_gauge.c ****         p_end.y = p_end_low.y + y_mod;
 1704              		.loc 2 446 0
 1705 02ba B7F96630 		ldrsh	r3, [r7, #102]
 1706 02be 9AB2     		uxth	r2, r3
 1707 02c0 B7F8E230 		ldrh	r3, [r7, #226]
 1708 02c4 1344     		add	r3, r3, r2
 1709 02c6 9BB2     		uxth	r3, r3
 1710 02c8 1BB2     		sxth	r3, r3
 1711 02ca A7F86A30 		strh	r3, [r7, #106]	@ movhi
 447:..\..\..\lvgl\version_6.1.2\lvgl\src\lv_objx/lv_gauge.c **** 
 448:..\..\..\lvgl\version_6.1.2\lvgl\src\lv_objx/lv_gauge.c ****         /*Draw the needle with the corresponding color*/
 449:..\..\..\lvgl\version_6.1.2\lvgl\src\lv_objx/lv_gauge.c ****         if(ext->needle_colors == NULL)
 1712              		.loc 2 449 0
ARM GAS  C:\Users\tmj32\AppData\Local\Temp\ccmyxrAJ.s 			page 43


 1713 02ce D7F8DC30 		ldr	r3, [r7, #220]
 1714 02d2 1B69     		ldr	r3, [r3, #16]
 1715 02d4 002B     		cmp	r3, #0
 1716 02d6 0CD1     		bne	.L70
 450:..\..\..\lvgl\version_6.1.2\lvgl\src\lv_objx/lv_gauge.c ****             style_needle.line.color = LV_GAUGE_DEF_NEEDLE_COLOR;
 1717              		.loc 2 450 0
 1718 02d8 0023     		movs	r3, #0
 1719 02da 87F8B830 		strb	r3, [r7, #184]
 1720 02de 0023     		movs	r3, #0
 1721 02e0 87F8B930 		strb	r3, [r7, #185]
 1722 02e4 FF23     		movs	r3, #255
 1723 02e6 87F8BA30 		strb	r3, [r7, #186]
 1724 02ea FF23     		movs	r3, #255
 1725 02ec 87F8BB30 		strb	r3, [r7, #187]
 1726 02f0 09E0     		b	.L71
 1727              	.L70:
 451:..\..\..\lvgl\version_6.1.2\lvgl\src\lv_objx/lv_gauge.c ****         else
 452:..\..\..\lvgl\version_6.1.2\lvgl\src\lv_objx/lv_gauge.c ****             style_needle.line.color = ext->needle_colors[i];
 1728              		.loc 2 452 0
 1729 02f2 D7F8DC30 		ldr	r3, [r7, #220]
 1730 02f6 1A69     		ldr	r2, [r3, #16]
 1731 02f8 97F8E730 		ldrb	r3, [r7, #231]	@ zero_extendqisi2
 1732 02fc 9B00     		lsls	r3, r3, #2
 1733 02fe 1344     		add	r3, r3, r2
 1734 0300 1B68     		ldr	r3, [r3]
 1735 0302 C7F8B830 		str	r3, [r7, #184]
 1736              	.L71:
 453:..\..\..\lvgl\version_6.1.2\lvgl\src\lv_objx/lv_gauge.c **** 
 454:..\..\..\lvgl\version_6.1.2\lvgl\src\lv_objx/lv_gauge.c ****         lv_draw_line(&p_mid, &p_end, mask, &style_needle, opa_scale);
 1737              		.loc 2 454 0 discriminator 2
 1738 0306 07F17002 		add	r2, r7, #112
 1739 030a 07F16801 		add	r1, r7, #104
 1740 030e 07F16C00 		add	r0, r7, #108
 1741 0312 97F8D730 		ldrb	r3, [r7, #215]	@ zero_extendqisi2
 1742 0316 0093     		str	r3, [sp]
 1743 0318 1346     		mov	r3, r2
 1744 031a 3A68     		ldr	r2, [r7]
 1745 031c FFF7FEFF 		bl	lv_draw_line
 1746              	.LBE8:
 424:..\..\..\lvgl\version_6.1.2\lvgl\src\lv_objx/lv_gauge.c ****         /*Calculate the end point of a needle*/
 1747              		.loc 2 424 0 discriminator 2
 1748 0320 97F8E730 		ldrb	r3, [r7, #231]	@ zero_extendqisi2
 1749 0324 0133     		adds	r3, r3, #1
 1750 0326 87F8E730 		strb	r3, [r7, #231]
 1751              	.L67:
 424:..\..\..\lvgl\version_6.1.2\lvgl\src\lv_objx/lv_gauge.c ****         /*Calculate the end point of a needle*/
 1752              		.loc 2 424 0 is_stmt 0 discriminator 1
 1753 032a D7F8DC30 		ldr	r3, [r7, #220]
 1754 032e 1B7D     		ldrb	r3, [r3, #20]	@ zero_extendqisi2
 1755 0330 97F8E720 		ldrb	r2, [r7, #231]	@ zero_extendqisi2
 1756 0334 9A42     		cmp	r2, r3
 1757 0336 FFF4DEAE 		bcc	.L72
 455:..\..\..\lvgl\version_6.1.2\lvgl\src\lv_objx/lv_gauge.c ****     }
 456:..\..\..\lvgl\version_6.1.2\lvgl\src\lv_objx/lv_gauge.c **** 
 457:..\..\..\lvgl\version_6.1.2\lvgl\src\lv_objx/lv_gauge.c ****     /*Draw the needle middle area*/
 458:..\..\..\lvgl\version_6.1.2\lvgl\src\lv_objx/lv_gauge.c ****     lv_style_t style_neddle_mid;
 459:..\..\..\lvgl\version_6.1.2\lvgl\src\lv_objx/lv_gauge.c ****     lv_style_copy(&style_neddle_mid, &lv_style_plain);
ARM GAS  C:\Users\tmj32\AppData\Local\Temp\ccmyxrAJ.s 			page 44


 1758              		.loc 2 459 0 is_stmt 1
 1759 033a 07F11003 		add	r3, r7, #16
 1760 033e 2649     		ldr	r1, .L73+4
 1761 0340 1846     		mov	r0, r3
 1762 0342 FFF7FEFF 		bl	lv_style_copy
 460:..\..\..\lvgl\version_6.1.2\lvgl\src\lv_objx/lv_gauge.c ****     style_neddle_mid.body.main_color = style->body.border.color;
 1763              		.loc 2 460 0
 1764 0346 D7F8D830 		ldr	r3, [r7, #216]
 1765 034a 1B69     		ldr	r3, [r3, #16]
 1766 034c 7B61     		str	r3, [r7, #20]
 461:..\..\..\lvgl\version_6.1.2\lvgl\src\lv_objx/lv_gauge.c ****     style_neddle_mid.body.grad_color = style->body.border.color;
 1767              		.loc 2 461 0
 1768 034e D7F8D830 		ldr	r3, [r7, #216]
 1769 0352 1B69     		ldr	r3, [r3, #16]
 1770 0354 BB61     		str	r3, [r7, #24]
 462:..\..\..\lvgl\version_6.1.2\lvgl\src\lv_objx/lv_gauge.c ****     style_neddle_mid.body.radius     = LV_RADIUS_CIRCLE;
 1771              		.loc 2 462 0
 1772 0356 47F61843 		movw	r3, #31768
 1773 035a BB83     		strh	r3, [r7, #28]	@ movhi
 463:..\..\..\lvgl\version_6.1.2\lvgl\src\lv_objx/lv_gauge.c **** 
 464:..\..\..\lvgl\version_6.1.2\lvgl\src\lv_objx/lv_gauge.c ****     lv_area_t nm_cord;
 465:..\..\..\lvgl\version_6.1.2\lvgl\src\lv_objx/lv_gauge.c ****     nm_cord.x1 = x_ofs - style->body.radius;
 1774              		.loc 2 465 0
 1775 035c B7F8D220 		ldrh	r2, [r7, #210]
 1776 0360 D7F8D830 		ldr	r3, [r7, #216]
 1777 0364 B3F90C30 		ldrsh	r3, [r3, #12]
 1778 0368 9BB2     		uxth	r3, r3
 1779 036a D31A     		subs	r3, r2, r3
 1780 036c 9BB2     		uxth	r3, r3
 1781 036e 1BB2     		sxth	r3, r3
 1782 0370 3B81     		strh	r3, [r7, #8]	@ movhi
 466:..\..\..\lvgl\version_6.1.2\lvgl\src\lv_objx/lv_gauge.c ****     nm_cord.y1 = y_ofs - style->body.radius;
 1783              		.loc 2 466 0
 1784 0372 B7F8D020 		ldrh	r2, [r7, #208]
 1785 0376 D7F8D830 		ldr	r3, [r7, #216]
 1786 037a B3F90C30 		ldrsh	r3, [r3, #12]
 1787 037e 9BB2     		uxth	r3, r3
 1788 0380 D31A     		subs	r3, r2, r3
 1789 0382 9BB2     		uxth	r3, r3
 1790 0384 1BB2     		sxth	r3, r3
 1791 0386 7B81     		strh	r3, [r7, #10]	@ movhi
 467:..\..\..\lvgl\version_6.1.2\lvgl\src\lv_objx/lv_gauge.c ****     nm_cord.x2 = x_ofs + style->body.radius;
 1792              		.loc 2 467 0
 1793 0388 D7F8D830 		ldr	r3, [r7, #216]
 1794 038c B3F90C30 		ldrsh	r3, [r3, #12]
 1795 0390 9AB2     		uxth	r2, r3
 1796 0392 B7F8D230 		ldrh	r3, [r7, #210]
 1797 0396 1344     		add	r3, r3, r2
 1798 0398 9BB2     		uxth	r3, r3
 1799 039a 1BB2     		sxth	r3, r3
 1800 039c BB81     		strh	r3, [r7, #12]	@ movhi
 468:..\..\..\lvgl\version_6.1.2\lvgl\src\lv_objx/lv_gauge.c ****     nm_cord.y2 = y_ofs + style->body.radius;
 1801              		.loc 2 468 0
 1802 039e D7F8D830 		ldr	r3, [r7, #216]
 1803 03a2 B3F90C30 		ldrsh	r3, [r3, #12]
 1804 03a6 9AB2     		uxth	r2, r3
 1805 03a8 B7F8D030 		ldrh	r3, [r7, #208]
ARM GAS  C:\Users\tmj32\AppData\Local\Temp\ccmyxrAJ.s 			page 45


 1806 03ac 1344     		add	r3, r3, r2
 1807 03ae 9BB2     		uxth	r3, r3
 1808 03b0 1BB2     		sxth	r3, r3
 1809 03b2 FB81     		strh	r3, [r7, #14]	@ movhi
 469:..\..\..\lvgl\version_6.1.2\lvgl\src\lv_objx/lv_gauge.c **** 
 470:..\..\..\lvgl\version_6.1.2\lvgl\src\lv_objx/lv_gauge.c ****     lv_draw_rect(&nm_cord, mask, &style_neddle_mid, lv_obj_get_opa_scale(gauge));
 1810              		.loc 2 470 0
 1811 03b4 7868     		ldr	r0, [r7, #4]
 1812 03b6 FFF7FEFF 		bl	lv_obj_get_opa_scale
 1813 03ba 0346     		mov	r3, r0
 1814 03bc 07F11002 		add	r2, r7, #16
 1815 03c0 07F10800 		add	r0, r7, #8
 1816 03c4 3968     		ldr	r1, [r7]
 1817 03c6 FFF7FEFF 		bl	lv_draw_rect
 471:..\..\..\lvgl\version_6.1.2\lvgl\src\lv_objx/lv_gauge.c **** }
 1818              		.loc 2 471 0
 1819 03ca 00BF     		nop
 1820 03cc E837     		adds	r7, r7, #232
 1821              		.cfi_def_cfa_offset 8
 1822 03ce BD46     		mov	sp, r7
 1823              		.cfi_def_cfa_register 13
 1824              		@ sp needed
 1825 03d0 80BD     		pop	{r7, pc}
 1826              	.L74:
 1827 03d2 00BF     		.align	2
 1828              	.L73:
 1829 03d4 03000180 		.word	-2147418109
 1830 03d8 00000000 		.word	lv_style_plain
 1831              		.cfi_endproc
 1832              	.LFE57:
 1833              		.size	lv_gauge_draw_needle, .-lv_gauge_draw_needle
 1834              		.text
 1835              	.Letext0:
 1836              		.file 3 "c:\\program files (x86)\\cypress\\psoc creator\\4.3\\psoc creator\\import\\gnu\\arm\\5.4.
 1837              		.file 4 "c:\\program files (x86)\\cypress\\psoc creator\\4.3\\psoc creator\\import\\gnu\\arm\\5.4.
 1838              		.file 5 "..\\..\\..\\lvgl\\version_6.1.2\\lvgl\\src\\lv_objx\\../../../lv_conf.h"
 1839              		.file 6 "..\\..\\..\\lvgl\\version_6.1.2\\lvgl\\src\\lv_objx\\../lv_core/../lv_font/lv_font.h"
 1840              		.file 7 "..\\..\\..\\lvgl\\version_6.1.2\\lvgl\\src\\lv_objx\\../lv_core/../lv_misc/lv_color.h"
 1841              		.file 8 "..\\..\\..\\lvgl\\version_6.1.2\\lvgl\\src\\lv_objx\\../lv_core/../lv_misc/lv_area.h"
 1842              		.file 9 "..\\..\\..\\lvgl\\version_6.1.2\\lvgl\\src\\lv_objx\\../lv_core/lv_style.h"
 1843              		.file 10 "..\\..\\..\\lvgl\\version_6.1.2\\lvgl\\src\\lv_objx\\../lv_core/../lv_misc/lv_types.h"
 1844              		.file 11 "..\\..\\..\\lvgl\\version_6.1.2\\lvgl\\src\\lv_objx\\../lv_core/../lv_misc/lv_ll.h"
 1845              		.file 12 "..\\..\\..\\lvgl\\version_6.1.2\\lvgl\\src\\lv_objx\\../lv_core/../lv_misc/lv_bidi.h"
 1846              		.file 13 "..\\..\\..\\lvgl\\version_6.1.2\\lvgl\\src\\lv_objx\\../lv_core/lv_obj.h"
 1847              		.file 14 "..\\..\\..\\lvgl\\version_6.1.2\\lvgl\\src\\lv_objx\\lv_lmeter.h"
 1848              		.file 15 "..\\..\\..\\lvgl\\version_6.1.2\\lvgl\\src\\lv_objx\\../lv_misc/lv_txt.h"
 1849              		.file 16 "..\\..\\..\\lvgl\\version_6.1.2\\lvgl\\src\\lv_objx\\../lv_themes/lv_theme.h"
 1850              		.section	.debug_info,"",%progbits
 1851              	.Ldebug_info0:
 1852 0000 8A190000 		.4byte	0x198a
 1853 0004 0400     		.2byte	0x4
 1854 0006 00000000 		.4byte	.Ldebug_abbrev0
 1855 000a 04       		.byte	0x4
 1856 000b 01       		.uleb128 0x1
 1857 000c 7B090000 		.4byte	.LASF267
 1858 0010 0C       		.byte	0xc
 1859 0011 AE030000 		.4byte	.LASF268
ARM GAS  C:\Users\tmj32\AppData\Local\Temp\ccmyxrAJ.s 			page 46


 1860 0015 D4050000 		.4byte	.LASF269
 1861 0019 18000000 		.4byte	.Ldebug_ranges0+0x18
 1862 001d 00000000 		.4byte	0
 1863 0021 00000000 		.4byte	.Ldebug_line0
 1864 0025 02       		.uleb128 0x2
 1865 0026 F7080000 		.4byte	.LASF0
 1866 002a 03       		.byte	0x3
 1867 002b 1B       		.byte	0x1b
 1868 002c 30000000 		.4byte	0x30
 1869 0030 03       		.uleb128 0x3
 1870 0031 01       		.byte	0x1
 1871 0032 06       		.byte	0x6
 1872 0033 26020000 		.4byte	.LASF2
 1873 0037 02       		.uleb128 0x2
 1874 0038 B1010000 		.4byte	.LASF1
 1875 003c 03       		.byte	0x3
 1876 003d 1D       		.byte	0x1d
 1877 003e 42000000 		.4byte	0x42
 1878 0042 03       		.uleb128 0x3
 1879 0043 01       		.byte	0x1
 1880 0044 08       		.byte	0x8
 1881 0045 97020000 		.4byte	.LASF3
 1882 0049 02       		.uleb128 0x2
 1883 004a 3B0A0000 		.4byte	.LASF4
 1884 004e 03       		.byte	0x3
 1885 004f 29       		.byte	0x29
 1886 0050 54000000 		.4byte	0x54
 1887 0054 03       		.uleb128 0x3
 1888 0055 02       		.byte	0x2
 1889 0056 05       		.byte	0x5
 1890 0057 0C0B0000 		.4byte	.LASF5
 1891 005b 02       		.uleb128 0x2
 1892 005c 42030000 		.4byte	.LASF6
 1893 0060 03       		.byte	0x3
 1894 0061 2B       		.byte	0x2b
 1895 0062 66000000 		.4byte	0x66
 1896 0066 03       		.uleb128 0x3
 1897 0067 02       		.byte	0x2
 1898 0068 07       		.byte	0x7
 1899 0069 2E0C0000 		.4byte	.LASF7
 1900 006d 02       		.uleb128 0x2
 1901 006e 7E0C0000 		.4byte	.LASF8
 1902 0072 03       		.byte	0x3
 1903 0073 3F       		.byte	0x3f
 1904 0074 78000000 		.4byte	0x78
 1905 0078 03       		.uleb128 0x3
 1906 0079 04       		.byte	0x4
 1907 007a 05       		.byte	0x5
 1908 007b D2010000 		.4byte	.LASF9
 1909 007f 02       		.uleb128 0x2
 1910 0080 A4050000 		.4byte	.LASF10
 1911 0084 03       		.byte	0x3
 1912 0085 41       		.byte	0x41
 1913 0086 8A000000 		.4byte	0x8a
 1914 008a 03       		.uleb128 0x3
 1915 008b 04       		.byte	0x4
 1916 008c 07       		.byte	0x7
ARM GAS  C:\Users\tmj32\AppData\Local\Temp\ccmyxrAJ.s 			page 47


 1917 008d D8040000 		.4byte	.LASF11
 1918 0091 03       		.uleb128 0x3
 1919 0092 08       		.byte	0x8
 1920 0093 05       		.byte	0x5
 1921 0094 C6050000 		.4byte	.LASF12
 1922 0098 03       		.uleb128 0x3
 1923 0099 08       		.byte	0x8
 1924 009a 07       		.byte	0x7
 1925 009b 0C090000 		.4byte	.LASF13
 1926 009f 04       		.uleb128 0x4
 1927 00a0 04       		.byte	0x4
 1928 00a1 05       		.byte	0x5
 1929 00a2 696E7400 		.ascii	"int\000"
 1930 00a6 03       		.uleb128 0x3
 1931 00a7 04       		.byte	0x4
 1932 00a8 07       		.byte	0x7
 1933 00a9 1E070000 		.4byte	.LASF14
 1934 00ad 02       		.uleb128 0x2
 1935 00ae 00000000 		.4byte	.LASF15
 1936 00b2 04       		.byte	0x4
 1937 00b3 14       		.byte	0x14
 1938 00b4 25000000 		.4byte	0x25
 1939 00b8 02       		.uleb128 0x2
 1940 00b9 32020000 		.4byte	.LASF16
 1941 00bd 04       		.byte	0x4
 1942 00be 18       		.byte	0x18
 1943 00bf 37000000 		.4byte	0x37
 1944 00c3 02       		.uleb128 0x2
 1945 00c4 3C0B0000 		.4byte	.LASF17
 1946 00c8 04       		.byte	0x4
 1947 00c9 20       		.byte	0x20
 1948 00ca 49000000 		.4byte	0x49
 1949 00ce 02       		.uleb128 0x2
 1950 00cf 23090000 		.4byte	.LASF18
 1951 00d3 04       		.byte	0x4
 1952 00d4 24       		.byte	0x24
 1953 00d5 5B000000 		.4byte	0x5b
 1954 00d9 02       		.uleb128 0x2
 1955 00da 8E000000 		.4byte	.LASF19
 1956 00de 04       		.byte	0x4
 1957 00df 2C       		.byte	0x2c
 1958 00e0 6D000000 		.4byte	0x6d
 1959 00e4 02       		.uleb128 0x2
 1960 00e5 F40B0000 		.4byte	.LASF20
 1961 00e9 04       		.byte	0x4
 1962 00ea 30       		.byte	0x30
 1963 00eb 7F000000 		.4byte	0x7f
 1964 00ef 02       		.uleb128 0x2
 1965 00f0 520C0000 		.4byte	.LASF21
 1966 00f4 05       		.byte	0x5
 1967 00f5 3C       		.byte	0x3c
 1968 00f6 C3000000 		.4byte	0xc3
 1969 00fa 05       		.uleb128 0x5
 1970 00fb 04       		.byte	0x4
 1971 00fc 03       		.uleb128 0x3
 1972 00fd 08       		.byte	0x8
 1973 00fe 04       		.byte	0x4
ARM GAS  C:\Users\tmj32\AppData\Local\Temp\ccmyxrAJ.s 			page 48


 1974 00ff 3B080000 		.4byte	.LASF22
 1975 0103 06       		.uleb128 0x6
 1976 0104 08       		.byte	0x8
 1977 0105 06       		.byte	0x6
 1978 0106 2E       		.byte	0x2e
 1979 0107 54010000 		.4byte	0x154
 1980 010b 07       		.uleb128 0x7
 1981 010c 2B000000 		.4byte	.LASF23
 1982 0110 06       		.byte	0x6
 1983 0111 30       		.byte	0x30
 1984 0112 CE000000 		.4byte	0xce
 1985 0116 00       		.byte	0
 1986 0117 07       		.uleb128 0x7
 1987 0118 060B0000 		.4byte	.LASF24
 1988 011c 06       		.byte	0x6
 1989 011d 31       		.byte	0x31
 1990 011e B8000000 		.4byte	0xb8
 1991 0122 02       		.byte	0x2
 1992 0123 07       		.uleb128 0x7
 1993 0124 FB0A0000 		.4byte	.LASF25
 1994 0128 06       		.byte	0x6
 1995 0129 32       		.byte	0x32
 1996 012a B8000000 		.4byte	0xb8
 1997 012e 03       		.byte	0x3
 1998 012f 07       		.uleb128 0x7
 1999 0130 D2020000 		.4byte	.LASF26
 2000 0134 06       		.byte	0x6
 2001 0135 33       		.byte	0x33
 2002 0136 AD000000 		.4byte	0xad
 2003 013a 04       		.byte	0x4
 2004 013b 07       		.uleb128 0x7
 2005 013c D8020000 		.4byte	.LASF27
 2006 0140 06       		.byte	0x6
 2007 0141 34       		.byte	0x34
 2008 0142 AD000000 		.4byte	0xad
 2009 0146 05       		.byte	0x5
 2010 0147 08       		.uleb128 0x8
 2011 0148 62707000 		.ascii	"bpp\000"
 2012 014c 06       		.byte	0x6
 2013 014d 35       		.byte	0x35
 2014 014e B8000000 		.4byte	0xb8
 2015 0152 06       		.byte	0x6
 2016 0153 00       		.byte	0
 2017 0154 02       		.uleb128 0x2
 2018 0155 B2070000 		.4byte	.LASF28
 2019 0159 06       		.byte	0x6
 2020 015a 36       		.byte	0x36
 2021 015b 03010000 		.4byte	0x103
 2022 015f 09       		.uleb128 0x9
 2023 0160 DE0C0000 		.4byte	.LASF84
 2024 0164 10       		.byte	0x10
 2025 0165 06       		.byte	0x6
 2026 0166 44       		.byte	0x44
 2027 0167 B7010000 		.4byte	0x1b7
 2028 016b 07       		.uleb128 0x7
 2029 016c 700C0000 		.4byte	.LASF29
 2030 0170 06       		.byte	0x6
ARM GAS  C:\Users\tmj32\AppData\Local\Temp\ccmyxrAJ.s 			page 49


 2031 0171 47       		.byte	0x47
 2032 0172 ED010000 		.4byte	0x1ed
 2033 0176 00       		.byte	0
 2034 0177 07       		.uleb128 0x7
 2035 0178 63020000 		.4byte	.LASF30
 2036 017c 06       		.byte	0x6
 2037 017d 4A       		.byte	0x4a
 2038 017e 12020000 		.4byte	0x212
 2039 0182 04       		.byte	0x4
 2040 0183 07       		.uleb128 0x7
 2041 0184 D9000000 		.4byte	.LASF31
 2042 0188 06       		.byte	0x6
 2043 0189 4D       		.byte	0x4d
 2044 018a B8000000 		.4byte	0xb8
 2045 018e 08       		.byte	0x8
 2046 018f 07       		.uleb128 0x7
 2047 0190 160B0000 		.4byte	.LASF32
 2048 0194 06       		.byte	0x6
 2049 0195 4E       		.byte	0x4e
 2050 0196 AD000000 		.4byte	0xad
 2051 019a 09       		.byte	0x9
 2052 019b 0A       		.uleb128 0xa
 2053 019c 7F080000 		.4byte	.LASF67
 2054 01a0 06       		.byte	0x6
 2055 01a1 4F       		.byte	0x4f
 2056 01a2 B8000000 		.4byte	0xb8
 2057 01a6 01       		.byte	0x1
 2058 01a7 02       		.byte	0x2
 2059 01a8 06       		.byte	0x6
 2060 01a9 0A       		.byte	0xa
 2061 01aa 08       		.uleb128 0x8
 2062 01ab 64736300 		.ascii	"dsc\000"
 2063 01af 06       		.byte	0x6
 2064 01b0 50       		.byte	0x50
 2065 01b1 FA000000 		.4byte	0xfa
 2066 01b5 0C       		.byte	0xc
 2067 01b6 00       		.byte	0
 2068 01b7 0B       		.uleb128 0xb
 2069 01b8 D5010000 		.4byte	0x1d5
 2070 01bc D5010000 		.4byte	0x1d5
 2071 01c0 0C       		.uleb128 0xc
 2072 01c1 DC010000 		.4byte	0x1dc
 2073 01c5 0C       		.uleb128 0xc
 2074 01c6 E7010000 		.4byte	0x1e7
 2075 01ca 0C       		.uleb128 0xc
 2076 01cb E4000000 		.4byte	0xe4
 2077 01cf 0C       		.uleb128 0xc
 2078 01d0 E4000000 		.4byte	0xe4
 2079 01d4 00       		.byte	0
 2080 01d5 03       		.uleb128 0x3
 2081 01d6 01       		.byte	0x1
 2082 01d7 02       		.byte	0x2
 2083 01d8 E5020000 		.4byte	.LASF33
 2084 01dc 0D       		.uleb128 0xd
 2085 01dd 04       		.byte	0x4
 2086 01de E2010000 		.4byte	0x1e2
 2087 01e2 0E       		.uleb128 0xe
ARM GAS  C:\Users\tmj32\AppData\Local\Temp\ccmyxrAJ.s 			page 50


 2088 01e3 5F010000 		.4byte	0x15f
 2089 01e7 0D       		.uleb128 0xd
 2090 01e8 04       		.byte	0x4
 2091 01e9 54010000 		.4byte	0x154
 2092 01ed 0D       		.uleb128 0xd
 2093 01ee 04       		.byte	0x4
 2094 01ef B7010000 		.4byte	0x1b7
 2095 01f3 0B       		.uleb128 0xb
 2096 01f4 07020000 		.4byte	0x207
 2097 01f8 07020000 		.4byte	0x207
 2098 01fc 0C       		.uleb128 0xc
 2099 01fd DC010000 		.4byte	0x1dc
 2100 0201 0C       		.uleb128 0xc
 2101 0202 E4000000 		.4byte	0xe4
 2102 0206 00       		.byte	0
 2103 0207 0D       		.uleb128 0xd
 2104 0208 04       		.byte	0x4
 2105 0209 0D020000 		.4byte	0x20d
 2106 020d 0E       		.uleb128 0xe
 2107 020e B8000000 		.4byte	0xb8
 2108 0212 0D       		.uleb128 0xd
 2109 0213 04       		.byte	0x4
 2110 0214 F3010000 		.4byte	0x1f3
 2111 0218 02       		.uleb128 0x2
 2112 0219 1B0C0000 		.4byte	.LASF34
 2113 021d 06       		.byte	0x6
 2114 021e 56       		.byte	0x56
 2115 021f 5F010000 		.4byte	0x15f
 2116 0223 06       		.uleb128 0x6
 2117 0224 04       		.byte	0x4
 2118 0225 07       		.byte	0x7
 2119 0226 F3       		.byte	0xf3
 2120 0227 5C020000 		.4byte	0x25c
 2121 022b 07       		.uleb128 0x7
 2122 022c 79020000 		.4byte	.LASF35
 2123 0230 07       		.byte	0x7
 2124 0231 F5       		.byte	0xf5
 2125 0232 B8000000 		.4byte	0xb8
 2126 0236 00       		.byte	0
 2127 0237 07       		.uleb128 0x7
 2128 0238 150C0000 		.4byte	.LASF36
 2129 023c 07       		.byte	0x7
 2130 023d F6       		.byte	0xf6
 2131 023e B8000000 		.4byte	0xb8
 2132 0242 01       		.byte	0x1
 2133 0243 08       		.uleb128 0x8
 2134 0244 72656400 		.ascii	"red\000"
 2135 0248 07       		.byte	0x7
 2136 0249 F7       		.byte	0xf7
 2137 024a B8000000 		.4byte	0xb8
 2138 024e 02       		.byte	0x2
 2139 024f 07       		.uleb128 0x7
 2140 0250 C5010000 		.4byte	.LASF37
 2141 0254 07       		.byte	0x7
 2142 0255 F8       		.byte	0xf8
 2143 0256 B8000000 		.4byte	0xb8
 2144 025a 03       		.byte	0x3
ARM GAS  C:\Users\tmj32\AppData\Local\Temp\ccmyxrAJ.s 			page 51


 2145 025b 00       		.byte	0
 2146 025c 0F       		.uleb128 0xf
 2147 025d 04       		.byte	0x4
 2148 025e 07       		.byte	0x7
 2149 025f F1       		.byte	0xf1
 2150 0260 7A020000 		.4byte	0x27a
 2151 0264 10       		.uleb128 0x10
 2152 0265 636800   		.ascii	"ch\000"
 2153 0268 07       		.byte	0x7
 2154 0269 F9       		.byte	0xf9
 2155 026a 23020000 		.4byte	0x223
 2156 026e 11       		.uleb128 0x11
 2157 026f 4B0A0000 		.4byte	.LASF38
 2158 0273 07       		.byte	0x7
 2159 0274 FA       		.byte	0xfa
 2160 0275 E4000000 		.4byte	0xe4
 2161 0279 00       		.byte	0
 2162 027a 02       		.uleb128 0x2
 2163 027b 44000000 		.4byte	.LASF39
 2164 027f 07       		.byte	0x7
 2165 0280 FB       		.byte	0xfb
 2166 0281 5C020000 		.4byte	0x25c
 2167 0285 12       		.uleb128 0x12
 2168 0286 46090000 		.4byte	.LASF40
 2169 028a 07       		.byte	0x7
 2170 028b 0801     		.2byte	0x108
 2171 028d 7A020000 		.4byte	0x27a
 2172 0291 12       		.uleb128 0x12
 2173 0292 85000000 		.4byte	.LASF41
 2174 0296 07       		.byte	0x7
 2175 0297 0D01     		.2byte	0x10d
 2176 0299 B8000000 		.4byte	0xb8
 2177 029d 03       		.uleb128 0x3
 2178 029e 04       		.byte	0x4
 2179 029f 07       		.byte	0x7
 2180 02a0 3B000000 		.4byte	.LASF42
 2181 02a4 03       		.uleb128 0x3
 2182 02a5 01       		.byte	0x1
 2183 02a6 08       		.byte	0x8
 2184 02a7 06030000 		.4byte	.LASF43
 2185 02ab 06       		.uleb128 0x6
 2186 02ac 04       		.byte	0x4
 2187 02ad 08       		.byte	0x8
 2188 02ae 2A       		.byte	0x2a
 2189 02af C8020000 		.4byte	0x2c8
 2190 02b3 08       		.uleb128 0x8
 2191 02b4 7800     		.ascii	"x\000"
 2192 02b6 08       		.byte	0x8
 2193 02b7 2C       		.byte	0x2c
 2194 02b8 EF000000 		.4byte	0xef
 2195 02bc 00       		.byte	0
 2196 02bd 08       		.uleb128 0x8
 2197 02be 7900     		.ascii	"y\000"
 2198 02c0 08       		.byte	0x8
 2199 02c1 2D       		.byte	0x2d
 2200 02c2 EF000000 		.4byte	0xef
 2201 02c6 02       		.byte	0x2
ARM GAS  C:\Users\tmj32\AppData\Local\Temp\ccmyxrAJ.s 			page 52


 2202 02c7 00       		.byte	0
 2203 02c8 02       		.uleb128 0x2
 2204 02c9 9E000000 		.4byte	.LASF44
 2205 02cd 08       		.byte	0x8
 2206 02ce 2E       		.byte	0x2e
 2207 02cf AB020000 		.4byte	0x2ab
 2208 02d3 06       		.uleb128 0x6
 2209 02d4 08       		.byte	0x8
 2210 02d5 08       		.byte	0x8
 2211 02d6 31       		.byte	0x31
 2212 02d7 08030000 		.4byte	0x308
 2213 02db 08       		.uleb128 0x8
 2214 02dc 783100   		.ascii	"x1\000"
 2215 02df 08       		.byte	0x8
 2216 02e0 33       		.byte	0x33
 2217 02e1 EF000000 		.4byte	0xef
 2218 02e5 00       		.byte	0
 2219 02e6 08       		.uleb128 0x8
 2220 02e7 793100   		.ascii	"y1\000"
 2221 02ea 08       		.byte	0x8
 2222 02eb 34       		.byte	0x34
 2223 02ec EF000000 		.4byte	0xef
 2224 02f0 02       		.byte	0x2
 2225 02f1 08       		.uleb128 0x8
 2226 02f2 783200   		.ascii	"x2\000"
 2227 02f5 08       		.byte	0x8
 2228 02f6 35       		.byte	0x35
 2229 02f7 EF000000 		.4byte	0xef
 2230 02fb 04       		.byte	0x4
 2231 02fc 08       		.uleb128 0x8
 2232 02fd 793200   		.ascii	"y2\000"
 2233 0300 08       		.byte	0x8
 2234 0301 36       		.byte	0x36
 2235 0302 EF000000 		.4byte	0xef
 2236 0306 06       		.byte	0x6
 2237 0307 00       		.byte	0
 2238 0308 02       		.uleb128 0x2
 2239 0309 39040000 		.4byte	.LASF45
 2240 030d 08       		.byte	0x8
 2241 030e 37       		.byte	0x37
 2242 030f D3020000 		.4byte	0x2d3
 2243 0313 02       		.uleb128 0x2
 2244 0314 9C0C0000 		.4byte	.LASF46
 2245 0318 09       		.byte	0x9
 2246 0319 2C       		.byte	0x2c
 2247 031a B8000000 		.4byte	0xb8
 2248 031e 02       		.uleb128 0x2
 2249 031f 810A0000 		.4byte	.LASF47
 2250 0323 09       		.byte	0x9
 2251 0324 33       		.byte	0x33
 2252 0325 B8000000 		.4byte	0xb8
 2253 0329 06       		.uleb128 0x6
 2254 032a 08       		.byte	0x8
 2255 032b 09       		.byte	0x9
 2256 032c 48       		.byte	0x48
 2257 032d 62030000 		.4byte	0x362
 2258 0331 07       		.uleb128 0x7
ARM GAS  C:\Users\tmj32\AppData\Local\Temp\ccmyxrAJ.s 			page 53


 2259 0332 500A0000 		.4byte	.LASF48
 2260 0336 09       		.byte	0x9
 2261 0337 4A       		.byte	0x4a
 2262 0338 85020000 		.4byte	0x285
 2263 033c 00       		.byte	0
 2264 033d 07       		.uleb128 0x7
 2265 033e 71060000 		.4byte	.LASF49
 2266 0342 09       		.byte	0x9
 2267 0343 4B       		.byte	0x4b
 2268 0344 EF000000 		.4byte	0xef
 2269 0348 04       		.byte	0x4
 2270 0349 07       		.uleb128 0x7
 2271 034a 060D0000 		.4byte	.LASF50
 2272 034e 09       		.byte	0x9
 2273 034f 4C       		.byte	0x4c
 2274 0350 13030000 		.4byte	0x313
 2275 0354 06       		.byte	0x6
 2276 0355 08       		.uleb128 0x8
 2277 0356 6F706100 		.ascii	"opa\000"
 2278 035a 09       		.byte	0x9
 2279 035b 4D       		.byte	0x4d
 2280 035c 91020000 		.4byte	0x291
 2281 0360 07       		.byte	0x7
 2282 0361 00       		.byte	0
 2283 0362 06       		.uleb128 0x6
 2284 0363 08       		.byte	0x8
 2285 0364 09       		.byte	0x9
 2286 0365 51       		.byte	0x51
 2287 0366 8F030000 		.4byte	0x38f
 2288 036a 07       		.uleb128 0x7
 2289 036b 500A0000 		.4byte	.LASF48
 2290 036f 09       		.byte	0x9
 2291 0370 53       		.byte	0x53
 2292 0371 85020000 		.4byte	0x285
 2293 0375 00       		.byte	0
 2294 0376 07       		.uleb128 0x7
 2295 0377 71060000 		.4byte	.LASF49
 2296 037b 09       		.byte	0x9
 2297 037c 54       		.byte	0x54
 2298 037d EF000000 		.4byte	0xef
 2299 0381 04       		.byte	0x4
 2300 0382 07       		.uleb128 0x7
 2301 0383 96010000 		.4byte	.LASF51
 2302 0387 09       		.byte	0x9
 2303 0388 55       		.byte	0x55
 2304 0389 1E030000 		.4byte	0x31e
 2305 038d 06       		.byte	0x6
 2306 038e 00       		.byte	0
 2307 038f 06       		.uleb128 0x6
 2308 0390 0A       		.byte	0xa
 2309 0391 09       		.byte	0x9
 2310 0392 58       		.byte	0x58
 2311 0393 D4030000 		.4byte	0x3d4
 2312 0397 08       		.uleb128 0x8
 2313 0398 746F7000 		.ascii	"top\000"
 2314 039c 09       		.byte	0x9
 2315 039d 5A       		.byte	0x5a
ARM GAS  C:\Users\tmj32\AppData\Local\Temp\ccmyxrAJ.s 			page 54


 2316 039e EF000000 		.4byte	0xef
 2317 03a2 00       		.byte	0
 2318 03a3 07       		.uleb128 0x7
 2319 03a4 89060000 		.4byte	.LASF52
 2320 03a8 09       		.byte	0x9
 2321 03a9 5B       		.byte	0x5b
 2322 03aa EF000000 		.4byte	0xef
 2323 03ae 02       		.byte	0x2
 2324 03af 07       		.uleb128 0x7
 2325 03b0 66040000 		.4byte	.LASF53
 2326 03b4 09       		.byte	0x9
 2327 03b5 5C       		.byte	0x5c
 2328 03b6 EF000000 		.4byte	0xef
 2329 03ba 04       		.byte	0x4
 2330 03bb 07       		.uleb128 0x7
 2331 03bc B8050000 		.4byte	.LASF54
 2332 03c0 09       		.byte	0x9
 2333 03c1 5D       		.byte	0x5d
 2334 03c2 EF000000 		.4byte	0xef
 2335 03c6 06       		.byte	0x6
 2336 03c7 07       		.uleb128 0x7
 2337 03c8 D2040000 		.4byte	.LASF55
 2338 03cc 09       		.byte	0x9
 2339 03cd 5E       		.byte	0x5e
 2340 03ce EF000000 		.4byte	0xef
 2341 03d2 08       		.byte	0x8
 2342 03d3 00       		.byte	0
 2343 03d4 06       		.uleb128 0x6
 2344 03d5 28       		.byte	0x28
 2345 03d6 09       		.byte	0x9
 2346 03d7 41       		.byte	0x41
 2347 03d8 31040000 		.4byte	0x431
 2348 03dc 07       		.uleb128 0x7
 2349 03dd EC080000 		.4byte	.LASF56
 2350 03e1 09       		.byte	0x9
 2351 03e2 43       		.byte	0x43
 2352 03e3 85020000 		.4byte	0x285
 2353 03e7 00       		.byte	0
 2354 03e8 07       		.uleb128 0x7
 2355 03e9 CB070000 		.4byte	.LASF57
 2356 03ed 09       		.byte	0x9
 2357 03ee 44       		.byte	0x44
 2358 03ef 85020000 		.4byte	0x285
 2359 03f3 04       		.byte	0x4
 2360 03f4 07       		.uleb128 0x7
 2361 03f5 C5000000 		.4byte	.LASF58
 2362 03f9 09       		.byte	0x9
 2363 03fa 45       		.byte	0x45
 2364 03fb EF000000 		.4byte	0xef
 2365 03ff 08       		.byte	0x8
 2366 0400 08       		.uleb128 0x8
 2367 0401 6F706100 		.ascii	"opa\000"
 2368 0405 09       		.byte	0x9
 2369 0406 46       		.byte	0x46
 2370 0407 91020000 		.4byte	0x291
 2371 040b 0A       		.byte	0xa
 2372 040c 07       		.uleb128 0x7
ARM GAS  C:\Users\tmj32\AppData\Local\Temp\ccmyxrAJ.s 			page 55


 2373 040d 630C0000 		.4byte	.LASF59
 2374 0411 09       		.byte	0x9
 2375 0412 4E       		.byte	0x4e
 2376 0413 29030000 		.4byte	0x329
 2377 0417 0C       		.byte	0xc
 2378 0418 07       		.uleb128 0x7
 2379 0419 900B0000 		.4byte	.LASF60
 2380 041d 09       		.byte	0x9
 2381 041e 56       		.byte	0x56
 2382 041f 62030000 		.4byte	0x362
 2383 0423 14       		.byte	0x14
 2384 0424 07       		.uleb128 0x7
 2385 0425 E20B0000 		.4byte	.LASF61
 2386 0429 09       		.byte	0x9
 2387 042a 5F       		.byte	0x5f
 2388 042b 8F030000 		.4byte	0x38f
 2389 042f 1C       		.byte	0x1c
 2390 0430 00       		.byte	0
 2391 0431 06       		.uleb128 0x6
 2392 0432 14       		.byte	0x14
 2393 0433 09       		.byte	0x9
 2394 0434 63       		.byte	0x63
 2395 0435 82040000 		.4byte	0x482
 2396 0439 07       		.uleb128 0x7
 2397 043a 500A0000 		.4byte	.LASF48
 2398 043e 09       		.byte	0x9
 2399 043f 65       		.byte	0x65
 2400 0440 85020000 		.4byte	0x285
 2401 0444 00       		.byte	0
 2402 0445 07       		.uleb128 0x7
 2403 0446 D40C0000 		.4byte	.LASF62
 2404 044a 09       		.byte	0x9
 2405 044b 66       		.byte	0x66
 2406 044c 85020000 		.4byte	0x285
 2407 0450 04       		.byte	0x4
 2408 0451 07       		.uleb128 0x7
 2409 0452 C40A0000 		.4byte	.LASF63
 2410 0456 09       		.byte	0x9
 2411 0457 67       		.byte	0x67
 2412 0458 82040000 		.4byte	0x482
 2413 045c 08       		.byte	0x8
 2414 045d 07       		.uleb128 0x7
 2415 045e C90A0000 		.4byte	.LASF64
 2416 0462 09       		.byte	0x9
 2417 0463 68       		.byte	0x68
 2418 0464 EF000000 		.4byte	0xef
 2419 0468 0C       		.byte	0xc
 2420 0469 07       		.uleb128 0x7
 2421 046a 680A0000 		.4byte	.LASF65
 2422 046e 09       		.byte	0x9
 2423 046f 69       		.byte	0x69
 2424 0470 EF000000 		.4byte	0xef
 2425 0474 0E       		.byte	0xe
 2426 0475 08       		.uleb128 0x8
 2427 0476 6F706100 		.ascii	"opa\000"
 2428 047a 09       		.byte	0x9
 2429 047b 6A       		.byte	0x6a
ARM GAS  C:\Users\tmj32\AppData\Local\Temp\ccmyxrAJ.s 			page 56


 2430 047c 91020000 		.4byte	0x291
 2431 0480 10       		.byte	0x10
 2432 0481 00       		.byte	0
 2433 0482 0D       		.uleb128 0xd
 2434 0483 04       		.byte	0x4
 2435 0484 88040000 		.4byte	0x488
 2436 0488 0E       		.uleb128 0xe
 2437 0489 18020000 		.4byte	0x218
 2438 048d 06       		.uleb128 0x6
 2439 048e 08       		.byte	0x8
 2440 048f 09       		.byte	0x9
 2441 0490 6E       		.byte	0x6e
 2442 0491 BA040000 		.4byte	0x4ba
 2443 0495 07       		.uleb128 0x7
 2444 0496 500A0000 		.4byte	.LASF48
 2445 049a 09       		.byte	0x9
 2446 049b 70       		.byte	0x70
 2447 049c 85020000 		.4byte	0x285
 2448 04a0 00       		.byte	0
 2449 04a1 07       		.uleb128 0x7
 2450 04a2 96000000 		.4byte	.LASF66
 2451 04a6 09       		.byte	0x9
 2452 04a7 71       		.byte	0x71
 2453 04a8 91020000 		.4byte	0x291
 2454 04ac 04       		.byte	0x4
 2455 04ad 08       		.uleb128 0x8
 2456 04ae 6F706100 		.ascii	"opa\000"
 2457 04b2 09       		.byte	0x9
 2458 04b3 72       		.byte	0x72
 2459 04b4 91020000 		.4byte	0x291
 2460 04b8 05       		.byte	0x5
 2461 04b9 00       		.byte	0
 2462 04ba 06       		.uleb128 0x6
 2463 04bb 08       		.byte	0x8
 2464 04bc 09       		.byte	0x9
 2465 04bd 76       		.byte	0x76
 2466 04be F6040000 		.4byte	0x4f6
 2467 04c2 07       		.uleb128 0x7
 2468 04c3 500A0000 		.4byte	.LASF48
 2469 04c7 09       		.byte	0x9
 2470 04c8 78       		.byte	0x78
 2471 04c9 85020000 		.4byte	0x285
 2472 04cd 00       		.byte	0
 2473 04ce 07       		.uleb128 0x7
 2474 04cf 71060000 		.4byte	.LASF49
 2475 04d3 09       		.byte	0x9
 2476 04d4 79       		.byte	0x79
 2477 04d5 EF000000 		.4byte	0xef
 2478 04d9 04       		.byte	0x4
 2479 04da 08       		.uleb128 0x8
 2480 04db 6F706100 		.ascii	"opa\000"
 2481 04df 09       		.byte	0x9
 2482 04e0 7A       		.byte	0x7a
 2483 04e1 91020000 		.4byte	0x291
 2484 04e5 06       		.byte	0x6
 2485 04e6 0A       		.uleb128 0xa
 2486 04e7 EC030000 		.4byte	.LASF68
ARM GAS  C:\Users\tmj32\AppData\Local\Temp\ccmyxrAJ.s 			page 57


 2487 04eb 09       		.byte	0x9
 2488 04ec 7B       		.byte	0x7b
 2489 04ed B8000000 		.4byte	0xb8
 2490 04f1 01       		.byte	0x1
 2491 04f2 01       		.byte	0x1
 2492 04f3 07       		.byte	0x7
 2493 04f4 07       		.byte	0x7
 2494 04f5 00       		.byte	0
 2495 04f6 06       		.uleb128 0x6
 2496 04f7 50       		.byte	0x50
 2497 04f8 09       		.byte	0x9
 2498 04f9 3C       		.byte	0x3c
 2499 04fa 3E050000 		.4byte	0x53e
 2500 04fe 0A       		.uleb128 0xa
 2501 04ff 04070000 		.4byte	.LASF69
 2502 0503 09       		.byte	0x9
 2503 0504 3E       		.byte	0x3e
 2504 0505 B8000000 		.4byte	0xb8
 2505 0509 01       		.byte	0x1
 2506 050a 01       		.byte	0x1
 2507 050b 07       		.byte	0x7
 2508 050c 00       		.byte	0
 2509 050d 07       		.uleb128 0x7
 2510 050e 1F030000 		.4byte	.LASF70
 2511 0512 09       		.byte	0x9
 2512 0513 60       		.byte	0x60
 2513 0514 D4030000 		.4byte	0x3d4
 2514 0518 04       		.byte	0x4
 2515 0519 07       		.uleb128 0x7
 2516 051a A9030000 		.4byte	.LASF71
 2517 051e 09       		.byte	0x9
 2518 051f 6B       		.byte	0x6b
 2519 0520 31040000 		.4byte	0x431
 2520 0524 2C       		.byte	0x2c
 2521 0525 07       		.uleb128 0x7
 2522 0526 E6030000 		.4byte	.LASF72
 2523 052a 09       		.byte	0x9
 2524 052b 73       		.byte	0x73
 2525 052c 8D040000 		.4byte	0x48d
 2526 0530 40       		.byte	0x40
 2527 0531 07       		.uleb128 0x7
 2528 0532 F5040000 		.4byte	.LASF73
 2529 0536 09       		.byte	0x9
 2530 0537 7C       		.byte	0x7c
 2531 0538 BA040000 		.4byte	0x4ba
 2532 053c 48       		.byte	0x48
 2533 053d 00       		.byte	0
 2534 053e 02       		.uleb128 0x2
 2535 053f C7040000 		.4byte	.LASF74
 2536 0543 09       		.byte	0x9
 2537 0544 84       		.byte	0x84
 2538 0545 F6040000 		.4byte	0x4f6
 2539 0549 0D       		.uleb128 0xd
 2540 054a 04       		.byte	0x4
 2541 054b 3E050000 		.4byte	0x53e
 2542 054f 13       		.uleb128 0x13
 2543 0550 01       		.byte	0x1
ARM GAS  C:\Users\tmj32\AppData\Local\Temp\ccmyxrAJ.s 			page 58


 2544 0551 42000000 		.4byte	0x42
 2545 0555 0A       		.byte	0xa
 2546 0556 27       		.byte	0x27
 2547 0557 68050000 		.4byte	0x568
 2548 055b 14       		.uleb128 0x14
 2549 055c 79010000 		.4byte	.LASF75
 2550 0560 00       		.byte	0
 2551 0561 14       		.uleb128 0x14
 2552 0562 2C090000 		.4byte	.LASF76
 2553 0566 01       		.byte	0x1
 2554 0567 00       		.byte	0
 2555 0568 02       		.uleb128 0x2
 2556 0569 28080000 		.4byte	.LASF77
 2557 056d 0A       		.byte	0xa
 2558 056e 2C       		.byte	0x2c
 2559 056f B8000000 		.4byte	0xb8
 2560 0573 02       		.uleb128 0x2
 2561 0574 1E000000 		.4byte	.LASF78
 2562 0578 0B       		.byte	0xb
 2563 0579 1E       		.byte	0x1e
 2564 057a B8000000 		.4byte	0xb8
 2565 057e 06       		.uleb128 0x6
 2566 057f 0C       		.byte	0xc
 2567 0580 0B       		.byte	0xb
 2568 0581 21       		.byte	0x21
 2569 0582 AB050000 		.4byte	0x5ab
 2570 0586 07       		.uleb128 0x7
 2571 0587 0B0D0000 		.4byte	.LASF79
 2572 058b 0B       		.byte	0xb
 2573 058c 23       		.byte	0x23
 2574 058d E4000000 		.4byte	0xe4
 2575 0591 00       		.byte	0
 2576 0592 07       		.uleb128 0x7
 2577 0593 FD010000 		.4byte	.LASF80
 2578 0597 0B       		.byte	0xb
 2579 0598 24       		.byte	0x24
 2580 0599 AB050000 		.4byte	0x5ab
 2581 059d 04       		.byte	0x4
 2582 059e 07       		.uleb128 0x7
 2583 059f 56000000 		.4byte	.LASF81
 2584 05a3 0B       		.byte	0xb
 2585 05a4 25       		.byte	0x25
 2586 05a5 AB050000 		.4byte	0x5ab
 2587 05a9 08       		.byte	0x8
 2588 05aa 00       		.byte	0
 2589 05ab 0D       		.uleb128 0xd
 2590 05ac 04       		.byte	0x4
 2591 05ad 73050000 		.4byte	0x573
 2592 05b1 02       		.uleb128 0x2
 2593 05b2 200B0000 		.4byte	.LASF82
 2594 05b6 0B       		.byte	0xb
 2595 05b7 26       		.byte	0x26
 2596 05b8 7E050000 		.4byte	0x57e
 2597 05bc 02       		.uleb128 0x2
 2598 05bd 1E040000 		.4byte	.LASF83
 2599 05c1 0C       		.byte	0xc
 2600 05c2 30       		.byte	0x30
ARM GAS  C:\Users\tmj32\AppData\Local\Temp\ccmyxrAJ.s 			page 59


 2601 05c3 B8000000 		.4byte	0xb8
 2602 05c7 0D       		.uleb128 0xd
 2603 05c8 04       		.byte	0x4
 2604 05c9 CD050000 		.4byte	0x5cd
 2605 05cd 0E       		.uleb128 0xe
 2606 05ce 08030000 		.4byte	0x308
 2607 05d2 09       		.uleb128 0x9
 2608 05d3 BA0A0000 		.4byte	.LASF85
 2609 05d7 40       		.byte	0x40
 2610 05d8 0D       		.byte	0xd
 2611 05d9 BB       		.byte	0xbb
 2612 05da 14070000 		.4byte	0x714
 2613 05de 08       		.uleb128 0x8
 2614 05df 70617200 		.ascii	"par\000"
 2615 05e3 0D       		.byte	0xd
 2616 05e4 BD       		.byte	0xbd
 2617 05e5 14070000 		.4byte	0x714
 2618 05e9 00       		.byte	0
 2619 05ea 07       		.uleb128 0x7
 2620 05eb 90060000 		.4byte	.LASF86
 2621 05ef 0D       		.byte	0xd
 2622 05f0 BE       		.byte	0xbe
 2623 05f1 B1050000 		.4byte	0x5b1
 2624 05f5 04       		.byte	0x4
 2625 05f6 07       		.uleb128 0x7
 2626 05f7 570B0000 		.4byte	.LASF87
 2627 05fb 0D       		.byte	0xd
 2628 05fc C0       		.byte	0xc0
 2629 05fd 08030000 		.4byte	0x308
 2630 0601 10       		.byte	0x10
 2631 0602 07       		.uleb128 0x7
 2632 0603 AF050000 		.4byte	.LASF88
 2633 0607 0D       		.byte	0xd
 2634 0608 C2       		.byte	0xc2
 2635 0609 79070000 		.4byte	0x779
 2636 060d 18       		.byte	0x18
 2637 060e 07       		.uleb128 0x7
 2638 060f EA0B0000 		.4byte	.LASF89
 2639 0613 0D       		.byte	0xd
 2640 0614 C3       		.byte	0xc3
 2641 0615 2A080000 		.4byte	0x82a
 2642 0619 1C       		.byte	0x1c
 2643 061a 07       		.uleb128 0x7
 2644 061b 6A030000 		.4byte	.LASF90
 2645 061f 0D       		.byte	0xd
 2646 0620 C4       		.byte	0xc4
 2647 0621 44070000 		.4byte	0x744
 2648 0625 20       		.byte	0x20
 2649 0626 07       		.uleb128 0x7
 2650 0627 65080000 		.4byte	.LASF91
 2651 062b 0D       		.byte	0xd
 2652 062c C6       		.byte	0xc6
 2653 062d FA000000 		.4byte	0xfa
 2654 0631 24       		.byte	0x24
 2655 0632 07       		.uleb128 0x7
 2656 0633 BE050000 		.4byte	.LASF92
 2657 0637 0D       		.byte	0xd
ARM GAS  C:\Users\tmj32\AppData\Local\Temp\ccmyxrAJ.s 			page 60


 2658 0638 C7       		.byte	0xc7
 2659 0639 D7080000 		.4byte	0x8d7
 2660 063d 28       		.byte	0x28
 2661 063e 0A       		.uleb128 0xa
 2662 063f E5000000 		.4byte	.LASF93
 2663 0643 0D       		.byte	0xd
 2664 0644 D7       		.byte	0xd7
 2665 0645 B8000000 		.4byte	0xb8
 2666 0649 01       		.byte	0x1
 2667 064a 01       		.byte	0x1
 2668 064b 07       		.byte	0x7
 2669 064c 2C       		.byte	0x2c
 2670 064d 0A       		.uleb128 0xa
 2671 064e 920A0000 		.4byte	.LASF94
 2672 0652 0D       		.byte	0xd
 2673 0653 D8       		.byte	0xd8
 2674 0654 B8000000 		.4byte	0xb8
 2675 0658 01       		.byte	0x1
 2676 0659 01       		.byte	0x1
 2677 065a 06       		.byte	0x6
 2678 065b 2C       		.byte	0x2c
 2679 065c 0A       		.uleb128 0xa
 2680 065d F4030000 		.4byte	.LASF95
 2681 0661 0D       		.byte	0xd
 2682 0662 D9       		.byte	0xd9
 2683 0663 B8000000 		.4byte	0xb8
 2684 0667 01       		.byte	0x1
 2685 0668 01       		.byte	0x1
 2686 0669 05       		.byte	0x5
 2687 066a 2C       		.byte	0x2c
 2688 066b 0A       		.uleb128 0xa
 2689 066c A40B0000 		.4byte	.LASF96
 2690 0670 0D       		.byte	0xd
 2691 0671 DA       		.byte	0xda
 2692 0672 B8000000 		.4byte	0xb8
 2693 0676 01       		.byte	0x1
 2694 0677 01       		.byte	0x1
 2695 0678 04       		.byte	0x4
 2696 0679 2C       		.byte	0x2c
 2697 067a 0A       		.uleb128 0xa
 2698 067b CB010000 		.4byte	.LASF97
 2699 067f 0D       		.byte	0xd
 2700 0680 DB       		.byte	0xdb
 2701 0681 B8000000 		.4byte	0xb8
 2702 0685 01       		.byte	0x1
 2703 0686 01       		.byte	0x1
 2704 0687 03       		.byte	0x3
 2705 0688 2C       		.byte	0x2c
 2706 0689 15       		.uleb128 0x15
 2707 068a 746F7000 		.ascii	"top\000"
 2708 068e 0D       		.byte	0xd
 2709 068f DC       		.byte	0xdc
 2710 0690 B8000000 		.4byte	0xb8
 2711 0694 01       		.byte	0x1
 2712 0695 01       		.byte	0x1
 2713 0696 02       		.byte	0x2
 2714 0697 2C       		.byte	0x2c
ARM GAS  C:\Users\tmj32\AppData\Local\Temp\ccmyxrAJ.s 			page 61


 2715 0698 0A       		.uleb128 0xa
 2716 0699 790B0000 		.4byte	.LASF98
 2717 069d 0D       		.byte	0xd
 2718 069e DD       		.byte	0xdd
 2719 069f B8000000 		.4byte	0xb8
 2720 06a3 01       		.byte	0x1
 2721 06a4 01       		.byte	0x1
 2722 06a5 01       		.byte	0x1
 2723 06a6 2C       		.byte	0x2c
 2724 06a7 0A       		.uleb128 0xa
 2725 06a8 DF060000 		.4byte	.LASF99
 2726 06ac 0D       		.byte	0xd
 2727 06ad DE       		.byte	0xde
 2728 06ae B8000000 		.4byte	0xb8
 2729 06b2 01       		.byte	0x1
 2730 06b3 01       		.byte	0x1
 2731 06b4 00       		.byte	0
 2732 06b5 2C       		.byte	0x2c
 2733 06b6 0A       		.uleb128 0xa
 2734 06b7 C1020000 		.4byte	.LASF100
 2735 06bb 0D       		.byte	0xd
 2736 06bc DF       		.byte	0xdf
 2737 06bd CC080000 		.4byte	0x8cc
 2738 06c1 01       		.byte	0x1
 2739 06c2 02       		.byte	0x2
 2740 06c3 06       		.byte	0x6
 2741 06c4 2D       		.byte	0x2d
 2742 06c5 0A       		.uleb128 0xa
 2743 06c6 F20A0000 		.4byte	.LASF101
 2744 06ca 0D       		.byte	0xd
 2745 06cb E0       		.byte	0xe0
 2746 06cc BC050000 		.4byte	0x5bc
 2747 06d0 01       		.byte	0x1
 2748 06d1 02       		.byte	0x2
 2749 06d2 04       		.byte	0x4
 2750 06d3 2D       		.byte	0x2d
 2751 06d4 0A       		.uleb128 0xa
 2752 06d5 250C0000 		.4byte	.LASF102
 2753 06d9 0D       		.byte	0xd
 2754 06da E1       		.byte	0xe1
 2755 06db B8000000 		.4byte	0xb8
 2756 06df 01       		.byte	0x1
 2757 06e0 03       		.byte	0x3
 2758 06e1 01       		.byte	0x1
 2759 06e2 2D       		.byte	0x2d
 2760 06e3 07       		.uleb128 0x7
 2761 06e4 9F060000 		.4byte	.LASF103
 2762 06e8 0D       		.byte	0xd
 2763 06e9 E2       		.byte	0xe2
 2764 06ea B8000000 		.4byte	0xb8
 2765 06ee 2E       		.byte	0x2e
 2766 06ef 07       		.uleb128 0x7
 2767 06f0 280D0000 		.4byte	.LASF104
 2768 06f4 0D       		.byte	0xd
 2769 06f5 E4       		.byte	0xe4
 2770 06f6 91020000 		.4byte	0x291
 2771 06fa 2F       		.byte	0x2f
ARM GAS  C:\Users\tmj32\AppData\Local\Temp\ccmyxrAJ.s 			page 62


 2772 06fb 07       		.uleb128 0x7
 2773 06fc 2C040000 		.4byte	.LASF105
 2774 0700 0D       		.byte	0xd
 2775 0701 E6       		.byte	0xe6
 2776 0702 EF000000 		.4byte	0xef
 2777 0706 30       		.byte	0x30
 2778 0707 07       		.uleb128 0x7
 2779 0708 76040000 		.4byte	.LASF106
 2780 070c 0D       		.byte	0xd
 2781 070d E9       		.byte	0xe9
 2782 070e C1080000 		.4byte	0x8c1
 2783 0712 34       		.byte	0x34
 2784 0713 00       		.byte	0
 2785 0714 0D       		.uleb128 0xd
 2786 0715 04       		.byte	0x4
 2787 0716 D2050000 		.4byte	0x5d2
 2788 071a 13       		.uleb128 0x13
 2789 071b 01       		.byte	0x1
 2790 071c 42000000 		.4byte	0x42
 2791 0720 0D       		.byte	0xd
 2792 0721 3D       		.byte	0x3d
 2793 0722 39070000 		.4byte	0x739
 2794 0726 14       		.uleb128 0x14
 2795 0727 9E070000 		.4byte	.LASF107
 2796 072b 00       		.byte	0
 2797 072c 14       		.uleb128 0x14
 2798 072d 0B030000 		.4byte	.LASF108
 2799 0731 01       		.byte	0x1
 2800 0732 14       		.uleb128 0x14
 2801 0733 56030000 		.4byte	.LASF109
 2802 0737 02       		.byte	0x2
 2803 0738 00       		.byte	0
 2804 0739 02       		.uleb128 0x2
 2805 073a 6E080000 		.4byte	.LASF110
 2806 073e 0D       		.byte	0xd
 2807 073f 42       		.byte	0x42
 2808 0740 B8000000 		.4byte	0xb8
 2809 0744 02       		.uleb128 0x2
 2810 0745 190D0000 		.4byte	.LASF111
 2811 0749 0D       		.byte	0xd
 2812 074a 48       		.byte	0x48
 2813 074b 4F070000 		.4byte	0x74f
 2814 074f 0D       		.uleb128 0xd
 2815 0750 04       		.byte	0x4
 2816 0751 55070000 		.4byte	0x755
 2817 0755 0B       		.uleb128 0xb
 2818 0756 D5010000 		.4byte	0x1d5
 2819 075a 6E070000 		.4byte	0x76e
 2820 075e 0C       		.uleb128 0xc
 2821 075f 14070000 		.4byte	0x714
 2822 0763 0C       		.uleb128 0xc
 2823 0764 C7050000 		.4byte	0x5c7
 2824 0768 0C       		.uleb128 0xc
 2825 0769 39070000 		.4byte	0x739
 2826 076d 00       		.byte	0
 2827 076e 02       		.uleb128 0x2
 2828 076f 51010000 		.4byte	.LASF112
ARM GAS  C:\Users\tmj32\AppData\Local\Temp\ccmyxrAJ.s 			page 63


 2829 0773 0D       		.byte	0xd
 2830 0774 61       		.byte	0x61
 2831 0775 B8000000 		.4byte	0xb8
 2832 0779 02       		.uleb128 0x2
 2833 077a AD0C0000 		.4byte	.LASF113
 2834 077e 0D       		.byte	0xd
 2835 077f 68       		.byte	0x68
 2836 0780 84070000 		.4byte	0x784
 2837 0784 0D       		.uleb128 0xd
 2838 0785 04       		.byte	0x4
 2839 0786 8A070000 		.4byte	0x78a
 2840 078a 16       		.uleb128 0x16
 2841 078b 9A070000 		.4byte	0x79a
 2842 078f 0C       		.uleb128 0xc
 2843 0790 14070000 		.4byte	0x714
 2844 0794 0C       		.uleb128 0xc
 2845 0795 6E070000 		.4byte	0x76e
 2846 0799 00       		.byte	0
 2847 079a 13       		.uleb128 0x13
 2848 079b 01       		.byte	0x1
 2849 079c 42000000 		.4byte	0x42
 2850 07a0 0D       		.byte	0xd
 2851 07a1 6D       		.byte	0x6d
 2852 07a2 1F080000 		.4byte	0x81f
 2853 07a6 14       		.uleb128 0x14
 2854 07a7 EC060000 		.4byte	.LASF114
 2855 07ab 00       		.byte	0
 2856 07ac 14       		.uleb128 0x14
 2857 07ad 2B070000 		.4byte	.LASF115
 2858 07b1 01       		.byte	0x1
 2859 07b2 14       		.uleb128 0x14
 2860 07b3 440B0000 		.4byte	.LASF116
 2861 07b7 02       		.byte	0x2
 2862 07b8 14       		.uleb128 0x14
 2863 07b9 BF080000 		.4byte	.LASF117
 2864 07bd 03       		.byte	0x3
 2865 07be 14       		.uleb128 0x14
 2866 07bf 71000000 		.4byte	.LASF118
 2867 07c3 04       		.byte	0x4
 2868 07c4 14       		.uleb128 0x14
 2869 07c5 BA0B0000 		.4byte	.LASF119
 2870 07c9 05       		.byte	0x5
 2871 07ca 14       		.uleb128 0x14
 2872 07cb A5020000 		.4byte	.LASF120
 2873 07cf 06       		.byte	0x6
 2874 07d0 14       		.uleb128 0x14
 2875 07d1 8E040000 		.4byte	.LASF121
 2876 07d5 07       		.byte	0x7
 2877 07d6 14       		.uleb128 0x14
 2878 07d7 84010000 		.4byte	.LASF122
 2879 07db 08       		.byte	0x8
 2880 07dc 14       		.uleb128 0x14
 2881 07dd FB070000 		.4byte	.LASF123
 2882 07e1 09       		.byte	0x9
 2883 07e2 14       		.uleb128 0x14
 2884 07e3 85080000 		.4byte	.LASF124
 2885 07e7 0A       		.byte	0xa
ARM GAS  C:\Users\tmj32\AppData\Local\Temp\ccmyxrAJ.s 			page 64


 2886 07e8 14       		.uleb128 0x14
 2887 07e9 D9080000 		.4byte	.LASF125
 2888 07ed 0B       		.byte	0xb
 2889 07ee 14       		.uleb128 0x14
 2890 07ef B0000000 		.4byte	.LASF126
 2891 07f3 0C       		.byte	0xc
 2892 07f4 14       		.uleb128 0x14
 2893 07f5 7E020000 		.4byte	.LASF127
 2894 07f9 0D       		.byte	0xd
 2895 07fa 14       		.uleb128 0x14
 2896 07fb 09010000 		.4byte	.LASF128
 2897 07ff 0E       		.byte	0xe
 2898 0800 14       		.uleb128 0x14
 2899 0801 A0080000 		.4byte	.LASF129
 2900 0805 0F       		.byte	0xf
 2901 0806 14       		.uleb128 0x14
 2902 0807 04050000 		.4byte	.LASF130
 2903 080b 10       		.byte	0x10
 2904 080c 14       		.uleb128 0x14
 2905 080d 85030000 		.4byte	.LASF131
 2906 0811 11       		.byte	0x11
 2907 0812 14       		.uleb128 0x14
 2908 0813 77060000 		.4byte	.LASF132
 2909 0817 12       		.byte	0x12
 2910 0818 14       		.uleb128 0x14
 2911 0819 59050000 		.4byte	.LASF133
 2912 081d 13       		.byte	0x13
 2913 081e 00       		.byte	0
 2914 081f 02       		.uleb128 0x2
 2915 0820 00090000 		.4byte	.LASF134
 2916 0824 0D       		.byte	0xd
 2917 0825 88       		.byte	0x88
 2918 0826 B8000000 		.4byte	0xb8
 2919 082a 02       		.uleb128 0x2
 2920 082b EB020000 		.4byte	.LASF135
 2921 082f 0D       		.byte	0xd
 2922 0830 8A       		.byte	0x8a
 2923 0831 35080000 		.4byte	0x835
 2924 0835 0D       		.uleb128 0xd
 2925 0836 04       		.byte	0x4
 2926 0837 3B080000 		.4byte	0x83b
 2927 083b 0B       		.uleb128 0xb
 2928 083c 68050000 		.4byte	0x568
 2929 0840 54080000 		.4byte	0x854
 2930 0844 0C       		.uleb128 0xc
 2931 0845 14070000 		.4byte	0x714
 2932 0849 0C       		.uleb128 0xc
 2933 084a 1F080000 		.4byte	0x81f
 2934 084e 0C       		.uleb128 0xc
 2935 084f FA000000 		.4byte	0xfa
 2936 0853 00       		.byte	0
 2937 0854 02       		.uleb128 0x2
 2938 0855 EB000000 		.4byte	.LASF136
 2939 0859 0D       		.byte	0xd
 2940 085a A4       		.byte	0xa4
 2941 085b B8000000 		.4byte	0xb8
 2942 085f 06       		.uleb128 0x6
ARM GAS  C:\Users\tmj32\AppData\Local\Temp\ccmyxrAJ.s 			page 65


 2943 0860 0C       		.byte	0xc
 2944 0861 0D       		.byte	0xd
 2945 0862 A7       		.byte	0xa7
 2946 0863 B6080000 		.4byte	0x8b6
 2947 0867 07       		.uleb128 0x7
 2948 0868 010B0000 		.4byte	.LASF137
 2949 086c 0D       		.byte	0xd
 2950 086d A9       		.byte	0xa9
 2951 086e B6080000 		.4byte	0x8b6
 2952 0872 00       		.byte	0
 2953 0873 07       		.uleb128 0x7
 2954 0874 730A0000 		.4byte	.LASF138
 2955 0878 0D       		.byte	0xd
 2956 0879 AA       		.byte	0xaa
 2957 087a EF000000 		.4byte	0xef
 2958 087e 04       		.byte	0x4
 2959 087f 07       		.uleb128 0x7
 2960 0880 24030000 		.4byte	.LASF139
 2961 0884 0D       		.byte	0xd
 2962 0885 AB       		.byte	0xab
 2963 0886 EF000000 		.4byte	0xef
 2964 088a 06       		.byte	0x6
 2965 088b 07       		.uleb128 0x7
 2966 088c FE060000 		.4byte	.LASF140
 2967 0890 0D       		.byte	0xd
 2968 0891 AC       		.byte	0xac
 2969 0892 54080000 		.4byte	0x854
 2970 0896 08       		.byte	0x8
 2971 0897 0A       		.uleb128 0xa
 2972 0898 82070000 		.4byte	.LASF141
 2973 089c 0D       		.byte	0xd
 2974 089d AD       		.byte	0xad
 2975 089e B8000000 		.4byte	0xb8
 2976 08a2 01       		.byte	0x1
 2977 08a3 01       		.byte	0x1
 2978 08a4 07       		.byte	0x7
 2979 08a5 09       		.byte	0x9
 2980 08a6 0A       		.uleb128 0xa
 2981 08a7 C30C0000 		.4byte	.LASF142
 2982 08ab 0D       		.byte	0xd
 2983 08ac AE       		.byte	0xae
 2984 08ad B8000000 		.4byte	0xb8
 2985 08b1 01       		.byte	0x1
 2986 08b2 01       		.byte	0x1
 2987 08b3 06       		.byte	0x6
 2988 08b4 09       		.byte	0x9
 2989 08b5 00       		.byte	0
 2990 08b6 0D       		.uleb128 0xd
 2991 08b7 04       		.byte	0x4
 2992 08b8 BC080000 		.4byte	0x8bc
 2993 08bc 0E       		.uleb128 0xe
 2994 08bd D2050000 		.4byte	0x5d2
 2995 08c1 02       		.uleb128 0x2
 2996 08c2 CC000000 		.4byte	.LASF143
 2997 08c6 0D       		.byte	0xd
 2998 08c7 B0       		.byte	0xb0
 2999 08c8 5F080000 		.4byte	0x85f
ARM GAS  C:\Users\tmj32\AppData\Local\Temp\ccmyxrAJ.s 			page 66


 3000 08cc 02       		.uleb128 0x2
 3001 08cd 47080000 		.4byte	.LASF144
 3002 08d1 0D       		.byte	0xd
 3003 08d2 B9       		.byte	0xb9
 3004 08d3 B8000000 		.4byte	0xb8
 3005 08d7 0D       		.uleb128 0xd
 3006 08d8 04       		.byte	0x4
 3007 08d9 DD080000 		.4byte	0x8dd
 3008 08dd 0E       		.uleb128 0xe
 3009 08de 3E050000 		.4byte	0x53e
 3010 08e2 02       		.uleb128 0x2
 3011 08e3 780A0000 		.4byte	.LASF145
 3012 08e7 0D       		.byte	0xd
 3013 08e8 F0       		.byte	0xf0
 3014 08e9 D2050000 		.4byte	0x5d2
 3015 08ed 06       		.uleb128 0x6
 3016 08ee 0C       		.byte	0xc
 3017 08ef 0E       		.byte	0xe
 3018 08f0 22       		.byte	0x22
 3019 08f1 3E090000 		.4byte	0x93e
 3020 08f5 07       		.uleb128 0x7
 3021 08f6 FA0C0000 		.4byte	.LASF146
 3022 08fa 0E       		.byte	0xe
 3023 08fb 26       		.byte	0x26
 3024 08fc CE000000 		.4byte	0xce
 3025 0900 00       		.byte	0
 3026 0901 07       		.uleb128 0x7
 3027 0902 14000000 		.4byte	.LASF147
 3028 0906 0E       		.byte	0xe
 3029 0907 27       		.byte	0x27
 3030 0908 CE000000 		.4byte	0xce
 3031 090c 02       		.byte	0x2
 3032 090d 07       		.uleb128 0x7
 3033 090e 2E050000 		.4byte	.LASF148
 3034 0912 0E       		.byte	0xe
 3035 0913 28       		.byte	0x28
 3036 0914 CE000000 		.4byte	0xce
 3037 0918 04       		.byte	0x4
 3038 0919 07       		.uleb128 0x7
 3039 091a 71090000 		.4byte	.LASF149
 3040 091e 0E       		.byte	0xe
 3041 091f 29       		.byte	0x29
 3042 0920 C3000000 		.4byte	0xc3
 3043 0924 06       		.byte	0x6
 3044 0925 07       		.uleb128 0x7
 3045 0926 970A0000 		.4byte	.LASF150
 3046 092a 0E       		.byte	0xe
 3047 092b 2A       		.byte	0x2a
 3048 092c C3000000 		.4byte	0xc3
 3049 0930 08       		.byte	0x8
 3050 0931 07       		.uleb128 0x7
 3051 0932 B00B0000 		.4byte	.LASF151
 3052 0936 0E       		.byte	0xe
 3053 0937 2B       		.byte	0x2b
 3054 0938 C3000000 		.4byte	0xc3
 3055 093c 0A       		.byte	0xa
 3056 093d 00       		.byte	0
ARM GAS  C:\Users\tmj32\AppData\Local\Temp\ccmyxrAJ.s 			page 67


 3057 093e 02       		.uleb128 0x2
 3058 093f 36090000 		.4byte	.LASF152
 3059 0943 0E       		.byte	0xe
 3060 0944 2C       		.byte	0x2c
 3061 0945 ED080000 		.4byte	0x8ed
 3062 0949 13       		.uleb128 0x13
 3063 094a 01       		.byte	0x1
 3064 094b 42000000 		.4byte	0x42
 3065 094f 0F       		.byte	0xf
 3066 0950 2B       		.byte	0x2b
 3067 0951 74090000 		.4byte	0x974
 3068 0955 14       		.uleb128 0x14
 3069 0956 74030000 		.4byte	.LASF153
 3070 095a 00       		.byte	0
 3071 095b 14       		.uleb128 0x14
 3072 095c 12020000 		.4byte	.LASF154
 3073 0960 01       		.byte	0x1
 3074 0961 14       		.uleb128 0x14
 3075 0962 1B050000 		.4byte	.LASF155
 3076 0966 02       		.byte	0x2
 3077 0967 14       		.uleb128 0x14
 3078 0968 53040000 		.4byte	.LASF156
 3079 096c 04       		.byte	0x4
 3080 096d 14       		.uleb128 0x14
 3081 096e E4010000 		.4byte	.LASF157
 3082 0972 08       		.byte	0x8
 3083 0973 00       		.byte	0
 3084 0974 06       		.uleb128 0x6
 3085 0975 18       		.byte	0x18
 3086 0976 01       		.byte	0x1
 3087 0977 2B       		.byte	0x2b
 3088 0978 B9090000 		.4byte	0x9b9
 3089 097c 07       		.uleb128 0x7
 3090 097d A9000000 		.4byte	.LASF158
 3091 0981 01       		.byte	0x1
 3092 0982 2D       		.byte	0x2d
 3093 0983 3E090000 		.4byte	0x93e
 3094 0987 00       		.byte	0
 3095 0988 07       		.uleb128 0x7
 3096 0989 610A0000 		.4byte	.LASF159
 3097 098d 01       		.byte	0x1
 3098 098e 2F       		.byte	0x2f
 3099 098f B9090000 		.4byte	0x9b9
 3100 0993 0C       		.byte	0xc
 3101 0994 07       		.uleb128 0x7
 3102 0995 A1040000 		.4byte	.LASF160
 3103 0999 01       		.byte	0x1
 3104 099a 30       		.byte	0x30
 3105 099b BF090000 		.4byte	0x9bf
 3106 099f 10       		.byte	0x10
 3107 09a0 07       		.uleb128 0x7
 3108 09a1 07000000 		.4byte	.LASF161
 3109 09a5 01       		.byte	0x1
 3110 09a6 31       		.byte	0x31
 3111 09a7 B8000000 		.4byte	0xb8
 3112 09ab 14       		.byte	0x14
 3113 09ac 07       		.uleb128 0x7
ARM GAS  C:\Users\tmj32\AppData\Local\Temp\ccmyxrAJ.s 			page 68


 3114 09ad EE0C0000 		.4byte	.LASF162
 3115 09b1 01       		.byte	0x1
 3116 09b2 32       		.byte	0x32
 3117 09b3 B8000000 		.4byte	0xb8
 3118 09b7 15       		.byte	0x15
 3119 09b8 00       		.byte	0
 3120 09b9 0D       		.uleb128 0xd
 3121 09ba 04       		.byte	0x4
 3122 09bb C3000000 		.4byte	0xc3
 3123 09bf 0D       		.uleb128 0xd
 3124 09c0 04       		.byte	0x4
 3125 09c1 C5090000 		.4byte	0x9c5
 3126 09c5 0E       		.uleb128 0xe
 3127 09c6 85020000 		.4byte	0x285
 3128 09ca 02       		.uleb128 0x2
 3129 09cb 280B0000 		.4byte	.LASF163
 3130 09cf 01       		.byte	0x1
 3131 09d0 33       		.byte	0x33
 3132 09d1 74090000 		.4byte	0x974
 3133 09d5 13       		.uleb128 0x13
 3134 09d6 01       		.byte	0x1
 3135 09d7 42000000 		.4byte	0x42
 3136 09db 01       		.byte	0x1
 3137 09dc 36       		.byte	0x36
 3138 09dd E8090000 		.4byte	0x9e8
 3139 09e1 14       		.uleb128 0x14
 3140 09e2 0A070000 		.4byte	.LASF164
 3141 09e6 00       		.byte	0
 3142 09e7 00       		.byte	0
 3143 09e8 02       		.uleb128 0x2
 3144 09e9 410C0000 		.4byte	.LASF165
 3145 09ed 01       		.byte	0x1
 3146 09ee 39       		.byte	0x39
 3147 09ef B8000000 		.4byte	0xb8
 3148 09f3 06       		.uleb128 0x6
 3149 09f4 14       		.byte	0x14
 3150 09f5 10       		.byte	0x10
 3151 09f6 34       		.byte	0x34
 3152 09f7 370A0000 		.4byte	0xa37
 3153 09fb 08       		.uleb128 0x8
 3154 09fc 72656C00 		.ascii	"rel\000"
 3155 0a00 10       		.byte	0x10
 3156 0a01 36       		.byte	0x36
 3157 0a02 49050000 		.4byte	0x549
 3158 0a06 00       		.byte	0
 3159 0a07 08       		.uleb128 0x8
 3160 0a08 707200   		.ascii	"pr\000"
 3161 0a0b 10       		.byte	0x10
 3162 0a0c 37       		.byte	0x37
 3163 0a0d 49050000 		.4byte	0x549
 3164 0a11 04       		.byte	0x4
 3165 0a12 07       		.uleb128 0x7
 3166 0a13 59070000 		.4byte	.LASF166
 3167 0a17 10       		.byte	0x10
 3168 0a18 38       		.byte	0x38
 3169 0a19 49050000 		.4byte	0x549
 3170 0a1d 08       		.byte	0x8
ARM GAS  C:\Users\tmj32\AppData\Local\Temp\ccmyxrAJ.s 			page 69


 3171 0a1e 07       		.uleb128 0x7
 3172 0a1f 44020000 		.4byte	.LASF167
 3173 0a23 10       		.byte	0x10
 3174 0a24 39       		.byte	0x39
 3175 0a25 49050000 		.4byte	0x549
 3176 0a29 0C       		.byte	0xc
 3177 0a2a 08       		.uleb128 0x8
 3178 0a2b 696E6100 		.ascii	"ina\000"
 3179 0a2f 10       		.byte	0x10
 3180 0a30 3A       		.byte	0x3a
 3181 0a31 49050000 		.4byte	0x549
 3182 0a35 10       		.byte	0x10
 3183 0a36 00       		.byte	0
 3184 0a37 06       		.uleb128 0x6
 3185 0a38 14       		.byte	0x14
 3186 0a39 10       		.byte	0x10
 3187 0a3a 3F       		.byte	0x3f
 3188 0a3b 7B0A0000 		.4byte	0xa7b
 3189 0a3f 08       		.uleb128 0x8
 3190 0a40 72656C00 		.ascii	"rel\000"
 3191 0a44 10       		.byte	0x10
 3192 0a45 41       		.byte	0x41
 3193 0a46 49050000 		.4byte	0x549
 3194 0a4a 00       		.byte	0
 3195 0a4b 08       		.uleb128 0x8
 3196 0a4c 707200   		.ascii	"pr\000"
 3197 0a4f 10       		.byte	0x10
 3198 0a50 42       		.byte	0x42
 3199 0a51 49050000 		.4byte	0x549
 3200 0a55 04       		.byte	0x4
 3201 0a56 07       		.uleb128 0x7
 3202 0a57 59070000 		.4byte	.LASF166
 3203 0a5b 10       		.byte	0x10
 3204 0a5c 43       		.byte	0x43
 3205 0a5d 49050000 		.4byte	0x549
 3206 0a61 08       		.byte	0x8
 3207 0a62 07       		.uleb128 0x7
 3208 0a63 44020000 		.4byte	.LASF167
 3209 0a67 10       		.byte	0x10
 3210 0a68 44       		.byte	0x44
 3211 0a69 49050000 		.4byte	0x549
 3212 0a6d 0C       		.byte	0xc
 3213 0a6e 08       		.uleb128 0x8
 3214 0a6f 696E6100 		.ascii	"ina\000"
 3215 0a73 10       		.byte	0x10
 3216 0a74 45       		.byte	0x45
 3217 0a75 49050000 		.4byte	0x549
 3218 0a79 10       		.byte	0x10
 3219 0a7a 00       		.byte	0
 3220 0a7b 06       		.uleb128 0x6
 3221 0a7c 0C       		.byte	0xc
 3222 0a7d 10       		.byte	0x10
 3223 0a7e 4A       		.byte	0x4a
 3224 0a7f A80A0000 		.4byte	0xaa8
 3225 0a83 07       		.uleb128 0x7
 3226 0a84 A6010000 		.4byte	.LASF168
 3227 0a88 10       		.byte	0x10
ARM GAS  C:\Users\tmj32\AppData\Local\Temp\ccmyxrAJ.s 			page 70


 3228 0a89 4C       		.byte	0x4c
 3229 0a8a 49050000 		.4byte	0x549
 3230 0a8e 00       		.byte	0
 3231 0a8f 08       		.uleb128 0x8
 3232 0a90 73656300 		.ascii	"sec\000"
 3233 0a94 10       		.byte	0x10
 3234 0a95 4D       		.byte	0x4d
 3235 0a96 49050000 		.4byte	0x549
 3236 0a9a 04       		.byte	0x4
 3237 0a9b 07       		.uleb128 0x7
 3238 0a9c EA040000 		.4byte	.LASF169
 3239 0aa0 10       		.byte	0x10
 3240 0aa1 4E       		.byte	0x4e
 3241 0aa2 49050000 		.4byte	0x549
 3242 0aa6 08       		.byte	0x8
 3243 0aa7 00       		.byte	0
 3244 0aa8 06       		.uleb128 0x6
 3245 0aa9 08       		.byte	0x8
 3246 0aaa 10       		.byte	0x10
 3247 0aab 53       		.byte	0x53
 3248 0aac C90A0000 		.4byte	0xac9
 3249 0ab0 07       		.uleb128 0x7
 3250 0ab1 9B010000 		.4byte	.LASF170
 3251 0ab5 10       		.byte	0x10
 3252 0ab6 55       		.byte	0x55
 3253 0ab7 49050000 		.4byte	0x549
 3254 0abb 00       		.byte	0
 3255 0abc 07       		.uleb128 0x7
 3256 0abd 030C0000 		.4byte	.LASF171
 3257 0ac1 10       		.byte	0x10
 3258 0ac2 56       		.byte	0x56
 3259 0ac3 49050000 		.4byte	0x549
 3260 0ac7 04       		.byte	0x4
 3261 0ac8 00       		.byte	0
 3262 0ac9 06       		.uleb128 0x6
 3263 0aca 04       		.byte	0x4
 3264 0acb 10       		.byte	0x10
 3265 0acc 5B       		.byte	0x5b
 3266 0acd DE0A0000 		.4byte	0xade
 3267 0ad1 07       		.uleb128 0x7
 3268 0ad2 2E0A0000 		.4byte	.LASF172
 3269 0ad6 10       		.byte	0x10
 3270 0ad7 5D       		.byte	0x5d
 3271 0ad8 49050000 		.4byte	0x549
 3272 0adc 00       		.byte	0
 3273 0add 00       		.byte	0
 3274 0ade 06       		.uleb128 0x6
 3275 0adf 08       		.byte	0x8
 3276 0ae0 10       		.byte	0x10
 3277 0ae1 66       		.byte	0x66
 3278 0ae2 FE0A0000 		.4byte	0xafe
 3279 0ae6 08       		.uleb128 0x8
 3280 0ae7 626700   		.ascii	"bg\000"
 3281 0aea 10       		.byte	0x10
 3282 0aeb 68       		.byte	0x68
 3283 0aec 49050000 		.4byte	0x549
 3284 0af0 00       		.byte	0
ARM GAS  C:\Users\tmj32\AppData\Local\Temp\ccmyxrAJ.s 			page 71


 3285 0af1 07       		.uleb128 0x7
 3286 0af2 99060000 		.4byte	.LASF173
 3287 0af6 10       		.byte	0x10
 3288 0af7 69       		.byte	0x69
 3289 0af8 49050000 		.4byte	0x549
 3290 0afc 04       		.byte	0x4
 3291 0afd 00       		.byte	0
 3292 0afe 06       		.uleb128 0x6
 3293 0aff 0C       		.byte	0xc
 3294 0b00 10       		.byte	0x10
 3295 0b01 6E       		.byte	0x6e
 3296 0b02 2A0B0000 		.4byte	0xb2a
 3297 0b06 08       		.uleb128 0x8
 3298 0b07 626700   		.ascii	"bg\000"
 3299 0b0a 10       		.byte	0x10
 3300 0b0b 70       		.byte	0x70
 3301 0b0c 49050000 		.4byte	0x549
 3302 0b10 00       		.byte	0
 3303 0b11 07       		.uleb128 0x7
 3304 0b12 99060000 		.4byte	.LASF173
 3305 0b16 10       		.byte	0x10
 3306 0b17 71       		.byte	0x71
 3307 0b18 49050000 		.4byte	0x549
 3308 0b1c 04       		.byte	0x4
 3309 0b1d 07       		.uleb128 0x7
 3310 0b1e CF0C0000 		.4byte	.LASF174
 3311 0b22 10       		.byte	0x10
 3312 0b23 72       		.byte	0x72
 3313 0b24 49050000 		.4byte	0x549
 3314 0b28 08       		.byte	0x8
 3315 0b29 00       		.byte	0
 3316 0b2a 06       		.uleb128 0x6
 3317 0b2b 10       		.byte	0x10
 3318 0b2c 10       		.byte	0x10
 3319 0b2d 87       		.byte	0x87
 3320 0b2e 620B0000 		.4byte	0xb62
 3321 0b32 08       		.uleb128 0x8
 3322 0b33 626700   		.ascii	"bg\000"
 3323 0b36 10       		.byte	0x10
 3324 0b37 89       		.byte	0x89
 3325 0b38 49050000 		.4byte	0x549
 3326 0b3c 00       		.byte	0
 3327 0b3d 07       		.uleb128 0x7
 3328 0b3e 99060000 		.4byte	.LASF173
 3329 0b42 10       		.byte	0x10
 3330 0b43 8A       		.byte	0x8a
 3331 0b44 49050000 		.4byte	0x549
 3332 0b48 04       		.byte	0x4
 3333 0b49 07       		.uleb128 0x7
 3334 0b4a EC070000 		.4byte	.LASF175
 3335 0b4e 10       		.byte	0x10
 3336 0b4f 8B       		.byte	0x8b
 3337 0b50 49050000 		.4byte	0x549
 3338 0b54 08       		.byte	0x8
 3339 0b55 07       		.uleb128 0x7
 3340 0b56 CA020000 		.4byte	.LASF176
 3341 0b5a 10       		.byte	0x10
ARM GAS  C:\Users\tmj32\AppData\Local\Temp\ccmyxrAJ.s 			page 72


 3342 0b5b 8C       		.byte	0x8c
 3343 0b5c 49050000 		.4byte	0x549
 3344 0b60 0C       		.byte	0xc
 3345 0b61 00       		.byte	0
 3346 0b62 06       		.uleb128 0x6
 3347 0b63 20       		.byte	0x20
 3348 0b64 10       		.byte	0x10
 3349 0b65 95       		.byte	0x95
 3350 0b66 CA0B0000 		.4byte	0xbca
 3351 0b6a 08       		.uleb128 0x8
 3352 0b6b 626700   		.ascii	"bg\000"
 3353 0b6e 10       		.byte	0x10
 3354 0b6f 97       		.byte	0x97
 3355 0b70 49050000 		.4byte	0x549
 3356 0b74 00       		.byte	0
 3357 0b75 07       		.uleb128 0x7
 3358 0b76 DE020000 		.4byte	.LASF177
 3359 0b7a 10       		.byte	0x10
 3360 0b7b 98       		.byte	0x98
 3361 0b7c 49050000 		.4byte	0x549
 3362 0b80 04       		.byte	0x4
 3363 0b81 07       		.uleb128 0x7
 3364 0b82 31000000 		.4byte	.LASF178
 3365 0b86 10       		.byte	0x10
 3366 0b87 99       		.byte	0x99
 3367 0b88 49050000 		.4byte	0x549
 3368 0b8c 08       		.byte	0x8
 3369 0b8d 07       		.uleb128 0x7
 3370 0b8e 860B0000 		.4byte	.LASF179
 3371 0b92 10       		.byte	0x10
 3372 0b93 9A       		.byte	0x9a
 3373 0b94 49050000 		.4byte	0x549
 3374 0b98 0C       		.byte	0xc
 3375 0b99 07       		.uleb128 0x7
 3376 0b9a 3B010000 		.4byte	.LASF180
 3377 0b9e 10       		.byte	0x10
 3378 0b9f 9B       		.byte	0x9b
 3379 0ba0 49050000 		.4byte	0x549
 3380 0ba4 10       		.byte	0x10
 3381 0ba5 07       		.uleb128 0x7
 3382 0ba6 FF030000 		.4byte	.LASF181
 3383 0baa 10       		.byte	0x10
 3384 0bab 9C       		.byte	0x9c
 3385 0bac 49050000 		.4byte	0x549
 3386 0bb0 14       		.byte	0x14
 3387 0bb1 07       		.uleb128 0x7
 3388 0bb2 4D030000 		.4byte	.LASF182
 3389 0bb6 10       		.byte	0x10
 3390 0bb7 9D       		.byte	0x9d
 3391 0bb8 49050000 		.4byte	0x549
 3392 0bbc 18       		.byte	0x18
 3393 0bbd 07       		.uleb128 0x7
 3394 0bbe 3A020000 		.4byte	.LASF183
 3395 0bc2 10       		.byte	0x10
 3396 0bc3 9E       		.byte	0x9e
 3397 0bc4 49050000 		.4byte	0x549
 3398 0bc8 1C       		.byte	0x1c
ARM GAS  C:\Users\tmj32\AppData\Local\Temp\ccmyxrAJ.s 			page 73


 3399 0bc9 00       		.byte	0
 3400 0bca 06       		.uleb128 0x6
 3401 0bcb 14       		.byte	0x14
 3402 0bcc 10       		.byte	0x10
 3403 0bcd A6       		.byte	0xa6
 3404 0bce 0E0C0000 		.4byte	0xc0e
 3405 0bd2 08       		.uleb128 0x8
 3406 0bd3 72656C00 		.ascii	"rel\000"
 3407 0bd7 10       		.byte	0x10
 3408 0bd8 A8       		.byte	0xa8
 3409 0bd9 49050000 		.4byte	0x549
 3410 0bdd 00       		.byte	0
 3411 0bde 08       		.uleb128 0x8
 3412 0bdf 707200   		.ascii	"pr\000"
 3413 0be2 10       		.byte	0x10
 3414 0be3 A9       		.byte	0xa9
 3415 0be4 49050000 		.4byte	0x549
 3416 0be8 04       		.byte	0x4
 3417 0be9 07       		.uleb128 0x7
 3418 0bea 59070000 		.4byte	.LASF166
 3419 0bee 10       		.byte	0x10
 3420 0bef AA       		.byte	0xaa
 3421 0bf0 49050000 		.4byte	0x549
 3422 0bf4 08       		.byte	0x8
 3423 0bf5 07       		.uleb128 0x7
 3424 0bf6 44020000 		.4byte	.LASF167
 3425 0bfa 10       		.byte	0x10
 3426 0bfb AB       		.byte	0xab
 3427 0bfc 49050000 		.4byte	0x549
 3428 0c00 0C       		.byte	0xc
 3429 0c01 08       		.uleb128 0x8
 3430 0c02 696E6100 		.ascii	"ina\000"
 3431 0c06 10       		.byte	0x10
 3432 0c07 AC       		.byte	0xac
 3433 0c08 49050000 		.4byte	0x549
 3434 0c0c 10       		.byte	0x10
 3435 0c0d 00       		.byte	0
 3436 0c0e 06       		.uleb128 0x6
 3437 0c0f 18       		.byte	0x18
 3438 0c10 10       		.byte	0x10
 3439 0c11 A3       		.byte	0xa3
 3440 0c12 2E0C0000 		.4byte	0xc2e
 3441 0c16 08       		.uleb128 0x8
 3442 0c17 626700   		.ascii	"bg\000"
 3443 0c1a 10       		.byte	0x10
 3444 0c1b A5       		.byte	0xa5
 3445 0c1c 49050000 		.4byte	0x549
 3446 0c20 00       		.byte	0
 3447 0c21 08       		.uleb128 0x8
 3448 0c22 626F7800 		.ascii	"box\000"
 3449 0c26 10       		.byte	0x10
 3450 0c27 AD       		.byte	0xad
 3451 0c28 CA0B0000 		.4byte	0xbca
 3452 0c2c 04       		.byte	0x4
 3453 0c2d 00       		.byte	0
 3454 0c2e 06       		.uleb128 0x6
 3455 0c2f 14       		.byte	0x14
ARM GAS  C:\Users\tmj32\AppData\Local\Temp\ccmyxrAJ.s 			page 74


 3456 0c30 10       		.byte	0x10
 3457 0c31 B5       		.byte	0xb5
 3458 0c32 720C0000 		.4byte	0xc72
 3459 0c36 08       		.uleb128 0x8
 3460 0c37 72656C00 		.ascii	"rel\000"
 3461 0c3b 10       		.byte	0x10
 3462 0c3c B7       		.byte	0xb7
 3463 0c3d 49050000 		.4byte	0x549
 3464 0c41 00       		.byte	0
 3465 0c42 08       		.uleb128 0x8
 3466 0c43 707200   		.ascii	"pr\000"
 3467 0c46 10       		.byte	0x10
 3468 0c47 B8       		.byte	0xb8
 3469 0c48 49050000 		.4byte	0x549
 3470 0c4c 04       		.byte	0x4
 3471 0c4d 07       		.uleb128 0x7
 3472 0c4e 59070000 		.4byte	.LASF166
 3473 0c52 10       		.byte	0x10
 3474 0c53 B9       		.byte	0xb9
 3475 0c54 49050000 		.4byte	0x549
 3476 0c58 08       		.byte	0x8
 3477 0c59 07       		.uleb128 0x7
 3478 0c5a 44020000 		.4byte	.LASF167
 3479 0c5e 10       		.byte	0x10
 3480 0c5f BA       		.byte	0xba
 3481 0c60 49050000 		.4byte	0x549
 3482 0c64 0C       		.byte	0xc
 3483 0c65 08       		.uleb128 0x8
 3484 0c66 696E6100 		.ascii	"ina\000"
 3485 0c6a 10       		.byte	0x10
 3486 0c6b BB       		.byte	0xbb
 3487 0c6c 49050000 		.4byte	0x549
 3488 0c70 10       		.byte	0x10
 3489 0c71 00       		.byte	0
 3490 0c72 06       		.uleb128 0x6
 3491 0c73 18       		.byte	0x18
 3492 0c74 10       		.byte	0x10
 3493 0c75 B2       		.byte	0xb2
 3494 0c76 920C0000 		.4byte	0xc92
 3495 0c7a 08       		.uleb128 0x8
 3496 0c7b 626700   		.ascii	"bg\000"
 3497 0c7e 10       		.byte	0x10
 3498 0c7f B4       		.byte	0xb4
 3499 0c80 49050000 		.4byte	0x549
 3500 0c84 00       		.byte	0
 3501 0c85 08       		.uleb128 0x8
 3502 0c86 62746E00 		.ascii	"btn\000"
 3503 0c8a 10       		.byte	0x10
 3504 0c8b BC       		.byte	0xbc
 3505 0c8c 2E0C0000 		.4byte	0xc2e
 3506 0c90 04       		.byte	0x4
 3507 0c91 00       		.byte	0
 3508 0c92 06       		.uleb128 0x6
 3509 0c93 14       		.byte	0x14
 3510 0c94 10       		.byte	0x10
 3511 0c95 C4       		.byte	0xc4
 3512 0c96 D60C0000 		.4byte	0xcd6
ARM GAS  C:\Users\tmj32\AppData\Local\Temp\ccmyxrAJ.s 			page 75


 3513 0c9a 08       		.uleb128 0x8
 3514 0c9b 72656C00 		.ascii	"rel\000"
 3515 0c9f 10       		.byte	0x10
 3516 0ca0 C6       		.byte	0xc6
 3517 0ca1 49050000 		.4byte	0x549
 3518 0ca5 00       		.byte	0
 3519 0ca6 08       		.uleb128 0x8
 3520 0ca7 707200   		.ascii	"pr\000"
 3521 0caa 10       		.byte	0x10
 3522 0cab C7       		.byte	0xc7
 3523 0cac 49050000 		.4byte	0x549
 3524 0cb0 04       		.byte	0x4
 3525 0cb1 07       		.uleb128 0x7
 3526 0cb2 59070000 		.4byte	.LASF166
 3527 0cb6 10       		.byte	0x10
 3528 0cb7 C8       		.byte	0xc8
 3529 0cb8 49050000 		.4byte	0x549
 3530 0cbc 08       		.byte	0x8
 3531 0cbd 07       		.uleb128 0x7
 3532 0cbe 44020000 		.4byte	.LASF167
 3533 0cc2 10       		.byte	0x10
 3534 0cc3 C9       		.byte	0xc9
 3535 0cc4 49050000 		.4byte	0x549
 3536 0cc8 0C       		.byte	0xc
 3537 0cc9 08       		.uleb128 0x8
 3538 0cca 696E6100 		.ascii	"ina\000"
 3539 0cce 10       		.byte	0x10
 3540 0ccf CA       		.byte	0xca
 3541 0cd0 49050000 		.4byte	0x549
 3542 0cd4 10       		.byte	0x10
 3543 0cd5 00       		.byte	0
 3544 0cd6 06       		.uleb128 0x6
 3545 0cd7 18       		.byte	0x18
 3546 0cd8 10       		.byte	0x10
 3547 0cd9 C1       		.byte	0xc1
 3548 0cda F60C0000 		.4byte	0xcf6
 3549 0cde 08       		.uleb128 0x8
 3550 0cdf 626700   		.ascii	"bg\000"
 3551 0ce2 10       		.byte	0x10
 3552 0ce3 C3       		.byte	0xc3
 3553 0ce4 49050000 		.4byte	0x549
 3554 0ce8 00       		.byte	0
 3555 0ce9 08       		.uleb128 0x8
 3556 0cea 62746E00 		.ascii	"btn\000"
 3557 0cee 10       		.byte	0x10
 3558 0cef CB       		.byte	0xcb
 3559 0cf0 920C0000 		.4byte	0xc92
 3560 0cf4 04       		.byte	0x4
 3561 0cf5 00       		.byte	0
 3562 0cf6 06       		.uleb128 0x6
 3563 0cf7 0C       		.byte	0xc
 3564 0cf8 10       		.byte	0x10
 3565 0cf9 D3       		.byte	0xd3
 3566 0cfa 210D0000 		.4byte	0xd21
 3567 0cfe 08       		.uleb128 0x8
 3568 0cff 626700   		.ascii	"bg\000"
 3569 0d02 10       		.byte	0x10
ARM GAS  C:\Users\tmj32\AppData\Local\Temp\ccmyxrAJ.s 			page 76


 3570 0d03 D5       		.byte	0xd5
 3571 0d04 49050000 		.4byte	0x549
 3572 0d08 00       		.byte	0
 3573 0d09 08       		.uleb128 0x8
 3574 0d0a 72656C00 		.ascii	"rel\000"
 3575 0d0e 10       		.byte	0x10
 3576 0d0f D6       		.byte	0xd6
 3577 0d10 49050000 		.4byte	0x549
 3578 0d14 04       		.byte	0x4
 3579 0d15 08       		.uleb128 0x8
 3580 0d16 707200   		.ascii	"pr\000"
 3581 0d19 10       		.byte	0x10
 3582 0d1a D7       		.byte	0xd7
 3583 0d1b 49050000 		.4byte	0x549
 3584 0d1f 08       		.byte	0x8
 3585 0d20 00       		.byte	0
 3586 0d21 06       		.uleb128 0x6
 3587 0d22 10       		.byte	0x10
 3588 0d23 10       		.byte	0x10
 3589 0d24 D0       		.byte	0xd0
 3590 0d25 410D0000 		.4byte	0xd41
 3591 0d29 08       		.uleb128 0x8
 3592 0d2a 626700   		.ascii	"bg\000"
 3593 0d2d 10       		.byte	0x10
 3594 0d2e D2       		.byte	0xd2
 3595 0d2f 49050000 		.4byte	0x549
 3596 0d33 00       		.byte	0
 3597 0d34 08       		.uleb128 0x8
 3598 0d35 62746E00 		.ascii	"btn\000"
 3599 0d39 10       		.byte	0x10
 3600 0d3a D8       		.byte	0xd8
 3601 0d3b F60C0000 		.4byte	0xcf6
 3602 0d3f 04       		.byte	0x4
 3603 0d40 00       		.byte	0
 3604 0d41 06       		.uleb128 0x6
 3605 0d42 0C       		.byte	0xc
 3606 0d43 10       		.byte	0x10
 3607 0d44 DD       		.byte	0xdd
 3608 0d45 6C0D0000 		.4byte	0xd6c
 3609 0d49 08       		.uleb128 0x8
 3610 0d4a 626700   		.ascii	"bg\000"
 3611 0d4d 10       		.byte	0x10
 3612 0d4e DF       		.byte	0xdf
 3613 0d4f 49050000 		.4byte	0x549
 3614 0d53 00       		.byte	0
 3615 0d54 07       		.uleb128 0x7
 3616 0d55 74020000 		.4byte	.LASF184
 3617 0d59 10       		.byte	0x10
 3618 0d5a E0       		.byte	0xe0
 3619 0d5b 49050000 		.4byte	0x549
 3620 0d5f 04       		.byte	0x4
 3621 0d60 08       		.uleb128 0x8
 3622 0d61 736200   		.ascii	"sb\000"
 3623 0d64 10       		.byte	0x10
 3624 0d65 E1       		.byte	0xe1
 3625 0d66 49050000 		.4byte	0x549
 3626 0d6a 08       		.byte	0x8
ARM GAS  C:\Users\tmj32\AppData\Local\Temp\ccmyxrAJ.s 			page 77


 3627 0d6b 00       		.byte	0
 3628 0d6c 06       		.uleb128 0x6
 3629 0d6d 10       		.byte	0x10
 3630 0d6e 10       		.byte	0x10
 3631 0d6f E6       		.byte	0xe6
 3632 0d70 A40D0000 		.4byte	0xda4
 3633 0d74 07       		.uleb128 0x7
 3634 0d75 AF040000 		.4byte	.LASF185
 3635 0d79 10       		.byte	0x10
 3636 0d7a E8       		.byte	0xe8
 3637 0d7b 49050000 		.4byte	0x549
 3638 0d7f 00       		.byte	0
 3639 0d80 07       		.uleb128 0x7
 3640 0d81 8C050000 		.4byte	.LASF186
 3641 0d85 10       		.byte	0x10
 3642 0d86 E9       		.byte	0xe9
 3643 0d87 49050000 		.4byte	0x549
 3644 0d8b 04       		.byte	0x4
 3645 0d8c 07       		.uleb128 0x7
 3646 0d8d 120D0000 		.4byte	.LASF187
 3647 0d91 10       		.byte	0x10
 3648 0d92 EA       		.byte	0xea
 3649 0d93 49050000 		.4byte	0x549
 3650 0d97 08       		.byte	0x8
 3651 0d98 08       		.uleb128 0x8
 3652 0d99 736200   		.ascii	"sb\000"
 3653 0d9c 10       		.byte	0x10
 3654 0d9d EB       		.byte	0xeb
 3655 0d9e 49050000 		.4byte	0x549
 3656 0da2 0C       		.byte	0xc
 3657 0da3 00       		.byte	0
 3658 0da4 06       		.uleb128 0x6
 3659 0da5 0C       		.byte	0xc
 3660 0da6 10       		.byte	0x10
 3661 0da7 F0       		.byte	0xf0
 3662 0da8 CF0D0000 		.4byte	0xdcf
 3663 0dac 08       		.uleb128 0x8
 3664 0dad 626700   		.ascii	"bg\000"
 3665 0db0 10       		.byte	0x10
 3666 0db1 F2       		.byte	0xf2
 3667 0db2 49050000 		.4byte	0x549
 3668 0db6 00       		.byte	0
 3669 0db7 07       		.uleb128 0x7
 3670 0db8 120D0000 		.4byte	.LASF187
 3671 0dbc 10       		.byte	0x10
 3672 0dbd F3       		.byte	0xf3
 3673 0dbe 49050000 		.4byte	0x549
 3674 0dc2 04       		.byte	0x4
 3675 0dc3 08       		.uleb128 0x8
 3676 0dc4 736200   		.ascii	"sb\000"
 3677 0dc7 10       		.byte	0x10
 3678 0dc8 F4       		.byte	0xf4
 3679 0dc9 49050000 		.4byte	0x549
 3680 0dcd 08       		.byte	0x8
 3681 0dce 00       		.byte	0
 3682 0dcf 06       		.uleb128 0x6
 3683 0dd0 14       		.byte	0x14
ARM GAS  C:\Users\tmj32\AppData\Local\Temp\ccmyxrAJ.s 			page 78


 3684 0dd1 10       		.byte	0x10
 3685 0dd2 FE       		.byte	0xfe
 3686 0dd3 180E0000 		.4byte	0xe18
 3687 0dd7 17       		.uleb128 0x17
 3688 0dd8 72656C00 		.ascii	"rel\000"
 3689 0ddc 10       		.byte	0x10
 3690 0ddd 0001     		.2byte	0x100
 3691 0ddf 49050000 		.4byte	0x549
 3692 0de3 00       		.byte	0
 3693 0de4 17       		.uleb128 0x17
 3694 0de5 707200   		.ascii	"pr\000"
 3695 0de8 10       		.byte	0x10
 3696 0de9 0101     		.2byte	0x101
 3697 0deb 49050000 		.4byte	0x549
 3698 0def 04       		.byte	0x4
 3699 0df0 18       		.uleb128 0x18
 3700 0df1 59070000 		.4byte	.LASF166
 3701 0df5 10       		.byte	0x10
 3702 0df6 0201     		.2byte	0x102
 3703 0df8 49050000 		.4byte	0x549
 3704 0dfc 08       		.byte	0x8
 3705 0dfd 18       		.uleb128 0x18
 3706 0dfe 44020000 		.4byte	.LASF167
 3707 0e02 10       		.byte	0x10
 3708 0e03 0301     		.2byte	0x103
 3709 0e05 49050000 		.4byte	0x549
 3710 0e09 0C       		.byte	0xc
 3711 0e0a 17       		.uleb128 0x17
 3712 0e0b 696E6100 		.ascii	"ina\000"
 3713 0e0f 10       		.byte	0x10
 3714 0e10 0401     		.2byte	0x104
 3715 0e12 49050000 		.4byte	0x549
 3716 0e16 10       		.byte	0x10
 3717 0e17 00       		.byte	0
 3718 0e18 06       		.uleb128 0x6
 3719 0e19 20       		.byte	0x20
 3720 0e1a 10       		.byte	0x10
 3721 0e1b F9       		.byte	0xf9
 3722 0e1c 500E0000 		.4byte	0xe50
 3723 0e20 08       		.uleb128 0x8
 3724 0e21 626700   		.ascii	"bg\000"
 3725 0e24 10       		.byte	0x10
 3726 0e25 FB       		.byte	0xfb
 3727 0e26 49050000 		.4byte	0x549
 3728 0e2a 00       		.byte	0
 3729 0e2b 07       		.uleb128 0x7
 3730 0e2c 74020000 		.4byte	.LASF184
 3731 0e30 10       		.byte	0x10
 3732 0e31 FC       		.byte	0xfc
 3733 0e32 49050000 		.4byte	0x549
 3734 0e36 04       		.byte	0x4
 3735 0e37 08       		.uleb128 0x8
 3736 0e38 736200   		.ascii	"sb\000"
 3737 0e3b 10       		.byte	0x10
 3738 0e3c FD       		.byte	0xfd
 3739 0e3d 49050000 		.4byte	0x549
 3740 0e41 08       		.byte	0x8
ARM GAS  C:\Users\tmj32\AppData\Local\Temp\ccmyxrAJ.s 			page 79


 3741 0e42 17       		.uleb128 0x17
 3742 0e43 62746E00 		.ascii	"btn\000"
 3743 0e47 10       		.byte	0x10
 3744 0e48 0501     		.2byte	0x105
 3745 0e4a CF0D0000 		.4byte	0xdcf
 3746 0e4e 0C       		.byte	0xc
 3747 0e4f 00       		.byte	0
 3748 0e50 19       		.uleb128 0x19
 3749 0e51 0C       		.byte	0xc
 3750 0e52 10       		.byte	0x10
 3751 0e53 0A01     		.2byte	0x10a
 3752 0e55 7F0E0000 		.4byte	0xe7f
 3753 0e59 17       		.uleb128 0x17
 3754 0e5a 626700   		.ascii	"bg\000"
 3755 0e5d 10       		.byte	0x10
 3756 0e5e 0C01     		.2byte	0x10c
 3757 0e60 49050000 		.4byte	0x549
 3758 0e64 00       		.byte	0
 3759 0e65 17       		.uleb128 0x17
 3760 0e66 73656C00 		.ascii	"sel\000"
 3761 0e6a 10       		.byte	0x10
 3762 0e6b 0D01     		.2byte	0x10d
 3763 0e6d 49050000 		.4byte	0x549
 3764 0e71 04       		.byte	0x4
 3765 0e72 17       		.uleb128 0x17
 3766 0e73 736200   		.ascii	"sb\000"
 3767 0e76 10       		.byte	0x10
 3768 0e77 0E01     		.2byte	0x10e
 3769 0e79 49050000 		.4byte	0x549
 3770 0e7d 08       		.byte	0x8
 3771 0e7e 00       		.byte	0
 3772 0e7f 19       		.uleb128 0x19
 3773 0e80 08       		.byte	0x8
 3774 0e81 10       		.byte	0x10
 3775 0e82 1301     		.2byte	0x113
 3776 0e84 A20E0000 		.4byte	0xea2
 3777 0e88 17       		.uleb128 0x17
 3778 0e89 626700   		.ascii	"bg\000"
 3779 0e8c 10       		.byte	0x10
 3780 0e8d 1501     		.2byte	0x115
 3781 0e8f 49050000 		.4byte	0x549
 3782 0e93 00       		.byte	0
 3783 0e94 17       		.uleb128 0x17
 3784 0e95 73656C00 		.ascii	"sel\000"
 3785 0e99 10       		.byte	0x10
 3786 0e9a 1601     		.2byte	0x116
 3787 0e9c 49050000 		.4byte	0x549
 3788 0ea0 04       		.byte	0x4
 3789 0ea1 00       		.byte	0
 3790 0ea2 19       		.uleb128 0x19
 3791 0ea3 14       		.byte	0x14
 3792 0ea4 10       		.byte	0x10
 3793 0ea5 1F01     		.2byte	0x11f
 3794 0ea7 EB0E0000 		.4byte	0xeeb
 3795 0eab 17       		.uleb128 0x17
 3796 0eac 626700   		.ascii	"bg\000"
 3797 0eaf 10       		.byte	0x10
ARM GAS  C:\Users\tmj32\AppData\Local\Temp\ccmyxrAJ.s 			page 80


 3798 0eb0 2101     		.2byte	0x121
 3799 0eb2 49050000 		.4byte	0x549
 3800 0eb6 00       		.byte	0
 3801 0eb7 17       		.uleb128 0x17
 3802 0eb8 72656C00 		.ascii	"rel\000"
 3803 0ebc 10       		.byte	0x10
 3804 0ebd 2201     		.2byte	0x122
 3805 0ebf 49050000 		.4byte	0x549
 3806 0ec3 04       		.byte	0x4
 3807 0ec4 17       		.uleb128 0x17
 3808 0ec5 707200   		.ascii	"pr\000"
 3809 0ec8 10       		.byte	0x10
 3810 0ec9 2301     		.2byte	0x123
 3811 0ecb 49050000 		.4byte	0x549
 3812 0ecf 08       		.byte	0x8
 3813 0ed0 18       		.uleb128 0x18
 3814 0ed1 59070000 		.4byte	.LASF166
 3815 0ed5 10       		.byte	0x10
 3816 0ed6 2401     		.2byte	0x124
 3817 0ed8 49050000 		.4byte	0x549
 3818 0edc 0C       		.byte	0xc
 3819 0edd 18       		.uleb128 0x18
 3820 0ede 44020000 		.4byte	.LASF167
 3821 0ee2 10       		.byte	0x10
 3822 0ee3 2501     		.2byte	0x125
 3823 0ee5 49050000 		.4byte	0x549
 3824 0ee9 10       		.byte	0x10
 3825 0eea 00       		.byte	0
 3826 0eeb 19       		.uleb128 0x19
 3827 0eec 1C       		.byte	0x1c
 3828 0eed 10       		.byte	0x10
 3829 0eee 1B01     		.2byte	0x11b
 3830 0ef0 1B0F0000 		.4byte	0xf1b
 3831 0ef4 17       		.uleb128 0x17
 3832 0ef5 626700   		.ascii	"bg\000"
 3833 0ef8 10       		.byte	0x10
 3834 0ef9 1D01     		.2byte	0x11d
 3835 0efb 49050000 		.4byte	0x549
 3836 0eff 00       		.byte	0
 3837 0f00 18       		.uleb128 0x18
 3838 0f01 99060000 		.4byte	.LASF173
 3839 0f05 10       		.byte	0x10
 3840 0f06 1E01     		.2byte	0x11e
 3841 0f08 49050000 		.4byte	0x549
 3842 0f0c 04       		.byte	0x4
 3843 0f0d 17       		.uleb128 0x17
 3844 0f0e 62746E00 		.ascii	"btn\000"
 3845 0f12 10       		.byte	0x10
 3846 0f13 2601     		.2byte	0x126
 3847 0f15 A20E0000 		.4byte	0xea2
 3848 0f19 08       		.byte	0x8
 3849 0f1a 00       		.byte	0
 3850 0f1b 19       		.uleb128 0x19
 3851 0f1c 0C       		.byte	0xc
 3852 0f1d 10       		.byte	0x10
 3853 0f1e 2B01     		.2byte	0x12b
 3854 0f20 4A0F0000 		.4byte	0xf4a
ARM GAS  C:\Users\tmj32\AppData\Local\Temp\ccmyxrAJ.s 			page 81


 3855 0f24 17       		.uleb128 0x17
 3856 0f25 626700   		.ascii	"bg\000"
 3857 0f28 10       		.byte	0x10
 3858 0f29 2D01     		.2byte	0x12d
 3859 0f2b 49050000 		.4byte	0x549
 3860 0f2f 00       		.byte	0
 3861 0f30 18       		.uleb128 0x18
 3862 0f31 74020000 		.4byte	.LASF184
 3863 0f35 10       		.byte	0x10
 3864 0f36 2E01     		.2byte	0x12e
 3865 0f38 49050000 		.4byte	0x549
 3866 0f3c 04       		.byte	0x4
 3867 0f3d 17       		.uleb128 0x17
 3868 0f3e 736200   		.ascii	"sb\000"
 3869 0f41 10       		.byte	0x10
 3870 0f42 2F01     		.2byte	0x12f
 3871 0f44 49050000 		.4byte	0x549
 3872 0f48 08       		.byte	0x8
 3873 0f49 00       		.byte	0
 3874 0f4a 19       		.uleb128 0x19
 3875 0f4b 08       		.byte	0x8
 3876 0f4c 10       		.byte	0x10
 3877 0f4d 3401     		.2byte	0x134
 3878 0f4f 6D0F0000 		.4byte	0xf6d
 3879 0f53 17       		.uleb128 0x17
 3880 0f54 626700   		.ascii	"bg\000"
 3881 0f57 10       		.byte	0x10
 3882 0f58 3601     		.2byte	0x136
 3883 0f5a 49050000 		.4byte	0x549
 3884 0f5e 00       		.byte	0
 3885 0f5f 18       		.uleb128 0x18
 3886 0f60 51000000 		.4byte	.LASF188
 3887 0f64 10       		.byte	0x10
 3888 0f65 3701     		.2byte	0x137
 3889 0f67 49050000 		.4byte	0x549
 3890 0f6b 04       		.byte	0x4
 3891 0f6c 00       		.byte	0
 3892 0f6d 19       		.uleb128 0x19
 3893 0f6e 08       		.byte	0x8
 3894 0f6f 10       		.byte	0x10
 3895 0f70 4201     		.2byte	0x142
 3896 0f72 900F0000 		.4byte	0xf90
 3897 0f76 17       		.uleb128 0x17
 3898 0f77 72656C00 		.ascii	"rel\000"
 3899 0f7b 10       		.byte	0x10
 3900 0f7c 4401     		.2byte	0x144
 3901 0f7e 49050000 		.4byte	0x549
 3902 0f82 00       		.byte	0
 3903 0f83 17       		.uleb128 0x17
 3904 0f84 707200   		.ascii	"pr\000"
 3905 0f87 10       		.byte	0x10
 3906 0f88 4501     		.2byte	0x145
 3907 0f8a 49050000 		.4byte	0x549
 3908 0f8e 04       		.byte	0x4
 3909 0f8f 00       		.byte	0
 3910 0f90 19       		.uleb128 0x19
 3911 0f91 18       		.byte	0x18
ARM GAS  C:\Users\tmj32\AppData\Local\Temp\ccmyxrAJ.s 			page 82


 3912 0f92 10       		.byte	0x10
 3913 0f93 3C01     		.2byte	0x13c
 3914 0f95 D90F0000 		.4byte	0xfd9
 3915 0f99 17       		.uleb128 0x17
 3916 0f9a 626700   		.ascii	"bg\000"
 3917 0f9d 10       		.byte	0x10
 3918 0f9e 3E01     		.2byte	0x13e
 3919 0fa0 49050000 		.4byte	0x549
 3920 0fa4 00       		.byte	0
 3921 0fa5 17       		.uleb128 0x17
 3922 0fa6 736200   		.ascii	"sb\000"
 3923 0fa9 10       		.byte	0x10
 3924 0faa 3F01     		.2byte	0x13f
 3925 0fac 49050000 		.4byte	0x549
 3926 0fb0 04       		.byte	0x4
 3927 0fb1 18       		.uleb128 0x18
 3928 0fb2 DE020000 		.4byte	.LASF177
 3929 0fb6 10       		.byte	0x10
 3930 0fb7 4001     		.2byte	0x140
 3931 0fb9 49050000 		.4byte	0x549
 3932 0fbd 08       		.byte	0x8
 3933 0fbe 18       		.uleb128 0x18
 3934 0fbf DA0B0000 		.4byte	.LASF189
 3935 0fc3 10       		.byte	0x10
 3936 0fc4 4101     		.2byte	0x141
 3937 0fc6 49050000 		.4byte	0x549
 3938 0fca 0C       		.byte	0xc
 3939 0fcb 17       		.uleb128 0x17
 3940 0fcc 62746E00 		.ascii	"btn\000"
 3941 0fd0 10       		.byte	0x10
 3942 0fd1 4601     		.2byte	0x146
 3943 0fd3 6D0F0000 		.4byte	0xf6d
 3944 0fd7 10       		.byte	0x10
 3945 0fd8 00       		.byte	0
 3946 0fd9 1A       		.uleb128 0x1a
 3947 0fda A801     		.2byte	0x1a8
 3948 0fdc 10       		.byte	0x10
 3949 0fdd 29       		.byte	0x29
 3950 0fde 7B110000 		.4byte	0x117b
 3951 0fe2 08       		.uleb128 0x8
 3952 0fe3 73637200 		.ascii	"scr\000"
 3953 0fe7 10       		.byte	0x10
 3954 0fe8 2B       		.byte	0x2b
 3955 0fe9 49050000 		.4byte	0x549
 3956 0fed 00       		.byte	0
 3957 0fee 08       		.uleb128 0x8
 3958 0fef 626700   		.ascii	"bg\000"
 3959 0ff2 10       		.byte	0x10
 3960 0ff3 2C       		.byte	0x2c
 3961 0ff4 49050000 		.4byte	0x549
 3962 0ff8 04       		.byte	0x4
 3963 0ff9 07       		.uleb128 0x7
 3964 0ffa 450A0000 		.4byte	.LASF190
 3965 0ffe 10       		.byte	0x10
 3966 0fff 2D       		.byte	0x2d
 3967 1000 49050000 		.4byte	0x549
 3968 1004 08       		.byte	0x8
ARM GAS  C:\Users\tmj32\AppData\Local\Temp\ccmyxrAJ.s 			page 83


 3969 1005 07       		.uleb128 0x7
 3970 1006 A1010000 		.4byte	.LASF191
 3971 100a 10       		.byte	0x10
 3972 100b 30       		.byte	0x30
 3973 100c 49050000 		.4byte	0x549
 3974 1010 0C       		.byte	0xc
 3975 1011 08       		.uleb128 0x8
 3976 1012 62746E00 		.ascii	"btn\000"
 3977 1016 10       		.byte	0x10
 3978 1017 3B       		.byte	0x3b
 3979 1018 F3090000 		.4byte	0x9f3
 3980 101c 10       		.byte	0x10
 3981 101d 07       		.uleb128 0x7
 3982 101e 340A0000 		.4byte	.LASF192
 3983 1022 10       		.byte	0x10
 3984 1023 46       		.byte	0x46
 3985 1024 370A0000 		.4byte	0xa37
 3986 1028 24       		.byte	0x24
 3987 1029 07       		.uleb128 0x7
 3988 102a 6A0C0000 		.4byte	.LASF193
 3989 102e 10       		.byte	0x10
 3990 102f 4F       		.byte	0x4f
 3991 1030 7B0A0000 		.4byte	0xa7b
 3992 1034 38       		.byte	0x38
 3993 1035 08       		.uleb128 0x8
 3994 1036 696D6700 		.ascii	"img\000"
 3995 103a 10       		.byte	0x10
 3996 103b 57       		.byte	0x57
 3997 103c A80A0000 		.4byte	0xaa8
 3998 1040 44       		.byte	0x44
 3999 1041 07       		.uleb128 0x7
 4000 1042 F5040000 		.4byte	.LASF73
 4001 1046 10       		.byte	0x10
 4002 1047 5E       		.byte	0x5e
 4003 1048 C90A0000 		.4byte	0xac9
 4004 104c 4C       		.byte	0x4c
 4005 104d 08       		.uleb128 0x8
 4006 104e 6C656400 		.ascii	"led\000"
 4007 1052 10       		.byte	0x10
 4008 1053 62       		.byte	0x62
 4009 1054 49050000 		.4byte	0x549
 4010 1058 50       		.byte	0x50
 4011 1059 08       		.uleb128 0x8
 4012 105a 62617200 		.ascii	"bar\000"
 4013 105e 10       		.byte	0x10
 4014 105f 6A       		.byte	0x6a
 4015 1060 DE0A0000 		.4byte	0xade
 4016 1064 54       		.byte	0x54
 4017 1065 07       		.uleb128 0x7
 4018 1066 14050000 		.4byte	.LASF194
 4019 106a 10       		.byte	0x10
 4020 106b 73       		.byte	0x73
 4021 106c FE0A0000 		.4byte	0xafe
 4022 1070 5C       		.byte	0x5c
 4023 1071 07       		.uleb128 0x7
 4024 1072 A9000000 		.4byte	.LASF158
 4025 1076 10       		.byte	0x10
ARM GAS  C:\Users\tmj32\AppData\Local\Temp\ccmyxrAJ.s 			page 84


 4026 1077 77       		.byte	0x77
 4027 1078 49050000 		.4byte	0x549
 4028 107c 68       		.byte	0x68
 4029 107d 07       		.uleb128 0x7
 4030 107e F5070000 		.4byte	.LASF195
 4031 1082 10       		.byte	0x10
 4032 1083 7B       		.byte	0x7b
 4033 1084 49050000 		.4byte	0x549
 4034 1088 6C       		.byte	0x6c
 4035 1089 08       		.uleb128 0x8
 4036 108a 61726300 		.ascii	"arc\000"
 4037 108e 10       		.byte	0x10
 4038 108f 7F       		.byte	0x7f
 4039 1090 49050000 		.4byte	0x549
 4040 1094 70       		.byte	0x70
 4041 1095 07       		.uleb128 0x7
 4042 1096 BB0C0000 		.4byte	.LASF196
 4043 109a 10       		.byte	0x10
 4044 109b 83       		.byte	0x83
 4045 109c 49050000 		.4byte	0x549
 4046 10a0 74       		.byte	0x74
 4047 10a1 08       		.uleb128 0x8
 4048 10a2 737700   		.ascii	"sw\000"
 4049 10a5 10       		.byte	0x10
 4050 10a6 8D       		.byte	0x8d
 4051 10a7 2A0B0000 		.4byte	0xb2a
 4052 10ab 78       		.byte	0x78
 4053 10ac 07       		.uleb128 0x7
 4054 10ad AB010000 		.4byte	.LASF197
 4055 10b1 10       		.byte	0x10
 4056 10b2 91       		.byte	0x91
 4057 10b3 49050000 		.4byte	0x549
 4058 10b7 88       		.byte	0x88
 4059 10b8 07       		.uleb128 0x7
 4060 10b9 D60A0000 		.4byte	.LASF198
 4061 10bd 10       		.byte	0x10
 4062 10be 9F       		.byte	0x9f
 4063 10bf 620B0000 		.4byte	0xb62
 4064 10c3 8C       		.byte	0x8c
 4065 10c4 08       		.uleb128 0x8
 4066 10c5 636200   		.ascii	"cb\000"
 4067 10c8 10       		.byte	0x10
 4068 10c9 AE       		.byte	0xae
 4069 10ca 0E0C0000 		.4byte	0xc0e
 4070 10ce AC       		.byte	0xac
 4071 10cf 07       		.uleb128 0x7
 4072 10d0 0D020000 		.4byte	.LASF199
 4073 10d4 10       		.byte	0x10
 4074 10d5 BD       		.byte	0xbd
 4075 10d6 720C0000 		.4byte	0xc72
 4076 10da C4       		.byte	0xc4
 4077 10db 08       		.uleb128 0x8
 4078 10dc 6B6200   		.ascii	"kb\000"
 4079 10df 10       		.byte	0x10
 4080 10e0 CC       		.byte	0xcc
 4081 10e1 D60C0000 		.4byte	0xcd6
 4082 10e5 DC       		.byte	0xdc
ARM GAS  C:\Users\tmj32\AppData\Local\Temp\ccmyxrAJ.s 			page 85


 4083 10e6 07       		.uleb128 0x7
 4084 10e7 54070000 		.4byte	.LASF200
 4085 10eb 10       		.byte	0x10
 4086 10ec D9       		.byte	0xd9
 4087 10ed 210D0000 		.4byte	0xd21
 4088 10f1 F4       		.byte	0xf4
 4089 10f2 1B       		.uleb128 0x1b
 4090 10f3 D6070000 		.4byte	.LASF201
 4091 10f7 10       		.byte	0x10
 4092 10f8 E2       		.byte	0xe2
 4093 10f9 410D0000 		.4byte	0xd41
 4094 10fd 0401     		.2byte	0x104
 4095 10ff 1C       		.uleb128 0x1c
 4096 1100 746100   		.ascii	"ta\000"
 4097 1103 10       		.byte	0x10
 4098 1104 EC       		.byte	0xec
 4099 1105 6C0D0000 		.4byte	0xd6c
 4100 1109 1001     		.2byte	0x110
 4101 110b 1B       		.uleb128 0x1b
 4102 110c 5E0B0000 		.4byte	.LASF202
 4103 1110 10       		.byte	0x10
 4104 1111 F5       		.byte	0xf5
 4105 1112 A40D0000 		.4byte	0xda4
 4106 1116 2001     		.2byte	0x120
 4107 1118 1D       		.uleb128 0x1d
 4108 1119 C6070000 		.4byte	.LASF203
 4109 111d 10       		.byte	0x10
 4110 111e 0601     		.2byte	0x106
 4111 1120 180E0000 		.4byte	0xe18
 4112 1124 2C01     		.2byte	0x12c
 4113 1126 1D       		.uleb128 0x1d
 4114 1127 97030000 		.4byte	.LASF204
 4115 112b 10       		.byte	0x10
 4116 112c 0F01     		.2byte	0x10f
 4117 112e 500E0000 		.4byte	0xe50
 4118 1132 4C01     		.2byte	0x14c
 4119 1134 1D       		.uleb128 0x1d
 4120 1135 320D0000 		.4byte	.LASF205
 4121 1139 10       		.byte	0x10
 4122 113a 1701     		.2byte	0x117
 4123 113c 7F0E0000 		.4byte	0xe7f
 4124 1140 5801     		.2byte	0x158
 4125 1142 1D       		.uleb128 0x1d
 4126 1143 D7060000 		.4byte	.LASF206
 4127 1147 10       		.byte	0x10
 4128 1148 2701     		.2byte	0x127
 4129 114a EB0E0000 		.4byte	0xeeb
 4130 114e 6001     		.2byte	0x160
 4131 1150 1D       		.uleb128 0x1d
 4132 1151 DB010000 		.4byte	.LASF207
 4133 1155 10       		.byte	0x10
 4134 1156 3001     		.2byte	0x130
 4135 1158 1B0F0000 		.4byte	0xf1b
 4136 115c 7C01     		.2byte	0x17c
 4137 115e 1D       		.uleb128 0x1d
 4138 115f FA020000 		.4byte	.LASF208
 4139 1163 10       		.byte	0x10
ARM GAS  C:\Users\tmj32\AppData\Local\Temp\ccmyxrAJ.s 			page 86


 4140 1164 3801     		.2byte	0x138
 4141 1166 4A0F0000 		.4byte	0xf4a
 4142 116a 8801     		.2byte	0x188
 4143 116c 1E       		.uleb128 0x1e
 4144 116d 77696E00 		.ascii	"win\000"
 4145 1171 10       		.byte	0x10
 4146 1172 4701     		.2byte	0x147
 4147 1174 900F0000 		.4byte	0xf90
 4148 1178 9001     		.2byte	0x190
 4149 117a 00       		.byte	0
 4150 117b 1A       		.uleb128 0x1a
 4151 117c A801     		.2byte	0x1a8
 4152 117e 10       		.byte	0x10
 4153 117f 27       		.byte	0x27
 4154 1180 92110000 		.4byte	0x1192
 4155 1184 18       		.uleb128 0x18
 4156 1185 55080000 		.4byte	.LASF209
 4157 1189 10       		.byte	0x10
 4158 118a 4901     		.2byte	0x149
 4159 118c D90F0000 		.4byte	0xfd9
 4160 1190 00       		.byte	0
 4161 1191 00       		.byte	0
 4162 1192 12       		.uleb128 0x12
 4163 1193 6B040000 		.4byte	.LASF210
 4164 1197 10       		.byte	0x10
 4165 1198 5401     		.2byte	0x154
 4166 119a 7B110000 		.4byte	0x117b
 4167 119e 1F       		.uleb128 0x1f
 4168 119f 70050000 		.4byte	.LASF212
 4169 11a3 01       		.byte	0x1
 4170 11a4 6B       		.byte	0x6b
 4171 11a5 00000000 		.4byte	.LFB38
 4172 11a9 20000000 		.4byte	.LFE38-.LFB38
 4173 11ad 01       		.uleb128 0x1
 4174 11ae 9C       		.byte	0x9c
 4175 11af D0110000 		.4byte	0x11d0
 4176 11b3 20       		.uleb128 0x20
 4177 11b4 F5070000 		.4byte	.LASF195
 4178 11b8 01       		.byte	0x1
 4179 11b9 6B       		.byte	0x6b
 4180 11ba D0110000 		.4byte	0x11d0
 4181 11be 02       		.uleb128 0x2
 4182 11bf 91       		.byte	0x91
 4183 11c0 74       		.sleb128 -12
 4184 11c1 20       		.uleb128 0x20
 4185 11c2 00030000 		.4byte	.LASF211
 4186 11c6 01       		.byte	0x1
 4187 11c7 6B       		.byte	0x6b
 4188 11c8 C3000000 		.4byte	0xc3
 4189 11cc 02       		.uleb128 0x2
 4190 11cd 91       		.byte	0x91
 4191 11ce 72       		.sleb128 -14
 4192 11cf 00       		.byte	0
 4193 11d0 0D       		.uleb128 0xd
 4194 11d1 04       		.byte	0x4
 4195 11d2 E2080000 		.4byte	0x8e2
 4196 11d6 1F       		.uleb128 0x1f
ARM GAS  C:\Users\tmj32\AppData\Local\Temp\ccmyxrAJ.s 			page 87


 4197 11d7 DF0A0000 		.4byte	.LASF213
 4198 11db 01       		.byte	0x1
 4199 11dc 81       		.byte	0x81
 4200 11dd 00000000 		.4byte	.LFB39
 4201 11e1 1E000000 		.4byte	.LFE39-.LFB39
 4202 11e5 01       		.uleb128 0x1
 4203 11e6 9C       		.byte	0x9c
 4204 11e7 16120000 		.4byte	0x1216
 4205 11eb 20       		.uleb128 0x20
 4206 11ec F5070000 		.4byte	.LASF195
 4207 11f0 01       		.byte	0x1
 4208 11f1 81       		.byte	0x81
 4209 11f2 D0110000 		.4byte	0x11d0
 4210 11f6 02       		.uleb128 0x2
 4211 11f7 91       		.byte	0x91
 4212 11f8 74       		.sleb128 -12
 4213 11f9 20       		.uleb128 0x20
 4214 11fa 96010000 		.4byte	.LASF51
 4215 11fe 01       		.byte	0x1
 4216 11ff 81       		.byte	0x81
 4217 1200 E8090000 		.4byte	0x9e8
 4218 1204 02       		.uleb128 0x2
 4219 1205 91       		.byte	0x91
 4220 1206 73       		.sleb128 -13
 4221 1207 20       		.uleb128 0x20
 4222 1208 55080000 		.4byte	.LASF209
 4223 120c 01       		.byte	0x1
 4224 120d 81       		.byte	0x81
 4225 120e 49050000 		.4byte	0x549
 4226 1212 02       		.uleb128 0x2
 4227 1213 91       		.byte	0x91
 4228 1214 6C       		.sleb128 -20
 4229 1215 00       		.byte	0
 4230 1216 21       		.uleb128 0x21
 4231 1217 24010000 		.4byte	.LASF214
 4232 121b 01       		.byte	0x1
 4233 121c 9F       		.byte	0x9f
 4234 121d C3000000 		.4byte	0xc3
 4235 1221 00000000 		.4byte	.LFB40
 4236 1225 18000000 		.4byte	.LFE40-.LFB40
 4237 1229 01       		.uleb128 0x1
 4238 122a 9C       		.byte	0x9c
 4239 122b 3E120000 		.4byte	0x123e
 4240 122f 20       		.uleb128 0x20
 4241 1230 A9000000 		.4byte	.LASF158
 4242 1234 01       		.byte	0x1
 4243 1235 9F       		.byte	0x9f
 4244 1236 3E120000 		.4byte	0x123e
 4245 123a 02       		.uleb128 0x2
 4246 123b 91       		.byte	0x91
 4247 123c 74       		.sleb128 -12
 4248 123d 00       		.byte	0
 4249 123e 0D       		.uleb128 0xd
 4250 123f 04       		.byte	0x4
 4251 1240 44120000 		.4byte	0x1244
 4252 1244 0E       		.uleb128 0xe
 4253 1245 E2080000 		.4byte	0x8e2
ARM GAS  C:\Users\tmj32\AppData\Local\Temp\ccmyxrAJ.s 			page 88


 4254 1249 21       		.uleb128 0x21
 4255 124a 42050000 		.4byte	.LASF215
 4256 124e 01       		.byte	0x1
 4257 124f A9       		.byte	0xa9
 4258 1250 C3000000 		.4byte	0xc3
 4259 1254 00000000 		.4byte	.LFB41
 4260 1258 18000000 		.4byte	.LFE41-.LFB41
 4261 125c 01       		.uleb128 0x1
 4262 125d 9C       		.byte	0x9c
 4263 125e 71120000 		.4byte	0x1271
 4264 1262 20       		.uleb128 0x20
 4265 1263 A9000000 		.4byte	.LASF158
 4266 1267 01       		.byte	0x1
 4267 1268 A9       		.byte	0xa9
 4268 1269 3E120000 		.4byte	0x123e
 4269 126d 02       		.uleb128 0x2
 4270 126e 91       		.byte	0x91
 4271 126f 74       		.sleb128 -12
 4272 1270 00       		.byte	0
 4273 1271 21       		.uleb128 0x21
 4274 1272 A70A0000 		.4byte	.LASF216
 4275 1276 01       		.byte	0x1
 4276 1277 D9       		.byte	0xd9
 4277 1278 D7080000 		.4byte	0x8d7
 4278 127c 00000000 		.4byte	.LFB45
 4279 1280 1C000000 		.4byte	.LFE45-.LFB45
 4280 1284 01       		.uleb128 0x1
 4281 1285 9C       		.byte	0x9c
 4282 1286 A7120000 		.4byte	0x12a7
 4283 128a 20       		.uleb128 0x20
 4284 128b F5070000 		.4byte	.LASF195
 4285 128f 01       		.byte	0x1
 4286 1290 D9       		.byte	0xd9
 4287 1291 3E120000 		.4byte	0x123e
 4288 1295 02       		.uleb128 0x2
 4289 1296 91       		.byte	0x91
 4290 1297 74       		.sleb128 -12
 4291 1298 20       		.uleb128 0x20
 4292 1299 96010000 		.4byte	.LASF51
 4293 129d 01       		.byte	0x1
 4294 129e D9       		.byte	0xd9
 4295 129f E8090000 		.4byte	0x9e8
 4296 12a3 02       		.uleb128 0x2
 4297 12a4 91       		.byte	0x91
 4298 12a5 73       		.sleb128 -13
 4299 12a6 00       		.byte	0
 4300 12a7 22       		.uleb128 0x22
 4301 12a8 94050000 		.4byte	.LASF228
 4302 12ac 02       		.byte	0x2
 4303 12ad 41       		.byte	0x41
 4304 12ae D0110000 		.4byte	0x11d0
 4305 12b2 00000000 		.4byte	.LFB47
 4306 12b6 50010000 		.4byte	.LFE47-.LFB47
 4307 12ba 01       		.uleb128 0x1
 4308 12bb 9C       		.byte	0x9c
 4309 12bc 38130000 		.4byte	0x1338
 4310 12c0 23       		.uleb128 0x23
ARM GAS  C:\Users\tmj32\AppData\Local\Temp\ccmyxrAJ.s 			page 89


 4311 12c1 70617200 		.ascii	"par\000"
 4312 12c5 02       		.byte	0x2
 4313 12c6 41       		.byte	0x41
 4314 12c7 D0110000 		.4byte	0x11d0
 4315 12cb 02       		.uleb128 0x2
 4316 12cc 91       		.byte	0x91
 4317 12cd 5C       		.sleb128 -36
 4318 12ce 20       		.uleb128 0x20
 4319 12cf 3D050000 		.4byte	.LASF217
 4320 12d3 02       		.byte	0x2
 4321 12d4 41       		.byte	0x41
 4322 12d5 3E120000 		.4byte	0x123e
 4323 12d9 02       		.uleb128 0x2
 4324 12da 91       		.byte	0x91
 4325 12db 58       		.sleb128 -40
 4326 12dc 24       		.uleb128 0x24
 4327 12dd 78070000 		.4byte	.LASF218
 4328 12e1 02       		.byte	0x2
 4329 12e2 46       		.byte	0x46
 4330 12e3 D0110000 		.4byte	0x11d0
 4331 12e7 02       		.uleb128 0x2
 4332 12e8 91       		.byte	0x91
 4333 12e9 70       		.sleb128 -16
 4334 12ea 25       		.uleb128 0x25
 4335 12eb 65787400 		.ascii	"ext\000"
 4336 12ef 02       		.byte	0x2
 4337 12f0 4B       		.byte	0x4b
 4338 12f1 38130000 		.4byte	0x1338
 4339 12f5 02       		.uleb128 0x2
 4340 12f6 91       		.byte	0x91
 4341 12f7 6C       		.sleb128 -20
 4342 12f8 26       		.uleb128 0x26
 4343 12f9 88000000 		.4byte	.LBB2
 4344 12fd 54000000 		.4byte	.LBE2-.LBB2
 4345 1301 13130000 		.4byte	0x1313
 4346 1305 25       		.uleb128 0x25
 4347 1306 746800   		.ascii	"th\000"
 4348 1309 02       		.byte	0x2
 4349 130a 63       		.byte	0x63
 4350 130b 3E130000 		.4byte	0x133e
 4351 130f 02       		.uleb128 0x2
 4352 1310 91       		.byte	0x91
 4353 1311 68       		.sleb128 -24
 4354 1312 00       		.byte	0
 4355 1313 27       		.uleb128 0x27
 4356 1314 DC000000 		.4byte	.LBB3
 4357 1318 56000000 		.4byte	.LBE3-.LBB3
 4358 131c 24       		.uleb128 0x24
 4359 131d D10B0000 		.4byte	.LASF219
 4360 1321 02       		.byte	0x2
 4361 1322 6C       		.byte	0x6c
 4362 1323 38130000 		.4byte	0x1338
 4363 1327 02       		.uleb128 0x2
 4364 1328 91       		.byte	0x91
 4365 1329 64       		.sleb128 -28
 4366 132a 25       		.uleb128 0x25
 4367 132b 6900     		.ascii	"i\000"
ARM GAS  C:\Users\tmj32\AppData\Local\Temp\ccmyxrAJ.s 			page 90


 4368 132d 02       		.byte	0x2
 4369 132e 6F       		.byte	0x6f
 4370 132f B8000000 		.4byte	0xb8
 4371 1333 02       		.uleb128 0x2
 4372 1334 91       		.byte	0x91
 4373 1335 77       		.sleb128 -9
 4374 1336 00       		.byte	0
 4375 1337 00       		.byte	0
 4376 1338 0D       		.uleb128 0xd
 4377 1339 04       		.byte	0x4
 4378 133a CA090000 		.4byte	0x9ca
 4379 133e 0D       		.uleb128 0xd
 4380 133f 04       		.byte	0x4
 4381 1340 92110000 		.4byte	0x1192
 4382 1344 28       		.uleb128 0x28
 4383 1345 0E080000 		.4byte	.LASF222
 4384 1349 02       		.byte	0x2
 4385 134a 87       		.byte	0x87
 4386 134b 00000000 		.4byte	.LFB48
 4387 134f A0000000 		.4byte	.LFE48-.LFB48
 4388 1353 01       		.uleb128 0x1
 4389 1354 9C       		.byte	0x9c
 4390 1355 B2130000 		.4byte	0x13b2
 4391 1359 20       		.uleb128 0x20
 4392 135a F5070000 		.4byte	.LASF195
 4393 135e 02       		.byte	0x2
 4394 135f 87       		.byte	0x87
 4395 1360 D0110000 		.4byte	0x11d0
 4396 1364 02       		.uleb128 0x2
 4397 1365 91       		.byte	0x91
 4398 1366 64       		.sleb128 -28
 4399 1367 20       		.uleb128 0x20
 4400 1368 66010000 		.4byte	.LASF220
 4401 136c 02       		.byte	0x2
 4402 136d 87       		.byte	0x87
 4403 136e B8000000 		.4byte	0xb8
 4404 1372 02       		.uleb128 0x2
 4405 1373 91       		.byte	0x91
 4406 1374 63       		.sleb128 -29
 4407 1375 20       		.uleb128 0x20
 4408 1376 F6010000 		.4byte	.LASF221
 4409 137a 02       		.byte	0x2
 4410 137b 87       		.byte	0x87
 4411 137c BF090000 		.4byte	0x9bf
 4412 1380 02       		.uleb128 0x2
 4413 1381 91       		.byte	0x91
 4414 1382 5C       		.sleb128 -36
 4415 1383 25       		.uleb128 0x25
 4416 1384 65787400 		.ascii	"ext\000"
 4417 1388 02       		.byte	0x2
 4418 1389 8B       		.byte	0x8b
 4419 138a 38130000 		.4byte	0x1338
 4420 138e 02       		.uleb128 0x2
 4421 138f 91       		.byte	0x91
 4422 1390 70       		.sleb128 -16
 4423 1391 29       		.uleb128 0x29
 4424 1392 00000000 		.4byte	.Ldebug_ranges0+0
ARM GAS  C:\Users\tmj32\AppData\Local\Temp\ccmyxrAJ.s 			page 91


 4425 1396 25       		.uleb128 0x25
 4426 1397 6D696E00 		.ascii	"min\000"
 4427 139b 02       		.byte	0x2
 4428 139c 97       		.byte	0x97
 4429 139d C3000000 		.4byte	0xc3
 4430 13a1 02       		.uleb128 0x2
 4431 13a2 91       		.byte	0x91
 4432 13a3 6E       		.sleb128 -18
 4433 13a4 25       		.uleb128 0x25
 4434 13a5 6E00     		.ascii	"n\000"
 4435 13a7 02       		.byte	0x2
 4436 13a8 98       		.byte	0x98
 4437 13a9 B8000000 		.4byte	0xb8
 4438 13ad 02       		.uleb128 0x2
 4439 13ae 91       		.byte	0x91
 4440 13af 77       		.sleb128 -9
 4441 13b0 00       		.byte	0
 4442 13b1 00       		.byte	0
 4443 13b2 28       		.uleb128 0x28
 4444 13b3 F6000000 		.4byte	.LASF223
 4445 13b7 02       		.byte	0x2
 4446 13b8 AA       		.byte	0xaa
 4447 13b9 00000000 		.4byte	.LFB49
 4448 13bd 90000000 		.4byte	.LFE49-.LFB49
 4449 13c1 01       		.uleb128 0x1
 4450 13c2 9C       		.byte	0x9c
 4451 13c3 1C140000 		.4byte	0x141c
 4452 13c7 20       		.uleb128 0x20
 4453 13c8 F5070000 		.4byte	.LASF195
 4454 13cc 02       		.byte	0x2
 4455 13cd AA       		.byte	0xaa
 4456 13ce D0110000 		.4byte	0x11d0
 4457 13d2 02       		.uleb128 0x2
 4458 13d3 91       		.byte	0x91
 4459 13d4 6C       		.sleb128 -20
 4460 13d5 20       		.uleb128 0x20
 4461 13d6 5B080000 		.4byte	.LASF224
 4462 13da 02       		.byte	0x2
 4463 13db AA       		.byte	0xaa
 4464 13dc B8000000 		.4byte	0xb8
 4465 13e0 02       		.uleb128 0x2
 4466 13e1 91       		.byte	0x91
 4467 13e2 6B       		.sleb128 -21
 4468 13e3 20       		.uleb128 0x20
 4469 13e4 00030000 		.4byte	.LASF211
 4470 13e8 02       		.byte	0x2
 4471 13e9 AA       		.byte	0xaa
 4472 13ea C3000000 		.4byte	0xc3
 4473 13ee 02       		.uleb128 0x2
 4474 13ef 91       		.byte	0x91
 4475 13f0 68       		.sleb128 -24
 4476 13f1 25       		.uleb128 0x25
 4477 13f2 65787400 		.ascii	"ext\000"
 4478 13f6 02       		.byte	0x2
 4479 13f7 AE       		.byte	0xae
 4480 13f8 38130000 		.4byte	0x1338
 4481 13fc 02       		.uleb128 0x2
ARM GAS  C:\Users\tmj32\AppData\Local\Temp\ccmyxrAJ.s 			page 92


 4482 13fd 91       		.byte	0x91
 4483 13fe 74       		.sleb128 -12
 4484 13ff 25       		.uleb128 0x25
 4485 1400 6D696E00 		.ascii	"min\000"
 4486 1404 02       		.byte	0x2
 4487 1405 B3       		.byte	0xb3
 4488 1406 C3000000 		.4byte	0xc3
 4489 140a 02       		.uleb128 0x2
 4490 140b 91       		.byte	0x91
 4491 140c 72       		.sleb128 -14
 4492 140d 25       		.uleb128 0x25
 4493 140e 6D617800 		.ascii	"max\000"
 4494 1412 02       		.byte	0x2
 4495 1413 B4       		.byte	0xb4
 4496 1414 C3000000 		.4byte	0xc3
 4497 1418 02       		.uleb128 0x2
 4498 1419 91       		.byte	0x91
 4499 141a 70       		.sleb128 -16
 4500 141b 00       		.byte	0
 4501 141c 28       		.uleb128 0x28
 4502 141d 660B0000 		.4byte	.LASF225
 4503 1421 02       		.byte	0x2
 4504 1422 C9       		.byte	0xc9
 4505 1423 00000000 		.4byte	.LFB50
 4506 1427 44000000 		.4byte	.LFE50-.LFB50
 4507 142b 01       		.uleb128 0x1
 4508 142c 9C       		.byte	0x9c
 4509 142d 78140000 		.4byte	0x1478
 4510 1431 20       		.uleb128 0x20
 4511 1432 F5070000 		.4byte	.LASF195
 4512 1436 02       		.byte	0x2
 4513 1437 C9       		.byte	0xc9
 4514 1438 D0110000 		.4byte	0x11d0
 4515 143c 02       		.uleb128 0x2
 4516 143d 91       		.byte	0x91
 4517 143e 6C       		.sleb128 -20
 4518 143f 20       		.uleb128 0x20
 4519 1440 37050000 		.4byte	.LASF226
 4520 1444 02       		.byte	0x2
 4521 1445 C9       		.byte	0xc9
 4522 1446 CE000000 		.4byte	0xce
 4523 144a 02       		.uleb128 0x2
 4524 144b 91       		.byte	0x91
 4525 144c 6A       		.sleb128 -22
 4526 144d 20       		.uleb128 0x20
 4527 144e 2E050000 		.4byte	.LASF148
 4528 1452 02       		.byte	0x2
 4529 1453 C9       		.byte	0xc9
 4530 1454 B8000000 		.4byte	0xb8
 4531 1458 02       		.uleb128 0x2
 4532 1459 91       		.byte	0x91
 4533 145a 69       		.sleb128 -23
 4534 145b 20       		.uleb128 0x20
 4535 145c 5C010000 		.4byte	.LASF227
 4536 1460 02       		.byte	0x2
 4537 1461 C9       		.byte	0xc9
 4538 1462 B8000000 		.4byte	0xb8
ARM GAS  C:\Users\tmj32\AppData\Local\Temp\ccmyxrAJ.s 			page 93


 4539 1466 02       		.uleb128 0x2
 4540 1467 91       		.byte	0x91
 4541 1468 68       		.sleb128 -24
 4542 1469 25       		.uleb128 0x25
 4543 146a 65787400 		.ascii	"ext\000"
 4544 146e 02       		.byte	0x2
 4545 146f CF       		.byte	0xcf
 4546 1470 38130000 		.4byte	0x1338
 4547 1474 02       		.uleb128 0x2
 4548 1475 91       		.byte	0x91
 4549 1476 74       		.sleb128 -12
 4550 1477 00       		.byte	0
 4551 1478 22       		.uleb128 0x22
 4552 1479 B4040000 		.4byte	.LASF229
 4553 147d 02       		.byte	0x2
 4554 147e DE       		.byte	0xde
 4555 147f C3000000 		.4byte	0xc3
 4556 1483 00000000 		.4byte	.LFB51
 4557 1487 44000000 		.4byte	.LFE51-.LFB51
 4558 148b 01       		.uleb128 0x1
 4559 148c 9C       		.byte	0x9c
 4560 148d CA140000 		.4byte	0x14ca
 4561 1491 20       		.uleb128 0x20
 4562 1492 F5070000 		.4byte	.LASF195
 4563 1496 02       		.byte	0x2
 4564 1497 DE       		.byte	0xde
 4565 1498 3E120000 		.4byte	0x123e
 4566 149c 02       		.uleb128 0x2
 4567 149d 91       		.byte	0x91
 4568 149e 6C       		.sleb128 -20
 4569 149f 20       		.uleb128 0x20
 4570 14a0 A7060000 		.4byte	.LASF230
 4571 14a4 02       		.byte	0x2
 4572 14a5 DE       		.byte	0xde
 4573 14a6 B8000000 		.4byte	0xb8
 4574 14aa 02       		.uleb128 0x2
 4575 14ab 91       		.byte	0x91
 4576 14ac 6B       		.sleb128 -21
 4577 14ad 25       		.uleb128 0x25
 4578 14ae 65787400 		.ascii	"ext\000"
 4579 14b2 02       		.byte	0x2
 4580 14b3 E2       		.byte	0xe2
 4581 14b4 38130000 		.4byte	0x1338
 4582 14b8 02       		.uleb128 0x2
 4583 14b9 91       		.byte	0x91
 4584 14ba 74       		.sleb128 -12
 4585 14bb 25       		.uleb128 0x25
 4586 14bc 6D696E00 		.ascii	"min\000"
 4587 14c0 02       		.byte	0x2
 4588 14c1 E3       		.byte	0xe3
 4589 14c2 C3000000 		.4byte	0xc3
 4590 14c6 02       		.uleb128 0x2
 4591 14c7 91       		.byte	0x91
 4592 14c8 72       		.sleb128 -14
 4593 14c9 00       		.byte	0
 4594 14ca 22       		.uleb128 0x22
 4595 14cb B8060000 		.4byte	.LASF231
ARM GAS  C:\Users\tmj32\AppData\Local\Temp\ccmyxrAJ.s 			page 94


 4596 14cf 02       		.byte	0x2
 4597 14d0 EF       		.byte	0xef
 4598 14d1 B8000000 		.4byte	0xb8
 4599 14d5 00000000 		.4byte	.LFB52
 4600 14d9 1C000000 		.4byte	.LFE52-.LFB52
 4601 14dd 01       		.uleb128 0x1
 4602 14de 9C       		.byte	0x9c
 4603 14df 00150000 		.4byte	0x1500
 4604 14e3 20       		.uleb128 0x20
 4605 14e4 F5070000 		.4byte	.LASF195
 4606 14e8 02       		.byte	0x2
 4607 14e9 EF       		.byte	0xef
 4608 14ea 3E120000 		.4byte	0x123e
 4609 14ee 02       		.uleb128 0x2
 4610 14ef 91       		.byte	0x91
 4611 14f0 6C       		.sleb128 -20
 4612 14f1 25       		.uleb128 0x25
 4613 14f2 65787400 		.ascii	"ext\000"
 4614 14f6 02       		.byte	0x2
 4615 14f7 F3       		.byte	0xf3
 4616 14f8 38130000 		.4byte	0x1338
 4617 14fc 02       		.uleb128 0x2
 4618 14fd 91       		.byte	0x91
 4619 14fe 74       		.sleb128 -12
 4620 14ff 00       		.byte	0
 4621 1500 22       		.uleb128 0x22
 4622 1501 29030000 		.4byte	.LASF232
 4623 1505 02       		.byte	0x2
 4624 1506 FC       		.byte	0xfc
 4625 1507 B8000000 		.4byte	0xb8
 4626 150b 00000000 		.4byte	.LFB53
 4627 150f 1C000000 		.4byte	.LFE53-.LFB53
 4628 1513 01       		.uleb128 0x1
 4629 1514 9C       		.byte	0x9c
 4630 1515 37150000 		.4byte	0x1537
 4631 1519 20       		.uleb128 0x20
 4632 151a F5070000 		.4byte	.LASF195
 4633 151e 02       		.byte	0x2
 4634 151f FC       		.byte	0xfc
 4635 1520 3E120000 		.4byte	0x123e
 4636 1524 02       		.uleb128 0x2
 4637 1525 91       		.byte	0x91
 4638 1526 6C       		.sleb128 -20
 4639 1527 2A       		.uleb128 0x2a
 4640 1528 65787400 		.ascii	"ext\000"
 4641 152c 02       		.byte	0x2
 4642 152d 0001     		.2byte	0x100
 4643 152f 38130000 		.4byte	0x1338
 4644 1533 02       		.uleb128 0x2
 4645 1534 91       		.byte	0x91
 4646 1535 74       		.sleb128 -12
 4647 1536 00       		.byte	0
 4648 1537 2B       		.uleb128 0x2b
 4649 1538 7E040000 		.4byte	.LASF233
 4650 153c 02       		.byte	0x2
 4651 153d 1201     		.2byte	0x112
 4652 153f D5010000 		.4byte	0x1d5
ARM GAS  C:\Users\tmj32\AppData\Local\Temp\ccmyxrAJ.s 			page 95


 4653 1543 00000000 		.4byte	.LFB54
 4654 1547 D0000000 		.4byte	.LFE54-.LFB54
 4655 154b 01       		.uleb128 0x1
 4656 154c 9C       		.byte	0x9c
 4657 154d D8150000 		.4byte	0x15d8
 4658 1551 2C       		.uleb128 0x2c
 4659 1552 F5070000 		.4byte	.LASF195
 4660 1556 02       		.byte	0x2
 4661 1557 1201     		.2byte	0x112
 4662 1559 D0110000 		.4byte	0x11d0
 4663 155d 03       		.uleb128 0x3
 4664 155e 91       		.byte	0x91
 4665 155f 947F     		.sleb128 -108
 4666 1561 2C       		.uleb128 0x2c
 4667 1562 D2060000 		.4byte	.LASF234
 4668 1566 02       		.byte	0x2
 4669 1567 1201     		.2byte	0x112
 4670 1569 C7050000 		.4byte	0x5c7
 4671 156d 03       		.uleb128 0x3
 4672 156e 91       		.byte	0x91
 4673 156f 907F     		.sleb128 -112
 4674 1571 2C       		.uleb128 0x2c
 4675 1572 370B0000 		.4byte	.LASF235
 4676 1576 02       		.byte	0x2
 4677 1577 1201     		.2byte	0x112
 4678 1579 39070000 		.4byte	0x739
 4679 157d 03       		.uleb128 0x3
 4680 157e 91       		.byte	0x91
 4681 157f 8F7F     		.sleb128 -113
 4682 1581 27       		.uleb128 0x27
 4683 1582 1E000000 		.4byte	.LBB6
 4684 1586 8E000000 		.4byte	.LBE6-.LBB6
 4685 158a 2D       		.uleb128 0x2d
 4686 158b B3080000 		.4byte	.LASF236
 4687 158f 02       		.byte	0x2
 4688 1590 1E01     		.2byte	0x11e
 4689 1592 D7080000 		.4byte	0x8d7
 4690 1596 02       		.uleb128 0x2
 4691 1597 91       		.byte	0x91
 4692 1598 74       		.sleb128 -12
 4693 1599 2D       		.uleb128 0x2d
 4694 159a 55080000 		.4byte	.LASF209
 4695 159e 02       		.byte	0x2
 4696 159f 1F01     		.2byte	0x11f
 4697 15a1 D7080000 		.4byte	0x8d7
 4698 15a5 02       		.uleb128 0x2
 4699 15a6 91       		.byte	0x91
 4700 15a7 70       		.sleb128 -16
 4701 15a8 2A       		.uleb128 0x2a
 4702 15a9 65787400 		.ascii	"ext\000"
 4703 15ad 02       		.byte	0x2
 4704 15ae 2001     		.2byte	0x120
 4705 15b0 38130000 		.4byte	0x1338
 4706 15b4 02       		.uleb128 0x2
 4707 15b5 91       		.byte	0x91
 4708 15b6 6C       		.sleb128 -20
 4709 15b7 2D       		.uleb128 0x2d
ARM GAS  C:\Users\tmj32\AppData\Local\Temp\ccmyxrAJ.s 			page 96


 4710 15b8 970B0000 		.4byte	.LASF237
 4711 15bc 02       		.byte	0x2
 4712 15bd 2501     		.2byte	0x125
 4713 15bf CE000000 		.4byte	0xce
 4714 15c3 02       		.uleb128 0x2
 4715 15c4 91       		.byte	0x91
 4716 15c5 6A       		.sleb128 -22
 4717 15c6 2D       		.uleb128 0x2d
 4718 15c7 6E070000 		.4byte	.LASF238
 4719 15cb 02       		.byte	0x2
 4720 15cc 2901     		.2byte	0x129
 4721 15ce 3E050000 		.4byte	0x53e
 4722 15d2 03       		.uleb128 0x3
 4723 15d3 91       		.byte	0x91
 4724 15d4 987F     		.sleb128 -104
 4725 15d6 00       		.byte	0
 4726 15d7 00       		.byte	0
 4727 15d8 2B       		.uleb128 0x2b
 4728 15d9 43040000 		.4byte	.LASF239
 4729 15dd 02       		.byte	0x2
 4730 15de 4701     		.2byte	0x147
 4731 15e0 68050000 		.4byte	0x568
 4732 15e4 00000000 		.4byte	.LFB55
 4733 15e8 6C000000 		.4byte	.LFE55-.LFB55
 4734 15ec 01       		.uleb128 0x1
 4735 15ed 9C       		.byte	0x9c
 4736 15ee 3E160000 		.4byte	0x163e
 4737 15f2 2C       		.uleb128 0x2c
 4738 15f3 F5070000 		.4byte	.LASF195
 4739 15f7 02       		.byte	0x2
 4740 15f8 4701     		.2byte	0x147
 4741 15fa D0110000 		.4byte	0x11d0
 4742 15fe 02       		.uleb128 0x2
 4743 15ff 91       		.byte	0x91
 4744 1600 6C       		.sleb128 -20
 4745 1601 2C       		.uleb128 0x2c
 4746 1602 4C010000 		.4byte	.LASF240
 4747 1606 02       		.byte	0x2
 4748 1607 4701     		.2byte	0x147
 4749 1609 1F080000 		.4byte	0x81f
 4750 160d 02       		.uleb128 0x2
 4751 160e 91       		.byte	0x91
 4752 160f 6B       		.sleb128 -21
 4753 1610 2C       		.uleb128 0x2c
 4754 1611 EF040000 		.4byte	.LASF241
 4755 1615 02       		.byte	0x2
 4756 1616 4701     		.2byte	0x147
 4757 1618 FA000000 		.4byte	0xfa
 4758 161c 02       		.uleb128 0x2
 4759 161d 91       		.byte	0x91
 4760 161e 64       		.sleb128 -28
 4761 161f 2A       		.uleb128 0x2a
 4762 1620 72657300 		.ascii	"res\000"
 4763 1624 02       		.byte	0x2
 4764 1625 4901     		.2byte	0x149
 4765 1627 68050000 		.4byte	0x568
 4766 162b 02       		.uleb128 0x2
ARM GAS  C:\Users\tmj32\AppData\Local\Temp\ccmyxrAJ.s 			page 97


 4767 162c 91       		.byte	0x91
 4768 162d 77       		.sleb128 -9
 4769 162e 2A       		.uleb128 0x2a
 4770 162f 65787400 		.ascii	"ext\000"
 4771 1633 02       		.byte	0x2
 4772 1634 5001     		.2byte	0x150
 4773 1636 38130000 		.4byte	0x1338
 4774 163a 02       		.uleb128 0x2
 4775 163b 91       		.byte	0x91
 4776 163c 70       		.sleb128 -16
 4777 163d 00       		.byte	0
 4778 163e 2E       		.uleb128 0x2e
 4779 163f 880C0000 		.4byte	.LASF242
 4780 1643 02       		.byte	0x2
 4781 1644 5E01     		.2byte	0x15e
 4782 1646 00000000 		.4byte	.LFB56
 4783 164a 70020000 		.4byte	.LFE56-.LFB56
 4784 164e 01       		.uleb128 0x1
 4785 164f 9C       		.byte	0x9c
 4786 1650 97170000 		.4byte	0x1797
 4787 1654 2C       		.uleb128 0x2c
 4788 1655 F5070000 		.4byte	.LASF195
 4789 1659 02       		.byte	0x2
 4790 165a 5E01     		.2byte	0x15e
 4791 165c D0110000 		.4byte	0x11d0
 4792 1660 03       		.uleb128 0x3
 4793 1661 91       		.byte	0x91
 4794 1662 A47F     		.sleb128 -92
 4795 1664 2C       		.uleb128 0x2c
 4796 1665 D2060000 		.4byte	.LASF234
 4797 1669 02       		.byte	0x2
 4798 166a 5E01     		.2byte	0x15e
 4799 166c C7050000 		.4byte	0x5c7
 4800 1670 03       		.uleb128 0x3
 4801 1671 91       		.byte	0x91
 4802 1672 A07F     		.sleb128 -96
 4803 1674 2D       		.uleb128 0x2d
 4804 1675 31080000 		.4byte	.LASF243
 4805 1679 02       		.byte	0x2
 4806 167a 6001     		.2byte	0x160
 4807 167c 97170000 		.4byte	0x1797
 4808 1680 03       		.uleb128 0x3
 4809 1681 91       		.byte	0x91
 4810 1682 B87F     		.sleb128 -72
 4811 1684 2A       		.uleb128 0x2a
 4812 1685 65787400 		.ascii	"ext\000"
 4813 1689 02       		.byte	0x2
 4814 168a 6201     		.2byte	0x162
 4815 168c 38130000 		.4byte	0x1338
 4816 1690 02       		.uleb128 0x2
 4817 1691 91       		.byte	0x91
 4818 1692 68       		.sleb128 -24
 4819 1693 2D       		.uleb128 0x2d
 4820 1694 55080000 		.4byte	.LASF209
 4821 1698 02       		.byte	0x2
 4822 1699 6301     		.2byte	0x163
 4823 169b D7080000 		.4byte	0x8d7
ARM GAS  C:\Users\tmj32\AppData\Local\Temp\ccmyxrAJ.s 			page 98


 4824 169f 02       		.uleb128 0x2
 4825 16a0 91       		.byte	0x91
 4826 16a1 64       		.sleb128 -28
 4827 16a2 2D       		.uleb128 0x2d
 4828 16a3 280D0000 		.4byte	.LASF104
 4829 16a7 02       		.byte	0x2
 4830 16a8 6401     		.2byte	0x164
 4831 16aa 91020000 		.4byte	0x291
 4832 16ae 02       		.uleb128 0x2
 4833 16af 91       		.byte	0x91
 4834 16b0 63       		.sleb128 -29
 4835 16b1 2A       		.uleb128 0x2a
 4836 16b2 7200     		.ascii	"r\000"
 4837 16b4 02       		.byte	0x2
 4838 16b5 6501     		.2byte	0x165
 4839 16b7 EF000000 		.4byte	0xef
 4840 16bb 02       		.uleb128 0x2
 4841 16bc 91       		.byte	0x91
 4842 16bd 60       		.sleb128 -32
 4843 16be 2D       		.uleb128 0x2d
 4844 16bf 1E010000 		.4byte	.LASF244
 4845 16c3 02       		.byte	0x2
 4846 16c4 6601     		.2byte	0x166
 4847 16c6 EF000000 		.4byte	0xef
 4848 16ca 02       		.uleb128 0x2
 4849 16cb 91       		.byte	0x91
 4850 16cc 5E       		.sleb128 -34
 4851 16cd 2D       		.uleb128 0x2d
 4852 16ce FD0B0000 		.4byte	.LASF245
 4853 16d2 02       		.byte	0x2
 4854 16d3 6701     		.2byte	0x167
 4855 16d5 EF000000 		.4byte	0xef
 4856 16d9 02       		.uleb128 0x2
 4857 16da 91       		.byte	0x91
 4858 16db 5C       		.sleb128 -36
 4859 16dc 2D       		.uleb128 0x2d
 4860 16dd FA0C0000 		.4byte	.LASF146
 4861 16e1 02       		.byte	0x2
 4862 16e2 6801     		.2byte	0x168
 4863 16e4 C3000000 		.4byte	0xc3
 4864 16e8 02       		.uleb128 0x2
 4865 16e9 91       		.byte	0x91
 4866 16ea 5A       		.sleb128 -38
 4867 16eb 2D       		.uleb128 0x2d
 4868 16ec AE060000 		.4byte	.LASF246
 4869 16f0 02       		.byte	0x2
 4870 16f1 6901     		.2byte	0x169
 4871 16f3 CE000000 		.4byte	0xce
 4872 16f7 02       		.uleb128 0x2
 4873 16f8 91       		.byte	0x91
 4874 16f9 58       		.sleb128 -40
 4875 16fa 2D       		.uleb128 0x2d
 4876 16fb 14000000 		.4byte	.LASF147
 4877 16ff 02       		.byte	0x2
 4878 1700 6A01     		.2byte	0x16a
 4879 1702 C3000000 		.4byte	0xc3
 4880 1706 02       		.uleb128 0x2
ARM GAS  C:\Users\tmj32\AppData\Local\Temp\ccmyxrAJ.s 			page 99


 4881 1707 91       		.byte	0x91
 4882 1708 56       		.sleb128 -42
 4883 1709 2A       		.uleb128 0x2a
 4884 170a 6D696E00 		.ascii	"min\000"
 4885 170e 02       		.byte	0x2
 4886 170f 6B01     		.2byte	0x16b
 4887 1711 C3000000 		.4byte	0xc3
 4888 1715 02       		.uleb128 0x2
 4889 1716 91       		.byte	0x91
 4890 1717 54       		.sleb128 -44
 4891 1718 2A       		.uleb128 0x2a
 4892 1719 6D617800 		.ascii	"max\000"
 4893 171d 02       		.byte	0x2
 4894 171e 6C01     		.2byte	0x16c
 4895 1720 C3000000 		.4byte	0xc3
 4896 1724 02       		.uleb128 0x2
 4897 1725 91       		.byte	0x91
 4898 1726 52       		.sleb128 -46
 4899 1727 2A       		.uleb128 0x2a
 4900 1728 6900     		.ascii	"i\000"
 4901 172a 02       		.byte	0x2
 4902 172b 6E01     		.2byte	0x16e
 4903 172d B8000000 		.4byte	0xb8
 4904 1731 02       		.uleb128 0x2
 4905 1732 91       		.byte	0x91
 4906 1733 6F       		.sleb128 -17
 4907 1734 27       		.uleb128 0x27
 4908 1735 DE000000 		.4byte	.LBB7
 4909 1739 6E010000 		.4byte	.LBE7-.LBB7
 4910 173d 2D       		.uleb128 0x2d
 4911 173e 37050000 		.4byte	.LASF226
 4912 1742 02       		.byte	0x2
 4913 1743 7101     		.2byte	0x171
 4914 1745 C3000000 		.4byte	0xc3
 4915 1749 02       		.uleb128 0x2
 4916 174a 91       		.byte	0x91
 4917 174b 50       		.sleb128 -48
 4918 174c 2A       		.uleb128 0x2a
 4919 174d 7900     		.ascii	"y\000"
 4920 174f 02       		.byte	0x2
 4921 1750 7301     		.2byte	0x173
 4922 1752 EF000000 		.4byte	0xef
 4923 1756 02       		.uleb128 0x2
 4924 1757 91       		.byte	0x91
 4925 1758 4E       		.sleb128 -50
 4926 1759 2A       		.uleb128 0x2a
 4927 175a 7800     		.ascii	"x\000"
 4928 175c 02       		.byte	0x2
 4929 175d 7601     		.2byte	0x176
 4930 175f EF000000 		.4byte	0xef
 4931 1763 02       		.uleb128 0x2
 4932 1764 91       		.byte	0x91
 4933 1765 4C       		.sleb128 -52
 4934 1766 2D       		.uleb128 0x2d
 4935 1767 BB010000 		.4byte	.LASF247
 4936 176b 02       		.byte	0x2
 4937 176c 7901     		.2byte	0x179
ARM GAS  C:\Users\tmj32\AppData\Local\Temp\ccmyxrAJ.s 			page 100


 4938 176e C3000000 		.4byte	0xc3
 4939 1772 02       		.uleb128 0x2
 4940 1773 91       		.byte	0x91
 4941 1774 4A       		.sleb128 -54
 4942 1775 2D       		.uleb128 0x2d
 4943 1776 02020000 		.4byte	.LASF248
 4944 177a 02       		.byte	0x2
 4945 177b 7D01     		.2byte	0x17d
 4946 177d 08030000 		.4byte	0x308
 4947 1781 03       		.uleb128 0x3
 4948 1782 91       		.byte	0x91
 4949 1783 B07F     		.sleb128 -80
 4950 1785 2D       		.uleb128 0x2d
 4951 1786 9E030000 		.4byte	.LASF249
 4952 178a 02       		.byte	0x2
 4953 178b 7E01     		.2byte	0x17e
 4954 178d C8020000 		.4byte	0x2c8
 4955 1791 03       		.uleb128 0x3
 4956 1792 91       		.byte	0x91
 4957 1793 AC7F     		.sleb128 -84
 4958 1795 00       		.byte	0
 4959 1796 00       		.byte	0
 4960 1797 2F       		.uleb128 0x2f
 4961 1798 A4020000 		.4byte	0x2a4
 4962 179c A7170000 		.4byte	0x17a7
 4963 17a0 30       		.uleb128 0x30
 4964 17a1 9D020000 		.4byte	0x29d
 4965 17a5 0F       		.byte	0xf
 4966 17a6 00       		.byte	0
 4967 17a7 2E       		.uleb128 0x2e
 4968 17a8 3F070000 		.4byte	.LASF250
 4969 17ac 02       		.byte	0x2
 4970 17ad 9001     		.2byte	0x190
 4971 17af 00000000 		.4byte	.LFB57
 4972 17b3 DC030000 		.4byte	.LFE57-.LFB57
 4973 17b7 01       		.uleb128 0x1
 4974 17b8 9C       		.byte	0x9c
 4975 17b9 53190000 		.4byte	0x1953
 4976 17bd 2C       		.uleb128 0x2c
 4977 17be F5070000 		.4byte	.LASF195
 4978 17c2 02       		.byte	0x2
 4979 17c3 9001     		.2byte	0x190
 4980 17c5 D0110000 		.4byte	0x11d0
 4981 17c9 03       		.uleb128 0x3
 4982 17ca 91       		.byte	0x91
 4983 17cb 947E     		.sleb128 -236
 4984 17cd 2C       		.uleb128 0x2c
 4985 17ce D2060000 		.4byte	.LASF234
 4986 17d2 02       		.byte	0x2
 4987 17d3 9001     		.2byte	0x190
 4988 17d5 C7050000 		.4byte	0x5c7
 4989 17d9 03       		.uleb128 0x3
 4990 17da 91       		.byte	0x91
 4991 17db 907E     		.sleb128 -240
 4992 17dd 2D       		.uleb128 0x2d
 4993 17de 61070000 		.4byte	.LASF251
 4994 17e2 02       		.byte	0x2
ARM GAS  C:\Users\tmj32\AppData\Local\Temp\ccmyxrAJ.s 			page 101


 4995 17e3 9201     		.2byte	0x192
 4996 17e5 3E050000 		.4byte	0x53e
 4997 17e9 03       		.uleb128 0x3
 4998 17ea 91       		.byte	0x91
 4999 17eb 807F     		.sleb128 -128
 5000 17ed 2A       		.uleb128 0x2a
 5001 17ee 65787400 		.ascii	"ext\000"
 5002 17f2 02       		.byte	0x2
 5003 17f3 9301     		.2byte	0x193
 5004 17f5 38130000 		.4byte	0x1338
 5005 17f9 02       		.uleb128 0x2
 5006 17fa 91       		.byte	0x91
 5007 17fb 6C       		.sleb128 -20
 5008 17fc 2D       		.uleb128 0x2d
 5009 17fd 55080000 		.4byte	.LASF209
 5010 1801 02       		.byte	0x2
 5011 1802 9401     		.2byte	0x194
 5012 1804 D7080000 		.4byte	0x8d7
 5013 1808 02       		.uleb128 0x2
 5014 1809 91       		.byte	0x91
 5015 180a 68       		.sleb128 -24
 5016 180b 2D       		.uleb128 0x2d
 5017 180c 280D0000 		.4byte	.LASF104
 5018 1810 02       		.byte	0x2
 5019 1811 9501     		.2byte	0x195
 5020 1813 91020000 		.4byte	0x291
 5021 1817 02       		.uleb128 0x2
 5022 1818 91       		.byte	0x91
 5023 1819 67       		.sleb128 -25
 5024 181a 2A       		.uleb128 0x2a
 5025 181b 7200     		.ascii	"r\000"
 5026 181d 02       		.byte	0x2
 5027 181e 9701     		.2byte	0x197
 5028 1820 EF000000 		.4byte	0xef
 5029 1824 02       		.uleb128 0x2
 5030 1825 91       		.byte	0x91
 5031 1826 64       		.sleb128 -28
 5032 1827 2D       		.uleb128 0x2d
 5033 1828 1E010000 		.4byte	.LASF244
 5034 182c 02       		.byte	0x2
 5035 182d 9801     		.2byte	0x198
 5036 182f EF000000 		.4byte	0xef
 5037 1833 02       		.uleb128 0x2
 5038 1834 91       		.byte	0x91
 5039 1835 62       		.sleb128 -30
 5040 1836 2D       		.uleb128 0x2d
 5041 1837 FD0B0000 		.4byte	.LASF245
 5042 183b 02       		.byte	0x2
 5043 183c 9901     		.2byte	0x199
 5044 183e EF000000 		.4byte	0xef
 5045 1842 02       		.uleb128 0x2
 5046 1843 91       		.byte	0x91
 5047 1844 60       		.sleb128 -32
 5048 1845 2D       		.uleb128 0x2d
 5049 1846 37050000 		.4byte	.LASF226
 5050 184a 02       		.byte	0x2
 5051 184b 9A01     		.2byte	0x19a
ARM GAS  C:\Users\tmj32\AppData\Local\Temp\ccmyxrAJ.s 			page 102


 5052 184d CE000000 		.4byte	0xce
 5053 1851 02       		.uleb128 0x2
 5054 1852 91       		.byte	0x91
 5055 1853 5E       		.sleb128 -34
 5056 1854 2D       		.uleb128 0x2d
 5057 1855 14000000 		.4byte	.LASF147
 5058 1859 02       		.byte	0x2
 5059 185a 9B01     		.2byte	0x19b
 5060 185c C3000000 		.4byte	0xc3
 5061 1860 02       		.uleb128 0x2
 5062 1861 91       		.byte	0x91
 5063 1862 5C       		.sleb128 -36
 5064 1863 2A       		.uleb128 0x2a
 5065 1864 6D696E00 		.ascii	"min\000"
 5066 1868 02       		.byte	0x2
 5067 1869 9C01     		.2byte	0x19c
 5068 186b C3000000 		.4byte	0xc3
 5069 186f 02       		.uleb128 0x2
 5070 1870 91       		.byte	0x91
 5071 1871 5A       		.sleb128 -38
 5072 1872 2A       		.uleb128 0x2a
 5073 1873 6D617800 		.ascii	"max\000"
 5074 1877 02       		.byte	0x2
 5075 1878 9D01     		.2byte	0x19d
 5076 187a C3000000 		.4byte	0xc3
 5077 187e 02       		.uleb128 0x2
 5078 187f 91       		.byte	0x91
 5079 1880 58       		.sleb128 -40
 5080 1881 2D       		.uleb128 0x2d
 5081 1882 9A080000 		.4byte	.LASF252
 5082 1886 02       		.byte	0x2
 5083 1887 9E01     		.2byte	0x19e
 5084 1889 C8020000 		.4byte	0x2c8
 5085 188d 03       		.uleb128 0x3
 5086 188e 91       		.byte	0x91
 5087 188f FC7E     		.sleb128 -132
 5088 1891 2D       		.uleb128 0x2d
 5089 1892 5D020000 		.4byte	.LASF253
 5090 1896 02       		.byte	0x2
 5091 1897 9F01     		.2byte	0x19f
 5092 1899 C8020000 		.4byte	0x2c8
 5093 189d 03       		.uleb128 0x3
 5094 189e 91       		.byte	0x91
 5095 189f F87E     		.sleb128 -136
 5096 18a1 2D       		.uleb128 0x2d
 5097 18a2 FA040000 		.4byte	.LASF254
 5098 18a6 02       		.byte	0x2
 5099 18a7 A001     		.2byte	0x1a0
 5100 18a9 C8020000 		.4byte	0x2c8
 5101 18ad 03       		.uleb128 0x3
 5102 18ae 91       		.byte	0x91
 5103 18af F47E     		.sleb128 -140
 5104 18b1 2D       		.uleb128 0x2d
 5105 18b2 560A0000 		.4byte	.LASF255
 5106 18b6 02       		.byte	0x2
 5107 18b7 A101     		.2byte	0x1a1
 5108 18b9 C8020000 		.4byte	0x2c8
ARM GAS  C:\Users\tmj32\AppData\Local\Temp\ccmyxrAJ.s 			page 103


 5109 18bd 03       		.uleb128 0x3
 5110 18be 91       		.byte	0x91
 5111 18bf F07E     		.sleb128 -144
 5112 18c1 2A       		.uleb128 0x2a
 5113 18c2 6900     		.ascii	"i\000"
 5114 18c4 02       		.byte	0x2
 5115 18c5 A201     		.2byte	0x1a2
 5116 18c7 B8000000 		.4byte	0xb8
 5117 18cb 02       		.uleb128 0x2
 5118 18cc 91       		.byte	0x91
 5119 18cd 77       		.sleb128 -9
 5120 18ce 2D       		.uleb128 0x2d
 5121 18cf 0D040000 		.4byte	.LASF256
 5122 18d3 02       		.byte	0x2
 5123 18d4 CA01     		.2byte	0x1ca
 5124 18d6 3E050000 		.4byte	0x53e
 5125 18da 03       		.uleb128 0x3
 5126 18db 91       		.byte	0x91
 5127 18dc A07E     		.sleb128 -224
 5128 18de 2D       		.uleb128 0x2d
 5129 18df 71010000 		.4byte	.LASF257
 5130 18e3 02       		.byte	0x2
 5131 18e4 D001     		.2byte	0x1d0
 5132 18e6 08030000 		.4byte	0x308
 5133 18ea 03       		.uleb128 0x3
 5134 18eb 91       		.byte	0x91
 5135 18ec 987E     		.sleb128 -232
 5136 18ee 27       		.uleb128 0x27
 5137 18ef F6000000 		.4byte	.LBB8
 5138 18f3 2A020000 		.4byte	.LBE8-.LBB8
 5139 18f7 2D       		.uleb128 0x2d
 5140 18f8 080C0000 		.4byte	.LASF258
 5141 18fc 02       		.byte	0x2
 5142 18fd AA01     		.2byte	0x1aa
 5143 18ff C3000000 		.4byte	0xc3
 5144 1903 02       		.uleb128 0x2
 5145 1904 91       		.byte	0x91
 5146 1905 56       		.sleb128 -42
 5147 1906 2D       		.uleb128 0x2d
 5148 1907 DB070000 		.4byte	.LASF259
 5149 190b 02       		.byte	0x2
 5150 190c AD01     		.2byte	0x1ad
 5151 190e C3000000 		.4byte	0xc3
 5152 1912 02       		.uleb128 0x2
 5153 1913 91       		.byte	0x91
 5154 1914 54       		.sleb128 -44
 5155 1915 2D       		.uleb128 0x2d
 5156 1916 4B020000 		.4byte	.LASF260
 5157 191a 02       		.byte	0x2
 5158 191b AE01     		.2byte	0x1ae
 5159 191d C3000000 		.4byte	0xc3
 5160 1921 02       		.uleb128 0x2
 5161 1922 91       		.byte	0x91
 5162 1923 52       		.sleb128 -46
 5163 1924 2A       		.uleb128 0x2a
 5164 1925 72656D00 		.ascii	"rem\000"
 5165 1929 02       		.byte	0x2
ARM GAS  C:\Users\tmj32\AppData\Local\Temp\ccmyxrAJ.s 			page 104


 5166 192a B601     		.2byte	0x1b6
 5167 192c CE000000 		.4byte	0xce
 5168 1930 02       		.uleb128 0x2
 5169 1931 91       		.byte	0x91
 5170 1932 50       		.sleb128 -48
 5171 1933 2D       		.uleb128 0x2d
 5172 1934 5D0C0000 		.4byte	.LASF261
 5173 1938 02       		.byte	0x2
 5174 1939 B701     		.2byte	0x1b7
 5175 193b C3000000 		.4byte	0xc3
 5176 193f 02       		.uleb128 0x2
 5177 1940 91       		.byte	0x91
 5178 1941 74       		.sleb128 -12
 5179 1942 2D       		.uleb128 0x2d
 5180 1943 A10A0000 		.4byte	.LASF262
 5181 1947 02       		.byte	0x2
 5182 1948 B801     		.2byte	0x1b8
 5183 194a C3000000 		.4byte	0xc3
 5184 194e 02       		.uleb128 0x2
 5185 194f 91       		.byte	0x91
 5186 1950 72       		.sleb128 -14
 5187 1951 00       		.byte	0
 5188 1952 00       		.byte	0
 5189 1953 24       		.uleb128 0x24
 5190 1954 61090000 		.4byte	.LASF263
 5191 1958 02       		.byte	0x2
 5192 1959 30       		.byte	0x30
 5193 195a 44070000 		.4byte	0x744
 5194 195e 05       		.uleb128 0x5
 5195 195f 03       		.byte	0x3
 5196 1960 00000000 		.4byte	ancestor_design
 5197 1964 24       		.uleb128 0x24
 5198 1965 51090000 		.4byte	.LASF264
 5199 1969 02       		.byte	0x2
 5200 196a 31       		.byte	0x31
 5201 196b 2A080000 		.4byte	0x82a
 5202 196f 05       		.uleb128 0x5
 5203 1970 03       		.byte	0x3
 5204 1971 04000000 		.4byte	ancestor_signal
 5205 1975 31       		.uleb128 0x31
 5206 1976 8F070000 		.4byte	.LASF265
 5207 197a 09       		.byte	0x9
 5208 197b 0F01     		.2byte	0x10f
 5209 197d 3E050000 		.4byte	0x53e
 5210 1981 31       		.uleb128 0x31
 5211 1982 5B000000 		.4byte	.LASF266
 5212 1986 09       		.byte	0x9
 5213 1987 1201     		.2byte	0x112
 5214 1989 3E050000 		.4byte	0x53e
 5215 198d 00       		.byte	0
 5216              		.section	.debug_abbrev,"",%progbits
 5217              	.Ldebug_abbrev0:
 5218 0000 01       		.uleb128 0x1
 5219 0001 11       		.uleb128 0x11
 5220 0002 01       		.byte	0x1
 5221 0003 25       		.uleb128 0x25
 5222 0004 0E       		.uleb128 0xe
ARM GAS  C:\Users\tmj32\AppData\Local\Temp\ccmyxrAJ.s 			page 105


 5223 0005 13       		.uleb128 0x13
 5224 0006 0B       		.uleb128 0xb
 5225 0007 03       		.uleb128 0x3
 5226 0008 0E       		.uleb128 0xe
 5227 0009 1B       		.uleb128 0x1b
 5228 000a 0E       		.uleb128 0xe
 5229 000b 55       		.uleb128 0x55
 5230 000c 17       		.uleb128 0x17
 5231 000d 11       		.uleb128 0x11
 5232 000e 01       		.uleb128 0x1
 5233 000f 10       		.uleb128 0x10
 5234 0010 17       		.uleb128 0x17
 5235 0011 00       		.byte	0
 5236 0012 00       		.byte	0
 5237 0013 02       		.uleb128 0x2
 5238 0014 16       		.uleb128 0x16
 5239 0015 00       		.byte	0
 5240 0016 03       		.uleb128 0x3
 5241 0017 0E       		.uleb128 0xe
 5242 0018 3A       		.uleb128 0x3a
 5243 0019 0B       		.uleb128 0xb
 5244 001a 3B       		.uleb128 0x3b
 5245 001b 0B       		.uleb128 0xb
 5246 001c 49       		.uleb128 0x49
 5247 001d 13       		.uleb128 0x13
 5248 001e 00       		.byte	0
 5249 001f 00       		.byte	0
 5250 0020 03       		.uleb128 0x3
 5251 0021 24       		.uleb128 0x24
 5252 0022 00       		.byte	0
 5253 0023 0B       		.uleb128 0xb
 5254 0024 0B       		.uleb128 0xb
 5255 0025 3E       		.uleb128 0x3e
 5256 0026 0B       		.uleb128 0xb
 5257 0027 03       		.uleb128 0x3
 5258 0028 0E       		.uleb128 0xe
 5259 0029 00       		.byte	0
 5260 002a 00       		.byte	0
 5261 002b 04       		.uleb128 0x4
 5262 002c 24       		.uleb128 0x24
 5263 002d 00       		.byte	0
 5264 002e 0B       		.uleb128 0xb
 5265 002f 0B       		.uleb128 0xb
 5266 0030 3E       		.uleb128 0x3e
 5267 0031 0B       		.uleb128 0xb
 5268 0032 03       		.uleb128 0x3
 5269 0033 08       		.uleb128 0x8
 5270 0034 00       		.byte	0
 5271 0035 00       		.byte	0
 5272 0036 05       		.uleb128 0x5
 5273 0037 0F       		.uleb128 0xf
 5274 0038 00       		.byte	0
 5275 0039 0B       		.uleb128 0xb
 5276 003a 0B       		.uleb128 0xb
 5277 003b 00       		.byte	0
 5278 003c 00       		.byte	0
 5279 003d 06       		.uleb128 0x6
ARM GAS  C:\Users\tmj32\AppData\Local\Temp\ccmyxrAJ.s 			page 106


 5280 003e 13       		.uleb128 0x13
 5281 003f 01       		.byte	0x1
 5282 0040 0B       		.uleb128 0xb
 5283 0041 0B       		.uleb128 0xb
 5284 0042 3A       		.uleb128 0x3a
 5285 0043 0B       		.uleb128 0xb
 5286 0044 3B       		.uleb128 0x3b
 5287 0045 0B       		.uleb128 0xb
 5288 0046 01       		.uleb128 0x1
 5289 0047 13       		.uleb128 0x13
 5290 0048 00       		.byte	0
 5291 0049 00       		.byte	0
 5292 004a 07       		.uleb128 0x7
 5293 004b 0D       		.uleb128 0xd
 5294 004c 00       		.byte	0
 5295 004d 03       		.uleb128 0x3
 5296 004e 0E       		.uleb128 0xe
 5297 004f 3A       		.uleb128 0x3a
 5298 0050 0B       		.uleb128 0xb
 5299 0051 3B       		.uleb128 0x3b
 5300 0052 0B       		.uleb128 0xb
 5301 0053 49       		.uleb128 0x49
 5302 0054 13       		.uleb128 0x13
 5303 0055 38       		.uleb128 0x38
 5304 0056 0B       		.uleb128 0xb
 5305 0057 00       		.byte	0
 5306 0058 00       		.byte	0
 5307 0059 08       		.uleb128 0x8
 5308 005a 0D       		.uleb128 0xd
 5309 005b 00       		.byte	0
 5310 005c 03       		.uleb128 0x3
 5311 005d 08       		.uleb128 0x8
 5312 005e 3A       		.uleb128 0x3a
 5313 005f 0B       		.uleb128 0xb
 5314 0060 3B       		.uleb128 0x3b
 5315 0061 0B       		.uleb128 0xb
 5316 0062 49       		.uleb128 0x49
 5317 0063 13       		.uleb128 0x13
 5318 0064 38       		.uleb128 0x38
 5319 0065 0B       		.uleb128 0xb
 5320 0066 00       		.byte	0
 5321 0067 00       		.byte	0
 5322 0068 09       		.uleb128 0x9
 5323 0069 13       		.uleb128 0x13
 5324 006a 01       		.byte	0x1
 5325 006b 03       		.uleb128 0x3
 5326 006c 0E       		.uleb128 0xe
 5327 006d 0B       		.uleb128 0xb
 5328 006e 0B       		.uleb128 0xb
 5329 006f 3A       		.uleb128 0x3a
 5330 0070 0B       		.uleb128 0xb
 5331 0071 3B       		.uleb128 0x3b
 5332 0072 0B       		.uleb128 0xb
 5333 0073 01       		.uleb128 0x1
 5334 0074 13       		.uleb128 0x13
 5335 0075 00       		.byte	0
 5336 0076 00       		.byte	0
ARM GAS  C:\Users\tmj32\AppData\Local\Temp\ccmyxrAJ.s 			page 107


 5337 0077 0A       		.uleb128 0xa
 5338 0078 0D       		.uleb128 0xd
 5339 0079 00       		.byte	0
 5340 007a 03       		.uleb128 0x3
 5341 007b 0E       		.uleb128 0xe
 5342 007c 3A       		.uleb128 0x3a
 5343 007d 0B       		.uleb128 0xb
 5344 007e 3B       		.uleb128 0x3b
 5345 007f 0B       		.uleb128 0xb
 5346 0080 49       		.uleb128 0x49
 5347 0081 13       		.uleb128 0x13
 5348 0082 0B       		.uleb128 0xb
 5349 0083 0B       		.uleb128 0xb
 5350 0084 0D       		.uleb128 0xd
 5351 0085 0B       		.uleb128 0xb
 5352 0086 0C       		.uleb128 0xc
 5353 0087 0B       		.uleb128 0xb
 5354 0088 38       		.uleb128 0x38
 5355 0089 0B       		.uleb128 0xb
 5356 008a 00       		.byte	0
 5357 008b 00       		.byte	0
 5358 008c 0B       		.uleb128 0xb
 5359 008d 15       		.uleb128 0x15
 5360 008e 01       		.byte	0x1
 5361 008f 27       		.uleb128 0x27
 5362 0090 19       		.uleb128 0x19
 5363 0091 49       		.uleb128 0x49
 5364 0092 13       		.uleb128 0x13
 5365 0093 01       		.uleb128 0x1
 5366 0094 13       		.uleb128 0x13
 5367 0095 00       		.byte	0
 5368 0096 00       		.byte	0
 5369 0097 0C       		.uleb128 0xc
 5370 0098 05       		.uleb128 0x5
 5371 0099 00       		.byte	0
 5372 009a 49       		.uleb128 0x49
 5373 009b 13       		.uleb128 0x13
 5374 009c 00       		.byte	0
 5375 009d 00       		.byte	0
 5376 009e 0D       		.uleb128 0xd
 5377 009f 0F       		.uleb128 0xf
 5378 00a0 00       		.byte	0
 5379 00a1 0B       		.uleb128 0xb
 5380 00a2 0B       		.uleb128 0xb
 5381 00a3 49       		.uleb128 0x49
 5382 00a4 13       		.uleb128 0x13
 5383 00a5 00       		.byte	0
 5384 00a6 00       		.byte	0
 5385 00a7 0E       		.uleb128 0xe
 5386 00a8 26       		.uleb128 0x26
 5387 00a9 00       		.byte	0
 5388 00aa 49       		.uleb128 0x49
 5389 00ab 13       		.uleb128 0x13
 5390 00ac 00       		.byte	0
 5391 00ad 00       		.byte	0
 5392 00ae 0F       		.uleb128 0xf
 5393 00af 17       		.uleb128 0x17
ARM GAS  C:\Users\tmj32\AppData\Local\Temp\ccmyxrAJ.s 			page 108


 5394 00b0 01       		.byte	0x1
 5395 00b1 0B       		.uleb128 0xb
 5396 00b2 0B       		.uleb128 0xb
 5397 00b3 3A       		.uleb128 0x3a
 5398 00b4 0B       		.uleb128 0xb
 5399 00b5 3B       		.uleb128 0x3b
 5400 00b6 0B       		.uleb128 0xb
 5401 00b7 01       		.uleb128 0x1
 5402 00b8 13       		.uleb128 0x13
 5403 00b9 00       		.byte	0
 5404 00ba 00       		.byte	0
 5405 00bb 10       		.uleb128 0x10
 5406 00bc 0D       		.uleb128 0xd
 5407 00bd 00       		.byte	0
 5408 00be 03       		.uleb128 0x3
 5409 00bf 08       		.uleb128 0x8
 5410 00c0 3A       		.uleb128 0x3a
 5411 00c1 0B       		.uleb128 0xb
 5412 00c2 3B       		.uleb128 0x3b
 5413 00c3 0B       		.uleb128 0xb
 5414 00c4 49       		.uleb128 0x49
 5415 00c5 13       		.uleb128 0x13
 5416 00c6 00       		.byte	0
 5417 00c7 00       		.byte	0
 5418 00c8 11       		.uleb128 0x11
 5419 00c9 0D       		.uleb128 0xd
 5420 00ca 00       		.byte	0
 5421 00cb 03       		.uleb128 0x3
 5422 00cc 0E       		.uleb128 0xe
 5423 00cd 3A       		.uleb128 0x3a
 5424 00ce 0B       		.uleb128 0xb
 5425 00cf 3B       		.uleb128 0x3b
 5426 00d0 0B       		.uleb128 0xb
 5427 00d1 49       		.uleb128 0x49
 5428 00d2 13       		.uleb128 0x13
 5429 00d3 00       		.byte	0
 5430 00d4 00       		.byte	0
 5431 00d5 12       		.uleb128 0x12
 5432 00d6 16       		.uleb128 0x16
 5433 00d7 00       		.byte	0
 5434 00d8 03       		.uleb128 0x3
 5435 00d9 0E       		.uleb128 0xe
 5436 00da 3A       		.uleb128 0x3a
 5437 00db 0B       		.uleb128 0xb
 5438 00dc 3B       		.uleb128 0x3b
 5439 00dd 05       		.uleb128 0x5
 5440 00de 49       		.uleb128 0x49
 5441 00df 13       		.uleb128 0x13
 5442 00e0 00       		.byte	0
 5443 00e1 00       		.byte	0
 5444 00e2 13       		.uleb128 0x13
 5445 00e3 04       		.uleb128 0x4
 5446 00e4 01       		.byte	0x1
 5447 00e5 0B       		.uleb128 0xb
 5448 00e6 0B       		.uleb128 0xb
 5449 00e7 49       		.uleb128 0x49
 5450 00e8 13       		.uleb128 0x13
ARM GAS  C:\Users\tmj32\AppData\Local\Temp\ccmyxrAJ.s 			page 109


 5451 00e9 3A       		.uleb128 0x3a
 5452 00ea 0B       		.uleb128 0xb
 5453 00eb 3B       		.uleb128 0x3b
 5454 00ec 0B       		.uleb128 0xb
 5455 00ed 01       		.uleb128 0x1
 5456 00ee 13       		.uleb128 0x13
 5457 00ef 00       		.byte	0
 5458 00f0 00       		.byte	0
 5459 00f1 14       		.uleb128 0x14
 5460 00f2 28       		.uleb128 0x28
 5461 00f3 00       		.byte	0
 5462 00f4 03       		.uleb128 0x3
 5463 00f5 0E       		.uleb128 0xe
 5464 00f6 1C       		.uleb128 0x1c
 5465 00f7 0B       		.uleb128 0xb
 5466 00f8 00       		.byte	0
 5467 00f9 00       		.byte	0
 5468 00fa 15       		.uleb128 0x15
 5469 00fb 0D       		.uleb128 0xd
 5470 00fc 00       		.byte	0
 5471 00fd 03       		.uleb128 0x3
 5472 00fe 08       		.uleb128 0x8
 5473 00ff 3A       		.uleb128 0x3a
 5474 0100 0B       		.uleb128 0xb
 5475 0101 3B       		.uleb128 0x3b
 5476 0102 0B       		.uleb128 0xb
 5477 0103 49       		.uleb128 0x49
 5478 0104 13       		.uleb128 0x13
 5479 0105 0B       		.uleb128 0xb
 5480 0106 0B       		.uleb128 0xb
 5481 0107 0D       		.uleb128 0xd
 5482 0108 0B       		.uleb128 0xb
 5483 0109 0C       		.uleb128 0xc
 5484 010a 0B       		.uleb128 0xb
 5485 010b 38       		.uleb128 0x38
 5486 010c 0B       		.uleb128 0xb
 5487 010d 00       		.byte	0
 5488 010e 00       		.byte	0
 5489 010f 16       		.uleb128 0x16
 5490 0110 15       		.uleb128 0x15
 5491 0111 01       		.byte	0x1
 5492 0112 27       		.uleb128 0x27
 5493 0113 19       		.uleb128 0x19
 5494 0114 01       		.uleb128 0x1
 5495 0115 13       		.uleb128 0x13
 5496 0116 00       		.byte	0
 5497 0117 00       		.byte	0
 5498 0118 17       		.uleb128 0x17
 5499 0119 0D       		.uleb128 0xd
 5500 011a 00       		.byte	0
 5501 011b 03       		.uleb128 0x3
 5502 011c 08       		.uleb128 0x8
 5503 011d 3A       		.uleb128 0x3a
 5504 011e 0B       		.uleb128 0xb
 5505 011f 3B       		.uleb128 0x3b
 5506 0120 05       		.uleb128 0x5
 5507 0121 49       		.uleb128 0x49
ARM GAS  C:\Users\tmj32\AppData\Local\Temp\ccmyxrAJ.s 			page 110


 5508 0122 13       		.uleb128 0x13
 5509 0123 38       		.uleb128 0x38
 5510 0124 0B       		.uleb128 0xb
 5511 0125 00       		.byte	0
 5512 0126 00       		.byte	0
 5513 0127 18       		.uleb128 0x18
 5514 0128 0D       		.uleb128 0xd
 5515 0129 00       		.byte	0
 5516 012a 03       		.uleb128 0x3
 5517 012b 0E       		.uleb128 0xe
 5518 012c 3A       		.uleb128 0x3a
 5519 012d 0B       		.uleb128 0xb
 5520 012e 3B       		.uleb128 0x3b
 5521 012f 05       		.uleb128 0x5
 5522 0130 49       		.uleb128 0x49
 5523 0131 13       		.uleb128 0x13
 5524 0132 38       		.uleb128 0x38
 5525 0133 0B       		.uleb128 0xb
 5526 0134 00       		.byte	0
 5527 0135 00       		.byte	0
 5528 0136 19       		.uleb128 0x19
 5529 0137 13       		.uleb128 0x13
 5530 0138 01       		.byte	0x1
 5531 0139 0B       		.uleb128 0xb
 5532 013a 0B       		.uleb128 0xb
 5533 013b 3A       		.uleb128 0x3a
 5534 013c 0B       		.uleb128 0xb
 5535 013d 3B       		.uleb128 0x3b
 5536 013e 05       		.uleb128 0x5
 5537 013f 01       		.uleb128 0x1
 5538 0140 13       		.uleb128 0x13
 5539 0141 00       		.byte	0
 5540 0142 00       		.byte	0
 5541 0143 1A       		.uleb128 0x1a
 5542 0144 13       		.uleb128 0x13
 5543 0145 01       		.byte	0x1
 5544 0146 0B       		.uleb128 0xb
 5545 0147 05       		.uleb128 0x5
 5546 0148 3A       		.uleb128 0x3a
 5547 0149 0B       		.uleb128 0xb
 5548 014a 3B       		.uleb128 0x3b
 5549 014b 0B       		.uleb128 0xb
 5550 014c 01       		.uleb128 0x1
 5551 014d 13       		.uleb128 0x13
 5552 014e 00       		.byte	0
 5553 014f 00       		.byte	0
 5554 0150 1B       		.uleb128 0x1b
 5555 0151 0D       		.uleb128 0xd
 5556 0152 00       		.byte	0
 5557 0153 03       		.uleb128 0x3
 5558 0154 0E       		.uleb128 0xe
 5559 0155 3A       		.uleb128 0x3a
 5560 0156 0B       		.uleb128 0xb
 5561 0157 3B       		.uleb128 0x3b
 5562 0158 0B       		.uleb128 0xb
 5563 0159 49       		.uleb128 0x49
 5564 015a 13       		.uleb128 0x13
ARM GAS  C:\Users\tmj32\AppData\Local\Temp\ccmyxrAJ.s 			page 111


 5565 015b 38       		.uleb128 0x38
 5566 015c 05       		.uleb128 0x5
 5567 015d 00       		.byte	0
 5568 015e 00       		.byte	0
 5569 015f 1C       		.uleb128 0x1c
 5570 0160 0D       		.uleb128 0xd
 5571 0161 00       		.byte	0
 5572 0162 03       		.uleb128 0x3
 5573 0163 08       		.uleb128 0x8
 5574 0164 3A       		.uleb128 0x3a
 5575 0165 0B       		.uleb128 0xb
 5576 0166 3B       		.uleb128 0x3b
 5577 0167 0B       		.uleb128 0xb
 5578 0168 49       		.uleb128 0x49
 5579 0169 13       		.uleb128 0x13
 5580 016a 38       		.uleb128 0x38
 5581 016b 05       		.uleb128 0x5
 5582 016c 00       		.byte	0
 5583 016d 00       		.byte	0
 5584 016e 1D       		.uleb128 0x1d
 5585 016f 0D       		.uleb128 0xd
 5586 0170 00       		.byte	0
 5587 0171 03       		.uleb128 0x3
 5588 0172 0E       		.uleb128 0xe
 5589 0173 3A       		.uleb128 0x3a
 5590 0174 0B       		.uleb128 0xb
 5591 0175 3B       		.uleb128 0x3b
 5592 0176 05       		.uleb128 0x5
 5593 0177 49       		.uleb128 0x49
 5594 0178 13       		.uleb128 0x13
 5595 0179 38       		.uleb128 0x38
 5596 017a 05       		.uleb128 0x5
 5597 017b 00       		.byte	0
 5598 017c 00       		.byte	0
 5599 017d 1E       		.uleb128 0x1e
 5600 017e 0D       		.uleb128 0xd
 5601 017f 00       		.byte	0
 5602 0180 03       		.uleb128 0x3
 5603 0181 08       		.uleb128 0x8
 5604 0182 3A       		.uleb128 0x3a
 5605 0183 0B       		.uleb128 0xb
 5606 0184 3B       		.uleb128 0x3b
 5607 0185 05       		.uleb128 0x5
 5608 0186 49       		.uleb128 0x49
 5609 0187 13       		.uleb128 0x13
 5610 0188 38       		.uleb128 0x38
 5611 0189 05       		.uleb128 0x5
 5612 018a 00       		.byte	0
 5613 018b 00       		.byte	0
 5614 018c 1F       		.uleb128 0x1f
 5615 018d 2E       		.uleb128 0x2e
 5616 018e 01       		.byte	0x1
 5617 018f 03       		.uleb128 0x3
 5618 0190 0E       		.uleb128 0xe
 5619 0191 3A       		.uleb128 0x3a
 5620 0192 0B       		.uleb128 0xb
 5621 0193 3B       		.uleb128 0x3b
ARM GAS  C:\Users\tmj32\AppData\Local\Temp\ccmyxrAJ.s 			page 112


 5622 0194 0B       		.uleb128 0xb
 5623 0195 27       		.uleb128 0x27
 5624 0196 19       		.uleb128 0x19
 5625 0197 11       		.uleb128 0x11
 5626 0198 01       		.uleb128 0x1
 5627 0199 12       		.uleb128 0x12
 5628 019a 06       		.uleb128 0x6
 5629 019b 40       		.uleb128 0x40
 5630 019c 18       		.uleb128 0x18
 5631 019d 9642     		.uleb128 0x2116
 5632 019f 19       		.uleb128 0x19
 5633 01a0 01       		.uleb128 0x1
 5634 01a1 13       		.uleb128 0x13
 5635 01a2 00       		.byte	0
 5636 01a3 00       		.byte	0
 5637 01a4 20       		.uleb128 0x20
 5638 01a5 05       		.uleb128 0x5
 5639 01a6 00       		.byte	0
 5640 01a7 03       		.uleb128 0x3
 5641 01a8 0E       		.uleb128 0xe
 5642 01a9 3A       		.uleb128 0x3a
 5643 01aa 0B       		.uleb128 0xb
 5644 01ab 3B       		.uleb128 0x3b
 5645 01ac 0B       		.uleb128 0xb
 5646 01ad 49       		.uleb128 0x49
 5647 01ae 13       		.uleb128 0x13
 5648 01af 02       		.uleb128 0x2
 5649 01b0 18       		.uleb128 0x18
 5650 01b1 00       		.byte	0
 5651 01b2 00       		.byte	0
 5652 01b3 21       		.uleb128 0x21
 5653 01b4 2E       		.uleb128 0x2e
 5654 01b5 01       		.byte	0x1
 5655 01b6 03       		.uleb128 0x3
 5656 01b7 0E       		.uleb128 0xe
 5657 01b8 3A       		.uleb128 0x3a
 5658 01b9 0B       		.uleb128 0xb
 5659 01ba 3B       		.uleb128 0x3b
 5660 01bb 0B       		.uleb128 0xb
 5661 01bc 27       		.uleb128 0x27
 5662 01bd 19       		.uleb128 0x19
 5663 01be 49       		.uleb128 0x49
 5664 01bf 13       		.uleb128 0x13
 5665 01c0 11       		.uleb128 0x11
 5666 01c1 01       		.uleb128 0x1
 5667 01c2 12       		.uleb128 0x12
 5668 01c3 06       		.uleb128 0x6
 5669 01c4 40       		.uleb128 0x40
 5670 01c5 18       		.uleb128 0x18
 5671 01c6 9642     		.uleb128 0x2116
 5672 01c8 19       		.uleb128 0x19
 5673 01c9 01       		.uleb128 0x1
 5674 01ca 13       		.uleb128 0x13
 5675 01cb 00       		.byte	0
 5676 01cc 00       		.byte	0
 5677 01cd 22       		.uleb128 0x22
 5678 01ce 2E       		.uleb128 0x2e
ARM GAS  C:\Users\tmj32\AppData\Local\Temp\ccmyxrAJ.s 			page 113


 5679 01cf 01       		.byte	0x1
 5680 01d0 3F       		.uleb128 0x3f
 5681 01d1 19       		.uleb128 0x19
 5682 01d2 03       		.uleb128 0x3
 5683 01d3 0E       		.uleb128 0xe
 5684 01d4 3A       		.uleb128 0x3a
 5685 01d5 0B       		.uleb128 0xb
 5686 01d6 3B       		.uleb128 0x3b
 5687 01d7 0B       		.uleb128 0xb
 5688 01d8 27       		.uleb128 0x27
 5689 01d9 19       		.uleb128 0x19
 5690 01da 49       		.uleb128 0x49
 5691 01db 13       		.uleb128 0x13
 5692 01dc 11       		.uleb128 0x11
 5693 01dd 01       		.uleb128 0x1
 5694 01de 12       		.uleb128 0x12
 5695 01df 06       		.uleb128 0x6
 5696 01e0 40       		.uleb128 0x40
 5697 01e1 18       		.uleb128 0x18
 5698 01e2 9642     		.uleb128 0x2116
 5699 01e4 19       		.uleb128 0x19
 5700 01e5 01       		.uleb128 0x1
 5701 01e6 13       		.uleb128 0x13
 5702 01e7 00       		.byte	0
 5703 01e8 00       		.byte	0
 5704 01e9 23       		.uleb128 0x23
 5705 01ea 05       		.uleb128 0x5
 5706 01eb 00       		.byte	0
 5707 01ec 03       		.uleb128 0x3
 5708 01ed 08       		.uleb128 0x8
 5709 01ee 3A       		.uleb128 0x3a
 5710 01ef 0B       		.uleb128 0xb
 5711 01f0 3B       		.uleb128 0x3b
 5712 01f1 0B       		.uleb128 0xb
 5713 01f2 49       		.uleb128 0x49
 5714 01f3 13       		.uleb128 0x13
 5715 01f4 02       		.uleb128 0x2
 5716 01f5 18       		.uleb128 0x18
 5717 01f6 00       		.byte	0
 5718 01f7 00       		.byte	0
 5719 01f8 24       		.uleb128 0x24
 5720 01f9 34       		.uleb128 0x34
 5721 01fa 00       		.byte	0
 5722 01fb 03       		.uleb128 0x3
 5723 01fc 0E       		.uleb128 0xe
 5724 01fd 3A       		.uleb128 0x3a
 5725 01fe 0B       		.uleb128 0xb
 5726 01ff 3B       		.uleb128 0x3b
 5727 0200 0B       		.uleb128 0xb
 5728 0201 49       		.uleb128 0x49
 5729 0202 13       		.uleb128 0x13
 5730 0203 02       		.uleb128 0x2
 5731 0204 18       		.uleb128 0x18
 5732 0205 00       		.byte	0
 5733 0206 00       		.byte	0
 5734 0207 25       		.uleb128 0x25
 5735 0208 34       		.uleb128 0x34
ARM GAS  C:\Users\tmj32\AppData\Local\Temp\ccmyxrAJ.s 			page 114


 5736 0209 00       		.byte	0
 5737 020a 03       		.uleb128 0x3
 5738 020b 08       		.uleb128 0x8
 5739 020c 3A       		.uleb128 0x3a
 5740 020d 0B       		.uleb128 0xb
 5741 020e 3B       		.uleb128 0x3b
 5742 020f 0B       		.uleb128 0xb
 5743 0210 49       		.uleb128 0x49
 5744 0211 13       		.uleb128 0x13
 5745 0212 02       		.uleb128 0x2
 5746 0213 18       		.uleb128 0x18
 5747 0214 00       		.byte	0
 5748 0215 00       		.byte	0
 5749 0216 26       		.uleb128 0x26
 5750 0217 0B       		.uleb128 0xb
 5751 0218 01       		.byte	0x1
 5752 0219 11       		.uleb128 0x11
 5753 021a 01       		.uleb128 0x1
 5754 021b 12       		.uleb128 0x12
 5755 021c 06       		.uleb128 0x6
 5756 021d 01       		.uleb128 0x1
 5757 021e 13       		.uleb128 0x13
 5758 021f 00       		.byte	0
 5759 0220 00       		.byte	0
 5760 0221 27       		.uleb128 0x27
 5761 0222 0B       		.uleb128 0xb
 5762 0223 01       		.byte	0x1
 5763 0224 11       		.uleb128 0x11
 5764 0225 01       		.uleb128 0x1
 5765 0226 12       		.uleb128 0x12
 5766 0227 06       		.uleb128 0x6
 5767 0228 00       		.byte	0
 5768 0229 00       		.byte	0
 5769 022a 28       		.uleb128 0x28
 5770 022b 2E       		.uleb128 0x2e
 5771 022c 01       		.byte	0x1
 5772 022d 3F       		.uleb128 0x3f
 5773 022e 19       		.uleb128 0x19
 5774 022f 03       		.uleb128 0x3
 5775 0230 0E       		.uleb128 0xe
 5776 0231 3A       		.uleb128 0x3a
 5777 0232 0B       		.uleb128 0xb
 5778 0233 3B       		.uleb128 0x3b
 5779 0234 0B       		.uleb128 0xb
 5780 0235 27       		.uleb128 0x27
 5781 0236 19       		.uleb128 0x19
 5782 0237 11       		.uleb128 0x11
 5783 0238 01       		.uleb128 0x1
 5784 0239 12       		.uleb128 0x12
 5785 023a 06       		.uleb128 0x6
 5786 023b 40       		.uleb128 0x40
 5787 023c 18       		.uleb128 0x18
 5788 023d 9642     		.uleb128 0x2116
 5789 023f 19       		.uleb128 0x19
 5790 0240 01       		.uleb128 0x1
 5791 0241 13       		.uleb128 0x13
 5792 0242 00       		.byte	0
ARM GAS  C:\Users\tmj32\AppData\Local\Temp\ccmyxrAJ.s 			page 115


 5793 0243 00       		.byte	0
 5794 0244 29       		.uleb128 0x29
 5795 0245 0B       		.uleb128 0xb
 5796 0246 01       		.byte	0x1
 5797 0247 55       		.uleb128 0x55
 5798 0248 17       		.uleb128 0x17
 5799 0249 00       		.byte	0
 5800 024a 00       		.byte	0
 5801 024b 2A       		.uleb128 0x2a
 5802 024c 34       		.uleb128 0x34
 5803 024d 00       		.byte	0
 5804 024e 03       		.uleb128 0x3
 5805 024f 08       		.uleb128 0x8
 5806 0250 3A       		.uleb128 0x3a
 5807 0251 0B       		.uleb128 0xb
 5808 0252 3B       		.uleb128 0x3b
 5809 0253 05       		.uleb128 0x5
 5810 0254 49       		.uleb128 0x49
 5811 0255 13       		.uleb128 0x13
 5812 0256 02       		.uleb128 0x2
 5813 0257 18       		.uleb128 0x18
 5814 0258 00       		.byte	0
 5815 0259 00       		.byte	0
 5816 025a 2B       		.uleb128 0x2b
 5817 025b 2E       		.uleb128 0x2e
 5818 025c 01       		.byte	0x1
 5819 025d 03       		.uleb128 0x3
 5820 025e 0E       		.uleb128 0xe
 5821 025f 3A       		.uleb128 0x3a
 5822 0260 0B       		.uleb128 0xb
 5823 0261 3B       		.uleb128 0x3b
 5824 0262 05       		.uleb128 0x5
 5825 0263 27       		.uleb128 0x27
 5826 0264 19       		.uleb128 0x19
 5827 0265 49       		.uleb128 0x49
 5828 0266 13       		.uleb128 0x13
 5829 0267 11       		.uleb128 0x11
 5830 0268 01       		.uleb128 0x1
 5831 0269 12       		.uleb128 0x12
 5832 026a 06       		.uleb128 0x6
 5833 026b 40       		.uleb128 0x40
 5834 026c 18       		.uleb128 0x18
 5835 026d 9642     		.uleb128 0x2116
 5836 026f 19       		.uleb128 0x19
 5837 0270 01       		.uleb128 0x1
 5838 0271 13       		.uleb128 0x13
 5839 0272 00       		.byte	0
 5840 0273 00       		.byte	0
 5841 0274 2C       		.uleb128 0x2c
 5842 0275 05       		.uleb128 0x5
 5843 0276 00       		.byte	0
 5844 0277 03       		.uleb128 0x3
 5845 0278 0E       		.uleb128 0xe
 5846 0279 3A       		.uleb128 0x3a
 5847 027a 0B       		.uleb128 0xb
 5848 027b 3B       		.uleb128 0x3b
 5849 027c 05       		.uleb128 0x5
ARM GAS  C:\Users\tmj32\AppData\Local\Temp\ccmyxrAJ.s 			page 116


 5850 027d 49       		.uleb128 0x49
 5851 027e 13       		.uleb128 0x13
 5852 027f 02       		.uleb128 0x2
 5853 0280 18       		.uleb128 0x18
 5854 0281 00       		.byte	0
 5855 0282 00       		.byte	0
 5856 0283 2D       		.uleb128 0x2d
 5857 0284 34       		.uleb128 0x34
 5858 0285 00       		.byte	0
 5859 0286 03       		.uleb128 0x3
 5860 0287 0E       		.uleb128 0xe
 5861 0288 3A       		.uleb128 0x3a
 5862 0289 0B       		.uleb128 0xb
 5863 028a 3B       		.uleb128 0x3b
 5864 028b 05       		.uleb128 0x5
 5865 028c 49       		.uleb128 0x49
 5866 028d 13       		.uleb128 0x13
 5867 028e 02       		.uleb128 0x2
 5868 028f 18       		.uleb128 0x18
 5869 0290 00       		.byte	0
 5870 0291 00       		.byte	0
 5871 0292 2E       		.uleb128 0x2e
 5872 0293 2E       		.uleb128 0x2e
 5873 0294 01       		.byte	0x1
 5874 0295 03       		.uleb128 0x3
 5875 0296 0E       		.uleb128 0xe
 5876 0297 3A       		.uleb128 0x3a
 5877 0298 0B       		.uleb128 0xb
 5878 0299 3B       		.uleb128 0x3b
 5879 029a 05       		.uleb128 0x5
 5880 029b 27       		.uleb128 0x27
 5881 029c 19       		.uleb128 0x19
 5882 029d 11       		.uleb128 0x11
 5883 029e 01       		.uleb128 0x1
 5884 029f 12       		.uleb128 0x12
 5885 02a0 06       		.uleb128 0x6
 5886 02a1 40       		.uleb128 0x40
 5887 02a2 18       		.uleb128 0x18
 5888 02a3 9642     		.uleb128 0x2116
 5889 02a5 19       		.uleb128 0x19
 5890 02a6 01       		.uleb128 0x1
 5891 02a7 13       		.uleb128 0x13
 5892 02a8 00       		.byte	0
 5893 02a9 00       		.byte	0
 5894 02aa 2F       		.uleb128 0x2f
 5895 02ab 01       		.uleb128 0x1
 5896 02ac 01       		.byte	0x1
 5897 02ad 49       		.uleb128 0x49
 5898 02ae 13       		.uleb128 0x13
 5899 02af 01       		.uleb128 0x1
 5900 02b0 13       		.uleb128 0x13
 5901 02b1 00       		.byte	0
 5902 02b2 00       		.byte	0
 5903 02b3 30       		.uleb128 0x30
 5904 02b4 21       		.uleb128 0x21
 5905 02b5 00       		.byte	0
 5906 02b6 49       		.uleb128 0x49
ARM GAS  C:\Users\tmj32\AppData\Local\Temp\ccmyxrAJ.s 			page 117


 5907 02b7 13       		.uleb128 0x13
 5908 02b8 2F       		.uleb128 0x2f
 5909 02b9 0B       		.uleb128 0xb
 5910 02ba 00       		.byte	0
 5911 02bb 00       		.byte	0
 5912 02bc 31       		.uleb128 0x31
 5913 02bd 34       		.uleb128 0x34
 5914 02be 00       		.byte	0
 5915 02bf 03       		.uleb128 0x3
 5916 02c0 0E       		.uleb128 0xe
 5917 02c1 3A       		.uleb128 0x3a
 5918 02c2 0B       		.uleb128 0xb
 5919 02c3 3B       		.uleb128 0x3b
 5920 02c4 05       		.uleb128 0x5
 5921 02c5 49       		.uleb128 0x49
 5922 02c6 13       		.uleb128 0x13
 5923 02c7 3F       		.uleb128 0x3f
 5924 02c8 19       		.uleb128 0x19
 5925 02c9 3C       		.uleb128 0x3c
 5926 02ca 19       		.uleb128 0x19
 5927 02cb 00       		.byte	0
 5928 02cc 00       		.byte	0
 5929 02cd 00       		.byte	0
 5930              		.section	.debug_aranges,"",%progbits
 5931 0000 94000000 		.4byte	0x94
 5932 0004 0200     		.2byte	0x2
 5933 0006 00000000 		.4byte	.Ldebug_info0
 5934 000a 04       		.byte	0x4
 5935 000b 00       		.byte	0
 5936 000c 0000     		.2byte	0
 5937 000e 0000     		.2byte	0
 5938 0010 00000000 		.4byte	.LFB38
 5939 0014 20000000 		.4byte	.LFE38-.LFB38
 5940 0018 00000000 		.4byte	.LFB39
 5941 001c 1E000000 		.4byte	.LFE39-.LFB39
 5942 0020 00000000 		.4byte	.LFB40
 5943 0024 18000000 		.4byte	.LFE40-.LFB40
 5944 0028 00000000 		.4byte	.LFB41
 5945 002c 18000000 		.4byte	.LFE41-.LFB41
 5946 0030 00000000 		.4byte	.LFB45
 5947 0034 1C000000 		.4byte	.LFE45-.LFB45
 5948 0038 00000000 		.4byte	.LFB47
 5949 003c 50010000 		.4byte	.LFE47-.LFB47
 5950 0040 00000000 		.4byte	.LFB48
 5951 0044 A0000000 		.4byte	.LFE48-.LFB48
 5952 0048 00000000 		.4byte	.LFB49
 5953 004c 90000000 		.4byte	.LFE49-.LFB49
 5954 0050 00000000 		.4byte	.LFB50
 5955 0054 44000000 		.4byte	.LFE50-.LFB50
 5956 0058 00000000 		.4byte	.LFB51
 5957 005c 44000000 		.4byte	.LFE51-.LFB51
 5958 0060 00000000 		.4byte	.LFB52
 5959 0064 1C000000 		.4byte	.LFE52-.LFB52
 5960 0068 00000000 		.4byte	.LFB53
 5961 006c 1C000000 		.4byte	.LFE53-.LFB53
 5962 0070 00000000 		.4byte	.LFB54
 5963 0074 D0000000 		.4byte	.LFE54-.LFB54
ARM GAS  C:\Users\tmj32\AppData\Local\Temp\ccmyxrAJ.s 			page 118


 5964 0078 00000000 		.4byte	.LFB55
 5965 007c 6C000000 		.4byte	.LFE55-.LFB55
 5966 0080 00000000 		.4byte	.LFB56
 5967 0084 70020000 		.4byte	.LFE56-.LFB56
 5968 0088 00000000 		.4byte	.LFB57
 5969 008c DC030000 		.4byte	.LFE57-.LFB57
 5970 0090 00000000 		.4byte	0
 5971 0094 00000000 		.4byte	0
 5972              		.section	.debug_ranges,"",%progbits
 5973              	.Ldebug_ranges0:
 5974 0000 20000000 		.4byte	.LBB4
 5975 0004 8A000000 		.4byte	.LBE4
 5976 0008 98000000 		.4byte	.LBB5
 5977 000c 9A000000 		.4byte	.LBE5
 5978 0010 00000000 		.4byte	0
 5979 0014 00000000 		.4byte	0
 5980 0018 00000000 		.4byte	.LFB38
 5981 001c 20000000 		.4byte	.LFE38
 5982 0020 00000000 		.4byte	.LFB39
 5983 0024 1E000000 		.4byte	.LFE39
 5984 0028 00000000 		.4byte	.LFB40
 5985 002c 18000000 		.4byte	.LFE40
 5986 0030 00000000 		.4byte	.LFB41
 5987 0034 18000000 		.4byte	.LFE41
 5988 0038 00000000 		.4byte	.LFB45
 5989 003c 1C000000 		.4byte	.LFE45
 5990 0040 00000000 		.4byte	.LFB47
 5991 0044 50010000 		.4byte	.LFE47
 5992 0048 00000000 		.4byte	.LFB48
 5993 004c A0000000 		.4byte	.LFE48
 5994 0050 00000000 		.4byte	.LFB49
 5995 0054 90000000 		.4byte	.LFE49
 5996 0058 00000000 		.4byte	.LFB50
 5997 005c 44000000 		.4byte	.LFE50
 5998 0060 00000000 		.4byte	.LFB51
 5999 0064 44000000 		.4byte	.LFE51
 6000 0068 00000000 		.4byte	.LFB52
 6001 006c 1C000000 		.4byte	.LFE52
 6002 0070 00000000 		.4byte	.LFB53
 6003 0074 1C000000 		.4byte	.LFE53
 6004 0078 00000000 		.4byte	.LFB54
 6005 007c D0000000 		.4byte	.LFE54
 6006 0080 00000000 		.4byte	.LFB55
 6007 0084 6C000000 		.4byte	.LFE55
 6008 0088 00000000 		.4byte	.LFB56
 6009 008c 70020000 		.4byte	.LFE56
 6010 0090 00000000 		.4byte	.LFB57
 6011 0094 DC030000 		.4byte	.LFE57
 6012 0098 00000000 		.4byte	0
 6013 009c 00000000 		.4byte	0
 6014              		.section	.debug_line,"",%progbits
 6015              	.Ldebug_line0:
 6016 0000 02060000 		.section	.debug_str,"MS",%progbits,1
 6016      02005D03 
 6016      00000201 
 6016      FB0E0D00 
 6016      01010101 
ARM GAS  C:\Users\tmj32\AppData\Local\Temp\ccmyxrAJ.s 			page 119


 6017              	.LASF15:
 6018 0000 696E7438 		.ascii	"int8_t\000"
 6018      5F7400
 6019              	.LASF161:
 6020 0007 6E656564 		.ascii	"needle_count\000"
 6020      6C655F63 
 6020      6F756E74 
 6020      00
 6021              	.LASF147:
 6022 0014 616E676C 		.ascii	"angle_ofs\000"
 6022      655F6F66 
 6022      7300
 6023              	.LASF78:
 6024 001e 6C765F6C 		.ascii	"lv_ll_node_t\000"
 6024      6C5F6E6F 
 6024      64655F74 
 6024      00
 6025              	.LASF23:
 6026 002b 6164765F 		.ascii	"adv_w\000"
 6026      7700
 6027              	.LASF178:
 6028 0031 68656164 		.ascii	"header_pr\000"
 6028      65725F70 
 6028      7200
 6029              	.LASF42:
 6030 003b 73697A65 		.ascii	"sizetype\000"
 6030      74797065 
 6030      00
 6031              	.LASF39:
 6032 0044 6C765F63 		.ascii	"lv_color32_t\000"
 6032      6F6C6F72 
 6032      33325F74 
 6032      00
 6033              	.LASF188:
 6034 0051 63656C6C 		.ascii	"cell\000"
 6034      00
 6035              	.LASF81:
 6036 0056 7461696C 		.ascii	"tail\000"
 6036      00
 6037              	.LASF266:
 6038 005b 6C765F73 		.ascii	"lv_style_pretty_color\000"
 6038      74796C65 
 6038      5F707265 
 6038      7474795F 
 6038      636F6C6F 
 6039              	.LASF118:
 6040 0071 4C565F53 		.ascii	"LV_SIGNAL_STYLE_CHG\000"
 6040      49474E41 
 6040      4C5F5354 
 6040      594C455F 
 6040      43484700 
 6041              	.LASF41:
 6042 0085 6C765F6F 		.ascii	"lv_opa_t\000"
 6042      70615F74 
 6042      00
 6043              	.LASF19:
 6044 008e 696E7433 		.ascii	"int32_t\000"
ARM GAS  C:\Users\tmj32\AppData\Local\Temp\ccmyxrAJ.s 			page 120


 6044      325F7400 
 6045              	.LASF66:
 6046 0096 696E7465 		.ascii	"intense\000"
 6046      6E736500 
 6047              	.LASF44:
 6048 009e 6C765F70 		.ascii	"lv_point_t\000"
 6048      6F696E74 
 6048      5F7400
 6049              	.LASF158:
 6050 00a9 6C6D6574 		.ascii	"lmeter\000"
 6050      657200
 6051              	.LASF126:
 6052 00b0 4C565F53 		.ascii	"LV_SIGNAL_LONG_PRESS\000"
 6052      49474E41 
 6052      4C5F4C4F 
 6052      4E475F50 
 6052      52455353 
 6053              	.LASF58:
 6054 00c5 72616469 		.ascii	"radius\000"
 6054      757300
 6055              	.LASF143:
 6056 00cc 6C765F72 		.ascii	"lv_reailgn_t\000"
 6056      6561696C 
 6056      676E5F74 
 6056      00
 6057              	.LASF31:
 6058 00d9 6C696E65 		.ascii	"line_height\000"
 6058      5F686569 
 6058      67687400 
 6059              	.LASF93:
 6060 00e5 636C6963 		.ascii	"click\000"
 6060      6B00
 6061              	.LASF136:
 6062 00eb 6C765F61 		.ascii	"lv_align_t\000"
 6062      6C69676E 
 6062      5F7400
 6063              	.LASF223:
 6064 00f6 6C765F67 		.ascii	"lv_gauge_set_value\000"
 6064      61756765 
 6064      5F736574 
 6064      5F76616C 
 6064      756500
 6065              	.LASF128:
 6066 0109 4C565F53 		.ascii	"LV_SIGNAL_DRAG_BEGIN\000"
 6066      49474E41 
 6066      4C5F4452 
 6066      41475F42 
 6066      4547494E 
 6067              	.LASF244:
 6068 011e 785F6F66 		.ascii	"x_ofs\000"
 6068      7300
 6069              	.LASF214:
 6070 0124 6C765F67 		.ascii	"lv_gauge_get_min_value\000"
 6070      61756765 
 6070      5F676574 
 6070      5F6D696E 
 6070      5F76616C 
ARM GAS  C:\Users\tmj32\AppData\Local\Temp\ccmyxrAJ.s 			page 121


 6071              	.LASF180:
 6072 013b 68696768 		.ascii	"highlighted_days\000"
 6072      6C696768 
 6072      7465645F 
 6072      64617973 
 6072      00
 6073              	.LASF240:
 6074 014c 7369676E 		.ascii	"sign\000"
 6074      00
 6075              	.LASF112:
 6076 0151 6C765F65 		.ascii	"lv_event_t\000"
 6076      76656E74 
 6076      5F7400
 6077              	.LASF227:
 6078 015c 6C616265 		.ascii	"label_cnt\000"
 6078      6C5F636E 
 6078      7400
 6079              	.LASF220:
 6080 0166 6E656564 		.ascii	"needle_cnt\000"
 6080      6C655F63 
 6080      6E7400
 6081              	.LASF257:
 6082 0171 6E6D5F63 		.ascii	"nm_cord\000"
 6082      6F726400 
 6083              	.LASF75:
 6084 0179 4C565F52 		.ascii	"LV_RES_INV\000"
 6084      45535F49 
 6084      4E5600
 6085              	.LASF122:
 6086 0184 4C565F53 		.ascii	"LV_SIGNAL_PRESSED\000"
 6086      49474E41 
 6086      4C5F5052 
 6086      45535345 
 6086      4400
 6087              	.LASF51:
 6088 0196 74797065 		.ascii	"type\000"
 6088      00
 6089              	.LASF170:
 6090 019b 6C696768 		.ascii	"light\000"
 6090      7400
 6091              	.LASF191:
 6092 01a1 636F6E74 		.ascii	"cont\000"
 6092      00
 6093              	.LASF168:
 6094 01a6 7072696D 		.ascii	"prim\000"
 6094      00
 6095              	.LASF197:
 6096 01ab 63686172 		.ascii	"chart\000"
 6096      7400
 6097              	.LASF1:
 6098 01b1 5F5F7569 		.ascii	"__uint8_t\000"
 6098      6E74385F 
 6098      7400
 6099              	.LASF247:
 6100 01bb 7363616C 		.ascii	"scale_act\000"
 6100      655F6163 
 6100      7400
ARM GAS  C:\Users\tmj32\AppData\Local\Temp\ccmyxrAJ.s 			page 122


 6101              	.LASF37:
 6102 01c5 616C7068 		.ascii	"alpha\000"
 6102      6100
 6103              	.LASF97:
 6104 01cb 68696464 		.ascii	"hidden\000"
 6104      656E00
 6105              	.LASF9:
 6106 01d2 6C6F6E67 		.ascii	"long int\000"
 6106      20696E74 
 6106      00
 6107              	.LASF207:
 6108 01db 74696C65 		.ascii	"tileview\000"
 6108      76696577 
 6108      00
 6109              	.LASF157:
 6110 01e4 4C565F54 		.ascii	"LV_TXT_FLAG_RIGHT\000"
 6110      58545F46 
 6110      4C41475F 
 6110      52494748 
 6110      5400
 6111              	.LASF221:
 6112 01f6 636F6C6F 		.ascii	"colors\000"
 6112      727300
 6113              	.LASF80:
 6114 01fd 68656164 		.ascii	"head\000"
 6114      00
 6115              	.LASF248:
 6116 0202 6C616265 		.ascii	"label_cord\000"
 6116      6C5F636F 
 6116      726400
 6117              	.LASF199:
 6118 020d 62746E6D 		.ascii	"btnm\000"
 6118      00
 6119              	.LASF154:
 6120 0212 4C565F54 		.ascii	"LV_TXT_FLAG_RECOLOR\000"
 6120      58545F46 
 6120      4C41475F 
 6120      5245434F 
 6120      4C4F5200 
 6121              	.LASF2:
 6122 0226 7369676E 		.ascii	"signed char\000"
 6122      65642063 
 6122      68617200 
 6123              	.LASF16:
 6124 0232 75696E74 		.ascii	"uint8_t\000"
 6124      385F7400 
 6125              	.LASF183:
 6126 023a 746F6461 		.ascii	"today_box\000"
 6126      795F626F 
 6126      7800
 6127              	.LASF167:
 6128 0244 74676C5F 		.ascii	"tgl_pr\000"
 6128      707200
 6129              	.LASF260:
 6130 024b 6E656564 		.ascii	"needle_angle_high\000"
 6130      6C655F61 
 6130      6E676C65 
ARM GAS  C:\Users\tmj32\AppData\Local\Temp\ccmyxrAJ.s 			page 123


 6130      5F686967 
 6130      6800
 6131              	.LASF253:
 6132 025d 705F656E 		.ascii	"p_end\000"
 6132      6400
 6133              	.LASF30:
 6134 0263 6765745F 		.ascii	"get_glyph_bitmap\000"
 6134      676C7970 
 6134      685F6269 
 6134      746D6170 
 6134      00
 6135              	.LASF184:
 6136 0274 7363726C 		.ascii	"scrl\000"
 6136      00
 6137              	.LASF35:
 6138 0279 626C7565 		.ascii	"blue\000"
 6138      00
 6139              	.LASF127:
 6140 027e 4C565F53 		.ascii	"LV_SIGNAL_LONG_PRESS_REP\000"
 6140      49474E41 
 6140      4C5F4C4F 
 6140      4E475F50 
 6140      52455353 
 6141              	.LASF3:
 6142 0297 756E7369 		.ascii	"unsigned char\000"
 6142      676E6564 
 6142      20636861 
 6142      7200
 6143              	.LASF120:
 6144 02a5 4C565F53 		.ascii	"LV_SIGNAL_REFR_EXT_DRAW_PAD\000"
 6144      49474E41 
 6144      4C5F5245 
 6144      46525F45 
 6144      58545F44 
 6145              	.LASF100:
 6146 02c1 64726167 		.ascii	"drag_dir\000"
 6146      5F646972 
 6146      00
 6147              	.LASF176:
 6148 02ca 6B6E6F62 		.ascii	"knob_on\000"
 6148      5F6F6E00 
 6149              	.LASF26:
 6150 02d2 6F66735F 		.ascii	"ofs_x\000"
 6150      7800
 6151              	.LASF27:
 6152 02d8 6F66735F 		.ascii	"ofs_y\000"
 6152      7900
 6153              	.LASF177:
 6154 02de 68656164 		.ascii	"header\000"
 6154      657200
 6155              	.LASF33:
 6156 02e5 5F426F6F 		.ascii	"_Bool\000"
 6156      6C00
 6157              	.LASF135:
 6158 02eb 6C765F73 		.ascii	"lv_signal_cb_t\000"
 6158      69676E61 
 6158      6C5F6362 
ARM GAS  C:\Users\tmj32\AppData\Local\Temp\ccmyxrAJ.s 			page 124


 6158      5F7400
 6159              	.LASF208:
 6160 02fa 7461626C 		.ascii	"table\000"
 6160      6500
 6161              	.LASF211:
 6162 0300 76616C75 		.ascii	"value\000"
 6162      6500
 6163              	.LASF43:
 6164 0306 63686172 		.ascii	"char\000"
 6164      00
 6165              	.LASF108:
 6166 030b 4C565F44 		.ascii	"LV_DESIGN_DRAW_POST\000"
 6166      45534947 
 6166      4E5F4452 
 6166      41575F50 
 6166      4F535400 
 6167              	.LASF70:
 6168 031f 626F6479 		.ascii	"body\000"
 6168      00
 6169              	.LASF139:
 6170 0324 796F6673 		.ascii	"yofs\000"
 6170      00
 6171              	.LASF232:
 6172 0329 6C765F67 		.ascii	"lv_gauge_get_label_count\000"
 6172      61756765 
 6172      5F676574 
 6172      5F6C6162 
 6172      656C5F63 
 6173              	.LASF6:
 6174 0342 5F5F7569 		.ascii	"__uint16_t\000"
 6174      6E743136 
 6174      5F7400
 6175              	.LASF182:
 6176 034d 7765656B 		.ascii	"week_box\000"
 6176      5F626F78 
 6176      00
 6177              	.LASF109:
 6178 0356 4C565F44 		.ascii	"LV_DESIGN_COVER_CHK\000"
 6178      45534947 
 6178      4E5F434F 
 6178      5645525F 
 6178      43484B00 
 6179              	.LASF90:
 6180 036a 64657369 		.ascii	"design_cb\000"
 6180      676E5F63 
 6180      6200
 6181              	.LASF153:
 6182 0374 4C565F54 		.ascii	"LV_TXT_FLAG_NONE\000"
 6182      58545F46 
 6182      4C41475F 
 6182      4E4F4E45 
 6182      00
 6183              	.LASF131:
 6184 0385 4C565F53 		.ascii	"LV_SIGNAL_DEFOCUS\000"
 6184      49474E41 
 6184      4C5F4445 
 6184      464F4355 
ARM GAS  C:\Users\tmj32\AppData\Local\Temp\ccmyxrAJ.s 			page 125


 6184      5300
 6185              	.LASF204:
 6186 0397 64646C69 		.ascii	"ddlist\000"
 6186      737400
 6187              	.LASF249:
 6188 039e 6C616265 		.ascii	"label_size\000"
 6188      6C5F7369 
 6188      7A6500
 6189              	.LASF71:
 6190 03a9 74657874 		.ascii	"text\000"
 6190      00
 6191              	.LASF268:
 6192 03ae 2E2E5C2E 		.ascii	"..\\..\\..\\lvgl\\version_6.1.2\\lvgl\\src\\lv_objx"
 6192      2E5C2E2E 
 6192      5C6C7667 
 6192      6C5C7665 
 6192      7273696F 
 6193 03da 5C6C765F 		.ascii	"\\lv_gauge.c\000"
 6193      67617567 
 6193      652E6300 
 6194              	.LASF72:
 6195 03e6 696D6167 		.ascii	"image\000"
 6195      6500
 6196              	.LASF68:
 6197 03ec 726F756E 		.ascii	"rounded\000"
 6197      64656400 
 6198              	.LASF95:
 6199 03f4 64726167 		.ascii	"drag_throw\000"
 6199      5F746872 
 6199      6F7700
 6200              	.LASF181:
 6201 03ff 696E6163 		.ascii	"inactive_days\000"
 6201      74697665 
 6201      5F646179 
 6201      7300
 6202              	.LASF256:
 6203 040d 7374796C 		.ascii	"style_neddle_mid\000"
 6203      655F6E65 
 6203      64646C65 
 6203      5F6D6964 
 6203      00
 6204              	.LASF83:
 6205 041e 6C765F62 		.ascii	"lv_bidi_dir_t\000"
 6205      6964695F 
 6205      6469725F 
 6205      7400
 6206              	.LASF105:
 6207 042c 6578745F 		.ascii	"ext_draw_pad\000"
 6207      64726177 
 6207      5F706164 
 6207      00
 6208              	.LASF45:
 6209 0439 6C765F61 		.ascii	"lv_area_t\000"
 6209      7265615F 
 6209      7400
 6210              	.LASF239:
 6211 0443 6C765F67 		.ascii	"lv_gauge_signal\000"
ARM GAS  C:\Users\tmj32\AppData\Local\Temp\ccmyxrAJ.s 			page 126


 6211      61756765 
 6211      5F736967 
 6211      6E616C00 
 6212              	.LASF156:
 6213 0453 4C565F54 		.ascii	"LV_TXT_FLAG_CENTER\000"
 6213      58545F46 
 6213      4C41475F 
 6213      43454E54 
 6213      455200
 6214              	.LASF53:
 6215 0466 6C656674 		.ascii	"left\000"
 6215      00
 6216              	.LASF210:
 6217 046b 6C765F74 		.ascii	"lv_theme_t\000"
 6217      68656D65 
 6217      5F7400
 6218              	.LASF106:
 6219 0476 7265616C 		.ascii	"realign\000"
 6219      69676E00 
 6220              	.LASF233:
 6221 047e 6C765F67 		.ascii	"lv_gauge_design\000"
 6221      61756765 
 6221      5F646573 
 6221      69676E00 
 6222              	.LASF121:
 6223 048e 4C565F53 		.ascii	"LV_SIGNAL_GET_TYPE\000"
 6223      49474E41 
 6223      4C5F4745 
 6223      545F5459 
 6223      504500
 6224              	.LASF160:
 6225 04a1 6E656564 		.ascii	"needle_colors\000"
 6225      6C655F63 
 6225      6F6C6F72 
 6225      7300
 6226              	.LASF185:
 6227 04af 61726561 		.ascii	"area\000"
 6227      00
 6228              	.LASF229:
 6229 04b4 6C765F67 		.ascii	"lv_gauge_get_value\000"
 6229      61756765 
 6229      5F676574 
 6229      5F76616C 
 6229      756500
 6230              	.LASF74:
 6231 04c7 6C765F73 		.ascii	"lv_style_t\000"
 6231      74796C65 
 6231      5F7400
 6232              	.LASF55:
 6233 04d2 696E6E65 		.ascii	"inner\000"
 6233      7200
 6234              	.LASF11:
 6235 04d8 6C6F6E67 		.ascii	"long unsigned int\000"
 6235      20756E73 
 6235      69676E65 
 6235      6420696E 
 6235      7400
ARM GAS  C:\Users\tmj32\AppData\Local\Temp\ccmyxrAJ.s 			page 127


 6236              	.LASF169:
 6237 04ea 68696E74 		.ascii	"hint\000"
 6237      00
 6238              	.LASF241:
 6239 04ef 70617261 		.ascii	"param\000"
 6239      6D00
 6240              	.LASF73:
 6241 04f5 6C696E65 		.ascii	"line\000"
 6241      00
 6242              	.LASF254:
 6243 04fa 705F656E 		.ascii	"p_end_low\000"
 6243      645F6C6F 
 6243      7700
 6244              	.LASF130:
 6245 0504 4C565F53 		.ascii	"LV_SIGNAL_FOCUS\000"
 6245      49474E41 
 6245      4C5F464F 
 6245      43555300 
 6246              	.LASF194:
 6247 0514 736C6964 		.ascii	"slider\000"
 6247      657200
 6248              	.LASF155:
 6249 051b 4C565F54 		.ascii	"LV_TXT_FLAG_EXPAND\000"
 6249      58545F46 
 6249      4C41475F 
 6249      45585041 
 6249      4E4400
 6250              	.LASF148:
 6251 052e 6C696E65 		.ascii	"line_cnt\000"
 6251      5F636E74 
 6251      00
 6252              	.LASF226:
 6253 0537 616E676C 		.ascii	"angle\000"
 6253      6500
 6254              	.LASF217:
 6255 053d 636F7079 		.ascii	"copy\000"
 6255      00
 6256              	.LASF215:
 6257 0542 6C765F67 		.ascii	"lv_gauge_get_max_value\000"
 6257      61756765 
 6257      5F676574 
 6257      5F6D6178 
 6257      5F76616C 
 6258              	.LASF133:
 6259 0559 4C565F53 		.ascii	"LV_SIGNAL_GET_EDITABLE\000"
 6259      49474E41 
 6259      4C5F4745 
 6259      545F4544 
 6259      49544142 
 6260              	.LASF212:
 6261 0570 6C765F67 		.ascii	"lv_gauge_set_critical_value\000"
 6261      61756765 
 6261      5F736574 
 6261      5F637269 
 6261      74696361 
 6262              	.LASF186:
 6263 058c 6F6E656C 		.ascii	"oneline\000"
ARM GAS  C:\Users\tmj32\AppData\Local\Temp\ccmyxrAJ.s 			page 128


 6263      696E6500 
 6264              	.LASF228:
 6265 0594 6C765F67 		.ascii	"lv_gauge_create\000"
 6265      61756765 
 6265      5F637265 
 6265      61746500 
 6266              	.LASF10:
 6267 05a4 5F5F7569 		.ascii	"__uint32_t\000"
 6267      6E743332 
 6267      5F7400
 6268              	.LASF88:
 6269 05af 6576656E 		.ascii	"event_cb\000"
 6269      745F6362 
 6269      00
 6270              	.LASF54:
 6271 05b8 72696768 		.ascii	"right\000"
 6271      7400
 6272              	.LASF92:
 6273 05be 7374796C 		.ascii	"style_p\000"
 6273      655F7000 
 6274              	.LASF12:
 6275 05c6 6C6F6E67 		.ascii	"long long int\000"
 6275      206C6F6E 
 6275      6720696E 
 6275      7400
 6276              	.LASF269:
 6277 05d4 433A5C55 		.ascii	"C:\\Users\\tmj32\\Documents\\TCNJ\\Senior_Project\\"
 6277      73657273 
 6277      5C746D6A 
 6277      33325C44 
 6277      6F63756D 
 6278 0601 4F736369 		.ascii	"Oscilloscope_Senior_Project\\tcom_engineering\\embe"
 6278      6C6C6F73 
 6278      636F7065 
 6278      5F53656E 
 6278      696F725F 
 6279 0632 645F7377 		.ascii	"d_sw\\tcom_app\\tcom_app_psoc6_lvgl6\\tcom_displ_te"
 6279      5C74636F 
 6279      6D5F6170 
 6279      705C7463 
 6279      6F6D5F61 
 6280 0662 73745F70 		.ascii	"st_psoc6.cydsn\000"
 6280      736F6336 
 6280      2E637964 
 6280      736E00
 6281              	.LASF49:
 6282 0671 77696474 		.ascii	"width\000"
 6282      6800
 6283              	.LASF132:
 6284 0677 4C565F53 		.ascii	"LV_SIGNAL_CONTROL\000"
 6284      49474E41 
 6284      4C5F434F 
 6284      4E54524F 
 6284      4C00
 6285              	.LASF52:
 6286 0689 626F7474 		.ascii	"bottom\000"
 6286      6F6D00
ARM GAS  C:\Users\tmj32\AppData\Local\Temp\ccmyxrAJ.s 			page 129


 6287              	.LASF86:
 6288 0690 6368696C 		.ascii	"child_ll\000"
 6288      645F6C6C 
 6288      00
 6289              	.LASF173:
 6290 0699 696E6469 		.ascii	"indic\000"
 6290      6300
 6291              	.LASF103:
 6292 069f 70726F74 		.ascii	"protect\000"
 6292      65637400 
 6293              	.LASF230:
 6294 06a7 6E656564 		.ascii	"needle\000"
 6294      6C6500
 6295              	.LASF246:
 6296 06ae 6C616265 		.ascii	"label_num\000"
 6296      6C5F6E75 
 6296      6D00
 6297              	.LASF231:
 6298 06b8 6C765F67 		.ascii	"lv_gauge_get_needle_count\000"
 6298      61756765 
 6298      5F676574 
 6298      5F6E6565 
 6298      646C655F 
 6299              	.LASF234:
 6300 06d2 6D61736B 		.ascii	"mask\000"
 6300      00
 6301              	.LASF206:
 6302 06d7 74616276 		.ascii	"tabview\000"
 6302      69657700 
 6303              	.LASF99:
 6304 06df 70617265 		.ascii	"parent_event\000"
 6304      6E745F65 
 6304      76656E74 
 6304      00
 6305              	.LASF114:
 6306 06ec 4C565F53 		.ascii	"LV_SIGNAL_CLEANUP\000"
 6306      49474E41 
 6306      4C5F434C 
 6306      45414E55 
 6306      5000
 6307              	.LASF140:
 6308 06fe 616C6967 		.ascii	"align\000"
 6308      6E00
 6309              	.LASF69:
 6310 0704 676C6173 		.ascii	"glass\000"
 6310      7300
 6311              	.LASF164:
 6312 070a 4C565F47 		.ascii	"LV_GAUGE_STYLE_MAIN\000"
 6312      41554745 
 6312      5F535459 
 6312      4C455F4D 
 6312      41494E00 
 6313              	.LASF14:
 6314 071e 756E7369 		.ascii	"unsigned int\000"
 6314      676E6564 
 6314      20696E74 
 6314      00
ARM GAS  C:\Users\tmj32\AppData\Local\Temp\ccmyxrAJ.s 			page 130


 6315              	.LASF115:
 6316 072b 4C565F53 		.ascii	"LV_SIGNAL_CHILD_CHG\000"
 6316      49474E41 
 6316      4C5F4348 
 6316      494C445F 
 6316      43484700 
 6317              	.LASF250:
 6318 073f 6C765F67 		.ascii	"lv_gauge_draw_needle\000"
 6318      61756765 
 6318      5F647261 
 6318      775F6E65 
 6318      65646C65 
 6319              	.LASF200:
 6320 0754 6D626F78 		.ascii	"mbox\000"
 6320      00
 6321              	.LASF166:
 6322 0759 74676C5F 		.ascii	"tgl_rel\000"
 6322      72656C00 
 6323              	.LASF251:
 6324 0761 7374796C 		.ascii	"style_needle\000"
 6324      655F6E65 
 6324      65646C65 
 6324      00
 6325              	.LASF238:
 6326 076e 7374796C 		.ascii	"style_tmp\000"
 6326      655F746D 
 6326      7000
 6327              	.LASF218:
 6328 0778 6E65775F 		.ascii	"new_gauge\000"
 6328      67617567 
 6328      6500
 6329              	.LASF141:
 6330 0782 6175746F 		.ascii	"auto_realign\000"
 6330      5F726561 
 6330      6C69676E 
 6330      00
 6331              	.LASF265:
 6332 078f 6C765F73 		.ascii	"lv_style_plain\000"
 6332      74796C65 
 6332      5F706C61 
 6332      696E00
 6333              	.LASF107:
 6334 079e 4C565F44 		.ascii	"LV_DESIGN_DRAW_MAIN\000"
 6334      45534947 
 6334      4E5F4452 
 6334      41575F4D 
 6334      41494E00 
 6335              	.LASF28:
 6336 07b2 6C765F66 		.ascii	"lv_font_glyph_dsc_t\000"
 6336      6F6E745F 
 6336      676C7970 
 6336      685F6473 
 6336      635F7400 
 6337              	.LASF203:
 6338 07c6 6C697374 		.ascii	"list\000"
 6338      00
 6339              	.LASF57:
ARM GAS  C:\Users\tmj32\AppData\Local\Temp\ccmyxrAJ.s 			page 131


 6340 07cb 67726164 		.ascii	"grad_color\000"
 6340      5F636F6C 
 6340      6F7200
 6341              	.LASF201:
 6342 07d6 70616765 		.ascii	"page\000"
 6342      00
 6343              	.LASF259:
 6344 07db 6E656564 		.ascii	"needle_angle_low\000"
 6344      6C655F61 
 6344      6E676C65 
 6344      5F6C6F77 
 6344      00
 6345              	.LASF175:
 6346 07ec 6B6E6F62 		.ascii	"knob_off\000"
 6346      5F6F6666 
 6346      00
 6347              	.LASF195:
 6348 07f5 67617567 		.ascii	"gauge\000"
 6348      6500
 6349              	.LASF123:
 6350 07fb 4C565F53 		.ascii	"LV_SIGNAL_PRESSING\000"
 6350      49474E41 
 6350      4C5F5052 
 6350      45535349 
 6350      4E4700
 6351              	.LASF222:
 6352 080e 6C765F67 		.ascii	"lv_gauge_set_needle_count\000"
 6352      61756765 
 6352      5F736574 
 6352      5F6E6565 
 6352      646C655F 
 6353              	.LASF77:
 6354 0828 6C765F72 		.ascii	"lv_res_t\000"
 6354      65735F74 
 6354      00
 6355              	.LASF243:
 6356 0831 7363616C 		.ascii	"scale_txt\000"
 6356      655F7478 
 6356      7400
 6357              	.LASF22:
 6358 083b 6C6F6E67 		.ascii	"long double\000"
 6358      20646F75 
 6358      626C6500 
 6359              	.LASF144:
 6360 0847 6C765F64 		.ascii	"lv_drag_dir_t\000"
 6360      7261675F 
 6360      6469725F 
 6360      7400
 6361              	.LASF209:
 6362 0855 7374796C 		.ascii	"style\000"
 6362      6500
 6363              	.LASF224:
 6364 085b 6E656564 		.ascii	"needle_id\000"
 6364      6C655F69 
 6364      6400
 6365              	.LASF91:
 6366 0865 6578745F 		.ascii	"ext_attr\000"
ARM GAS  C:\Users\tmj32\AppData\Local\Temp\ccmyxrAJ.s 			page 132


 6366      61747472 
 6366      00
 6367              	.LASF110:
 6368 086e 6C765F64 		.ascii	"lv_design_mode_t\000"
 6368      65736967 
 6368      6E5F6D6F 
 6368      64655F74 
 6368      00
 6369              	.LASF67:
 6370 087f 73756270 		.ascii	"subpx\000"
 6370      7800
 6371              	.LASF124:
 6372 0885 4C565F53 		.ascii	"LV_SIGNAL_PRESS_LOST\000"
 6372      49474E41 
 6372      4C5F5052 
 6372      4553535F 
 6372      4C4F5354 
 6373              	.LASF252:
 6374 089a 705F6D69 		.ascii	"p_mid\000"
 6374      6400
 6375              	.LASF129:
 6376 08a0 4C565F53 		.ascii	"LV_SIGNAL_DRAG_END\000"
 6376      49474E41 
 6376      4C5F4452 
 6376      41475F45 
 6376      4E4400
 6377              	.LASF236:
 6378 08b3 7374796C 		.ascii	"style_ori_p\000"
 6378      655F6F72 
 6378      695F7000 
 6379              	.LASF117:
 6380 08bf 4C565F53 		.ascii	"LV_SIGNAL_PARENT_SIZE_CHG\000"
 6380      49474E41 
 6380      4C5F5041 
 6380      52454E54 
 6380      5F53495A 
 6381              	.LASF125:
 6382 08d9 4C565F53 		.ascii	"LV_SIGNAL_RELEASED\000"
 6382      49474E41 
 6382      4C5F5245 
 6382      4C454153 
 6382      454400
 6383              	.LASF56:
 6384 08ec 6D61696E 		.ascii	"main_color\000"
 6384      5F636F6C 
 6384      6F7200
 6385              	.LASF0:
 6386 08f7 5F5F696E 		.ascii	"__int8_t\000"
 6386      74385F74 
 6386      00
 6387              	.LASF134:
 6388 0900 6C765F73 		.ascii	"lv_signal_t\000"
 6388      69676E61 
 6388      6C5F7400 
 6389              	.LASF13:
 6390 090c 6C6F6E67 		.ascii	"long long unsigned int\000"
 6390      206C6F6E 
ARM GAS  C:\Users\tmj32\AppData\Local\Temp\ccmyxrAJ.s 			page 133


 6390      6720756E 
 6390      7369676E 
 6390      65642069 
 6391              	.LASF18:
 6392 0923 75696E74 		.ascii	"uint16_t\000"
 6392      31365F74 
 6392      00
 6393              	.LASF76:
 6394 092c 4C565F52 		.ascii	"LV_RES_OK\000"
 6394      45535F4F 
 6394      4B00
 6395              	.LASF152:
 6396 0936 6C765F6C 		.ascii	"lv_lmeter_ext_t\000"
 6396      6D657465 
 6396      725F6578 
 6396      745F7400 
 6397              	.LASF40:
 6398 0946 6C765F63 		.ascii	"lv_color_t\000"
 6398      6F6C6F72 
 6398      5F7400
 6399              	.LASF264:
 6400 0951 616E6365 		.ascii	"ancestor_signal\000"
 6400      73746F72 
 6400      5F736967 
 6400      6E616C00 
 6401              	.LASF263:
 6402 0961 616E6365 		.ascii	"ancestor_design\000"
 6402      73746F72 
 6402      5F646573 
 6402      69676E00 
 6403              	.LASF149:
 6404 0971 6375725F 		.ascii	"cur_value\000"
 6404      76616C75 
 6404      6500
 6405              	.LASF267:
 6406 097b 474E5520 		.ascii	"GNU C11 5.4.1 20160609 (release) [ARM/embedded-5-br"
 6406      43313120 
 6406      352E342E 
 6406      31203230 
 6406      31363036 
 6407 09ae 616E6368 		.ascii	"anch revision 237715] -mcpu=cortex-m4 -mfloat-abi=s"
 6407      20726576 
 6407      6973696F 
 6407      6E203233 
 6407      37373135 
 6408 09e1 6F667466 		.ascii	"oftfp -mfpu=fpv4-sp-d16 -mthumb -g -O0 -ffunction-s"
 6408      70202D6D 
 6408      6670753D 
 6408      66707634 
 6408      2D73702D 
 6409 0a14 65637469 		.ascii	"ections -ffat-lto-objects\000"
 6409      6F6E7320 
 6409      2D666661 
 6409      742D6C74 
 6409      6F2D6F62 
 6410              	.LASF172:
 6411 0a2e 6465636F 		.ascii	"decor\000"
ARM GAS  C:\Users\tmj32\AppData\Local\Temp\ccmyxrAJ.s 			page 134


 6411      7200
 6412              	.LASF192:
 6413 0a34 696D6762 		.ascii	"imgbtn\000"
 6413      746E00
 6414              	.LASF4:
 6415 0a3b 5F5F696E 		.ascii	"__int16_t\000"
 6415      7431365F 
 6415      7400
 6416              	.LASF190:
 6417 0a45 70616E65 		.ascii	"panel\000"
 6417      6C00
 6418              	.LASF38:
 6419 0a4b 66756C6C 		.ascii	"full\000"
 6419      00
 6420              	.LASF48:
 6421 0a50 636F6C6F 		.ascii	"color\000"
 6421      7200
 6422              	.LASF255:
 6423 0a56 705F656E 		.ascii	"p_end_high\000"
 6423      645F6869 
 6423      676800
 6424              	.LASF159:
 6425 0a61 76616C75 		.ascii	"values\000"
 6425      657300
 6426              	.LASF65:
 6427 0a68 6C696E65 		.ascii	"line_space\000"
 6427      5F737061 
 6427      636500
 6428              	.LASF138:
 6429 0a73 786F6673 		.ascii	"xofs\000"
 6429      00
 6430              	.LASF145:
 6431 0a78 6C765F6F 		.ascii	"lv_obj_t\000"
 6431      626A5F74 
 6431      00
 6432              	.LASF47:
 6433 0a81 6C765F73 		.ascii	"lv_shadow_type_t\000"
 6433      6861646F 
 6433      775F7479 
 6433      70655F74 
 6433      00
 6434              	.LASF94:
 6435 0a92 64726167 		.ascii	"drag\000"
 6435      00
 6436              	.LASF150:
 6437 0a97 6D696E5F 		.ascii	"min_value\000"
 6437      76616C75 
 6437      6500
 6438              	.LASF262:
 6439 0aa1 795F6D6F 		.ascii	"y_mod\000"
 6439      6400
 6440              	.LASF216:
 6441 0aa7 6C765F67 		.ascii	"lv_gauge_get_style\000"
 6441      61756765 
 6441      5F676574 
 6441      5F737479 
 6441      6C6500
ARM GAS  C:\Users\tmj32\AppData\Local\Temp\ccmyxrAJ.s 			page 135


 6442              	.LASF85:
 6443 0aba 5F6C765F 		.ascii	"_lv_obj_t\000"
 6443      6F626A5F 
 6443      7400
 6444              	.LASF63:
 6445 0ac4 666F6E74 		.ascii	"font\000"
 6445      00
 6446              	.LASF64:
 6447 0ac9 6C657474 		.ascii	"letter_space\000"
 6447      65725F73 
 6447      70616365 
 6447      00
 6448              	.LASF198:
 6449 0ad6 63616C65 		.ascii	"calendar\000"
 6449      6E646172 
 6449      00
 6450              	.LASF213:
 6451 0adf 6C765F67 		.ascii	"lv_gauge_set_style\000"
 6451      61756765 
 6451      5F736574 
 6451      5F737479 
 6451      6C6500
 6452              	.LASF101:
 6453 0af2 62617365 		.ascii	"base_dir\000"
 6453      5F646972 
 6453      00
 6454              	.LASF25:
 6455 0afb 626F785F 		.ascii	"box_h\000"
 6455      6800
 6456              	.LASF137:
 6457 0b01 62617365 		.ascii	"base\000"
 6457      00
 6458              	.LASF24:
 6459 0b06 626F785F 		.ascii	"box_w\000"
 6459      7700
 6460              	.LASF5:
 6461 0b0c 73686F72 		.ascii	"short int\000"
 6461      7420696E 
 6461      7400
 6462              	.LASF32:
 6463 0b16 62617365 		.ascii	"base_line\000"
 6463      5F6C696E 
 6463      6500
 6464              	.LASF82:
 6465 0b20 6C765F6C 		.ascii	"lv_ll_t\000"
 6465      6C5F7400 
 6466              	.LASF163:
 6467 0b28 6C765F67 		.ascii	"lv_gauge_ext_t\000"
 6467      61756765 
 6467      5F657874 
 6467      5F7400
 6468              	.LASF235:
 6469 0b37 6D6F6465 		.ascii	"mode\000"
 6469      00
 6470              	.LASF17:
 6471 0b3c 696E7431 		.ascii	"int16_t\000"
 6471      365F7400 
ARM GAS  C:\Users\tmj32\AppData\Local\Temp\ccmyxrAJ.s 			page 136


 6472              	.LASF116:
 6473 0b44 4C565F53 		.ascii	"LV_SIGNAL_CORD_CHG\000"
 6473      49474E41 
 6473      4C5F434F 
 6473      52445F43 
 6473      484700
 6474              	.LASF87:
 6475 0b57 636F6F72 		.ascii	"coords\000"
 6475      647300
 6476              	.LASF202:
 6477 0b5e 7370696E 		.ascii	"spinbox\000"
 6477      626F7800 
 6478              	.LASF225:
 6479 0b66 6C765F67 		.ascii	"lv_gauge_set_scale\000"
 6479      61756765 
 6479      5F736574 
 6479      5F736361 
 6479      6C6500
 6480              	.LASF98:
 6481 0b79 6F70615F 		.ascii	"opa_scale_en\000"
 6481      7363616C 
 6481      655F656E 
 6481      00
 6482              	.LASF179:
 6483 0b86 6461795F 		.ascii	"day_names\000"
 6483      6E616D65 
 6483      7300
 6484              	.LASF60:
 6485 0b90 73686164 		.ascii	"shadow\000"
 6485      6F7700
 6486              	.LASF237:
 6487 0b97 6C696E65 		.ascii	"line_cnt_tmp\000"
 6487      5F636E74 
 6487      5F746D70 
 6487      00
 6488              	.LASF96:
 6489 0ba4 64726167 		.ascii	"drag_parent\000"
 6489      5F706172 
 6489      656E7400 
 6490              	.LASF151:
 6491 0bb0 6D61785F 		.ascii	"max_value\000"
 6491      76616C75 
 6491      6500
 6492              	.LASF119:
 6493 0bba 4C565F53 		.ascii	"LV_SIGNAL_BASE_DIR_CHG\000"
 6493      49474E41 
 6493      4C5F4241 
 6493      53455F44 
 6493      49525F43 
 6494              	.LASF219:
 6495 0bd1 636F7079 		.ascii	"copy_ext\000"
 6495      5F657874 
 6495      00
 6496              	.LASF189:
 6497 0bda 636F6E74 		.ascii	"content\000"
 6497      656E7400 
 6498              	.LASF61:
ARM GAS  C:\Users\tmj32\AppData\Local\Temp\ccmyxrAJ.s 			page 137


 6499 0be2 70616464 		.ascii	"padding\000"
 6499      696E6700 
 6500              	.LASF89:
 6501 0bea 7369676E 		.ascii	"signal_cb\000"
 6501      616C5F63 
 6501      6200
 6502              	.LASF20:
 6503 0bf4 75696E74 		.ascii	"uint32_t\000"
 6503      33325F74 
 6503      00
 6504              	.LASF245:
 6505 0bfd 795F6F66 		.ascii	"y_ofs\000"
 6505      7300
 6506              	.LASF171:
 6507 0c03 6461726B 		.ascii	"dark\000"
 6507      00
 6508              	.LASF258:
 6509 0c08 6E656564 		.ascii	"needle_angle\000"
 6509      6C655F61 
 6509      6E676C65 
 6509      00
 6510              	.LASF36:
 6511 0c15 67726565 		.ascii	"green\000"
 6511      6E00
 6512              	.LASF34:
 6513 0c1b 6C765F66 		.ascii	"lv_font_t\000"
 6513      6F6E745F 
 6513      7400
 6514              	.LASF102:
 6515 0c25 72657365 		.ascii	"reserved\000"
 6515      72766564 
 6515      00
 6516              	.LASF7:
 6517 0c2e 73686F72 		.ascii	"short unsigned int\000"
 6517      7420756E 
 6517      7369676E 
 6517      65642069 
 6517      6E7400
 6518              	.LASF165:
 6519 0c41 6C765F67 		.ascii	"lv_gauge_style_t\000"
 6519      61756765 
 6519      5F737479 
 6519      6C655F74 
 6519      00
 6520              	.LASF21:
 6521 0c52 6C765F63 		.ascii	"lv_coord_t\000"
 6521      6F6F7264 
 6521      5F7400
 6522              	.LASF261:
 6523 0c5d 785F6D6F 		.ascii	"x_mod\000"
 6523      6400
 6524              	.LASF59:
 6525 0c63 626F7264 		.ascii	"border\000"
 6525      657200
 6526              	.LASF193:
 6527 0c6a 6C616265 		.ascii	"label\000"
 6527      6C00
ARM GAS  C:\Users\tmj32\AppData\Local\Temp\ccmyxrAJ.s 			page 138


 6528              	.LASF29:
 6529 0c70 6765745F 		.ascii	"get_glyph_dsc\000"
 6529      676C7970 
 6529      685F6473 
 6529      6300
 6530              	.LASF8:
 6531 0c7e 5F5F696E 		.ascii	"__int32_t\000"
 6531      7433325F 
 6531      7400
 6532              	.LASF242:
 6533 0c88 6C765F67 		.ascii	"lv_gauge_draw_scale\000"
 6533      61756765 
 6533      5F647261 
 6533      775F7363 
 6533      616C6500 
 6534              	.LASF46:
 6535 0c9c 6C765F62 		.ascii	"lv_border_part_t\000"
 6535      6F726465 
 6535      725F7061 
 6535      72745F74 
 6535      00
 6536              	.LASF113:
 6537 0cad 6C765F65 		.ascii	"lv_event_cb_t\000"
 6537      76656E74 
 6537      5F63625F 
 6537      7400
 6538              	.LASF196:
 6539 0cbb 7072656C 		.ascii	"preload\000"
 6539      6F616400 
 6540              	.LASF142:
 6541 0cc3 6F726967 		.ascii	"origo_align\000"
 6541      6F5F616C 
 6541      69676E00 
 6542              	.LASF174:
 6543 0ccf 6B6E6F62 		.ascii	"knob\000"
 6543      00
 6544              	.LASF62:
 6545 0cd4 73656C5F 		.ascii	"sel_color\000"
 6545      636F6C6F 
 6545      7200
 6546              	.LASF84:
 6547 0cde 5F6C765F 		.ascii	"_lv_font_struct\000"
 6547      666F6E74 
 6547      5F737472 
 6547      75637400 
 6548              	.LASF162:
 6549 0cee 6C616265 		.ascii	"label_count\000"
 6549      6C5F636F 
 6549      756E7400 
 6550              	.LASF146:
 6551 0cfa 7363616C 		.ascii	"scale_angle\000"
 6551      655F616E 
 6551      676C6500 
 6552              	.LASF50:
 6553 0d06 70617274 		.ascii	"part\000"
 6553      00
 6554              	.LASF79:
ARM GAS  C:\Users\tmj32\AppData\Local\Temp\ccmyxrAJ.s 			page 139


 6555 0d0b 6E5F7369 		.ascii	"n_size\000"
 6555      7A6500
 6556              	.LASF187:
 6557 0d12 63757273 		.ascii	"cursor\000"
 6557      6F7200
 6558              	.LASF111:
 6559 0d19 6C765F64 		.ascii	"lv_design_cb_t\000"
 6559      65736967 
 6559      6E5F6362 
 6559      5F7400
 6560              	.LASF104:
 6561 0d28 6F70615F 		.ascii	"opa_scale\000"
 6561      7363616C 
 6561      6500
 6562              	.LASF205:
 6563 0d32 726F6C6C 		.ascii	"roller\000"
 6563      657200
 6564              		.ident	"GCC: (GNU Tools for ARM Embedded Processors) 5.4.1 20160609 (release) [ARM/embedded-5-bran
