ARM GAS  C:\Users\tmj32\AppData\Local\Temp\ccAMvBb1.s 			page 1


   1              		.syntax unified
   2              		.cpu cortex-m4
   3              		.eabi_attribute 27, 1
   4              		.fpu fpv4-sp-d16
   5              		.eabi_attribute 20, 1
   6              		.eabi_attribute 21, 1
   7              		.eabi_attribute 23, 3
   8              		.eabi_attribute 24, 1
   9              		.eabi_attribute 25, 1
  10              		.eabi_attribute 26, 1
  11              		.eabi_attribute 30, 6
  12              		.eabi_attribute 34, 1
  13              		.eabi_attribute 18, 4
  14              		.thumb
  15              		.syntax unified
  16              		.file	"lv_hal_tick.c"
  17              		.text
  18              	.Ltext0:
  19              		.cfi_sections	.debug_frame
  20              		.bss
  21              		.align	2
  22              	sys_time:
  23 0000 00000000 		.space	4
  24              	tick_irq_flag:
  25 0004 00       		.space	1
  26              		.section	.text.lv_tick_inc,"ax",%progbits
  27              		.align	2
  28              		.global	lv_tick_inc
  29              		.thumb
  30              		.thumb_func
  31              		.type	lv_tick_inc, %function
  32              	lv_tick_inc:
  33              	.LFB0:
  34              		.file 1 "..\\..\\..\\lvgl\\version_6.1.2\\lvgl\\src\\lv_hal\\lv_hal_tick.c"
   1:..\..\..\lvgl\version_6.1.2\lvgl\src\lv_hal/lv_hal_tick.c **** /**
   2:..\..\..\lvgl\version_6.1.2\lvgl\src\lv_hal/lv_hal_tick.c ****  * @file systick.c
   3:..\..\..\lvgl\version_6.1.2\lvgl\src\lv_hal/lv_hal_tick.c ****  * Provide access to the system tick with 1 millisecond resolution
   4:..\..\..\lvgl\version_6.1.2\lvgl\src\lv_hal/lv_hal_tick.c ****  */
   5:..\..\..\lvgl\version_6.1.2\lvgl\src\lv_hal/lv_hal_tick.c **** 
   6:..\..\..\lvgl\version_6.1.2\lvgl\src\lv_hal/lv_hal_tick.c **** /*********************
   7:..\..\..\lvgl\version_6.1.2\lvgl\src\lv_hal/lv_hal_tick.c ****  *      INCLUDES
   8:..\..\..\lvgl\version_6.1.2\lvgl\src\lv_hal/lv_hal_tick.c ****  *********************/
   9:..\..\..\lvgl\version_6.1.2\lvgl\src\lv_hal/lv_hal_tick.c **** #ifdef LV_CONF_INCLUDE_SIMPLE
  10:..\..\..\lvgl\version_6.1.2\lvgl\src\lv_hal/lv_hal_tick.c **** #include "lv_conf.h"
  11:..\..\..\lvgl\version_6.1.2\lvgl\src\lv_hal/lv_hal_tick.c **** #else
  12:..\..\..\lvgl\version_6.1.2\lvgl\src\lv_hal/lv_hal_tick.c **** #include "../../../lv_conf.h"
  13:..\..\..\lvgl\version_6.1.2\lvgl\src\lv_hal/lv_hal_tick.c **** #endif
  14:..\..\..\lvgl\version_6.1.2\lvgl\src\lv_hal/lv_hal_tick.c **** 
  15:..\..\..\lvgl\version_6.1.2\lvgl\src\lv_hal/lv_hal_tick.c **** #include "lv_hal_tick.h"
  16:..\..\..\lvgl\version_6.1.2\lvgl\src\lv_hal/lv_hal_tick.c **** #include <stddef.h>
  17:..\..\..\lvgl\version_6.1.2\lvgl\src\lv_hal/lv_hal_tick.c **** 
  18:..\..\..\lvgl\version_6.1.2\lvgl\src\lv_hal/lv_hal_tick.c **** #if LV_TICK_CUSTOM == 1
  19:..\..\..\lvgl\version_6.1.2\lvgl\src\lv_hal/lv_hal_tick.c **** #include LV_TICK_CUSTOM_INCLUDE
  20:..\..\..\lvgl\version_6.1.2\lvgl\src\lv_hal/lv_hal_tick.c **** #endif
  21:..\..\..\lvgl\version_6.1.2\lvgl\src\lv_hal/lv_hal_tick.c **** 
  22:..\..\..\lvgl\version_6.1.2\lvgl\src\lv_hal/lv_hal_tick.c **** /*********************
  23:..\..\..\lvgl\version_6.1.2\lvgl\src\lv_hal/lv_hal_tick.c ****  *      DEFINES
ARM GAS  C:\Users\tmj32\AppData\Local\Temp\ccAMvBb1.s 			page 2


  24:..\..\..\lvgl\version_6.1.2\lvgl\src\lv_hal/lv_hal_tick.c ****  *********************/
  25:..\..\..\lvgl\version_6.1.2\lvgl\src\lv_hal/lv_hal_tick.c **** 
  26:..\..\..\lvgl\version_6.1.2\lvgl\src\lv_hal/lv_hal_tick.c **** /**********************
  27:..\..\..\lvgl\version_6.1.2\lvgl\src\lv_hal/lv_hal_tick.c ****  *      TYPEDEFS
  28:..\..\..\lvgl\version_6.1.2\lvgl\src\lv_hal/lv_hal_tick.c ****  **********************/
  29:..\..\..\lvgl\version_6.1.2\lvgl\src\lv_hal/lv_hal_tick.c **** 
  30:..\..\..\lvgl\version_6.1.2\lvgl\src\lv_hal/lv_hal_tick.c **** /**********************
  31:..\..\..\lvgl\version_6.1.2\lvgl\src\lv_hal/lv_hal_tick.c ****  *  STATIC PROTOTYPES
  32:..\..\..\lvgl\version_6.1.2\lvgl\src\lv_hal/lv_hal_tick.c ****  **********************/
  33:..\..\..\lvgl\version_6.1.2\lvgl\src\lv_hal/lv_hal_tick.c **** 
  34:..\..\..\lvgl\version_6.1.2\lvgl\src\lv_hal/lv_hal_tick.c **** /**********************
  35:..\..\..\lvgl\version_6.1.2\lvgl\src\lv_hal/lv_hal_tick.c ****  *  STATIC VARIABLES
  36:..\..\..\lvgl\version_6.1.2\lvgl\src\lv_hal/lv_hal_tick.c ****  **********************/
  37:..\..\..\lvgl\version_6.1.2\lvgl\src\lv_hal/lv_hal_tick.c **** static uint32_t sys_time = 0;
  38:..\..\..\lvgl\version_6.1.2\lvgl\src\lv_hal/lv_hal_tick.c **** static volatile uint8_t tick_irq_flag;
  39:..\..\..\lvgl\version_6.1.2\lvgl\src\lv_hal/lv_hal_tick.c **** 
  40:..\..\..\lvgl\version_6.1.2\lvgl\src\lv_hal/lv_hal_tick.c **** /**********************
  41:..\..\..\lvgl\version_6.1.2\lvgl\src\lv_hal/lv_hal_tick.c ****  *      MACROS
  42:..\..\..\lvgl\version_6.1.2\lvgl\src\lv_hal/lv_hal_tick.c ****  **********************/
  43:..\..\..\lvgl\version_6.1.2\lvgl\src\lv_hal/lv_hal_tick.c **** 
  44:..\..\..\lvgl\version_6.1.2\lvgl\src\lv_hal/lv_hal_tick.c **** /**********************
  45:..\..\..\lvgl\version_6.1.2\lvgl\src\lv_hal/lv_hal_tick.c ****  *   GLOBAL FUNCTIONS
  46:..\..\..\lvgl\version_6.1.2\lvgl\src\lv_hal/lv_hal_tick.c ****  **********************/
  47:..\..\..\lvgl\version_6.1.2\lvgl\src\lv_hal/lv_hal_tick.c **** 
  48:..\..\..\lvgl\version_6.1.2\lvgl\src\lv_hal/lv_hal_tick.c **** /**
  49:..\..\..\lvgl\version_6.1.2\lvgl\src\lv_hal/lv_hal_tick.c ****  * You have to call this function periodically
  50:..\..\..\lvgl\version_6.1.2\lvgl\src\lv_hal/lv_hal_tick.c ****  * @param tick_period the call period of this function in milliseconds
  51:..\..\..\lvgl\version_6.1.2\lvgl\src\lv_hal/lv_hal_tick.c ****  */
  52:..\..\..\lvgl\version_6.1.2\lvgl\src\lv_hal/lv_hal_tick.c **** LV_ATTRIBUTE_TICK_INC void lv_tick_inc(uint32_t tick_period)
  53:..\..\..\lvgl\version_6.1.2\lvgl\src\lv_hal/lv_hal_tick.c **** {
  35              		.loc 1 53 0
  36              		.cfi_startproc
  37              		@ args = 0, pretend = 0, frame = 8
  38              		@ frame_needed = 1, uses_anonymous_args = 0
  39              		@ link register save eliminated.
  40 0000 80B4     		push	{r7}
  41              		.cfi_def_cfa_offset 4
  42              		.cfi_offset 7, -4
  43 0002 83B0     		sub	sp, sp, #12
  44              		.cfi_def_cfa_offset 16
  45 0004 00AF     		add	r7, sp, #0
  46              		.cfi_def_cfa_register 7
  47 0006 7860     		str	r0, [r7, #4]
  54:..\..\..\lvgl\version_6.1.2\lvgl\src\lv_hal/lv_hal_tick.c ****     tick_irq_flag = 0;
  48              		.loc 1 54 0
  49 0008 074B     		ldr	r3, .L2
  50 000a 0022     		movs	r2, #0
  51 000c 1A70     		strb	r2, [r3]
  55:..\..\..\lvgl\version_6.1.2\lvgl\src\lv_hal/lv_hal_tick.c ****     sys_time += tick_period;
  52              		.loc 1 55 0
  53 000e 074B     		ldr	r3, .L2+4
  54 0010 1A68     		ldr	r2, [r3]
  55 0012 7B68     		ldr	r3, [r7, #4]
  56 0014 1344     		add	r3, r3, r2
  57 0016 054A     		ldr	r2, .L2+4
  58 0018 1360     		str	r3, [r2]
  56:..\..\..\lvgl\version_6.1.2\lvgl\src\lv_hal/lv_hal_tick.c **** }
ARM GAS  C:\Users\tmj32\AppData\Local\Temp\ccAMvBb1.s 			page 3


  59              		.loc 1 56 0
  60 001a 00BF     		nop
  61 001c 0C37     		adds	r7, r7, #12
  62              		.cfi_def_cfa_offset 4
  63 001e BD46     		mov	sp, r7
  64              		.cfi_def_cfa_register 13
  65              		@ sp needed
  66 0020 5DF8047B 		ldr	r7, [sp], #4
  67              		.cfi_restore 7
  68              		.cfi_def_cfa_offset 0
  69 0024 7047     		bx	lr
  70              	.L3:
  71 0026 00BF     		.align	2
  72              	.L2:
  73 0028 04000000 		.word	tick_irq_flag
  74 002c 00000000 		.word	sys_time
  75              		.cfi_endproc
  76              	.LFE0:
  77              		.size	lv_tick_inc, .-lv_tick_inc
  78              		.section	.text.lv_tick_get,"ax",%progbits
  79              		.align	2
  80              		.global	lv_tick_get
  81              		.thumb
  82              		.thumb_func
  83              		.type	lv_tick_get, %function
  84              	lv_tick_get:
  85              	.LFB1:
  57:..\..\..\lvgl\version_6.1.2\lvgl\src\lv_hal/lv_hal_tick.c **** 
  58:..\..\..\lvgl\version_6.1.2\lvgl\src\lv_hal/lv_hal_tick.c **** /**
  59:..\..\..\lvgl\version_6.1.2\lvgl\src\lv_hal/lv_hal_tick.c ****  * Get the elapsed milliseconds since start up
  60:..\..\..\lvgl\version_6.1.2\lvgl\src\lv_hal/lv_hal_tick.c ****  * @return the elapsed milliseconds
  61:..\..\..\lvgl\version_6.1.2\lvgl\src\lv_hal/lv_hal_tick.c ****  */
  62:..\..\..\lvgl\version_6.1.2\lvgl\src\lv_hal/lv_hal_tick.c **** uint32_t lv_tick_get(void)
  63:..\..\..\lvgl\version_6.1.2\lvgl\src\lv_hal/lv_hal_tick.c **** {
  86              		.loc 1 63 0
  87              		.cfi_startproc
  88              		@ args = 0, pretend = 0, frame = 8
  89              		@ frame_needed = 1, uses_anonymous_args = 0
  90              		@ link register save eliminated.
  91 0000 80B4     		push	{r7}
  92              		.cfi_def_cfa_offset 4
  93              		.cfi_offset 7, -4
  94 0002 83B0     		sub	sp, sp, #12
  95              		.cfi_def_cfa_offset 16
  96 0004 00AF     		add	r7, sp, #0
  97              		.cfi_def_cfa_register 7
  98              	.L5:
  64:..\..\..\lvgl\version_6.1.2\lvgl\src\lv_hal/lv_hal_tick.c **** #if LV_TICK_CUSTOM == 0
  65:..\..\..\lvgl\version_6.1.2\lvgl\src\lv_hal/lv_hal_tick.c ****     uint32_t result;
  66:..\..\..\lvgl\version_6.1.2\lvgl\src\lv_hal/lv_hal_tick.c ****     do {
  67:..\..\..\lvgl\version_6.1.2\lvgl\src\lv_hal/lv_hal_tick.c ****         tick_irq_flag = 1;
  99              		.loc 1 67 0 discriminator 1
 100 0006 094B     		ldr	r3, .L7
 101 0008 0122     		movs	r2, #1
 102 000a 1A70     		strb	r2, [r3]
  68:..\..\..\lvgl\version_6.1.2\lvgl\src\lv_hal/lv_hal_tick.c ****         result        = sys_time;
 103              		.loc 1 68 0 discriminator 1
ARM GAS  C:\Users\tmj32\AppData\Local\Temp\ccAMvBb1.s 			page 4


 104 000c 084B     		ldr	r3, .L7+4
 105 000e 1B68     		ldr	r3, [r3]
 106 0010 7B60     		str	r3, [r7, #4]
  69:..\..\..\lvgl\version_6.1.2\lvgl\src\lv_hal/lv_hal_tick.c ****     } while(!tick_irq_flag); /*'lv_tick_inc()' clears this flag which can be in an interrupt.
 107              		.loc 1 69 0 discriminator 1
 108 0012 064B     		ldr	r3, .L7
 109 0014 1B78     		ldrb	r3, [r3]
 110 0016 DBB2     		uxtb	r3, r3
 111 0018 002B     		cmp	r3, #0
 112 001a F4D0     		beq	.L5
  70:..\..\..\lvgl\version_6.1.2\lvgl\src\lv_hal/lv_hal_tick.c ****                                 Continue until make a non interrupted cycle */
  71:..\..\..\lvgl\version_6.1.2\lvgl\src\lv_hal/lv_hal_tick.c **** 
  72:..\..\..\lvgl\version_6.1.2\lvgl\src\lv_hal/lv_hal_tick.c ****     return result;
 113              		.loc 1 72 0
 114 001c 7B68     		ldr	r3, [r7, #4]
  73:..\..\..\lvgl\version_6.1.2\lvgl\src\lv_hal/lv_hal_tick.c **** #else
  74:..\..\..\lvgl\version_6.1.2\lvgl\src\lv_hal/lv_hal_tick.c ****     return LV_TICK_CUSTOM_SYS_TIME_EXPR;
  75:..\..\..\lvgl\version_6.1.2\lvgl\src\lv_hal/lv_hal_tick.c **** #endif
  76:..\..\..\lvgl\version_6.1.2\lvgl\src\lv_hal/lv_hal_tick.c **** }
 115              		.loc 1 76 0
 116 001e 1846     		mov	r0, r3
 117 0020 0C37     		adds	r7, r7, #12
 118              		.cfi_def_cfa_offset 4
 119 0022 BD46     		mov	sp, r7
 120              		.cfi_def_cfa_register 13
 121              		@ sp needed
 122 0024 5DF8047B 		ldr	r7, [sp], #4
 123              		.cfi_restore 7
 124              		.cfi_def_cfa_offset 0
 125 0028 7047     		bx	lr
 126              	.L8:
 127 002a 00BF     		.align	2
 128              	.L7:
 129 002c 04000000 		.word	tick_irq_flag
 130 0030 00000000 		.word	sys_time
 131              		.cfi_endproc
 132              	.LFE1:
 133              		.size	lv_tick_get, .-lv_tick_get
 134              		.section	.text.lv_tick_elaps,"ax",%progbits
 135              		.align	2
 136              		.global	lv_tick_elaps
 137              		.thumb
 138              		.thumb_func
 139              		.type	lv_tick_elaps, %function
 140              	lv_tick_elaps:
 141              	.LFB2:
  77:..\..\..\lvgl\version_6.1.2\lvgl\src\lv_hal/lv_hal_tick.c **** 
  78:..\..\..\lvgl\version_6.1.2\lvgl\src\lv_hal/lv_hal_tick.c **** /**
  79:..\..\..\lvgl\version_6.1.2\lvgl\src\lv_hal/lv_hal_tick.c ****  * Get the elapsed milliseconds since a previous time stamp
  80:..\..\..\lvgl\version_6.1.2\lvgl\src\lv_hal/lv_hal_tick.c ****  * @param prev_tick a previous time stamp (return value of systick_get() )
  81:..\..\..\lvgl\version_6.1.2\lvgl\src\lv_hal/lv_hal_tick.c ****  * @return the elapsed milliseconds since 'prev_tick'
  82:..\..\..\lvgl\version_6.1.2\lvgl\src\lv_hal/lv_hal_tick.c ****  */
  83:..\..\..\lvgl\version_6.1.2\lvgl\src\lv_hal/lv_hal_tick.c **** uint32_t lv_tick_elaps(uint32_t prev_tick)
  84:..\..\..\lvgl\version_6.1.2\lvgl\src\lv_hal/lv_hal_tick.c **** {
 142              		.loc 1 84 0
 143              		.cfi_startproc
 144              		@ args = 0, pretend = 0, frame = 16
ARM GAS  C:\Users\tmj32\AppData\Local\Temp\ccAMvBb1.s 			page 5


 145              		@ frame_needed = 1, uses_anonymous_args = 0
 146 0000 80B5     		push	{r7, lr}
 147              		.cfi_def_cfa_offset 8
 148              		.cfi_offset 7, -8
 149              		.cfi_offset 14, -4
 150 0002 84B0     		sub	sp, sp, #16
 151              		.cfi_def_cfa_offset 24
 152 0004 00AF     		add	r7, sp, #0
 153              		.cfi_def_cfa_register 7
 154 0006 7860     		str	r0, [r7, #4]
  85:..\..\..\lvgl\version_6.1.2\lvgl\src\lv_hal/lv_hal_tick.c ****     uint32_t act_time = lv_tick_get();
 155              		.loc 1 85 0
 156 0008 FFF7FEFF 		bl	lv_tick_get
 157 000c F860     		str	r0, [r7, #12]
  86:..\..\..\lvgl\version_6.1.2\lvgl\src\lv_hal/lv_hal_tick.c **** 
  87:..\..\..\lvgl\version_6.1.2\lvgl\src\lv_hal/lv_hal_tick.c ****     /*If there is no overflow in sys_time simple subtract*/
  88:..\..\..\lvgl\version_6.1.2\lvgl\src\lv_hal/lv_hal_tick.c ****     if(act_time >= prev_tick) {
 158              		.loc 1 88 0
 159 000e FA68     		ldr	r2, [r7, #12]
 160 0010 7B68     		ldr	r3, [r7, #4]
 161 0012 9A42     		cmp	r2, r3
 162 0014 04D3     		bcc	.L10
  89:..\..\..\lvgl\version_6.1.2\lvgl\src\lv_hal/lv_hal_tick.c ****         prev_tick = act_time - prev_tick;
 163              		.loc 1 89 0
 164 0016 FA68     		ldr	r2, [r7, #12]
 165 0018 7B68     		ldr	r3, [r7, #4]
 166 001a D31A     		subs	r3, r2, r3
 167 001c 7B60     		str	r3, [r7, #4]
 168 001e 06E0     		b	.L11
 169              	.L10:
  90:..\..\..\lvgl\version_6.1.2\lvgl\src\lv_hal/lv_hal_tick.c ****     } else {
  91:..\..\..\lvgl\version_6.1.2\lvgl\src\lv_hal/lv_hal_tick.c ****         prev_tick = UINT32_MAX - prev_tick + 1;
 170              		.loc 1 91 0
 171 0020 7B68     		ldr	r3, [r7, #4]
 172 0022 5B42     		negs	r3, r3
 173 0024 7B60     		str	r3, [r7, #4]
  92:..\..\..\lvgl\version_6.1.2\lvgl\src\lv_hal/lv_hal_tick.c ****         prev_tick += act_time;
 174              		.loc 1 92 0
 175 0026 7A68     		ldr	r2, [r7, #4]
 176 0028 FB68     		ldr	r3, [r7, #12]
 177 002a 1344     		add	r3, r3, r2
 178 002c 7B60     		str	r3, [r7, #4]
 179              	.L11:
  93:..\..\..\lvgl\version_6.1.2\lvgl\src\lv_hal/lv_hal_tick.c ****     }
  94:..\..\..\lvgl\version_6.1.2\lvgl\src\lv_hal/lv_hal_tick.c **** 
  95:..\..\..\lvgl\version_6.1.2\lvgl\src\lv_hal/lv_hal_tick.c ****     return prev_tick;
 180              		.loc 1 95 0
 181 002e 7B68     		ldr	r3, [r7, #4]
  96:..\..\..\lvgl\version_6.1.2\lvgl\src\lv_hal/lv_hal_tick.c **** }
 182              		.loc 1 96 0
 183 0030 1846     		mov	r0, r3
 184 0032 1037     		adds	r7, r7, #16
 185              		.cfi_def_cfa_offset 8
 186 0034 BD46     		mov	sp, r7
 187              		.cfi_def_cfa_register 13
 188              		@ sp needed
 189 0036 80BD     		pop	{r7, pc}
ARM GAS  C:\Users\tmj32\AppData\Local\Temp\ccAMvBb1.s 			page 6


 190              		.cfi_endproc
 191              	.LFE2:
 192              		.size	lv_tick_elaps, .-lv_tick_elaps
 193              		.text
 194              	.Letext0:
 195              		.file 2 "c:\\program files (x86)\\cypress\\psoc creator\\4.3\\psoc creator\\import\\gnu\\arm\\5.4.
 196              		.file 3 "c:\\program files (x86)\\cypress\\psoc creator\\4.3\\psoc creator\\import\\gnu\\arm\\5.4.