ARM GAS  C:\Users\tmj32\AppData\Local\Temp\ccm54XhS.s 			page 1


   1              		.syntax unified
   2              		.cpu cortex-m4
   3              		.eabi_attribute 27, 1
   4              		.fpu fpv4-sp-d16
   5              		.eabi_attribute 20, 1
   6              		.eabi_attribute 21, 1
   7              		.eabi_attribute 23, 3
   8              		.eabi_attribute 24, 1
   9              		.eabi_attribute 25, 1
  10              		.eabi_attribute 26, 1
  11              		.eabi_attribute 30, 6
  12              		.eabi_attribute 34, 1
  13              		.eabi_attribute 18, 4
  14              		.thumb
  15              		.syntax unified
  16              		.file	"lv_hal_indev.c"
  17              		.text
  18              	.Ltext0:
  19              		.cfi_sections	.debug_frame
  20              		.section	.text.lv_indev_drv_init,"ax",%progbits
  21              		.align	2
  22              		.global	lv_indev_drv_init
  23              		.thumb
  24              		.thumb_func
  25              		.type	lv_indev_drv_init, %function
  26              	lv_indev_drv_init:
  27              	.LFB31:
  28              		.file 1 "..\\..\\..\\lvgl\\version_6.1.2\\lvgl\\src\\lv_hal\\lv_hal_indev.c"
   1:..\..\..\lvgl\version_6.1.2\lvgl\src\lv_hal/lv_hal_indev.c **** /**
   2:..\..\..\lvgl\version_6.1.2\lvgl\src\lv_hal/lv_hal_indev.c ****  * @file hal_indev.c
   3:..\..\..\lvgl\version_6.1.2\lvgl\src\lv_hal/lv_hal_indev.c ****  *
   4:..\..\..\lvgl\version_6.1.2\lvgl\src\lv_hal/lv_hal_indev.c ****  * @description Input device HAL interface
   5:..\..\..\lvgl\version_6.1.2\lvgl\src\lv_hal/lv_hal_indev.c ****  *
   6:..\..\..\lvgl\version_6.1.2\lvgl\src\lv_hal/lv_hal_indev.c ****  */
   7:..\..\..\lvgl\version_6.1.2\lvgl\src\lv_hal/lv_hal_indev.c **** 
   8:..\..\..\lvgl\version_6.1.2\lvgl\src\lv_hal/lv_hal_indev.c **** /*********************
   9:..\..\..\lvgl\version_6.1.2\lvgl\src\lv_hal/lv_hal_indev.c ****  *      INCLUDES
  10:..\..\..\lvgl\version_6.1.2\lvgl\src\lv_hal/lv_hal_indev.c ****  *********************/
  11:..\..\..\lvgl\version_6.1.2\lvgl\src\lv_hal/lv_hal_indev.c **** #include "../lv_core/lv_debug.h"
  12:..\..\..\lvgl\version_6.1.2\lvgl\src\lv_hal/lv_hal_indev.c **** #include "../lv_hal/lv_hal_indev.h"
  13:..\..\..\lvgl\version_6.1.2\lvgl\src\lv_hal/lv_hal_indev.c **** #include "../lv_core/lv_indev.h"
  14:..\..\..\lvgl\version_6.1.2\lvgl\src\lv_hal/lv_hal_indev.c **** #include "../lv_misc/lv_mem.h"
  15:..\..\..\lvgl\version_6.1.2\lvgl\src\lv_hal/lv_hal_indev.c **** #include "../lv_misc/lv_gc.h"
  16:..\..\..\lvgl\version_6.1.2\lvgl\src\lv_hal/lv_hal_indev.c **** #include "lv_hal_disp.h"
  17:..\..\..\lvgl\version_6.1.2\lvgl\src\lv_hal/lv_hal_indev.c **** 
  18:..\..\..\lvgl\version_6.1.2\lvgl\src\lv_hal/lv_hal_indev.c **** #if defined(LV_GC_INCLUDE)
  19:..\..\..\lvgl\version_6.1.2\lvgl\src\lv_hal/lv_hal_indev.c **** #include LV_GC_INCLUDE
  20:..\..\..\lvgl\version_6.1.2\lvgl\src\lv_hal/lv_hal_indev.c **** #endif /* LV_ENABLE_GC */
  21:..\..\..\lvgl\version_6.1.2\lvgl\src\lv_hal/lv_hal_indev.c **** 
  22:..\..\..\lvgl\version_6.1.2\lvgl\src\lv_hal/lv_hal_indev.c **** /*********************
  23:..\..\..\lvgl\version_6.1.2\lvgl\src\lv_hal/lv_hal_indev.c ****  *      DEFINES
  24:..\..\..\lvgl\version_6.1.2\lvgl\src\lv_hal/lv_hal_indev.c ****  *********************/
  25:..\..\..\lvgl\version_6.1.2\lvgl\src\lv_hal/lv_hal_indev.c **** 
  26:..\..\..\lvgl\version_6.1.2\lvgl\src\lv_hal/lv_hal_indev.c **** /**********************
  27:..\..\..\lvgl\version_6.1.2\lvgl\src\lv_hal/lv_hal_indev.c ****  *      TYPEDEFS
  28:..\..\..\lvgl\version_6.1.2\lvgl\src\lv_hal/lv_hal_indev.c ****  **********************/
  29:..\..\..\lvgl\version_6.1.2\lvgl\src\lv_hal/lv_hal_indev.c **** 
ARM GAS  C:\Users\tmj32\AppData\Local\Temp\ccm54XhS.s 			page 2


  30:..\..\..\lvgl\version_6.1.2\lvgl\src\lv_hal/lv_hal_indev.c **** /**********************
  31:..\..\..\lvgl\version_6.1.2\lvgl\src\lv_hal/lv_hal_indev.c ****  *  STATIC PROTOTYPES
  32:..\..\..\lvgl\version_6.1.2\lvgl\src\lv_hal/lv_hal_indev.c ****  **********************/
  33:..\..\..\lvgl\version_6.1.2\lvgl\src\lv_hal/lv_hal_indev.c **** 
  34:..\..\..\lvgl\version_6.1.2\lvgl\src\lv_hal/lv_hal_indev.c **** /**********************
  35:..\..\..\lvgl\version_6.1.2\lvgl\src\lv_hal/lv_hal_indev.c ****  *  STATIC VARIABLES
  36:..\..\..\lvgl\version_6.1.2\lvgl\src\lv_hal/lv_hal_indev.c ****  **********************/
  37:..\..\..\lvgl\version_6.1.2\lvgl\src\lv_hal/lv_hal_indev.c **** 
  38:..\..\..\lvgl\version_6.1.2\lvgl\src\lv_hal/lv_hal_indev.c **** /**********************
  39:..\..\..\lvgl\version_6.1.2\lvgl\src\lv_hal/lv_hal_indev.c ****  *      MACROS
  40:..\..\..\lvgl\version_6.1.2\lvgl\src\lv_hal/lv_hal_indev.c ****  **********************/
  41:..\..\..\lvgl\version_6.1.2\lvgl\src\lv_hal/lv_hal_indev.c **** 
  42:..\..\..\lvgl\version_6.1.2\lvgl\src\lv_hal/lv_hal_indev.c **** /**********************
  43:..\..\..\lvgl\version_6.1.2\lvgl\src\lv_hal/lv_hal_indev.c ****  *   GLOBAL FUNCTIONS
  44:..\..\..\lvgl\version_6.1.2\lvgl\src\lv_hal/lv_hal_indev.c ****  **********************/
  45:..\..\..\lvgl\version_6.1.2\lvgl\src\lv_hal/lv_hal_indev.c **** 
  46:..\..\..\lvgl\version_6.1.2\lvgl\src\lv_hal/lv_hal_indev.c **** /**
  47:..\..\..\lvgl\version_6.1.2\lvgl\src\lv_hal/lv_hal_indev.c ****  * Initialize an input device driver with default values.
  48:..\..\..\lvgl\version_6.1.2\lvgl\src\lv_hal/lv_hal_indev.c ****  * It is used to surly have known values in the fields ant not memory junk.
  49:..\..\..\lvgl\version_6.1.2\lvgl\src\lv_hal/lv_hal_indev.c ****  * After it you can set the fields.
  50:..\..\..\lvgl\version_6.1.2\lvgl\src\lv_hal/lv_hal_indev.c ****  * @param driver pointer to driver variable to initialize
  51:..\..\..\lvgl\version_6.1.2\lvgl\src\lv_hal/lv_hal_indev.c ****  */
  52:..\..\..\lvgl\version_6.1.2\lvgl\src\lv_hal/lv_hal_indev.c **** void lv_indev_drv_init(lv_indev_drv_t * driver)
  53:..\..\..\lvgl\version_6.1.2\lvgl\src\lv_hal/lv_hal_indev.c **** {
  29              		.loc 1 53 0
  30              		.cfi_startproc
  31              		@ args = 0, pretend = 0, frame = 8
  32              		@ frame_needed = 1, uses_anonymous_args = 0
  33 0000 80B5     		push	{r7, lr}
  34              		.cfi_def_cfa_offset 8
  35              		.cfi_offset 7, -8
  36              		.cfi_offset 14, -4
  37 0002 82B0     		sub	sp, sp, #8
  38              		.cfi_def_cfa_offset 16
  39 0004 00AF     		add	r7, sp, #0
  40              		.cfi_def_cfa_register 7
  41 0006 7860     		str	r0, [r7, #4]
  54:..\..\..\lvgl\version_6.1.2\lvgl\src\lv_hal/lv_hal_indev.c ****     memset(driver, 0, sizeof(lv_indev_drv_t));
  42              		.loc 1 54 0
  43 0008 1C22     		movs	r2, #28
  44 000a 0021     		movs	r1, #0
  45 000c 7868     		ldr	r0, [r7, #4]
  46 000e FFF7FEFF 		bl	memset
  55:..\..\..\lvgl\version_6.1.2\lvgl\src\lv_hal/lv_hal_indev.c **** 
  56:..\..\..\lvgl\version_6.1.2\lvgl\src\lv_hal/lv_hal_indev.c ****     driver->type                = LV_INDEV_TYPE_NONE;
  47              		.loc 1 56 0
  48 0012 7B68     		ldr	r3, [r7, #4]
  49 0014 0022     		movs	r2, #0
  50 0016 1A70     		strb	r2, [r3]
  57:..\..\..\lvgl\version_6.1.2\lvgl\src\lv_hal/lv_hal_indev.c ****     driver->drag_limit          = LV_INDEV_DEF_DRAG_LIMIT;
  51              		.loc 1 57 0
  52 0018 7B68     		ldr	r3, [r7, #4]
  53 001a 0A22     		movs	r2, #10
  54 001c 1A75     		strb	r2, [r3, #20]
  58:..\..\..\lvgl\version_6.1.2\lvgl\src\lv_hal/lv_hal_indev.c ****     driver->drag_throw          = LV_INDEV_DEF_DRAG_THROW;
  55              		.loc 1 58 0
  56 001e 7B68     		ldr	r3, [r7, #4]
ARM GAS  C:\Users\tmj32\AppData\Local\Temp\ccm54XhS.s 			page 3


  57 0020 1422     		movs	r2, #20
  58 0022 5A75     		strb	r2, [r3, #21]
  59:..\..\..\lvgl\version_6.1.2\lvgl\src\lv_hal/lv_hal_indev.c ****     driver->long_press_time     = LV_INDEV_DEF_LONG_PRESS_TIME;
  59              		.loc 1 59 0
  60 0024 7B68     		ldr	r3, [r7, #4]
  61 0026 4FF4C872 		mov	r2, #400
  62 002a DA82     		strh	r2, [r3, #22]	@ movhi
  60:..\..\..\lvgl\version_6.1.2\lvgl\src\lv_hal/lv_hal_indev.c ****     driver->long_press_rep_time = LV_INDEV_DEF_LONG_PRESS_REP_TIME;
  63              		.loc 1 60 0
  64 002c 7B68     		ldr	r3, [r7, #4]
  65 002e 6422     		movs	r2, #100
  66 0030 1A83     		strh	r2, [r3, #24]	@ movhi
  61:..\..\..\lvgl\version_6.1.2\lvgl\src\lv_hal/lv_hal_indev.c **** }
  67              		.loc 1 61 0
  68 0032 00BF     		nop
  69 0034 0837     		adds	r7, r7, #8
  70              		.cfi_def_cfa_offset 8
  71 0036 BD46     		mov	sp, r7
  72              		.cfi_def_cfa_register 13
  73              		@ sp needed
  74 0038 80BD     		pop	{r7, pc}
  75              		.cfi_endproc
  76              	.LFE31:
  77              		.size	lv_indev_drv_init, .-lv_indev_drv_init
  78 003a 00BF     		.section	.text.lv_indev_drv_register,"ax",%progbits
  79              		.align	2
  80              		.global	lv_indev_drv_register
  81              		.thumb
  82              		.thumb_func
  83              		.type	lv_indev_drv_register, %function
  84              	lv_indev_drv_register:
  85              	.LFB32:
  62:..\..\..\lvgl\version_6.1.2\lvgl\src\lv_hal/lv_hal_indev.c **** 
  63:..\..\..\lvgl\version_6.1.2\lvgl\src\lv_hal/lv_hal_indev.c **** /**
  64:..\..\..\lvgl\version_6.1.2\lvgl\src\lv_hal/lv_hal_indev.c ****  * Register an initialized input device driver.
  65:..\..\..\lvgl\version_6.1.2\lvgl\src\lv_hal/lv_hal_indev.c ****  * @param driver pointer to an initialized 'lv_indev_drv_t' variable (can be local variable)
  66:..\..\..\lvgl\version_6.1.2\lvgl\src\lv_hal/lv_hal_indev.c ****  * @return pointer to the new input device or NULL on error
  67:..\..\..\lvgl\version_6.1.2\lvgl\src\lv_hal/lv_hal_indev.c ****  */
  68:..\..\..\lvgl\version_6.1.2\lvgl\src\lv_hal/lv_hal_indev.c **** lv_indev_t * lv_indev_drv_register(lv_indev_drv_t * driver)
  69:..\..\..\lvgl\version_6.1.2\lvgl\src\lv_hal/lv_hal_indev.c **** {
  86              		.loc 1 69 0
  87              		.cfi_startproc
  88              		@ args = 0, pretend = 0, frame = 16
  89              		@ frame_needed = 1, uses_anonymous_args = 0
  90 0000 80B5     		push	{r7, lr}
  91              		.cfi_def_cfa_offset 8
  92              		.cfi_offset 7, -8
  93              		.cfi_offset 14, -4
  94 0002 84B0     		sub	sp, sp, #16
  95              		.cfi_def_cfa_offset 24
  96 0004 00AF     		add	r7, sp, #0
  97              		.cfi_def_cfa_register 7
  98 0006 7860     		str	r0, [r7, #4]
  70:..\..\..\lvgl\version_6.1.2\lvgl\src\lv_hal/lv_hal_indev.c **** 
  71:..\..\..\lvgl\version_6.1.2\lvgl\src\lv_hal/lv_hal_indev.c ****     if(driver->disp == NULL) driver->disp = lv_disp_get_default();
  99              		.loc 1 71 0
 100 0008 7B68     		ldr	r3, [r7, #4]
ARM GAS  C:\Users\tmj32\AppData\Local\Temp\ccm54XhS.s 			page 4


 101 000a DB68     		ldr	r3, [r3, #12]
 102 000c 002B     		cmp	r3, #0
 103 000e 04D1     		bne	.L3
 104              		.loc 1 71 0 is_stmt 0 discriminator 1
 105 0010 FFF7FEFF 		bl	lv_disp_get_default
 106 0014 0246     		mov	r2, r0
 107 0016 7B68     		ldr	r3, [r7, #4]
 108 0018 DA60     		str	r2, [r3, #12]
 109              	.L3:
  72:..\..\..\lvgl\version_6.1.2\lvgl\src\lv_hal/lv_hal_indev.c **** 
  73:..\..\..\lvgl\version_6.1.2\lvgl\src\lv_hal/lv_hal_indev.c ****     if(driver->disp == NULL) {
 110              		.loc 1 73 0 is_stmt 1
 111 001a 7B68     		ldr	r3, [r7, #4]
 112 001c DB68     		ldr	r3, [r3, #12]
 113 001e 002B     		cmp	r3, #0
 114 0020 01D1     		bne	.L4
  74:..\..\..\lvgl\version_6.1.2\lvgl\src\lv_hal/lv_hal_indev.c ****         LV_LOG_WARN("lv_indev_drv_register: no display registered hence can't attache the indev to 
  75:..\..\..\lvgl\version_6.1.2\lvgl\src\lv_hal/lv_hal_indev.c ****                     "a display");
  76:..\..\..\lvgl\version_6.1.2\lvgl\src\lv_hal/lv_hal_indev.c ****         return NULL;
 115              		.loc 1 76 0
 116 0022 0023     		movs	r3, #0
 117 0024 2DE0     		b	.L5
 118              	.L4:
  77:..\..\..\lvgl\version_6.1.2\lvgl\src\lv_hal/lv_hal_indev.c ****     }
  78:..\..\..\lvgl\version_6.1.2\lvgl\src\lv_hal/lv_hal_indev.c **** 
  79:..\..\..\lvgl\version_6.1.2\lvgl\src\lv_hal/lv_hal_indev.c ****     lv_indev_t * indev = lv_ll_ins_head(&LV_GC_ROOT(_lv_indev_ll));
 119              		.loc 1 79 0
 120 0026 1948     		ldr	r0, .L7
 121 0028 FFF7FEFF 		bl	lv_ll_ins_head
 122 002c F860     		str	r0, [r7, #12]
  80:..\..\..\lvgl\version_6.1.2\lvgl\src\lv_hal/lv_hal_indev.c ****     if(!indev) {
 123              		.loc 1 80 0
 124 002e FB68     		ldr	r3, [r7, #12]
 125 0030 002B     		cmp	r3, #0
 126 0032 01D1     		bne	.L6
  81:..\..\..\lvgl\version_6.1.2\lvgl\src\lv_hal/lv_hal_indev.c ****         LV_ASSERT_MEM(indev);
  82:..\..\..\lvgl\version_6.1.2\lvgl\src\lv_hal/lv_hal_indev.c ****         return NULL;
 127              		.loc 1 82 0
 128 0034 0023     		movs	r3, #0
 129 0036 24E0     		b	.L5
 130              	.L6:
  83:..\..\..\lvgl\version_6.1.2\lvgl\src\lv_hal/lv_hal_indev.c ****     }
  84:..\..\..\lvgl\version_6.1.2\lvgl\src\lv_hal/lv_hal_indev.c **** 
  85:..\..\..\lvgl\version_6.1.2\lvgl\src\lv_hal/lv_hal_indev.c ****     memset(indev, 0, sizeof(lv_indev_t));
 131              		.loc 1 85 0
 132 0038 5C22     		movs	r2, #92
 133 003a 0021     		movs	r1, #0
 134 003c F868     		ldr	r0, [r7, #12]
 135 003e FFF7FEFF 		bl	memset
  86:..\..\..\lvgl\version_6.1.2\lvgl\src\lv_hal/lv_hal_indev.c ****     memcpy(&indev->driver, driver, sizeof(lv_indev_drv_t));
 136              		.loc 1 86 0
 137 0042 FB68     		ldr	r3, [r7, #12]
 138 0044 1C22     		movs	r2, #28
 139 0046 7968     		ldr	r1, [r7, #4]
 140 0048 1846     		mov	r0, r3
 141 004a FFF7FEFF 		bl	memcpy
  87:..\..\..\lvgl\version_6.1.2\lvgl\src\lv_hal/lv_hal_indev.c **** 
ARM GAS  C:\Users\tmj32\AppData\Local\Temp\ccm54XhS.s 			page 5


  88:..\..\..\lvgl\version_6.1.2\lvgl\src\lv_hal/lv_hal_indev.c ****     indev->proc.reset_query = 1;
 142              		.loc 1 88 0
 143 004e FA68     		ldr	r2, [r7, #12]
 144 0050 92F84C30 		ldrb	r3, [r2, #76]
 145 0054 43F00203 		orr	r3, r3, #2
 146 0058 82F84C30 		strb	r3, [r2, #76]
  89:..\..\..\lvgl\version_6.1.2\lvgl\src\lv_hal/lv_hal_indev.c ****     indev->cursor           = NULL;
 147              		.loc 1 89 0
 148 005c FB68     		ldr	r3, [r7, #12]
 149 005e 0022     		movs	r2, #0
 150 0060 1A65     		str	r2, [r3, #80]
  90:..\..\..\lvgl\version_6.1.2\lvgl\src\lv_hal/lv_hal_indev.c ****     indev->group            = NULL;
 151              		.loc 1 90 0
 152 0062 FB68     		ldr	r3, [r7, #12]
 153 0064 0022     		movs	r2, #0
 154 0066 5A65     		str	r2, [r3, #84]
  91:..\..\..\lvgl\version_6.1.2\lvgl\src\lv_hal/lv_hal_indev.c ****     indev->btn_points       = NULL;
 155              		.loc 1 91 0
 156 0068 FB68     		ldr	r3, [r7, #12]
 157 006a 0022     		movs	r2, #0
 158 006c 9A65     		str	r2, [r3, #88]
  92:..\..\..\lvgl\version_6.1.2\lvgl\src\lv_hal/lv_hal_indev.c **** 
  93:..\..\..\lvgl\version_6.1.2\lvgl\src\lv_hal/lv_hal_indev.c ****     indev->driver.read_task = lv_task_create(lv_indev_read_task, LV_INDEV_DEF_READ_PERIOD, LV_TASK_
 159              		.loc 1 93 0
 160 006e FB68     		ldr	r3, [r7, #12]
 161 0070 0322     		movs	r2, #3
 162 0072 1E21     		movs	r1, #30
 163 0074 0648     		ldr	r0, .L7+4
 164 0076 FFF7FEFF 		bl	lv_task_create
 165 007a 0246     		mov	r2, r0
 166 007c FB68     		ldr	r3, [r7, #12]
 167 007e 1A61     		str	r2, [r3, #16]
  94:..\..\..\lvgl\version_6.1.2\lvgl\src\lv_hal/lv_hal_indev.c **** 
  95:..\..\..\lvgl\version_6.1.2\lvgl\src\lv_hal/lv_hal_indev.c ****     return indev;
 168              		.loc 1 95 0
 169 0080 FB68     		ldr	r3, [r7, #12]
 170              	.L5:
  96:..\..\..\lvgl\version_6.1.2\lvgl\src\lv_hal/lv_hal_indev.c **** }
 171              		.loc 1 96 0
 172 0082 1846     		mov	r0, r3
 173 0084 1037     		adds	r7, r7, #16
 174              		.cfi_def_cfa_offset 8
 175 0086 BD46     		mov	sp, r7
 176              		.cfi_def_cfa_register 13
 177              		@ sp needed
 178 0088 80BD     		pop	{r7, pc}
 179              	.L8:
 180 008a 00BF     		.align	2
 181              	.L7:
 182 008c 00000000 		.word	_lv_indev_ll
 183 0090 00000000 		.word	lv_indev_read_task
 184              		.cfi_endproc
 185              	.LFE32:
 186              		.size	lv_indev_drv_register, .-lv_indev_drv_register
 187              		.section	.text.lv_indev_drv_update,"ax",%progbits
 188              		.align	2
 189              		.global	lv_indev_drv_update
ARM GAS  C:\Users\tmj32\AppData\Local\Temp\ccm54XhS.s 			page 6


 190              		.thumb
 191              		.thumb_func
 192              		.type	lv_indev_drv_update, %function
 193              	lv_indev_drv_update:
 194              	.LFB33:
  97:..\..\..\lvgl\version_6.1.2\lvgl\src\lv_hal/lv_hal_indev.c **** 
  98:..\..\..\lvgl\version_6.1.2\lvgl\src\lv_hal/lv_hal_indev.c **** /**
  99:..\..\..\lvgl\version_6.1.2\lvgl\src\lv_hal/lv_hal_indev.c ****  * Update the driver in run time.
 100:..\..\..\lvgl\version_6.1.2\lvgl\src\lv_hal/lv_hal_indev.c ****  * @param indev pointer to a input device. (return value of `lv_indev_drv_register`)
 101:..\..\..\lvgl\version_6.1.2\lvgl\src\lv_hal/lv_hal_indev.c ****  * @param new_drv pointer to the new driver
 102:..\..\..\lvgl\version_6.1.2\lvgl\src\lv_hal/lv_hal_indev.c ****  */
 103:..\..\..\lvgl\version_6.1.2\lvgl\src\lv_hal/lv_hal_indev.c **** void lv_indev_drv_update(lv_indev_t * indev, lv_indev_drv_t * new_drv)
 104:..\..\..\lvgl\version_6.1.2\lvgl\src\lv_hal/lv_hal_indev.c **** {
 195              		.loc 1 104 0
 196              		.cfi_startproc
 197              		@ args = 0, pretend = 0, frame = 8
 198              		@ frame_needed = 1, uses_anonymous_args = 0
 199 0000 80B5     		push	{r7, lr}
 200              		.cfi_def_cfa_offset 8
 201              		.cfi_offset 7, -8
 202              		.cfi_offset 14, -4
 203 0002 82B0     		sub	sp, sp, #8
 204              		.cfi_def_cfa_offset 16
 205 0004 00AF     		add	r7, sp, #0
 206              		.cfi_def_cfa_register 7
 207 0006 7860     		str	r0, [r7, #4]
 208 0008 3960     		str	r1, [r7]
 105:..\..\..\lvgl\version_6.1.2\lvgl\src\lv_hal/lv_hal_indev.c ****     memcpy(&indev->driver, new_drv, sizeof(lv_indev_drv_t));
 209              		.loc 1 105 0
 210 000a 7B68     		ldr	r3, [r7, #4]
 211 000c 1C22     		movs	r2, #28
 212 000e 3968     		ldr	r1, [r7]
 213 0010 1846     		mov	r0, r3
 214 0012 FFF7FEFF 		bl	memcpy
 106:..\..\..\lvgl\version_6.1.2\lvgl\src\lv_hal/lv_hal_indev.c **** }
 215              		.loc 1 106 0
 216 0016 00BF     		nop
 217 0018 0837     		adds	r7, r7, #8
 218              		.cfi_def_cfa_offset 8
 219 001a BD46     		mov	sp, r7
 220              		.cfi_def_cfa_register 13
 221              		@ sp needed
 222 001c 80BD     		pop	{r7, pc}
 223              		.cfi_endproc
 224              	.LFE33:
 225              		.size	lv_indev_drv_update, .-lv_indev_drv_update
 226 001e 00BF     		.section	.text.lv_indev_get_next,"ax",%progbits
 227              		.align	2
 228              		.global	lv_indev_get_next
 229              		.thumb
 230              		.thumb_func
 231              		.type	lv_indev_get_next, %function
 232              	lv_indev_get_next:
 233              	.LFB34:
 107:..\..\..\lvgl\version_6.1.2\lvgl\src\lv_hal/lv_hal_indev.c **** 
 108:..\..\..\lvgl\version_6.1.2\lvgl\src\lv_hal/lv_hal_indev.c **** /**
 109:..\..\..\lvgl\version_6.1.2\lvgl\src\lv_hal/lv_hal_indev.c ****  * Get the next input device.
ARM GAS  C:\Users\tmj32\AppData\Local\Temp\ccm54XhS.s 			page 7


 110:..\..\..\lvgl\version_6.1.2\lvgl\src\lv_hal/lv_hal_indev.c ****  * @param indev pointer to the current input device. NULL to initialize.
 111:..\..\..\lvgl\version_6.1.2\lvgl\src\lv_hal/lv_hal_indev.c ****  * @return the next input devise or NULL if no more. Give the first input device when the parameter
 112:..\..\..\lvgl\version_6.1.2\lvgl\src\lv_hal/lv_hal_indev.c ****  * is NULL
 113:..\..\..\lvgl\version_6.1.2\lvgl\src\lv_hal/lv_hal_indev.c ****  */
 114:..\..\..\lvgl\version_6.1.2\lvgl\src\lv_hal/lv_hal_indev.c **** lv_indev_t * lv_indev_get_next(lv_indev_t * indev)
 115:..\..\..\lvgl\version_6.1.2\lvgl\src\lv_hal/lv_hal_indev.c **** {
 234              		.loc 1 115 0
 235              		.cfi_startproc
 236              		@ args = 0, pretend = 0, frame = 8
 237              		@ frame_needed = 1, uses_anonymous_args = 0
 238 0000 80B5     		push	{r7, lr}
 239              		.cfi_def_cfa_offset 8
 240              		.cfi_offset 7, -8
 241              		.cfi_offset 14, -4
 242 0002 82B0     		sub	sp, sp, #8
 243              		.cfi_def_cfa_offset 16
 244 0004 00AF     		add	r7, sp, #0
 245              		.cfi_def_cfa_register 7
 246 0006 7860     		str	r0, [r7, #4]
 116:..\..\..\lvgl\version_6.1.2\lvgl\src\lv_hal/lv_hal_indev.c ****     if(indev == NULL)
 247              		.loc 1 116 0
 248 0008 7B68     		ldr	r3, [r7, #4]
 249 000a 002B     		cmp	r3, #0
 250 000c 04D1     		bne	.L11
 117:..\..\..\lvgl\version_6.1.2\lvgl\src\lv_hal/lv_hal_indev.c ****         return lv_ll_get_head(&LV_GC_ROOT(_lv_indev_ll));
 251              		.loc 1 117 0
 252 000e 0748     		ldr	r0, .L13
 253 0010 FFF7FEFF 		bl	lv_ll_get_head
 254 0014 0346     		mov	r3, r0
 255 0016 04E0     		b	.L12
 256              	.L11:
 118:..\..\..\lvgl\version_6.1.2\lvgl\src\lv_hal/lv_hal_indev.c ****     else
 119:..\..\..\lvgl\version_6.1.2\lvgl\src\lv_hal/lv_hal_indev.c ****         return lv_ll_get_next(&LV_GC_ROOT(_lv_indev_ll), indev);
 257              		.loc 1 119 0
 258 0018 7968     		ldr	r1, [r7, #4]
 259 001a 0448     		ldr	r0, .L13
 260 001c FFF7FEFF 		bl	lv_ll_get_next
 261 0020 0346     		mov	r3, r0
 262              	.L12:
 120:..\..\..\lvgl\version_6.1.2\lvgl\src\lv_hal/lv_hal_indev.c **** }
 263              		.loc 1 120 0
 264 0022 1846     		mov	r0, r3
 265 0024 0837     		adds	r7, r7, #8
 266              		.cfi_def_cfa_offset 8
 267 0026 BD46     		mov	sp, r7
 268              		.cfi_def_cfa_register 13
 269              		@ sp needed
 270 0028 80BD     		pop	{r7, pc}
 271              	.L14:
 272 002a 00BF     		.align	2
 273              	.L13:
 274 002c 00000000 		.word	_lv_indev_ll
 275              		.cfi_endproc
 276              	.LFE34:
 277              		.size	lv_indev_get_next, .-lv_indev_get_next
 278              		.section	.text.lv_indev_read,"ax",%progbits
 279              		.align	2
ARM GAS  C:\Users\tmj32\AppData\Local\Temp\ccm54XhS.s 			page 8


 280              		.global	lv_indev_read
 281              		.thumb
 282              		.thumb_func
 283              		.type	lv_indev_read, %function
 284              	lv_indev_read:
 285              	.LFB35:
 121:..\..\..\lvgl\version_6.1.2\lvgl\src\lv_hal/lv_hal_indev.c **** 
 122:..\..\..\lvgl\version_6.1.2\lvgl\src\lv_hal/lv_hal_indev.c **** /**
 123:..\..\..\lvgl\version_6.1.2\lvgl\src\lv_hal/lv_hal_indev.c ****  * Read data from an input device.
 124:..\..\..\lvgl\version_6.1.2\lvgl\src\lv_hal/lv_hal_indev.c ****  * @param indev pointer to an input device
 125:..\..\..\lvgl\version_6.1.2\lvgl\src\lv_hal/lv_hal_indev.c ****  * @param data input device will write its data here
 126:..\..\..\lvgl\version_6.1.2\lvgl\src\lv_hal/lv_hal_indev.c ****  * @return false: no more data; true: there more data to read (buffered)
 127:..\..\..\lvgl\version_6.1.2\lvgl\src\lv_hal/lv_hal_indev.c ****  */
 128:..\..\..\lvgl\version_6.1.2\lvgl\src\lv_hal/lv_hal_indev.c **** bool lv_indev_read(lv_indev_t * indev, lv_indev_data_t * data)
 129:..\..\..\lvgl\version_6.1.2\lvgl\src\lv_hal/lv_hal_indev.c **** {
 286              		.loc 1 129 0
 287              		.cfi_startproc
 288              		@ args = 0, pretend = 0, frame = 16
 289              		@ frame_needed = 1, uses_anonymous_args = 0
 290 0000 80B5     		push	{r7, lr}
 291              		.cfi_def_cfa_offset 8
 292              		.cfi_offset 7, -8
 293              		.cfi_offset 14, -4
 294 0002 84B0     		sub	sp, sp, #16
 295              		.cfi_def_cfa_offset 24
 296 0004 00AF     		add	r7, sp, #0
 297              		.cfi_def_cfa_register 7
 298 0006 7860     		str	r0, [r7, #4]
 299 0008 3960     		str	r1, [r7]
 130:..\..\..\lvgl\version_6.1.2\lvgl\src\lv_hal/lv_hal_indev.c ****     bool cont = false;
 300              		.loc 1 130 0
 301 000a 0023     		movs	r3, #0
 302 000c FB73     		strb	r3, [r7, #15]
 131:..\..\..\lvgl\version_6.1.2\lvgl\src\lv_hal/lv_hal_indev.c **** 
 132:..\..\..\lvgl\version_6.1.2\lvgl\src\lv_hal/lv_hal_indev.c ****     memset(data, 0, sizeof(lv_indev_data_t));
 303              		.loc 1 132 0
 304 000e 1022     		movs	r2, #16
 305 0010 0021     		movs	r1, #0
 306 0012 3868     		ldr	r0, [r7]
 307 0014 FFF7FEFF 		bl	memset
 133:..\..\..\lvgl\version_6.1.2\lvgl\src\lv_hal/lv_hal_indev.c **** 
 134:..\..\..\lvgl\version_6.1.2\lvgl\src\lv_hal/lv_hal_indev.c ****     /* For touchpad sometimes users don't the last pressed coordinate on release.
 135:..\..\..\lvgl\version_6.1.2\lvgl\src\lv_hal/lv_hal_indev.c ****      * So be sure a coordinates are initialized to the last point */
 136:..\..\..\lvgl\version_6.1.2\lvgl\src\lv_hal/lv_hal_indev.c ****     if(indev->driver.type == LV_INDEV_TYPE_POINTER) {
 308              		.loc 1 136 0
 309 0018 7B68     		ldr	r3, [r7, #4]
 310 001a 1B78     		ldrb	r3, [r3]	@ zero_extendqisi2
 311 001c 012B     		cmp	r3, #1
 312 001e 0AD1     		bne	.L16
 137:..\..\..\lvgl\version_6.1.2\lvgl\src\lv_hal/lv_hal_indev.c ****         data->point.x = indev->proc.types.pointer.act_point.x;
 313              		.loc 1 137 0
 314 0020 7B68     		ldr	r3, [r7, #4]
 315 0022 B3F92020 		ldrsh	r2, [r3, #32]
 316 0026 3B68     		ldr	r3, [r7]
 317 0028 1A80     		strh	r2, [r3]	@ movhi
 138:..\..\..\lvgl\version_6.1.2\lvgl\src\lv_hal/lv_hal_indev.c ****         data->point.y = indev->proc.types.pointer.act_point.y;
 318              		.loc 1 138 0
ARM GAS  C:\Users\tmj32\AppData\Local\Temp\ccm54XhS.s 			page 9


 319 002a 7B68     		ldr	r3, [r7, #4]
 320 002c B3F92220 		ldrsh	r2, [r3, #34]
 321 0030 3B68     		ldr	r3, [r7]
 322 0032 5A80     		strh	r2, [r3, #2]	@ movhi
 323 0034 07E0     		b	.L17
 324              	.L16:
 139:..\..\..\lvgl\version_6.1.2\lvgl\src\lv_hal/lv_hal_indev.c ****     }
 140:..\..\..\lvgl\version_6.1.2\lvgl\src\lv_hal/lv_hal_indev.c ****     /*Similarly set at least the last key in case of the  the user doesn't set it  on release*/
 141:..\..\..\lvgl\version_6.1.2\lvgl\src\lv_hal/lv_hal_indev.c ****     else if(indev->driver.type == LV_INDEV_TYPE_KEYPAD) {
 325              		.loc 1 141 0
 326 0036 7B68     		ldr	r3, [r7, #4]
 327 0038 1B78     		ldrb	r3, [r3]	@ zero_extendqisi2
 328 003a 022B     		cmp	r3, #2
 329 003c 03D1     		bne	.L17
 142:..\..\..\lvgl\version_6.1.2\lvgl\src\lv_hal/lv_hal_indev.c ****         data->key = indev->proc.types.keypad.last_key;
 330              		.loc 1 142 0
 331 003e 7B68     		ldr	r3, [r7, #4]
 332 0040 5A6A     		ldr	r2, [r3, #36]
 333 0042 3B68     		ldr	r3, [r7]
 334 0044 5A60     		str	r2, [r3, #4]
 335              	.L17:
 143:..\..\..\lvgl\version_6.1.2\lvgl\src\lv_hal/lv_hal_indev.c ****     }
 144:..\..\..\lvgl\version_6.1.2\lvgl\src\lv_hal/lv_hal_indev.c **** 
 145:..\..\..\lvgl\version_6.1.2\lvgl\src\lv_hal/lv_hal_indev.c ****     if(indev->driver.read_cb) {
 336              		.loc 1 145 0
 337 0046 7B68     		ldr	r3, [r7, #4]
 338 0048 5B68     		ldr	r3, [r3, #4]
 339 004a 002B     		cmp	r3, #0
 340 004c 07D0     		beq	.L18
 146:..\..\..\lvgl\version_6.1.2\lvgl\src\lv_hal/lv_hal_indev.c ****         LV_LOG_TRACE("idnev read started");
 147:..\..\..\lvgl\version_6.1.2\lvgl\src\lv_hal/lv_hal_indev.c ****         cont = indev->driver.read_cb(&indev->driver, data);
 341              		.loc 1 147 0
 342 004e 7B68     		ldr	r3, [r7, #4]
 343 0050 5B68     		ldr	r3, [r3, #4]
 344 0052 7A68     		ldr	r2, [r7, #4]
 345 0054 3968     		ldr	r1, [r7]
 346 0056 1046     		mov	r0, r2
 347 0058 9847     		blx	r3
 348 005a 0346     		mov	r3, r0
 349 005c FB73     		strb	r3, [r7, #15]
 350              	.L18:
 148:..\..\..\lvgl\version_6.1.2\lvgl\src\lv_hal/lv_hal_indev.c ****         LV_LOG_TRACE("idnev read finished");
 149:..\..\..\lvgl\version_6.1.2\lvgl\src\lv_hal/lv_hal_indev.c ****     } else {
 150:..\..\..\lvgl\version_6.1.2\lvgl\src\lv_hal/lv_hal_indev.c ****         LV_LOG_WARN("indev function registered");
 151:..\..\..\lvgl\version_6.1.2\lvgl\src\lv_hal/lv_hal_indev.c ****     }
 152:..\..\..\lvgl\version_6.1.2\lvgl\src\lv_hal/lv_hal_indev.c **** 
 153:..\..\..\lvgl\version_6.1.2\lvgl\src\lv_hal/lv_hal_indev.c ****     return cont;
 351              		.loc 1 153 0
 352 005e FB7B     		ldrb	r3, [r7, #15]	@ zero_extendqisi2
 154:..\..\..\lvgl\version_6.1.2\lvgl\src\lv_hal/lv_hal_indev.c **** }
 353              		.loc 1 154 0
 354 0060 1846     		mov	r0, r3
 355 0062 1037     		adds	r7, r7, #16
 356              		.cfi_def_cfa_offset 8
 357 0064 BD46     		mov	sp, r7
 358              		.cfi_def_cfa_register 13
 359              		@ sp needed
ARM GAS  C:\Users\tmj32\AppData\Local\Temp\ccm54XhS.s 			page 10


 360 0066 80BD     		pop	{r7, pc}
 361              		.cfi_endproc
 362              	.LFE35:
 363              		.size	lv_indev_read, .-lv_indev_read
 364              		.text
 365              	.Letext0:
 366              		.file 2 "c:\\program files (x86)\\cypress\\psoc creator\\4.3\\psoc creator\\import\\gnu\\arm\\5.4.
 367              		.file 3 "c:\\program files (x86)\\cypress\\psoc creator\\4.3\\psoc creator\\import\\gnu\\arm\\5.4.
 368              		.file 4 "..\\..\\..\\lvgl\\version_6.1.2\\lvgl\\src\\lv_hal\\../lv_core/../../../lv_conf.h"
 369              		.file 5 "..\\..\\..\\lvgl\\version_6.1.2\\lvgl\\src\\lv_hal\\../lv_core/../lv_font/lv_font.h"
 370              		.file 6 "..\\..\\..\\lvgl\\version_6.1.2\\lvgl\\src\\lv_hal\\../lv_core/../lv_misc/lv_color.h"
 371              		.file 7 "..\\..\\..\\lvgl\\version_6.1.2\\lvgl\\src\\lv_hal\\../lv_core/../lv_misc/lv_area.h"
 372              		.file 8 "..\\..\\..\\lvgl\\version_6.1.2\\lvgl\\src\\lv_hal\\../lv_core/lv_style.h"
 373              		.file 9 "..\\..\\..\\lvgl\\version_6.1.2\\lvgl\\src\\lv_hal\\../lv_core/../lv_misc/lv_types.h"
 374              		.file 10 "..\\..\\..\\lvgl\\version_6.1.2\\lvgl\\src\\lv_hal\\../lv_core/../lv_misc/lv_ll.h"
 375              		.file 11 "..\\..\\..\\lvgl\\version_6.1.2\\lvgl\\src\\lv_hal\\../lv_core/../lv_misc/lv_bidi.h"
 376              		.file 12 "..\\..\\..\\lvgl\\version_6.1.2\\lvgl\\src\\lv_hal\\../lv_core/../lv_hal/../lv_misc/lv_t
 377              		.file 13 "..\\..\\..\\lvgl\\version_6.1.2\\lvgl\\src\\lv_hal\\../lv_core/../lv_hal/lv_hal_disp.h"
 378              		.file 14 "..\\..\\..\\lvgl\\version_6.1.2\\lvgl\\src\\lv_hal\\../lv_core/lv_obj.h"
 379              		.file 15 "..\\..\\..\\lvgl\\version_6.1.2\\lvgl\\src\\lv_hal\\../lv_core/../lv_hal/lv_hal_indev.h"
 380              		.file 16 "..\\..\\..\\lvgl\\version_6.1.2\\lvgl\\src\\lv_hal\\../lv_misc/lv_gc.h"