ARM GAS  C:\Users\tmj32\AppData\Local\Temp\ccqOqNcG.s 			page 1


   1              		.syntax unified
   2              		.cpu cortex-m4
   3              		.eabi_attribute 27, 1
   4              		.fpu fpv4-sp-d16
   5              		.eabi_attribute 20, 1
   6              		.eabi_attribute 21, 1
   7              		.eabi_attribute 23, 3
   8              		.eabi_attribute 24, 1
   9              		.eabi_attribute 25, 1
  10              		.eabi_attribute 26, 1
  11              		.eabi_attribute 30, 6
  12              		.eabi_attribute 34, 1
  13              		.eabi_attribute 18, 4
  14              		.thumb
  15              		.syntax unified
  16              		.file	"lv_img_cache.c"
  17              		.text
  18              	.Ltext0:
  19              		.cfi_sections	.debug_frame
  20              		.bss
  21              		.align	1
  22              	entry_cnt:
  23 0000 0000     		.space	2
  24              		.section	.text.lv_img_cache_open,"ax",%progbits
  25              		.align	2
  26              		.global	lv_img_cache_open
  27              		.thumb
  28              		.thumb_func
  29              		.type	lv_img_cache_open, %function
  30              	lv_img_cache_open:
  31              	.LFB31:
  32              		.file 1 "..\\..\\..\\lvgl\\version_6.1.2\\lvgl\\src\\lv_draw\\lv_img_cache.c"
   1:..\..\..\lvgl\version_6.1.2\lvgl\src\lv_draw/lv_img_cache.c **** /**
   2:..\..\..\lvgl\version_6.1.2\lvgl\src\lv_draw/lv_img_cache.c ****  * @file lv_img_cache.c
   3:..\..\..\lvgl\version_6.1.2\lvgl\src\lv_draw/lv_img_cache.c ****  *
   4:..\..\..\lvgl\version_6.1.2\lvgl\src\lv_draw/lv_img_cache.c ****  */
   5:..\..\..\lvgl\version_6.1.2\lvgl\src\lv_draw/lv_img_cache.c **** 
   6:..\..\..\lvgl\version_6.1.2\lvgl\src\lv_draw/lv_img_cache.c **** /*********************
   7:..\..\..\lvgl\version_6.1.2\lvgl\src\lv_draw/lv_img_cache.c ****  *      INCLUDES
   8:..\..\..\lvgl\version_6.1.2\lvgl\src\lv_draw/lv_img_cache.c ****  *********************/
   9:..\..\..\lvgl\version_6.1.2\lvgl\src\lv_draw/lv_img_cache.c **** #include "../lv_core/lv_debug.h"
  10:..\..\..\lvgl\version_6.1.2\lvgl\src\lv_draw/lv_img_cache.c **** #include "lv_img_cache.h"
  11:..\..\..\lvgl\version_6.1.2\lvgl\src\lv_draw/lv_img_cache.c **** #include "lv_img_decoder.h"
  12:..\..\..\lvgl\version_6.1.2\lvgl\src\lv_draw/lv_img_cache.c **** #include "lv_draw_img.h"
  13:..\..\..\lvgl\version_6.1.2\lvgl\src\lv_draw/lv_img_cache.c **** #include "../lv_hal/lv_hal_tick.h"
  14:..\..\..\lvgl\version_6.1.2\lvgl\src\lv_draw/lv_img_cache.c **** #include "../lv_misc/lv_gc.h"
  15:..\..\..\lvgl\version_6.1.2\lvgl\src\lv_draw/lv_img_cache.c **** 
  16:..\..\..\lvgl\version_6.1.2\lvgl\src\lv_draw/lv_img_cache.c **** #if defined(LV_GC_INCLUDE)
  17:..\..\..\lvgl\version_6.1.2\lvgl\src\lv_draw/lv_img_cache.c **** #include LV_GC_INCLUDE
  18:..\..\..\lvgl\version_6.1.2\lvgl\src\lv_draw/lv_img_cache.c **** #endif /* LV_ENABLE_GC */
  19:..\..\..\lvgl\version_6.1.2\lvgl\src\lv_draw/lv_img_cache.c **** /*********************
  20:..\..\..\lvgl\version_6.1.2\lvgl\src\lv_draw/lv_img_cache.c ****  *      DEFINES
  21:..\..\..\lvgl\version_6.1.2\lvgl\src\lv_draw/lv_img_cache.c ****  *********************/
  22:..\..\..\lvgl\version_6.1.2\lvgl\src\lv_draw/lv_img_cache.c **** /*Decrement life with this value in every open*/
  23:..\..\..\lvgl\version_6.1.2\lvgl\src\lv_draw/lv_img_cache.c **** #define LV_IMG_CACHE_AGING 1
  24:..\..\..\lvgl\version_6.1.2\lvgl\src\lv_draw/lv_img_cache.c **** 
  25:..\..\..\lvgl\version_6.1.2\lvgl\src\lv_draw/lv_img_cache.c **** /*Boost life by this factor (multiply time_to_open with this value)*/
ARM GAS  C:\Users\tmj32\AppData\Local\Temp\ccqOqNcG.s 			page 2


  26:..\..\..\lvgl\version_6.1.2\lvgl\src\lv_draw/lv_img_cache.c **** #define LV_IMG_CACHE_LIFE_GAIN 1
  27:..\..\..\lvgl\version_6.1.2\lvgl\src\lv_draw/lv_img_cache.c **** 
  28:..\..\..\lvgl\version_6.1.2\lvgl\src\lv_draw/lv_img_cache.c **** /*Don't let life to be greater than this limit because it would require a lot of time to
  29:..\..\..\lvgl\version_6.1.2\lvgl\src\lv_draw/lv_img_cache.c ****  * "die" from very high values */
  30:..\..\..\lvgl\version_6.1.2\lvgl\src\lv_draw/lv_img_cache.c **** #define LV_IMG_CACHE_LIFE_LIMIT 1000
  31:..\..\..\lvgl\version_6.1.2\lvgl\src\lv_draw/lv_img_cache.c **** 
  32:..\..\..\lvgl\version_6.1.2\lvgl\src\lv_draw/lv_img_cache.c **** #if LV_IMG_CACHE_DEF_SIZE < 1
  33:..\..\..\lvgl\version_6.1.2\lvgl\src\lv_draw/lv_img_cache.c **** #error "LV_IMG_CACHE_DEF_SIZE must be >= 1. See lv_conf.h"
  34:..\..\..\lvgl\version_6.1.2\lvgl\src\lv_draw/lv_img_cache.c **** #endif
  35:..\..\..\lvgl\version_6.1.2\lvgl\src\lv_draw/lv_img_cache.c **** 
  36:..\..\..\lvgl\version_6.1.2\lvgl\src\lv_draw/lv_img_cache.c **** /**********************
  37:..\..\..\lvgl\version_6.1.2\lvgl\src\lv_draw/lv_img_cache.c ****  *      TYPEDEFS
  38:..\..\..\lvgl\version_6.1.2\lvgl\src\lv_draw/lv_img_cache.c ****  **********************/
  39:..\..\..\lvgl\version_6.1.2\lvgl\src\lv_draw/lv_img_cache.c **** 
  40:..\..\..\lvgl\version_6.1.2\lvgl\src\lv_draw/lv_img_cache.c **** /**********************
  41:..\..\..\lvgl\version_6.1.2\lvgl\src\lv_draw/lv_img_cache.c ****  *  STATIC PROTOTYPES
  42:..\..\..\lvgl\version_6.1.2\lvgl\src\lv_draw/lv_img_cache.c ****  **********************/
  43:..\..\..\lvgl\version_6.1.2\lvgl\src\lv_draw/lv_img_cache.c **** 
  44:..\..\..\lvgl\version_6.1.2\lvgl\src\lv_draw/lv_img_cache.c **** /**********************
  45:..\..\..\lvgl\version_6.1.2\lvgl\src\lv_draw/lv_img_cache.c ****  *  STATIC VARIABLES
  46:..\..\..\lvgl\version_6.1.2\lvgl\src\lv_draw/lv_img_cache.c ****  **********************/
  47:..\..\..\lvgl\version_6.1.2\lvgl\src\lv_draw/lv_img_cache.c **** static uint16_t entry_cnt;
  48:..\..\..\lvgl\version_6.1.2\lvgl\src\lv_draw/lv_img_cache.c **** 
  49:..\..\..\lvgl\version_6.1.2\lvgl\src\lv_draw/lv_img_cache.c **** /**********************
  50:..\..\..\lvgl\version_6.1.2\lvgl\src\lv_draw/lv_img_cache.c ****  *      MACROS
  51:..\..\..\lvgl\version_6.1.2\lvgl\src\lv_draw/lv_img_cache.c ****  **********************/
  52:..\..\..\lvgl\version_6.1.2\lvgl\src\lv_draw/lv_img_cache.c **** 
  53:..\..\..\lvgl\version_6.1.2\lvgl\src\lv_draw/lv_img_cache.c **** /**********************
  54:..\..\..\lvgl\version_6.1.2\lvgl\src\lv_draw/lv_img_cache.c ****  *   GLOBAL FUNCTIONS
  55:..\..\..\lvgl\version_6.1.2\lvgl\src\lv_draw/lv_img_cache.c ****  **********************/
  56:..\..\..\lvgl\version_6.1.2\lvgl\src\lv_draw/lv_img_cache.c **** 
  57:..\..\..\lvgl\version_6.1.2\lvgl\src\lv_draw/lv_img_cache.c **** /**
  58:..\..\..\lvgl\version_6.1.2\lvgl\src\lv_draw/lv_img_cache.c ****  * Open an image using the image decoder interface and cache it.
  59:..\..\..\lvgl\version_6.1.2\lvgl\src\lv_draw/lv_img_cache.c ****  * The image will be left open meaning if the image decoder open callback allocated memory then it 
  60:..\..\..\lvgl\version_6.1.2\lvgl\src\lv_draw/lv_img_cache.c ****  * The image is closed if a new image is opened and the new image takes its place in the cache.
  61:..\..\..\lvgl\version_6.1.2\lvgl\src\lv_draw/lv_img_cache.c ****  * @param src source of the image. Path to file or pointer to an `lv_img_dsc_t` variable
  62:..\..\..\lvgl\version_6.1.2\lvgl\src\lv_draw/lv_img_cache.c ****  * @param style style of the image
  63:..\..\..\lvgl\version_6.1.2\lvgl\src\lv_draw/lv_img_cache.c ****  * @return pointer to the cache entry or NULL if can open the image
  64:..\..\..\lvgl\version_6.1.2\lvgl\src\lv_draw/lv_img_cache.c ****  */
  65:..\..\..\lvgl\version_6.1.2\lvgl\src\lv_draw/lv_img_cache.c **** lv_img_cache_entry_t * lv_img_cache_open(const void * src, const lv_style_t * style)
  66:..\..\..\lvgl\version_6.1.2\lvgl\src\lv_draw/lv_img_cache.c **** {
  33              		.loc 1 66 0
  34              		.cfi_startproc
  35              		@ args = 0, pretend = 0, frame = 40
  36              		@ frame_needed = 1, uses_anonymous_args = 0
  37 0000 80B5     		push	{r7, lr}
  38              		.cfi_def_cfa_offset 8
  39              		.cfi_offset 7, -8
  40              		.cfi_offset 14, -4
  41 0002 8AB0     		sub	sp, sp, #40
  42              		.cfi_def_cfa_offset 48
  43 0004 00AF     		add	r7, sp, #0
  44              		.cfi_def_cfa_register 7
  45 0006 7860     		str	r0, [r7, #4]
  46 0008 3960     		str	r1, [r7]
  67:..\..\..\lvgl\version_6.1.2\lvgl\src\lv_draw/lv_img_cache.c ****     if(entry_cnt == 0) {
  47              		.loc 1 67 0
ARM GAS  C:\Users\tmj32\AppData\Local\Temp\ccqOqNcG.s 			page 3


  48 000a 884B     		ldr	r3, .L23
  49 000c 1B88     		ldrh	r3, [r3]
  50 000e 002B     		cmp	r3, #0
  51 0010 01D1     		bne	.L2
  68:..\..\..\lvgl\version_6.1.2\lvgl\src\lv_draw/lv_img_cache.c ****         LV_LOG_WARN("lv_img_cache_open: the cache size is 0");
  69:..\..\..\lvgl\version_6.1.2\lvgl\src\lv_draw/lv_img_cache.c ****         return NULL;
  52              		.loc 1 69 0
  53 0012 0023     		movs	r3, #0
  54 0014 06E1     		b	.L3
  55              	.L2:
  70:..\..\..\lvgl\version_6.1.2\lvgl\src\lv_draw/lv_img_cache.c ****     }
  71:..\..\..\lvgl\version_6.1.2\lvgl\src\lv_draw/lv_img_cache.c **** 
  72:..\..\..\lvgl\version_6.1.2\lvgl\src\lv_draw/lv_img_cache.c ****     lv_img_cache_entry_t * cache = LV_GC_ROOT(_lv_img_cache_array);
  56              		.loc 1 72 0
  57 0016 864B     		ldr	r3, .L23+4
  58 0018 1B68     		ldr	r3, [r3]
  59 001a BB61     		str	r3, [r7, #24]
  73:..\..\..\lvgl\version_6.1.2\lvgl\src\lv_draw/lv_img_cache.c **** 
  74:..\..\..\lvgl\version_6.1.2\lvgl\src\lv_draw/lv_img_cache.c ****     /*Decrement all lifes. Make the entries older*/
  75:..\..\..\lvgl\version_6.1.2\lvgl\src\lv_draw/lv_img_cache.c ****     uint16_t i;
  76:..\..\..\lvgl\version_6.1.2\lvgl\src\lv_draw/lv_img_cache.c ****     for(i = 0; i < entry_cnt; i++) {
  60              		.loc 1 76 0
  61 001c 0023     		movs	r3, #0
  62 001e FB84     		strh	r3, [r7, #38]	@ movhi
  63 0020 21E0     		b	.L4
  64              	.L6:
  77:..\..\..\lvgl\version_6.1.2\lvgl\src\lv_draw/lv_img_cache.c ****         if(cache[i].life > INT32_MIN + LV_IMG_CACHE_AGING) {
  65              		.loc 1 77 0
  66 0022 FA8C     		ldrh	r2, [r7, #38]
  67 0024 1346     		mov	r3, r2
  68 0026 9B00     		lsls	r3, r3, #2
  69 0028 1344     		add	r3, r3, r2
  70 002a DB00     		lsls	r3, r3, #3
  71 002c 1A46     		mov	r2, r3
  72 002e BB69     		ldr	r3, [r7, #24]
  73 0030 1344     		add	r3, r3, r2
  74 0032 5B6A     		ldr	r3, [r3, #36]
  75 0034 7F4A     		ldr	r2, .L23+8
  76 0036 9342     		cmp	r3, r2
  77 0038 12DB     		blt	.L5
  78:..\..\..\lvgl\version_6.1.2\lvgl\src\lv_draw/lv_img_cache.c ****             cache[i].life -= LV_IMG_CACHE_AGING;
  78              		.loc 1 78 0
  79 003a FA8C     		ldrh	r2, [r7, #38]
  80 003c 1346     		mov	r3, r2
  81 003e 9B00     		lsls	r3, r3, #2
  82 0040 1344     		add	r3, r3, r2
  83 0042 DB00     		lsls	r3, r3, #3
  84 0044 1A46     		mov	r2, r3
  85 0046 BB69     		ldr	r3, [r7, #24]
  86 0048 9918     		adds	r1, r3, r2
  87 004a FA8C     		ldrh	r2, [r7, #38]
  88 004c 1346     		mov	r3, r2
  89 004e 9B00     		lsls	r3, r3, #2
  90 0050 1344     		add	r3, r3, r2
  91 0052 DB00     		lsls	r3, r3, #3
  92 0054 1A46     		mov	r2, r3
  93 0056 BB69     		ldr	r3, [r7, #24]
ARM GAS  C:\Users\tmj32\AppData\Local\Temp\ccqOqNcG.s 			page 4


  94 0058 1344     		add	r3, r3, r2
  95 005a 5B6A     		ldr	r3, [r3, #36]
  96 005c 013B     		subs	r3, r3, #1
  97 005e 4B62     		str	r3, [r1, #36]
  98              	.L5:
  76:..\..\..\lvgl\version_6.1.2\lvgl\src\lv_draw/lv_img_cache.c ****         if(cache[i].life > INT32_MIN + LV_IMG_CACHE_AGING) {
  99              		.loc 1 76 0 discriminator 2
 100 0060 FB8C     		ldrh	r3, [r7, #38]
 101 0062 0133     		adds	r3, r3, #1
 102 0064 FB84     		strh	r3, [r7, #38]	@ movhi
 103              	.L4:
  76:..\..\..\lvgl\version_6.1.2\lvgl\src\lv_draw/lv_img_cache.c ****         if(cache[i].life > INT32_MIN + LV_IMG_CACHE_AGING) {
 104              		.loc 1 76 0 is_stmt 0 discriminator 1
 105 0066 714B     		ldr	r3, .L23
 106 0068 1B88     		ldrh	r3, [r3]
 107 006a FA8C     		ldrh	r2, [r7, #38]
 108 006c 9A42     		cmp	r2, r3
 109 006e D8D3     		bcc	.L6
  79:..\..\..\lvgl\version_6.1.2\lvgl\src\lv_draw/lv_img_cache.c ****         }
  80:..\..\..\lvgl\version_6.1.2\lvgl\src\lv_draw/lv_img_cache.c ****     }
  81:..\..\..\lvgl\version_6.1.2\lvgl\src\lv_draw/lv_img_cache.c **** 
  82:..\..\..\lvgl\version_6.1.2\lvgl\src\lv_draw/lv_img_cache.c ****     /*Is the image cached?*/
  83:..\..\..\lvgl\version_6.1.2\lvgl\src\lv_draw/lv_img_cache.c ****     lv_img_cache_entry_t * cached_src = NULL;
 110              		.loc 1 83 0 is_stmt 1
 111 0070 0023     		movs	r3, #0
 112 0072 3B62     		str	r3, [r7, #32]
  84:..\..\..\lvgl\version_6.1.2\lvgl\src\lv_draw/lv_img_cache.c ****     for(i = 0; i < entry_cnt; i++) {
 113              		.loc 1 84 0
 114 0074 0023     		movs	r3, #0
 115 0076 FB84     		strh	r3, [r7, #38]	@ movhi
 116 0078 64E0     		b	.L7
 117              	.L14:
 118              	.LBB2:
  85:..\..\..\lvgl\version_6.1.2\lvgl\src\lv_draw/lv_img_cache.c ****         bool match = false;
 119              		.loc 1 85 0
 120 007a 0023     		movs	r3, #0
 121 007c FB77     		strb	r3, [r7, #31]
  86:..\..\..\lvgl\version_6.1.2\lvgl\src\lv_draw/lv_img_cache.c ****         lv_img_src_t src_type = lv_img_src_get_type(cache[i].dec_dsc.src);
 122              		.loc 1 86 0
 123 007e FA8C     		ldrh	r2, [r7, #38]
 124 0080 1346     		mov	r3, r2
 125 0082 9B00     		lsls	r3, r3, #2
 126 0084 1344     		add	r3, r3, r2
 127 0086 DB00     		lsls	r3, r3, #3
 128 0088 1A46     		mov	r2, r3
 129 008a BB69     		ldr	r3, [r7, #24]
 130 008c 1344     		add	r3, r3, r2
 131 008e 5B68     		ldr	r3, [r3, #4]
 132 0090 1846     		mov	r0, r3
 133 0092 FFF7FEFF 		bl	lv_img_src_get_type
 134 0096 0346     		mov	r3, r0
 135 0098 FB75     		strb	r3, [r7, #23]
  87:..\..\..\lvgl\version_6.1.2\lvgl\src\lv_draw/lv_img_cache.c ****         if(src_type == LV_IMG_SRC_VARIABLE) {
 136              		.loc 1 87 0
 137 009a FB7D     		ldrb	r3, [r7, #23]	@ zero_extendqisi2
 138 009c 002B     		cmp	r3, #0
 139 009e 1AD1     		bne	.L8
ARM GAS  C:\Users\tmj32\AppData\Local\Temp\ccqOqNcG.s 			page 5


  88:..\..\..\lvgl\version_6.1.2\lvgl\src\lv_draw/lv_img_cache.c ****             if(cache[i].dec_dsc.src == src && cache[i].dec_dsc.style == style) match = true;
 140              		.loc 1 88 0
 141 00a0 FA8C     		ldrh	r2, [r7, #38]
 142 00a2 1346     		mov	r3, r2
 143 00a4 9B00     		lsls	r3, r3, #2
 144 00a6 1344     		add	r3, r3, r2
 145 00a8 DB00     		lsls	r3, r3, #3
 146 00aa 1A46     		mov	r2, r3
 147 00ac BB69     		ldr	r3, [r7, #24]
 148 00ae 1344     		add	r3, r3, r2
 149 00b0 5A68     		ldr	r2, [r3, #4]
 150 00b2 7B68     		ldr	r3, [r7, #4]
 151 00b4 9A42     		cmp	r2, r3
 152 00b6 23D1     		bne	.L10
 153              		.loc 1 88 0 is_stmt 0 discriminator 1
 154 00b8 FA8C     		ldrh	r2, [r7, #38]
 155 00ba 1346     		mov	r3, r2
 156 00bc 9B00     		lsls	r3, r3, #2
 157 00be 1344     		add	r3, r3, r2
 158 00c0 DB00     		lsls	r3, r3, #3
 159 00c2 1A46     		mov	r2, r3
 160 00c4 BB69     		ldr	r3, [r7, #24]
 161 00c6 1344     		add	r3, r3, r2
 162 00c8 9A68     		ldr	r2, [r3, #8]
 163 00ca 3B68     		ldr	r3, [r7]
 164 00cc 9A42     		cmp	r2, r3
 165 00ce 17D1     		bne	.L10
 166              		.loc 1 88 0 discriminator 2
 167 00d0 0123     		movs	r3, #1
 168 00d2 FB77     		strb	r3, [r7, #31]
 169 00d4 14E0     		b	.L10
 170              	.L8:
  89:..\..\..\lvgl\version_6.1.2\lvgl\src\lv_draw/lv_img_cache.c ****         } else if(src_type == LV_IMG_SRC_FILE) {
 171              		.loc 1 89 0 is_stmt 1
 172 00d6 FB7D     		ldrb	r3, [r7, #23]	@ zero_extendqisi2
 173 00d8 012B     		cmp	r3, #1
 174 00da 11D1     		bne	.L10
  90:..\..\..\lvgl\version_6.1.2\lvgl\src\lv_draw/lv_img_cache.c ****             if(strcmp(cache[i].dec_dsc.src, src) == 0) match = true;
 175              		.loc 1 90 0
 176 00dc FA8C     		ldrh	r2, [r7, #38]
 177 00de 1346     		mov	r3, r2
 178 00e0 9B00     		lsls	r3, r3, #2
 179 00e2 1344     		add	r3, r3, r2
 180 00e4 DB00     		lsls	r3, r3, #3
 181 00e6 1A46     		mov	r2, r3
 182 00e8 BB69     		ldr	r3, [r7, #24]
 183 00ea 1344     		add	r3, r3, r2
 184 00ec 5B68     		ldr	r3, [r3, #4]
 185 00ee 7968     		ldr	r1, [r7, #4]
 186 00f0 1846     		mov	r0, r3
 187 00f2 FFF7FEFF 		bl	strcmp
 188 00f6 0346     		mov	r3, r0
 189 00f8 002B     		cmp	r3, #0
 190 00fa 01D1     		bne	.L10
 191              		.loc 1 90 0 is_stmt 0 discriminator 1
 192 00fc 0123     		movs	r3, #1
 193 00fe FB77     		strb	r3, [r7, #31]
ARM GAS  C:\Users\tmj32\AppData\Local\Temp\ccqOqNcG.s 			page 6


 194              	.L10:
  91:..\..\..\lvgl\version_6.1.2\lvgl\src\lv_draw/lv_img_cache.c ****         }
  92:..\..\..\lvgl\version_6.1.2\lvgl\src\lv_draw/lv_img_cache.c **** 
  93:..\..\..\lvgl\version_6.1.2\lvgl\src\lv_draw/lv_img_cache.c ****         if(match) {
 195              		.loc 1 93 0 is_stmt 1
 196 0100 FB7F     		ldrb	r3, [r7, #31]	@ zero_extendqisi2
 197 0102 002B     		cmp	r3, #0
 198 0104 1BD0     		beq	.L11
  94:..\..\..\lvgl\version_6.1.2\lvgl\src\lv_draw/lv_img_cache.c ****             /* If opened increment its life.
  95:..\..\..\lvgl\version_6.1.2\lvgl\src\lv_draw/lv_img_cache.c ****              * Image difficult to open should live longer to keep avoid frequent their recaching.
  96:..\..\..\lvgl\version_6.1.2\lvgl\src\lv_draw/lv_img_cache.c ****              * Therefore increase `life` with `time_to_open`*/
  97:..\..\..\lvgl\version_6.1.2\lvgl\src\lv_draw/lv_img_cache.c ****             cached_src = &cache[i];
 199              		.loc 1 97 0
 200 0106 FA8C     		ldrh	r2, [r7, #38]
 201 0108 1346     		mov	r3, r2
 202 010a 9B00     		lsls	r3, r3, #2
 203 010c 1344     		add	r3, r3, r2
 204 010e DB00     		lsls	r3, r3, #3
 205 0110 1A46     		mov	r2, r3
 206 0112 BB69     		ldr	r3, [r7, #24]
 207 0114 1344     		add	r3, r3, r2
 208 0116 3B62     		str	r3, [r7, #32]
  98:..\..\..\lvgl\version_6.1.2\lvgl\src\lv_draw/lv_img_cache.c ****             cached_src->life += cached_src->dec_dsc.time_to_open * LV_IMG_CACHE_LIFE_GAIN;
 209              		.loc 1 98 0
 210 0118 3B6A     		ldr	r3, [r7, #32]
 211 011a 5B6A     		ldr	r3, [r3, #36]
 212 011c 1A46     		mov	r2, r3
 213 011e 3B6A     		ldr	r3, [r7, #32]
 214 0120 9B69     		ldr	r3, [r3, #24]
 215 0122 1344     		add	r3, r3, r2
 216 0124 1A46     		mov	r2, r3
 217 0126 3B6A     		ldr	r3, [r7, #32]
 218 0128 5A62     		str	r2, [r3, #36]
  99:..\..\..\lvgl\version_6.1.2\lvgl\src\lv_draw/lv_img_cache.c ****             if(cached_src->life > LV_IMG_CACHE_LIFE_LIMIT) cached_src->life = LV_IMG_CACHE_LIFE_LIM
 219              		.loc 1 99 0
 220 012a 3B6A     		ldr	r3, [r7, #32]
 221 012c 5B6A     		ldr	r3, [r3, #36]
 222 012e B3F57A7F 		cmp	r3, #1000
 223 0132 0DDD     		ble	.L22
 224              		.loc 1 99 0 is_stmt 0 discriminator 1
 225 0134 3B6A     		ldr	r3, [r7, #32]
 226 0136 4FF47A72 		mov	r2, #1000
 227 013a 5A62     		str	r2, [r3, #36]
 100:..\..\..\lvgl\version_6.1.2\lvgl\src\lv_draw/lv_img_cache.c ****             LV_LOG_TRACE("image draw: image found in the cache");
 101:..\..\..\lvgl\version_6.1.2\lvgl\src\lv_draw/lv_img_cache.c ****             break;
 228              		.loc 1 101 0 is_stmt 1 discriminator 1
 229 013c 08E0     		b	.L22
 230              	.L11:
 231              	.LBE2:
  84:..\..\..\lvgl\version_6.1.2\lvgl\src\lv_draw/lv_img_cache.c ****         bool match = false;
 232              		.loc 1 84 0 discriminator 2
 233 013e FB8C     		ldrh	r3, [r7, #38]
 234 0140 0133     		adds	r3, r3, #1
 235 0142 FB84     		strh	r3, [r7, #38]	@ movhi
 236              	.L7:
  84:..\..\..\lvgl\version_6.1.2\lvgl\src\lv_draw/lv_img_cache.c ****         bool match = false;
 237              		.loc 1 84 0 is_stmt 0 discriminator 1
ARM GAS  C:\Users\tmj32\AppData\Local\Temp\ccqOqNcG.s 			page 7


 238 0144 394B     		ldr	r3, .L23
 239 0146 1B88     		ldrh	r3, [r3]
 240 0148 FA8C     		ldrh	r2, [r7, #38]
 241 014a 9A42     		cmp	r2, r3
 242 014c 95D3     		bcc	.L14
 243 014e 00E0     		b	.L13
 244              	.L22:
 245              	.LBB3:
 246              		.loc 1 101 0 is_stmt 1
 247 0150 00BF     		nop
 248              	.L13:
 249              	.LBE3:
 102:..\..\..\lvgl\version_6.1.2\lvgl\src\lv_draw/lv_img_cache.c ****         }
 103:..\..\..\lvgl\version_6.1.2\lvgl\src\lv_draw/lv_img_cache.c ****     }
 104:..\..\..\lvgl\version_6.1.2\lvgl\src\lv_draw/lv_img_cache.c **** 
 105:..\..\..\lvgl\version_6.1.2\lvgl\src\lv_draw/lv_img_cache.c ****     /*The image is not cached then cache it now*/
 106:..\..\..\lvgl\version_6.1.2\lvgl\src\lv_draw/lv_img_cache.c ****     if(cached_src == NULL) {
 250              		.loc 1 106 0
 251 0152 3B6A     		ldr	r3, [r7, #32]
 252 0154 002B     		cmp	r3, #0
 253 0156 64D1     		bne	.L15
 254              	.LBB4:
 107:..\..\..\lvgl\version_6.1.2\lvgl\src\lv_draw/lv_img_cache.c ****         /*Find an entry to reuse. Select the entry with the least life*/
 108:..\..\..\lvgl\version_6.1.2\lvgl\src\lv_draw/lv_img_cache.c ****         cached_src = &cache[0];
 255              		.loc 1 108 0
 256 0158 BB69     		ldr	r3, [r7, #24]
 257 015a 3B62     		str	r3, [r7, #32]
 109:..\..\..\lvgl\version_6.1.2\lvgl\src\lv_draw/lv_img_cache.c ****         for(i = 1; i < entry_cnt; i++) {
 258              		.loc 1 109 0
 259 015c 0123     		movs	r3, #1
 260 015e FB84     		strh	r3, [r7, #38]	@ movhi
 261 0160 18E0     		b	.L16
 262              	.L18:
 110:..\..\..\lvgl\version_6.1.2\lvgl\src\lv_draw/lv_img_cache.c ****             if(cache[i].life < cached_src->life) {
 263              		.loc 1 110 0
 264 0162 FA8C     		ldrh	r2, [r7, #38]
 265 0164 1346     		mov	r3, r2
 266 0166 9B00     		lsls	r3, r3, #2
 267 0168 1344     		add	r3, r3, r2
 268 016a DB00     		lsls	r3, r3, #3
 269 016c 1A46     		mov	r2, r3
 270 016e BB69     		ldr	r3, [r7, #24]
 271 0170 1344     		add	r3, r3, r2
 272 0172 5A6A     		ldr	r2, [r3, #36]
 273 0174 3B6A     		ldr	r3, [r7, #32]
 274 0176 5B6A     		ldr	r3, [r3, #36]
 275 0178 9A42     		cmp	r2, r3
 276 017a 08DA     		bge	.L17
 111:..\..\..\lvgl\version_6.1.2\lvgl\src\lv_draw/lv_img_cache.c ****                 cached_src = &cache[i];
 277              		.loc 1 111 0
 278 017c FA8C     		ldrh	r2, [r7, #38]
 279 017e 1346     		mov	r3, r2
 280 0180 9B00     		lsls	r3, r3, #2
 281 0182 1344     		add	r3, r3, r2
 282 0184 DB00     		lsls	r3, r3, #3
 283 0186 1A46     		mov	r2, r3
 284 0188 BB69     		ldr	r3, [r7, #24]
ARM GAS  C:\Users\tmj32\AppData\Local\Temp\ccqOqNcG.s 			page 8


 285 018a 1344     		add	r3, r3, r2
 286 018c 3B62     		str	r3, [r7, #32]
 287              	.L17:
 109:..\..\..\lvgl\version_6.1.2\lvgl\src\lv_draw/lv_img_cache.c ****         for(i = 1; i < entry_cnt; i++) {
 288              		.loc 1 109 0 discriminator 2
 289 018e FB8C     		ldrh	r3, [r7, #38]
 290 0190 0133     		adds	r3, r3, #1
 291 0192 FB84     		strh	r3, [r7, #38]	@ movhi
 292              	.L16:
 109:..\..\..\lvgl\version_6.1.2\lvgl\src\lv_draw/lv_img_cache.c ****         for(i = 1; i < entry_cnt; i++) {
 293              		.loc 1 109 0 is_stmt 0 discriminator 1
 294 0194 254B     		ldr	r3, .L23
 295 0196 1B88     		ldrh	r3, [r3]
 296 0198 FA8C     		ldrh	r2, [r7, #38]
 297 019a 9A42     		cmp	r2, r3
 298 019c E1D3     		bcc	.L18
 112:..\..\..\lvgl\version_6.1.2\lvgl\src\lv_draw/lv_img_cache.c ****             }
 113:..\..\..\lvgl\version_6.1.2\lvgl\src\lv_draw/lv_img_cache.c ****         }
 114:..\..\..\lvgl\version_6.1.2\lvgl\src\lv_draw/lv_img_cache.c **** 
 115:..\..\..\lvgl\version_6.1.2\lvgl\src\lv_draw/lv_img_cache.c ****         /*Close the decoder to reuse if it was opened (has a valid source)*/
 116:..\..\..\lvgl\version_6.1.2\lvgl\src\lv_draw/lv_img_cache.c ****         if(cached_src->dec_dsc.src) {
 299              		.loc 1 116 0 is_stmt 1
 300 019e 3B6A     		ldr	r3, [r7, #32]
 301 01a0 5B68     		ldr	r3, [r3, #4]
 302 01a2 002B     		cmp	r3, #0
 303 01a4 03D0     		beq	.L19
 117:..\..\..\lvgl\version_6.1.2\lvgl\src\lv_draw/lv_img_cache.c ****             lv_img_decoder_close(&cached_src->dec_dsc);
 304              		.loc 1 117 0
 305 01a6 3B6A     		ldr	r3, [r7, #32]
 306 01a8 1846     		mov	r0, r3
 307 01aa FFF7FEFF 		bl	lv_img_decoder_close
 308              	.L19:
 118:..\..\..\lvgl\version_6.1.2\lvgl\src\lv_draw/lv_img_cache.c ****             LV_LOG_INFO("image draw: cache miss, close and reuse an entry");
 119:..\..\..\lvgl\version_6.1.2\lvgl\src\lv_draw/lv_img_cache.c ****         } else {
 120:..\..\..\lvgl\version_6.1.2\lvgl\src\lv_draw/lv_img_cache.c ****             LV_LOG_INFO("image draw: cache miss, cached to an empty entry");
 121:..\..\..\lvgl\version_6.1.2\lvgl\src\lv_draw/lv_img_cache.c ****         }
 122:..\..\..\lvgl\version_6.1.2\lvgl\src\lv_draw/lv_img_cache.c **** 
 123:..\..\..\lvgl\version_6.1.2\lvgl\src\lv_draw/lv_img_cache.c ****         /*Open the image and measure the time to open*/
 124:..\..\..\lvgl\version_6.1.2\lvgl\src\lv_draw/lv_img_cache.c ****         uint32_t t_start;
 125:..\..\..\lvgl\version_6.1.2\lvgl\src\lv_draw/lv_img_cache.c ****         t_start                          = lv_tick_get();
 309              		.loc 1 125 0
 310 01ae FFF7FEFF 		bl	lv_tick_get
 311 01b2 3861     		str	r0, [r7, #16]
 126:..\..\..\lvgl\version_6.1.2\lvgl\src\lv_draw/lv_img_cache.c ****         cached_src->dec_dsc.time_to_open = 0;
 312              		.loc 1 126 0
 313 01b4 3B6A     		ldr	r3, [r7, #32]
 314 01b6 0022     		movs	r2, #0
 315 01b8 9A61     		str	r2, [r3, #24]
 127:..\..\..\lvgl\version_6.1.2\lvgl\src\lv_draw/lv_img_cache.c ****         lv_res_t open_res                = lv_img_decoder_open(&cached_src->dec_dsc, src, style);
 316              		.loc 1 127 0
 317 01ba 3B6A     		ldr	r3, [r7, #32]
 318 01bc 3A68     		ldr	r2, [r7]
 319 01be 7968     		ldr	r1, [r7, #4]
 320 01c0 1846     		mov	r0, r3
 321 01c2 FFF7FEFF 		bl	lv_img_decoder_open
 322 01c6 0346     		mov	r3, r0
 323 01c8 FB73     		strb	r3, [r7, #15]
ARM GAS  C:\Users\tmj32\AppData\Local\Temp\ccqOqNcG.s 			page 9


 128:..\..\..\lvgl\version_6.1.2\lvgl\src\lv_draw/lv_img_cache.c ****         if(open_res == LV_RES_INV) {
 324              		.loc 1 128 0
 325 01ca FB7B     		ldrb	r3, [r7, #15]	@ zero_extendqisi2
 326 01cc 002B     		cmp	r3, #0
 327 01ce 14D1     		bne	.L20
 129:..\..\..\lvgl\version_6.1.2\lvgl\src\lv_draw/lv_img_cache.c ****             LV_LOG_WARN("Image draw cannot open the image resource");
 130:..\..\..\lvgl\version_6.1.2\lvgl\src\lv_draw/lv_img_cache.c ****             lv_img_decoder_close(&cached_src->dec_dsc);
 328              		.loc 1 130 0
 329 01d0 3B6A     		ldr	r3, [r7, #32]
 330 01d2 1846     		mov	r0, r3
 331 01d4 FFF7FEFF 		bl	lv_img_decoder_close
 131:..\..\..\lvgl\version_6.1.2\lvgl\src\lv_draw/lv_img_cache.c ****             memset(&cached_src->dec_dsc, 0, sizeof(lv_img_decoder_dsc_t));
 332              		.loc 1 131 0
 333 01d8 3B6A     		ldr	r3, [r7, #32]
 334 01da 2422     		movs	r2, #36
 335 01dc 0021     		movs	r1, #0
 336 01de 1846     		mov	r0, r3
 337 01e0 FFF7FEFF 		bl	memset
 132:..\..\..\lvgl\version_6.1.2\lvgl\src\lv_draw/lv_img_cache.c ****             memset(cached_src, 0, sizeof(lv_img_cache_entry_t));
 338              		.loc 1 132 0
 339 01e4 2822     		movs	r2, #40
 340 01e6 0021     		movs	r1, #0
 341 01e8 386A     		ldr	r0, [r7, #32]
 342 01ea FFF7FEFF 		bl	memset
 133:..\..\..\lvgl\version_6.1.2\lvgl\src\lv_draw/lv_img_cache.c ****             cached_src->life = INT32_MIN; /*Make the empty entry very "weak" to force its use  */
 343              		.loc 1 133 0
 344 01ee 3B6A     		ldr	r3, [r7, #32]
 345 01f0 4FF00042 		mov	r2, #-2147483648
 346 01f4 5A62     		str	r2, [r3, #36]
 134:..\..\..\lvgl\version_6.1.2\lvgl\src\lv_draw/lv_img_cache.c ****             return NULL;
 347              		.loc 1 134 0
 348 01f6 0023     		movs	r3, #0
 349 01f8 14E0     		b	.L3
 350              	.L20:
 135:..\..\..\lvgl\version_6.1.2\lvgl\src\lv_draw/lv_img_cache.c ****         }
 136:..\..\..\lvgl\version_6.1.2\lvgl\src\lv_draw/lv_img_cache.c **** 
 137:..\..\..\lvgl\version_6.1.2\lvgl\src\lv_draw/lv_img_cache.c ****         cached_src->life = 0;
 351              		.loc 1 137 0
 352 01fa 3B6A     		ldr	r3, [r7, #32]
 353 01fc 0022     		movs	r2, #0
 354 01fe 5A62     		str	r2, [r3, #36]
 138:..\..\..\lvgl\version_6.1.2\lvgl\src\lv_draw/lv_img_cache.c **** 
 139:..\..\..\lvgl\version_6.1.2\lvgl\src\lv_draw/lv_img_cache.c ****         /*If `time_to_open` was not set in the open function set it here*/
 140:..\..\..\lvgl\version_6.1.2\lvgl\src\lv_draw/lv_img_cache.c ****         if(cached_src->dec_dsc.time_to_open == 0) {
 355              		.loc 1 140 0
 356 0200 3B6A     		ldr	r3, [r7, #32]
 357 0202 9B69     		ldr	r3, [r3, #24]
 358 0204 002B     		cmp	r3, #0
 359 0206 05D1     		bne	.L21
 141:..\..\..\lvgl\version_6.1.2\lvgl\src\lv_draw/lv_img_cache.c ****             cached_src->dec_dsc.time_to_open = lv_tick_elaps(t_start);
 360              		.loc 1 141 0
 361 0208 3869     		ldr	r0, [r7, #16]
 362 020a FFF7FEFF 		bl	lv_tick_elaps
 363 020e 0246     		mov	r2, r0
 364 0210 3B6A     		ldr	r3, [r7, #32]
 365 0212 9A61     		str	r2, [r3, #24]
 366              	.L21:
ARM GAS  C:\Users\tmj32\AppData\Local\Temp\ccqOqNcG.s 			page 10


 142:..\..\..\lvgl\version_6.1.2\lvgl\src\lv_draw/lv_img_cache.c ****         }
 143:..\..\..\lvgl\version_6.1.2\lvgl\src\lv_draw/lv_img_cache.c **** 
 144:..\..\..\lvgl\version_6.1.2\lvgl\src\lv_draw/lv_img_cache.c ****         if(cached_src->dec_dsc.time_to_open == 0) cached_src->dec_dsc.time_to_open = 1;
 367              		.loc 1 144 0
 368 0214 3B6A     		ldr	r3, [r7, #32]
 369 0216 9B69     		ldr	r3, [r3, #24]
 370 0218 002B     		cmp	r3, #0
 371 021a 02D1     		bne	.L15
 372              		.loc 1 144 0 is_stmt 0 discriminator 1
 373 021c 3B6A     		ldr	r3, [r7, #32]
 374 021e 0122     		movs	r2, #1
 375 0220 9A61     		str	r2, [r3, #24]
 376              	.L15:
 377              	.LBE4:
 145:..\..\..\lvgl\version_6.1.2\lvgl\src\lv_draw/lv_img_cache.c ****     }
 146:..\..\..\lvgl\version_6.1.2\lvgl\src\lv_draw/lv_img_cache.c **** 
 147:..\..\..\lvgl\version_6.1.2\lvgl\src\lv_draw/lv_img_cache.c ****     return cached_src;
 378              		.loc 1 147 0 is_stmt 1
 379 0222 3B6A     		ldr	r3, [r7, #32]
 380              	.L3:
 148:..\..\..\lvgl\version_6.1.2\lvgl\src\lv_draw/lv_img_cache.c **** }
 381              		.loc 1 148 0
 382 0224 1846     		mov	r0, r3
 383 0226 2837     		adds	r7, r7, #40
 384              		.cfi_def_cfa_offset 8
 385 0228 BD46     		mov	sp, r7
 386              		.cfi_def_cfa_register 13
 387              		@ sp needed
 388 022a 80BD     		pop	{r7, pc}
 389              	.L24:
 390              		.align	2
 391              	.L23:
 392 022c 00000000 		.word	entry_cnt
 393 0230 00000000 		.word	_lv_img_cache_array
 394 0234 02000080 		.word	-2147483646
 395              		.cfi_endproc
 396              	.LFE31:
 397              		.size	lv_img_cache_open, .-lv_img_cache_open
 398              		.section	.text.lv_img_cache_set_size,"ax",%progbits
 399              		.align	2
 400              		.global	lv_img_cache_set_size
 401              		.thumb
 402              		.thumb_func
 403              		.type	lv_img_cache_set_size, %function
 404              	lv_img_cache_set_size:
 405              	.LFB32:
 149:..\..\..\lvgl\version_6.1.2\lvgl\src\lv_draw/lv_img_cache.c **** 
 150:..\..\..\lvgl\version_6.1.2\lvgl\src\lv_draw/lv_img_cache.c **** /**
 151:..\..\..\lvgl\version_6.1.2\lvgl\src\lv_draw/lv_img_cache.c ****  * Set the number of images to be cached.
 152:..\..\..\lvgl\version_6.1.2\lvgl\src\lv_draw/lv_img_cache.c ****  * More cached images mean more opened image at same time which might mean more memory usage.
 153:..\..\..\lvgl\version_6.1.2\lvgl\src\lv_draw/lv_img_cache.c ****  * E.g. if 20 PNG or JPG images are open in the RAM they consume memory while opened in the cache.
 154:..\..\..\lvgl\version_6.1.2\lvgl\src\lv_draw/lv_img_cache.c ****  * @param new_entry_cnt number of image to cache
 155:..\..\..\lvgl\version_6.1.2\lvgl\src\lv_draw/lv_img_cache.c ****  */
 156:..\..\..\lvgl\version_6.1.2\lvgl\src\lv_draw/lv_img_cache.c **** void lv_img_cache_set_size(uint16_t new_entry_cnt)
 157:..\..\..\lvgl\version_6.1.2\lvgl\src\lv_draw/lv_img_cache.c **** {
 406              		.loc 1 157 0
 407              		.cfi_startproc
ARM GAS  C:\Users\tmj32\AppData\Local\Temp\ccqOqNcG.s 			page 11


 408              		@ args = 0, pretend = 0, frame = 16
 409              		@ frame_needed = 1, uses_anonymous_args = 0
 410 0000 80B5     		push	{r7, lr}
 411              		.cfi_def_cfa_offset 8
 412              		.cfi_offset 7, -8
 413              		.cfi_offset 14, -4
 414 0002 84B0     		sub	sp, sp, #16
 415              		.cfi_def_cfa_offset 24
 416 0004 00AF     		add	r7, sp, #0
 417              		.cfi_def_cfa_register 7
 418 0006 0346     		mov	r3, r0
 419 0008 FB80     		strh	r3, [r7, #6]	@ movhi
 158:..\..\..\lvgl\version_6.1.2\lvgl\src\lv_draw/lv_img_cache.c ****     if(LV_GC_ROOT(_lv_img_cache_array) != NULL) {
 420              		.loc 1 158 0
 421 000a 254B     		ldr	r3, .L31
 422 000c 1B68     		ldr	r3, [r3]
 423 000e 002B     		cmp	r3, #0
 424 0010 07D0     		beq	.L26
 159:..\..\..\lvgl\version_6.1.2\lvgl\src\lv_draw/lv_img_cache.c ****         /*Clean the cache before free it*/
 160:..\..\..\lvgl\version_6.1.2\lvgl\src\lv_draw/lv_img_cache.c ****         lv_img_cache_invalidate_src(NULL);
 425              		.loc 1 160 0
 426 0012 0020     		movs	r0, #0
 427 0014 FFF7FEFF 		bl	lv_img_cache_invalidate_src
 161:..\..\..\lvgl\version_6.1.2\lvgl\src\lv_draw/lv_img_cache.c ****         lv_mem_free(LV_GC_ROOT(_lv_img_cache_array));
 428              		.loc 1 161 0
 429 0018 214B     		ldr	r3, .L31
 430 001a 1B68     		ldr	r3, [r3]
 431 001c 1846     		mov	r0, r3
 432 001e FFF7FEFF 		bl	lv_mem_free
 433              	.L26:
 162:..\..\..\lvgl\version_6.1.2\lvgl\src\lv_draw/lv_img_cache.c ****     }
 163:..\..\..\lvgl\version_6.1.2\lvgl\src\lv_draw/lv_img_cache.c **** 
 164:..\..\..\lvgl\version_6.1.2\lvgl\src\lv_draw/lv_img_cache.c ****     /*Reallocate the cache*/
 165:..\..\..\lvgl\version_6.1.2\lvgl\src\lv_draw/lv_img_cache.c ****     LV_GC_ROOT(_lv_img_cache_array) = lv_mem_alloc(sizeof(lv_img_cache_entry_t) * new_entry_cnt);
 434              		.loc 1 165 0
 435 0022 FA88     		ldrh	r2, [r7, #6]
 436 0024 1346     		mov	r3, r2
 437 0026 9B00     		lsls	r3, r3, #2
 438 0028 1344     		add	r3, r3, r2
 439 002a DB00     		lsls	r3, r3, #3
 440 002c 1846     		mov	r0, r3
 441 002e FFF7FEFF 		bl	lv_mem_alloc
 442 0032 0246     		mov	r2, r0
 443 0034 1A4B     		ldr	r3, .L31
 444 0036 1A60     		str	r2, [r3]
 166:..\..\..\lvgl\version_6.1.2\lvgl\src\lv_draw/lv_img_cache.c ****     LV_ASSERT_MEM(LV_GC_ROOT(_lv_img_cache_array));
 167:..\..\..\lvgl\version_6.1.2\lvgl\src\lv_draw/lv_img_cache.c ****     if(LV_GC_ROOT(_lv_img_cache_array) == NULL) {
 445              		.loc 1 167 0
 446 0038 194B     		ldr	r3, .L31
 447 003a 1B68     		ldr	r3, [r3]
 448 003c 002B     		cmp	r3, #0
 449 003e 03D1     		bne	.L27
 168:..\..\..\lvgl\version_6.1.2\lvgl\src\lv_draw/lv_img_cache.c ****         entry_cnt = 0;
 450              		.loc 1 168 0
 451 0040 184B     		ldr	r3, .L31+4
 452 0042 0022     		movs	r2, #0
 453 0044 1A80     		strh	r2, [r3]	@ movhi
ARM GAS  C:\Users\tmj32\AppData\Local\Temp\ccqOqNcG.s 			page 12


 169:..\..\..\lvgl\version_6.1.2\lvgl\src\lv_draw/lv_img_cache.c ****         return;
 454              		.loc 1 169 0
 455 0046 27E0     		b	.L25
 456              	.L27:
 170:..\..\..\lvgl\version_6.1.2\lvgl\src\lv_draw/lv_img_cache.c ****     }
 171:..\..\..\lvgl\version_6.1.2\lvgl\src\lv_draw/lv_img_cache.c ****     entry_cnt = new_entry_cnt;
 457              		.loc 1 171 0
 458 0048 164A     		ldr	r2, .L31+4
 459 004a FB88     		ldrh	r3, [r7, #6]	@ movhi
 460 004c 1380     		strh	r3, [r2]	@ movhi
 172:..\..\..\lvgl\version_6.1.2\lvgl\src\lv_draw/lv_img_cache.c **** 
 173:..\..\..\lvgl\version_6.1.2\lvgl\src\lv_draw/lv_img_cache.c ****     /*Clean the cache*/
 174:..\..\..\lvgl\version_6.1.2\lvgl\src\lv_draw/lv_img_cache.c ****     uint16_t i;
 175:..\..\..\lvgl\version_6.1.2\lvgl\src\lv_draw/lv_img_cache.c ****     for(i = 0; i < entry_cnt; i++) {
 461              		.loc 1 175 0
 462 004e 0023     		movs	r3, #0
 463 0050 FB81     		strh	r3, [r7, #14]	@ movhi
 464 0052 1CE0     		b	.L29
 465              	.L30:
 176:..\..\..\lvgl\version_6.1.2\lvgl\src\lv_draw/lv_img_cache.c ****         memset(&LV_GC_ROOT(_lv_img_cache_array)[i].dec_dsc, 0, sizeof(lv_img_decoder_dsc_t));
 466              		.loc 1 176 0 discriminator 3
 467 0054 124B     		ldr	r3, .L31
 468 0056 1968     		ldr	r1, [r3]
 469 0058 FA89     		ldrh	r2, [r7, #14]
 470 005a 1346     		mov	r3, r2
 471 005c 9B00     		lsls	r3, r3, #2
 472 005e 1344     		add	r3, r3, r2
 473 0060 DB00     		lsls	r3, r3, #3
 474 0062 0B44     		add	r3, r3, r1
 475 0064 2422     		movs	r2, #36
 476 0066 0021     		movs	r1, #0
 477 0068 1846     		mov	r0, r3
 478 006a FFF7FEFF 		bl	memset
 177:..\..\..\lvgl\version_6.1.2\lvgl\src\lv_draw/lv_img_cache.c ****         memset(&LV_GC_ROOT(_lv_img_cache_array)[i], 0, sizeof(lv_img_cache_entry_t));
 479              		.loc 1 177 0 discriminator 3
 480 006e 0C4B     		ldr	r3, .L31
 481 0070 1968     		ldr	r1, [r3]
 482 0072 FA89     		ldrh	r2, [r7, #14]
 483 0074 1346     		mov	r3, r2
 484 0076 9B00     		lsls	r3, r3, #2
 485 0078 1344     		add	r3, r3, r2
 486 007a DB00     		lsls	r3, r3, #3
 487 007c 0B44     		add	r3, r3, r1
 488 007e 2822     		movs	r2, #40
 489 0080 0021     		movs	r1, #0
 490 0082 1846     		mov	r0, r3
 491 0084 FFF7FEFF 		bl	memset
 175:..\..\..\lvgl\version_6.1.2\lvgl\src\lv_draw/lv_img_cache.c ****         memset(&LV_GC_ROOT(_lv_img_cache_array)[i].dec_dsc, 0, sizeof(lv_img_decoder_dsc_t));
 492              		.loc 1 175 0 discriminator 3
 493 0088 FB89     		ldrh	r3, [r7, #14]
 494 008a 0133     		adds	r3, r3, #1
 495 008c FB81     		strh	r3, [r7, #14]	@ movhi
 496              	.L29:
 175:..\..\..\lvgl\version_6.1.2\lvgl\src\lv_draw/lv_img_cache.c ****         memset(&LV_GC_ROOT(_lv_img_cache_array)[i].dec_dsc, 0, sizeof(lv_img_decoder_dsc_t));
 497              		.loc 1 175 0 is_stmt 0 discriminator 1
 498 008e 054B     		ldr	r3, .L31+4
 499 0090 1B88     		ldrh	r3, [r3]
ARM GAS  C:\Users\tmj32\AppData\Local\Temp\ccqOqNcG.s 			page 13


 500 0092 FA89     		ldrh	r2, [r7, #14]
 501 0094 9A42     		cmp	r2, r3
 502 0096 DDD3     		bcc	.L30
 503              	.L25:
 178:..\..\..\lvgl\version_6.1.2\lvgl\src\lv_draw/lv_img_cache.c ****     }
 179:..\..\..\lvgl\version_6.1.2\lvgl\src\lv_draw/lv_img_cache.c **** }
 504              		.loc 1 179 0 is_stmt 1
 505 0098 1037     		adds	r7, r7, #16
 506              		.cfi_def_cfa_offset 8
 507 009a BD46     		mov	sp, r7
 508              		.cfi_def_cfa_register 13
 509              		@ sp needed
 510 009c 80BD     		pop	{r7, pc}
 511              	.L32:
 512 009e 00BF     		.align	2
 513              	.L31:
 514 00a0 00000000 		.word	_lv_img_cache_array
 515 00a4 00000000 		.word	entry_cnt
 516              		.cfi_endproc
 517              	.LFE32:
 518              		.size	lv_img_cache_set_size, .-lv_img_cache_set_size
 519              		.section	.text.lv_img_cache_invalidate_src,"ax",%progbits
 520              		.align	2
 521              		.global	lv_img_cache_invalidate_src
 522              		.thumb
 523              		.thumb_func
 524              		.type	lv_img_cache_invalidate_src, %function
 525              	lv_img_cache_invalidate_src:
 526              	.LFB33:
 180:..\..\..\lvgl\version_6.1.2\lvgl\src\lv_draw/lv_img_cache.c **** 
 181:..\..\..\lvgl\version_6.1.2\lvgl\src\lv_draw/lv_img_cache.c **** /**
 182:..\..\..\lvgl\version_6.1.2\lvgl\src\lv_draw/lv_img_cache.c ****  * Invalidate an image source in the cache.
 183:..\..\..\lvgl\version_6.1.2\lvgl\src\lv_draw/lv_img_cache.c ****  * Useful if the image source is updated therefore it needs to be cached again.
 184:..\..\..\lvgl\version_6.1.2\lvgl\src\lv_draw/lv_img_cache.c ****  * @param src an image source path to a file or pointer to an `lv_img_dsc_t` variable.
 185:..\..\..\lvgl\version_6.1.2\lvgl\src\lv_draw/lv_img_cache.c ****  */
 186:..\..\..\lvgl\version_6.1.2\lvgl\src\lv_draw/lv_img_cache.c **** void lv_img_cache_invalidate_src(const void * src)
 187:..\..\..\lvgl\version_6.1.2\lvgl\src\lv_draw/lv_img_cache.c **** {
 527              		.loc 1 187 0
 528              		.cfi_startproc
 529              		@ args = 0, pretend = 0, frame = 16
 530              		@ frame_needed = 1, uses_anonymous_args = 0
 531 0000 80B5     		push	{r7, lr}
 532              		.cfi_def_cfa_offset 8
 533              		.cfi_offset 7, -8
 534              		.cfi_offset 14, -4
 535 0002 84B0     		sub	sp, sp, #16
 536              		.cfi_def_cfa_offset 24
 537 0004 00AF     		add	r7, sp, #0
 538              		.cfi_def_cfa_register 7
 539 0006 7860     		str	r0, [r7, #4]
 188:..\..\..\lvgl\version_6.1.2\lvgl\src\lv_draw/lv_img_cache.c **** 
 189:..\..\..\lvgl\version_6.1.2\lvgl\src\lv_draw/lv_img_cache.c ****     lv_img_cache_entry_t * cache = LV_GC_ROOT(_lv_img_cache_array);
 540              		.loc 1 189 0
 541 0008 284B     		ldr	r3, .L39
 542 000a 1B68     		ldr	r3, [r3]
 543 000c BB60     		str	r3, [r7, #8]
 190:..\..\..\lvgl\version_6.1.2\lvgl\src\lv_draw/lv_img_cache.c **** 
ARM GAS  C:\Users\tmj32\AppData\Local\Temp\ccqOqNcG.s 			page 14


 191:..\..\..\lvgl\version_6.1.2\lvgl\src\lv_draw/lv_img_cache.c ****     uint16_t i;
 192:..\..\..\lvgl\version_6.1.2\lvgl\src\lv_draw/lv_img_cache.c ****     for(i = 0; i < entry_cnt; i++) {
 544              		.loc 1 192 0
 545 000e 0023     		movs	r3, #0
 546 0010 FB81     		strh	r3, [r7, #14]	@ movhi
 547 0012 41E0     		b	.L34
 548              	.L38:
 193:..\..\..\lvgl\version_6.1.2\lvgl\src\lv_draw/lv_img_cache.c ****         if(cache[i].dec_dsc.src == src || src == NULL) {
 549              		.loc 1 193 0
 550 0014 FA89     		ldrh	r2, [r7, #14]
 551 0016 1346     		mov	r3, r2
 552 0018 9B00     		lsls	r3, r3, #2
 553 001a 1344     		add	r3, r3, r2
 554 001c DB00     		lsls	r3, r3, #3
 555 001e 1A46     		mov	r2, r3
 556 0020 BB68     		ldr	r3, [r7, #8]
 557 0022 1344     		add	r3, r3, r2
 558 0024 5A68     		ldr	r2, [r3, #4]
 559 0026 7B68     		ldr	r3, [r7, #4]
 560 0028 9A42     		cmp	r2, r3
 561 002a 02D0     		beq	.L35
 562              		.loc 1 193 0 is_stmt 0 discriminator 1
 563 002c 7B68     		ldr	r3, [r7, #4]
 564 002e 002B     		cmp	r3, #0
 565 0030 2FD1     		bne	.L36
 566              	.L35:
 194:..\..\..\lvgl\version_6.1.2\lvgl\src\lv_draw/lv_img_cache.c ****             if(cache[i].dec_dsc.src != NULL) {
 567              		.loc 1 194 0 is_stmt 1
 568 0032 FA89     		ldrh	r2, [r7, #14]
 569 0034 1346     		mov	r3, r2
 570 0036 9B00     		lsls	r3, r3, #2
 571 0038 1344     		add	r3, r3, r2
 572 003a DB00     		lsls	r3, r3, #3
 573 003c 1A46     		mov	r2, r3
 574 003e BB68     		ldr	r3, [r7, #8]
 575 0040 1344     		add	r3, r3, r2
 576 0042 5B68     		ldr	r3, [r3, #4]
 577 0044 002B     		cmp	r3, #0
 578 0046 0AD0     		beq	.L37
 195:..\..\..\lvgl\version_6.1.2\lvgl\src\lv_draw/lv_img_cache.c ****                 lv_img_decoder_close(&cache[i].dec_dsc);
 579              		.loc 1 195 0
 580 0048 FA89     		ldrh	r2, [r7, #14]
 581 004a 1346     		mov	r3, r2
 582 004c 9B00     		lsls	r3, r3, #2
 583 004e 1344     		add	r3, r3, r2
 584 0050 DB00     		lsls	r3, r3, #3
 585 0052 1A46     		mov	r2, r3
 586 0054 BB68     		ldr	r3, [r7, #8]
 587 0056 1344     		add	r3, r3, r2
 588 0058 1846     		mov	r0, r3
 589 005a FFF7FEFF 		bl	lv_img_decoder_close
 590              	.L37:
 196:..\..\..\lvgl\version_6.1.2\lvgl\src\lv_draw/lv_img_cache.c ****             }
 197:..\..\..\lvgl\version_6.1.2\lvgl\src\lv_draw/lv_img_cache.c **** 
 198:..\..\..\lvgl\version_6.1.2\lvgl\src\lv_draw/lv_img_cache.c ****             memset(&cache[i].dec_dsc, 0, sizeof(lv_img_decoder_dsc_t));
 591              		.loc 1 198 0
 592 005e FA89     		ldrh	r2, [r7, #14]
ARM GAS  C:\Users\tmj32\AppData\Local\Temp\ccqOqNcG.s 			page 15


 593 0060 1346     		mov	r3, r2
 594 0062 9B00     		lsls	r3, r3, #2
 595 0064 1344     		add	r3, r3, r2
 596 0066 DB00     		lsls	r3, r3, #3
 597 0068 1A46     		mov	r2, r3
 598 006a BB68     		ldr	r3, [r7, #8]
 599 006c 1344     		add	r3, r3, r2
 600 006e 2422     		movs	r2, #36
 601 0070 0021     		movs	r1, #0
 602 0072 1846     		mov	r0, r3
 603 0074 FFF7FEFF 		bl	memset
 199:..\..\..\lvgl\version_6.1.2\lvgl\src\lv_draw/lv_img_cache.c ****             memset(&cache[i], 0, sizeof(lv_img_cache_entry_t));
 604              		.loc 1 199 0
 605 0078 FA89     		ldrh	r2, [r7, #14]
 606 007a 1346     		mov	r3, r2
 607 007c 9B00     		lsls	r3, r3, #2
 608 007e 1344     		add	r3, r3, r2
 609 0080 DB00     		lsls	r3, r3, #3
 610 0082 1A46     		mov	r2, r3
 611 0084 BB68     		ldr	r3, [r7, #8]
 612 0086 1344     		add	r3, r3, r2
 613 0088 2822     		movs	r2, #40
 614 008a 0021     		movs	r1, #0
 615 008c 1846     		mov	r0, r3
 616 008e FFF7FEFF 		bl	memset
 617              	.L36:
 192:..\..\..\lvgl\version_6.1.2\lvgl\src\lv_draw/lv_img_cache.c ****         if(cache[i].dec_dsc.src == src || src == NULL) {
 618              		.loc 1 192 0 discriminator 2
 619 0092 FB89     		ldrh	r3, [r7, #14]
 620 0094 0133     		adds	r3, r3, #1
 621 0096 FB81     		strh	r3, [r7, #14]	@ movhi
 622              	.L34:
 192:..\..\..\lvgl\version_6.1.2\lvgl\src\lv_draw/lv_img_cache.c ****         if(cache[i].dec_dsc.src == src || src == NULL) {
 623              		.loc 1 192 0 is_stmt 0 discriminator 1
 624 0098 054B     		ldr	r3, .L39+4
 625 009a 1B88     		ldrh	r3, [r3]
 626 009c FA89     		ldrh	r2, [r7, #14]
 627 009e 9A42     		cmp	r2, r3
 628 00a0 B8D3     		bcc	.L38
 200:..\..\..\lvgl\version_6.1.2\lvgl\src\lv_draw/lv_img_cache.c ****         }
 201:..\..\..\lvgl\version_6.1.2\lvgl\src\lv_draw/lv_img_cache.c ****     }
 202:..\..\..\lvgl\version_6.1.2\lvgl\src\lv_draw/lv_img_cache.c **** }
 629              		.loc 1 202 0 is_stmt 1
 630 00a2 00BF     		nop
 631 00a4 1037     		adds	r7, r7, #16
 632              		.cfi_def_cfa_offset 8
 633 00a6 BD46     		mov	sp, r7
 634              		.cfi_def_cfa_register 13
 635              		@ sp needed
 636 00a8 80BD     		pop	{r7, pc}
 637              	.L40:
 638 00aa 00BF     		.align	2
 639              	.L39:
 640 00ac 00000000 		.word	_lv_img_cache_array
 641 00b0 00000000 		.word	entry_cnt
 642              		.cfi_endproc
 643              	.LFE33:
ARM GAS  C:\Users\tmj32\AppData\Local\Temp\ccqOqNcG.s 			page 16


 644              		.size	lv_img_cache_invalidate_src, .-lv_img_cache_invalidate_src
 645              		.text
 646              	.Letext0:
 647              		.file 2 "c:\\program files (x86)\\cypress\\psoc creator\\4.3\\psoc creator\\import\\gnu\\arm\\5.4.
 648              		.file 3 "c:\\program files (x86)\\cypress\\psoc creator\\4.3\\psoc creator\\import\\gnu\\arm\\5.4.
 649              		.file 4 "..\\..\\..\\lvgl\\version_6.1.2\\lvgl\\src\\lv_draw\\../lv_core/../../../lv_conf.h"
 650              		.file 5 "..\\..\\..\\lvgl\\version_6.1.2\\lvgl\\src\\lv_draw\\../lv_core/../lv_font/lv_font.h"
 651              		.file 6 "..\\..\\..\\lvgl\\version_6.1.2\\lvgl\\src\\lv_draw\\../lv_core/../lv_misc/lv_color.h"
 652              		.file 7 "..\\..\\..\\lvgl\\version_6.1.2\\lvgl\\src\\lv_draw\\../lv_core/lv_style.h"
 653              		.file 8 "..\\..\\..\\lvgl\\version_6.1.2\\lvgl\\src\\lv_draw\\../lv_core/../lv_misc/lv_types.h"
 654              		.file 9 "..\\..\\..\\lvgl\\version_6.1.2\\lvgl\\src\\lv_draw\\lv_img_decoder.h"
 655              		.file 10 "..\\..\\..\\lvgl\\version_6.1.2\\lvgl\\src\\lv_draw\\lv_img_cache.h"
 656              		.file 11 "..\\..\\..\\lvgl\\version_6.1.2\\lvgl\\src\\lv_draw\\../lv_misc/lv_gc.h"