ARM GAS  C:\Users\tmj32\AppData\Local\Temp\ccaMKuwb.s 			page 1


   1              		.syntax unified
   2              		.cpu cortex-m4
   3              		.eabi_attribute 27, 1
   4              		.fpu fpv4-sp-d16
   5              		.eabi_attribute 20, 1
   6              		.eabi_attribute 21, 1
   7              		.eabi_attribute 23, 3
   8              		.eabi_attribute 24, 1
   9              		.eabi_attribute 25, 1
  10              		.eabi_attribute 26, 1
  11              		.eabi_attribute 30, 6
  12              		.eabi_attribute 34, 1
  13              		.eabi_attribute 18, 4
  14              		.thumb
  15              		.syntax unified
  16              		.file	"lv_imgbtn.c"
  17              		.text
  18              	.Ltext0:
  19              		.cfi_sections	.debug_frame
  20              		.section	.text.lv_font_get_line_height,"ax",%progbits
  21              		.align	2
  22              		.thumb
  23              		.thumb_func
  24              		.type	lv_font_get_line_height, %function
  25              	lv_font_get_line_height:
  26              	.LFB0:
  27              		.file 1 "..\\..\\..\\lvgl\\version_6.1.2\\lvgl\\src\\lv_objx\\../lv_core/../lv_font/lv_font.h"
   1:..\..\..\lvgl\version_6.1.2\lvgl\src\lv_objx\../lv_core/../lv_font/lv_font.h **** /**
   2:..\..\..\lvgl\version_6.1.2\lvgl\src\lv_objx\../lv_core/../lv_font/lv_font.h ****  * @file lv_font.h
   3:..\..\..\lvgl\version_6.1.2\lvgl\src\lv_objx\../lv_core/../lv_font/lv_font.h ****  *
   4:..\..\..\lvgl\version_6.1.2\lvgl\src\lv_objx\../lv_core/../lv_font/lv_font.h ****  */
   5:..\..\..\lvgl\version_6.1.2\lvgl\src\lv_objx\../lv_core/../lv_font/lv_font.h **** 
   6:..\..\..\lvgl\version_6.1.2\lvgl\src\lv_objx\../lv_core/../lv_font/lv_font.h **** #ifndef LV_FONT_H
   7:..\..\..\lvgl\version_6.1.2\lvgl\src\lv_objx\../lv_core/../lv_font/lv_font.h **** #define LV_FONT_H
   8:..\..\..\lvgl\version_6.1.2\lvgl\src\lv_objx\../lv_core/../lv_font/lv_font.h **** 
   9:..\..\..\lvgl\version_6.1.2\lvgl\src\lv_objx\../lv_core/../lv_font/lv_font.h **** #ifdef __cplusplus
  10:..\..\..\lvgl\version_6.1.2\lvgl\src\lv_objx\../lv_core/../lv_font/lv_font.h **** extern "C" {
  11:..\..\..\lvgl\version_6.1.2\lvgl\src\lv_objx\../lv_core/../lv_font/lv_font.h **** #endif
  12:..\..\..\lvgl\version_6.1.2\lvgl\src\lv_objx\../lv_core/../lv_font/lv_font.h **** 
  13:..\..\..\lvgl\version_6.1.2\lvgl\src\lv_objx\../lv_core/../lv_font/lv_font.h **** /*********************
  14:..\..\..\lvgl\version_6.1.2\lvgl\src\lv_objx\../lv_core/../lv_font/lv_font.h ****  *      INCLUDES
  15:..\..\..\lvgl\version_6.1.2\lvgl\src\lv_objx\../lv_core/../lv_font/lv_font.h ****  *********************/
  16:..\..\..\lvgl\version_6.1.2\lvgl\src\lv_objx\../lv_core/../lv_font/lv_font.h **** #ifdef LV_CONF_INCLUDE_SIMPLE
  17:..\..\..\lvgl\version_6.1.2\lvgl\src\lv_objx\../lv_core/../lv_font/lv_font.h **** #include "lv_conf.h"
  18:..\..\..\lvgl\version_6.1.2\lvgl\src\lv_objx\../lv_core/../lv_font/lv_font.h **** #else
  19:..\..\..\lvgl\version_6.1.2\lvgl\src\lv_objx\../lv_core/../lv_font/lv_font.h **** #include "../../../lv_conf.h"
  20:..\..\..\lvgl\version_6.1.2\lvgl\src\lv_objx\../lv_core/../lv_font/lv_font.h **** #endif
  21:..\..\..\lvgl\version_6.1.2\lvgl\src\lv_objx\../lv_core/../lv_font/lv_font.h **** 
  22:..\..\..\lvgl\version_6.1.2\lvgl\src\lv_objx\../lv_core/../lv_font/lv_font.h **** #include <stdint.h>
  23:..\..\..\lvgl\version_6.1.2\lvgl\src\lv_objx\../lv_core/../lv_font/lv_font.h **** #include <stddef.h>
  24:..\..\..\lvgl\version_6.1.2\lvgl\src\lv_objx\../lv_core/../lv_font/lv_font.h **** #include <stdbool.h>
  25:..\..\..\lvgl\version_6.1.2\lvgl\src\lv_objx\../lv_core/../lv_font/lv_font.h **** 
  26:..\..\..\lvgl\version_6.1.2\lvgl\src\lv_objx\../lv_core/../lv_font/lv_font.h **** #include "lv_symbol_def.h"
  27:..\..\..\lvgl\version_6.1.2\lvgl\src\lv_objx\../lv_core/../lv_font/lv_font.h **** 
  28:..\..\..\lvgl\version_6.1.2\lvgl\src\lv_objx\../lv_core/../lv_font/lv_font.h **** /*********************
  29:..\..\..\lvgl\version_6.1.2\lvgl\src\lv_objx\../lv_core/../lv_font/lv_font.h ****  *      DEFINES
  30:..\..\..\lvgl\version_6.1.2\lvgl\src\lv_objx\../lv_core/../lv_font/lv_font.h ****  *********************/
ARM GAS  C:\Users\tmj32\AppData\Local\Temp\ccaMKuwb.s 			page 2


  31:..\..\..\lvgl\version_6.1.2\lvgl\src\lv_objx\../lv_core/../lv_font/lv_font.h **** /*Number of fractional digits in the advanced width (`adv_w`) field of `lv_font_glyph_dsc_t`*/
  32:..\..\..\lvgl\version_6.1.2\lvgl\src\lv_objx\../lv_core/../lv_font/lv_font.h **** #define LV_FONT_WIDTH_FRACT_DIGIT       4
  33:..\..\..\lvgl\version_6.1.2\lvgl\src\lv_objx\../lv_core/../lv_font/lv_font.h **** 
  34:..\..\..\lvgl\version_6.1.2\lvgl\src\lv_objx\../lv_core/../lv_font/lv_font.h **** #define LV_FONT_KERN_POSITIVE        0
  35:..\..\..\lvgl\version_6.1.2\lvgl\src\lv_objx\../lv_core/../lv_font/lv_font.h **** #define LV_FONT_KERN_NEGATIVE        1
  36:..\..\..\lvgl\version_6.1.2\lvgl\src\lv_objx\../lv_core/../lv_font/lv_font.h **** 
  37:..\..\..\lvgl\version_6.1.2\lvgl\src\lv_objx\../lv_core/../lv_font/lv_font.h **** /**********************
  38:..\..\..\lvgl\version_6.1.2\lvgl\src\lv_objx\../lv_core/../lv_font/lv_font.h ****  *      TYPEDEFS
  39:..\..\..\lvgl\version_6.1.2\lvgl\src\lv_objx\../lv_core/../lv_font/lv_font.h ****  **********************/
  40:..\..\..\lvgl\version_6.1.2\lvgl\src\lv_objx\../lv_core/../lv_font/lv_font.h **** 
  41:..\..\..\lvgl\version_6.1.2\lvgl\src\lv_objx\../lv_core/../lv_font/lv_font.h **** /*------------------
  42:..\..\..\lvgl\version_6.1.2\lvgl\src\lv_objx\../lv_core/../lv_font/lv_font.h ****  * General types
  43:..\..\..\lvgl\version_6.1.2\lvgl\src\lv_objx\../lv_core/../lv_font/lv_font.h ****  *-----------------*/
  44:..\..\..\lvgl\version_6.1.2\lvgl\src\lv_objx\../lv_core/../lv_font/lv_font.h **** 
  45:..\..\..\lvgl\version_6.1.2\lvgl\src\lv_objx\../lv_core/../lv_font/lv_font.h **** /** Describes the properties of a glyph. */
  46:..\..\..\lvgl\version_6.1.2\lvgl\src\lv_objx\../lv_core/../lv_font/lv_font.h **** typedef struct
  47:..\..\..\lvgl\version_6.1.2\lvgl\src\lv_objx\../lv_core/../lv_font/lv_font.h **** {
  48:..\..\..\lvgl\version_6.1.2\lvgl\src\lv_objx\../lv_core/../lv_font/lv_font.h ****     uint16_t adv_w; /**< The glyph needs this space. Draw the next glyph after this width. 8 bit in
  49:..\..\..\lvgl\version_6.1.2\lvgl\src\lv_objx\../lv_core/../lv_font/lv_font.h ****     uint8_t box_w;  /**< Width of the glyph's bounding box*/
  50:..\..\..\lvgl\version_6.1.2\lvgl\src\lv_objx\../lv_core/../lv_font/lv_font.h ****     uint8_t box_h;  /**< Height of the glyph's bounding box*/
  51:..\..\..\lvgl\version_6.1.2\lvgl\src\lv_objx\../lv_core/../lv_font/lv_font.h ****     int8_t ofs_x;   /**< x offset of the bounding box*/
  52:..\..\..\lvgl\version_6.1.2\lvgl\src\lv_objx\../lv_core/../lv_font/lv_font.h ****     int8_t ofs_y;  /**< y offset of the bounding box*/
  53:..\..\..\lvgl\version_6.1.2\lvgl\src\lv_objx\../lv_core/../lv_font/lv_font.h ****     uint8_t bpp;   /**< Bit-per-pixel: 1, 2, 4, 8*/
  54:..\..\..\lvgl\version_6.1.2\lvgl\src\lv_objx\../lv_core/../lv_font/lv_font.h **** }lv_font_glyph_dsc_t;
  55:..\..\..\lvgl\version_6.1.2\lvgl\src\lv_objx\../lv_core/../lv_font/lv_font.h **** 
  56:..\..\..\lvgl\version_6.1.2\lvgl\src\lv_objx\../lv_core/../lv_font/lv_font.h **** 
  57:..\..\..\lvgl\version_6.1.2\lvgl\src\lv_objx\../lv_core/../lv_font/lv_font.h **** /** The bitmaps might be upscaled by 3 to achieve subpixel rendering. */
  58:..\..\..\lvgl\version_6.1.2\lvgl\src\lv_objx\../lv_core/../lv_font/lv_font.h **** enum {
  59:..\..\..\lvgl\version_6.1.2\lvgl\src\lv_objx\../lv_core/../lv_font/lv_font.h ****     LV_FONT_SUBPX_NONE,
  60:..\..\..\lvgl\version_6.1.2\lvgl\src\lv_objx\../lv_core/../lv_font/lv_font.h ****     LV_FONT_SUBPX_HOR,
  61:..\..\..\lvgl\version_6.1.2\lvgl\src\lv_objx\../lv_core/../lv_font/lv_font.h ****     LV_FONT_SUBPX_VER,
  62:..\..\..\lvgl\version_6.1.2\lvgl\src\lv_objx\../lv_core/../lv_font/lv_font.h ****     LV_FONT_SUBPX_BOTH,
  63:..\..\..\lvgl\version_6.1.2\lvgl\src\lv_objx\../lv_core/../lv_font/lv_font.h **** };
  64:..\..\..\lvgl\version_6.1.2\lvgl\src\lv_objx\../lv_core/../lv_font/lv_font.h **** 
  65:..\..\..\lvgl\version_6.1.2\lvgl\src\lv_objx\../lv_core/../lv_font/lv_font.h **** typedef uint8_t lv_font_subpx_t;
  66:..\..\..\lvgl\version_6.1.2\lvgl\src\lv_objx\../lv_core/../lv_font/lv_font.h **** 
  67:..\..\..\lvgl\version_6.1.2\lvgl\src\lv_objx\../lv_core/../lv_font/lv_font.h **** /** Describe the properties of a font*/
  68:..\..\..\lvgl\version_6.1.2\lvgl\src\lv_objx\../lv_core/../lv_font/lv_font.h **** typedef struct _lv_font_struct
  69:..\..\..\lvgl\version_6.1.2\lvgl\src\lv_objx\../lv_core/../lv_font/lv_font.h **** {
  70:..\..\..\lvgl\version_6.1.2\lvgl\src\lv_objx\../lv_core/../lv_font/lv_font.h ****     /** Get a glyph's  descriptor from a font*/
  71:..\..\..\lvgl\version_6.1.2\lvgl\src\lv_objx\../lv_core/../lv_font/lv_font.h ****     bool (*get_glyph_dsc)(const struct _lv_font_struct *, lv_font_glyph_dsc_t *, uint32_t letter, u
  72:..\..\..\lvgl\version_6.1.2\lvgl\src\lv_objx\../lv_core/../lv_font/lv_font.h **** 
  73:..\..\..\lvgl\version_6.1.2\lvgl\src\lv_objx\../lv_core/../lv_font/lv_font.h ****     /** Get a glyph's bitmap from a font*/
  74:..\..\..\lvgl\version_6.1.2\lvgl\src\lv_objx\../lv_core/../lv_font/lv_font.h ****     const uint8_t * (*get_glyph_bitmap)(const struct _lv_font_struct *, uint32_t);
  75:..\..\..\lvgl\version_6.1.2\lvgl\src\lv_objx\../lv_core/../lv_font/lv_font.h **** 
  76:..\..\..\lvgl\version_6.1.2\lvgl\src\lv_objx\../lv_core/../lv_font/lv_font.h ****     /*Pointer to the font in a font pack (must have the same line height)*/
  77:..\..\..\lvgl\version_6.1.2\lvgl\src\lv_objx\../lv_core/../lv_font/lv_font.h ****     uint8_t line_height;      /**< The real line height where any text fits*/
  78:..\..\..\lvgl\version_6.1.2\lvgl\src\lv_objx\../lv_core/../lv_font/lv_font.h ****     int8_t base_line;        /**< Base line measured from the top of the line_height*/
  79:..\..\..\lvgl\version_6.1.2\lvgl\src\lv_objx\../lv_core/../lv_font/lv_font.h ****     uint8_t subpx  :2;        /**< An element of `lv_font_subpx_t`*/
  80:..\..\..\lvgl\version_6.1.2\lvgl\src\lv_objx\../lv_core/../lv_font/lv_font.h ****     void * dsc;               /**< Store implementation specific or run_time data or caching here*/
  81:..\..\..\lvgl\version_6.1.2\lvgl\src\lv_objx\../lv_core/../lv_font/lv_font.h **** #if LV_USE_USER_DATA
  82:..\..\..\lvgl\version_6.1.2\lvgl\src\lv_objx\../lv_core/../lv_font/lv_font.h ****     lv_font_user_data_t user_data; /**< Custom user data for font. */
  83:..\..\..\lvgl\version_6.1.2\lvgl\src\lv_objx\../lv_core/../lv_font/lv_font.h **** #endif
  84:..\..\..\lvgl\version_6.1.2\lvgl\src\lv_objx\../lv_core/../lv_font/lv_font.h **** 
  85:..\..\..\lvgl\version_6.1.2\lvgl\src\lv_objx\../lv_core/../lv_font/lv_font.h **** 
  86:..\..\..\lvgl\version_6.1.2\lvgl\src\lv_objx\../lv_core/../lv_font/lv_font.h **** } lv_font_t;
  87:..\..\..\lvgl\version_6.1.2\lvgl\src\lv_objx\../lv_core/../lv_font/lv_font.h **** 
ARM GAS  C:\Users\tmj32\AppData\Local\Temp\ccaMKuwb.s 			page 3


  88:..\..\..\lvgl\version_6.1.2\lvgl\src\lv_objx\../lv_core/../lv_font/lv_font.h **** /**********************
  89:..\..\..\lvgl\version_6.1.2\lvgl\src\lv_objx\../lv_core/../lv_font/lv_font.h ****  * GLOBAL PROTOTYPES
  90:..\..\..\lvgl\version_6.1.2\lvgl\src\lv_objx\../lv_core/../lv_font/lv_font.h ****  **********************/
  91:..\..\..\lvgl\version_6.1.2\lvgl\src\lv_objx\../lv_core/../lv_font/lv_font.h **** 
  92:..\..\..\lvgl\version_6.1.2\lvgl\src\lv_objx\../lv_core/../lv_font/lv_font.h **** /**
  93:..\..\..\lvgl\version_6.1.2\lvgl\src\lv_objx\../lv_core/../lv_font/lv_font.h ****  * Return with the bitmap of a font.
  94:..\..\..\lvgl\version_6.1.2\lvgl\src\lv_objx\../lv_core/../lv_font/lv_font.h ****  * @param font_p pointer to a font
  95:..\..\..\lvgl\version_6.1.2\lvgl\src\lv_objx\../lv_core/../lv_font/lv_font.h ****  * @param letter an UNICODE character code
  96:..\..\..\lvgl\version_6.1.2\lvgl\src\lv_objx\../lv_core/../lv_font/lv_font.h ****  * @return  pointer to the bitmap of the letter
  97:..\..\..\lvgl\version_6.1.2\lvgl\src\lv_objx\../lv_core/../lv_font/lv_font.h ****  */
  98:..\..\..\lvgl\version_6.1.2\lvgl\src\lv_objx\../lv_core/../lv_font/lv_font.h **** const uint8_t * lv_font_get_glyph_bitmap(const lv_font_t * font_p, uint32_t letter);
  99:..\..\..\lvgl\version_6.1.2\lvgl\src\lv_objx\../lv_core/../lv_font/lv_font.h **** 
 100:..\..\..\lvgl\version_6.1.2\lvgl\src\lv_objx\../lv_core/../lv_font/lv_font.h **** /**
 101:..\..\..\lvgl\version_6.1.2\lvgl\src\lv_objx\../lv_core/../lv_font/lv_font.h ****  * Get the descriptor of a glyph
 102:..\..\..\lvgl\version_6.1.2\lvgl\src\lv_objx\../lv_core/../lv_font/lv_font.h ****  * @param font_p pointer to font
 103:..\..\..\lvgl\version_6.1.2\lvgl\src\lv_objx\../lv_core/../lv_font/lv_font.h ****  * @param dsc_out store the result descriptor here
 104:..\..\..\lvgl\version_6.1.2\lvgl\src\lv_objx\../lv_core/../lv_font/lv_font.h ****  * @param letter an UNICODE letter code
 105:..\..\..\lvgl\version_6.1.2\lvgl\src\lv_objx\../lv_core/../lv_font/lv_font.h ****  * @return true: descriptor is successfully loaded into `dsc_out`.
 106:..\..\..\lvgl\version_6.1.2\lvgl\src\lv_objx\../lv_core/../lv_font/lv_font.h ****  *         false: the letter was not found, no data is loaded to `dsc_out`
 107:..\..\..\lvgl\version_6.1.2\lvgl\src\lv_objx\../lv_core/../lv_font/lv_font.h ****  */
 108:..\..\..\lvgl\version_6.1.2\lvgl\src\lv_objx\../lv_core/../lv_font/lv_font.h **** bool lv_font_get_glyph_dsc(const lv_font_t * font_p, lv_font_glyph_dsc_t * dsc_out, uint32_t letter
 109:..\..\..\lvgl\version_6.1.2\lvgl\src\lv_objx\../lv_core/../lv_font/lv_font.h **** 
 110:..\..\..\lvgl\version_6.1.2\lvgl\src\lv_objx\../lv_core/../lv_font/lv_font.h **** /**
 111:..\..\..\lvgl\version_6.1.2\lvgl\src\lv_objx\../lv_core/../lv_font/lv_font.h ****  * Get the width of a glyph with kerning
 112:..\..\..\lvgl\version_6.1.2\lvgl\src\lv_objx\../lv_core/../lv_font/lv_font.h ****  * @param font pointer to a font
 113:..\..\..\lvgl\version_6.1.2\lvgl\src\lv_objx\../lv_core/../lv_font/lv_font.h ****  * @param letter an UNICODE letter
 114:..\..\..\lvgl\version_6.1.2\lvgl\src\lv_objx\../lv_core/../lv_font/lv_font.h ****  * @param letter_next the next letter after `letter`. Used for kerning
 115:..\..\..\lvgl\version_6.1.2\lvgl\src\lv_objx\../lv_core/../lv_font/lv_font.h ****  * @return the width of the glyph
 116:..\..\..\lvgl\version_6.1.2\lvgl\src\lv_objx\../lv_core/../lv_font/lv_font.h ****  */
 117:..\..\..\lvgl\version_6.1.2\lvgl\src\lv_objx\../lv_core/../lv_font/lv_font.h **** uint16_t lv_font_get_glyph_width(const lv_font_t * font, uint32_t letter, uint32_t letter_next);
 118:..\..\..\lvgl\version_6.1.2\lvgl\src\lv_objx\../lv_core/../lv_font/lv_font.h **** 
 119:..\..\..\lvgl\version_6.1.2\lvgl\src\lv_objx\../lv_core/../lv_font/lv_font.h **** /**
 120:..\..\..\lvgl\version_6.1.2\lvgl\src\lv_objx\../lv_core/../lv_font/lv_font.h ****  * Get the line height of a font. All characters fit into this height
 121:..\..\..\lvgl\version_6.1.2\lvgl\src\lv_objx\../lv_core/../lv_font/lv_font.h ****  * @param font_p pointer to a font
 122:..\..\..\lvgl\version_6.1.2\lvgl\src\lv_objx\../lv_core/../lv_font/lv_font.h ****  * @return the height of a font
 123:..\..\..\lvgl\version_6.1.2\lvgl\src\lv_objx\../lv_core/../lv_font/lv_font.h ****  */
 124:..\..\..\lvgl\version_6.1.2\lvgl\src\lv_objx\../lv_core/../lv_font/lv_font.h **** static inline uint8_t lv_font_get_line_height(const lv_font_t * font_p)
 125:..\..\..\lvgl\version_6.1.2\lvgl\src\lv_objx\../lv_core/../lv_font/lv_font.h **** {
  28              		.loc 1 125 0
  29              		.cfi_startproc
  30              		@ args = 0, pretend = 0, frame = 8
  31              		@ frame_needed = 1, uses_anonymous_args = 0
  32              		@ link register save eliminated.
  33 0000 80B4     		push	{r7}
  34              		.cfi_def_cfa_offset 4
  35              		.cfi_offset 7, -4
  36 0002 83B0     		sub	sp, sp, #12
  37              		.cfi_def_cfa_offset 16
  38 0004 00AF     		add	r7, sp, #0
  39              		.cfi_def_cfa_register 7
  40 0006 7860     		str	r0, [r7, #4]
 126:..\..\..\lvgl\version_6.1.2\lvgl\src\lv_objx\../lv_core/../lv_font/lv_font.h ****     return font_p->line_height;
  41              		.loc 1 126 0
  42 0008 7B68     		ldr	r3, [r7, #4]
  43 000a 1B7A     		ldrb	r3, [r3, #8]	@ zero_extendqisi2
 127:..\..\..\lvgl\version_6.1.2\lvgl\src\lv_objx\../lv_core/../lv_font/lv_font.h **** }
  44              		.loc 1 127 0
ARM GAS  C:\Users\tmj32\AppData\Local\Temp\ccaMKuwb.s 			page 4


  45 000c 1846     		mov	r0, r3
  46 000e 0C37     		adds	r7, r7, #12
  47              		.cfi_def_cfa_offset 4
  48 0010 BD46     		mov	sp, r7
  49              		.cfi_def_cfa_register 13
  50              		@ sp needed
  51 0012 5DF8047B 		ldr	r7, [sp], #4
  52              		.cfi_restore 7
  53              		.cfi_def_cfa_offset 0
  54 0016 7047     		bx	lr
  55              		.cfi_endproc
  56              	.LFE0:
  57              		.size	lv_font_get_line_height, .-lv_font_get_line_height
  58              		.section	.text.lv_imgbtn_get_state,"ax",%progbits
  59              		.align	2
  60              		.thumb
  61              		.thumb_func
  62              		.type	lv_imgbtn_get_state, %function
  63              	lv_imgbtn_get_state:
  64              	.LFB47:
  65              		.file 2 "..\\..\\..\\lvgl\\version_6.1.2\\lvgl\\src\\lv_objx\\lv_imgbtn.h"
   1:..\..\..\lvgl\version_6.1.2\lvgl\src\lv_objx/lv_imgbtn.h **** /**
   2:..\..\..\lvgl\version_6.1.2\lvgl\src\lv_objx/lv_imgbtn.h ****  * @file lv_imgbtn.h
   3:..\..\..\lvgl\version_6.1.2\lvgl\src\lv_objx/lv_imgbtn.h ****  *
   4:..\..\..\lvgl\version_6.1.2\lvgl\src\lv_objx/lv_imgbtn.h ****  */
   5:..\..\..\lvgl\version_6.1.2\lvgl\src\lv_objx/lv_imgbtn.h **** 
   6:..\..\..\lvgl\version_6.1.2\lvgl\src\lv_objx/lv_imgbtn.h **** #ifndef LV_IMGBTN_H
   7:..\..\..\lvgl\version_6.1.2\lvgl\src\lv_objx/lv_imgbtn.h **** #define LV_IMGBTN_H
   8:..\..\..\lvgl\version_6.1.2\lvgl\src\lv_objx/lv_imgbtn.h **** 
   9:..\..\..\lvgl\version_6.1.2\lvgl\src\lv_objx/lv_imgbtn.h **** #ifdef __cplusplus
  10:..\..\..\lvgl\version_6.1.2\lvgl\src\lv_objx/lv_imgbtn.h **** extern "C" {
  11:..\..\..\lvgl\version_6.1.2\lvgl\src\lv_objx/lv_imgbtn.h **** #endif
  12:..\..\..\lvgl\version_6.1.2\lvgl\src\lv_objx/lv_imgbtn.h **** 
  13:..\..\..\lvgl\version_6.1.2\lvgl\src\lv_objx/lv_imgbtn.h **** /*********************
  14:..\..\..\lvgl\version_6.1.2\lvgl\src\lv_objx/lv_imgbtn.h ****  *      INCLUDES
  15:..\..\..\lvgl\version_6.1.2\lvgl\src\lv_objx/lv_imgbtn.h ****  *********************/
  16:..\..\..\lvgl\version_6.1.2\lvgl\src\lv_objx/lv_imgbtn.h **** #ifdef LV_CONF_INCLUDE_SIMPLE
  17:..\..\..\lvgl\version_6.1.2\lvgl\src\lv_objx/lv_imgbtn.h **** #include "lv_conf.h"
  18:..\..\..\lvgl\version_6.1.2\lvgl\src\lv_objx/lv_imgbtn.h **** #else
  19:..\..\..\lvgl\version_6.1.2\lvgl\src\lv_objx/lv_imgbtn.h **** #include "../../../lv_conf.h"
  20:..\..\..\lvgl\version_6.1.2\lvgl\src\lv_objx/lv_imgbtn.h **** #endif
  21:..\..\..\lvgl\version_6.1.2\lvgl\src\lv_objx/lv_imgbtn.h **** 
  22:..\..\..\lvgl\version_6.1.2\lvgl\src\lv_objx/lv_imgbtn.h **** #if LV_USE_IMGBTN != 0
  23:..\..\..\lvgl\version_6.1.2\lvgl\src\lv_objx/lv_imgbtn.h **** 
  24:..\..\..\lvgl\version_6.1.2\lvgl\src\lv_objx/lv_imgbtn.h **** /*Testing of dependencies*/
  25:..\..\..\lvgl\version_6.1.2\lvgl\src\lv_objx/lv_imgbtn.h **** #if LV_USE_BTN == 0
  26:..\..\..\lvgl\version_6.1.2\lvgl\src\lv_objx/lv_imgbtn.h **** #error "lv_imgbtn: lv_btn is required. Enable it in lv_conf.h (LV_USE_BTN  1) "
  27:..\..\..\lvgl\version_6.1.2\lvgl\src\lv_objx/lv_imgbtn.h **** #endif
  28:..\..\..\lvgl\version_6.1.2\lvgl\src\lv_objx/lv_imgbtn.h **** 
  29:..\..\..\lvgl\version_6.1.2\lvgl\src\lv_objx/lv_imgbtn.h **** #include "../lv_core/lv_obj.h"
  30:..\..\..\lvgl\version_6.1.2\lvgl\src\lv_objx/lv_imgbtn.h **** #include "lv_btn.h"
  31:..\..\..\lvgl\version_6.1.2\lvgl\src\lv_objx/lv_imgbtn.h **** #include "../lv_draw/lv_draw_img.h"
  32:..\..\..\lvgl\version_6.1.2\lvgl\src\lv_objx/lv_imgbtn.h **** 
  33:..\..\..\lvgl\version_6.1.2\lvgl\src\lv_objx/lv_imgbtn.h **** /*********************
  34:..\..\..\lvgl\version_6.1.2\lvgl\src\lv_objx/lv_imgbtn.h ****  *      DEFINES
  35:..\..\..\lvgl\version_6.1.2\lvgl\src\lv_objx/lv_imgbtn.h ****  *********************/
  36:..\..\..\lvgl\version_6.1.2\lvgl\src\lv_objx/lv_imgbtn.h **** 
ARM GAS  C:\Users\tmj32\AppData\Local\Temp\ccaMKuwb.s 			page 5


  37:..\..\..\lvgl\version_6.1.2\lvgl\src\lv_objx/lv_imgbtn.h **** /**********************
  38:..\..\..\lvgl\version_6.1.2\lvgl\src\lv_objx/lv_imgbtn.h ****  *      TYPEDEFS
  39:..\..\..\lvgl\version_6.1.2\lvgl\src\lv_objx/lv_imgbtn.h ****  **********************/
  40:..\..\..\lvgl\version_6.1.2\lvgl\src\lv_objx/lv_imgbtn.h **** /*Data of image button*/
  41:..\..\..\lvgl\version_6.1.2\lvgl\src\lv_objx/lv_imgbtn.h **** typedef struct
  42:..\..\..\lvgl\version_6.1.2\lvgl\src\lv_objx/lv_imgbtn.h **** {
  43:..\..\..\lvgl\version_6.1.2\lvgl\src\lv_objx/lv_imgbtn.h ****     lv_btn_ext_t btn; /*Ext. of ancestor*/
  44:..\..\..\lvgl\version_6.1.2\lvgl\src\lv_objx/lv_imgbtn.h ****     /*New data for this type */
  45:..\..\..\lvgl\version_6.1.2\lvgl\src\lv_objx/lv_imgbtn.h **** #if LV_IMGBTN_TILED == 0
  46:..\..\..\lvgl\version_6.1.2\lvgl\src\lv_objx/lv_imgbtn.h ****     const void * img_src[_LV_BTN_STATE_NUM]; /*Store images to each state*/
  47:..\..\..\lvgl\version_6.1.2\lvgl\src\lv_objx/lv_imgbtn.h **** #else
  48:..\..\..\lvgl\version_6.1.2\lvgl\src\lv_objx/lv_imgbtn.h ****     const void * img_src_left[_LV_BTN_STATE_NUM];  /*Store left side images to each state*/
  49:..\..\..\lvgl\version_6.1.2\lvgl\src\lv_objx/lv_imgbtn.h ****     const void * img_src_mid[_LV_BTN_STATE_NUM];   /*Store center images to each state*/
  50:..\..\..\lvgl\version_6.1.2\lvgl\src\lv_objx/lv_imgbtn.h ****     const void * img_src_right[_LV_BTN_STATE_NUM]; /*Store right side images to each state*/
  51:..\..\..\lvgl\version_6.1.2\lvgl\src\lv_objx/lv_imgbtn.h **** #endif
  52:..\..\..\lvgl\version_6.1.2\lvgl\src\lv_objx/lv_imgbtn.h ****     lv_img_cf_t act_cf; /*Color format of the currently active image*/
  53:..\..\..\lvgl\version_6.1.2\lvgl\src\lv_objx/lv_imgbtn.h **** } lv_imgbtn_ext_t;
  54:..\..\..\lvgl\version_6.1.2\lvgl\src\lv_objx/lv_imgbtn.h **** 
  55:..\..\..\lvgl\version_6.1.2\lvgl\src\lv_objx/lv_imgbtn.h **** /*Styles*/
  56:..\..\..\lvgl\version_6.1.2\lvgl\src\lv_objx/lv_imgbtn.h **** enum {
  57:..\..\..\lvgl\version_6.1.2\lvgl\src\lv_objx/lv_imgbtn.h ****     LV_IMGBTN_STYLE_REL, /**< Same meaning as ordinary button styles. */
  58:..\..\..\lvgl\version_6.1.2\lvgl\src\lv_objx/lv_imgbtn.h ****     LV_IMGBTN_STYLE_PR,
  59:..\..\..\lvgl\version_6.1.2\lvgl\src\lv_objx/lv_imgbtn.h ****     LV_IMGBTN_STYLE_TGL_REL,
  60:..\..\..\lvgl\version_6.1.2\lvgl\src\lv_objx/lv_imgbtn.h ****     LV_IMGBTN_STYLE_TGL_PR,
  61:..\..\..\lvgl\version_6.1.2\lvgl\src\lv_objx/lv_imgbtn.h ****     LV_IMGBTN_STYLE_INA,
  62:..\..\..\lvgl\version_6.1.2\lvgl\src\lv_objx/lv_imgbtn.h **** };
  63:..\..\..\lvgl\version_6.1.2\lvgl\src\lv_objx/lv_imgbtn.h **** typedef uint8_t lv_imgbtn_style_t;
  64:..\..\..\lvgl\version_6.1.2\lvgl\src\lv_objx/lv_imgbtn.h **** 
  65:..\..\..\lvgl\version_6.1.2\lvgl\src\lv_objx/lv_imgbtn.h **** /**********************
  66:..\..\..\lvgl\version_6.1.2\lvgl\src\lv_objx/lv_imgbtn.h ****  * GLOBAL PROTOTYPES
  67:..\..\..\lvgl\version_6.1.2\lvgl\src\lv_objx/lv_imgbtn.h ****  **********************/
  68:..\..\..\lvgl\version_6.1.2\lvgl\src\lv_objx/lv_imgbtn.h **** 
  69:..\..\..\lvgl\version_6.1.2\lvgl\src\lv_objx/lv_imgbtn.h **** /**
  70:..\..\..\lvgl\version_6.1.2\lvgl\src\lv_objx/lv_imgbtn.h ****  * Create a image button objects
  71:..\..\..\lvgl\version_6.1.2\lvgl\src\lv_objx/lv_imgbtn.h ****  * @param par pointer to an object, it will be the parent of the new image button
  72:..\..\..\lvgl\version_6.1.2\lvgl\src\lv_objx/lv_imgbtn.h ****  * @param copy pointer to a image button object, if not NULL then the new object will be copied fro
  73:..\..\..\lvgl\version_6.1.2\lvgl\src\lv_objx/lv_imgbtn.h ****  * it
  74:..\..\..\lvgl\version_6.1.2\lvgl\src\lv_objx/lv_imgbtn.h ****  * @return pointer to the created image button
  75:..\..\..\lvgl\version_6.1.2\lvgl\src\lv_objx/lv_imgbtn.h ****  */
  76:..\..\..\lvgl\version_6.1.2\lvgl\src\lv_objx/lv_imgbtn.h **** lv_obj_t * lv_imgbtn_create(lv_obj_t * par, const lv_obj_t * copy);
  77:..\..\..\lvgl\version_6.1.2\lvgl\src\lv_objx/lv_imgbtn.h **** 
  78:..\..\..\lvgl\version_6.1.2\lvgl\src\lv_objx/lv_imgbtn.h **** /*======================
  79:..\..\..\lvgl\version_6.1.2\lvgl\src\lv_objx/lv_imgbtn.h ****  * Add/remove functions
  80:..\..\..\lvgl\version_6.1.2\lvgl\src\lv_objx/lv_imgbtn.h ****  *=====================*/
  81:..\..\..\lvgl\version_6.1.2\lvgl\src\lv_objx/lv_imgbtn.h **** 
  82:..\..\..\lvgl\version_6.1.2\lvgl\src\lv_objx/lv_imgbtn.h **** /*=====================
  83:..\..\..\lvgl\version_6.1.2\lvgl\src\lv_objx/lv_imgbtn.h ****  * Setter functions
  84:..\..\..\lvgl\version_6.1.2\lvgl\src\lv_objx/lv_imgbtn.h ****  *====================*/
  85:..\..\..\lvgl\version_6.1.2\lvgl\src\lv_objx/lv_imgbtn.h **** 
  86:..\..\..\lvgl\version_6.1.2\lvgl\src\lv_objx/lv_imgbtn.h **** #if LV_IMGBTN_TILED == 0
  87:..\..\..\lvgl\version_6.1.2\lvgl\src\lv_objx/lv_imgbtn.h **** /**
  88:..\..\..\lvgl\version_6.1.2\lvgl\src\lv_objx/lv_imgbtn.h ****  * Set images for a state of the image button
  89:..\..\..\lvgl\version_6.1.2\lvgl\src\lv_objx/lv_imgbtn.h ****  * @param imgbtn pointer to an image button object
  90:..\..\..\lvgl\version_6.1.2\lvgl\src\lv_objx/lv_imgbtn.h ****  * @param state for which state set the new image (from `lv_btn_state_t`) `
  91:..\..\..\lvgl\version_6.1.2\lvgl\src\lv_objx/lv_imgbtn.h ****  * @param src pointer to an image source (a C array or path to a file)
  92:..\..\..\lvgl\version_6.1.2\lvgl\src\lv_objx/lv_imgbtn.h ****  */
  93:..\..\..\lvgl\version_6.1.2\lvgl\src\lv_objx/lv_imgbtn.h **** void lv_imgbtn_set_src(lv_obj_t * imgbtn, lv_btn_state_t state, const void * src);
ARM GAS  C:\Users\tmj32\AppData\Local\Temp\ccaMKuwb.s 			page 6


  94:..\..\..\lvgl\version_6.1.2\lvgl\src\lv_objx/lv_imgbtn.h **** #else
  95:..\..\..\lvgl\version_6.1.2\lvgl\src\lv_objx/lv_imgbtn.h **** /**
  96:..\..\..\lvgl\version_6.1.2\lvgl\src\lv_objx/lv_imgbtn.h ****  * Set images for a state of the image button
  97:..\..\..\lvgl\version_6.1.2\lvgl\src\lv_objx/lv_imgbtn.h ****  * @param imgbtn pointer to an image button object
  98:..\..\..\lvgl\version_6.1.2\lvgl\src\lv_objx/lv_imgbtn.h ****  * @param state for which state set the new image (from `lv_btn_state_t`) `
  99:..\..\..\lvgl\version_6.1.2\lvgl\src\lv_objx/lv_imgbtn.h ****  * @param src_left pointer to an image source for the left side of the button (a C array or path to
 100:..\..\..\lvgl\version_6.1.2\lvgl\src\lv_objx/lv_imgbtn.h ****  * a file)
 101:..\..\..\lvgl\version_6.1.2\lvgl\src\lv_objx/lv_imgbtn.h ****  * @param src_mid pointer to an image source for the middle of the button (ideally 1px wide) (a C
 102:..\..\..\lvgl\version_6.1.2\lvgl\src\lv_objx/lv_imgbtn.h ****  * array or path to a file)
 103:..\..\..\lvgl\version_6.1.2\lvgl\src\lv_objx/lv_imgbtn.h ****  * @param src_right pointer to an image source for the right side of the button (a C array or path
 104:..\..\..\lvgl\version_6.1.2\lvgl\src\lv_objx/lv_imgbtn.h ****  * to a file)
 105:..\..\..\lvgl\version_6.1.2\lvgl\src\lv_objx/lv_imgbtn.h ****  */
 106:..\..\..\lvgl\version_6.1.2\lvgl\src\lv_objx/lv_imgbtn.h **** void lv_imgbtn_set_src(lv_obj_t * imgbtn, lv_btn_state_t state, const void * src_left, const void *
 107:..\..\..\lvgl\version_6.1.2\lvgl\src\lv_objx/lv_imgbtn.h ****                        const void * src_right);
 108:..\..\..\lvgl\version_6.1.2\lvgl\src\lv_objx/lv_imgbtn.h **** 
 109:..\..\..\lvgl\version_6.1.2\lvgl\src\lv_objx/lv_imgbtn.h **** #endif
 110:..\..\..\lvgl\version_6.1.2\lvgl\src\lv_objx/lv_imgbtn.h **** 
 111:..\..\..\lvgl\version_6.1.2\lvgl\src\lv_objx/lv_imgbtn.h **** /**
 112:..\..\..\lvgl\version_6.1.2\lvgl\src\lv_objx/lv_imgbtn.h ****  * Enable the toggled states. On release the button will change from/to toggled state.
 113:..\..\..\lvgl\version_6.1.2\lvgl\src\lv_objx/lv_imgbtn.h ****  * @param imgbtn pointer to an image button object
 114:..\..\..\lvgl\version_6.1.2\lvgl\src\lv_objx/lv_imgbtn.h ****  * @param tgl true: enable toggled states, false: disable
 115:..\..\..\lvgl\version_6.1.2\lvgl\src\lv_objx/lv_imgbtn.h ****  */
 116:..\..\..\lvgl\version_6.1.2\lvgl\src\lv_objx/lv_imgbtn.h **** static inline void lv_imgbtn_set_toggle(lv_obj_t * imgbtn, bool tgl)
 117:..\..\..\lvgl\version_6.1.2\lvgl\src\lv_objx/lv_imgbtn.h **** {
 118:..\..\..\lvgl\version_6.1.2\lvgl\src\lv_objx/lv_imgbtn.h ****     lv_btn_set_toggle(imgbtn, tgl);
 119:..\..\..\lvgl\version_6.1.2\lvgl\src\lv_objx/lv_imgbtn.h **** }
 120:..\..\..\lvgl\version_6.1.2\lvgl\src\lv_objx/lv_imgbtn.h **** 
 121:..\..\..\lvgl\version_6.1.2\lvgl\src\lv_objx/lv_imgbtn.h **** /**
 122:..\..\..\lvgl\version_6.1.2\lvgl\src\lv_objx/lv_imgbtn.h ****  * Set the state of the image button
 123:..\..\..\lvgl\version_6.1.2\lvgl\src\lv_objx/lv_imgbtn.h ****  * @param imgbtn pointer to an image button object
 124:..\..\..\lvgl\version_6.1.2\lvgl\src\lv_objx/lv_imgbtn.h ****  * @param state the new state of the button (from lv_btn_state_t enum)
 125:..\..\..\lvgl\version_6.1.2\lvgl\src\lv_objx/lv_imgbtn.h ****  */
 126:..\..\..\lvgl\version_6.1.2\lvgl\src\lv_objx/lv_imgbtn.h **** static inline void lv_imgbtn_set_state(lv_obj_t * imgbtn, lv_btn_state_t state)
 127:..\..\..\lvgl\version_6.1.2\lvgl\src\lv_objx/lv_imgbtn.h **** {
 128:..\..\..\lvgl\version_6.1.2\lvgl\src\lv_objx/lv_imgbtn.h ****     lv_btn_set_state(imgbtn, state);
 129:..\..\..\lvgl\version_6.1.2\lvgl\src\lv_objx/lv_imgbtn.h **** }
 130:..\..\..\lvgl\version_6.1.2\lvgl\src\lv_objx/lv_imgbtn.h **** 
 131:..\..\..\lvgl\version_6.1.2\lvgl\src\lv_objx/lv_imgbtn.h **** /**
 132:..\..\..\lvgl\version_6.1.2\lvgl\src\lv_objx/lv_imgbtn.h ****  * Toggle the state of the image button (ON->OFF, OFF->ON)
 133:..\..\..\lvgl\version_6.1.2\lvgl\src\lv_objx/lv_imgbtn.h ****  * @param imgbtn pointer to a image button object
 134:..\..\..\lvgl\version_6.1.2\lvgl\src\lv_objx/lv_imgbtn.h ****  */
 135:..\..\..\lvgl\version_6.1.2\lvgl\src\lv_objx/lv_imgbtn.h **** static inline void lv_imgbtn_toggle(lv_obj_t * imgbtn)
 136:..\..\..\lvgl\version_6.1.2\lvgl\src\lv_objx/lv_imgbtn.h **** {
 137:..\..\..\lvgl\version_6.1.2\lvgl\src\lv_objx/lv_imgbtn.h ****     lv_btn_toggle(imgbtn);
 138:..\..\..\lvgl\version_6.1.2\lvgl\src\lv_objx/lv_imgbtn.h **** }
 139:..\..\..\lvgl\version_6.1.2\lvgl\src\lv_objx/lv_imgbtn.h **** 
 140:..\..\..\lvgl\version_6.1.2\lvgl\src\lv_objx/lv_imgbtn.h **** /**
 141:..\..\..\lvgl\version_6.1.2\lvgl\src\lv_objx/lv_imgbtn.h ****  * Set a style of a image button.
 142:..\..\..\lvgl\version_6.1.2\lvgl\src\lv_objx/lv_imgbtn.h ****  * @param imgbtn pointer to image button object
 143:..\..\..\lvgl\version_6.1.2\lvgl\src\lv_objx/lv_imgbtn.h ****  * @param type which style should be set
 144:..\..\..\lvgl\version_6.1.2\lvgl\src\lv_objx/lv_imgbtn.h ****  * @param style pointer to a style
 145:..\..\..\lvgl\version_6.1.2\lvgl\src\lv_objx/lv_imgbtn.h ****  */
 146:..\..\..\lvgl\version_6.1.2\lvgl\src\lv_objx/lv_imgbtn.h **** void lv_imgbtn_set_style(lv_obj_t * imgbtn, lv_imgbtn_style_t type, const lv_style_t * style);
 147:..\..\..\lvgl\version_6.1.2\lvgl\src\lv_objx/lv_imgbtn.h **** 
 148:..\..\..\lvgl\version_6.1.2\lvgl\src\lv_objx/lv_imgbtn.h **** /*=====================
 149:..\..\..\lvgl\version_6.1.2\lvgl\src\lv_objx/lv_imgbtn.h ****  * Getter functions
 150:..\..\..\lvgl\version_6.1.2\lvgl\src\lv_objx/lv_imgbtn.h ****  *====================*/
ARM GAS  C:\Users\tmj32\AppData\Local\Temp\ccaMKuwb.s 			page 7


 151:..\..\..\lvgl\version_6.1.2\lvgl\src\lv_objx/lv_imgbtn.h **** 
 152:..\..\..\lvgl\version_6.1.2\lvgl\src\lv_objx/lv_imgbtn.h **** #if LV_IMGBTN_TILED == 0
 153:..\..\..\lvgl\version_6.1.2\lvgl\src\lv_objx/lv_imgbtn.h **** /**
 154:..\..\..\lvgl\version_6.1.2\lvgl\src\lv_objx/lv_imgbtn.h ****  * Get the images in a  given state
 155:..\..\..\lvgl\version_6.1.2\lvgl\src\lv_objx/lv_imgbtn.h ****  * @param imgbtn pointer to an image button object
 156:..\..\..\lvgl\version_6.1.2\lvgl\src\lv_objx/lv_imgbtn.h ****  * @param state the state where to get the image (from `lv_btn_state_t`) `
 157:..\..\..\lvgl\version_6.1.2\lvgl\src\lv_objx/lv_imgbtn.h ****  * @return pointer to an image source (a C array or path to a file)
 158:..\..\..\lvgl\version_6.1.2\lvgl\src\lv_objx/lv_imgbtn.h ****  */
 159:..\..\..\lvgl\version_6.1.2\lvgl\src\lv_objx/lv_imgbtn.h **** const void * lv_imgbtn_get_src(lv_obj_t * imgbtn, lv_btn_state_t state);
 160:..\..\..\lvgl\version_6.1.2\lvgl\src\lv_objx/lv_imgbtn.h **** 
 161:..\..\..\lvgl\version_6.1.2\lvgl\src\lv_objx/lv_imgbtn.h **** #else
 162:..\..\..\lvgl\version_6.1.2\lvgl\src\lv_objx/lv_imgbtn.h **** 
 163:..\..\..\lvgl\version_6.1.2\lvgl\src\lv_objx/lv_imgbtn.h **** /**
 164:..\..\..\lvgl\version_6.1.2\lvgl\src\lv_objx/lv_imgbtn.h ****  * Get the left image in a given state
 165:..\..\..\lvgl\version_6.1.2\lvgl\src\lv_objx/lv_imgbtn.h ****  * @param imgbtn pointer to an image button object
 166:..\..\..\lvgl\version_6.1.2\lvgl\src\lv_objx/lv_imgbtn.h ****  * @param state the state where to get the image (from `lv_btn_state_t`) `
 167:..\..\..\lvgl\version_6.1.2\lvgl\src\lv_objx/lv_imgbtn.h ****  * @return pointer to the left image source (a C array or path to a file)
 168:..\..\..\lvgl\version_6.1.2\lvgl\src\lv_objx/lv_imgbtn.h ****  */
 169:..\..\..\lvgl\version_6.1.2\lvgl\src\lv_objx/lv_imgbtn.h **** const void * lv_imgbtn_get_src_left(lv_obj_t * imgbtn, lv_btn_state_t state);
 170:..\..\..\lvgl\version_6.1.2\lvgl\src\lv_objx/lv_imgbtn.h **** 
 171:..\..\..\lvgl\version_6.1.2\lvgl\src\lv_objx/lv_imgbtn.h **** /**
 172:..\..\..\lvgl\version_6.1.2\lvgl\src\lv_objx/lv_imgbtn.h ****  * Get the middle image in a given state
 173:..\..\..\lvgl\version_6.1.2\lvgl\src\lv_objx/lv_imgbtn.h ****  * @param imgbtn pointer to an image button object
 174:..\..\..\lvgl\version_6.1.2\lvgl\src\lv_objx/lv_imgbtn.h ****  * @param state the state where to get the image (from `lv_btn_state_t`) `
 175:..\..\..\lvgl\version_6.1.2\lvgl\src\lv_objx/lv_imgbtn.h ****  * @return pointer to the middle image source (a C array or path to a file)
 176:..\..\..\lvgl\version_6.1.2\lvgl\src\lv_objx/lv_imgbtn.h ****  */
 177:..\..\..\lvgl\version_6.1.2\lvgl\src\lv_objx/lv_imgbtn.h **** const void * lv_imgbtn_get_src_middle(lv_obj_t * imgbtn, lv_btn_state_t state);
 178:..\..\..\lvgl\version_6.1.2\lvgl\src\lv_objx/lv_imgbtn.h **** 
 179:..\..\..\lvgl\version_6.1.2\lvgl\src\lv_objx/lv_imgbtn.h **** /**
 180:..\..\..\lvgl\version_6.1.2\lvgl\src\lv_objx/lv_imgbtn.h ****  * Get the right image in a given state
 181:..\..\..\lvgl\version_6.1.2\lvgl\src\lv_objx/lv_imgbtn.h ****  * @param imgbtn pointer to an image button object
 182:..\..\..\lvgl\version_6.1.2\lvgl\src\lv_objx/lv_imgbtn.h ****  * @param state the state where to get the image (from `lv_btn_state_t`) `
 183:..\..\..\lvgl\version_6.1.2\lvgl\src\lv_objx/lv_imgbtn.h ****  * @return pointer to the left image source (a C array or path to a file)
 184:..\..\..\lvgl\version_6.1.2\lvgl\src\lv_objx/lv_imgbtn.h ****  */
 185:..\..\..\lvgl\version_6.1.2\lvgl\src\lv_objx/lv_imgbtn.h **** const void * lv_imgbtn_get_src_right(lv_obj_t * imgbtn, lv_btn_state_t state);
 186:..\..\..\lvgl\version_6.1.2\lvgl\src\lv_objx/lv_imgbtn.h **** 
 187:..\..\..\lvgl\version_6.1.2\lvgl\src\lv_objx/lv_imgbtn.h **** #endif
 188:..\..\..\lvgl\version_6.1.2\lvgl\src\lv_objx/lv_imgbtn.h **** /**
 189:..\..\..\lvgl\version_6.1.2\lvgl\src\lv_objx/lv_imgbtn.h ****  * Get the current state of the image button
 190:..\..\..\lvgl\version_6.1.2\lvgl\src\lv_objx/lv_imgbtn.h ****  * @param imgbtn pointer to a image button object
 191:..\..\..\lvgl\version_6.1.2\lvgl\src\lv_objx/lv_imgbtn.h ****  * @return the state of the button (from lv_btn_state_t enum)
 192:..\..\..\lvgl\version_6.1.2\lvgl\src\lv_objx/lv_imgbtn.h ****  */
 193:..\..\..\lvgl\version_6.1.2\lvgl\src\lv_objx/lv_imgbtn.h **** static inline lv_btn_state_t lv_imgbtn_get_state(const lv_obj_t * imgbtn)
 194:..\..\..\lvgl\version_6.1.2\lvgl\src\lv_objx/lv_imgbtn.h **** {
  66              		.loc 2 194 0
  67              		.cfi_startproc
  68              		@ args = 0, pretend = 0, frame = 8
  69              		@ frame_needed = 1, uses_anonymous_args = 0
  70 0000 80B5     		push	{r7, lr}
  71              		.cfi_def_cfa_offset 8
  72              		.cfi_offset 7, -8
  73              		.cfi_offset 14, -4
  74 0002 82B0     		sub	sp, sp, #8
  75              		.cfi_def_cfa_offset 16
  76 0004 00AF     		add	r7, sp, #0
  77              		.cfi_def_cfa_register 7
  78 0006 7860     		str	r0, [r7, #4]
ARM GAS  C:\Users\tmj32\AppData\Local\Temp\ccaMKuwb.s 			page 8


 195:..\..\..\lvgl\version_6.1.2\lvgl\src\lv_objx/lv_imgbtn.h ****     return lv_btn_get_state(imgbtn);
  79              		.loc 2 195 0
  80 0008 7868     		ldr	r0, [r7, #4]
  81 000a FFF7FEFF 		bl	lv_btn_get_state
  82 000e 0346     		mov	r3, r0
 196:..\..\..\lvgl\version_6.1.2\lvgl\src\lv_objx/lv_imgbtn.h **** }
  83              		.loc 2 196 0
  84 0010 1846     		mov	r0, r3
  85 0012 0837     		adds	r7, r7, #8
  86              		.cfi_def_cfa_offset 8
  87 0014 BD46     		mov	sp, r7
  88              		.cfi_def_cfa_register 13
  89              		@ sp needed
  90 0016 80BD     		pop	{r7, pc}
  91              		.cfi_endproc
  92              	.LFE47:
  93              		.size	lv_imgbtn_get_state, .-lv_imgbtn_get_state
  94              		.bss
  95              		.align	2
  96              	ancestor_signal:
  97 0000 00000000 		.space	4
  98              		.align	2
  99              	ancestor_design:
 100 0004 00000000 		.space	4
 101              		.section	.text.lv_imgbtn_create,"ax",%progbits
 102              		.align	2
 103              		.global	lv_imgbtn_create
 104              		.thumb
 105              		.thumb_func
 106              		.type	lv_imgbtn_create, %function
 107              	lv_imgbtn_create:
 108              	.LFB51:
 109              		.file 3 "..\\..\\..\\lvgl\\version_6.1.2\\lvgl\\src\\lv_objx\\lv_imgbtn.c"
   1:..\..\..\lvgl\version_6.1.2\lvgl\src\lv_objx/lv_imgbtn.c **** /**
   2:..\..\..\lvgl\version_6.1.2\lvgl\src\lv_objx/lv_imgbtn.c ****  * @file lv_imgbtn.c
   3:..\..\..\lvgl\version_6.1.2\lvgl\src\lv_objx/lv_imgbtn.c ****  *
   4:..\..\..\lvgl\version_6.1.2\lvgl\src\lv_objx/lv_imgbtn.c ****  */
   5:..\..\..\lvgl\version_6.1.2\lvgl\src\lv_objx/lv_imgbtn.c **** 
   6:..\..\..\lvgl\version_6.1.2\lvgl\src\lv_objx/lv_imgbtn.c **** /*********************
   7:..\..\..\lvgl\version_6.1.2\lvgl\src\lv_objx/lv_imgbtn.c ****  *      INCLUDES
   8:..\..\..\lvgl\version_6.1.2\lvgl\src\lv_objx/lv_imgbtn.c ****  *********************/
   9:..\..\..\lvgl\version_6.1.2\lvgl\src\lv_objx/lv_imgbtn.c **** 
  10:..\..\..\lvgl\version_6.1.2\lvgl\src\lv_objx/lv_imgbtn.c **** #include "../lv_core/lv_debug.h"
  11:..\..\..\lvgl\version_6.1.2\lvgl\src\lv_objx/lv_imgbtn.c **** #include "lv_imgbtn.h"
  12:..\..\..\lvgl\version_6.1.2\lvgl\src\lv_objx/lv_imgbtn.c **** #include "lv_label.h"
  13:..\..\..\lvgl\version_6.1.2\lvgl\src\lv_objx/lv_imgbtn.c **** 
  14:..\..\..\lvgl\version_6.1.2\lvgl\src\lv_objx/lv_imgbtn.c **** #if LV_USE_IMGBTN != 0
  15:..\..\..\lvgl\version_6.1.2\lvgl\src\lv_objx/lv_imgbtn.c **** 
  16:..\..\..\lvgl\version_6.1.2\lvgl\src\lv_objx/lv_imgbtn.c **** /*********************
  17:..\..\..\lvgl\version_6.1.2\lvgl\src\lv_objx/lv_imgbtn.c ****  *      DEFINES
  18:..\..\..\lvgl\version_6.1.2\lvgl\src\lv_objx/lv_imgbtn.c ****  *********************/
  19:..\..\..\lvgl\version_6.1.2\lvgl\src\lv_objx/lv_imgbtn.c **** #define LV_OBJX_NAME "lv_imgbtn"
  20:..\..\..\lvgl\version_6.1.2\lvgl\src\lv_objx/lv_imgbtn.c **** 
  21:..\..\..\lvgl\version_6.1.2\lvgl\src\lv_objx/lv_imgbtn.c **** /**********************
  22:..\..\..\lvgl\version_6.1.2\lvgl\src\lv_objx/lv_imgbtn.c ****  *      TYPEDEFS
  23:..\..\..\lvgl\version_6.1.2\lvgl\src\lv_objx/lv_imgbtn.c ****  **********************/
  24:..\..\..\lvgl\version_6.1.2\lvgl\src\lv_objx/lv_imgbtn.c **** 
ARM GAS  C:\Users\tmj32\AppData\Local\Temp\ccaMKuwb.s 			page 9


  25:..\..\..\lvgl\version_6.1.2\lvgl\src\lv_objx/lv_imgbtn.c **** /**********************
  26:..\..\..\lvgl\version_6.1.2\lvgl\src\lv_objx/lv_imgbtn.c ****  *  STATIC PROTOTYPES
  27:..\..\..\lvgl\version_6.1.2\lvgl\src\lv_objx/lv_imgbtn.c ****  **********************/
  28:..\..\..\lvgl\version_6.1.2\lvgl\src\lv_objx/lv_imgbtn.c **** static bool lv_imgbtn_design(lv_obj_t * imgbtn, const lv_area_t * mask, lv_design_mode_t mode);
  29:..\..\..\lvgl\version_6.1.2\lvgl\src\lv_objx/lv_imgbtn.c **** static lv_res_t lv_imgbtn_signal(lv_obj_t * imgbtn, lv_signal_t sign, void * param);
  30:..\..\..\lvgl\version_6.1.2\lvgl\src\lv_objx/lv_imgbtn.c **** static void refr_img(lv_obj_t * imgbtn);
  31:..\..\..\lvgl\version_6.1.2\lvgl\src\lv_objx/lv_imgbtn.c **** 
  32:..\..\..\lvgl\version_6.1.2\lvgl\src\lv_objx/lv_imgbtn.c **** /**********************
  33:..\..\..\lvgl\version_6.1.2\lvgl\src\lv_objx/lv_imgbtn.c ****  *  STATIC VARIABLES
  34:..\..\..\lvgl\version_6.1.2\lvgl\src\lv_objx/lv_imgbtn.c ****  **********************/
  35:..\..\..\lvgl\version_6.1.2\lvgl\src\lv_objx/lv_imgbtn.c **** static lv_signal_cb_t ancestor_signal;
  36:..\..\..\lvgl\version_6.1.2\lvgl\src\lv_objx/lv_imgbtn.c **** static lv_design_cb_t ancestor_design;
  37:..\..\..\lvgl\version_6.1.2\lvgl\src\lv_objx/lv_imgbtn.c **** 
  38:..\..\..\lvgl\version_6.1.2\lvgl\src\lv_objx/lv_imgbtn.c **** /**********************
  39:..\..\..\lvgl\version_6.1.2\lvgl\src\lv_objx/lv_imgbtn.c ****  *      MACROS
  40:..\..\..\lvgl\version_6.1.2\lvgl\src\lv_objx/lv_imgbtn.c ****  **********************/
  41:..\..\..\lvgl\version_6.1.2\lvgl\src\lv_objx/lv_imgbtn.c **** 
  42:..\..\..\lvgl\version_6.1.2\lvgl\src\lv_objx/lv_imgbtn.c **** /**********************
  43:..\..\..\lvgl\version_6.1.2\lvgl\src\lv_objx/lv_imgbtn.c ****  *   GLOBAL FUNCTIONS
  44:..\..\..\lvgl\version_6.1.2\lvgl\src\lv_objx/lv_imgbtn.c ****  **********************/
  45:..\..\..\lvgl\version_6.1.2\lvgl\src\lv_objx/lv_imgbtn.c **** 
  46:..\..\..\lvgl\version_6.1.2\lvgl\src\lv_objx/lv_imgbtn.c **** /**
  47:..\..\..\lvgl\version_6.1.2\lvgl\src\lv_objx/lv_imgbtn.c ****  * Create a image button object
  48:..\..\..\lvgl\version_6.1.2\lvgl\src\lv_objx/lv_imgbtn.c ****  * @param par pointer to an object, it will be the parent of the new image button
  49:..\..\..\lvgl\version_6.1.2\lvgl\src\lv_objx/lv_imgbtn.c ****  * @param copy pointer to a image button object, if not NULL then the new object will be copied fro
  50:..\..\..\lvgl\version_6.1.2\lvgl\src\lv_objx/lv_imgbtn.c ****  * it
  51:..\..\..\lvgl\version_6.1.2\lvgl\src\lv_objx/lv_imgbtn.c ****  * @return pointer to the created image button
  52:..\..\..\lvgl\version_6.1.2\lvgl\src\lv_objx/lv_imgbtn.c ****  */
  53:..\..\..\lvgl\version_6.1.2\lvgl\src\lv_objx/lv_imgbtn.c **** lv_obj_t * lv_imgbtn_create(lv_obj_t * par, const lv_obj_t * copy)
  54:..\..\..\lvgl\version_6.1.2\lvgl\src\lv_objx/lv_imgbtn.c **** {
 110              		.loc 3 54 0
 111              		.cfi_startproc
 112              		@ args = 0, pretend = 0, frame = 24
 113              		@ frame_needed = 1, uses_anonymous_args = 0
 114 0000 80B5     		push	{r7, lr}
 115              		.cfi_def_cfa_offset 8
 116              		.cfi_offset 7, -8
 117              		.cfi_offset 14, -4
 118 0002 86B0     		sub	sp, sp, #24
 119              		.cfi_def_cfa_offset 32
 120 0004 00AF     		add	r7, sp, #0
 121              		.cfi_def_cfa_register 7
 122 0006 7860     		str	r0, [r7, #4]
 123 0008 3960     		str	r1, [r7]
  55:..\..\..\lvgl\version_6.1.2\lvgl\src\lv_objx/lv_imgbtn.c ****     LV_LOG_TRACE("image button create started");
  56:..\..\..\lvgl\version_6.1.2\lvgl\src\lv_objx/lv_imgbtn.c **** 
  57:..\..\..\lvgl\version_6.1.2\lvgl\src\lv_objx/lv_imgbtn.c ****     /*Create the ancestor of image button*/
  58:..\..\..\lvgl\version_6.1.2\lvgl\src\lv_objx/lv_imgbtn.c ****     lv_obj_t * new_imgbtn = lv_btn_create(par, copy);
 124              		.loc 3 58 0
 125 000a 3968     		ldr	r1, [r7]
 126 000c 7868     		ldr	r0, [r7, #4]
 127 000e FFF7FEFF 		bl	lv_btn_create
 128 0012 7861     		str	r0, [r7, #20]
  59:..\..\..\lvgl\version_6.1.2\lvgl\src\lv_objx/lv_imgbtn.c ****     LV_ASSERT_MEM(new_imgbtn);
  60:..\..\..\lvgl\version_6.1.2\lvgl\src\lv_objx/lv_imgbtn.c ****     if(new_imgbtn == NULL) return NULL;
 129              		.loc 3 60 0
 130 0014 7B69     		ldr	r3, [r7, #20]
ARM GAS  C:\Users\tmj32\AppData\Local\Temp\ccaMKuwb.s 			page 10


 131 0016 002B     		cmp	r3, #0
 132 0018 01D1     		bne	.L6
 133              		.loc 3 60 0 is_stmt 0 discriminator 1
 134 001a 0023     		movs	r3, #0
 135 001c 44E0     		b	.L7
 136              	.L6:
  61:..\..\..\lvgl\version_6.1.2\lvgl\src\lv_objx/lv_imgbtn.c **** 
  62:..\..\..\lvgl\version_6.1.2\lvgl\src\lv_objx/lv_imgbtn.c ****     /*Allocate the image button type specific extended data*/
  63:..\..\..\lvgl\version_6.1.2\lvgl\src\lv_objx/lv_imgbtn.c ****     lv_imgbtn_ext_t * ext = lv_obj_allocate_ext_attr(new_imgbtn, sizeof(lv_imgbtn_ext_t));
 137              		.loc 3 63 0 is_stmt 1
 138 001e 3421     		movs	r1, #52
 139 0020 7869     		ldr	r0, [r7, #20]
 140 0022 FFF7FEFF 		bl	lv_obj_allocate_ext_attr
 141 0026 3861     		str	r0, [r7, #16]
  64:..\..\..\lvgl\version_6.1.2\lvgl\src\lv_objx/lv_imgbtn.c ****     LV_ASSERT_MEM(ext);
  65:..\..\..\lvgl\version_6.1.2\lvgl\src\lv_objx/lv_imgbtn.c ****     if(ext == NULL) return NULL;
 142              		.loc 3 65 0
 143 0028 3B69     		ldr	r3, [r7, #16]
 144 002a 002B     		cmp	r3, #0
 145 002c 01D1     		bne	.L8
 146              		.loc 3 65 0 is_stmt 0 discriminator 1
 147 002e 0023     		movs	r3, #0
 148 0030 3AE0     		b	.L7
 149              	.L8:
  66:..\..\..\lvgl\version_6.1.2\lvgl\src\lv_objx/lv_imgbtn.c ****     if(ancestor_signal == NULL) ancestor_signal = lv_obj_get_signal_cb(new_imgbtn);
 150              		.loc 3 66 0 is_stmt 1
 151 0032 1F4B     		ldr	r3, .L12
 152 0034 1B68     		ldr	r3, [r3]
 153 0036 002B     		cmp	r3, #0
 154 0038 05D1     		bne	.L9
 155              		.loc 3 66 0 is_stmt 0 discriminator 1
 156 003a 7869     		ldr	r0, [r7, #20]
 157 003c FFF7FEFF 		bl	lv_obj_get_signal_cb
 158 0040 0246     		mov	r2, r0
 159 0042 1B4B     		ldr	r3, .L12
 160 0044 1A60     		str	r2, [r3]
 161              	.L9:
  67:..\..\..\lvgl\version_6.1.2\lvgl\src\lv_objx/lv_imgbtn.c ****     if(ancestor_design == NULL) ancestor_design = lv_obj_get_design_cb(new_imgbtn);
 162              		.loc 3 67 0 is_stmt 1
 163 0046 1B4B     		ldr	r3, .L12+4
 164 0048 1B68     		ldr	r3, [r3]
 165 004a 002B     		cmp	r3, #0
 166 004c 05D1     		bne	.L10
 167              		.loc 3 67 0 is_stmt 0 discriminator 1
 168 004e 7869     		ldr	r0, [r7, #20]
 169 0050 FFF7FEFF 		bl	lv_obj_get_design_cb
 170 0054 0246     		mov	r2, r0
 171 0056 174B     		ldr	r3, .L12+4
 172 0058 1A60     		str	r2, [r3]
 173              	.L10:
  68:..\..\..\lvgl\version_6.1.2\lvgl\src\lv_objx/lv_imgbtn.c **** 
  69:..\..\..\lvgl\version_6.1.2\lvgl\src\lv_objx/lv_imgbtn.c ****         /*Initialize the allocated 'ext' */
  70:..\..\..\lvgl\version_6.1.2\lvgl\src\lv_objx/lv_imgbtn.c **** #if LV_IMGBTN_TILED == 0
  71:..\..\..\lvgl\version_6.1.2\lvgl\src\lv_objx/lv_imgbtn.c ****     memset((void*)ext->img_src, 0, sizeof(ext->img_src));
 174              		.loc 3 71 0 is_stmt 1
 175 005a 3B69     		ldr	r3, [r7, #16]
 176 005c 1C33     		adds	r3, r3, #28
ARM GAS  C:\Users\tmj32\AppData\Local\Temp\ccaMKuwb.s 			page 11


 177 005e 1422     		movs	r2, #20
 178 0060 0021     		movs	r1, #0
 179 0062 1846     		mov	r0, r3
 180 0064 FFF7FEFF 		bl	memset
  72:..\..\..\lvgl\version_6.1.2\lvgl\src\lv_objx/lv_imgbtn.c **** #else
  73:..\..\..\lvgl\version_6.1.2\lvgl\src\lv_objx/lv_imgbtn.c ****     memset(ext->img_src_left, 0, sizeof(ext->img_src_left));
  74:..\..\..\lvgl\version_6.1.2\lvgl\src\lv_objx/lv_imgbtn.c ****     memset(ext->img_src_mid, 0, sizeof(ext->img_src_mid));
  75:..\..\..\lvgl\version_6.1.2\lvgl\src\lv_objx/lv_imgbtn.c ****     memset(ext->img_src_right, 0, sizeof(ext->img_src_right));
  76:..\..\..\lvgl\version_6.1.2\lvgl\src\lv_objx/lv_imgbtn.c **** #endif
  77:..\..\..\lvgl\version_6.1.2\lvgl\src\lv_objx/lv_imgbtn.c **** 
  78:..\..\..\lvgl\version_6.1.2\lvgl\src\lv_objx/lv_imgbtn.c ****     ext->act_cf = LV_IMG_CF_UNKNOWN;
 181              		.loc 3 78 0
 182 0068 3B69     		ldr	r3, [r7, #16]
 183 006a 0022     		movs	r2, #0
 184 006c 83F83020 		strb	r2, [r3, #48]
  79:..\..\..\lvgl\version_6.1.2\lvgl\src\lv_objx/lv_imgbtn.c **** 
  80:..\..\..\lvgl\version_6.1.2\lvgl\src\lv_objx/lv_imgbtn.c ****     /*The signal and design functions are not copied so set them here*/
  81:..\..\..\lvgl\version_6.1.2\lvgl\src\lv_objx/lv_imgbtn.c ****     lv_obj_set_signal_cb(new_imgbtn, lv_imgbtn_signal);
 185              		.loc 3 81 0
 186 0070 1149     		ldr	r1, .L12+8
 187 0072 7869     		ldr	r0, [r7, #20]
 188 0074 FFF7FEFF 		bl	lv_obj_set_signal_cb
  82:..\..\..\lvgl\version_6.1.2\lvgl\src\lv_objx/lv_imgbtn.c ****     lv_obj_set_design_cb(new_imgbtn, lv_imgbtn_design);
 189              		.loc 3 82 0
 190 0078 1049     		ldr	r1, .L12+12
 191 007a 7869     		ldr	r0, [r7, #20]
 192 007c FFF7FEFF 		bl	lv_obj_set_design_cb
  83:..\..\..\lvgl\version_6.1.2\lvgl\src\lv_objx/lv_imgbtn.c **** 
  84:..\..\..\lvgl\version_6.1.2\lvgl\src\lv_objx/lv_imgbtn.c ****     /*Init the new image button image button*/
  85:..\..\..\lvgl\version_6.1.2\lvgl\src\lv_objx/lv_imgbtn.c ****     if(copy == NULL) {
 193              		.loc 3 85 0
 194 0080 3B68     		ldr	r3, [r7]
 195 0082 002B     		cmp	r3, #0
 196 0084 0FD0     		beq	.L11
 197              	.LBB2:
  86:..\..\..\lvgl\version_6.1.2\lvgl\src\lv_objx/lv_imgbtn.c **** 
  87:..\..\..\lvgl\version_6.1.2\lvgl\src\lv_objx/lv_imgbtn.c ****     }
  88:..\..\..\lvgl\version_6.1.2\lvgl\src\lv_objx/lv_imgbtn.c ****     /*Copy an existing image button*/
  89:..\..\..\lvgl\version_6.1.2\lvgl\src\lv_objx/lv_imgbtn.c ****     else {
  90:..\..\..\lvgl\version_6.1.2\lvgl\src\lv_objx/lv_imgbtn.c ****         lv_imgbtn_ext_t * copy_ext = lv_obj_get_ext_attr(copy);
 198              		.loc 3 90 0
 199 0086 3868     		ldr	r0, [r7]
 200 0088 FFF7FEFF 		bl	lv_obj_get_ext_attr
 201 008c F860     		str	r0, [r7, #12]
  91:..\..\..\lvgl\version_6.1.2\lvgl\src\lv_objx/lv_imgbtn.c **** #if LV_IMGBTN_TILED == 0
  92:..\..\..\lvgl\version_6.1.2\lvgl\src\lv_objx/lv_imgbtn.c ****         memcpy((void*)ext->img_src, copy_ext->img_src, sizeof(ext->img_src));
 202              		.loc 3 92 0
 203 008e 3B69     		ldr	r3, [r7, #16]
 204 0090 03F11C00 		add	r0, r3, #28
 205 0094 FB68     		ldr	r3, [r7, #12]
 206 0096 1C33     		adds	r3, r3, #28
 207 0098 1422     		movs	r2, #20
 208 009a 1946     		mov	r1, r3
 209 009c FFF7FEFF 		bl	memcpy
  93:..\..\..\lvgl\version_6.1.2\lvgl\src\lv_objx/lv_imgbtn.c **** #else
  94:..\..\..\lvgl\version_6.1.2\lvgl\src\lv_objx/lv_imgbtn.c ****         memcpy((void*)ext->img_src_left, copy_ext->img_src_left, sizeof(ext->img_src_left));
  95:..\..\..\lvgl\version_6.1.2\lvgl\src\lv_objx/lv_imgbtn.c ****         memcpy((void*)ext->img_src_mid, copy_ext->img_src_mid, sizeof(ext->img_src_mid));
ARM GAS  C:\Users\tmj32\AppData\Local\Temp\ccaMKuwb.s 			page 12


  96:..\..\..\lvgl\version_6.1.2\lvgl\src\lv_objx/lv_imgbtn.c ****         memcpy((void*)ext->img_src_right, copy_ext->img_src_right, sizeof(ext->img_src_right));
  97:..\..\..\lvgl\version_6.1.2\lvgl\src\lv_objx/lv_imgbtn.c **** #endif
  98:..\..\..\lvgl\version_6.1.2\lvgl\src\lv_objx/lv_imgbtn.c ****         /*Refresh the style with new signal function*/
  99:..\..\..\lvgl\version_6.1.2\lvgl\src\lv_objx/lv_imgbtn.c ****         lv_obj_refresh_style(new_imgbtn);
 210              		.loc 3 99 0
 211 00a0 7869     		ldr	r0, [r7, #20]
 212 00a2 FFF7FEFF 		bl	lv_obj_refresh_style
 213              	.L11:
 214              	.LBE2:
 100:..\..\..\lvgl\version_6.1.2\lvgl\src\lv_objx/lv_imgbtn.c ****     }
 101:..\..\..\lvgl\version_6.1.2\lvgl\src\lv_objx/lv_imgbtn.c **** 
 102:..\..\..\lvgl\version_6.1.2\lvgl\src\lv_objx/lv_imgbtn.c ****     LV_LOG_INFO("image button created");
 103:..\..\..\lvgl\version_6.1.2\lvgl\src\lv_objx/lv_imgbtn.c **** 
 104:..\..\..\lvgl\version_6.1.2\lvgl\src\lv_objx/lv_imgbtn.c ****     return new_imgbtn;
 215              		.loc 3 104 0
 216 00a6 7B69     		ldr	r3, [r7, #20]
 217              	.L7:
 105:..\..\..\lvgl\version_6.1.2\lvgl\src\lv_objx/lv_imgbtn.c **** }
 218              		.loc 3 105 0
 219 00a8 1846     		mov	r0, r3
 220 00aa 1837     		adds	r7, r7, #24
 221              		.cfi_def_cfa_offset 8
 222 00ac BD46     		mov	sp, r7
 223              		.cfi_def_cfa_register 13
 224              		@ sp needed
 225 00ae 80BD     		pop	{r7, pc}
 226              	.L13:
 227              		.align	2
 228              	.L12:
 229 00b0 00000000 		.word	ancestor_signal
 230 00b4 04000000 		.word	ancestor_design
 231 00b8 00000000 		.word	lv_imgbtn_signal
 232 00bc 00000000 		.word	lv_imgbtn_design
 233              		.cfi_endproc
 234              	.LFE51:
 235              		.size	lv_imgbtn_create, .-lv_imgbtn_create
 236              		.section	.text.lv_imgbtn_set_src,"ax",%progbits
 237              		.align	2
 238              		.global	lv_imgbtn_set_src
 239              		.thumb
 240              		.thumb_func
 241              		.type	lv_imgbtn_set_src, %function
 242              	lv_imgbtn_set_src:
 243              	.LFB52:
 106:..\..\..\lvgl\version_6.1.2\lvgl\src\lv_objx/lv_imgbtn.c **** 
 107:..\..\..\lvgl\version_6.1.2\lvgl\src\lv_objx/lv_imgbtn.c **** /*=====================
 108:..\..\..\lvgl\version_6.1.2\lvgl\src\lv_objx/lv_imgbtn.c ****  * Setter functions
 109:..\..\..\lvgl\version_6.1.2\lvgl\src\lv_objx/lv_imgbtn.c ****  *====================*/
 110:..\..\..\lvgl\version_6.1.2\lvgl\src\lv_objx/lv_imgbtn.c **** 
 111:..\..\..\lvgl\version_6.1.2\lvgl\src\lv_objx/lv_imgbtn.c **** #if LV_IMGBTN_TILED == 0
 112:..\..\..\lvgl\version_6.1.2\lvgl\src\lv_objx/lv_imgbtn.c **** /**
 113:..\..\..\lvgl\version_6.1.2\lvgl\src\lv_objx/lv_imgbtn.c ****  * Set images for a state of the image button
 114:..\..\..\lvgl\version_6.1.2\lvgl\src\lv_objx/lv_imgbtn.c ****  * @param imgbtn pointer to an image button object
 115:..\..\..\lvgl\version_6.1.2\lvgl\src\lv_objx/lv_imgbtn.c ****  * @param state for which state set the new image (from `lv_btn_state_t`) `
 116:..\..\..\lvgl\version_6.1.2\lvgl\src\lv_objx/lv_imgbtn.c ****  * @param src pointer to an image source (a C array or path to a file)
 117:..\..\..\lvgl\version_6.1.2\lvgl\src\lv_objx/lv_imgbtn.c ****  */
 118:..\..\..\lvgl\version_6.1.2\lvgl\src\lv_objx/lv_imgbtn.c **** void lv_imgbtn_set_src(lv_obj_t * imgbtn, lv_btn_state_t state, const void * src)
ARM GAS  C:\Users\tmj32\AppData\Local\Temp\ccaMKuwb.s 			page 13


 119:..\..\..\lvgl\version_6.1.2\lvgl\src\lv_objx/lv_imgbtn.c **** {
 244              		.loc 3 119 0
 245              		.cfi_startproc
 246              		@ args = 0, pretend = 0, frame = 24
 247              		@ frame_needed = 1, uses_anonymous_args = 0
 248 0000 80B5     		push	{r7, lr}
 249              		.cfi_def_cfa_offset 8
 250              		.cfi_offset 7, -8
 251              		.cfi_offset 14, -4
 252 0002 86B0     		sub	sp, sp, #24
 253              		.cfi_def_cfa_offset 32
 254 0004 00AF     		add	r7, sp, #0
 255              		.cfi_def_cfa_register 7
 256 0006 F860     		str	r0, [r7, #12]
 257 0008 0B46     		mov	r3, r1
 258 000a 7A60     		str	r2, [r7, #4]
 259 000c FB72     		strb	r3, [r7, #11]
 120:..\..\..\lvgl\version_6.1.2\lvgl\src\lv_objx/lv_imgbtn.c ****     LV_ASSERT_OBJ(imgbtn, LV_OBJX_NAME);
 121:..\..\..\lvgl\version_6.1.2\lvgl\src\lv_objx/lv_imgbtn.c **** 
 122:..\..\..\lvgl\version_6.1.2\lvgl\src\lv_objx/lv_imgbtn.c ****     lv_imgbtn_ext_t * ext = lv_obj_get_ext_attr(imgbtn);
 260              		.loc 3 122 0
 261 000e F868     		ldr	r0, [r7, #12]
 262 0010 FFF7FEFF 		bl	lv_obj_get_ext_attr
 263 0014 7861     		str	r0, [r7, #20]
 123:..\..\..\lvgl\version_6.1.2\lvgl\src\lv_objx/lv_imgbtn.c **** 
 124:..\..\..\lvgl\version_6.1.2\lvgl\src\lv_objx/lv_imgbtn.c ****     ext->img_src[state] = src;
 264              		.loc 3 124 0
 265 0016 FB7A     		ldrb	r3, [r7, #11]	@ zero_extendqisi2
 266 0018 7A69     		ldr	r2, [r7, #20]
 267 001a 0633     		adds	r3, r3, #6
 268 001c 9B00     		lsls	r3, r3, #2
 269 001e 1344     		add	r3, r3, r2
 270 0020 7A68     		ldr	r2, [r7, #4]
 271 0022 5A60     		str	r2, [r3, #4]
 125:..\..\..\lvgl\version_6.1.2\lvgl\src\lv_objx/lv_imgbtn.c **** 
 126:..\..\..\lvgl\version_6.1.2\lvgl\src\lv_objx/lv_imgbtn.c ****     refr_img(imgbtn);
 272              		.loc 3 126 0
 273 0024 F868     		ldr	r0, [r7, #12]
 274 0026 FFF7FEFF 		bl	refr_img
 127:..\..\..\lvgl\version_6.1.2\lvgl\src\lv_objx/lv_imgbtn.c **** }
 275              		.loc 3 127 0
 276 002a 00BF     		nop
 277 002c 1837     		adds	r7, r7, #24
 278              		.cfi_def_cfa_offset 8
 279 002e BD46     		mov	sp, r7
 280              		.cfi_def_cfa_register 13
 281              		@ sp needed
 282 0030 80BD     		pop	{r7, pc}
 283              		.cfi_endproc
 284              	.LFE52:
 285              		.size	lv_imgbtn_set_src, .-lv_imgbtn_set_src
 286 0032 00BF     		.section	.text.lv_imgbtn_set_style,"ax",%progbits
 287              		.align	2
 288              		.global	lv_imgbtn_set_style
 289              		.thumb
 290              		.thumb_func
 291              		.type	lv_imgbtn_set_style, %function
ARM GAS  C:\Users\tmj32\AppData\Local\Temp\ccaMKuwb.s 			page 14


 292              	lv_imgbtn_set_style:
 293              	.LFB53:
 128:..\..\..\lvgl\version_6.1.2\lvgl\src\lv_objx/lv_imgbtn.c **** 
 129:..\..\..\lvgl\version_6.1.2\lvgl\src\lv_objx/lv_imgbtn.c **** #else
 130:..\..\..\lvgl\version_6.1.2\lvgl\src\lv_objx/lv_imgbtn.c **** /**
 131:..\..\..\lvgl\version_6.1.2\lvgl\src\lv_objx/lv_imgbtn.c ****  * Set images for a state of the image button
 132:..\..\..\lvgl\version_6.1.2\lvgl\src\lv_objx/lv_imgbtn.c ****  * @param imgbtn pointer to an image button object
 133:..\..\..\lvgl\version_6.1.2\lvgl\src\lv_objx/lv_imgbtn.c ****  * @param state for which state set the new image (from `lv_btn_state_t`) `
 134:..\..\..\lvgl\version_6.1.2\lvgl\src\lv_objx/lv_imgbtn.c ****  * @param src_left pointer to an image source for the left side of the button (a C array or path to
 135:..\..\..\lvgl\version_6.1.2\lvgl\src\lv_objx/lv_imgbtn.c ****  * a file)
 136:..\..\..\lvgl\version_6.1.2\lvgl\src\lv_objx/lv_imgbtn.c ****  * @param src_mid pointer to an image source for the middle of the button (ideally 1px wide) (a C
 137:..\..\..\lvgl\version_6.1.2\lvgl\src\lv_objx/lv_imgbtn.c ****  * array or path to a file)
 138:..\..\..\lvgl\version_6.1.2\lvgl\src\lv_objx/lv_imgbtn.c ****  * @param src_right pointer to an image source for the right side of the button (a C array or path
 139:..\..\..\lvgl\version_6.1.2\lvgl\src\lv_objx/lv_imgbtn.c ****  * to a file)
 140:..\..\..\lvgl\version_6.1.2\lvgl\src\lv_objx/lv_imgbtn.c ****  */
 141:..\..\..\lvgl\version_6.1.2\lvgl\src\lv_objx/lv_imgbtn.c **** void lv_imgbtn_set_src(lv_obj_t * imgbtn, lv_btn_state_t state, const void * src_left, const void *
 142:..\..\..\lvgl\version_6.1.2\lvgl\src\lv_objx/lv_imgbtn.c ****                        const void * src_right)
 143:..\..\..\lvgl\version_6.1.2\lvgl\src\lv_objx/lv_imgbtn.c **** {
 144:..\..\..\lvgl\version_6.1.2\lvgl\src\lv_objx/lv_imgbtn.c ****     LV_ASSERT_OBJ(imgbtn, LV_OBJX_NAME);
 145:..\..\..\lvgl\version_6.1.2\lvgl\src\lv_objx/lv_imgbtn.c **** 
 146:..\..\..\lvgl\version_6.1.2\lvgl\src\lv_objx/lv_imgbtn.c **** 
 147:..\..\..\lvgl\version_6.1.2\lvgl\src\lv_objx/lv_imgbtn.c ****     if(lv_img_src_get_type(src_left) == LV_IMG_SRC_SYMBOL ||
 148:..\..\..\lvgl\version_6.1.2\lvgl\src\lv_objx/lv_imgbtn.c ****         lv_img_src_get_type(src_mid) == LV_IMG_SRC_SYMBOL ||
 149:..\..\..\lvgl\version_6.1.2\lvgl\src\lv_objx/lv_imgbtn.c ****         lv_img_src_get_type(src_right) == LV_IMG_SRC_SYMBOL )
 150:..\..\..\lvgl\version_6.1.2\lvgl\src\lv_objx/lv_imgbtn.c ****     {
 151:..\..\..\lvgl\version_6.1.2\lvgl\src\lv_objx/lv_imgbtn.c ****         LV_LOG_WARN("lv_imgbtn_set_src: symbols are not supported in tiled mode");
 152:..\..\..\lvgl\version_6.1.2\lvgl\src\lv_objx/lv_imgbtn.c ****         return;
 153:..\..\..\lvgl\version_6.1.2\lvgl\src\lv_objx/lv_imgbtn.c ****     }
 154:..\..\..\lvgl\version_6.1.2\lvgl\src\lv_objx/lv_imgbtn.c **** 
 155:..\..\..\lvgl\version_6.1.2\lvgl\src\lv_objx/lv_imgbtn.c ****     lv_imgbtn_ext_t * ext = lv_obj_get_ext_attr(imgbtn);
 156:..\..\..\lvgl\version_6.1.2\lvgl\src\lv_objx/lv_imgbtn.c **** 
 157:..\..\..\lvgl\version_6.1.2\lvgl\src\lv_objx/lv_imgbtn.c ****     ext->img_src_left[state] = src_left;
 158:..\..\..\lvgl\version_6.1.2\lvgl\src\lv_objx/lv_imgbtn.c ****     ext->img_src_mid[state] = src_mid;
 159:..\..\..\lvgl\version_6.1.2\lvgl\src\lv_objx/lv_imgbtn.c ****     ext->img_src_right[state] = src_right;
 160:..\..\..\lvgl\version_6.1.2\lvgl\src\lv_objx/lv_imgbtn.c **** 
 161:..\..\..\lvgl\version_6.1.2\lvgl\src\lv_objx/lv_imgbtn.c ****     refr_img(imgbtn);
 162:..\..\..\lvgl\version_6.1.2\lvgl\src\lv_objx/lv_imgbtn.c **** }
 163:..\..\..\lvgl\version_6.1.2\lvgl\src\lv_objx/lv_imgbtn.c **** 
 164:..\..\..\lvgl\version_6.1.2\lvgl\src\lv_objx/lv_imgbtn.c **** #endif
 165:..\..\..\lvgl\version_6.1.2\lvgl\src\lv_objx/lv_imgbtn.c **** 
 166:..\..\..\lvgl\version_6.1.2\lvgl\src\lv_objx/lv_imgbtn.c **** /**
 167:..\..\..\lvgl\version_6.1.2\lvgl\src\lv_objx/lv_imgbtn.c ****  * Set a style of a image button.
 168:..\..\..\lvgl\version_6.1.2\lvgl\src\lv_objx/lv_imgbtn.c ****  * @param imgbtn pointer to image button object
 169:..\..\..\lvgl\version_6.1.2\lvgl\src\lv_objx/lv_imgbtn.c ****  * @param type which style should be set
 170:..\..\..\lvgl\version_6.1.2\lvgl\src\lv_objx/lv_imgbtn.c ****  * @param style pointer to a style
 171:..\..\..\lvgl\version_6.1.2\lvgl\src\lv_objx/lv_imgbtn.c ****  */
 172:..\..\..\lvgl\version_6.1.2\lvgl\src\lv_objx/lv_imgbtn.c **** void lv_imgbtn_set_style(lv_obj_t * imgbtn, lv_imgbtn_style_t type, const lv_style_t * style)
 173:..\..\..\lvgl\version_6.1.2\lvgl\src\lv_objx/lv_imgbtn.c **** {
 294              		.loc 3 173 0
 295              		.cfi_startproc
 296              		@ args = 0, pretend = 0, frame = 16
 297              		@ frame_needed = 1, uses_anonymous_args = 0
 298 0000 80B5     		push	{r7, lr}
 299              		.cfi_def_cfa_offset 8
 300              		.cfi_offset 7, -8
 301              		.cfi_offset 14, -4
 302 0002 84B0     		sub	sp, sp, #16
ARM GAS  C:\Users\tmj32\AppData\Local\Temp\ccaMKuwb.s 			page 15


 303              		.cfi_def_cfa_offset 24
 304 0004 00AF     		add	r7, sp, #0
 305              		.cfi_def_cfa_register 7
 306 0006 F860     		str	r0, [r7, #12]
 307 0008 0B46     		mov	r3, r1
 308 000a 7A60     		str	r2, [r7, #4]
 309 000c FB72     		strb	r3, [r7, #11]
 174:..\..\..\lvgl\version_6.1.2\lvgl\src\lv_objx/lv_imgbtn.c ****     LV_ASSERT_OBJ(imgbtn, LV_OBJX_NAME);
 175:..\..\..\lvgl\version_6.1.2\lvgl\src\lv_objx/lv_imgbtn.c **** 
 176:..\..\..\lvgl\version_6.1.2\lvgl\src\lv_objx/lv_imgbtn.c ****     lv_btn_set_style(imgbtn, type, style);
 310              		.loc 3 176 0
 311 000e FB7A     		ldrb	r3, [r7, #11]	@ zero_extendqisi2
 312 0010 7A68     		ldr	r2, [r7, #4]
 313 0012 1946     		mov	r1, r3
 314 0014 F868     		ldr	r0, [r7, #12]
 315 0016 FFF7FEFF 		bl	lv_btn_set_style
 177:..\..\..\lvgl\version_6.1.2\lvgl\src\lv_objx/lv_imgbtn.c **** }
 316              		.loc 3 177 0
 317 001a 00BF     		nop
 318 001c 1037     		adds	r7, r7, #16
 319              		.cfi_def_cfa_offset 8
 320 001e BD46     		mov	sp, r7
 321              		.cfi_def_cfa_register 13
 322              		@ sp needed
 323 0020 80BD     		pop	{r7, pc}
 324              		.cfi_endproc
 325              	.LFE53:
 326              		.size	lv_imgbtn_set_style, .-lv_imgbtn_set_style
 327 0022 00BF     		.section	.text.lv_imgbtn_get_src,"ax",%progbits
 328              		.align	2
 329              		.global	lv_imgbtn_get_src
 330              		.thumb
 331              		.thumb_func
 332              		.type	lv_imgbtn_get_src, %function
 333              	lv_imgbtn_get_src:
 334              	.LFB54:
 178:..\..\..\lvgl\version_6.1.2\lvgl\src\lv_objx/lv_imgbtn.c **** 
 179:..\..\..\lvgl\version_6.1.2\lvgl\src\lv_objx/lv_imgbtn.c **** /*=====================
 180:..\..\..\lvgl\version_6.1.2\lvgl\src\lv_objx/lv_imgbtn.c ****  * Getter functions
 181:..\..\..\lvgl\version_6.1.2\lvgl\src\lv_objx/lv_imgbtn.c ****  *====================*/
 182:..\..\..\lvgl\version_6.1.2\lvgl\src\lv_objx/lv_imgbtn.c **** 
 183:..\..\..\lvgl\version_6.1.2\lvgl\src\lv_objx/lv_imgbtn.c **** #if LV_IMGBTN_TILED == 0
 184:..\..\..\lvgl\version_6.1.2\lvgl\src\lv_objx/lv_imgbtn.c **** /**
 185:..\..\..\lvgl\version_6.1.2\lvgl\src\lv_objx/lv_imgbtn.c ****  * Get the images in a  given state
 186:..\..\..\lvgl\version_6.1.2\lvgl\src\lv_objx/lv_imgbtn.c ****  * @param imgbtn pointer to an image button object
 187:..\..\..\lvgl\version_6.1.2\lvgl\src\lv_objx/lv_imgbtn.c ****  * @param state the state where to get the image (from `lv_btn_state_t`) `
 188:..\..\..\lvgl\version_6.1.2\lvgl\src\lv_objx/lv_imgbtn.c ****  * @return pointer to an image source (a C array or path to a file)
 189:..\..\..\lvgl\version_6.1.2\lvgl\src\lv_objx/lv_imgbtn.c ****  */
 190:..\..\..\lvgl\version_6.1.2\lvgl\src\lv_objx/lv_imgbtn.c **** const void * lv_imgbtn_get_src(lv_obj_t * imgbtn, lv_btn_state_t state)
 191:..\..\..\lvgl\version_6.1.2\lvgl\src\lv_objx/lv_imgbtn.c **** {
 335              		.loc 3 191 0
 336              		.cfi_startproc
 337              		@ args = 0, pretend = 0, frame = 16
 338              		@ frame_needed = 1, uses_anonymous_args = 0
 339 0000 80B5     		push	{r7, lr}
 340              		.cfi_def_cfa_offset 8
 341              		.cfi_offset 7, -8
ARM GAS  C:\Users\tmj32\AppData\Local\Temp\ccaMKuwb.s 			page 16


 342              		.cfi_offset 14, -4
 343 0002 84B0     		sub	sp, sp, #16
 344              		.cfi_def_cfa_offset 24
 345 0004 00AF     		add	r7, sp, #0
 346              		.cfi_def_cfa_register 7
 347 0006 7860     		str	r0, [r7, #4]
 348 0008 0B46     		mov	r3, r1
 349 000a FB70     		strb	r3, [r7, #3]
 192:..\..\..\lvgl\version_6.1.2\lvgl\src\lv_objx/lv_imgbtn.c ****     LV_ASSERT_OBJ(imgbtn, LV_OBJX_NAME);
 193:..\..\..\lvgl\version_6.1.2\lvgl\src\lv_objx/lv_imgbtn.c **** 
 194:..\..\..\lvgl\version_6.1.2\lvgl\src\lv_objx/lv_imgbtn.c ****     lv_imgbtn_ext_t * ext = lv_obj_get_ext_attr(imgbtn);
 350              		.loc 3 194 0
 351 000c 7868     		ldr	r0, [r7, #4]
 352 000e FFF7FEFF 		bl	lv_obj_get_ext_attr
 353 0012 F860     		str	r0, [r7, #12]
 195:..\..\..\lvgl\version_6.1.2\lvgl\src\lv_objx/lv_imgbtn.c **** 
 196:..\..\..\lvgl\version_6.1.2\lvgl\src\lv_objx/lv_imgbtn.c ****     return ext->img_src[state];
 354              		.loc 3 196 0
 355 0014 FB78     		ldrb	r3, [r7, #3]	@ zero_extendqisi2
 356 0016 FA68     		ldr	r2, [r7, #12]
 357 0018 0633     		adds	r3, r3, #6
 358 001a 9B00     		lsls	r3, r3, #2
 359 001c 1344     		add	r3, r3, r2
 360 001e 5B68     		ldr	r3, [r3, #4]
 197:..\..\..\lvgl\version_6.1.2\lvgl\src\lv_objx/lv_imgbtn.c **** }
 361              		.loc 3 197 0
 362 0020 1846     		mov	r0, r3
 363 0022 1037     		adds	r7, r7, #16
 364              		.cfi_def_cfa_offset 8
 365 0024 BD46     		mov	sp, r7
 366              		.cfi_def_cfa_register 13
 367              		@ sp needed
 368 0026 80BD     		pop	{r7, pc}
 369              		.cfi_endproc
 370              	.LFE54:
 371              		.size	lv_imgbtn_get_src, .-lv_imgbtn_get_src
 372              		.section	.text.lv_imgbtn_get_style,"ax",%progbits
 373              		.align	2
 374              		.global	lv_imgbtn_get_style
 375              		.thumb
 376              		.thumb_func
 377              		.type	lv_imgbtn_get_style, %function
 378              	lv_imgbtn_get_style:
 379              	.LFB55:
 198:..\..\..\lvgl\version_6.1.2\lvgl\src\lv_objx/lv_imgbtn.c **** #else
 199:..\..\..\lvgl\version_6.1.2\lvgl\src\lv_objx/lv_imgbtn.c **** 
 200:..\..\..\lvgl\version_6.1.2\lvgl\src\lv_objx/lv_imgbtn.c **** /**
 201:..\..\..\lvgl\version_6.1.2\lvgl\src\lv_objx/lv_imgbtn.c ****  * Get the left image in a given state
 202:..\..\..\lvgl\version_6.1.2\lvgl\src\lv_objx/lv_imgbtn.c ****  * @param imgbtn pointer to an image button object
 203:..\..\..\lvgl\version_6.1.2\lvgl\src\lv_objx/lv_imgbtn.c ****  * @param state the state where to get the image (from `lv_btn_state_t`) `
 204:..\..\..\lvgl\version_6.1.2\lvgl\src\lv_objx/lv_imgbtn.c ****  * @return pointer to the left image source (a C array or path to a file)
 205:..\..\..\lvgl\version_6.1.2\lvgl\src\lv_objx/lv_imgbtn.c ****  */
 206:..\..\..\lvgl\version_6.1.2\lvgl\src\lv_objx/lv_imgbtn.c **** const void * lv_imgbtn_get_src_left(lv_obj_t * imgbtn, lv_btn_state_t state)
 207:..\..\..\lvgl\version_6.1.2\lvgl\src\lv_objx/lv_imgbtn.c **** {
 208:..\..\..\lvgl\version_6.1.2\lvgl\src\lv_objx/lv_imgbtn.c ****     LV_ASSERT_OBJ(imgbtn, LV_OBJX_NAME);
 209:..\..\..\lvgl\version_6.1.2\lvgl\src\lv_objx/lv_imgbtn.c **** 
 210:..\..\..\lvgl\version_6.1.2\lvgl\src\lv_objx/lv_imgbtn.c ****     lv_imgbtn_ext_t * ext = lv_obj_get_ext_attr(imgbtn);
ARM GAS  C:\Users\tmj32\AppData\Local\Temp\ccaMKuwb.s 			page 17


 211:..\..\..\lvgl\version_6.1.2\lvgl\src\lv_objx/lv_imgbtn.c **** 
 212:..\..\..\lvgl\version_6.1.2\lvgl\src\lv_objx/lv_imgbtn.c ****     return ext->img_src_left[state];
 213:..\..\..\lvgl\version_6.1.2\lvgl\src\lv_objx/lv_imgbtn.c **** }
 214:..\..\..\lvgl\version_6.1.2\lvgl\src\lv_objx/lv_imgbtn.c **** 
 215:..\..\..\lvgl\version_6.1.2\lvgl\src\lv_objx/lv_imgbtn.c **** /**
 216:..\..\..\lvgl\version_6.1.2\lvgl\src\lv_objx/lv_imgbtn.c ****  * Get the middle image in a given state
 217:..\..\..\lvgl\version_6.1.2\lvgl\src\lv_objx/lv_imgbtn.c ****  * @param imgbtn pointer to an image button object
 218:..\..\..\lvgl\version_6.1.2\lvgl\src\lv_objx/lv_imgbtn.c ****  * @param state the state where to get the image (from `lv_btn_state_t`) `
 219:..\..\..\lvgl\version_6.1.2\lvgl\src\lv_objx/lv_imgbtn.c ****  * @return pointer to the middle image source (a C array or path to a file)
 220:..\..\..\lvgl\version_6.1.2\lvgl\src\lv_objx/lv_imgbtn.c ****  */
 221:..\..\..\lvgl\version_6.1.2\lvgl\src\lv_objx/lv_imgbtn.c **** const void * lv_imgbtn_get_src_middle(lv_obj_t * imgbtn, lv_btn_state_t state)
 222:..\..\..\lvgl\version_6.1.2\lvgl\src\lv_objx/lv_imgbtn.c **** {
 223:..\..\..\lvgl\version_6.1.2\lvgl\src\lv_objx/lv_imgbtn.c ****     LV_ASSERT_OBJ(imgbtn, LV_OBJX_NAME);
 224:..\..\..\lvgl\version_6.1.2\lvgl\src\lv_objx/lv_imgbtn.c **** 
 225:..\..\..\lvgl\version_6.1.2\lvgl\src\lv_objx/lv_imgbtn.c ****     lv_imgbtn_ext_t * ext = lv_obj_get_ext_attr(imgbtn);
 226:..\..\..\lvgl\version_6.1.2\lvgl\src\lv_objx/lv_imgbtn.c **** 
 227:..\..\..\lvgl\version_6.1.2\lvgl\src\lv_objx/lv_imgbtn.c ****     return ext->img_src_mid[state];
 228:..\..\..\lvgl\version_6.1.2\lvgl\src\lv_objx/lv_imgbtn.c **** }
 229:..\..\..\lvgl\version_6.1.2\lvgl\src\lv_objx/lv_imgbtn.c **** 
 230:..\..\..\lvgl\version_6.1.2\lvgl\src\lv_objx/lv_imgbtn.c **** /**
 231:..\..\..\lvgl\version_6.1.2\lvgl\src\lv_objx/lv_imgbtn.c ****  * Get the right image in a given state
 232:..\..\..\lvgl\version_6.1.2\lvgl\src\lv_objx/lv_imgbtn.c ****  * @param imgbtn pointer to an image button object
 233:..\..\..\lvgl\version_6.1.2\lvgl\src\lv_objx/lv_imgbtn.c ****  * @param state the state where to get the image (from `lv_btn_state_t`) `
 234:..\..\..\lvgl\version_6.1.2\lvgl\src\lv_objx/lv_imgbtn.c ****  * @return pointer to the left image source (a C array or path to a file)
 235:..\..\..\lvgl\version_6.1.2\lvgl\src\lv_objx/lv_imgbtn.c ****  */
 236:..\..\..\lvgl\version_6.1.2\lvgl\src\lv_objx/lv_imgbtn.c **** const void * lv_imgbtn_get_src_right(lv_obj_t * imgbtn, lv_btn_state_t state)
 237:..\..\..\lvgl\version_6.1.2\lvgl\src\lv_objx/lv_imgbtn.c **** {
 238:..\..\..\lvgl\version_6.1.2\lvgl\src\lv_objx/lv_imgbtn.c ****     LV_ASSERT_OBJ(imgbtn, LV_OBJX_NAME);
 239:..\..\..\lvgl\version_6.1.2\lvgl\src\lv_objx/lv_imgbtn.c **** 
 240:..\..\..\lvgl\version_6.1.2\lvgl\src\lv_objx/lv_imgbtn.c ****     lv_imgbtn_ext_t * ext = lv_obj_get_ext_attr(imgbtn);
 241:..\..\..\lvgl\version_6.1.2\lvgl\src\lv_objx/lv_imgbtn.c **** 
 242:..\..\..\lvgl\version_6.1.2\lvgl\src\lv_objx/lv_imgbtn.c ****     return ext->img_src_right[state];
 243:..\..\..\lvgl\version_6.1.2\lvgl\src\lv_objx/lv_imgbtn.c **** }
 244:..\..\..\lvgl\version_6.1.2\lvgl\src\lv_objx/lv_imgbtn.c **** 
 245:..\..\..\lvgl\version_6.1.2\lvgl\src\lv_objx/lv_imgbtn.c **** #endif
 246:..\..\..\lvgl\version_6.1.2\lvgl\src\lv_objx/lv_imgbtn.c **** 
 247:..\..\..\lvgl\version_6.1.2\lvgl\src\lv_objx/lv_imgbtn.c **** /**
 248:..\..\..\lvgl\version_6.1.2\lvgl\src\lv_objx/lv_imgbtn.c ****  * Get style of a image button.
 249:..\..\..\lvgl\version_6.1.2\lvgl\src\lv_objx/lv_imgbtn.c ****  * @param imgbtn pointer to image button object
 250:..\..\..\lvgl\version_6.1.2\lvgl\src\lv_objx/lv_imgbtn.c ****  * @param type which style should be get
 251:..\..\..\lvgl\version_6.1.2\lvgl\src\lv_objx/lv_imgbtn.c ****  * @return style pointer to the style
 252:..\..\..\lvgl\version_6.1.2\lvgl\src\lv_objx/lv_imgbtn.c ****  */
 253:..\..\..\lvgl\version_6.1.2\lvgl\src\lv_objx/lv_imgbtn.c **** const lv_style_t * lv_imgbtn_get_style(const lv_obj_t * imgbtn, lv_imgbtn_style_t type)
 254:..\..\..\lvgl\version_6.1.2\lvgl\src\lv_objx/lv_imgbtn.c **** {
 380              		.loc 3 254 0
 381              		.cfi_startproc
 382              		@ args = 0, pretend = 0, frame = 8
 383              		@ frame_needed = 1, uses_anonymous_args = 0
 384 0000 80B5     		push	{r7, lr}
 385              		.cfi_def_cfa_offset 8
 386              		.cfi_offset 7, -8
 387              		.cfi_offset 14, -4
 388 0002 82B0     		sub	sp, sp, #8
 389              		.cfi_def_cfa_offset 16
 390 0004 00AF     		add	r7, sp, #0
 391              		.cfi_def_cfa_register 7
 392 0006 7860     		str	r0, [r7, #4]
ARM GAS  C:\Users\tmj32\AppData\Local\Temp\ccaMKuwb.s 			page 18


 393 0008 0B46     		mov	r3, r1
 394 000a FB70     		strb	r3, [r7, #3]
 255:..\..\..\lvgl\version_6.1.2\lvgl\src\lv_objx/lv_imgbtn.c ****     LV_ASSERT_OBJ(imgbtn, LV_OBJX_NAME);
 256:..\..\..\lvgl\version_6.1.2\lvgl\src\lv_objx/lv_imgbtn.c **** 
 257:..\..\..\lvgl\version_6.1.2\lvgl\src\lv_objx/lv_imgbtn.c ****     return lv_btn_get_style(imgbtn, type);
 395              		.loc 3 257 0
 396 000c FB78     		ldrb	r3, [r7, #3]	@ zero_extendqisi2
 397 000e 1946     		mov	r1, r3
 398 0010 7868     		ldr	r0, [r7, #4]
 399 0012 FFF7FEFF 		bl	lv_btn_get_style
 400 0016 0346     		mov	r3, r0
 258:..\..\..\lvgl\version_6.1.2\lvgl\src\lv_objx/lv_imgbtn.c **** }
 401              		.loc 3 258 0
 402 0018 1846     		mov	r0, r3
 403 001a 0837     		adds	r7, r7, #8
 404              		.cfi_def_cfa_offset 8
 405 001c BD46     		mov	sp, r7
 406              		.cfi_def_cfa_register 13
 407              		@ sp needed
 408 001e 80BD     		pop	{r7, pc}
 409              		.cfi_endproc
 410              	.LFE55:
 411              		.size	lv_imgbtn_get_style, .-lv_imgbtn_get_style
 412              		.section	.text.lv_imgbtn_design,"ax",%progbits
 413              		.align	2
 414              		.thumb
 415              		.thumb_func
 416              		.type	lv_imgbtn_design, %function
 417              	lv_imgbtn_design:
 418              	.LFB56:
 259:..\..\..\lvgl\version_6.1.2\lvgl\src\lv_objx/lv_imgbtn.c **** 
 260:..\..\..\lvgl\version_6.1.2\lvgl\src\lv_objx/lv_imgbtn.c **** /*=====================
 261:..\..\..\lvgl\version_6.1.2\lvgl\src\lv_objx/lv_imgbtn.c ****  * Other functions
 262:..\..\..\lvgl\version_6.1.2\lvgl\src\lv_objx/lv_imgbtn.c ****  *====================*/
 263:..\..\..\lvgl\version_6.1.2\lvgl\src\lv_objx/lv_imgbtn.c **** 
 264:..\..\..\lvgl\version_6.1.2\lvgl\src\lv_objx/lv_imgbtn.c **** /*
 265:..\..\..\lvgl\version_6.1.2\lvgl\src\lv_objx/lv_imgbtn.c ****  * New object specific "other" functions come here
 266:..\..\..\lvgl\version_6.1.2\lvgl\src\lv_objx/lv_imgbtn.c ****  */
 267:..\..\..\lvgl\version_6.1.2\lvgl\src\lv_objx/lv_imgbtn.c **** 
 268:..\..\..\lvgl\version_6.1.2\lvgl\src\lv_objx/lv_imgbtn.c **** /**********************
 269:..\..\..\lvgl\version_6.1.2\lvgl\src\lv_objx/lv_imgbtn.c ****  *   STATIC FUNCTIONS
 270:..\..\..\lvgl\version_6.1.2\lvgl\src\lv_objx/lv_imgbtn.c ****  **********************/
 271:..\..\..\lvgl\version_6.1.2\lvgl\src\lv_objx/lv_imgbtn.c **** 
 272:..\..\..\lvgl\version_6.1.2\lvgl\src\lv_objx/lv_imgbtn.c **** /**
 273:..\..\..\lvgl\version_6.1.2\lvgl\src\lv_objx/lv_imgbtn.c ****  * Handle the drawing related tasks of the image buttons
 274:..\..\..\lvgl\version_6.1.2\lvgl\src\lv_objx/lv_imgbtn.c ****  * @param imgbtn pointer to an object
 275:..\..\..\lvgl\version_6.1.2\lvgl\src\lv_objx/lv_imgbtn.c ****  * @param mask the object will be drawn only in this area
 276:..\..\..\lvgl\version_6.1.2\lvgl\src\lv_objx/lv_imgbtn.c ****  * @param mode LV_DESIGN_COVER_CHK: only check if the object fully covers the 'mask_p' area
 277:..\..\..\lvgl\version_6.1.2\lvgl\src\lv_objx/lv_imgbtn.c ****  *                                  (return 'true' if yes)
 278:..\..\..\lvgl\version_6.1.2\lvgl\src\lv_objx/lv_imgbtn.c ****  *             LV_DESIGN_DRAW: draw the object (always return 'true')
 279:..\..\..\lvgl\version_6.1.2\lvgl\src\lv_objx/lv_imgbtn.c ****  *             LV_DESIGN_DRAW_POST: drawing after every children are drawn
 280:..\..\..\lvgl\version_6.1.2\lvgl\src\lv_objx/lv_imgbtn.c ****  * @param return true/false, depends on 'mode'
 281:..\..\..\lvgl\version_6.1.2\lvgl\src\lv_objx/lv_imgbtn.c ****  */
 282:..\..\..\lvgl\version_6.1.2\lvgl\src\lv_objx/lv_imgbtn.c **** static bool lv_imgbtn_design(lv_obj_t * imgbtn, const lv_area_t * mask, lv_design_mode_t mode)
 283:..\..\..\lvgl\version_6.1.2\lvgl\src\lv_objx/lv_imgbtn.c **** {
 419              		.loc 3 283 0
 420              		.cfi_startproc
ARM GAS  C:\Users\tmj32\AppData\Local\Temp\ccaMKuwb.s 			page 19


 421              		@ args = 0, pretend = 0, frame = 48
 422              		@ frame_needed = 1, uses_anonymous_args = 0
 423 0000 90B5     		push	{r4, r7, lr}
 424              		.cfi_def_cfa_offset 12
 425              		.cfi_offset 4, -12
 426              		.cfi_offset 7, -8
 427              		.cfi_offset 14, -4
 428 0002 93B0     		sub	sp, sp, #76
 429              		.cfi_def_cfa_offset 88
 430 0004 06AF     		add	r7, sp, #24
 431              		.cfi_def_cfa 7, 64
 432 0006 F860     		str	r0, [r7, #12]
 433 0008 B960     		str	r1, [r7, #8]
 434 000a 1346     		mov	r3, r2
 435 000c FB71     		strb	r3, [r7, #7]
 284:..\..\..\lvgl\version_6.1.2\lvgl\src\lv_objx/lv_imgbtn.c ****     /*Return false if the object is not covers the mask_p area*/
 285:..\..\..\lvgl\version_6.1.2\lvgl\src\lv_objx/lv_imgbtn.c ****     if(mode == LV_DESIGN_COVER_CHK) {
 436              		.loc 3 285 0
 437 000e FB79     		ldrb	r3, [r7, #7]	@ zero_extendqisi2
 438 0010 022B     		cmp	r3, #2
 439 0012 1CD1     		bne	.L21
 440              	.LBB3:
 286:..\..\..\lvgl\version_6.1.2\lvgl\src\lv_objx/lv_imgbtn.c ****         lv_imgbtn_ext_t * ext = lv_obj_get_ext_attr(imgbtn);
 441              		.loc 3 286 0
 442 0014 F868     		ldr	r0, [r7, #12]
 443 0016 FFF7FEFF 		bl	lv_obj_get_ext_attr
 444 001a B862     		str	r0, [r7, #40]
 287:..\..\..\lvgl\version_6.1.2\lvgl\src\lv_objx/lv_imgbtn.c ****         bool cover            = false;
 445              		.loc 3 287 0
 446 001c 0023     		movs	r3, #0
 447 001e 87F82F30 		strb	r3, [r7, #47]
 288:..\..\..\lvgl\version_6.1.2\lvgl\src\lv_objx/lv_imgbtn.c ****         if(ext->act_cf == LV_IMG_CF_TRUE_COLOR || ext->act_cf == LV_IMG_CF_RAW) {
 448              		.loc 3 288 0
 449 0022 BB6A     		ldr	r3, [r7, #40]
 450 0024 93F83030 		ldrb	r3, [r3, #48]	@ zero_extendqisi2
 451 0028 042B     		cmp	r3, #4
 452 002a 04D0     		beq	.L22
 453              		.loc 3 288 0 is_stmt 0 discriminator 1
 454 002c BB6A     		ldr	r3, [r7, #40]
 455 002e 93F83030 		ldrb	r3, [r3, #48]	@ zero_extendqisi2
 456 0032 012B     		cmp	r3, #1
 457 0034 08D1     		bne	.L23
 458              	.L22:
 289:..\..\..\lvgl\version_6.1.2\lvgl\src\lv_objx/lv_imgbtn.c ****             cover = lv_area_is_in(mask, &imgbtn->coords);
 459              		.loc 3 289 0 is_stmt 1
 460 0036 FB68     		ldr	r3, [r7, #12]
 461 0038 1033     		adds	r3, r3, #16
 462 003a 1946     		mov	r1, r3
 463 003c B868     		ldr	r0, [r7, #8]
 464 003e FFF7FEFF 		bl	lv_area_is_in
 465 0042 0346     		mov	r3, r0
 466 0044 87F82F30 		strb	r3, [r7, #47]
 467              	.L23:
 290:..\..\..\lvgl\version_6.1.2\lvgl\src\lv_objx/lv_imgbtn.c ****         }
 291:..\..\..\lvgl\version_6.1.2\lvgl\src\lv_objx/lv_imgbtn.c **** 
 292:..\..\..\lvgl\version_6.1.2\lvgl\src\lv_objx/lv_imgbtn.c ****         return cover;
 468              		.loc 3 292 0
ARM GAS  C:\Users\tmj32\AppData\Local\Temp\ccaMKuwb.s 			page 20


 469 0048 97F82F30 		ldrb	r3, [r7, #47]	@ zero_extendqisi2
 470 004c 4BE0     		b	.L24
 471              	.L21:
 472              	.LBE3:
 293:..\..\..\lvgl\version_6.1.2\lvgl\src\lv_objx/lv_imgbtn.c ****     }
 294:..\..\..\lvgl\version_6.1.2\lvgl\src\lv_objx/lv_imgbtn.c ****     /*Draw the object*/
 295:..\..\..\lvgl\version_6.1.2\lvgl\src\lv_objx/lv_imgbtn.c ****     else if(mode == LV_DESIGN_DRAW_MAIN) {
 473              		.loc 3 295 0
 474 004e FB79     		ldrb	r3, [r7, #7]	@ zero_extendqisi2
 475 0050 002B     		cmp	r3, #0
 476 0052 47D1     		bne	.L25
 477              	.LBB4:
 296:..\..\..\lvgl\version_6.1.2\lvgl\src\lv_objx/lv_imgbtn.c ****         /*Just draw an image*/
 297:..\..\..\lvgl\version_6.1.2\lvgl\src\lv_objx/lv_imgbtn.c ****         lv_imgbtn_ext_t * ext    = lv_obj_get_ext_attr(imgbtn);
 478              		.loc 3 297 0
 479 0054 F868     		ldr	r0, [r7, #12]
 480 0056 FFF7FEFF 		bl	lv_obj_get_ext_attr
 481 005a 7862     		str	r0, [r7, #36]
 298:..\..\..\lvgl\version_6.1.2\lvgl\src\lv_objx/lv_imgbtn.c ****         lv_btn_state_t state     = lv_imgbtn_get_state(imgbtn);
 482              		.loc 3 298 0
 483 005c F868     		ldr	r0, [r7, #12]
 484 005e FFF7FEFF 		bl	lv_imgbtn_get_state
 485 0062 0346     		mov	r3, r0
 486 0064 87F82330 		strb	r3, [r7, #35]
 299:..\..\..\lvgl\version_6.1.2\lvgl\src\lv_objx/lv_imgbtn.c ****         const lv_style_t * style = lv_imgbtn_get_style(imgbtn, state);
 487              		.loc 3 299 0
 488 0068 97F82330 		ldrb	r3, [r7, #35]	@ zero_extendqisi2
 489 006c 1946     		mov	r1, r3
 490 006e F868     		ldr	r0, [r7, #12]
 491 0070 FFF7FEFF 		bl	lv_imgbtn_get_style
 492 0074 F861     		str	r0, [r7, #28]
 300:..\..\..\lvgl\version_6.1.2\lvgl\src\lv_objx/lv_imgbtn.c ****         lv_opa_t opa_scale       = lv_obj_get_opa_scale(imgbtn);
 493              		.loc 3 300 0
 494 0076 F868     		ldr	r0, [r7, #12]
 495 0078 FFF7FEFF 		bl	lv_obj_get_opa_scale
 496 007c 0346     		mov	r3, r0
 497 007e FB76     		strb	r3, [r7, #27]
 301:..\..\..\lvgl\version_6.1.2\lvgl\src\lv_objx/lv_imgbtn.c **** 
 302:..\..\..\lvgl\version_6.1.2\lvgl\src\lv_objx/lv_imgbtn.c **** 
 303:..\..\..\lvgl\version_6.1.2\lvgl\src\lv_objx/lv_imgbtn.c **** 
 304:..\..\..\lvgl\version_6.1.2\lvgl\src\lv_objx/lv_imgbtn.c **** #if LV_IMGBTN_TILED == 0
 305:..\..\..\lvgl\version_6.1.2\lvgl\src\lv_objx/lv_imgbtn.c ****         const void * src = ext->img_src[state];
 498              		.loc 3 305 0
 499 0080 97F82330 		ldrb	r3, [r7, #35]	@ zero_extendqisi2
 500 0084 7A6A     		ldr	r2, [r7, #36]
 501 0086 0633     		adds	r3, r3, #6
 502 0088 9B00     		lsls	r3, r3, #2
 503 008a 1344     		add	r3, r3, r2
 504 008c 5B68     		ldr	r3, [r3, #4]
 505 008e 7B61     		str	r3, [r7, #20]
 306:..\..\..\lvgl\version_6.1.2\lvgl\src\lv_objx/lv_imgbtn.c ****         if(lv_img_src_get_type(src) == LV_IMG_SRC_SYMBOL) {
 506              		.loc 3 306 0
 507 0090 7869     		ldr	r0, [r7, #20]
 508 0092 FFF7FEFF 		bl	lv_img_src_get_type
 509 0096 0346     		mov	r3, r0
 510 0098 022B     		cmp	r3, #2
 511 009a 19D1     		bne	.L26
ARM GAS  C:\Users\tmj32\AppData\Local\Temp\ccaMKuwb.s 			page 21


 307:..\..\..\lvgl\version_6.1.2\lvgl\src\lv_objx/lv_imgbtn.c ****             lv_draw_label(&imgbtn->coords, mask, style, opa_scale, src, LV_TXT_FLAG_NONE, NULL, NUL
 512              		.loc 3 307 0
 513 009c FB68     		ldr	r3, [r7, #12]
 514 009e 03F11004 		add	r4, r3, #16
 515 00a2 F868     		ldr	r0, [r7, #12]
 516 00a4 FFF7FEFF 		bl	lv_obj_get_base_dir
 517 00a8 0346     		mov	r3, r0
 518 00aa FA7E     		ldrb	r2, [r7, #27]	@ zero_extendqisi2
 519 00ac 0593     		str	r3, [sp, #20]
 520 00ae 0023     		movs	r3, #0
 521 00b0 0493     		str	r3, [sp, #16]
 522 00b2 0023     		movs	r3, #0
 523 00b4 0393     		str	r3, [sp, #12]
 524 00b6 0023     		movs	r3, #0
 525 00b8 0293     		str	r3, [sp, #8]
 526 00ba 0023     		movs	r3, #0
 527 00bc 0193     		str	r3, [sp, #4]
 528 00be 7B69     		ldr	r3, [r7, #20]
 529 00c0 0093     		str	r3, [sp]
 530 00c2 1346     		mov	r3, r2
 531 00c4 FA69     		ldr	r2, [r7, #28]
 532 00c6 B968     		ldr	r1, [r7, #8]
 533 00c8 2046     		mov	r0, r4
 534 00ca FFF7FEFF 		bl	lv_draw_label
 535 00ce 09E0     		b	.L25
 536              	.L26:
 308:..\..\..\lvgl\version_6.1.2\lvgl\src\lv_objx/lv_imgbtn.c ****         } else {
 309:..\..\..\lvgl\version_6.1.2\lvgl\src\lv_objx/lv_imgbtn.c ****             lv_draw_img(&imgbtn->coords, mask, src, style, opa_scale);
 537              		.loc 3 309 0
 538 00d0 FB68     		ldr	r3, [r7, #12]
 539 00d2 03F11000 		add	r0, r3, #16
 540 00d6 FB7E     		ldrb	r3, [r7, #27]	@ zero_extendqisi2
 541 00d8 0093     		str	r3, [sp]
 542 00da FB69     		ldr	r3, [r7, #28]
 543 00dc 7A69     		ldr	r2, [r7, #20]
 544 00de B968     		ldr	r1, [r7, #8]
 545 00e0 FFF7FEFF 		bl	lv_draw_img
 546              	.L25:
 547              	.LBE4:
 310:..\..\..\lvgl\version_6.1.2\lvgl\src\lv_objx/lv_imgbtn.c ****         }
 311:..\..\..\lvgl\version_6.1.2\lvgl\src\lv_objx/lv_imgbtn.c **** #else
 312:..\..\..\lvgl\version_6.1.2\lvgl\src\lv_objx/lv_imgbtn.c ****         const void * src;
 313:..\..\..\lvgl\version_6.1.2\lvgl\src\lv_objx/lv_imgbtn.c ****         src = ext->img_src_left[state];
 314:..\..\..\lvgl\version_6.1.2\lvgl\src\lv_objx/lv_imgbtn.c ****         if(lv_img_src_get_type(src) == LV_IMG_SRC_SYMBOL) {
 315:..\..\..\lvgl\version_6.1.2\lvgl\src\lv_objx/lv_imgbtn.c ****             LV_LOG_WARN("lv_imgbtn_design: SYMBOLS are not supported in tiled mode")
 316:..\..\..\lvgl\version_6.1.2\lvgl\src\lv_objx/lv_imgbtn.c ****             return true;
 317:..\..\..\lvgl\version_6.1.2\lvgl\src\lv_objx/lv_imgbtn.c ****         }
 318:..\..\..\lvgl\version_6.1.2\lvgl\src\lv_objx/lv_imgbtn.c **** 
 319:..\..\..\lvgl\version_6.1.2\lvgl\src\lv_objx/lv_imgbtn.c ****         lv_img_header_t header;
 320:..\..\..\lvgl\version_6.1.2\lvgl\src\lv_objx/lv_imgbtn.c ****         lv_area_t coords;
 321:..\..\..\lvgl\version_6.1.2\lvgl\src\lv_objx/lv_imgbtn.c ****         lv_coord_t left_w = 0;
 322:..\..\..\lvgl\version_6.1.2\lvgl\src\lv_objx/lv_imgbtn.c ****         lv_coord_t right_w = 0;
 323:..\..\..\lvgl\version_6.1.2\lvgl\src\lv_objx/lv_imgbtn.c **** 
 324:..\..\..\lvgl\version_6.1.2\lvgl\src\lv_objx/lv_imgbtn.c ****         if(src) {
 325:..\..\..\lvgl\version_6.1.2\lvgl\src\lv_objx/lv_imgbtn.c ****             lv_img_decoder_get_info(src, &header);
 326:..\..\..\lvgl\version_6.1.2\lvgl\src\lv_objx/lv_imgbtn.c ****             left_w = header.w;
 327:..\..\..\lvgl\version_6.1.2\lvgl\src\lv_objx/lv_imgbtn.c ****             coords.x1 = imgbtn->coords.x1;
ARM GAS  C:\Users\tmj32\AppData\Local\Temp\ccaMKuwb.s 			page 22


 328:..\..\..\lvgl\version_6.1.2\lvgl\src\lv_objx/lv_imgbtn.c ****             coords.y1 = imgbtn->coords.y1;
 329:..\..\..\lvgl\version_6.1.2\lvgl\src\lv_objx/lv_imgbtn.c ****             coords.x2 = coords.x1 + header.w - 1;
 330:..\..\..\lvgl\version_6.1.2\lvgl\src\lv_objx/lv_imgbtn.c ****             coords.y2 = coords.y1 + header.h - 1;
 331:..\..\..\lvgl\version_6.1.2\lvgl\src\lv_objx/lv_imgbtn.c ****             lv_draw_img(&coords, mask, src, style, opa_scale);
 332:..\..\..\lvgl\version_6.1.2\lvgl\src\lv_objx/lv_imgbtn.c ****         }
 333:..\..\..\lvgl\version_6.1.2\lvgl\src\lv_objx/lv_imgbtn.c **** 
 334:..\..\..\lvgl\version_6.1.2\lvgl\src\lv_objx/lv_imgbtn.c ****         src = ext->img_src_right[state];
 335:..\..\..\lvgl\version_6.1.2\lvgl\src\lv_objx/lv_imgbtn.c ****         if(src) {
 336:..\..\..\lvgl\version_6.1.2\lvgl\src\lv_objx/lv_imgbtn.c ****             lv_img_decoder_get_info(src, &header);
 337:..\..\..\lvgl\version_6.1.2\lvgl\src\lv_objx/lv_imgbtn.c ****             right_w = header.w;
 338:..\..\..\lvgl\version_6.1.2\lvgl\src\lv_objx/lv_imgbtn.c ****             coords.x1 = imgbtn->coords.x2 - header.w + 1;
 339:..\..\..\lvgl\version_6.1.2\lvgl\src\lv_objx/lv_imgbtn.c ****             coords.y1 = imgbtn->coords.y1;
 340:..\..\..\lvgl\version_6.1.2\lvgl\src\lv_objx/lv_imgbtn.c ****             coords.x2 = imgbtn->coords.x2;
 341:..\..\..\lvgl\version_6.1.2\lvgl\src\lv_objx/lv_imgbtn.c ****             coords.y2 = imgbtn->coords.y1 + header.h - 1;
 342:..\..\..\lvgl\version_6.1.2\lvgl\src\lv_objx/lv_imgbtn.c ****             lv_draw_img(&coords, mask, src, style, opa_scale);
 343:..\..\..\lvgl\version_6.1.2\lvgl\src\lv_objx/lv_imgbtn.c ****         }
 344:..\..\..\lvgl\version_6.1.2\lvgl\src\lv_objx/lv_imgbtn.c **** 
 345:..\..\..\lvgl\version_6.1.2\lvgl\src\lv_objx/lv_imgbtn.c ****         src = ext->img_src_mid[state];
 346:..\..\..\lvgl\version_6.1.2\lvgl\src\lv_objx/lv_imgbtn.c ****         if(src) {
 347:..\..\..\lvgl\version_6.1.2\lvgl\src\lv_objx/lv_imgbtn.c ****             lv_coord_t obj_w = lv_obj_get_width(imgbtn);
 348:..\..\..\lvgl\version_6.1.2\lvgl\src\lv_objx/lv_imgbtn.c ****             lv_coord_t i;
 349:..\..\..\lvgl\version_6.1.2\lvgl\src\lv_objx/lv_imgbtn.c ****             lv_img_decoder_get_info(src, &header);
 350:..\..\..\lvgl\version_6.1.2\lvgl\src\lv_objx/lv_imgbtn.c **** 
 351:..\..\..\lvgl\version_6.1.2\lvgl\src\lv_objx/lv_imgbtn.c ****             coords.x1 = imgbtn->coords.x1 + left_w;
 352:..\..\..\lvgl\version_6.1.2\lvgl\src\lv_objx/lv_imgbtn.c ****             coords.y1 = imgbtn->coords.y1;
 353:..\..\..\lvgl\version_6.1.2\lvgl\src\lv_objx/lv_imgbtn.c ****             coords.x2 = coords.x1 + header.w - 1;
 354:..\..\..\lvgl\version_6.1.2\lvgl\src\lv_objx/lv_imgbtn.c ****             coords.y2 = imgbtn->coords.y1 + header.h - 1;
 355:..\..\..\lvgl\version_6.1.2\lvgl\src\lv_objx/lv_imgbtn.c **** 
 356:..\..\..\lvgl\version_6.1.2\lvgl\src\lv_objx/lv_imgbtn.c ****             for(i = 0; i < obj_w - right_w - left_w; i += header.w) {
 357:..\..\..\lvgl\version_6.1.2\lvgl\src\lv_objx/lv_imgbtn.c ****                 lv_draw_img(&coords, mask, src, style, opa_scale);
 358:..\..\..\lvgl\version_6.1.2\lvgl\src\lv_objx/lv_imgbtn.c ****                 coords.x1 = coords.x2 + 1;
 359:..\..\..\lvgl\version_6.1.2\lvgl\src\lv_objx/lv_imgbtn.c ****                 coords.x2 += header.w;
 360:..\..\..\lvgl\version_6.1.2\lvgl\src\lv_objx/lv_imgbtn.c ****             }
 361:..\..\..\lvgl\version_6.1.2\lvgl\src\lv_objx/lv_imgbtn.c ****         }
 362:..\..\..\lvgl\version_6.1.2\lvgl\src\lv_objx/lv_imgbtn.c **** 
 363:..\..\..\lvgl\version_6.1.2\lvgl\src\lv_objx/lv_imgbtn.c **** #endif
 364:..\..\..\lvgl\version_6.1.2\lvgl\src\lv_objx/lv_imgbtn.c **** 
 365:..\..\..\lvgl\version_6.1.2\lvgl\src\lv_objx/lv_imgbtn.c ****     }
 366:..\..\..\lvgl\version_6.1.2\lvgl\src\lv_objx/lv_imgbtn.c ****     /*Post draw when the children are drawn*/
 367:..\..\..\lvgl\version_6.1.2\lvgl\src\lv_objx/lv_imgbtn.c ****     else if(mode == LV_DESIGN_DRAW_POST) {
 368:..\..\..\lvgl\version_6.1.2\lvgl\src\lv_objx/lv_imgbtn.c ****     }
 369:..\..\..\lvgl\version_6.1.2\lvgl\src\lv_objx/lv_imgbtn.c **** 
 370:..\..\..\lvgl\version_6.1.2\lvgl\src\lv_objx/lv_imgbtn.c ****     return true;
 548              		.loc 3 370 0
 549 00e4 0123     		movs	r3, #1
 550              	.L24:
 371:..\..\..\lvgl\version_6.1.2\lvgl\src\lv_objx/lv_imgbtn.c **** }
 551              		.loc 3 371 0
 552 00e6 1846     		mov	r0, r3
 553 00e8 3437     		adds	r7, r7, #52
 554              		.cfi_def_cfa_offset 12
 555 00ea BD46     		mov	sp, r7
 556              		.cfi_def_cfa_register 13
 557              		@ sp needed
 558 00ec 90BD     		pop	{r4, r7, pc}
 559              		.cfi_endproc
 560              	.LFE56:
ARM GAS  C:\Users\tmj32\AppData\Local\Temp\ccaMKuwb.s 			page 23


 561              		.size	lv_imgbtn_design, .-lv_imgbtn_design
 562 00ee 00BF     		.section	.rodata
 563              		.align	2
 564              	.LC0:
 565 0000 6C765F69 		.ascii	"lv_imgbtn\000"
 565      6D676274 
 565      6E00
 566              		.section	.text.lv_imgbtn_signal,"ax",%progbits
 567              		.align	2
 568              		.thumb
 569              		.thumb_func
 570              		.type	lv_imgbtn_signal, %function
 571              	lv_imgbtn_signal:
 572              	.LFB57:
 372:..\..\..\lvgl\version_6.1.2\lvgl\src\lv_objx/lv_imgbtn.c **** 
 373:..\..\..\lvgl\version_6.1.2\lvgl\src\lv_objx/lv_imgbtn.c **** /**
 374:..\..\..\lvgl\version_6.1.2\lvgl\src\lv_objx/lv_imgbtn.c ****  * Signal function of the image button
 375:..\..\..\lvgl\version_6.1.2\lvgl\src\lv_objx/lv_imgbtn.c ****  * @param imgbtn pointer to a image button object
 376:..\..\..\lvgl\version_6.1.2\lvgl\src\lv_objx/lv_imgbtn.c ****  * @param sign a signal type from lv_signal_t enum
 377:..\..\..\lvgl\version_6.1.2\lvgl\src\lv_objx/lv_imgbtn.c ****  * @param param pointer to a signal specific variable
 378:..\..\..\lvgl\version_6.1.2\lvgl\src\lv_objx/lv_imgbtn.c ****  * @return LV_RES_OK: the object is not deleted in the function; LV_RES_INV: the object is deleted
 379:..\..\..\lvgl\version_6.1.2\lvgl\src\lv_objx/lv_imgbtn.c ****  */
 380:..\..\..\lvgl\version_6.1.2\lvgl\src\lv_objx/lv_imgbtn.c **** static lv_res_t lv_imgbtn_signal(lv_obj_t * imgbtn, lv_signal_t sign, void * param)
 381:..\..\..\lvgl\version_6.1.2\lvgl\src\lv_objx/lv_imgbtn.c **** {
 573              		.loc 3 381 0
 574              		.cfi_startproc
 575              		@ args = 0, pretend = 0, frame = 24
 576              		@ frame_needed = 1, uses_anonymous_args = 0
 577 0000 80B5     		push	{r7, lr}
 578              		.cfi_def_cfa_offset 8
 579              		.cfi_offset 7, -8
 580              		.cfi_offset 14, -4
 581 0002 86B0     		sub	sp, sp, #24
 582              		.cfi_def_cfa_offset 32
 583 0004 00AF     		add	r7, sp, #0
 584              		.cfi_def_cfa_register 7
 585 0006 F860     		str	r0, [r7, #12]
 586 0008 0B46     		mov	r3, r1
 587 000a 7A60     		str	r2, [r7, #4]
 588 000c FB72     		strb	r3, [r7, #11]
 382:..\..\..\lvgl\version_6.1.2\lvgl\src\lv_objx/lv_imgbtn.c ****     lv_res_t res;
 383:..\..\..\lvgl\version_6.1.2\lvgl\src\lv_objx/lv_imgbtn.c **** 
 384:..\..\..\lvgl\version_6.1.2\lvgl\src\lv_objx/lv_imgbtn.c ****     /* Include the ancient signal function */
 385:..\..\..\lvgl\version_6.1.2\lvgl\src\lv_objx/lv_imgbtn.c ****     res = ancestor_signal(imgbtn, sign, param);
 589              		.loc 3 385 0
 590 000e 104B     		ldr	r3, .L33
 591 0010 1B68     		ldr	r3, [r3]
 592 0012 F97A     		ldrb	r1, [r7, #11]	@ zero_extendqisi2
 593 0014 7A68     		ldr	r2, [r7, #4]
 594 0016 F868     		ldr	r0, [r7, #12]
 595 0018 9847     		blx	r3
 596 001a 0346     		mov	r3, r0
 597 001c FB75     		strb	r3, [r7, #23]
 386:..\..\..\lvgl\version_6.1.2\lvgl\src\lv_objx/lv_imgbtn.c ****     if(res != LV_RES_OK) return res;
 598              		.loc 3 386 0
 599 001e FB7D     		ldrb	r3, [r7, #23]	@ zero_extendqisi2
 600 0020 012B     		cmp	r3, #1
ARM GAS  C:\Users\tmj32\AppData\Local\Temp\ccaMKuwb.s 			page 24


 601 0022 01D0     		beq	.L29
 602              		.loc 3 386 0 is_stmt 0 discriminator 1
 603 0024 FB7D     		ldrb	r3, [r7, #23]	@ zero_extendqisi2
 604 0026 0FE0     		b	.L30
 605              	.L29:
 387:..\..\..\lvgl\version_6.1.2\lvgl\src\lv_objx/lv_imgbtn.c ****     if(sign == LV_SIGNAL_GET_TYPE) return lv_obj_handle_get_type_signal(param, LV_OBJX_NAME);
 606              		.loc 3 387 0 is_stmt 1
 607 0028 FB7A     		ldrb	r3, [r7, #11]	@ zero_extendqisi2
 608 002a 072B     		cmp	r3, #7
 609 002c 05D1     		bne	.L31
 610              		.loc 3 387 0 is_stmt 0 discriminator 1
 611 002e 0949     		ldr	r1, .L33+4
 612 0030 7868     		ldr	r0, [r7, #4]
 613 0032 FFF7FEFF 		bl	lv_obj_handle_get_type_signal
 614 0036 0346     		mov	r3, r0
 615 0038 06E0     		b	.L30
 616              	.L31:
 388:..\..\..\lvgl\version_6.1.2\lvgl\src\lv_objx/lv_imgbtn.c **** 
 389:..\..\..\lvgl\version_6.1.2\lvgl\src\lv_objx/lv_imgbtn.c ****     if(sign == LV_SIGNAL_STYLE_CHG) {
 617              		.loc 3 389 0 is_stmt 1
 618 003a FB7A     		ldrb	r3, [r7, #11]	@ zero_extendqisi2
 619 003c 042B     		cmp	r3, #4
 620 003e 02D1     		bne	.L32
 390:..\..\..\lvgl\version_6.1.2\lvgl\src\lv_objx/lv_imgbtn.c ****         /* If the style changed then the button was clicked, released etc. so probably the state wa
 391:..\..\..\lvgl\version_6.1.2\lvgl\src\lv_objx/lv_imgbtn.c ****          * changed as well Set the new image for the new state.*/
 392:..\..\..\lvgl\version_6.1.2\lvgl\src\lv_objx/lv_imgbtn.c ****         refr_img(imgbtn);
 621              		.loc 3 392 0
 622 0040 F868     		ldr	r0, [r7, #12]
 623 0042 FFF7FEFF 		bl	refr_img
 624              	.L32:
 393:..\..\..\lvgl\version_6.1.2\lvgl\src\lv_objx/lv_imgbtn.c ****     } else if(sign == LV_SIGNAL_CLEANUP) {
 394:..\..\..\lvgl\version_6.1.2\lvgl\src\lv_objx/lv_imgbtn.c ****         /*Nothing to cleanup. (No dynamically allocated memory in 'ext')*/
 395:..\..\..\lvgl\version_6.1.2\lvgl\src\lv_objx/lv_imgbtn.c ****     }
 396:..\..\..\lvgl\version_6.1.2\lvgl\src\lv_objx/lv_imgbtn.c **** 
 397:..\..\..\lvgl\version_6.1.2\lvgl\src\lv_objx/lv_imgbtn.c ****     return res;
 625              		.loc 3 397 0
 626 0046 FB7D     		ldrb	r3, [r7, #23]	@ zero_extendqisi2
 627              	.L30:
 398:..\..\..\lvgl\version_6.1.2\lvgl\src\lv_objx/lv_imgbtn.c **** }
 628              		.loc 3 398 0
 629 0048 1846     		mov	r0, r3
 630 004a 1837     		adds	r7, r7, #24
 631              		.cfi_def_cfa_offset 8
 632 004c BD46     		mov	sp, r7
 633              		.cfi_def_cfa_register 13
 634              		@ sp needed
 635 004e 80BD     		pop	{r7, pc}
 636              	.L34:
 637              		.align	2
 638              	.L33:
 639 0050 00000000 		.word	ancestor_signal
 640 0054 00000000 		.word	.LC0
 641              		.cfi_endproc
 642              	.LFE57:
 643              		.size	lv_imgbtn_signal, .-lv_imgbtn_signal
 644              		.section	.text.refr_img,"ax",%progbits
 645              		.align	2
ARM GAS  C:\Users\tmj32\AppData\Local\Temp\ccaMKuwb.s 			page 25


 646              		.thumb
 647              		.thumb_func
 648              		.type	refr_img, %function
 649              	refr_img:
 650              	.LFB58:
 399:..\..\..\lvgl\version_6.1.2\lvgl\src\lv_objx/lv_imgbtn.c **** 
 400:..\..\..\lvgl\version_6.1.2\lvgl\src\lv_objx/lv_imgbtn.c **** static void refr_img(lv_obj_t * imgbtn)
 401:..\..\..\lvgl\version_6.1.2\lvgl\src\lv_objx/lv_imgbtn.c **** {
 651              		.loc 3 401 0
 652              		.cfi_startproc
 653              		@ args = 0, pretend = 0, frame = 32
 654              		@ frame_needed = 1, uses_anonymous_args = 0
 655 0000 80B5     		push	{r7, lr}
 656              		.cfi_def_cfa_offset 8
 657              		.cfi_offset 7, -8
 658              		.cfi_offset 14, -4
 659 0002 8AB0     		sub	sp, sp, #40
 660              		.cfi_def_cfa_offset 48
 661 0004 02AF     		add	r7, sp, #8
 662              		.cfi_def_cfa 7, 40
 663 0006 7860     		str	r0, [r7, #4]
 402:..\..\..\lvgl\version_6.1.2\lvgl\src\lv_objx/lv_imgbtn.c ****     lv_imgbtn_ext_t * ext = lv_obj_get_ext_attr(imgbtn);
 664              		.loc 3 402 0
 665 0008 7868     		ldr	r0, [r7, #4]
 666 000a FFF7FEFF 		bl	lv_obj_get_ext_attr
 667 000e B861     		str	r0, [r7, #24]
 403:..\..\..\lvgl\version_6.1.2\lvgl\src\lv_objx/lv_imgbtn.c ****     lv_btn_state_t state  = lv_imgbtn_get_state(imgbtn);
 668              		.loc 3 403 0
 669 0010 7868     		ldr	r0, [r7, #4]
 670 0012 FFF7FEFF 		bl	lv_imgbtn_get_state
 671 0016 0346     		mov	r3, r0
 672 0018 FB75     		strb	r3, [r7, #23]
 404:..\..\..\lvgl\version_6.1.2\lvgl\src\lv_objx/lv_imgbtn.c ****     lv_img_header_t header;
 405:..\..\..\lvgl\version_6.1.2\lvgl\src\lv_objx/lv_imgbtn.c **** 
 406:..\..\..\lvgl\version_6.1.2\lvgl\src\lv_objx/lv_imgbtn.c **** #if LV_IMGBTN_TILED == 0
 407:..\..\..\lvgl\version_6.1.2\lvgl\src\lv_objx/lv_imgbtn.c ****     const void * src = ext->img_src[state];
 673              		.loc 3 407 0
 674 001a FB7D     		ldrb	r3, [r7, #23]	@ zero_extendqisi2
 675 001c BA69     		ldr	r2, [r7, #24]
 676 001e 0633     		adds	r3, r3, #6
 677 0020 9B00     		lsls	r3, r3, #2
 678 0022 1344     		add	r3, r3, r2
 679 0024 5B68     		ldr	r3, [r3, #4]
 680 0026 3B61     		str	r3, [r7, #16]
 408:..\..\..\lvgl\version_6.1.2\lvgl\src\lv_objx/lv_imgbtn.c **** #else
 409:..\..\..\lvgl\version_6.1.2\lvgl\src\lv_objx/lv_imgbtn.c ****     const void * src = ext->img_src_mid[state];
 410:..\..\..\lvgl\version_6.1.2\lvgl\src\lv_objx/lv_imgbtn.c **** #endif
 411:..\..\..\lvgl\version_6.1.2\lvgl\src\lv_objx/lv_imgbtn.c **** 
 412:..\..\..\lvgl\version_6.1.2\lvgl\src\lv_objx/lv_imgbtn.c ****     lv_res_t info_res = LV_RES_OK;
 681              		.loc 3 412 0
 682 0028 0123     		movs	r3, #1
 683 002a FB77     		strb	r3, [r7, #31]
 413:..\..\..\lvgl\version_6.1.2\lvgl\src\lv_objx/lv_imgbtn.c ****     if(lv_img_src_get_type(src) == LV_IMG_SRC_SYMBOL) {
 684              		.loc 3 413 0
 685 002c 3869     		ldr	r0, [r7, #16]
 686 002e FFF7FEFF 		bl	lv_img_src_get_type
 687 0032 0346     		mov	r3, r0
ARM GAS  C:\Users\tmj32\AppData\Local\Temp\ccaMKuwb.s 			page 26


 688 0034 022B     		cmp	r3, #2
 689 0036 35D1     		bne	.L36
 690              	.LBB5:
 414:..\..\..\lvgl\version_6.1.2\lvgl\src\lv_objx/lv_imgbtn.c ****         const lv_style_t * style = ext->btn.styles[state];
 691              		.loc 3 414 0
 692 0038 FB7D     		ldrb	r3, [r7, #23]	@ zero_extendqisi2
 693 003a BA69     		ldr	r2, [r7, #24]
 694 003c 9B00     		lsls	r3, r3, #2
 695 003e 1344     		add	r3, r3, r2
 696 0040 5B68     		ldr	r3, [r3, #4]
 697 0042 FB60     		str	r3, [r7, #12]
 415:..\..\..\lvgl\version_6.1.2\lvgl\src\lv_objx/lv_imgbtn.c ****         header.h = lv_font_get_line_height(style->text.font);
 698              		.loc 3 415 0
 699 0044 FB68     		ldr	r3, [r7, #12]
 700 0046 5B6B     		ldr	r3, [r3, #52]
 701 0048 1846     		mov	r0, r3
 702 004a FFF7FEFF 		bl	lv_font_get_line_height
 703 004e 0346     		mov	r3, r0
 704 0050 C3F30A03 		ubfx	r3, r3, #0, #11
 705 0054 9AB2     		uxth	r2, r3
 706 0056 7B89     		ldrh	r3, [r7, #10]	@ movhi
 707 0058 62F34F13 		bfi	r3, r2, #5, #11
 708 005c 7B81     		strh	r3, [r7, #10]	@ movhi
 416:..\..\..\lvgl\version_6.1.2\lvgl\src\lv_objx/lv_imgbtn.c ****         header.w = lv_txt_get_width(src, (uint16_t)strlen(src), style->text.font, style->text.lette
 709              		.loc 3 416 0
 710 005e 3869     		ldr	r0, [r7, #16]
 711 0060 FFF7FEFF 		bl	strlen
 712 0064 0346     		mov	r3, r0
 713 0066 99B2     		uxth	r1, r3
 714 0068 FB68     		ldr	r3, [r7, #12]
 715 006a 5A6B     		ldr	r2, [r3, #52]
 716 006c FB68     		ldr	r3, [r7, #12]
 717 006e B3F93800 		ldrsh	r0, [r3, #56]
 718 0072 0023     		movs	r3, #0
 719 0074 0093     		str	r3, [sp]
 720 0076 0346     		mov	r3, r0
 721 0078 3869     		ldr	r0, [r7, #16]
 722 007a FFF7FEFF 		bl	lv_txt_get_width
 723 007e 0346     		mov	r3, r0
 724 0080 9BB2     		uxth	r3, r3
 725 0082 C3F30A03 		ubfx	r3, r3, #0, #11
 726 0086 9AB2     		uxth	r2, r3
 727 0088 BB68     		ldr	r3, [r7, #8]
 728 008a 62F39423 		bfi	r3, r2, #10, #11
 729 008e BB60     		str	r3, [r7, #8]
 417:..\..\..\lvgl\version_6.1.2\lvgl\src\lv_objx/lv_imgbtn.c ****         header.always_zero = 0;
 730              		.loc 3 417 0
 731 0090 3B7A     		ldrb	r3, [r7, #8]
 732 0092 6FF34713 		bfc	r3, #5, #3
 733 0096 3B72     		strb	r3, [r7, #8]
 418:..\..\..\lvgl\version_6.1.2\lvgl\src\lv_objx/lv_imgbtn.c ****         header.cf = LV_IMG_CF_ALPHA_1BIT;
 734              		.loc 3 418 0
 735 0098 3B7A     		ldrb	r3, [r7, #8]
 736 009a 0B22     		movs	r2, #11
 737 009c 62F30403 		bfi	r3, r2, #0, #5
 738 00a0 3B72     		strb	r3, [r7, #8]
 739              	.LBE5:
ARM GAS  C:\Users\tmj32\AppData\Local\Temp\ccaMKuwb.s 			page 27


 740 00a2 07E0     		b	.L37
 741              	.L36:
 419:..\..\..\lvgl\version_6.1.2\lvgl\src\lv_objx/lv_imgbtn.c ****     } else {
 420:..\..\..\lvgl\version_6.1.2\lvgl\src\lv_objx/lv_imgbtn.c ****         info_res = lv_img_decoder_get_info(src, &header);
 742              		.loc 3 420 0
 743 00a4 07F10803 		add	r3, r7, #8
 744 00a8 1946     		mov	r1, r3
 745 00aa 3869     		ldr	r0, [r7, #16]
 746 00ac FFF7FEFF 		bl	lv_img_decoder_get_info
 747 00b0 0346     		mov	r3, r0
 748 00b2 FB77     		strb	r3, [r7, #31]
 749              	.L37:
 421:..\..\..\lvgl\version_6.1.2\lvgl\src\lv_objx/lv_imgbtn.c ****     }
 422:..\..\..\lvgl\version_6.1.2\lvgl\src\lv_objx/lv_imgbtn.c **** 
 423:..\..\..\lvgl\version_6.1.2\lvgl\src\lv_objx/lv_imgbtn.c ****     if(info_res == LV_RES_OK) {
 750              		.loc 3 423 0
 751 00b4 FB7F     		ldrb	r3, [r7, #31]	@ zero_extendqisi2
 752 00b6 012B     		cmp	r3, #1
 753 00b8 16D1     		bne	.L38
 424:..\..\..\lvgl\version_6.1.2\lvgl\src\lv_objx/lv_imgbtn.c ****         ext->act_cf = header.cf;
 754              		.loc 3 424 0
 755 00ba 3B7A     		ldrb	r3, [r7, #8]
 756 00bc C3F30403 		ubfx	r3, r3, #0, #5
 757 00c0 DBB2     		uxtb	r3, r3
 758 00c2 1A46     		mov	r2, r3
 759 00c4 BB69     		ldr	r3, [r7, #24]
 760 00c6 83F83020 		strb	r2, [r3, #48]
 425:..\..\..\lvgl\version_6.1.2\lvgl\src\lv_objx/lv_imgbtn.c **** #if LV_IMGBTN_TILED == 0
 426:..\..\..\lvgl\version_6.1.2\lvgl\src\lv_objx/lv_imgbtn.c ****         lv_obj_set_size(imgbtn, header.w, header.h);
 761              		.loc 3 426 0
 762 00ca BB68     		ldr	r3, [r7, #8]
 763 00cc C3F38A23 		ubfx	r3, r3, #10, #11
 764 00d0 9BB2     		uxth	r3, r3
 765 00d2 19B2     		sxth	r1, r3
 766 00d4 7B89     		ldrh	r3, [r7, #10]	@ movhi
 767 00d6 C3F34A13 		ubfx	r3, r3, #5, #11
 768 00da 9BB2     		uxth	r3, r3
 769 00dc 1BB2     		sxth	r3, r3
 770 00de 1A46     		mov	r2, r3
 771 00e0 7868     		ldr	r0, [r7, #4]
 772 00e2 FFF7FEFF 		bl	lv_obj_set_size
 773 00e6 03E0     		b	.L39
 774              	.L38:
 427:..\..\..\lvgl\version_6.1.2\lvgl\src\lv_objx/lv_imgbtn.c **** #else
 428:..\..\..\lvgl\version_6.1.2\lvgl\src\lv_objx/lv_imgbtn.c ****         lv_obj_set_height(imgbtn, header.h);
 429:..\..\..\lvgl\version_6.1.2\lvgl\src\lv_objx/lv_imgbtn.c **** #endif
 430:..\..\..\lvgl\version_6.1.2\lvgl\src\lv_objx/lv_imgbtn.c ****     } else {
 431:..\..\..\lvgl\version_6.1.2\lvgl\src\lv_objx/lv_imgbtn.c ****         ext->act_cf = LV_IMG_CF_UNKNOWN;
 775              		.loc 3 431 0
 776 00e8 BB69     		ldr	r3, [r7, #24]
 777 00ea 0022     		movs	r2, #0
 778 00ec 83F83020 		strb	r2, [r3, #48]
 779              	.L39:
 432:..\..\..\lvgl\version_6.1.2\lvgl\src\lv_objx/lv_imgbtn.c ****     }
 433:..\..\..\lvgl\version_6.1.2\lvgl\src\lv_objx/lv_imgbtn.c **** 
 434:..\..\..\lvgl\version_6.1.2\lvgl\src\lv_objx/lv_imgbtn.c ****     lv_obj_invalidate(imgbtn);
 780              		.loc 3 434 0
ARM GAS  C:\Users\tmj32\AppData\Local\Temp\ccaMKuwb.s 			page 28


 781 00f0 7868     		ldr	r0, [r7, #4]
 782 00f2 FFF7FEFF 		bl	lv_obj_invalidate
 435:..\..\..\lvgl\version_6.1.2\lvgl\src\lv_objx/lv_imgbtn.c **** }
 783              		.loc 3 435 0
 784 00f6 00BF     		nop
 785 00f8 2037     		adds	r7, r7, #32
 786              		.cfi_def_cfa_offset 8
 787 00fa BD46     		mov	sp, r7
 788              		.cfi_def_cfa_register 13
 789              		@ sp needed
 790 00fc 80BD     		pop	{r7, pc}
 791              		.cfi_endproc
 792              	.LFE58:
 793              		.size	refr_img, .-refr_img
 794 00fe 00BF     		.text
 795              	.Letext0:
 796              		.file 4 "c:\\program files (x86)\\cypress\\psoc creator\\4.3\\psoc creator\\import\\gnu\\arm\\5.4.
 797              		.file 5 "c:\\program files (x86)\\cypress\\psoc creator\\4.3\\psoc creator\\import\\gnu\\arm\\5.4.
 798              		.file 6 "..\\..\\..\\lvgl\\version_6.1.2\\lvgl\\src\\lv_objx\\../lv_core/../../../lv_conf.h"
 799              		.file 7 "..\\..\\..\\lvgl\\version_6.1.2\\lvgl\\src\\lv_objx\\../lv_core/../lv_misc/lv_color.h"
 800              		.file 8 "..\\..\\..\\lvgl\\version_6.1.2\\lvgl\\src\\lv_objx\\../lv_core/../lv_misc/lv_area.h"
 801              		.file 9 "..\\..\\..\\lvgl\\version_6.1.2\\lvgl\\src\\lv_objx\\../lv_core/lv_style.h"
 802              		.file 10 "..\\..\\..\\lvgl\\version_6.1.2\\lvgl\\src\\lv_objx\\../lv_core/../lv_misc/lv_types.h"
 803              		.file 11 "..\\..\\..\\lvgl\\version_6.1.2\\lvgl\\src\\lv_objx\\../lv_core/../lv_misc/lv_ll.h"
 804              		.file 12 "..\\..\\..\\lvgl\\version_6.1.2\\lvgl\\src\\lv_objx\\../lv_core/../lv_misc/lv_bidi.h"
 805              		.file 13 "..\\..\\..\\lvgl\\version_6.1.2\\lvgl\\src\\lv_objx\\../lv_core/lv_obj.h"
 806              		.file 14 "..\\..\\..\\lvgl\\version_6.1.2\\lvgl\\src\\lv_objx\\lv_cont.h"
 807              		.file 15 "..\\..\\..\\lvgl\\version_6.1.2\\lvgl\\src\\lv_objx\\lv_btn.h"
 808              		.file 16 "..\\..\\..\\lvgl\\version_6.1.2\\lvgl\\src\\lv_objx\\../lv_draw/../lv_misc/lv_txt.h"
 809              		.file 17 "..\\..\\..\\lvgl\\version_6.1.2\\lvgl\\src\\lv_objx\\../lv_draw/lv_img_decoder.h"