ARM GAS  C:\Users\tmj32\AppData\Local\Temp\ccepMVRX.s 			page 1


   1              		.syntax unified
   2              		.cpu cortex-m4
   3              		.eabi_attribute 27, 1
   4              		.fpu fpv4-sp-d16
   5              		.eabi_attribute 20, 1
   6              		.eabi_attribute 21, 1
   7              		.eabi_attribute 23, 3
   8              		.eabi_attribute 24, 1
   9              		.eabi_attribute 25, 1
  10              		.eabi_attribute 26, 1
  11              		.eabi_attribute 30, 6
  12              		.eabi_attribute 34, 1
  13              		.eabi_attribute 18, 4
  14              		.thumb
  15              		.syntax unified
  16              		.file	"lv_lmeter.c"
  17              		.text
  18              	.Ltext0:
  19              		.cfi_sections	.debug_frame
  20              		.section	.text.lv_color_mix,"ax",%progbits
  21              		.align	2
  22              		.thumb
  23              		.thumb_func
  24              		.type	lv_color_mix, %function
  25              	lv_color_mix:
  26              	.LFB5:
  27              		.file 1 "..\\..\\..\\lvgl\\version_6.1.2\\lvgl\\src\\lv_objx\\../lv_core/../lv_misc/lv_color.h"
   1:..\..\..\lvgl\version_6.1.2\lvgl\src\lv_objx\../lv_core/../lv_misc/lv_color.h **** /**
   2:..\..\..\lvgl\version_6.1.2\lvgl\src\lv_objx\../lv_core/../lv_misc/lv_color.h ****  * @file lv_color.h
   3:..\..\..\lvgl\version_6.1.2\lvgl\src\lv_objx\../lv_core/../lv_misc/lv_color.h ****  *
   4:..\..\..\lvgl\version_6.1.2\lvgl\src\lv_objx\../lv_core/../lv_misc/lv_color.h ****  */
   5:..\..\..\lvgl\version_6.1.2\lvgl\src\lv_objx\../lv_core/../lv_misc/lv_color.h **** 
   6:..\..\..\lvgl\version_6.1.2\lvgl\src\lv_objx\../lv_core/../lv_misc/lv_color.h **** #ifndef LV_COLOR_H
   7:..\..\..\lvgl\version_6.1.2\lvgl\src\lv_objx\../lv_core/../lv_misc/lv_color.h **** #define LV_COLOR_H
   8:..\..\..\lvgl\version_6.1.2\lvgl\src\lv_objx\../lv_core/../lv_misc/lv_color.h **** 
   9:..\..\..\lvgl\version_6.1.2\lvgl\src\lv_objx\../lv_core/../lv_misc/lv_color.h **** #ifdef __cplusplus
  10:..\..\..\lvgl\version_6.1.2\lvgl\src\lv_objx\../lv_core/../lv_misc/lv_color.h **** extern "C" {
  11:..\..\..\lvgl\version_6.1.2\lvgl\src\lv_objx\../lv_core/../lv_misc/lv_color.h **** #endif
  12:..\..\..\lvgl\version_6.1.2\lvgl\src\lv_objx\../lv_core/../lv_misc/lv_color.h **** 
  13:..\..\..\lvgl\version_6.1.2\lvgl\src\lv_objx\../lv_core/../lv_misc/lv_color.h **** /*********************
  14:..\..\..\lvgl\version_6.1.2\lvgl\src\lv_objx\../lv_core/../lv_misc/lv_color.h ****  *      INCLUDES
  15:..\..\..\lvgl\version_6.1.2\lvgl\src\lv_objx\../lv_core/../lv_misc/lv_color.h ****  *********************/
  16:..\..\..\lvgl\version_6.1.2\lvgl\src\lv_objx\../lv_core/../lv_misc/lv_color.h **** #ifdef LV_CONF_INCLUDE_SIMPLE
  17:..\..\..\lvgl\version_6.1.2\lvgl\src\lv_objx\../lv_core/../lv_misc/lv_color.h **** #include "lv_conf.h"
  18:..\..\..\lvgl\version_6.1.2\lvgl\src\lv_objx\../lv_core/../lv_misc/lv_color.h **** #else
  19:..\..\..\lvgl\version_6.1.2\lvgl\src\lv_objx\../lv_core/../lv_misc/lv_color.h **** #include "../../../lv_conf.h"
  20:..\..\..\lvgl\version_6.1.2\lvgl\src\lv_objx\../lv_core/../lv_misc/lv_color.h **** #endif
  21:..\..\..\lvgl\version_6.1.2\lvgl\src\lv_objx\../lv_core/../lv_misc/lv_color.h **** 
  22:..\..\..\lvgl\version_6.1.2\lvgl\src\lv_objx\../lv_core/../lv_misc/lv_color.h **** /*Error checking*/
  23:..\..\..\lvgl\version_6.1.2\lvgl\src\lv_objx\../lv_core/../lv_misc/lv_color.h **** #if LV_COLOR_DEPTH == 24
  24:..\..\..\lvgl\version_6.1.2\lvgl\src\lv_objx\../lv_core/../lv_misc/lv_color.h **** #error "LV_COLOR_DEPTH  24 is deprecated. Use LV_COLOR_DEPTH  32 instead (lv_conf.h)"
  25:..\..\..\lvgl\version_6.1.2\lvgl\src\lv_objx\../lv_core/../lv_misc/lv_color.h **** #endif
  26:..\..\..\lvgl\version_6.1.2\lvgl\src\lv_objx\../lv_core/../lv_misc/lv_color.h **** 
  27:..\..\..\lvgl\version_6.1.2\lvgl\src\lv_objx\../lv_core/../lv_misc/lv_color.h **** #if LV_COLOR_DEPTH != 32 && LV_COLOR_SCREEN_TRANSP != 0
  28:..\..\..\lvgl\version_6.1.2\lvgl\src\lv_objx\../lv_core/../lv_misc/lv_color.h **** #error "LV_COLOR_SCREEN_TRANSP requires LV_COLOR_DEPTH == 32. Set it in lv_conf.h"
  29:..\..\..\lvgl\version_6.1.2\lvgl\src\lv_objx\../lv_core/../lv_misc/lv_color.h **** #endif
  30:..\..\..\lvgl\version_6.1.2\lvgl\src\lv_objx\../lv_core/../lv_misc/lv_color.h **** 
ARM GAS  C:\Users\tmj32\AppData\Local\Temp\ccepMVRX.s 			page 2


  31:..\..\..\lvgl\version_6.1.2\lvgl\src\lv_objx\../lv_core/../lv_misc/lv_color.h **** #if LV_COLOR_DEPTH != 16 && LV_COLOR_16_SWAP != 0
  32:..\..\..\lvgl\version_6.1.2\lvgl\src\lv_objx\../lv_core/../lv_misc/lv_color.h **** #error "LV_COLOR_16_SWAP requires LV_COLOR_DEPTH == 16. Set it in lv_conf.h"
  33:..\..\..\lvgl\version_6.1.2\lvgl\src\lv_objx\../lv_core/../lv_misc/lv_color.h **** #endif
  34:..\..\..\lvgl\version_6.1.2\lvgl\src\lv_objx\../lv_core/../lv_misc/lv_color.h **** 
  35:..\..\..\lvgl\version_6.1.2\lvgl\src\lv_objx\../lv_core/../lv_misc/lv_color.h **** #include <stdint.h>
  36:..\..\..\lvgl\version_6.1.2\lvgl\src\lv_objx\../lv_core/../lv_misc/lv_color.h **** 
  37:..\..\..\lvgl\version_6.1.2\lvgl\src\lv_objx\../lv_core/../lv_misc/lv_color.h **** /*********************
  38:..\..\..\lvgl\version_6.1.2\lvgl\src\lv_objx\../lv_core/../lv_misc/lv_color.h ****  *      DEFINES
  39:..\..\..\lvgl\version_6.1.2\lvgl\src\lv_objx\../lv_core/../lv_misc/lv_color.h ****  *********************/
  40:..\..\..\lvgl\version_6.1.2\lvgl\src\lv_objx\../lv_core/../lv_misc/lv_color.h **** #define LV_COLOR_WHITE LV_COLOR_MAKE(0xFF, 0xFF, 0xFF)
  41:..\..\..\lvgl\version_6.1.2\lvgl\src\lv_objx\../lv_core/../lv_misc/lv_color.h **** #define LV_COLOR_SILVER LV_COLOR_MAKE(0xC0, 0xC0, 0xC0)
  42:..\..\..\lvgl\version_6.1.2\lvgl\src\lv_objx\../lv_core/../lv_misc/lv_color.h **** #define LV_COLOR_GRAY LV_COLOR_MAKE(0x80, 0x80, 0x80)
  43:..\..\..\lvgl\version_6.1.2\lvgl\src\lv_objx\../lv_core/../lv_misc/lv_color.h **** #define LV_COLOR_BLACK LV_COLOR_MAKE(0x00, 0x00, 0x00)
  44:..\..\..\lvgl\version_6.1.2\lvgl\src\lv_objx\../lv_core/../lv_misc/lv_color.h **** #define LV_COLOR_RED LV_COLOR_MAKE(0xFF, 0x00, 0x00)
  45:..\..\..\lvgl\version_6.1.2\lvgl\src\lv_objx\../lv_core/../lv_misc/lv_color.h **** #define LV_COLOR_MAROON LV_COLOR_MAKE(0x80, 0x00, 0x00)
  46:..\..\..\lvgl\version_6.1.2\lvgl\src\lv_objx\../lv_core/../lv_misc/lv_color.h **** #define LV_COLOR_YELLOW LV_COLOR_MAKE(0xFF, 0xFF, 0x00)
  47:..\..\..\lvgl\version_6.1.2\lvgl\src\lv_objx\../lv_core/../lv_misc/lv_color.h **** #define LV_COLOR_OLIVE LV_COLOR_MAKE(0x80, 0x80, 0x00)
  48:..\..\..\lvgl\version_6.1.2\lvgl\src\lv_objx\../lv_core/../lv_misc/lv_color.h **** #define LV_COLOR_LIME LV_COLOR_MAKE(0x00, 0xFF, 0x00)
  49:..\..\..\lvgl\version_6.1.2\lvgl\src\lv_objx\../lv_core/../lv_misc/lv_color.h **** #define LV_COLOR_GREEN LV_COLOR_MAKE(0x00, 0x80, 0x00)
  50:..\..\..\lvgl\version_6.1.2\lvgl\src\lv_objx\../lv_core/../lv_misc/lv_color.h **** #define LV_COLOR_CYAN LV_COLOR_MAKE(0x00, 0xFF, 0xFF)
  51:..\..\..\lvgl\version_6.1.2\lvgl\src\lv_objx\../lv_core/../lv_misc/lv_color.h **** #define LV_COLOR_AQUA LV_COLOR_CYAN
  52:..\..\..\lvgl\version_6.1.2\lvgl\src\lv_objx\../lv_core/../lv_misc/lv_color.h **** #define LV_COLOR_TEAL LV_COLOR_MAKE(0x00, 0x80, 0x80)
  53:..\..\..\lvgl\version_6.1.2\lvgl\src\lv_objx\../lv_core/../lv_misc/lv_color.h **** #define LV_COLOR_BLUE LV_COLOR_MAKE(0x00, 0x00, 0xFF)
  54:..\..\..\lvgl\version_6.1.2\lvgl\src\lv_objx\../lv_core/../lv_misc/lv_color.h **** #define LV_COLOR_NAVY LV_COLOR_MAKE(0x00, 0x00, 0x80)
  55:..\..\..\lvgl\version_6.1.2\lvgl\src\lv_objx\../lv_core/../lv_misc/lv_color.h **** #define LV_COLOR_MAGENTA LV_COLOR_MAKE(0xFF, 0x00, 0xFF)
  56:..\..\..\lvgl\version_6.1.2\lvgl\src\lv_objx\../lv_core/../lv_misc/lv_color.h **** #define LV_COLOR_PURPLE LV_COLOR_MAKE(0x80, 0x00, 0x80)
  57:..\..\..\lvgl\version_6.1.2\lvgl\src\lv_objx\../lv_core/../lv_misc/lv_color.h **** #define LV_COLOR_ORANGE LV_COLOR_MAKE(0xFF, 0xA5, 0x00)
  58:..\..\..\lvgl\version_6.1.2\lvgl\src\lv_objx\../lv_core/../lv_misc/lv_color.h **** 
  59:..\..\..\lvgl\version_6.1.2\lvgl\src\lv_objx\../lv_core/../lv_misc/lv_color.h **** /**
  60:..\..\..\lvgl\version_6.1.2\lvgl\src\lv_objx\../lv_core/../lv_misc/lv_color.h ****  * Opacity percentages.
  61:..\..\..\lvgl\version_6.1.2\lvgl\src\lv_objx\../lv_core/../lv_misc/lv_color.h ****  */
  62:..\..\..\lvgl\version_6.1.2\lvgl\src\lv_objx\../lv_core/../lv_misc/lv_color.h **** enum {
  63:..\..\..\lvgl\version_6.1.2\lvgl\src\lv_objx\../lv_core/../lv_misc/lv_color.h ****     LV_OPA_TRANSP = 0,
  64:..\..\..\lvgl\version_6.1.2\lvgl\src\lv_objx\../lv_core/../lv_misc/lv_color.h ****     LV_OPA_0      = 0,
  65:..\..\..\lvgl\version_6.1.2\lvgl\src\lv_objx\../lv_core/../lv_misc/lv_color.h ****     LV_OPA_10     = 25,
  66:..\..\..\lvgl\version_6.1.2\lvgl\src\lv_objx\../lv_core/../lv_misc/lv_color.h ****     LV_OPA_20     = 51,
  67:..\..\..\lvgl\version_6.1.2\lvgl\src\lv_objx\../lv_core/../lv_misc/lv_color.h ****     LV_OPA_30     = 76,
  68:..\..\..\lvgl\version_6.1.2\lvgl\src\lv_objx\../lv_core/../lv_misc/lv_color.h ****     LV_OPA_40     = 102,
  69:..\..\..\lvgl\version_6.1.2\lvgl\src\lv_objx\../lv_core/../lv_misc/lv_color.h ****     LV_OPA_50     = 127,
  70:..\..\..\lvgl\version_6.1.2\lvgl\src\lv_objx\../lv_core/../lv_misc/lv_color.h ****     LV_OPA_60     = 153,
  71:..\..\..\lvgl\version_6.1.2\lvgl\src\lv_objx\../lv_core/../lv_misc/lv_color.h ****     LV_OPA_70     = 178,
  72:..\..\..\lvgl\version_6.1.2\lvgl\src\lv_objx\../lv_core/../lv_misc/lv_color.h ****     LV_OPA_80     = 204,
  73:..\..\..\lvgl\version_6.1.2\lvgl\src\lv_objx\../lv_core/../lv_misc/lv_color.h ****     LV_OPA_90     = 229,
  74:..\..\..\lvgl\version_6.1.2\lvgl\src\lv_objx\../lv_core/../lv_misc/lv_color.h ****     LV_OPA_100    = 255,
  75:..\..\..\lvgl\version_6.1.2\lvgl\src\lv_objx\../lv_core/../lv_misc/lv_color.h ****     LV_OPA_COVER  = 255,
  76:..\..\..\lvgl\version_6.1.2\lvgl\src\lv_objx\../lv_core/../lv_misc/lv_color.h **** };
  77:..\..\..\lvgl\version_6.1.2\lvgl\src\lv_objx\../lv_core/../lv_misc/lv_color.h **** 
  78:..\..\..\lvgl\version_6.1.2\lvgl\src\lv_objx\../lv_core/../lv_misc/lv_color.h **** #define LV_OPA_MIN 16  /*Opacities below this will be transparent*/
  79:..\..\..\lvgl\version_6.1.2\lvgl\src\lv_objx\../lv_core/../lv_misc/lv_color.h **** #define LV_OPA_MAX 251 /*Opacities above this will fully cover*/
  80:..\..\..\lvgl\version_6.1.2\lvgl\src\lv_objx\../lv_core/../lv_misc/lv_color.h **** 
  81:..\..\..\lvgl\version_6.1.2\lvgl\src\lv_objx\../lv_core/../lv_misc/lv_color.h **** #if LV_COLOR_DEPTH == 1
  82:..\..\..\lvgl\version_6.1.2\lvgl\src\lv_objx\../lv_core/../lv_misc/lv_color.h **** #define LV_COLOR_SIZE 8
  83:..\..\..\lvgl\version_6.1.2\lvgl\src\lv_objx\../lv_core/../lv_misc/lv_color.h **** #elif LV_COLOR_DEPTH == 8
  84:..\..\..\lvgl\version_6.1.2\lvgl\src\lv_objx\../lv_core/../lv_misc/lv_color.h **** #define LV_COLOR_SIZE 8
  85:..\..\..\lvgl\version_6.1.2\lvgl\src\lv_objx\../lv_core/../lv_misc/lv_color.h **** #elif LV_COLOR_DEPTH == 16
  86:..\..\..\lvgl\version_6.1.2\lvgl\src\lv_objx\../lv_core/../lv_misc/lv_color.h **** #define LV_COLOR_SIZE 16
  87:..\..\..\lvgl\version_6.1.2\lvgl\src\lv_objx\../lv_core/../lv_misc/lv_color.h **** #elif LV_COLOR_DEPTH == 32
ARM GAS  C:\Users\tmj32\AppData\Local\Temp\ccepMVRX.s 			page 3


  88:..\..\..\lvgl\version_6.1.2\lvgl\src\lv_objx\../lv_core/../lv_misc/lv_color.h **** #define LV_COLOR_SIZE 32
  89:..\..\..\lvgl\version_6.1.2\lvgl\src\lv_objx\../lv_core/../lv_misc/lv_color.h **** #else
  90:..\..\..\lvgl\version_6.1.2\lvgl\src\lv_objx\../lv_core/../lv_misc/lv_color.h **** #error "Invalid LV_COLOR_DEPTH in lv_conf.h! Set it to 1, 8, 16 or 32!"
  91:..\..\..\lvgl\version_6.1.2\lvgl\src\lv_objx\../lv_core/../lv_misc/lv_color.h **** #endif
  92:..\..\..\lvgl\version_6.1.2\lvgl\src\lv_objx\../lv_core/../lv_misc/lv_color.h **** 
  93:..\..\..\lvgl\version_6.1.2\lvgl\src\lv_objx\../lv_core/../lv_misc/lv_color.h **** /*---------------------------------------
  94:..\..\..\lvgl\version_6.1.2\lvgl\src\lv_objx\../lv_core/../lv_misc/lv_color.h ****  * Macros for all existing  color depths
  95:..\..\..\lvgl\version_6.1.2\lvgl\src\lv_objx\../lv_core/../lv_misc/lv_color.h ****  * to set/get values of the color channels
  96:..\..\..\lvgl\version_6.1.2\lvgl\src\lv_objx\../lv_core/../lv_misc/lv_color.h ****  *------------------------------------------*/
  97:..\..\..\lvgl\version_6.1.2\lvgl\src\lv_objx\../lv_core/../lv_misc/lv_color.h **** # define LV_COLOR_SET_R1(c, v) (c).ch.red = (uint8_t)((v) & 0x1);
  98:..\..\..\lvgl\version_6.1.2\lvgl\src\lv_objx\../lv_core/../lv_misc/lv_color.h **** # define LV_COLOR_SET_G1(c, v) (c).ch.green = (uint8_t)((v) & 0x1);
  99:..\..\..\lvgl\version_6.1.2\lvgl\src\lv_objx\../lv_core/../lv_misc/lv_color.h **** # define LV_COLOR_SET_B1(c, v) (c).ch.blue = (uint8_t)((v) & 0x1);
 100:..\..\..\lvgl\version_6.1.2\lvgl\src\lv_objx\../lv_core/../lv_misc/lv_color.h **** # define LV_COLOR_SET_A1(c, v)
 101:..\..\..\lvgl\version_6.1.2\lvgl\src\lv_objx\../lv_core/../lv_misc/lv_color.h **** 
 102:..\..\..\lvgl\version_6.1.2\lvgl\src\lv_objx\../lv_core/../lv_misc/lv_color.h **** # define LV_COLOR_GET_R1(c) (c).ch.red
 103:..\..\..\lvgl\version_6.1.2\lvgl\src\lv_objx\../lv_core/../lv_misc/lv_color.h **** # define LV_COLOR_GET_G1(c) (c).ch.green
 104:..\..\..\lvgl\version_6.1.2\lvgl\src\lv_objx\../lv_core/../lv_misc/lv_color.h **** # define LV_COLOR_GET_B1(c) (c).ch.blue
 105:..\..\..\lvgl\version_6.1.2\lvgl\src\lv_objx\../lv_core/../lv_misc/lv_color.h **** # define LV_COLOR_GET_A1(c) 1
 106:..\..\..\lvgl\version_6.1.2\lvgl\src\lv_objx\../lv_core/../lv_misc/lv_color.h **** 
 107:..\..\..\lvgl\version_6.1.2\lvgl\src\lv_objx\../lv_core/../lv_misc/lv_color.h **** # define LV_COLOR_SET_R8(c, v) (c).ch.red = (uint8_t)(v) & 0x7U;
 108:..\..\..\lvgl\version_6.1.2\lvgl\src\lv_objx\../lv_core/../lv_misc/lv_color.h **** # define LV_COLOR_SET_G8(c, v) (c).ch.green = (uint8_t)(v) & 0x7U;
 109:..\..\..\lvgl\version_6.1.2\lvgl\src\lv_objx\../lv_core/../lv_misc/lv_color.h **** # define LV_COLOR_SET_B8(c, v) (c).ch.blue = (uint8_t)(v) & 0x3U;
 110:..\..\..\lvgl\version_6.1.2\lvgl\src\lv_objx\../lv_core/../lv_misc/lv_color.h **** # define LV_COLOR_SET_A8(c, v) do {} while(0)
 111:..\..\..\lvgl\version_6.1.2\lvgl\src\lv_objx\../lv_core/../lv_misc/lv_color.h **** 
 112:..\..\..\lvgl\version_6.1.2\lvgl\src\lv_objx\../lv_core/../lv_misc/lv_color.h **** # define LV_COLOR_GET_R8(c) (c).ch.red
 113:..\..\..\lvgl\version_6.1.2\lvgl\src\lv_objx\../lv_core/../lv_misc/lv_color.h **** # define LV_COLOR_GET_G8(c) (c).ch.green
 114:..\..\..\lvgl\version_6.1.2\lvgl\src\lv_objx\../lv_core/../lv_misc/lv_color.h **** # define LV_COLOR_GET_B8(c) (c).ch.blue
 115:..\..\..\lvgl\version_6.1.2\lvgl\src\lv_objx\../lv_core/../lv_misc/lv_color.h **** # define LV_COLOR_GET_A8(c) 0xFF
 116:..\..\..\lvgl\version_6.1.2\lvgl\src\lv_objx\../lv_core/../lv_misc/lv_color.h **** 
 117:..\..\..\lvgl\version_6.1.2\lvgl\src\lv_objx\../lv_core/../lv_misc/lv_color.h **** # define LV_COLOR_SET_R16(c, v) (c).ch.red = (uint8_t)(v) & 0x1FU;
 118:..\..\..\lvgl\version_6.1.2\lvgl\src\lv_objx\../lv_core/../lv_misc/lv_color.h **** # define LV_COLOR_SET_G16(c, v) (c).ch.green = (uint8_t)(v) & 0x3FU;
 119:..\..\..\lvgl\version_6.1.2\lvgl\src\lv_objx\../lv_core/../lv_misc/lv_color.h **** # define LV_COLOR_SET_G16_SWAP(c, v) {(c).ch.green_h = (uint8_t)(((v) >> 3) & 0x7); (c).ch.green_l 
 120:..\..\..\lvgl\version_6.1.2\lvgl\src\lv_objx\../lv_core/../lv_misc/lv_color.h **** # define LV_COLOR_SET_B16(c, v) (c).ch.blue = (uint8_t)(v) & 0x1FU;
 121:..\..\..\lvgl\version_6.1.2\lvgl\src\lv_objx\../lv_core/../lv_misc/lv_color.h **** # define LV_COLOR_SET_A16(c, v) do {} while(0)
 122:..\..\..\lvgl\version_6.1.2\lvgl\src\lv_objx\../lv_core/../lv_misc/lv_color.h **** 
 123:..\..\..\lvgl\version_6.1.2\lvgl\src\lv_objx\../lv_core/../lv_misc/lv_color.h **** # define LV_COLOR_GET_R16(c) (c).ch.red
 124:..\..\..\lvgl\version_6.1.2\lvgl\src\lv_objx\../lv_core/../lv_misc/lv_color.h **** # define LV_COLOR_GET_G16(c) (c).ch.green
 125:..\..\..\lvgl\version_6.1.2\lvgl\src\lv_objx\../lv_core/../lv_misc/lv_color.h **** # define LV_COLOR_GET_G16_SWAP(c) (((c).ch.green_h << 3) + (c).ch.green_l)
 126:..\..\..\lvgl\version_6.1.2\lvgl\src\lv_objx\../lv_core/../lv_misc/lv_color.h **** # define LV_COLOR_GET_B16(c) (c).ch.blue
 127:..\..\..\lvgl\version_6.1.2\lvgl\src\lv_objx\../lv_core/../lv_misc/lv_color.h **** # define LV_COLOR_GET_A16(c) 0xFF
 128:..\..\..\lvgl\version_6.1.2\lvgl\src\lv_objx\../lv_core/../lv_misc/lv_color.h **** 
 129:..\..\..\lvgl\version_6.1.2\lvgl\src\lv_objx\../lv_core/../lv_misc/lv_color.h **** # define LV_COLOR_SET_R32(c, v) (c).ch.red = (uint32_t)((v) & 0xFF);
 130:..\..\..\lvgl\version_6.1.2\lvgl\src\lv_objx\../lv_core/../lv_misc/lv_color.h **** # define LV_COLOR_SET_G32(c, v) (c).ch.green = (uint32_t)((v) & 0xFF);
 131:..\..\..\lvgl\version_6.1.2\lvgl\src\lv_objx\../lv_core/../lv_misc/lv_color.h **** # define LV_COLOR_SET_B32(c, v) (c).ch.blue = (uint32_t)((v) & 0xFF);
 132:..\..\..\lvgl\version_6.1.2\lvgl\src\lv_objx\../lv_core/../lv_misc/lv_color.h **** # define LV_COLOR_SET_A32(c, v) (c).ch.alpha = (uint32_t)((v) & 0xFF);
 133:..\..\..\lvgl\version_6.1.2\lvgl\src\lv_objx\../lv_core/../lv_misc/lv_color.h **** 
 134:..\..\..\lvgl\version_6.1.2\lvgl\src\lv_objx\../lv_core/../lv_misc/lv_color.h **** # define LV_COLOR_GET_R32(c) (c).ch.red
 135:..\..\..\lvgl\version_6.1.2\lvgl\src\lv_objx\../lv_core/../lv_misc/lv_color.h **** # define LV_COLOR_GET_G32(c) (c).ch.green
 136:..\..\..\lvgl\version_6.1.2\lvgl\src\lv_objx\../lv_core/../lv_misc/lv_color.h **** # define LV_COLOR_GET_B32(c) (c).ch.blue
 137:..\..\..\lvgl\version_6.1.2\lvgl\src\lv_objx\../lv_core/../lv_misc/lv_color.h **** # define LV_COLOR_GET_A32(c) (c).ch.alpha
 138:..\..\..\lvgl\version_6.1.2\lvgl\src\lv_objx\../lv_core/../lv_misc/lv_color.h **** 
 139:..\..\..\lvgl\version_6.1.2\lvgl\src\lv_objx\../lv_core/../lv_misc/lv_color.h **** 
 140:..\..\..\lvgl\version_6.1.2\lvgl\src\lv_objx\../lv_core/../lv_misc/lv_color.h **** /*---------------------------------------
 141:..\..\..\lvgl\version_6.1.2\lvgl\src\lv_objx\../lv_core/../lv_misc/lv_color.h ****  * Macros for the current color depth
 142:..\..\..\lvgl\version_6.1.2\lvgl\src\lv_objx\../lv_core/../lv_misc/lv_color.h ****  * to set/get values of the color channels
 143:..\..\..\lvgl\version_6.1.2\lvgl\src\lv_objx\../lv_core/../lv_misc/lv_color.h ****  *------------------------------------------*/
 144:..\..\..\lvgl\version_6.1.2\lvgl\src\lv_objx\../lv_core/../lv_misc/lv_color.h **** #if LV_COLOR_DEPTH == 1
ARM GAS  C:\Users\tmj32\AppData\Local\Temp\ccepMVRX.s 			page 4


 145:..\..\..\lvgl\version_6.1.2\lvgl\src\lv_objx\../lv_core/../lv_misc/lv_color.h **** # define LV_COLOR_SET_R(c, v) LV_COLOR_SET_R1(c,v)
 146:..\..\..\lvgl\version_6.1.2\lvgl\src\lv_objx\../lv_core/../lv_misc/lv_color.h **** # define LV_COLOR_SET_G(c, v) LV_COLOR_SET_G1(c,v)
 147:..\..\..\lvgl\version_6.1.2\lvgl\src\lv_objx\../lv_core/../lv_misc/lv_color.h **** # define LV_COLOR_SET_B(c, v) LV_COLOR_SET_B1(c,v)
 148:..\..\..\lvgl\version_6.1.2\lvgl\src\lv_objx\../lv_core/../lv_misc/lv_color.h **** # define LV_COLOR_SET_A(c, v) LV_COLOR_SET_A1(c,v)
 149:..\..\..\lvgl\version_6.1.2\lvgl\src\lv_objx\../lv_core/../lv_misc/lv_color.h **** 
 150:..\..\..\lvgl\version_6.1.2\lvgl\src\lv_objx\../lv_core/../lv_misc/lv_color.h **** # define LV_COLOR_GET_R(c) LV_COLOR_GET_R1(c)
 151:..\..\..\lvgl\version_6.1.2\lvgl\src\lv_objx\../lv_core/../lv_misc/lv_color.h **** # define LV_COLOR_GET_G(c) LV_COLOR_GET_G1(c)
 152:..\..\..\lvgl\version_6.1.2\lvgl\src\lv_objx\../lv_core/../lv_misc/lv_color.h **** # define LV_COLOR_GET_B(c) LV_COLOR_GET_B1(c)
 153:..\..\..\lvgl\version_6.1.2\lvgl\src\lv_objx\../lv_core/../lv_misc/lv_color.h **** # define LV_COLOR_GET_A(c) LV_COLOR_GET_A1(c)
 154:..\..\..\lvgl\version_6.1.2\lvgl\src\lv_objx\../lv_core/../lv_misc/lv_color.h **** 
 155:..\..\..\lvgl\version_6.1.2\lvgl\src\lv_objx\../lv_core/../lv_misc/lv_color.h **** #elif LV_COLOR_DEPTH == 8
 156:..\..\..\lvgl\version_6.1.2\lvgl\src\lv_objx\../lv_core/../lv_misc/lv_color.h **** # define LV_COLOR_SET_R(c, v) LV_COLOR_SET_R8(c,v)
 157:..\..\..\lvgl\version_6.1.2\lvgl\src\lv_objx\../lv_core/../lv_misc/lv_color.h **** # define LV_COLOR_SET_G(c, v) LV_COLOR_SET_G8(c,v)
 158:..\..\..\lvgl\version_6.1.2\lvgl\src\lv_objx\../lv_core/../lv_misc/lv_color.h **** # define LV_COLOR_SET_B(c, v) LV_COLOR_SET_B8(c,v)
 159:..\..\..\lvgl\version_6.1.2\lvgl\src\lv_objx\../lv_core/../lv_misc/lv_color.h **** # define LV_COLOR_SET_A(c, v) LV_COLOR_SET_A8(c,v)
 160:..\..\..\lvgl\version_6.1.2\lvgl\src\lv_objx\../lv_core/../lv_misc/lv_color.h **** 
 161:..\..\..\lvgl\version_6.1.2\lvgl\src\lv_objx\../lv_core/../lv_misc/lv_color.h **** # define LV_COLOR_GET_R(c) LV_COLOR_GET_R8(c)
 162:..\..\..\lvgl\version_6.1.2\lvgl\src\lv_objx\../lv_core/../lv_misc/lv_color.h **** # define LV_COLOR_GET_G(c) LV_COLOR_GET_G8(c)
 163:..\..\..\lvgl\version_6.1.2\lvgl\src\lv_objx\../lv_core/../lv_misc/lv_color.h **** # define LV_COLOR_GET_B(c) LV_COLOR_GET_B8(c)
 164:..\..\..\lvgl\version_6.1.2\lvgl\src\lv_objx\../lv_core/../lv_misc/lv_color.h **** # define LV_COLOR_GET_A(c) LV_COLOR_GET_A8(c)
 165:..\..\..\lvgl\version_6.1.2\lvgl\src\lv_objx\../lv_core/../lv_misc/lv_color.h **** 
 166:..\..\..\lvgl\version_6.1.2\lvgl\src\lv_objx\../lv_core/../lv_misc/lv_color.h **** #elif LV_COLOR_DEPTH == 16
 167:..\..\..\lvgl\version_6.1.2\lvgl\src\lv_objx\../lv_core/../lv_misc/lv_color.h **** # define LV_COLOR_SET_R(c, v) LV_COLOR_SET_R16(c,v)
 168:..\..\..\lvgl\version_6.1.2\lvgl\src\lv_objx\../lv_core/../lv_misc/lv_color.h **** # if LV_COLOR_16_SWAP == 0
 169:..\..\..\lvgl\version_6.1.2\lvgl\src\lv_objx\../lv_core/../lv_misc/lv_color.h **** #   define LV_COLOR_SET_G(c, v) LV_COLOR_SET_G16(c,v)
 170:..\..\..\lvgl\version_6.1.2\lvgl\src\lv_objx\../lv_core/../lv_misc/lv_color.h **** # else
 171:..\..\..\lvgl\version_6.1.2\lvgl\src\lv_objx\../lv_core/../lv_misc/lv_color.h **** #   define LV_COLOR_SET_G(c, v) LV_COLOR_SET_G16_SWAP(c,v)
 172:..\..\..\lvgl\version_6.1.2\lvgl\src\lv_objx\../lv_core/../lv_misc/lv_color.h **** # endif
 173:..\..\..\lvgl\version_6.1.2\lvgl\src\lv_objx\../lv_core/../lv_misc/lv_color.h **** # define LV_COLOR_SET_B(c, v) LV_COLOR_SET_B16(c,v)
 174:..\..\..\lvgl\version_6.1.2\lvgl\src\lv_objx\../lv_core/../lv_misc/lv_color.h **** # define LV_COLOR_SET_A(c, v) LV_COLOR_SET_A16(c,v)
 175:..\..\..\lvgl\version_6.1.2\lvgl\src\lv_objx\../lv_core/../lv_misc/lv_color.h **** 
 176:..\..\..\lvgl\version_6.1.2\lvgl\src\lv_objx\../lv_core/../lv_misc/lv_color.h **** # define LV_COLOR_GET_R(c) LV_COLOR_GET_R16(c)
 177:..\..\..\lvgl\version_6.1.2\lvgl\src\lv_objx\../lv_core/../lv_misc/lv_color.h **** # if LV_COLOR_16_SWAP == 0
 178:..\..\..\lvgl\version_6.1.2\lvgl\src\lv_objx\../lv_core/../lv_misc/lv_color.h **** #   define LV_COLOR_GET_G(c) LV_COLOR_GET_G16(c)
 179:..\..\..\lvgl\version_6.1.2\lvgl\src\lv_objx\../lv_core/../lv_misc/lv_color.h **** # else
 180:..\..\..\lvgl\version_6.1.2\lvgl\src\lv_objx\../lv_core/../lv_misc/lv_color.h **** #   define LV_COLOR_GET_G(c) LV_COLOR_GET_G16_SWAP(c)
 181:..\..\..\lvgl\version_6.1.2\lvgl\src\lv_objx\../lv_core/../lv_misc/lv_color.h **** # endif
 182:..\..\..\lvgl\version_6.1.2\lvgl\src\lv_objx\../lv_core/../lv_misc/lv_color.h **** # define LV_COLOR_GET_B(c)   LV_COLOR_GET_B16(c)
 183:..\..\..\lvgl\version_6.1.2\lvgl\src\lv_objx\../lv_core/../lv_misc/lv_color.h **** # define LV_COLOR_GET_A(c)   LV_COLOR_GET_A16(c)
 184:..\..\..\lvgl\version_6.1.2\lvgl\src\lv_objx\../lv_core/../lv_misc/lv_color.h **** 
 185:..\..\..\lvgl\version_6.1.2\lvgl\src\lv_objx\../lv_core/../lv_misc/lv_color.h **** #elif LV_COLOR_DEPTH == 32
 186:..\..\..\lvgl\version_6.1.2\lvgl\src\lv_objx\../lv_core/../lv_misc/lv_color.h **** # define LV_COLOR_SET_R(c, v) LV_COLOR_SET_R32(c,v)
 187:..\..\..\lvgl\version_6.1.2\lvgl\src\lv_objx\../lv_core/../lv_misc/lv_color.h **** # define LV_COLOR_SET_G(c, v) LV_COLOR_SET_G32(c,v)
 188:..\..\..\lvgl\version_6.1.2\lvgl\src\lv_objx\../lv_core/../lv_misc/lv_color.h **** # define LV_COLOR_SET_B(c, v) LV_COLOR_SET_B32(c,v)
 189:..\..\..\lvgl\version_6.1.2\lvgl\src\lv_objx\../lv_core/../lv_misc/lv_color.h **** # define LV_COLOR_SET_A(c, v) LV_COLOR_SET_A32(c,v)
 190:..\..\..\lvgl\version_6.1.2\lvgl\src\lv_objx\../lv_core/../lv_misc/lv_color.h **** 
 191:..\..\..\lvgl\version_6.1.2\lvgl\src\lv_objx\../lv_core/../lv_misc/lv_color.h **** # define LV_COLOR_GET_R(c) LV_COLOR_GET_R32(c)
 192:..\..\..\lvgl\version_6.1.2\lvgl\src\lv_objx\../lv_core/../lv_misc/lv_color.h **** # define LV_COLOR_GET_G(c) LV_COLOR_GET_G32(c)
 193:..\..\..\lvgl\version_6.1.2\lvgl\src\lv_objx\../lv_core/../lv_misc/lv_color.h **** # define LV_COLOR_GET_B(c) LV_COLOR_GET_B32(c)
 194:..\..\..\lvgl\version_6.1.2\lvgl\src\lv_objx\../lv_core/../lv_misc/lv_color.h **** # define LV_COLOR_GET_A(c) LV_COLOR_GET_A32(c)
 195:..\..\..\lvgl\version_6.1.2\lvgl\src\lv_objx\../lv_core/../lv_misc/lv_color.h **** #endif
 196:..\..\..\lvgl\version_6.1.2\lvgl\src\lv_objx\../lv_core/../lv_misc/lv_color.h **** 
 197:..\..\..\lvgl\version_6.1.2\lvgl\src\lv_objx\../lv_core/../lv_misc/lv_color.h **** /**********************
 198:..\..\..\lvgl\version_6.1.2\lvgl\src\lv_objx\../lv_core/../lv_misc/lv_color.h ****  *      TYPEDEFS
 199:..\..\..\lvgl\version_6.1.2\lvgl\src\lv_objx\../lv_core/../lv_misc/lv_color.h ****  **********************/
 200:..\..\..\lvgl\version_6.1.2\lvgl\src\lv_objx\../lv_core/../lv_misc/lv_color.h **** 
 201:..\..\..\lvgl\version_6.1.2\lvgl\src\lv_objx\../lv_core/../lv_misc/lv_color.h **** typedef union
ARM GAS  C:\Users\tmj32\AppData\Local\Temp\ccepMVRX.s 			page 5


 202:..\..\..\lvgl\version_6.1.2\lvgl\src\lv_objx\../lv_core/../lv_misc/lv_color.h **** {
 203:..\..\..\lvgl\version_6.1.2\lvgl\src\lv_objx\../lv_core/../lv_misc/lv_color.h ****     struct
 204:..\..\..\lvgl\version_6.1.2\lvgl\src\lv_objx\../lv_core/../lv_misc/lv_color.h ****     {
 205:..\..\..\lvgl\version_6.1.2\lvgl\src\lv_objx\../lv_core/../lv_misc/lv_color.h ****         uint8_t blue : 1;
 206:..\..\..\lvgl\version_6.1.2\lvgl\src\lv_objx\../lv_core/../lv_misc/lv_color.h ****         uint8_t green : 1;
 207:..\..\..\lvgl\version_6.1.2\lvgl\src\lv_objx\../lv_core/../lv_misc/lv_color.h ****         uint8_t red : 1;
 208:..\..\..\lvgl\version_6.1.2\lvgl\src\lv_objx\../lv_core/../lv_misc/lv_color.h ****     } ch;
 209:..\..\..\lvgl\version_6.1.2\lvgl\src\lv_objx\../lv_core/../lv_misc/lv_color.h ****     uint8_t full;
 210:..\..\..\lvgl\version_6.1.2\lvgl\src\lv_objx\../lv_core/../lv_misc/lv_color.h **** } lv_color1_t;
 211:..\..\..\lvgl\version_6.1.2\lvgl\src\lv_objx\../lv_core/../lv_misc/lv_color.h **** 
 212:..\..\..\lvgl\version_6.1.2\lvgl\src\lv_objx\../lv_core/../lv_misc/lv_color.h **** typedef union
 213:..\..\..\lvgl\version_6.1.2\lvgl\src\lv_objx\../lv_core/../lv_misc/lv_color.h **** {
 214:..\..\..\lvgl\version_6.1.2\lvgl\src\lv_objx\../lv_core/../lv_misc/lv_color.h ****     struct
 215:..\..\..\lvgl\version_6.1.2\lvgl\src\lv_objx\../lv_core/../lv_misc/lv_color.h ****     {
 216:..\..\..\lvgl\version_6.1.2\lvgl\src\lv_objx\../lv_core/../lv_misc/lv_color.h ****         uint8_t blue : 2;
 217:..\..\..\lvgl\version_6.1.2\lvgl\src\lv_objx\../lv_core/../lv_misc/lv_color.h ****         uint8_t green : 3;
 218:..\..\..\lvgl\version_6.1.2\lvgl\src\lv_objx\../lv_core/../lv_misc/lv_color.h ****         uint8_t red : 3;
 219:..\..\..\lvgl\version_6.1.2\lvgl\src\lv_objx\../lv_core/../lv_misc/lv_color.h ****     } ch;
 220:..\..\..\lvgl\version_6.1.2\lvgl\src\lv_objx\../lv_core/../lv_misc/lv_color.h ****     uint8_t full;
 221:..\..\..\lvgl\version_6.1.2\lvgl\src\lv_objx\../lv_core/../lv_misc/lv_color.h **** } lv_color8_t;
 222:..\..\..\lvgl\version_6.1.2\lvgl\src\lv_objx\../lv_core/../lv_misc/lv_color.h **** 
 223:..\..\..\lvgl\version_6.1.2\lvgl\src\lv_objx\../lv_core/../lv_misc/lv_color.h **** typedef union
 224:..\..\..\lvgl\version_6.1.2\lvgl\src\lv_objx\../lv_core/../lv_misc/lv_color.h **** {
 225:..\..\..\lvgl\version_6.1.2\lvgl\src\lv_objx\../lv_core/../lv_misc/lv_color.h ****     struct
 226:..\..\..\lvgl\version_6.1.2\lvgl\src\lv_objx\../lv_core/../lv_misc/lv_color.h ****     {
 227:..\..\..\lvgl\version_6.1.2\lvgl\src\lv_objx\../lv_core/../lv_misc/lv_color.h **** #if LV_COLOR_16_SWAP == 0
 228:..\..\..\lvgl\version_6.1.2\lvgl\src\lv_objx\../lv_core/../lv_misc/lv_color.h ****         uint16_t blue : 5;
 229:..\..\..\lvgl\version_6.1.2\lvgl\src\lv_objx\../lv_core/../lv_misc/lv_color.h ****         uint16_t green : 6;
 230:..\..\..\lvgl\version_6.1.2\lvgl\src\lv_objx\../lv_core/../lv_misc/lv_color.h ****         uint16_t red : 5;
 231:..\..\..\lvgl\version_6.1.2\lvgl\src\lv_objx\../lv_core/../lv_misc/lv_color.h **** #else
 232:..\..\..\lvgl\version_6.1.2\lvgl\src\lv_objx\../lv_core/../lv_misc/lv_color.h ****         uint16_t green_h : 3;
 233:..\..\..\lvgl\version_6.1.2\lvgl\src\lv_objx\../lv_core/../lv_misc/lv_color.h ****         uint16_t red : 5;
 234:..\..\..\lvgl\version_6.1.2\lvgl\src\lv_objx\../lv_core/../lv_misc/lv_color.h ****         uint16_t blue : 5;
 235:..\..\..\lvgl\version_6.1.2\lvgl\src\lv_objx\../lv_core/../lv_misc/lv_color.h ****         uint16_t green_l : 3;
 236:..\..\..\lvgl\version_6.1.2\lvgl\src\lv_objx\../lv_core/../lv_misc/lv_color.h **** #endif
 237:..\..\..\lvgl\version_6.1.2\lvgl\src\lv_objx\../lv_core/../lv_misc/lv_color.h ****     } ch;
 238:..\..\..\lvgl\version_6.1.2\lvgl\src\lv_objx\../lv_core/../lv_misc/lv_color.h ****     uint16_t full;
 239:..\..\..\lvgl\version_6.1.2\lvgl\src\lv_objx\../lv_core/../lv_misc/lv_color.h **** } lv_color16_t;
 240:..\..\..\lvgl\version_6.1.2\lvgl\src\lv_objx\../lv_core/../lv_misc/lv_color.h **** 
 241:..\..\..\lvgl\version_6.1.2\lvgl\src\lv_objx\../lv_core/../lv_misc/lv_color.h **** typedef union
 242:..\..\..\lvgl\version_6.1.2\lvgl\src\lv_objx\../lv_core/../lv_misc/lv_color.h **** {
 243:..\..\..\lvgl\version_6.1.2\lvgl\src\lv_objx\../lv_core/../lv_misc/lv_color.h ****     struct
 244:..\..\..\lvgl\version_6.1.2\lvgl\src\lv_objx\../lv_core/../lv_misc/lv_color.h ****     {
 245:..\..\..\lvgl\version_6.1.2\lvgl\src\lv_objx\../lv_core/../lv_misc/lv_color.h ****         uint8_t blue;
 246:..\..\..\lvgl\version_6.1.2\lvgl\src\lv_objx\../lv_core/../lv_misc/lv_color.h ****         uint8_t green;
 247:..\..\..\lvgl\version_6.1.2\lvgl\src\lv_objx\../lv_core/../lv_misc/lv_color.h ****         uint8_t red;
 248:..\..\..\lvgl\version_6.1.2\lvgl\src\lv_objx\../lv_core/../lv_misc/lv_color.h ****         uint8_t alpha;
 249:..\..\..\lvgl\version_6.1.2\lvgl\src\lv_objx\../lv_core/../lv_misc/lv_color.h ****     } ch;
 250:..\..\..\lvgl\version_6.1.2\lvgl\src\lv_objx\../lv_core/../lv_misc/lv_color.h ****     uint32_t full;
 251:..\..\..\lvgl\version_6.1.2\lvgl\src\lv_objx\../lv_core/../lv_misc/lv_color.h **** } lv_color32_t;
 252:..\..\..\lvgl\version_6.1.2\lvgl\src\lv_objx\../lv_core/../lv_misc/lv_color.h **** 
 253:..\..\..\lvgl\version_6.1.2\lvgl\src\lv_objx\../lv_core/../lv_misc/lv_color.h **** #if LV_COLOR_DEPTH == 1
 254:..\..\..\lvgl\version_6.1.2\lvgl\src\lv_objx\../lv_core/../lv_misc/lv_color.h **** typedef uint8_t lv_color_int_t;
 255:..\..\..\lvgl\version_6.1.2\lvgl\src\lv_objx\../lv_core/../lv_misc/lv_color.h **** typedef lv_color1_t lv_color_t;
 256:..\..\..\lvgl\version_6.1.2\lvgl\src\lv_objx\../lv_core/../lv_misc/lv_color.h **** #elif LV_COLOR_DEPTH == 8
 257:..\..\..\lvgl\version_6.1.2\lvgl\src\lv_objx\../lv_core/../lv_misc/lv_color.h **** typedef uint8_t lv_color_int_t;
 258:..\..\..\lvgl\version_6.1.2\lvgl\src\lv_objx\../lv_core/../lv_misc/lv_color.h **** typedef lv_color8_t lv_color_t;
ARM GAS  C:\Users\tmj32\AppData\Local\Temp\ccepMVRX.s 			page 6


 259:..\..\..\lvgl\version_6.1.2\lvgl\src\lv_objx\../lv_core/../lv_misc/lv_color.h **** #elif LV_COLOR_DEPTH == 16
 260:..\..\..\lvgl\version_6.1.2\lvgl\src\lv_objx\../lv_core/../lv_misc/lv_color.h **** typedef uint16_t lv_color_int_t;
 261:..\..\..\lvgl\version_6.1.2\lvgl\src\lv_objx\../lv_core/../lv_misc/lv_color.h **** typedef lv_color16_t lv_color_t;
 262:..\..\..\lvgl\version_6.1.2\lvgl\src\lv_objx\../lv_core/../lv_misc/lv_color.h **** #elif LV_COLOR_DEPTH == 32
 263:..\..\..\lvgl\version_6.1.2\lvgl\src\lv_objx\../lv_core/../lv_misc/lv_color.h **** typedef uint32_t lv_color_int_t;
 264:..\..\..\lvgl\version_6.1.2\lvgl\src\lv_objx\../lv_core/../lv_misc/lv_color.h **** typedef lv_color32_t lv_color_t;
 265:..\..\..\lvgl\version_6.1.2\lvgl\src\lv_objx\../lv_core/../lv_misc/lv_color.h **** #else
 266:..\..\..\lvgl\version_6.1.2\lvgl\src\lv_objx\../lv_core/../lv_misc/lv_color.h **** #error "Invalid LV_COLOR_DEPTH in lv_conf.h! Set it to 1, 8, 16 or 32!"
 267:..\..\..\lvgl\version_6.1.2\lvgl\src\lv_objx\../lv_core/../lv_misc/lv_color.h **** #endif
 268:..\..\..\lvgl\version_6.1.2\lvgl\src\lv_objx\../lv_core/../lv_misc/lv_color.h **** 
 269:..\..\..\lvgl\version_6.1.2\lvgl\src\lv_objx\../lv_core/../lv_misc/lv_color.h **** typedef uint8_t lv_opa_t;
 270:..\..\..\lvgl\version_6.1.2\lvgl\src\lv_objx\../lv_core/../lv_misc/lv_color.h **** 
 271:..\..\..\lvgl\version_6.1.2\lvgl\src\lv_objx\../lv_core/../lv_misc/lv_color.h **** typedef struct
 272:..\..\..\lvgl\version_6.1.2\lvgl\src\lv_objx\../lv_core/../lv_misc/lv_color.h **** {
 273:..\..\..\lvgl\version_6.1.2\lvgl\src\lv_objx\../lv_core/../lv_misc/lv_color.h ****     uint16_t h;
 274:..\..\..\lvgl\version_6.1.2\lvgl\src\lv_objx\../lv_core/../lv_misc/lv_color.h ****     uint8_t s;
 275:..\..\..\lvgl\version_6.1.2\lvgl\src\lv_objx\../lv_core/../lv_misc/lv_color.h ****     uint8_t v;
 276:..\..\..\lvgl\version_6.1.2\lvgl\src\lv_objx\../lv_core/../lv_misc/lv_color.h **** } lv_color_hsv_t;
 277:..\..\..\lvgl\version_6.1.2\lvgl\src\lv_objx\../lv_core/../lv_misc/lv_color.h **** 
 278:..\..\..\lvgl\version_6.1.2\lvgl\src\lv_objx\../lv_core/../lv_misc/lv_color.h **** /**********************
 279:..\..\..\lvgl\version_6.1.2\lvgl\src\lv_objx\../lv_core/../lv_misc/lv_color.h ****  * GLOBAL PROTOTYPES
 280:..\..\..\lvgl\version_6.1.2\lvgl\src\lv_objx\../lv_core/../lv_misc/lv_color.h ****  **********************/
 281:..\..\..\lvgl\version_6.1.2\lvgl\src\lv_objx\../lv_core/../lv_misc/lv_color.h **** 
 282:..\..\..\lvgl\version_6.1.2\lvgl\src\lv_objx\../lv_core/../lv_misc/lv_color.h **** /*In color conversations:
 283:..\..\..\lvgl\version_6.1.2\lvgl\src\lv_objx\../lv_core/../lv_misc/lv_color.h ****  * - When converting to bigger color type the LSB weight of 1 LSB is calculated
 284:..\..\..\lvgl\version_6.1.2\lvgl\src\lv_objx\../lv_core/../lv_misc/lv_color.h ****  *   E.g. 16 bit Red has 5 bits
 285:..\..\..\lvgl\version_6.1.2\lvgl\src\lv_objx\../lv_core/../lv_misc/lv_color.h ****  *         8 bit Red has 2 bits
 286:..\..\..\lvgl\version_6.1.2\lvgl\src\lv_objx\../lv_core/../lv_misc/lv_color.h ****  *        ----------------------
 287:..\..\..\lvgl\version_6.1.2\lvgl\src\lv_objx\../lv_core/../lv_misc/lv_color.h ****  *        8 bit red LSB = (2^5 - 1) / (2^2 - 1) = 31 / 3 = 10
 288:..\..\..\lvgl\version_6.1.2\lvgl\src\lv_objx\../lv_core/../lv_misc/lv_color.h ****  *
 289:..\..\..\lvgl\version_6.1.2\lvgl\src\lv_objx\../lv_core/../lv_misc/lv_color.h ****  * - When calculating to smaller color type simply shift out the LSBs
 290:..\..\..\lvgl\version_6.1.2\lvgl\src\lv_objx\../lv_core/../lv_misc/lv_color.h ****  *   E.g.  8 bit Red has 2 bits
 291:..\..\..\lvgl\version_6.1.2\lvgl\src\lv_objx\../lv_core/../lv_misc/lv_color.h ****  *        16 bit Red has 5 bits
 292:..\..\..\lvgl\version_6.1.2\lvgl\src\lv_objx\../lv_core/../lv_misc/lv_color.h ****  *        ----------------------
 293:..\..\..\lvgl\version_6.1.2\lvgl\src\lv_objx\../lv_core/../lv_misc/lv_color.h ****  *         Shift right with 5 - 3 = 2
 294:..\..\..\lvgl\version_6.1.2\lvgl\src\lv_objx\../lv_core/../lv_misc/lv_color.h ****  */
 295:..\..\..\lvgl\version_6.1.2\lvgl\src\lv_objx\../lv_core/../lv_misc/lv_color.h **** 
 296:..\..\..\lvgl\version_6.1.2\lvgl\src\lv_objx\../lv_core/../lv_misc/lv_color.h **** static inline uint8_t lv_color_to1(lv_color_t color)
 297:..\..\..\lvgl\version_6.1.2\lvgl\src\lv_objx\../lv_core/../lv_misc/lv_color.h **** {
 298:..\..\..\lvgl\version_6.1.2\lvgl\src\lv_objx\../lv_core/../lv_misc/lv_color.h **** #if LV_COLOR_DEPTH == 1
 299:..\..\..\lvgl\version_6.1.2\lvgl\src\lv_objx\../lv_core/../lv_misc/lv_color.h ****     return color.full;
 300:..\..\..\lvgl\version_6.1.2\lvgl\src\lv_objx\../lv_core/../lv_misc/lv_color.h **** #elif LV_COLOR_DEPTH == 8
 301:..\..\..\lvgl\version_6.1.2\lvgl\src\lv_objx\../lv_core/../lv_misc/lv_color.h ****     if((LV_COLOR_GET_R(color) & 0x4) || (LV_COLOR_GET_G(color) & 0x4) || (LV_COLOR_GET_B(color) & 0
 302:..\..\..\lvgl\version_6.1.2\lvgl\src\lv_objx\../lv_core/../lv_misc/lv_color.h ****         return 1;
 303:..\..\..\lvgl\version_6.1.2\lvgl\src\lv_objx\../lv_core/../lv_misc/lv_color.h ****     } else {
 304:..\..\..\lvgl\version_6.1.2\lvgl\src\lv_objx\../lv_core/../lv_misc/lv_color.h ****         return 0;
 305:..\..\..\lvgl\version_6.1.2\lvgl\src\lv_objx\../lv_core/../lv_misc/lv_color.h ****     }
 306:..\..\..\lvgl\version_6.1.2\lvgl\src\lv_objx\../lv_core/../lv_misc/lv_color.h **** #elif LV_COLOR_DEPTH == 16
 307:..\..\..\lvgl\version_6.1.2\lvgl\src\lv_objx\../lv_core/../lv_misc/lv_color.h ****     if((LV_COLOR_GET_R(color) & 0x10) || (LV_COLOR_GET_G(color) & 0x20) || (LV_COLOR_GET_B(color) &
 308:..\..\..\lvgl\version_6.1.2\lvgl\src\lv_objx\../lv_core/../lv_misc/lv_color.h ****         return 1;
 309:..\..\..\lvgl\version_6.1.2\lvgl\src\lv_objx\../lv_core/../lv_misc/lv_color.h ****     } else {
 310:..\..\..\lvgl\version_6.1.2\lvgl\src\lv_objx\../lv_core/../lv_misc/lv_color.h ****         return 0;
 311:..\..\..\lvgl\version_6.1.2\lvgl\src\lv_objx\../lv_core/../lv_misc/lv_color.h ****     }
 312:..\..\..\lvgl\version_6.1.2\lvgl\src\lv_objx\../lv_core/../lv_misc/lv_color.h **** #elif LV_COLOR_DEPTH == 32
 313:..\..\..\lvgl\version_6.1.2\lvgl\src\lv_objx\../lv_core/../lv_misc/lv_color.h ****     if((LV_COLOR_GET_R(color) & 0x80) || (LV_COLOR_GET_G(color) & 0x80) || (LV_COLOR_GET_B(color) &
 314:..\..\..\lvgl\version_6.1.2\lvgl\src\lv_objx\../lv_core/../lv_misc/lv_color.h ****         return 1;
 315:..\..\..\lvgl\version_6.1.2\lvgl\src\lv_objx\../lv_core/../lv_misc/lv_color.h ****     } else {
ARM GAS  C:\Users\tmj32\AppData\Local\Temp\ccepMVRX.s 			page 7


 316:..\..\..\lvgl\version_6.1.2\lvgl\src\lv_objx\../lv_core/../lv_misc/lv_color.h ****         return 0;
 317:..\..\..\lvgl\version_6.1.2\lvgl\src\lv_objx\../lv_core/../lv_misc/lv_color.h ****     }
 318:..\..\..\lvgl\version_6.1.2\lvgl\src\lv_objx\../lv_core/../lv_misc/lv_color.h **** #endif
 319:..\..\..\lvgl\version_6.1.2\lvgl\src\lv_objx\../lv_core/../lv_misc/lv_color.h **** }
 320:..\..\..\lvgl\version_6.1.2\lvgl\src\lv_objx\../lv_core/../lv_misc/lv_color.h **** 
 321:..\..\..\lvgl\version_6.1.2\lvgl\src\lv_objx\../lv_core/../lv_misc/lv_color.h **** static inline uint8_t lv_color_to8(lv_color_t color)
 322:..\..\..\lvgl\version_6.1.2\lvgl\src\lv_objx\../lv_core/../lv_misc/lv_color.h **** {
 323:..\..\..\lvgl\version_6.1.2\lvgl\src\lv_objx\../lv_core/../lv_misc/lv_color.h **** #if LV_COLOR_DEPTH == 1
 324:..\..\..\lvgl\version_6.1.2\lvgl\src\lv_objx\../lv_core/../lv_misc/lv_color.h ****     if(color.full == 0)
 325:..\..\..\lvgl\version_6.1.2\lvgl\src\lv_objx\../lv_core/../lv_misc/lv_color.h ****         return 0;
 326:..\..\..\lvgl\version_6.1.2\lvgl\src\lv_objx\../lv_core/../lv_misc/lv_color.h ****     else
 327:..\..\..\lvgl\version_6.1.2\lvgl\src\lv_objx\../lv_core/../lv_misc/lv_color.h ****         return 0xFF;
 328:..\..\..\lvgl\version_6.1.2\lvgl\src\lv_objx\../lv_core/../lv_misc/lv_color.h **** #elif LV_COLOR_DEPTH == 8
 329:..\..\..\lvgl\version_6.1.2\lvgl\src\lv_objx\../lv_core/../lv_misc/lv_color.h ****     return color.full;
 330:..\..\..\lvgl\version_6.1.2\lvgl\src\lv_objx\../lv_core/../lv_misc/lv_color.h **** #elif LV_COLOR_DEPTH == 16
 331:..\..\..\lvgl\version_6.1.2\lvgl\src\lv_objx\../lv_core/../lv_misc/lv_color.h ****     lv_color8_t ret;
 332:..\..\..\lvgl\version_6.1.2\lvgl\src\lv_objx\../lv_core/../lv_misc/lv_color.h ****     LV_COLOR_SET_R8(ret, LV_COLOR_GET_R(color) >> 2);   /* 5 - 3  = 2*/
 333:..\..\..\lvgl\version_6.1.2\lvgl\src\lv_objx\../lv_core/../lv_misc/lv_color.h ****     LV_COLOR_SET_G8(ret, LV_COLOR_GET_G(color) >> 3); /* 6 - 3  = 3*/
 334:..\..\..\lvgl\version_6.1.2\lvgl\src\lv_objx\../lv_core/../lv_misc/lv_color.h ****     LV_COLOR_SET_B8(ret, LV_COLOR_GET_B(color) >> 3);  /* 5 - 2  = 3*/
 335:..\..\..\lvgl\version_6.1.2\lvgl\src\lv_objx\../lv_core/../lv_misc/lv_color.h ****     return ret.full;
 336:..\..\..\lvgl\version_6.1.2\lvgl\src\lv_objx\../lv_core/../lv_misc/lv_color.h **** #elif LV_COLOR_DEPTH == 32
 337:..\..\..\lvgl\version_6.1.2\lvgl\src\lv_objx\../lv_core/../lv_misc/lv_color.h ****     lv_color8_t ret;
 338:..\..\..\lvgl\version_6.1.2\lvgl\src\lv_objx\../lv_core/../lv_misc/lv_color.h ****     LV_COLOR_SET_R8(ret, LV_COLOR_GET_R(color) >> 5);   /* 8 - 3  = 5*/
 339:..\..\..\lvgl\version_6.1.2\lvgl\src\lv_objx\../lv_core/../lv_misc/lv_color.h ****     LV_COLOR_SET_G8(ret, LV_COLOR_GET_G(color) >> 5); /* 8 - 3  = 5*/
 340:..\..\..\lvgl\version_6.1.2\lvgl\src\lv_objx\../lv_core/../lv_misc/lv_color.h ****     LV_COLOR_SET_B8(ret, LV_COLOR_GET_B(color) >> 6);  /* 8 - 2  = 6*/
 341:..\..\..\lvgl\version_6.1.2\lvgl\src\lv_objx\../lv_core/../lv_misc/lv_color.h ****     return ret.full;
 342:..\..\..\lvgl\version_6.1.2\lvgl\src\lv_objx\../lv_core/../lv_misc/lv_color.h **** #endif
 343:..\..\..\lvgl\version_6.1.2\lvgl\src\lv_objx\../lv_core/../lv_misc/lv_color.h **** }
 344:..\..\..\lvgl\version_6.1.2\lvgl\src\lv_objx\../lv_core/../lv_misc/lv_color.h **** 
 345:..\..\..\lvgl\version_6.1.2\lvgl\src\lv_objx\../lv_core/../lv_misc/lv_color.h **** static inline uint16_t lv_color_to16(lv_color_t color)
 346:..\..\..\lvgl\version_6.1.2\lvgl\src\lv_objx\../lv_core/../lv_misc/lv_color.h **** {
 347:..\..\..\lvgl\version_6.1.2\lvgl\src\lv_objx\../lv_core/../lv_misc/lv_color.h **** #if LV_COLOR_DEPTH == 1
 348:..\..\..\lvgl\version_6.1.2\lvgl\src\lv_objx\../lv_core/../lv_misc/lv_color.h ****     if(color.full == 0)
 349:..\..\..\lvgl\version_6.1.2\lvgl\src\lv_objx\../lv_core/../lv_misc/lv_color.h ****         return 0;
 350:..\..\..\lvgl\version_6.1.2\lvgl\src\lv_objx\../lv_core/../lv_misc/lv_color.h ****     else
 351:..\..\..\lvgl\version_6.1.2\lvgl\src\lv_objx\../lv_core/../lv_misc/lv_color.h ****         return 0xFFFF;
 352:..\..\..\lvgl\version_6.1.2\lvgl\src\lv_objx\../lv_core/../lv_misc/lv_color.h **** #elif LV_COLOR_DEPTH == 8
 353:..\..\..\lvgl\version_6.1.2\lvgl\src\lv_objx\../lv_core/../lv_misc/lv_color.h ****     lv_color16_t ret;
 354:..\..\..\lvgl\version_6.1.2\lvgl\src\lv_objx\../lv_core/../lv_misc/lv_color.h ****     LV_COLOR_SET_R16(ret, LV_COLOR_GET_R(color) * 4);     /*(2^5 - 1)/(2^3 - 1) = 31/7 = 4*/
 355:..\..\..\lvgl\version_6.1.2\lvgl\src\lv_objx\../lv_core/../lv_misc/lv_color.h **** #if LV_COLOR_16_SWAP == 0
 356:..\..\..\lvgl\version_6.1.2\lvgl\src\lv_objx\../lv_core/../lv_misc/lv_color.h ****     LV_COLOR_SET_G16(ret,  LV_COLOR_GET_G(color) * 9); /*(2^6 - 1)/(2^3 - 1) = 63/7 = 9*/
 357:..\..\..\lvgl\version_6.1.2\lvgl\src\lv_objx\../lv_core/../lv_misc/lv_color.h **** #else
 358:..\..\..\lvgl\version_6.1.2\lvgl\src\lv_objx\../lv_core/../lv_misc/lv_color.h ****     LV_COLOR_SET_G16_SWAP(ret, (LV_COLOR_GET_G(color) * 9)); /*(2^6 - 1)/(2^3 - 1) = 63/7 = 9*/
 359:..\..\..\lvgl\version_6.1.2\lvgl\src\lv_objx\../lv_core/../lv_misc/lv_color.h **** #endif
 360:..\..\..\lvgl\version_6.1.2\lvgl\src\lv_objx\../lv_core/../lv_misc/lv_color.h ****     LV_COLOR_SET_B16(ret, LV_COLOR_GET_B(color) * 10);  /*(2^5 - 1)/(2^2 - 1) = 31/3 = 10*/
 361:..\..\..\lvgl\version_6.1.2\lvgl\src\lv_objx\../lv_core/../lv_misc/lv_color.h ****     return ret.full;
 362:..\..\..\lvgl\version_6.1.2\lvgl\src\lv_objx\../lv_core/../lv_misc/lv_color.h **** #elif LV_COLOR_DEPTH == 16
 363:..\..\..\lvgl\version_6.1.2\lvgl\src\lv_objx\../lv_core/../lv_misc/lv_color.h ****     return color.full;
 364:..\..\..\lvgl\version_6.1.2\lvgl\src\lv_objx\../lv_core/../lv_misc/lv_color.h **** #elif LV_COLOR_DEPTH == 32
 365:..\..\..\lvgl\version_6.1.2\lvgl\src\lv_objx\../lv_core/../lv_misc/lv_color.h ****     lv_color16_t ret;
 366:..\..\..\lvgl\version_6.1.2\lvgl\src\lv_objx\../lv_core/../lv_misc/lv_color.h ****     LV_COLOR_SET_R16(ret, LV_COLOR_GET_R(color) >> 3);   /* 8 - 5  = 3*/
 367:..\..\..\lvgl\version_6.1.2\lvgl\src\lv_objx\../lv_core/../lv_misc/lv_color.h **** 
 368:..\..\..\lvgl\version_6.1.2\lvgl\src\lv_objx\../lv_core/../lv_misc/lv_color.h **** #if LV_COLOR_16_SWAP == 0
 369:..\..\..\lvgl\version_6.1.2\lvgl\src\lv_objx\../lv_core/../lv_misc/lv_color.h ****     LV_COLOR_SET_G16(ret, LV_COLOR_GET_G(color) >> 2); /* 8 - 6  = 2*/
 370:..\..\..\lvgl\version_6.1.2\lvgl\src\lv_objx\../lv_core/../lv_misc/lv_color.h **** #else
 371:..\..\..\lvgl\version_6.1.2\lvgl\src\lv_objx\../lv_core/../lv_misc/lv_color.h ****     LV_COLOR_SET_G16_SWAP(ret, ret.ch.green_h = (LV_COLOR_GET_G(color) >> 2); /*(2^6 - 1)/(2^3 - 1)
 372:..\..\..\lvgl\version_6.1.2\lvgl\src\lv_objx\../lv_core/../lv_misc/lv_color.h **** #endif
ARM GAS  C:\Users\tmj32\AppData\Local\Temp\ccepMVRX.s 			page 8


 373:..\..\..\lvgl\version_6.1.2\lvgl\src\lv_objx\../lv_core/../lv_misc/lv_color.h ****     LV_COLOR_SET_B16(ret, LV_COLOR_GET_B(color) >> 3);  /* 8 - 5  = 3*/
 374:..\..\..\lvgl\version_6.1.2\lvgl\src\lv_objx\../lv_core/../lv_misc/lv_color.h ****     return ret.full;
 375:..\..\..\lvgl\version_6.1.2\lvgl\src\lv_objx\../lv_core/../lv_misc/lv_color.h **** #endif                         
 376:..\..\..\lvgl\version_6.1.2\lvgl\src\lv_objx\../lv_core/../lv_misc/lv_color.h **** }
 377:..\..\..\lvgl\version_6.1.2\lvgl\src\lv_objx\../lv_core/../lv_misc/lv_color.h **** 
 378:..\..\..\lvgl\version_6.1.2\lvgl\src\lv_objx\../lv_core/../lv_misc/lv_color.h **** static inline uint32_t lv_color_to32(lv_color_t color)
 379:..\..\..\lvgl\version_6.1.2\lvgl\src\lv_objx\../lv_core/../lv_misc/lv_color.h **** {
 380:..\..\..\lvgl\version_6.1.2\lvgl\src\lv_objx\../lv_core/../lv_misc/lv_color.h **** #if LV_COLOR_DEPTH == 1
 381:..\..\..\lvgl\version_6.1.2\lvgl\src\lv_objx\../lv_core/../lv_misc/lv_color.h ****     if(color.full == 0)
 382:..\..\..\lvgl\version_6.1.2\lvgl\src\lv_objx\../lv_core/../lv_misc/lv_color.h ****         return 0;
 383:..\..\..\lvgl\version_6.1.2\lvgl\src\lv_objx\../lv_core/../lv_misc/lv_color.h ****     else
 384:..\..\..\lvgl\version_6.1.2\lvgl\src\lv_objx\../lv_core/../lv_misc/lv_color.h ****         return 0xFFFFFFFF;
 385:..\..\..\lvgl\version_6.1.2\lvgl\src\lv_objx\../lv_core/../lv_misc/lv_color.h **** #elif LV_COLOR_DEPTH == 8
 386:..\..\..\lvgl\version_6.1.2\lvgl\src\lv_objx\../lv_core/../lv_misc/lv_color.h ****     lv_color32_t ret;
 387:..\..\..\lvgl\version_6.1.2\lvgl\src\lv_objx\../lv_core/../lv_misc/lv_color.h ****     LV_COLOR_SET_R32(ret, LV_COLOR_GET_R(color) * 36);     /*(2^8 - 1)/(2^3 - 1) = 255/7 = 36*/
 388:..\..\..\lvgl\version_6.1.2\lvgl\src\lv_objx\../lv_core/../lv_misc/lv_color.h ****     LV_COLOR_SET_G32(ret, LV_COLOR_GET_G(color) * 36); /*(2^8 - 1)/(2^3 - 1) = 255/7 = 36*/
 389:..\..\..\lvgl\version_6.1.2\lvgl\src\lv_objx\../lv_core/../lv_misc/lv_color.h ****     LV_COLOR_SET_B32(ret, LV_COLOR_GET_B(color) * 85);   /*(2^8 - 1)/(2^2 - 1) = 255/3 = 85*/
 390:..\..\..\lvgl\version_6.1.2\lvgl\src\lv_objx\../lv_core/../lv_misc/lv_color.h ****     LV_COLOR_SET_A32(ret, 0xFF);
 391:..\..\..\lvgl\version_6.1.2\lvgl\src\lv_objx\../lv_core/../lv_misc/lv_color.h ****     return ret.full;
 392:..\..\..\lvgl\version_6.1.2\lvgl\src\lv_objx\../lv_core/../lv_misc/lv_color.h **** #elif LV_COLOR_DEPTH == 16
 393:..\..\..\lvgl\version_6.1.2\lvgl\src\lv_objx\../lv_core/../lv_misc/lv_color.h ****     /**
 394:..\..\..\lvgl\version_6.1.2\lvgl\src\lv_objx\../lv_core/../lv_misc/lv_color.h ****      * The floating point math for conversion is:
 395:..\..\..\lvgl\version_6.1.2\lvgl\src\lv_objx\../lv_core/../lv_misc/lv_color.h ****      *  valueto = valuefrom * ( (2^bitsto - 1) / (float)(2^bitsfrom - 1) )
 396:..\..\..\lvgl\version_6.1.2\lvgl\src\lv_objx\../lv_core/../lv_misc/lv_color.h ****      * The faster integer math for conversion is:
 397:..\..\..\lvgl\version_6.1.2\lvgl\src\lv_objx\../lv_core/../lv_misc/lv_color.h ****      *  valueto = ( valuefrom * multiplier + adder ) >> divisor
 398:..\..\..\lvgl\version_6.1.2\lvgl\src\lv_objx\../lv_core/../lv_misc/lv_color.h ****      *   multiplier = FLOOR( ( (2^bitsto - 1) << divisor ) / (float)(2^bitsfrom - 1) )
 399:..\..\..\lvgl\version_6.1.2\lvgl\src\lv_objx\../lv_core/../lv_misc/lv_color.h ****      * 
 400:..\..\..\lvgl\version_6.1.2\lvgl\src\lv_objx\../lv_core/../lv_misc/lv_color.h ****      * Find the first divisor where ( adder >> divisor ) <= 0
 401:..\..\..\lvgl\version_6.1.2\lvgl\src\lv_objx\../lv_core/../lv_misc/lv_color.h ****      * 
 402:..\..\..\lvgl\version_6.1.2\lvgl\src\lv_objx\../lv_core/../lv_misc/lv_color.h ****      * 5-bit to 8-bit: ( 31 * multiplier + adder ) >> divisor = 255
 403:..\..\..\lvgl\version_6.1.2\lvgl\src\lv_objx\../lv_core/../lv_misc/lv_color.h ****      * divisor  multiplier  adder  min (0)  max (31)
 404:..\..\..\lvgl\version_6.1.2\lvgl\src\lv_objx\../lv_core/../lv_misc/lv_color.h ****      *       0           8      7        7       255
 405:..\..\..\lvgl\version_6.1.2\lvgl\src\lv_objx\../lv_core/../lv_misc/lv_color.h ****      *       1          16     14        7       255
 406:..\..\..\lvgl\version_6.1.2\lvgl\src\lv_objx\../lv_core/../lv_misc/lv_color.h ****      *       2          32     28        7       255
 407:..\..\..\lvgl\version_6.1.2\lvgl\src\lv_objx\../lv_core/../lv_misc/lv_color.h ****      *       3          65     25        3       255
 408:..\..\..\lvgl\version_6.1.2\lvgl\src\lv_objx\../lv_core/../lv_misc/lv_color.h ****      *       4         131     19        1       255
 409:..\..\..\lvgl\version_6.1.2\lvgl\src\lv_objx\../lv_core/../lv_misc/lv_color.h ****      *       5         263      7        0       255
 410:..\..\..\lvgl\version_6.1.2\lvgl\src\lv_objx\../lv_core/../lv_misc/lv_color.h ****      * 
 411:..\..\..\lvgl\version_6.1.2\lvgl\src\lv_objx\../lv_core/../lv_misc/lv_color.h ****      * 6-bit to 8-bit: 255 = ( 63 * multiplier + adder ) >> divisor
 412:..\..\..\lvgl\version_6.1.2\lvgl\src\lv_objx\../lv_core/../lv_misc/lv_color.h ****      * divisor  multiplier  adder  min (0)  max (63)
 413:..\..\..\lvgl\version_6.1.2\lvgl\src\lv_objx\../lv_core/../lv_misc/lv_color.h ****      *       0           4      3        3       255
 414:..\..\..\lvgl\version_6.1.2\lvgl\src\lv_objx\../lv_core/../lv_misc/lv_color.h ****      *       1           8      6        3       255
 415:..\..\..\lvgl\version_6.1.2\lvgl\src\lv_objx\../lv_core/../lv_misc/lv_color.h ****      *       2          16     12        3       255
 416:..\..\..\lvgl\version_6.1.2\lvgl\src\lv_objx\../lv_core/../lv_misc/lv_color.h ****      *       3          32     24        3       255
 417:..\..\..\lvgl\version_6.1.2\lvgl\src\lv_objx\../lv_core/../lv_misc/lv_color.h ****      *       4          64     48        3       255
 418:..\..\..\lvgl\version_6.1.2\lvgl\src\lv_objx\../lv_core/../lv_misc/lv_color.h ****      *       5         129     33        1       255
 419:..\..\..\lvgl\version_6.1.2\lvgl\src\lv_objx\../lv_core/../lv_misc/lv_color.h ****      *       6         259      3        0       255
 420:..\..\..\lvgl\version_6.1.2\lvgl\src\lv_objx\../lv_core/../lv_misc/lv_color.h ****      */
 421:..\..\..\lvgl\version_6.1.2\lvgl\src\lv_objx\../lv_core/../lv_misc/lv_color.h ****     lv_color32_t ret;
 422:..\..\..\lvgl\version_6.1.2\lvgl\src\lv_objx\../lv_core/../lv_misc/lv_color.h ****     LV_COLOR_SET_R32(ret, (LV_COLOR_GET_R(color) * 263 + 7 ) >> 5);
 423:..\..\..\lvgl\version_6.1.2\lvgl\src\lv_objx\../lv_core/../lv_misc/lv_color.h ****     LV_COLOR_SET_G32(ret, (LV_COLOR_GET_G(color) * 259 + 3 ) >> 6);
 424:..\..\..\lvgl\version_6.1.2\lvgl\src\lv_objx\../lv_core/../lv_misc/lv_color.h ****     LV_COLOR_SET_B32(ret, (LV_COLOR_GET_B(color) * 263 + 7 ) >> 5);
 425:..\..\..\lvgl\version_6.1.2\lvgl\src\lv_objx\../lv_core/../lv_misc/lv_color.h ****     LV_COLOR_SET_A32(ret, 0xFF);
 426:..\..\..\lvgl\version_6.1.2\lvgl\src\lv_objx\../lv_core/../lv_misc/lv_color.h ****     return ret.full;
 427:..\..\..\lvgl\version_6.1.2\lvgl\src\lv_objx\../lv_core/../lv_misc/lv_color.h **** #elif LV_COLOR_DEPTH == 32
 428:..\..\..\lvgl\version_6.1.2\lvgl\src\lv_objx\../lv_core/../lv_misc/lv_color.h ****     return color.full;
 429:..\..\..\lvgl\version_6.1.2\lvgl\src\lv_objx\../lv_core/../lv_misc/lv_color.h **** #endif
ARM GAS  C:\Users\tmj32\AppData\Local\Temp\ccepMVRX.s 			page 9


 430:..\..\..\lvgl\version_6.1.2\lvgl\src\lv_objx\../lv_core/../lv_misc/lv_color.h **** }
 431:..\..\..\lvgl\version_6.1.2\lvgl\src\lv_objx\../lv_core/../lv_misc/lv_color.h **** 
 432:..\..\..\lvgl\version_6.1.2\lvgl\src\lv_objx\../lv_core/../lv_misc/lv_color.h **** static inline lv_color_t lv_color_mix(lv_color_t c1, lv_color_t c2, uint8_t mix)
 433:..\..\..\lvgl\version_6.1.2\lvgl\src\lv_objx\../lv_core/../lv_misc/lv_color.h **** {
  28              		.loc 1 433 0
  29              		.cfi_startproc
  30              		@ args = 0, pretend = 0, frame = 24
  31              		@ frame_needed = 1, uses_anonymous_args = 0
  32              		@ link register save eliminated.
  33 0000 80B4     		push	{r7}
  34              		.cfi_def_cfa_offset 4
  35              		.cfi_offset 7, -4
  36 0002 87B0     		sub	sp, sp, #28
  37              		.cfi_def_cfa_offset 32
  38 0004 00AF     		add	r7, sp, #0
  39              		.cfi_def_cfa_register 7
  40 0006 F860     		str	r0, [r7, #12]
  41 0008 B960     		str	r1, [r7, #8]
  42 000a 1346     		mov	r3, r2
  43 000c FB71     		strb	r3, [r7, #7]
 434:..\..\..\lvgl\version_6.1.2\lvgl\src\lv_objx\../lv_core/../lv_misc/lv_color.h ****     lv_color_t ret;
 435:..\..\..\lvgl\version_6.1.2\lvgl\src\lv_objx\../lv_core/../lv_misc/lv_color.h **** #if LV_COLOR_DEPTH != 1
 436:..\..\..\lvgl\version_6.1.2\lvgl\src\lv_objx\../lv_core/../lv_misc/lv_color.h ****     /*LV_COLOR_DEPTH == 8, 16 or 32*/
 437:..\..\..\lvgl\version_6.1.2\lvgl\src\lv_objx\../lv_core/../lv_misc/lv_color.h ****     LV_COLOR_SET_R(ret, (uint16_t)((uint16_t) LV_COLOR_GET_R(c1) * mix + LV_COLOR_GET_R(c2) * (255 
  44              		.loc 1 437 0
  45 000e BB7B     		ldrb	r3, [r7, #14]	@ zero_extendqisi2
  46 0010 9AB2     		uxth	r2, r3
  47 0012 FB79     		ldrb	r3, [r7, #7]	@ zero_extendqisi2
  48 0014 9BB2     		uxth	r3, r3
  49 0016 12FB03F3 		smulbb	r3, r2, r3
  50 001a 9AB2     		uxth	r2, r3
  51 001c BB7A     		ldrb	r3, [r7, #10]	@ zero_extendqisi2
  52 001e 99B2     		uxth	r1, r3
  53 0020 FB79     		ldrb	r3, [r7, #7]	@ zero_extendqisi2
  54 0022 C3F1FF03 		rsb	r3, r3, #255
  55 0026 9BB2     		uxth	r3, r3
  56 0028 11FB03F3 		smulbb	r3, r1, r3
  57 002c 9BB2     		uxth	r3, r3
  58 002e 1344     		add	r3, r3, r2
  59 0030 9BB2     		uxth	r3, r3
  60 0032 1B0A     		lsrs	r3, r3, #8
  61 0034 9BB2     		uxth	r3, r3
  62 0036 DBB2     		uxtb	r3, r3
  63 0038 BB75     		strb	r3, [r7, #22]
 438:..\..\..\lvgl\version_6.1.2\lvgl\src\lv_objx\../lv_core/../lv_misc/lv_color.h ****     LV_COLOR_SET_G(ret, (uint16_t)((uint16_t) LV_COLOR_GET_G(c1) * mix + LV_COLOR_GET_G(c2) * (255 
  64              		.loc 1 438 0
  65 003a 7B7B     		ldrb	r3, [r7, #13]	@ zero_extendqisi2
  66 003c 9AB2     		uxth	r2, r3
  67 003e FB79     		ldrb	r3, [r7, #7]	@ zero_extendqisi2
  68 0040 9BB2     		uxth	r3, r3
  69 0042 12FB03F3 		smulbb	r3, r2, r3
  70 0046 9AB2     		uxth	r2, r3
  71 0048 7B7A     		ldrb	r3, [r7, #9]	@ zero_extendqisi2
  72 004a 99B2     		uxth	r1, r3
  73 004c FB79     		ldrb	r3, [r7, #7]	@ zero_extendqisi2
  74 004e C3F1FF03 		rsb	r3, r3, #255
  75 0052 9BB2     		uxth	r3, r3
ARM GAS  C:\Users\tmj32\AppData\Local\Temp\ccepMVRX.s 			page 10


  76 0054 11FB03F3 		smulbb	r3, r1, r3
  77 0058 9BB2     		uxth	r3, r3
  78 005a 1344     		add	r3, r3, r2
  79 005c 9BB2     		uxth	r3, r3
  80 005e 1B0A     		lsrs	r3, r3, #8
  81 0060 9BB2     		uxth	r3, r3
  82 0062 DBB2     		uxtb	r3, r3
  83 0064 7B75     		strb	r3, [r7, #21]
 439:..\..\..\lvgl\version_6.1.2\lvgl\src\lv_objx\../lv_core/../lv_misc/lv_color.h ****     LV_COLOR_SET_B(ret, (uint16_t)((uint16_t) LV_COLOR_GET_B(c1) * mix + LV_COLOR_GET_B(c2) * (255 
  84              		.loc 1 439 0
  85 0066 3B7B     		ldrb	r3, [r7, #12]	@ zero_extendqisi2
  86 0068 9AB2     		uxth	r2, r3
  87 006a FB79     		ldrb	r3, [r7, #7]	@ zero_extendqisi2
  88 006c 9BB2     		uxth	r3, r3
  89 006e 12FB03F3 		smulbb	r3, r2, r3
  90 0072 9AB2     		uxth	r2, r3
  91 0074 3B7A     		ldrb	r3, [r7, #8]	@ zero_extendqisi2
  92 0076 99B2     		uxth	r1, r3
  93 0078 FB79     		ldrb	r3, [r7, #7]	@ zero_extendqisi2
  94 007a C3F1FF03 		rsb	r3, r3, #255
  95 007e 9BB2     		uxth	r3, r3
  96 0080 11FB03F3 		smulbb	r3, r1, r3
  97 0084 9BB2     		uxth	r3, r3
  98 0086 1344     		add	r3, r3, r2
  99 0088 9BB2     		uxth	r3, r3
 100 008a 1B0A     		lsrs	r3, r3, #8
 101 008c 9BB2     		uxth	r3, r3
 102 008e DBB2     		uxtb	r3, r3
 103 0090 3B75     		strb	r3, [r7, #20]
 440:..\..\..\lvgl\version_6.1.2\lvgl\src\lv_objx\../lv_core/../lv_misc/lv_color.h ****     LV_COLOR_SET_A(ret, 0xFF);
 104              		.loc 1 440 0
 105 0092 FF23     		movs	r3, #255
 106 0094 FB75     		strb	r3, [r7, #23]
 441:..\..\..\lvgl\version_6.1.2\lvgl\src\lv_objx\../lv_core/../lv_misc/lv_color.h **** #else
 442:..\..\..\lvgl\version_6.1.2\lvgl\src\lv_objx\../lv_core/../lv_misc/lv_color.h ****     /*LV_COLOR_DEPTH == 1*/
 443:..\..\..\lvgl\version_6.1.2\lvgl\src\lv_objx\../lv_core/../lv_misc/lv_color.h ****     ret.full = mix > LV_OPA_50 ? c1.full : c2.full;
 444:..\..\..\lvgl\version_6.1.2\lvgl\src\lv_objx\../lv_core/../lv_misc/lv_color.h **** #endif
 445:..\..\..\lvgl\version_6.1.2\lvgl\src\lv_objx\../lv_core/../lv_misc/lv_color.h **** 
 446:..\..\..\lvgl\version_6.1.2\lvgl\src\lv_objx\../lv_core/../lv_misc/lv_color.h ****     return ret;
 107              		.loc 1 446 0
 108 0096 7B69     		ldr	r3, [r7, #20]
 447:..\..\..\lvgl\version_6.1.2\lvgl\src\lv_objx\../lv_core/../lv_misc/lv_color.h **** }
 109              		.loc 1 447 0
 110 0098 1846     		mov	r0, r3
 111 009a 1C37     		adds	r7, r7, #28
 112              		.cfi_def_cfa_offset 4
 113 009c BD46     		mov	sp, r7
 114              		.cfi_def_cfa_register 13
 115              		@ sp needed
 116 009e 5DF8047B 		ldr	r7, [sp], #4
 117              		.cfi_restore 7
 118              		.cfi_def_cfa_offset 0
 119 00a2 7047     		bx	lr
 120              		.cfi_endproc
 121              	.LFE5:
 122              		.size	lv_color_mix, .-lv_color_mix
 123              		.section	.text.lv_lmeter_set_style,"ax",%progbits
ARM GAS  C:\Users\tmj32\AppData\Local\Temp\ccepMVRX.s 			page 11


 124              		.align	2
 125              		.thumb
 126              		.thumb_func
 127              		.type	lv_lmeter_set_style, %function
 128              	lv_lmeter_set_style:
 129              	.LFB31:
 130              		.file 2 "..\\..\\..\\lvgl\\version_6.1.2\\lvgl\\src\\lv_objx\\lv_lmeter.h"
   1:..\..\..\lvgl\version_6.1.2\lvgl\src\lv_objx/lv_lmeter.h **** /**
   2:..\..\..\lvgl\version_6.1.2\lvgl\src\lv_objx/lv_lmeter.h ****  * @file lv_lmeter.h
   3:..\..\..\lvgl\version_6.1.2\lvgl\src\lv_objx/lv_lmeter.h ****  *
   4:..\..\..\lvgl\version_6.1.2\lvgl\src\lv_objx/lv_lmeter.h ****  */
   5:..\..\..\lvgl\version_6.1.2\lvgl\src\lv_objx/lv_lmeter.h **** 
   6:..\..\..\lvgl\version_6.1.2\lvgl\src\lv_objx/lv_lmeter.h **** #ifndef LV_LMETER_H
   7:..\..\..\lvgl\version_6.1.2\lvgl\src\lv_objx/lv_lmeter.h **** #define LV_LMETER_H
   8:..\..\..\lvgl\version_6.1.2\lvgl\src\lv_objx/lv_lmeter.h **** 
   9:..\..\..\lvgl\version_6.1.2\lvgl\src\lv_objx/lv_lmeter.h **** #ifdef __cplusplus
  10:..\..\..\lvgl\version_6.1.2\lvgl\src\lv_objx/lv_lmeter.h **** extern "C" {
  11:..\..\..\lvgl\version_6.1.2\lvgl\src\lv_objx/lv_lmeter.h **** #endif
  12:..\..\..\lvgl\version_6.1.2\lvgl\src\lv_objx/lv_lmeter.h **** 
  13:..\..\..\lvgl\version_6.1.2\lvgl\src\lv_objx/lv_lmeter.h **** /*********************
  14:..\..\..\lvgl\version_6.1.2\lvgl\src\lv_objx/lv_lmeter.h ****  *      INCLUDES
  15:..\..\..\lvgl\version_6.1.2\lvgl\src\lv_objx/lv_lmeter.h ****  *********************/
  16:..\..\..\lvgl\version_6.1.2\lvgl\src\lv_objx/lv_lmeter.h **** #ifdef LV_CONF_INCLUDE_SIMPLE
  17:..\..\..\lvgl\version_6.1.2\lvgl\src\lv_objx/lv_lmeter.h **** #include "lv_conf.h"
  18:..\..\..\lvgl\version_6.1.2\lvgl\src\lv_objx/lv_lmeter.h **** #else
  19:..\..\..\lvgl\version_6.1.2\lvgl\src\lv_objx/lv_lmeter.h **** #include "../../../lv_conf.h"
  20:..\..\..\lvgl\version_6.1.2\lvgl\src\lv_objx/lv_lmeter.h **** #endif
  21:..\..\..\lvgl\version_6.1.2\lvgl\src\lv_objx/lv_lmeter.h **** 
  22:..\..\..\lvgl\version_6.1.2\lvgl\src\lv_objx/lv_lmeter.h **** #if LV_USE_LMETER != 0
  23:..\..\..\lvgl\version_6.1.2\lvgl\src\lv_objx/lv_lmeter.h **** 
  24:..\..\..\lvgl\version_6.1.2\lvgl\src\lv_objx/lv_lmeter.h **** #include "../lv_core/lv_obj.h"
  25:..\..\..\lvgl\version_6.1.2\lvgl\src\lv_objx/lv_lmeter.h **** 
  26:..\..\..\lvgl\version_6.1.2\lvgl\src\lv_objx/lv_lmeter.h **** /*********************
  27:..\..\..\lvgl\version_6.1.2\lvgl\src\lv_objx/lv_lmeter.h ****  *      DEFINES
  28:..\..\..\lvgl\version_6.1.2\lvgl\src\lv_objx/lv_lmeter.h ****  *********************/
  29:..\..\..\lvgl\version_6.1.2\lvgl\src\lv_objx/lv_lmeter.h **** 
  30:..\..\..\lvgl\version_6.1.2\lvgl\src\lv_objx/lv_lmeter.h **** /**********************
  31:..\..\..\lvgl\version_6.1.2\lvgl\src\lv_objx/lv_lmeter.h ****  *      TYPEDEFS
  32:..\..\..\lvgl\version_6.1.2\lvgl\src\lv_objx/lv_lmeter.h ****  **********************/
  33:..\..\..\lvgl\version_6.1.2\lvgl\src\lv_objx/lv_lmeter.h **** /*Data of line meter*/
  34:..\..\..\lvgl\version_6.1.2\lvgl\src\lv_objx/lv_lmeter.h **** typedef struct
  35:..\..\..\lvgl\version_6.1.2\lvgl\src\lv_objx/lv_lmeter.h **** {
  36:..\..\..\lvgl\version_6.1.2\lvgl\src\lv_objx/lv_lmeter.h ****     /*No inherited ext.*/ /*Ext. of ancestor*/
  37:..\..\..\lvgl\version_6.1.2\lvgl\src\lv_objx/lv_lmeter.h ****     /*New data for this type */
  38:..\..\..\lvgl\version_6.1.2\lvgl\src\lv_objx/lv_lmeter.h ****     uint16_t scale_angle; /*Angle of the scale in deg. (0..360)*/
  39:..\..\..\lvgl\version_6.1.2\lvgl\src\lv_objx/lv_lmeter.h ****     uint16_t angle_ofs;
  40:..\..\..\lvgl\version_6.1.2\lvgl\src\lv_objx/lv_lmeter.h ****     uint16_t line_cnt;     /*Count of lines */
  41:..\..\..\lvgl\version_6.1.2\lvgl\src\lv_objx/lv_lmeter.h ****     int16_t cur_value;
  42:..\..\..\lvgl\version_6.1.2\lvgl\src\lv_objx/lv_lmeter.h ****     int16_t min_value;
  43:..\..\..\lvgl\version_6.1.2\lvgl\src\lv_objx/lv_lmeter.h ****     int16_t max_value;
  44:..\..\..\lvgl\version_6.1.2\lvgl\src\lv_objx/lv_lmeter.h **** } lv_lmeter_ext_t;
  45:..\..\..\lvgl\version_6.1.2\lvgl\src\lv_objx/lv_lmeter.h **** 
  46:..\..\..\lvgl\version_6.1.2\lvgl\src\lv_objx/lv_lmeter.h **** /*Styles*/
  47:..\..\..\lvgl\version_6.1.2\lvgl\src\lv_objx/lv_lmeter.h **** enum {
  48:..\..\..\lvgl\version_6.1.2\lvgl\src\lv_objx/lv_lmeter.h ****     LV_LMETER_STYLE_MAIN,
  49:..\..\..\lvgl\version_6.1.2\lvgl\src\lv_objx/lv_lmeter.h **** };
  50:..\..\..\lvgl\version_6.1.2\lvgl\src\lv_objx/lv_lmeter.h **** typedef uint8_t lv_lmeter_style_t;
ARM GAS  C:\Users\tmj32\AppData\Local\Temp\ccepMVRX.s 			page 12


  51:..\..\..\lvgl\version_6.1.2\lvgl\src\lv_objx/lv_lmeter.h **** 
  52:..\..\..\lvgl\version_6.1.2\lvgl\src\lv_objx/lv_lmeter.h **** /**********************
  53:..\..\..\lvgl\version_6.1.2\lvgl\src\lv_objx/lv_lmeter.h ****  * GLOBAL PROTOTYPES
  54:..\..\..\lvgl\version_6.1.2\lvgl\src\lv_objx/lv_lmeter.h ****  **********************/
  55:..\..\..\lvgl\version_6.1.2\lvgl\src\lv_objx/lv_lmeter.h **** 
  56:..\..\..\lvgl\version_6.1.2\lvgl\src\lv_objx/lv_lmeter.h **** /**
  57:..\..\..\lvgl\version_6.1.2\lvgl\src\lv_objx/lv_lmeter.h ****  * Create a line meter objects
  58:..\..\..\lvgl\version_6.1.2\lvgl\src\lv_objx/lv_lmeter.h ****  * @param par pointer to an object, it will be the parent of the new line meter
  59:..\..\..\lvgl\version_6.1.2\lvgl\src\lv_objx/lv_lmeter.h ****  * @param copy pointer to a line meter object, if not NULL then the new object will be copied from
  60:..\..\..\lvgl\version_6.1.2\lvgl\src\lv_objx/lv_lmeter.h ****  * it
  61:..\..\..\lvgl\version_6.1.2\lvgl\src\lv_objx/lv_lmeter.h ****  * @return pointer to the created line meter
  62:..\..\..\lvgl\version_6.1.2\lvgl\src\lv_objx/lv_lmeter.h ****  */
  63:..\..\..\lvgl\version_6.1.2\lvgl\src\lv_objx/lv_lmeter.h **** lv_obj_t * lv_lmeter_create(lv_obj_t * par, const lv_obj_t * copy);
  64:..\..\..\lvgl\version_6.1.2\lvgl\src\lv_objx/lv_lmeter.h **** 
  65:..\..\..\lvgl\version_6.1.2\lvgl\src\lv_objx/lv_lmeter.h **** /*=====================
  66:..\..\..\lvgl\version_6.1.2\lvgl\src\lv_objx/lv_lmeter.h ****  * Setter functions
  67:..\..\..\lvgl\version_6.1.2\lvgl\src\lv_objx/lv_lmeter.h ****  *====================*/
  68:..\..\..\lvgl\version_6.1.2\lvgl\src\lv_objx/lv_lmeter.h **** 
  69:..\..\..\lvgl\version_6.1.2\lvgl\src\lv_objx/lv_lmeter.h **** /**
  70:..\..\..\lvgl\version_6.1.2\lvgl\src\lv_objx/lv_lmeter.h ****  * Set a new value on the line meter
  71:..\..\..\lvgl\version_6.1.2\lvgl\src\lv_objx/lv_lmeter.h ****  * @param lmeter pointer to a line meter object
  72:..\..\..\lvgl\version_6.1.2\lvgl\src\lv_objx/lv_lmeter.h ****  * @param value new value
  73:..\..\..\lvgl\version_6.1.2\lvgl\src\lv_objx/lv_lmeter.h ****  */
  74:..\..\..\lvgl\version_6.1.2\lvgl\src\lv_objx/lv_lmeter.h **** void lv_lmeter_set_value(lv_obj_t * lmeter, int16_t value);
  75:..\..\..\lvgl\version_6.1.2\lvgl\src\lv_objx/lv_lmeter.h **** 
  76:..\..\..\lvgl\version_6.1.2\lvgl\src\lv_objx/lv_lmeter.h **** /**
  77:..\..\..\lvgl\version_6.1.2\lvgl\src\lv_objx/lv_lmeter.h ****  * Set minimum and the maximum values of a line meter
  78:..\..\..\lvgl\version_6.1.2\lvgl\src\lv_objx/lv_lmeter.h ****  * @param lmeter pointer to he line meter object
  79:..\..\..\lvgl\version_6.1.2\lvgl\src\lv_objx/lv_lmeter.h ****  * @param min minimum value
  80:..\..\..\lvgl\version_6.1.2\lvgl\src\lv_objx/lv_lmeter.h ****  * @param max maximum value
  81:..\..\..\lvgl\version_6.1.2\lvgl\src\lv_objx/lv_lmeter.h ****  */
  82:..\..\..\lvgl\version_6.1.2\lvgl\src\lv_objx/lv_lmeter.h **** void lv_lmeter_set_range(lv_obj_t * lmeter, int16_t min, int16_t max);
  83:..\..\..\lvgl\version_6.1.2\lvgl\src\lv_objx/lv_lmeter.h **** 
  84:..\..\..\lvgl\version_6.1.2\lvgl\src\lv_objx/lv_lmeter.h **** /**
  85:..\..\..\lvgl\version_6.1.2\lvgl\src\lv_objx/lv_lmeter.h ****  * Set the scale settings of a line meter
  86:..\..\..\lvgl\version_6.1.2\lvgl\src\lv_objx/lv_lmeter.h ****  * @param lmeter pointer to a line meter object
  87:..\..\..\lvgl\version_6.1.2\lvgl\src\lv_objx/lv_lmeter.h ****  * @param angle angle of the scale (0..360)
  88:..\..\..\lvgl\version_6.1.2\lvgl\src\lv_objx/lv_lmeter.h ****  * @param line_cnt number of lines
  89:..\..\..\lvgl\version_6.1.2\lvgl\src\lv_objx/lv_lmeter.h ****  */
  90:..\..\..\lvgl\version_6.1.2\lvgl\src\lv_objx/lv_lmeter.h **** void lv_lmeter_set_scale(lv_obj_t * lmeter, uint16_t angle, uint16_t line_cnt);
  91:..\..\..\lvgl\version_6.1.2\lvgl\src\lv_objx/lv_lmeter.h **** 
  92:..\..\..\lvgl\version_6.1.2\lvgl\src\lv_objx/lv_lmeter.h **** /**
  93:..\..\..\lvgl\version_6.1.2\lvgl\src\lv_objx/lv_lmeter.h ****  * Set the set an offset for the line meter's angles to rotate it.
  94:..\..\..\lvgl\version_6.1.2\lvgl\src\lv_objx/lv_lmeter.h ****  * @param lmeter pointer to a line meter object
  95:..\..\..\lvgl\version_6.1.2\lvgl\src\lv_objx/lv_lmeter.h ****  * @param angle angle offset (0..360), rotates clockwise
  96:..\..\..\lvgl\version_6.1.2\lvgl\src\lv_objx/lv_lmeter.h ****  */
  97:..\..\..\lvgl\version_6.1.2\lvgl\src\lv_objx/lv_lmeter.h **** void lv_lmeter_set_angle_offset(lv_obj_t * lmeter, uint16_t angle);
  98:..\..\..\lvgl\version_6.1.2\lvgl\src\lv_objx/lv_lmeter.h **** 
  99:..\..\..\lvgl\version_6.1.2\lvgl\src\lv_objx/lv_lmeter.h **** /**
 100:..\..\..\lvgl\version_6.1.2\lvgl\src\lv_objx/lv_lmeter.h ****  * Set the styles of a line meter
 101:..\..\..\lvgl\version_6.1.2\lvgl\src\lv_objx/lv_lmeter.h ****  * @param lmeter pointer to a line meter object
 102:..\..\..\lvgl\version_6.1.2\lvgl\src\lv_objx/lv_lmeter.h ****  * @param type which style should be set (can be only `LV_LMETER_STYLE_MAIN`)
 103:..\..\..\lvgl\version_6.1.2\lvgl\src\lv_objx/lv_lmeter.h ****  * @param style set the style of the line meter
 104:..\..\..\lvgl\version_6.1.2\lvgl\src\lv_objx/lv_lmeter.h ****  */
 105:..\..\..\lvgl\version_6.1.2\lvgl\src\lv_objx/lv_lmeter.h **** static inline void lv_lmeter_set_style(lv_obj_t * lmeter, lv_lmeter_style_t type, lv_style_t * styl
 106:..\..\..\lvgl\version_6.1.2\lvgl\src\lv_objx/lv_lmeter.h **** {
 131              		.loc 2 106 0
ARM GAS  C:\Users\tmj32\AppData\Local\Temp\ccepMVRX.s 			page 13


 132              		.cfi_startproc
 133              		@ args = 0, pretend = 0, frame = 16
 134              		@ frame_needed = 1, uses_anonymous_args = 0
 135 0000 80B5     		push	{r7, lr}
 136              		.cfi_def_cfa_offset 8
 137              		.cfi_offset 7, -8
 138              		.cfi_offset 14, -4
 139 0002 84B0     		sub	sp, sp, #16
 140              		.cfi_def_cfa_offset 24
 141 0004 00AF     		add	r7, sp, #0
 142              		.cfi_def_cfa_register 7
 143 0006 F860     		str	r0, [r7, #12]
 144 0008 0B46     		mov	r3, r1
 145 000a 7A60     		str	r2, [r7, #4]
 146 000c FB72     		strb	r3, [r7, #11]
 107:..\..\..\lvgl\version_6.1.2\lvgl\src\lv_objx/lv_lmeter.h ****     (void)type; /*Unused*/
 108:..\..\..\lvgl\version_6.1.2\lvgl\src\lv_objx/lv_lmeter.h ****     lv_obj_set_style(lmeter, style);
 147              		.loc 2 108 0
 148 000e 7968     		ldr	r1, [r7, #4]
 149 0010 F868     		ldr	r0, [r7, #12]
 150 0012 FFF7FEFF 		bl	lv_obj_set_style
 109:..\..\..\lvgl\version_6.1.2\lvgl\src\lv_objx/lv_lmeter.h **** }
 151              		.loc 2 109 0
 152 0016 00BF     		nop
 153 0018 1037     		adds	r7, r7, #16
 154              		.cfi_def_cfa_offset 8
 155 001a BD46     		mov	sp, r7
 156              		.cfi_def_cfa_register 13
 157              		@ sp needed
 158 001c 80BD     		pop	{r7, pc}
 159              		.cfi_endproc
 160              	.LFE31:
 161              		.size	lv_lmeter_set_style, .-lv_lmeter_set_style
 162 001e 00BF     		.section	.text.lv_lmeter_get_style,"ax",%progbits
 163              		.align	2
 164              		.thumb
 165              		.thumb_func
 166              		.type	lv_lmeter_get_style, %function
 167              	lv_lmeter_get_style:
 168              	.LFB32:
 110:..\..\..\lvgl\version_6.1.2\lvgl\src\lv_objx/lv_lmeter.h **** 
 111:..\..\..\lvgl\version_6.1.2\lvgl\src\lv_objx/lv_lmeter.h **** /*=====================
 112:..\..\..\lvgl\version_6.1.2\lvgl\src\lv_objx/lv_lmeter.h ****  * Getter functions
 113:..\..\..\lvgl\version_6.1.2\lvgl\src\lv_objx/lv_lmeter.h ****  *====================*/
 114:..\..\..\lvgl\version_6.1.2\lvgl\src\lv_objx/lv_lmeter.h **** 
 115:..\..\..\lvgl\version_6.1.2\lvgl\src\lv_objx/lv_lmeter.h **** /**
 116:..\..\..\lvgl\version_6.1.2\lvgl\src\lv_objx/lv_lmeter.h ****  * Get the value of a line meter
 117:..\..\..\lvgl\version_6.1.2\lvgl\src\lv_objx/lv_lmeter.h ****  * @param lmeter pointer to a line meter object
 118:..\..\..\lvgl\version_6.1.2\lvgl\src\lv_objx/lv_lmeter.h ****  * @return the value of the line meter
 119:..\..\..\lvgl\version_6.1.2\lvgl\src\lv_objx/lv_lmeter.h ****  */
 120:..\..\..\lvgl\version_6.1.2\lvgl\src\lv_objx/lv_lmeter.h **** int16_t lv_lmeter_get_value(const lv_obj_t * lmeter);
 121:..\..\..\lvgl\version_6.1.2\lvgl\src\lv_objx/lv_lmeter.h **** 
 122:..\..\..\lvgl\version_6.1.2\lvgl\src\lv_objx/lv_lmeter.h **** /**
 123:..\..\..\lvgl\version_6.1.2\lvgl\src\lv_objx/lv_lmeter.h ****  * Get the minimum value of a line meter
 124:..\..\..\lvgl\version_6.1.2\lvgl\src\lv_objx/lv_lmeter.h ****  * @param lmeter pointer to a line meter object
 125:..\..\..\lvgl\version_6.1.2\lvgl\src\lv_objx/lv_lmeter.h ****  * @return the minimum value of the line meter
 126:..\..\..\lvgl\version_6.1.2\lvgl\src\lv_objx/lv_lmeter.h ****  */
ARM GAS  C:\Users\tmj32\AppData\Local\Temp\ccepMVRX.s 			page 14


 127:..\..\..\lvgl\version_6.1.2\lvgl\src\lv_objx/lv_lmeter.h **** int16_t lv_lmeter_get_min_value(const lv_obj_t * lmeter);
 128:..\..\..\lvgl\version_6.1.2\lvgl\src\lv_objx/lv_lmeter.h **** 
 129:..\..\..\lvgl\version_6.1.2\lvgl\src\lv_objx/lv_lmeter.h **** /**
 130:..\..\..\lvgl\version_6.1.2\lvgl\src\lv_objx/lv_lmeter.h ****  * Get the maximum value of a line meter
 131:..\..\..\lvgl\version_6.1.2\lvgl\src\lv_objx/lv_lmeter.h ****  * @param lmeter pointer to a line meter object
 132:..\..\..\lvgl\version_6.1.2\lvgl\src\lv_objx/lv_lmeter.h ****  * @return the maximum value of the line meter
 133:..\..\..\lvgl\version_6.1.2\lvgl\src\lv_objx/lv_lmeter.h ****  */
 134:..\..\..\lvgl\version_6.1.2\lvgl\src\lv_objx/lv_lmeter.h **** int16_t lv_lmeter_get_max_value(const lv_obj_t * lmeter);
 135:..\..\..\lvgl\version_6.1.2\lvgl\src\lv_objx/lv_lmeter.h **** 
 136:..\..\..\lvgl\version_6.1.2\lvgl\src\lv_objx/lv_lmeter.h **** /**
 137:..\..\..\lvgl\version_6.1.2\lvgl\src\lv_objx/lv_lmeter.h ****  * Get the scale number of a line meter
 138:..\..\..\lvgl\version_6.1.2\lvgl\src\lv_objx/lv_lmeter.h ****  * @param lmeter pointer to a line meter object
 139:..\..\..\lvgl\version_6.1.2\lvgl\src\lv_objx/lv_lmeter.h ****  * @return number of the scale units
 140:..\..\..\lvgl\version_6.1.2\lvgl\src\lv_objx/lv_lmeter.h ****  */
 141:..\..\..\lvgl\version_6.1.2\lvgl\src\lv_objx/lv_lmeter.h **** uint16_t lv_lmeter_get_line_count(const lv_obj_t * lmeter);
 142:..\..\..\lvgl\version_6.1.2\lvgl\src\lv_objx/lv_lmeter.h **** 
 143:..\..\..\lvgl\version_6.1.2\lvgl\src\lv_objx/lv_lmeter.h **** /**
 144:..\..\..\lvgl\version_6.1.2\lvgl\src\lv_objx/lv_lmeter.h ****  * Get the scale angle of a line meter
 145:..\..\..\lvgl\version_6.1.2\lvgl\src\lv_objx/lv_lmeter.h ****  * @param lmeter pointer to a line meter object
 146:..\..\..\lvgl\version_6.1.2\lvgl\src\lv_objx/lv_lmeter.h ****  * @return angle of the scale
 147:..\..\..\lvgl\version_6.1.2\lvgl\src\lv_objx/lv_lmeter.h ****  */
 148:..\..\..\lvgl\version_6.1.2\lvgl\src\lv_objx/lv_lmeter.h **** uint16_t lv_lmeter_get_scale_angle(const lv_obj_t * lmeter);
 149:..\..\..\lvgl\version_6.1.2\lvgl\src\lv_objx/lv_lmeter.h **** 
 150:..\..\..\lvgl\version_6.1.2\lvgl\src\lv_objx/lv_lmeter.h **** /**
 151:..\..\..\lvgl\version_6.1.2\lvgl\src\lv_objx/lv_lmeter.h ****  * get the set an offset for the line meter.
 152:..\..\..\lvgl\version_6.1.2\lvgl\src\lv_objx/lv_lmeter.h ****  * @param lmeter pointer to a line meter object
 153:..\..\..\lvgl\version_6.1.2\lvgl\src\lv_objx/lv_lmeter.h ****  * @return angle offset (0..360)
 154:..\..\..\lvgl\version_6.1.2\lvgl\src\lv_objx/lv_lmeter.h ****  */
 155:..\..\..\lvgl\version_6.1.2\lvgl\src\lv_objx/lv_lmeter.h **** uint16_t lv_lmeter_get_angle_offset(lv_obj_t * lmeter);
 156:..\..\..\lvgl\version_6.1.2\lvgl\src\lv_objx/lv_lmeter.h **** 
 157:..\..\..\lvgl\version_6.1.2\lvgl\src\lv_objx/lv_lmeter.h **** /**
 158:..\..\..\lvgl\version_6.1.2\lvgl\src\lv_objx/lv_lmeter.h ****  * Get the style of a line meter
 159:..\..\..\lvgl\version_6.1.2\lvgl\src\lv_objx/lv_lmeter.h ****  * @param lmeter pointer to a line meter object
 160:..\..\..\lvgl\version_6.1.2\lvgl\src\lv_objx/lv_lmeter.h ****  * @param type which style should be get (can be only `LV_LMETER_STYLE_MAIN`)
 161:..\..\..\lvgl\version_6.1.2\lvgl\src\lv_objx/lv_lmeter.h ****  * @return pointer to the line meter's style
 162:..\..\..\lvgl\version_6.1.2\lvgl\src\lv_objx/lv_lmeter.h ****  */
 163:..\..\..\lvgl\version_6.1.2\lvgl\src\lv_objx/lv_lmeter.h **** static inline const lv_style_t * lv_lmeter_get_style(const lv_obj_t * lmeter, lv_lmeter_style_t typ
 164:..\..\..\lvgl\version_6.1.2\lvgl\src\lv_objx/lv_lmeter.h **** {
 169              		.loc 2 164 0
 170              		.cfi_startproc
 171              		@ args = 0, pretend = 0, frame = 8
 172              		@ frame_needed = 1, uses_anonymous_args = 0
 173 0000 80B5     		push	{r7, lr}
 174              		.cfi_def_cfa_offset 8
 175              		.cfi_offset 7, -8
 176              		.cfi_offset 14, -4
 177 0002 82B0     		sub	sp, sp, #8
 178              		.cfi_def_cfa_offset 16
 179 0004 00AF     		add	r7, sp, #0
 180              		.cfi_def_cfa_register 7
 181 0006 7860     		str	r0, [r7, #4]
 182 0008 0B46     		mov	r3, r1
 183 000a FB70     		strb	r3, [r7, #3]
 165:..\..\..\lvgl\version_6.1.2\lvgl\src\lv_objx/lv_lmeter.h ****     (void)type; /*Unused*/
 166:..\..\..\lvgl\version_6.1.2\lvgl\src\lv_objx/lv_lmeter.h ****     return lv_obj_get_style(lmeter);
 184              		.loc 2 166 0
 185 000c 7868     		ldr	r0, [r7, #4]
ARM GAS  C:\Users\tmj32\AppData\Local\Temp\ccepMVRX.s 			page 15


 186 000e FFF7FEFF 		bl	lv_obj_get_style
 187 0012 0346     		mov	r3, r0
 167:..\..\..\lvgl\version_6.1.2\lvgl\src\lv_objx/lv_lmeter.h **** }
 188              		.loc 2 167 0
 189 0014 1846     		mov	r0, r3
 190 0016 0837     		adds	r7, r7, #8
 191              		.cfi_def_cfa_offset 8
 192 0018 BD46     		mov	sp, r7
 193              		.cfi_def_cfa_register 13
 194              		@ sp needed
 195 001a 80BD     		pop	{r7, pc}
 196              		.cfi_endproc
 197              	.LFE32:
 198              		.size	lv_lmeter_get_style, .-lv_lmeter_get_style
 199              		.bss
 200              		.align	2
 201              	ancestor_signal:
 202 0000 00000000 		.space	4
 203              		.section	.text.lv_lmeter_create,"ax",%progbits
 204              		.align	2
 205              		.global	lv_lmeter_create
 206              		.thumb
 207              		.thumb_func
 208              		.type	lv_lmeter_create, %function
 209              	lv_lmeter_create:
 210              	.LFB33:
 211              		.file 3 "..\\..\\..\\lvgl\\version_6.1.2\\lvgl\\src\\lv_objx\\lv_lmeter.c"
   1:..\..\..\lvgl\version_6.1.2\lvgl\src\lv_objx/lv_lmeter.c **** /**
   2:..\..\..\lvgl\version_6.1.2\lvgl\src\lv_objx/lv_lmeter.c ****  * @file lv_lmeter.c
   3:..\..\..\lvgl\version_6.1.2\lvgl\src\lv_objx/lv_lmeter.c ****  *
   4:..\..\..\lvgl\version_6.1.2\lvgl\src\lv_objx/lv_lmeter.c ****  */
   5:..\..\..\lvgl\version_6.1.2\lvgl\src\lv_objx/lv_lmeter.c **** 
   6:..\..\..\lvgl\version_6.1.2\lvgl\src\lv_objx/lv_lmeter.c **** /*********************
   7:..\..\..\lvgl\version_6.1.2\lvgl\src\lv_objx/lv_lmeter.c ****  *      INCLUDES
   8:..\..\..\lvgl\version_6.1.2\lvgl\src\lv_objx/lv_lmeter.c ****  *********************/
   9:..\..\..\lvgl\version_6.1.2\lvgl\src\lv_objx/lv_lmeter.c **** #include "lv_lmeter.h"
  10:..\..\..\lvgl\version_6.1.2\lvgl\src\lv_objx/lv_lmeter.c **** #if LV_USE_LMETER != 0
  11:..\..\..\lvgl\version_6.1.2\lvgl\src\lv_objx/lv_lmeter.c **** 
  12:..\..\..\lvgl\version_6.1.2\lvgl\src\lv_objx/lv_lmeter.c **** #include "../lv_core/lv_debug.h"
  13:..\..\..\lvgl\version_6.1.2\lvgl\src\lv_objx/lv_lmeter.c **** #include "../lv_draw/lv_draw.h"
  14:..\..\..\lvgl\version_6.1.2\lvgl\src\lv_objx/lv_lmeter.c **** #include "../lv_themes/lv_theme.h"
  15:..\..\..\lvgl\version_6.1.2\lvgl\src\lv_objx/lv_lmeter.c **** #include "../lv_core/lv_group.h"
  16:..\..\..\lvgl\version_6.1.2\lvgl\src\lv_objx/lv_lmeter.c **** #include "../lv_misc/lv_math.h"
  17:..\..\..\lvgl\version_6.1.2\lvgl\src\lv_objx/lv_lmeter.c **** 
  18:..\..\..\lvgl\version_6.1.2\lvgl\src\lv_objx/lv_lmeter.c **** /*********************
  19:..\..\..\lvgl\version_6.1.2\lvgl\src\lv_objx/lv_lmeter.c ****  *      DEFINES
  20:..\..\..\lvgl\version_6.1.2\lvgl\src\lv_objx/lv_lmeter.c ****  *********************/
  21:..\..\..\lvgl\version_6.1.2\lvgl\src\lv_objx/lv_lmeter.c **** #define LV_OBJX_NAME "lv_lmeter"
  22:..\..\..\lvgl\version_6.1.2\lvgl\src\lv_objx/lv_lmeter.c **** 
  23:..\..\..\lvgl\version_6.1.2\lvgl\src\lv_objx/lv_lmeter.c **** #define LV_LMETER_LINE_UPSCALE 5 /*2^x upscale of line to make rounding*/
  24:..\..\..\lvgl\version_6.1.2\lvgl\src\lv_objx/lv_lmeter.c **** #define LV_LMETER_LINE_UPSCALE_MASK ((1 << LV_LMETER_LINE_UPSCALE) - 1)
  25:..\..\..\lvgl\version_6.1.2\lvgl\src\lv_objx/lv_lmeter.c **** 
  26:..\..\..\lvgl\version_6.1.2\lvgl\src\lv_objx/lv_lmeter.c **** /**********************
  27:..\..\..\lvgl\version_6.1.2\lvgl\src\lv_objx/lv_lmeter.c ****  *      TYPEDEFS
  28:..\..\..\lvgl\version_6.1.2\lvgl\src\lv_objx/lv_lmeter.c ****  **********************/
  29:..\..\..\lvgl\version_6.1.2\lvgl\src\lv_objx/lv_lmeter.c **** 
  30:..\..\..\lvgl\version_6.1.2\lvgl\src\lv_objx/lv_lmeter.c **** /**********************
ARM GAS  C:\Users\tmj32\AppData\Local\Temp\ccepMVRX.s 			page 16


  31:..\..\..\lvgl\version_6.1.2\lvgl\src\lv_objx/lv_lmeter.c ****  *  STATIC PROTOTYPES
  32:..\..\..\lvgl\version_6.1.2\lvgl\src\lv_objx/lv_lmeter.c ****  **********************/
  33:..\..\..\lvgl\version_6.1.2\lvgl\src\lv_objx/lv_lmeter.c **** static bool lv_lmeter_design(lv_obj_t * lmeter, const lv_area_t * mask, lv_design_mode_t mode);
  34:..\..\..\lvgl\version_6.1.2\lvgl\src\lv_objx/lv_lmeter.c **** static lv_res_t lv_lmeter_signal(lv_obj_t * lmeter, lv_signal_t sign, void * param);
  35:..\..\..\lvgl\version_6.1.2\lvgl\src\lv_objx/lv_lmeter.c **** static lv_coord_t lv_lmeter_coord_round(int32_t x);
  36:..\..\..\lvgl\version_6.1.2\lvgl\src\lv_objx/lv_lmeter.c **** 
  37:..\..\..\lvgl\version_6.1.2\lvgl\src\lv_objx/lv_lmeter.c **** /**********************
  38:..\..\..\lvgl\version_6.1.2\lvgl\src\lv_objx/lv_lmeter.c ****  *  STATIC VARIABLES
  39:..\..\..\lvgl\version_6.1.2\lvgl\src\lv_objx/lv_lmeter.c ****  **********************/
  40:..\..\..\lvgl\version_6.1.2\lvgl\src\lv_objx/lv_lmeter.c **** static lv_signal_cb_t ancestor_signal;
  41:..\..\..\lvgl\version_6.1.2\lvgl\src\lv_objx/lv_lmeter.c **** 
  42:..\..\..\lvgl\version_6.1.2\lvgl\src\lv_objx/lv_lmeter.c **** /**********************
  43:..\..\..\lvgl\version_6.1.2\lvgl\src\lv_objx/lv_lmeter.c ****  *      MACROS
  44:..\..\..\lvgl\version_6.1.2\lvgl\src\lv_objx/lv_lmeter.c ****  **********************/
  45:..\..\..\lvgl\version_6.1.2\lvgl\src\lv_objx/lv_lmeter.c **** 
  46:..\..\..\lvgl\version_6.1.2\lvgl\src\lv_objx/lv_lmeter.c **** /**********************
  47:..\..\..\lvgl\version_6.1.2\lvgl\src\lv_objx/lv_lmeter.c ****  *   GLOBAL FUNCTIONS
  48:..\..\..\lvgl\version_6.1.2\lvgl\src\lv_objx/lv_lmeter.c ****  **********************/
  49:..\..\..\lvgl\version_6.1.2\lvgl\src\lv_objx/lv_lmeter.c **** 
  50:..\..\..\lvgl\version_6.1.2\lvgl\src\lv_objx/lv_lmeter.c **** /**
  51:..\..\..\lvgl\version_6.1.2\lvgl\src\lv_objx/lv_lmeter.c ****  * Create a line meter objects
  52:..\..\..\lvgl\version_6.1.2\lvgl\src\lv_objx/lv_lmeter.c ****  * @param par pointer to an object, it will be the parent of the new line meter
  53:..\..\..\lvgl\version_6.1.2\lvgl\src\lv_objx/lv_lmeter.c ****  * @param copy pointer to a line meter object, if not NULL then the new object will be copied from
  54:..\..\..\lvgl\version_6.1.2\lvgl\src\lv_objx/lv_lmeter.c ****  * it
  55:..\..\..\lvgl\version_6.1.2\lvgl\src\lv_objx/lv_lmeter.c ****  * @return pointer to the created line meter
  56:..\..\..\lvgl\version_6.1.2\lvgl\src\lv_objx/lv_lmeter.c ****  */
  57:..\..\..\lvgl\version_6.1.2\lvgl\src\lv_objx/lv_lmeter.c **** lv_obj_t * lv_lmeter_create(lv_obj_t * par, const lv_obj_t * copy)
  58:..\..\..\lvgl\version_6.1.2\lvgl\src\lv_objx/lv_lmeter.c **** {
 212              		.loc 3 58 0
 213              		.cfi_startproc
 214              		@ args = 0, pretend = 0, frame = 24
 215              		@ frame_needed = 1, uses_anonymous_args = 0
 216 0000 80B5     		push	{r7, lr}
 217              		.cfi_def_cfa_offset 8
 218              		.cfi_offset 7, -8
 219              		.cfi_offset 14, -4
 220 0002 86B0     		sub	sp, sp, #24
 221              		.cfi_def_cfa_offset 32
 222 0004 00AF     		add	r7, sp, #0
 223              		.cfi_def_cfa_register 7
 224 0006 7860     		str	r0, [r7, #4]
 225 0008 3960     		str	r1, [r7]
  59:..\..\..\lvgl\version_6.1.2\lvgl\src\lv_objx/lv_lmeter.c ****     LV_LOG_TRACE("line meter create started");
  60:..\..\..\lvgl\version_6.1.2\lvgl\src\lv_objx/lv_lmeter.c **** 
  61:..\..\..\lvgl\version_6.1.2\lvgl\src\lv_objx/lv_lmeter.c ****     /*Create the ancestor of line meter*/
  62:..\..\..\lvgl\version_6.1.2\lvgl\src\lv_objx/lv_lmeter.c ****     lv_obj_t * new_lmeter = lv_obj_create(par, copy);
 226              		.loc 3 62 0
 227 000a 3968     		ldr	r1, [r7]
 228 000c 7868     		ldr	r0, [r7, #4]
 229 000e FFF7FEFF 		bl	lv_obj_create
 230 0012 7861     		str	r0, [r7, #20]
  63:..\..\..\lvgl\version_6.1.2\lvgl\src\lv_objx/lv_lmeter.c ****     LV_ASSERT_MEM(new_lmeter);
  64:..\..\..\lvgl\version_6.1.2\lvgl\src\lv_objx/lv_lmeter.c ****     if(new_lmeter == NULL) return NULL;
 231              		.loc 3 64 0
 232 0014 7B69     		ldr	r3, [r7, #20]
 233 0016 002B     		cmp	r3, #0
 234 0018 01D1     		bne	.L7
ARM GAS  C:\Users\tmj32\AppData\Local\Temp\ccepMVRX.s 			page 17


 235              		.loc 3 64 0 is_stmt 0 discriminator 1
 236 001a 0023     		movs	r3, #0
 237 001c 68E0     		b	.L8
 238              	.L7:
  65:..\..\..\lvgl\version_6.1.2\lvgl\src\lv_objx/lv_lmeter.c **** 
  66:..\..\..\lvgl\version_6.1.2\lvgl\src\lv_objx/lv_lmeter.c ****     if(ancestor_signal == NULL) ancestor_signal = lv_obj_get_signal_cb(new_lmeter);
 239              		.loc 3 66 0 is_stmt 1
 240 001e 364B     		ldr	r3, .L15
 241 0020 1B68     		ldr	r3, [r3]
 242 0022 002B     		cmp	r3, #0
 243 0024 05D1     		bne	.L9
 244              		.loc 3 66 0 is_stmt 0 discriminator 1
 245 0026 7869     		ldr	r0, [r7, #20]
 246 0028 FFF7FEFF 		bl	lv_obj_get_signal_cb
 247 002c 0246     		mov	r2, r0
 248 002e 324B     		ldr	r3, .L15
 249 0030 1A60     		str	r2, [r3]
 250              	.L9:
  67:..\..\..\lvgl\version_6.1.2\lvgl\src\lv_objx/lv_lmeter.c **** 
  68:..\..\..\lvgl\version_6.1.2\lvgl\src\lv_objx/lv_lmeter.c ****     /*Allocate the line meter type specific extended data*/
  69:..\..\..\lvgl\version_6.1.2\lvgl\src\lv_objx/lv_lmeter.c ****     lv_lmeter_ext_t * ext = lv_obj_allocate_ext_attr(new_lmeter, sizeof(lv_lmeter_ext_t));
 251              		.loc 3 69 0 is_stmt 1
 252 0032 0C21     		movs	r1, #12
 253 0034 7869     		ldr	r0, [r7, #20]
 254 0036 FFF7FEFF 		bl	lv_obj_allocate_ext_attr
 255 003a 3861     		str	r0, [r7, #16]
  70:..\..\..\lvgl\version_6.1.2\lvgl\src\lv_objx/lv_lmeter.c ****     LV_ASSERT_MEM(ext);
  71:..\..\..\lvgl\version_6.1.2\lvgl\src\lv_objx/lv_lmeter.c ****     if(ext == NULL) return NULL;
 256              		.loc 3 71 0
 257 003c 3B69     		ldr	r3, [r7, #16]
 258 003e 002B     		cmp	r3, #0
 259 0040 01D1     		bne	.L10
 260              		.loc 3 71 0 is_stmt 0 discriminator 1
 261 0042 0023     		movs	r3, #0
 262 0044 54E0     		b	.L8
 263              	.L10:
  72:..\..\..\lvgl\version_6.1.2\lvgl\src\lv_objx/lv_lmeter.c **** 
  73:..\..\..\lvgl\version_6.1.2\lvgl\src\lv_objx/lv_lmeter.c ****     /*Initialize the allocated 'ext' */
  74:..\..\..\lvgl\version_6.1.2\lvgl\src\lv_objx/lv_lmeter.c ****     ext->min_value   = 0;
 264              		.loc 3 74 0 is_stmt 1
 265 0046 3B69     		ldr	r3, [r7, #16]
 266 0048 0022     		movs	r2, #0
 267 004a 1A81     		strh	r2, [r3, #8]	@ movhi
  75:..\..\..\lvgl\version_6.1.2\lvgl\src\lv_objx/lv_lmeter.c ****     ext->max_value   = 100;
 268              		.loc 3 75 0
 269 004c 3B69     		ldr	r3, [r7, #16]
 270 004e 6422     		movs	r2, #100
 271 0050 5A81     		strh	r2, [r3, #10]	@ movhi
  76:..\..\..\lvgl\version_6.1.2\lvgl\src\lv_objx/lv_lmeter.c ****     ext->cur_value   = 0;
 272              		.loc 3 76 0
 273 0052 3B69     		ldr	r3, [r7, #16]
 274 0054 0022     		movs	r2, #0
 275 0056 DA80     		strh	r2, [r3, #6]	@ movhi
  77:..\..\..\lvgl\version_6.1.2\lvgl\src\lv_objx/lv_lmeter.c ****     ext->line_cnt    = 21;  /*Odd scale number looks better*/
 276              		.loc 3 77 0
 277 0058 3B69     		ldr	r3, [r7, #16]
 278 005a 1522     		movs	r2, #21
ARM GAS  C:\Users\tmj32\AppData\Local\Temp\ccepMVRX.s 			page 18


 279 005c 9A80     		strh	r2, [r3, #4]	@ movhi
  78:..\..\..\lvgl\version_6.1.2\lvgl\src\lv_objx/lv_lmeter.c ****     ext->scale_angle = 240; /*(scale_num - 1) * N looks better */
 280              		.loc 3 78 0
 281 005e 3B69     		ldr	r3, [r7, #16]
 282 0060 F022     		movs	r2, #240
 283 0062 1A80     		strh	r2, [r3]	@ movhi
  79:..\..\..\lvgl\version_6.1.2\lvgl\src\lv_objx/lv_lmeter.c ****     ext->angle_ofs = 0;
 284              		.loc 3 79 0
 285 0064 3B69     		ldr	r3, [r7, #16]
 286 0066 0022     		movs	r2, #0
 287 0068 5A80     		strh	r2, [r3, #2]	@ movhi
  80:..\..\..\lvgl\version_6.1.2\lvgl\src\lv_objx/lv_lmeter.c **** 
  81:..\..\..\lvgl\version_6.1.2\lvgl\src\lv_objx/lv_lmeter.c ****     /*The signal and design functions are not copied so set them here*/
  82:..\..\..\lvgl\version_6.1.2\lvgl\src\lv_objx/lv_lmeter.c ****     lv_obj_set_signal_cb(new_lmeter, lv_lmeter_signal);
 288              		.loc 3 82 0
 289 006a 2449     		ldr	r1, .L15+4
 290 006c 7869     		ldr	r0, [r7, #20]
 291 006e FFF7FEFF 		bl	lv_obj_set_signal_cb
  83:..\..\..\lvgl\version_6.1.2\lvgl\src\lv_objx/lv_lmeter.c ****     lv_obj_set_design_cb(new_lmeter, lv_lmeter_design);
 292              		.loc 3 83 0
 293 0072 2349     		ldr	r1, .L15+8
 294 0074 7869     		ldr	r0, [r7, #20]
 295 0076 FFF7FEFF 		bl	lv_obj_set_design_cb
  84:..\..\..\lvgl\version_6.1.2\lvgl\src\lv_objx/lv_lmeter.c **** 
  85:..\..\..\lvgl\version_6.1.2\lvgl\src\lv_objx/lv_lmeter.c ****     /*Init the new line meter line meter*/
  86:..\..\..\lvgl\version_6.1.2\lvgl\src\lv_objx/lv_lmeter.c ****     if(copy == NULL) {
 296              		.loc 3 86 0
 297 007a 3B68     		ldr	r3, [r7]
 298 007c 002B     		cmp	r3, #0
 299 007e 18D1     		bne	.L11
 300              	.LBB2:
  87:..\..\..\lvgl\version_6.1.2\lvgl\src\lv_objx/lv_lmeter.c ****         lv_obj_set_size(new_lmeter, LV_DPI, LV_DPI);
 301              		.loc 3 87 0
 302 0080 9622     		movs	r2, #150
 303 0082 9621     		movs	r1, #150
 304 0084 7869     		ldr	r0, [r7, #20]
 305 0086 FFF7FEFF 		bl	lv_obj_set_size
  88:..\..\..\lvgl\version_6.1.2\lvgl\src\lv_objx/lv_lmeter.c **** 
  89:..\..\..\lvgl\version_6.1.2\lvgl\src\lv_objx/lv_lmeter.c ****         /*Set the default styles*/
  90:..\..\..\lvgl\version_6.1.2\lvgl\src\lv_objx/lv_lmeter.c ****         lv_theme_t * th = lv_theme_get_current();
 306              		.loc 3 90 0
 307 008a FFF7FEFF 		bl	lv_theme_get_current
 308 008e F860     		str	r0, [r7, #12]
  91:..\..\..\lvgl\version_6.1.2\lvgl\src\lv_objx/lv_lmeter.c ****         if(th) {
 309              		.loc 3 91 0
 310 0090 FB68     		ldr	r3, [r7, #12]
 311 0092 002B     		cmp	r3, #0
 312 0094 07D0     		beq	.L12
  92:..\..\..\lvgl\version_6.1.2\lvgl\src\lv_objx/lv_lmeter.c ****             lv_lmeter_set_style(new_lmeter, LV_LMETER_STYLE_MAIN, th->style.lmeter);
 313              		.loc 3 92 0
 314 0096 FB68     		ldr	r3, [r7, #12]
 315 0098 9B6E     		ldr	r3, [r3, #104]
 316 009a 1A46     		mov	r2, r3
 317 009c 0021     		movs	r1, #0
 318 009e 7869     		ldr	r0, [r7, #20]
 319 00a0 FFF7FEFF 		bl	lv_lmeter_set_style
 320 00a4 23E0     		b	.L14
ARM GAS  C:\Users\tmj32\AppData\Local\Temp\ccepMVRX.s 			page 19


 321              	.L12:
  93:..\..\..\lvgl\version_6.1.2\lvgl\src\lv_objx/lv_lmeter.c ****         } else {
  94:..\..\..\lvgl\version_6.1.2\lvgl\src\lv_objx/lv_lmeter.c ****             lv_lmeter_set_style(new_lmeter, LV_LMETER_STYLE_MAIN, &lv_style_pretty_color);
 322              		.loc 3 94 0
 323 00a6 174A     		ldr	r2, .L15+12
 324 00a8 0021     		movs	r1, #0
 325 00aa 7869     		ldr	r0, [r7, #20]
 326 00ac FFF7FEFF 		bl	lv_lmeter_set_style
 327 00b0 1DE0     		b	.L14
 328              	.L11:
 329              	.LBE2:
 330              	.LBB3:
  95:..\..\..\lvgl\version_6.1.2\lvgl\src\lv_objx/lv_lmeter.c ****         }
  96:..\..\..\lvgl\version_6.1.2\lvgl\src\lv_objx/lv_lmeter.c ****     }
  97:..\..\..\lvgl\version_6.1.2\lvgl\src\lv_objx/lv_lmeter.c ****     /*Copy an existing line meter*/
  98:..\..\..\lvgl\version_6.1.2\lvgl\src\lv_objx/lv_lmeter.c ****     else {
  99:..\..\..\lvgl\version_6.1.2\lvgl\src\lv_objx/lv_lmeter.c ****         lv_lmeter_ext_t * copy_ext = lv_obj_get_ext_attr(copy);
 331              		.loc 3 99 0
 332 00b2 3868     		ldr	r0, [r7]
 333 00b4 FFF7FEFF 		bl	lv_obj_get_ext_attr
 334 00b8 B860     		str	r0, [r7, #8]
 100:..\..\..\lvgl\version_6.1.2\lvgl\src\lv_objx/lv_lmeter.c ****         ext->scale_angle           = copy_ext->scale_angle;
 335              		.loc 3 100 0
 336 00ba BB68     		ldr	r3, [r7, #8]
 337 00bc 1A88     		ldrh	r2, [r3]
 338 00be 3B69     		ldr	r3, [r7, #16]
 339 00c0 1A80     		strh	r2, [r3]	@ movhi
 101:..\..\..\lvgl\version_6.1.2\lvgl\src\lv_objx/lv_lmeter.c ****         ext->line_cnt              = copy_ext->line_cnt;
 340              		.loc 3 101 0
 341 00c2 BB68     		ldr	r3, [r7, #8]
 342 00c4 9A88     		ldrh	r2, [r3, #4]
 343 00c6 3B69     		ldr	r3, [r7, #16]
 344 00c8 9A80     		strh	r2, [r3, #4]	@ movhi
 102:..\..\..\lvgl\version_6.1.2\lvgl\src\lv_objx/lv_lmeter.c ****         ext->min_value             = copy_ext->min_value;
 345              		.loc 3 102 0
 346 00ca BB68     		ldr	r3, [r7, #8]
 347 00cc B3F90820 		ldrsh	r2, [r3, #8]
 348 00d0 3B69     		ldr	r3, [r7, #16]
 349 00d2 1A81     		strh	r2, [r3, #8]	@ movhi
 103:..\..\..\lvgl\version_6.1.2\lvgl\src\lv_objx/lv_lmeter.c ****         ext->max_value             = copy_ext->max_value;
 350              		.loc 3 103 0
 351 00d4 BB68     		ldr	r3, [r7, #8]
 352 00d6 B3F90A20 		ldrsh	r2, [r3, #10]
 353 00da 3B69     		ldr	r3, [r7, #16]
 354 00dc 5A81     		strh	r2, [r3, #10]	@ movhi
 104:..\..\..\lvgl\version_6.1.2\lvgl\src\lv_objx/lv_lmeter.c ****         ext->cur_value             = copy_ext->cur_value;
 355              		.loc 3 104 0
 356 00de BB68     		ldr	r3, [r7, #8]
 357 00e0 B3F90620 		ldrsh	r2, [r3, #6]
 358 00e4 3B69     		ldr	r3, [r7, #16]
 359 00e6 DA80     		strh	r2, [r3, #6]	@ movhi
 105:..\..\..\lvgl\version_6.1.2\lvgl\src\lv_objx/lv_lmeter.c **** 
 106:..\..\..\lvgl\version_6.1.2\lvgl\src\lv_objx/lv_lmeter.c ****         /*Refresh the style with new signal function*/
 107:..\..\..\lvgl\version_6.1.2\lvgl\src\lv_objx/lv_lmeter.c ****         lv_obj_refresh_style(new_lmeter);
 360              		.loc 3 107 0
 361 00e8 7869     		ldr	r0, [r7, #20]
 362 00ea FFF7FEFF 		bl	lv_obj_refresh_style
ARM GAS  C:\Users\tmj32\AppData\Local\Temp\ccepMVRX.s 			page 20


 363              	.L14:
 364              	.LBE3:
 108:..\..\..\lvgl\version_6.1.2\lvgl\src\lv_objx/lv_lmeter.c ****     }
 109:..\..\..\lvgl\version_6.1.2\lvgl\src\lv_objx/lv_lmeter.c **** 
 110:..\..\..\lvgl\version_6.1.2\lvgl\src\lv_objx/lv_lmeter.c ****     LV_LOG_INFO("line meter created");
 111:..\..\..\lvgl\version_6.1.2\lvgl\src\lv_objx/lv_lmeter.c **** 
 112:..\..\..\lvgl\version_6.1.2\lvgl\src\lv_objx/lv_lmeter.c ****     return new_lmeter;
 365              		.loc 3 112 0
 366 00ee 7B69     		ldr	r3, [r7, #20]
 367              	.L8:
 113:..\..\..\lvgl\version_6.1.2\lvgl\src\lv_objx/lv_lmeter.c **** }
 368              		.loc 3 113 0
 369 00f0 1846     		mov	r0, r3
 370 00f2 1837     		adds	r7, r7, #24
 371              		.cfi_def_cfa_offset 8
 372 00f4 BD46     		mov	sp, r7
 373              		.cfi_def_cfa_register 13
 374              		@ sp needed
 375 00f6 80BD     		pop	{r7, pc}
 376              	.L16:
 377              		.align	2
 378              	.L15:
 379 00f8 00000000 		.word	ancestor_signal
 380 00fc 00000000 		.word	lv_lmeter_signal
 381 0100 00000000 		.word	lv_lmeter_design
 382 0104 00000000 		.word	lv_style_pretty_color
 383              		.cfi_endproc
 384              	.LFE33:
 385              		.size	lv_lmeter_create, .-lv_lmeter_create
 386              		.section	.text.lv_lmeter_set_value,"ax",%progbits
 387              		.align	2
 388              		.global	lv_lmeter_set_value
 389              		.thumb
 390              		.thumb_func
 391              		.type	lv_lmeter_set_value, %function
 392              	lv_lmeter_set_value:
 393              	.LFB34:
 114:..\..\..\lvgl\version_6.1.2\lvgl\src\lv_objx/lv_lmeter.c **** 
 115:..\..\..\lvgl\version_6.1.2\lvgl\src\lv_objx/lv_lmeter.c **** /*=====================
 116:..\..\..\lvgl\version_6.1.2\lvgl\src\lv_objx/lv_lmeter.c ****  * Setter functions
 117:..\..\..\lvgl\version_6.1.2\lvgl\src\lv_objx/lv_lmeter.c ****  *====================*/
 118:..\..\..\lvgl\version_6.1.2\lvgl\src\lv_objx/lv_lmeter.c **** 
 119:..\..\..\lvgl\version_6.1.2\lvgl\src\lv_objx/lv_lmeter.c **** /**
 120:..\..\..\lvgl\version_6.1.2\lvgl\src\lv_objx/lv_lmeter.c ****  * Set a new value on the line meter
 121:..\..\..\lvgl\version_6.1.2\lvgl\src\lv_objx/lv_lmeter.c ****  * @param lmeter pointer to a line meter object
 122:..\..\..\lvgl\version_6.1.2\lvgl\src\lv_objx/lv_lmeter.c ****  * @param value new value
 123:..\..\..\lvgl\version_6.1.2\lvgl\src\lv_objx/lv_lmeter.c ****  */
 124:..\..\..\lvgl\version_6.1.2\lvgl\src\lv_objx/lv_lmeter.c **** void lv_lmeter_set_value(lv_obj_t * lmeter, int16_t value)
 125:..\..\..\lvgl\version_6.1.2\lvgl\src\lv_objx/lv_lmeter.c **** {
 394              		.loc 3 125 0
 395              		.cfi_startproc
 396              		@ args = 0, pretend = 0, frame = 16
 397              		@ frame_needed = 1, uses_anonymous_args = 0
 398 0000 80B5     		push	{r7, lr}
 399              		.cfi_def_cfa_offset 8
 400              		.cfi_offset 7, -8
 401              		.cfi_offset 14, -4
ARM GAS  C:\Users\tmj32\AppData\Local\Temp\ccepMVRX.s 			page 21


 402 0002 84B0     		sub	sp, sp, #16
 403              		.cfi_def_cfa_offset 24
 404 0004 00AF     		add	r7, sp, #0
 405              		.cfi_def_cfa_register 7
 406 0006 7860     		str	r0, [r7, #4]
 407 0008 0B46     		mov	r3, r1
 408 000a 7B80     		strh	r3, [r7, #2]	@ movhi
 126:..\..\..\lvgl\version_6.1.2\lvgl\src\lv_objx/lv_lmeter.c ****     LV_ASSERT_OBJ(lmeter, LV_OBJX_NAME);
 127:..\..\..\lvgl\version_6.1.2\lvgl\src\lv_objx/lv_lmeter.c **** 
 128:..\..\..\lvgl\version_6.1.2\lvgl\src\lv_objx/lv_lmeter.c ****     lv_lmeter_ext_t * ext = lv_obj_get_ext_attr(lmeter);
 409              		.loc 3 128 0
 410 000c 7868     		ldr	r0, [r7, #4]
 411 000e FFF7FEFF 		bl	lv_obj_get_ext_attr
 412 0012 F860     		str	r0, [r7, #12]
 129:..\..\..\lvgl\version_6.1.2\lvgl\src\lv_objx/lv_lmeter.c ****     if(ext->cur_value == value) return;
 413              		.loc 3 129 0
 414 0014 FB68     		ldr	r3, [r7, #12]
 415 0016 B3F90630 		ldrsh	r3, [r3, #6]
 416 001a B7F90220 		ldrsh	r2, [r7, #2]
 417 001e 9A42     		cmp	r2, r3
 418 0020 1AD0     		beq	.L20
 130:..\..\..\lvgl\version_6.1.2\lvgl\src\lv_objx/lv_lmeter.c **** 
 131:..\..\..\lvgl\version_6.1.2\lvgl\src\lv_objx/lv_lmeter.c ****     ext->cur_value = value > ext->max_value ? ext->max_value : value;
 419              		.loc 3 131 0
 420 0022 FB68     		ldr	r3, [r7, #12]
 421 0024 B3F90A20 		ldrsh	r2, [r3, #10]
 422 0028 B7F90230 		ldrsh	r3, [r7, #2]
 423 002c 9342     		cmp	r3, r2
 424 002e A8BF     		it	ge
 425 0030 1346     		movge	r3, r2
 426 0032 1AB2     		sxth	r2, r3
 427 0034 FB68     		ldr	r3, [r7, #12]
 428 0036 DA80     		strh	r2, [r3, #6]	@ movhi
 132:..\..\..\lvgl\version_6.1.2\lvgl\src\lv_objx/lv_lmeter.c ****     ext->cur_value = ext->cur_value < ext->min_value ? ext->min_value : ext->cur_value;
 429              		.loc 3 132 0
 430 0038 FB68     		ldr	r3, [r7, #12]
 431 003a B3F90620 		ldrsh	r2, [r3, #6]
 432 003e FB68     		ldr	r3, [r7, #12]
 433 0040 B3F90830 		ldrsh	r3, [r3, #8]
 434 0044 9342     		cmp	r3, r2
 435 0046 B8BF     		it	lt
 436 0048 1346     		movlt	r3, r2
 437 004a 1AB2     		sxth	r2, r3
 438 004c FB68     		ldr	r3, [r7, #12]
 439 004e DA80     		strh	r2, [r3, #6]	@ movhi
 133:..\..\..\lvgl\version_6.1.2\lvgl\src\lv_objx/lv_lmeter.c ****     lv_obj_invalidate(lmeter);
 440              		.loc 3 133 0
 441 0050 7868     		ldr	r0, [r7, #4]
 442 0052 FFF7FEFF 		bl	lv_obj_invalidate
 443 0056 00E0     		b	.L17
 444              	.L20:
 129:..\..\..\lvgl\version_6.1.2\lvgl\src\lv_objx/lv_lmeter.c **** 
 445              		.loc 3 129 0
 446 0058 00BF     		nop
 447              	.L17:
 134:..\..\..\lvgl\version_6.1.2\lvgl\src\lv_objx/lv_lmeter.c **** }
 448              		.loc 3 134 0
ARM GAS  C:\Users\tmj32\AppData\Local\Temp\ccepMVRX.s 			page 22


 449 005a 1037     		adds	r7, r7, #16
 450              		.cfi_def_cfa_offset 8
 451 005c BD46     		mov	sp, r7
 452              		.cfi_def_cfa_register 13
 453              		@ sp needed
 454 005e 80BD     		pop	{r7, pc}
 455              		.cfi_endproc
 456              	.LFE34:
 457              		.size	lv_lmeter_set_value, .-lv_lmeter_set_value
 458              		.section	.text.lv_lmeter_set_range,"ax",%progbits
 459              		.align	2
 460              		.global	lv_lmeter_set_range
 461              		.thumb
 462              		.thumb_func
 463              		.type	lv_lmeter_set_range, %function
 464              	lv_lmeter_set_range:
 465              	.LFB35:
 135:..\..\..\lvgl\version_6.1.2\lvgl\src\lv_objx/lv_lmeter.c **** 
 136:..\..\..\lvgl\version_6.1.2\lvgl\src\lv_objx/lv_lmeter.c **** /**
 137:..\..\..\lvgl\version_6.1.2\lvgl\src\lv_objx/lv_lmeter.c ****  * Set minimum and the maximum values of a line meter
 138:..\..\..\lvgl\version_6.1.2\lvgl\src\lv_objx/lv_lmeter.c ****  * @param lmeter pointer to he line meter object
 139:..\..\..\lvgl\version_6.1.2\lvgl\src\lv_objx/lv_lmeter.c ****  * @param min minimum value
 140:..\..\..\lvgl\version_6.1.2\lvgl\src\lv_objx/lv_lmeter.c ****  * @param max maximum value
 141:..\..\..\lvgl\version_6.1.2\lvgl\src\lv_objx/lv_lmeter.c ****  */
 142:..\..\..\lvgl\version_6.1.2\lvgl\src\lv_objx/lv_lmeter.c **** void lv_lmeter_set_range(lv_obj_t * lmeter, int16_t min, int16_t max)
 143:..\..\..\lvgl\version_6.1.2\lvgl\src\lv_objx/lv_lmeter.c **** {
 466              		.loc 3 143 0
 467              		.cfi_startproc
 468              		@ args = 0, pretend = 0, frame = 16
 469              		@ frame_needed = 1, uses_anonymous_args = 0
 470 0000 80B5     		push	{r7, lr}
 471              		.cfi_def_cfa_offset 8
 472              		.cfi_offset 7, -8
 473              		.cfi_offset 14, -4
 474 0002 84B0     		sub	sp, sp, #16
 475              		.cfi_def_cfa_offset 24
 476 0004 00AF     		add	r7, sp, #0
 477              		.cfi_def_cfa_register 7
 478 0006 7860     		str	r0, [r7, #4]
 479 0008 0B46     		mov	r3, r1
 480 000a 7B80     		strh	r3, [r7, #2]	@ movhi
 481 000c 1346     		mov	r3, r2	@ movhi
 482 000e 3B80     		strh	r3, [r7]	@ movhi
 144:..\..\..\lvgl\version_6.1.2\lvgl\src\lv_objx/lv_lmeter.c ****     LV_ASSERT_OBJ(lmeter, LV_OBJX_NAME);
 145:..\..\..\lvgl\version_6.1.2\lvgl\src\lv_objx/lv_lmeter.c **** 
 146:..\..\..\lvgl\version_6.1.2\lvgl\src\lv_objx/lv_lmeter.c ****     lv_lmeter_ext_t * ext = lv_obj_get_ext_attr(lmeter);
 483              		.loc 3 146 0
 484 0010 7868     		ldr	r0, [r7, #4]
 485 0012 FFF7FEFF 		bl	lv_obj_get_ext_attr
 486 0016 F860     		str	r0, [r7, #12]
 147:..\..\..\lvgl\version_6.1.2\lvgl\src\lv_objx/lv_lmeter.c ****     if(ext->min_value == min && ext->max_value == max) return;
 487              		.loc 3 147 0
 488 0018 FB68     		ldr	r3, [r7, #12]
 489 001a B3F90830 		ldrsh	r3, [r3, #8]
 490 001e B7F90220 		ldrsh	r2, [r7, #2]
 491 0022 9A42     		cmp	r2, r3
 492 0024 06D1     		bne	.L22
ARM GAS  C:\Users\tmj32\AppData\Local\Temp\ccepMVRX.s 			page 23


 493              		.loc 3 147 0 is_stmt 0 discriminator 1
 494 0026 FB68     		ldr	r3, [r7, #12]
 495 0028 B3F90A30 		ldrsh	r3, [r3, #10]
 496 002c B7F90020 		ldrsh	r2, [r7]
 497 0030 9A42     		cmp	r2, r3
 498 0032 2BD0     		beq	.L26
 499              	.L22:
 148:..\..\..\lvgl\version_6.1.2\lvgl\src\lv_objx/lv_lmeter.c **** 
 149:..\..\..\lvgl\version_6.1.2\lvgl\src\lv_objx/lv_lmeter.c ****     ext->max_value = max;
 500              		.loc 3 149 0 is_stmt 1
 501 0034 FB68     		ldr	r3, [r7, #12]
 502 0036 3A88     		ldrh	r2, [r7]	@ movhi
 503 0038 5A81     		strh	r2, [r3, #10]	@ movhi
 150:..\..\..\lvgl\version_6.1.2\lvgl\src\lv_objx/lv_lmeter.c ****     ext->min_value = min;
 504              		.loc 3 150 0
 505 003a FB68     		ldr	r3, [r7, #12]
 506 003c 7A88     		ldrh	r2, [r7, #2]	@ movhi
 507 003e 1A81     		strh	r2, [r3, #8]	@ movhi
 151:..\..\..\lvgl\version_6.1.2\lvgl\src\lv_objx/lv_lmeter.c ****     if(ext->cur_value > max) {
 508              		.loc 3 151 0
 509 0040 FB68     		ldr	r3, [r7, #12]
 510 0042 B3F90630 		ldrsh	r3, [r3, #6]
 511 0046 B7F90020 		ldrsh	r2, [r7]
 512 004a 9A42     		cmp	r2, r3
 513 004c 09DA     		bge	.L24
 152:..\..\..\lvgl\version_6.1.2\lvgl\src\lv_objx/lv_lmeter.c ****         ext->cur_value = max;
 514              		.loc 3 152 0
 515 004e FB68     		ldr	r3, [r7, #12]
 516 0050 3A88     		ldrh	r2, [r7]	@ movhi
 517 0052 DA80     		strh	r2, [r3, #6]	@ movhi
 153:..\..\..\lvgl\version_6.1.2\lvgl\src\lv_objx/lv_lmeter.c ****         lv_lmeter_set_value(lmeter, ext->cur_value);
 518              		.loc 3 153 0
 519 0054 FB68     		ldr	r3, [r7, #12]
 520 0056 B3F90630 		ldrsh	r3, [r3, #6]
 521 005a 1946     		mov	r1, r3
 522 005c 7868     		ldr	r0, [r7, #4]
 523 005e FFF7FEFF 		bl	lv_lmeter_set_value
 524              	.L24:
 154:..\..\..\lvgl\version_6.1.2\lvgl\src\lv_objx/lv_lmeter.c ****     }
 155:..\..\..\lvgl\version_6.1.2\lvgl\src\lv_objx/lv_lmeter.c ****     if(ext->cur_value < min) {
 525              		.loc 3 155 0
 526 0062 FB68     		ldr	r3, [r7, #12]
 527 0064 B3F90630 		ldrsh	r3, [r3, #6]
 528 0068 B7F90220 		ldrsh	r2, [r7, #2]
 529 006c 9A42     		cmp	r2, r3
 530 006e 09DD     		ble	.L25
 156:..\..\..\lvgl\version_6.1.2\lvgl\src\lv_objx/lv_lmeter.c ****         ext->cur_value = min;
 531              		.loc 3 156 0
 532 0070 FB68     		ldr	r3, [r7, #12]
 533 0072 7A88     		ldrh	r2, [r7, #2]	@ movhi
 534 0074 DA80     		strh	r2, [r3, #6]	@ movhi
 157:..\..\..\lvgl\version_6.1.2\lvgl\src\lv_objx/lv_lmeter.c ****         lv_lmeter_set_value(lmeter, ext->cur_value);
 535              		.loc 3 157 0
 536 0076 FB68     		ldr	r3, [r7, #12]
 537 0078 B3F90630 		ldrsh	r3, [r3, #6]
 538 007c 1946     		mov	r1, r3
 539 007e 7868     		ldr	r0, [r7, #4]
ARM GAS  C:\Users\tmj32\AppData\Local\Temp\ccepMVRX.s 			page 24


 540 0080 FFF7FEFF 		bl	lv_lmeter_set_value
 541              	.L25:
 158:..\..\..\lvgl\version_6.1.2\lvgl\src\lv_objx/lv_lmeter.c ****     }
 159:..\..\..\lvgl\version_6.1.2\lvgl\src\lv_objx/lv_lmeter.c ****     lv_obj_invalidate(lmeter);
 542              		.loc 3 159 0
 543 0084 7868     		ldr	r0, [r7, #4]
 544 0086 FFF7FEFF 		bl	lv_obj_invalidate
 545 008a 00E0     		b	.L21
 546              	.L26:
 147:..\..\..\lvgl\version_6.1.2\lvgl\src\lv_objx/lv_lmeter.c **** 
 547              		.loc 3 147 0
 548 008c 00BF     		nop
 549              	.L21:
 160:..\..\..\lvgl\version_6.1.2\lvgl\src\lv_objx/lv_lmeter.c **** }
 550              		.loc 3 160 0
 551 008e 1037     		adds	r7, r7, #16
 552              		.cfi_def_cfa_offset 8
 553 0090 BD46     		mov	sp, r7
 554              		.cfi_def_cfa_register 13
 555              		@ sp needed
 556 0092 80BD     		pop	{r7, pc}
 557              		.cfi_endproc
 558              	.LFE35:
 559              		.size	lv_lmeter_set_range, .-lv_lmeter_set_range
 560              		.section	.text.lv_lmeter_set_scale,"ax",%progbits
 561              		.align	2
 562              		.global	lv_lmeter_set_scale
 563              		.thumb
 564              		.thumb_func
 565              		.type	lv_lmeter_set_scale, %function
 566              	lv_lmeter_set_scale:
 567              	.LFB36:
 161:..\..\..\lvgl\version_6.1.2\lvgl\src\lv_objx/lv_lmeter.c **** 
 162:..\..\..\lvgl\version_6.1.2\lvgl\src\lv_objx/lv_lmeter.c **** /**
 163:..\..\..\lvgl\version_6.1.2\lvgl\src\lv_objx/lv_lmeter.c ****  * Set the scale settings of a line meter
 164:..\..\..\lvgl\version_6.1.2\lvgl\src\lv_objx/lv_lmeter.c ****  * @param lmeter pointer to a line meter object
 165:..\..\..\lvgl\version_6.1.2\lvgl\src\lv_objx/lv_lmeter.c ****  * @param angle angle of the scale (0..360)
 166:..\..\..\lvgl\version_6.1.2\lvgl\src\lv_objx/lv_lmeter.c ****  * @param line_cnt number of lines
 167:..\..\..\lvgl\version_6.1.2\lvgl\src\lv_objx/lv_lmeter.c ****  */
 168:..\..\..\lvgl\version_6.1.2\lvgl\src\lv_objx/lv_lmeter.c **** void lv_lmeter_set_scale(lv_obj_t * lmeter, uint16_t angle, uint16_t line_cnt)
 169:..\..\..\lvgl\version_6.1.2\lvgl\src\lv_objx/lv_lmeter.c **** {
 568              		.loc 3 169 0
 569              		.cfi_startproc
 570              		@ args = 0, pretend = 0, frame = 16
 571              		@ frame_needed = 1, uses_anonymous_args = 0
 572 0000 80B5     		push	{r7, lr}
 573              		.cfi_def_cfa_offset 8
 574              		.cfi_offset 7, -8
 575              		.cfi_offset 14, -4
 576 0002 84B0     		sub	sp, sp, #16
 577              		.cfi_def_cfa_offset 24
 578 0004 00AF     		add	r7, sp, #0
 579              		.cfi_def_cfa_register 7
 580 0006 7860     		str	r0, [r7, #4]
 581 0008 0B46     		mov	r3, r1
 582 000a 7B80     		strh	r3, [r7, #2]	@ movhi
 583 000c 1346     		mov	r3, r2	@ movhi
ARM GAS  C:\Users\tmj32\AppData\Local\Temp\ccepMVRX.s 			page 25


 584 000e 3B80     		strh	r3, [r7]	@ movhi
 170:..\..\..\lvgl\version_6.1.2\lvgl\src\lv_objx/lv_lmeter.c ****     LV_ASSERT_OBJ(lmeter, LV_OBJX_NAME);
 171:..\..\..\lvgl\version_6.1.2\lvgl\src\lv_objx/lv_lmeter.c **** 
 172:..\..\..\lvgl\version_6.1.2\lvgl\src\lv_objx/lv_lmeter.c ****     lv_lmeter_ext_t * ext = lv_obj_get_ext_attr(lmeter);
 585              		.loc 3 172 0
 586 0010 7868     		ldr	r0, [r7, #4]
 587 0012 FFF7FEFF 		bl	lv_obj_get_ext_attr
 588 0016 F860     		str	r0, [r7, #12]
 173:..\..\..\lvgl\version_6.1.2\lvgl\src\lv_objx/lv_lmeter.c ****     if(ext->scale_angle == angle && ext->line_cnt == line_cnt) return;
 589              		.loc 3 173 0
 590 0018 FB68     		ldr	r3, [r7, #12]
 591 001a 1B88     		ldrh	r3, [r3]
 592 001c 7A88     		ldrh	r2, [r7, #2]
 593 001e 9A42     		cmp	r2, r3
 594 0020 04D1     		bne	.L28
 595              		.loc 3 173 0 is_stmt 0 discriminator 1
 596 0022 FB68     		ldr	r3, [r7, #12]
 597 0024 9B88     		ldrh	r3, [r3, #4]
 598 0026 3A88     		ldrh	r2, [r7]
 599 0028 9A42     		cmp	r2, r3
 600 002a 09D0     		beq	.L30
 601              	.L28:
 174:..\..\..\lvgl\version_6.1.2\lvgl\src\lv_objx/lv_lmeter.c **** 
 175:..\..\..\lvgl\version_6.1.2\lvgl\src\lv_objx/lv_lmeter.c ****     ext->scale_angle = angle;
 602              		.loc 3 175 0 is_stmt 1
 603 002c FB68     		ldr	r3, [r7, #12]
 604 002e 7A88     		ldrh	r2, [r7, #2]	@ movhi
 605 0030 1A80     		strh	r2, [r3]	@ movhi
 176:..\..\..\lvgl\version_6.1.2\lvgl\src\lv_objx/lv_lmeter.c ****     ext->line_cnt    = line_cnt;
 606              		.loc 3 176 0
 607 0032 FB68     		ldr	r3, [r7, #12]
 608 0034 3A88     		ldrh	r2, [r7]	@ movhi
 609 0036 9A80     		strh	r2, [r3, #4]	@ movhi
 177:..\..\..\lvgl\version_6.1.2\lvgl\src\lv_objx/lv_lmeter.c **** 
 178:..\..\..\lvgl\version_6.1.2\lvgl\src\lv_objx/lv_lmeter.c ****     lv_obj_invalidate(lmeter);
 610              		.loc 3 178 0
 611 0038 7868     		ldr	r0, [r7, #4]
 612 003a FFF7FEFF 		bl	lv_obj_invalidate
 613 003e 00E0     		b	.L27
 614              	.L30:
 173:..\..\..\lvgl\version_6.1.2\lvgl\src\lv_objx/lv_lmeter.c **** 
 615              		.loc 3 173 0
 616 0040 00BF     		nop
 617              	.L27:
 179:..\..\..\lvgl\version_6.1.2\lvgl\src\lv_objx/lv_lmeter.c **** }
 618              		.loc 3 179 0
 619 0042 1037     		adds	r7, r7, #16
 620              		.cfi_def_cfa_offset 8
 621 0044 BD46     		mov	sp, r7
 622              		.cfi_def_cfa_register 13
 623              		@ sp needed
 624 0046 80BD     		pop	{r7, pc}
 625              		.cfi_endproc
 626              	.LFE36:
 627              		.size	lv_lmeter_set_scale, .-lv_lmeter_set_scale
 628              		.section	.text.lv_lmeter_set_angle_offset,"ax",%progbits
 629              		.align	2
ARM GAS  C:\Users\tmj32\AppData\Local\Temp\ccepMVRX.s 			page 26


 630              		.global	lv_lmeter_set_angle_offset
 631              		.thumb
 632              		.thumb_func
 633              		.type	lv_lmeter_set_angle_offset, %function
 634              	lv_lmeter_set_angle_offset:
 635              	.LFB37:
 180:..\..\..\lvgl\version_6.1.2\lvgl\src\lv_objx/lv_lmeter.c **** 
 181:..\..\..\lvgl\version_6.1.2\lvgl\src\lv_objx/lv_lmeter.c **** /**
 182:..\..\..\lvgl\version_6.1.2\lvgl\src\lv_objx/lv_lmeter.c ****  * Set the set an offset for the line meter's angles to rotate it.
 183:..\..\..\lvgl\version_6.1.2\lvgl\src\lv_objx/lv_lmeter.c ****  * @param lmeter pointer to a line meter object
 184:..\..\..\lvgl\version_6.1.2\lvgl\src\lv_objx/lv_lmeter.c ****  * @param angle angle where the meter will be facing (with its center)
 185:..\..\..\lvgl\version_6.1.2\lvgl\src\lv_objx/lv_lmeter.c ****  */
 186:..\..\..\lvgl\version_6.1.2\lvgl\src\lv_objx/lv_lmeter.c **** void lv_lmeter_set_angle_offset(lv_obj_t * lmeter, uint16_t angle)
 187:..\..\..\lvgl\version_6.1.2\lvgl\src\lv_objx/lv_lmeter.c **** {
 636              		.loc 3 187 0
 637              		.cfi_startproc
 638              		@ args = 0, pretend = 0, frame = 16
 639              		@ frame_needed = 1, uses_anonymous_args = 0
 640 0000 80B5     		push	{r7, lr}
 641              		.cfi_def_cfa_offset 8
 642              		.cfi_offset 7, -8
 643              		.cfi_offset 14, -4
 644 0002 84B0     		sub	sp, sp, #16
 645              		.cfi_def_cfa_offset 24
 646 0004 00AF     		add	r7, sp, #0
 647              		.cfi_def_cfa_register 7
 648 0006 7860     		str	r0, [r7, #4]
 649 0008 0B46     		mov	r3, r1
 650 000a 7B80     		strh	r3, [r7, #2]	@ movhi
 188:..\..\..\lvgl\version_6.1.2\lvgl\src\lv_objx/lv_lmeter.c ****     lv_lmeter_ext_t * ext = lv_obj_get_ext_attr(lmeter);
 651              		.loc 3 188 0
 652 000c 7868     		ldr	r0, [r7, #4]
 653 000e FFF7FEFF 		bl	lv_obj_get_ext_attr
 654 0012 F860     		str	r0, [r7, #12]
 189:..\..\..\lvgl\version_6.1.2\lvgl\src\lv_objx/lv_lmeter.c ****     if(ext->angle_ofs == angle) return;
 655              		.loc 3 189 0
 656 0014 FB68     		ldr	r3, [r7, #12]
 657 0016 5B88     		ldrh	r3, [r3, #2]
 658 0018 7A88     		ldrh	r2, [r7, #2]
 659 001a 9A42     		cmp	r2, r3
 660 001c 06D0     		beq	.L34
 190:..\..\..\lvgl\version_6.1.2\lvgl\src\lv_objx/lv_lmeter.c **** 
 191:..\..\..\lvgl\version_6.1.2\lvgl\src\lv_objx/lv_lmeter.c ****     ext->angle_ofs = angle;
 661              		.loc 3 191 0
 662 001e FB68     		ldr	r3, [r7, #12]
 663 0020 7A88     		ldrh	r2, [r7, #2]	@ movhi
 664 0022 5A80     		strh	r2, [r3, #2]	@ movhi
 192:..\..\..\lvgl\version_6.1.2\lvgl\src\lv_objx/lv_lmeter.c **** 
 193:..\..\..\lvgl\version_6.1.2\lvgl\src\lv_objx/lv_lmeter.c ****     lv_obj_invalidate(lmeter);
 665              		.loc 3 193 0
 666 0024 7868     		ldr	r0, [r7, #4]
 667 0026 FFF7FEFF 		bl	lv_obj_invalidate
 668 002a 00E0     		b	.L31
 669              	.L34:
 189:..\..\..\lvgl\version_6.1.2\lvgl\src\lv_objx/lv_lmeter.c **** 
 670              		.loc 3 189 0
 671 002c 00BF     		nop
ARM GAS  C:\Users\tmj32\AppData\Local\Temp\ccepMVRX.s 			page 27


 672              	.L31:
 194:..\..\..\lvgl\version_6.1.2\lvgl\src\lv_objx/lv_lmeter.c **** }
 673              		.loc 3 194 0
 674 002e 1037     		adds	r7, r7, #16
 675              		.cfi_def_cfa_offset 8
 676 0030 BD46     		mov	sp, r7
 677              		.cfi_def_cfa_register 13
 678              		@ sp needed
 679 0032 80BD     		pop	{r7, pc}
 680              		.cfi_endproc
 681              	.LFE37:
 682              		.size	lv_lmeter_set_angle_offset, .-lv_lmeter_set_angle_offset
 683              		.section	.text.lv_lmeter_get_value,"ax",%progbits
 684              		.align	2
 685              		.global	lv_lmeter_get_value
 686              		.thumb
 687              		.thumb_func
 688              		.type	lv_lmeter_get_value, %function
 689              	lv_lmeter_get_value:
 690              	.LFB38:
 195:..\..\..\lvgl\version_6.1.2\lvgl\src\lv_objx/lv_lmeter.c **** 
 196:..\..\..\lvgl\version_6.1.2\lvgl\src\lv_objx/lv_lmeter.c **** /*=====================
 197:..\..\..\lvgl\version_6.1.2\lvgl\src\lv_objx/lv_lmeter.c ****  * Getter functions
 198:..\..\..\lvgl\version_6.1.2\lvgl\src\lv_objx/lv_lmeter.c ****  *====================*/
 199:..\..\..\lvgl\version_6.1.2\lvgl\src\lv_objx/lv_lmeter.c **** 
 200:..\..\..\lvgl\version_6.1.2\lvgl\src\lv_objx/lv_lmeter.c **** /**
 201:..\..\..\lvgl\version_6.1.2\lvgl\src\lv_objx/lv_lmeter.c ****  * Get the value of a line meter
 202:..\..\..\lvgl\version_6.1.2\lvgl\src\lv_objx/lv_lmeter.c ****  * @param lmeter pointer to a line meter object
 203:..\..\..\lvgl\version_6.1.2\lvgl\src\lv_objx/lv_lmeter.c ****  * @return the value of the line meter
 204:..\..\..\lvgl\version_6.1.2\lvgl\src\lv_objx/lv_lmeter.c ****  */
 205:..\..\..\lvgl\version_6.1.2\lvgl\src\lv_objx/lv_lmeter.c **** int16_t lv_lmeter_get_value(const lv_obj_t * lmeter)
 206:..\..\..\lvgl\version_6.1.2\lvgl\src\lv_objx/lv_lmeter.c **** {
 691              		.loc 3 206 0
 692              		.cfi_startproc
 693              		@ args = 0, pretend = 0, frame = 16
 694              		@ frame_needed = 1, uses_anonymous_args = 0
 695 0000 80B5     		push	{r7, lr}
 696              		.cfi_def_cfa_offset 8
 697              		.cfi_offset 7, -8
 698              		.cfi_offset 14, -4
 699 0002 84B0     		sub	sp, sp, #16
 700              		.cfi_def_cfa_offset 24
 701 0004 00AF     		add	r7, sp, #0
 702              		.cfi_def_cfa_register 7
 703 0006 7860     		str	r0, [r7, #4]
 207:..\..\..\lvgl\version_6.1.2\lvgl\src\lv_objx/lv_lmeter.c ****     LV_ASSERT_OBJ(lmeter, LV_OBJX_NAME);
 208:..\..\..\lvgl\version_6.1.2\lvgl\src\lv_objx/lv_lmeter.c **** 
 209:..\..\..\lvgl\version_6.1.2\lvgl\src\lv_objx/lv_lmeter.c ****     lv_lmeter_ext_t * ext = lv_obj_get_ext_attr(lmeter);
 704              		.loc 3 209 0
 705 0008 7868     		ldr	r0, [r7, #4]
 706 000a FFF7FEFF 		bl	lv_obj_get_ext_attr
 707 000e F860     		str	r0, [r7, #12]
 210:..\..\..\lvgl\version_6.1.2\lvgl\src\lv_objx/lv_lmeter.c ****     return ext->cur_value;
 708              		.loc 3 210 0
 709 0010 FB68     		ldr	r3, [r7, #12]
 710 0012 B3F90630 		ldrsh	r3, [r3, #6]
 211:..\..\..\lvgl\version_6.1.2\lvgl\src\lv_objx/lv_lmeter.c **** }
ARM GAS  C:\Users\tmj32\AppData\Local\Temp\ccepMVRX.s 			page 28


 711              		.loc 3 211 0
 712 0016 1846     		mov	r0, r3
 713 0018 1037     		adds	r7, r7, #16
 714              		.cfi_def_cfa_offset 8
 715 001a BD46     		mov	sp, r7
 716              		.cfi_def_cfa_register 13
 717              		@ sp needed
 718 001c 80BD     		pop	{r7, pc}
 719              		.cfi_endproc
 720              	.LFE38:
 721              		.size	lv_lmeter_get_value, .-lv_lmeter_get_value
 722 001e 00BF     		.section	.text.lv_lmeter_get_min_value,"ax",%progbits
 723              		.align	2
 724              		.global	lv_lmeter_get_min_value
 725              		.thumb
 726              		.thumb_func
 727              		.type	lv_lmeter_get_min_value, %function
 728              	lv_lmeter_get_min_value:
 729              	.LFB39:
 212:..\..\..\lvgl\version_6.1.2\lvgl\src\lv_objx/lv_lmeter.c **** 
 213:..\..\..\lvgl\version_6.1.2\lvgl\src\lv_objx/lv_lmeter.c **** /**
 214:..\..\..\lvgl\version_6.1.2\lvgl\src\lv_objx/lv_lmeter.c ****  * Get the minimum value of a line meter
 215:..\..\..\lvgl\version_6.1.2\lvgl\src\lv_objx/lv_lmeter.c ****  * @param lmeter pointer to a line meter object
 216:..\..\..\lvgl\version_6.1.2\lvgl\src\lv_objx/lv_lmeter.c ****  * @return the minimum value of the line meter
 217:..\..\..\lvgl\version_6.1.2\lvgl\src\lv_objx/lv_lmeter.c ****  */
 218:..\..\..\lvgl\version_6.1.2\lvgl\src\lv_objx/lv_lmeter.c **** int16_t lv_lmeter_get_min_value(const lv_obj_t * lmeter)
 219:..\..\..\lvgl\version_6.1.2\lvgl\src\lv_objx/lv_lmeter.c **** {
 730              		.loc 3 219 0
 731              		.cfi_startproc
 732              		@ args = 0, pretend = 0, frame = 16
 733              		@ frame_needed = 1, uses_anonymous_args = 0
 734 0000 80B5     		push	{r7, lr}
 735              		.cfi_def_cfa_offset 8
 736              		.cfi_offset 7, -8
 737              		.cfi_offset 14, -4
 738 0002 84B0     		sub	sp, sp, #16
 739              		.cfi_def_cfa_offset 24
 740 0004 00AF     		add	r7, sp, #0
 741              		.cfi_def_cfa_register 7
 742 0006 7860     		str	r0, [r7, #4]
 220:..\..\..\lvgl\version_6.1.2\lvgl\src\lv_objx/lv_lmeter.c ****     LV_ASSERT_OBJ(lmeter, LV_OBJX_NAME);
 221:..\..\..\lvgl\version_6.1.2\lvgl\src\lv_objx/lv_lmeter.c **** 
 222:..\..\..\lvgl\version_6.1.2\lvgl\src\lv_objx/lv_lmeter.c ****     lv_lmeter_ext_t * ext = lv_obj_get_ext_attr(lmeter);
 743              		.loc 3 222 0
 744 0008 7868     		ldr	r0, [r7, #4]
 745 000a FFF7FEFF 		bl	lv_obj_get_ext_attr
 746 000e F860     		str	r0, [r7, #12]
 223:..\..\..\lvgl\version_6.1.2\lvgl\src\lv_objx/lv_lmeter.c ****     return ext->min_value;
 747              		.loc 3 223 0
 748 0010 FB68     		ldr	r3, [r7, #12]
 749 0012 B3F90830 		ldrsh	r3, [r3, #8]
 224:..\..\..\lvgl\version_6.1.2\lvgl\src\lv_objx/lv_lmeter.c **** }
 750              		.loc 3 224 0
 751 0016 1846     		mov	r0, r3
 752 0018 1037     		adds	r7, r7, #16
 753              		.cfi_def_cfa_offset 8
 754 001a BD46     		mov	sp, r7
ARM GAS  C:\Users\tmj32\AppData\Local\Temp\ccepMVRX.s 			page 29


 755              		.cfi_def_cfa_register 13
 756              		@ sp needed
 757 001c 80BD     		pop	{r7, pc}
 758              		.cfi_endproc
 759              	.LFE39:
 760              		.size	lv_lmeter_get_min_value, .-lv_lmeter_get_min_value
 761 001e 00BF     		.section	.text.lv_lmeter_get_max_value,"ax",%progbits
 762              		.align	2
 763              		.global	lv_lmeter_get_max_value
 764              		.thumb
 765              		.thumb_func
 766              		.type	lv_lmeter_get_max_value, %function
 767              	lv_lmeter_get_max_value:
 768              	.LFB40:
 225:..\..\..\lvgl\version_6.1.2\lvgl\src\lv_objx/lv_lmeter.c **** 
 226:..\..\..\lvgl\version_6.1.2\lvgl\src\lv_objx/lv_lmeter.c **** /**
 227:..\..\..\lvgl\version_6.1.2\lvgl\src\lv_objx/lv_lmeter.c ****  * Get the maximum value of a line meter
 228:..\..\..\lvgl\version_6.1.2\lvgl\src\lv_objx/lv_lmeter.c ****  * @param lmeter pointer to a line meter object
 229:..\..\..\lvgl\version_6.1.2\lvgl\src\lv_objx/lv_lmeter.c ****  * @return the maximum value of the line meter
 230:..\..\..\lvgl\version_6.1.2\lvgl\src\lv_objx/lv_lmeter.c ****  */
 231:..\..\..\lvgl\version_6.1.2\lvgl\src\lv_objx/lv_lmeter.c **** int16_t lv_lmeter_get_max_value(const lv_obj_t * lmeter)
 232:..\..\..\lvgl\version_6.1.2\lvgl\src\lv_objx/lv_lmeter.c **** {
 769              		.loc 3 232 0
 770              		.cfi_startproc
 771              		@ args = 0, pretend = 0, frame = 16
 772              		@ frame_needed = 1, uses_anonymous_args = 0
 773 0000 80B5     		push	{r7, lr}
 774              		.cfi_def_cfa_offset 8
 775              		.cfi_offset 7, -8
 776              		.cfi_offset 14, -4
 777 0002 84B0     		sub	sp, sp, #16
 778              		.cfi_def_cfa_offset 24
 779 0004 00AF     		add	r7, sp, #0
 780              		.cfi_def_cfa_register 7
 781 0006 7860     		str	r0, [r7, #4]
 233:..\..\..\lvgl\version_6.1.2\lvgl\src\lv_objx/lv_lmeter.c ****     LV_ASSERT_OBJ(lmeter, LV_OBJX_NAME);
 234:..\..\..\lvgl\version_6.1.2\lvgl\src\lv_objx/lv_lmeter.c **** 
 235:..\..\..\lvgl\version_6.1.2\lvgl\src\lv_objx/lv_lmeter.c ****     lv_lmeter_ext_t * ext = lv_obj_get_ext_attr(lmeter);
 782              		.loc 3 235 0
 783 0008 7868     		ldr	r0, [r7, #4]
 784 000a FFF7FEFF 		bl	lv_obj_get_ext_attr
 785 000e F860     		str	r0, [r7, #12]
 236:..\..\..\lvgl\version_6.1.2\lvgl\src\lv_objx/lv_lmeter.c ****     return ext->max_value;
 786              		.loc 3 236 0
 787 0010 FB68     		ldr	r3, [r7, #12]
 788 0012 B3F90A30 		ldrsh	r3, [r3, #10]
 237:..\..\..\lvgl\version_6.1.2\lvgl\src\lv_objx/lv_lmeter.c **** }
 789              		.loc 3 237 0
 790 0016 1846     		mov	r0, r3
 791 0018 1037     		adds	r7, r7, #16
 792              		.cfi_def_cfa_offset 8
 793 001a BD46     		mov	sp, r7
 794              		.cfi_def_cfa_register 13
 795              		@ sp needed
 796 001c 80BD     		pop	{r7, pc}
 797              		.cfi_endproc
 798              	.LFE40:
ARM GAS  C:\Users\tmj32\AppData\Local\Temp\ccepMVRX.s 			page 30


 799              		.size	lv_lmeter_get_max_value, .-lv_lmeter_get_max_value
 800 001e 00BF     		.section	.text.lv_lmeter_get_line_count,"ax",%progbits
 801              		.align	2
 802              		.global	lv_lmeter_get_line_count
 803              		.thumb
 804              		.thumb_func
 805              		.type	lv_lmeter_get_line_count, %function
 806              	lv_lmeter_get_line_count:
 807              	.LFB41:
 238:..\..\..\lvgl\version_6.1.2\lvgl\src\lv_objx/lv_lmeter.c **** 
 239:..\..\..\lvgl\version_6.1.2\lvgl\src\lv_objx/lv_lmeter.c **** /**
 240:..\..\..\lvgl\version_6.1.2\lvgl\src\lv_objx/lv_lmeter.c ****  * Get the scale number of a line meter
 241:..\..\..\lvgl\version_6.1.2\lvgl\src\lv_objx/lv_lmeter.c ****  * @param lmeter pointer to a line meter object
 242:..\..\..\lvgl\version_6.1.2\lvgl\src\lv_objx/lv_lmeter.c ****  * @return number of the scale units
 243:..\..\..\lvgl\version_6.1.2\lvgl\src\lv_objx/lv_lmeter.c ****  */
 244:..\..\..\lvgl\version_6.1.2\lvgl\src\lv_objx/lv_lmeter.c **** uint16_t lv_lmeter_get_line_count(const lv_obj_t * lmeter)
 245:..\..\..\lvgl\version_6.1.2\lvgl\src\lv_objx/lv_lmeter.c **** {
 808              		.loc 3 245 0
 809              		.cfi_startproc
 810              		@ args = 0, pretend = 0, frame = 16
 811              		@ frame_needed = 1, uses_anonymous_args = 0
 812 0000 80B5     		push	{r7, lr}
 813              		.cfi_def_cfa_offset 8
 814              		.cfi_offset 7, -8
 815              		.cfi_offset 14, -4
 816 0002 84B0     		sub	sp, sp, #16
 817              		.cfi_def_cfa_offset 24
 818 0004 00AF     		add	r7, sp, #0
 819              		.cfi_def_cfa_register 7
 820 0006 7860     		str	r0, [r7, #4]
 246:..\..\..\lvgl\version_6.1.2\lvgl\src\lv_objx/lv_lmeter.c ****     LV_ASSERT_OBJ(lmeter, LV_OBJX_NAME);
 247:..\..\..\lvgl\version_6.1.2\lvgl\src\lv_objx/lv_lmeter.c **** 
 248:..\..\..\lvgl\version_6.1.2\lvgl\src\lv_objx/lv_lmeter.c ****     lv_lmeter_ext_t * ext = lv_obj_get_ext_attr(lmeter);
 821              		.loc 3 248 0
 822 0008 7868     		ldr	r0, [r7, #4]
 823 000a FFF7FEFF 		bl	lv_obj_get_ext_attr
 824 000e F860     		str	r0, [r7, #12]
 249:..\..\..\lvgl\version_6.1.2\lvgl\src\lv_objx/lv_lmeter.c ****     return ext->line_cnt;
 825              		.loc 3 249 0
 826 0010 FB68     		ldr	r3, [r7, #12]
 827 0012 9B88     		ldrh	r3, [r3, #4]
 250:..\..\..\lvgl\version_6.1.2\lvgl\src\lv_objx/lv_lmeter.c **** }
 828              		.loc 3 250 0
 829 0014 1846     		mov	r0, r3
 830 0016 1037     		adds	r7, r7, #16
 831              		.cfi_def_cfa_offset 8
 832 0018 BD46     		mov	sp, r7
 833              		.cfi_def_cfa_register 13
 834              		@ sp needed
 835 001a 80BD     		pop	{r7, pc}
 836              		.cfi_endproc
 837              	.LFE41:
 838              		.size	lv_lmeter_get_line_count, .-lv_lmeter_get_line_count
 839              		.section	.text.lv_lmeter_get_scale_angle,"ax",%progbits
 840              		.align	2
 841              		.global	lv_lmeter_get_scale_angle
 842              		.thumb
ARM GAS  C:\Users\tmj32\AppData\Local\Temp\ccepMVRX.s 			page 31


 843              		.thumb_func
 844              		.type	lv_lmeter_get_scale_angle, %function
 845              	lv_lmeter_get_scale_angle:
 846              	.LFB42:
 251:..\..\..\lvgl\version_6.1.2\lvgl\src\lv_objx/lv_lmeter.c **** 
 252:..\..\..\lvgl\version_6.1.2\lvgl\src\lv_objx/lv_lmeter.c **** /**
 253:..\..\..\lvgl\version_6.1.2\lvgl\src\lv_objx/lv_lmeter.c ****  * Get the scale angle of a line meter
 254:..\..\..\lvgl\version_6.1.2\lvgl\src\lv_objx/lv_lmeter.c ****  * @param lmeter pointer to a line meter object
 255:..\..\..\lvgl\version_6.1.2\lvgl\src\lv_objx/lv_lmeter.c ****  * @return angle_ofs of the scale
 256:..\..\..\lvgl\version_6.1.2\lvgl\src\lv_objx/lv_lmeter.c ****  */
 257:..\..\..\lvgl\version_6.1.2\lvgl\src\lv_objx/lv_lmeter.c **** uint16_t lv_lmeter_get_scale_angle(const lv_obj_t * lmeter)
 258:..\..\..\lvgl\version_6.1.2\lvgl\src\lv_objx/lv_lmeter.c **** {
 847              		.loc 3 258 0
 848              		.cfi_startproc
 849              		@ args = 0, pretend = 0, frame = 16
 850              		@ frame_needed = 1, uses_anonymous_args = 0
 851 0000 80B5     		push	{r7, lr}
 852              		.cfi_def_cfa_offset 8
 853              		.cfi_offset 7, -8
 854              		.cfi_offset 14, -4
 855 0002 84B0     		sub	sp, sp, #16
 856              		.cfi_def_cfa_offset 24
 857 0004 00AF     		add	r7, sp, #0
 858              		.cfi_def_cfa_register 7
 859 0006 7860     		str	r0, [r7, #4]
 259:..\..\..\lvgl\version_6.1.2\lvgl\src\lv_objx/lv_lmeter.c ****     LV_ASSERT_OBJ(lmeter, LV_OBJX_NAME);
 260:..\..\..\lvgl\version_6.1.2\lvgl\src\lv_objx/lv_lmeter.c **** 
 261:..\..\..\lvgl\version_6.1.2\lvgl\src\lv_objx/lv_lmeter.c ****     lv_lmeter_ext_t * ext = lv_obj_get_ext_attr(lmeter);
 860              		.loc 3 261 0
 861 0008 7868     		ldr	r0, [r7, #4]
 862 000a FFF7FEFF 		bl	lv_obj_get_ext_attr
 863 000e F860     		str	r0, [r7, #12]
 262:..\..\..\lvgl\version_6.1.2\lvgl\src\lv_objx/lv_lmeter.c ****     return ext->scale_angle;
 864              		.loc 3 262 0
 865 0010 FB68     		ldr	r3, [r7, #12]
 866 0012 1B88     		ldrh	r3, [r3]
 263:..\..\..\lvgl\version_6.1.2\lvgl\src\lv_objx/lv_lmeter.c **** }
 867              		.loc 3 263 0
 868 0014 1846     		mov	r0, r3
 869 0016 1037     		adds	r7, r7, #16
 870              		.cfi_def_cfa_offset 8
 871 0018 BD46     		mov	sp, r7
 872              		.cfi_def_cfa_register 13
 873              		@ sp needed
 874 001a 80BD     		pop	{r7, pc}
 875              		.cfi_endproc
 876              	.LFE42:
 877              		.size	lv_lmeter_get_scale_angle, .-lv_lmeter_get_scale_angle
 878              		.section	.text.lv_lmeter_get_angle_offset,"ax",%progbits
 879              		.align	2
 880              		.global	lv_lmeter_get_angle_offset
 881              		.thumb
 882              		.thumb_func
 883              		.type	lv_lmeter_get_angle_offset, %function
 884              	lv_lmeter_get_angle_offset:
 885              	.LFB43:
 264:..\..\..\lvgl\version_6.1.2\lvgl\src\lv_objx/lv_lmeter.c **** 
ARM GAS  C:\Users\tmj32\AppData\Local\Temp\ccepMVRX.s 			page 32


 265:..\..\..\lvgl\version_6.1.2\lvgl\src\lv_objx/lv_lmeter.c **** /**
 266:..\..\..\lvgl\version_6.1.2\lvgl\src\lv_objx/lv_lmeter.c ****  * get the set an offset for the line meter.
 267:..\..\..\lvgl\version_6.1.2\lvgl\src\lv_objx/lv_lmeter.c ****  * @param lmeter pointer to a line meter object
 268:..\..\..\lvgl\version_6.1.2\lvgl\src\lv_objx/lv_lmeter.c ****  * @return angle offset (0..360)
 269:..\..\..\lvgl\version_6.1.2\lvgl\src\lv_objx/lv_lmeter.c ****  */
 270:..\..\..\lvgl\version_6.1.2\lvgl\src\lv_objx/lv_lmeter.c **** uint16_t lv_lmeter_get_angle_offset(lv_obj_t * lmeter)
 271:..\..\..\lvgl\version_6.1.2\lvgl\src\lv_objx/lv_lmeter.c **** {
 886              		.loc 3 271 0
 887              		.cfi_startproc
 888              		@ args = 0, pretend = 0, frame = 16
 889              		@ frame_needed = 1, uses_anonymous_args = 0
 890 0000 80B5     		push	{r7, lr}
 891              		.cfi_def_cfa_offset 8
 892              		.cfi_offset 7, -8
 893              		.cfi_offset 14, -4
 894 0002 84B0     		sub	sp, sp, #16
 895              		.cfi_def_cfa_offset 24
 896 0004 00AF     		add	r7, sp, #0
 897              		.cfi_def_cfa_register 7
 898 0006 7860     		str	r0, [r7, #4]
 272:..\..\..\lvgl\version_6.1.2\lvgl\src\lv_objx/lv_lmeter.c ****     lv_lmeter_ext_t * ext = lv_obj_get_ext_attr(lmeter);
 899              		.loc 3 272 0
 900 0008 7868     		ldr	r0, [r7, #4]
 901 000a FFF7FEFF 		bl	lv_obj_get_ext_attr
 902 000e F860     		str	r0, [r7, #12]
 273:..\..\..\lvgl\version_6.1.2\lvgl\src\lv_objx/lv_lmeter.c **** 
 274:..\..\..\lvgl\version_6.1.2\lvgl\src\lv_objx/lv_lmeter.c ****     return ext->angle_ofs;
 903              		.loc 3 274 0
 904 0010 FB68     		ldr	r3, [r7, #12]
 905 0012 5B88     		ldrh	r3, [r3, #2]
 275:..\..\..\lvgl\version_6.1.2\lvgl\src\lv_objx/lv_lmeter.c **** }
 906              		.loc 3 275 0
 907 0014 1846     		mov	r0, r3
 908 0016 1037     		adds	r7, r7, #16
 909              		.cfi_def_cfa_offset 8
 910 0018 BD46     		mov	sp, r7
 911              		.cfi_def_cfa_register 13
 912              		@ sp needed
 913 001a 80BD     		pop	{r7, pc}
 914              		.cfi_endproc
 915              	.LFE43:
 916              		.size	lv_lmeter_get_angle_offset, .-lv_lmeter_get_angle_offset
 917              		.section	.text.lv_lmeter_design,"ax",%progbits
 918              		.align	2
 919              		.thumb
 920              		.thumb_func
 921              		.type	lv_lmeter_design, %function
 922              	lv_lmeter_design:
 923              	.LFB44:
 276:..\..\..\lvgl\version_6.1.2\lvgl\src\lv_objx/lv_lmeter.c **** /**********************
 277:..\..\..\lvgl\version_6.1.2\lvgl\src\lv_objx/lv_lmeter.c ****  *   STATIC FUNCTIONS
 278:..\..\..\lvgl\version_6.1.2\lvgl\src\lv_objx/lv_lmeter.c ****  **********************/
 279:..\..\..\lvgl\version_6.1.2\lvgl\src\lv_objx/lv_lmeter.c **** 
 280:..\..\..\lvgl\version_6.1.2\lvgl\src\lv_objx/lv_lmeter.c **** /**
 281:..\..\..\lvgl\version_6.1.2\lvgl\src\lv_objx/lv_lmeter.c ****  * Handle the drawing related tasks of the line meters
 282:..\..\..\lvgl\version_6.1.2\lvgl\src\lv_objx/lv_lmeter.c ****  * @param lmeter pointer to an object
 283:..\..\..\lvgl\version_6.1.2\lvgl\src\lv_objx/lv_lmeter.c ****  * @param mask the object will be drawn only in this area
ARM GAS  C:\Users\tmj32\AppData\Local\Temp\ccepMVRX.s 			page 33


 284:..\..\..\lvgl\version_6.1.2\lvgl\src\lv_objx/lv_lmeter.c ****  * @param mode LV_DESIGN_COVER_CHK: only check if the object fully covers the 'mask_p' area
 285:..\..\..\lvgl\version_6.1.2\lvgl\src\lv_objx/lv_lmeter.c ****  *                                  (return 'true' if yes)
 286:..\..\..\lvgl\version_6.1.2\lvgl\src\lv_objx/lv_lmeter.c ****  *             LV_DESIGN_DRAW: draw the object (always return 'true')
 287:..\..\..\lvgl\version_6.1.2\lvgl\src\lv_objx/lv_lmeter.c ****  *             LV_DESIGN_DRAW_POST: drawing after every children are drawn
 288:..\..\..\lvgl\version_6.1.2\lvgl\src\lv_objx/lv_lmeter.c ****  * @param return true/false, depends on 'mode'
 289:..\..\..\lvgl\version_6.1.2\lvgl\src\lv_objx/lv_lmeter.c ****  */
 290:..\..\..\lvgl\version_6.1.2\lvgl\src\lv_objx/lv_lmeter.c **** static bool lv_lmeter_design(lv_obj_t * lmeter, const lv_area_t * mask, lv_design_mode_t mode)
 291:..\..\..\lvgl\version_6.1.2\lvgl\src\lv_objx/lv_lmeter.c **** {
 924              		.loc 3 291 0
 925              		.cfi_startproc
 926              		@ args = 0, pretend = 0, frame = 144
 927              		@ frame_needed = 1, uses_anonymous_args = 0
 928 0000 80B5     		push	{r7, lr}
 929              		.cfi_def_cfa_offset 8
 930              		.cfi_offset 7, -8
 931              		.cfi_offset 14, -4
 932 0002 A6B0     		sub	sp, sp, #152
 933              		.cfi_def_cfa_offset 160
 934 0004 02AF     		add	r7, sp, #8
 935              		.cfi_def_cfa 7, 152
 936 0006 F860     		str	r0, [r7, #12]
 937 0008 B960     		str	r1, [r7, #8]
 938 000a 1346     		mov	r3, r2
 939 000c FB71     		strb	r3, [r7, #7]
 292:..\..\..\lvgl\version_6.1.2\lvgl\src\lv_objx/lv_lmeter.c ****     /*Return false if the object is not covers the mask_p area*/
 293:..\..\..\lvgl\version_6.1.2\lvgl\src\lv_objx/lv_lmeter.c ****     if(mode == LV_DESIGN_COVER_CHK) {
 940              		.loc 3 293 0
 941 000e FB79     		ldrb	r3, [r7, #7]	@ zero_extendqisi2
 942 0010 022B     		cmp	r3, #2
 943 0012 01D1     		bne	.L48
 294:..\..\..\lvgl\version_6.1.2\lvgl\src\lv_objx/lv_lmeter.c ****         return false;
 944              		.loc 3 294 0
 945 0014 0023     		movs	r3, #0
 946 0016 69E1     		b	.L49
 947              	.L48:
 295:..\..\..\lvgl\version_6.1.2\lvgl\src\lv_objx/lv_lmeter.c ****     }
 296:..\..\..\lvgl\version_6.1.2\lvgl\src\lv_objx/lv_lmeter.c ****     /*Draw the object*/
 297:..\..\..\lvgl\version_6.1.2\lvgl\src\lv_objx/lv_lmeter.c ****     else if(mode == LV_DESIGN_DRAW_MAIN) {
 948              		.loc 3 297 0
 949 0018 FB79     		ldrb	r3, [r7, #7]	@ zero_extendqisi2
 950 001a 002B     		cmp	r3, #0
 951 001c 40F06581 		bne	.L50
 952              	.LBB4:
 298:..\..\..\lvgl\version_6.1.2\lvgl\src\lv_objx/lv_lmeter.c ****         lv_lmeter_ext_t * ext    = lv_obj_get_ext_attr(lmeter);
 953              		.loc 3 298 0
 954 0020 F868     		ldr	r0, [r7, #12]
 955 0022 FFF7FEFF 		bl	lv_obj_get_ext_attr
 956 0026 C7F88800 		str	r0, [r7, #136]
 299:..\..\..\lvgl\version_6.1.2\lvgl\src\lv_objx/lv_lmeter.c ****         const lv_style_t * style = lv_obj_get_style(lmeter);
 957              		.loc 3 299 0
 958 002a F868     		ldr	r0, [r7, #12]
 959 002c FFF7FEFF 		bl	lv_obj_get_style
 960 0030 C7F88400 		str	r0, [r7, #132]
 300:..\..\..\lvgl\version_6.1.2\lvgl\src\lv_objx/lv_lmeter.c ****         lv_opa_t opa_scale       = lv_obj_get_opa_scale(lmeter);
 961              		.loc 3 300 0
 962 0034 F868     		ldr	r0, [r7, #12]
 963 0036 FFF7FEFF 		bl	lv_obj_get_opa_scale
ARM GAS  C:\Users\tmj32\AppData\Local\Temp\ccepMVRX.s 			page 34


 964 003a 0346     		mov	r3, r0
 965 003c 87F88330 		strb	r3, [r7, #131]
 301:..\..\..\lvgl\version_6.1.2\lvgl\src\lv_objx/lv_lmeter.c ****         lv_style_t style_tmp;
 302:..\..\..\lvgl\version_6.1.2\lvgl\src\lv_objx/lv_lmeter.c ****         lv_style_copy(&style_tmp, style);
 966              		.loc 3 302 0
 967 0040 07F11403 		add	r3, r7, #20
 968 0044 D7F88410 		ldr	r1, [r7, #132]
 969 0048 1846     		mov	r0, r3
 970 004a FFF7FEFF 		bl	lv_style_copy
 303:..\..\..\lvgl\version_6.1.2\lvgl\src\lv_objx/lv_lmeter.c **** 
 304:..\..\..\lvgl\version_6.1.2\lvgl\src\lv_objx/lv_lmeter.c **** #if LV_USE_GROUP
 305:..\..\..\lvgl\version_6.1.2\lvgl\src\lv_objx/lv_lmeter.c ****         lv_group_t * g = lv_obj_get_group(lmeter);
 306:..\..\..\lvgl\version_6.1.2\lvgl\src\lv_objx/lv_lmeter.c ****         if(lv_group_get_focused(g) == lmeter) {
 307:..\..\..\lvgl\version_6.1.2\lvgl\src\lv_objx/lv_lmeter.c ****             style_tmp.line.width += 1;
 308:..\..\..\lvgl\version_6.1.2\lvgl\src\lv_objx/lv_lmeter.c ****         }
 309:..\..\..\lvgl\version_6.1.2\lvgl\src\lv_objx/lv_lmeter.c **** #endif
 310:..\..\..\lvgl\version_6.1.2\lvgl\src\lv_objx/lv_lmeter.c **** 
 311:..\..\..\lvgl\version_6.1.2\lvgl\src\lv_objx/lv_lmeter.c ****         lv_coord_t r_out = lv_obj_get_width(lmeter) / 2;
 971              		.loc 3 311 0
 972 004e F868     		ldr	r0, [r7, #12]
 973 0050 FFF7FEFF 		bl	lv_obj_get_width
 974 0054 0346     		mov	r3, r0
 975 0056 DA0F     		lsrs	r2, r3, #31
 976 0058 1344     		add	r3, r3, r2
 977 005a 5B10     		asrs	r3, r3, #1
 978 005c A7F88030 		strh	r3, [r7, #128]	@ movhi
 312:..\..\..\lvgl\version_6.1.2\lvgl\src\lv_objx/lv_lmeter.c ****         lv_coord_t r_in  = r_out - style->body.padding.left;
 979              		.loc 3 312 0
 980 0060 B7F88020 		ldrh	r2, [r7, #128]
 981 0064 D7F88430 		ldr	r3, [r7, #132]
 982 0068 B3F92430 		ldrsh	r3, [r3, #36]
 983 006c 9BB2     		uxth	r3, r3
 984 006e D31A     		subs	r3, r2, r3
 985 0070 9BB2     		uxth	r3, r3
 986 0072 A7F88E30 		strh	r3, [r7, #142]	@ movhi
 313:..\..\..\lvgl\version_6.1.2\lvgl\src\lv_objx/lv_lmeter.c ****         if(r_in < 1) r_in = 1;
 987              		.loc 3 313 0
 988 0076 B7F98E30 		ldrsh	r3, [r7, #142]
 989 007a 002B     		cmp	r3, #0
 990 007c 02DC     		bgt	.L51
 991              		.loc 3 313 0 is_stmt 0 discriminator 1
 992 007e 0123     		movs	r3, #1
 993 0080 A7F88E30 		strh	r3, [r7, #142]	@ movhi
 994              	.L51:
 314:..\..\..\lvgl\version_6.1.2\lvgl\src\lv_objx/lv_lmeter.c **** 
 315:..\..\..\lvgl\version_6.1.2\lvgl\src\lv_objx/lv_lmeter.c ****         lv_coord_t x_ofs  = lv_obj_get_width(lmeter) / 2 + lmeter->coords.x1;
 995              		.loc 3 315 0 is_stmt 1
 996 0084 F868     		ldr	r0, [r7, #12]
 997 0086 FFF7FEFF 		bl	lv_obj_get_width
 998 008a 0346     		mov	r3, r0
 999 008c DA0F     		lsrs	r2, r3, #31
 1000 008e 1344     		add	r3, r3, r2
 1001 0090 5B10     		asrs	r3, r3, #1
 1002 0092 1BB2     		sxth	r3, r3
 1003 0094 9AB2     		uxth	r2, r3
 1004 0096 FB68     		ldr	r3, [r7, #12]
 1005 0098 B3F91030 		ldrsh	r3, [r3, #16]
ARM GAS  C:\Users\tmj32\AppData\Local\Temp\ccepMVRX.s 			page 35


 1006 009c 9BB2     		uxth	r3, r3
 1007 009e 1344     		add	r3, r3, r2
 1008 00a0 9BB2     		uxth	r3, r3
 1009 00a2 A7F87E30 		strh	r3, [r7, #126]	@ movhi
 316:..\..\..\lvgl\version_6.1.2\lvgl\src\lv_objx/lv_lmeter.c ****         lv_coord_t y_ofs  = lv_obj_get_height(lmeter) / 2 + lmeter->coords.y1;
 1010              		.loc 3 316 0
 1011 00a6 F868     		ldr	r0, [r7, #12]
 1012 00a8 FFF7FEFF 		bl	lv_obj_get_height
 1013 00ac 0346     		mov	r3, r0
 1014 00ae DA0F     		lsrs	r2, r3, #31
 1015 00b0 1344     		add	r3, r3, r2
 1016 00b2 5B10     		asrs	r3, r3, #1
 1017 00b4 1BB2     		sxth	r3, r3
 1018 00b6 9AB2     		uxth	r2, r3
 1019 00b8 FB68     		ldr	r3, [r7, #12]
 1020 00ba B3F91230 		ldrsh	r3, [r3, #18]
 1021 00be 9BB2     		uxth	r3, r3
 1022 00c0 1344     		add	r3, r3, r2
 1023 00c2 9BB2     		uxth	r3, r3
 1024 00c4 A7F87C30 		strh	r3, [r7, #124]	@ movhi
 317:..\..\..\lvgl\version_6.1.2\lvgl\src\lv_objx/lv_lmeter.c ****         int16_t angle_ofs = ext->angle_ofs + 90 + (360 - ext->scale_angle) / 2;
 1025              		.loc 3 317 0
 1026 00c8 D7F88830 		ldr	r3, [r7, #136]
 1027 00cc 5A88     		ldrh	r2, [r3, #2]
 1028 00ce D7F88830 		ldr	r3, [r7, #136]
 1029 00d2 1B88     		ldrh	r3, [r3]
 1030 00d4 C3F5B473 		rsb	r3, r3, #360
 1031 00d8 D90F     		lsrs	r1, r3, #31
 1032 00da 0B44     		add	r3, r3, r1
 1033 00dc 5B10     		asrs	r3, r3, #1
 1034 00de 9BB2     		uxth	r3, r3
 1035 00e0 1344     		add	r3, r3, r2
 1036 00e2 9BB2     		uxth	r3, r3
 1037 00e4 5A33     		adds	r3, r3, #90
 1038 00e6 9BB2     		uxth	r3, r3
 1039 00e8 A7F87A30 		strh	r3, [r7, #122]	@ movhi
 318:..\..\..\lvgl\version_6.1.2\lvgl\src\lv_objx/lv_lmeter.c ****         int16_t level =
 319:..\..\..\lvgl\version_6.1.2\lvgl\src\lv_objx/lv_lmeter.c ****             (int32_t)((int32_t)(ext->cur_value - ext->min_value) * ext->line_cnt) / (ext->max_value
 1040              		.loc 3 319 0
 1041 00ec D7F88830 		ldr	r3, [r7, #136]
 1042 00f0 B3F90630 		ldrsh	r3, [r3, #6]
 1043 00f4 1A46     		mov	r2, r3
 1044 00f6 D7F88830 		ldr	r3, [r7, #136]
 1045 00fa B3F90830 		ldrsh	r3, [r3, #8]
 1046 00fe D31A     		subs	r3, r2, r3
 1047 0100 D7F88820 		ldr	r2, [r7, #136]
 1048 0104 9288     		ldrh	r2, [r2, #4]
 1049 0106 02FB03F2 		mul	r2, r2, r3
 1050 010a D7F88830 		ldr	r3, [r7, #136]
 1051 010e B3F90A30 		ldrsh	r3, [r3, #10]
 1052 0112 1946     		mov	r1, r3
 1053 0114 D7F88830 		ldr	r3, [r7, #136]
 1054 0118 B3F90830 		ldrsh	r3, [r3, #8]
 1055 011c CB1A     		subs	r3, r1, r3
 1056 011e 92FBF3F3 		sdiv	r3, r2, r3
 318:..\..\..\lvgl\version_6.1.2\lvgl\src\lv_objx/lv_lmeter.c ****         int16_t level =
 1057              		.loc 3 318 0
ARM GAS  C:\Users\tmj32\AppData\Local\Temp\ccepMVRX.s 			page 36


 1058 0122 A7F87830 		strh	r3, [r7, #120]	@ movhi
 320:..\..\..\lvgl\version_6.1.2\lvgl\src\lv_objx/lv_lmeter.c ****         uint8_t i;
 321:..\..\..\lvgl\version_6.1.2\lvgl\src\lv_objx/lv_lmeter.c **** 
 322:..\..\..\lvgl\version_6.1.2\lvgl\src\lv_objx/lv_lmeter.c ****         style_tmp.line.color = style->body.main_color;
 1059              		.loc 3 322 0
 1060 0126 D7F88430 		ldr	r3, [r7, #132]
 1061 012a 5B68     		ldr	r3, [r3, #4]
 1062 012c FB65     		str	r3, [r7, #92]
 323:..\..\..\lvgl\version_6.1.2\lvgl\src\lv_objx/lv_lmeter.c **** 
 324:..\..\..\lvgl\version_6.1.2\lvgl\src\lv_objx/lv_lmeter.c ****         /*Calculate every coordinate in a bigger size to make rounding later*/
 325:..\..\..\lvgl\version_6.1.2\lvgl\src\lv_objx/lv_lmeter.c ****         r_out = r_out << LV_LMETER_LINE_UPSCALE;
 1063              		.loc 3 325 0
 1064 012e B7F98030 		ldrsh	r3, [r7, #128]
 1065 0132 5B01     		lsls	r3, r3, #5
 1066 0134 A7F88030 		strh	r3, [r7, #128]	@ movhi
 326:..\..\..\lvgl\version_6.1.2\lvgl\src\lv_objx/lv_lmeter.c ****         r_in  = r_in << LV_LMETER_LINE_UPSCALE;
 1067              		.loc 3 326 0
 1068 0138 B7F98E30 		ldrsh	r3, [r7, #142]
 1069 013c 5B01     		lsls	r3, r3, #5
 1070 013e A7F88E30 		strh	r3, [r7, #142]	@ movhi
 327:..\..\..\lvgl\version_6.1.2\lvgl\src\lv_objx/lv_lmeter.c **** 
 328:..\..\..\lvgl\version_6.1.2\lvgl\src\lv_objx/lv_lmeter.c ****         for(i = 0; i < ext->line_cnt; i++) {
 1071              		.loc 3 328 0
 1072 0142 0023     		movs	r3, #0
 1073 0144 87F88D30 		strb	r3, [r7, #141]
 1074 0148 C6E0     		b	.L52
 1075              	.L55:
 1076              	.LBB5:
 329:..\..\..\lvgl\version_6.1.2\lvgl\src\lv_objx/lv_lmeter.c ****             /*Calculate the position a scale label*/
 330:..\..\..\lvgl\version_6.1.2\lvgl\src\lv_objx/lv_lmeter.c ****             int16_t angle = (i * ext->scale_angle) / (ext->line_cnt - 1) + angle_ofs;
 1077              		.loc 3 330 0
 1078 014a 97F88D30 		ldrb	r3, [r7, #141]	@ zero_extendqisi2
 1079 014e D7F88820 		ldr	r2, [r7, #136]
 1080 0152 1288     		ldrh	r2, [r2]
 1081 0154 02FB03F2 		mul	r2, r2, r3
 1082 0158 D7F88830 		ldr	r3, [r7, #136]
 1083 015c 9B88     		ldrh	r3, [r3, #4]
 1084 015e 013B     		subs	r3, r3, #1
 1085 0160 92FBF3F3 		sdiv	r3, r2, r3
 1086 0164 9AB2     		uxth	r2, r3
 1087 0166 B7F87A30 		ldrh	r3, [r7, #122]
 1088 016a 1344     		add	r3, r3, r2
 1089 016c 9BB2     		uxth	r3, r3
 1090 016e A7F87630 		strh	r3, [r7, #118]	@ movhi
 331:..\..\..\lvgl\version_6.1.2\lvgl\src\lv_objx/lv_lmeter.c **** 
 332:..\..\..\lvgl\version_6.1.2\lvgl\src\lv_objx/lv_lmeter.c ****             lv_coord_t y_out = (int32_t)((int32_t)lv_trigo_sin(angle) * r_out) >> LV_TRIGO_SHIFT;
 1091              		.loc 3 332 0
 1092 0172 B7F97630 		ldrsh	r3, [r7, #118]
 1093 0176 1846     		mov	r0, r3
 1094 0178 FFF7FEFF 		bl	lv_trigo_sin
 1095 017c 0346     		mov	r3, r0
 1096 017e 1A46     		mov	r2, r3
 1097 0180 B7F98030 		ldrsh	r3, [r7, #128]
 1098 0184 03FB02F3 		mul	r3, r3, r2
 1099 0188 DB13     		asrs	r3, r3, #15
 1100 018a A7F87430 		strh	r3, [r7, #116]	@ movhi
 333:..\..\..\lvgl\version_6.1.2\lvgl\src\lv_objx/lv_lmeter.c ****             lv_coord_t x_out = (int32_t)((int32_t)lv_trigo_sin(angle + 90) * r_out) >> LV_TRIGO_SHI
ARM GAS  C:\Users\tmj32\AppData\Local\Temp\ccepMVRX.s 			page 37


 1101              		.loc 3 333 0
 1102 018e B7F87630 		ldrh	r3, [r7, #118]
 1103 0192 5A33     		adds	r3, r3, #90
 1104 0194 9BB2     		uxth	r3, r3
 1105 0196 1BB2     		sxth	r3, r3
 1106 0198 1846     		mov	r0, r3
 1107 019a FFF7FEFF 		bl	lv_trigo_sin
 1108 019e 0346     		mov	r3, r0
 1109 01a0 1A46     		mov	r2, r3
 1110 01a2 B7F98030 		ldrsh	r3, [r7, #128]
 1111 01a6 03FB02F3 		mul	r3, r3, r2
 1112 01aa DB13     		asrs	r3, r3, #15
 1113 01ac A7F87230 		strh	r3, [r7, #114]	@ movhi
 334:..\..\..\lvgl\version_6.1.2\lvgl\src\lv_objx/lv_lmeter.c ****             lv_coord_t y_in  = (int32_t)((int32_t)lv_trigo_sin(angle) * r_in) >> LV_TRIGO_SHIFT;
 1114              		.loc 3 334 0
 1115 01b0 B7F97630 		ldrsh	r3, [r7, #118]
 1116 01b4 1846     		mov	r0, r3
 1117 01b6 FFF7FEFF 		bl	lv_trigo_sin
 1118 01ba 0346     		mov	r3, r0
 1119 01bc 1A46     		mov	r2, r3
 1120 01be B7F98E30 		ldrsh	r3, [r7, #142]
 1121 01c2 03FB02F3 		mul	r3, r3, r2
 1122 01c6 DB13     		asrs	r3, r3, #15
 1123 01c8 A7F87030 		strh	r3, [r7, #112]	@ movhi
 335:..\..\..\lvgl\version_6.1.2\lvgl\src\lv_objx/lv_lmeter.c ****             lv_coord_t x_in  = (int32_t)((int32_t)lv_trigo_sin(angle + 90) * r_in) >> LV_TRIGO_SHIF
 1124              		.loc 3 335 0
 1125 01cc B7F87630 		ldrh	r3, [r7, #118]
 1126 01d0 5A33     		adds	r3, r3, #90
 1127 01d2 9BB2     		uxth	r3, r3
 1128 01d4 1BB2     		sxth	r3, r3
 1129 01d6 1846     		mov	r0, r3
 1130 01d8 FFF7FEFF 		bl	lv_trigo_sin
 1131 01dc 0346     		mov	r3, r0
 1132 01de 1A46     		mov	r2, r3
 1133 01e0 B7F98E30 		ldrsh	r3, [r7, #142]
 1134 01e4 03FB02F3 		mul	r3, r3, r2
 1135 01e8 DB13     		asrs	r3, r3, #15
 1136 01ea A7F86E30 		strh	r3, [r7, #110]	@ movhi
 336:..\..\..\lvgl\version_6.1.2\lvgl\src\lv_objx/lv_lmeter.c **** 
 337:..\..\..\lvgl\version_6.1.2\lvgl\src\lv_objx/lv_lmeter.c ****             /*Rounding*/
 338:..\..\..\lvgl\version_6.1.2\lvgl\src\lv_objx/lv_lmeter.c ****             x_out = lv_lmeter_coord_round(x_out);
 1137              		.loc 3 338 0
 1138 01ee B7F97230 		ldrsh	r3, [r7, #114]
 1139 01f2 1846     		mov	r0, r3
 1140 01f4 FFF7FEFF 		bl	lv_lmeter_coord_round
 1141 01f8 0346     		mov	r3, r0
 1142 01fa A7F87230 		strh	r3, [r7, #114]	@ movhi
 339:..\..\..\lvgl\version_6.1.2\lvgl\src\lv_objx/lv_lmeter.c ****             x_in  = lv_lmeter_coord_round(x_in);
 1143              		.loc 3 339 0
 1144 01fe B7F96E30 		ldrsh	r3, [r7, #110]
 1145 0202 1846     		mov	r0, r3
 1146 0204 FFF7FEFF 		bl	lv_lmeter_coord_round
 1147 0208 0346     		mov	r3, r0
 1148 020a A7F86E30 		strh	r3, [r7, #110]	@ movhi
 340:..\..\..\lvgl\version_6.1.2\lvgl\src\lv_objx/lv_lmeter.c ****             y_out = lv_lmeter_coord_round(y_out);
 1149              		.loc 3 340 0
 1150 020e B7F97430 		ldrsh	r3, [r7, #116]
ARM GAS  C:\Users\tmj32\AppData\Local\Temp\ccepMVRX.s 			page 38


 1151 0212 1846     		mov	r0, r3
 1152 0214 FFF7FEFF 		bl	lv_lmeter_coord_round
 1153 0218 0346     		mov	r3, r0
 1154 021a A7F87430 		strh	r3, [r7, #116]	@ movhi
 341:..\..\..\lvgl\version_6.1.2\lvgl\src\lv_objx/lv_lmeter.c ****             y_in  = lv_lmeter_coord_round(y_in);
 1155              		.loc 3 341 0
 1156 021e B7F97030 		ldrsh	r3, [r7, #112]
 1157 0222 1846     		mov	r0, r3
 1158 0224 FFF7FEFF 		bl	lv_lmeter_coord_round
 1159 0228 0346     		mov	r3, r0
 1160 022a A7F87030 		strh	r3, [r7, #112]	@ movhi
 342:..\..\..\lvgl\version_6.1.2\lvgl\src\lv_objx/lv_lmeter.c **** 
 343:..\..\..\lvgl\version_6.1.2\lvgl\src\lv_objx/lv_lmeter.c ****             lv_point_t p1;
 344:..\..\..\lvgl\version_6.1.2\lvgl\src\lv_objx/lv_lmeter.c ****             lv_point_t p2;
 345:..\..\..\lvgl\version_6.1.2\lvgl\src\lv_objx/lv_lmeter.c **** 
 346:..\..\..\lvgl\version_6.1.2\lvgl\src\lv_objx/lv_lmeter.c ****             p2.x = x_in + x_ofs;
 1161              		.loc 3 346 0
 1162 022e B7F86E20 		ldrh	r2, [r7, #110]
 1163 0232 B7F87E30 		ldrh	r3, [r7, #126]
 1164 0236 1344     		add	r3, r3, r2
 1165 0238 9BB2     		uxth	r3, r3
 1166 023a 1BB2     		sxth	r3, r3
 1167 023c A7F86430 		strh	r3, [r7, #100]	@ movhi
 347:..\..\..\lvgl\version_6.1.2\lvgl\src\lv_objx/lv_lmeter.c ****             p2.y = y_in + y_ofs;
 1168              		.loc 3 347 0
 1169 0240 B7F87020 		ldrh	r2, [r7, #112]
 1170 0244 B7F87C30 		ldrh	r3, [r7, #124]
 1171 0248 1344     		add	r3, r3, r2
 1172 024a 9BB2     		uxth	r3, r3
 1173 024c 1BB2     		sxth	r3, r3
 1174 024e A7F86630 		strh	r3, [r7, #102]	@ movhi
 348:..\..\..\lvgl\version_6.1.2\lvgl\src\lv_objx/lv_lmeter.c **** 
 349:..\..\..\lvgl\version_6.1.2\lvgl\src\lv_objx/lv_lmeter.c ****             p1.x = x_out + x_ofs;
 1175              		.loc 3 349 0
 1176 0252 B7F87220 		ldrh	r2, [r7, #114]
 1177 0256 B7F87E30 		ldrh	r3, [r7, #126]
 1178 025a 1344     		add	r3, r3, r2
 1179 025c 9BB2     		uxth	r3, r3
 1180 025e 1BB2     		sxth	r3, r3
 1181 0260 A7F86830 		strh	r3, [r7, #104]	@ movhi
 350:..\..\..\lvgl\version_6.1.2\lvgl\src\lv_objx/lv_lmeter.c ****             p1.y = y_out + y_ofs;
 1182              		.loc 3 350 0
 1183 0264 B7F87420 		ldrh	r2, [r7, #116]
 1184 0268 B7F87C30 		ldrh	r3, [r7, #124]
 1185 026c 1344     		add	r3, r3, r2
 1186 026e 9BB2     		uxth	r3, r3
 1187 0270 1BB2     		sxth	r3, r3
 1188 0272 A7F86A30 		strh	r3, [r7, #106]	@ movhi
 351:..\..\..\lvgl\version_6.1.2\lvgl\src\lv_objx/lv_lmeter.c **** 
 352:..\..\..\lvgl\version_6.1.2\lvgl\src\lv_objx/lv_lmeter.c ****             if(i >= level)
 1189              		.loc 3 352 0
 1190 0276 97F88D20 		ldrb	r2, [r7, #141]	@ zero_extendqisi2
 1191 027a B7F97830 		ldrsh	r3, [r7, #120]
 1192 027e 9A42     		cmp	r2, r3
 1193 0280 04DB     		blt	.L53
 353:..\..\..\lvgl\version_6.1.2\lvgl\src\lv_objx/lv_lmeter.c ****                 style_tmp.line.color = style->line.color;
 1194              		.loc 3 353 0
ARM GAS  C:\Users\tmj32\AppData\Local\Temp\ccepMVRX.s 			page 39


 1195 0282 D7F88430 		ldr	r3, [r7, #132]
 1196 0286 9B6C     		ldr	r3, [r3, #72]
 1197 0288 FB65     		str	r3, [r7, #92]
 1198 028a 13E0     		b	.L54
 1199              	.L53:
 354:..\..\..\lvgl\version_6.1.2\lvgl\src\lv_objx/lv_lmeter.c ****             else {
 355:..\..\..\lvgl\version_6.1.2\lvgl\src\lv_objx/lv_lmeter.c ****                 style_tmp.line.color =
 356:..\..\..\lvgl\version_6.1.2\lvgl\src\lv_objx/lv_lmeter.c ****                     lv_color_mix(style->body.grad_color, style->body.main_color, (255 * i) / ext->l
 1200              		.loc 3 356 0
 1201 028c 97F88D20 		ldrb	r2, [r7, #141]	@ zero_extendqisi2
 1202 0290 1346     		mov	r3, r2
 1203 0292 1B02     		lsls	r3, r3, #8
 1204 0294 9B1A     		subs	r3, r3, r2
 1205 0296 D7F88820 		ldr	r2, [r7, #136]
 1206 029a 9288     		ldrh	r2, [r2, #4]
 1207 029c 93FBF2F3 		sdiv	r3, r3, r2
 1208 02a0 DAB2     		uxtb	r2, r3
 355:..\..\..\lvgl\version_6.1.2\lvgl\src\lv_objx/lv_lmeter.c ****                     lv_color_mix(style->body.grad_color, style->body.main_color, (255 * i) / ext->l
 1209              		.loc 3 355 0
 1210 02a2 D7F88410 		ldr	r1, [r7, #132]
 1211 02a6 D7F88430 		ldr	r3, [r7, #132]
 1212 02aa 4968     		ldr	r1, [r1, #4]
 1213 02ac 9868     		ldr	r0, [r3, #8]
 1214 02ae FFF7FEFF 		bl	lv_color_mix
 1215 02b2 F865     		str	r0, [r7, #92]
 1216              	.L54:
 357:..\..\..\lvgl\version_6.1.2\lvgl\src\lv_objx/lv_lmeter.c ****             }
 358:..\..\..\lvgl\version_6.1.2\lvgl\src\lv_objx/lv_lmeter.c **** 
 359:..\..\..\lvgl\version_6.1.2\lvgl\src\lv_objx/lv_lmeter.c ****             lv_draw_line(&p1, &p2, mask, &style_tmp, opa_scale);
 1217              		.loc 3 359 0 discriminator 2
 1218 02b4 07F11402 		add	r2, r7, #20
 1219 02b8 07F16401 		add	r1, r7, #100
 1220 02bc 07F16800 		add	r0, r7, #104
 1221 02c0 97F88330 		ldrb	r3, [r7, #131]	@ zero_extendqisi2
 1222 02c4 0093     		str	r3, [sp]
 1223 02c6 1346     		mov	r3, r2
 1224 02c8 BA68     		ldr	r2, [r7, #8]
 1225 02ca FFF7FEFF 		bl	lv_draw_line
 1226              	.LBE5:
 328:..\..\..\lvgl\version_6.1.2\lvgl\src\lv_objx/lv_lmeter.c ****             /*Calculate the position a scale label*/
 1227              		.loc 3 328 0 discriminator 2
 1228 02ce 97F88D30 		ldrb	r3, [r7, #141]	@ zero_extendqisi2
 1229 02d2 0133     		adds	r3, r3, #1
 1230 02d4 87F88D30 		strb	r3, [r7, #141]
 1231              	.L52:
 328:..\..\..\lvgl\version_6.1.2\lvgl\src\lv_objx/lv_lmeter.c ****             /*Calculate the position a scale label*/
 1232              		.loc 3 328 0 is_stmt 0 discriminator 1
 1233 02d8 97F88D30 		ldrb	r3, [r7, #141]	@ zero_extendqisi2
 1234 02dc 9AB2     		uxth	r2, r3
 1235 02de D7F88830 		ldr	r3, [r7, #136]
 1236 02e2 9B88     		ldrh	r3, [r3, #4]
 1237 02e4 9A42     		cmp	r2, r3
 1238 02e6 FFF430AF 		bcc	.L55
 1239              	.L50:
 1240              	.LBE4:
 360:..\..\..\lvgl\version_6.1.2\lvgl\src\lv_objx/lv_lmeter.c ****         }
 361:..\..\..\lvgl\version_6.1.2\lvgl\src\lv_objx/lv_lmeter.c **** 
ARM GAS  C:\Users\tmj32\AppData\Local\Temp\ccepMVRX.s 			page 40


 362:..\..\..\lvgl\version_6.1.2\lvgl\src\lv_objx/lv_lmeter.c ****     }
 363:..\..\..\lvgl\version_6.1.2\lvgl\src\lv_objx/lv_lmeter.c ****     /*Post draw when the children are drawn*/
 364:..\..\..\lvgl\version_6.1.2\lvgl\src\lv_objx/lv_lmeter.c ****     else if(mode == LV_DESIGN_DRAW_POST) {
 365:..\..\..\lvgl\version_6.1.2\lvgl\src\lv_objx/lv_lmeter.c ****     }
 366:..\..\..\lvgl\version_6.1.2\lvgl\src\lv_objx/lv_lmeter.c **** 
 367:..\..\..\lvgl\version_6.1.2\lvgl\src\lv_objx/lv_lmeter.c ****     return true;
 1241              		.loc 3 367 0 is_stmt 1
 1242 02ea 0123     		movs	r3, #1
 1243              	.L49:
 368:..\..\..\lvgl\version_6.1.2\lvgl\src\lv_objx/lv_lmeter.c **** }
 1244              		.loc 3 368 0
 1245 02ec 1846     		mov	r0, r3
 1246 02ee 9037     		adds	r7, r7, #144
 1247              		.cfi_def_cfa_offset 8
 1248 02f0 BD46     		mov	sp, r7
 1249              		.cfi_def_cfa_register 13
 1250              		@ sp needed
 1251 02f2 80BD     		pop	{r7, pc}
 1252              		.cfi_endproc
 1253              	.LFE44:
 1254              		.size	lv_lmeter_design, .-lv_lmeter_design
 1255              		.section	.rodata
 1256              		.align	2
 1257              	.LC0:
 1258 0000 6C765F6C 		.ascii	"lv_lmeter\000"
 1258      6D657465 
 1258      7200
 1259              		.section	.text.lv_lmeter_signal,"ax",%progbits
 1260              		.align	2
 1261              		.thumb
 1262              		.thumb_func
 1263              		.type	lv_lmeter_signal, %function
 1264              	lv_lmeter_signal:
 1265              	.LFB45:
 369:..\..\..\lvgl\version_6.1.2\lvgl\src\lv_objx/lv_lmeter.c **** 
 370:..\..\..\lvgl\version_6.1.2\lvgl\src\lv_objx/lv_lmeter.c **** /**
 371:..\..\..\lvgl\version_6.1.2\lvgl\src\lv_objx/lv_lmeter.c ****  * Signal function of the line meter
 372:..\..\..\lvgl\version_6.1.2\lvgl\src\lv_objx/lv_lmeter.c ****  * @param lmeter pointer to a line meter object
 373:..\..\..\lvgl\version_6.1.2\lvgl\src\lv_objx/lv_lmeter.c ****  * @param sign a signal type from lv_signal_t enum
 374:..\..\..\lvgl\version_6.1.2\lvgl\src\lv_objx/lv_lmeter.c ****  * @param param pointer to a signal specific variable
 375:..\..\..\lvgl\version_6.1.2\lvgl\src\lv_objx/lv_lmeter.c ****  * @return LV_RES_OK: the object is not deleted in the function; LV_RES_INV: the object is deleted
 376:..\..\..\lvgl\version_6.1.2\lvgl\src\lv_objx/lv_lmeter.c ****  */
 377:..\..\..\lvgl\version_6.1.2\lvgl\src\lv_objx/lv_lmeter.c **** static lv_res_t lv_lmeter_signal(lv_obj_t * lmeter, lv_signal_t sign, void * param)
 378:..\..\..\lvgl\version_6.1.2\lvgl\src\lv_objx/lv_lmeter.c **** {
 1266              		.loc 3 378 0
 1267              		.cfi_startproc
 1268              		@ args = 0, pretend = 0, frame = 24
 1269              		@ frame_needed = 1, uses_anonymous_args = 0
 1270 0000 80B5     		push	{r7, lr}
 1271              		.cfi_def_cfa_offset 8
 1272              		.cfi_offset 7, -8
 1273              		.cfi_offset 14, -4
 1274 0002 86B0     		sub	sp, sp, #24
 1275              		.cfi_def_cfa_offset 32
 1276 0004 00AF     		add	r7, sp, #0
 1277              		.cfi_def_cfa_register 7
 1278 0006 F860     		str	r0, [r7, #12]
ARM GAS  C:\Users\tmj32\AppData\Local\Temp\ccepMVRX.s 			page 41


 1279 0008 0B46     		mov	r3, r1
 1280 000a 7A60     		str	r2, [r7, #4]
 1281 000c FB72     		strb	r3, [r7, #11]
 379:..\..\..\lvgl\version_6.1.2\lvgl\src\lv_objx/lv_lmeter.c ****     lv_res_t res;
 380:..\..\..\lvgl\version_6.1.2\lvgl\src\lv_objx/lv_lmeter.c **** 
 381:..\..\..\lvgl\version_6.1.2\lvgl\src\lv_objx/lv_lmeter.c ****     /* Include the ancient signal function */
 382:..\..\..\lvgl\version_6.1.2\lvgl\src\lv_objx/lv_lmeter.c ****     res = ancestor_signal(lmeter, sign, param);
 1282              		.loc 3 382 0
 1283 000e 1C4B     		ldr	r3, .L62
 1284 0010 1B68     		ldr	r3, [r3]
 1285 0012 F97A     		ldrb	r1, [r7, #11]	@ zero_extendqisi2
 1286 0014 7A68     		ldr	r2, [r7, #4]
 1287 0016 F868     		ldr	r0, [r7, #12]
 1288 0018 9847     		blx	r3
 1289 001a 0346     		mov	r3, r0
 1290 001c FB75     		strb	r3, [r7, #23]
 383:..\..\..\lvgl\version_6.1.2\lvgl\src\lv_objx/lv_lmeter.c ****     if(res != LV_RES_OK) return res;
 1291              		.loc 3 383 0
 1292 001e FB7D     		ldrb	r3, [r7, #23]	@ zero_extendqisi2
 1293 0020 012B     		cmp	r3, #1
 1294 0022 01D0     		beq	.L57
 1295              		.loc 3 383 0 is_stmt 0 discriminator 1
 1296 0024 FB7D     		ldrb	r3, [r7, #23]	@ zero_extendqisi2
 1297 0026 27E0     		b	.L58
 1298              	.L57:
 384:..\..\..\lvgl\version_6.1.2\lvgl\src\lv_objx/lv_lmeter.c ****     if(sign == LV_SIGNAL_GET_TYPE) return lv_obj_handle_get_type_signal(param, LV_OBJX_NAME);
 1299              		.loc 3 384 0 is_stmt 1
 1300 0028 FB7A     		ldrb	r3, [r7, #11]	@ zero_extendqisi2
 1301 002a 072B     		cmp	r3, #7
 1302 002c 05D1     		bne	.L59
 1303              		.loc 3 384 0 is_stmt 0 discriminator 1
 1304 002e 1549     		ldr	r1, .L62+4
 1305 0030 7868     		ldr	r0, [r7, #4]
 1306 0032 FFF7FEFF 		bl	lv_obj_handle_get_type_signal
 1307 0036 0346     		mov	r3, r0
 1308 0038 1EE0     		b	.L58
 1309              	.L59:
 385:..\..\..\lvgl\version_6.1.2\lvgl\src\lv_objx/lv_lmeter.c **** 
 386:..\..\..\lvgl\version_6.1.2\lvgl\src\lv_objx/lv_lmeter.c ****     if(sign == LV_SIGNAL_CLEANUP) {
 1310              		.loc 3 386 0 is_stmt 1
 1311 003a FB7A     		ldrb	r3, [r7, #11]	@ zero_extendqisi2
 1312 003c 002B     		cmp	r3, #0
 1313 003e 1AD0     		beq	.L60
 387:..\..\..\lvgl\version_6.1.2\lvgl\src\lv_objx/lv_lmeter.c ****         /*Nothing to cleanup. (No dynamically allocated memory in 'ext')*/
 388:..\..\..\lvgl\version_6.1.2\lvgl\src\lv_objx/lv_lmeter.c ****     } else if(sign == LV_SIGNAL_STYLE_CHG) {
 1314              		.loc 3 388 0
 1315 0040 FB7A     		ldrb	r3, [r7, #11]	@ zero_extendqisi2
 1316 0042 042B     		cmp	r3, #4
 1317 0044 03D1     		bne	.L61
 389:..\..\..\lvgl\version_6.1.2\lvgl\src\lv_objx/lv_lmeter.c ****         lv_obj_refresh_ext_draw_pad(lmeter);
 1318              		.loc 3 389 0
 1319 0046 F868     		ldr	r0, [r7, #12]
 1320 0048 FFF7FEFF 		bl	lv_obj_refresh_ext_draw_pad
 1321 004c 13E0     		b	.L60
 1322              	.L61:
 390:..\..\..\lvgl\version_6.1.2\lvgl\src\lv_objx/lv_lmeter.c ****     } else if(sign == LV_SIGNAL_REFR_EXT_DRAW_PAD) {
 1323              		.loc 3 390 0
ARM GAS  C:\Users\tmj32\AppData\Local\Temp\ccepMVRX.s 			page 42


 1324 004e FB7A     		ldrb	r3, [r7, #11]	@ zero_extendqisi2
 1325 0050 062B     		cmp	r3, #6
 1326 0052 10D1     		bne	.L60
 1327              	.LBB6:
 391:..\..\..\lvgl\version_6.1.2\lvgl\src\lv_objx/lv_lmeter.c ****         const lv_style_t * style = lv_lmeter_get_style(lmeter, LV_LMETER_STYLE_MAIN);
 1328              		.loc 3 391 0
 1329 0054 0021     		movs	r1, #0
 1330 0056 F868     		ldr	r0, [r7, #12]
 1331 0058 FFF7FEFF 		bl	lv_lmeter_get_style
 1332 005c 3861     		str	r0, [r7, #16]
 392:..\..\..\lvgl\version_6.1.2\lvgl\src\lv_objx/lv_lmeter.c ****         lmeter->ext_draw_pad     = LV_MATH_MAX(lmeter->ext_draw_pad, style->line.width);
 1333              		.loc 3 392 0
 1334 005e 3B69     		ldr	r3, [r7, #16]
 1335 0060 B3F94C20 		ldrsh	r2, [r3, #76]
 1336 0064 FB68     		ldr	r3, [r7, #12]
 1337 0066 B3F93030 		ldrsh	r3, [r3, #48]
 1338 006a 9342     		cmp	r3, r2
 1339 006c B8BF     		it	lt
 1340 006e 1346     		movlt	r3, r2
 1341 0070 1AB2     		sxth	r2, r3
 1342 0072 FB68     		ldr	r3, [r7, #12]
 1343 0074 1A86     		strh	r2, [r3, #48]	@ movhi
 1344              	.L60:
 1345              	.LBE6:
 393:..\..\..\lvgl\version_6.1.2\lvgl\src\lv_objx/lv_lmeter.c ****     }
 394:..\..\..\lvgl\version_6.1.2\lvgl\src\lv_objx/lv_lmeter.c **** 
 395:..\..\..\lvgl\version_6.1.2\lvgl\src\lv_objx/lv_lmeter.c ****     return res;
 1346              		.loc 3 395 0
 1347 0076 FB7D     		ldrb	r3, [r7, #23]	@ zero_extendqisi2
 1348              	.L58:
 396:..\..\..\lvgl\version_6.1.2\lvgl\src\lv_objx/lv_lmeter.c **** }
 1349              		.loc 3 396 0
 1350 0078 1846     		mov	r0, r3
 1351 007a 1837     		adds	r7, r7, #24
 1352              		.cfi_def_cfa_offset 8
 1353 007c BD46     		mov	sp, r7
 1354              		.cfi_def_cfa_register 13
 1355              		@ sp needed
 1356 007e 80BD     		pop	{r7, pc}
 1357              	.L63:
 1358              		.align	2
 1359              	.L62:
 1360 0080 00000000 		.word	ancestor_signal
 1361 0084 00000000 		.word	.LC0
 1362              		.cfi_endproc
 1363              	.LFE45:
 1364              		.size	lv_lmeter_signal, .-lv_lmeter_signal
 1365              		.section	.text.lv_lmeter_coord_round,"ax",%progbits
 1366              		.align	2
 1367              		.thumb
 1368              		.thumb_func
 1369              		.type	lv_lmeter_coord_round, %function
 1370              	lv_lmeter_coord_round:
 1371              	.LFB46:
 397:..\..\..\lvgl\version_6.1.2\lvgl\src\lv_objx/lv_lmeter.c **** 
 398:..\..\..\lvgl\version_6.1.2\lvgl\src\lv_objx/lv_lmeter.c **** /**
 399:..\..\..\lvgl\version_6.1.2\lvgl\src\lv_objx/lv_lmeter.c ****  * Round a coordinate which is upscaled  (>=x.5 -> x + 1;   <x.5 -> x)
ARM GAS  C:\Users\tmj32\AppData\Local\Temp\ccepMVRX.s 			page 43


 400:..\..\..\lvgl\version_6.1.2\lvgl\src\lv_objx/lv_lmeter.c ****  * @param x a coordinate which is greater then it should be
 401:..\..\..\lvgl\version_6.1.2\lvgl\src\lv_objx/lv_lmeter.c ****  * @return the downscaled and rounded coordinate  (+-1)
 402:..\..\..\lvgl\version_6.1.2\lvgl\src\lv_objx/lv_lmeter.c ****  */
 403:..\..\..\lvgl\version_6.1.2\lvgl\src\lv_objx/lv_lmeter.c **** static lv_coord_t lv_lmeter_coord_round(int32_t x)
 404:..\..\..\lvgl\version_6.1.2\lvgl\src\lv_objx/lv_lmeter.c **** {
 1372              		.loc 3 404 0
 1373              		.cfi_startproc
 1374              		@ args = 0, pretend = 0, frame = 16
 1375              		@ frame_needed = 1, uses_anonymous_args = 0
 1376              		@ link register save eliminated.
 1377 0000 80B4     		push	{r7}
 1378              		.cfi_def_cfa_offset 4
 1379              		.cfi_offset 7, -4
 1380 0002 85B0     		sub	sp, sp, #20
 1381              		.cfi_def_cfa_offset 24
 1382 0004 00AF     		add	r7, sp, #0
 1383              		.cfi_def_cfa_register 7
 1384 0006 7860     		str	r0, [r7, #4]
 405:..\..\..\lvgl\version_6.1.2\lvgl\src\lv_objx/lv_lmeter.c **** #if LV_LMETER_LINE_UPSCALE > 0
 406:..\..\..\lvgl\version_6.1.2\lvgl\src\lv_objx/lv_lmeter.c ****     bool was_negative = false;
 1385              		.loc 3 406 0
 1386 0008 0023     		movs	r3, #0
 1387 000a FB73     		strb	r3, [r7, #15]
 407:..\..\..\lvgl\version_6.1.2\lvgl\src\lv_objx/lv_lmeter.c ****     if(x < 0) {
 1388              		.loc 3 407 0
 1389 000c 7B68     		ldr	r3, [r7, #4]
 1390 000e 002B     		cmp	r3, #0
 1391 0010 04DA     		bge	.L65
 408:..\..\..\lvgl\version_6.1.2\lvgl\src\lv_objx/lv_lmeter.c ****         was_negative = true;
 1392              		.loc 3 408 0
 1393 0012 0123     		movs	r3, #1
 1394 0014 FB73     		strb	r3, [r7, #15]
 409:..\..\..\lvgl\version_6.1.2\lvgl\src\lv_objx/lv_lmeter.c ****         x            = -x;
 1395              		.loc 3 409 0
 1396 0016 7B68     		ldr	r3, [r7, #4]
 1397 0018 5B42     		negs	r3, r3
 1398 001a 7B60     		str	r3, [r7, #4]
 1399              	.L65:
 410:..\..\..\lvgl\version_6.1.2\lvgl\src\lv_objx/lv_lmeter.c ****     }
 411:..\..\..\lvgl\version_6.1.2\lvgl\src\lv_objx/lv_lmeter.c **** 
 412:..\..\..\lvgl\version_6.1.2\lvgl\src\lv_objx/lv_lmeter.c ****     x = (x >> LV_LMETER_LINE_UPSCALE) + ((x & LV_LMETER_LINE_UPSCALE_MASK) >> (LV_LMETER_LINE_UPSCA
 1400              		.loc 3 412 0
 1401 001c 7B68     		ldr	r3, [r7, #4]
 1402 001e 5A11     		asrs	r2, r3, #5
 1403 0020 7B68     		ldr	r3, [r7, #4]
 1404 0022 1B11     		asrs	r3, r3, #4
 1405 0024 03F00103 		and	r3, r3, #1
 1406 0028 1344     		add	r3, r3, r2
 1407 002a 7B60     		str	r3, [r7, #4]
 413:..\..\..\lvgl\version_6.1.2\lvgl\src\lv_objx/lv_lmeter.c **** 
 414:..\..\..\lvgl\version_6.1.2\lvgl\src\lv_objx/lv_lmeter.c ****     if(was_negative) x = -x;
 1408              		.loc 3 414 0
 1409 002c FB7B     		ldrb	r3, [r7, #15]	@ zero_extendqisi2
 1410 002e 002B     		cmp	r3, #0
 1411 0030 02D0     		beq	.L66
 1412              		.loc 3 414 0 is_stmt 0 discriminator 1
 1413 0032 7B68     		ldr	r3, [r7, #4]
ARM GAS  C:\Users\tmj32\AppData\Local\Temp\ccepMVRX.s 			page 44


 1414 0034 5B42     		negs	r3, r3
 1415 0036 7B60     		str	r3, [r7, #4]
 1416              	.L66:
 415:..\..\..\lvgl\version_6.1.2\lvgl\src\lv_objx/lv_lmeter.c **** 
 416:..\..\..\lvgl\version_6.1.2\lvgl\src\lv_objx/lv_lmeter.c ****     return x;
 1417              		.loc 3 416 0 is_stmt 1
 1418 0038 7B68     		ldr	r3, [r7, #4]
 1419 003a 1BB2     		sxth	r3, r3
 417:..\..\..\lvgl\version_6.1.2\lvgl\src\lv_objx/lv_lmeter.c **** #else
 418:..\..\..\lvgl\version_6.1.2\lvgl\src\lv_objx/lv_lmeter.c ****     return x;
 419:..\..\..\lvgl\version_6.1.2\lvgl\src\lv_objx/lv_lmeter.c **** #endif
 420:..\..\..\lvgl\version_6.1.2\lvgl\src\lv_objx/lv_lmeter.c **** }
 1420              		.loc 3 420 0
 1421 003c 1846     		mov	r0, r3
 1422 003e 1437     		adds	r7, r7, #20
 1423              		.cfi_def_cfa_offset 4
 1424 0040 BD46     		mov	sp, r7
 1425              		.cfi_def_cfa_register 13
 1426              		@ sp needed
 1427 0042 5DF8047B 		ldr	r7, [sp], #4
 1428              		.cfi_restore 7
 1429              		.cfi_def_cfa_offset 0
 1430 0046 7047     		bx	lr
 1431              		.cfi_endproc
 1432              	.LFE46:
 1433              		.size	lv_lmeter_coord_round, .-lv_lmeter_coord_round
 1434              		.text
 1435              	.Letext0:
 1436              		.file 4 "c:\\program files (x86)\\cypress\\psoc creator\\4.3\\psoc creator\\import\\gnu\\arm\\5.4.
 1437              		.file 5 "c:\\program files (x86)\\cypress\\psoc creator\\4.3\\psoc creator\\import\\gnu\\arm\\5.4.
 1438              		.file 6 "..\\..\\..\\lvgl\\version_6.1.2\\lvgl\\src\\lv_objx\\../../../lv_conf.h"
 1439              		.file 7 "..\\..\\..\\lvgl\\version_6.1.2\\lvgl\\src\\lv_objx\\../lv_core/../lv_font/lv_font.h"
 1440              		.file 8 "..\\..\\..\\lvgl\\version_6.1.2\\lvgl\\src\\lv_objx\\../lv_core/../lv_misc/lv_area.h"
 1441              		.file 9 "..\\..\\..\\lvgl\\version_6.1.2\\lvgl\\src\\lv_objx\\../lv_core/lv_style.h"
 1442              		.file 10 "..\\..\\..\\lvgl\\version_6.1.2\\lvgl\\src\\lv_objx\\../lv_core/../lv_misc/lv_types.h"
 1443              		.file 11 "..\\..\\..\\lvgl\\version_6.1.2\\lvgl\\src\\lv_objx\\../lv_core/../lv_misc/lv_ll.h"
 1444              		.file 12 "..\\..\\..\\lvgl\\version_6.1.2\\lvgl\\src\\lv_objx\\../lv_core/../lv_misc/lv_bidi.h"
 1445              		.file 13 "..\\..\\..\\lvgl\\version_6.1.2\\lvgl\\src\\lv_objx\\../lv_core/lv_obj.h"
 1446              		.file 14 "..\\..\\..\\lvgl\\version_6.1.2\\lvgl\\src\\lv_objx\\../lv_themes/lv_theme.h"
 1447              		.section	.debug_info,"",%progbits
 1448              	.Ldebug_info0:
 1449 0000 10170000 		.4byte	0x1710
 1450 0004 0400     		.2byte	0x4
 1451 0006 00000000 		.4byte	.Ldebug_abbrev0
 1452 000a 04       		.byte	0x4
 1453 000b 01       		.uleb128 0x1
 1454 000c 38080000 		.4byte	.LASF238
 1455 0010 0C       		.byte	0xc
 1456 0011 00000000 		.4byte	.LASF239
 1457 0015 D2040000 		.4byte	.LASF240
 1458 0019 00000000 		.4byte	.Ldebug_ranges0+0
 1459 001d 00000000 		.4byte	0
 1460 0021 00000000 		.4byte	.Ldebug_line0
 1461 0025 02       		.uleb128 0x2
 1462 0026 9A070000 		.4byte	.LASF0
 1463 002a 04       		.byte	0x4
 1464 002b 1B       		.byte	0x1b
ARM GAS  C:\Users\tmj32\AppData\Local\Temp\ccepMVRX.s 			page 45


 1465 002c 30000000 		.4byte	0x30
 1466 0030 03       		.uleb128 0x3
 1467 0031 01       		.byte	0x1
 1468 0032 06       		.byte	0x6
 1469 0033 E7010000 		.4byte	.LASF2
 1470 0037 02       		.uleb128 0x2
 1471 0038 AA010000 		.4byte	.LASF1
 1472 003c 04       		.byte	0x4
 1473 003d 1D       		.byte	0x1d
 1474 003e 42000000 		.4byte	0x42
 1475 0042 03       		.uleb128 0x3
 1476 0043 01       		.byte	0x1
 1477 0044 08       		.byte	0x8
 1478 0045 40020000 		.4byte	.LASF3
 1479 0049 02       		.uleb128 0x2
 1480 004a 10090000 		.4byte	.LASF4
 1481 004e 04       		.byte	0x4
 1482 004f 29       		.byte	0x29
 1483 0050 54000000 		.4byte	0x54
 1484 0054 03       		.uleb128 0x3
 1485 0055 02       		.byte	0x2
 1486 0056 05       		.byte	0x5
 1487 0057 A3090000 		.4byte	.LASF5
 1488 005b 02       		.uleb128 0x2
 1489 005c E4020000 		.4byte	.LASF6
 1490 0060 04       		.byte	0x4
 1491 0061 2B       		.byte	0x2b
 1492 0062 66000000 		.4byte	0x66
 1493 0066 03       		.uleb128 0x3
 1494 0067 02       		.byte	0x2
 1495 0068 07       		.byte	0x7
 1496 0069 BC0A0000 		.4byte	.LASF7
 1497 006d 02       		.uleb128 0x2
 1498 006e 1D0B0000 		.4byte	.LASF8
 1499 0072 04       		.byte	0x4
 1500 0073 3F       		.byte	0x3f
 1501 0074 78000000 		.4byte	0x78
 1502 0078 03       		.uleb128 0x3
 1503 0079 04       		.byte	0x4
 1504 007a 05       		.byte	0x5
 1505 007b C1010000 		.4byte	.LASF9
 1506 007f 02       		.uleb128 0x2
 1507 0080 A2040000 		.4byte	.LASF10
 1508 0084 04       		.byte	0x4
 1509 0085 41       		.byte	0x41
 1510 0086 8A000000 		.4byte	0x8a
 1511 008a 03       		.uleb128 0x3
 1512 008b 04       		.byte	0x4
 1513 008c 07       		.byte	0x7
 1514 008d 28040000 		.4byte	.LASF11
 1515 0091 03       		.uleb128 0x3
 1516 0092 08       		.byte	0x8
 1517 0093 05       		.byte	0x5
 1518 0094 C4040000 		.4byte	.LASF12
 1519 0098 03       		.uleb128 0x3
 1520 0099 08       		.byte	0x8
 1521 009a 07       		.byte	0x7
ARM GAS  C:\Users\tmj32\AppData\Local\Temp\ccepMVRX.s 			page 46


 1522 009b AF070000 		.4byte	.LASF13
 1523 009f 04       		.uleb128 0x4
 1524 00a0 04       		.byte	0x4
 1525 00a1 05       		.byte	0x5
 1526 00a2 696E7400 		.ascii	"int\000"
 1527 00a6 03       		.uleb128 0x3
 1528 00a7 04       		.byte	0x4
 1529 00a8 07       		.byte	0x7
 1530 00a9 F4050000 		.4byte	.LASF14
 1531 00ad 02       		.uleb128 0x2
 1532 00ae 39000000 		.4byte	.LASF15
 1533 00b2 05       		.byte	0x5
 1534 00b3 14       		.byte	0x14
 1535 00b4 25000000 		.4byte	0x25
 1536 00b8 02       		.uleb128 0x2
 1537 00b9 F3010000 		.4byte	.LASF16
 1538 00bd 05       		.byte	0x5
 1539 00be 18       		.byte	0x18
 1540 00bf 37000000 		.4byte	0x37
 1541 00c3 02       		.uleb128 0x2
 1542 00c4 C4090000 		.4byte	.LASF17
 1543 00c8 05       		.byte	0x5
 1544 00c9 20       		.byte	0x20
 1545 00ca 49000000 		.4byte	0x49
 1546 00ce 02       		.uleb128 0x2
 1547 00cf C6070000 		.4byte	.LASF18
 1548 00d3 05       		.byte	0x5
 1549 00d4 24       		.byte	0x24
 1550 00d5 5B000000 		.4byte	0x5b
 1551 00d9 02       		.uleb128 0x2
 1552 00da BA000000 		.4byte	.LASF19
 1553 00de 05       		.byte	0x5
 1554 00df 2C       		.byte	0x2c
 1555 00e0 6D000000 		.4byte	0x6d
 1556 00e4 02       		.uleb128 0x2
 1557 00e5 890A0000 		.4byte	.LASF20
 1558 00e9 05       		.byte	0x5
 1559 00ea 30       		.byte	0x30
 1560 00eb 7F000000 		.4byte	0x7f
 1561 00ef 02       		.uleb128 0x2
 1562 00f0 E30A0000 		.4byte	.LASF21
 1563 00f4 06       		.byte	0x6
 1564 00f5 3C       		.byte	0x3c
 1565 00f6 C3000000 		.4byte	0xc3
 1566 00fa 05       		.uleb128 0x5
 1567 00fb 04       		.byte	0x4
 1568 00fc 03       		.uleb128 0x3
 1569 00fd 08       		.byte	0x8
 1570 00fe 04       		.byte	0x4
 1571 00ff E9060000 		.4byte	.LASF22
 1572 0103 06       		.uleb128 0x6
 1573 0104 08       		.byte	0x8
 1574 0105 07       		.byte	0x7
 1575 0106 2E       		.byte	0x2e
 1576 0107 54010000 		.4byte	0x154
 1577 010b 07       		.uleb128 0x7
 1578 010c 57000000 		.4byte	.LASF23
ARM GAS  C:\Users\tmj32\AppData\Local\Temp\ccepMVRX.s 			page 47


 1579 0110 07       		.byte	0x7
 1580 0111 30       		.byte	0x30
 1581 0112 CE000000 		.4byte	0xce
 1582 0116 00       		.byte	0
 1583 0117 07       		.uleb128 0x7
 1584 0118 9D090000 		.4byte	.LASF24
 1585 011c 07       		.byte	0x7
 1586 011d 31       		.byte	0x31
 1587 011e B8000000 		.4byte	0xb8
 1588 0122 02       		.byte	0x2
 1589 0123 07       		.uleb128 0x7
 1590 0124 92090000 		.4byte	.LASF25
 1591 0128 07       		.byte	0x7
 1592 0129 32       		.byte	0x32
 1593 012a B8000000 		.4byte	0xb8
 1594 012e 03       		.byte	0x3
 1595 012f 07       		.uleb128 0x7
 1596 0130 7B020000 		.4byte	.LASF26
 1597 0134 07       		.byte	0x7
 1598 0135 33       		.byte	0x33
 1599 0136 AD000000 		.4byte	0xad
 1600 013a 04       		.byte	0x4
 1601 013b 07       		.uleb128 0x7
 1602 013c 81020000 		.4byte	.LASF27
 1603 0140 07       		.byte	0x7
 1604 0141 34       		.byte	0x34
 1605 0142 AD000000 		.4byte	0xad
 1606 0146 05       		.byte	0x5
 1607 0147 08       		.uleb128 0x8
 1608 0148 62707000 		.ascii	"bpp\000"
 1609 014c 07       		.byte	0x7
 1610 014d 35       		.byte	0x35
 1611 014e B8000000 		.4byte	0xb8
 1612 0152 06       		.byte	0x6
 1613 0153 00       		.byte	0
 1614 0154 02       		.uleb128 0x2
 1615 0155 72060000 		.4byte	.LASF28
 1616 0159 07       		.byte	0x7
 1617 015a 36       		.byte	0x36
 1618 015b 03010000 		.4byte	0x103
 1619 015f 09       		.uleb128 0x9
 1620 0160 840B0000 		.4byte	.LASF84
 1621 0164 10       		.byte	0x10
 1622 0165 07       		.byte	0x7
 1623 0166 44       		.byte	0x44
 1624 0167 B7010000 		.4byte	0x1b7
 1625 016b 07       		.uleb128 0x7
 1626 016c 0F0B0000 		.4byte	.LASF29
 1627 0170 07       		.byte	0x7
 1628 0171 47       		.byte	0x47
 1629 0172 ED010000 		.4byte	0x1ed
 1630 0176 00       		.byte	0
 1631 0177 07       		.uleb128 0x7
 1632 0178 0C020000 		.4byte	.LASF30
 1633 017c 07       		.byte	0x7
 1634 017d 4A       		.byte	0x4a
 1635 017e 12020000 		.4byte	0x212
ARM GAS  C:\Users\tmj32\AppData\Local\Temp\ccepMVRX.s 			page 48


 1636 0182 04       		.byte	0x4
 1637 0183 07       		.uleb128 0x7
 1638 0184 05010000 		.4byte	.LASF31
 1639 0188 07       		.byte	0x7
 1640 0189 4D       		.byte	0x4d
 1641 018a B8000000 		.4byte	0xb8
 1642 018e 08       		.byte	0x8
 1643 018f 07       		.uleb128 0x7
 1644 0190 AD090000 		.4byte	.LASF32
 1645 0194 07       		.byte	0x7
 1646 0195 4E       		.byte	0x4e
 1647 0196 AD000000 		.4byte	0xad
 1648 019a 09       		.byte	0x9
 1649 019b 0A       		.uleb128 0xa
 1650 019c 23070000 		.4byte	.LASF67
 1651 01a0 07       		.byte	0x7
 1652 01a1 4F       		.byte	0x4f
 1653 01a2 B8000000 		.4byte	0xb8
 1654 01a6 01       		.byte	0x1
 1655 01a7 02       		.byte	0x2
 1656 01a8 06       		.byte	0x6
 1657 01a9 0A       		.byte	0xa
 1658 01aa 08       		.uleb128 0x8
 1659 01ab 64736300 		.ascii	"dsc\000"
 1660 01af 07       		.byte	0x7
 1661 01b0 50       		.byte	0x50
 1662 01b1 FA000000 		.4byte	0xfa
 1663 01b5 0C       		.byte	0xc
 1664 01b6 00       		.byte	0
 1665 01b7 0B       		.uleb128 0xb
 1666 01b8 D5010000 		.4byte	0x1d5
 1667 01bc D5010000 		.4byte	0x1d5
 1668 01c0 0C       		.uleb128 0xc
 1669 01c1 DC010000 		.4byte	0x1dc
 1670 01c5 0C       		.uleb128 0xc
 1671 01c6 E7010000 		.4byte	0x1e7
 1672 01ca 0C       		.uleb128 0xc
 1673 01cb E4000000 		.4byte	0xe4
 1674 01cf 0C       		.uleb128 0xc
 1675 01d0 E4000000 		.4byte	0xe4
 1676 01d4 00       		.byte	0
 1677 01d5 03       		.uleb128 0x3
 1678 01d6 01       		.byte	0x1
 1679 01d7 02       		.byte	0x2
 1680 01d8 8E020000 		.4byte	.LASF33
 1681 01dc 0D       		.uleb128 0xd
 1682 01dd 04       		.byte	0x4
 1683 01de E2010000 		.4byte	0x1e2
 1684 01e2 0E       		.uleb128 0xe
 1685 01e3 5F010000 		.4byte	0x15f
 1686 01e7 0D       		.uleb128 0xd
 1687 01e8 04       		.byte	0x4
 1688 01e9 54010000 		.4byte	0x154
 1689 01ed 0D       		.uleb128 0xd
 1690 01ee 04       		.byte	0x4
 1691 01ef B7010000 		.4byte	0x1b7
 1692 01f3 0B       		.uleb128 0xb
ARM GAS  C:\Users\tmj32\AppData\Local\Temp\ccepMVRX.s 			page 49


 1693 01f4 07020000 		.4byte	0x207
 1694 01f8 07020000 		.4byte	0x207
 1695 01fc 0C       		.uleb128 0xc
 1696 01fd DC010000 		.4byte	0x1dc
 1697 0201 0C       		.uleb128 0xc
 1698 0202 E4000000 		.4byte	0xe4
 1699 0206 00       		.byte	0
 1700 0207 0D       		.uleb128 0xd
 1701 0208 04       		.byte	0x4
 1702 0209 0D020000 		.4byte	0x20d
 1703 020d 0E       		.uleb128 0xe
 1704 020e B8000000 		.4byte	0xb8
 1705 0212 0D       		.uleb128 0xd
 1706 0213 04       		.byte	0x4
 1707 0214 F3010000 		.4byte	0x1f3
 1708 0218 02       		.uleb128 0x2
 1709 0219 A90A0000 		.4byte	.LASF34
 1710 021d 07       		.byte	0x7
 1711 021e 56       		.byte	0x56
 1712 021f 5F010000 		.4byte	0x15f
 1713 0223 06       		.uleb128 0x6
 1714 0224 04       		.byte	0x4
 1715 0225 01       		.byte	0x1
 1716 0226 F3       		.byte	0xf3
 1717 0227 5C020000 		.4byte	0x25c
 1718 022b 07       		.uleb128 0x7
 1719 022c 22020000 		.4byte	.LASF35
 1720 0230 01       		.byte	0x1
 1721 0231 F5       		.byte	0xf5
 1722 0232 B8000000 		.4byte	0xb8
 1723 0236 00       		.byte	0
 1724 0237 07       		.uleb128 0x7
 1725 0238 A30A0000 		.4byte	.LASF36
 1726 023c 01       		.byte	0x1
 1727 023d F6       		.byte	0xf6
 1728 023e B8000000 		.4byte	0xb8
 1729 0242 01       		.byte	0x1
 1730 0243 08       		.uleb128 0x8
 1731 0244 72656400 		.ascii	"red\000"
 1732 0248 01       		.byte	0x1
 1733 0249 F7       		.byte	0xf7
 1734 024a B8000000 		.4byte	0xb8
 1735 024e 02       		.byte	0x2
 1736 024f 07       		.uleb128 0x7
 1737 0250 B4010000 		.4byte	.LASF37
 1738 0254 01       		.byte	0x1
 1739 0255 F8       		.byte	0xf8
 1740 0256 B8000000 		.4byte	0xb8
 1741 025a 03       		.byte	0x3
 1742 025b 00       		.byte	0
 1743 025c 0F       		.uleb128 0xf
 1744 025d 04       		.byte	0x4
 1745 025e 01       		.byte	0x1
 1746 025f F1       		.byte	0xf1
 1747 0260 7A020000 		.4byte	0x27a
 1748 0264 10       		.uleb128 0x10
 1749 0265 636800   		.ascii	"ch\000"
ARM GAS  C:\Users\tmj32\AppData\Local\Temp\ccepMVRX.s 			page 50


 1750 0268 01       		.byte	0x1
 1751 0269 F9       		.byte	0xf9
 1752 026a 23020000 		.4byte	0x223
 1753 026e 11       		.uleb128 0x11
 1754 026f 20090000 		.4byte	.LASF38
 1755 0273 01       		.byte	0x1
 1756 0274 FA       		.byte	0xfa
 1757 0275 E4000000 		.4byte	0xe4
 1758 0279 00       		.byte	0
 1759 027a 02       		.uleb128 0x2
 1760 027b 70000000 		.4byte	.LASF39
 1761 027f 01       		.byte	0x1
 1762 0280 FB       		.byte	0xfb
 1763 0281 5C020000 		.4byte	0x25c
 1764 0285 12       		.uleb128 0x12
 1765 0286 FF070000 		.4byte	.LASF40
 1766 028a 01       		.byte	0x1
 1767 028b 0801     		.2byte	0x108
 1768 028d 7A020000 		.4byte	0x27a
 1769 0291 12       		.uleb128 0x12
 1770 0292 B1000000 		.4byte	.LASF41
 1771 0296 01       		.byte	0x1
 1772 0297 0D01     		.2byte	0x10d
 1773 0299 B8000000 		.4byte	0xb8
 1774 029d 03       		.uleb128 0x3
 1775 029e 04       		.byte	0x4
 1776 029f 07       		.byte	0x7
 1777 02a0 67000000 		.4byte	.LASF42
 1778 02a4 03       		.uleb128 0x3
 1779 02a5 01       		.byte	0x1
 1780 02a6 08       		.byte	0x8
 1781 02a7 AF020000 		.4byte	.LASF43
 1782 02ab 06       		.uleb128 0x6
 1783 02ac 04       		.byte	0x4
 1784 02ad 08       		.byte	0x8
 1785 02ae 2A       		.byte	0x2a
 1786 02af C8020000 		.4byte	0x2c8
 1787 02b3 08       		.uleb128 0x8
 1788 02b4 7800     		.ascii	"x\000"
 1789 02b6 08       		.byte	0x8
 1790 02b7 2C       		.byte	0x2c
 1791 02b8 EF000000 		.4byte	0xef
 1792 02bc 00       		.byte	0
 1793 02bd 08       		.uleb128 0x8
 1794 02be 7900     		.ascii	"y\000"
 1795 02c0 08       		.byte	0x8
 1796 02c1 2D       		.byte	0x2d
 1797 02c2 EF000000 		.4byte	0xef
 1798 02c6 02       		.byte	0x2
 1799 02c7 00       		.byte	0
 1800 02c8 02       		.uleb128 0x2
 1801 02c9 CA000000 		.4byte	.LASF44
 1802 02cd 08       		.byte	0x8
 1803 02ce 2E       		.byte	0x2e
 1804 02cf AB020000 		.4byte	0x2ab
 1805 02d3 06       		.uleb128 0x6
 1806 02d4 08       		.byte	0x8
ARM GAS  C:\Users\tmj32\AppData\Local\Temp\ccepMVRX.s 			page 51


 1807 02d5 08       		.byte	0x8
 1808 02d6 31       		.byte	0x31
 1809 02d7 08030000 		.4byte	0x308
 1810 02db 08       		.uleb128 0x8
 1811 02dc 783100   		.ascii	"x1\000"
 1812 02df 08       		.byte	0x8
 1813 02e0 33       		.byte	0x33
 1814 02e1 EF000000 		.4byte	0xef
 1815 02e5 00       		.byte	0
 1816 02e6 08       		.uleb128 0x8
 1817 02e7 793100   		.ascii	"y1\000"
 1818 02ea 08       		.byte	0x8
 1819 02eb 34       		.byte	0x34
 1820 02ec EF000000 		.4byte	0xef
 1821 02f0 02       		.byte	0x2
 1822 02f1 08       		.uleb128 0x8
 1823 02f2 783200   		.ascii	"x2\000"
 1824 02f5 08       		.byte	0x8
 1825 02f6 35       		.byte	0x35
 1826 02f7 EF000000 		.4byte	0xef
 1827 02fb 04       		.byte	0x4
 1828 02fc 08       		.uleb128 0x8
 1829 02fd 793200   		.ascii	"y2\000"
 1830 0300 08       		.byte	0x8
 1831 0301 36       		.byte	0x36
 1832 0302 EF000000 		.4byte	0xef
 1833 0306 06       		.byte	0x6
 1834 0307 00       		.byte	0
 1835 0308 02       		.uleb128 0x2
 1836 0309 A9030000 		.4byte	.LASF45
 1837 030d 08       		.byte	0x8
 1838 030e 37       		.byte	0x37
 1839 030f D3020000 		.4byte	0x2d3
 1840 0313 02       		.uleb128 0x2
 1841 0314 270B0000 		.4byte	.LASF46
 1842 0318 09       		.byte	0x9
 1843 0319 2C       		.byte	0x2c
 1844 031a B8000000 		.4byte	0xb8
 1845 031e 02       		.uleb128 0x2
 1846 031f 44090000 		.4byte	.LASF47
 1847 0323 09       		.byte	0x9
 1848 0324 33       		.byte	0x33
 1849 0325 B8000000 		.4byte	0xb8
 1850 0329 06       		.uleb128 0x6
 1851 032a 08       		.byte	0x8
 1852 032b 09       		.byte	0x9
 1853 032c 48       		.byte	0x48
 1854 032d 62030000 		.4byte	0x362
 1855 0331 07       		.uleb128 0x7
 1856 0332 25090000 		.4byte	.LASF48
 1857 0336 09       		.byte	0x9
 1858 0337 4A       		.byte	0x4a
 1859 0338 85020000 		.4byte	0x285
 1860 033c 00       		.byte	0
 1861 033d 07       		.uleb128 0x7
 1862 033e 6F050000 		.4byte	.LASF49
 1863 0342 09       		.byte	0x9
ARM GAS  C:\Users\tmj32\AppData\Local\Temp\ccepMVRX.s 			page 52


 1864 0343 4B       		.byte	0x4b
 1865 0344 EF000000 		.4byte	0xef
 1866 0348 04       		.byte	0x4
 1867 0349 07       		.uleb128 0x7
 1868 034a A00B0000 		.4byte	.LASF50
 1869 034e 09       		.byte	0x9
 1870 034f 4C       		.byte	0x4c
 1871 0350 13030000 		.4byte	0x313
 1872 0354 06       		.byte	0x6
 1873 0355 08       		.uleb128 0x8
 1874 0356 6F706100 		.ascii	"opa\000"
 1875 035a 09       		.byte	0x9
 1876 035b 4D       		.byte	0x4d
 1877 035c 91020000 		.4byte	0x291
 1878 0360 07       		.byte	0x7
 1879 0361 00       		.byte	0
 1880 0362 06       		.uleb128 0x6
 1881 0363 08       		.byte	0x8
 1882 0364 09       		.byte	0x9
 1883 0365 51       		.byte	0x51
 1884 0366 8F030000 		.4byte	0x38f
 1885 036a 07       		.uleb128 0x7
 1886 036b 25090000 		.4byte	.LASF48
 1887 036f 09       		.byte	0x9
 1888 0370 53       		.byte	0x53
 1889 0371 85020000 		.4byte	0x285
 1890 0375 00       		.byte	0
 1891 0376 07       		.uleb128 0x7
 1892 0377 6F050000 		.4byte	.LASF49
 1893 037b 09       		.byte	0x9
 1894 037c 54       		.byte	0x54
 1895 037d EF000000 		.4byte	0xef
 1896 0381 04       		.byte	0x4
 1897 0382 07       		.uleb128 0x7
 1898 0383 8F010000 		.4byte	.LASF51
 1899 0387 09       		.byte	0x9
 1900 0388 55       		.byte	0x55
 1901 0389 1E030000 		.4byte	0x31e
 1902 038d 06       		.byte	0x6
 1903 038e 00       		.byte	0
 1904 038f 06       		.uleb128 0x6
 1905 0390 0A       		.byte	0xa
 1906 0391 09       		.byte	0x9
 1907 0392 58       		.byte	0x58
 1908 0393 D4030000 		.4byte	0x3d4
 1909 0397 08       		.uleb128 0x8
 1910 0398 746F7000 		.ascii	"top\000"
 1911 039c 09       		.byte	0x9
 1912 039d 5A       		.byte	0x5a
 1913 039e EF000000 		.4byte	0xef
 1914 03a2 00       		.byte	0
 1915 03a3 07       		.uleb128 0x7
 1916 03a4 87050000 		.4byte	.LASF52
 1917 03a8 09       		.byte	0x9
 1918 03a9 5B       		.byte	0x5b
 1919 03aa EF000000 		.4byte	0xef
 1920 03ae 02       		.byte	0x2
ARM GAS  C:\Users\tmj32\AppData\Local\Temp\ccepMVRX.s 			page 53


 1921 03af 07       		.uleb128 0x7
 1922 03b0 B3030000 		.4byte	.LASF53
 1923 03b4 09       		.byte	0x9
 1924 03b5 5C       		.byte	0x5c
 1925 03b6 EF000000 		.4byte	0xef
 1926 03ba 04       		.byte	0x4
 1927 03bb 07       		.uleb128 0x7
 1928 03bc B6040000 		.4byte	.LASF54
 1929 03c0 09       		.byte	0x9
 1930 03c1 5D       		.byte	0x5d
 1931 03c2 EF000000 		.4byte	0xef
 1932 03c6 06       		.byte	0x6
 1933 03c7 07       		.uleb128 0x7
 1934 03c8 22040000 		.4byte	.LASF55
 1935 03cc 09       		.byte	0x9
 1936 03cd 5E       		.byte	0x5e
 1937 03ce EF000000 		.4byte	0xef
 1938 03d2 08       		.byte	0x8
 1939 03d3 00       		.byte	0
 1940 03d4 06       		.uleb128 0x6
 1941 03d5 28       		.byte	0x28
 1942 03d6 09       		.byte	0x9
 1943 03d7 41       		.byte	0x41
 1944 03d8 31040000 		.4byte	0x431
 1945 03dc 07       		.uleb128 0x7
 1946 03dd 8F070000 		.4byte	.LASF56
 1947 03e1 09       		.byte	0x9
 1948 03e2 43       		.byte	0x43
 1949 03e3 85020000 		.4byte	0x285
 1950 03e7 00       		.byte	0
 1951 03e8 07       		.uleb128 0x7
 1952 03e9 8B060000 		.4byte	.LASF57
 1953 03ed 09       		.byte	0x9
 1954 03ee 44       		.byte	0x44
 1955 03ef 85020000 		.4byte	0x285
 1956 03f3 04       		.byte	0x4
 1957 03f4 07       		.uleb128 0x7
 1958 03f5 F1000000 		.4byte	.LASF58
 1959 03f9 09       		.byte	0x9
 1960 03fa 45       		.byte	0x45
 1961 03fb EF000000 		.4byte	0xef
 1962 03ff 08       		.byte	0x8
 1963 0400 08       		.uleb128 0x8
 1964 0401 6F706100 		.ascii	"opa\000"
 1965 0405 09       		.byte	0x9
 1966 0406 46       		.byte	0x46
 1967 0407 91020000 		.4byte	0x291
 1968 040b 0A       		.byte	0xa
 1969 040c 07       		.uleb128 0x7
 1970 040d 020B0000 		.4byte	.LASF59
 1971 0411 09       		.byte	0x9
 1972 0412 4E       		.byte	0x4e
 1973 0413 29030000 		.4byte	0x329
 1974 0417 0C       		.byte	0xc
 1975 0418 07       		.uleb128 0x7
 1976 0419 100A0000 		.4byte	.LASF60
 1977 041d 09       		.byte	0x9
ARM GAS  C:\Users\tmj32\AppData\Local\Temp\ccepMVRX.s 			page 54


 1978 041e 56       		.byte	0x56
 1979 041f 62030000 		.4byte	0x362
 1980 0423 14       		.byte	0x14
 1981 0424 07       		.uleb128 0x7
 1982 0425 6A0A0000 		.4byte	.LASF61
 1983 0429 09       		.byte	0x9
 1984 042a 5F       		.byte	0x5f
 1985 042b 8F030000 		.4byte	0x38f
 1986 042f 1C       		.byte	0x1c
 1987 0430 00       		.byte	0
 1988 0431 06       		.uleb128 0x6
 1989 0432 14       		.byte	0x14
 1990 0433 09       		.byte	0x9
 1991 0434 63       		.byte	0x63
 1992 0435 82040000 		.4byte	0x482
 1993 0439 07       		.uleb128 0x7
 1994 043a 25090000 		.4byte	.LASF48
 1995 043e 09       		.byte	0x9
 1996 043f 65       		.byte	0x65
 1997 0440 85020000 		.4byte	0x285
 1998 0444 00       		.byte	0
 1999 0445 07       		.uleb128 0x7
 2000 0446 7A0B0000 		.4byte	.LASF62
 2001 044a 09       		.byte	0x9
 2002 044b 66       		.byte	0x66
 2003 044c 85020000 		.4byte	0x285
 2004 0450 04       		.byte	0x4
 2005 0451 07       		.uleb128 0x7
 2006 0452 6E090000 		.4byte	.LASF63
 2007 0456 09       		.byte	0x9
 2008 0457 67       		.byte	0x67
 2009 0458 82040000 		.4byte	0x482
 2010 045c 08       		.byte	0x8
 2011 045d 07       		.uleb128 0x7
 2012 045e 73090000 		.4byte	.LASF64
 2013 0462 09       		.byte	0x9
 2014 0463 68       		.byte	0x68
 2015 0464 EF000000 		.4byte	0xef
 2016 0468 0C       		.byte	0xc
 2017 0469 07       		.uleb128 0x7
 2018 046a 2B090000 		.4byte	.LASF65
 2019 046e 09       		.byte	0x9
 2020 046f 69       		.byte	0x69
 2021 0470 EF000000 		.4byte	0xef
 2022 0474 0E       		.byte	0xe
 2023 0475 08       		.uleb128 0x8
 2024 0476 6F706100 		.ascii	"opa\000"
 2025 047a 09       		.byte	0x9
 2026 047b 6A       		.byte	0x6a
 2027 047c 91020000 		.4byte	0x291
 2028 0480 10       		.byte	0x10
 2029 0481 00       		.byte	0
 2030 0482 0D       		.uleb128 0xd
 2031 0483 04       		.byte	0x4
 2032 0484 88040000 		.4byte	0x488
 2033 0488 0E       		.uleb128 0xe
 2034 0489 18020000 		.4byte	0x218
ARM GAS  C:\Users\tmj32\AppData\Local\Temp\ccepMVRX.s 			page 55


 2035 048d 06       		.uleb128 0x6
 2036 048e 08       		.byte	0x8
 2037 048f 09       		.byte	0x9
 2038 0490 6E       		.byte	0x6e
 2039 0491 BA040000 		.4byte	0x4ba
 2040 0495 07       		.uleb128 0x7
 2041 0496 25090000 		.4byte	.LASF48
 2042 049a 09       		.byte	0x9
 2043 049b 70       		.byte	0x70
 2044 049c 85020000 		.4byte	0x285
 2045 04a0 00       		.byte	0
 2046 04a1 07       		.uleb128 0x7
 2047 04a2 C2000000 		.4byte	.LASF66
 2048 04a6 09       		.byte	0x9
 2049 04a7 71       		.byte	0x71
 2050 04a8 91020000 		.4byte	0x291
 2051 04ac 04       		.byte	0x4
 2052 04ad 08       		.uleb128 0x8
 2053 04ae 6F706100 		.ascii	"opa\000"
 2054 04b2 09       		.byte	0x9
 2055 04b3 72       		.byte	0x72
 2056 04b4 91020000 		.4byte	0x291
 2057 04b8 05       		.byte	0x5
 2058 04b9 00       		.byte	0
 2059 04ba 06       		.uleb128 0x6
 2060 04bb 08       		.byte	0x8
 2061 04bc 09       		.byte	0x9
 2062 04bd 76       		.byte	0x76
 2063 04be F6040000 		.4byte	0x4f6
 2064 04c2 07       		.uleb128 0x7
 2065 04c3 25090000 		.4byte	.LASF48
 2066 04c7 09       		.byte	0x9
 2067 04c8 78       		.byte	0x78
 2068 04c9 85020000 		.4byte	0x285
 2069 04cd 00       		.byte	0
 2070 04ce 07       		.uleb128 0x7
 2071 04cf 6F050000 		.4byte	.LASF49
 2072 04d3 09       		.byte	0x9
 2073 04d4 79       		.byte	0x79
 2074 04d5 EF000000 		.4byte	0xef
 2075 04d9 04       		.byte	0x4
 2076 04da 08       		.uleb128 0x8
 2077 04db 6F706100 		.ascii	"opa\000"
 2078 04df 09       		.byte	0x9
 2079 04e0 7A       		.byte	0x7a
 2080 04e1 91020000 		.4byte	0x291
 2081 04e5 06       		.byte	0x6
 2082 04e6 0A       		.uleb128 0xa
 2083 04e7 6D030000 		.4byte	.LASF68
 2084 04eb 09       		.byte	0x9
 2085 04ec 7B       		.byte	0x7b
 2086 04ed B8000000 		.4byte	0xb8
 2087 04f1 01       		.byte	0x1
 2088 04f2 01       		.byte	0x1
 2089 04f3 07       		.byte	0x7
 2090 04f4 07       		.byte	0x7
 2091 04f5 00       		.byte	0
ARM GAS  C:\Users\tmj32\AppData\Local\Temp\ccepMVRX.s 			page 56


 2092 04f6 06       		.uleb128 0x6
 2093 04f7 50       		.byte	0x50
 2094 04f8 09       		.byte	0x9
 2095 04f9 3C       		.byte	0x3c
 2096 04fa 3E050000 		.4byte	0x53e
 2097 04fe 0A       		.uleb128 0xa
 2098 04ff D7050000 		.4byte	.LASF69
 2099 0503 09       		.byte	0x9
 2100 0504 3E       		.byte	0x3e
 2101 0505 B8000000 		.4byte	0xb8
 2102 0509 01       		.byte	0x1
 2103 050a 01       		.byte	0x1
 2104 050b 07       		.byte	0x7
 2105 050c 00       		.byte	0
 2106 050d 07       		.uleb128 0x7
 2107 050e C8020000 		.4byte	.LASF70
 2108 0512 09       		.byte	0x9
 2109 0513 60       		.byte	0x60
 2110 0514 D4030000 		.4byte	0x3d4
 2111 0518 04       		.byte	0x4
 2112 0519 07       		.uleb128 0x7
 2113 051a 4A030000 		.4byte	.LASF71
 2114 051e 09       		.byte	0x9
 2115 051f 6B       		.byte	0x6b
 2116 0520 31040000 		.4byte	0x431
 2117 0524 2C       		.byte	0x2c
 2118 0525 07       		.uleb128 0x7
 2119 0526 67030000 		.4byte	.LASF72
 2120 052a 09       		.byte	0x9
 2121 052b 73       		.byte	0x73
 2122 052c 8D040000 		.4byte	0x48d
 2123 0530 40       		.byte	0x40
 2124 0531 07       		.uleb128 0x7
 2125 0532 45040000 		.4byte	.LASF73
 2126 0536 09       		.byte	0x9
 2127 0537 7C       		.byte	0x7c
 2128 0538 BA040000 		.4byte	0x4ba
 2129 053c 48       		.byte	0x48
 2130 053d 00       		.byte	0
 2131 053e 02       		.uleb128 0x2
 2132 053f 17040000 		.4byte	.LASF74
 2133 0543 09       		.byte	0x9
 2134 0544 84       		.byte	0x84
 2135 0545 F6040000 		.4byte	0x4f6
 2136 0549 0D       		.uleb128 0xd
 2137 054a 04       		.byte	0x4
 2138 054b 3E050000 		.4byte	0x53e
 2139 054f 13       		.uleb128 0x13
 2140 0550 01       		.byte	0x1
 2141 0551 42000000 		.4byte	0x42
 2142 0555 0A       		.byte	0xa
 2143 0556 27       		.byte	0x27
 2144 0557 68050000 		.4byte	0x568
 2145 055b 14       		.uleb128 0x14
 2146 055c 72010000 		.4byte	.LASF75
 2147 0560 00       		.byte	0
 2148 0561 14       		.uleb128 0x14
ARM GAS  C:\Users\tmj32\AppData\Local\Temp\ccepMVRX.s 			page 57


 2149 0562 CF070000 		.4byte	.LASF76
 2150 0566 01       		.byte	0x1
 2151 0567 00       		.byte	0
 2152 0568 02       		.uleb128 0x2
 2153 0569 DB060000 		.4byte	.LASF77
 2154 056d 0A       		.byte	0xa
 2155 056e 2C       		.byte	0x2c
 2156 056f B8000000 		.4byte	0xb8
 2157 0573 02       		.uleb128 0x2
 2158 0574 4A000000 		.4byte	.LASF78
 2159 0578 0B       		.byte	0xb
 2160 0579 1E       		.byte	0x1e
 2161 057a B8000000 		.4byte	0xb8
 2162 057e 06       		.uleb128 0x6
 2163 057f 0C       		.byte	0xc
 2164 0580 0B       		.byte	0xb
 2165 0581 21       		.byte	0x21
 2166 0582 AB050000 		.4byte	0x5ab
 2167 0586 07       		.uleb128 0x7
 2168 0587 A50B0000 		.4byte	.LASF79
 2169 058b 0B       		.byte	0xb
 2170 058c 23       		.byte	0x23
 2171 058d E4000000 		.4byte	0xe4
 2172 0591 00       		.byte	0
 2173 0592 07       		.uleb128 0x7
 2174 0593 DD010000 		.4byte	.LASF80
 2175 0597 0B       		.byte	0xb
 2176 0598 24       		.byte	0x24
 2177 0599 AB050000 		.4byte	0x5ab
 2178 059d 04       		.byte	0x4
 2179 059e 07       		.uleb128 0x7
 2180 059f 82000000 		.4byte	.LASF81
 2181 05a3 0B       		.byte	0xb
 2182 05a4 25       		.byte	0x25
 2183 05a5 AB050000 		.4byte	0x5ab
 2184 05a9 08       		.byte	0x8
 2185 05aa 00       		.byte	0
 2186 05ab 0D       		.uleb128 0xd
 2187 05ac 04       		.byte	0x4
 2188 05ad 73050000 		.4byte	0x573
 2189 05b1 02       		.uleb128 0x2
 2190 05b2 B7090000 		.4byte	.LASF82
 2191 05b6 0B       		.byte	0xb
 2192 05b7 26       		.byte	0x26
 2193 05b8 7E050000 		.4byte	0x57e
 2194 05bc 02       		.uleb128 0x2
 2195 05bd 8E030000 		.4byte	.LASF83
 2196 05c1 0C       		.byte	0xc
 2197 05c2 30       		.byte	0x30
 2198 05c3 B8000000 		.4byte	0xb8
 2199 05c7 0D       		.uleb128 0xd
 2200 05c8 04       		.byte	0x4
 2201 05c9 CD050000 		.4byte	0x5cd
 2202 05cd 0E       		.uleb128 0xe
 2203 05ce 08030000 		.4byte	0x308
 2204 05d2 09       		.uleb128 0x9
 2205 05d3 64090000 		.4byte	.LASF85
ARM GAS  C:\Users\tmj32\AppData\Local\Temp\ccepMVRX.s 			page 58


 2206 05d7 40       		.byte	0x40
 2207 05d8 0D       		.byte	0xd
 2208 05d9 BB       		.byte	0xbb
 2209 05da 14070000 		.4byte	0x714
 2210 05de 08       		.uleb128 0x8
 2211 05df 70617200 		.ascii	"par\000"
 2212 05e3 0D       		.byte	0xd
 2213 05e4 BD       		.byte	0xbd
 2214 05e5 14070000 		.4byte	0x714
 2215 05e9 00       		.byte	0
 2216 05ea 07       		.uleb128 0x7
 2217 05eb 8E050000 		.4byte	.LASF86
 2218 05ef 0D       		.byte	0xd
 2219 05f0 BE       		.byte	0xbe
 2220 05f1 B1050000 		.4byte	0x5b1
 2221 05f5 04       		.byte	0x4
 2222 05f6 07       		.uleb128 0x7
 2223 05f7 DF090000 		.4byte	.LASF87
 2224 05fb 0D       		.byte	0xd
 2225 05fc C0       		.byte	0xc0
 2226 05fd 08030000 		.4byte	0x308
 2227 0601 10       		.byte	0x10
 2228 0602 07       		.uleb128 0x7
 2229 0603 AD040000 		.4byte	.LASF88
 2230 0607 0D       		.byte	0xd
 2231 0608 C2       		.byte	0xc2
 2232 0609 79070000 		.4byte	0x779
 2233 060d 18       		.byte	0x18
 2234 060e 07       		.uleb128 0x7
 2235 060f 7F0A0000 		.4byte	.LASF89
 2236 0613 0D       		.byte	0xd
 2237 0614 C3       		.byte	0xc3
 2238 0615 2A080000 		.4byte	0x82a
 2239 0619 1C       		.byte	0x1c
 2240 061a 07       		.uleb128 0x7
 2241 061b 27030000 		.4byte	.LASF90
 2242 061f 0D       		.byte	0xd
 2243 0620 C4       		.byte	0xc4
 2244 0621 44070000 		.4byte	0x744
 2245 0625 20       		.byte	0x20
 2246 0626 07       		.uleb128 0x7
 2247 0627 09070000 		.4byte	.LASF91
 2248 062b 0D       		.byte	0xd
 2249 062c C6       		.byte	0xc6
 2250 062d FA000000 		.4byte	0xfa
 2251 0631 24       		.byte	0x24
 2252 0632 07       		.uleb128 0x7
 2253 0633 BC040000 		.4byte	.LASF92
 2254 0637 0D       		.byte	0xd
 2255 0638 C7       		.byte	0xc7
 2256 0639 D7080000 		.4byte	0x8d7
 2257 063d 28       		.byte	0x28
 2258 063e 0A       		.uleb128 0xa
 2259 063f 11010000 		.4byte	.LASF93
 2260 0643 0D       		.byte	0xd
 2261 0644 D7       		.byte	0xd7
 2262 0645 B8000000 		.4byte	0xb8
ARM GAS  C:\Users\tmj32\AppData\Local\Temp\ccepMVRX.s 			page 59


 2263 0649 01       		.byte	0x1
 2264 064a 01       		.byte	0x1
 2265 064b 07       		.byte	0x7
 2266 064c 2C       		.byte	0x2c
 2267 064d 0A       		.uleb128 0xa
 2268 064e 55090000 		.4byte	.LASF94
 2269 0652 0D       		.byte	0xd
 2270 0653 D8       		.byte	0xd8
 2271 0654 B8000000 		.4byte	0xb8
 2272 0658 01       		.byte	0x1
 2273 0659 01       		.byte	0x1
 2274 065a 06       		.byte	0x6
 2275 065b 2C       		.byte	0x2c
 2276 065c 0A       		.uleb128 0xa
 2277 065d 75030000 		.4byte	.LASF95
 2278 0661 0D       		.byte	0xd
 2279 0662 D9       		.byte	0xd9
 2280 0663 B8000000 		.4byte	0xb8
 2281 0667 01       		.byte	0x1
 2282 0668 01       		.byte	0x1
 2283 0669 05       		.byte	0x5
 2284 066a 2C       		.byte	0x2c
 2285 066b 0A       		.uleb128 0xa
 2286 066c 170A0000 		.4byte	.LASF96
 2287 0670 0D       		.byte	0xd
 2288 0671 DA       		.byte	0xda
 2289 0672 B8000000 		.4byte	0xb8
 2290 0676 01       		.byte	0x1
 2291 0677 01       		.byte	0x1
 2292 0678 04       		.byte	0x4
 2293 0679 2C       		.byte	0x2c
 2294 067a 0A       		.uleb128 0xa
 2295 067b BA010000 		.4byte	.LASF97
 2296 067f 0D       		.byte	0xd
 2297 0680 DB       		.byte	0xdb
 2298 0681 B8000000 		.4byte	0xb8
 2299 0685 01       		.byte	0x1
 2300 0686 01       		.byte	0x1
 2301 0687 03       		.byte	0x3
 2302 0688 2C       		.byte	0x2c
 2303 0689 15       		.uleb128 0x15
 2304 068a 746F7000 		.ascii	"top\000"
 2305 068e 0D       		.byte	0xd
 2306 068f DC       		.byte	0xdc
 2307 0690 B8000000 		.4byte	0xb8
 2308 0694 01       		.byte	0x1
 2309 0695 01       		.byte	0x1
 2310 0696 02       		.byte	0x2
 2311 0697 2C       		.byte	0x2c
 2312 0698 0A       		.uleb128 0xa
 2313 0699 F9090000 		.4byte	.LASF98
 2314 069d 0D       		.byte	0xd
 2315 069e DD       		.byte	0xdd
 2316 069f B8000000 		.4byte	0xb8
 2317 06a3 01       		.byte	0x1
 2318 06a4 01       		.byte	0x1
 2319 06a5 01       		.byte	0x1
ARM GAS  C:\Users\tmj32\AppData\Local\Temp\ccepMVRX.s 			page 60


 2320 06a6 2C       		.byte	0x2c
 2321 06a7 0A       		.uleb128 0xa
 2322 06a8 B2050000 		.4byte	.LASF99
 2323 06ac 0D       		.byte	0xd
 2324 06ad DE       		.byte	0xde
 2325 06ae B8000000 		.4byte	0xb8
 2326 06b2 01       		.byte	0x1
 2327 06b3 01       		.byte	0x1
 2328 06b4 00       		.byte	0
 2329 06b5 2C       		.byte	0x2c
 2330 06b6 0A       		.uleb128 0xa
 2331 06b7 6A020000 		.4byte	.LASF100
 2332 06bb 0D       		.byte	0xd
 2333 06bc DF       		.byte	0xdf
 2334 06bd CC080000 		.4byte	0x8cc
 2335 06c1 01       		.byte	0x1
 2336 06c2 02       		.byte	0x2
 2337 06c3 06       		.byte	0x6
 2338 06c4 2D       		.byte	0x2d
 2339 06c5 0A       		.uleb128 0xa
 2340 06c6 89090000 		.4byte	.LASF101
 2341 06ca 0D       		.byte	0xd
 2342 06cb E0       		.byte	0xe0
 2343 06cc BC050000 		.4byte	0x5bc
 2344 06d0 01       		.byte	0x1
 2345 06d1 02       		.byte	0x2
 2346 06d2 04       		.byte	0x4
 2347 06d3 2D       		.byte	0x2d
 2348 06d4 0A       		.uleb128 0xa
 2349 06d5 B30A0000 		.4byte	.LASF102
 2350 06d9 0D       		.byte	0xd
 2351 06da E1       		.byte	0xe1
 2352 06db B8000000 		.4byte	0xb8
 2353 06df 01       		.byte	0x1
 2354 06e0 03       		.byte	0x3
 2355 06e1 01       		.byte	0x1
 2356 06e2 2D       		.byte	0x2d
 2357 06e3 07       		.uleb128 0x7
 2358 06e4 9D050000 		.4byte	.LASF103
 2359 06e8 0D       		.byte	0xd
 2360 06e9 E2       		.byte	0xe2
 2361 06ea B8000000 		.4byte	0xb8
 2362 06ee 2E       		.byte	0x2e
 2363 06ef 07       		.uleb128 0x7
 2364 06f0 C20B0000 		.4byte	.LASF104
 2365 06f4 0D       		.byte	0xd
 2366 06f5 E4       		.byte	0xe4
 2367 06f6 91020000 		.4byte	0x291
 2368 06fa 2F       		.byte	0x2f
 2369 06fb 07       		.uleb128 0x7
 2370 06fc 9C030000 		.4byte	.LASF105
 2371 0700 0D       		.byte	0xd
 2372 0701 E6       		.byte	0xe6
 2373 0702 EF000000 		.4byte	0xef
 2374 0706 30       		.byte	0x30
 2375 0707 07       		.uleb128 0x7
 2376 0708 C3030000 		.4byte	.LASF106
ARM GAS  C:\Users\tmj32\AppData\Local\Temp\ccepMVRX.s 			page 61


 2377 070c 0D       		.byte	0xd
 2378 070d E9       		.byte	0xe9
 2379 070e C1080000 		.4byte	0x8c1
 2380 0712 34       		.byte	0x34
 2381 0713 00       		.byte	0
 2382 0714 0D       		.uleb128 0xd
 2383 0715 04       		.byte	0x4
 2384 0716 D2050000 		.4byte	0x5d2
 2385 071a 13       		.uleb128 0x13
 2386 071b 01       		.byte	0x1
 2387 071c 42000000 		.4byte	0x42
 2388 0720 0D       		.byte	0xd
 2389 0721 3D       		.byte	0x3d
 2390 0722 39070000 		.4byte	0x739
 2391 0726 14       		.uleb128 0x14
 2392 0727 5E060000 		.4byte	.LASF107
 2393 072b 00       		.byte	0
 2394 072c 14       		.uleb128 0x14
 2395 072d B4020000 		.4byte	.LASF108
 2396 0731 01       		.byte	0x1
 2397 0732 14       		.uleb128 0x14
 2398 0733 13030000 		.4byte	.LASF109
 2399 0737 02       		.byte	0x2
 2400 0738 00       		.byte	0
 2401 0739 02       		.uleb128 0x2
 2402 073a 12070000 		.4byte	.LASF110
 2403 073e 0D       		.byte	0xd
 2404 073f 42       		.byte	0x42
 2405 0740 B8000000 		.4byte	0xb8
 2406 0744 02       		.uleb128 0x2
 2407 0745 B30B0000 		.4byte	.LASF111
 2408 0749 0D       		.byte	0xd
 2409 074a 48       		.byte	0x48
 2410 074b 4F070000 		.4byte	0x74f
 2411 074f 0D       		.uleb128 0xd
 2412 0750 04       		.byte	0x4
 2413 0751 55070000 		.4byte	0x755
 2414 0755 0B       		.uleb128 0xb
 2415 0756 D5010000 		.4byte	0x1d5
 2416 075a 6E070000 		.4byte	0x76e
 2417 075e 0C       		.uleb128 0xc
 2418 075f 14070000 		.4byte	0x714
 2419 0763 0C       		.uleb128 0xc
 2420 0764 C7050000 		.4byte	0x5c7
 2421 0768 0C       		.uleb128 0xc
 2422 0769 39070000 		.4byte	0x739
 2423 076d 00       		.byte	0
 2424 076e 02       		.uleb128 0x2
 2425 076f 53010000 		.4byte	.LASF112
 2426 0773 0D       		.byte	0xd
 2427 0774 61       		.byte	0x61
 2428 0775 B8000000 		.4byte	0xb8
 2429 0779 02       		.uleb128 0x2
 2430 077a 380B0000 		.4byte	.LASF113
 2431 077e 0D       		.byte	0xd
 2432 077f 68       		.byte	0x68
 2433 0780 84070000 		.4byte	0x784
ARM GAS  C:\Users\tmj32\AppData\Local\Temp\ccepMVRX.s 			page 62


 2434 0784 0D       		.uleb128 0xd
 2435 0785 04       		.byte	0x4
 2436 0786 8A070000 		.4byte	0x78a
 2437 078a 16       		.uleb128 0x16
 2438 078b 9A070000 		.4byte	0x79a
 2439 078f 0C       		.uleb128 0xc
 2440 0790 14070000 		.4byte	0x714
 2441 0794 0C       		.uleb128 0xc
 2442 0795 6E070000 		.4byte	0x76e
 2443 0799 00       		.byte	0
 2444 079a 13       		.uleb128 0x13
 2445 079b 01       		.byte	0x1
 2446 079c 42000000 		.4byte	0x42
 2447 07a0 0D       		.byte	0xd
 2448 07a1 6D       		.byte	0x6d
 2449 07a2 1F080000 		.4byte	0x81f
 2450 07a6 14       		.uleb128 0x14
 2451 07a7 BF050000 		.4byte	.LASF114
 2452 07ab 00       		.byte	0
 2453 07ac 14       		.uleb128 0x14
 2454 07ad 01060000 		.4byte	.LASF115
 2455 07b1 01       		.byte	0x1
 2456 07b2 14       		.uleb128 0x14
 2457 07b3 CC090000 		.4byte	.LASF116
 2458 07b7 02       		.byte	0x2
 2459 07b8 14       		.uleb128 0x14
 2460 07b9 51070000 		.4byte	.LASF117
 2461 07bd 03       		.byte	0x3
 2462 07be 14       		.uleb128 0x14
 2463 07bf 9D000000 		.4byte	.LASF118
 2464 07c3 04       		.byte	0x4
 2465 07c4 14       		.uleb128 0x14
 2466 07c5 2D0A0000 		.4byte	.LASF119
 2467 07c9 05       		.byte	0x5
 2468 07ca 14       		.uleb128 0x14
 2469 07cb 4E020000 		.4byte	.LASF120
 2470 07cf 06       		.byte	0x6
 2471 07d0 14       		.uleb128 0x14
 2472 07d1 DF030000 		.4byte	.LASF121
 2473 07d5 07       		.byte	0x7
 2474 07d6 14       		.uleb128 0x14
 2475 07d7 7D010000 		.4byte	.LASF122
 2476 07db 08       		.byte	0x8
 2477 07dc 14       		.uleb128 0x14
 2478 07dd AF060000 		.4byte	.LASF123
 2479 07e1 09       		.byte	0x9
 2480 07e2 14       		.uleb128 0x14
 2481 07e3 29070000 		.4byte	.LASF124
 2482 07e7 0A       		.byte	0xa
 2483 07e8 14       		.uleb128 0x14
 2484 07e9 7C070000 		.4byte	.LASF125
 2485 07ed 0B       		.byte	0xb
 2486 07ee 14       		.uleb128 0x14
 2487 07ef DC000000 		.4byte	.LASF126
 2488 07f3 0C       		.byte	0xc
 2489 07f4 14       		.uleb128 0x14
 2490 07f5 27020000 		.4byte	.LASF127
ARM GAS  C:\Users\tmj32\AppData\Local\Temp\ccepMVRX.s 			page 63


 2491 07f9 0D       		.byte	0xd
 2492 07fa 14       		.uleb128 0x14
 2493 07fb 22010000 		.4byte	.LASF128
 2494 07ff 0E       		.byte	0xe
 2495 0800 14       		.uleb128 0x14
 2496 0801 3E070000 		.4byte	.LASF129
 2497 0805 0F       		.byte	0xf
 2498 0806 14       		.uleb128 0x14
 2499 0807 4A040000 		.4byte	.LASF130
 2500 080b 10       		.byte	0x10
 2501 080c 14       		.uleb128 0x14
 2502 080d 31030000 		.4byte	.LASF131
 2503 0811 11       		.byte	0x11
 2504 0812 14       		.uleb128 0x14
 2505 0813 75050000 		.4byte	.LASF132
 2506 0817 12       		.byte	0x12
 2507 0818 14       		.uleb128 0x14
 2508 0819 7D040000 		.4byte	.LASF133
 2509 081d 13       		.byte	0x13
 2510 081e 00       		.byte	0
 2511 081f 02       		.uleb128 0x2
 2512 0820 A3070000 		.4byte	.LASF134
 2513 0824 0D       		.byte	0xd
 2514 0825 88       		.byte	0x88
 2515 0826 B8000000 		.4byte	0xb8
 2516 082a 02       		.uleb128 0x2
 2517 082b 94020000 		.4byte	.LASF135
 2518 082f 0D       		.byte	0xd
 2519 0830 8A       		.byte	0x8a
 2520 0831 35080000 		.4byte	0x835
 2521 0835 0D       		.uleb128 0xd
 2522 0836 04       		.byte	0x4
 2523 0837 3B080000 		.4byte	0x83b
 2524 083b 0B       		.uleb128 0xb
 2525 083c 68050000 		.4byte	0x568
 2526 0840 54080000 		.4byte	0x854
 2527 0844 0C       		.uleb128 0xc
 2528 0845 14070000 		.4byte	0x714
 2529 0849 0C       		.uleb128 0xc
 2530 084a 1F080000 		.4byte	0x81f
 2531 084e 0C       		.uleb128 0xc
 2532 084f FA000000 		.4byte	0xfa
 2533 0853 00       		.byte	0
 2534 0854 02       		.uleb128 0x2
 2535 0855 17010000 		.4byte	.LASF136
 2536 0859 0D       		.byte	0xd
 2537 085a A4       		.byte	0xa4
 2538 085b B8000000 		.4byte	0xb8
 2539 085f 06       		.uleb128 0x6
 2540 0860 0C       		.byte	0xc
 2541 0861 0D       		.byte	0xd
 2542 0862 A7       		.byte	0xa7
 2543 0863 B6080000 		.4byte	0x8b6
 2544 0867 07       		.uleb128 0x7
 2545 0868 98090000 		.4byte	.LASF137
 2546 086c 0D       		.byte	0xd
 2547 086d A9       		.byte	0xa9
ARM GAS  C:\Users\tmj32\AppData\Local\Temp\ccepMVRX.s 			page 64


 2548 086e B6080000 		.4byte	0x8b6
 2549 0872 00       		.byte	0
 2550 0873 07       		.uleb128 0x7
 2551 0874 36090000 		.4byte	.LASF138
 2552 0878 0D       		.byte	0xd
 2553 0879 AA       		.byte	0xaa
 2554 087a EF000000 		.4byte	0xef
 2555 087e 04       		.byte	0x4
 2556 087f 07       		.uleb128 0x7
 2557 0880 CD020000 		.4byte	.LASF139
 2558 0884 0D       		.byte	0xd
 2559 0885 AB       		.byte	0xab
 2560 0886 EF000000 		.4byte	0xef
 2561 088a 06       		.byte	0x6
 2562 088b 07       		.uleb128 0x7
 2563 088c D1050000 		.4byte	.LASF140
 2564 0890 0D       		.byte	0xd
 2565 0891 AC       		.byte	0xac
 2566 0892 54080000 		.4byte	0x854
 2567 0896 08       		.byte	0x8
 2568 0897 0A       		.uleb128 0xa
 2569 0898 51060000 		.4byte	.LASF141
 2570 089c 0D       		.byte	0xd
 2571 089d AD       		.byte	0xad
 2572 089e B8000000 		.4byte	0xb8
 2573 08a2 01       		.byte	0x1
 2574 08a3 01       		.byte	0x1
 2575 08a4 07       		.byte	0x7
 2576 08a5 09       		.byte	0x9
 2577 08a6 0A       		.uleb128 0xa
 2578 08a7 4E0B0000 		.4byte	.LASF142
 2579 08ab 0D       		.byte	0xd
 2580 08ac AE       		.byte	0xae
 2581 08ad B8000000 		.4byte	0xb8
 2582 08b1 01       		.byte	0x1
 2583 08b2 01       		.byte	0x1
 2584 08b3 06       		.byte	0x6
 2585 08b4 09       		.byte	0x9
 2586 08b5 00       		.byte	0
 2587 08b6 0D       		.uleb128 0xd
 2588 08b7 04       		.byte	0x4
 2589 08b8 BC080000 		.4byte	0x8bc
 2590 08bc 0E       		.uleb128 0xe
 2591 08bd D2050000 		.4byte	0x5d2
 2592 08c1 02       		.uleb128 0x2
 2593 08c2 F8000000 		.4byte	.LASF143
 2594 08c6 0D       		.byte	0xd
 2595 08c7 B0       		.byte	0xb0
 2596 08c8 5F080000 		.4byte	0x85f
 2597 08cc 02       		.uleb128 0x2
 2598 08cd F5060000 		.4byte	.LASF144
 2599 08d1 0D       		.byte	0xd
 2600 08d2 B9       		.byte	0xb9
 2601 08d3 B8000000 		.4byte	0xb8
 2602 08d7 0D       		.uleb128 0xd
 2603 08d8 04       		.byte	0x4
 2604 08d9 DD080000 		.4byte	0x8dd
ARM GAS  C:\Users\tmj32\AppData\Local\Temp\ccepMVRX.s 			page 65


 2605 08dd 0E       		.uleb128 0xe
 2606 08de 3E050000 		.4byte	0x53e
 2607 08e2 02       		.uleb128 0x2
 2608 08e3 3B090000 		.4byte	.LASF145
 2609 08e7 0D       		.byte	0xd
 2610 08e8 F0       		.byte	0xf0
 2611 08e9 D2050000 		.4byte	0x5d2
 2612 08ed 06       		.uleb128 0x6
 2613 08ee 0C       		.byte	0xc
 2614 08ef 02       		.byte	0x2
 2615 08f0 22       		.byte	0x22
 2616 08f1 3E090000 		.4byte	0x93e
 2617 08f5 07       		.uleb128 0x7
 2618 08f6 940B0000 		.4byte	.LASF146
 2619 08fa 02       		.byte	0x2
 2620 08fb 26       		.byte	0x26
 2621 08fc CE000000 		.4byte	0xce
 2622 0900 00       		.byte	0
 2623 0901 07       		.uleb128 0x7
 2624 0902 40000000 		.4byte	.LASF147
 2625 0906 02       		.byte	0x2
 2626 0907 27       		.byte	0x27
 2627 0908 CE000000 		.4byte	0xce
 2628 090c 02       		.byte	0x2
 2629 090d 07       		.uleb128 0x7
 2630 090e 61040000 		.4byte	.LASF148
 2631 0912 02       		.byte	0x2
 2632 0913 28       		.byte	0x28
 2633 0914 CE000000 		.4byte	0xce
 2634 0918 04       		.byte	0x4
 2635 0919 07       		.uleb128 0x7
 2636 091a 2E080000 		.4byte	.LASF149
 2637 091e 02       		.byte	0x2
 2638 091f 29       		.byte	0x29
 2639 0920 C3000000 		.4byte	0xc3
 2640 0924 06       		.byte	0x6
 2641 0925 07       		.uleb128 0x7
 2642 0926 5A090000 		.4byte	.LASF150
 2643 092a 02       		.byte	0x2
 2644 092b 2A       		.byte	0x2a
 2645 092c C3000000 		.4byte	0xc3
 2646 0930 08       		.byte	0x8
 2647 0931 07       		.uleb128 0x7
 2648 0932 230A0000 		.4byte	.LASF151
 2649 0936 02       		.byte	0x2
 2650 0937 2B       		.byte	0x2b
 2651 0938 C3000000 		.4byte	0xc3
 2652 093c 0A       		.byte	0xa
 2653 093d 00       		.byte	0
 2654 093e 02       		.uleb128 0x2
 2655 093f D9070000 		.4byte	.LASF152
 2656 0943 02       		.byte	0x2
 2657 0944 2C       		.byte	0x2c
 2658 0945 ED080000 		.4byte	0x8ed
 2659 0949 13       		.uleb128 0x13
 2660 094a 01       		.byte	0x1
 2661 094b 42000000 		.4byte	0x42
ARM GAS  C:\Users\tmj32\AppData\Local\Temp\ccepMVRX.s 			page 66


 2662 094f 02       		.byte	0x2
 2663 0950 2F       		.byte	0x2f
 2664 0951 5C090000 		.4byte	0x95c
 2665 0955 14       		.uleb128 0x14
 2666 0956 550A0000 		.4byte	.LASF153
 2667 095a 00       		.byte	0
 2668 095b 00       		.byte	0
 2669 095c 02       		.uleb128 0x2
 2670 095d D2020000 		.4byte	.LASF154
 2671 0961 02       		.byte	0x2
 2672 0962 32       		.byte	0x32
 2673 0963 B8000000 		.4byte	0xb8
 2674 0967 06       		.uleb128 0x6
 2675 0968 14       		.byte	0x14
 2676 0969 0E       		.byte	0xe
 2677 096a 34       		.byte	0x34
 2678 096b AB090000 		.4byte	0x9ab
 2679 096f 08       		.uleb128 0x8
 2680 0970 72656C00 		.ascii	"rel\000"
 2681 0974 0E       		.byte	0xe
 2682 0975 36       		.byte	0x36
 2683 0976 49050000 		.4byte	0x549
 2684 097a 00       		.byte	0
 2685 097b 08       		.uleb128 0x8
 2686 097c 707200   		.ascii	"pr\000"
 2687 097f 0E       		.byte	0xe
 2688 0980 37       		.byte	0x37
 2689 0981 49050000 		.4byte	0x549
 2690 0985 04       		.byte	0x4
 2691 0986 07       		.uleb128 0x7
 2692 0987 3F060000 		.4byte	.LASF155
 2693 098b 0E       		.byte	0xe
 2694 098c 38       		.byte	0x38
 2695 098d 49050000 		.4byte	0x549
 2696 0991 08       		.byte	0x8
 2697 0992 07       		.uleb128 0x7
 2698 0993 05020000 		.4byte	.LASF156
 2699 0997 0E       		.byte	0xe
 2700 0998 39       		.byte	0x39
 2701 0999 49050000 		.4byte	0x549
 2702 099d 0C       		.byte	0xc
 2703 099e 08       		.uleb128 0x8
 2704 099f 696E6100 		.ascii	"ina\000"
 2705 09a3 0E       		.byte	0xe
 2706 09a4 3A       		.byte	0x3a
 2707 09a5 49050000 		.4byte	0x549
 2708 09a9 10       		.byte	0x10
 2709 09aa 00       		.byte	0
 2710 09ab 06       		.uleb128 0x6
 2711 09ac 14       		.byte	0x14
 2712 09ad 0E       		.byte	0xe
 2713 09ae 3F       		.byte	0x3f
 2714 09af EF090000 		.4byte	0x9ef
 2715 09b3 08       		.uleb128 0x8
 2716 09b4 72656C00 		.ascii	"rel\000"
 2717 09b8 0E       		.byte	0xe
 2718 09b9 41       		.byte	0x41
ARM GAS  C:\Users\tmj32\AppData\Local\Temp\ccepMVRX.s 			page 67


 2719 09ba 49050000 		.4byte	0x549
 2720 09be 00       		.byte	0
 2721 09bf 08       		.uleb128 0x8
 2722 09c0 707200   		.ascii	"pr\000"
 2723 09c3 0E       		.byte	0xe
 2724 09c4 42       		.byte	0x42
 2725 09c5 49050000 		.4byte	0x549
 2726 09c9 04       		.byte	0x4
 2727 09ca 07       		.uleb128 0x7
 2728 09cb 3F060000 		.4byte	.LASF155
 2729 09cf 0E       		.byte	0xe
 2730 09d0 43       		.byte	0x43
 2731 09d1 49050000 		.4byte	0x549
 2732 09d5 08       		.byte	0x8
 2733 09d6 07       		.uleb128 0x7
 2734 09d7 05020000 		.4byte	.LASF156
 2735 09db 0E       		.byte	0xe
 2736 09dc 44       		.byte	0x44
 2737 09dd 49050000 		.4byte	0x549
 2738 09e1 0C       		.byte	0xc
 2739 09e2 08       		.uleb128 0x8
 2740 09e3 696E6100 		.ascii	"ina\000"
 2741 09e7 0E       		.byte	0xe
 2742 09e8 45       		.byte	0x45
 2743 09e9 49050000 		.4byte	0x549
 2744 09ed 10       		.byte	0x10
 2745 09ee 00       		.byte	0
 2746 09ef 06       		.uleb128 0x6
 2747 09f0 0C       		.byte	0xc
 2748 09f1 0E       		.byte	0xe
 2749 09f2 4A       		.byte	0x4a
 2750 09f3 1C0A0000 		.4byte	0xa1c
 2751 09f7 07       		.uleb128 0x7
 2752 09f8 9F010000 		.4byte	.LASF157
 2753 09fc 0E       		.byte	0xe
 2754 09fd 4C       		.byte	0x4c
 2755 09fe 49050000 		.4byte	0x549
 2756 0a02 00       		.byte	0
 2757 0a03 08       		.uleb128 0x8
 2758 0a04 73656300 		.ascii	"sec\000"
 2759 0a08 0E       		.byte	0xe
 2760 0a09 4D       		.byte	0x4d
 2761 0a0a 49050000 		.4byte	0x549
 2762 0a0e 04       		.byte	0x4
 2763 0a0f 07       		.uleb128 0x7
 2764 0a10 3A040000 		.4byte	.LASF158
 2765 0a14 0E       		.byte	0xe
 2766 0a15 4E       		.byte	0x4e
 2767 0a16 49050000 		.4byte	0x549
 2768 0a1a 08       		.byte	0x8
 2769 0a1b 00       		.byte	0
 2770 0a1c 06       		.uleb128 0x6
 2771 0a1d 08       		.byte	0x8
 2772 0a1e 0E       		.byte	0xe
 2773 0a1f 53       		.byte	0x53
 2774 0a20 3D0A0000 		.4byte	0xa3d
 2775 0a24 07       		.uleb128 0x7
ARM GAS  C:\Users\tmj32\AppData\Local\Temp\ccepMVRX.s 			page 68


 2776 0a25 94010000 		.4byte	.LASF159
 2777 0a29 0E       		.byte	0xe
 2778 0a2a 55       		.byte	0x55
 2779 0a2b 49050000 		.4byte	0x549
 2780 0a2f 00       		.byte	0
 2781 0a30 07       		.uleb128 0x7
 2782 0a31 9E0A0000 		.4byte	.LASF160
 2783 0a35 0E       		.byte	0xe
 2784 0a36 56       		.byte	0x56
 2785 0a37 49050000 		.4byte	0x549
 2786 0a3b 04       		.byte	0x4
 2787 0a3c 00       		.byte	0
 2788 0a3d 06       		.uleb128 0x6
 2789 0a3e 04       		.byte	0x4
 2790 0a3f 0E       		.byte	0xe
 2791 0a40 5B       		.byte	0x5b
 2792 0a41 520A0000 		.4byte	0xa52
 2793 0a45 07       		.uleb128 0x7
 2794 0a46 03090000 		.4byte	.LASF161
 2795 0a4a 0E       		.byte	0xe
 2796 0a4b 5D       		.byte	0x5d
 2797 0a4c 49050000 		.4byte	0x549
 2798 0a50 00       		.byte	0
 2799 0a51 00       		.byte	0
 2800 0a52 06       		.uleb128 0x6
 2801 0a53 08       		.byte	0x8
 2802 0a54 0E       		.byte	0xe
 2803 0a55 66       		.byte	0x66
 2804 0a56 720A0000 		.4byte	0xa72
 2805 0a5a 08       		.uleb128 0x8
 2806 0a5b 626700   		.ascii	"bg\000"
 2807 0a5e 0E       		.byte	0xe
 2808 0a5f 68       		.byte	0x68
 2809 0a60 49050000 		.4byte	0x549
 2810 0a64 00       		.byte	0
 2811 0a65 07       		.uleb128 0x7
 2812 0a66 97050000 		.4byte	.LASF162
 2813 0a6a 0E       		.byte	0xe
 2814 0a6b 69       		.byte	0x69
 2815 0a6c 49050000 		.4byte	0x549
 2816 0a70 04       		.byte	0x4
 2817 0a71 00       		.byte	0
 2818 0a72 06       		.uleb128 0x6
 2819 0a73 0C       		.byte	0xc
 2820 0a74 0E       		.byte	0xe
 2821 0a75 6E       		.byte	0x6e
 2822 0a76 9E0A0000 		.4byte	0xa9e
 2823 0a7a 08       		.uleb128 0x8
 2824 0a7b 626700   		.ascii	"bg\000"
 2825 0a7e 0E       		.byte	0xe
 2826 0a7f 70       		.byte	0x70
 2827 0a80 49050000 		.4byte	0x549
 2828 0a84 00       		.byte	0
 2829 0a85 07       		.uleb128 0x7
 2830 0a86 97050000 		.4byte	.LASF162
 2831 0a8a 0E       		.byte	0xe
 2832 0a8b 71       		.byte	0x71
ARM GAS  C:\Users\tmj32\AppData\Local\Temp\ccepMVRX.s 			page 69


 2833 0a8c 49050000 		.4byte	0x549
 2834 0a90 04       		.byte	0x4
 2835 0a91 07       		.uleb128 0x7
 2836 0a92 750B0000 		.4byte	.LASF163
 2837 0a96 0E       		.byte	0xe
 2838 0a97 72       		.byte	0x72
 2839 0a98 49050000 		.4byte	0x549
 2840 0a9c 08       		.byte	0x8
 2841 0a9d 00       		.byte	0
 2842 0a9e 06       		.uleb128 0x6
 2843 0a9f 10       		.byte	0x10
 2844 0aa0 0E       		.byte	0xe
 2845 0aa1 87       		.byte	0x87
 2846 0aa2 D60A0000 		.4byte	0xad6
 2847 0aa6 08       		.uleb128 0x8
 2848 0aa7 626700   		.ascii	"bg\000"
 2849 0aaa 0E       		.byte	0xe
 2850 0aab 89       		.byte	0x89
 2851 0aac 49050000 		.4byte	0x549
 2852 0ab0 00       		.byte	0
 2853 0ab1 07       		.uleb128 0x7
 2854 0ab2 97050000 		.4byte	.LASF162
 2855 0ab6 0E       		.byte	0xe
 2856 0ab7 8A       		.byte	0x8a
 2857 0ab8 49050000 		.4byte	0x549
 2858 0abc 04       		.byte	0x4
 2859 0abd 07       		.uleb128 0x7
 2860 0abe A0060000 		.4byte	.LASF164
 2861 0ac2 0E       		.byte	0xe
 2862 0ac3 8B       		.byte	0x8b
 2863 0ac4 49050000 		.4byte	0x549
 2864 0ac8 08       		.byte	0x8
 2865 0ac9 07       		.uleb128 0x7
 2866 0aca 73020000 		.4byte	.LASF165
 2867 0ace 0E       		.byte	0xe
 2868 0acf 8C       		.byte	0x8c
 2869 0ad0 49050000 		.4byte	0x549
 2870 0ad4 0C       		.byte	0xc
 2871 0ad5 00       		.byte	0
 2872 0ad6 06       		.uleb128 0x6
 2873 0ad7 20       		.byte	0x20
 2874 0ad8 0E       		.byte	0xe
 2875 0ad9 95       		.byte	0x95
 2876 0ada 3E0B0000 		.4byte	0xb3e
 2877 0ade 08       		.uleb128 0x8
 2878 0adf 626700   		.ascii	"bg\000"
 2879 0ae2 0E       		.byte	0xe
 2880 0ae3 97       		.byte	0x97
 2881 0ae4 49050000 		.4byte	0x549
 2882 0ae8 00       		.byte	0
 2883 0ae9 07       		.uleb128 0x7
 2884 0aea 87020000 		.4byte	.LASF166
 2885 0aee 0E       		.byte	0xe
 2886 0aef 98       		.byte	0x98
 2887 0af0 49050000 		.4byte	0x549
 2888 0af4 04       		.byte	0x4
 2889 0af5 07       		.uleb128 0x7
ARM GAS  C:\Users\tmj32\AppData\Local\Temp\ccepMVRX.s 			page 70


 2890 0af6 5D000000 		.4byte	.LASF167
 2891 0afa 0E       		.byte	0xe
 2892 0afb 99       		.byte	0x99
 2893 0afc 49050000 		.4byte	0x549
 2894 0b00 08       		.byte	0x8
 2895 0b01 07       		.uleb128 0x7
 2896 0b02 060A0000 		.4byte	.LASF168
 2897 0b06 0E       		.byte	0xe
 2898 0b07 9A       		.byte	0x9a
 2899 0b08 49050000 		.4byte	0x549
 2900 0b0c 0C       		.byte	0xc
 2901 0b0d 07       		.uleb128 0x7
 2902 0b0e 3D010000 		.4byte	.LASF169
 2903 0b12 0E       		.byte	0xe
 2904 0b13 9B       		.byte	0x9b
 2905 0b14 49050000 		.4byte	0x549
 2906 0b18 10       		.byte	0x10
 2907 0b19 07       		.uleb128 0x7
 2908 0b1a 80030000 		.4byte	.LASF170
 2909 0b1e 0E       		.byte	0xe
 2910 0b1f 9C       		.byte	0x9c
 2911 0b20 49050000 		.4byte	0x549
 2912 0b24 14       		.byte	0x14
 2913 0b25 07       		.uleb128 0x7
 2914 0b26 EF020000 		.4byte	.LASF171
 2915 0b2a 0E       		.byte	0xe
 2916 0b2b 9D       		.byte	0x9d
 2917 0b2c 49050000 		.4byte	0x549
 2918 0b30 18       		.byte	0x18
 2919 0b31 07       		.uleb128 0x7
 2920 0b32 FB010000 		.4byte	.LASF172
 2921 0b36 0E       		.byte	0xe
 2922 0b37 9E       		.byte	0x9e
 2923 0b38 49050000 		.4byte	0x549
 2924 0b3c 1C       		.byte	0x1c
 2925 0b3d 00       		.byte	0
 2926 0b3e 06       		.uleb128 0x6
 2927 0b3f 14       		.byte	0x14
 2928 0b40 0E       		.byte	0xe
 2929 0b41 A6       		.byte	0xa6
 2930 0b42 820B0000 		.4byte	0xb82
 2931 0b46 08       		.uleb128 0x8
 2932 0b47 72656C00 		.ascii	"rel\000"
 2933 0b4b 0E       		.byte	0xe
 2934 0b4c A8       		.byte	0xa8
 2935 0b4d 49050000 		.4byte	0x549
 2936 0b51 00       		.byte	0
 2937 0b52 08       		.uleb128 0x8
 2938 0b53 707200   		.ascii	"pr\000"
 2939 0b56 0E       		.byte	0xe
 2940 0b57 A9       		.byte	0xa9
 2941 0b58 49050000 		.4byte	0x549
 2942 0b5c 04       		.byte	0x4
 2943 0b5d 07       		.uleb128 0x7
 2944 0b5e 3F060000 		.4byte	.LASF155
 2945 0b62 0E       		.byte	0xe
 2946 0b63 AA       		.byte	0xaa
ARM GAS  C:\Users\tmj32\AppData\Local\Temp\ccepMVRX.s 			page 71


 2947 0b64 49050000 		.4byte	0x549
 2948 0b68 08       		.byte	0x8
 2949 0b69 07       		.uleb128 0x7
 2950 0b6a 05020000 		.4byte	.LASF156
 2951 0b6e 0E       		.byte	0xe
 2952 0b6f AB       		.byte	0xab
 2953 0b70 49050000 		.4byte	0x549
 2954 0b74 0C       		.byte	0xc
 2955 0b75 08       		.uleb128 0x8
 2956 0b76 696E6100 		.ascii	"ina\000"
 2957 0b7a 0E       		.byte	0xe
 2958 0b7b AC       		.byte	0xac
 2959 0b7c 49050000 		.4byte	0x549
 2960 0b80 10       		.byte	0x10
 2961 0b81 00       		.byte	0
 2962 0b82 06       		.uleb128 0x6
 2963 0b83 18       		.byte	0x18
 2964 0b84 0E       		.byte	0xe
 2965 0b85 A3       		.byte	0xa3
 2966 0b86 A20B0000 		.4byte	0xba2
 2967 0b8a 08       		.uleb128 0x8
 2968 0b8b 626700   		.ascii	"bg\000"
 2969 0b8e 0E       		.byte	0xe
 2970 0b8f A5       		.byte	0xa5
 2971 0b90 49050000 		.4byte	0x549
 2972 0b94 00       		.byte	0
 2973 0b95 08       		.uleb128 0x8
 2974 0b96 626F7800 		.ascii	"box\000"
 2975 0b9a 0E       		.byte	0xe
 2976 0b9b AD       		.byte	0xad
 2977 0b9c 3E0B0000 		.4byte	0xb3e
 2978 0ba0 04       		.byte	0x4
 2979 0ba1 00       		.byte	0
 2980 0ba2 06       		.uleb128 0x6
 2981 0ba3 14       		.byte	0x14
 2982 0ba4 0E       		.byte	0xe
 2983 0ba5 B5       		.byte	0xb5
 2984 0ba6 E60B0000 		.4byte	0xbe6
 2985 0baa 08       		.uleb128 0x8
 2986 0bab 72656C00 		.ascii	"rel\000"
 2987 0baf 0E       		.byte	0xe
 2988 0bb0 B7       		.byte	0xb7
 2989 0bb1 49050000 		.4byte	0x549
 2990 0bb5 00       		.byte	0
 2991 0bb6 08       		.uleb128 0x8
 2992 0bb7 707200   		.ascii	"pr\000"
 2993 0bba 0E       		.byte	0xe
 2994 0bbb B8       		.byte	0xb8
 2995 0bbc 49050000 		.4byte	0x549
 2996 0bc0 04       		.byte	0x4
 2997 0bc1 07       		.uleb128 0x7
 2998 0bc2 3F060000 		.4byte	.LASF155
 2999 0bc6 0E       		.byte	0xe
 3000 0bc7 B9       		.byte	0xb9
 3001 0bc8 49050000 		.4byte	0x549
 3002 0bcc 08       		.byte	0x8
 3003 0bcd 07       		.uleb128 0x7
ARM GAS  C:\Users\tmj32\AppData\Local\Temp\ccepMVRX.s 			page 72


 3004 0bce 05020000 		.4byte	.LASF156
 3005 0bd2 0E       		.byte	0xe
 3006 0bd3 BA       		.byte	0xba
 3007 0bd4 49050000 		.4byte	0x549
 3008 0bd8 0C       		.byte	0xc
 3009 0bd9 08       		.uleb128 0x8
 3010 0bda 696E6100 		.ascii	"ina\000"
 3011 0bde 0E       		.byte	0xe
 3012 0bdf BB       		.byte	0xbb
 3013 0be0 49050000 		.4byte	0x549
 3014 0be4 10       		.byte	0x10
 3015 0be5 00       		.byte	0
 3016 0be6 06       		.uleb128 0x6
 3017 0be7 18       		.byte	0x18
 3018 0be8 0E       		.byte	0xe
 3019 0be9 B2       		.byte	0xb2
 3020 0bea 060C0000 		.4byte	0xc06
 3021 0bee 08       		.uleb128 0x8
 3022 0bef 626700   		.ascii	"bg\000"
 3023 0bf2 0E       		.byte	0xe
 3024 0bf3 B4       		.byte	0xb4
 3025 0bf4 49050000 		.4byte	0x549
 3026 0bf8 00       		.byte	0
 3027 0bf9 08       		.uleb128 0x8
 3028 0bfa 62746E00 		.ascii	"btn\000"
 3029 0bfe 0E       		.byte	0xe
 3030 0bff BC       		.byte	0xbc
 3031 0c00 A20B0000 		.4byte	0xba2
 3032 0c04 04       		.byte	0x4
 3033 0c05 00       		.byte	0
 3034 0c06 06       		.uleb128 0x6
 3035 0c07 14       		.byte	0x14
 3036 0c08 0E       		.byte	0xe
 3037 0c09 C4       		.byte	0xc4
 3038 0c0a 4A0C0000 		.4byte	0xc4a
 3039 0c0e 08       		.uleb128 0x8
 3040 0c0f 72656C00 		.ascii	"rel\000"
 3041 0c13 0E       		.byte	0xe
 3042 0c14 C6       		.byte	0xc6
 3043 0c15 49050000 		.4byte	0x549
 3044 0c19 00       		.byte	0
 3045 0c1a 08       		.uleb128 0x8
 3046 0c1b 707200   		.ascii	"pr\000"
 3047 0c1e 0E       		.byte	0xe
 3048 0c1f C7       		.byte	0xc7
 3049 0c20 49050000 		.4byte	0x549
 3050 0c24 04       		.byte	0x4
 3051 0c25 07       		.uleb128 0x7
 3052 0c26 3F060000 		.4byte	.LASF155
 3053 0c2a 0E       		.byte	0xe
 3054 0c2b C8       		.byte	0xc8
 3055 0c2c 49050000 		.4byte	0x549
 3056 0c30 08       		.byte	0x8
 3057 0c31 07       		.uleb128 0x7
 3058 0c32 05020000 		.4byte	.LASF156
 3059 0c36 0E       		.byte	0xe
 3060 0c37 C9       		.byte	0xc9
ARM GAS  C:\Users\tmj32\AppData\Local\Temp\ccepMVRX.s 			page 73


 3061 0c38 49050000 		.4byte	0x549
 3062 0c3c 0C       		.byte	0xc
 3063 0c3d 08       		.uleb128 0x8
 3064 0c3e 696E6100 		.ascii	"ina\000"
 3065 0c42 0E       		.byte	0xe
 3066 0c43 CA       		.byte	0xca
 3067 0c44 49050000 		.4byte	0x549
 3068 0c48 10       		.byte	0x10
 3069 0c49 00       		.byte	0
 3070 0c4a 06       		.uleb128 0x6
 3071 0c4b 18       		.byte	0x18
 3072 0c4c 0E       		.byte	0xe
 3073 0c4d C1       		.byte	0xc1
 3074 0c4e 6A0C0000 		.4byte	0xc6a
 3075 0c52 08       		.uleb128 0x8
 3076 0c53 626700   		.ascii	"bg\000"
 3077 0c56 0E       		.byte	0xe
 3078 0c57 C3       		.byte	0xc3
 3079 0c58 49050000 		.4byte	0x549
 3080 0c5c 00       		.byte	0
 3081 0c5d 08       		.uleb128 0x8
 3082 0c5e 62746E00 		.ascii	"btn\000"
 3083 0c62 0E       		.byte	0xe
 3084 0c63 CB       		.byte	0xcb
 3085 0c64 060C0000 		.4byte	0xc06
 3086 0c68 04       		.byte	0x4
 3087 0c69 00       		.byte	0
 3088 0c6a 06       		.uleb128 0x6
 3089 0c6b 0C       		.byte	0xc
 3090 0c6c 0E       		.byte	0xe
 3091 0c6d D3       		.byte	0xd3
 3092 0c6e 950C0000 		.4byte	0xc95
 3093 0c72 08       		.uleb128 0x8
 3094 0c73 626700   		.ascii	"bg\000"
 3095 0c76 0E       		.byte	0xe
 3096 0c77 D5       		.byte	0xd5
 3097 0c78 49050000 		.4byte	0x549
 3098 0c7c 00       		.byte	0
 3099 0c7d 08       		.uleb128 0x8
 3100 0c7e 72656C00 		.ascii	"rel\000"
 3101 0c82 0E       		.byte	0xe
 3102 0c83 D6       		.byte	0xd6
 3103 0c84 49050000 		.4byte	0x549
 3104 0c88 04       		.byte	0x4
 3105 0c89 08       		.uleb128 0x8
 3106 0c8a 707200   		.ascii	"pr\000"
 3107 0c8d 0E       		.byte	0xe
 3108 0c8e D7       		.byte	0xd7
 3109 0c8f 49050000 		.4byte	0x549
 3110 0c93 08       		.byte	0x8
 3111 0c94 00       		.byte	0
 3112 0c95 06       		.uleb128 0x6
 3113 0c96 10       		.byte	0x10
 3114 0c97 0E       		.byte	0xe
 3115 0c98 D0       		.byte	0xd0
 3116 0c99 B50C0000 		.4byte	0xcb5
 3117 0c9d 08       		.uleb128 0x8
ARM GAS  C:\Users\tmj32\AppData\Local\Temp\ccepMVRX.s 			page 74


 3118 0c9e 626700   		.ascii	"bg\000"
 3119 0ca1 0E       		.byte	0xe
 3120 0ca2 D2       		.byte	0xd2
 3121 0ca3 49050000 		.4byte	0x549
 3122 0ca7 00       		.byte	0
 3123 0ca8 08       		.uleb128 0x8
 3124 0ca9 62746E00 		.ascii	"btn\000"
 3125 0cad 0E       		.byte	0xe
 3126 0cae D8       		.byte	0xd8
 3127 0caf 6A0C0000 		.4byte	0xc6a
 3128 0cb3 04       		.byte	0x4
 3129 0cb4 00       		.byte	0
 3130 0cb5 06       		.uleb128 0x6
 3131 0cb6 0C       		.byte	0xc
 3132 0cb7 0E       		.byte	0xe
 3133 0cb8 DD       		.byte	0xdd
 3134 0cb9 E00C0000 		.4byte	0xce0
 3135 0cbd 08       		.uleb128 0x8
 3136 0cbe 626700   		.ascii	"bg\000"
 3137 0cc1 0E       		.byte	0xe
 3138 0cc2 DF       		.byte	0xdf
 3139 0cc3 49050000 		.4byte	0x549
 3140 0cc7 00       		.byte	0
 3141 0cc8 07       		.uleb128 0x7
 3142 0cc9 1D020000 		.4byte	.LASF173
 3143 0ccd 0E       		.byte	0xe
 3144 0cce E0       		.byte	0xe0
 3145 0ccf 49050000 		.4byte	0x549
 3146 0cd3 04       		.byte	0x4
 3147 0cd4 08       		.uleb128 0x8
 3148 0cd5 736200   		.ascii	"sb\000"
 3149 0cd8 0E       		.byte	0xe
 3150 0cd9 E1       		.byte	0xe1
 3151 0cda 49050000 		.4byte	0x549
 3152 0cde 08       		.byte	0x8
 3153 0cdf 00       		.byte	0
 3154 0ce0 06       		.uleb128 0x6
 3155 0ce1 10       		.byte	0x10
 3156 0ce2 0E       		.byte	0xe
 3157 0ce3 E6       		.byte	0xe6
 3158 0ce4 180D0000 		.4byte	0xd18
 3159 0ce8 07       		.uleb128 0x7
 3160 0ce9 0C040000 		.4byte	.LASF174
 3161 0ced 0E       		.byte	0xe
 3162 0cee E8       		.byte	0xe8
 3163 0cef 49050000 		.4byte	0x549
 3164 0cf3 00       		.byte	0
 3165 0cf4 07       		.uleb128 0x7
 3166 0cf5 94040000 		.4byte	.LASF175
 3167 0cf9 0E       		.byte	0xe
 3168 0cfa E9       		.byte	0xe9
 3169 0cfb 49050000 		.4byte	0x549
 3170 0cff 04       		.byte	0x4
 3171 0d00 07       		.uleb128 0x7
 3172 0d01 AC0B0000 		.4byte	.LASF176
 3173 0d05 0E       		.byte	0xe
 3174 0d06 EA       		.byte	0xea
ARM GAS  C:\Users\tmj32\AppData\Local\Temp\ccepMVRX.s 			page 75


 3175 0d07 49050000 		.4byte	0x549
 3176 0d0b 08       		.byte	0x8
 3177 0d0c 08       		.uleb128 0x8
 3178 0d0d 736200   		.ascii	"sb\000"
 3179 0d10 0E       		.byte	0xe
 3180 0d11 EB       		.byte	0xeb
 3181 0d12 49050000 		.4byte	0x549
 3182 0d16 0C       		.byte	0xc
 3183 0d17 00       		.byte	0
 3184 0d18 06       		.uleb128 0x6
 3185 0d19 0C       		.byte	0xc
 3186 0d1a 0E       		.byte	0xe
 3187 0d1b F0       		.byte	0xf0
 3188 0d1c 430D0000 		.4byte	0xd43
 3189 0d20 08       		.uleb128 0x8
 3190 0d21 626700   		.ascii	"bg\000"
 3191 0d24 0E       		.byte	0xe
 3192 0d25 F2       		.byte	0xf2
 3193 0d26 49050000 		.4byte	0x549
 3194 0d2a 00       		.byte	0
 3195 0d2b 07       		.uleb128 0x7
 3196 0d2c AC0B0000 		.4byte	.LASF176
 3197 0d30 0E       		.byte	0xe
 3198 0d31 F3       		.byte	0xf3
 3199 0d32 49050000 		.4byte	0x549
 3200 0d36 04       		.byte	0x4
 3201 0d37 08       		.uleb128 0x8
 3202 0d38 736200   		.ascii	"sb\000"
 3203 0d3b 0E       		.byte	0xe
 3204 0d3c F4       		.byte	0xf4
 3205 0d3d 49050000 		.4byte	0x549
 3206 0d41 08       		.byte	0x8
 3207 0d42 00       		.byte	0
 3208 0d43 06       		.uleb128 0x6
 3209 0d44 14       		.byte	0x14
 3210 0d45 0E       		.byte	0xe
 3211 0d46 FE       		.byte	0xfe
 3212 0d47 8C0D0000 		.4byte	0xd8c
 3213 0d4b 17       		.uleb128 0x17
 3214 0d4c 72656C00 		.ascii	"rel\000"
 3215 0d50 0E       		.byte	0xe
 3216 0d51 0001     		.2byte	0x100
 3217 0d53 49050000 		.4byte	0x549
 3218 0d57 00       		.byte	0
 3219 0d58 17       		.uleb128 0x17
 3220 0d59 707200   		.ascii	"pr\000"
 3221 0d5c 0E       		.byte	0xe
 3222 0d5d 0101     		.2byte	0x101
 3223 0d5f 49050000 		.4byte	0x549
 3224 0d63 04       		.byte	0x4
 3225 0d64 18       		.uleb128 0x18
 3226 0d65 3F060000 		.4byte	.LASF155
 3227 0d69 0E       		.byte	0xe
 3228 0d6a 0201     		.2byte	0x102
 3229 0d6c 49050000 		.4byte	0x549
 3230 0d70 08       		.byte	0x8
 3231 0d71 18       		.uleb128 0x18
ARM GAS  C:\Users\tmj32\AppData\Local\Temp\ccepMVRX.s 			page 76


 3232 0d72 05020000 		.4byte	.LASF156
 3233 0d76 0E       		.byte	0xe
 3234 0d77 0301     		.2byte	0x103
 3235 0d79 49050000 		.4byte	0x549
 3236 0d7d 0C       		.byte	0xc
 3237 0d7e 17       		.uleb128 0x17
 3238 0d7f 696E6100 		.ascii	"ina\000"
 3239 0d83 0E       		.byte	0xe
 3240 0d84 0401     		.2byte	0x104
 3241 0d86 49050000 		.4byte	0x549
 3242 0d8a 10       		.byte	0x10
 3243 0d8b 00       		.byte	0
 3244 0d8c 06       		.uleb128 0x6
 3245 0d8d 20       		.byte	0x20
 3246 0d8e 0E       		.byte	0xe
 3247 0d8f F9       		.byte	0xf9
 3248 0d90 C40D0000 		.4byte	0xdc4
 3249 0d94 08       		.uleb128 0x8
 3250 0d95 626700   		.ascii	"bg\000"
 3251 0d98 0E       		.byte	0xe
 3252 0d99 FB       		.byte	0xfb
 3253 0d9a 49050000 		.4byte	0x549
 3254 0d9e 00       		.byte	0
 3255 0d9f 07       		.uleb128 0x7
 3256 0da0 1D020000 		.4byte	.LASF173
 3257 0da4 0E       		.byte	0xe
 3258 0da5 FC       		.byte	0xfc
 3259 0da6 49050000 		.4byte	0x549
 3260 0daa 04       		.byte	0x4
 3261 0dab 08       		.uleb128 0x8
 3262 0dac 736200   		.ascii	"sb\000"
 3263 0daf 0E       		.byte	0xe
 3264 0db0 FD       		.byte	0xfd
 3265 0db1 49050000 		.4byte	0x549
 3266 0db5 08       		.byte	0x8
 3267 0db6 17       		.uleb128 0x17
 3268 0db7 62746E00 		.ascii	"btn\000"
 3269 0dbb 0E       		.byte	0xe
 3270 0dbc 0501     		.2byte	0x105
 3271 0dbe 430D0000 		.4byte	0xd43
 3272 0dc2 0C       		.byte	0xc
 3273 0dc3 00       		.byte	0
 3274 0dc4 19       		.uleb128 0x19
 3275 0dc5 0C       		.byte	0xc
 3276 0dc6 0E       		.byte	0xe
 3277 0dc7 0A01     		.2byte	0x10a
 3278 0dc9 F30D0000 		.4byte	0xdf3
 3279 0dcd 17       		.uleb128 0x17
 3280 0dce 626700   		.ascii	"bg\000"
 3281 0dd1 0E       		.byte	0xe
 3282 0dd2 0C01     		.2byte	0x10c
 3283 0dd4 49050000 		.4byte	0x549
 3284 0dd8 00       		.byte	0
 3285 0dd9 17       		.uleb128 0x17
 3286 0dda 73656C00 		.ascii	"sel\000"
 3287 0dde 0E       		.byte	0xe
 3288 0ddf 0D01     		.2byte	0x10d
ARM GAS  C:\Users\tmj32\AppData\Local\Temp\ccepMVRX.s 			page 77


 3289 0de1 49050000 		.4byte	0x549
 3290 0de5 04       		.byte	0x4
 3291 0de6 17       		.uleb128 0x17
 3292 0de7 736200   		.ascii	"sb\000"
 3293 0dea 0E       		.byte	0xe
 3294 0deb 0E01     		.2byte	0x10e
 3295 0ded 49050000 		.4byte	0x549
 3296 0df1 08       		.byte	0x8
 3297 0df2 00       		.byte	0
 3298 0df3 19       		.uleb128 0x19
 3299 0df4 08       		.byte	0x8
 3300 0df5 0E       		.byte	0xe
 3301 0df6 1301     		.2byte	0x113
 3302 0df8 160E0000 		.4byte	0xe16
 3303 0dfc 17       		.uleb128 0x17
 3304 0dfd 626700   		.ascii	"bg\000"
 3305 0e00 0E       		.byte	0xe
 3306 0e01 1501     		.2byte	0x115
 3307 0e03 49050000 		.4byte	0x549
 3308 0e07 00       		.byte	0
 3309 0e08 17       		.uleb128 0x17
 3310 0e09 73656C00 		.ascii	"sel\000"
 3311 0e0d 0E       		.byte	0xe
 3312 0e0e 1601     		.2byte	0x116
 3313 0e10 49050000 		.4byte	0x549
 3314 0e14 04       		.byte	0x4
 3315 0e15 00       		.byte	0
 3316 0e16 19       		.uleb128 0x19
 3317 0e17 14       		.byte	0x14
 3318 0e18 0E       		.byte	0xe
 3319 0e19 1F01     		.2byte	0x11f
 3320 0e1b 5F0E0000 		.4byte	0xe5f
 3321 0e1f 17       		.uleb128 0x17
 3322 0e20 626700   		.ascii	"bg\000"
 3323 0e23 0E       		.byte	0xe
 3324 0e24 2101     		.2byte	0x121
 3325 0e26 49050000 		.4byte	0x549
 3326 0e2a 00       		.byte	0
 3327 0e2b 17       		.uleb128 0x17
 3328 0e2c 72656C00 		.ascii	"rel\000"
 3329 0e30 0E       		.byte	0xe
 3330 0e31 2201     		.2byte	0x122
 3331 0e33 49050000 		.4byte	0x549
 3332 0e37 04       		.byte	0x4
 3333 0e38 17       		.uleb128 0x17
 3334 0e39 707200   		.ascii	"pr\000"
 3335 0e3c 0E       		.byte	0xe
 3336 0e3d 2301     		.2byte	0x123
 3337 0e3f 49050000 		.4byte	0x549
 3338 0e43 08       		.byte	0x8
 3339 0e44 18       		.uleb128 0x18
 3340 0e45 3F060000 		.4byte	.LASF155
 3341 0e49 0E       		.byte	0xe
 3342 0e4a 2401     		.2byte	0x124
 3343 0e4c 49050000 		.4byte	0x549
 3344 0e50 0C       		.byte	0xc
 3345 0e51 18       		.uleb128 0x18
ARM GAS  C:\Users\tmj32\AppData\Local\Temp\ccepMVRX.s 			page 78


 3346 0e52 05020000 		.4byte	.LASF156
 3347 0e56 0E       		.byte	0xe
 3348 0e57 2501     		.2byte	0x125
 3349 0e59 49050000 		.4byte	0x549
 3350 0e5d 10       		.byte	0x10
 3351 0e5e 00       		.byte	0
 3352 0e5f 19       		.uleb128 0x19
 3353 0e60 1C       		.byte	0x1c
 3354 0e61 0E       		.byte	0xe
 3355 0e62 1B01     		.2byte	0x11b
 3356 0e64 8F0E0000 		.4byte	0xe8f
 3357 0e68 17       		.uleb128 0x17
 3358 0e69 626700   		.ascii	"bg\000"
 3359 0e6c 0E       		.byte	0xe
 3360 0e6d 1D01     		.2byte	0x11d
 3361 0e6f 49050000 		.4byte	0x549
 3362 0e73 00       		.byte	0
 3363 0e74 18       		.uleb128 0x18
 3364 0e75 97050000 		.4byte	.LASF162
 3365 0e79 0E       		.byte	0xe
 3366 0e7a 1E01     		.2byte	0x11e
 3367 0e7c 49050000 		.4byte	0x549
 3368 0e80 04       		.byte	0x4
 3369 0e81 17       		.uleb128 0x17
 3370 0e82 62746E00 		.ascii	"btn\000"
 3371 0e86 0E       		.byte	0xe
 3372 0e87 2601     		.2byte	0x126
 3373 0e89 160E0000 		.4byte	0xe16
 3374 0e8d 08       		.byte	0x8
 3375 0e8e 00       		.byte	0
 3376 0e8f 19       		.uleb128 0x19
 3377 0e90 0C       		.byte	0xc
 3378 0e91 0E       		.byte	0xe
 3379 0e92 2B01     		.2byte	0x12b
 3380 0e94 BE0E0000 		.4byte	0xebe
 3381 0e98 17       		.uleb128 0x17
 3382 0e99 626700   		.ascii	"bg\000"
 3383 0e9c 0E       		.byte	0xe
 3384 0e9d 2D01     		.2byte	0x12d
 3385 0e9f 49050000 		.4byte	0x549
 3386 0ea3 00       		.byte	0
 3387 0ea4 18       		.uleb128 0x18
 3388 0ea5 1D020000 		.4byte	.LASF173
 3389 0ea9 0E       		.byte	0xe
 3390 0eaa 2E01     		.2byte	0x12e
 3391 0eac 49050000 		.4byte	0x549
 3392 0eb0 04       		.byte	0x4
 3393 0eb1 17       		.uleb128 0x17
 3394 0eb2 736200   		.ascii	"sb\000"
 3395 0eb5 0E       		.byte	0xe
 3396 0eb6 2F01     		.2byte	0x12f
 3397 0eb8 49050000 		.4byte	0x549
 3398 0ebc 08       		.byte	0x8
 3399 0ebd 00       		.byte	0
 3400 0ebe 19       		.uleb128 0x19
 3401 0ebf 08       		.byte	0x8
 3402 0ec0 0E       		.byte	0xe
ARM GAS  C:\Users\tmj32\AppData\Local\Temp\ccepMVRX.s 			page 79


 3403 0ec1 3401     		.2byte	0x134
 3404 0ec3 E10E0000 		.4byte	0xee1
 3405 0ec7 17       		.uleb128 0x17
 3406 0ec8 626700   		.ascii	"bg\000"
 3407 0ecb 0E       		.byte	0xe
 3408 0ecc 3601     		.2byte	0x136
 3409 0ece 49050000 		.4byte	0x549
 3410 0ed2 00       		.byte	0
 3411 0ed3 18       		.uleb128 0x18
 3412 0ed4 7D000000 		.4byte	.LASF177
 3413 0ed8 0E       		.byte	0xe
 3414 0ed9 3701     		.2byte	0x137
 3415 0edb 49050000 		.4byte	0x549
 3416 0edf 04       		.byte	0x4
 3417 0ee0 00       		.byte	0
 3418 0ee1 19       		.uleb128 0x19
 3419 0ee2 08       		.byte	0x8
 3420 0ee3 0E       		.byte	0xe
 3421 0ee4 4201     		.2byte	0x142
 3422 0ee6 040F0000 		.4byte	0xf04
 3423 0eea 17       		.uleb128 0x17
 3424 0eeb 72656C00 		.ascii	"rel\000"
 3425 0eef 0E       		.byte	0xe
 3426 0ef0 4401     		.2byte	0x144
 3427 0ef2 49050000 		.4byte	0x549
 3428 0ef6 00       		.byte	0
 3429 0ef7 17       		.uleb128 0x17
 3430 0ef8 707200   		.ascii	"pr\000"
 3431 0efb 0E       		.byte	0xe
 3432 0efc 4501     		.2byte	0x145
 3433 0efe 49050000 		.4byte	0x549
 3434 0f02 04       		.byte	0x4
 3435 0f03 00       		.byte	0
 3436 0f04 19       		.uleb128 0x19
 3437 0f05 18       		.byte	0x18
 3438 0f06 0E       		.byte	0xe
 3439 0f07 3C01     		.2byte	0x13c
 3440 0f09 4D0F0000 		.4byte	0xf4d
 3441 0f0d 17       		.uleb128 0x17
 3442 0f0e 626700   		.ascii	"bg\000"
 3443 0f11 0E       		.byte	0xe
 3444 0f12 3E01     		.2byte	0x13e
 3445 0f14 49050000 		.4byte	0x549
 3446 0f18 00       		.byte	0
 3447 0f19 17       		.uleb128 0x17
 3448 0f1a 736200   		.ascii	"sb\000"
 3449 0f1d 0E       		.byte	0xe
 3450 0f1e 3F01     		.2byte	0x13f
 3451 0f20 49050000 		.4byte	0x549
 3452 0f24 04       		.byte	0x4
 3453 0f25 18       		.uleb128 0x18
 3454 0f26 87020000 		.4byte	.LASF166
 3455 0f2a 0E       		.byte	0xe
 3456 0f2b 4001     		.2byte	0x140
 3457 0f2d 49050000 		.4byte	0x549
 3458 0f31 08       		.byte	0x8
 3459 0f32 18       		.uleb128 0x18
ARM GAS  C:\Users\tmj32\AppData\Local\Temp\ccepMVRX.s 			page 80


 3460 0f33 4D0A0000 		.4byte	.LASF178
 3461 0f37 0E       		.byte	0xe
 3462 0f38 4101     		.2byte	0x141
 3463 0f3a 49050000 		.4byte	0x549
 3464 0f3e 0C       		.byte	0xc
 3465 0f3f 17       		.uleb128 0x17
 3466 0f40 62746E00 		.ascii	"btn\000"
 3467 0f44 0E       		.byte	0xe
 3468 0f45 4601     		.2byte	0x146
 3469 0f47 E10E0000 		.4byte	0xee1
 3470 0f4b 10       		.byte	0x10
 3471 0f4c 00       		.byte	0
 3472 0f4d 1A       		.uleb128 0x1a
 3473 0f4e A801     		.2byte	0x1a8
 3474 0f50 0E       		.byte	0xe
 3475 0f51 29       		.byte	0x29
 3476 0f52 EF100000 		.4byte	0x10ef
 3477 0f56 08       		.uleb128 0x8
 3478 0f57 73637200 		.ascii	"scr\000"
 3479 0f5b 0E       		.byte	0xe
 3480 0f5c 2B       		.byte	0x2b
 3481 0f5d 49050000 		.4byte	0x549
 3482 0f61 00       		.byte	0
 3483 0f62 08       		.uleb128 0x8
 3484 0f63 626700   		.ascii	"bg\000"
 3485 0f66 0E       		.byte	0xe
 3486 0f67 2C       		.byte	0x2c
 3487 0f68 49050000 		.4byte	0x549
 3488 0f6c 04       		.byte	0x4
 3489 0f6d 07       		.uleb128 0x7
 3490 0f6e 1A090000 		.4byte	.LASF179
 3491 0f72 0E       		.byte	0xe
 3492 0f73 2D       		.byte	0x2d
 3493 0f74 49050000 		.4byte	0x549
 3494 0f78 08       		.byte	0x8
 3495 0f79 07       		.uleb128 0x7
 3496 0f7a 9A010000 		.4byte	.LASF180
 3497 0f7e 0E       		.byte	0xe
 3498 0f7f 30       		.byte	0x30
 3499 0f80 49050000 		.4byte	0x549
 3500 0f84 0C       		.byte	0xc
 3501 0f85 08       		.uleb128 0x8
 3502 0f86 62746E00 		.ascii	"btn\000"
 3503 0f8a 0E       		.byte	0xe
 3504 0f8b 3B       		.byte	0x3b
 3505 0f8c 67090000 		.4byte	0x967
 3506 0f90 10       		.byte	0x10
 3507 0f91 07       		.uleb128 0x7
 3508 0f92 09090000 		.4byte	.LASF181
 3509 0f96 0E       		.byte	0xe
 3510 0f97 46       		.byte	0x46
 3511 0f98 AB090000 		.4byte	0x9ab
 3512 0f9c 24       		.byte	0x24
 3513 0f9d 07       		.uleb128 0x7
 3514 0f9e 090B0000 		.4byte	.LASF182
 3515 0fa2 0E       		.byte	0xe
 3516 0fa3 4F       		.byte	0x4f
ARM GAS  C:\Users\tmj32\AppData\Local\Temp\ccepMVRX.s 			page 81


 3517 0fa4 EF090000 		.4byte	0x9ef
 3518 0fa8 38       		.byte	0x38
 3519 0fa9 08       		.uleb128 0x8
 3520 0faa 696D6700 		.ascii	"img\000"
 3521 0fae 0E       		.byte	0xe
 3522 0faf 57       		.byte	0x57
 3523 0fb0 1C0A0000 		.4byte	0xa1c
 3524 0fb4 44       		.byte	0x44
 3525 0fb5 07       		.uleb128 0x7
 3526 0fb6 45040000 		.4byte	.LASF73
 3527 0fba 0E       		.byte	0xe
 3528 0fbb 5E       		.byte	0x5e
 3529 0fbc 3D0A0000 		.4byte	0xa3d
 3530 0fc0 4C       		.byte	0x4c
 3531 0fc1 08       		.uleb128 0x8
 3532 0fc2 6C656400 		.ascii	"led\000"
 3533 0fc6 0E       		.byte	0xe
 3534 0fc7 62       		.byte	0x62
 3535 0fc8 49050000 		.4byte	0x549
 3536 0fcc 50       		.byte	0x50
 3537 0fcd 08       		.uleb128 0x8
 3538 0fce 62617200 		.ascii	"bar\000"
 3539 0fd2 0E       		.byte	0xe
 3540 0fd3 6A       		.byte	0x6a
 3541 0fd4 520A0000 		.4byte	0xa52
 3542 0fd8 54       		.byte	0x54
 3543 0fd9 07       		.uleb128 0x7
 3544 0fda 5A040000 		.4byte	.LASF183
 3545 0fde 0E       		.byte	0xe
 3546 0fdf 73       		.byte	0x73
 3547 0fe0 720A0000 		.4byte	0xa72
 3548 0fe4 5C       		.byte	0x5c
 3549 0fe5 07       		.uleb128 0x7
 3550 0fe6 D5000000 		.4byte	.LASF184
 3551 0fea 0E       		.byte	0xe
 3552 0feb 77       		.byte	0x77
 3553 0fec 49050000 		.4byte	0x549
 3554 0ff0 68       		.byte	0x68
 3555 0ff1 07       		.uleb128 0x7
 3556 0ff2 A9060000 		.4byte	.LASF185
 3557 0ff6 0E       		.byte	0xe
 3558 0ff7 7B       		.byte	0x7b
 3559 0ff8 49050000 		.4byte	0x549
 3560 0ffc 6C       		.byte	0x6c
 3561 0ffd 08       		.uleb128 0x8
 3562 0ffe 61726300 		.ascii	"arc\000"
 3563 1002 0E       		.byte	0xe
 3564 1003 7F       		.byte	0x7f
 3565 1004 49050000 		.4byte	0x549
 3566 1008 70       		.byte	0x70
 3567 1009 07       		.uleb128 0x7
 3568 100a 460B0000 		.4byte	.LASF186
 3569 100e 0E       		.byte	0xe
 3570 100f 83       		.byte	0x83
 3571 1010 49050000 		.4byte	0x549
 3572 1014 74       		.byte	0x74
 3573 1015 08       		.uleb128 0x8
ARM GAS  C:\Users\tmj32\AppData\Local\Temp\ccepMVRX.s 			page 82


 3574 1016 737700   		.ascii	"sw\000"
 3575 1019 0E       		.byte	0xe
 3576 101a 8D       		.byte	0x8d
 3577 101b 9E0A0000 		.4byte	0xa9e
 3578 101f 78       		.byte	0x78
 3579 1020 07       		.uleb128 0x7
 3580 1021 A4010000 		.4byte	.LASF187
 3581 1025 0E       		.byte	0xe
 3582 1026 91       		.byte	0x91
 3583 1027 49050000 		.4byte	0x549
 3584 102b 88       		.byte	0x88
 3585 102c 07       		.uleb128 0x7
 3586 102d 80090000 		.4byte	.LASF188
 3587 1031 0E       		.byte	0xe
 3588 1032 9F       		.byte	0x9f
 3589 1033 D60A0000 		.4byte	0xad6
 3590 1037 8C       		.byte	0x8c
 3591 1038 08       		.uleb128 0x8
 3592 1039 636200   		.ascii	"cb\000"
 3593 103c 0E       		.byte	0xe
 3594 103d AE       		.byte	0xae
 3595 103e 820B0000 		.4byte	0xb82
 3596 1042 AC       		.byte	0xac
 3597 1043 07       		.uleb128 0x7
 3598 1044 E2010000 		.4byte	.LASF189
 3599 1048 0E       		.byte	0xe
 3600 1049 BD       		.byte	0xbd
 3601 104a E60B0000 		.4byte	0xbe6
 3602 104e C4       		.byte	0xc4
 3603 104f 08       		.uleb128 0x8
 3604 1050 6B6200   		.ascii	"kb\000"
 3605 1053 0E       		.byte	0xe
 3606 1054 CC       		.byte	0xcc
 3607 1055 4A0C0000 		.4byte	0xc4a
 3608 1059 DC       		.byte	0xdc
 3609 105a 07       		.uleb128 0x7
 3610 105b 3A060000 		.4byte	.LASF190
 3611 105f 0E       		.byte	0xe
 3612 1060 D9       		.byte	0xd9
 3613 1061 950C0000 		.4byte	0xc95
 3614 1065 F4       		.byte	0xf4
 3615 1066 1B       		.uleb128 0x1b
 3616 1067 9B060000 		.4byte	.LASF191
 3617 106b 0E       		.byte	0xe
 3618 106c E2       		.byte	0xe2
 3619 106d B50C0000 		.4byte	0xcb5
 3620 1071 0401     		.2byte	0x104
 3621 1073 1C       		.uleb128 0x1c
 3622 1074 746100   		.ascii	"ta\000"
 3623 1077 0E       		.byte	0xe
 3624 1078 EC       		.byte	0xec
 3625 1079 E00C0000 		.4byte	0xce0
 3626 107d 1001     		.2byte	0x110
 3627 107f 1B       		.uleb128 0x1b
 3628 1080 E6090000 		.4byte	.LASF192
 3629 1084 0E       		.byte	0xe
 3630 1085 F5       		.byte	0xf5
ARM GAS  C:\Users\tmj32\AppData\Local\Temp\ccepMVRX.s 			page 83


 3631 1086 180D0000 		.4byte	0xd18
 3632 108a 2001     		.2byte	0x120
 3633 108c 1D       		.uleb128 0x1d
 3634 108d 86060000 		.4byte	.LASF193
 3635 1091 0E       		.byte	0xe
 3636 1092 0601     		.2byte	0x106
 3637 1094 8C0D0000 		.4byte	0xd8c
 3638 1098 2C01     		.2byte	0x12c
 3639 109a 1D       		.uleb128 0x1d
 3640 109b 43030000 		.4byte	.LASF194
 3641 109f 0E       		.byte	0xe
 3642 10a0 0F01     		.2byte	0x10f
 3643 10a2 C40D0000 		.4byte	0xdc4
 3644 10a6 4C01     		.2byte	0x14c
 3645 10a8 1D       		.uleb128 0x1d
 3646 10a9 CC0B0000 		.4byte	.LASF195
 3647 10ad 0E       		.byte	0xe
 3648 10ae 1701     		.2byte	0x117
 3649 10b0 F30D0000 		.4byte	0xdf3
 3650 10b4 5801     		.2byte	0x158
 3651 10b6 1D       		.uleb128 0x1d
 3652 10b7 AA050000 		.4byte	.LASF196
 3653 10bb 0E       		.byte	0xe
 3654 10bc 2701     		.2byte	0x127
 3655 10be 5F0E0000 		.4byte	0xe5f
 3656 10c2 6001     		.2byte	0x160
 3657 10c4 1D       		.uleb128 0x1d
 3658 10c5 CF010000 		.4byte	.LASF197
 3659 10c9 0E       		.byte	0xe
 3660 10ca 3001     		.2byte	0x130
 3661 10cc 8F0E0000 		.4byte	0xe8f
 3662 10d0 7C01     		.2byte	0x17c
 3663 10d2 1D       		.uleb128 0x1d
 3664 10d3 A3020000 		.4byte	.LASF198
 3665 10d7 0E       		.byte	0xe
 3666 10d8 3801     		.2byte	0x138
 3667 10da BE0E0000 		.4byte	0xebe
 3668 10de 8801     		.2byte	0x188
 3669 10e0 1E       		.uleb128 0x1e
 3670 10e1 77696E00 		.ascii	"win\000"
 3671 10e5 0E       		.byte	0xe
 3672 10e6 4701     		.2byte	0x147
 3673 10e8 040F0000 		.4byte	0xf04
 3674 10ec 9001     		.2byte	0x190
 3675 10ee 00       		.byte	0
 3676 10ef 1A       		.uleb128 0x1a
 3677 10f0 A801     		.2byte	0x1a8
 3678 10f2 0E       		.byte	0xe
 3679 10f3 27       		.byte	0x27
 3680 10f4 06110000 		.4byte	0x1106
 3681 10f8 18       		.uleb128 0x18
 3682 10f9 03070000 		.4byte	.LASF199
 3683 10fd 0E       		.byte	0xe
 3684 10fe 4901     		.2byte	0x149
 3685 1100 4D0F0000 		.4byte	0xf4d
 3686 1104 00       		.byte	0
 3687 1105 00       		.byte	0
ARM GAS  C:\Users\tmj32\AppData\Local\Temp\ccepMVRX.s 			page 84


 3688 1106 12       		.uleb128 0x12
 3689 1107 B8030000 		.4byte	.LASF200
 3690 110b 0E       		.byte	0xe
 3691 110c 5401     		.2byte	0x154
 3692 110e EF100000 		.4byte	0x10ef
 3693 1112 1F       		.uleb128 0x1f
 3694 1113 70040000 		.4byte	.LASF201
 3695 1117 01       		.byte	0x1
 3696 1118 B001     		.2byte	0x1b0
 3697 111a 85020000 		.4byte	0x285
 3698 111e 00000000 		.4byte	.LFB5
 3699 1122 A4000000 		.4byte	.LFE5-.LFB5
 3700 1126 01       		.uleb128 0x1
 3701 1127 9C       		.byte	0x9c
 3702 1128 67110000 		.4byte	0x1167
 3703 112c 20       		.uleb128 0x20
 3704 112d 633100   		.ascii	"c1\000"
 3705 1130 01       		.byte	0x1
 3706 1131 B001     		.2byte	0x1b0
 3707 1133 85020000 		.4byte	0x285
 3708 1137 02       		.uleb128 0x2
 3709 1138 91       		.byte	0x91
 3710 1139 6C       		.sleb128 -20
 3711 113a 20       		.uleb128 0x20
 3712 113b 633200   		.ascii	"c2\000"
 3713 113e 01       		.byte	0x1
 3714 113f B001     		.2byte	0x1b0
 3715 1141 85020000 		.4byte	0x285
 3716 1145 02       		.uleb128 0x2
 3717 1146 91       		.byte	0x91
 3718 1147 68       		.sleb128 -24
 3719 1148 20       		.uleb128 0x20
 3720 1149 6D697800 		.ascii	"mix\000"
 3721 114d 01       		.byte	0x1
 3722 114e B001     		.2byte	0x1b0
 3723 1150 B8000000 		.4byte	0xb8
 3724 1154 02       		.uleb128 0x2
 3725 1155 91       		.byte	0x91
 3726 1156 67       		.sleb128 -25
 3727 1157 21       		.uleb128 0x21
 3728 1158 72657400 		.ascii	"ret\000"
 3729 115c 01       		.byte	0x1
 3730 115d B201     		.2byte	0x1b2
 3731 115f 85020000 		.4byte	0x285
 3732 1163 02       		.uleb128 0x2
 3733 1164 91       		.byte	0x91
 3734 1165 74       		.sleb128 -12
 3735 1166 00       		.byte	0
 3736 1167 22       		.uleb128 0x22
 3737 1168 CF0A0000 		.4byte	.LASF241
 3738 116c 02       		.byte	0x2
 3739 116d 69       		.byte	0x69
 3740 116e 00000000 		.4byte	.LFB31
 3741 1172 1E000000 		.4byte	.LFE31-.LFB31
 3742 1176 01       		.uleb128 0x1
 3743 1177 9C       		.byte	0x9c
 3744 1178 A7110000 		.4byte	0x11a7
ARM GAS  C:\Users\tmj32\AppData\Local\Temp\ccepMVRX.s 			page 85


 3745 117c 23       		.uleb128 0x23
 3746 117d D5000000 		.4byte	.LASF184
 3747 1181 02       		.byte	0x2
 3748 1182 69       		.byte	0x69
 3749 1183 A7110000 		.4byte	0x11a7
 3750 1187 02       		.uleb128 0x2
 3751 1188 91       		.byte	0x91
 3752 1189 74       		.sleb128 -12
 3753 118a 23       		.uleb128 0x23
 3754 118b 8F010000 		.4byte	.LASF51
 3755 118f 02       		.byte	0x2
 3756 1190 69       		.byte	0x69
 3757 1191 5C090000 		.4byte	0x95c
 3758 1195 02       		.uleb128 0x2
 3759 1196 91       		.byte	0x91
 3760 1197 73       		.sleb128 -13
 3761 1198 23       		.uleb128 0x23
 3762 1199 03070000 		.4byte	.LASF199
 3763 119d 02       		.byte	0x2
 3764 119e 69       		.byte	0x69
 3765 119f 49050000 		.4byte	0x549
 3766 11a3 02       		.uleb128 0x2
 3767 11a4 91       		.byte	0x91
 3768 11a5 6C       		.sleb128 -20
 3769 11a6 00       		.byte	0
 3770 11a7 0D       		.uleb128 0xd
 3771 11a8 04       		.byte	0x4
 3772 11a9 E2080000 		.4byte	0x8e2
 3773 11ad 24       		.uleb128 0x24
 3774 11ae 5E010000 		.4byte	.LASF202
 3775 11b2 02       		.byte	0x2
 3776 11b3 A3       		.byte	0xa3
 3777 11b4 D7080000 		.4byte	0x8d7
 3778 11b8 00000000 		.4byte	.LFB32
 3779 11bc 1C000000 		.4byte	.LFE32-.LFB32
 3780 11c0 01       		.uleb128 0x1
 3781 11c1 9C       		.byte	0x9c
 3782 11c2 E3110000 		.4byte	0x11e3
 3783 11c6 23       		.uleb128 0x23
 3784 11c7 D5000000 		.4byte	.LASF184
 3785 11cb 02       		.byte	0x2
 3786 11cc A3       		.byte	0xa3
 3787 11cd E3110000 		.4byte	0x11e3
 3788 11d1 02       		.uleb128 0x2
 3789 11d2 91       		.byte	0x91
 3790 11d3 74       		.sleb128 -12
 3791 11d4 23       		.uleb128 0x23
 3792 11d5 8F010000 		.4byte	.LASF51
 3793 11d9 02       		.byte	0x2
 3794 11da A3       		.byte	0xa3
 3795 11db 5C090000 		.4byte	0x95c
 3796 11df 02       		.uleb128 0x2
 3797 11e0 91       		.byte	0x91
 3798 11e1 73       		.sleb128 -13
 3799 11e2 00       		.byte	0
 3800 11e3 0D       		.uleb128 0xd
 3801 11e4 04       		.byte	0x4
ARM GAS  C:\Users\tmj32\AppData\Local\Temp\ccepMVRX.s 			page 86


 3802 11e5 E9110000 		.4byte	0x11e9
 3803 11e9 0E       		.uleb128 0xe
 3804 11ea E2080000 		.4byte	0x8e2
 3805 11ee 25       		.uleb128 0x25
 3806 11ef 6B070000 		.4byte	.LASF212
 3807 11f3 03       		.byte	0x3
 3808 11f4 39       		.byte	0x39
 3809 11f5 A7110000 		.4byte	0x11a7
 3810 11f9 00000000 		.4byte	.LFB33
 3811 11fd 08010000 		.4byte	.LFE33-.LFB33
 3812 1201 01       		.uleb128 0x1
 3813 1202 9C       		.byte	0x9c
 3814 1203 73120000 		.4byte	0x1273
 3815 1207 26       		.uleb128 0x26
 3816 1208 70617200 		.ascii	"par\000"
 3817 120c 03       		.byte	0x3
 3818 120d 39       		.byte	0x39
 3819 120e A7110000 		.4byte	0x11a7
 3820 1212 02       		.uleb128 0x2
 3821 1213 91       		.byte	0x91
 3822 1214 64       		.sleb128 -28
 3823 1215 23       		.uleb128 0x23
 3824 1216 D8010000 		.4byte	.LASF203
 3825 121a 03       		.byte	0x3
 3826 121b 39       		.byte	0x39
 3827 121c E3110000 		.4byte	0x11e3
 3828 1220 02       		.uleb128 0x2
 3829 1221 91       		.byte	0x91
 3830 1222 60       		.sleb128 -32
 3831 1223 27       		.uleb128 0x27
 3832 1224 EE090000 		.4byte	.LASF204
 3833 1228 03       		.byte	0x3
 3834 1229 3E       		.byte	0x3e
 3835 122a A7110000 		.4byte	0x11a7
 3836 122e 02       		.uleb128 0x2
 3837 122f 91       		.byte	0x91
 3838 1230 74       		.sleb128 -12
 3839 1231 28       		.uleb128 0x28
 3840 1232 65787400 		.ascii	"ext\000"
 3841 1236 03       		.byte	0x3
 3842 1237 45       		.byte	0x45
 3843 1238 73120000 		.4byte	0x1273
 3844 123c 02       		.uleb128 0x2
 3845 123d 91       		.byte	0x91
 3846 123e 70       		.sleb128 -16
 3847 123f 29       		.uleb128 0x29
 3848 1240 80000000 		.4byte	.LBB2
 3849 1244 32000000 		.4byte	.LBE2-.LBB2
 3850 1248 5A120000 		.4byte	0x125a
 3851 124c 28       		.uleb128 0x28
 3852 124d 746800   		.ascii	"th\000"
 3853 1250 03       		.byte	0x3
 3854 1251 5A       		.byte	0x5a
 3855 1252 79120000 		.4byte	0x1279
 3856 1256 02       		.uleb128 0x2
 3857 1257 91       		.byte	0x91
 3858 1258 6C       		.sleb128 -20
ARM GAS  C:\Users\tmj32\AppData\Local\Temp\ccepMVRX.s 			page 87


 3859 1259 00       		.byte	0
 3860 125a 2A       		.uleb128 0x2a
 3861 125b B2000000 		.4byte	.LBB3
 3862 125f 3C000000 		.4byte	.LBE3-.LBB3
 3863 1263 27       		.uleb128 0x27
 3864 1264 440A0000 		.4byte	.LASF205
 3865 1268 03       		.byte	0x3
 3866 1269 63       		.byte	0x63
 3867 126a 73120000 		.4byte	0x1273
 3868 126e 02       		.uleb128 0x2
 3869 126f 91       		.byte	0x91
 3870 1270 68       		.sleb128 -24
 3871 1271 00       		.byte	0
 3872 1272 00       		.byte	0
 3873 1273 0D       		.uleb128 0xd
 3874 1274 04       		.byte	0x4
 3875 1275 3E090000 		.4byte	0x93e
 3876 1279 0D       		.uleb128 0xd
 3877 127a 04       		.byte	0x4
 3878 127b 06110000 		.4byte	0x1106
 3879 127f 2B       		.uleb128 0x2b
 3880 1280 CB030000 		.4byte	.LASF207
 3881 1284 03       		.byte	0x3
 3882 1285 7C       		.byte	0x7c
 3883 1286 00000000 		.4byte	.LFB34
 3884 128a 60000000 		.4byte	.LFE34-.LFB34
 3885 128e 01       		.uleb128 0x1
 3886 128f 9C       		.byte	0x9c
 3887 1290 BF120000 		.4byte	0x12bf
 3888 1294 23       		.uleb128 0x23
 3889 1295 D5000000 		.4byte	.LASF184
 3890 1299 03       		.byte	0x3
 3891 129a 7C       		.byte	0x7c
 3892 129b A7110000 		.4byte	0x11a7
 3893 129f 02       		.uleb128 0x2
 3894 12a0 91       		.byte	0x91
 3895 12a1 6C       		.sleb128 -20
 3896 12a2 23       		.uleb128 0x23
 3897 12a3 A9020000 		.4byte	.LASF206
 3898 12a7 03       		.byte	0x3
 3899 12a8 7C       		.byte	0x7c
 3900 12a9 C3000000 		.4byte	0xc3
 3901 12ad 02       		.uleb128 0x2
 3902 12ae 91       		.byte	0x91
 3903 12af 6A       		.sleb128 -22
 3904 12b0 28       		.uleb128 0x28
 3905 12b1 65787400 		.ascii	"ext\000"
 3906 12b5 03       		.byte	0x3
 3907 12b6 80       		.byte	0x80
 3908 12b7 73120000 		.4byte	0x1273
 3909 12bb 02       		.uleb128 0x2
 3910 12bc 91       		.byte	0x91
 3911 12bd 74       		.sleb128 -12
 3912 12be 00       		.byte	0
 3913 12bf 2B       		.uleb128 0x2b
 3914 12c0 EE0A0000 		.4byte	.LASF208
 3915 12c4 03       		.byte	0x3
ARM GAS  C:\Users\tmj32\AppData\Local\Temp\ccepMVRX.s 			page 88


 3916 12c5 8E       		.byte	0x8e
 3917 12c6 00000000 		.4byte	.LFB35
 3918 12ca 94000000 		.4byte	.LFE35-.LFB35
 3919 12ce 01       		.uleb128 0x1
 3920 12cf 9C       		.byte	0x9c
 3921 12d0 0D130000 		.4byte	0x130d
 3922 12d4 23       		.uleb128 0x23
 3923 12d5 D5000000 		.4byte	.LASF184
 3924 12d9 03       		.byte	0x3
 3925 12da 8E       		.byte	0x8e
 3926 12db A7110000 		.4byte	0x11a7
 3927 12df 02       		.uleb128 0x2
 3928 12e0 91       		.byte	0x91
 3929 12e1 6C       		.sleb128 -20
 3930 12e2 26       		.uleb128 0x26
 3931 12e3 6D696E00 		.ascii	"min\000"
 3932 12e7 03       		.byte	0x3
 3933 12e8 8E       		.byte	0x8e
 3934 12e9 C3000000 		.4byte	0xc3
 3935 12ed 02       		.uleb128 0x2
 3936 12ee 91       		.byte	0x91
 3937 12ef 6A       		.sleb128 -22
 3938 12f0 26       		.uleb128 0x26
 3939 12f1 6D617800 		.ascii	"max\000"
 3940 12f5 03       		.byte	0x3
 3941 12f6 8E       		.byte	0x8e
 3942 12f7 C3000000 		.4byte	0xc3
 3943 12fb 02       		.uleb128 0x2
 3944 12fc 91       		.byte	0x91
 3945 12fd 68       		.sleb128 -24
 3946 12fe 28       		.uleb128 0x28
 3947 12ff 65787400 		.ascii	"ext\000"
 3948 1303 03       		.byte	0x3
 3949 1304 92       		.byte	0x92
 3950 1305 73120000 		.4byte	0x1273
 3951 1309 02       		.uleb128 0x2
 3952 130a 91       		.byte	0x91
 3953 130b 74       		.sleb128 -12
 3954 130c 00       		.byte	0
 3955 130d 2B       		.uleb128 0x2b
 3956 130e 15060000 		.4byte	.LASF209
 3957 1312 03       		.byte	0x3
 3958 1313 A8       		.byte	0xa8
 3959 1314 00000000 		.4byte	.LFB36
 3960 1318 48000000 		.4byte	.LFE36-.LFB36
 3961 131c 01       		.uleb128 0x1
 3962 131d 9C       		.byte	0x9c
 3963 131e 5B130000 		.4byte	0x135b
 3964 1322 23       		.uleb128 0x23
 3965 1323 D5000000 		.4byte	.LASF184
 3966 1327 03       		.byte	0x3
 3967 1328 A8       		.byte	0xa8
 3968 1329 A7110000 		.4byte	0x11a7
 3969 132d 02       		.uleb128 0x2
 3970 132e 91       		.byte	0x91
 3971 132f 6C       		.sleb128 -20
 3972 1330 23       		.uleb128 0x23
ARM GAS  C:\Users\tmj32\AppData\Local\Temp\ccepMVRX.s 			page 89


 3973 1331 6A040000 		.4byte	.LASF210
 3974 1335 03       		.byte	0x3
 3975 1336 A8       		.byte	0xa8
 3976 1337 CE000000 		.4byte	0xce
 3977 133b 02       		.uleb128 0x2
 3978 133c 91       		.byte	0x91
 3979 133d 6A       		.sleb128 -22
 3980 133e 23       		.uleb128 0x23
 3981 133f 61040000 		.4byte	.LASF148
 3982 1343 03       		.byte	0x3
 3983 1344 A8       		.byte	0xa8
 3984 1345 CE000000 		.4byte	0xce
 3985 1349 02       		.uleb128 0x2
 3986 134a 91       		.byte	0x91
 3987 134b 68       		.sleb128 -24
 3988 134c 28       		.uleb128 0x28
 3989 134d 65787400 		.ascii	"ext\000"
 3990 1351 03       		.byte	0x3
 3991 1352 AC       		.byte	0xac
 3992 1353 73120000 		.4byte	0x1273
 3993 1357 02       		.uleb128 0x2
 3994 1358 91       		.byte	0x91
 3995 1359 74       		.sleb128 -12
 3996 135a 00       		.byte	0
 3997 135b 2B       		.uleb128 0x2b
 3998 135c 5A0B0000 		.4byte	.LASF211
 3999 1360 03       		.byte	0x3
 4000 1361 BA       		.byte	0xba
 4001 1362 00000000 		.4byte	.LFB37
 4002 1366 34000000 		.4byte	.LFE37-.LFB37
 4003 136a 01       		.uleb128 0x1
 4004 136b 9C       		.byte	0x9c
 4005 136c 9B130000 		.4byte	0x139b
 4006 1370 23       		.uleb128 0x23
 4007 1371 D5000000 		.4byte	.LASF184
 4008 1375 03       		.byte	0x3
 4009 1376 BA       		.byte	0xba
 4010 1377 A7110000 		.4byte	0x11a7
 4011 137b 02       		.uleb128 0x2
 4012 137c 91       		.byte	0x91
 4013 137d 6C       		.sleb128 -20
 4014 137e 23       		.uleb128 0x23
 4015 137f 6A040000 		.4byte	.LASF210
 4016 1383 03       		.byte	0x3
 4017 1384 BA       		.byte	0xba
 4018 1385 CE000000 		.4byte	0xce
 4019 1389 02       		.uleb128 0x2
 4020 138a 91       		.byte	0x91
 4021 138b 6A       		.sleb128 -22
 4022 138c 28       		.uleb128 0x28
 4023 138d 65787400 		.ascii	"ext\000"
 4024 1391 03       		.byte	0x3
 4025 1392 BC       		.byte	0xbc
 4026 1393 73120000 		.4byte	0x1273
 4027 1397 02       		.uleb128 0x2
 4028 1398 91       		.byte	0x91
 4029 1399 74       		.sleb128 -12
ARM GAS  C:\Users\tmj32\AppData\Local\Temp\ccepMVRX.s 			page 90


 4030 139a 00       		.byte	0
 4031 139b 25       		.uleb128 0x25
 4032 139c 1A080000 		.4byte	.LASF213
 4033 13a0 03       		.byte	0x3
 4034 13a1 CD       		.byte	0xcd
 4035 13a2 C3000000 		.4byte	0xc3
 4036 13a6 00000000 		.4byte	.LFB38
 4037 13aa 1E000000 		.4byte	.LFE38-.LFB38
 4038 13ae 01       		.uleb128 0x1
 4039 13af 9C       		.byte	0x9c
 4040 13b0 D1130000 		.4byte	0x13d1
 4041 13b4 23       		.uleb128 0x23
 4042 13b5 D5000000 		.4byte	.LASF184
 4043 13b9 03       		.byte	0x3
 4044 13ba CD       		.byte	0xcd
 4045 13bb E3110000 		.4byte	0x11e3
 4046 13bf 02       		.uleb128 0x2
 4047 13c0 91       		.byte	0x91
 4048 13c1 6C       		.sleb128 -20
 4049 13c2 28       		.uleb128 0x28
 4050 13c3 65787400 		.ascii	"ext\000"
 4051 13c7 03       		.byte	0x3
 4052 13c8 D1       		.byte	0xd1
 4053 13c9 73120000 		.4byte	0x1273
 4054 13cd 02       		.uleb128 0x2
 4055 13ce 91       		.byte	0x91
 4056 13cf 74       		.sleb128 -12
 4057 13d0 00       		.byte	0
 4058 13d1 25       		.uleb128 0x25
 4059 13d2 4F030000 		.4byte	.LASF214
 4060 13d6 03       		.byte	0x3
 4061 13d7 DA       		.byte	0xda
 4062 13d8 C3000000 		.4byte	0xc3
 4063 13dc 00000000 		.4byte	.LFB39
 4064 13e0 1E000000 		.4byte	.LFE39-.LFB39
 4065 13e4 01       		.uleb128 0x1
 4066 13e5 9C       		.byte	0x9c
 4067 13e6 07140000 		.4byte	0x1407
 4068 13ea 23       		.uleb128 0x23
 4069 13eb D5000000 		.4byte	.LASF184
 4070 13ef 03       		.byte	0x3
 4071 13f0 DA       		.byte	0xda
 4072 13f1 E3110000 		.4byte	0x11e3
 4073 13f5 02       		.uleb128 0x2
 4074 13f6 91       		.byte	0x91
 4075 13f7 6C       		.sleb128 -20
 4076 13f8 28       		.uleb128 0x28
 4077 13f9 65787400 		.ascii	"ext\000"
 4078 13fd 03       		.byte	0x3
 4079 13fe DE       		.byte	0xde
 4080 13ff 73120000 		.4byte	0x1273
 4081 1403 02       		.uleb128 0x2
 4082 1404 91       		.byte	0x91
 4083 1405 74       		.sleb128 -12
 4084 1406 00       		.byte	0
 4085 1407 25       		.uleb128 0x25
 4086 1408 EB080000 		.4byte	.LASF215
ARM GAS  C:\Users\tmj32\AppData\Local\Temp\ccepMVRX.s 			page 91


 4087 140c 03       		.byte	0x3
 4088 140d E7       		.byte	0xe7
 4089 140e C3000000 		.4byte	0xc3
 4090 1412 00000000 		.4byte	.LFB40
 4091 1416 1E000000 		.4byte	.LFE40-.LFB40
 4092 141a 01       		.uleb128 0x1
 4093 141b 9C       		.byte	0x9c
 4094 141c 3D140000 		.4byte	0x143d
 4095 1420 23       		.uleb128 0x23
 4096 1421 D5000000 		.4byte	.LASF184
 4097 1425 03       		.byte	0x3
 4098 1426 E7       		.byte	0xe7
 4099 1427 E3110000 		.4byte	0x11e3
 4100 142b 02       		.uleb128 0x2
 4101 142c 91       		.byte	0x91
 4102 142d 6C       		.sleb128 -20
 4103 142e 28       		.uleb128 0x28
 4104 142f 65787400 		.ascii	"ext\000"
 4105 1433 03       		.byte	0x3
 4106 1434 EB       		.byte	0xeb
 4107 1435 73120000 		.4byte	0x1273
 4108 1439 02       		.uleb128 0x2
 4109 143a 91       		.byte	0x91
 4110 143b 74       		.sleb128 -12
 4111 143c 00       		.byte	0
 4112 143d 25       		.uleb128 0x25
 4113 143e C2060000 		.4byte	.LASF216
 4114 1442 03       		.byte	0x3
 4115 1443 F4       		.byte	0xf4
 4116 1444 CE000000 		.4byte	0xce
 4117 1448 00000000 		.4byte	.LFB41
 4118 144c 1C000000 		.4byte	.LFE41-.LFB41
 4119 1450 01       		.uleb128 0x1
 4120 1451 9C       		.byte	0x9c
 4121 1452 73140000 		.4byte	0x1473
 4122 1456 23       		.uleb128 0x23
 4123 1457 D5000000 		.4byte	.LASF184
 4124 145b 03       		.byte	0x3
 4125 145c F4       		.byte	0xf4
 4126 145d E3110000 		.4byte	0x11e3
 4127 1461 02       		.uleb128 0x2
 4128 1462 91       		.byte	0x91
 4129 1463 6C       		.sleb128 -20
 4130 1464 28       		.uleb128 0x28
 4131 1465 65787400 		.ascii	"ext\000"
 4132 1469 03       		.byte	0x3
 4133 146a F8       		.byte	0xf8
 4134 146b 73120000 		.4byte	0x1273
 4135 146f 02       		.uleb128 0x2
 4136 1470 91       		.byte	0x91
 4137 1471 74       		.sleb128 -12
 4138 1472 00       		.byte	0
 4139 1473 2C       		.uleb128 0x2c
 4140 1474 F2030000 		.4byte	.LASF217
 4141 1478 03       		.byte	0x3
 4142 1479 0101     		.2byte	0x101
 4143 147b CE000000 		.4byte	0xce
ARM GAS  C:\Users\tmj32\AppData\Local\Temp\ccepMVRX.s 			page 92


 4144 147f 00000000 		.4byte	.LFB42
 4145 1483 1C000000 		.4byte	.LFE42-.LFB42
 4146 1487 01       		.uleb128 0x1
 4147 1488 9C       		.byte	0x9c
 4148 1489 AC140000 		.4byte	0x14ac
 4149 148d 2D       		.uleb128 0x2d
 4150 148e D5000000 		.4byte	.LASF184
 4151 1492 03       		.byte	0x3
 4152 1493 0101     		.2byte	0x101
 4153 1495 E3110000 		.4byte	0x11e3
 4154 1499 02       		.uleb128 0x2
 4155 149a 91       		.byte	0x91
 4156 149b 6C       		.sleb128 -20
 4157 149c 21       		.uleb128 0x21
 4158 149d 65787400 		.ascii	"ext\000"
 4159 14a1 03       		.byte	0x3
 4160 14a2 0501     		.2byte	0x105
 4161 14a4 73120000 		.4byte	0x1273
 4162 14a8 02       		.uleb128 0x2
 4163 14a9 91       		.byte	0x91
 4164 14aa 74       		.sleb128 -12
 4165 14ab 00       		.byte	0
 4166 14ac 2C       		.uleb128 0x2c
 4167 14ad F8020000 		.4byte	.LASF218
 4168 14b1 03       		.byte	0x3
 4169 14b2 0E01     		.2byte	0x10e
 4170 14b4 CE000000 		.4byte	0xce
 4171 14b8 00000000 		.4byte	.LFB43
 4172 14bc 1C000000 		.4byte	.LFE43-.LFB43
 4173 14c0 01       		.uleb128 0x1
 4174 14c1 9C       		.byte	0x9c
 4175 14c2 E5140000 		.4byte	0x14e5
 4176 14c6 2D       		.uleb128 0x2d
 4177 14c7 D5000000 		.4byte	.LASF184
 4178 14cb 03       		.byte	0x3
 4179 14cc 0E01     		.2byte	0x10e
 4180 14ce A7110000 		.4byte	0x11a7
 4181 14d2 02       		.uleb128 0x2
 4182 14d3 91       		.byte	0x91
 4183 14d4 6C       		.sleb128 -20
 4184 14d5 21       		.uleb128 0x21
 4185 14d6 65787400 		.ascii	"ext\000"
 4186 14da 03       		.byte	0x3
 4187 14db 1001     		.2byte	0x110
 4188 14dd 73120000 		.4byte	0x1273
 4189 14e1 02       		.uleb128 0x2
 4190 14e2 91       		.byte	0x91
 4191 14e3 74       		.sleb128 -12
 4192 14e4 00       		.byte	0
 4193 14e5 2E       		.uleb128 0x2e
 4194 14e6 29060000 		.4byte	.LASF219
 4195 14ea 03       		.byte	0x3
 4196 14eb 2201     		.2byte	0x122
 4197 14ed D5010000 		.4byte	0x1d5
 4198 14f1 00000000 		.4byte	.LFB44
 4199 14f5 F4020000 		.4byte	.LFE44-.LFB44
 4200 14f9 01       		.uleb128 0x1
ARM GAS  C:\Users\tmj32\AppData\Local\Temp\ccepMVRX.s 			page 93


 4201 14fa 9C       		.byte	0x9c
 4202 14fb 4F160000 		.4byte	0x164f
 4203 14ff 2D       		.uleb128 0x2d
 4204 1500 D5000000 		.4byte	.LASF184
 4205 1504 03       		.byte	0x3
 4206 1505 2201     		.2byte	0x122
 4207 1507 A7110000 		.4byte	0x11a7
 4208 150b 03       		.uleb128 0x3
 4209 150c 91       		.byte	0x91
 4210 150d F47E     		.sleb128 -140
 4211 150f 2D       		.uleb128 0x2d
 4212 1510 A5050000 		.4byte	.LASF220
 4213 1514 03       		.byte	0x3
 4214 1515 2201     		.2byte	0x122
 4215 1517 C7050000 		.4byte	0x5c7
 4216 151b 03       		.uleb128 0x3
 4217 151c 91       		.byte	0x91
 4218 151d F07E     		.sleb128 -144
 4219 151f 2D       		.uleb128 0x2d
 4220 1520 BF090000 		.4byte	.LASF221
 4221 1524 03       		.byte	0x3
 4222 1525 2201     		.2byte	0x122
 4223 1527 39070000 		.4byte	0x739
 4224 152b 03       		.uleb128 0x3
 4225 152c 91       		.byte	0x91
 4226 152d EF7E     		.sleb128 -145
 4227 152f 2A       		.uleb128 0x2a
 4228 1530 20000000 		.4byte	.LBB4
 4229 1534 CA020000 		.4byte	.LBE4-.LBB4
 4230 1538 21       		.uleb128 0x21
 4231 1539 65787400 		.ascii	"ext\000"
 4232 153d 03       		.byte	0x3
 4233 153e 2A01     		.2byte	0x12a
 4234 1540 73120000 		.4byte	0x1273
 4235 1544 02       		.uleb128 0x2
 4236 1545 91       		.byte	0x91
 4237 1546 70       		.sleb128 -16
 4238 1547 2F       		.uleb128 0x2f
 4239 1548 03070000 		.4byte	.LASF199
 4240 154c 03       		.byte	0x3
 4241 154d 2B01     		.2byte	0x12b
 4242 154f D7080000 		.4byte	0x8d7
 4243 1553 02       		.uleb128 0x2
 4244 1554 91       		.byte	0x91
 4245 1555 6C       		.sleb128 -20
 4246 1556 2F       		.uleb128 0x2f
 4247 1557 C20B0000 		.4byte	.LASF104
 4248 155b 03       		.byte	0x3
 4249 155c 2C01     		.2byte	0x12c
 4250 155e 91020000 		.4byte	0x291
 4251 1562 02       		.uleb128 0x2
 4252 1563 91       		.byte	0x91
 4253 1564 6B       		.sleb128 -21
 4254 1565 2F       		.uleb128 0x2f
 4255 1566 47060000 		.4byte	.LASF222
 4256 156a 03       		.byte	0x3
 4257 156b 2D01     		.2byte	0x12d
ARM GAS  C:\Users\tmj32\AppData\Local\Temp\ccepMVRX.s 			page 94


 4258 156d 3E050000 		.4byte	0x53e
 4259 1571 03       		.uleb128 0x3
 4260 1572 91       		.byte	0x91
 4261 1573 FC7E     		.sleb128 -132
 4262 1575 2F       		.uleb128 0x2f
 4263 1576 9C040000 		.4byte	.LASF223
 4264 157a 03       		.byte	0x3
 4265 157b 3701     		.2byte	0x137
 4266 157d EF000000 		.4byte	0xef
 4267 1581 02       		.uleb128 0x2
 4268 1582 91       		.byte	0x91
 4269 1583 68       		.sleb128 -24
 4270 1584 2F       		.uleb128 0x2f
 4271 1585 96060000 		.4byte	.LASF224
 4272 1589 03       		.byte	0x3
 4273 158a 3801     		.2byte	0x138
 4274 158c EF000000 		.4byte	0xef
 4275 1590 02       		.uleb128 0x2
 4276 1591 91       		.byte	0x91
 4277 1592 76       		.sleb128 -10
 4278 1593 2F       		.uleb128 0x2f
 4279 1594 37010000 		.4byte	.LASF225
 4280 1598 03       		.byte	0x3
 4281 1599 3B01     		.2byte	0x13b
 4282 159b EF000000 		.4byte	0xef
 4283 159f 02       		.uleb128 0x2
 4284 15a0 91       		.byte	0x91
 4285 15a1 66       		.sleb128 -26
 4286 15a2 2F       		.uleb128 0x2f
 4287 15a3 920A0000 		.4byte	.LASF226
 4288 15a7 03       		.byte	0x3
 4289 15a8 3C01     		.2byte	0x13c
 4290 15aa EF000000 		.4byte	0xef
 4291 15ae 02       		.uleb128 0x2
 4292 15af 91       		.byte	0x91
 4293 15b0 64       		.sleb128 -28
 4294 15b1 2F       		.uleb128 0x2f
 4295 15b2 40000000 		.4byte	.LASF147
 4296 15b6 03       		.byte	0x3
 4297 15b7 3D01     		.2byte	0x13d
 4298 15b9 C3000000 		.4byte	0xc3
 4299 15bd 02       		.uleb128 0x2
 4300 15be 91       		.byte	0x91
 4301 15bf 62       		.sleb128 -30
 4302 15c0 2F       		.uleb128 0x2f
 4303 15c1 980A0000 		.4byte	.LASF227
 4304 15c5 03       		.byte	0x3
 4305 15c6 3E01     		.2byte	0x13e
 4306 15c8 C3000000 		.4byte	0xc3
 4307 15cc 02       		.uleb128 0x2
 4308 15cd 91       		.byte	0x91
 4309 15ce 60       		.sleb128 -32
 4310 15cf 21       		.uleb128 0x21
 4311 15d0 6900     		.ascii	"i\000"
 4312 15d2 03       		.byte	0x3
 4313 15d3 4001     		.2byte	0x140
 4314 15d5 B8000000 		.4byte	0xb8
ARM GAS  C:\Users\tmj32\AppData\Local\Temp\ccepMVRX.s 			page 95


 4315 15d9 02       		.uleb128 0x2
 4316 15da 91       		.byte	0x91
 4317 15db 75       		.sleb128 -11
 4318 15dc 2A       		.uleb128 0x2a
 4319 15dd 4A010000 		.4byte	.LBB5
 4320 15e1 84010000 		.4byte	.LBE5-.LBB5
 4321 15e5 2F       		.uleb128 0x2f
 4322 15e6 6A040000 		.4byte	.LASF210
 4323 15ea 03       		.byte	0x3
 4324 15eb 4A01     		.2byte	0x14a
 4325 15ed C3000000 		.4byte	0xc3
 4326 15f1 02       		.uleb128 0x2
 4327 15f2 91       		.byte	0x91
 4328 15f3 5E       		.sleb128 -34
 4329 15f4 2F       		.uleb128 0x2f
 4330 15f5 11040000 		.4byte	.LASF228
 4331 15f9 03       		.byte	0x3
 4332 15fa 4C01     		.2byte	0x14c
 4333 15fc EF000000 		.4byte	0xef
 4334 1600 02       		.uleb128 0x2
 4335 1601 91       		.byte	0x91
 4336 1602 5C       		.sleb128 -36
 4337 1603 2F       		.uleb128 0x2f
 4338 1604 DD050000 		.4byte	.LASF229
 4339 1608 03       		.byte	0x3
 4340 1609 4D01     		.2byte	0x14d
 4341 160b EF000000 		.4byte	0xef
 4342 160f 02       		.uleb128 0x2
 4343 1610 91       		.byte	0x91
 4344 1611 5A       		.sleb128 -38
 4345 1612 2F       		.uleb128 0x2f
 4346 1613 CA010000 		.4byte	.LASF230
 4347 1617 03       		.byte	0x3
 4348 1618 4E01     		.2byte	0x14e
 4349 161a EF000000 		.4byte	0xef
 4350 161e 02       		.uleb128 0x2
 4351 161f 91       		.byte	0x91
 4352 1620 58       		.sleb128 -40
 4353 1621 2F       		.uleb128 0x2f
 4354 1622 E4060000 		.4byte	.LASF231
 4355 1626 03       		.byte	0x3
 4356 1627 4F01     		.2byte	0x14f
 4357 1629 EF000000 		.4byte	0xef
 4358 162d 02       		.uleb128 0x2
 4359 162e 91       		.byte	0x91
 4360 162f 56       		.sleb128 -42
 4361 1630 21       		.uleb128 0x21
 4362 1631 703100   		.ascii	"p1\000"
 4363 1634 03       		.byte	0x3
 4364 1635 5701     		.2byte	0x157
 4365 1637 C8020000 		.4byte	0x2c8
 4366 163b 02       		.uleb128 0x2
 4367 163c 91       		.byte	0x91
 4368 163d 50       		.sleb128 -48
 4369 163e 21       		.uleb128 0x21
 4370 163f 703200   		.ascii	"p2\000"
 4371 1642 03       		.byte	0x3
ARM GAS  C:\Users\tmj32\AppData\Local\Temp\ccepMVRX.s 			page 96


 4372 1643 5801     		.2byte	0x158
 4373 1645 C8020000 		.4byte	0x2c8
 4374 1649 02       		.uleb128 0x2
 4375 164a 91       		.byte	0x91
 4376 164b 4C       		.sleb128 -52
 4377 164c 00       		.byte	0
 4378 164d 00       		.byte	0
 4379 164e 00       		.byte	0
 4380 164f 2E       		.uleb128 0x2e
 4381 1650 E3050000 		.4byte	.LASF232
 4382 1654 03       		.byte	0x3
 4383 1655 7901     		.2byte	0x179
 4384 1657 68050000 		.4byte	0x568
 4385 165b 00000000 		.4byte	.LFB45
 4386 165f 88000000 		.4byte	.LFE45-.LFB45
 4387 1663 01       		.uleb128 0x1
 4388 1664 9C       		.byte	0x9c
 4389 1665 BF160000 		.4byte	0x16bf
 4390 1669 2D       		.uleb128 0x2d
 4391 166a D5000000 		.4byte	.LASF184
 4392 166e 03       		.byte	0x3
 4393 166f 7901     		.2byte	0x179
 4394 1671 A7110000 		.4byte	0x11a7
 4395 1675 02       		.uleb128 0x2
 4396 1676 91       		.byte	0x91
 4397 1677 6C       		.sleb128 -20
 4398 1678 2D       		.uleb128 0x2d
 4399 1679 4E010000 		.4byte	.LASF233
 4400 167d 03       		.byte	0x3
 4401 167e 7901     		.2byte	0x179
 4402 1680 1F080000 		.4byte	0x81f
 4403 1684 02       		.uleb128 0x2
 4404 1685 91       		.byte	0x91
 4405 1686 6B       		.sleb128 -21
 4406 1687 2D       		.uleb128 0x2d
 4407 1688 3F040000 		.4byte	.LASF234
 4408 168c 03       		.byte	0x3
 4409 168d 7901     		.2byte	0x179
 4410 168f FA000000 		.4byte	0xfa
 4411 1693 02       		.uleb128 0x2
 4412 1694 91       		.byte	0x91
 4413 1695 64       		.sleb128 -28
 4414 1696 21       		.uleb128 0x21
 4415 1697 72657300 		.ascii	"res\000"
 4416 169b 03       		.byte	0x3
 4417 169c 7B01     		.2byte	0x17b
 4418 169e 68050000 		.4byte	0x568
 4419 16a2 02       		.uleb128 0x2
 4420 16a3 91       		.byte	0x91
 4421 16a4 77       		.sleb128 -9
 4422 16a5 2A       		.uleb128 0x2a
 4423 16a6 54000000 		.4byte	.LBB6
 4424 16aa 22000000 		.4byte	.LBE6-.LBB6
 4425 16ae 2F       		.uleb128 0x2f
 4426 16af 03070000 		.4byte	.LASF199
 4427 16b3 03       		.byte	0x3
 4428 16b4 8701     		.2byte	0x187
ARM GAS  C:\Users\tmj32\AppData\Local\Temp\ccepMVRX.s 			page 97


 4429 16b6 D7080000 		.4byte	0x8d7
 4430 16ba 02       		.uleb128 0x2
 4431 16bb 91       		.byte	0x91
 4432 16bc 70       		.sleb128 -16
 4433 16bd 00       		.byte	0
 4434 16be 00       		.byte	0
 4435 16bf 1F       		.uleb128 0x1f
 4436 16c0 E9070000 		.4byte	.LASF235
 4437 16c4 03       		.byte	0x3
 4438 16c5 9301     		.2byte	0x193
 4439 16c7 EF000000 		.4byte	0xef
 4440 16cb 00000000 		.4byte	.LFB46
 4441 16cf 48000000 		.4byte	.LFE46-.LFB46
 4442 16d3 01       		.uleb128 0x1
 4443 16d4 9C       		.byte	0x9c
 4444 16d5 F6160000 		.4byte	0x16f6
 4445 16d9 20       		.uleb128 0x20
 4446 16da 7800     		.ascii	"x\000"
 4447 16dc 03       		.byte	0x3
 4448 16dd 9301     		.2byte	0x193
 4449 16df D9000000 		.4byte	0xd9
 4450 16e3 02       		.uleb128 0x2
 4451 16e4 91       		.byte	0x91
 4452 16e5 6C       		.sleb128 -20
 4453 16e6 2F       		.uleb128 0x2f
 4454 16e7 720A0000 		.4byte	.LASF236
 4455 16eb 03       		.byte	0x3
 4456 16ec 9601     		.2byte	0x196
 4457 16ee D5010000 		.4byte	0x1d5
 4458 16f2 02       		.uleb128 0x2
 4459 16f3 91       		.byte	0x91
 4460 16f4 77       		.sleb128 -9
 4461 16f5 00       		.byte	0
 4462 16f6 27       		.uleb128 0x27
 4463 16f7 0A080000 		.4byte	.LASF237
 4464 16fb 03       		.byte	0x3
 4465 16fc 28       		.byte	0x28
 4466 16fd 2A080000 		.4byte	0x82a
 4467 1701 05       		.uleb128 0x5
 4468 1702 03       		.byte	0x3
 4469 1703 00000000 		.4byte	ancestor_signal
 4470 1707 30       		.uleb128 0x30
 4471 1708 87000000 		.4byte	.LASF242
 4472 170c 09       		.byte	0x9
 4473 170d 1201     		.2byte	0x112
 4474 170f 3E050000 		.4byte	0x53e
 4475 1713 00       		.byte	0
 4476              		.section	.debug_abbrev,"",%progbits
 4477              	.Ldebug_abbrev0:
 4478 0000 01       		.uleb128 0x1
 4479 0001 11       		.uleb128 0x11
 4480 0002 01       		.byte	0x1
 4481 0003 25       		.uleb128 0x25
 4482 0004 0E       		.uleb128 0xe
 4483 0005 13       		.uleb128 0x13
 4484 0006 0B       		.uleb128 0xb
 4485 0007 03       		.uleb128 0x3
ARM GAS  C:\Users\tmj32\AppData\Local\Temp\ccepMVRX.s 			page 98


 4486 0008 0E       		.uleb128 0xe
 4487 0009 1B       		.uleb128 0x1b
 4488 000a 0E       		.uleb128 0xe
 4489 000b 55       		.uleb128 0x55
 4490 000c 17       		.uleb128 0x17
 4491 000d 11       		.uleb128 0x11
 4492 000e 01       		.uleb128 0x1
 4493 000f 10       		.uleb128 0x10
 4494 0010 17       		.uleb128 0x17
 4495 0011 00       		.byte	0
 4496 0012 00       		.byte	0
 4497 0013 02       		.uleb128 0x2
 4498 0014 16       		.uleb128 0x16
 4499 0015 00       		.byte	0
 4500 0016 03       		.uleb128 0x3
 4501 0017 0E       		.uleb128 0xe
 4502 0018 3A       		.uleb128 0x3a
 4503 0019 0B       		.uleb128 0xb
 4504 001a 3B       		.uleb128 0x3b
 4505 001b 0B       		.uleb128 0xb
 4506 001c 49       		.uleb128 0x49
 4507 001d 13       		.uleb128 0x13
 4508 001e 00       		.byte	0
 4509 001f 00       		.byte	0
 4510 0020 03       		.uleb128 0x3
 4511 0021 24       		.uleb128 0x24
 4512 0022 00       		.byte	0
 4513 0023 0B       		.uleb128 0xb
 4514 0024 0B       		.uleb128 0xb
 4515 0025 3E       		.uleb128 0x3e
 4516 0026 0B       		.uleb128 0xb
 4517 0027 03       		.uleb128 0x3
 4518 0028 0E       		.uleb128 0xe
 4519 0029 00       		.byte	0
 4520 002a 00       		.byte	0
 4521 002b 04       		.uleb128 0x4
 4522 002c 24       		.uleb128 0x24
 4523 002d 00       		.byte	0
 4524 002e 0B       		.uleb128 0xb
 4525 002f 0B       		.uleb128 0xb
 4526 0030 3E       		.uleb128 0x3e
 4527 0031 0B       		.uleb128 0xb
 4528 0032 03       		.uleb128 0x3
 4529 0033 08       		.uleb128 0x8
 4530 0034 00       		.byte	0
 4531 0035 00       		.byte	0
 4532 0036 05       		.uleb128 0x5
 4533 0037 0F       		.uleb128 0xf
 4534 0038 00       		.byte	0
 4535 0039 0B       		.uleb128 0xb
 4536 003a 0B       		.uleb128 0xb
 4537 003b 00       		.byte	0
 4538 003c 00       		.byte	0
 4539 003d 06       		.uleb128 0x6
 4540 003e 13       		.uleb128 0x13
 4541 003f 01       		.byte	0x1
 4542 0040 0B       		.uleb128 0xb
ARM GAS  C:\Users\tmj32\AppData\Local\Temp\ccepMVRX.s 			page 99


 4543 0041 0B       		.uleb128 0xb
 4544 0042 3A       		.uleb128 0x3a
 4545 0043 0B       		.uleb128 0xb
 4546 0044 3B       		.uleb128 0x3b
 4547 0045 0B       		.uleb128 0xb
 4548 0046 01       		.uleb128 0x1
 4549 0047 13       		.uleb128 0x13
 4550 0048 00       		.byte	0
 4551 0049 00       		.byte	0
 4552 004a 07       		.uleb128 0x7
 4553 004b 0D       		.uleb128 0xd
 4554 004c 00       		.byte	0
 4555 004d 03       		.uleb128 0x3
 4556 004e 0E       		.uleb128 0xe
 4557 004f 3A       		.uleb128 0x3a
 4558 0050 0B       		.uleb128 0xb
 4559 0051 3B       		.uleb128 0x3b
 4560 0052 0B       		.uleb128 0xb
 4561 0053 49       		.uleb128 0x49
 4562 0054 13       		.uleb128 0x13
 4563 0055 38       		.uleb128 0x38
 4564 0056 0B       		.uleb128 0xb
 4565 0057 00       		.byte	0
 4566 0058 00       		.byte	0
 4567 0059 08       		.uleb128 0x8
 4568 005a 0D       		.uleb128 0xd
 4569 005b 00       		.byte	0
 4570 005c 03       		.uleb128 0x3
 4571 005d 08       		.uleb128 0x8
 4572 005e 3A       		.uleb128 0x3a
 4573 005f 0B       		.uleb128 0xb
 4574 0060 3B       		.uleb128 0x3b
 4575 0061 0B       		.uleb128 0xb
 4576 0062 49       		.uleb128 0x49
 4577 0063 13       		.uleb128 0x13
 4578 0064 38       		.uleb128 0x38
 4579 0065 0B       		.uleb128 0xb
 4580 0066 00       		.byte	0
 4581 0067 00       		.byte	0
 4582 0068 09       		.uleb128 0x9
 4583 0069 13       		.uleb128 0x13
 4584 006a 01       		.byte	0x1
 4585 006b 03       		.uleb128 0x3
 4586 006c 0E       		.uleb128 0xe
 4587 006d 0B       		.uleb128 0xb
 4588 006e 0B       		.uleb128 0xb
 4589 006f 3A       		.uleb128 0x3a
 4590 0070 0B       		.uleb128 0xb
 4591 0071 3B       		.uleb128 0x3b
 4592 0072 0B       		.uleb128 0xb
 4593 0073 01       		.uleb128 0x1
 4594 0074 13       		.uleb128 0x13
 4595 0075 00       		.byte	0
 4596 0076 00       		.byte	0
 4597 0077 0A       		.uleb128 0xa
 4598 0078 0D       		.uleb128 0xd
 4599 0079 00       		.byte	0
ARM GAS  C:\Users\tmj32\AppData\Local\Temp\ccepMVRX.s 			page 100


 4600 007a 03       		.uleb128 0x3
 4601 007b 0E       		.uleb128 0xe
 4602 007c 3A       		.uleb128 0x3a
 4603 007d 0B       		.uleb128 0xb
 4604 007e 3B       		.uleb128 0x3b
 4605 007f 0B       		.uleb128 0xb
 4606 0080 49       		.uleb128 0x49
 4607 0081 13       		.uleb128 0x13
 4608 0082 0B       		.uleb128 0xb
 4609 0083 0B       		.uleb128 0xb
 4610 0084 0D       		.uleb128 0xd
 4611 0085 0B       		.uleb128 0xb
 4612 0086 0C       		.uleb128 0xc
 4613 0087 0B       		.uleb128 0xb
 4614 0088 38       		.uleb128 0x38
 4615 0089 0B       		.uleb128 0xb
 4616 008a 00       		.byte	0
 4617 008b 00       		.byte	0
 4618 008c 0B       		.uleb128 0xb
 4619 008d 15       		.uleb128 0x15
 4620 008e 01       		.byte	0x1
 4621 008f 27       		.uleb128 0x27
 4622 0090 19       		.uleb128 0x19
 4623 0091 49       		.uleb128 0x49
 4624 0092 13       		.uleb128 0x13
 4625 0093 01       		.uleb128 0x1
 4626 0094 13       		.uleb128 0x13
 4627 0095 00       		.byte	0
 4628 0096 00       		.byte	0
 4629 0097 0C       		.uleb128 0xc
 4630 0098 05       		.uleb128 0x5
 4631 0099 00       		.byte	0
 4632 009a 49       		.uleb128 0x49
 4633 009b 13       		.uleb128 0x13
 4634 009c 00       		.byte	0
 4635 009d 00       		.byte	0
 4636 009e 0D       		.uleb128 0xd
 4637 009f 0F       		.uleb128 0xf
 4638 00a0 00       		.byte	0
 4639 00a1 0B       		.uleb128 0xb
 4640 00a2 0B       		.uleb128 0xb
 4641 00a3 49       		.uleb128 0x49
 4642 00a4 13       		.uleb128 0x13
 4643 00a5 00       		.byte	0
 4644 00a6 00       		.byte	0
 4645 00a7 0E       		.uleb128 0xe
 4646 00a8 26       		.uleb128 0x26
 4647 00a9 00       		.byte	0
 4648 00aa 49       		.uleb128 0x49
 4649 00ab 13       		.uleb128 0x13
 4650 00ac 00       		.byte	0
 4651 00ad 00       		.byte	0
 4652 00ae 0F       		.uleb128 0xf
 4653 00af 17       		.uleb128 0x17
 4654 00b0 01       		.byte	0x1
 4655 00b1 0B       		.uleb128 0xb
 4656 00b2 0B       		.uleb128 0xb
ARM GAS  C:\Users\tmj32\AppData\Local\Temp\ccepMVRX.s 			page 101


 4657 00b3 3A       		.uleb128 0x3a
 4658 00b4 0B       		.uleb128 0xb
 4659 00b5 3B       		.uleb128 0x3b
 4660 00b6 0B       		.uleb128 0xb
 4661 00b7 01       		.uleb128 0x1
 4662 00b8 13       		.uleb128 0x13
 4663 00b9 00       		.byte	0
 4664 00ba 00       		.byte	0
 4665 00bb 10       		.uleb128 0x10
 4666 00bc 0D       		.uleb128 0xd
 4667 00bd 00       		.byte	0
 4668 00be 03       		.uleb128 0x3
 4669 00bf 08       		.uleb128 0x8
 4670 00c0 3A       		.uleb128 0x3a
 4671 00c1 0B       		.uleb128 0xb
 4672 00c2 3B       		.uleb128 0x3b
 4673 00c3 0B       		.uleb128 0xb
 4674 00c4 49       		.uleb128 0x49
 4675 00c5 13       		.uleb128 0x13
 4676 00c6 00       		.byte	0
 4677 00c7 00       		.byte	0
 4678 00c8 11       		.uleb128 0x11
 4679 00c9 0D       		.uleb128 0xd
 4680 00ca 00       		.byte	0
 4681 00cb 03       		.uleb128 0x3
 4682 00cc 0E       		.uleb128 0xe
 4683 00cd 3A       		.uleb128 0x3a
 4684 00ce 0B       		.uleb128 0xb
 4685 00cf 3B       		.uleb128 0x3b
 4686 00d0 0B       		.uleb128 0xb
 4687 00d1 49       		.uleb128 0x49
 4688 00d2 13       		.uleb128 0x13
 4689 00d3 00       		.byte	0
 4690 00d4 00       		.byte	0
 4691 00d5 12       		.uleb128 0x12
 4692 00d6 16       		.uleb128 0x16
 4693 00d7 00       		.byte	0
 4694 00d8 03       		.uleb128 0x3
 4695 00d9 0E       		.uleb128 0xe
 4696 00da 3A       		.uleb128 0x3a
 4697 00db 0B       		.uleb128 0xb
 4698 00dc 3B       		.uleb128 0x3b
 4699 00dd 05       		.uleb128 0x5
 4700 00de 49       		.uleb128 0x49
 4701 00df 13       		.uleb128 0x13
 4702 00e0 00       		.byte	0
 4703 00e1 00       		.byte	0
 4704 00e2 13       		.uleb128 0x13
 4705 00e3 04       		.uleb128 0x4
 4706 00e4 01       		.byte	0x1
 4707 00e5 0B       		.uleb128 0xb
 4708 00e6 0B       		.uleb128 0xb
 4709 00e7 49       		.uleb128 0x49
 4710 00e8 13       		.uleb128 0x13
 4711 00e9 3A       		.uleb128 0x3a
 4712 00ea 0B       		.uleb128 0xb
 4713 00eb 3B       		.uleb128 0x3b
ARM GAS  C:\Users\tmj32\AppData\Local\Temp\ccepMVRX.s 			page 102


 4714 00ec 0B       		.uleb128 0xb
 4715 00ed 01       		.uleb128 0x1
 4716 00ee 13       		.uleb128 0x13
 4717 00ef 00       		.byte	0
 4718 00f0 00       		.byte	0
 4719 00f1 14       		.uleb128 0x14
 4720 00f2 28       		.uleb128 0x28
 4721 00f3 00       		.byte	0
 4722 00f4 03       		.uleb128 0x3
 4723 00f5 0E       		.uleb128 0xe
 4724 00f6 1C       		.uleb128 0x1c
 4725 00f7 0B       		.uleb128 0xb
 4726 00f8 00       		.byte	0
 4727 00f9 00       		.byte	0
 4728 00fa 15       		.uleb128 0x15
 4729 00fb 0D       		.uleb128 0xd
 4730 00fc 00       		.byte	0
 4731 00fd 03       		.uleb128 0x3
 4732 00fe 08       		.uleb128 0x8
 4733 00ff 3A       		.uleb128 0x3a
 4734 0100 0B       		.uleb128 0xb
 4735 0101 3B       		.uleb128 0x3b
 4736 0102 0B       		.uleb128 0xb
 4737 0103 49       		.uleb128 0x49
 4738 0104 13       		.uleb128 0x13
 4739 0105 0B       		.uleb128 0xb
 4740 0106 0B       		.uleb128 0xb
 4741 0107 0D       		.uleb128 0xd
 4742 0108 0B       		.uleb128 0xb
 4743 0109 0C       		.uleb128 0xc
 4744 010a 0B       		.uleb128 0xb
 4745 010b 38       		.uleb128 0x38
 4746 010c 0B       		.uleb128 0xb
 4747 010d 00       		.byte	0
 4748 010e 00       		.byte	0
 4749 010f 16       		.uleb128 0x16
 4750 0110 15       		.uleb128 0x15
 4751 0111 01       		.byte	0x1
 4752 0112 27       		.uleb128 0x27
 4753 0113 19       		.uleb128 0x19
 4754 0114 01       		.uleb128 0x1
 4755 0115 13       		.uleb128 0x13
 4756 0116 00       		.byte	0
 4757 0117 00       		.byte	0
 4758 0118 17       		.uleb128 0x17
 4759 0119 0D       		.uleb128 0xd
 4760 011a 00       		.byte	0
 4761 011b 03       		.uleb128 0x3
 4762 011c 08       		.uleb128 0x8
 4763 011d 3A       		.uleb128 0x3a
 4764 011e 0B       		.uleb128 0xb
 4765 011f 3B       		.uleb128 0x3b
 4766 0120 05       		.uleb128 0x5
 4767 0121 49       		.uleb128 0x49
 4768 0122 13       		.uleb128 0x13
 4769 0123 38       		.uleb128 0x38
 4770 0124 0B       		.uleb128 0xb
ARM GAS  C:\Users\tmj32\AppData\Local\Temp\ccepMVRX.s 			page 103


 4771 0125 00       		.byte	0
 4772 0126 00       		.byte	0
 4773 0127 18       		.uleb128 0x18
 4774 0128 0D       		.uleb128 0xd
 4775 0129 00       		.byte	0
 4776 012a 03       		.uleb128 0x3
 4777 012b 0E       		.uleb128 0xe
 4778 012c 3A       		.uleb128 0x3a
 4779 012d 0B       		.uleb128 0xb
 4780 012e 3B       		.uleb128 0x3b
 4781 012f 05       		.uleb128 0x5
 4782 0130 49       		.uleb128 0x49
 4783 0131 13       		.uleb128 0x13
 4784 0132 38       		.uleb128 0x38
 4785 0133 0B       		.uleb128 0xb
 4786 0134 00       		.byte	0
 4787 0135 00       		.byte	0
 4788 0136 19       		.uleb128 0x19
 4789 0137 13       		.uleb128 0x13
 4790 0138 01       		.byte	0x1
 4791 0139 0B       		.uleb128 0xb
 4792 013a 0B       		.uleb128 0xb
 4793 013b 3A       		.uleb128 0x3a
 4794 013c 0B       		.uleb128 0xb
 4795 013d 3B       		.uleb128 0x3b
 4796 013e 05       		.uleb128 0x5
 4797 013f 01       		.uleb128 0x1
 4798 0140 13       		.uleb128 0x13
 4799 0141 00       		.byte	0
 4800 0142 00       		.byte	0
 4801 0143 1A       		.uleb128 0x1a
 4802 0144 13       		.uleb128 0x13
 4803 0145 01       		.byte	0x1
 4804 0146 0B       		.uleb128 0xb
 4805 0147 05       		.uleb128 0x5
 4806 0148 3A       		.uleb128 0x3a
 4807 0149 0B       		.uleb128 0xb
 4808 014a 3B       		.uleb128 0x3b
 4809 014b 0B       		.uleb128 0xb
 4810 014c 01       		.uleb128 0x1
 4811 014d 13       		.uleb128 0x13
 4812 014e 00       		.byte	0
 4813 014f 00       		.byte	0
 4814 0150 1B       		.uleb128 0x1b
 4815 0151 0D       		.uleb128 0xd
 4816 0152 00       		.byte	0
 4817 0153 03       		.uleb128 0x3
 4818 0154 0E       		.uleb128 0xe
 4819 0155 3A       		.uleb128 0x3a
 4820 0156 0B       		.uleb128 0xb
 4821 0157 3B       		.uleb128 0x3b
 4822 0158 0B       		.uleb128 0xb
 4823 0159 49       		.uleb128 0x49
 4824 015a 13       		.uleb128 0x13
 4825 015b 38       		.uleb128 0x38
 4826 015c 05       		.uleb128 0x5
 4827 015d 00       		.byte	0
ARM GAS  C:\Users\tmj32\AppData\Local\Temp\ccepMVRX.s 			page 104


 4828 015e 00       		.byte	0
 4829 015f 1C       		.uleb128 0x1c
 4830 0160 0D       		.uleb128 0xd
 4831 0161 00       		.byte	0
 4832 0162 03       		.uleb128 0x3
 4833 0163 08       		.uleb128 0x8
 4834 0164 3A       		.uleb128 0x3a
 4835 0165 0B       		.uleb128 0xb
 4836 0166 3B       		.uleb128 0x3b
 4837 0167 0B       		.uleb128 0xb
 4838 0168 49       		.uleb128 0x49
 4839 0169 13       		.uleb128 0x13
 4840 016a 38       		.uleb128 0x38
 4841 016b 05       		.uleb128 0x5
 4842 016c 00       		.byte	0
 4843 016d 00       		.byte	0
 4844 016e 1D       		.uleb128 0x1d
 4845 016f 0D       		.uleb128 0xd
 4846 0170 00       		.byte	0
 4847 0171 03       		.uleb128 0x3
 4848 0172 0E       		.uleb128 0xe
 4849 0173 3A       		.uleb128 0x3a
 4850 0174 0B       		.uleb128 0xb
 4851 0175 3B       		.uleb128 0x3b
 4852 0176 05       		.uleb128 0x5
 4853 0177 49       		.uleb128 0x49
 4854 0178 13       		.uleb128 0x13
 4855 0179 38       		.uleb128 0x38
 4856 017a 05       		.uleb128 0x5
 4857 017b 00       		.byte	0
 4858 017c 00       		.byte	0
 4859 017d 1E       		.uleb128 0x1e
 4860 017e 0D       		.uleb128 0xd
 4861 017f 00       		.byte	0
 4862 0180 03       		.uleb128 0x3
 4863 0181 08       		.uleb128 0x8
 4864 0182 3A       		.uleb128 0x3a
 4865 0183 0B       		.uleb128 0xb
 4866 0184 3B       		.uleb128 0x3b
 4867 0185 05       		.uleb128 0x5
 4868 0186 49       		.uleb128 0x49
 4869 0187 13       		.uleb128 0x13
 4870 0188 38       		.uleb128 0x38
 4871 0189 05       		.uleb128 0x5
 4872 018a 00       		.byte	0
 4873 018b 00       		.byte	0
 4874 018c 1F       		.uleb128 0x1f
 4875 018d 2E       		.uleb128 0x2e
 4876 018e 01       		.byte	0x1
 4877 018f 03       		.uleb128 0x3
 4878 0190 0E       		.uleb128 0xe
 4879 0191 3A       		.uleb128 0x3a
 4880 0192 0B       		.uleb128 0xb
 4881 0193 3B       		.uleb128 0x3b
 4882 0194 05       		.uleb128 0x5
 4883 0195 27       		.uleb128 0x27
 4884 0196 19       		.uleb128 0x19
ARM GAS  C:\Users\tmj32\AppData\Local\Temp\ccepMVRX.s 			page 105


 4885 0197 49       		.uleb128 0x49
 4886 0198 13       		.uleb128 0x13
 4887 0199 11       		.uleb128 0x11
 4888 019a 01       		.uleb128 0x1
 4889 019b 12       		.uleb128 0x12
 4890 019c 06       		.uleb128 0x6
 4891 019d 40       		.uleb128 0x40
 4892 019e 18       		.uleb128 0x18
 4893 019f 9742     		.uleb128 0x2117
 4894 01a1 19       		.uleb128 0x19
 4895 01a2 01       		.uleb128 0x1
 4896 01a3 13       		.uleb128 0x13
 4897 01a4 00       		.byte	0
 4898 01a5 00       		.byte	0
 4899 01a6 20       		.uleb128 0x20
 4900 01a7 05       		.uleb128 0x5
 4901 01a8 00       		.byte	0
 4902 01a9 03       		.uleb128 0x3
 4903 01aa 08       		.uleb128 0x8
 4904 01ab 3A       		.uleb128 0x3a
 4905 01ac 0B       		.uleb128 0xb
 4906 01ad 3B       		.uleb128 0x3b
 4907 01ae 05       		.uleb128 0x5
 4908 01af 49       		.uleb128 0x49
 4909 01b0 13       		.uleb128 0x13
 4910 01b1 02       		.uleb128 0x2
 4911 01b2 18       		.uleb128 0x18
 4912 01b3 00       		.byte	0
 4913 01b4 00       		.byte	0
 4914 01b5 21       		.uleb128 0x21
 4915 01b6 34       		.uleb128 0x34
 4916 01b7 00       		.byte	0
 4917 01b8 03       		.uleb128 0x3
 4918 01b9 08       		.uleb128 0x8
 4919 01ba 3A       		.uleb128 0x3a
 4920 01bb 0B       		.uleb128 0xb
 4921 01bc 3B       		.uleb128 0x3b
 4922 01bd 05       		.uleb128 0x5
 4923 01be 49       		.uleb128 0x49
 4924 01bf 13       		.uleb128 0x13
 4925 01c0 02       		.uleb128 0x2
 4926 01c1 18       		.uleb128 0x18
 4927 01c2 00       		.byte	0
 4928 01c3 00       		.byte	0
 4929 01c4 22       		.uleb128 0x22
 4930 01c5 2E       		.uleb128 0x2e
 4931 01c6 01       		.byte	0x1
 4932 01c7 03       		.uleb128 0x3
 4933 01c8 0E       		.uleb128 0xe
 4934 01c9 3A       		.uleb128 0x3a
 4935 01ca 0B       		.uleb128 0xb
 4936 01cb 3B       		.uleb128 0x3b
 4937 01cc 0B       		.uleb128 0xb
 4938 01cd 27       		.uleb128 0x27
 4939 01ce 19       		.uleb128 0x19
 4940 01cf 11       		.uleb128 0x11
 4941 01d0 01       		.uleb128 0x1
ARM GAS  C:\Users\tmj32\AppData\Local\Temp\ccepMVRX.s 			page 106


 4942 01d1 12       		.uleb128 0x12
 4943 01d2 06       		.uleb128 0x6
 4944 01d3 40       		.uleb128 0x40
 4945 01d4 18       		.uleb128 0x18
 4946 01d5 9642     		.uleb128 0x2116
 4947 01d7 19       		.uleb128 0x19
 4948 01d8 01       		.uleb128 0x1
 4949 01d9 13       		.uleb128 0x13
 4950 01da 00       		.byte	0
 4951 01db 00       		.byte	0
 4952 01dc 23       		.uleb128 0x23
 4953 01dd 05       		.uleb128 0x5
 4954 01de 00       		.byte	0
 4955 01df 03       		.uleb128 0x3
 4956 01e0 0E       		.uleb128 0xe
 4957 01e1 3A       		.uleb128 0x3a
 4958 01e2 0B       		.uleb128 0xb
 4959 01e3 3B       		.uleb128 0x3b
 4960 01e4 0B       		.uleb128 0xb
 4961 01e5 49       		.uleb128 0x49
 4962 01e6 13       		.uleb128 0x13
 4963 01e7 02       		.uleb128 0x2
 4964 01e8 18       		.uleb128 0x18
 4965 01e9 00       		.byte	0
 4966 01ea 00       		.byte	0
 4967 01eb 24       		.uleb128 0x24
 4968 01ec 2E       		.uleb128 0x2e
 4969 01ed 01       		.byte	0x1
 4970 01ee 03       		.uleb128 0x3
 4971 01ef 0E       		.uleb128 0xe
 4972 01f0 3A       		.uleb128 0x3a
 4973 01f1 0B       		.uleb128 0xb
 4974 01f2 3B       		.uleb128 0x3b
 4975 01f3 0B       		.uleb128 0xb
 4976 01f4 27       		.uleb128 0x27
 4977 01f5 19       		.uleb128 0x19
 4978 01f6 49       		.uleb128 0x49
 4979 01f7 13       		.uleb128 0x13
 4980 01f8 11       		.uleb128 0x11
 4981 01f9 01       		.uleb128 0x1
 4982 01fa 12       		.uleb128 0x12
 4983 01fb 06       		.uleb128 0x6
 4984 01fc 40       		.uleb128 0x40
 4985 01fd 18       		.uleb128 0x18
 4986 01fe 9642     		.uleb128 0x2116
 4987 0200 19       		.uleb128 0x19
 4988 0201 01       		.uleb128 0x1
 4989 0202 13       		.uleb128 0x13
 4990 0203 00       		.byte	0
 4991 0204 00       		.byte	0
 4992 0205 25       		.uleb128 0x25
 4993 0206 2E       		.uleb128 0x2e
 4994 0207 01       		.byte	0x1
 4995 0208 3F       		.uleb128 0x3f
 4996 0209 19       		.uleb128 0x19
 4997 020a 03       		.uleb128 0x3
 4998 020b 0E       		.uleb128 0xe
ARM GAS  C:\Users\tmj32\AppData\Local\Temp\ccepMVRX.s 			page 107


 4999 020c 3A       		.uleb128 0x3a
 5000 020d 0B       		.uleb128 0xb
 5001 020e 3B       		.uleb128 0x3b
 5002 020f 0B       		.uleb128 0xb
 5003 0210 27       		.uleb128 0x27
 5004 0211 19       		.uleb128 0x19
 5005 0212 49       		.uleb128 0x49
 5006 0213 13       		.uleb128 0x13
 5007 0214 11       		.uleb128 0x11
 5008 0215 01       		.uleb128 0x1
 5009 0216 12       		.uleb128 0x12
 5010 0217 06       		.uleb128 0x6
 5011 0218 40       		.uleb128 0x40
 5012 0219 18       		.uleb128 0x18
 5013 021a 9642     		.uleb128 0x2116
 5014 021c 19       		.uleb128 0x19
 5015 021d 01       		.uleb128 0x1
 5016 021e 13       		.uleb128 0x13
 5017 021f 00       		.byte	0
 5018 0220 00       		.byte	0
 5019 0221 26       		.uleb128 0x26
 5020 0222 05       		.uleb128 0x5
 5021 0223 00       		.byte	0
 5022 0224 03       		.uleb128 0x3
 5023 0225 08       		.uleb128 0x8
 5024 0226 3A       		.uleb128 0x3a
 5025 0227 0B       		.uleb128 0xb
 5026 0228 3B       		.uleb128 0x3b
 5027 0229 0B       		.uleb128 0xb
 5028 022a 49       		.uleb128 0x49
 5029 022b 13       		.uleb128 0x13
 5030 022c 02       		.uleb128 0x2
 5031 022d 18       		.uleb128 0x18
 5032 022e 00       		.byte	0
 5033 022f 00       		.byte	0
 5034 0230 27       		.uleb128 0x27
 5035 0231 34       		.uleb128 0x34
 5036 0232 00       		.byte	0
 5037 0233 03       		.uleb128 0x3
 5038 0234 0E       		.uleb128 0xe
 5039 0235 3A       		.uleb128 0x3a
 5040 0236 0B       		.uleb128 0xb
 5041 0237 3B       		.uleb128 0x3b
 5042 0238 0B       		.uleb128 0xb
 5043 0239 49       		.uleb128 0x49
 5044 023a 13       		.uleb128 0x13
 5045 023b 02       		.uleb128 0x2
 5046 023c 18       		.uleb128 0x18
 5047 023d 00       		.byte	0
 5048 023e 00       		.byte	0
 5049 023f 28       		.uleb128 0x28
 5050 0240 34       		.uleb128 0x34
 5051 0241 00       		.byte	0
 5052 0242 03       		.uleb128 0x3
 5053 0243 08       		.uleb128 0x8
 5054 0244 3A       		.uleb128 0x3a
 5055 0245 0B       		.uleb128 0xb
ARM GAS  C:\Users\tmj32\AppData\Local\Temp\ccepMVRX.s 			page 108


 5056 0246 3B       		.uleb128 0x3b
 5057 0247 0B       		.uleb128 0xb
 5058 0248 49       		.uleb128 0x49
 5059 0249 13       		.uleb128 0x13
 5060 024a 02       		.uleb128 0x2
 5061 024b 18       		.uleb128 0x18
 5062 024c 00       		.byte	0
 5063 024d 00       		.byte	0
 5064 024e 29       		.uleb128 0x29
 5065 024f 0B       		.uleb128 0xb
 5066 0250 01       		.byte	0x1
 5067 0251 11       		.uleb128 0x11
 5068 0252 01       		.uleb128 0x1
 5069 0253 12       		.uleb128 0x12
 5070 0254 06       		.uleb128 0x6
 5071 0255 01       		.uleb128 0x1
 5072 0256 13       		.uleb128 0x13
 5073 0257 00       		.byte	0
 5074 0258 00       		.byte	0
 5075 0259 2A       		.uleb128 0x2a
 5076 025a 0B       		.uleb128 0xb
 5077 025b 01       		.byte	0x1
 5078 025c 11       		.uleb128 0x11
 5079 025d 01       		.uleb128 0x1
 5080 025e 12       		.uleb128 0x12
 5081 025f 06       		.uleb128 0x6
 5082 0260 00       		.byte	0
 5083 0261 00       		.byte	0
 5084 0262 2B       		.uleb128 0x2b
 5085 0263 2E       		.uleb128 0x2e
 5086 0264 01       		.byte	0x1
 5087 0265 3F       		.uleb128 0x3f
 5088 0266 19       		.uleb128 0x19
 5089 0267 03       		.uleb128 0x3
 5090 0268 0E       		.uleb128 0xe
 5091 0269 3A       		.uleb128 0x3a
 5092 026a 0B       		.uleb128 0xb
 5093 026b 3B       		.uleb128 0x3b
 5094 026c 0B       		.uleb128 0xb
 5095 026d 27       		.uleb128 0x27
 5096 026e 19       		.uleb128 0x19
 5097 026f 11       		.uleb128 0x11
 5098 0270 01       		.uleb128 0x1
 5099 0271 12       		.uleb128 0x12
 5100 0272 06       		.uleb128 0x6
 5101 0273 40       		.uleb128 0x40
 5102 0274 18       		.uleb128 0x18
 5103 0275 9642     		.uleb128 0x2116
 5104 0277 19       		.uleb128 0x19
 5105 0278 01       		.uleb128 0x1
 5106 0279 13       		.uleb128 0x13
 5107 027a 00       		.byte	0
 5108 027b 00       		.byte	0
 5109 027c 2C       		.uleb128 0x2c
 5110 027d 2E       		.uleb128 0x2e
 5111 027e 01       		.byte	0x1
 5112 027f 3F       		.uleb128 0x3f
ARM GAS  C:\Users\tmj32\AppData\Local\Temp\ccepMVRX.s 			page 109


 5113 0280 19       		.uleb128 0x19
 5114 0281 03       		.uleb128 0x3
 5115 0282 0E       		.uleb128 0xe
 5116 0283 3A       		.uleb128 0x3a
 5117 0284 0B       		.uleb128 0xb
 5118 0285 3B       		.uleb128 0x3b
 5119 0286 05       		.uleb128 0x5
 5120 0287 27       		.uleb128 0x27
 5121 0288 19       		.uleb128 0x19
 5122 0289 49       		.uleb128 0x49
 5123 028a 13       		.uleb128 0x13
 5124 028b 11       		.uleb128 0x11
 5125 028c 01       		.uleb128 0x1
 5126 028d 12       		.uleb128 0x12
 5127 028e 06       		.uleb128 0x6
 5128 028f 40       		.uleb128 0x40
 5129 0290 18       		.uleb128 0x18
 5130 0291 9642     		.uleb128 0x2116
 5131 0293 19       		.uleb128 0x19
 5132 0294 01       		.uleb128 0x1
 5133 0295 13       		.uleb128 0x13
 5134 0296 00       		.byte	0
 5135 0297 00       		.byte	0
 5136 0298 2D       		.uleb128 0x2d
 5137 0299 05       		.uleb128 0x5
 5138 029a 00       		.byte	0
 5139 029b 03       		.uleb128 0x3
 5140 029c 0E       		.uleb128 0xe
 5141 029d 3A       		.uleb128 0x3a
 5142 029e 0B       		.uleb128 0xb
 5143 029f 3B       		.uleb128 0x3b
 5144 02a0 05       		.uleb128 0x5
 5145 02a1 49       		.uleb128 0x49
 5146 02a2 13       		.uleb128 0x13
 5147 02a3 02       		.uleb128 0x2
 5148 02a4 18       		.uleb128 0x18
 5149 02a5 00       		.byte	0
 5150 02a6 00       		.byte	0
 5151 02a7 2E       		.uleb128 0x2e
 5152 02a8 2E       		.uleb128 0x2e
 5153 02a9 01       		.byte	0x1
 5154 02aa 03       		.uleb128 0x3
 5155 02ab 0E       		.uleb128 0xe
 5156 02ac 3A       		.uleb128 0x3a
 5157 02ad 0B       		.uleb128 0xb
 5158 02ae 3B       		.uleb128 0x3b
 5159 02af 05       		.uleb128 0x5
 5160 02b0 27       		.uleb128 0x27
 5161 02b1 19       		.uleb128 0x19
 5162 02b2 49       		.uleb128 0x49
 5163 02b3 13       		.uleb128 0x13
 5164 02b4 11       		.uleb128 0x11
 5165 02b5 01       		.uleb128 0x1
 5166 02b6 12       		.uleb128 0x12
 5167 02b7 06       		.uleb128 0x6
 5168 02b8 40       		.uleb128 0x40
 5169 02b9 18       		.uleb128 0x18
ARM GAS  C:\Users\tmj32\AppData\Local\Temp\ccepMVRX.s 			page 110


 5170 02ba 9642     		.uleb128 0x2116
 5171 02bc 19       		.uleb128 0x19
 5172 02bd 01       		.uleb128 0x1
 5173 02be 13       		.uleb128 0x13
 5174 02bf 00       		.byte	0
 5175 02c0 00       		.byte	0
 5176 02c1 2F       		.uleb128 0x2f
 5177 02c2 34       		.uleb128 0x34
 5178 02c3 00       		.byte	0
 5179 02c4 03       		.uleb128 0x3
 5180 02c5 0E       		.uleb128 0xe
 5181 02c6 3A       		.uleb128 0x3a
 5182 02c7 0B       		.uleb128 0xb
 5183 02c8 3B       		.uleb128 0x3b
 5184 02c9 05       		.uleb128 0x5
 5185 02ca 49       		.uleb128 0x49
 5186 02cb 13       		.uleb128 0x13
 5187 02cc 02       		.uleb128 0x2
 5188 02cd 18       		.uleb128 0x18
 5189 02ce 00       		.byte	0
 5190 02cf 00       		.byte	0
 5191 02d0 30       		.uleb128 0x30
 5192 02d1 34       		.uleb128 0x34
 5193 02d2 00       		.byte	0
 5194 02d3 03       		.uleb128 0x3
 5195 02d4 0E       		.uleb128 0xe
 5196 02d5 3A       		.uleb128 0x3a
 5197 02d6 0B       		.uleb128 0xb
 5198 02d7 3B       		.uleb128 0x3b
 5199 02d8 05       		.uleb128 0x5
 5200 02d9 49       		.uleb128 0x49
 5201 02da 13       		.uleb128 0x13
 5202 02db 3F       		.uleb128 0x3f
 5203 02dc 19       		.uleb128 0x19
 5204 02dd 3C       		.uleb128 0x3c
 5205 02de 19       		.uleb128 0x19
 5206 02df 00       		.byte	0
 5207 02e0 00       		.byte	0
 5208 02e1 00       		.byte	0
 5209              		.section	.debug_aranges,"",%progbits
 5210 0000 9C000000 		.4byte	0x9c
 5211 0004 0200     		.2byte	0x2
 5212 0006 00000000 		.4byte	.Ldebug_info0
 5213 000a 04       		.byte	0x4
 5214 000b 00       		.byte	0
 5215 000c 0000     		.2byte	0
 5216 000e 0000     		.2byte	0
 5217 0010 00000000 		.4byte	.LFB5
 5218 0014 A4000000 		.4byte	.LFE5-.LFB5
 5219 0018 00000000 		.4byte	.LFB31
 5220 001c 1E000000 		.4byte	.LFE31-.LFB31
 5221 0020 00000000 		.4byte	.LFB32
 5222 0024 1C000000 		.4byte	.LFE32-.LFB32
 5223 0028 00000000 		.4byte	.LFB33
 5224 002c 08010000 		.4byte	.LFE33-.LFB33
 5225 0030 00000000 		.4byte	.LFB34
 5226 0034 60000000 		.4byte	.LFE34-.LFB34
ARM GAS  C:\Users\tmj32\AppData\Local\Temp\ccepMVRX.s 			page 111


 5227 0038 00000000 		.4byte	.LFB35
 5228 003c 94000000 		.4byte	.LFE35-.LFB35
 5229 0040 00000000 		.4byte	.LFB36
 5230 0044 48000000 		.4byte	.LFE36-.LFB36
 5231 0048 00000000 		.4byte	.LFB37
 5232 004c 34000000 		.4byte	.LFE37-.LFB37
 5233 0050 00000000 		.4byte	.LFB38
 5234 0054 1E000000 		.4byte	.LFE38-.LFB38
 5235 0058 00000000 		.4byte	.LFB39
 5236 005c 1E000000 		.4byte	.LFE39-.LFB39
 5237 0060 00000000 		.4byte	.LFB40
 5238 0064 1E000000 		.4byte	.LFE40-.LFB40
 5239 0068 00000000 		.4byte	.LFB41
 5240 006c 1C000000 		.4byte	.LFE41-.LFB41
 5241 0070 00000000 		.4byte	.LFB42
 5242 0074 1C000000 		.4byte	.LFE42-.LFB42
 5243 0078 00000000 		.4byte	.LFB43
 5244 007c 1C000000 		.4byte	.LFE43-.LFB43
 5245 0080 00000000 		.4byte	.LFB44
 5246 0084 F4020000 		.4byte	.LFE44-.LFB44
 5247 0088 00000000 		.4byte	.LFB45
 5248 008c 88000000 		.4byte	.LFE45-.LFB45
 5249 0090 00000000 		.4byte	.LFB46
 5250 0094 48000000 		.4byte	.LFE46-.LFB46
 5251 0098 00000000 		.4byte	0
 5252 009c 00000000 		.4byte	0
 5253              		.section	.debug_ranges,"",%progbits
 5254              	.Ldebug_ranges0:
 5255 0000 00000000 		.4byte	.LFB5
 5256 0004 A4000000 		.4byte	.LFE5
 5257 0008 00000000 		.4byte	.LFB31
 5258 000c 1E000000 		.4byte	.LFE31
 5259 0010 00000000 		.4byte	.LFB32
 5260 0014 1C000000 		.4byte	.LFE32
 5261 0018 00000000 		.4byte	.LFB33
 5262 001c 08010000 		.4byte	.LFE33
 5263 0020 00000000 		.4byte	.LFB34
 5264 0024 60000000 		.4byte	.LFE34
 5265 0028 00000000 		.4byte	.LFB35
 5266 002c 94000000 		.4byte	.LFE35
 5267 0030 00000000 		.4byte	.LFB36
 5268 0034 48000000 		.4byte	.LFE36
 5269 0038 00000000 		.4byte	.LFB37
 5270 003c 34000000 		.4byte	.LFE37
 5271 0040 00000000 		.4byte	.LFB38
 5272 0044 1E000000 		.4byte	.LFE38
 5273 0048 00000000 		.4byte	.LFB39
 5274 004c 1E000000 		.4byte	.LFE39
 5275 0050 00000000 		.4byte	.LFB40
 5276 0054 1E000000 		.4byte	.LFE40
 5277 0058 00000000 		.4byte	.LFB41
 5278 005c 1C000000 		.4byte	.LFE41
 5279 0060 00000000 		.4byte	.LFB42
 5280 0064 1C000000 		.4byte	.LFE42
 5281 0068 00000000 		.4byte	.LFB43
 5282 006c 1C000000 		.4byte	.LFE43
 5283 0070 00000000 		.4byte	.LFB44
ARM GAS  C:\Users\tmj32\AppData\Local\Temp\ccepMVRX.s 			page 112


 5284 0074 F4020000 		.4byte	.LFE44
 5285 0078 00000000 		.4byte	.LFB45
 5286 007c 88000000 		.4byte	.LFE45
 5287 0080 00000000 		.4byte	.LFB46
 5288 0084 48000000 		.4byte	.LFE46
 5289 0088 00000000 		.4byte	0
 5290 008c 00000000 		.4byte	0
 5291              		.section	.debug_line,"",%progbits
 5292              	.Ldebug_line0:
 5293 0000 37050000 		.section	.debug_str,"MS",%progbits,1
 5293      02000C03 
 5293      00000201 
 5293      FB0E0D00 
 5293      01010101 
 5294              	.LASF239:
 5295 0000 2E2E5C2E 		.ascii	"..\\..\\..\\lvgl\\version_6.1.2\\lvgl\\src\\lv_objx"
 5295      2E5C2E2E 
 5295      5C6C7667 
 5295      6C5C7665 
 5295      7273696F 
 5296 002c 5C6C765F 		.ascii	"\\lv_lmeter.c\000"
 5296      6C6D6574 
 5296      65722E63 
 5296      00
 5297              	.LASF15:
 5298 0039 696E7438 		.ascii	"int8_t\000"
 5298      5F7400
 5299              	.LASF147:
 5300 0040 616E676C 		.ascii	"angle_ofs\000"
 5300      655F6F66 
 5300      7300
 5301              	.LASF78:
 5302 004a 6C765F6C 		.ascii	"lv_ll_node_t\000"
 5302      6C5F6E6F 
 5302      64655F74 
 5302      00
 5303              	.LASF23:
 5304 0057 6164765F 		.ascii	"adv_w\000"
 5304      7700
 5305              	.LASF167:
 5306 005d 68656164 		.ascii	"header_pr\000"
 5306      65725F70 
 5306      7200
 5307              	.LASF42:
 5308 0067 73697A65 		.ascii	"sizetype\000"
 5308      74797065 
 5308      00
 5309              	.LASF39:
 5310 0070 6C765F63 		.ascii	"lv_color32_t\000"
 5310      6F6C6F72 
 5310      33325F74 
 5310      00
 5311              	.LASF177:
 5312 007d 63656C6C 		.ascii	"cell\000"
 5312      00
 5313              	.LASF81:
 5314 0082 7461696C 		.ascii	"tail\000"
ARM GAS  C:\Users\tmj32\AppData\Local\Temp\ccepMVRX.s 			page 113


 5314      00
 5315              	.LASF242:
 5316 0087 6C765F73 		.ascii	"lv_style_pretty_color\000"
 5316      74796C65 
 5316      5F707265 
 5316      7474795F 
 5316      636F6C6F 
 5317              	.LASF118:
 5318 009d 4C565F53 		.ascii	"LV_SIGNAL_STYLE_CHG\000"
 5318      49474E41 
 5318      4C5F5354 
 5318      594C455F 
 5318      43484700 
 5319              	.LASF41:
 5320 00b1 6C765F6F 		.ascii	"lv_opa_t\000"
 5320      70615F74 
 5320      00
 5321              	.LASF19:
 5322 00ba 696E7433 		.ascii	"int32_t\000"
 5322      325F7400 
 5323              	.LASF66:
 5324 00c2 696E7465 		.ascii	"intense\000"
 5324      6E736500 
 5325              	.LASF44:
 5326 00ca 6C765F70 		.ascii	"lv_point_t\000"
 5326      6F696E74 
 5326      5F7400
 5327              	.LASF184:
 5328 00d5 6C6D6574 		.ascii	"lmeter\000"
 5328      657200
 5329              	.LASF126:
 5330 00dc 4C565F53 		.ascii	"LV_SIGNAL_LONG_PRESS\000"
 5330      49474E41 
 5330      4C5F4C4F 
 5330      4E475F50 
 5330      52455353 
 5331              	.LASF58:
 5332 00f1 72616469 		.ascii	"radius\000"
 5332      757300
 5333              	.LASF143:
 5334 00f8 6C765F72 		.ascii	"lv_reailgn_t\000"
 5334      6561696C 
 5334      676E5F74 
 5334      00
 5335              	.LASF31:
 5336 0105 6C696E65 		.ascii	"line_height\000"
 5336      5F686569 
 5336      67687400 
 5337              	.LASF93:
 5338 0111 636C6963 		.ascii	"click\000"
 5338      6B00
 5339              	.LASF136:
 5340 0117 6C765F61 		.ascii	"lv_align_t\000"
 5340      6C69676E 
 5340      5F7400
 5341              	.LASF128:
 5342 0122 4C565F53 		.ascii	"LV_SIGNAL_DRAG_BEGIN\000"
ARM GAS  C:\Users\tmj32\AppData\Local\Temp\ccepMVRX.s 			page 114


 5342      49474E41 
 5342      4C5F4452 
 5342      41475F42 
 5342      4547494E 
 5343              	.LASF225:
 5344 0137 785F6F66 		.ascii	"x_ofs\000"
 5344      7300
 5345              	.LASF169:
 5346 013d 68696768 		.ascii	"highlighted_days\000"
 5346      6C696768 
 5346      7465645F 
 5346      64617973 
 5346      00
 5347              	.LASF233:
 5348 014e 7369676E 		.ascii	"sign\000"
 5348      00
 5349              	.LASF112:
 5350 0153 6C765F65 		.ascii	"lv_event_t\000"
 5350      76656E74 
 5350      5F7400
 5351              	.LASF202:
 5352 015e 6C765F6C 		.ascii	"lv_lmeter_get_style\000"
 5352      6D657465 
 5352      725F6765 
 5352      745F7374 
 5352      796C6500 
 5353              	.LASF75:
 5354 0172 4C565F52 		.ascii	"LV_RES_INV\000"
 5354      45535F49 
 5354      4E5600
 5355              	.LASF122:
 5356 017d 4C565F53 		.ascii	"LV_SIGNAL_PRESSED\000"
 5356      49474E41 
 5356      4C5F5052 
 5356      45535345 
 5356      4400
 5357              	.LASF51:
 5358 018f 74797065 		.ascii	"type\000"
 5358      00
 5359              	.LASF159:
 5360 0194 6C696768 		.ascii	"light\000"
 5360      7400
 5361              	.LASF180:
 5362 019a 636F6E74 		.ascii	"cont\000"
 5362      00
 5363              	.LASF157:
 5364 019f 7072696D 		.ascii	"prim\000"
 5364      00
 5365              	.LASF187:
 5366 01a4 63686172 		.ascii	"chart\000"
 5366      7400
 5367              	.LASF1:
 5368 01aa 5F5F7569 		.ascii	"__uint8_t\000"
 5368      6E74385F 
 5368      7400
 5369              	.LASF37:
 5370 01b4 616C7068 		.ascii	"alpha\000"
ARM GAS  C:\Users\tmj32\AppData\Local\Temp\ccepMVRX.s 			page 115


 5370      6100
 5371              	.LASF97:
 5372 01ba 68696464 		.ascii	"hidden\000"
 5372      656E00
 5373              	.LASF9:
 5374 01c1 6C6F6E67 		.ascii	"long int\000"
 5374      20696E74 
 5374      00
 5375              	.LASF230:
 5376 01ca 795F696E 		.ascii	"y_in\000"
 5376      00
 5377              	.LASF197:
 5378 01cf 74696C65 		.ascii	"tileview\000"
 5378      76696577 
 5378      00
 5379              	.LASF203:
 5380 01d8 636F7079 		.ascii	"copy\000"
 5380      00
 5381              	.LASF80:
 5382 01dd 68656164 		.ascii	"head\000"
 5382      00
 5383              	.LASF189:
 5384 01e2 62746E6D 		.ascii	"btnm\000"
 5384      00
 5385              	.LASF2:
 5386 01e7 7369676E 		.ascii	"signed char\000"
 5386      65642063 
 5386      68617200 
 5387              	.LASF16:
 5388 01f3 75696E74 		.ascii	"uint8_t\000"
 5388      385F7400 
 5389              	.LASF172:
 5390 01fb 746F6461 		.ascii	"today_box\000"
 5390      795F626F 
 5390      7800
 5391              	.LASF156:
 5392 0205 74676C5F 		.ascii	"tgl_pr\000"
 5392      707200
 5393              	.LASF30:
 5394 020c 6765745F 		.ascii	"get_glyph_bitmap\000"
 5394      676C7970 
 5394      685F6269 
 5394      746D6170 
 5394      00
 5395              	.LASF173:
 5396 021d 7363726C 		.ascii	"scrl\000"
 5396      00
 5397              	.LASF35:
 5398 0222 626C7565 		.ascii	"blue\000"
 5398      00
 5399              	.LASF127:
 5400 0227 4C565F53 		.ascii	"LV_SIGNAL_LONG_PRESS_REP\000"
 5400      49474E41 
 5400      4C5F4C4F 
 5400      4E475F50 
 5400      52455353 
 5401              	.LASF3:
ARM GAS  C:\Users\tmj32\AppData\Local\Temp\ccepMVRX.s 			page 116


 5402 0240 756E7369 		.ascii	"unsigned char\000"
 5402      676E6564 
 5402      20636861 
 5402      7200
 5403              	.LASF120:
 5404 024e 4C565F53 		.ascii	"LV_SIGNAL_REFR_EXT_DRAW_PAD\000"
 5404      49474E41 
 5404      4C5F5245 
 5404      46525F45 
 5404      58545F44 
 5405              	.LASF100:
 5406 026a 64726167 		.ascii	"drag_dir\000"
 5406      5F646972 
 5406      00
 5407              	.LASF165:
 5408 0273 6B6E6F62 		.ascii	"knob_on\000"
 5408      5F6F6E00 
 5409              	.LASF26:
 5410 027b 6F66735F 		.ascii	"ofs_x\000"
 5410      7800
 5411              	.LASF27:
 5412 0281 6F66735F 		.ascii	"ofs_y\000"
 5412      7900
 5413              	.LASF166:
 5414 0287 68656164 		.ascii	"header\000"
 5414      657200
 5415              	.LASF33:
 5416 028e 5F426F6F 		.ascii	"_Bool\000"
 5416      6C00
 5417              	.LASF135:
 5418 0294 6C765F73 		.ascii	"lv_signal_cb_t\000"
 5418      69676E61 
 5418      6C5F6362 
 5418      5F7400
 5419              	.LASF198:
 5420 02a3 7461626C 		.ascii	"table\000"
 5420      6500
 5421              	.LASF206:
 5422 02a9 76616C75 		.ascii	"value\000"
 5422      6500
 5423              	.LASF43:
 5424 02af 63686172 		.ascii	"char\000"
 5424      00
 5425              	.LASF108:
 5426 02b4 4C565F44 		.ascii	"LV_DESIGN_DRAW_POST\000"
 5426      45534947 
 5426      4E5F4452 
 5426      41575F50 
 5426      4F535400 
 5427              	.LASF70:
 5428 02c8 626F6479 		.ascii	"body\000"
 5428      00
 5429              	.LASF139:
 5430 02cd 796F6673 		.ascii	"yofs\000"
 5430      00
 5431              	.LASF154:
 5432 02d2 6C765F6C 		.ascii	"lv_lmeter_style_t\000"
ARM GAS  C:\Users\tmj32\AppData\Local\Temp\ccepMVRX.s 			page 117


 5432      6D657465 
 5432      725F7374 
 5432      796C655F 
 5432      7400
 5433              	.LASF6:
 5434 02e4 5F5F7569 		.ascii	"__uint16_t\000"
 5434      6E743136 
 5434      5F7400
 5435              	.LASF171:
 5436 02ef 7765656B 		.ascii	"week_box\000"
 5436      5F626F78 
 5436      00
 5437              	.LASF218:
 5438 02f8 6C765F6C 		.ascii	"lv_lmeter_get_angle_offset\000"
 5438      6D657465 
 5438      725F6765 
 5438      745F616E 
 5438      676C655F 
 5439              	.LASF109:
 5440 0313 4C565F44 		.ascii	"LV_DESIGN_COVER_CHK\000"
 5440      45534947 
 5440      4E5F434F 
 5440      5645525F 
 5440      43484B00 
 5441              	.LASF90:
 5442 0327 64657369 		.ascii	"design_cb\000"
 5442      676E5F63 
 5442      6200
 5443              	.LASF131:
 5444 0331 4C565F53 		.ascii	"LV_SIGNAL_DEFOCUS\000"
 5444      49474E41 
 5444      4C5F4445 
 5444      464F4355 
 5444      5300
 5445              	.LASF194:
 5446 0343 64646C69 		.ascii	"ddlist\000"
 5446      737400
 5447              	.LASF71:
 5448 034a 74657874 		.ascii	"text\000"
 5448      00
 5449              	.LASF214:
 5450 034f 6C765F6C 		.ascii	"lv_lmeter_get_min_value\000"
 5450      6D657465 
 5450      725F6765 
 5450      745F6D69 
 5450      6E5F7661 
 5451              	.LASF72:
 5452 0367 696D6167 		.ascii	"image\000"
 5452      6500
 5453              	.LASF68:
 5454 036d 726F756E 		.ascii	"rounded\000"
 5454      64656400 
 5455              	.LASF95:
 5456 0375 64726167 		.ascii	"drag_throw\000"
 5456      5F746872 
 5456      6F7700
 5457              	.LASF170:
ARM GAS  C:\Users\tmj32\AppData\Local\Temp\ccepMVRX.s 			page 118


 5458 0380 696E6163 		.ascii	"inactive_days\000"
 5458      74697665 
 5458      5F646179 
 5458      7300
 5459              	.LASF83:
 5460 038e 6C765F62 		.ascii	"lv_bidi_dir_t\000"
 5460      6964695F 
 5460      6469725F 
 5460      7400
 5461              	.LASF105:
 5462 039c 6578745F 		.ascii	"ext_draw_pad\000"
 5462      64726177 
 5462      5F706164 
 5462      00
 5463              	.LASF45:
 5464 03a9 6C765F61 		.ascii	"lv_area_t\000"
 5464      7265615F 
 5464      7400
 5465              	.LASF53:
 5466 03b3 6C656674 		.ascii	"left\000"
 5466      00
 5467              	.LASF200:
 5468 03b8 6C765F74 		.ascii	"lv_theme_t\000"
 5468      68656D65 
 5468      5F7400
 5469              	.LASF106:
 5470 03c3 7265616C 		.ascii	"realign\000"
 5470      69676E00 
 5471              	.LASF207:
 5472 03cb 6C765F6C 		.ascii	"lv_lmeter_set_value\000"
 5472      6D657465 
 5472      725F7365 
 5472      745F7661 
 5472      6C756500 
 5473              	.LASF121:
 5474 03df 4C565F53 		.ascii	"LV_SIGNAL_GET_TYPE\000"
 5474      49474E41 
 5474      4C5F4745 
 5474      545F5459 
 5474      504500
 5475              	.LASF217:
 5476 03f2 6C765F6C 		.ascii	"lv_lmeter_get_scale_angle\000"
 5476      6D657465 
 5476      725F6765 
 5476      745F7363 
 5476      616C655F 
 5477              	.LASF174:
 5478 040c 61726561 		.ascii	"area\000"
 5478      00
 5479              	.LASF228:
 5480 0411 795F6F75 		.ascii	"y_out\000"
 5480      7400
 5481              	.LASF74:
 5482 0417 6C765F73 		.ascii	"lv_style_t\000"
 5482      74796C65 
 5482      5F7400
 5483              	.LASF55:
ARM GAS  C:\Users\tmj32\AppData\Local\Temp\ccepMVRX.s 			page 119


 5484 0422 696E6E65 		.ascii	"inner\000"
 5484      7200
 5485              	.LASF11:
 5486 0428 6C6F6E67 		.ascii	"long unsigned int\000"
 5486      20756E73 
 5486      69676E65 
 5486      6420696E 
 5486      7400
 5487              	.LASF158:
 5488 043a 68696E74 		.ascii	"hint\000"
 5488      00
 5489              	.LASF234:
 5490 043f 70617261 		.ascii	"param\000"
 5490      6D00
 5491              	.LASF73:
 5492 0445 6C696E65 		.ascii	"line\000"
 5492      00
 5493              	.LASF130:
 5494 044a 4C565F53 		.ascii	"LV_SIGNAL_FOCUS\000"
 5494      49474E41 
 5494      4C5F464F 
 5494      43555300 
 5495              	.LASF183:
 5496 045a 736C6964 		.ascii	"slider\000"
 5496      657200
 5497              	.LASF148:
 5498 0461 6C696E65 		.ascii	"line_cnt\000"
 5498      5F636E74 
 5498      00
 5499              	.LASF210:
 5500 046a 616E676C 		.ascii	"angle\000"
 5500      6500
 5501              	.LASF201:
 5502 0470 6C765F63 		.ascii	"lv_color_mix\000"
 5502      6F6C6F72 
 5502      5F6D6978 
 5502      00
 5503              	.LASF133:
 5504 047d 4C565F53 		.ascii	"LV_SIGNAL_GET_EDITABLE\000"
 5504      49474E41 
 5504      4C5F4745 
 5504      545F4544 
 5504      49544142 
 5505              	.LASF175:
 5506 0494 6F6E656C 		.ascii	"oneline\000"
 5506      696E6500 
 5507              	.LASF223:
 5508 049c 725F6F75 		.ascii	"r_out\000"
 5508      7400
 5509              	.LASF10:
 5510 04a2 5F5F7569 		.ascii	"__uint32_t\000"
 5510      6E743332 
 5510      5F7400
 5511              	.LASF88:
 5512 04ad 6576656E 		.ascii	"event_cb\000"
 5512      745F6362 
 5512      00
ARM GAS  C:\Users\tmj32\AppData\Local\Temp\ccepMVRX.s 			page 120


 5513              	.LASF54:
 5514 04b6 72696768 		.ascii	"right\000"
 5514      7400
 5515              	.LASF92:
 5516 04bc 7374796C 		.ascii	"style_p\000"
 5516      655F7000 
 5517              	.LASF12:
 5518 04c4 6C6F6E67 		.ascii	"long long int\000"
 5518      206C6F6E 
 5518      6720696E 
 5518      7400
 5519              	.LASF240:
 5520 04d2 433A5C55 		.ascii	"C:\\Users\\tmj32\\Documents\\TCNJ\\Senior_Project\\"
 5520      73657273 
 5520      5C746D6A 
 5520      33325C44 
 5520      6F63756D 
 5521 04ff 4F736369 		.ascii	"Oscilloscope_Senior_Project\\tcom_engineering\\embe"
 5521      6C6C6F73 
 5521      636F7065 
 5521      5F53656E 
 5521      696F725F 
 5522 0530 645F7377 		.ascii	"d_sw\\tcom_app\\tcom_app_psoc6_lvgl6\\tcom_displ_te"
 5522      5C74636F 
 5522      6D5F6170 
 5522      705C7463 
 5522      6F6D5F61 
 5523 0560 73745F70 		.ascii	"st_psoc6.cydsn\000"
 5523      736F6336 
 5523      2E637964 
 5523      736E00
 5524              	.LASF49:
 5525 056f 77696474 		.ascii	"width\000"
 5525      6800
 5526              	.LASF132:
 5527 0575 4C565F53 		.ascii	"LV_SIGNAL_CONTROL\000"
 5527      49474E41 
 5527      4C5F434F 
 5527      4E54524F 
 5527      4C00
 5528              	.LASF52:
 5529 0587 626F7474 		.ascii	"bottom\000"
 5529      6F6D00
 5530              	.LASF86:
 5531 058e 6368696C 		.ascii	"child_ll\000"
 5531      645F6C6C 
 5531      00
 5532              	.LASF162:
 5533 0597 696E6469 		.ascii	"indic\000"
 5533      6300
 5534              	.LASF103:
 5535 059d 70726F74 		.ascii	"protect\000"
 5535      65637400 
 5536              	.LASF220:
 5537 05a5 6D61736B 		.ascii	"mask\000"
 5537      00
 5538              	.LASF196:
ARM GAS  C:\Users\tmj32\AppData\Local\Temp\ccepMVRX.s 			page 121


 5539 05aa 74616276 		.ascii	"tabview\000"
 5539      69657700 
 5540              	.LASF99:
 5541 05b2 70617265 		.ascii	"parent_event\000"
 5541      6E745F65 
 5541      76656E74 
 5541      00
 5542              	.LASF114:
 5543 05bf 4C565F53 		.ascii	"LV_SIGNAL_CLEANUP\000"
 5543      49474E41 
 5543      4C5F434C 
 5543      45414E55 
 5543      5000
 5544              	.LASF140:
 5545 05d1 616C6967 		.ascii	"align\000"
 5545      6E00
 5546              	.LASF69:
 5547 05d7 676C6173 		.ascii	"glass\000"
 5547      7300
 5548              	.LASF229:
 5549 05dd 785F6F75 		.ascii	"x_out\000"
 5549      7400
 5550              	.LASF232:
 5551 05e3 6C765F6C 		.ascii	"lv_lmeter_signal\000"
 5551      6D657465 
 5551      725F7369 
 5551      676E616C 
 5551      00
 5552              	.LASF14:
 5553 05f4 756E7369 		.ascii	"unsigned int\000"
 5553      676E6564 
 5553      20696E74 
 5553      00
 5554              	.LASF115:
 5555 0601 4C565F53 		.ascii	"LV_SIGNAL_CHILD_CHG\000"
 5555      49474E41 
 5555      4C5F4348 
 5555      494C445F 
 5555      43484700 
 5556              	.LASF209:
 5557 0615 6C765F6C 		.ascii	"lv_lmeter_set_scale\000"
 5557      6D657465 
 5557      725F7365 
 5557      745F7363 
 5557      616C6500 
 5558              	.LASF219:
 5559 0629 6C765F6C 		.ascii	"lv_lmeter_design\000"
 5559      6D657465 
 5559      725F6465 
 5559      7369676E 
 5559      00
 5560              	.LASF190:
 5561 063a 6D626F78 		.ascii	"mbox\000"
 5561      00
 5562              	.LASF155:
 5563 063f 74676C5F 		.ascii	"tgl_rel\000"
 5563      72656C00 
ARM GAS  C:\Users\tmj32\AppData\Local\Temp\ccepMVRX.s 			page 122


 5564              	.LASF222:
 5565 0647 7374796C 		.ascii	"style_tmp\000"
 5565      655F746D 
 5565      7000
 5566              	.LASF141:
 5567 0651 6175746F 		.ascii	"auto_realign\000"
 5567      5F726561 
 5567      6C69676E 
 5567      00
 5568              	.LASF107:
 5569 065e 4C565F44 		.ascii	"LV_DESIGN_DRAW_MAIN\000"
 5569      45534947 
 5569      4E5F4452 
 5569      41575F4D 
 5569      41494E00 
 5570              	.LASF28:
 5571 0672 6C765F66 		.ascii	"lv_font_glyph_dsc_t\000"
 5571      6F6E745F 
 5571      676C7970 
 5571      685F6473 
 5571      635F7400 
 5572              	.LASF193:
 5573 0686 6C697374 		.ascii	"list\000"
 5573      00
 5574              	.LASF57:
 5575 068b 67726164 		.ascii	"grad_color\000"
 5575      5F636F6C 
 5575      6F7200
 5576              	.LASF224:
 5577 0696 725F696E 		.ascii	"r_in\000"
 5577      00
 5578              	.LASF191:
 5579 069b 70616765 		.ascii	"page\000"
 5579      00
 5580              	.LASF164:
 5581 06a0 6B6E6F62 		.ascii	"knob_off\000"
 5581      5F6F6666 
 5581      00
 5582              	.LASF185:
 5583 06a9 67617567 		.ascii	"gauge\000"
 5583      6500
 5584              	.LASF123:
 5585 06af 4C565F53 		.ascii	"LV_SIGNAL_PRESSING\000"
 5585      49474E41 
 5585      4C5F5052 
 5585      45535349 
 5585      4E4700
 5586              	.LASF216:
 5587 06c2 6C765F6C 		.ascii	"lv_lmeter_get_line_count\000"
 5587      6D657465 
 5587      725F6765 
 5587      745F6C69 
 5587      6E655F63 
 5588              	.LASF77:
 5589 06db 6C765F72 		.ascii	"lv_res_t\000"
 5589      65735F74 
 5589      00
ARM GAS  C:\Users\tmj32\AppData\Local\Temp\ccepMVRX.s 			page 123


 5590              	.LASF231:
 5591 06e4 785F696E 		.ascii	"x_in\000"
 5591      00
 5592              	.LASF22:
 5593 06e9 6C6F6E67 		.ascii	"long double\000"
 5593      20646F75 
 5593      626C6500 
 5594              	.LASF144:
 5595 06f5 6C765F64 		.ascii	"lv_drag_dir_t\000"
 5595      7261675F 
 5595      6469725F 
 5595      7400
 5596              	.LASF199:
 5597 0703 7374796C 		.ascii	"style\000"
 5597      6500
 5598              	.LASF91:
 5599 0709 6578745F 		.ascii	"ext_attr\000"
 5599      61747472 
 5599      00
 5600              	.LASF110:
 5601 0712 6C765F64 		.ascii	"lv_design_mode_t\000"
 5601      65736967 
 5601      6E5F6D6F 
 5601      64655F74 
 5601      00
 5602              	.LASF67:
 5603 0723 73756270 		.ascii	"subpx\000"
 5603      7800
 5604              	.LASF124:
 5605 0729 4C565F53 		.ascii	"LV_SIGNAL_PRESS_LOST\000"
 5605      49474E41 
 5605      4C5F5052 
 5605      4553535F 
 5605      4C4F5354 
 5606              	.LASF129:
 5607 073e 4C565F53 		.ascii	"LV_SIGNAL_DRAG_END\000"
 5607      49474E41 
 5607      4C5F4452 
 5607      41475F45 
 5607      4E4400
 5608              	.LASF117:
 5609 0751 4C565F53 		.ascii	"LV_SIGNAL_PARENT_SIZE_CHG\000"
 5609      49474E41 
 5609      4C5F5041 
 5609      52454E54 
 5609      5F53495A 
 5610              	.LASF212:
 5611 076b 6C765F6C 		.ascii	"lv_lmeter_create\000"
 5611      6D657465 
 5611      725F6372 
 5611      65617465 
 5611      00
 5612              	.LASF125:
 5613 077c 4C565F53 		.ascii	"LV_SIGNAL_RELEASED\000"
 5613      49474E41 
 5613      4C5F5245 
 5613      4C454153 
ARM GAS  C:\Users\tmj32\AppData\Local\Temp\ccepMVRX.s 			page 124


 5613      454400
 5614              	.LASF56:
 5615 078f 6D61696E 		.ascii	"main_color\000"
 5615      5F636F6C 
 5615      6F7200
 5616              	.LASF0:
 5617 079a 5F5F696E 		.ascii	"__int8_t\000"
 5617      74385F74 
 5617      00
 5618              	.LASF134:
 5619 07a3 6C765F73 		.ascii	"lv_signal_t\000"
 5619      69676E61 
 5619      6C5F7400 
 5620              	.LASF13:
 5621 07af 6C6F6E67 		.ascii	"long long unsigned int\000"
 5621      206C6F6E 
 5621      6720756E 
 5621      7369676E 
 5621      65642069 
 5622              	.LASF18:
 5623 07c6 75696E74 		.ascii	"uint16_t\000"
 5623      31365F74 
 5623      00
 5624              	.LASF76:
 5625 07cf 4C565F52 		.ascii	"LV_RES_OK\000"
 5625      45535F4F 
 5625      4B00
 5626              	.LASF152:
 5627 07d9 6C765F6C 		.ascii	"lv_lmeter_ext_t\000"
 5627      6D657465 
 5627      725F6578 
 5627      745F7400 
 5628              	.LASF235:
 5629 07e9 6C765F6C 		.ascii	"lv_lmeter_coord_round\000"
 5629      6D657465 
 5629      725F636F 
 5629      6F72645F 
 5629      726F756E 
 5630              	.LASF40:
 5631 07ff 6C765F63 		.ascii	"lv_color_t\000"
 5631      6F6C6F72 
 5631      5F7400
 5632              	.LASF237:
 5633 080a 616E6365 		.ascii	"ancestor_signal\000"
 5633      73746F72 
 5633      5F736967 
 5633      6E616C00 
 5634              	.LASF213:
 5635 081a 6C765F6C 		.ascii	"lv_lmeter_get_value\000"
 5635      6D657465 
 5635      725F6765 
 5635      745F7661 
 5635      6C756500 
 5636              	.LASF149:
 5637 082e 6375725F 		.ascii	"cur_value\000"
 5637      76616C75 
 5637      6500
ARM GAS  C:\Users\tmj32\AppData\Local\Temp\ccepMVRX.s 			page 125


 5638              	.LASF238:
 5639 0838 474E5520 		.ascii	"GNU C11 5.4.1 20160609 (release) [ARM/embedded-5-br"
 5639      43313120 
 5639      352E342E 
 5639      31203230 
 5639      31363036 
 5640 086b 616E6368 		.ascii	"anch revision 237715] -mcpu=cortex-m4 -mfloat-abi=s"
 5640      20726576 
 5640      6973696F 
 5640      6E203233 
 5640      37373135 
 5641 089e 6F667466 		.ascii	"oftfp -mfpu=fpv4-sp-d16 -mthumb -g -O0 -ffunction-s"
 5641      70202D6D 
 5641      6670753D 
 5641      66707634 
 5641      2D73702D 
 5642 08d1 65637469 		.ascii	"ections -ffat-lto-objects\000"
 5642      6F6E7320 
 5642      2D666661 
 5642      742D6C74 
 5642      6F2D6F62 
 5643              	.LASF215:
 5644 08eb 6C765F6C 		.ascii	"lv_lmeter_get_max_value\000"
 5644      6D657465 
 5644      725F6765 
 5644      745F6D61 
 5644      785F7661 
 5645              	.LASF161:
 5646 0903 6465636F 		.ascii	"decor\000"
 5646      7200
 5647              	.LASF181:
 5648 0909 696D6762 		.ascii	"imgbtn\000"
 5648      746E00
 5649              	.LASF4:
 5650 0910 5F5F696E 		.ascii	"__int16_t\000"
 5650      7431365F 
 5650      7400
 5651              	.LASF179:
 5652 091a 70616E65 		.ascii	"panel\000"
 5652      6C00
 5653              	.LASF38:
 5654 0920 66756C6C 		.ascii	"full\000"
 5654      00
 5655              	.LASF48:
 5656 0925 636F6C6F 		.ascii	"color\000"
 5656      7200
 5657              	.LASF65:
 5658 092b 6C696E65 		.ascii	"line_space\000"
 5658      5F737061 
 5658      636500
 5659              	.LASF138:
 5660 0936 786F6673 		.ascii	"xofs\000"
 5660      00
 5661              	.LASF145:
 5662 093b 6C765F6F 		.ascii	"lv_obj_t\000"
 5662      626A5F74 
 5662      00
ARM GAS  C:\Users\tmj32\AppData\Local\Temp\ccepMVRX.s 			page 126


 5663              	.LASF47:
 5664 0944 6C765F73 		.ascii	"lv_shadow_type_t\000"
 5664      6861646F 
 5664      775F7479 
 5664      70655F74 
 5664      00
 5665              	.LASF94:
 5666 0955 64726167 		.ascii	"drag\000"
 5666      00
 5667              	.LASF150:
 5668 095a 6D696E5F 		.ascii	"min_value\000"
 5668      76616C75 
 5668      6500
 5669              	.LASF85:
 5670 0964 5F6C765F 		.ascii	"_lv_obj_t\000"
 5670      6F626A5F 
 5670      7400
 5671              	.LASF63:
 5672 096e 666F6E74 		.ascii	"font\000"
 5672      00
 5673              	.LASF64:
 5674 0973 6C657474 		.ascii	"letter_space\000"
 5674      65725F73 
 5674      70616365 
 5674      00
 5675              	.LASF188:
 5676 0980 63616C65 		.ascii	"calendar\000"
 5676      6E646172 
 5676      00
 5677              	.LASF101:
 5678 0989 62617365 		.ascii	"base_dir\000"
 5678      5F646972 
 5678      00
 5679              	.LASF25:
 5680 0992 626F785F 		.ascii	"box_h\000"
 5680      6800
 5681              	.LASF137:
 5682 0998 62617365 		.ascii	"base\000"
 5682      00
 5683              	.LASF24:
 5684 099d 626F785F 		.ascii	"box_w\000"
 5684      7700
 5685              	.LASF5:
 5686 09a3 73686F72 		.ascii	"short int\000"
 5686      7420696E 
 5686      7400
 5687              	.LASF32:
 5688 09ad 62617365 		.ascii	"base_line\000"
 5688      5F6C696E 
 5688      6500
 5689              	.LASF82:
 5690 09b7 6C765F6C 		.ascii	"lv_ll_t\000"
 5690      6C5F7400 
 5691              	.LASF221:
 5692 09bf 6D6F6465 		.ascii	"mode\000"
 5692      00
 5693              	.LASF17:
ARM GAS  C:\Users\tmj32\AppData\Local\Temp\ccepMVRX.s 			page 127


 5694 09c4 696E7431 		.ascii	"int16_t\000"
 5694      365F7400 
 5695              	.LASF116:
 5696 09cc 4C565F53 		.ascii	"LV_SIGNAL_CORD_CHG\000"
 5696      49474E41 
 5696      4C5F434F 
 5696      52445F43 
 5696      484700
 5697              	.LASF87:
 5698 09df 636F6F72 		.ascii	"coords\000"
 5698      647300
 5699              	.LASF192:
 5700 09e6 7370696E 		.ascii	"spinbox\000"
 5700      626F7800 
 5701              	.LASF204:
 5702 09ee 6E65775F 		.ascii	"new_lmeter\000"
 5702      6C6D6574 
 5702      657200
 5703              	.LASF98:
 5704 09f9 6F70615F 		.ascii	"opa_scale_en\000"
 5704      7363616C 
 5704      655F656E 
 5704      00
 5705              	.LASF168:
 5706 0a06 6461795F 		.ascii	"day_names\000"
 5706      6E616D65 
 5706      7300
 5707              	.LASF60:
 5708 0a10 73686164 		.ascii	"shadow\000"
 5708      6F7700
 5709              	.LASF96:
 5710 0a17 64726167 		.ascii	"drag_parent\000"
 5710      5F706172 
 5710      656E7400 
 5711              	.LASF151:
 5712 0a23 6D61785F 		.ascii	"max_value\000"
 5712      76616C75 
 5712      6500
 5713              	.LASF119:
 5714 0a2d 4C565F53 		.ascii	"LV_SIGNAL_BASE_DIR_CHG\000"
 5714      49474E41 
 5714      4C5F4241 
 5714      53455F44 
 5714      49525F43 
 5715              	.LASF205:
 5716 0a44 636F7079 		.ascii	"copy_ext\000"
 5716      5F657874 
 5716      00
 5717              	.LASF178:
 5718 0a4d 636F6E74 		.ascii	"content\000"
 5718      656E7400 
 5719              	.LASF153:
 5720 0a55 4C565F4C 		.ascii	"LV_LMETER_STYLE_MAIN\000"
 5720      4D455445 
 5720      525F5354 
 5720      594C455F 
 5720      4D41494E 
ARM GAS  C:\Users\tmj32\AppData\Local\Temp\ccepMVRX.s 			page 128


 5721              	.LASF61:
 5722 0a6a 70616464 		.ascii	"padding\000"
 5722      696E6700 
 5723              	.LASF236:
 5724 0a72 7761735F 		.ascii	"was_negative\000"
 5724      6E656761 
 5724      74697665 
 5724      00
 5725              	.LASF89:
 5726 0a7f 7369676E 		.ascii	"signal_cb\000"
 5726      616C5F63 
 5726      6200
 5727              	.LASF20:
 5728 0a89 75696E74 		.ascii	"uint32_t\000"
 5728      33325F74 
 5728      00
 5729              	.LASF226:
 5730 0a92 795F6F66 		.ascii	"y_ofs\000"
 5730      7300
 5731              	.LASF227:
 5732 0a98 6C657665 		.ascii	"level\000"
 5732      6C00
 5733              	.LASF160:
 5734 0a9e 6461726B 		.ascii	"dark\000"
 5734      00
 5735              	.LASF36:
 5736 0aa3 67726565 		.ascii	"green\000"
 5736      6E00
 5737              	.LASF34:
 5738 0aa9 6C765F66 		.ascii	"lv_font_t\000"
 5738      6F6E745F 
 5738      7400
 5739              	.LASF102:
 5740 0ab3 72657365 		.ascii	"reserved\000"
 5740      72766564 
 5740      00
 5741              	.LASF7:
 5742 0abc 73686F72 		.ascii	"short unsigned int\000"
 5742      7420756E 
 5742      7369676E 
 5742      65642069 
 5742      6E7400
 5743              	.LASF241:
 5744 0acf 6C765F6C 		.ascii	"lv_lmeter_set_style\000"
 5744      6D657465 
 5744      725F7365 
 5744      745F7374 
 5744      796C6500 
 5745              	.LASF21:
 5746 0ae3 6C765F63 		.ascii	"lv_coord_t\000"
 5746      6F6F7264 
 5746      5F7400
 5747              	.LASF208:
 5748 0aee 6C765F6C 		.ascii	"lv_lmeter_set_range\000"
 5748      6D657465 
 5748      725F7365 
 5748      745F7261 
ARM GAS  C:\Users\tmj32\AppData\Local\Temp\ccepMVRX.s 			page 129


 5748      6E676500 
 5749              	.LASF59:
 5750 0b02 626F7264 		.ascii	"border\000"
 5750      657200
 5751              	.LASF182:
 5752 0b09 6C616265 		.ascii	"label\000"
 5752      6C00
 5753              	.LASF29:
 5754 0b0f 6765745F 		.ascii	"get_glyph_dsc\000"
 5754      676C7970 
 5754      685F6473 
 5754      6300
 5755              	.LASF8:
 5756 0b1d 5F5F696E 		.ascii	"__int32_t\000"
 5756      7433325F 
 5756      7400
 5757              	.LASF46:
 5758 0b27 6C765F62 		.ascii	"lv_border_part_t\000"
 5758      6F726465 
 5758      725F7061 
 5758      72745F74 
 5758      00
 5759              	.LASF113:
 5760 0b38 6C765F65 		.ascii	"lv_event_cb_t\000"
 5760      76656E74 
 5760      5F63625F 
 5760      7400
 5761              	.LASF186:
 5762 0b46 7072656C 		.ascii	"preload\000"
 5762      6F616400 
 5763              	.LASF142:
 5764 0b4e 6F726967 		.ascii	"origo_align\000"
 5764      6F5F616C 
 5764      69676E00 
 5765              	.LASF211:
 5766 0b5a 6C765F6C 		.ascii	"lv_lmeter_set_angle_offset\000"
 5766      6D657465 
 5766      725F7365 
 5766      745F616E 
 5766      676C655F 
 5767              	.LASF163:
 5768 0b75 6B6E6F62 		.ascii	"knob\000"
 5768      00
 5769              	.LASF62:
 5770 0b7a 73656C5F 		.ascii	"sel_color\000"
 5770      636F6C6F 
 5770      7200
 5771              	.LASF84:
 5772 0b84 5F6C765F 		.ascii	"_lv_font_struct\000"
 5772      666F6E74 
 5772      5F737472 
 5772      75637400 
 5773              	.LASF146:
 5774 0b94 7363616C 		.ascii	"scale_angle\000"
 5774      655F616E 
 5774      676C6500 
 5775              	.LASF50:
ARM GAS  C:\Users\tmj32\AppData\Local\Temp\ccepMVRX.s 			page 130


 5776 0ba0 70617274 		.ascii	"part\000"
 5776      00
 5777              	.LASF79:
 5778 0ba5 6E5F7369 		.ascii	"n_size\000"
 5778      7A6500
 5779              	.LASF176:
 5780 0bac 63757273 		.ascii	"cursor\000"
 5780      6F7200
 5781              	.LASF111:
 5782 0bb3 6C765F64 		.ascii	"lv_design_cb_t\000"
 5782      65736967 
 5782      6E5F6362 
 5782      5F7400
 5783              	.LASF104:
 5784 0bc2 6F70615F 		.ascii	"opa_scale\000"
 5784      7363616C 
 5784      6500
 5785              	.LASF195:
 5786 0bcc 726F6C6C 		.ascii	"roller\000"
 5786      657200
 5787              		.ident	"GCC: (GNU Tools for ARM Embedded Processors) 5.4.1 20160609 (release) [ARM/embedded-5-bran
