ARM GAS  C:\Users\tmj32\AppData\Local\Temp\ccUUfkkI.s 			page 1


   1              		.syntax unified
   2              		.cpu cortex-m4
   3              		.eabi_attribute 27, 1
   4              		.fpu fpv4-sp-d16
   5              		.eabi_attribute 20, 1
   6              		.eabi_attribute 21, 1
   7              		.eabi_attribute 23, 3
   8              		.eabi_attribute 24, 1
   9              		.eabi_attribute 25, 1
  10              		.eabi_attribute 26, 1
  11              		.eabi_attribute 30, 6
  12              		.eabi_attribute 34, 1
  13              		.eabi_attribute 18, 4
  14              		.thumb
  15              		.syntax unified
  16              		.file	"lv_list.c"
  17              		.text
  18              	.Ltext0:
  19              		.cfi_sections	.debug_frame
  20              		.section	.text.lv_cont_set_fit2,"ax",%progbits
  21              		.align	2
  22              		.thumb
  23              		.thumb_func
  24              		.type	lv_cont_set_fit2, %function
  25              	lv_cont_set_fit2:
  26              	.LFB31:
  27              		.file 1 "..\\..\\..\\lvgl\\version_6.1.2\\lvgl\\src\\lv_objx\\lv_cont.h"
   1:..\..\..\lvgl\version_6.1.2\lvgl\src\lv_objx/lv_cont.h **** /**
   2:..\..\..\lvgl\version_6.1.2\lvgl\src\lv_objx/lv_cont.h ****  * @file lv_cont.h
   3:..\..\..\lvgl\version_6.1.2\lvgl\src\lv_objx/lv_cont.h ****  *
   4:..\..\..\lvgl\version_6.1.2\lvgl\src\lv_objx/lv_cont.h ****  */
   5:..\..\..\lvgl\version_6.1.2\lvgl\src\lv_objx/lv_cont.h **** 
   6:..\..\..\lvgl\version_6.1.2\lvgl\src\lv_objx/lv_cont.h **** #ifndef LV_CONT_H
   7:..\..\..\lvgl\version_6.1.2\lvgl\src\lv_objx/lv_cont.h **** #define LV_CONT_H
   8:..\..\..\lvgl\version_6.1.2\lvgl\src\lv_objx/lv_cont.h **** 
   9:..\..\..\lvgl\version_6.1.2\lvgl\src\lv_objx/lv_cont.h **** #ifdef __cplusplus
  10:..\..\..\lvgl\version_6.1.2\lvgl\src\lv_objx/lv_cont.h **** extern "C" {
  11:..\..\..\lvgl\version_6.1.2\lvgl\src\lv_objx/lv_cont.h **** #endif
  12:..\..\..\lvgl\version_6.1.2\lvgl\src\lv_objx/lv_cont.h **** 
  13:..\..\..\lvgl\version_6.1.2\lvgl\src\lv_objx/lv_cont.h **** /*********************
  14:..\..\..\lvgl\version_6.1.2\lvgl\src\lv_objx/lv_cont.h ****  *      INCLUDES
  15:..\..\..\lvgl\version_6.1.2\lvgl\src\lv_objx/lv_cont.h ****  *********************/
  16:..\..\..\lvgl\version_6.1.2\lvgl\src\lv_objx/lv_cont.h **** #ifdef LV_CONF_INCLUDE_SIMPLE
  17:..\..\..\lvgl\version_6.1.2\lvgl\src\lv_objx/lv_cont.h **** #include "lv_conf.h"
  18:..\..\..\lvgl\version_6.1.2\lvgl\src\lv_objx/lv_cont.h **** #else
  19:..\..\..\lvgl\version_6.1.2\lvgl\src\lv_objx/lv_cont.h **** #include "../../../lv_conf.h"
  20:..\..\..\lvgl\version_6.1.2\lvgl\src\lv_objx/lv_cont.h **** #endif
  21:..\..\..\lvgl\version_6.1.2\lvgl\src\lv_objx/lv_cont.h **** 
  22:..\..\..\lvgl\version_6.1.2\lvgl\src\lv_objx/lv_cont.h **** #if LV_USE_CONT != 0
  23:..\..\..\lvgl\version_6.1.2\lvgl\src\lv_objx/lv_cont.h **** 
  24:..\..\..\lvgl\version_6.1.2\lvgl\src\lv_objx/lv_cont.h **** #include "../lv_core/lv_obj.h"
  25:..\..\..\lvgl\version_6.1.2\lvgl\src\lv_objx/lv_cont.h **** 
  26:..\..\..\lvgl\version_6.1.2\lvgl\src\lv_objx/lv_cont.h **** /*********************
  27:..\..\..\lvgl\version_6.1.2\lvgl\src\lv_objx/lv_cont.h ****  *      DEFINES
  28:..\..\..\lvgl\version_6.1.2\lvgl\src\lv_objx/lv_cont.h ****  *********************/
  29:..\..\..\lvgl\version_6.1.2\lvgl\src\lv_objx/lv_cont.h **** 
  30:..\..\..\lvgl\version_6.1.2\lvgl\src\lv_objx/lv_cont.h **** /**********************
ARM GAS  C:\Users\tmj32\AppData\Local\Temp\ccUUfkkI.s 			page 2


  31:..\..\..\lvgl\version_6.1.2\lvgl\src\lv_objx/lv_cont.h ****  *      TYPEDEFS
  32:..\..\..\lvgl\version_6.1.2\lvgl\src\lv_objx/lv_cont.h ****  **********************/
  33:..\..\..\lvgl\version_6.1.2\lvgl\src\lv_objx/lv_cont.h **** 
  34:..\..\..\lvgl\version_6.1.2\lvgl\src\lv_objx/lv_cont.h **** /** Container layout options*/
  35:..\..\..\lvgl\version_6.1.2\lvgl\src\lv_objx/lv_cont.h **** enum {
  36:..\..\..\lvgl\version_6.1.2\lvgl\src\lv_objx/lv_cont.h ****     LV_LAYOUT_OFF = 0, /**< No layout */
  37:..\..\..\lvgl\version_6.1.2\lvgl\src\lv_objx/lv_cont.h ****     LV_LAYOUT_CENTER, /**< Center objects */
  38:..\..\..\lvgl\version_6.1.2\lvgl\src\lv_objx/lv_cont.h ****     LV_LAYOUT_COL_L,  /**< Column left align*/
  39:..\..\..\lvgl\version_6.1.2\lvgl\src\lv_objx/lv_cont.h ****     LV_LAYOUT_COL_M,  /**< Column middle align*/
  40:..\..\..\lvgl\version_6.1.2\lvgl\src\lv_objx/lv_cont.h ****     LV_LAYOUT_COL_R,  /**< Column right align*/
  41:..\..\..\lvgl\version_6.1.2\lvgl\src\lv_objx/lv_cont.h ****     LV_LAYOUT_ROW_T,  /**< Row top align*/
  42:..\..\..\lvgl\version_6.1.2\lvgl\src\lv_objx/lv_cont.h ****     LV_LAYOUT_ROW_M,  /**< Row middle align*/
  43:..\..\..\lvgl\version_6.1.2\lvgl\src\lv_objx/lv_cont.h ****     LV_LAYOUT_ROW_B,  /**< Row bottom align*/
  44:..\..\..\lvgl\version_6.1.2\lvgl\src\lv_objx/lv_cont.h ****     LV_LAYOUT_PRETTY, /**< Put as many object as possible in row and begin a new row*/
  45:..\..\..\lvgl\version_6.1.2\lvgl\src\lv_objx/lv_cont.h ****     LV_LAYOUT_GRID,   /**< Align same-sized object into a grid*/
  46:..\..\..\lvgl\version_6.1.2\lvgl\src\lv_objx/lv_cont.h ****     _LV_LAYOUT_NUM
  47:..\..\..\lvgl\version_6.1.2\lvgl\src\lv_objx/lv_cont.h **** };
  48:..\..\..\lvgl\version_6.1.2\lvgl\src\lv_objx/lv_cont.h **** typedef uint8_t lv_layout_t;
  49:..\..\..\lvgl\version_6.1.2\lvgl\src\lv_objx/lv_cont.h **** 
  50:..\..\..\lvgl\version_6.1.2\lvgl\src\lv_objx/lv_cont.h **** /**
  51:..\..\..\lvgl\version_6.1.2\lvgl\src\lv_objx/lv_cont.h ****  * How to resize the container around the children.
  52:..\..\..\lvgl\version_6.1.2\lvgl\src\lv_objx/lv_cont.h ****  */
  53:..\..\..\lvgl\version_6.1.2\lvgl\src\lv_objx/lv_cont.h **** enum {
  54:..\..\..\lvgl\version_6.1.2\lvgl\src\lv_objx/lv_cont.h ****     LV_FIT_NONE,  /**< Do not change the size automatically*/
  55:..\..\..\lvgl\version_6.1.2\lvgl\src\lv_objx/lv_cont.h ****     LV_FIT_TIGHT, /**< Shrink wrap around the children */
  56:..\..\..\lvgl\version_6.1.2\lvgl\src\lv_objx/lv_cont.h ****     LV_FIT_FLOOD, /**< Align the size to the parent's edge*/
  57:..\..\..\lvgl\version_6.1.2\lvgl\src\lv_objx/lv_cont.h ****     LV_FIT_FILL,  /**< Align the size to the parent's edge first but if there is an object out of i
  58:..\..\..\lvgl\version_6.1.2\lvgl\src\lv_objx/lv_cont.h ****                      then get larger */
  59:..\..\..\lvgl\version_6.1.2\lvgl\src\lv_objx/lv_cont.h ****     _LV_FIT_NUM
  60:..\..\..\lvgl\version_6.1.2\lvgl\src\lv_objx/lv_cont.h **** };
  61:..\..\..\lvgl\version_6.1.2\lvgl\src\lv_objx/lv_cont.h **** typedef uint8_t lv_fit_t;
  62:..\..\..\lvgl\version_6.1.2\lvgl\src\lv_objx/lv_cont.h **** 
  63:..\..\..\lvgl\version_6.1.2\lvgl\src\lv_objx/lv_cont.h **** typedef struct
  64:..\..\..\lvgl\version_6.1.2\lvgl\src\lv_objx/lv_cont.h **** {
  65:..\..\..\lvgl\version_6.1.2\lvgl\src\lv_objx/lv_cont.h ****     /*Inherited from 'base_obj' so no inherited ext. */ /*Ext. of ancestor*/
  66:..\..\..\lvgl\version_6.1.2\lvgl\src\lv_objx/lv_cont.h ****     /*New data for this type */
  67:..\..\..\lvgl\version_6.1.2\lvgl\src\lv_objx/lv_cont.h ****     uint8_t layout : 4;     /*A layout from 'lv_layout_t' enum*/
  68:..\..\..\lvgl\version_6.1.2\lvgl\src\lv_objx/lv_cont.h ****     uint8_t fit_left : 2;   /*A fit type from `lv_fit_t` enum */
  69:..\..\..\lvgl\version_6.1.2\lvgl\src\lv_objx/lv_cont.h ****     uint8_t fit_right : 2;  /*A fit type from `lv_fit_t` enum */
  70:..\..\..\lvgl\version_6.1.2\lvgl\src\lv_objx/lv_cont.h ****     uint8_t fit_top : 2;    /*A fit type from `lv_fit_t` enum */
  71:..\..\..\lvgl\version_6.1.2\lvgl\src\lv_objx/lv_cont.h ****     uint8_t fit_bottom : 2; /*A fit type from `lv_fit_t` enum */
  72:..\..\..\lvgl\version_6.1.2\lvgl\src\lv_objx/lv_cont.h **** } lv_cont_ext_t;
  73:..\..\..\lvgl\version_6.1.2\lvgl\src\lv_objx/lv_cont.h **** 
  74:..\..\..\lvgl\version_6.1.2\lvgl\src\lv_objx/lv_cont.h **** /*Styles*/
  75:..\..\..\lvgl\version_6.1.2\lvgl\src\lv_objx/lv_cont.h **** enum {
  76:..\..\..\lvgl\version_6.1.2\lvgl\src\lv_objx/lv_cont.h ****     LV_CONT_STYLE_MAIN,
  77:..\..\..\lvgl\version_6.1.2\lvgl\src\lv_objx/lv_cont.h **** };
  78:..\..\..\lvgl\version_6.1.2\lvgl\src\lv_objx/lv_cont.h **** typedef uint8_t lv_cont_style_t;
  79:..\..\..\lvgl\version_6.1.2\lvgl\src\lv_objx/lv_cont.h **** 
  80:..\..\..\lvgl\version_6.1.2\lvgl\src\lv_objx/lv_cont.h **** /**********************
  81:..\..\..\lvgl\version_6.1.2\lvgl\src\lv_objx/lv_cont.h ****  * GLOBAL PROTOTYPES
  82:..\..\..\lvgl\version_6.1.2\lvgl\src\lv_objx/lv_cont.h ****  **********************/
  83:..\..\..\lvgl\version_6.1.2\lvgl\src\lv_objx/lv_cont.h **** 
  84:..\..\..\lvgl\version_6.1.2\lvgl\src\lv_objx/lv_cont.h **** /**
  85:..\..\..\lvgl\version_6.1.2\lvgl\src\lv_objx/lv_cont.h ****  * Create a container objects
  86:..\..\..\lvgl\version_6.1.2\lvgl\src\lv_objx/lv_cont.h ****  * @param par pointer to an object, it will be the parent of the new container
  87:..\..\..\lvgl\version_6.1.2\lvgl\src\lv_objx/lv_cont.h ****  * @param copy pointer to a container object, if not NULL then the new object will be copied from i
ARM GAS  C:\Users\tmj32\AppData\Local\Temp\ccUUfkkI.s 			page 3


  88:..\..\..\lvgl\version_6.1.2\lvgl\src\lv_objx/lv_cont.h ****  * @return pointer to the created container
  89:..\..\..\lvgl\version_6.1.2\lvgl\src\lv_objx/lv_cont.h ****  */
  90:..\..\..\lvgl\version_6.1.2\lvgl\src\lv_objx/lv_cont.h **** lv_obj_t * lv_cont_create(lv_obj_t * par, const lv_obj_t * copy);
  91:..\..\..\lvgl\version_6.1.2\lvgl\src\lv_objx/lv_cont.h **** 
  92:..\..\..\lvgl\version_6.1.2\lvgl\src\lv_objx/lv_cont.h **** /*=====================
  93:..\..\..\lvgl\version_6.1.2\lvgl\src\lv_objx/lv_cont.h ****  * Setter functions
  94:..\..\..\lvgl\version_6.1.2\lvgl\src\lv_objx/lv_cont.h ****  *====================*/
  95:..\..\..\lvgl\version_6.1.2\lvgl\src\lv_objx/lv_cont.h **** 
  96:..\..\..\lvgl\version_6.1.2\lvgl\src\lv_objx/lv_cont.h **** /**
  97:..\..\..\lvgl\version_6.1.2\lvgl\src\lv_objx/lv_cont.h ****  * Set a layout on a container
  98:..\..\..\lvgl\version_6.1.2\lvgl\src\lv_objx/lv_cont.h ****  * @param cont pointer to a container object
  99:..\..\..\lvgl\version_6.1.2\lvgl\src\lv_objx/lv_cont.h ****  * @param layout a layout from 'lv_cont_layout_t'
 100:..\..\..\lvgl\version_6.1.2\lvgl\src\lv_objx/lv_cont.h ****  */
 101:..\..\..\lvgl\version_6.1.2\lvgl\src\lv_objx/lv_cont.h **** void lv_cont_set_layout(lv_obj_t * cont, lv_layout_t layout);
 102:..\..\..\lvgl\version_6.1.2\lvgl\src\lv_objx/lv_cont.h **** 
 103:..\..\..\lvgl\version_6.1.2\lvgl\src\lv_objx/lv_cont.h **** /**
 104:..\..\..\lvgl\version_6.1.2\lvgl\src\lv_objx/lv_cont.h ****  * Set the fit policy in all 4 directions separately.
 105:..\..\..\lvgl\version_6.1.2\lvgl\src\lv_objx/lv_cont.h ****  * It tell how to change the container's size automatically.
 106:..\..\..\lvgl\version_6.1.2\lvgl\src\lv_objx/lv_cont.h ****  * @param cont pointer to a container object
 107:..\..\..\lvgl\version_6.1.2\lvgl\src\lv_objx/lv_cont.h ****  * @param left left fit policy from `lv_fit_t`
 108:..\..\..\lvgl\version_6.1.2\lvgl\src\lv_objx/lv_cont.h ****  * @param right right fit policy from `lv_fit_t`
 109:..\..\..\lvgl\version_6.1.2\lvgl\src\lv_objx/lv_cont.h ****  * @param top top fit policy from `lv_fit_t`
 110:..\..\..\lvgl\version_6.1.2\lvgl\src\lv_objx/lv_cont.h ****  * @param bottom bottom fit policy from `lv_fit_t`
 111:..\..\..\lvgl\version_6.1.2\lvgl\src\lv_objx/lv_cont.h ****  */
 112:..\..\..\lvgl\version_6.1.2\lvgl\src\lv_objx/lv_cont.h **** void lv_cont_set_fit4(lv_obj_t * cont, lv_fit_t left, lv_fit_t right, lv_fit_t top, lv_fit_t bottom
 113:..\..\..\lvgl\version_6.1.2\lvgl\src\lv_objx/lv_cont.h **** 
 114:..\..\..\lvgl\version_6.1.2\lvgl\src\lv_objx/lv_cont.h **** /**
 115:..\..\..\lvgl\version_6.1.2\lvgl\src\lv_objx/lv_cont.h ****  * Set the fit policy horizontally and vertically separately.
 116:..\..\..\lvgl\version_6.1.2\lvgl\src\lv_objx/lv_cont.h ****  * It tells how to change the container's size automatically.
 117:..\..\..\lvgl\version_6.1.2\lvgl\src\lv_objx/lv_cont.h ****  * @param cont pointer to a container object
 118:..\..\..\lvgl\version_6.1.2\lvgl\src\lv_objx/lv_cont.h ****  * @param hor horizontal fit policy from `lv_fit_t`
 119:..\..\..\lvgl\version_6.1.2\lvgl\src\lv_objx/lv_cont.h ****  * @param ver vertical fit policy from `lv_fit_t`
 120:..\..\..\lvgl\version_6.1.2\lvgl\src\lv_objx/lv_cont.h ****  */
 121:..\..\..\lvgl\version_6.1.2\lvgl\src\lv_objx/lv_cont.h **** static inline void lv_cont_set_fit2(lv_obj_t * cont, lv_fit_t hor, lv_fit_t ver)
 122:..\..\..\lvgl\version_6.1.2\lvgl\src\lv_objx/lv_cont.h **** {
  28              		.loc 1 122 0
  29              		.cfi_startproc
  30              		@ args = 0, pretend = 0, frame = 8
  31              		@ frame_needed = 1, uses_anonymous_args = 0
  32 0000 80B5     		push	{r7, lr}
  33              		.cfi_def_cfa_offset 8
  34              		.cfi_offset 7, -8
  35              		.cfi_offset 14, -4
  36 0002 84B0     		sub	sp, sp, #16
  37              		.cfi_def_cfa_offset 24
  38 0004 02AF     		add	r7, sp, #8
  39              		.cfi_def_cfa 7, 16
  40 0006 7860     		str	r0, [r7, #4]
  41 0008 0B46     		mov	r3, r1
  42 000a FB70     		strb	r3, [r7, #3]
  43 000c 1346     		mov	r3, r2
  44 000e BB70     		strb	r3, [r7, #2]
 123:..\..\..\lvgl\version_6.1.2\lvgl\src\lv_objx/lv_cont.h ****     lv_cont_set_fit4(cont, hor, hor, ver, ver);
  45              		.loc 1 123 0
  46 0010 B878     		ldrb	r0, [r7, #2]	@ zero_extendqisi2
  47 0012 FA78     		ldrb	r2, [r7, #3]	@ zero_extendqisi2
  48 0014 F978     		ldrb	r1, [r7, #3]	@ zero_extendqisi2
ARM GAS  C:\Users\tmj32\AppData\Local\Temp\ccUUfkkI.s 			page 4


  49 0016 BB78     		ldrb	r3, [r7, #2]	@ zero_extendqisi2
  50 0018 0093     		str	r3, [sp]
  51 001a 0346     		mov	r3, r0
  52 001c 7868     		ldr	r0, [r7, #4]
  53 001e FFF7FEFF 		bl	lv_cont_set_fit4
 124:..\..\..\lvgl\version_6.1.2\lvgl\src\lv_objx/lv_cont.h **** }
  54              		.loc 1 124 0
  55 0022 00BF     		nop
  56 0024 0837     		adds	r7, r7, #8
  57              		.cfi_def_cfa_offset 8
  58 0026 BD46     		mov	sp, r7
  59              		.cfi_def_cfa_register 13
  60              		@ sp needed
  61 0028 80BD     		pop	{r7, pc}
  62              		.cfi_endproc
  63              	.LFE31:
  64              		.size	lv_cont_set_fit2, .-lv_cont_set_fit2
  65 002a 00BF     		.section	.text.lv_cont_set_fit,"ax",%progbits
  66              		.align	2
  67              		.thumb
  68              		.thumb_func
  69              		.type	lv_cont_set_fit, %function
  70              	lv_cont_set_fit:
  71              	.LFB32:
 125:..\..\..\lvgl\version_6.1.2\lvgl\src\lv_objx/lv_cont.h **** 
 126:..\..\..\lvgl\version_6.1.2\lvgl\src\lv_objx/lv_cont.h **** /**
 127:..\..\..\lvgl\version_6.1.2\lvgl\src\lv_objx/lv_cont.h ****  * Set the fit policy in all 4 direction at once.
 128:..\..\..\lvgl\version_6.1.2\lvgl\src\lv_objx/lv_cont.h ****  * It tells how to change the container's size automatically.
 129:..\..\..\lvgl\version_6.1.2\lvgl\src\lv_objx/lv_cont.h ****  * @param cont pointer to a container object
 130:..\..\..\lvgl\version_6.1.2\lvgl\src\lv_objx/lv_cont.h ****  * @param fit fit policy from `lv_fit_t`
 131:..\..\..\lvgl\version_6.1.2\lvgl\src\lv_objx/lv_cont.h ****  */
 132:..\..\..\lvgl\version_6.1.2\lvgl\src\lv_objx/lv_cont.h **** static inline void lv_cont_set_fit(lv_obj_t * cont, lv_fit_t fit)
 133:..\..\..\lvgl\version_6.1.2\lvgl\src\lv_objx/lv_cont.h **** {
  72              		.loc 1 133 0
  73              		.cfi_startproc
  74              		@ args = 0, pretend = 0, frame = 8
  75              		@ frame_needed = 1, uses_anonymous_args = 0
  76 0000 80B5     		push	{r7, lr}
  77              		.cfi_def_cfa_offset 8
  78              		.cfi_offset 7, -8
  79              		.cfi_offset 14, -4
  80 0002 84B0     		sub	sp, sp, #16
  81              		.cfi_def_cfa_offset 24
  82 0004 02AF     		add	r7, sp, #8
  83              		.cfi_def_cfa 7, 16
  84 0006 7860     		str	r0, [r7, #4]
  85 0008 0B46     		mov	r3, r1
  86 000a FB70     		strb	r3, [r7, #3]
 134:..\..\..\lvgl\version_6.1.2\lvgl\src\lv_objx/lv_cont.h ****     lv_cont_set_fit4(cont, fit, fit, fit, fit);
  87              		.loc 1 134 0
  88 000c F878     		ldrb	r0, [r7, #3]	@ zero_extendqisi2
  89 000e FA78     		ldrb	r2, [r7, #3]	@ zero_extendqisi2
  90 0010 F978     		ldrb	r1, [r7, #3]	@ zero_extendqisi2
  91 0012 FB78     		ldrb	r3, [r7, #3]	@ zero_extendqisi2
  92 0014 0093     		str	r3, [sp]
  93 0016 0346     		mov	r3, r0
  94 0018 7868     		ldr	r0, [r7, #4]
ARM GAS  C:\Users\tmj32\AppData\Local\Temp\ccUUfkkI.s 			page 5


  95 001a FFF7FEFF 		bl	lv_cont_set_fit4
 135:..\..\..\lvgl\version_6.1.2\lvgl\src\lv_objx/lv_cont.h **** }
  96              		.loc 1 135 0
  97 001e 00BF     		nop
  98 0020 0837     		adds	r7, r7, #8
  99              		.cfi_def_cfa_offset 8
 100 0022 BD46     		mov	sp, r7
 101              		.cfi_def_cfa_register 13
 102              		@ sp needed
 103 0024 80BD     		pop	{r7, pc}
 104              		.cfi_endproc
 105              	.LFE32:
 106              		.size	lv_cont_set_fit, .-lv_cont_set_fit
 107 0026 00BF     		.section	.text.lv_page_set_scrl_fit2,"ax",%progbits
 108              		.align	2
 109              		.thumb
 110              		.thumb_func
 111              		.type	lv_page_set_scrl_fit2, %function
 112              	lv_page_set_scrl_fit2:
 113              	.LFB36:
 114              		.file 2 "..\\..\\..\\lvgl\\version_6.1.2\\lvgl\\src\\lv_objx\\lv_page.h"
   1:..\..\..\lvgl\version_6.1.2\lvgl\src\lv_objx/lv_page.h **** /**
   2:..\..\..\lvgl\version_6.1.2\lvgl\src\lv_objx/lv_page.h ****  * @file lv_page.h
   3:..\..\..\lvgl\version_6.1.2\lvgl\src\lv_objx/lv_page.h ****  *
   4:..\..\..\lvgl\version_6.1.2\lvgl\src\lv_objx/lv_page.h ****  */
   5:..\..\..\lvgl\version_6.1.2\lvgl\src\lv_objx/lv_page.h **** 
   6:..\..\..\lvgl\version_6.1.2\lvgl\src\lv_objx/lv_page.h **** #ifndef LV_PAGE_H
   7:..\..\..\lvgl\version_6.1.2\lvgl\src\lv_objx/lv_page.h **** #define LV_PAGE_H
   8:..\..\..\lvgl\version_6.1.2\lvgl\src\lv_objx/lv_page.h **** 
   9:..\..\..\lvgl\version_6.1.2\lvgl\src\lv_objx/lv_page.h **** #ifdef __cplusplus
  10:..\..\..\lvgl\version_6.1.2\lvgl\src\lv_objx/lv_page.h **** extern "C" {
  11:..\..\..\lvgl\version_6.1.2\lvgl\src\lv_objx/lv_page.h **** #endif
  12:..\..\..\lvgl\version_6.1.2\lvgl\src\lv_objx/lv_page.h **** 
  13:..\..\..\lvgl\version_6.1.2\lvgl\src\lv_objx/lv_page.h **** /*********************
  14:..\..\..\lvgl\version_6.1.2\lvgl\src\lv_objx/lv_page.h ****  *      INCLUDES
  15:..\..\..\lvgl\version_6.1.2\lvgl\src\lv_objx/lv_page.h ****  *********************/
  16:..\..\..\lvgl\version_6.1.2\lvgl\src\lv_objx/lv_page.h **** #ifdef LV_CONF_INCLUDE_SIMPLE
  17:..\..\..\lvgl\version_6.1.2\lvgl\src\lv_objx/lv_page.h **** #include "lv_conf.h"
  18:..\..\..\lvgl\version_6.1.2\lvgl\src\lv_objx/lv_page.h **** #else
  19:..\..\..\lvgl\version_6.1.2\lvgl\src\lv_objx/lv_page.h **** #include "../../../lv_conf.h"
  20:..\..\..\lvgl\version_6.1.2\lvgl\src\lv_objx/lv_page.h **** #endif
  21:..\..\..\lvgl\version_6.1.2\lvgl\src\lv_objx/lv_page.h **** 
  22:..\..\..\lvgl\version_6.1.2\lvgl\src\lv_objx/lv_page.h **** #if LV_USE_PAGE != 0
  23:..\..\..\lvgl\version_6.1.2\lvgl\src\lv_objx/lv_page.h **** 
  24:..\..\..\lvgl\version_6.1.2\lvgl\src\lv_objx/lv_page.h **** /*Testing of dependencies*/
  25:..\..\..\lvgl\version_6.1.2\lvgl\src\lv_objx/lv_page.h **** #if LV_USE_CONT == 0
  26:..\..\..\lvgl\version_6.1.2\lvgl\src\lv_objx/lv_page.h **** #error "lv_page: lv_cont is required. Enable it in lv_conf.h (LV_USE_CONT  1) "
  27:..\..\..\lvgl\version_6.1.2\lvgl\src\lv_objx/lv_page.h **** #endif
  28:..\..\..\lvgl\version_6.1.2\lvgl\src\lv_objx/lv_page.h **** 
  29:..\..\..\lvgl\version_6.1.2\lvgl\src\lv_objx/lv_page.h **** #include "lv_cont.h"
  30:..\..\..\lvgl\version_6.1.2\lvgl\src\lv_objx/lv_page.h **** #include "../lv_core/lv_indev.h"
  31:..\..\..\lvgl\version_6.1.2\lvgl\src\lv_objx/lv_page.h **** #include "../lv_misc/lv_anim.h"
  32:..\..\..\lvgl\version_6.1.2\lvgl\src\lv_objx/lv_page.h **** 
  33:..\..\..\lvgl\version_6.1.2\lvgl\src\lv_objx/lv_page.h **** /*********************
  34:..\..\..\lvgl\version_6.1.2\lvgl\src\lv_objx/lv_page.h ****  *      DEFINES
  35:..\..\..\lvgl\version_6.1.2\lvgl\src\lv_objx/lv_page.h ****  *********************/
  36:..\..\..\lvgl\version_6.1.2\lvgl\src\lv_objx/lv_page.h **** 
ARM GAS  C:\Users\tmj32\AppData\Local\Temp\ccUUfkkI.s 			page 6


  37:..\..\..\lvgl\version_6.1.2\lvgl\src\lv_objx/lv_page.h **** /**********************
  38:..\..\..\lvgl\version_6.1.2\lvgl\src\lv_objx/lv_page.h ****  *      TYPEDEFS
  39:..\..\..\lvgl\version_6.1.2\lvgl\src\lv_objx/lv_page.h ****  **********************/
  40:..\..\..\lvgl\version_6.1.2\lvgl\src\lv_objx/lv_page.h **** 
  41:..\..\..\lvgl\version_6.1.2\lvgl\src\lv_objx/lv_page.h **** /** Scrollbar modes: shows when should the scrollbars be visible*/
  42:..\..\..\lvgl\version_6.1.2\lvgl\src\lv_objx/lv_page.h **** enum {
  43:..\..\..\lvgl\version_6.1.2\lvgl\src\lv_objx/lv_page.h ****     LV_SB_MODE_OFF    = 0x0, /**< Never show scrollbars*/
  44:..\..\..\lvgl\version_6.1.2\lvgl\src\lv_objx/lv_page.h ****     LV_SB_MODE_ON     = 0x1, /**< Always show scrollbars*/
  45:..\..\..\lvgl\version_6.1.2\lvgl\src\lv_objx/lv_page.h ****     LV_SB_MODE_DRAG   = 0x2, /**< Show scrollbars when page is being dragged*/
  46:..\..\..\lvgl\version_6.1.2\lvgl\src\lv_objx/lv_page.h ****     LV_SB_MODE_AUTO   = 0x3, /**< Show scrollbars when the scrollable container is large enough to 
  47:..\..\..\lvgl\version_6.1.2\lvgl\src\lv_objx/lv_page.h ****     LV_SB_MODE_HIDE   = 0x4, /**< Hide the scroll bar temporally*/
  48:..\..\..\lvgl\version_6.1.2\lvgl\src\lv_objx/lv_page.h ****     LV_SB_MODE_UNHIDE = 0x5, /**< Unhide the previously hidden scrollbar. Recover it's type too*/
  49:..\..\..\lvgl\version_6.1.2\lvgl\src\lv_objx/lv_page.h **** };
  50:..\..\..\lvgl\version_6.1.2\lvgl\src\lv_objx/lv_page.h **** typedef uint8_t lv_sb_mode_t;
  51:..\..\..\lvgl\version_6.1.2\lvgl\src\lv_objx/lv_page.h **** 
  52:..\..\..\lvgl\version_6.1.2\lvgl\src\lv_objx/lv_page.h **** /** Edges: describes the four edges of the page*/
  53:..\..\..\lvgl\version_6.1.2\lvgl\src\lv_objx/lv_page.h **** enum { LV_PAGE_EDGE_LEFT = 0x1, LV_PAGE_EDGE_TOP = 0x2, LV_PAGE_EDGE_RIGHT = 0x4, LV_PAGE_EDGE_BOTT
  54:..\..\..\lvgl\version_6.1.2\lvgl\src\lv_objx/lv_page.h **** typedef uint8_t lv_page_edge_t;
  55:..\..\..\lvgl\version_6.1.2\lvgl\src\lv_objx/lv_page.h **** 
  56:..\..\..\lvgl\version_6.1.2\lvgl\src\lv_objx/lv_page.h **** /*Data of page*/
  57:..\..\..\lvgl\version_6.1.2\lvgl\src\lv_objx/lv_page.h **** typedef struct
  58:..\..\..\lvgl\version_6.1.2\lvgl\src\lv_objx/lv_page.h **** {
  59:..\..\..\lvgl\version_6.1.2\lvgl\src\lv_objx/lv_page.h ****     lv_cont_ext_t bg; /*Ext. of ancestor*/
  60:..\..\..\lvgl\version_6.1.2\lvgl\src\lv_objx/lv_page.h ****     /*New data for this type */
  61:..\..\..\lvgl\version_6.1.2\lvgl\src\lv_objx/lv_page.h ****     lv_obj_t * scrl; /*The scrollable object on the background*/
  62:..\..\..\lvgl\version_6.1.2\lvgl\src\lv_objx/lv_page.h ****     struct
  63:..\..\..\lvgl\version_6.1.2\lvgl\src\lv_objx/lv_page.h ****     {
  64:..\..\..\lvgl\version_6.1.2\lvgl\src\lv_objx/lv_page.h ****         const lv_style_t * style; /*Style of scrollbars*/
  65:..\..\..\lvgl\version_6.1.2\lvgl\src\lv_objx/lv_page.h ****         lv_area_t hor_area;       /*Horizontal scrollbar area relative to the page. (Handled by the
  66:..\..\..\lvgl\version_6.1.2\lvgl\src\lv_objx/lv_page.h ****         lv_area_t ver_area;       /*Vertical scrollbar area relative to the page (Handled by the li
  67:..\..\..\lvgl\version_6.1.2\lvgl\src\lv_objx/lv_page.h ****         uint8_t hor_draw : 1;     /*1: horizontal scrollbar is visible now (Handled by the library)
  68:..\..\..\lvgl\version_6.1.2\lvgl\src\lv_objx/lv_page.h ****         uint8_t ver_draw : 1;     /*1: vertical scrollbar is visible now (Handled by the library)*/
  69:..\..\..\lvgl\version_6.1.2\lvgl\src\lv_objx/lv_page.h ****         lv_sb_mode_t mode : 3;    /*Scrollbar visibility from 'lv_page_sb_mode_t'*/
  70:..\..\..\lvgl\version_6.1.2\lvgl\src\lv_objx/lv_page.h ****     } sb;
  71:..\..\..\lvgl\version_6.1.2\lvgl\src\lv_objx/lv_page.h **** #if LV_USE_ANIMATION
  72:..\..\..\lvgl\version_6.1.2\lvgl\src\lv_objx/lv_page.h ****     struct
  73:..\..\..\lvgl\version_6.1.2\lvgl\src\lv_objx/lv_page.h ****     {
  74:..\..\..\lvgl\version_6.1.2\lvgl\src\lv_objx/lv_page.h ****         lv_anim_value_t state;    /*Store the current size of the edge flash effect*/
  75:..\..\..\lvgl\version_6.1.2\lvgl\src\lv_objx/lv_page.h ****         const lv_style_t * style; /*Style of edge flash effect (usually homogeneous circle)*/
  76:..\..\..\lvgl\version_6.1.2\lvgl\src\lv_objx/lv_page.h ****         uint8_t enabled : 1;      /*1: Show a flash animation on the edge*/
  77:..\..\..\lvgl\version_6.1.2\lvgl\src\lv_objx/lv_page.h ****         uint8_t top_ip : 1;       /*Used internally to show that top most position is reached (flas
  78:..\..\..\lvgl\version_6.1.2\lvgl\src\lv_objx/lv_page.h ****                                      Progress)*/
  79:..\..\..\lvgl\version_6.1.2\lvgl\src\lv_objx/lv_page.h ****         uint8_t bottom_ip : 1;    /*Used internally to show that bottom most position is reached (f
  80:..\..\..\lvgl\version_6.1.2\lvgl\src\lv_objx/lv_page.h ****                                      is In Progress)*/
  81:..\..\..\lvgl\version_6.1.2\lvgl\src\lv_objx/lv_page.h ****         uint8_t right_ip : 1;     /*Used internally to show that right most position is reached (fl
  82:..\..\..\lvgl\version_6.1.2\lvgl\src\lv_objx/lv_page.h ****                                      is In Progress)*/
  83:..\..\..\lvgl\version_6.1.2\lvgl\src\lv_objx/lv_page.h ****         uint8_t left_ip : 1;      /*Used internally to show that left most position is reached (fla
  84:..\..\..\lvgl\version_6.1.2\lvgl\src\lv_objx/lv_page.h ****                                      In Progress)*/
  85:..\..\..\lvgl\version_6.1.2\lvgl\src\lv_objx/lv_page.h ****     } edge_flash;
  86:..\..\..\lvgl\version_6.1.2\lvgl\src\lv_objx/lv_page.h **** 
  87:..\..\..\lvgl\version_6.1.2\lvgl\src\lv_objx/lv_page.h ****     uint16_t anim_time; /*Scroll animation time*/
  88:..\..\..\lvgl\version_6.1.2\lvgl\src\lv_objx/lv_page.h **** #endif
  89:..\..\..\lvgl\version_6.1.2\lvgl\src\lv_objx/lv_page.h **** 
  90:..\..\..\lvgl\version_6.1.2\lvgl\src\lv_objx/lv_page.h ****     uint8_t scroll_prop : 1;    /*1: Propagate the scrolling the the parent if the edge is reached*
  91:..\..\..\lvgl\version_6.1.2\lvgl\src\lv_objx/lv_page.h ****     uint8_t scroll_prop_ip : 1; /*1: Scroll propagation is in progress (used by the library)*/
  92:..\..\..\lvgl\version_6.1.2\lvgl\src\lv_objx/lv_page.h **** } lv_page_ext_t;
  93:..\..\..\lvgl\version_6.1.2\lvgl\src\lv_objx/lv_page.h **** 
ARM GAS  C:\Users\tmj32\AppData\Local\Temp\ccUUfkkI.s 			page 7


  94:..\..\..\lvgl\version_6.1.2\lvgl\src\lv_objx/lv_page.h **** enum {
  95:..\..\..\lvgl\version_6.1.2\lvgl\src\lv_objx/lv_page.h ****     LV_PAGE_STYLE_BG,
  96:..\..\..\lvgl\version_6.1.2\lvgl\src\lv_objx/lv_page.h ****     LV_PAGE_STYLE_SCRL,
  97:..\..\..\lvgl\version_6.1.2\lvgl\src\lv_objx/lv_page.h ****     LV_PAGE_STYLE_SB,
  98:..\..\..\lvgl\version_6.1.2\lvgl\src\lv_objx/lv_page.h ****     LV_PAGE_STYLE_EDGE_FLASH,
  99:..\..\..\lvgl\version_6.1.2\lvgl\src\lv_objx/lv_page.h **** };
 100:..\..\..\lvgl\version_6.1.2\lvgl\src\lv_objx/lv_page.h **** typedef uint8_t lv_page_style_t;
 101:..\..\..\lvgl\version_6.1.2\lvgl\src\lv_objx/lv_page.h **** 
 102:..\..\..\lvgl\version_6.1.2\lvgl\src\lv_objx/lv_page.h **** /**********************
 103:..\..\..\lvgl\version_6.1.2\lvgl\src\lv_objx/lv_page.h ****  * GLOBAL PROTOTYPES
 104:..\..\..\lvgl\version_6.1.2\lvgl\src\lv_objx/lv_page.h ****  **********************/
 105:..\..\..\lvgl\version_6.1.2\lvgl\src\lv_objx/lv_page.h **** 
 106:..\..\..\lvgl\version_6.1.2\lvgl\src\lv_objx/lv_page.h **** /**
 107:..\..\..\lvgl\version_6.1.2\lvgl\src\lv_objx/lv_page.h ****  * Create a page objects
 108:..\..\..\lvgl\version_6.1.2\lvgl\src\lv_objx/lv_page.h ****  * @param par pointer to an object, it will be the parent of the new page
 109:..\..\..\lvgl\version_6.1.2\lvgl\src\lv_objx/lv_page.h ****  * @param copy pointer to a page object, if not NULL then the new object will be copied from it
 110:..\..\..\lvgl\version_6.1.2\lvgl\src\lv_objx/lv_page.h ****  * @return pointer to the created page
 111:..\..\..\lvgl\version_6.1.2\lvgl\src\lv_objx/lv_page.h ****  */
 112:..\..\..\lvgl\version_6.1.2\lvgl\src\lv_objx/lv_page.h **** lv_obj_t * lv_page_create(lv_obj_t * par, const lv_obj_t * copy);
 113:..\..\..\lvgl\version_6.1.2\lvgl\src\lv_objx/lv_page.h **** 
 114:..\..\..\lvgl\version_6.1.2\lvgl\src\lv_objx/lv_page.h **** /**
 115:..\..\..\lvgl\version_6.1.2\lvgl\src\lv_objx/lv_page.h ****  * Delete all children of the scrl object, without deleting scrl child.
 116:..\..\..\lvgl\version_6.1.2\lvgl\src\lv_objx/lv_page.h ****  * @param page pointer to an object
 117:..\..\..\lvgl\version_6.1.2\lvgl\src\lv_objx/lv_page.h ****  */
 118:..\..\..\lvgl\version_6.1.2\lvgl\src\lv_objx/lv_page.h **** void lv_page_clean(lv_obj_t * page);
 119:..\..\..\lvgl\version_6.1.2\lvgl\src\lv_objx/lv_page.h **** 
 120:..\..\..\lvgl\version_6.1.2\lvgl\src\lv_objx/lv_page.h **** /**
 121:..\..\..\lvgl\version_6.1.2\lvgl\src\lv_objx/lv_page.h ****  * Get the scrollable object of a page
 122:..\..\..\lvgl\version_6.1.2\lvgl\src\lv_objx/lv_page.h ****  * @param page pointer to a page object
 123:..\..\..\lvgl\version_6.1.2\lvgl\src\lv_objx/lv_page.h ****  * @return pointer to a container which is the scrollable part of the page
 124:..\..\..\lvgl\version_6.1.2\lvgl\src\lv_objx/lv_page.h ****  */
 125:..\..\..\lvgl\version_6.1.2\lvgl\src\lv_objx/lv_page.h **** lv_obj_t * lv_page_get_scrl(const lv_obj_t * page);
 126:..\..\..\lvgl\version_6.1.2\lvgl\src\lv_objx/lv_page.h **** 
 127:..\..\..\lvgl\version_6.1.2\lvgl\src\lv_objx/lv_page.h **** /**
 128:..\..\..\lvgl\version_6.1.2\lvgl\src\lv_objx/lv_page.h ****  * Get the animation time
 129:..\..\..\lvgl\version_6.1.2\lvgl\src\lv_objx/lv_page.h ****  * @param page pointer to a page object
 130:..\..\..\lvgl\version_6.1.2\lvgl\src\lv_objx/lv_page.h ****  * @return the animation time in milliseconds
 131:..\..\..\lvgl\version_6.1.2\lvgl\src\lv_objx/lv_page.h ****  */
 132:..\..\..\lvgl\version_6.1.2\lvgl\src\lv_objx/lv_page.h **** uint16_t lv_page_get_anim_time(const lv_obj_t * page);
 133:..\..\..\lvgl\version_6.1.2\lvgl\src\lv_objx/lv_page.h **** 
 134:..\..\..\lvgl\version_6.1.2\lvgl\src\lv_objx/lv_page.h **** /*=====================
 135:..\..\..\lvgl\version_6.1.2\lvgl\src\lv_objx/lv_page.h ****  * Setter functions
 136:..\..\..\lvgl\version_6.1.2\lvgl\src\lv_objx/lv_page.h ****  *====================*/
 137:..\..\..\lvgl\version_6.1.2\lvgl\src\lv_objx/lv_page.h **** 
 138:..\..\..\lvgl\version_6.1.2\lvgl\src\lv_objx/lv_page.h **** /**
 139:..\..\..\lvgl\version_6.1.2\lvgl\src\lv_objx/lv_page.h ****  * Set the scroll bar mode on a page
 140:..\..\..\lvgl\version_6.1.2\lvgl\src\lv_objx/lv_page.h ****  * @param page pointer to a page object
 141:..\..\..\lvgl\version_6.1.2\lvgl\src\lv_objx/lv_page.h ****  * @param sb_mode the new mode from 'lv_page_sb.mode_t' enum
 142:..\..\..\lvgl\version_6.1.2\lvgl\src\lv_objx/lv_page.h ****  */
 143:..\..\..\lvgl\version_6.1.2\lvgl\src\lv_objx/lv_page.h **** void lv_page_set_sb_mode(lv_obj_t * page, lv_sb_mode_t sb_mode);
 144:..\..\..\lvgl\version_6.1.2\lvgl\src\lv_objx/lv_page.h **** 
 145:..\..\..\lvgl\version_6.1.2\lvgl\src\lv_objx/lv_page.h **** /**
 146:..\..\..\lvgl\version_6.1.2\lvgl\src\lv_objx/lv_page.h ****  * Set the animation time for the page
 147:..\..\..\lvgl\version_6.1.2\lvgl\src\lv_objx/lv_page.h ****  * @param page pointer to a page object
 148:..\..\..\lvgl\version_6.1.2\lvgl\src\lv_objx/lv_page.h ****  * @param anim_time animation time in milliseconds
 149:..\..\..\lvgl\version_6.1.2\lvgl\src\lv_objx/lv_page.h ****  */
 150:..\..\..\lvgl\version_6.1.2\lvgl\src\lv_objx/lv_page.h **** void lv_page_set_anim_time(lv_obj_t * page, uint16_t anim_time);
ARM GAS  C:\Users\tmj32\AppData\Local\Temp\ccUUfkkI.s 			page 8


 151:..\..\..\lvgl\version_6.1.2\lvgl\src\lv_objx/lv_page.h **** 
 152:..\..\..\lvgl\version_6.1.2\lvgl\src\lv_objx/lv_page.h **** /**
 153:..\..\..\lvgl\version_6.1.2\lvgl\src\lv_objx/lv_page.h ****  * Enable the scroll propagation feature. If enabled then the page will move its parent if there is
 154:..\..\..\lvgl\version_6.1.2\lvgl\src\lv_objx/lv_page.h ****  * no more space to scroll.
 155:..\..\..\lvgl\version_6.1.2\lvgl\src\lv_objx/lv_page.h ****  * @param page pointer to a Page
 156:..\..\..\lvgl\version_6.1.2\lvgl\src\lv_objx/lv_page.h ****  * @param en true or false to enable/disable scroll propagation
 157:..\..\..\lvgl\version_6.1.2\lvgl\src\lv_objx/lv_page.h ****  */
 158:..\..\..\lvgl\version_6.1.2\lvgl\src\lv_objx/lv_page.h **** void lv_page_set_scroll_propagation(lv_obj_t * page, bool en);
 159:..\..\..\lvgl\version_6.1.2\lvgl\src\lv_objx/lv_page.h **** 
 160:..\..\..\lvgl\version_6.1.2\lvgl\src\lv_objx/lv_page.h **** /**
 161:..\..\..\lvgl\version_6.1.2\lvgl\src\lv_objx/lv_page.h ****  * Enable the edge flash effect. (Show an arc when the an edge is reached)
 162:..\..\..\lvgl\version_6.1.2\lvgl\src\lv_objx/lv_page.h ****  * @param page pointer to a Page
 163:..\..\..\lvgl\version_6.1.2\lvgl\src\lv_objx/lv_page.h ****  * @param en true or false to enable/disable end flash
 164:..\..\..\lvgl\version_6.1.2\lvgl\src\lv_objx/lv_page.h ****  */
 165:..\..\..\lvgl\version_6.1.2\lvgl\src\lv_objx/lv_page.h **** void lv_page_set_edge_flash(lv_obj_t * page, bool en);
 166:..\..\..\lvgl\version_6.1.2\lvgl\src\lv_objx/lv_page.h **** 
 167:..\..\..\lvgl\version_6.1.2\lvgl\src\lv_objx/lv_page.h **** /**
 168:..\..\..\lvgl\version_6.1.2\lvgl\src\lv_objx/lv_page.h ****  * Set the fit policy in all 4 directions separately.
 169:..\..\..\lvgl\version_6.1.2\lvgl\src\lv_objx/lv_page.h ****  * It tell how to change the page size automatically.
 170:..\..\..\lvgl\version_6.1.2\lvgl\src\lv_objx/lv_page.h ****  * @param page pointer to a page object
 171:..\..\..\lvgl\version_6.1.2\lvgl\src\lv_objx/lv_page.h ****  * @param left left fit policy from `lv_fit_t`
 172:..\..\..\lvgl\version_6.1.2\lvgl\src\lv_objx/lv_page.h ****  * @param right right fit policy from `lv_fit_t`
 173:..\..\..\lvgl\version_6.1.2\lvgl\src\lv_objx/lv_page.h ****  * @param top bottom fit policy from `lv_fit_t`
 174:..\..\..\lvgl\version_6.1.2\lvgl\src\lv_objx/lv_page.h ****  * @param bottom bottom fit policy from `lv_fit_t`
 175:..\..\..\lvgl\version_6.1.2\lvgl\src\lv_objx/lv_page.h ****  */
 176:..\..\..\lvgl\version_6.1.2\lvgl\src\lv_objx/lv_page.h **** static inline void lv_page_set_scrl_fit4(lv_obj_t * page, lv_fit_t left, lv_fit_t right, lv_fit_t t
 177:..\..\..\lvgl\version_6.1.2\lvgl\src\lv_objx/lv_page.h **** {
 178:..\..\..\lvgl\version_6.1.2\lvgl\src\lv_objx/lv_page.h ****     lv_cont_set_fit4(lv_page_get_scrl(page), left, right, top, bottom);
 179:..\..\..\lvgl\version_6.1.2\lvgl\src\lv_objx/lv_page.h **** }
 180:..\..\..\lvgl\version_6.1.2\lvgl\src\lv_objx/lv_page.h **** 
 181:..\..\..\lvgl\version_6.1.2\lvgl\src\lv_objx/lv_page.h **** /**
 182:..\..\..\lvgl\version_6.1.2\lvgl\src\lv_objx/lv_page.h ****  * Set the fit policy horizontally and vertically separately.
 183:..\..\..\lvgl\version_6.1.2\lvgl\src\lv_objx/lv_page.h ****  * It tell how to change the page size automatically.
 184:..\..\..\lvgl\version_6.1.2\lvgl\src\lv_objx/lv_page.h ****  * @param page pointer to a page object
 185:..\..\..\lvgl\version_6.1.2\lvgl\src\lv_objx/lv_page.h ****  * @param hot horizontal fit policy from `lv_fit_t`
 186:..\..\..\lvgl\version_6.1.2\lvgl\src\lv_objx/lv_page.h ****  * @param ver vertical fit policy from `lv_fit_t`
 187:..\..\..\lvgl\version_6.1.2\lvgl\src\lv_objx/lv_page.h ****  */
 188:..\..\..\lvgl\version_6.1.2\lvgl\src\lv_objx/lv_page.h **** static inline void lv_page_set_scrl_fit2(lv_obj_t * page, lv_fit_t hor, lv_fit_t ver)
 189:..\..\..\lvgl\version_6.1.2\lvgl\src\lv_objx/lv_page.h **** {
 115              		.loc 2 189 0
 116              		.cfi_startproc
 117              		@ args = 0, pretend = 0, frame = 8
 118              		@ frame_needed = 1, uses_anonymous_args = 0
 119 0000 80B5     		push	{r7, lr}
 120              		.cfi_def_cfa_offset 8
 121              		.cfi_offset 7, -8
 122              		.cfi_offset 14, -4
 123 0002 82B0     		sub	sp, sp, #8
 124              		.cfi_def_cfa_offset 16
 125 0004 00AF     		add	r7, sp, #0
 126              		.cfi_def_cfa_register 7
 127 0006 7860     		str	r0, [r7, #4]
 128 0008 0B46     		mov	r3, r1
 129 000a FB70     		strb	r3, [r7, #3]
 130 000c 1346     		mov	r3, r2
 131 000e BB70     		strb	r3, [r7, #2]
 190:..\..\..\lvgl\version_6.1.2\lvgl\src\lv_objx/lv_page.h ****     lv_cont_set_fit2(lv_page_get_scrl(page), hor, ver);
ARM GAS  C:\Users\tmj32\AppData\Local\Temp\ccUUfkkI.s 			page 9


 132              		.loc 2 190 0
 133 0010 7868     		ldr	r0, [r7, #4]
 134 0012 FFF7FEFF 		bl	lv_page_get_scrl
 135 0016 BA78     		ldrb	r2, [r7, #2]	@ zero_extendqisi2
 136 0018 FB78     		ldrb	r3, [r7, #3]	@ zero_extendqisi2
 137 001a 1946     		mov	r1, r3
 138 001c FFF7FEFF 		bl	lv_cont_set_fit2
 191:..\..\..\lvgl\version_6.1.2\lvgl\src\lv_objx/lv_page.h **** }
 139              		.loc 2 191 0
 140 0020 00BF     		nop
 141 0022 0837     		adds	r7, r7, #8
 142              		.cfi_def_cfa_offset 8
 143 0024 BD46     		mov	sp, r7
 144              		.cfi_def_cfa_register 13
 145              		@ sp needed
 146 0026 80BD     		pop	{r7, pc}
 147              		.cfi_endproc
 148              	.LFE36:
 149              		.size	lv_page_set_scrl_fit2, .-lv_page_set_scrl_fit2
 150              		.section	.text.lv_page_set_scrl_layout,"ax",%progbits
 151              		.align	2
 152              		.thumb
 153              		.thumb_func
 154              		.type	lv_page_set_scrl_layout, %function
 155              	lv_page_set_scrl_layout:
 156              	.LFB40:
 192:..\..\..\lvgl\version_6.1.2\lvgl\src\lv_objx/lv_page.h **** 
 193:..\..\..\lvgl\version_6.1.2\lvgl\src\lv_objx/lv_page.h **** /**
 194:..\..\..\lvgl\version_6.1.2\lvgl\src\lv_objx/lv_page.h ****  * Set the fit policyin all 4 direction at once.
 195:..\..\..\lvgl\version_6.1.2\lvgl\src\lv_objx/lv_page.h ****  * It tell how to change the page size automatically.
 196:..\..\..\lvgl\version_6.1.2\lvgl\src\lv_objx/lv_page.h ****  * @param page pointer to a button object
 197:..\..\..\lvgl\version_6.1.2\lvgl\src\lv_objx/lv_page.h ****  * @param fit fit policy from `lv_fit_t`
 198:..\..\..\lvgl\version_6.1.2\lvgl\src\lv_objx/lv_page.h ****  */
 199:..\..\..\lvgl\version_6.1.2\lvgl\src\lv_objx/lv_page.h **** static inline void lv_page_set_scrl_fit(lv_obj_t * page, lv_fit_t fit)
 200:..\..\..\lvgl\version_6.1.2\lvgl\src\lv_objx/lv_page.h **** {
 201:..\..\..\lvgl\version_6.1.2\lvgl\src\lv_objx/lv_page.h ****     lv_cont_set_fit(lv_page_get_scrl(page), fit);
 202:..\..\..\lvgl\version_6.1.2\lvgl\src\lv_objx/lv_page.h **** }
 203:..\..\..\lvgl\version_6.1.2\lvgl\src\lv_objx/lv_page.h **** 
 204:..\..\..\lvgl\version_6.1.2\lvgl\src\lv_objx/lv_page.h **** /**
 205:..\..\..\lvgl\version_6.1.2\lvgl\src\lv_objx/lv_page.h ****  * Set width of the scrollable part of a page
 206:..\..\..\lvgl\version_6.1.2\lvgl\src\lv_objx/lv_page.h ****  * @param page pointer to a page object
 207:..\..\..\lvgl\version_6.1.2\lvgl\src\lv_objx/lv_page.h ****  * @param w the new width of the scrollable (it ha no effect is horizontal fit is enabled)
 208:..\..\..\lvgl\version_6.1.2\lvgl\src\lv_objx/lv_page.h ****  */
 209:..\..\..\lvgl\version_6.1.2\lvgl\src\lv_objx/lv_page.h **** static inline void lv_page_set_scrl_width(lv_obj_t * page, lv_coord_t w)
 210:..\..\..\lvgl\version_6.1.2\lvgl\src\lv_objx/lv_page.h **** {
 211:..\..\..\lvgl\version_6.1.2\lvgl\src\lv_objx/lv_page.h ****     lv_obj_set_width(lv_page_get_scrl(page), w);
 212:..\..\..\lvgl\version_6.1.2\lvgl\src\lv_objx/lv_page.h **** }
 213:..\..\..\lvgl\version_6.1.2\lvgl\src\lv_objx/lv_page.h **** 
 214:..\..\..\lvgl\version_6.1.2\lvgl\src\lv_objx/lv_page.h **** /**
 215:..\..\..\lvgl\version_6.1.2\lvgl\src\lv_objx/lv_page.h ****  * Set height of the scrollable part of a page
 216:..\..\..\lvgl\version_6.1.2\lvgl\src\lv_objx/lv_page.h ****  * @param page pointer to a page object
 217:..\..\..\lvgl\version_6.1.2\lvgl\src\lv_objx/lv_page.h ****  * @param h the new height of the scrollable (it ha no effect is vertical fit is enabled)
 218:..\..\..\lvgl\version_6.1.2\lvgl\src\lv_objx/lv_page.h ****  */
 219:..\..\..\lvgl\version_6.1.2\lvgl\src\lv_objx/lv_page.h **** static inline void lv_page_set_scrl_height(lv_obj_t * page, lv_coord_t h)
 220:..\..\..\lvgl\version_6.1.2\lvgl\src\lv_objx/lv_page.h **** {
 221:..\..\..\lvgl\version_6.1.2\lvgl\src\lv_objx/lv_page.h ****     lv_obj_set_height(lv_page_get_scrl(page), h);
 222:..\..\..\lvgl\version_6.1.2\lvgl\src\lv_objx/lv_page.h **** }
ARM GAS  C:\Users\tmj32\AppData\Local\Temp\ccUUfkkI.s 			page 10


 223:..\..\..\lvgl\version_6.1.2\lvgl\src\lv_objx/lv_page.h **** 
 224:..\..\..\lvgl\version_6.1.2\lvgl\src\lv_objx/lv_page.h **** /**
 225:..\..\..\lvgl\version_6.1.2\lvgl\src\lv_objx/lv_page.h ****  * Set the layout of the scrollable part of the page
 226:..\..\..\lvgl\version_6.1.2\lvgl\src\lv_objx/lv_page.h ****  * @param page pointer to a page object
 227:..\..\..\lvgl\version_6.1.2\lvgl\src\lv_objx/lv_page.h ****  * @param layout a layout from 'lv_cont_layout_t'
 228:..\..\..\lvgl\version_6.1.2\lvgl\src\lv_objx/lv_page.h ****  */
 229:..\..\..\lvgl\version_6.1.2\lvgl\src\lv_objx/lv_page.h **** static inline void lv_page_set_scrl_layout(lv_obj_t * page, lv_layout_t layout)
 230:..\..\..\lvgl\version_6.1.2\lvgl\src\lv_objx/lv_page.h **** {
 157              		.loc 2 230 0
 158              		.cfi_startproc
 159              		@ args = 0, pretend = 0, frame = 8
 160              		@ frame_needed = 1, uses_anonymous_args = 0
 161 0000 80B5     		push	{r7, lr}
 162              		.cfi_def_cfa_offset 8
 163              		.cfi_offset 7, -8
 164              		.cfi_offset 14, -4
 165 0002 82B0     		sub	sp, sp, #8
 166              		.cfi_def_cfa_offset 16
 167 0004 00AF     		add	r7, sp, #0
 168              		.cfi_def_cfa_register 7
 169 0006 7860     		str	r0, [r7, #4]
 170 0008 0B46     		mov	r3, r1
 171 000a FB70     		strb	r3, [r7, #3]
 231:..\..\..\lvgl\version_6.1.2\lvgl\src\lv_objx/lv_page.h ****     lv_cont_set_layout(lv_page_get_scrl(page), layout);
 172              		.loc 2 231 0
 173 000c 7868     		ldr	r0, [r7, #4]
 174 000e FFF7FEFF 		bl	lv_page_get_scrl
 175 0012 0246     		mov	r2, r0
 176 0014 FB78     		ldrb	r3, [r7, #3]	@ zero_extendqisi2
 177 0016 1946     		mov	r1, r3
 178 0018 1046     		mov	r0, r2
 179 001a FFF7FEFF 		bl	lv_cont_set_layout
 232:..\..\..\lvgl\version_6.1.2\lvgl\src\lv_objx/lv_page.h **** }
 180              		.loc 2 232 0
 181 001e 00BF     		nop
 182 0020 0837     		adds	r7, r7, #8
 183              		.cfi_def_cfa_offset 8
 184 0022 BD46     		mov	sp, r7
 185              		.cfi_def_cfa_register 13
 186              		@ sp needed
 187 0024 80BD     		pop	{r7, pc}
 188              		.cfi_endproc
 189              	.LFE40:
 190              		.size	lv_page_set_scrl_layout, .-lv_page_set_scrl_layout
 191 0026 00BF     		.section	.text.lv_page_get_scrl_layout,"ax",%progbits
 192              		.align	2
 193              		.thumb
 194              		.thumb_func
 195              		.type	lv_page_get_scrl_layout, %function
 196              	lv_page_get_scrl_layout:
 197              	.LFB43:
 233:..\..\..\lvgl\version_6.1.2\lvgl\src\lv_objx/lv_page.h **** 
 234:..\..\..\lvgl\version_6.1.2\lvgl\src\lv_objx/lv_page.h **** /**
 235:..\..\..\lvgl\version_6.1.2\lvgl\src\lv_objx/lv_page.h ****  * Set a style of a page
 236:..\..\..\lvgl\version_6.1.2\lvgl\src\lv_objx/lv_page.h ****  * @param page pointer to a page object
 237:..\..\..\lvgl\version_6.1.2\lvgl\src\lv_objx/lv_page.h ****  * @param type which style should be set
 238:..\..\..\lvgl\version_6.1.2\lvgl\src\lv_objx/lv_page.h ****  * @param style pointer to a style
ARM GAS  C:\Users\tmj32\AppData\Local\Temp\ccUUfkkI.s 			page 11


 239:..\..\..\lvgl\version_6.1.2\lvgl\src\lv_objx/lv_page.h ****  */
 240:..\..\..\lvgl\version_6.1.2\lvgl\src\lv_objx/lv_page.h **** void lv_page_set_style(lv_obj_t * page, lv_page_style_t type, const lv_style_t * style);
 241:..\..\..\lvgl\version_6.1.2\lvgl\src\lv_objx/lv_page.h **** 
 242:..\..\..\lvgl\version_6.1.2\lvgl\src\lv_objx/lv_page.h **** /*=====================
 243:..\..\..\lvgl\version_6.1.2\lvgl\src\lv_objx/lv_page.h ****  * Getter functions
 244:..\..\..\lvgl\version_6.1.2\lvgl\src\lv_objx/lv_page.h ****  *====================*/
 245:..\..\..\lvgl\version_6.1.2\lvgl\src\lv_objx/lv_page.h **** 
 246:..\..\..\lvgl\version_6.1.2\lvgl\src\lv_objx/lv_page.h **** /**
 247:..\..\..\lvgl\version_6.1.2\lvgl\src\lv_objx/lv_page.h ****  * Set the scroll bar mode on a page
 248:..\..\..\lvgl\version_6.1.2\lvgl\src\lv_objx/lv_page.h ****  * @param page pointer to a page object
 249:..\..\..\lvgl\version_6.1.2\lvgl\src\lv_objx/lv_page.h ****  * @return the mode from 'lv_page_sb.mode_t' enum
 250:..\..\..\lvgl\version_6.1.2\lvgl\src\lv_objx/lv_page.h ****  */
 251:..\..\..\lvgl\version_6.1.2\lvgl\src\lv_objx/lv_page.h **** lv_sb_mode_t lv_page_get_sb_mode(const lv_obj_t * page);
 252:..\..\..\lvgl\version_6.1.2\lvgl\src\lv_objx/lv_page.h **** 
 253:..\..\..\lvgl\version_6.1.2\lvgl\src\lv_objx/lv_page.h **** /**
 254:..\..\..\lvgl\version_6.1.2\lvgl\src\lv_objx/lv_page.h ****  * Get the scroll propagation property
 255:..\..\..\lvgl\version_6.1.2\lvgl\src\lv_objx/lv_page.h ****  * @param page pointer to a Page
 256:..\..\..\lvgl\version_6.1.2\lvgl\src\lv_objx/lv_page.h ****  * @return true or false
 257:..\..\..\lvgl\version_6.1.2\lvgl\src\lv_objx/lv_page.h ****  */
 258:..\..\..\lvgl\version_6.1.2\lvgl\src\lv_objx/lv_page.h **** bool lv_page_get_scroll_propagation(lv_obj_t * page);
 259:..\..\..\lvgl\version_6.1.2\lvgl\src\lv_objx/lv_page.h **** 
 260:..\..\..\lvgl\version_6.1.2\lvgl\src\lv_objx/lv_page.h **** /**
 261:..\..\..\lvgl\version_6.1.2\lvgl\src\lv_objx/lv_page.h ****  * Get the edge flash effect property.
 262:..\..\..\lvgl\version_6.1.2\lvgl\src\lv_objx/lv_page.h ****  * @param page pointer to a Page
 263:..\..\..\lvgl\version_6.1.2\lvgl\src\lv_objx/lv_page.h ****  * return true or false
 264:..\..\..\lvgl\version_6.1.2\lvgl\src\lv_objx/lv_page.h ****  */
 265:..\..\..\lvgl\version_6.1.2\lvgl\src\lv_objx/lv_page.h **** bool lv_page_get_edge_flash(lv_obj_t * page);
 266:..\..\..\lvgl\version_6.1.2\lvgl\src\lv_objx/lv_page.h **** 
 267:..\..\..\lvgl\version_6.1.2\lvgl\src\lv_objx/lv_page.h **** /**
 268:..\..\..\lvgl\version_6.1.2\lvgl\src\lv_objx/lv_page.h ****  * Get that width which can be set to the children to still not cause overflow (show scrollbars)
 269:..\..\..\lvgl\version_6.1.2\lvgl\src\lv_objx/lv_page.h ****  * @param page pointer to a page object
 270:..\..\..\lvgl\version_6.1.2\lvgl\src\lv_objx/lv_page.h ****  * @return the width which still fits into the page
 271:..\..\..\lvgl\version_6.1.2\lvgl\src\lv_objx/lv_page.h ****  */
 272:..\..\..\lvgl\version_6.1.2\lvgl\src\lv_objx/lv_page.h **** lv_coord_t lv_page_get_fit_width(lv_obj_t * page);
 273:..\..\..\lvgl\version_6.1.2\lvgl\src\lv_objx/lv_page.h **** 
 274:..\..\..\lvgl\version_6.1.2\lvgl\src\lv_objx/lv_page.h **** /**
 275:..\..\..\lvgl\version_6.1.2\lvgl\src\lv_objx/lv_page.h ****  * Get that height which can be set to the children to still not cause overflow (show scrollbars)
 276:..\..\..\lvgl\version_6.1.2\lvgl\src\lv_objx/lv_page.h ****  * @param page pointer to a page object
 277:..\..\..\lvgl\version_6.1.2\lvgl\src\lv_objx/lv_page.h ****  * @return the height which still fits into the page
 278:..\..\..\lvgl\version_6.1.2\lvgl\src\lv_objx/lv_page.h ****  */
 279:..\..\..\lvgl\version_6.1.2\lvgl\src\lv_objx/lv_page.h **** lv_coord_t lv_page_get_fit_height(lv_obj_t * page);
 280:..\..\..\lvgl\version_6.1.2\lvgl\src\lv_objx/lv_page.h **** 
 281:..\..\..\lvgl\version_6.1.2\lvgl\src\lv_objx/lv_page.h **** /**
 282:..\..\..\lvgl\version_6.1.2\lvgl\src\lv_objx/lv_page.h ****  * Get width of the scrollable part of a page
 283:..\..\..\lvgl\version_6.1.2\lvgl\src\lv_objx/lv_page.h ****  * @param page pointer to a page object
 284:..\..\..\lvgl\version_6.1.2\lvgl\src\lv_objx/lv_page.h ****  * @return the width of the scrollable
 285:..\..\..\lvgl\version_6.1.2\lvgl\src\lv_objx/lv_page.h ****  */
 286:..\..\..\lvgl\version_6.1.2\lvgl\src\lv_objx/lv_page.h **** static inline lv_coord_t lv_page_get_scrl_width(const lv_obj_t * page)
 287:..\..\..\lvgl\version_6.1.2\lvgl\src\lv_objx/lv_page.h **** {
 288:..\..\..\lvgl\version_6.1.2\lvgl\src\lv_objx/lv_page.h ****     return lv_obj_get_width(lv_page_get_scrl(page));
 289:..\..\..\lvgl\version_6.1.2\lvgl\src\lv_objx/lv_page.h **** }
 290:..\..\..\lvgl\version_6.1.2\lvgl\src\lv_objx/lv_page.h **** 
 291:..\..\..\lvgl\version_6.1.2\lvgl\src\lv_objx/lv_page.h **** /**
 292:..\..\..\lvgl\version_6.1.2\lvgl\src\lv_objx/lv_page.h ****  * Get height of the scrollable part of a page
 293:..\..\..\lvgl\version_6.1.2\lvgl\src\lv_objx/lv_page.h ****  * @param page pointer to a page object
 294:..\..\..\lvgl\version_6.1.2\lvgl\src\lv_objx/lv_page.h ****  * @return the height of the scrollable
 295:..\..\..\lvgl\version_6.1.2\lvgl\src\lv_objx/lv_page.h ****  */
ARM GAS  C:\Users\tmj32\AppData\Local\Temp\ccUUfkkI.s 			page 12


 296:..\..\..\lvgl\version_6.1.2\lvgl\src\lv_objx/lv_page.h **** static inline lv_coord_t lv_page_get_scrl_height(const lv_obj_t * page)
 297:..\..\..\lvgl\version_6.1.2\lvgl\src\lv_objx/lv_page.h **** {
 298:..\..\..\lvgl\version_6.1.2\lvgl\src\lv_objx/lv_page.h ****     return lv_obj_get_height(lv_page_get_scrl(page));
 299:..\..\..\lvgl\version_6.1.2\lvgl\src\lv_objx/lv_page.h **** }
 300:..\..\..\lvgl\version_6.1.2\lvgl\src\lv_objx/lv_page.h **** 
 301:..\..\..\lvgl\version_6.1.2\lvgl\src\lv_objx/lv_page.h **** /**
 302:..\..\..\lvgl\version_6.1.2\lvgl\src\lv_objx/lv_page.h ****  * Get the layout of the scrollable part of a page
 303:..\..\..\lvgl\version_6.1.2\lvgl\src\lv_objx/lv_page.h ****  * @param page pointer to page object
 304:..\..\..\lvgl\version_6.1.2\lvgl\src\lv_objx/lv_page.h ****  * @return the layout from 'lv_cont_layout_t'
 305:..\..\..\lvgl\version_6.1.2\lvgl\src\lv_objx/lv_page.h ****  */
 306:..\..\..\lvgl\version_6.1.2\lvgl\src\lv_objx/lv_page.h **** static inline lv_layout_t lv_page_get_scrl_layout(const lv_obj_t * page)
 307:..\..\..\lvgl\version_6.1.2\lvgl\src\lv_objx/lv_page.h **** {
 198              		.loc 2 307 0
 199              		.cfi_startproc
 200              		@ args = 0, pretend = 0, frame = 8
 201              		@ frame_needed = 1, uses_anonymous_args = 0
 202 0000 80B5     		push	{r7, lr}
 203              		.cfi_def_cfa_offset 8
 204              		.cfi_offset 7, -8
 205              		.cfi_offset 14, -4
 206 0002 82B0     		sub	sp, sp, #8
 207              		.cfi_def_cfa_offset 16
 208 0004 00AF     		add	r7, sp, #0
 209              		.cfi_def_cfa_register 7
 210 0006 7860     		str	r0, [r7, #4]
 308:..\..\..\lvgl\version_6.1.2\lvgl\src\lv_objx/lv_page.h ****     return lv_cont_get_layout(lv_page_get_scrl(page));
 211              		.loc 2 308 0
 212 0008 7868     		ldr	r0, [r7, #4]
 213 000a FFF7FEFF 		bl	lv_page_get_scrl
 214 000e 0346     		mov	r3, r0
 215 0010 1846     		mov	r0, r3
 216 0012 FFF7FEFF 		bl	lv_cont_get_layout
 217 0016 0346     		mov	r3, r0
 309:..\..\..\lvgl\version_6.1.2\lvgl\src\lv_objx/lv_page.h **** }
 218              		.loc 2 309 0
 219 0018 1846     		mov	r0, r3
 220 001a 0837     		adds	r7, r7, #8
 221              		.cfi_def_cfa_offset 8
 222 001c BD46     		mov	sp, r7
 223              		.cfi_def_cfa_register 13
 224              		@ sp needed
 225 001e 80BD     		pop	{r7, pc}
 226              		.cfi_endproc
 227              	.LFE43:
 228              		.size	lv_page_get_scrl_layout, .-lv_page_get_scrl_layout
 229              		.section	.text.lv_btn_set_layout,"ax",%progbits
 230              		.align	2
 231              		.thumb
 232              		.thumb_func
 233              		.type	lv_btn_set_layout, %function
 234              	lv_btn_set_layout:
 235              	.LFB48:
 236              		.file 3 "..\\..\\..\\lvgl\\version_6.1.2\\lvgl\\src\\lv_objx\\lv_btn.h"
   1:..\..\..\lvgl\version_6.1.2\lvgl\src\lv_objx/lv_btn.h **** /**
   2:..\..\..\lvgl\version_6.1.2\lvgl\src\lv_objx/lv_btn.h ****  * @file lv_btn.h
   3:..\..\..\lvgl\version_6.1.2\lvgl\src\lv_objx/lv_btn.h ****  *
   4:..\..\..\lvgl\version_6.1.2\lvgl\src\lv_objx/lv_btn.h ****  */
ARM GAS  C:\Users\tmj32\AppData\Local\Temp\ccUUfkkI.s 			page 13


   5:..\..\..\lvgl\version_6.1.2\lvgl\src\lv_objx/lv_btn.h **** 
   6:..\..\..\lvgl\version_6.1.2\lvgl\src\lv_objx/lv_btn.h **** #ifndef LV_BTN_H
   7:..\..\..\lvgl\version_6.1.2\lvgl\src\lv_objx/lv_btn.h **** #define LV_BTN_H
   8:..\..\..\lvgl\version_6.1.2\lvgl\src\lv_objx/lv_btn.h **** 
   9:..\..\..\lvgl\version_6.1.2\lvgl\src\lv_objx/lv_btn.h **** #ifdef __cplusplus
  10:..\..\..\lvgl\version_6.1.2\lvgl\src\lv_objx/lv_btn.h **** extern "C" {
  11:..\..\..\lvgl\version_6.1.2\lvgl\src\lv_objx/lv_btn.h **** #endif
  12:..\..\..\lvgl\version_6.1.2\lvgl\src\lv_objx/lv_btn.h **** 
  13:..\..\..\lvgl\version_6.1.2\lvgl\src\lv_objx/lv_btn.h **** /*********************
  14:..\..\..\lvgl\version_6.1.2\lvgl\src\lv_objx/lv_btn.h ****  *      INCLUDES
  15:..\..\..\lvgl\version_6.1.2\lvgl\src\lv_objx/lv_btn.h ****  *********************/
  16:..\..\..\lvgl\version_6.1.2\lvgl\src\lv_objx/lv_btn.h **** #ifdef LV_CONF_INCLUDE_SIMPLE
  17:..\..\..\lvgl\version_6.1.2\lvgl\src\lv_objx/lv_btn.h **** #include "lv_conf.h"
  18:..\..\..\lvgl\version_6.1.2\lvgl\src\lv_objx/lv_btn.h **** #else
  19:..\..\..\lvgl\version_6.1.2\lvgl\src\lv_objx/lv_btn.h **** #include "../../../lv_conf.h"
  20:..\..\..\lvgl\version_6.1.2\lvgl\src\lv_objx/lv_btn.h **** #endif
  21:..\..\..\lvgl\version_6.1.2\lvgl\src\lv_objx/lv_btn.h **** 
  22:..\..\..\lvgl\version_6.1.2\lvgl\src\lv_objx/lv_btn.h **** #if LV_USE_BTN != 0
  23:..\..\..\lvgl\version_6.1.2\lvgl\src\lv_objx/lv_btn.h **** 
  24:..\..\..\lvgl\version_6.1.2\lvgl\src\lv_objx/lv_btn.h **** /*Testing of dependencies*/
  25:..\..\..\lvgl\version_6.1.2\lvgl\src\lv_objx/lv_btn.h **** #if LV_USE_CONT == 0
  26:..\..\..\lvgl\version_6.1.2\lvgl\src\lv_objx/lv_btn.h **** #error "lv_btn: lv_cont is required. Enable it in lv_conf.h (LV_USE_CONT  1) "
  27:..\..\..\lvgl\version_6.1.2\lvgl\src\lv_objx/lv_btn.h **** #endif
  28:..\..\..\lvgl\version_6.1.2\lvgl\src\lv_objx/lv_btn.h **** 
  29:..\..\..\lvgl\version_6.1.2\lvgl\src\lv_objx/lv_btn.h **** #include "lv_cont.h"
  30:..\..\..\lvgl\version_6.1.2\lvgl\src\lv_objx/lv_btn.h **** #include "../lv_core/lv_indev.h"
  31:..\..\..\lvgl\version_6.1.2\lvgl\src\lv_objx/lv_btn.h **** 
  32:..\..\..\lvgl\version_6.1.2\lvgl\src\lv_objx/lv_btn.h **** /*********************
  33:..\..\..\lvgl\version_6.1.2\lvgl\src\lv_objx/lv_btn.h ****  *      DEFINES
  34:..\..\..\lvgl\version_6.1.2\lvgl\src\lv_objx/lv_btn.h ****  *********************/
  35:..\..\..\lvgl\version_6.1.2\lvgl\src\lv_objx/lv_btn.h **** 
  36:..\..\..\lvgl\version_6.1.2\lvgl\src\lv_objx/lv_btn.h **** /**********************
  37:..\..\..\lvgl\version_6.1.2\lvgl\src\lv_objx/lv_btn.h ****  *      TYPEDEFS
  38:..\..\..\lvgl\version_6.1.2\lvgl\src\lv_objx/lv_btn.h ****  **********************/
  39:..\..\..\lvgl\version_6.1.2\lvgl\src\lv_objx/lv_btn.h **** 
  40:..\..\..\lvgl\version_6.1.2\lvgl\src\lv_objx/lv_btn.h **** /** Possible states of a button.
  41:..\..\..\lvgl\version_6.1.2\lvgl\src\lv_objx/lv_btn.h ****  * It can be used not only by buttons but other button-like objects too*/
  42:..\..\..\lvgl\version_6.1.2\lvgl\src\lv_objx/lv_btn.h **** enum {
  43:..\..\..\lvgl\version_6.1.2\lvgl\src\lv_objx/lv_btn.h ****     /**Released*/
  44:..\..\..\lvgl\version_6.1.2\lvgl\src\lv_objx/lv_btn.h ****     LV_BTN_STATE_REL,
  45:..\..\..\lvgl\version_6.1.2\lvgl\src\lv_objx/lv_btn.h **** 
  46:..\..\..\lvgl\version_6.1.2\lvgl\src\lv_objx/lv_btn.h ****     /**Pressed*/
  47:..\..\..\lvgl\version_6.1.2\lvgl\src\lv_objx/lv_btn.h ****     LV_BTN_STATE_PR,
  48:..\..\..\lvgl\version_6.1.2\lvgl\src\lv_objx/lv_btn.h **** 
  49:..\..\..\lvgl\version_6.1.2\lvgl\src\lv_objx/lv_btn.h ****     /**Toggled released*/
  50:..\..\..\lvgl\version_6.1.2\lvgl\src\lv_objx/lv_btn.h ****     LV_BTN_STATE_TGL_REL,
  51:..\..\..\lvgl\version_6.1.2\lvgl\src\lv_objx/lv_btn.h **** 
  52:..\..\..\lvgl\version_6.1.2\lvgl\src\lv_objx/lv_btn.h ****     /**Toggled pressed*/
  53:..\..\..\lvgl\version_6.1.2\lvgl\src\lv_objx/lv_btn.h ****     LV_BTN_STATE_TGL_PR,
  54:..\..\..\lvgl\version_6.1.2\lvgl\src\lv_objx/lv_btn.h **** 
  55:..\..\..\lvgl\version_6.1.2\lvgl\src\lv_objx/lv_btn.h ****     /**Inactive*/
  56:..\..\..\lvgl\version_6.1.2\lvgl\src\lv_objx/lv_btn.h ****     LV_BTN_STATE_INA,
  57:..\..\..\lvgl\version_6.1.2\lvgl\src\lv_objx/lv_btn.h **** 
  58:..\..\..\lvgl\version_6.1.2\lvgl\src\lv_objx/lv_btn.h ****     /**Number of states*/
  59:..\..\..\lvgl\version_6.1.2\lvgl\src\lv_objx/lv_btn.h ****     _LV_BTN_STATE_NUM,
  60:..\..\..\lvgl\version_6.1.2\lvgl\src\lv_objx/lv_btn.h **** };
  61:..\..\..\lvgl\version_6.1.2\lvgl\src\lv_objx/lv_btn.h **** typedef uint8_t lv_btn_state_t;
ARM GAS  C:\Users\tmj32\AppData\Local\Temp\ccUUfkkI.s 			page 14


  62:..\..\..\lvgl\version_6.1.2\lvgl\src\lv_objx/lv_btn.h **** 
  63:..\..\..\lvgl\version_6.1.2\lvgl\src\lv_objx/lv_btn.h **** /** Extended data of button*/
  64:..\..\..\lvgl\version_6.1.2\lvgl\src\lv_objx/lv_btn.h **** typedef struct
  65:..\..\..\lvgl\version_6.1.2\lvgl\src\lv_objx/lv_btn.h **** {
  66:..\..\..\lvgl\version_6.1.2\lvgl\src\lv_objx/lv_btn.h ****     /** Ext. of ancestor*/
  67:..\..\..\lvgl\version_6.1.2\lvgl\src\lv_objx/lv_btn.h ****     lv_cont_ext_t cont;
  68:..\..\..\lvgl\version_6.1.2\lvgl\src\lv_objx/lv_btn.h **** 
  69:..\..\..\lvgl\version_6.1.2\lvgl\src\lv_objx/lv_btn.h ****     /*New data for this type */
  70:..\..\..\lvgl\version_6.1.2\lvgl\src\lv_objx/lv_btn.h **** 
  71:..\..\..\lvgl\version_6.1.2\lvgl\src\lv_objx/lv_btn.h ****     /**Styles in each state*/
  72:..\..\..\lvgl\version_6.1.2\lvgl\src\lv_objx/lv_btn.h ****     const lv_style_t * styles[_LV_BTN_STATE_NUM];
  73:..\..\..\lvgl\version_6.1.2\lvgl\src\lv_objx/lv_btn.h **** #if LV_BTN_INK_EFFECT
  74:..\..\..\lvgl\version_6.1.2\lvgl\src\lv_objx/lv_btn.h ****     /** [ms] Time of ink fill effect (0: disable ink effect)*/
  75:..\..\..\lvgl\version_6.1.2\lvgl\src\lv_objx/lv_btn.h ****     uint16_t ink_in_time;
  76:..\..\..\lvgl\version_6.1.2\lvgl\src\lv_objx/lv_btn.h **** 
  77:..\..\..\lvgl\version_6.1.2\lvgl\src\lv_objx/lv_btn.h ****     /** [ms] Wait before the ink disappears */
  78:..\..\..\lvgl\version_6.1.2\lvgl\src\lv_objx/lv_btn.h ****     uint16_t ink_wait_time;
  79:..\..\..\lvgl\version_6.1.2\lvgl\src\lv_objx/lv_btn.h **** 
  80:..\..\..\lvgl\version_6.1.2\lvgl\src\lv_objx/lv_btn.h ****     /** [ms] Time of ink disappearing*/
  81:..\..\..\lvgl\version_6.1.2\lvgl\src\lv_objx/lv_btn.h ****     uint16_t ink_out_time;
  82:..\..\..\lvgl\version_6.1.2\lvgl\src\lv_objx/lv_btn.h **** #endif
  83:..\..\..\lvgl\version_6.1.2\lvgl\src\lv_objx/lv_btn.h **** 
  84:..\..\..\lvgl\version_6.1.2\lvgl\src\lv_objx/lv_btn.h ****     /** Current state of the button from 'lv_btn_state_t' enum*/
  85:..\..\..\lvgl\version_6.1.2\lvgl\src\lv_objx/lv_btn.h ****     lv_btn_state_t state : 3;
  86:..\..\..\lvgl\version_6.1.2\lvgl\src\lv_objx/lv_btn.h **** 
  87:..\..\..\lvgl\version_6.1.2\lvgl\src\lv_objx/lv_btn.h ****     /** 1: Toggle enabled*/
  88:..\..\..\lvgl\version_6.1.2\lvgl\src\lv_objx/lv_btn.h ****     uint8_t toggle : 1;
  89:..\..\..\lvgl\version_6.1.2\lvgl\src\lv_objx/lv_btn.h **** } lv_btn_ext_t;
  90:..\..\..\lvgl\version_6.1.2\lvgl\src\lv_objx/lv_btn.h **** 
  91:..\..\..\lvgl\version_6.1.2\lvgl\src\lv_objx/lv_btn.h **** /**Styles*/
  92:..\..\..\lvgl\version_6.1.2\lvgl\src\lv_objx/lv_btn.h **** enum {
  93:..\..\..\lvgl\version_6.1.2\lvgl\src\lv_objx/lv_btn.h ****     /** Release style */
  94:..\..\..\lvgl\version_6.1.2\lvgl\src\lv_objx/lv_btn.h ****     LV_BTN_STYLE_REL,
  95:..\..\..\lvgl\version_6.1.2\lvgl\src\lv_objx/lv_btn.h **** 
  96:..\..\..\lvgl\version_6.1.2\lvgl\src\lv_objx/lv_btn.h ****     /**Pressed style*/
  97:..\..\..\lvgl\version_6.1.2\lvgl\src\lv_objx/lv_btn.h ****     LV_BTN_STYLE_PR,
  98:..\..\..\lvgl\version_6.1.2\lvgl\src\lv_objx/lv_btn.h **** 
  99:..\..\..\lvgl\version_6.1.2\lvgl\src\lv_objx/lv_btn.h ****     /** Toggle released style*/
 100:..\..\..\lvgl\version_6.1.2\lvgl\src\lv_objx/lv_btn.h ****     LV_BTN_STYLE_TGL_REL,
 101:..\..\..\lvgl\version_6.1.2\lvgl\src\lv_objx/lv_btn.h **** 
 102:..\..\..\lvgl\version_6.1.2\lvgl\src\lv_objx/lv_btn.h ****     /** Toggle pressed style */
 103:..\..\..\lvgl\version_6.1.2\lvgl\src\lv_objx/lv_btn.h ****     LV_BTN_STYLE_TGL_PR,
 104:..\..\..\lvgl\version_6.1.2\lvgl\src\lv_objx/lv_btn.h **** 
 105:..\..\..\lvgl\version_6.1.2\lvgl\src\lv_objx/lv_btn.h ****     /** Inactive style*/
 106:..\..\..\lvgl\version_6.1.2\lvgl\src\lv_objx/lv_btn.h ****     LV_BTN_STYLE_INA,
 107:..\..\..\lvgl\version_6.1.2\lvgl\src\lv_objx/lv_btn.h **** };
 108:..\..\..\lvgl\version_6.1.2\lvgl\src\lv_objx/lv_btn.h **** typedef uint8_t lv_btn_style_t;
 109:..\..\..\lvgl\version_6.1.2\lvgl\src\lv_objx/lv_btn.h **** 
 110:..\..\..\lvgl\version_6.1.2\lvgl\src\lv_objx/lv_btn.h **** /**********************
 111:..\..\..\lvgl\version_6.1.2\lvgl\src\lv_objx/lv_btn.h ****  * GLOBAL PROTOTYPES
 112:..\..\..\lvgl\version_6.1.2\lvgl\src\lv_objx/lv_btn.h ****  **********************/
 113:..\..\..\lvgl\version_6.1.2\lvgl\src\lv_objx/lv_btn.h **** 
 114:..\..\..\lvgl\version_6.1.2\lvgl\src\lv_objx/lv_btn.h **** /**
 115:..\..\..\lvgl\version_6.1.2\lvgl\src\lv_objx/lv_btn.h ****  * Create a button object
 116:..\..\..\lvgl\version_6.1.2\lvgl\src\lv_objx/lv_btn.h ****  * @param par pointer to an object, it will be the parent of the new button
 117:..\..\..\lvgl\version_6.1.2\lvgl\src\lv_objx/lv_btn.h ****  * @param copy pointer to a button object, if not NULL then the new object will be copied from it
 118:..\..\..\lvgl\version_6.1.2\lvgl\src\lv_objx/lv_btn.h ****  * @return pointer to the created button
ARM GAS  C:\Users\tmj32\AppData\Local\Temp\ccUUfkkI.s 			page 15


 119:..\..\..\lvgl\version_6.1.2\lvgl\src\lv_objx/lv_btn.h ****  */
 120:..\..\..\lvgl\version_6.1.2\lvgl\src\lv_objx/lv_btn.h **** lv_obj_t * lv_btn_create(lv_obj_t * par, const lv_obj_t * copy);
 121:..\..\..\lvgl\version_6.1.2\lvgl\src\lv_objx/lv_btn.h **** 
 122:..\..\..\lvgl\version_6.1.2\lvgl\src\lv_objx/lv_btn.h **** /*=====================
 123:..\..\..\lvgl\version_6.1.2\lvgl\src\lv_objx/lv_btn.h ****  * Setter functions
 124:..\..\..\lvgl\version_6.1.2\lvgl\src\lv_objx/lv_btn.h ****  *====================*/
 125:..\..\..\lvgl\version_6.1.2\lvgl\src\lv_objx/lv_btn.h **** 
 126:..\..\..\lvgl\version_6.1.2\lvgl\src\lv_objx/lv_btn.h **** /**
 127:..\..\..\lvgl\version_6.1.2\lvgl\src\lv_objx/lv_btn.h ****  * Enable the toggled states. On release the button will change from/to toggled state.
 128:..\..\..\lvgl\version_6.1.2\lvgl\src\lv_objx/lv_btn.h ****  * @param btn pointer to a button object
 129:..\..\..\lvgl\version_6.1.2\lvgl\src\lv_objx/lv_btn.h ****  * @param tgl true: enable toggled states, false: disable
 130:..\..\..\lvgl\version_6.1.2\lvgl\src\lv_objx/lv_btn.h ****  */
 131:..\..\..\lvgl\version_6.1.2\lvgl\src\lv_objx/lv_btn.h **** void lv_btn_set_toggle(lv_obj_t * btn, bool tgl);
 132:..\..\..\lvgl\version_6.1.2\lvgl\src\lv_objx/lv_btn.h **** 
 133:..\..\..\lvgl\version_6.1.2\lvgl\src\lv_objx/lv_btn.h **** /**
 134:..\..\..\lvgl\version_6.1.2\lvgl\src\lv_objx/lv_btn.h ****  * Set the state of the button
 135:..\..\..\lvgl\version_6.1.2\lvgl\src\lv_objx/lv_btn.h ****  * @param btn pointer to a button object
 136:..\..\..\lvgl\version_6.1.2\lvgl\src\lv_objx/lv_btn.h ****  * @param state the new state of the button (from lv_btn_state_t enum)
 137:..\..\..\lvgl\version_6.1.2\lvgl\src\lv_objx/lv_btn.h ****  */
 138:..\..\..\lvgl\version_6.1.2\lvgl\src\lv_objx/lv_btn.h **** void lv_btn_set_state(lv_obj_t * btn, lv_btn_state_t state);
 139:..\..\..\lvgl\version_6.1.2\lvgl\src\lv_objx/lv_btn.h **** 
 140:..\..\..\lvgl\version_6.1.2\lvgl\src\lv_objx/lv_btn.h **** /**
 141:..\..\..\lvgl\version_6.1.2\lvgl\src\lv_objx/lv_btn.h ****  * Toggle the state of the button (ON->OFF, OFF->ON)
 142:..\..\..\lvgl\version_6.1.2\lvgl\src\lv_objx/lv_btn.h ****  * @param btn pointer to a button object
 143:..\..\..\lvgl\version_6.1.2\lvgl\src\lv_objx/lv_btn.h ****  */
 144:..\..\..\lvgl\version_6.1.2\lvgl\src\lv_objx/lv_btn.h **** void lv_btn_toggle(lv_obj_t * btn);
 145:..\..\..\lvgl\version_6.1.2\lvgl\src\lv_objx/lv_btn.h **** 
 146:..\..\..\lvgl\version_6.1.2\lvgl\src\lv_objx/lv_btn.h **** /**
 147:..\..\..\lvgl\version_6.1.2\lvgl\src\lv_objx/lv_btn.h ****  * Set the layout on a button
 148:..\..\..\lvgl\version_6.1.2\lvgl\src\lv_objx/lv_btn.h ****  * @param btn pointer to a button object
 149:..\..\..\lvgl\version_6.1.2\lvgl\src\lv_objx/lv_btn.h ****  * @param layout a layout from 'lv_cont_layout_t'
 150:..\..\..\lvgl\version_6.1.2\lvgl\src\lv_objx/lv_btn.h ****  */
 151:..\..\..\lvgl\version_6.1.2\lvgl\src\lv_objx/lv_btn.h **** static inline void lv_btn_set_layout(lv_obj_t * btn, lv_layout_t layout)
 152:..\..\..\lvgl\version_6.1.2\lvgl\src\lv_objx/lv_btn.h **** {
 237              		.loc 3 152 0
 238              		.cfi_startproc
 239              		@ args = 0, pretend = 0, frame = 8
 240              		@ frame_needed = 1, uses_anonymous_args = 0
 241 0000 80B5     		push	{r7, lr}
 242              		.cfi_def_cfa_offset 8
 243              		.cfi_offset 7, -8
 244              		.cfi_offset 14, -4
 245 0002 82B0     		sub	sp, sp, #8
 246              		.cfi_def_cfa_offset 16
 247 0004 00AF     		add	r7, sp, #0
 248              		.cfi_def_cfa_register 7
 249 0006 7860     		str	r0, [r7, #4]
 250 0008 0B46     		mov	r3, r1
 251 000a FB70     		strb	r3, [r7, #3]
 153:..\..\..\lvgl\version_6.1.2\lvgl\src\lv_objx/lv_btn.h ****     lv_cont_set_layout(btn, layout);
 252              		.loc 3 153 0
 253 000c FB78     		ldrb	r3, [r7, #3]	@ zero_extendqisi2
 254 000e 1946     		mov	r1, r3
 255 0010 7868     		ldr	r0, [r7, #4]
 256 0012 FFF7FEFF 		bl	lv_cont_set_layout
 154:..\..\..\lvgl\version_6.1.2\lvgl\src\lv_objx/lv_btn.h **** }
 257              		.loc 3 154 0
ARM GAS  C:\Users\tmj32\AppData\Local\Temp\ccUUfkkI.s 			page 16


 258 0016 00BF     		nop
 259 0018 0837     		adds	r7, r7, #8
 260              		.cfi_def_cfa_offset 8
 261 001a BD46     		mov	sp, r7
 262              		.cfi_def_cfa_register 13
 263              		@ sp needed
 264 001c 80BD     		pop	{r7, pc}
 265              		.cfi_endproc
 266              	.LFE48:
 267              		.size	lv_btn_set_layout, .-lv_btn_set_layout
 268 001e 00BF     		.section	.text.lv_btn_set_fit2,"ax",%progbits
 269              		.align	2
 270              		.thumb
 271              		.thumb_func
 272              		.type	lv_btn_set_fit2, %function
 273              	lv_btn_set_fit2:
 274              	.LFB50:
 155:..\..\..\lvgl\version_6.1.2\lvgl\src\lv_objx/lv_btn.h **** 
 156:..\..\..\lvgl\version_6.1.2\lvgl\src\lv_objx/lv_btn.h **** /**
 157:..\..\..\lvgl\version_6.1.2\lvgl\src\lv_objx/lv_btn.h ****  * Set the fit policy in all 4 directions separately.
 158:..\..\..\lvgl\version_6.1.2\lvgl\src\lv_objx/lv_btn.h ****  * It tells how to change the button size automatically.
 159:..\..\..\lvgl\version_6.1.2\lvgl\src\lv_objx/lv_btn.h ****  * @param btn pointer to a button object
 160:..\..\..\lvgl\version_6.1.2\lvgl\src\lv_objx/lv_btn.h ****  * @param left left fit policy from `lv_fit_t`
 161:..\..\..\lvgl\version_6.1.2\lvgl\src\lv_objx/lv_btn.h ****  * @param right right fit policy from `lv_fit_t`
 162:..\..\..\lvgl\version_6.1.2\lvgl\src\lv_objx/lv_btn.h ****  * @param top top fit policy from `lv_fit_t`
 163:..\..\..\lvgl\version_6.1.2\lvgl\src\lv_objx/lv_btn.h ****  * @param bottom bottom fit policy from `lv_fit_t`
 164:..\..\..\lvgl\version_6.1.2\lvgl\src\lv_objx/lv_btn.h ****  */
 165:..\..\..\lvgl\version_6.1.2\lvgl\src\lv_objx/lv_btn.h **** static inline void lv_btn_set_fit4(lv_obj_t * btn, lv_fit_t left, lv_fit_t right, lv_fit_t top, lv_
 166:..\..\..\lvgl\version_6.1.2\lvgl\src\lv_objx/lv_btn.h **** {
 167:..\..\..\lvgl\version_6.1.2\lvgl\src\lv_objx/lv_btn.h ****     lv_cont_set_fit4(btn, left, right, top, bottom);
 168:..\..\..\lvgl\version_6.1.2\lvgl\src\lv_objx/lv_btn.h **** }
 169:..\..\..\lvgl\version_6.1.2\lvgl\src\lv_objx/lv_btn.h **** 
 170:..\..\..\lvgl\version_6.1.2\lvgl\src\lv_objx/lv_btn.h **** /**
 171:..\..\..\lvgl\version_6.1.2\lvgl\src\lv_objx/lv_btn.h ****  * Set the fit policy horizontally and vertically separately.
 172:..\..\..\lvgl\version_6.1.2\lvgl\src\lv_objx/lv_btn.h ****  * It tells how to change the button size automatically.
 173:..\..\..\lvgl\version_6.1.2\lvgl\src\lv_objx/lv_btn.h ****  * @param btn pointer to a button object
 174:..\..\..\lvgl\version_6.1.2\lvgl\src\lv_objx/lv_btn.h ****  * @param hor horizontal fit policy from `lv_fit_t`
 175:..\..\..\lvgl\version_6.1.2\lvgl\src\lv_objx/lv_btn.h ****  * @param ver vertical fit policy from `lv_fit_t`
 176:..\..\..\lvgl\version_6.1.2\lvgl\src\lv_objx/lv_btn.h ****  */
 177:..\..\..\lvgl\version_6.1.2\lvgl\src\lv_objx/lv_btn.h **** static inline void lv_btn_set_fit2(lv_obj_t * btn, lv_fit_t hor, lv_fit_t ver)
 178:..\..\..\lvgl\version_6.1.2\lvgl\src\lv_objx/lv_btn.h **** {
 275              		.loc 3 178 0
 276              		.cfi_startproc
 277              		@ args = 0, pretend = 0, frame = 8
 278              		@ frame_needed = 1, uses_anonymous_args = 0
 279 0000 80B5     		push	{r7, lr}
 280              		.cfi_def_cfa_offset 8
 281              		.cfi_offset 7, -8
 282              		.cfi_offset 14, -4
 283 0002 82B0     		sub	sp, sp, #8
 284              		.cfi_def_cfa_offset 16
 285 0004 00AF     		add	r7, sp, #0
 286              		.cfi_def_cfa_register 7
 287 0006 7860     		str	r0, [r7, #4]
 288 0008 0B46     		mov	r3, r1
 289 000a FB70     		strb	r3, [r7, #3]
 290 000c 1346     		mov	r3, r2
ARM GAS  C:\Users\tmj32\AppData\Local\Temp\ccUUfkkI.s 			page 17


 291 000e BB70     		strb	r3, [r7, #2]
 179:..\..\..\lvgl\version_6.1.2\lvgl\src\lv_objx/lv_btn.h ****     lv_cont_set_fit2(btn, hor, ver);
 292              		.loc 3 179 0
 293 0010 BA78     		ldrb	r2, [r7, #2]	@ zero_extendqisi2
 294 0012 FB78     		ldrb	r3, [r7, #3]	@ zero_extendqisi2
 295 0014 1946     		mov	r1, r3
 296 0016 7868     		ldr	r0, [r7, #4]
 297 0018 FFF7FEFF 		bl	lv_cont_set_fit2
 180:..\..\..\lvgl\version_6.1.2\lvgl\src\lv_objx/lv_btn.h **** }
 298              		.loc 3 180 0
 299 001c 00BF     		nop
 300 001e 0837     		adds	r7, r7, #8
 301              		.cfi_def_cfa_offset 8
 302 0020 BD46     		mov	sp, r7
 303              		.cfi_def_cfa_register 13
 304              		@ sp needed
 305 0022 80BD     		pop	{r7, pc}
 306              		.cfi_endproc
 307              	.LFE50:
 308              		.size	lv_btn_set_fit2, .-lv_btn_set_fit2
 309              		.section	.text.lv_btn_set_fit,"ax",%progbits
 310              		.align	2
 311              		.thumb
 312              		.thumb_func
 313              		.type	lv_btn_set_fit, %function
 314              	lv_btn_set_fit:
 315              	.LFB51:
 181:..\..\..\lvgl\version_6.1.2\lvgl\src\lv_objx/lv_btn.h **** 
 182:..\..\..\lvgl\version_6.1.2\lvgl\src\lv_objx/lv_btn.h **** /**
 183:..\..\..\lvgl\version_6.1.2\lvgl\src\lv_objx/lv_btn.h ****  * Set the fit policy in all 4 direction at once.
 184:..\..\..\lvgl\version_6.1.2\lvgl\src\lv_objx/lv_btn.h ****  * It tells how to change the button size automatically.
 185:..\..\..\lvgl\version_6.1.2\lvgl\src\lv_objx/lv_btn.h ****  * @param btn pointer to a button object
 186:..\..\..\lvgl\version_6.1.2\lvgl\src\lv_objx/lv_btn.h ****  * @param fit fit policy from `lv_fit_t`
 187:..\..\..\lvgl\version_6.1.2\lvgl\src\lv_objx/lv_btn.h ****  */
 188:..\..\..\lvgl\version_6.1.2\lvgl\src\lv_objx/lv_btn.h **** static inline void lv_btn_set_fit(lv_obj_t * btn, lv_fit_t fit)
 189:..\..\..\lvgl\version_6.1.2\lvgl\src\lv_objx/lv_btn.h **** {
 316              		.loc 3 189 0
 317              		.cfi_startproc
 318              		@ args = 0, pretend = 0, frame = 8
 319              		@ frame_needed = 1, uses_anonymous_args = 0
 320 0000 80B5     		push	{r7, lr}
 321              		.cfi_def_cfa_offset 8
 322              		.cfi_offset 7, -8
 323              		.cfi_offset 14, -4
 324 0002 82B0     		sub	sp, sp, #8
 325              		.cfi_def_cfa_offset 16
 326 0004 00AF     		add	r7, sp, #0
 327              		.cfi_def_cfa_register 7
 328 0006 7860     		str	r0, [r7, #4]
 329 0008 0B46     		mov	r3, r1
 330 000a FB70     		strb	r3, [r7, #3]
 190:..\..\..\lvgl\version_6.1.2\lvgl\src\lv_objx/lv_btn.h ****     lv_cont_set_fit(btn, fit);
 331              		.loc 3 190 0
 332 000c FB78     		ldrb	r3, [r7, #3]	@ zero_extendqisi2
 333 000e 1946     		mov	r1, r3
 334 0010 7868     		ldr	r0, [r7, #4]
 335 0012 FFF7FEFF 		bl	lv_cont_set_fit
ARM GAS  C:\Users\tmj32\AppData\Local\Temp\ccUUfkkI.s 			page 18


 191:..\..\..\lvgl\version_6.1.2\lvgl\src\lv_objx/lv_btn.h **** }
 336              		.loc 3 191 0
 337 0016 00BF     		nop
 338 0018 0837     		adds	r7, r7, #8
 339              		.cfi_def_cfa_offset 8
 340 001a BD46     		mov	sp, r7
 341              		.cfi_def_cfa_register 13
 342              		@ sp needed
 343 001c 80BD     		pop	{r7, pc}
 344              		.cfi_endproc
 345              	.LFE51:
 346              		.size	lv_btn_set_fit, .-lv_btn_set_fit
 347 001e 00BF     		.section	.text.lv_list_set_sb_mode,"ax",%progbits
 348              		.align	2
 349              		.thumb
 350              		.thumb_func
 351              		.type	lv_list_set_sb_mode, %function
 352              	lv_list_set_sb_mode:
 353              	.LFB61:
 354              		.file 4 "..\\..\\..\\lvgl\\version_6.1.2\\lvgl\\src\\lv_objx\\lv_list.h"
   1:..\..\..\lvgl\version_6.1.2\lvgl\src\lv_objx/lv_list.h **** /**
   2:..\..\..\lvgl\version_6.1.2\lvgl\src\lv_objx/lv_list.h ****  * @file lv_list.h
   3:..\..\..\lvgl\version_6.1.2\lvgl\src\lv_objx/lv_list.h ****  *
   4:..\..\..\lvgl\version_6.1.2\lvgl\src\lv_objx/lv_list.h ****  */
   5:..\..\..\lvgl\version_6.1.2\lvgl\src\lv_objx/lv_list.h **** 
   6:..\..\..\lvgl\version_6.1.2\lvgl\src\lv_objx/lv_list.h **** #ifndef LV_LIST_H
   7:..\..\..\lvgl\version_6.1.2\lvgl\src\lv_objx/lv_list.h **** #define LV_LIST_H
   8:..\..\..\lvgl\version_6.1.2\lvgl\src\lv_objx/lv_list.h **** 
   9:..\..\..\lvgl\version_6.1.2\lvgl\src\lv_objx/lv_list.h **** #ifdef __cplusplus
  10:..\..\..\lvgl\version_6.1.2\lvgl\src\lv_objx/lv_list.h **** extern "C" {
  11:..\..\..\lvgl\version_6.1.2\lvgl\src\lv_objx/lv_list.h **** #endif
  12:..\..\..\lvgl\version_6.1.2\lvgl\src\lv_objx/lv_list.h **** 
  13:..\..\..\lvgl\version_6.1.2\lvgl\src\lv_objx/lv_list.h **** /*********************
  14:..\..\..\lvgl\version_6.1.2\lvgl\src\lv_objx/lv_list.h ****  *      INCLUDES
  15:..\..\..\lvgl\version_6.1.2\lvgl\src\lv_objx/lv_list.h ****  *********************/
  16:..\..\..\lvgl\version_6.1.2\lvgl\src\lv_objx/lv_list.h **** #ifdef LV_CONF_INCLUDE_SIMPLE
  17:..\..\..\lvgl\version_6.1.2\lvgl\src\lv_objx/lv_list.h **** #include "lv_conf.h"
  18:..\..\..\lvgl\version_6.1.2\lvgl\src\lv_objx/lv_list.h **** #else
  19:..\..\..\lvgl\version_6.1.2\lvgl\src\lv_objx/lv_list.h **** #include "../../../lv_conf.h"
  20:..\..\..\lvgl\version_6.1.2\lvgl\src\lv_objx/lv_list.h **** #endif
  21:..\..\..\lvgl\version_6.1.2\lvgl\src\lv_objx/lv_list.h **** 
  22:..\..\..\lvgl\version_6.1.2\lvgl\src\lv_objx/lv_list.h **** #if LV_USE_LIST != 0
  23:..\..\..\lvgl\version_6.1.2\lvgl\src\lv_objx/lv_list.h **** 
  24:..\..\..\lvgl\version_6.1.2\lvgl\src\lv_objx/lv_list.h **** /*Testing of dependencies*/
  25:..\..\..\lvgl\version_6.1.2\lvgl\src\lv_objx/lv_list.h **** #if LV_USE_PAGE == 0
  26:..\..\..\lvgl\version_6.1.2\lvgl\src\lv_objx/lv_list.h **** #error "lv_list: lv_page is required. Enable it in lv_conf.h (LV_USE_PAGE  1) "
  27:..\..\..\lvgl\version_6.1.2\lvgl\src\lv_objx/lv_list.h **** #endif
  28:..\..\..\lvgl\version_6.1.2\lvgl\src\lv_objx/lv_list.h **** 
  29:..\..\..\lvgl\version_6.1.2\lvgl\src\lv_objx/lv_list.h **** #if LV_USE_BTN == 0
  30:..\..\..\lvgl\version_6.1.2\lvgl\src\lv_objx/lv_list.h **** #error "lv_list: lv_btn is required. Enable it in lv_conf.h (LV_USE_BTN  1) "
  31:..\..\..\lvgl\version_6.1.2\lvgl\src\lv_objx/lv_list.h **** #endif
  32:..\..\..\lvgl\version_6.1.2\lvgl\src\lv_objx/lv_list.h **** 
  33:..\..\..\lvgl\version_6.1.2\lvgl\src\lv_objx/lv_list.h **** #if LV_USE_LABEL == 0
  34:..\..\..\lvgl\version_6.1.2\lvgl\src\lv_objx/lv_list.h **** #error "lv_list: lv_label is required. Enable it in lv_conf.h (LV_USE_LABEL  1) "
  35:..\..\..\lvgl\version_6.1.2\lvgl\src\lv_objx/lv_list.h **** #endif
  36:..\..\..\lvgl\version_6.1.2\lvgl\src\lv_objx/lv_list.h **** 
  37:..\..\..\lvgl\version_6.1.2\lvgl\src\lv_objx/lv_list.h **** #include "../lv_core/lv_obj.h"
ARM GAS  C:\Users\tmj32\AppData\Local\Temp\ccUUfkkI.s 			page 19


  38:..\..\..\lvgl\version_6.1.2\lvgl\src\lv_objx/lv_list.h **** #include "lv_page.h"
  39:..\..\..\lvgl\version_6.1.2\lvgl\src\lv_objx/lv_list.h **** #include "lv_btn.h"
  40:..\..\..\lvgl\version_6.1.2\lvgl\src\lv_objx/lv_list.h **** #include "lv_label.h"
  41:..\..\..\lvgl\version_6.1.2\lvgl\src\lv_objx/lv_list.h **** #include "lv_img.h"
  42:..\..\..\lvgl\version_6.1.2\lvgl\src\lv_objx/lv_list.h **** 
  43:..\..\..\lvgl\version_6.1.2\lvgl\src\lv_objx/lv_list.h **** /*********************
  44:..\..\..\lvgl\version_6.1.2\lvgl\src\lv_objx/lv_list.h ****  *      DEFINES
  45:..\..\..\lvgl\version_6.1.2\lvgl\src\lv_objx/lv_list.h ****  *********************/
  46:..\..\..\lvgl\version_6.1.2\lvgl\src\lv_objx/lv_list.h **** 
  47:..\..\..\lvgl\version_6.1.2\lvgl\src\lv_objx/lv_list.h **** /**********************
  48:..\..\..\lvgl\version_6.1.2\lvgl\src\lv_objx/lv_list.h ****  *      TYPEDEFS
  49:..\..\..\lvgl\version_6.1.2\lvgl\src\lv_objx/lv_list.h ****  **********************/
  50:..\..\..\lvgl\version_6.1.2\lvgl\src\lv_objx/lv_list.h **** /*Data of list*/
  51:..\..\..\lvgl\version_6.1.2\lvgl\src\lv_objx/lv_list.h **** typedef struct
  52:..\..\..\lvgl\version_6.1.2\lvgl\src\lv_objx/lv_list.h **** {
  53:..\..\..\lvgl\version_6.1.2\lvgl\src\lv_objx/lv_list.h ****     lv_page_ext_t page; /*Ext. of ancestor*/
  54:..\..\..\lvgl\version_6.1.2\lvgl\src\lv_objx/lv_list.h ****     /*New data for this type */
  55:..\..\..\lvgl\version_6.1.2\lvgl\src\lv_objx/lv_list.h ****     const lv_style_t * styles_btn[_LV_BTN_STATE_NUM]; /*Styles of the list element buttons*/
  56:..\..\..\lvgl\version_6.1.2\lvgl\src\lv_objx/lv_list.h ****     const lv_style_t * style_img;                     /*Style of the list element images on buttons
  57:..\..\..\lvgl\version_6.1.2\lvgl\src\lv_objx/lv_list.h ****     uint16_t size;                                    /*the number of items(buttons) in the list*/
  58:..\..\..\lvgl\version_6.1.2\lvgl\src\lv_objx/lv_list.h **** 
  59:..\..\..\lvgl\version_6.1.2\lvgl\src\lv_objx/lv_list.h ****     uint8_t single_mode : 1; /* whether single selected mode is enabled */
  60:..\..\..\lvgl\version_6.1.2\lvgl\src\lv_objx/lv_list.h **** 
  61:..\..\..\lvgl\version_6.1.2\lvgl\src\lv_objx/lv_list.h **** #if LV_USE_GROUP
  62:..\..\..\lvgl\version_6.1.2\lvgl\src\lv_objx/lv_list.h ****     lv_obj_t * last_sel;     /* The last selected button. It will be reverted when the list is focu
  63:..\..\..\lvgl\version_6.1.2\lvgl\src\lv_objx/lv_list.h ****     lv_obj_t * selected_btn; /* The button is currently being selected*/
  64:..\..\..\lvgl\version_6.1.2\lvgl\src\lv_objx/lv_list.h ****     /*Used to make the last clicked button pressed (selected) when the list become focused and
  65:..\..\..\lvgl\version_6.1.2\lvgl\src\lv_objx/lv_list.h ****      * `click_focus == 1`*/
  66:..\..\..\lvgl\version_6.1.2\lvgl\src\lv_objx/lv_list.h ****     lv_obj_t * last_clicked_btn;
  67:..\..\..\lvgl\version_6.1.2\lvgl\src\lv_objx/lv_list.h **** #endif
  68:..\..\..\lvgl\version_6.1.2\lvgl\src\lv_objx/lv_list.h **** } lv_list_ext_t;
  69:..\..\..\lvgl\version_6.1.2\lvgl\src\lv_objx/lv_list.h **** 
  70:..\..\..\lvgl\version_6.1.2\lvgl\src\lv_objx/lv_list.h **** /** List styles. */
  71:..\..\..\lvgl\version_6.1.2\lvgl\src\lv_objx/lv_list.h **** enum {
  72:..\..\..\lvgl\version_6.1.2\lvgl\src\lv_objx/lv_list.h ****     LV_LIST_STYLE_BG, /**< List background style */
  73:..\..\..\lvgl\version_6.1.2\lvgl\src\lv_objx/lv_list.h ****     LV_LIST_STYLE_SCRL, /**< List scrollable area style. */
  74:..\..\..\lvgl\version_6.1.2\lvgl\src\lv_objx/lv_list.h ****     LV_LIST_STYLE_SB, /**< List scrollbar style. */
  75:..\..\..\lvgl\version_6.1.2\lvgl\src\lv_objx/lv_list.h ****     LV_LIST_STYLE_EDGE_FLASH, /**< List edge flash style. */
  76:..\..\..\lvgl\version_6.1.2\lvgl\src\lv_objx/lv_list.h ****     LV_LIST_STYLE_BTN_REL, /**< Same meaning as the ordinary button styles. */
  77:..\..\..\lvgl\version_6.1.2\lvgl\src\lv_objx/lv_list.h ****     LV_LIST_STYLE_BTN_PR,
  78:..\..\..\lvgl\version_6.1.2\lvgl\src\lv_objx/lv_list.h ****     LV_LIST_STYLE_BTN_TGL_REL,
  79:..\..\..\lvgl\version_6.1.2\lvgl\src\lv_objx/lv_list.h ****     LV_LIST_STYLE_BTN_TGL_PR,
  80:..\..\..\lvgl\version_6.1.2\lvgl\src\lv_objx/lv_list.h ****     LV_LIST_STYLE_BTN_INA,
  81:..\..\..\lvgl\version_6.1.2\lvgl\src\lv_objx/lv_list.h **** };
  82:..\..\..\lvgl\version_6.1.2\lvgl\src\lv_objx/lv_list.h **** typedef uint8_t lv_list_style_t;
  83:..\..\..\lvgl\version_6.1.2\lvgl\src\lv_objx/lv_list.h **** 
  84:..\..\..\lvgl\version_6.1.2\lvgl\src\lv_objx/lv_list.h **** /**********************
  85:..\..\..\lvgl\version_6.1.2\lvgl\src\lv_objx/lv_list.h ****  * GLOBAL PROTOTYPES
  86:..\..\..\lvgl\version_6.1.2\lvgl\src\lv_objx/lv_list.h ****  **********************/
  87:..\..\..\lvgl\version_6.1.2\lvgl\src\lv_objx/lv_list.h **** 
  88:..\..\..\lvgl\version_6.1.2\lvgl\src\lv_objx/lv_list.h **** /**
  89:..\..\..\lvgl\version_6.1.2\lvgl\src\lv_objx/lv_list.h ****  * Create a list objects
  90:..\..\..\lvgl\version_6.1.2\lvgl\src\lv_objx/lv_list.h ****  * @param par pointer to an object, it will be the parent of the new list
  91:..\..\..\lvgl\version_6.1.2\lvgl\src\lv_objx/lv_list.h ****  * @param copy pointer to a list object, if not NULL then the new object will be copied from it
  92:..\..\..\lvgl\version_6.1.2\lvgl\src\lv_objx/lv_list.h ****  * @return pointer to the created list
  93:..\..\..\lvgl\version_6.1.2\lvgl\src\lv_objx/lv_list.h ****  */
  94:..\..\..\lvgl\version_6.1.2\lvgl\src\lv_objx/lv_list.h **** lv_obj_t * lv_list_create(lv_obj_t * par, const lv_obj_t * copy);
ARM GAS  C:\Users\tmj32\AppData\Local\Temp\ccUUfkkI.s 			page 20


  95:..\..\..\lvgl\version_6.1.2\lvgl\src\lv_objx/lv_list.h **** 
  96:..\..\..\lvgl\version_6.1.2\lvgl\src\lv_objx/lv_list.h **** /**
  97:..\..\..\lvgl\version_6.1.2\lvgl\src\lv_objx/lv_list.h ****  * Delete all children of the scrl object, without deleting scrl child.
  98:..\..\..\lvgl\version_6.1.2\lvgl\src\lv_objx/lv_list.h ****  * @param list pointer to an object
  99:..\..\..\lvgl\version_6.1.2\lvgl\src\lv_objx/lv_list.h ****  */
 100:..\..\..\lvgl\version_6.1.2\lvgl\src\lv_objx/lv_list.h **** void lv_list_clean(lv_obj_t * list);
 101:..\..\..\lvgl\version_6.1.2\lvgl\src\lv_objx/lv_list.h **** 
 102:..\..\..\lvgl\version_6.1.2\lvgl\src\lv_objx/lv_list.h **** /*======================
 103:..\..\..\lvgl\version_6.1.2\lvgl\src\lv_objx/lv_list.h ****  * Add/remove functions
 104:..\..\..\lvgl\version_6.1.2\lvgl\src\lv_objx/lv_list.h ****  *=====================*/
 105:..\..\..\lvgl\version_6.1.2\lvgl\src\lv_objx/lv_list.h **** 
 106:..\..\..\lvgl\version_6.1.2\lvgl\src\lv_objx/lv_list.h **** /**
 107:..\..\..\lvgl\version_6.1.2\lvgl\src\lv_objx/lv_list.h ****  * Add a list element to the list
 108:..\..\..\lvgl\version_6.1.2\lvgl\src\lv_objx/lv_list.h ****  * @param list pointer to list object
 109:..\..\..\lvgl\version_6.1.2\lvgl\src\lv_objx/lv_list.h ****  * @param img_fn file name of an image before the text (NULL if unused)
 110:..\..\..\lvgl\version_6.1.2\lvgl\src\lv_objx/lv_list.h ****  * @param txt text of the list element (NULL if unused)
 111:..\..\..\lvgl\version_6.1.2\lvgl\src\lv_objx/lv_list.h ****  * @return pointer to the new list element which can be customized (a button)
 112:..\..\..\lvgl\version_6.1.2\lvgl\src\lv_objx/lv_list.h ****  */
 113:..\..\..\lvgl\version_6.1.2\lvgl\src\lv_objx/lv_list.h **** lv_obj_t * lv_list_add_btn(lv_obj_t * list, const void * img_src, const char * txt);
 114:..\..\..\lvgl\version_6.1.2\lvgl\src\lv_objx/lv_list.h **** 
 115:..\..\..\lvgl\version_6.1.2\lvgl\src\lv_objx/lv_list.h **** /**
 116:..\..\..\lvgl\version_6.1.2\lvgl\src\lv_objx/lv_list.h ****  * Remove the index of the button in the list
 117:..\..\..\lvgl\version_6.1.2\lvgl\src\lv_objx/lv_list.h ****  * @param list pointer to a list object
 118:..\..\..\lvgl\version_6.1.2\lvgl\src\lv_objx/lv_list.h ****  * @param index pointer to a the button's index in the list, index must be 0 <= index <
 119:..\..\..\lvgl\version_6.1.2\lvgl\src\lv_objx/lv_list.h ****  * lv_list_ext_t.size
 120:..\..\..\lvgl\version_6.1.2\lvgl\src\lv_objx/lv_list.h ****  * @return true: successfully deleted
 121:..\..\..\lvgl\version_6.1.2\lvgl\src\lv_objx/lv_list.h ****  */
 122:..\..\..\lvgl\version_6.1.2\lvgl\src\lv_objx/lv_list.h **** bool lv_list_remove(const lv_obj_t * list, uint16_t index);
 123:..\..\..\lvgl\version_6.1.2\lvgl\src\lv_objx/lv_list.h **** 
 124:..\..\..\lvgl\version_6.1.2\lvgl\src\lv_objx/lv_list.h **** /*=====================
 125:..\..\..\lvgl\version_6.1.2\lvgl\src\lv_objx/lv_list.h ****  * Setter functions
 126:..\..\..\lvgl\version_6.1.2\lvgl\src\lv_objx/lv_list.h ****  *====================*/
 127:..\..\..\lvgl\version_6.1.2\lvgl\src\lv_objx/lv_list.h **** 
 128:..\..\..\lvgl\version_6.1.2\lvgl\src\lv_objx/lv_list.h **** /**
 129:..\..\..\lvgl\version_6.1.2\lvgl\src\lv_objx/lv_list.h ****  * Set single button selected mode, only one button will be selected if enabled.
 130:..\..\..\lvgl\version_6.1.2\lvgl\src\lv_objx/lv_list.h ****  * @param list pointer to the currently pressed list object
 131:..\..\..\lvgl\version_6.1.2\lvgl\src\lv_objx/lv_list.h ****  * @param mode enable(true)/disable(false) single selected mode.
 132:..\..\..\lvgl\version_6.1.2\lvgl\src\lv_objx/lv_list.h ****  */
 133:..\..\..\lvgl\version_6.1.2\lvgl\src\lv_objx/lv_list.h **** void lv_list_set_single_mode(lv_obj_t * list, bool mode);
 134:..\..\..\lvgl\version_6.1.2\lvgl\src\lv_objx/lv_list.h **** 
 135:..\..\..\lvgl\version_6.1.2\lvgl\src\lv_objx/lv_list.h **** #if LV_USE_GROUP
 136:..\..\..\lvgl\version_6.1.2\lvgl\src\lv_objx/lv_list.h **** 
 137:..\..\..\lvgl\version_6.1.2\lvgl\src\lv_objx/lv_list.h **** /**
 138:..\..\..\lvgl\version_6.1.2\lvgl\src\lv_objx/lv_list.h ****  * Make a button selected
 139:..\..\..\lvgl\version_6.1.2\lvgl\src\lv_objx/lv_list.h ****  * @param list pointer to a list object
 140:..\..\..\lvgl\version_6.1.2\lvgl\src\lv_objx/lv_list.h ****  * @param btn pointer to a button to select
 141:..\..\..\lvgl\version_6.1.2\lvgl\src\lv_objx/lv_list.h ****  *            NULL to not select any buttons
 142:..\..\..\lvgl\version_6.1.2\lvgl\src\lv_objx/lv_list.h ****  */
 143:..\..\..\lvgl\version_6.1.2\lvgl\src\lv_objx/lv_list.h **** void lv_list_set_btn_selected(lv_obj_t * list, lv_obj_t * btn);
 144:..\..\..\lvgl\version_6.1.2\lvgl\src\lv_objx/lv_list.h **** #endif
 145:..\..\..\lvgl\version_6.1.2\lvgl\src\lv_objx/lv_list.h **** 
 146:..\..\..\lvgl\version_6.1.2\lvgl\src\lv_objx/lv_list.h **** /**
 147:..\..\..\lvgl\version_6.1.2\lvgl\src\lv_objx/lv_list.h ****  * Set the scroll bar mode of a list
 148:..\..\..\lvgl\version_6.1.2\lvgl\src\lv_objx/lv_list.h ****  * @param list pointer to a list object
 149:..\..\..\lvgl\version_6.1.2\lvgl\src\lv_objx/lv_list.h ****  * @param sb_mode the new mode from 'lv_page_sb_mode_t' enum
 150:..\..\..\lvgl\version_6.1.2\lvgl\src\lv_objx/lv_list.h ****  */
 151:..\..\..\lvgl\version_6.1.2\lvgl\src\lv_objx/lv_list.h **** static inline void lv_list_set_sb_mode(lv_obj_t * list, lv_sb_mode_t mode)
ARM GAS  C:\Users\tmj32\AppData\Local\Temp\ccUUfkkI.s 			page 21


 152:..\..\..\lvgl\version_6.1.2\lvgl\src\lv_objx/lv_list.h **** {
 355              		.loc 4 152 0
 356              		.cfi_startproc
 357              		@ args = 0, pretend = 0, frame = 8
 358              		@ frame_needed = 1, uses_anonymous_args = 0
 359 0000 80B5     		push	{r7, lr}
 360              		.cfi_def_cfa_offset 8
 361              		.cfi_offset 7, -8
 362              		.cfi_offset 14, -4
 363 0002 82B0     		sub	sp, sp, #8
 364              		.cfi_def_cfa_offset 16
 365 0004 00AF     		add	r7, sp, #0
 366              		.cfi_def_cfa_register 7
 367 0006 7860     		str	r0, [r7, #4]
 368 0008 0B46     		mov	r3, r1
 369 000a FB70     		strb	r3, [r7, #3]
 153:..\..\..\lvgl\version_6.1.2\lvgl\src\lv_objx/lv_list.h ****     lv_page_set_sb_mode(list, mode);
 370              		.loc 4 153 0
 371 000c FB78     		ldrb	r3, [r7, #3]	@ zero_extendqisi2
 372 000e 1946     		mov	r1, r3
 373 0010 7868     		ldr	r0, [r7, #4]
 374 0012 FFF7FEFF 		bl	lv_page_set_sb_mode
 154:..\..\..\lvgl\version_6.1.2\lvgl\src\lv_objx/lv_list.h **** }
 375              		.loc 4 154 0
 376 0016 00BF     		nop
 377 0018 0837     		adds	r7, r7, #8
 378              		.cfi_def_cfa_offset 8
 379 001a BD46     		mov	sp, r7
 380              		.cfi_def_cfa_register 13
 381              		@ sp needed
 382 001c 80BD     		pop	{r7, pc}
 383              		.cfi_endproc
 384              	.LFE61:
 385              		.size	lv_list_set_sb_mode, .-lv_list_set_sb_mode
 386 001e 00BF     		.section	.text.lv_list_get_anim_time,"ax",%progbits
 387              		.align	2
 388              		.thumb
 389              		.thumb_func
 390              		.type	lv_list_get_anim_time, %function
 391              	lv_list_get_anim_time:
 392              	.LFB68:
 155:..\..\..\lvgl\version_6.1.2\lvgl\src\lv_objx/lv_list.h **** 
 156:..\..\..\lvgl\version_6.1.2\lvgl\src\lv_objx/lv_list.h **** /**
 157:..\..\..\lvgl\version_6.1.2\lvgl\src\lv_objx/lv_list.h ****  * Enable the scroll propagation feature. If enabled then the List will move its parent if there is
 158:..\..\..\lvgl\version_6.1.2\lvgl\src\lv_objx/lv_list.h ****  * no more space to scroll.
 159:..\..\..\lvgl\version_6.1.2\lvgl\src\lv_objx/lv_list.h ****  * @param list pointer to a List
 160:..\..\..\lvgl\version_6.1.2\lvgl\src\lv_objx/lv_list.h ****  * @param en true or false to enable/disable scroll propagation
 161:..\..\..\lvgl\version_6.1.2\lvgl\src\lv_objx/lv_list.h ****  */
 162:..\..\..\lvgl\version_6.1.2\lvgl\src\lv_objx/lv_list.h **** static inline void lv_list_set_scroll_propagation(lv_obj_t * list, bool en)
 163:..\..\..\lvgl\version_6.1.2\lvgl\src\lv_objx/lv_list.h **** {
 164:..\..\..\lvgl\version_6.1.2\lvgl\src\lv_objx/lv_list.h ****     lv_page_set_scroll_propagation(list, en);
 165:..\..\..\lvgl\version_6.1.2\lvgl\src\lv_objx/lv_list.h **** }
 166:..\..\..\lvgl\version_6.1.2\lvgl\src\lv_objx/lv_list.h **** 
 167:..\..\..\lvgl\version_6.1.2\lvgl\src\lv_objx/lv_list.h **** /**
 168:..\..\..\lvgl\version_6.1.2\lvgl\src\lv_objx/lv_list.h ****  * Enable the edge flash effect. (Show an arc when the an edge is reached)
 169:..\..\..\lvgl\version_6.1.2\lvgl\src\lv_objx/lv_list.h ****  * @param list pointer to a List
 170:..\..\..\lvgl\version_6.1.2\lvgl\src\lv_objx/lv_list.h ****  * @param en true or false to enable/disable end flash
ARM GAS  C:\Users\tmj32\AppData\Local\Temp\ccUUfkkI.s 			page 22


 171:..\..\..\lvgl\version_6.1.2\lvgl\src\lv_objx/lv_list.h ****  */
 172:..\..\..\lvgl\version_6.1.2\lvgl\src\lv_objx/lv_list.h **** static inline void lv_list_set_edge_flash(lv_obj_t * list, bool en)
 173:..\..\..\lvgl\version_6.1.2\lvgl\src\lv_objx/lv_list.h **** {
 174:..\..\..\lvgl\version_6.1.2\lvgl\src\lv_objx/lv_list.h ****     lv_page_set_edge_flash(list, en);
 175:..\..\..\lvgl\version_6.1.2\lvgl\src\lv_objx/lv_list.h **** }
 176:..\..\..\lvgl\version_6.1.2\lvgl\src\lv_objx/lv_list.h **** 
 177:..\..\..\lvgl\version_6.1.2\lvgl\src\lv_objx/lv_list.h **** /**
 178:..\..\..\lvgl\version_6.1.2\lvgl\src\lv_objx/lv_list.h ****  * Set scroll animation duration on 'list_up()' 'list_down()' 'list_focus()'
 179:..\..\..\lvgl\version_6.1.2\lvgl\src\lv_objx/lv_list.h ****  * @param list pointer to a list object
 180:..\..\..\lvgl\version_6.1.2\lvgl\src\lv_objx/lv_list.h ****  * @param anim_time duration of animation [ms]
 181:..\..\..\lvgl\version_6.1.2\lvgl\src\lv_objx/lv_list.h ****  */
 182:..\..\..\lvgl\version_6.1.2\lvgl\src\lv_objx/lv_list.h **** static inline void lv_list_set_anim_time(lv_obj_t * list, uint16_t anim_time)
 183:..\..\..\lvgl\version_6.1.2\lvgl\src\lv_objx/lv_list.h **** {
 184:..\..\..\lvgl\version_6.1.2\lvgl\src\lv_objx/lv_list.h ****     lv_page_set_anim_time(list, anim_time);
 185:..\..\..\lvgl\version_6.1.2\lvgl\src\lv_objx/lv_list.h **** }
 186:..\..\..\lvgl\version_6.1.2\lvgl\src\lv_objx/lv_list.h **** 
 187:..\..\..\lvgl\version_6.1.2\lvgl\src\lv_objx/lv_list.h **** /**
 188:..\..\..\lvgl\version_6.1.2\lvgl\src\lv_objx/lv_list.h ****  * Set a style of a list
 189:..\..\..\lvgl\version_6.1.2\lvgl\src\lv_objx/lv_list.h ****  * @param list pointer to a list object
 190:..\..\..\lvgl\version_6.1.2\lvgl\src\lv_objx/lv_list.h ****  * @param type which style should be set
 191:..\..\..\lvgl\version_6.1.2\lvgl\src\lv_objx/lv_list.h ****  * @param style pointer to a style
 192:..\..\..\lvgl\version_6.1.2\lvgl\src\lv_objx/lv_list.h ****  */
 193:..\..\..\lvgl\version_6.1.2\lvgl\src\lv_objx/lv_list.h **** void lv_list_set_style(lv_obj_t * list, lv_list_style_t type, const lv_style_t * style);
 194:..\..\..\lvgl\version_6.1.2\lvgl\src\lv_objx/lv_list.h **** 
 195:..\..\..\lvgl\version_6.1.2\lvgl\src\lv_objx/lv_list.h **** /**
 196:..\..\..\lvgl\version_6.1.2\lvgl\src\lv_objx/lv_list.h ****  * Set layout of a list
 197:..\..\..\lvgl\version_6.1.2\lvgl\src\lv_objx/lv_list.h ****  * @param list pointer to a list object
 198:..\..\..\lvgl\version_6.1.2\lvgl\src\lv_objx/lv_list.h ****  * @param layout which layout should be used
 199:..\..\..\lvgl\version_6.1.2\lvgl\src\lv_objx/lv_list.h ****  */
 200:..\..\..\lvgl\version_6.1.2\lvgl\src\lv_objx/lv_list.h **** void lv_list_set_layout(lv_obj_t * list, lv_layout_t layout);
 201:..\..\..\lvgl\version_6.1.2\lvgl\src\lv_objx/lv_list.h **** 
 202:..\..\..\lvgl\version_6.1.2\lvgl\src\lv_objx/lv_list.h **** /*=====================
 203:..\..\..\lvgl\version_6.1.2\lvgl\src\lv_objx/lv_list.h ****  * Getter functions
 204:..\..\..\lvgl\version_6.1.2\lvgl\src\lv_objx/lv_list.h ****  *====================*/
 205:..\..\..\lvgl\version_6.1.2\lvgl\src\lv_objx/lv_list.h **** 
 206:..\..\..\lvgl\version_6.1.2\lvgl\src\lv_objx/lv_list.h **** /**
 207:..\..\..\lvgl\version_6.1.2\lvgl\src\lv_objx/lv_list.h ****  * Get single button selected mode.
 208:..\..\..\lvgl\version_6.1.2\lvgl\src\lv_objx/lv_list.h ****  * @param list pointer to the currently pressed list object.
 209:..\..\..\lvgl\version_6.1.2\lvgl\src\lv_objx/lv_list.h ****  */
 210:..\..\..\lvgl\version_6.1.2\lvgl\src\lv_objx/lv_list.h **** bool lv_list_get_single_mode(lv_obj_t * list);
 211:..\..\..\lvgl\version_6.1.2\lvgl\src\lv_objx/lv_list.h **** 
 212:..\..\..\lvgl\version_6.1.2\lvgl\src\lv_objx/lv_list.h **** /**
 213:..\..\..\lvgl\version_6.1.2\lvgl\src\lv_objx/lv_list.h ****  * Get the text of a list element
 214:..\..\..\lvgl\version_6.1.2\lvgl\src\lv_objx/lv_list.h ****  * @param btn pointer to list element
 215:..\..\..\lvgl\version_6.1.2\lvgl\src\lv_objx/lv_list.h ****  * @return pointer to the text
 216:..\..\..\lvgl\version_6.1.2\lvgl\src\lv_objx/lv_list.h ****  */
 217:..\..\..\lvgl\version_6.1.2\lvgl\src\lv_objx/lv_list.h **** const char * lv_list_get_btn_text(const lv_obj_t * btn);
 218:..\..\..\lvgl\version_6.1.2\lvgl\src\lv_objx/lv_list.h **** /**
 219:..\..\..\lvgl\version_6.1.2\lvgl\src\lv_objx/lv_list.h ****  * Get the label object from a list element
 220:..\..\..\lvgl\version_6.1.2\lvgl\src\lv_objx/lv_list.h ****  * @param btn pointer to a list element (button)
 221:..\..\..\lvgl\version_6.1.2\lvgl\src\lv_objx/lv_list.h ****  * @return pointer to the label from the list element or NULL if not found
 222:..\..\..\lvgl\version_6.1.2\lvgl\src\lv_objx/lv_list.h ****  */
 223:..\..\..\lvgl\version_6.1.2\lvgl\src\lv_objx/lv_list.h **** lv_obj_t * lv_list_get_btn_label(const lv_obj_t * btn);
 224:..\..\..\lvgl\version_6.1.2\lvgl\src\lv_objx/lv_list.h **** 
 225:..\..\..\lvgl\version_6.1.2\lvgl\src\lv_objx/lv_list.h **** /**
 226:..\..\..\lvgl\version_6.1.2\lvgl\src\lv_objx/lv_list.h ****  * Get the image object from a list element
 227:..\..\..\lvgl\version_6.1.2\lvgl\src\lv_objx/lv_list.h ****  * @param btn pointer to a list element (button)
ARM GAS  C:\Users\tmj32\AppData\Local\Temp\ccUUfkkI.s 			page 23


 228:..\..\..\lvgl\version_6.1.2\lvgl\src\lv_objx/lv_list.h ****  * @return pointer to the image from the list element or NULL if not found
 229:..\..\..\lvgl\version_6.1.2\lvgl\src\lv_objx/lv_list.h ****  */
 230:..\..\..\lvgl\version_6.1.2\lvgl\src\lv_objx/lv_list.h **** lv_obj_t * lv_list_get_btn_img(const lv_obj_t * btn);
 231:..\..\..\lvgl\version_6.1.2\lvgl\src\lv_objx/lv_list.h **** 
 232:..\..\..\lvgl\version_6.1.2\lvgl\src\lv_objx/lv_list.h **** /**
 233:..\..\..\lvgl\version_6.1.2\lvgl\src\lv_objx/lv_list.h ****  * Get the next button from list. (Starts from the bottom button)
 234:..\..\..\lvgl\version_6.1.2\lvgl\src\lv_objx/lv_list.h ****  * @param list pointer to a list object
 235:..\..\..\lvgl\version_6.1.2\lvgl\src\lv_objx/lv_list.h ****  * @param prev_btn pointer to button. Search the next after it.
 236:..\..\..\lvgl\version_6.1.2\lvgl\src\lv_objx/lv_list.h ****  * @return pointer to the next button or NULL when no more buttons
 237:..\..\..\lvgl\version_6.1.2\lvgl\src\lv_objx/lv_list.h ****  */
 238:..\..\..\lvgl\version_6.1.2\lvgl\src\lv_objx/lv_list.h **** lv_obj_t * lv_list_get_prev_btn(const lv_obj_t * list, lv_obj_t * prev_btn);
 239:..\..\..\lvgl\version_6.1.2\lvgl\src\lv_objx/lv_list.h **** 
 240:..\..\..\lvgl\version_6.1.2\lvgl\src\lv_objx/lv_list.h **** /**
 241:..\..\..\lvgl\version_6.1.2\lvgl\src\lv_objx/lv_list.h ****  * Get the previous button from list. (Starts from the top button)
 242:..\..\..\lvgl\version_6.1.2\lvgl\src\lv_objx/lv_list.h ****  * @param list pointer to a list object
 243:..\..\..\lvgl\version_6.1.2\lvgl\src\lv_objx/lv_list.h ****  * @param prev_btn pointer to button. Search the previous before it.
 244:..\..\..\lvgl\version_6.1.2\lvgl\src\lv_objx/lv_list.h ****  * @return pointer to the previous button or NULL when no more buttons
 245:..\..\..\lvgl\version_6.1.2\lvgl\src\lv_objx/lv_list.h ****  */
 246:..\..\..\lvgl\version_6.1.2\lvgl\src\lv_objx/lv_list.h **** lv_obj_t * lv_list_get_next_btn(const lv_obj_t * list, lv_obj_t * prev_btn);
 247:..\..\..\lvgl\version_6.1.2\lvgl\src\lv_objx/lv_list.h **** 
 248:..\..\..\lvgl\version_6.1.2\lvgl\src\lv_objx/lv_list.h **** /**
 249:..\..\..\lvgl\version_6.1.2\lvgl\src\lv_objx/lv_list.h ****  * Get the index of the button in the list
 250:..\..\..\lvgl\version_6.1.2\lvgl\src\lv_objx/lv_list.h ****  * @param list pointer to a list object. If NULL, assumes btn is part of a list.
 251:..\..\..\lvgl\version_6.1.2\lvgl\src\lv_objx/lv_list.h ****  * @param btn pointer to a list element (button)
 252:..\..\..\lvgl\version_6.1.2\lvgl\src\lv_objx/lv_list.h ****  * @return the index of the button in the list, or -1 of the button not in this list
 253:..\..\..\lvgl\version_6.1.2\lvgl\src\lv_objx/lv_list.h ****  */
 254:..\..\..\lvgl\version_6.1.2\lvgl\src\lv_objx/lv_list.h **** int32_t lv_list_get_btn_index(const lv_obj_t * list, const lv_obj_t * btn);
 255:..\..\..\lvgl\version_6.1.2\lvgl\src\lv_objx/lv_list.h **** 
 256:..\..\..\lvgl\version_6.1.2\lvgl\src\lv_objx/lv_list.h **** /**
 257:..\..\..\lvgl\version_6.1.2\lvgl\src\lv_objx/lv_list.h ****  * Get the number of buttons in the list
 258:..\..\..\lvgl\version_6.1.2\lvgl\src\lv_objx/lv_list.h ****  * @param list pointer to a list object
 259:..\..\..\lvgl\version_6.1.2\lvgl\src\lv_objx/lv_list.h ****  * @return the number of buttons in the list
 260:..\..\..\lvgl\version_6.1.2\lvgl\src\lv_objx/lv_list.h ****  */
 261:..\..\..\lvgl\version_6.1.2\lvgl\src\lv_objx/lv_list.h **** uint16_t lv_list_get_size(const lv_obj_t * list);
 262:..\..\..\lvgl\version_6.1.2\lvgl\src\lv_objx/lv_list.h **** 
 263:..\..\..\lvgl\version_6.1.2\lvgl\src\lv_objx/lv_list.h **** #if LV_USE_GROUP
 264:..\..\..\lvgl\version_6.1.2\lvgl\src\lv_objx/lv_list.h **** /**
 265:..\..\..\lvgl\version_6.1.2\lvgl\src\lv_objx/lv_list.h ****  * Get the currently selected button. Can be used while navigating in the list with a keypad.
 266:..\..\..\lvgl\version_6.1.2\lvgl\src\lv_objx/lv_list.h ****  * @param list pointer to a list object
 267:..\..\..\lvgl\version_6.1.2\lvgl\src\lv_objx/lv_list.h ****  * @return pointer to the selected button
 268:..\..\..\lvgl\version_6.1.2\lvgl\src\lv_objx/lv_list.h ****  */
 269:..\..\..\lvgl\version_6.1.2\lvgl\src\lv_objx/lv_list.h **** lv_obj_t * lv_list_get_btn_selected(const lv_obj_t * list);
 270:..\..\..\lvgl\version_6.1.2\lvgl\src\lv_objx/lv_list.h **** #endif
 271:..\..\..\lvgl\version_6.1.2\lvgl\src\lv_objx/lv_list.h **** 
 272:..\..\..\lvgl\version_6.1.2\lvgl\src\lv_objx/lv_list.h **** /**
 273:..\..\..\lvgl\version_6.1.2\lvgl\src\lv_objx/lv_list.h ****  * Get layout of a list
 274:..\..\..\lvgl\version_6.1.2\lvgl\src\lv_objx/lv_list.h ****  * @param list pointer to a list object
 275:..\..\..\lvgl\version_6.1.2\lvgl\src\lv_objx/lv_list.h ****  * @return layout of the list object
 276:..\..\..\lvgl\version_6.1.2\lvgl\src\lv_objx/lv_list.h ****  */
 277:..\..\..\lvgl\version_6.1.2\lvgl\src\lv_objx/lv_list.h **** lv_layout_t lv_list_get_layout(lv_obj_t * list);
 278:..\..\..\lvgl\version_6.1.2\lvgl\src\lv_objx/lv_list.h **** 
 279:..\..\..\lvgl\version_6.1.2\lvgl\src\lv_objx/lv_list.h **** /**
 280:..\..\..\lvgl\version_6.1.2\lvgl\src\lv_objx/lv_list.h ****  * Get the scroll bar mode of a list
 281:..\..\..\lvgl\version_6.1.2\lvgl\src\lv_objx/lv_list.h ****  * @param list pointer to a list object
 282:..\..\..\lvgl\version_6.1.2\lvgl\src\lv_objx/lv_list.h ****  * @return scrollbar mode from 'lv_page_sb_mode_t' enum
 283:..\..\..\lvgl\version_6.1.2\lvgl\src\lv_objx/lv_list.h ****  */
 284:..\..\..\lvgl\version_6.1.2\lvgl\src\lv_objx/lv_list.h **** static inline lv_sb_mode_t lv_list_get_sb_mode(const lv_obj_t * list)
ARM GAS  C:\Users\tmj32\AppData\Local\Temp\ccUUfkkI.s 			page 24


 285:..\..\..\lvgl\version_6.1.2\lvgl\src\lv_objx/lv_list.h **** {
 286:..\..\..\lvgl\version_6.1.2\lvgl\src\lv_objx/lv_list.h ****     return lv_page_get_sb_mode(list);
 287:..\..\..\lvgl\version_6.1.2\lvgl\src\lv_objx/lv_list.h **** }
 288:..\..\..\lvgl\version_6.1.2\lvgl\src\lv_objx/lv_list.h **** 
 289:..\..\..\lvgl\version_6.1.2\lvgl\src\lv_objx/lv_list.h **** /**
 290:..\..\..\lvgl\version_6.1.2\lvgl\src\lv_objx/lv_list.h ****  * Get the scroll propagation property
 291:..\..\..\lvgl\version_6.1.2\lvgl\src\lv_objx/lv_list.h ****  * @param list pointer to a List
 292:..\..\..\lvgl\version_6.1.2\lvgl\src\lv_objx/lv_list.h ****  * @return true or false
 293:..\..\..\lvgl\version_6.1.2\lvgl\src\lv_objx/lv_list.h ****  */
 294:..\..\..\lvgl\version_6.1.2\lvgl\src\lv_objx/lv_list.h **** static inline bool lv_list_get_scroll_propagation(lv_obj_t * list)
 295:..\..\..\lvgl\version_6.1.2\lvgl\src\lv_objx/lv_list.h **** {
 296:..\..\..\lvgl\version_6.1.2\lvgl\src\lv_objx/lv_list.h ****     return lv_page_get_scroll_propagation(list);
 297:..\..\..\lvgl\version_6.1.2\lvgl\src\lv_objx/lv_list.h **** }
 298:..\..\..\lvgl\version_6.1.2\lvgl\src\lv_objx/lv_list.h **** 
 299:..\..\..\lvgl\version_6.1.2\lvgl\src\lv_objx/lv_list.h **** /**
 300:..\..\..\lvgl\version_6.1.2\lvgl\src\lv_objx/lv_list.h ****  * Get the scroll propagation property
 301:..\..\..\lvgl\version_6.1.2\lvgl\src\lv_objx/lv_list.h ****  * @param list pointer to a List
 302:..\..\..\lvgl\version_6.1.2\lvgl\src\lv_objx/lv_list.h ****  * @return true or false
 303:..\..\..\lvgl\version_6.1.2\lvgl\src\lv_objx/lv_list.h ****  */
 304:..\..\..\lvgl\version_6.1.2\lvgl\src\lv_objx/lv_list.h **** static inline bool lv_list_get_edge_flash(lv_obj_t * list)
 305:..\..\..\lvgl\version_6.1.2\lvgl\src\lv_objx/lv_list.h **** {
 306:..\..\..\lvgl\version_6.1.2\lvgl\src\lv_objx/lv_list.h ****     return lv_page_get_edge_flash(list);
 307:..\..\..\lvgl\version_6.1.2\lvgl\src\lv_objx/lv_list.h **** }
 308:..\..\..\lvgl\version_6.1.2\lvgl\src\lv_objx/lv_list.h **** 
 309:..\..\..\lvgl\version_6.1.2\lvgl\src\lv_objx/lv_list.h **** /**
 310:..\..\..\lvgl\version_6.1.2\lvgl\src\lv_objx/lv_list.h ****  * Get scroll animation duration
 311:..\..\..\lvgl\version_6.1.2\lvgl\src\lv_objx/lv_list.h ****  * @param list pointer to a list object
 312:..\..\..\lvgl\version_6.1.2\lvgl\src\lv_objx/lv_list.h ****  * @return duration of animation [ms]
 313:..\..\..\lvgl\version_6.1.2\lvgl\src\lv_objx/lv_list.h ****  */
 314:..\..\..\lvgl\version_6.1.2\lvgl\src\lv_objx/lv_list.h **** static inline uint16_t lv_list_get_anim_time(const lv_obj_t * list)
 315:..\..\..\lvgl\version_6.1.2\lvgl\src\lv_objx/lv_list.h **** {
 393              		.loc 4 315 0
 394              		.cfi_startproc
 395              		@ args = 0, pretend = 0, frame = 8
 396              		@ frame_needed = 1, uses_anonymous_args = 0
 397 0000 80B5     		push	{r7, lr}
 398              		.cfi_def_cfa_offset 8
 399              		.cfi_offset 7, -8
 400              		.cfi_offset 14, -4
 401 0002 82B0     		sub	sp, sp, #8
 402              		.cfi_def_cfa_offset 16
 403 0004 00AF     		add	r7, sp, #0
 404              		.cfi_def_cfa_register 7
 405 0006 7860     		str	r0, [r7, #4]
 316:..\..\..\lvgl\version_6.1.2\lvgl\src\lv_objx/lv_list.h ****     return lv_page_get_anim_time(list);
 406              		.loc 4 316 0
 407 0008 7868     		ldr	r0, [r7, #4]
 408 000a FFF7FEFF 		bl	lv_page_get_anim_time
 409 000e 0346     		mov	r3, r0
 317:..\..\..\lvgl\version_6.1.2\lvgl\src\lv_objx/lv_list.h **** }
 410              		.loc 4 317 0
 411 0010 1846     		mov	r0, r3
 412 0012 0837     		adds	r7, r7, #8
 413              		.cfi_def_cfa_offset 8
 414 0014 BD46     		mov	sp, r7
 415              		.cfi_def_cfa_register 13
 416              		@ sp needed
ARM GAS  C:\Users\tmj32\AppData\Local\Temp\ccUUfkkI.s 			page 25


 417 0016 80BD     		pop	{r7, pc}
 418              		.cfi_endproc
 419              	.LFE68:
 420              		.size	lv_list_get_anim_time, .-lv_list_get_anim_time
 421              		.bss
 422              		.align	2
 423              	img_signal:
 424 0000 00000000 		.space	4
 425              		.align	2
 426              	label_signal:
 427 0004 00000000 		.space	4
 428              		.align	2
 429              	ancestor_page_signal:
 430 0008 00000000 		.space	4
 431              		.align	2
 432              	ancestor_btn_signal:
 433 000c 00000000 		.space	4
 434              		.section	.text.lv_list_create,"ax",%progbits
 435              		.align	2
 436              		.global	lv_list_create
 437              		.thumb
 438              		.thumb_func
 439              		.type	lv_list_create, %function
 440              	lv_list_create:
 441              	.LFB69:
 442              		.file 5 "..\\..\\..\\lvgl\\version_6.1.2\\lvgl\\src\\lv_objx\\lv_list.c"
   1:..\..\..\lvgl\version_6.1.2\lvgl\src\lv_objx/lv_list.c **** /**
   2:..\..\..\lvgl\version_6.1.2\lvgl\src\lv_objx/lv_list.c ****  * @file lv_list.c
   3:..\..\..\lvgl\version_6.1.2\lvgl\src\lv_objx/lv_list.c ****  *
   4:..\..\..\lvgl\version_6.1.2\lvgl\src\lv_objx/lv_list.c ****  */
   5:..\..\..\lvgl\version_6.1.2\lvgl\src\lv_objx/lv_list.c **** 
   6:..\..\..\lvgl\version_6.1.2\lvgl\src\lv_objx/lv_list.c **** /*********************
   7:..\..\..\lvgl\version_6.1.2\lvgl\src\lv_objx/lv_list.c ****  *      INCLUDES
   8:..\..\..\lvgl\version_6.1.2\lvgl\src\lv_objx/lv_list.c ****  *********************/
   9:..\..\..\lvgl\version_6.1.2\lvgl\src\lv_objx/lv_list.c **** #include "lv_list.h"
  10:..\..\..\lvgl\version_6.1.2\lvgl\src\lv_objx/lv_list.c **** #if LV_USE_LIST != 0
  11:..\..\..\lvgl\version_6.1.2\lvgl\src\lv_objx/lv_list.c **** 
  12:..\..\..\lvgl\version_6.1.2\lvgl\src\lv_objx/lv_list.c **** #include "../lv_core/lv_debug.h"
  13:..\..\..\lvgl\version_6.1.2\lvgl\src\lv_objx/lv_list.c **** #include "../lv_core/lv_group.h"
  14:..\..\..\lvgl\version_6.1.2\lvgl\src\lv_objx/lv_list.c **** #include "../lv_themes/lv_theme.h"
  15:..\..\..\lvgl\version_6.1.2\lvgl\src\lv_objx/lv_list.c **** #include "../lv_misc/lv_anim.h"
  16:..\..\..\lvgl\version_6.1.2\lvgl\src\lv_objx/lv_list.c **** #include "../lv_misc/lv_math.h"
  17:..\..\..\lvgl\version_6.1.2\lvgl\src\lv_objx/lv_list.c **** 
  18:..\..\..\lvgl\version_6.1.2\lvgl\src\lv_objx/lv_list.c **** /*********************
  19:..\..\..\lvgl\version_6.1.2\lvgl\src\lv_objx/lv_list.c ****  *      DEFINES
  20:..\..\..\lvgl\version_6.1.2\lvgl\src\lv_objx/lv_list.c ****  *********************/
  21:..\..\..\lvgl\version_6.1.2\lvgl\src\lv_objx/lv_list.c **** #define LV_OBJX_NAME "lv_list"
  22:..\..\..\lvgl\version_6.1.2\lvgl\src\lv_objx/lv_list.c **** 
  23:..\..\..\lvgl\version_6.1.2\lvgl\src\lv_objx/lv_list.c **** #define LV_LIST_LAYOUT_DEF LV_LAYOUT_COL_M
  24:..\..\..\lvgl\version_6.1.2\lvgl\src\lv_objx/lv_list.c **** 
  25:..\..\..\lvgl\version_6.1.2\lvgl\src\lv_objx/lv_list.c **** #if LV_USE_ANIMATION == 0
  26:..\..\..\lvgl\version_6.1.2\lvgl\src\lv_objx/lv_list.c **** #undef LV_LIST_DEF_ANIM_TIME
  27:..\..\..\lvgl\version_6.1.2\lvgl\src\lv_objx/lv_list.c **** #define LV_LIST_DEF_ANIM_TIME 0
  28:..\..\..\lvgl\version_6.1.2\lvgl\src\lv_objx/lv_list.c **** #endif
  29:..\..\..\lvgl\version_6.1.2\lvgl\src\lv_objx/lv_list.c **** 
  30:..\..\..\lvgl\version_6.1.2\lvgl\src\lv_objx/lv_list.c **** /**********************
  31:..\..\..\lvgl\version_6.1.2\lvgl\src\lv_objx/lv_list.c ****  *      TYPEDEFS
ARM GAS  C:\Users\tmj32\AppData\Local\Temp\ccUUfkkI.s 			page 26


  32:..\..\..\lvgl\version_6.1.2\lvgl\src\lv_objx/lv_list.c ****  **********************/
  33:..\..\..\lvgl\version_6.1.2\lvgl\src\lv_objx/lv_list.c **** 
  34:..\..\..\lvgl\version_6.1.2\lvgl\src\lv_objx/lv_list.c **** /**********************
  35:..\..\..\lvgl\version_6.1.2\lvgl\src\lv_objx/lv_list.c ****  *  STATIC PROTOTYPES
  36:..\..\..\lvgl\version_6.1.2\lvgl\src\lv_objx/lv_list.c ****  **********************/
  37:..\..\..\lvgl\version_6.1.2\lvgl\src\lv_objx/lv_list.c **** static lv_res_t lv_list_signal(lv_obj_t * list, lv_signal_t sign, void * param);
  38:..\..\..\lvgl\version_6.1.2\lvgl\src\lv_objx/lv_list.c **** static lv_res_t lv_list_btn_signal(lv_obj_t * btn, lv_signal_t sign, void * param);
  39:..\..\..\lvgl\version_6.1.2\lvgl\src\lv_objx/lv_list.c **** static void lv_list_btn_single_select(lv_obj_t * btn);
  40:..\..\..\lvgl\version_6.1.2\lvgl\src\lv_objx/lv_list.c **** static bool lv_list_is_list_btn(lv_obj_t * list_btn);
  41:..\..\..\lvgl\version_6.1.2\lvgl\src\lv_objx/lv_list.c **** static bool lv_list_is_list_img(lv_obj_t * list_btn);
  42:..\..\..\lvgl\version_6.1.2\lvgl\src\lv_objx/lv_list.c **** static bool lv_list_is_list_label(lv_obj_t * list_btn);
  43:..\..\..\lvgl\version_6.1.2\lvgl\src\lv_objx/lv_list.c **** 
  44:..\..\..\lvgl\version_6.1.2\lvgl\src\lv_objx/lv_list.c **** /**********************
  45:..\..\..\lvgl\version_6.1.2\lvgl\src\lv_objx/lv_list.c ****  *  STATIC VARIABLES
  46:..\..\..\lvgl\version_6.1.2\lvgl\src\lv_objx/lv_list.c ****  **********************/
  47:..\..\..\lvgl\version_6.1.2\lvgl\src\lv_objx/lv_list.c **** #if LV_USE_IMG
  48:..\..\..\lvgl\version_6.1.2\lvgl\src\lv_objx/lv_list.c **** static lv_signal_cb_t img_signal;
  49:..\..\..\lvgl\version_6.1.2\lvgl\src\lv_objx/lv_list.c **** #endif
  50:..\..\..\lvgl\version_6.1.2\lvgl\src\lv_objx/lv_list.c **** static lv_signal_cb_t label_signal;
  51:..\..\..\lvgl\version_6.1.2\lvgl\src\lv_objx/lv_list.c **** static lv_signal_cb_t ancestor_page_signal;
  52:..\..\..\lvgl\version_6.1.2\lvgl\src\lv_objx/lv_list.c **** static lv_signal_cb_t ancestor_btn_signal;
  53:..\..\..\lvgl\version_6.1.2\lvgl\src\lv_objx/lv_list.c **** 
  54:..\..\..\lvgl\version_6.1.2\lvgl\src\lv_objx/lv_list.c **** 
  55:..\..\..\lvgl\version_6.1.2\lvgl\src\lv_objx/lv_list.c **** /**********************
  56:..\..\..\lvgl\version_6.1.2\lvgl\src\lv_objx/lv_list.c ****  *      MACROS
  57:..\..\..\lvgl\version_6.1.2\lvgl\src\lv_objx/lv_list.c ****  **********************/
  58:..\..\..\lvgl\version_6.1.2\lvgl\src\lv_objx/lv_list.c **** 
  59:..\..\..\lvgl\version_6.1.2\lvgl\src\lv_objx/lv_list.c **** /**********************
  60:..\..\..\lvgl\version_6.1.2\lvgl\src\lv_objx/lv_list.c ****  *   GLOBAL FUNCTIONS
  61:..\..\..\lvgl\version_6.1.2\lvgl\src\lv_objx/lv_list.c ****  **********************/
  62:..\..\..\lvgl\version_6.1.2\lvgl\src\lv_objx/lv_list.c **** 
  63:..\..\..\lvgl\version_6.1.2\lvgl\src\lv_objx/lv_list.c **** /**
  64:..\..\..\lvgl\version_6.1.2\lvgl\src\lv_objx/lv_list.c ****  * Create a list objects
  65:..\..\..\lvgl\version_6.1.2\lvgl\src\lv_objx/lv_list.c ****  * @param par pointer to an object, it will be the parent of the new list
  66:..\..\..\lvgl\version_6.1.2\lvgl\src\lv_objx/lv_list.c ****  * @param copy pointer to a list object, if not NULL then the new object will be copied from it
  67:..\..\..\lvgl\version_6.1.2\lvgl\src\lv_objx/lv_list.c ****  * @return pointer to the created list
  68:..\..\..\lvgl\version_6.1.2\lvgl\src\lv_objx/lv_list.c ****  */
  69:..\..\..\lvgl\version_6.1.2\lvgl\src\lv_objx/lv_list.c **** lv_obj_t * lv_list_create(lv_obj_t * par, const lv_obj_t * copy)
  70:..\..\..\lvgl\version_6.1.2\lvgl\src\lv_objx/lv_list.c **** {
 443              		.loc 5 70 0
 444              		.cfi_startproc
 445              		@ args = 0, pretend = 0, frame = 40
 446              		@ frame_needed = 1, uses_anonymous_args = 0
 447 0000 80B5     		push	{r7, lr}
 448              		.cfi_def_cfa_offset 8
 449              		.cfi_offset 7, -8
 450              		.cfi_offset 14, -4
 451 0002 8AB0     		sub	sp, sp, #40
 452              		.cfi_def_cfa_offset 48
 453 0004 00AF     		add	r7, sp, #0
 454              		.cfi_def_cfa_register 7
 455 0006 7860     		str	r0, [r7, #4]
 456 0008 3960     		str	r1, [r7]
  71:..\..\..\lvgl\version_6.1.2\lvgl\src\lv_objx/lv_list.c ****     LV_LOG_TRACE("list create started");
  72:..\..\..\lvgl\version_6.1.2\lvgl\src\lv_objx/lv_list.c **** 
  73:..\..\..\lvgl\version_6.1.2\lvgl\src\lv_objx/lv_list.c ****     /*Create the ancestor basic object*/
  74:..\..\..\lvgl\version_6.1.2\lvgl\src\lv_objx/lv_list.c ****     lv_obj_t * new_list = lv_page_create(par, copy);
ARM GAS  C:\Users\tmj32\AppData\Local\Temp\ccUUfkkI.s 			page 27


 457              		.loc 5 74 0
 458 000a 3968     		ldr	r1, [r7]
 459 000c 7868     		ldr	r0, [r7, #4]
 460 000e FFF7FEFF 		bl	lv_page_create
 461 0012 F861     		str	r0, [r7, #28]
  75:..\..\..\lvgl\version_6.1.2\lvgl\src\lv_objx/lv_list.c ****     LV_ASSERT_MEM(new_list);
  76:..\..\..\lvgl\version_6.1.2\lvgl\src\lv_objx/lv_list.c ****     if(new_list == NULL) return NULL;
 462              		.loc 5 76 0
 463 0014 FB69     		ldr	r3, [r7, #28]
 464 0016 002B     		cmp	r3, #0
 465 0018 01D1     		bne	.L14
 466              		.loc 5 76 0 is_stmt 0 discriminator 1
 467 001a 0023     		movs	r3, #0
 468 001c F0E0     		b	.L15
 469              	.L14:
  77:..\..\..\lvgl\version_6.1.2\lvgl\src\lv_objx/lv_list.c **** 
  78:..\..\..\lvgl\version_6.1.2\lvgl\src\lv_objx/lv_list.c ****     if(ancestor_page_signal == NULL) ancestor_page_signal = lv_obj_get_signal_cb(new_list);
 470              		.loc 5 78 0 is_stmt 1
 471 001e 7A4B     		ldr	r3, .L25
 472 0020 1B68     		ldr	r3, [r3]
 473 0022 002B     		cmp	r3, #0
 474 0024 05D1     		bne	.L16
 475              		.loc 5 78 0 is_stmt 0 discriminator 1
 476 0026 F869     		ldr	r0, [r7, #28]
 477 0028 FFF7FEFF 		bl	lv_obj_get_signal_cb
 478 002c 0246     		mov	r2, r0
 479 002e 764B     		ldr	r3, .L25
 480 0030 1A60     		str	r2, [r3]
 481              	.L16:
  79:..\..\..\lvgl\version_6.1.2\lvgl\src\lv_objx/lv_list.c **** 
  80:..\..\..\lvgl\version_6.1.2\lvgl\src\lv_objx/lv_list.c ****     lv_list_ext_t * ext = lv_obj_allocate_ext_attr(new_list, sizeof(lv_list_ext_t));
 482              		.loc 5 80 0 is_stmt 1
 483 0032 4C21     		movs	r1, #76
 484 0034 F869     		ldr	r0, [r7, #28]
 485 0036 FFF7FEFF 		bl	lv_obj_allocate_ext_attr
 486 003a B861     		str	r0, [r7, #24]
  81:..\..\..\lvgl\version_6.1.2\lvgl\src\lv_objx/lv_list.c ****     LV_ASSERT_MEM(ext);
  82:..\..\..\lvgl\version_6.1.2\lvgl\src\lv_objx/lv_list.c ****     if(ext == NULL) return NULL;
 487              		.loc 5 82 0
 488 003c BB69     		ldr	r3, [r7, #24]
 489 003e 002B     		cmp	r3, #0
 490 0040 01D1     		bne	.L17
 491              		.loc 5 82 0 is_stmt 0 discriminator 1
 492 0042 0023     		movs	r3, #0
 493 0044 DCE0     		b	.L15
 494              	.L17:
  83:..\..\..\lvgl\version_6.1.2\lvgl\src\lv_objx/lv_list.c **** 
  84:..\..\..\lvgl\version_6.1.2\lvgl\src\lv_objx/lv_list.c ****     ext->style_img                        = NULL;
 495              		.loc 5 84 0 is_stmt 1
 496 0046 BB69     		ldr	r3, [r7, #24]
 497 0048 0022     		movs	r2, #0
 498 004a 5A64     		str	r2, [r3, #68]
  85:..\..\..\lvgl\version_6.1.2\lvgl\src\lv_objx/lv_list.c ****     ext->styles_btn[LV_BTN_STATE_REL]     = &lv_style_btn_rel;
 499              		.loc 5 85 0
 500 004c BB69     		ldr	r3, [r7, #24]
 501 004e 6F4A     		ldr	r2, .L25+4
 502 0050 1A63     		str	r2, [r3, #48]
ARM GAS  C:\Users\tmj32\AppData\Local\Temp\ccUUfkkI.s 			page 28


  86:..\..\..\lvgl\version_6.1.2\lvgl\src\lv_objx/lv_list.c ****     ext->styles_btn[LV_BTN_STATE_PR]      = &lv_style_btn_pr;
 503              		.loc 5 86 0
 504 0052 BB69     		ldr	r3, [r7, #24]
 505 0054 6E4A     		ldr	r2, .L25+8
 506 0056 5A63     		str	r2, [r3, #52]
  87:..\..\..\lvgl\version_6.1.2\lvgl\src\lv_objx/lv_list.c ****     ext->styles_btn[LV_BTN_STATE_TGL_REL] = &lv_style_btn_tgl_rel;
 507              		.loc 5 87 0
 508 0058 BB69     		ldr	r3, [r7, #24]
 509 005a 6E4A     		ldr	r2, .L25+12
 510 005c 9A63     		str	r2, [r3, #56]
  88:..\..\..\lvgl\version_6.1.2\lvgl\src\lv_objx/lv_list.c ****     ext->styles_btn[LV_BTN_STATE_TGL_PR]  = &lv_style_btn_tgl_pr;
 511              		.loc 5 88 0
 512 005e BB69     		ldr	r3, [r7, #24]
 513 0060 6D4A     		ldr	r2, .L25+16
 514 0062 DA63     		str	r2, [r3, #60]
  89:..\..\..\lvgl\version_6.1.2\lvgl\src\lv_objx/lv_list.c ****     ext->styles_btn[LV_BTN_STATE_INA]     = &lv_style_btn_ina;
 515              		.loc 5 89 0
 516 0064 BB69     		ldr	r3, [r7, #24]
 517 0066 6D4A     		ldr	r2, .L25+20
 518 0068 1A64     		str	r2, [r3, #64]
  90:..\..\..\lvgl\version_6.1.2\lvgl\src\lv_objx/lv_list.c ****     ext->single_mode                      = false;
 519              		.loc 5 90 0
 520 006a BA69     		ldr	r2, [r7, #24]
 521 006c 92F84A30 		ldrb	r3, [r2, #74]
 522 0070 6FF30003 		bfc	r3, #0, #1
 523 0074 82F84A30 		strb	r3, [r2, #74]
  91:..\..\..\lvgl\version_6.1.2\lvgl\src\lv_objx/lv_list.c ****     ext->size                             = 0;
 524              		.loc 5 91 0
 525 0078 BB69     		ldr	r3, [r7, #24]
 526 007a 0022     		movs	r2, #0
 527 007c A3F84820 		strh	r2, [r3, #72]	@ movhi
  92:..\..\..\lvgl\version_6.1.2\lvgl\src\lv_objx/lv_list.c **** 
  93:..\..\..\lvgl\version_6.1.2\lvgl\src\lv_objx/lv_list.c **** #if LV_USE_GROUP
  94:..\..\..\lvgl\version_6.1.2\lvgl\src\lv_objx/lv_list.c ****     ext->last_sel     = NULL;
  95:..\..\..\lvgl\version_6.1.2\lvgl\src\lv_objx/lv_list.c ****     ext->selected_btn = NULL;
  96:..\..\..\lvgl\version_6.1.2\lvgl\src\lv_objx/lv_list.c ****     ext->last_clicked_btn = NULL;
  97:..\..\..\lvgl\version_6.1.2\lvgl\src\lv_objx/lv_list.c **** #endif
  98:..\..\..\lvgl\version_6.1.2\lvgl\src\lv_objx/lv_list.c **** 
  99:..\..\..\lvgl\version_6.1.2\lvgl\src\lv_objx/lv_list.c ****     lv_obj_set_signal_cb(new_list, lv_list_signal);
 528              		.loc 5 99 0
 529 0080 6749     		ldr	r1, .L25+24
 530 0082 F869     		ldr	r0, [r7, #28]
 531 0084 FFF7FEFF 		bl	lv_obj_set_signal_cb
 100:..\..\..\lvgl\version_6.1.2\lvgl\src\lv_objx/lv_list.c **** 
 101:..\..\..\lvgl\version_6.1.2\lvgl\src\lv_objx/lv_list.c ****     /*Init the new list object*/
 102:..\..\..\lvgl\version_6.1.2\lvgl\src\lv_objx/lv_list.c ****     if(copy == NULL) {
 532              		.loc 5 102 0
 533 0088 3B68     		ldr	r3, [r7]
 534 008a 002B     		cmp	r3, #0
 535 008c 69D1     		bne	.L18
 536              	.LBB2:
 103:..\..\..\lvgl\version_6.1.2\lvgl\src\lv_objx/lv_list.c ****         lv_page_set_anim_time(new_list, LV_LIST_DEF_ANIM_TIME);
 537              		.loc 5 103 0
 538 008e 6421     		movs	r1, #100
 539 0090 F869     		ldr	r0, [r7, #28]
 540 0092 FFF7FEFF 		bl	lv_page_set_anim_time
 104:..\..\..\lvgl\version_6.1.2\lvgl\src\lv_objx/lv_list.c ****         lv_page_set_scrl_fit2(new_list, LV_FIT_FLOOD, LV_FIT_TIGHT);
ARM GAS  C:\Users\tmj32\AppData\Local\Temp\ccUUfkkI.s 			page 29


 541              		.loc 5 104 0
 542 0096 0122     		movs	r2, #1
 543 0098 0221     		movs	r1, #2
 544 009a F869     		ldr	r0, [r7, #28]
 545 009c FFF7FEFF 		bl	lv_page_set_scrl_fit2
 105:..\..\..\lvgl\version_6.1.2\lvgl\src\lv_objx/lv_list.c ****         lv_obj_set_size(new_list, 2 * LV_DPI, 3 * LV_DPI);
 546              		.loc 5 105 0
 547 00a0 4FF4E172 		mov	r2, #450
 548 00a4 4FF49671 		mov	r1, #300
 549 00a8 F869     		ldr	r0, [r7, #28]
 550 00aa FFF7FEFF 		bl	lv_obj_set_size
 106:..\..\..\lvgl\version_6.1.2\lvgl\src\lv_objx/lv_list.c ****         lv_page_set_scrl_layout(new_list, LV_LIST_LAYOUT_DEF);
 551              		.loc 5 106 0
 552 00ae 0321     		movs	r1, #3
 553 00b0 F869     		ldr	r0, [r7, #28]
 554 00b2 FFF7FEFF 		bl	lv_page_set_scrl_layout
 107:..\..\..\lvgl\version_6.1.2\lvgl\src\lv_objx/lv_list.c ****         lv_list_set_sb_mode(new_list, LV_SB_MODE_DRAG);
 555              		.loc 5 107 0
 556 00b6 0221     		movs	r1, #2
 557 00b8 F869     		ldr	r0, [r7, #28]
 558 00ba FFF7FEFF 		bl	lv_list_set_sb_mode
 108:..\..\..\lvgl\version_6.1.2\lvgl\src\lv_objx/lv_list.c **** 
 109:..\..\..\lvgl\version_6.1.2\lvgl\src\lv_objx/lv_list.c ****         /*Set the default styles*/
 110:..\..\..\lvgl\version_6.1.2\lvgl\src\lv_objx/lv_list.c ****         lv_theme_t * th = lv_theme_get_current();
 559              		.loc 5 110 0
 560 00be FFF7FEFF 		bl	lv_theme_get_current
 561 00c2 7861     		str	r0, [r7, #20]
 111:..\..\..\lvgl\version_6.1.2\lvgl\src\lv_objx/lv_list.c ****         if(th) {
 562              		.loc 5 111 0
 563 00c4 7B69     		ldr	r3, [r7, #20]
 564 00c6 002B     		cmp	r3, #0
 565 00c8 40D0     		beq	.L19
 112:..\..\..\lvgl\version_6.1.2\lvgl\src\lv_objx/lv_list.c ****             lv_list_set_style(new_list, LV_LIST_STYLE_BG, th->style.list.bg);
 566              		.loc 5 112 0
 567 00ca 7B69     		ldr	r3, [r7, #20]
 568 00cc D3F82C31 		ldr	r3, [r3, #300]
 569 00d0 1A46     		mov	r2, r3
 570 00d2 0021     		movs	r1, #0
 571 00d4 F869     		ldr	r0, [r7, #28]
 572 00d6 FFF7FEFF 		bl	lv_list_set_style
 113:..\..\..\lvgl\version_6.1.2\lvgl\src\lv_objx/lv_list.c ****             lv_list_set_style(new_list, LV_LIST_STYLE_SCRL, th->style.list.scrl);
 573              		.loc 5 113 0
 574 00da 7B69     		ldr	r3, [r7, #20]
 575 00dc D3F83031 		ldr	r3, [r3, #304]
 576 00e0 1A46     		mov	r2, r3
 577 00e2 0121     		movs	r1, #1
 578 00e4 F869     		ldr	r0, [r7, #28]
 579 00e6 FFF7FEFF 		bl	lv_list_set_style
 114:..\..\..\lvgl\version_6.1.2\lvgl\src\lv_objx/lv_list.c ****             lv_list_set_style(new_list, LV_LIST_STYLE_SB, th->style.list.sb);
 580              		.loc 5 114 0
 581 00ea 7B69     		ldr	r3, [r7, #20]
 582 00ec D3F83431 		ldr	r3, [r3, #308]
 583 00f0 1A46     		mov	r2, r3
 584 00f2 0221     		movs	r1, #2
 585 00f4 F869     		ldr	r0, [r7, #28]
 586 00f6 FFF7FEFF 		bl	lv_list_set_style
 115:..\..\..\lvgl\version_6.1.2\lvgl\src\lv_objx/lv_list.c ****             lv_list_set_style(new_list, LV_LIST_STYLE_BTN_REL, th->style.list.btn.rel);
ARM GAS  C:\Users\tmj32\AppData\Local\Temp\ccUUfkkI.s 			page 30


 587              		.loc 5 115 0
 588 00fa 7B69     		ldr	r3, [r7, #20]
 589 00fc D3F83831 		ldr	r3, [r3, #312]
 590 0100 1A46     		mov	r2, r3
 591 0102 0421     		movs	r1, #4
 592 0104 F869     		ldr	r0, [r7, #28]
 593 0106 FFF7FEFF 		bl	lv_list_set_style
 116:..\..\..\lvgl\version_6.1.2\lvgl\src\lv_objx/lv_list.c ****             lv_list_set_style(new_list, LV_LIST_STYLE_BTN_PR, th->style.list.btn.pr);
 594              		.loc 5 116 0
 595 010a 7B69     		ldr	r3, [r7, #20]
 596 010c D3F83C31 		ldr	r3, [r3, #316]
 597 0110 1A46     		mov	r2, r3
 598 0112 0521     		movs	r1, #5
 599 0114 F869     		ldr	r0, [r7, #28]
 600 0116 FFF7FEFF 		bl	lv_list_set_style
 117:..\..\..\lvgl\version_6.1.2\lvgl\src\lv_objx/lv_list.c ****             lv_list_set_style(new_list, LV_LIST_STYLE_BTN_TGL_REL, th->style.list.btn.tgl_rel);
 601              		.loc 5 117 0
 602 011a 7B69     		ldr	r3, [r7, #20]
 603 011c D3F84031 		ldr	r3, [r3, #320]
 604 0120 1A46     		mov	r2, r3
 605 0122 0621     		movs	r1, #6
 606 0124 F869     		ldr	r0, [r7, #28]
 607 0126 FFF7FEFF 		bl	lv_list_set_style
 118:..\..\..\lvgl\version_6.1.2\lvgl\src\lv_objx/lv_list.c ****             lv_list_set_style(new_list, LV_LIST_STYLE_BTN_TGL_PR, th->style.list.btn.tgl_pr);
 608              		.loc 5 118 0
 609 012a 7B69     		ldr	r3, [r7, #20]
 610 012c D3F84431 		ldr	r3, [r3, #324]
 611 0130 1A46     		mov	r2, r3
 612 0132 0721     		movs	r1, #7
 613 0134 F869     		ldr	r0, [r7, #28]
 614 0136 FFF7FEFF 		bl	lv_list_set_style
 119:..\..\..\lvgl\version_6.1.2\lvgl\src\lv_objx/lv_list.c ****             lv_list_set_style(new_list, LV_LIST_STYLE_BTN_INA, th->style.list.btn.ina);
 615              		.loc 5 119 0
 616 013a 7B69     		ldr	r3, [r7, #20]
 617 013c D3F84831 		ldr	r3, [r3, #328]
 618 0140 1A46     		mov	r2, r3
 619 0142 0821     		movs	r1, #8
 620 0144 F869     		ldr	r0, [r7, #28]
 621 0146 FFF7FEFF 		bl	lv_list_set_style
 622 014a 58E0     		b	.L21
 623              	.L19:
 120:..\..\..\lvgl\version_6.1.2\lvgl\src\lv_objx/lv_list.c ****         } else {
 121:..\..\..\lvgl\version_6.1.2\lvgl\src\lv_objx/lv_list.c ****             lv_list_set_style(new_list, LV_LIST_STYLE_BG, &lv_style_transp_fit);
 624              		.loc 5 121 0
 625 014c 354A     		ldr	r2, .L25+28
 626 014e 0021     		movs	r1, #0
 627 0150 F869     		ldr	r0, [r7, #28]
 628 0152 FFF7FEFF 		bl	lv_list_set_style
 122:..\..\..\lvgl\version_6.1.2\lvgl\src\lv_objx/lv_list.c ****             lv_list_set_style(new_list, LV_LIST_STYLE_SCRL, &lv_style_pretty);
 629              		.loc 5 122 0
 630 0156 344A     		ldr	r2, .L25+32
 631 0158 0121     		movs	r1, #1
 632 015a F869     		ldr	r0, [r7, #28]
 633 015c FFF7FEFF 		bl	lv_list_set_style
 634 0160 4DE0     		b	.L21
 635              	.L18:
 636              	.LBE2:
ARM GAS  C:\Users\tmj32\AppData\Local\Temp\ccUUfkkI.s 			page 31


 637              	.LBB3:
 123:..\..\..\lvgl\version_6.1.2\lvgl\src\lv_objx/lv_list.c ****         }
 124:..\..\..\lvgl\version_6.1.2\lvgl\src\lv_objx/lv_list.c ****     } else {
 125:..\..\..\lvgl\version_6.1.2\lvgl\src\lv_objx/lv_list.c ****         lv_list_ext_t * copy_ext = lv_obj_get_ext_attr(copy);
 638              		.loc 5 125 0
 639 0162 3868     		ldr	r0, [r7]
 640 0164 FFF7FEFF 		bl	lv_obj_get_ext_attr
 641 0168 3861     		str	r0, [r7, #16]
 126:..\..\..\lvgl\version_6.1.2\lvgl\src\lv_objx/lv_list.c **** 
 127:..\..\..\lvgl\version_6.1.2\lvgl\src\lv_objx/lv_list.c ****         lv_obj_t * copy_btn = lv_list_get_next_btn(copy, NULL);
 642              		.loc 5 127 0
 643 016a 0021     		movs	r1, #0
 644 016c 3868     		ldr	r0, [r7]
 645 016e FFF7FEFF 		bl	lv_list_get_next_btn
 646 0172 7862     		str	r0, [r7, #36]
 128:..\..\..\lvgl\version_6.1.2\lvgl\src\lv_objx/lv_list.c ****         while(copy_btn) {
 647              		.loc 5 128 0
 648 0174 1AE0     		b	.L22
 649              	.L24:
 650              	.LBB4:
 129:..\..\..\lvgl\version_6.1.2\lvgl\src\lv_objx/lv_list.c ****             const void * img_src = NULL;
 651              		.loc 5 129 0
 652 0176 0023     		movs	r3, #0
 653 0178 3B62     		str	r3, [r7, #32]
 130:..\..\..\lvgl\version_6.1.2\lvgl\src\lv_objx/lv_list.c **** #if LV_USE_IMG
 131:..\..\..\lvgl\version_6.1.2\lvgl\src\lv_objx/lv_list.c ****             lv_obj_t * copy_img = lv_list_get_btn_img(copy_btn);
 654              		.loc 5 131 0
 655 017a 786A     		ldr	r0, [r7, #36]
 656 017c FFF7FEFF 		bl	lv_list_get_btn_img
 657 0180 F860     		str	r0, [r7, #12]
 132:..\..\..\lvgl\version_6.1.2\lvgl\src\lv_objx/lv_list.c ****             if(copy_img) img_src = lv_img_get_src(copy_img);
 658              		.loc 5 132 0
 659 0182 FB68     		ldr	r3, [r7, #12]
 660 0184 002B     		cmp	r3, #0
 661 0186 03D0     		beq	.L23
 662              		.loc 5 132 0 is_stmt 0 discriminator 1
 663 0188 F868     		ldr	r0, [r7, #12]
 664 018a FFF7FEFF 		bl	lv_img_get_src
 665 018e 3862     		str	r0, [r7, #32]
 666              	.L23:
 133:..\..\..\lvgl\version_6.1.2\lvgl\src\lv_objx/lv_list.c **** #endif
 134:..\..\..\lvgl\version_6.1.2\lvgl\src\lv_objx/lv_list.c ****             lv_list_add_btn(new_list, img_src, lv_list_get_btn_text(copy_btn));
 667              		.loc 5 134 0 is_stmt 1
 668 0190 786A     		ldr	r0, [r7, #36]
 669 0192 FFF7FEFF 		bl	lv_list_get_btn_text
 670 0196 0346     		mov	r3, r0
 671 0198 1A46     		mov	r2, r3
 672 019a 396A     		ldr	r1, [r7, #32]
 673 019c F869     		ldr	r0, [r7, #28]
 674 019e FFF7FEFF 		bl	lv_list_add_btn
 135:..\..\..\lvgl\version_6.1.2\lvgl\src\lv_objx/lv_list.c ****             copy_btn = lv_list_get_next_btn(copy, copy_btn);
 675              		.loc 5 135 0
 676 01a2 796A     		ldr	r1, [r7, #36]
 677 01a4 3868     		ldr	r0, [r7]
 678 01a6 FFF7FEFF 		bl	lv_list_get_next_btn
 679 01aa 7862     		str	r0, [r7, #36]
 680              	.L22:
ARM GAS  C:\Users\tmj32\AppData\Local\Temp\ccUUfkkI.s 			page 32


 681              	.LBE4:
 128:..\..\..\lvgl\version_6.1.2\lvgl\src\lv_objx/lv_list.c ****             const void * img_src = NULL;
 682              		.loc 5 128 0
 683 01ac 7B6A     		ldr	r3, [r7, #36]
 684 01ae 002B     		cmp	r3, #0
 685 01b0 E1D1     		bne	.L24
 136:..\..\..\lvgl\version_6.1.2\lvgl\src\lv_objx/lv_list.c ****         }
 137:..\..\..\lvgl\version_6.1.2\lvgl\src\lv_objx/lv_list.c **** 
 138:..\..\..\lvgl\version_6.1.2\lvgl\src\lv_objx/lv_list.c ****         lv_list_set_style(new_list, LV_LIST_STYLE_BTN_REL, copy_ext->styles_btn[LV_BTN_STATE_REL]);
 686              		.loc 5 138 0
 687 01b2 3B69     		ldr	r3, [r7, #16]
 688 01b4 1B6B     		ldr	r3, [r3, #48]
 689 01b6 1A46     		mov	r2, r3
 690 01b8 0421     		movs	r1, #4
 691 01ba F869     		ldr	r0, [r7, #28]
 692 01bc FFF7FEFF 		bl	lv_list_set_style
 139:..\..\..\lvgl\version_6.1.2\lvgl\src\lv_objx/lv_list.c ****         lv_list_set_style(new_list, LV_LIST_STYLE_BTN_PR, copy_ext->styles_btn[LV_BTN_STATE_PR]);
 693              		.loc 5 139 0
 694 01c0 3B69     		ldr	r3, [r7, #16]
 695 01c2 5B6B     		ldr	r3, [r3, #52]
 696 01c4 1A46     		mov	r2, r3
 697 01c6 0521     		movs	r1, #5
 698 01c8 F869     		ldr	r0, [r7, #28]
 699 01ca FFF7FEFF 		bl	lv_list_set_style
 140:..\..\..\lvgl\version_6.1.2\lvgl\src\lv_objx/lv_list.c ****         lv_list_set_style(new_list, LV_LIST_STYLE_BTN_TGL_REL, copy_ext->styles_btn[LV_BTN_STATE_TG
 700              		.loc 5 140 0
 701 01ce 3B69     		ldr	r3, [r7, #16]
 702 01d0 9B6B     		ldr	r3, [r3, #56]
 703 01d2 1A46     		mov	r2, r3
 704 01d4 0621     		movs	r1, #6
 705 01d6 F869     		ldr	r0, [r7, #28]
 706 01d8 FFF7FEFF 		bl	lv_list_set_style
 141:..\..\..\lvgl\version_6.1.2\lvgl\src\lv_objx/lv_list.c ****         lv_list_set_style(new_list, LV_LIST_STYLE_BTN_TGL_PR, copy_ext->styles_btn[LV_BTN_STATE_TGL
 707              		.loc 5 141 0
 708 01dc 3B69     		ldr	r3, [r7, #16]
 709 01de 9B6B     		ldr	r3, [r3, #56]
 710 01e0 1A46     		mov	r2, r3
 711 01e2 0721     		movs	r1, #7
 712 01e4 F869     		ldr	r0, [r7, #28]
 713 01e6 FFF7FEFF 		bl	lv_list_set_style
 142:..\..\..\lvgl\version_6.1.2\lvgl\src\lv_objx/lv_list.c ****         lv_list_set_style(new_list, LV_LIST_STYLE_BTN_INA, copy_ext->styles_btn[LV_BTN_STATE_INA]);
 714              		.loc 5 142 0
 715 01ea 3B69     		ldr	r3, [r7, #16]
 716 01ec 1B6C     		ldr	r3, [r3, #64]
 717 01ee 1A46     		mov	r2, r3
 718 01f0 0821     		movs	r1, #8
 719 01f2 F869     		ldr	r0, [r7, #28]
 720 01f4 FFF7FEFF 		bl	lv_list_set_style
 143:..\..\..\lvgl\version_6.1.2\lvgl\src\lv_objx/lv_list.c **** 
 144:..\..\..\lvgl\version_6.1.2\lvgl\src\lv_objx/lv_list.c ****         /*Refresh the style with new signal function*/
 145:..\..\..\lvgl\version_6.1.2\lvgl\src\lv_objx/lv_list.c ****         lv_obj_refresh_style(new_list);
 721              		.loc 5 145 0
 722 01f8 F869     		ldr	r0, [r7, #28]
 723 01fa FFF7FEFF 		bl	lv_obj_refresh_style
 724              	.L21:
 725              	.LBE3:
 146:..\..\..\lvgl\version_6.1.2\lvgl\src\lv_objx/lv_list.c ****     }
ARM GAS  C:\Users\tmj32\AppData\Local\Temp\ccUUfkkI.s 			page 33


 147:..\..\..\lvgl\version_6.1.2\lvgl\src\lv_objx/lv_list.c **** 
 148:..\..\..\lvgl\version_6.1.2\lvgl\src\lv_objx/lv_list.c ****     LV_LOG_INFO("list created");
 149:..\..\..\lvgl\version_6.1.2\lvgl\src\lv_objx/lv_list.c **** 
 150:..\..\..\lvgl\version_6.1.2\lvgl\src\lv_objx/lv_list.c ****     return new_list;
 726              		.loc 5 150 0
 727 01fe FB69     		ldr	r3, [r7, #28]
 728              	.L15:
 151:..\..\..\lvgl\version_6.1.2\lvgl\src\lv_objx/lv_list.c **** }
 729              		.loc 5 151 0
 730 0200 1846     		mov	r0, r3
 731 0202 2837     		adds	r7, r7, #40
 732              		.cfi_def_cfa_offset 8
 733 0204 BD46     		mov	sp, r7
 734              		.cfi_def_cfa_register 13
 735              		@ sp needed
 736 0206 80BD     		pop	{r7, pc}
 737              	.L26:
 738              		.align	2
 739              	.L25:
 740 0208 08000000 		.word	ancestor_page_signal
 741 020c 00000000 		.word	lv_style_btn_rel
 742 0210 00000000 		.word	lv_style_btn_pr
 743 0214 00000000 		.word	lv_style_btn_tgl_rel
 744 0218 00000000 		.word	lv_style_btn_tgl_pr
 745 021c 00000000 		.word	lv_style_btn_ina
 746 0220 00000000 		.word	lv_list_signal
 747 0224 00000000 		.word	lv_style_transp_fit
 748 0228 00000000 		.word	lv_style_pretty
 749              		.cfi_endproc
 750              	.LFE69:
 751              		.size	lv_list_create, .-lv_list_create
 752              		.section	.text.lv_list_clean,"ax",%progbits
 753              		.align	2
 754              		.global	lv_list_clean
 755              		.thumb
 756              		.thumb_func
 757              		.type	lv_list_clean, %function
 758              	lv_list_clean:
 759              	.LFB70:
 152:..\..\..\lvgl\version_6.1.2\lvgl\src\lv_objx/lv_list.c **** 
 153:..\..\..\lvgl\version_6.1.2\lvgl\src\lv_objx/lv_list.c **** /**
 154:..\..\..\lvgl\version_6.1.2\lvgl\src\lv_objx/lv_list.c ****  * Delete all children of the scrl object, without deleting scrl child.
 155:..\..\..\lvgl\version_6.1.2\lvgl\src\lv_objx/lv_list.c ****  * @param list pointer to an object
 156:..\..\..\lvgl\version_6.1.2\lvgl\src\lv_objx/lv_list.c ****  */
 157:..\..\..\lvgl\version_6.1.2\lvgl\src\lv_objx/lv_list.c **** void lv_list_clean(lv_obj_t * list)
 158:..\..\..\lvgl\version_6.1.2\lvgl\src\lv_objx/lv_list.c **** {
 760              		.loc 5 158 0
 761              		.cfi_startproc
 762              		@ args = 0, pretend = 0, frame = 16
 763              		@ frame_needed = 1, uses_anonymous_args = 0
 764 0000 80B5     		push	{r7, lr}
 765              		.cfi_def_cfa_offset 8
 766              		.cfi_offset 7, -8
 767              		.cfi_offset 14, -4
 768 0002 84B0     		sub	sp, sp, #16
 769              		.cfi_def_cfa_offset 24
 770 0004 00AF     		add	r7, sp, #0
ARM GAS  C:\Users\tmj32\AppData\Local\Temp\ccUUfkkI.s 			page 34


 771              		.cfi_def_cfa_register 7
 772 0006 7860     		str	r0, [r7, #4]
 159:..\..\..\lvgl\version_6.1.2\lvgl\src\lv_objx/lv_list.c ****     LV_ASSERT_OBJ(list, LV_OBJX_NAME);
 160:..\..\..\lvgl\version_6.1.2\lvgl\src\lv_objx/lv_list.c **** 
 161:..\..\..\lvgl\version_6.1.2\lvgl\src\lv_objx/lv_list.c ****     lv_obj_t * scrl = lv_page_get_scrl(list);
 773              		.loc 5 161 0
 774 0008 7868     		ldr	r0, [r7, #4]
 775 000a FFF7FEFF 		bl	lv_page_get_scrl
 776 000e F860     		str	r0, [r7, #12]
 162:..\..\..\lvgl\version_6.1.2\lvgl\src\lv_objx/lv_list.c ****     lv_obj_clean(scrl);
 777              		.loc 5 162 0
 778 0010 F868     		ldr	r0, [r7, #12]
 779 0012 FFF7FEFF 		bl	lv_obj_clean
 163:..\..\..\lvgl\version_6.1.2\lvgl\src\lv_objx/lv_list.c ****     lv_list_ext_t * ext = lv_obj_get_ext_attr(list);
 780              		.loc 5 163 0
 781 0016 7868     		ldr	r0, [r7, #4]
 782 0018 FFF7FEFF 		bl	lv_obj_get_ext_attr
 783 001c B860     		str	r0, [r7, #8]
 164:..\..\..\lvgl\version_6.1.2\lvgl\src\lv_objx/lv_list.c ****     ext->size           = 0;
 784              		.loc 5 164 0
 785 001e BB68     		ldr	r3, [r7, #8]
 786 0020 0022     		movs	r2, #0
 787 0022 A3F84820 		strh	r2, [r3, #72]	@ movhi
 165:..\..\..\lvgl\version_6.1.2\lvgl\src\lv_objx/lv_list.c **** }
 788              		.loc 5 165 0
 789 0026 00BF     		nop
 790 0028 1037     		adds	r7, r7, #16
 791              		.cfi_def_cfa_offset 8
 792 002a BD46     		mov	sp, r7
 793              		.cfi_def_cfa_register 13
 794              		@ sp needed
 795 002c 80BD     		pop	{r7, pc}
 796              		.cfi_endproc
 797              	.LFE70:
 798              		.size	lv_list_clean, .-lv_list_clean
 799 002e 00BF     		.section	.text.lv_list_add_btn,"ax",%progbits
 800              		.align	2
 801              		.global	lv_list_add_btn
 802              		.thumb
 803              		.thumb_func
 804              		.type	lv_list_add_btn, %function
 805              	lv_list_add_btn:
 806              	.LFB71:
 166:..\..\..\lvgl\version_6.1.2\lvgl\src\lv_objx/lv_list.c **** 
 167:..\..\..\lvgl\version_6.1.2\lvgl\src\lv_objx/lv_list.c **** /*======================
 168:..\..\..\lvgl\version_6.1.2\lvgl\src\lv_objx/lv_list.c ****  * Add/remove functions
 169:..\..\..\lvgl\version_6.1.2\lvgl\src\lv_objx/lv_list.c ****  *=====================*/
 170:..\..\..\lvgl\version_6.1.2\lvgl\src\lv_objx/lv_list.c **** 
 171:..\..\..\lvgl\version_6.1.2\lvgl\src\lv_objx/lv_list.c **** /**
 172:..\..\..\lvgl\version_6.1.2\lvgl\src\lv_objx/lv_list.c ****  * Add a list element to the list
 173:..\..\..\lvgl\version_6.1.2\lvgl\src\lv_objx/lv_list.c ****  * @param list pointer to list object
 174:..\..\..\lvgl\version_6.1.2\lvgl\src\lv_objx/lv_list.c ****  * @param img_fn file name of an image before the text (NULL if unused)
 175:..\..\..\lvgl\version_6.1.2\lvgl\src\lv_objx/lv_list.c ****  * @param txt text of the list element (NULL if unused)
 176:..\..\..\lvgl\version_6.1.2\lvgl\src\lv_objx/lv_list.c ****  * @return pointer to the new list element which can be customized (a button)
 177:..\..\..\lvgl\version_6.1.2\lvgl\src\lv_objx/lv_list.c ****  */
 178:..\..\..\lvgl\version_6.1.2\lvgl\src\lv_objx/lv_list.c **** lv_obj_t * lv_list_add_btn(lv_obj_t * list, const void * img_src, const char * txt)
 179:..\..\..\lvgl\version_6.1.2\lvgl\src\lv_objx/lv_list.c **** {
ARM GAS  C:\Users\tmj32\AppData\Local\Temp\ccUUfkkI.s 			page 35


 807              		.loc 5 179 0
 808              		.cfi_startproc
 809              		@ args = 0, pretend = 0, frame = 56
 810              		@ frame_needed = 1, uses_anonymous_args = 0
 811 0000 80B5     		push	{r7, lr}
 812              		.cfi_def_cfa_offset 8
 813              		.cfi_offset 7, -8
 814              		.cfi_offset 14, -4
 815 0002 8EB0     		sub	sp, sp, #56
 816              		.cfi_def_cfa_offset 64
 817 0004 00AF     		add	r7, sp, #0
 818              		.cfi_def_cfa_register 7
 819 0006 F860     		str	r0, [r7, #12]
 820 0008 B960     		str	r1, [r7, #8]
 821 000a 7A60     		str	r2, [r7, #4]
 180:..\..\..\lvgl\version_6.1.2\lvgl\src\lv_objx/lv_list.c ****     LV_ASSERT_OBJ(list, LV_OBJX_NAME);
 181:..\..\..\lvgl\version_6.1.2\lvgl\src\lv_objx/lv_list.c **** 
 182:..\..\..\lvgl\version_6.1.2\lvgl\src\lv_objx/lv_list.c ****     lv_obj_t * last_btn = lv_list_get_prev_btn(list, NULL);
 822              		.loc 5 182 0
 823 000c 0021     		movs	r1, #0
 824 000e F868     		ldr	r0, [r7, #12]
 825 0010 FFF7FEFF 		bl	lv_list_get_prev_btn
 826 0014 3863     		str	r0, [r7, #48]
 183:..\..\..\lvgl\version_6.1.2\lvgl\src\lv_objx/lv_list.c **** 
 184:..\..\..\lvgl\version_6.1.2\lvgl\src\lv_objx/lv_list.c ****     /*The coordinates may changed due to autofit so revert them at the end*/
 185:..\..\..\lvgl\version_6.1.2\lvgl\src\lv_objx/lv_list.c ****     lv_coord_t pos_x_ori = lv_obj_get_x(list);
 827              		.loc 5 185 0
 828 0016 F868     		ldr	r0, [r7, #12]
 829 0018 FFF7FEFF 		bl	lv_obj_get_x
 830 001c 0346     		mov	r3, r0
 831 001e FB85     		strh	r3, [r7, #46]	@ movhi
 186:..\..\..\lvgl\version_6.1.2\lvgl\src\lv_objx/lv_list.c ****     lv_coord_t pos_y_ori = lv_obj_get_y(list);
 832              		.loc 5 186 0
 833 0020 F868     		ldr	r0, [r7, #12]
 834 0022 FFF7FEFF 		bl	lv_obj_get_y
 835 0026 0346     		mov	r3, r0
 836 0028 BB85     		strh	r3, [r7, #44]	@ movhi
 187:..\..\..\lvgl\version_6.1.2\lvgl\src\lv_objx/lv_list.c **** 
 188:..\..\..\lvgl\version_6.1.2\lvgl\src\lv_objx/lv_list.c **** 
 189:..\..\..\lvgl\version_6.1.2\lvgl\src\lv_objx/lv_list.c ****     lv_list_ext_t * ext = lv_obj_get_ext_attr(list);
 837              		.loc 5 189 0
 838 002a F868     		ldr	r0, [r7, #12]
 839 002c FFF7FEFF 		bl	lv_obj_get_ext_attr
 840 0030 B862     		str	r0, [r7, #40]
 190:..\..\..\lvgl\version_6.1.2\lvgl\src\lv_objx/lv_list.c ****     ext->size++;
 841              		.loc 5 190 0
 842 0032 BB6A     		ldr	r3, [r7, #40]
 843 0034 B3F84830 		ldrh	r3, [r3, #72]
 844 0038 0133     		adds	r3, r3, #1
 845 003a 9AB2     		uxth	r2, r3
 846 003c BB6A     		ldr	r3, [r7, #40]
 847 003e A3F84820 		strh	r2, [r3, #72]	@ movhi
 191:..\..\..\lvgl\version_6.1.2\lvgl\src\lv_objx/lv_list.c ****     /*Create a list element with the image an the text*/
 192:..\..\..\lvgl\version_6.1.2\lvgl\src\lv_objx/lv_list.c ****     lv_obj_t * liste;
 193:..\..\..\lvgl\version_6.1.2\lvgl\src\lv_objx/lv_list.c ****     liste = lv_btn_create(list, NULL);
 848              		.loc 5 193 0
 849 0042 0021     		movs	r1, #0
ARM GAS  C:\Users\tmj32\AppData\Local\Temp\ccUUfkkI.s 			page 36


 850 0044 F868     		ldr	r0, [r7, #12]
 851 0046 FFF7FEFF 		bl	lv_btn_create
 852 004a 7862     		str	r0, [r7, #36]
 194:..\..\..\lvgl\version_6.1.2\lvgl\src\lv_objx/lv_list.c **** 
 195:..\..\..\lvgl\version_6.1.2\lvgl\src\lv_objx/lv_list.c ****     /*Save the original signal function because it will be required in `lv_list_btn_signal`*/
 196:..\..\..\lvgl\version_6.1.2\lvgl\src\lv_objx/lv_list.c ****     if(ancestor_btn_signal == NULL) ancestor_btn_signal = lv_obj_get_signal_cb(liste);
 853              		.loc 5 196 0
 854 004c 7C4B     		ldr	r3, .L41
 855 004e 1B68     		ldr	r3, [r3]
 856 0050 002B     		cmp	r3, #0
 857 0052 05D1     		bne	.L29
 858              		.loc 5 196 0 is_stmt 0 discriminator 1
 859 0054 786A     		ldr	r0, [r7, #36]
 860 0056 FFF7FEFF 		bl	lv_obj_get_signal_cb
 861 005a 0246     		mov	r2, r0
 862 005c 784B     		ldr	r3, .L41
 863 005e 1A60     		str	r2, [r3]
 864              	.L29:
 197:..\..\..\lvgl\version_6.1.2\lvgl\src\lv_objx/lv_list.c **** 
 198:..\..\..\lvgl\version_6.1.2\lvgl\src\lv_objx/lv_list.c ****     /*Set the default styles*/
 199:..\..\..\lvgl\version_6.1.2\lvgl\src\lv_objx/lv_list.c ****     lv_btn_set_style(liste, LV_BTN_STYLE_REL, ext->styles_btn[LV_BTN_STATE_REL]);
 865              		.loc 5 199 0 is_stmt 1
 866 0060 BB6A     		ldr	r3, [r7, #40]
 867 0062 1B6B     		ldr	r3, [r3, #48]
 868 0064 1A46     		mov	r2, r3
 869 0066 0021     		movs	r1, #0
 870 0068 786A     		ldr	r0, [r7, #36]
 871 006a FFF7FEFF 		bl	lv_btn_set_style
 200:..\..\..\lvgl\version_6.1.2\lvgl\src\lv_objx/lv_list.c ****     lv_btn_set_style(liste, LV_BTN_STYLE_PR, ext->styles_btn[LV_BTN_STATE_PR]);
 872              		.loc 5 200 0
 873 006e BB6A     		ldr	r3, [r7, #40]
 874 0070 5B6B     		ldr	r3, [r3, #52]
 875 0072 1A46     		mov	r2, r3
 876 0074 0121     		movs	r1, #1
 877 0076 786A     		ldr	r0, [r7, #36]
 878 0078 FFF7FEFF 		bl	lv_btn_set_style
 201:..\..\..\lvgl\version_6.1.2\lvgl\src\lv_objx/lv_list.c ****     lv_btn_set_style(liste, LV_BTN_STYLE_TGL_REL, ext->styles_btn[LV_BTN_STATE_TGL_REL]);
 879              		.loc 5 201 0
 880 007c BB6A     		ldr	r3, [r7, #40]
 881 007e 9B6B     		ldr	r3, [r3, #56]
 882 0080 1A46     		mov	r2, r3
 883 0082 0221     		movs	r1, #2
 884 0084 786A     		ldr	r0, [r7, #36]
 885 0086 FFF7FEFF 		bl	lv_btn_set_style
 202:..\..\..\lvgl\version_6.1.2\lvgl\src\lv_objx/lv_list.c ****     lv_btn_set_style(liste, LV_BTN_STYLE_TGL_PR, ext->styles_btn[LV_BTN_STATE_TGL_PR]);
 886              		.loc 5 202 0
 887 008a BB6A     		ldr	r3, [r7, #40]
 888 008c DB6B     		ldr	r3, [r3, #60]
 889 008e 1A46     		mov	r2, r3
 890 0090 0321     		movs	r1, #3
 891 0092 786A     		ldr	r0, [r7, #36]
 892 0094 FFF7FEFF 		bl	lv_btn_set_style
 203:..\..\..\lvgl\version_6.1.2\lvgl\src\lv_objx/lv_list.c ****     lv_btn_set_style(liste, LV_BTN_STYLE_INA, ext->styles_btn[LV_BTN_STATE_INA]);
 893              		.loc 5 203 0
 894 0098 BB6A     		ldr	r3, [r7, #40]
 895 009a 1B6C     		ldr	r3, [r3, #64]
 896 009c 1A46     		mov	r2, r3
ARM GAS  C:\Users\tmj32\AppData\Local\Temp\ccUUfkkI.s 			page 37


 897 009e 0421     		movs	r1, #4
 898 00a0 786A     		ldr	r0, [r7, #36]
 899 00a2 FFF7FEFF 		bl	lv_btn_set_style
 204:..\..\..\lvgl\version_6.1.2\lvgl\src\lv_objx/lv_list.c **** 
 205:..\..\..\lvgl\version_6.1.2\lvgl\src\lv_objx/lv_list.c ****     lv_page_glue_obj(liste, true);
 900              		.loc 5 205 0
 901 00a6 0121     		movs	r1, #1
 902 00a8 786A     		ldr	r0, [r7, #36]
 903 00aa FFF7FEFF 		bl	lv_page_glue_obj
 206:..\..\..\lvgl\version_6.1.2\lvgl\src\lv_objx/lv_list.c ****     lv_btn_set_layout(liste, LV_LAYOUT_ROW_M);
 904              		.loc 5 206 0
 905 00ae 0621     		movs	r1, #6
 906 00b0 786A     		ldr	r0, [r7, #36]
 907 00b2 FFF7FEFF 		bl	lv_btn_set_layout
 207:..\..\..\lvgl\version_6.1.2\lvgl\src\lv_objx/lv_list.c **** 
 208:..\..\..\lvgl\version_6.1.2\lvgl\src\lv_objx/lv_list.c ****     lv_layout_t list_layout = lv_list_get_layout(list);
 908              		.loc 5 208 0
 909 00b6 F868     		ldr	r0, [r7, #12]
 910 00b8 FFF7FEFF 		bl	lv_list_get_layout
 911 00bc 0346     		mov	r3, r0
 912 00be 87F82330 		strb	r3, [r7, #35]
 209:..\..\..\lvgl\version_6.1.2\lvgl\src\lv_objx/lv_list.c ****     bool layout_ver = false;
 913              		.loc 5 209 0
 914 00c2 0023     		movs	r3, #0
 915 00c4 87F83730 		strb	r3, [r7, #55]
 210:..\..\..\lvgl\version_6.1.2\lvgl\src\lv_objx/lv_list.c ****     if(list_layout == LV_LAYOUT_COL_M || list_layout == LV_LAYOUT_COL_L || list_layout == LV_LAYOUT
 916              		.loc 5 210 0
 917 00c8 97F82330 		ldrb	r3, [r7, #35]	@ zero_extendqisi2
 918 00cc 032B     		cmp	r3, #3
 919 00ce 07D0     		beq	.L30
 920              		.loc 5 210 0 is_stmt 0 discriminator 1
 921 00d0 97F82330 		ldrb	r3, [r7, #35]	@ zero_extendqisi2
 922 00d4 022B     		cmp	r3, #2
 923 00d6 03D0     		beq	.L30
 924              		.loc 5 210 0 discriminator 2
 925 00d8 97F82330 		ldrb	r3, [r7, #35]	@ zero_extendqisi2
 926 00dc 042B     		cmp	r3, #4
 927 00de 02D1     		bne	.L31
 928              	.L30:
 211:..\..\..\lvgl\version_6.1.2\lvgl\src\lv_objx/lv_list.c ****            layout_ver = true;
 929              		.loc 5 211 0 is_stmt 1
 930 00e0 0123     		movs	r3, #1
 931 00e2 87F83730 		strb	r3, [r7, #55]
 932              	.L31:
 212:..\..\..\lvgl\version_6.1.2\lvgl\src\lv_objx/lv_list.c ****     }
 213:..\..\..\lvgl\version_6.1.2\lvgl\src\lv_objx/lv_list.c **** 
 214:..\..\..\lvgl\version_6.1.2\lvgl\src\lv_objx/lv_list.c ****     if(layout_ver) {
 933              		.loc 5 214 0
 934 00e6 97F83730 		ldrb	r3, [r7, #55]	@ zero_extendqisi2
 935 00ea 002B     		cmp	r3, #0
 936 00ec 05D0     		beq	.L32
 215:..\..\..\lvgl\version_6.1.2\lvgl\src\lv_objx/lv_list.c ****         lv_btn_set_fit2(liste, LV_FIT_FLOOD, LV_FIT_TIGHT);
 937              		.loc 5 215 0
 938 00ee 0122     		movs	r2, #1
 939 00f0 0221     		movs	r1, #2
 940 00f2 786A     		ldr	r0, [r7, #36]
 941 00f4 FFF7FEFF 		bl	lv_btn_set_fit2
ARM GAS  C:\Users\tmj32\AppData\Local\Temp\ccUUfkkI.s 			page 38


 942 00f8 14E0     		b	.L33
 943              	.L32:
 944              	.LBB5:
 216:..\..\..\lvgl\version_6.1.2\lvgl\src\lv_objx/lv_list.c ****     } else {
 217:..\..\..\lvgl\version_6.1.2\lvgl\src\lv_objx/lv_list.c ****         lv_coord_t w = last_btn ? lv_obj_get_width(last_btn) : (LV_DPI * 3) / 2;
 945              		.loc 5 217 0
 946 00fa 3B6B     		ldr	r3, [r7, #48]
 947 00fc 002B     		cmp	r3, #0
 948 00fe 04D0     		beq	.L34
 949              		.loc 5 217 0 is_stmt 0 discriminator 1
 950 0100 386B     		ldr	r0, [r7, #48]
 951 0102 FFF7FEFF 		bl	lv_obj_get_width
 952 0106 0346     		mov	r3, r0
 953 0108 00E0     		b	.L35
 954              	.L34:
 955              		.loc 5 217 0 discriminator 2
 956 010a E123     		movs	r3, #225
 957              	.L35:
 958              		.loc 5 217 0 discriminator 4
 959 010c 3B84     		strh	r3, [r7, #32]	@ movhi
 218:..\..\..\lvgl\version_6.1.2\lvgl\src\lv_objx/lv_list.c ****         lv_btn_set_fit2(liste, LV_FIT_NONE, LV_FIT_TIGHT);
 960              		.loc 5 218 0 is_stmt 1 discriminator 4
 961 010e 0122     		movs	r2, #1
 962 0110 0021     		movs	r1, #0
 963 0112 786A     		ldr	r0, [r7, #36]
 964 0114 FFF7FEFF 		bl	lv_btn_set_fit2
 219:..\..\..\lvgl\version_6.1.2\lvgl\src\lv_objx/lv_list.c ****         lv_obj_set_width(liste, w);
 965              		.loc 5 219 0 discriminator 4
 966 0118 B7F92030 		ldrsh	r3, [r7, #32]
 967 011c 1946     		mov	r1, r3
 968 011e 786A     		ldr	r0, [r7, #36]
 969 0120 FFF7FEFF 		bl	lv_obj_set_width
 970              	.L33:
 971              	.LBE5:
 220:..\..\..\lvgl\version_6.1.2\lvgl\src\lv_objx/lv_list.c ****     }
 221:..\..\..\lvgl\version_6.1.2\lvgl\src\lv_objx/lv_list.c **** 
 222:..\..\..\lvgl\version_6.1.2\lvgl\src\lv_objx/lv_list.c **** 
 223:..\..\..\lvgl\version_6.1.2\lvgl\src\lv_objx/lv_list.c ****     lv_obj_set_protect(liste, LV_PROTECT_PRESS_LOST);
 972              		.loc 5 223 0
 973 0124 1021     		movs	r1, #16
 974 0126 786A     		ldr	r0, [r7, #36]
 975 0128 FFF7FEFF 		bl	lv_obj_set_protect
 224:..\..\..\lvgl\version_6.1.2\lvgl\src\lv_objx/lv_list.c ****     lv_obj_set_signal_cb(liste, lv_list_btn_signal);
 976              		.loc 5 224 0
 977 012c 4549     		ldr	r1, .L41+4
 978 012e 786A     		ldr	r0, [r7, #36]
 979 0130 FFF7FEFF 		bl	lv_obj_set_signal_cb
 225:..\..\..\lvgl\version_6.1.2\lvgl\src\lv_objx/lv_list.c **** 
 226:..\..\..\lvgl\version_6.1.2\lvgl\src\lv_objx/lv_list.c **** #if LV_USE_IMG != 0
 227:..\..\..\lvgl\version_6.1.2\lvgl\src\lv_objx/lv_list.c ****     lv_obj_t * img = NULL;
 980              		.loc 5 227 0
 981 0134 0023     		movs	r3, #0
 982 0136 FB61     		str	r3, [r7, #28]
 228:..\..\..\lvgl\version_6.1.2\lvgl\src\lv_objx/lv_list.c ****     if(img_src) {
 983              		.loc 5 228 0
 984 0138 BB68     		ldr	r3, [r7, #8]
 985 013a 002B     		cmp	r3, #0
ARM GAS  C:\Users\tmj32\AppData\Local\Temp\ccUUfkkI.s 			page 39


 986 013c 1CD0     		beq	.L36
 229:..\..\..\lvgl\version_6.1.2\lvgl\src\lv_objx/lv_list.c ****         img = lv_img_create(liste, NULL);
 987              		.loc 5 229 0
 988 013e 0021     		movs	r1, #0
 989 0140 786A     		ldr	r0, [r7, #36]
 990 0142 FFF7FEFF 		bl	lv_img_create
 991 0146 F861     		str	r0, [r7, #28]
 230:..\..\..\lvgl\version_6.1.2\lvgl\src\lv_objx/lv_list.c ****         lv_img_set_src(img, img_src);
 992              		.loc 5 230 0
 993 0148 B968     		ldr	r1, [r7, #8]
 994 014a F869     		ldr	r0, [r7, #28]
 995 014c FFF7FEFF 		bl	lv_img_set_src
 231:..\..\..\lvgl\version_6.1.2\lvgl\src\lv_objx/lv_list.c ****         lv_obj_set_style(img, ext->style_img);
 996              		.loc 5 231 0
 997 0150 BB6A     		ldr	r3, [r7, #40]
 998 0152 5B6C     		ldr	r3, [r3, #68]
 999 0154 1946     		mov	r1, r3
 1000 0156 F869     		ldr	r0, [r7, #28]
 1001 0158 FFF7FEFF 		bl	lv_obj_set_style
 232:..\..\..\lvgl\version_6.1.2\lvgl\src\lv_objx/lv_list.c ****         lv_obj_set_click(img, false);
 1002              		.loc 5 232 0
 1003 015c 0021     		movs	r1, #0
 1004 015e F869     		ldr	r0, [r7, #28]
 1005 0160 FFF7FEFF 		bl	lv_obj_set_click
 233:..\..\..\lvgl\version_6.1.2\lvgl\src\lv_objx/lv_list.c ****         if(img_signal == NULL) img_signal = lv_obj_get_signal_cb(img);
 1006              		.loc 5 233 0
 1007 0164 384B     		ldr	r3, .L41+8
 1008 0166 1B68     		ldr	r3, [r3]
 1009 0168 002B     		cmp	r3, #0
 1010 016a 05D1     		bne	.L36
 1011              		.loc 5 233 0 is_stmt 0 discriminator 1
 1012 016c F869     		ldr	r0, [r7, #28]
 1013 016e FFF7FEFF 		bl	lv_obj_get_signal_cb
 1014 0172 0246     		mov	r2, r0
 1015 0174 344B     		ldr	r3, .L41+8
 1016 0176 1A60     		str	r2, [r3]
 1017              	.L36:
 234:..\..\..\lvgl\version_6.1.2\lvgl\src\lv_objx/lv_list.c ****     }
 235:..\..\..\lvgl\version_6.1.2\lvgl\src\lv_objx/lv_list.c **** #endif
 236:..\..\..\lvgl\version_6.1.2\lvgl\src\lv_objx/lv_list.c ****     if(txt != NULL) {
 1018              		.loc 5 236 0 is_stmt 1
 1019 0178 7B68     		ldr	r3, [r7, #4]
 1020 017a 002B     		cmp	r3, #0
 1021 017c 52D0     		beq	.L37
 1022              	.LBB6:
 237:..\..\..\lvgl\version_6.1.2\lvgl\src\lv_objx/lv_list.c ****         lv_coord_t btn_hor_pad = ext->styles_btn[LV_BTN_STYLE_REL]->body.padding.left -
 1023              		.loc 5 237 0
 1024 017e BB6A     		ldr	r3, [r7, #40]
 1025 0180 1B6B     		ldr	r3, [r3, #48]
 1026 0182 B3F92430 		ldrsh	r3, [r3, #36]
 1027 0186 9AB2     		uxth	r2, r3
 238:..\..\..\lvgl\version_6.1.2\lvgl\src\lv_objx/lv_list.c ****                                  ext->styles_btn[LV_BTN_STYLE_REL]->body.padding.right;
 1028              		.loc 5 238 0
 1029 0188 BB6A     		ldr	r3, [r7, #40]
 1030 018a 1B6B     		ldr	r3, [r3, #48]
 1031 018c B3F92630 		ldrsh	r3, [r3, #38]
 237:..\..\..\lvgl\version_6.1.2\lvgl\src\lv_objx/lv_list.c ****         lv_coord_t btn_hor_pad = ext->styles_btn[LV_BTN_STYLE_REL]->body.padding.left -
ARM GAS  C:\Users\tmj32\AppData\Local\Temp\ccUUfkkI.s 			page 40


 1032              		.loc 5 237 0
 1033 0190 9BB2     		uxth	r3, r3
 1034 0192 D31A     		subs	r3, r2, r3
 1035 0194 9BB2     		uxth	r3, r3
 1036 0196 7B83     		strh	r3, [r7, #26]	@ movhi
 239:..\..\..\lvgl\version_6.1.2\lvgl\src\lv_objx/lv_list.c ****         lv_obj_t * label = lv_label_create(liste, NULL);
 1037              		.loc 5 239 0
 1038 0198 0021     		movs	r1, #0
 1039 019a 786A     		ldr	r0, [r7, #36]
 1040 019c FFF7FEFF 		bl	lv_label_create
 1041 01a0 7861     		str	r0, [r7, #20]
 240:..\..\..\lvgl\version_6.1.2\lvgl\src\lv_objx/lv_list.c ****         lv_label_set_text(label, txt);
 1042              		.loc 5 240 0
 1043 01a2 7968     		ldr	r1, [r7, #4]
 1044 01a4 7869     		ldr	r0, [r7, #20]
 1045 01a6 FFF7FEFF 		bl	lv_label_set_text
 241:..\..\..\lvgl\version_6.1.2\lvgl\src\lv_objx/lv_list.c ****         lv_obj_set_click(label, false);
 1046              		.loc 5 241 0
 1047 01aa 0021     		movs	r1, #0
 1048 01ac 7869     		ldr	r0, [r7, #20]
 1049 01ae FFF7FEFF 		bl	lv_obj_set_click
 242:..\..\..\lvgl\version_6.1.2\lvgl\src\lv_objx/lv_list.c ****         lv_label_set_long_mode(label, LV_LABEL_LONG_SROLL_CIRC);
 1050              		.loc 5 242 0
 1051 01b2 0421     		movs	r1, #4
 1052 01b4 7869     		ldr	r0, [r7, #20]
 1053 01b6 FFF7FEFF 		bl	lv_label_set_long_mode
 243:..\..\..\lvgl\version_6.1.2\lvgl\src\lv_objx/lv_list.c ****         if(lv_obj_get_base_dir(liste) == LV_BIDI_DIR_RTL) lv_obj_set_width(label, label->coords.x2 
 1054              		.loc 5 243 0
 1055 01ba 786A     		ldr	r0, [r7, #36]
 1056 01bc FFF7FEFF 		bl	lv_obj_get_base_dir
 1057 01c0 0346     		mov	r3, r0
 1058 01c2 012B     		cmp	r3, #1
 1059 01c4 12D1     		bne	.L38
 1060              		.loc 5 243 0 is_stmt 0 discriminator 1
 1061 01c6 7B69     		ldr	r3, [r7, #20]
 1062 01c8 B3F91430 		ldrsh	r3, [r3, #20]
 1063 01cc 9AB2     		uxth	r2, r3
 1064 01ce 7B6A     		ldr	r3, [r7, #36]
 1065 01d0 B3F91030 		ldrsh	r3, [r3, #16]
 1066 01d4 9BB2     		uxth	r3, r3
 1067 01d6 D31A     		subs	r3, r2, r3
 1068 01d8 9AB2     		uxth	r2, r3
 1069 01da 7B8B     		ldrh	r3, [r7, #26]
 1070 01dc D31A     		subs	r3, r2, r3
 1071 01de 9BB2     		uxth	r3, r3
 1072 01e0 1BB2     		sxth	r3, r3
 1073 01e2 1946     		mov	r1, r3
 1074 01e4 7869     		ldr	r0, [r7, #20]
 1075 01e6 FFF7FEFF 		bl	lv_obj_set_width
 1076 01ea 11E0     		b	.L39
 1077              	.L38:
 244:..\..\..\lvgl\version_6.1.2\lvgl\src\lv_objx/lv_list.c ****         else  lv_obj_set_width(label, liste->coords.x2 - label->coords.x1 - btn_hor_pad);
 1078              		.loc 5 244 0 is_stmt 1
 1079 01ec 7B6A     		ldr	r3, [r7, #36]
 1080 01ee B3F91430 		ldrsh	r3, [r3, #20]
 1081 01f2 9AB2     		uxth	r2, r3
 1082 01f4 7B69     		ldr	r3, [r7, #20]
ARM GAS  C:\Users\tmj32\AppData\Local\Temp\ccUUfkkI.s 			page 41


 1083 01f6 B3F91030 		ldrsh	r3, [r3, #16]
 1084 01fa 9BB2     		uxth	r3, r3
 1085 01fc D31A     		subs	r3, r2, r3
 1086 01fe 9AB2     		uxth	r2, r3
 1087 0200 7B8B     		ldrh	r3, [r7, #26]
 1088 0202 D31A     		subs	r3, r2, r3
 1089 0204 9BB2     		uxth	r3, r3
 1090 0206 1BB2     		sxth	r3, r3
 1091 0208 1946     		mov	r1, r3
 1092 020a 7869     		ldr	r0, [r7, #20]
 1093 020c FFF7FEFF 		bl	lv_obj_set_width
 1094              	.L39:
 245:..\..\..\lvgl\version_6.1.2\lvgl\src\lv_objx/lv_list.c ****         if(label_signal == NULL) label_signal = lv_obj_get_signal_cb(label);
 1095              		.loc 5 245 0
 1096 0210 0E4B     		ldr	r3, .L41+12
 1097 0212 1B68     		ldr	r3, [r3]
 1098 0214 002B     		cmp	r3, #0
 1099 0216 05D1     		bne	.L37
 1100              		.loc 5 245 0 is_stmt 0 discriminator 1
 1101 0218 7869     		ldr	r0, [r7, #20]
 1102 021a FFF7FEFF 		bl	lv_obj_get_signal_cb
 1103 021e 0246     		mov	r2, r0
 1104 0220 0A4B     		ldr	r3, .L41+12
 1105 0222 1A60     		str	r2, [r3]
 1106              	.L37:
 1107              	.LBE6:
 246:..\..\..\lvgl\version_6.1.2\lvgl\src\lv_objx/lv_list.c ****     }
 247:..\..\..\lvgl\version_6.1.2\lvgl\src\lv_objx/lv_list.c **** #if LV_USE_GROUP
 248:..\..\..\lvgl\version_6.1.2\lvgl\src\lv_objx/lv_list.c ****     /* If this is the first item to be added to the list and the list is
 249:..\..\..\lvgl\version_6.1.2\lvgl\src\lv_objx/lv_list.c ****      * focused, select it */
 250:..\..\..\lvgl\version_6.1.2\lvgl\src\lv_objx/lv_list.c ****     {
 251:..\..\..\lvgl\version_6.1.2\lvgl\src\lv_objx/lv_list.c ****         lv_group_t * g = lv_obj_get_group(list);
 252:..\..\..\lvgl\version_6.1.2\lvgl\src\lv_objx/lv_list.c ****         if(ext->size == 1 && lv_group_get_focused(g) == list) {
 253:..\..\..\lvgl\version_6.1.2\lvgl\src\lv_objx/lv_list.c ****             lv_list_set_btn_selected(list, liste);
 254:..\..\..\lvgl\version_6.1.2\lvgl\src\lv_objx/lv_list.c ****         }
 255:..\..\..\lvgl\version_6.1.2\lvgl\src\lv_objx/lv_list.c ****     }
 256:..\..\..\lvgl\version_6.1.2\lvgl\src\lv_objx/lv_list.c **** #endif
 257:..\..\..\lvgl\version_6.1.2\lvgl\src\lv_objx/lv_list.c **** 
 258:..\..\..\lvgl\version_6.1.2\lvgl\src\lv_objx/lv_list.c ****     lv_obj_set_pos(list, pos_x_ori, pos_y_ori);
 1108              		.loc 5 258 0 is_stmt 1
 1109 0224 B7F92C20 		ldrsh	r2, [r7, #44]
 1110 0228 B7F92E30 		ldrsh	r3, [r7, #46]
 1111 022c 1946     		mov	r1, r3
 1112 022e F868     		ldr	r0, [r7, #12]
 1113 0230 FFF7FEFF 		bl	lv_obj_set_pos
 259:..\..\..\lvgl\version_6.1.2\lvgl\src\lv_objx/lv_list.c **** 
 260:..\..\..\lvgl\version_6.1.2\lvgl\src\lv_objx/lv_list.c ****     return liste;
 1114              		.loc 5 260 0
 1115 0234 7B6A     		ldr	r3, [r7, #36]
 261:..\..\..\lvgl\version_6.1.2\lvgl\src\lv_objx/lv_list.c **** }
 1116              		.loc 5 261 0
 1117 0236 1846     		mov	r0, r3
 1118 0238 3837     		adds	r7, r7, #56
 1119              		.cfi_def_cfa_offset 8
 1120 023a BD46     		mov	sp, r7
 1121              		.cfi_def_cfa_register 13
 1122              		@ sp needed
ARM GAS  C:\Users\tmj32\AppData\Local\Temp\ccUUfkkI.s 			page 42


 1123 023c 80BD     		pop	{r7, pc}
 1124              	.L42:
 1125 023e 00BF     		.align	2
 1126              	.L41:
 1127 0240 0C000000 		.word	ancestor_btn_signal
 1128 0244 00000000 		.word	lv_list_btn_signal
 1129 0248 00000000 		.word	img_signal
 1130 024c 04000000 		.word	label_signal
 1131              		.cfi_endproc
 1132              	.LFE71:
 1133              		.size	lv_list_add_btn, .-lv_list_add_btn
 1134              		.section	.text.lv_list_remove,"ax",%progbits
 1135              		.align	2
 1136              		.global	lv_list_remove
 1137              		.thumb
 1138              		.thumb_func
 1139              		.type	lv_list_remove, %function
 1140              	lv_list_remove:
 1141              	.LFB72:
 262:..\..\..\lvgl\version_6.1.2\lvgl\src\lv_objx/lv_list.c **** 
 263:..\..\..\lvgl\version_6.1.2\lvgl\src\lv_objx/lv_list.c **** /**
 264:..\..\..\lvgl\version_6.1.2\lvgl\src\lv_objx/lv_list.c ****  * Remove the index of the button in the list
 265:..\..\..\lvgl\version_6.1.2\lvgl\src\lv_objx/lv_list.c ****  * @param list pointer to a list object
 266:..\..\..\lvgl\version_6.1.2\lvgl\src\lv_objx/lv_list.c ****  * @param index pointer to a the button's index in the list, index must be 0 <= index <
 267:..\..\..\lvgl\version_6.1.2\lvgl\src\lv_objx/lv_list.c ****  * lv_list_ext_t.size
 268:..\..\..\lvgl\version_6.1.2\lvgl\src\lv_objx/lv_list.c ****  * @return true: successfully deleted
 269:..\..\..\lvgl\version_6.1.2\lvgl\src\lv_objx/lv_list.c ****  */
 270:..\..\..\lvgl\version_6.1.2\lvgl\src\lv_objx/lv_list.c **** bool lv_list_remove(const lv_obj_t * list, uint16_t index)
 271:..\..\..\lvgl\version_6.1.2\lvgl\src\lv_objx/lv_list.c **** {
 1142              		.loc 5 271 0
 1143              		.cfi_startproc
 1144              		@ args = 0, pretend = 0, frame = 24
 1145              		@ frame_needed = 1, uses_anonymous_args = 0
 1146 0000 80B5     		push	{r7, lr}
 1147              		.cfi_def_cfa_offset 8
 1148              		.cfi_offset 7, -8
 1149              		.cfi_offset 14, -4
 1150 0002 86B0     		sub	sp, sp, #24
 1151              		.cfi_def_cfa_offset 32
 1152 0004 00AF     		add	r7, sp, #0
 1153              		.cfi_def_cfa_register 7
 1154 0006 7860     		str	r0, [r7, #4]
 1155 0008 0B46     		mov	r3, r1
 1156 000a 7B80     		strh	r3, [r7, #2]	@ movhi
 272:..\..\..\lvgl\version_6.1.2\lvgl\src\lv_objx/lv_list.c ****     LV_ASSERT_OBJ(list, LV_OBJX_NAME);
 273:..\..\..\lvgl\version_6.1.2\lvgl\src\lv_objx/lv_list.c **** 
 274:..\..\..\lvgl\version_6.1.2\lvgl\src\lv_objx/lv_list.c ****     lv_list_ext_t * ext = lv_obj_get_ext_attr(list);
 1157              		.loc 5 274 0
 1158 000c 7868     		ldr	r0, [r7, #4]
 1159 000e FFF7FEFF 		bl	lv_obj_get_ext_attr
 1160 0012 F860     		str	r0, [r7, #12]
 275:..\..\..\lvgl\version_6.1.2\lvgl\src\lv_objx/lv_list.c ****     if(index >= ext->size) return false;
 1161              		.loc 5 275 0
 1162 0014 FB68     		ldr	r3, [r7, #12]
 1163 0016 B3F84830 		ldrh	r3, [r3, #72]
 1164 001a 7A88     		ldrh	r2, [r7, #2]
 1165 001c 9A42     		cmp	r2, r3
ARM GAS  C:\Users\tmj32\AppData\Local\Temp\ccUUfkkI.s 			page 43


 1166 001e 01D3     		bcc	.L44
 1167              		.loc 5 275 0 is_stmt 0 discriminator 1
 1168 0020 0023     		movs	r3, #0
 1169 0022 24E0     		b	.L45
 1170              	.L44:
 276:..\..\..\lvgl\version_6.1.2\lvgl\src\lv_objx/lv_list.c ****     uint16_t count = 0;
 1171              		.loc 5 276 0 is_stmt 1
 1172 0024 0023     		movs	r3, #0
 1173 0026 FB82     		strh	r3, [r7, #22]	@ movhi
 277:..\..\..\lvgl\version_6.1.2\lvgl\src\lv_objx/lv_list.c ****     lv_obj_t * e   = lv_list_get_next_btn(list, NULL);
 1174              		.loc 5 277 0
 1175 0028 0021     		movs	r1, #0
 1176 002a 7868     		ldr	r0, [r7, #4]
 1177 002c FFF7FEFF 		bl	lv_list_get_next_btn
 1178 0030 3861     		str	r0, [r7, #16]
 278:..\..\..\lvgl\version_6.1.2\lvgl\src\lv_objx/lv_list.c ****     while(e != NULL) {
 1179              		.loc 5 278 0
 1180 0032 18E0     		b	.L46
 1181              	.L48:
 279:..\..\..\lvgl\version_6.1.2\lvgl\src\lv_objx/lv_list.c ****         if(count == index) {
 1182              		.loc 5 279 0
 1183 0034 FA8A     		ldrh	r2, [r7, #22]
 1184 0036 7B88     		ldrh	r3, [r7, #2]
 1185 0038 9A42     		cmp	r2, r3
 1186 003a 0CD1     		bne	.L47
 280:..\..\..\lvgl\version_6.1.2\lvgl\src\lv_objx/lv_list.c ****             lv_obj_del(e);
 1187              		.loc 5 280 0
 1188 003c 3869     		ldr	r0, [r7, #16]
 1189 003e FFF7FEFF 		bl	lv_obj_del
 281:..\..\..\lvgl\version_6.1.2\lvgl\src\lv_objx/lv_list.c ****             ext->size--;
 1190              		.loc 5 281 0
 1191 0042 FB68     		ldr	r3, [r7, #12]
 1192 0044 B3F84830 		ldrh	r3, [r3, #72]
 1193 0048 013B     		subs	r3, r3, #1
 1194 004a 9AB2     		uxth	r2, r3
 1195 004c FB68     		ldr	r3, [r7, #12]
 1196 004e A3F84820 		strh	r2, [r3, #72]	@ movhi
 282:..\..\..\lvgl\version_6.1.2\lvgl\src\lv_objx/lv_list.c ****             return true;
 1197              		.loc 5 282 0
 1198 0052 0123     		movs	r3, #1
 1199 0054 0BE0     		b	.L45
 1200              	.L47:
 283:..\..\..\lvgl\version_6.1.2\lvgl\src\lv_objx/lv_list.c ****         }
 284:..\..\..\lvgl\version_6.1.2\lvgl\src\lv_objx/lv_list.c ****         e = lv_list_get_next_btn(list, e);
 1201              		.loc 5 284 0
 1202 0056 3969     		ldr	r1, [r7, #16]
 1203 0058 7868     		ldr	r0, [r7, #4]
 1204 005a FFF7FEFF 		bl	lv_list_get_next_btn
 1205 005e 3861     		str	r0, [r7, #16]
 285:..\..\..\lvgl\version_6.1.2\lvgl\src\lv_objx/lv_list.c ****         count++;
 1206              		.loc 5 285 0
 1207 0060 FB8A     		ldrh	r3, [r7, #22]
 1208 0062 0133     		adds	r3, r3, #1
 1209 0064 FB82     		strh	r3, [r7, #22]	@ movhi
 1210              	.L46:
 278:..\..\..\lvgl\version_6.1.2\lvgl\src\lv_objx/lv_list.c ****         if(count == index) {
 1211              		.loc 5 278 0
ARM GAS  C:\Users\tmj32\AppData\Local\Temp\ccUUfkkI.s 			page 44


 1212 0066 3B69     		ldr	r3, [r7, #16]
 1213 0068 002B     		cmp	r3, #0
 1214 006a E3D1     		bne	.L48
 286:..\..\..\lvgl\version_6.1.2\lvgl\src\lv_objx/lv_list.c ****     }
 287:..\..\..\lvgl\version_6.1.2\lvgl\src\lv_objx/lv_list.c ****     return false;
 1215              		.loc 5 287 0
 1216 006c 0023     		movs	r3, #0
 1217              	.L45:
 288:..\..\..\lvgl\version_6.1.2\lvgl\src\lv_objx/lv_list.c **** }
 1218              		.loc 5 288 0
 1219 006e 1846     		mov	r0, r3
 1220 0070 1837     		adds	r7, r7, #24
 1221              		.cfi_def_cfa_offset 8
 1222 0072 BD46     		mov	sp, r7
 1223              		.cfi_def_cfa_register 13
 1224              		@ sp needed
 1225 0074 80BD     		pop	{r7, pc}
 1226              		.cfi_endproc
 1227              	.LFE72:
 1228              		.size	lv_list_remove, .-lv_list_remove
 1229 0076 00BF     		.section	.text.lv_list_set_single_mode,"ax",%progbits
 1230              		.align	2
 1231              		.global	lv_list_set_single_mode
 1232              		.thumb
 1233              		.thumb_func
 1234              		.type	lv_list_set_single_mode, %function
 1235              	lv_list_set_single_mode:
 1236              	.LFB73:
 289:..\..\..\lvgl\version_6.1.2\lvgl\src\lv_objx/lv_list.c **** 
 290:..\..\..\lvgl\version_6.1.2\lvgl\src\lv_objx/lv_list.c **** /*=====================
 291:..\..\..\lvgl\version_6.1.2\lvgl\src\lv_objx/lv_list.c ****  * Setter functions
 292:..\..\..\lvgl\version_6.1.2\lvgl\src\lv_objx/lv_list.c ****  *====================*/
 293:..\..\..\lvgl\version_6.1.2\lvgl\src\lv_objx/lv_list.c **** 
 294:..\..\..\lvgl\version_6.1.2\lvgl\src\lv_objx/lv_list.c **** /**
 295:..\..\..\lvgl\version_6.1.2\lvgl\src\lv_objx/lv_list.c ****  * Set single button selected mode, only one button will be selected if enabled.
 296:..\..\..\lvgl\version_6.1.2\lvgl\src\lv_objx/lv_list.c ****  * @param list pointer to the currently pressed list object
 297:..\..\..\lvgl\version_6.1.2\lvgl\src\lv_objx/lv_list.c ****  * @param mode, enable(true)/disable(false) single selected mode.
 298:..\..\..\lvgl\version_6.1.2\lvgl\src\lv_objx/lv_list.c ****  */
 299:..\..\..\lvgl\version_6.1.2\lvgl\src\lv_objx/lv_list.c **** void lv_list_set_single_mode(lv_obj_t * list, bool mode)
 300:..\..\..\lvgl\version_6.1.2\lvgl\src\lv_objx/lv_list.c **** {
 1237              		.loc 5 300 0
 1238              		.cfi_startproc
 1239              		@ args = 0, pretend = 0, frame = 16
 1240              		@ frame_needed = 1, uses_anonymous_args = 0
 1241 0000 80B5     		push	{r7, lr}
 1242              		.cfi_def_cfa_offset 8
 1243              		.cfi_offset 7, -8
 1244              		.cfi_offset 14, -4
 1245 0002 84B0     		sub	sp, sp, #16
 1246              		.cfi_def_cfa_offset 24
 1247 0004 00AF     		add	r7, sp, #0
 1248              		.cfi_def_cfa_register 7
 1249 0006 7860     		str	r0, [r7, #4]
 1250 0008 0B46     		mov	r3, r1
 1251 000a FB70     		strb	r3, [r7, #3]
 301:..\..\..\lvgl\version_6.1.2\lvgl\src\lv_objx/lv_list.c ****     LV_ASSERT_OBJ(list, LV_OBJX_NAME);
 302:..\..\..\lvgl\version_6.1.2\lvgl\src\lv_objx/lv_list.c **** 
ARM GAS  C:\Users\tmj32\AppData\Local\Temp\ccUUfkkI.s 			page 45


 303:..\..\..\lvgl\version_6.1.2\lvgl\src\lv_objx/lv_list.c ****     lv_list_ext_t * ext = lv_obj_get_ext_attr(list);
 1252              		.loc 5 303 0
 1253 000c 7868     		ldr	r0, [r7, #4]
 1254 000e FFF7FEFF 		bl	lv_obj_get_ext_attr
 1255 0012 F860     		str	r0, [r7, #12]
 304:..\..\..\lvgl\version_6.1.2\lvgl\src\lv_objx/lv_list.c **** 
 305:..\..\..\lvgl\version_6.1.2\lvgl\src\lv_objx/lv_list.c ****     ext->single_mode = mode;
 1256              		.loc 5 305 0
 1257 0014 FA68     		ldr	r2, [r7, #12]
 1258 0016 92F84A30 		ldrb	r3, [r2, #74]
 1259 001a F978     		ldrb	r1, [r7, #3]
 1260 001c 61F30003 		bfi	r3, r1, #0, #1
 1261 0020 82F84A30 		strb	r3, [r2, #74]
 306:..\..\..\lvgl\version_6.1.2\lvgl\src\lv_objx/lv_list.c **** }
 1262              		.loc 5 306 0
 1263 0024 00BF     		nop
 1264 0026 1037     		adds	r7, r7, #16
 1265              		.cfi_def_cfa_offset 8
 1266 0028 BD46     		mov	sp, r7
 1267              		.cfi_def_cfa_register 13
 1268              		@ sp needed
 1269 002a 80BD     		pop	{r7, pc}
 1270              		.cfi_endproc
 1271              	.LFE73:
 1272              		.size	lv_list_set_single_mode, .-lv_list_set_single_mode
 1273              		.section	.text.lv_list_set_style,"ax",%progbits
 1274              		.align	2
 1275              		.global	lv_list_set_style
 1276              		.thumb
 1277              		.thumb_func
 1278              		.type	lv_list_set_style, %function
 1279              	lv_list_set_style:
 1280              	.LFB74:
 307:..\..\..\lvgl\version_6.1.2\lvgl\src\lv_objx/lv_list.c **** 
 308:..\..\..\lvgl\version_6.1.2\lvgl\src\lv_objx/lv_list.c **** #if LV_USE_GROUP
 309:..\..\..\lvgl\version_6.1.2\lvgl\src\lv_objx/lv_list.c **** 
 310:..\..\..\lvgl\version_6.1.2\lvgl\src\lv_objx/lv_list.c **** /**
 311:..\..\..\lvgl\version_6.1.2\lvgl\src\lv_objx/lv_list.c ****  * Make a button selected
 312:..\..\..\lvgl\version_6.1.2\lvgl\src\lv_objx/lv_list.c ****  * @param list pointer to a list object
 313:..\..\..\lvgl\version_6.1.2\lvgl\src\lv_objx/lv_list.c ****  * @param btn pointer to a button to select
 314:..\..\..\lvgl\version_6.1.2\lvgl\src\lv_objx/lv_list.c ****  *            NULL to not select any buttons
 315:..\..\..\lvgl\version_6.1.2\lvgl\src\lv_objx/lv_list.c ****  */
 316:..\..\..\lvgl\version_6.1.2\lvgl\src\lv_objx/lv_list.c **** void lv_list_set_btn_selected(lv_obj_t * list, lv_obj_t * btn)
 317:..\..\..\lvgl\version_6.1.2\lvgl\src\lv_objx/lv_list.c **** {
 318:..\..\..\lvgl\version_6.1.2\lvgl\src\lv_objx/lv_list.c ****     LV_ASSERT_OBJ(list, LV_OBJX_NAME);
 319:..\..\..\lvgl\version_6.1.2\lvgl\src\lv_objx/lv_list.c ****     if(btn) LV_ASSERT_OBJ(list, "lv_btn");
 320:..\..\..\lvgl\version_6.1.2\lvgl\src\lv_objx/lv_list.c **** 
 321:..\..\..\lvgl\version_6.1.2\lvgl\src\lv_objx/lv_list.c ****     lv_list_ext_t * ext = lv_obj_get_ext_attr(list);
 322:..\..\..\lvgl\version_6.1.2\lvgl\src\lv_objx/lv_list.c **** 
 323:..\..\..\lvgl\version_6.1.2\lvgl\src\lv_objx/lv_list.c ****     if(ext->selected_btn) {
 324:..\..\..\lvgl\version_6.1.2\lvgl\src\lv_objx/lv_list.c ****         lv_btn_state_t s = lv_btn_get_state(ext->selected_btn);
 325:..\..\..\lvgl\version_6.1.2\lvgl\src\lv_objx/lv_list.c ****         if(s == LV_BTN_STATE_PR)
 326:..\..\..\lvgl\version_6.1.2\lvgl\src\lv_objx/lv_list.c ****             lv_btn_set_state(ext->selected_btn, LV_BTN_STATE_REL);
 327:..\..\..\lvgl\version_6.1.2\lvgl\src\lv_objx/lv_list.c ****         else if(s == LV_BTN_STATE_TGL_PR)
 328:..\..\..\lvgl\version_6.1.2\lvgl\src\lv_objx/lv_list.c ****             lv_btn_set_state(ext->selected_btn, LV_BTN_STATE_TGL_REL);
 329:..\..\..\lvgl\version_6.1.2\lvgl\src\lv_objx/lv_list.c ****     }
 330:..\..\..\lvgl\version_6.1.2\lvgl\src\lv_objx/lv_list.c **** 
ARM GAS  C:\Users\tmj32\AppData\Local\Temp\ccUUfkkI.s 			page 46


 331:..\..\..\lvgl\version_6.1.2\lvgl\src\lv_objx/lv_list.c ****     ext->selected_btn = btn;
 332:..\..\..\lvgl\version_6.1.2\lvgl\src\lv_objx/lv_list.c **** 
 333:..\..\..\lvgl\version_6.1.2\lvgl\src\lv_objx/lv_list.c ****     /*Don't forget which button was selected.
 334:..\..\..\lvgl\version_6.1.2\lvgl\src\lv_objx/lv_list.c ****      * It will be restored when the list is focused.*/
 335:..\..\..\lvgl\version_6.1.2\lvgl\src\lv_objx/lv_list.c ****     if(btn != NULL) {
 336:..\..\..\lvgl\version_6.1.2\lvgl\src\lv_objx/lv_list.c ****         ext->last_sel = btn;
 337:..\..\..\lvgl\version_6.1.2\lvgl\src\lv_objx/lv_list.c ****     }
 338:..\..\..\lvgl\version_6.1.2\lvgl\src\lv_objx/lv_list.c **** 
 339:..\..\..\lvgl\version_6.1.2\lvgl\src\lv_objx/lv_list.c ****     if(ext->selected_btn) {
 340:..\..\..\lvgl\version_6.1.2\lvgl\src\lv_objx/lv_list.c ****         lv_btn_state_t s = lv_btn_get_state(ext->selected_btn);
 341:..\..\..\lvgl\version_6.1.2\lvgl\src\lv_objx/lv_list.c ****         if(s == LV_BTN_STATE_REL)
 342:..\..\..\lvgl\version_6.1.2\lvgl\src\lv_objx/lv_list.c ****             lv_btn_set_state(ext->selected_btn, LV_BTN_STATE_PR);
 343:..\..\..\lvgl\version_6.1.2\lvgl\src\lv_objx/lv_list.c ****         else if(s == LV_BTN_STATE_TGL_REL)
 344:..\..\..\lvgl\version_6.1.2\lvgl\src\lv_objx/lv_list.c ****             lv_btn_set_state(ext->selected_btn, LV_BTN_STATE_TGL_PR);
 345:..\..\..\lvgl\version_6.1.2\lvgl\src\lv_objx/lv_list.c **** 
 346:..\..\..\lvgl\version_6.1.2\lvgl\src\lv_objx/lv_list.c ****         lv_page_focus(list, ext->selected_btn, LV_ANIM_ON);
 347:..\..\..\lvgl\version_6.1.2\lvgl\src\lv_objx/lv_list.c ****     }
 348:..\..\..\lvgl\version_6.1.2\lvgl\src\lv_objx/lv_list.c **** }
 349:..\..\..\lvgl\version_6.1.2\lvgl\src\lv_objx/lv_list.c **** 
 350:..\..\..\lvgl\version_6.1.2\lvgl\src\lv_objx/lv_list.c **** #endif
 351:..\..\..\lvgl\version_6.1.2\lvgl\src\lv_objx/lv_list.c **** 
 352:..\..\..\lvgl\version_6.1.2\lvgl\src\lv_objx/lv_list.c **** /**
 353:..\..\..\lvgl\version_6.1.2\lvgl\src\lv_objx/lv_list.c ****  * Set a style of a list
 354:..\..\..\lvgl\version_6.1.2\lvgl\src\lv_objx/lv_list.c ****  * @param list pointer to a list object
 355:..\..\..\lvgl\version_6.1.2\lvgl\src\lv_objx/lv_list.c ****  * @param type which style should be set
 356:..\..\..\lvgl\version_6.1.2\lvgl\src\lv_objx/lv_list.c ****  * @param style pointer to a style
 357:..\..\..\lvgl\version_6.1.2\lvgl\src\lv_objx/lv_list.c ****  */
 358:..\..\..\lvgl\version_6.1.2\lvgl\src\lv_objx/lv_list.c **** void lv_list_set_style(lv_obj_t * list, lv_list_style_t type, const lv_style_t * style)
 359:..\..\..\lvgl\version_6.1.2\lvgl\src\lv_objx/lv_list.c **** {
 1281              		.loc 5 359 0
 1282              		.cfi_startproc
 1283              		@ args = 0, pretend = 0, frame = 32
 1284              		@ frame_needed = 1, uses_anonymous_args = 0
 1285 0000 80B5     		push	{r7, lr}
 1286              		.cfi_def_cfa_offset 8
 1287              		.cfi_offset 7, -8
 1288              		.cfi_offset 14, -4
 1289 0002 88B0     		sub	sp, sp, #32
 1290              		.cfi_def_cfa_offset 40
 1291 0004 00AF     		add	r7, sp, #0
 1292              		.cfi_def_cfa_register 7
 1293 0006 F860     		str	r0, [r7, #12]
 1294 0008 0B46     		mov	r3, r1
 1295 000a 7A60     		str	r2, [r7, #4]
 1296 000c FB72     		strb	r3, [r7, #11]
 360:..\..\..\lvgl\version_6.1.2\lvgl\src\lv_objx/lv_list.c ****     LV_ASSERT_OBJ(list, LV_OBJX_NAME);
 361:..\..\..\lvgl\version_6.1.2\lvgl\src\lv_objx/lv_list.c **** 
 362:..\..\..\lvgl\version_6.1.2\lvgl\src\lv_objx/lv_list.c ****     lv_list_ext_t * ext           = lv_obj_get_ext_attr(list);
 1297              		.loc 5 362 0
 1298 000e F868     		ldr	r0, [r7, #12]
 1299 0010 FFF7FEFF 		bl	lv_obj_get_ext_attr
 1300 0014 7861     		str	r0, [r7, #20]
 363:..\..\..\lvgl\version_6.1.2\lvgl\src\lv_objx/lv_list.c ****     lv_btn_style_t btn_style_refr = LV_BTN_STYLE_REL;
 1301              		.loc 5 363 0
 1302 0016 0023     		movs	r3, #0
 1303 0018 FB77     		strb	r3, [r7, #31]
 364:..\..\..\lvgl\version_6.1.2\lvgl\src\lv_objx/lv_list.c ****     lv_obj_t * btn;
ARM GAS  C:\Users\tmj32\AppData\Local\Temp\ccUUfkkI.s 			page 47


 365:..\..\..\lvgl\version_6.1.2\lvgl\src\lv_objx/lv_list.c **** 
 366:..\..\..\lvgl\version_6.1.2\lvgl\src\lv_objx/lv_list.c ****     switch(type) {
 1304              		.loc 5 366 0
 1305 001a FB7A     		ldrb	r3, [r7, #11]	@ zero_extendqisi2
 1306 001c 082B     		cmp	r3, #8
 1307 001e 4BD8     		bhi	.L51
 1308 0020 01A2     		adr	r2, .L53
 1309 0022 52F823F0 		ldr	pc, [r2, r3, lsl #2]
 1310 0026 00BF     		.p2align 2
 1311              	.L53:
 1312 0028 4D000000 		.word	.L52+1
 1313 002c 59000000 		.word	.L54+1
 1314 0030 65000000 		.word	.L55+1
 1315 0034 71000000 		.word	.L56+1
 1316 0038 7D000000 		.word	.L57+1
 1317 003c 89000000 		.word	.L58+1
 1318 0040 95000000 		.word	.L59+1
 1319 0044 A1000000 		.word	.L60+1
 1320 0048 AD000000 		.word	.L61+1
 1321              		.p2align 1
 1322              	.L52:
 367:..\..\..\lvgl\version_6.1.2\lvgl\src\lv_objx/lv_list.c ****         case LV_LIST_STYLE_BG:
 368:..\..\..\lvgl\version_6.1.2\lvgl\src\lv_objx/lv_list.c ****             lv_page_set_style(list, LV_PAGE_STYLE_BG, style);
 1323              		.loc 5 368 0
 1324 004c 7A68     		ldr	r2, [r7, #4]
 1325 004e 0021     		movs	r1, #0
 1326 0050 F868     		ldr	r0, [r7, #12]
 1327 0052 FFF7FEFF 		bl	lv_page_set_style
 369:..\..\..\lvgl\version_6.1.2\lvgl\src\lv_objx/lv_list.c ****             /*style change signal will call 'refr_btn_width' */
 370:..\..\..\lvgl\version_6.1.2\lvgl\src\lv_objx/lv_list.c ****             break;
 1328              		.loc 5 370 0
 1329 0056 2FE0     		b	.L51
 1330              	.L54:
 371:..\..\..\lvgl\version_6.1.2\lvgl\src\lv_objx/lv_list.c ****         case LV_LIST_STYLE_SCRL: lv_page_set_style(list, LV_PAGE_STYLE_SCRL, style); break;
 1331              		.loc 5 371 0
 1332 0058 7A68     		ldr	r2, [r7, #4]
 1333 005a 0121     		movs	r1, #1
 1334 005c F868     		ldr	r0, [r7, #12]
 1335 005e FFF7FEFF 		bl	lv_page_set_style
 1336 0062 29E0     		b	.L51
 1337              	.L55:
 372:..\..\..\lvgl\version_6.1.2\lvgl\src\lv_objx/lv_list.c ****         case LV_LIST_STYLE_SB: lv_page_set_style(list, LV_PAGE_STYLE_SB, style); break;
 1338              		.loc 5 372 0
 1339 0064 7A68     		ldr	r2, [r7, #4]
 1340 0066 0221     		movs	r1, #2
 1341 0068 F868     		ldr	r0, [r7, #12]
 1342 006a FFF7FEFF 		bl	lv_page_set_style
 1343 006e 23E0     		b	.L51
 1344              	.L56:
 373:..\..\..\lvgl\version_6.1.2\lvgl\src\lv_objx/lv_list.c ****         case LV_LIST_STYLE_EDGE_FLASH: lv_page_set_style(list, LV_PAGE_STYLE_EDGE_FLASH, style); br
 1345              		.loc 5 373 0
 1346 0070 7A68     		ldr	r2, [r7, #4]
 1347 0072 0321     		movs	r1, #3
 1348 0074 F868     		ldr	r0, [r7, #12]
 1349 0076 FFF7FEFF 		bl	lv_page_set_style
 1350 007a 1DE0     		b	.L51
 1351              	.L57:
ARM GAS  C:\Users\tmj32\AppData\Local\Temp\ccUUfkkI.s 			page 48


 374:..\..\..\lvgl\version_6.1.2\lvgl\src\lv_objx/lv_list.c ****         case LV_LIST_STYLE_BTN_REL:
 375:..\..\..\lvgl\version_6.1.2\lvgl\src\lv_objx/lv_list.c ****             ext->styles_btn[LV_BTN_STATE_REL] = style;
 1352              		.loc 5 375 0
 1353 007c 7B69     		ldr	r3, [r7, #20]
 1354 007e 7A68     		ldr	r2, [r7, #4]
 1355 0080 1A63     		str	r2, [r3, #48]
 376:..\..\..\lvgl\version_6.1.2\lvgl\src\lv_objx/lv_list.c ****             btn_style_refr                    = LV_BTN_STYLE_REL;
 1356              		.loc 5 376 0
 1357 0082 0023     		movs	r3, #0
 1358 0084 FB77     		strb	r3, [r7, #31]
 377:..\..\..\lvgl\version_6.1.2\lvgl\src\lv_objx/lv_list.c ****             break;
 1359              		.loc 5 377 0
 1360 0086 17E0     		b	.L51
 1361              	.L58:
 378:..\..\..\lvgl\version_6.1.2\lvgl\src\lv_objx/lv_list.c ****         case LV_LIST_STYLE_BTN_PR:
 379:..\..\..\lvgl\version_6.1.2\lvgl\src\lv_objx/lv_list.c ****             ext->styles_btn[LV_BTN_STATE_PR] = style;
 1362              		.loc 5 379 0
 1363 0088 7B69     		ldr	r3, [r7, #20]
 1364 008a 7A68     		ldr	r2, [r7, #4]
 1365 008c 5A63     		str	r2, [r3, #52]
 380:..\..\..\lvgl\version_6.1.2\lvgl\src\lv_objx/lv_list.c ****             btn_style_refr                   = LV_BTN_STYLE_PR;
 1366              		.loc 5 380 0
 1367 008e 0123     		movs	r3, #1
 1368 0090 FB77     		strb	r3, [r7, #31]
 381:..\..\..\lvgl\version_6.1.2\lvgl\src\lv_objx/lv_list.c ****             break;
 1369              		.loc 5 381 0
 1370 0092 11E0     		b	.L51
 1371              	.L59:
 382:..\..\..\lvgl\version_6.1.2\lvgl\src\lv_objx/lv_list.c ****         case LV_LIST_STYLE_BTN_TGL_REL:
 383:..\..\..\lvgl\version_6.1.2\lvgl\src\lv_objx/lv_list.c ****             ext->styles_btn[LV_BTN_STATE_TGL_REL] = style;
 1372              		.loc 5 383 0
 1373 0094 7B69     		ldr	r3, [r7, #20]
 1374 0096 7A68     		ldr	r2, [r7, #4]
 1375 0098 9A63     		str	r2, [r3, #56]
 384:..\..\..\lvgl\version_6.1.2\lvgl\src\lv_objx/lv_list.c ****             btn_style_refr                        = LV_BTN_STYLE_TGL_REL;
 1376              		.loc 5 384 0
 1377 009a 0223     		movs	r3, #2
 1378 009c FB77     		strb	r3, [r7, #31]
 385:..\..\..\lvgl\version_6.1.2\lvgl\src\lv_objx/lv_list.c ****             break;
 1379              		.loc 5 385 0
 1380 009e 0BE0     		b	.L51
 1381              	.L60:
 386:..\..\..\lvgl\version_6.1.2\lvgl\src\lv_objx/lv_list.c ****         case LV_LIST_STYLE_BTN_TGL_PR:
 387:..\..\..\lvgl\version_6.1.2\lvgl\src\lv_objx/lv_list.c ****             ext->styles_btn[LV_BTN_STATE_TGL_PR] = style;
 1382              		.loc 5 387 0
 1383 00a0 7B69     		ldr	r3, [r7, #20]
 1384 00a2 7A68     		ldr	r2, [r7, #4]
 1385 00a4 DA63     		str	r2, [r3, #60]
 388:..\..\..\lvgl\version_6.1.2\lvgl\src\lv_objx/lv_list.c ****             btn_style_refr                       = LV_BTN_STYLE_TGL_PR;
 1386              		.loc 5 388 0
 1387 00a6 0323     		movs	r3, #3
 1388 00a8 FB77     		strb	r3, [r7, #31]
 389:..\..\..\lvgl\version_6.1.2\lvgl\src\lv_objx/lv_list.c ****             break;
 1389              		.loc 5 389 0
 1390 00aa 05E0     		b	.L51
 1391              	.L61:
 390:..\..\..\lvgl\version_6.1.2\lvgl\src\lv_objx/lv_list.c ****         case LV_LIST_STYLE_BTN_INA:
ARM GAS  C:\Users\tmj32\AppData\Local\Temp\ccUUfkkI.s 			page 49


 391:..\..\..\lvgl\version_6.1.2\lvgl\src\lv_objx/lv_list.c ****             ext->styles_btn[LV_BTN_STATE_INA] = style;
 1392              		.loc 5 391 0
 1393 00ac 7B69     		ldr	r3, [r7, #20]
 1394 00ae 7A68     		ldr	r2, [r7, #4]
 1395 00b0 1A64     		str	r2, [r3, #64]
 392:..\..\..\lvgl\version_6.1.2\lvgl\src\lv_objx/lv_list.c ****             btn_style_refr                    = LV_BTN_STYLE_INA;
 1396              		.loc 5 392 0
 1397 00b2 0423     		movs	r3, #4
 1398 00b4 FB77     		strb	r3, [r7, #31]
 393:..\..\..\lvgl\version_6.1.2\lvgl\src\lv_objx/lv_list.c ****             break;
 1399              		.loc 5 393 0
 1400 00b6 00BF     		nop
 1401              	.L51:
 394:..\..\..\lvgl\version_6.1.2\lvgl\src\lv_objx/lv_list.c ****     }
 395:..\..\..\lvgl\version_6.1.2\lvgl\src\lv_objx/lv_list.c **** 
 396:..\..\..\lvgl\version_6.1.2\lvgl\src\lv_objx/lv_list.c ****     /*Refresh existing buttons' style*/
 397:..\..\..\lvgl\version_6.1.2\lvgl\src\lv_objx/lv_list.c ****     if(type == LV_LIST_STYLE_BTN_PR || type == LV_LIST_STYLE_BTN_REL || type == LV_LIST_STYLE_BTN_T
 1402              		.loc 5 397 0
 1403 00b8 FB7A     		ldrb	r3, [r7, #11]	@ zero_extendqisi2
 1404 00ba 052B     		cmp	r3, #5
 1405 00bc 0BD0     		beq	.L62
 1406              		.loc 5 397 0 is_stmt 0 discriminator 1
 1407 00be FB7A     		ldrb	r3, [r7, #11]	@ zero_extendqisi2
 1408 00c0 042B     		cmp	r3, #4
 1409 00c2 08D0     		beq	.L62
 1410              		.loc 5 397 0 discriminator 2
 1411 00c4 FB7A     		ldrb	r3, [r7, #11]	@ zero_extendqisi2
 1412 00c6 062B     		cmp	r3, #6
 1413 00c8 05D0     		beq	.L62
 1414              		.loc 5 397 0 discriminator 3
 1415 00ca FB7A     		ldrb	r3, [r7, #11]	@ zero_extendqisi2
 1416 00cc 072B     		cmp	r3, #7
 1417 00ce 02D0     		beq	.L62
 398:..\..\..\lvgl\version_6.1.2\lvgl\src\lv_objx/lv_list.c ****        type == LV_LIST_STYLE_BTN_TGL_PR || type == LV_LIST_STYLE_BTN_INA) {
 1418              		.loc 5 398 0 is_stmt 1
 1419 00d0 FB7A     		ldrb	r3, [r7, #11]	@ zero_extendqisi2
 1420 00d2 082B     		cmp	r3, #8
 1421 00d4 17D1     		bne	.L66
 1422              	.L62:
 399:..\..\..\lvgl\version_6.1.2\lvgl\src\lv_objx/lv_list.c ****         btn = lv_list_get_prev_btn(list, NULL);
 1423              		.loc 5 399 0
 1424 00d6 0021     		movs	r1, #0
 1425 00d8 F868     		ldr	r0, [r7, #12]
 1426 00da FFF7FEFF 		bl	lv_list_get_prev_btn
 1427 00de B861     		str	r0, [r7, #24]
 400:..\..\..\lvgl\version_6.1.2\lvgl\src\lv_objx/lv_list.c ****         while(btn != NULL) {
 1428              		.loc 5 400 0
 1429 00e0 0EE0     		b	.L64
 1430              	.L65:
 401:..\..\..\lvgl\version_6.1.2\lvgl\src\lv_objx/lv_list.c ****             lv_btn_set_style(btn, btn_style_refr, ext->styles_btn[btn_style_refr]);
 1431              		.loc 5 401 0
 1432 00e2 FA7F     		ldrb	r2, [r7, #31]	@ zero_extendqisi2
 1433 00e4 7B69     		ldr	r3, [r7, #20]
 1434 00e6 0C32     		adds	r2, r2, #12
 1435 00e8 53F82220 		ldr	r2, [r3, r2, lsl #2]
 1436 00ec FB7F     		ldrb	r3, [r7, #31]	@ zero_extendqisi2
 1437 00ee 1946     		mov	r1, r3
ARM GAS  C:\Users\tmj32\AppData\Local\Temp\ccUUfkkI.s 			page 50


 1438 00f0 B869     		ldr	r0, [r7, #24]
 1439 00f2 FFF7FEFF 		bl	lv_btn_set_style
 402:..\..\..\lvgl\version_6.1.2\lvgl\src\lv_objx/lv_list.c ****             btn = lv_list_get_prev_btn(list, btn);
 1440              		.loc 5 402 0
 1441 00f6 B969     		ldr	r1, [r7, #24]
 1442 00f8 F868     		ldr	r0, [r7, #12]
 1443 00fa FFF7FEFF 		bl	lv_list_get_prev_btn
 1444 00fe B861     		str	r0, [r7, #24]
 1445              	.L64:
 400:..\..\..\lvgl\version_6.1.2\lvgl\src\lv_objx/lv_list.c ****         while(btn != NULL) {
 1446              		.loc 5 400 0
 1447 0100 BB69     		ldr	r3, [r7, #24]
 1448 0102 002B     		cmp	r3, #0
 1449 0104 EDD1     		bne	.L65
 1450              	.L66:
 403:..\..\..\lvgl\version_6.1.2\lvgl\src\lv_objx/lv_list.c ****         }
 404:..\..\..\lvgl\version_6.1.2\lvgl\src\lv_objx/lv_list.c ****     }
 405:..\..\..\lvgl\version_6.1.2\lvgl\src\lv_objx/lv_list.c **** }
 1451              		.loc 5 405 0
 1452 0106 00BF     		nop
 1453 0108 2037     		adds	r7, r7, #32
 1454              		.cfi_def_cfa_offset 8
 1455 010a BD46     		mov	sp, r7
 1456              		.cfi_def_cfa_register 13
 1457              		@ sp needed
 1458 010c 80BD     		pop	{r7, pc}
 1459              		.cfi_endproc
 1460              	.LFE74:
 1461              		.size	lv_list_set_style, .-lv_list_set_style
 1462 010e 00BF     		.section	.text.lv_list_set_layout,"ax",%progbits
 1463              		.align	2
 1464              		.global	lv_list_set_layout
 1465              		.thumb
 1466              		.thumb_func
 1467              		.type	lv_list_set_layout, %function
 1468              	lv_list_set_layout:
 1469              	.LFB75:
 406:..\..\..\lvgl\version_6.1.2\lvgl\src\lv_objx/lv_list.c **** 
 407:..\..\..\lvgl\version_6.1.2\lvgl\src\lv_objx/lv_list.c **** /**
 408:..\..\..\lvgl\version_6.1.2\lvgl\src\lv_objx/lv_list.c ****  * Set layout of a list
 409:..\..\..\lvgl\version_6.1.2\lvgl\src\lv_objx/lv_list.c ****  * @param list pointer to a list object
 410:..\..\..\lvgl\version_6.1.2\lvgl\src\lv_objx/lv_list.c ****  * @param layout which layout should be used
 411:..\..\..\lvgl\version_6.1.2\lvgl\src\lv_objx/lv_list.c ****  */
 412:..\..\..\lvgl\version_6.1.2\lvgl\src\lv_objx/lv_list.c ****  void lv_list_set_layout(lv_obj_t * list, lv_layout_t layout)
 413:..\..\..\lvgl\version_6.1.2\lvgl\src\lv_objx/lv_list.c ****  {
 1470              		.loc 5 413 0
 1471              		.cfi_startproc
 1472              		@ args = 0, pretend = 0, frame = 16
 1473              		@ frame_needed = 1, uses_anonymous_args = 0
 1474 0000 80B5     		push	{r7, lr}
 1475              		.cfi_def_cfa_offset 8
 1476              		.cfi_offset 7, -8
 1477              		.cfi_offset 14, -4
 1478 0002 84B0     		sub	sp, sp, #16
 1479              		.cfi_def_cfa_offset 24
 1480 0004 00AF     		add	r7, sp, #0
 1481              		.cfi_def_cfa_register 7
ARM GAS  C:\Users\tmj32\AppData\Local\Temp\ccUUfkkI.s 			page 51


 1482 0006 7860     		str	r0, [r7, #4]
 1483 0008 0B46     		mov	r3, r1
 1484 000a FB70     		strb	r3, [r7, #3]
 414:..\..\..\lvgl\version_6.1.2\lvgl\src\lv_objx/lv_list.c ****      LV_ASSERT_OBJ(list, LV_OBJX_NAME);
 415:..\..\..\lvgl\version_6.1.2\lvgl\src\lv_objx/lv_list.c **** 
 416:..\..\..\lvgl\version_6.1.2\lvgl\src\lv_objx/lv_list.c **** 	/* Update list layout if necessary */
 417:..\..\..\lvgl\version_6.1.2\lvgl\src\lv_objx/lv_list.c **** 	if (layout == lv_list_get_layout(list)) return;
 1485              		.loc 5 417 0
 1486 000c 7868     		ldr	r0, [r7, #4]
 1487 000e FFF7FEFF 		bl	lv_list_get_layout
 1488 0012 0346     		mov	r3, r0
 1489 0014 1A46     		mov	r2, r3
 1490 0016 FB78     		ldrb	r3, [r7, #3]	@ zero_extendqisi2
 1491 0018 9342     		cmp	r3, r2
 1492 001a 51D0     		beq	.L80
 418:..\..\..\lvgl\version_6.1.2\lvgl\src\lv_objx/lv_list.c **** 
 419:..\..\..\lvgl\version_6.1.2\lvgl\src\lv_objx/lv_list.c ****     /* Get the first button on the list */
 420:..\..\..\lvgl\version_6.1.2\lvgl\src\lv_objx/lv_list.c ****     lv_obj_t * btn = lv_list_get_prev_btn(list, NULL);
 1493              		.loc 5 420 0
 1494 001c 0021     		movs	r1, #0
 1495 001e 7868     		ldr	r0, [r7, #4]
 1496 0020 FFF7FEFF 		bl	lv_list_get_prev_btn
 1497 0024 F860     		str	r0, [r7, #12]
 421:..\..\..\lvgl\version_6.1.2\lvgl\src\lv_objx/lv_list.c **** 
 422:..\..\..\lvgl\version_6.1.2\lvgl\src\lv_objx/lv_list.c ****     /* Visit all buttons on the list and update their layout  */
 423:..\..\..\lvgl\version_6.1.2\lvgl\src\lv_objx/lv_list.c ****     while(btn != NULL) {
 1498              		.loc 5 423 0
 1499 0026 20E0     		b	.L70
 1500              	.L75:
 424:..\..\..\lvgl\version_6.1.2\lvgl\src\lv_objx/lv_list.c ****         /*If a column layout set the buttons' width to list width*/
 425:..\..\..\lvgl\version_6.1.2\lvgl\src\lv_objx/lv_list.c ****         if(layout == LV_LAYOUT_COL_M || layout == LV_LAYOUT_COL_L || layout == LV_LAYOUT_COL_R) {
 1501              		.loc 5 425 0
 1502 0028 FB78     		ldrb	r3, [r7, #3]	@ zero_extendqisi2
 1503 002a 032B     		cmp	r3, #3
 1504 002c 05D0     		beq	.L71
 1505              		.loc 5 425 0 is_stmt 0 discriminator 1
 1506 002e FB78     		ldrb	r3, [r7, #3]	@ zero_extendqisi2
 1507 0030 022B     		cmp	r3, #2
 1508 0032 02D0     		beq	.L71
 1509              		.loc 5 425 0 discriminator 2
 1510 0034 FB78     		ldrb	r3, [r7, #3]	@ zero_extendqisi2
 1511 0036 042B     		cmp	r3, #4
 1512 0038 05D1     		bne	.L72
 1513              	.L71:
 426:..\..\..\lvgl\version_6.1.2\lvgl\src\lv_objx/lv_list.c ****             lv_btn_set_fit2(btn, LV_FIT_FLOOD, LV_FIT_TIGHT);
 1514              		.loc 5 426 0 is_stmt 1
 1515 003a 0122     		movs	r2, #1
 1516 003c 0221     		movs	r1, #2
 1517 003e F868     		ldr	r0, [r7, #12]
 1518 0040 FFF7FEFF 		bl	lv_btn_set_fit2
 1519 0044 0CE0     		b	.L73
 1520              	.L72:
 427:..\..\..\lvgl\version_6.1.2\lvgl\src\lv_objx/lv_list.c ****         }
 428:..\..\..\lvgl\version_6.1.2\lvgl\src\lv_objx/lv_list.c ****         /*If a row layout set the buttons' width according to the content*/
 429:..\..\..\lvgl\version_6.1.2\lvgl\src\lv_objx/lv_list.c ****         else if (layout == LV_LAYOUT_ROW_M || layout == LV_LAYOUT_ROW_T || layout == LV_LAYOUT_ROW_
 1521              		.loc 5 429 0
 1522 0046 FB78     		ldrb	r3, [r7, #3]	@ zero_extendqisi2
ARM GAS  C:\Users\tmj32\AppData\Local\Temp\ccUUfkkI.s 			page 52


 1523 0048 062B     		cmp	r3, #6
 1524 004a 05D0     		beq	.L74
 1525              		.loc 5 429 0 is_stmt 0 discriminator 1
 1526 004c FB78     		ldrb	r3, [r7, #3]	@ zero_extendqisi2
 1527 004e 052B     		cmp	r3, #5
 1528 0050 02D0     		beq	.L74
 1529              		.loc 5 429 0 discriminator 2
 1530 0052 FB78     		ldrb	r3, [r7, #3]	@ zero_extendqisi2
 1531 0054 072B     		cmp	r3, #7
 1532 0056 03D1     		bne	.L73
 1533              	.L74:
 430:..\..\..\lvgl\version_6.1.2\lvgl\src\lv_objx/lv_list.c ****             lv_btn_set_fit(btn, LV_FIT_TIGHT);
 1534              		.loc 5 430 0 is_stmt 1
 1535 0058 0121     		movs	r1, #1
 1536 005a F868     		ldr	r0, [r7, #12]
 1537 005c FFF7FEFF 		bl	lv_btn_set_fit
 1538              	.L73:
 431:..\..\..\lvgl\version_6.1.2\lvgl\src\lv_objx/lv_list.c ****         }
 432:..\..\..\lvgl\version_6.1.2\lvgl\src\lv_objx/lv_list.c **** 
 433:..\..\..\lvgl\version_6.1.2\lvgl\src\lv_objx/lv_list.c ****         btn = lv_list_get_prev_btn(list, btn);
 1539              		.loc 5 433 0
 1540 0060 F968     		ldr	r1, [r7, #12]
 1541 0062 7868     		ldr	r0, [r7, #4]
 1542 0064 FFF7FEFF 		bl	lv_list_get_prev_btn
 1543 0068 F860     		str	r0, [r7, #12]
 1544              	.L70:
 423:..\..\..\lvgl\version_6.1.2\lvgl\src\lv_objx/lv_list.c ****         /*If a column layout set the buttons' width to list width*/
 1545              		.loc 5 423 0
 1546 006a FB68     		ldr	r3, [r7, #12]
 1547 006c 002B     		cmp	r3, #0
 1548 006e DBD1     		bne	.L75
 434:..\..\..\lvgl\version_6.1.2\lvgl\src\lv_objx/lv_list.c ****     }
 435:..\..\..\lvgl\version_6.1.2\lvgl\src\lv_objx/lv_list.c **** 
 436:..\..\..\lvgl\version_6.1.2\lvgl\src\lv_objx/lv_list.c ****     if(layout == LV_LAYOUT_COL_M || layout == LV_LAYOUT_COL_L || layout == LV_LAYOUT_COL_R) {
 1549              		.loc 5 436 0
 1550 0070 FB78     		ldrb	r3, [r7, #3]	@ zero_extendqisi2
 1551 0072 032B     		cmp	r3, #3
 1552 0074 05D0     		beq	.L76
 1553              		.loc 5 436 0 is_stmt 0 discriminator 1
 1554 0076 FB78     		ldrb	r3, [r7, #3]	@ zero_extendqisi2
 1555 0078 022B     		cmp	r3, #2
 1556 007a 02D0     		beq	.L76
 1557              		.loc 5 436 0 discriminator 2
 1558 007c FB78     		ldrb	r3, [r7, #3]	@ zero_extendqisi2
 1559 007e 042B     		cmp	r3, #4
 1560 0080 05D1     		bne	.L77
 1561              	.L76:
 437:..\..\..\lvgl\version_6.1.2\lvgl\src\lv_objx/lv_list.c ****         lv_page_set_scrl_fit2(list, LV_FIT_FLOOD, LV_FIT_TIGHT);
 1562              		.loc 5 437 0 is_stmt 1
 1563 0082 0122     		movs	r2, #1
 1564 0084 0221     		movs	r1, #2
 1565 0086 7868     		ldr	r0, [r7, #4]
 1566 0088 FFF7FEFF 		bl	lv_page_set_scrl_fit2
 1567 008c 12E0     		b	.L78
 1568              	.L77:
 438:..\..\..\lvgl\version_6.1.2\lvgl\src\lv_objx/lv_list.c ****     } else if (layout == LV_LAYOUT_ROW_M || layout == LV_LAYOUT_ROW_T || layout == LV_LAYOUT_ROW_B)
 1569              		.loc 5 438 0
ARM GAS  C:\Users\tmj32\AppData\Local\Temp\ccUUfkkI.s 			page 53


 1570 008e FB78     		ldrb	r3, [r7, #3]	@ zero_extendqisi2
 1571 0090 062B     		cmp	r3, #6
 1572 0092 05D0     		beq	.L79
 1573              		.loc 5 438 0 is_stmt 0 discriminator 1
 1574 0094 FB78     		ldrb	r3, [r7, #3]	@ zero_extendqisi2
 1575 0096 052B     		cmp	r3, #5
 1576 0098 02D0     		beq	.L79
 1577              		.loc 5 438 0 discriminator 2
 1578 009a FB78     		ldrb	r3, [r7, #3]	@ zero_extendqisi2
 1579 009c 072B     		cmp	r3, #7
 1580 009e 09D1     		bne	.L78
 1581              	.L79:
 439:..\..\..\lvgl\version_6.1.2\lvgl\src\lv_objx/lv_list.c ****         lv_page_set_scrl_fit2(list, LV_FIT_TIGHT, LV_FIT_TIGHT);
 1582              		.loc 5 439 0 is_stmt 1
 1583 00a0 0122     		movs	r2, #1
 1584 00a2 0121     		movs	r1, #1
 1585 00a4 7868     		ldr	r0, [r7, #4]
 1586 00a6 FFF7FEFF 		bl	lv_page_set_scrl_fit2
 440:..\..\..\lvgl\version_6.1.2\lvgl\src\lv_objx/lv_list.c ****         lv_cont_set_fit2(list, LV_FIT_NONE, LV_FIT_TIGHT);
 1587              		.loc 5 440 0
 1588 00aa 0122     		movs	r2, #1
 1589 00ac 0021     		movs	r1, #0
 1590 00ae 7868     		ldr	r0, [r7, #4]
 1591 00b0 FFF7FEFF 		bl	lv_cont_set_fit2
 1592              	.L78:
 441:..\..\..\lvgl\version_6.1.2\lvgl\src\lv_objx/lv_list.c ****     }
 442:..\..\..\lvgl\version_6.1.2\lvgl\src\lv_objx/lv_list.c **** 
 443:..\..\..\lvgl\version_6.1.2\lvgl\src\lv_objx/lv_list.c ****     lv_page_set_scrl_layout(list, layout);
 1593              		.loc 5 443 0
 1594 00b4 FB78     		ldrb	r3, [r7, #3]	@ zero_extendqisi2
 1595 00b6 1946     		mov	r1, r3
 1596 00b8 7868     		ldr	r0, [r7, #4]
 1597 00ba FFF7FEFF 		bl	lv_page_set_scrl_layout
 1598 00be 00E0     		b	.L67
 1599              	.L80:
 417:..\..\..\lvgl\version_6.1.2\lvgl\src\lv_objx/lv_list.c **** 
 1600              		.loc 5 417 0
 1601 00c0 00BF     		nop
 1602              	.L67:
 444:..\..\..\lvgl\version_6.1.2\lvgl\src\lv_objx/lv_list.c ****  }
 1603              		.loc 5 444 0
 1604 00c2 1037     		adds	r7, r7, #16
 1605              		.cfi_def_cfa_offset 8
 1606 00c4 BD46     		mov	sp, r7
 1607              		.cfi_def_cfa_register 13
 1608              		@ sp needed
 1609 00c6 80BD     		pop	{r7, pc}
 1610              		.cfi_endproc
 1611              	.LFE75:
 1612              		.size	lv_list_set_layout, .-lv_list_set_layout
 1613              		.section	.text.lv_list_get_single_mode,"ax",%progbits
 1614              		.align	2
 1615              		.global	lv_list_get_single_mode
 1616              		.thumb
 1617              		.thumb_func
 1618              		.type	lv_list_get_single_mode, %function
 1619              	lv_list_get_single_mode:
ARM GAS  C:\Users\tmj32\AppData\Local\Temp\ccUUfkkI.s 			page 54


 1620              	.LFB76:
 445:..\..\..\lvgl\version_6.1.2\lvgl\src\lv_objx/lv_list.c **** 
 446:..\..\..\lvgl\version_6.1.2\lvgl\src\lv_objx/lv_list.c **** /*=====================
 447:..\..\..\lvgl\version_6.1.2\lvgl\src\lv_objx/lv_list.c ****  * Getter functions
 448:..\..\..\lvgl\version_6.1.2\lvgl\src\lv_objx/lv_list.c ****  *====================*/
 449:..\..\..\lvgl\version_6.1.2\lvgl\src\lv_objx/lv_list.c **** 
 450:..\..\..\lvgl\version_6.1.2\lvgl\src\lv_objx/lv_list.c **** /**
 451:..\..\..\lvgl\version_6.1.2\lvgl\src\lv_objx/lv_list.c ****  * Get single button selected mode.
 452:..\..\..\lvgl\version_6.1.2\lvgl\src\lv_objx/lv_list.c ****  * @param list pointer to the currently pressed list object.
 453:..\..\..\lvgl\version_6.1.2\lvgl\src\lv_objx/lv_list.c ****  */
 454:..\..\..\lvgl\version_6.1.2\lvgl\src\lv_objx/lv_list.c **** bool lv_list_get_single_mode(lv_obj_t * list)
 455:..\..\..\lvgl\version_6.1.2\lvgl\src\lv_objx/lv_list.c **** {
 1621              		.loc 5 455 0
 1622              		.cfi_startproc
 1623              		@ args = 0, pretend = 0, frame = 16
 1624              		@ frame_needed = 1, uses_anonymous_args = 0
 1625 0000 80B5     		push	{r7, lr}
 1626              		.cfi_def_cfa_offset 8
 1627              		.cfi_offset 7, -8
 1628              		.cfi_offset 14, -4
 1629 0002 84B0     		sub	sp, sp, #16
 1630              		.cfi_def_cfa_offset 24
 1631 0004 00AF     		add	r7, sp, #0
 1632              		.cfi_def_cfa_register 7
 1633 0006 7860     		str	r0, [r7, #4]
 456:..\..\..\lvgl\version_6.1.2\lvgl\src\lv_objx/lv_list.c ****     LV_ASSERT_OBJ(list, LV_OBJX_NAME);
 457:..\..\..\lvgl\version_6.1.2\lvgl\src\lv_objx/lv_list.c **** 
 458:..\..\..\lvgl\version_6.1.2\lvgl\src\lv_objx/lv_list.c ****     lv_list_ext_t * ext = lv_obj_get_ext_attr(list);
 1634              		.loc 5 458 0
 1635 0008 7868     		ldr	r0, [r7, #4]
 1636 000a FFF7FEFF 		bl	lv_obj_get_ext_attr
 1637 000e F860     		str	r0, [r7, #12]
 459:..\..\..\lvgl\version_6.1.2\lvgl\src\lv_objx/lv_list.c **** 
 460:..\..\..\lvgl\version_6.1.2\lvgl\src\lv_objx/lv_list.c ****     return (ext->single_mode);
 1638              		.loc 5 460 0
 1639 0010 FB68     		ldr	r3, [r7, #12]
 1640 0012 93F84A30 		ldrb	r3, [r3, #74]
 1641 0016 C3F30003 		ubfx	r3, r3, #0, #1
 1642 001a DBB2     		uxtb	r3, r3
 1643 001c 002B     		cmp	r3, #0
 1644 001e 14BF     		ite	ne
 1645 0020 0123     		movne	r3, #1
 1646 0022 0023     		moveq	r3, #0
 1647 0024 DBB2     		uxtb	r3, r3
 461:..\..\..\lvgl\version_6.1.2\lvgl\src\lv_objx/lv_list.c **** }
 1648              		.loc 5 461 0
 1649 0026 1846     		mov	r0, r3
 1650 0028 1037     		adds	r7, r7, #16
 1651              		.cfi_def_cfa_offset 8
 1652 002a BD46     		mov	sp, r7
 1653              		.cfi_def_cfa_register 13
 1654              		@ sp needed
 1655 002c 80BD     		pop	{r7, pc}
 1656              		.cfi_endproc
 1657              	.LFE76:
 1658              		.size	lv_list_get_single_mode, .-lv_list_get_single_mode
 1659 002e 00BF     		.section	.rodata
ARM GAS  C:\Users\tmj32\AppData\Local\Temp\ccUUfkkI.s 			page 55


 1660              		.align	2
 1661              	.LC0:
 1662 0000 00       		.ascii	"\000"
 1663              		.section	.text.lv_list_get_btn_text,"ax",%progbits
 1664              		.align	2
 1665              		.global	lv_list_get_btn_text
 1666              		.thumb
 1667              		.thumb_func
 1668              		.type	lv_list_get_btn_text, %function
 1669              	lv_list_get_btn_text:
 1670              	.LFB77:
 462:..\..\..\lvgl\version_6.1.2\lvgl\src\lv_objx/lv_list.c **** 
 463:..\..\..\lvgl\version_6.1.2\lvgl\src\lv_objx/lv_list.c **** /**
 464:..\..\..\lvgl\version_6.1.2\lvgl\src\lv_objx/lv_list.c ****  * Get the text of a list element
 465:..\..\..\lvgl\version_6.1.2\lvgl\src\lv_objx/lv_list.c ****  * @param btn pointer to list element
 466:..\..\..\lvgl\version_6.1.2\lvgl\src\lv_objx/lv_list.c ****  * @return pointer to the text
 467:..\..\..\lvgl\version_6.1.2\lvgl\src\lv_objx/lv_list.c ****  */
 468:..\..\..\lvgl\version_6.1.2\lvgl\src\lv_objx/lv_list.c **** const char * lv_list_get_btn_text(const lv_obj_t * btn)
 469:..\..\..\lvgl\version_6.1.2\lvgl\src\lv_objx/lv_list.c **** {
 1671              		.loc 5 469 0
 1672              		.cfi_startproc
 1673              		@ args = 0, pretend = 0, frame = 16
 1674              		@ frame_needed = 1, uses_anonymous_args = 0
 1675 0000 80B5     		push	{r7, lr}
 1676              		.cfi_def_cfa_offset 8
 1677              		.cfi_offset 7, -8
 1678              		.cfi_offset 14, -4
 1679 0002 84B0     		sub	sp, sp, #16
 1680              		.cfi_def_cfa_offset 24
 1681 0004 00AF     		add	r7, sp, #0
 1682              		.cfi_def_cfa_register 7
 1683 0006 7860     		str	r0, [r7, #4]
 470:..\..\..\lvgl\version_6.1.2\lvgl\src\lv_objx/lv_list.c ****     LV_ASSERT_OBJ(btn, "lv_btn");
 471:..\..\..\lvgl\version_6.1.2\lvgl\src\lv_objx/lv_list.c **** 
 472:..\..\..\lvgl\version_6.1.2\lvgl\src\lv_objx/lv_list.c ****     lv_obj_t * label = lv_list_get_btn_label(btn);
 1684              		.loc 5 472 0
 1685 0008 7868     		ldr	r0, [r7, #4]
 1686 000a FFF7FEFF 		bl	lv_list_get_btn_label
 1687 000e F860     		str	r0, [r7, #12]
 473:..\..\..\lvgl\version_6.1.2\lvgl\src\lv_objx/lv_list.c ****     if(label == NULL) return "";
 1688              		.loc 5 473 0
 1689 0010 FB68     		ldr	r3, [r7, #12]
 1690 0012 002B     		cmp	r3, #0
 1691 0014 01D1     		bne	.L84
 1692              		.loc 5 473 0 is_stmt 0 discriminator 1
 1693 0016 054B     		ldr	r3, .L86
 1694 0018 03E0     		b	.L85
 1695              	.L84:
 474:..\..\..\lvgl\version_6.1.2\lvgl\src\lv_objx/lv_list.c ****     return lv_label_get_text(label);
 1696              		.loc 5 474 0 is_stmt 1
 1697 001a F868     		ldr	r0, [r7, #12]
 1698 001c FFF7FEFF 		bl	lv_label_get_text
 1699 0020 0346     		mov	r3, r0
 1700              	.L85:
 475:..\..\..\lvgl\version_6.1.2\lvgl\src\lv_objx/lv_list.c **** }
 1701              		.loc 5 475 0
 1702 0022 1846     		mov	r0, r3
ARM GAS  C:\Users\tmj32\AppData\Local\Temp\ccUUfkkI.s 			page 56


 1703 0024 1037     		adds	r7, r7, #16
 1704              		.cfi_def_cfa_offset 8
 1705 0026 BD46     		mov	sp, r7
 1706              		.cfi_def_cfa_register 13
 1707              		@ sp needed
 1708 0028 80BD     		pop	{r7, pc}
 1709              	.L87:
 1710 002a 00BF     		.align	2
 1711              	.L86:
 1712 002c 00000000 		.word	.LC0
 1713              		.cfi_endproc
 1714              	.LFE77:
 1715              		.size	lv_list_get_btn_text, .-lv_list_get_btn_text
 1716              		.section	.text.lv_list_get_btn_label,"ax",%progbits
 1717              		.align	2
 1718              		.global	lv_list_get_btn_label
 1719              		.thumb
 1720              		.thumb_func
 1721              		.type	lv_list_get_btn_label, %function
 1722              	lv_list_get_btn_label:
 1723              	.LFB78:
 476:..\..\..\lvgl\version_6.1.2\lvgl\src\lv_objx/lv_list.c **** 
 477:..\..\..\lvgl\version_6.1.2\lvgl\src\lv_objx/lv_list.c **** /**
 478:..\..\..\lvgl\version_6.1.2\lvgl\src\lv_objx/lv_list.c ****  * Get the label object from a list element
 479:..\..\..\lvgl\version_6.1.2\lvgl\src\lv_objx/lv_list.c ****  * @param btn pointer to a list element (button)
 480:..\..\..\lvgl\version_6.1.2\lvgl\src\lv_objx/lv_list.c ****  * @return pointer to the label from the list element or NULL if not found
 481:..\..\..\lvgl\version_6.1.2\lvgl\src\lv_objx/lv_list.c ****  */
 482:..\..\..\lvgl\version_6.1.2\lvgl\src\lv_objx/lv_list.c **** lv_obj_t * lv_list_get_btn_label(const lv_obj_t * btn)
 483:..\..\..\lvgl\version_6.1.2\lvgl\src\lv_objx/lv_list.c **** {
 1724              		.loc 5 483 0
 1725              		.cfi_startproc
 1726              		@ args = 0, pretend = 0, frame = 16
 1727              		@ frame_needed = 1, uses_anonymous_args = 0
 1728 0000 80B5     		push	{r7, lr}
 1729              		.cfi_def_cfa_offset 8
 1730              		.cfi_offset 7, -8
 1731              		.cfi_offset 14, -4
 1732 0002 84B0     		sub	sp, sp, #16
 1733              		.cfi_def_cfa_offset 24
 1734 0004 00AF     		add	r7, sp, #0
 1735              		.cfi_def_cfa_register 7
 1736 0006 7860     		str	r0, [r7, #4]
 484:..\..\..\lvgl\version_6.1.2\lvgl\src\lv_objx/lv_list.c ****     LV_ASSERT_OBJ(btn, "lv_btn");
 485:..\..\..\lvgl\version_6.1.2\lvgl\src\lv_objx/lv_list.c **** 
 486:..\..\..\lvgl\version_6.1.2\lvgl\src\lv_objx/lv_list.c ****     lv_obj_t * label = lv_obj_get_child(btn, NULL);
 1737              		.loc 5 486 0
 1738 0008 0021     		movs	r1, #0
 1739 000a 7868     		ldr	r0, [r7, #4]
 1740 000c FFF7FEFF 		bl	lv_obj_get_child
 1741 0010 F860     		str	r0, [r7, #12]
 487:..\..\..\lvgl\version_6.1.2\lvgl\src\lv_objx/lv_list.c ****     if(label == NULL) return NULL;
 1742              		.loc 5 487 0
 1743 0012 FB68     		ldr	r3, [r7, #12]
 1744 0014 002B     		cmp	r3, #0
 1745 0016 09D1     		bne	.L91
 1746              		.loc 5 487 0 is_stmt 0 discriminator 1
 1747 0018 0023     		movs	r3, #0
ARM GAS  C:\Users\tmj32\AppData\Local\Temp\ccUUfkkI.s 			page 57


 1748 001a 13E0     		b	.L90
 1749              	.L93:
 488:..\..\..\lvgl\version_6.1.2\lvgl\src\lv_objx/lv_list.c **** 
 489:..\..\..\lvgl\version_6.1.2\lvgl\src\lv_objx/lv_list.c ****     while(lv_list_is_list_label(label) == false) {
 490:..\..\..\lvgl\version_6.1.2\lvgl\src\lv_objx/lv_list.c ****         label = lv_obj_get_child(btn, label);
 1750              		.loc 5 490 0 is_stmt 1
 1751 001c F968     		ldr	r1, [r7, #12]
 1752 001e 7868     		ldr	r0, [r7, #4]
 1753 0020 FFF7FEFF 		bl	lv_obj_get_child
 1754 0024 F860     		str	r0, [r7, #12]
 491:..\..\..\lvgl\version_6.1.2\lvgl\src\lv_objx/lv_list.c ****         if(label == NULL) break;
 1755              		.loc 5 491 0
 1756 0026 FB68     		ldr	r3, [r7, #12]
 1757 0028 002B     		cmp	r3, #0
 1758 002a 09D0     		beq	.L94
 1759              	.L91:
 489:..\..\..\lvgl\version_6.1.2\lvgl\src\lv_objx/lv_list.c ****         label = lv_obj_get_child(btn, label);
 1760              		.loc 5 489 0
 1761 002c F868     		ldr	r0, [r7, #12]
 1762 002e FFF7FEFF 		bl	lv_list_is_list_label
 1763 0032 0346     		mov	r3, r0
 1764 0034 83F00103 		eor	r3, r3, #1
 1765 0038 DBB2     		uxtb	r3, r3
 1766 003a 002B     		cmp	r3, #0
 1767 003c EED1     		bne	.L93
 1768 003e 00E0     		b	.L92
 1769              	.L94:
 1770              		.loc 5 491 0
 1771 0040 00BF     		nop
 1772              	.L92:
 492:..\..\..\lvgl\version_6.1.2\lvgl\src\lv_objx/lv_list.c ****     }
 493:..\..\..\lvgl\version_6.1.2\lvgl\src\lv_objx/lv_list.c **** 
 494:..\..\..\lvgl\version_6.1.2\lvgl\src\lv_objx/lv_list.c ****     return label;
 1773              		.loc 5 494 0
 1774 0042 FB68     		ldr	r3, [r7, #12]
 1775              	.L90:
 495:..\..\..\lvgl\version_6.1.2\lvgl\src\lv_objx/lv_list.c **** }
 1776              		.loc 5 495 0
 1777 0044 1846     		mov	r0, r3
 1778 0046 1037     		adds	r7, r7, #16
 1779              		.cfi_def_cfa_offset 8
 1780 0048 BD46     		mov	sp, r7
 1781              		.cfi_def_cfa_register 13
 1782              		@ sp needed
 1783 004a 80BD     		pop	{r7, pc}
 1784              		.cfi_endproc
 1785              	.LFE78:
 1786              		.size	lv_list_get_btn_label, .-lv_list_get_btn_label
 1787              		.section	.text.lv_list_get_btn_img,"ax",%progbits
 1788              		.align	2
 1789              		.global	lv_list_get_btn_img
 1790              		.thumb
 1791              		.thumb_func
 1792              		.type	lv_list_get_btn_img, %function
 1793              	lv_list_get_btn_img:
 1794              	.LFB79:
 496:..\..\..\lvgl\version_6.1.2\lvgl\src\lv_objx/lv_list.c **** 
ARM GAS  C:\Users\tmj32\AppData\Local\Temp\ccUUfkkI.s 			page 58


 497:..\..\..\lvgl\version_6.1.2\lvgl\src\lv_objx/lv_list.c **** /**
 498:..\..\..\lvgl\version_6.1.2\lvgl\src\lv_objx/lv_list.c ****  * Get the image object from a list element
 499:..\..\..\lvgl\version_6.1.2\lvgl\src\lv_objx/lv_list.c ****  * @param btn pointer to a list element (button)
 500:..\..\..\lvgl\version_6.1.2\lvgl\src\lv_objx/lv_list.c ****  * @return pointer to the image from the list element or NULL if not found
 501:..\..\..\lvgl\version_6.1.2\lvgl\src\lv_objx/lv_list.c ****  */
 502:..\..\..\lvgl\version_6.1.2\lvgl\src\lv_objx/lv_list.c **** lv_obj_t * lv_list_get_btn_img(const lv_obj_t * btn)
 503:..\..\..\lvgl\version_6.1.2\lvgl\src\lv_objx/lv_list.c **** {
 1795              		.loc 5 503 0
 1796              		.cfi_startproc
 1797              		@ args = 0, pretend = 0, frame = 16
 1798              		@ frame_needed = 1, uses_anonymous_args = 0
 1799 0000 80B5     		push	{r7, lr}
 1800              		.cfi_def_cfa_offset 8
 1801              		.cfi_offset 7, -8
 1802              		.cfi_offset 14, -4
 1803 0002 84B0     		sub	sp, sp, #16
 1804              		.cfi_def_cfa_offset 24
 1805 0004 00AF     		add	r7, sp, #0
 1806              		.cfi_def_cfa_register 7
 1807 0006 7860     		str	r0, [r7, #4]
 504:..\..\..\lvgl\version_6.1.2\lvgl\src\lv_objx/lv_list.c ****     LV_ASSERT_OBJ(btn, "lv_btn");
 505:..\..\..\lvgl\version_6.1.2\lvgl\src\lv_objx/lv_list.c **** 
 506:..\..\..\lvgl\version_6.1.2\lvgl\src\lv_objx/lv_list.c **** #if LV_USE_IMG != 0
 507:..\..\..\lvgl\version_6.1.2\lvgl\src\lv_objx/lv_list.c ****     lv_obj_t * img = lv_obj_get_child(btn, NULL);
 1808              		.loc 5 507 0
 1809 0008 0021     		movs	r1, #0
 1810 000a 7868     		ldr	r0, [r7, #4]
 1811 000c FFF7FEFF 		bl	lv_obj_get_child
 1812 0010 F860     		str	r0, [r7, #12]
 508:..\..\..\lvgl\version_6.1.2\lvgl\src\lv_objx/lv_list.c ****     if(img == NULL) return NULL;
 1813              		.loc 5 508 0
 1814 0012 FB68     		ldr	r3, [r7, #12]
 1815 0014 002B     		cmp	r3, #0
 1816 0016 09D1     		bne	.L98
 1817              		.loc 5 508 0 is_stmt 0 discriminator 1
 1818 0018 0023     		movs	r3, #0
 1819 001a 13E0     		b	.L97
 1820              	.L100:
 509:..\..\..\lvgl\version_6.1.2\lvgl\src\lv_objx/lv_list.c **** 
 510:..\..\..\lvgl\version_6.1.2\lvgl\src\lv_objx/lv_list.c ****     while(lv_list_is_list_img(img) == false) {
 511:..\..\..\lvgl\version_6.1.2\lvgl\src\lv_objx/lv_list.c ****         img = lv_obj_get_child(btn, img);
 1821              		.loc 5 511 0 is_stmt 1
 1822 001c F968     		ldr	r1, [r7, #12]
 1823 001e 7868     		ldr	r0, [r7, #4]
 1824 0020 FFF7FEFF 		bl	lv_obj_get_child
 1825 0024 F860     		str	r0, [r7, #12]
 512:..\..\..\lvgl\version_6.1.2\lvgl\src\lv_objx/lv_list.c ****         if(img == NULL) break;
 1826              		.loc 5 512 0
 1827 0026 FB68     		ldr	r3, [r7, #12]
 1828 0028 002B     		cmp	r3, #0
 1829 002a 09D0     		beq	.L101
 1830              	.L98:
 510:..\..\..\lvgl\version_6.1.2\lvgl\src\lv_objx/lv_list.c ****         img = lv_obj_get_child(btn, img);
 1831              		.loc 5 510 0
 1832 002c F868     		ldr	r0, [r7, #12]
 1833 002e FFF7FEFF 		bl	lv_list_is_list_img
 1834 0032 0346     		mov	r3, r0
ARM GAS  C:\Users\tmj32\AppData\Local\Temp\ccUUfkkI.s 			page 59


 1835 0034 83F00103 		eor	r3, r3, #1
 1836 0038 DBB2     		uxtb	r3, r3
 1837 003a 002B     		cmp	r3, #0
 1838 003c EED1     		bne	.L100
 1839 003e 00E0     		b	.L99
 1840              	.L101:
 1841              		.loc 5 512 0
 1842 0040 00BF     		nop
 1843              	.L99:
 513:..\..\..\lvgl\version_6.1.2\lvgl\src\lv_objx/lv_list.c ****     }
 514:..\..\..\lvgl\version_6.1.2\lvgl\src\lv_objx/lv_list.c **** 
 515:..\..\..\lvgl\version_6.1.2\lvgl\src\lv_objx/lv_list.c ****     return img;
 1844              		.loc 5 515 0
 1845 0042 FB68     		ldr	r3, [r7, #12]
 1846              	.L97:
 516:..\..\..\lvgl\version_6.1.2\lvgl\src\lv_objx/lv_list.c **** #else
 517:..\..\..\lvgl\version_6.1.2\lvgl\src\lv_objx/lv_list.c ****     return NULL;
 518:..\..\..\lvgl\version_6.1.2\lvgl\src\lv_objx/lv_list.c **** #endif
 519:..\..\..\lvgl\version_6.1.2\lvgl\src\lv_objx/lv_list.c **** }
 1847              		.loc 5 519 0
 1848 0044 1846     		mov	r0, r3
 1849 0046 1037     		adds	r7, r7, #16
 1850              		.cfi_def_cfa_offset 8
 1851 0048 BD46     		mov	sp, r7
 1852              		.cfi_def_cfa_register 13
 1853              		@ sp needed
 1854 004a 80BD     		pop	{r7, pc}
 1855              		.cfi_endproc
 1856              	.LFE79:
 1857              		.size	lv_list_get_btn_img, .-lv_list_get_btn_img
 1858              		.section	.text.lv_list_get_prev_btn,"ax",%progbits
 1859              		.align	2
 1860              		.global	lv_list_get_prev_btn
 1861              		.thumb
 1862              		.thumb_func
 1863              		.type	lv_list_get_prev_btn, %function
 1864              	lv_list_get_prev_btn:
 1865              	.LFB80:
 520:..\..\..\lvgl\version_6.1.2\lvgl\src\lv_objx/lv_list.c **** 
 521:..\..\..\lvgl\version_6.1.2\lvgl\src\lv_objx/lv_list.c **** /**
 522:..\..\..\lvgl\version_6.1.2\lvgl\src\lv_objx/lv_list.c ****  * Get the previous button from list. (Starts from the bottom button)
 523:..\..\..\lvgl\version_6.1.2\lvgl\src\lv_objx/lv_list.c ****  * @param list pointer to a list object
 524:..\..\..\lvgl\version_6.1.2\lvgl\src\lv_objx/lv_list.c ****  * @param prev_btn pointer to button. Search the previous before it.
 525:..\..\..\lvgl\version_6.1.2\lvgl\src\lv_objx/lv_list.c ****  * @return pointer to the previous button or NULL when no more buttons
 526:..\..\..\lvgl\version_6.1.2\lvgl\src\lv_objx/lv_list.c ****  */
 527:..\..\..\lvgl\version_6.1.2\lvgl\src\lv_objx/lv_list.c **** lv_obj_t * lv_list_get_prev_btn(const lv_obj_t * list, lv_obj_t * prev_btn)
 528:..\..\..\lvgl\version_6.1.2\lvgl\src\lv_objx/lv_list.c **** {
 1866              		.loc 5 528 0
 1867              		.cfi_startproc
 1868              		@ args = 0, pretend = 0, frame = 16
 1869              		@ frame_needed = 1, uses_anonymous_args = 0
 1870 0000 80B5     		push	{r7, lr}
 1871              		.cfi_def_cfa_offset 8
 1872              		.cfi_offset 7, -8
 1873              		.cfi_offset 14, -4
 1874 0002 84B0     		sub	sp, sp, #16
 1875              		.cfi_def_cfa_offset 24
ARM GAS  C:\Users\tmj32\AppData\Local\Temp\ccUUfkkI.s 			page 60


 1876 0004 00AF     		add	r7, sp, #0
 1877              		.cfi_def_cfa_register 7
 1878 0006 7860     		str	r0, [r7, #4]
 1879 0008 3960     		str	r1, [r7]
 529:..\..\..\lvgl\version_6.1.2\lvgl\src\lv_objx/lv_list.c ****     LV_ASSERT_OBJ(list, LV_OBJX_NAME);
 530:..\..\..\lvgl\version_6.1.2\lvgl\src\lv_objx/lv_list.c **** 
 531:..\..\..\lvgl\version_6.1.2\lvgl\src\lv_objx/lv_list.c ****     /* Not a good practice but user can add/create objects to the lists manually.
 532:..\..\..\lvgl\version_6.1.2\lvgl\src\lv_objx/lv_list.c ****      * When getting the next button try to be sure that it is at least a button */
 533:..\..\..\lvgl\version_6.1.2\lvgl\src\lv_objx/lv_list.c **** 
 534:..\..\..\lvgl\version_6.1.2\lvgl\src\lv_objx/lv_list.c ****     lv_obj_t * btn;
 535:..\..\..\lvgl\version_6.1.2\lvgl\src\lv_objx/lv_list.c ****     lv_obj_t * scrl = lv_page_get_scrl(list);
 1880              		.loc 5 535 0
 1881 000a 7868     		ldr	r0, [r7, #4]
 1882 000c FFF7FEFF 		bl	lv_page_get_scrl
 1883 0010 B860     		str	r0, [r7, #8]
 536:..\..\..\lvgl\version_6.1.2\lvgl\src\lv_objx/lv_list.c **** 
 537:..\..\..\lvgl\version_6.1.2\lvgl\src\lv_objx/lv_list.c ****     btn = lv_obj_get_child(scrl, prev_btn);
 1884              		.loc 5 537 0
 1885 0012 3968     		ldr	r1, [r7]
 1886 0014 B868     		ldr	r0, [r7, #8]
 1887 0016 FFF7FEFF 		bl	lv_obj_get_child
 1888 001a F860     		str	r0, [r7, #12]
 538:..\..\..\lvgl\version_6.1.2\lvgl\src\lv_objx/lv_list.c ****     if(btn == NULL) return NULL;
 1889              		.loc 5 538 0
 1890 001c FB68     		ldr	r3, [r7, #12]
 1891 001e 002B     		cmp	r3, #0
 1892 0020 09D1     		bne	.L105
 1893              		.loc 5 538 0 is_stmt 0 discriminator 1
 1894 0022 0023     		movs	r3, #0
 1895 0024 13E0     		b	.L104
 1896              	.L107:
 539:..\..\..\lvgl\version_6.1.2\lvgl\src\lv_objx/lv_list.c **** 
 540:..\..\..\lvgl\version_6.1.2\lvgl\src\lv_objx/lv_list.c ****     while(lv_list_is_list_btn(btn) == false) {
 541:..\..\..\lvgl\version_6.1.2\lvgl\src\lv_objx/lv_list.c ****         btn = lv_obj_get_child(scrl, btn);
 1897              		.loc 5 541 0 is_stmt 1
 1898 0026 F968     		ldr	r1, [r7, #12]
 1899 0028 B868     		ldr	r0, [r7, #8]
 1900 002a FFF7FEFF 		bl	lv_obj_get_child
 1901 002e F860     		str	r0, [r7, #12]
 542:..\..\..\lvgl\version_6.1.2\lvgl\src\lv_objx/lv_list.c ****         if(btn == NULL) break;
 1902              		.loc 5 542 0
 1903 0030 FB68     		ldr	r3, [r7, #12]
 1904 0032 002B     		cmp	r3, #0
 1905 0034 09D0     		beq	.L108
 1906              	.L105:
 540:..\..\..\lvgl\version_6.1.2\lvgl\src\lv_objx/lv_list.c ****         btn = lv_obj_get_child(scrl, btn);
 1907              		.loc 5 540 0
 1908 0036 F868     		ldr	r0, [r7, #12]
 1909 0038 FFF7FEFF 		bl	lv_list_is_list_btn
 1910 003c 0346     		mov	r3, r0
 1911 003e 83F00103 		eor	r3, r3, #1
 1912 0042 DBB2     		uxtb	r3, r3
 1913 0044 002B     		cmp	r3, #0
 1914 0046 EED1     		bne	.L107
 1915 0048 00E0     		b	.L106
 1916              	.L108:
 1917              		.loc 5 542 0
ARM GAS  C:\Users\tmj32\AppData\Local\Temp\ccUUfkkI.s 			page 61


 1918 004a 00BF     		nop
 1919              	.L106:
 543:..\..\..\lvgl\version_6.1.2\lvgl\src\lv_objx/lv_list.c ****     }
 544:..\..\..\lvgl\version_6.1.2\lvgl\src\lv_objx/lv_list.c **** 
 545:..\..\..\lvgl\version_6.1.2\lvgl\src\lv_objx/lv_list.c ****     return btn;
 1920              		.loc 5 545 0
 1921 004c FB68     		ldr	r3, [r7, #12]
 1922              	.L104:
 546:..\..\..\lvgl\version_6.1.2\lvgl\src\lv_objx/lv_list.c **** }
 1923              		.loc 5 546 0
 1924 004e 1846     		mov	r0, r3
 1925 0050 1037     		adds	r7, r7, #16
 1926              		.cfi_def_cfa_offset 8
 1927 0052 BD46     		mov	sp, r7
 1928              		.cfi_def_cfa_register 13
 1929              		@ sp needed
 1930 0054 80BD     		pop	{r7, pc}
 1931              		.cfi_endproc
 1932              	.LFE80:
 1933              		.size	lv_list_get_prev_btn, .-lv_list_get_prev_btn
 1934 0056 00BF     		.section	.text.lv_list_get_next_btn,"ax",%progbits
 1935              		.align	2
 1936              		.global	lv_list_get_next_btn
 1937              		.thumb
 1938              		.thumb_func
 1939              		.type	lv_list_get_next_btn, %function
 1940              	lv_list_get_next_btn:
 1941              	.LFB81:
 547:..\..\..\lvgl\version_6.1.2\lvgl\src\lv_objx/lv_list.c **** 
 548:..\..\..\lvgl\version_6.1.2\lvgl\src\lv_objx/lv_list.c **** /**
 549:..\..\..\lvgl\version_6.1.2\lvgl\src\lv_objx/lv_list.c ****  * Get the next button from list. (Starts from the top button)
 550:..\..\..\lvgl\version_6.1.2\lvgl\src\lv_objx/lv_list.c ****  * @param list pointer to a list object
 551:..\..\..\lvgl\version_6.1.2\lvgl\src\lv_objx/lv_list.c ****  * @param prev_btn pointer to button. Search the next after it.
 552:..\..\..\lvgl\version_6.1.2\lvgl\src\lv_objx/lv_list.c ****  * @return pointer to the next button or NULL when no more buttons
 553:..\..\..\lvgl\version_6.1.2\lvgl\src\lv_objx/lv_list.c ****  */
 554:..\..\..\lvgl\version_6.1.2\lvgl\src\lv_objx/lv_list.c **** lv_obj_t * lv_list_get_next_btn(const lv_obj_t * list, lv_obj_t * prev_btn)
 555:..\..\..\lvgl\version_6.1.2\lvgl\src\lv_objx/lv_list.c **** {
 1942              		.loc 5 555 0
 1943              		.cfi_startproc
 1944              		@ args = 0, pretend = 0, frame = 16
 1945              		@ frame_needed = 1, uses_anonymous_args = 0
 1946 0000 80B5     		push	{r7, lr}
 1947              		.cfi_def_cfa_offset 8
 1948              		.cfi_offset 7, -8
 1949              		.cfi_offset 14, -4
 1950 0002 84B0     		sub	sp, sp, #16
 1951              		.cfi_def_cfa_offset 24
 1952 0004 00AF     		add	r7, sp, #0
 1953              		.cfi_def_cfa_register 7
 1954 0006 7860     		str	r0, [r7, #4]
 1955 0008 3960     		str	r1, [r7]
 556:..\..\..\lvgl\version_6.1.2\lvgl\src\lv_objx/lv_list.c ****     LV_ASSERT_OBJ(list, LV_OBJX_NAME);
 557:..\..\..\lvgl\version_6.1.2\lvgl\src\lv_objx/lv_list.c **** 
 558:..\..\..\lvgl\version_6.1.2\lvgl\src\lv_objx/lv_list.c ****     /* Not a good practice but user can add/create objects to the lists manually.
 559:..\..\..\lvgl\version_6.1.2\lvgl\src\lv_objx/lv_list.c ****      * When getting the next button try to be sure that it is at least a button */
 560:..\..\..\lvgl\version_6.1.2\lvgl\src\lv_objx/lv_list.c **** 
 561:..\..\..\lvgl\version_6.1.2\lvgl\src\lv_objx/lv_list.c ****     lv_obj_t * btn;
ARM GAS  C:\Users\tmj32\AppData\Local\Temp\ccUUfkkI.s 			page 62


 562:..\..\..\lvgl\version_6.1.2\lvgl\src\lv_objx/lv_list.c ****     lv_obj_t * scrl = lv_page_get_scrl(list);
 1956              		.loc 5 562 0
 1957 000a 7868     		ldr	r0, [r7, #4]
 1958 000c FFF7FEFF 		bl	lv_page_get_scrl
 1959 0010 B860     		str	r0, [r7, #8]
 563:..\..\..\lvgl\version_6.1.2\lvgl\src\lv_objx/lv_list.c **** 
 564:..\..\..\lvgl\version_6.1.2\lvgl\src\lv_objx/lv_list.c ****     btn = lv_obj_get_child_back(scrl, prev_btn);
 1960              		.loc 5 564 0
 1961 0012 3968     		ldr	r1, [r7]
 1962 0014 B868     		ldr	r0, [r7, #8]
 1963 0016 FFF7FEFF 		bl	lv_obj_get_child_back
 1964 001a F860     		str	r0, [r7, #12]
 565:..\..\..\lvgl\version_6.1.2\lvgl\src\lv_objx/lv_list.c ****     if(btn == NULL) return NULL;
 1965              		.loc 5 565 0
 1966 001c FB68     		ldr	r3, [r7, #12]
 1967 001e 002B     		cmp	r3, #0
 1968 0020 09D1     		bne	.L112
 1969              		.loc 5 565 0 is_stmt 0 discriminator 1
 1970 0022 0023     		movs	r3, #0
 1971 0024 13E0     		b	.L111
 1972              	.L114:
 566:..\..\..\lvgl\version_6.1.2\lvgl\src\lv_objx/lv_list.c **** 
 567:..\..\..\lvgl\version_6.1.2\lvgl\src\lv_objx/lv_list.c ****     while(lv_list_is_list_btn(btn) == false) {
 568:..\..\..\lvgl\version_6.1.2\lvgl\src\lv_objx/lv_list.c ****         btn = lv_obj_get_child_back(scrl, btn);
 1973              		.loc 5 568 0 is_stmt 1
 1974 0026 F968     		ldr	r1, [r7, #12]
 1975 0028 B868     		ldr	r0, [r7, #8]
 1976 002a FFF7FEFF 		bl	lv_obj_get_child_back
 1977 002e F860     		str	r0, [r7, #12]
 569:..\..\..\lvgl\version_6.1.2\lvgl\src\lv_objx/lv_list.c ****         if(btn == NULL) break;
 1978              		.loc 5 569 0
 1979 0030 FB68     		ldr	r3, [r7, #12]
 1980 0032 002B     		cmp	r3, #0
 1981 0034 09D0     		beq	.L115
 1982              	.L112:
 567:..\..\..\lvgl\version_6.1.2\lvgl\src\lv_objx/lv_list.c ****         btn = lv_obj_get_child_back(scrl, btn);
 1983              		.loc 5 567 0
 1984 0036 F868     		ldr	r0, [r7, #12]
 1985 0038 FFF7FEFF 		bl	lv_list_is_list_btn
 1986 003c 0346     		mov	r3, r0
 1987 003e 83F00103 		eor	r3, r3, #1
 1988 0042 DBB2     		uxtb	r3, r3
 1989 0044 002B     		cmp	r3, #0
 1990 0046 EED1     		bne	.L114
 1991 0048 00E0     		b	.L113
 1992              	.L115:
 1993              		.loc 5 569 0
 1994 004a 00BF     		nop
 1995              	.L113:
 570:..\..\..\lvgl\version_6.1.2\lvgl\src\lv_objx/lv_list.c ****     }
 571:..\..\..\lvgl\version_6.1.2\lvgl\src\lv_objx/lv_list.c **** 
 572:..\..\..\lvgl\version_6.1.2\lvgl\src\lv_objx/lv_list.c ****     return btn;
 1996              		.loc 5 572 0
 1997 004c FB68     		ldr	r3, [r7, #12]
 1998              	.L111:
 573:..\..\..\lvgl\version_6.1.2\lvgl\src\lv_objx/lv_list.c **** }
 1999              		.loc 5 573 0
ARM GAS  C:\Users\tmj32\AppData\Local\Temp\ccUUfkkI.s 			page 63


 2000 004e 1846     		mov	r0, r3
 2001 0050 1037     		adds	r7, r7, #16
 2002              		.cfi_def_cfa_offset 8
 2003 0052 BD46     		mov	sp, r7
 2004              		.cfi_def_cfa_register 13
 2005              		@ sp needed
 2006 0054 80BD     		pop	{r7, pc}
 2007              		.cfi_endproc
 2008              	.LFE81:
 2009              		.size	lv_list_get_next_btn, .-lv_list_get_next_btn
 2010 0056 00BF     		.section	.text.lv_list_get_btn_index,"ax",%progbits
 2011              		.align	2
 2012              		.global	lv_list_get_btn_index
 2013              		.thumb
 2014              		.thumb_func
 2015              		.type	lv_list_get_btn_index, %function
 2016              	lv_list_get_btn_index:
 2017              	.LFB82:
 574:..\..\..\lvgl\version_6.1.2\lvgl\src\lv_objx/lv_list.c **** 
 575:..\..\..\lvgl\version_6.1.2\lvgl\src\lv_objx/lv_list.c **** /**
 576:..\..\..\lvgl\version_6.1.2\lvgl\src\lv_objx/lv_list.c ****  * Get the index of the button in the list
 577:..\..\..\lvgl\version_6.1.2\lvgl\src\lv_objx/lv_list.c ****  * @param list pointer to a list object. If NULL, assumes btn is part of a list.
 578:..\..\..\lvgl\version_6.1.2\lvgl\src\lv_objx/lv_list.c ****  * @param btn pointer to a list element (button)
 579:..\..\..\lvgl\version_6.1.2\lvgl\src\lv_objx/lv_list.c ****  * @return the index of the button in the list, or -1 of the button not in this list
 580:..\..\..\lvgl\version_6.1.2\lvgl\src\lv_objx/lv_list.c ****  */
 581:..\..\..\lvgl\version_6.1.2\lvgl\src\lv_objx/lv_list.c **** int32_t lv_list_get_btn_index(const lv_obj_t * list, const lv_obj_t * btn)
 582:..\..\..\lvgl\version_6.1.2\lvgl\src\lv_objx/lv_list.c **** {
 2018              		.loc 5 582 0
 2019              		.cfi_startproc
 2020              		@ args = 0, pretend = 0, frame = 16
 2021              		@ frame_needed = 1, uses_anonymous_args = 0
 2022 0000 80B5     		push	{r7, lr}
 2023              		.cfi_def_cfa_offset 8
 2024              		.cfi_offset 7, -8
 2025              		.cfi_offset 14, -4
 2026 0002 84B0     		sub	sp, sp, #16
 2027              		.cfi_def_cfa_offset 24
 2028 0004 00AF     		add	r7, sp, #0
 2029              		.cfi_def_cfa_register 7
 2030 0006 7860     		str	r0, [r7, #4]
 2031 0008 3960     		str	r1, [r7]
 583:..\..\..\lvgl\version_6.1.2\lvgl\src\lv_objx/lv_list.c ****     LV_ASSERT_OBJ(list, LV_OBJX_NAME);
 584:..\..\..\lvgl\version_6.1.2\lvgl\src\lv_objx/lv_list.c ****     LV_ASSERT_OBJ(btn, "lv_btn");
 585:..\..\..\lvgl\version_6.1.2\lvgl\src\lv_objx/lv_list.c **** 
 586:..\..\..\lvgl\version_6.1.2\lvgl\src\lv_objx/lv_list.c ****     int index = 0;
 2032              		.loc 5 586 0
 2033 000a 0023     		movs	r3, #0
 2034 000c FB60     		str	r3, [r7, #12]
 587:..\..\..\lvgl\version_6.1.2\lvgl\src\lv_objx/lv_list.c ****     if(list == NULL) {
 2035              		.loc 5 587 0
 2036 000e 7B68     		ldr	r3, [r7, #4]
 2037 0010 002B     		cmp	r3, #0
 2038 0012 07D1     		bne	.L117
 588:..\..\..\lvgl\version_6.1.2\lvgl\src\lv_objx/lv_list.c ****         /* no list provided, assuming btn is part of a list */
 589:..\..\..\lvgl\version_6.1.2\lvgl\src\lv_objx/lv_list.c ****         list = lv_obj_get_parent(lv_obj_get_parent(btn));
 2039              		.loc 5 589 0
 2040 0014 3868     		ldr	r0, [r7]
ARM GAS  C:\Users\tmj32\AppData\Local\Temp\ccUUfkkI.s 			page 64


 2041 0016 FFF7FEFF 		bl	lv_obj_get_parent
 2042 001a 0346     		mov	r3, r0
 2043 001c 1846     		mov	r0, r3
 2044 001e FFF7FEFF 		bl	lv_obj_get_parent
 2045 0022 7860     		str	r0, [r7, #4]
 2046              	.L117:
 590:..\..\..\lvgl\version_6.1.2\lvgl\src\lv_objx/lv_list.c ****     }
 591:..\..\..\lvgl\version_6.1.2\lvgl\src\lv_objx/lv_list.c ****     lv_obj_t * e = lv_list_get_next_btn(list, NULL);
 2047              		.loc 5 591 0
 2048 0024 0021     		movs	r1, #0
 2049 0026 7868     		ldr	r0, [r7, #4]
 2050 0028 FFF7FEFF 		bl	lv_list_get_next_btn
 2051 002c B860     		str	r0, [r7, #8]
 592:..\..\..\lvgl\version_6.1.2\lvgl\src\lv_objx/lv_list.c ****     while(e != NULL) {
 2052              		.loc 5 592 0
 2053 002e 0DE0     		b	.L118
 2054              	.L121:
 593:..\..\..\lvgl\version_6.1.2\lvgl\src\lv_objx/lv_list.c ****         if(e == btn) {
 2055              		.loc 5 593 0
 2056 0030 BA68     		ldr	r2, [r7, #8]
 2057 0032 3B68     		ldr	r3, [r7]
 2058 0034 9A42     		cmp	r2, r3
 2059 0036 01D1     		bne	.L119
 594:..\..\..\lvgl\version_6.1.2\lvgl\src\lv_objx/lv_list.c ****             return index;
 2060              		.loc 5 594 0
 2061 0038 FB68     		ldr	r3, [r7, #12]
 2062 003a 0CE0     		b	.L120
 2063              	.L119:
 595:..\..\..\lvgl\version_6.1.2\lvgl\src\lv_objx/lv_list.c ****         }
 596:..\..\..\lvgl\version_6.1.2\lvgl\src\lv_objx/lv_list.c ****         index++;
 2064              		.loc 5 596 0
 2065 003c FB68     		ldr	r3, [r7, #12]
 2066 003e 0133     		adds	r3, r3, #1
 2067 0040 FB60     		str	r3, [r7, #12]
 597:..\..\..\lvgl\version_6.1.2\lvgl\src\lv_objx/lv_list.c ****         e = lv_list_get_next_btn(list, e);
 2068              		.loc 5 597 0
 2069 0042 B968     		ldr	r1, [r7, #8]
 2070 0044 7868     		ldr	r0, [r7, #4]
 2071 0046 FFF7FEFF 		bl	lv_list_get_next_btn
 2072 004a B860     		str	r0, [r7, #8]
 2073              	.L118:
 592:..\..\..\lvgl\version_6.1.2\lvgl\src\lv_objx/lv_list.c ****         if(e == btn) {
 2074              		.loc 5 592 0
 2075 004c BB68     		ldr	r3, [r7, #8]
 2076 004e 002B     		cmp	r3, #0
 2077 0050 EED1     		bne	.L121
 598:..\..\..\lvgl\version_6.1.2\lvgl\src\lv_objx/lv_list.c ****     }
 599:..\..\..\lvgl\version_6.1.2\lvgl\src\lv_objx/lv_list.c ****     return -1;
 2078              		.loc 5 599 0
 2079 0052 4FF0FF33 		mov	r3, #-1
 2080              	.L120:
 600:..\..\..\lvgl\version_6.1.2\lvgl\src\lv_objx/lv_list.c **** }
 2081              		.loc 5 600 0
 2082 0056 1846     		mov	r0, r3
 2083 0058 1037     		adds	r7, r7, #16
 2084              		.cfi_def_cfa_offset 8
 2085 005a BD46     		mov	sp, r7
ARM GAS  C:\Users\tmj32\AppData\Local\Temp\ccUUfkkI.s 			page 65


 2086              		.cfi_def_cfa_register 13
 2087              		@ sp needed
 2088 005c 80BD     		pop	{r7, pc}
 2089              		.cfi_endproc
 2090              	.LFE82:
 2091              		.size	lv_list_get_btn_index, .-lv_list_get_btn_index
 2092 005e 00BF     		.section	.text.lv_list_get_size,"ax",%progbits
 2093              		.align	2
 2094              		.global	lv_list_get_size
 2095              		.thumb
 2096              		.thumb_func
 2097              		.type	lv_list_get_size, %function
 2098              	lv_list_get_size:
 2099              	.LFB83:
 601:..\..\..\lvgl\version_6.1.2\lvgl\src\lv_objx/lv_list.c **** 
 602:..\..\..\lvgl\version_6.1.2\lvgl\src\lv_objx/lv_list.c **** /**
 603:..\..\..\lvgl\version_6.1.2\lvgl\src\lv_objx/lv_list.c ****  * Get the number of buttons in the list
 604:..\..\..\lvgl\version_6.1.2\lvgl\src\lv_objx/lv_list.c ****  * @param list pointer to a list object
 605:..\..\..\lvgl\version_6.1.2\lvgl\src\lv_objx/lv_list.c ****  * @return the number of buttons in the list
 606:..\..\..\lvgl\version_6.1.2\lvgl\src\lv_objx/lv_list.c ****  */
 607:..\..\..\lvgl\version_6.1.2\lvgl\src\lv_objx/lv_list.c **** uint16_t lv_list_get_size(const lv_obj_t * list)
 608:..\..\..\lvgl\version_6.1.2\lvgl\src\lv_objx/lv_list.c **** {
 2100              		.loc 5 608 0
 2101              		.cfi_startproc
 2102              		@ args = 0, pretend = 0, frame = 16
 2103              		@ frame_needed = 1, uses_anonymous_args = 0
 2104 0000 80B5     		push	{r7, lr}
 2105              		.cfi_def_cfa_offset 8
 2106              		.cfi_offset 7, -8
 2107              		.cfi_offset 14, -4
 2108 0002 84B0     		sub	sp, sp, #16
 2109              		.cfi_def_cfa_offset 24
 2110 0004 00AF     		add	r7, sp, #0
 2111              		.cfi_def_cfa_register 7
 2112 0006 7860     		str	r0, [r7, #4]
 609:..\..\..\lvgl\version_6.1.2\lvgl\src\lv_objx/lv_list.c ****     LV_ASSERT_OBJ(list, LV_OBJX_NAME);
 610:..\..\..\lvgl\version_6.1.2\lvgl\src\lv_objx/lv_list.c **** 
 611:..\..\..\lvgl\version_6.1.2\lvgl\src\lv_objx/lv_list.c ****     lv_list_ext_t * ext = lv_obj_get_ext_attr(list);
 2113              		.loc 5 611 0
 2114 0008 7868     		ldr	r0, [r7, #4]
 2115 000a FFF7FEFF 		bl	lv_obj_get_ext_attr
 2116 000e F860     		str	r0, [r7, #12]
 612:..\..\..\lvgl\version_6.1.2\lvgl\src\lv_objx/lv_list.c ****     return ext->size;
 2117              		.loc 5 612 0
 2118 0010 FB68     		ldr	r3, [r7, #12]
 2119 0012 B3F84830 		ldrh	r3, [r3, #72]
 613:..\..\..\lvgl\version_6.1.2\lvgl\src\lv_objx/lv_list.c **** }
 2120              		.loc 5 613 0
 2121 0016 1846     		mov	r0, r3
 2122 0018 1037     		adds	r7, r7, #16
 2123              		.cfi_def_cfa_offset 8
 2124 001a BD46     		mov	sp, r7
 2125              		.cfi_def_cfa_register 13
 2126              		@ sp needed
 2127 001c 80BD     		pop	{r7, pc}
 2128              		.cfi_endproc
 2129              	.LFE83:
ARM GAS  C:\Users\tmj32\AppData\Local\Temp\ccUUfkkI.s 			page 66


 2130              		.size	lv_list_get_size, .-lv_list_get_size
 2131 001e 00BF     		.section	.text.lv_list_get_layout,"ax",%progbits
 2132              		.align	2
 2133              		.global	lv_list_get_layout
 2134              		.thumb
 2135              		.thumb_func
 2136              		.type	lv_list_get_layout, %function
 2137              	lv_list_get_layout:
 2138              	.LFB84:
 614:..\..\..\lvgl\version_6.1.2\lvgl\src\lv_objx/lv_list.c **** 
 615:..\..\..\lvgl\version_6.1.2\lvgl\src\lv_objx/lv_list.c **** #if LV_USE_GROUP
 616:..\..\..\lvgl\version_6.1.2\lvgl\src\lv_objx/lv_list.c **** /**
 617:..\..\..\lvgl\version_6.1.2\lvgl\src\lv_objx/lv_list.c ****  * Get the currently selected button
 618:..\..\..\lvgl\version_6.1.2\lvgl\src\lv_objx/lv_list.c ****  * @param list pointer to a list object
 619:..\..\..\lvgl\version_6.1.2\lvgl\src\lv_objx/lv_list.c ****  * @return pointer to the selected button
 620:..\..\..\lvgl\version_6.1.2\lvgl\src\lv_objx/lv_list.c ****  */
 621:..\..\..\lvgl\version_6.1.2\lvgl\src\lv_objx/lv_list.c **** lv_obj_t * lv_list_get_btn_selected(const lv_obj_t * list)
 622:..\..\..\lvgl\version_6.1.2\lvgl\src\lv_objx/lv_list.c **** {
 623:..\..\..\lvgl\version_6.1.2\lvgl\src\lv_objx/lv_list.c ****     LV_ASSERT_OBJ(list, LV_OBJX_NAME);
 624:..\..\..\lvgl\version_6.1.2\lvgl\src\lv_objx/lv_list.c **** 
 625:..\..\..\lvgl\version_6.1.2\lvgl\src\lv_objx/lv_list.c ****     lv_list_ext_t * ext = lv_obj_get_ext_attr(list);
 626:..\..\..\lvgl\version_6.1.2\lvgl\src\lv_objx/lv_list.c ****     return ext->selected_btn;
 627:..\..\..\lvgl\version_6.1.2\lvgl\src\lv_objx/lv_list.c **** }
 628:..\..\..\lvgl\version_6.1.2\lvgl\src\lv_objx/lv_list.c **** #endif
 629:..\..\..\lvgl\version_6.1.2\lvgl\src\lv_objx/lv_list.c **** 
 630:..\..\..\lvgl\version_6.1.2\lvgl\src\lv_objx/lv_list.c **** /**
 631:..\..\..\lvgl\version_6.1.2\lvgl\src\lv_objx/lv_list.c ****  * Get layout of a list
 632:..\..\..\lvgl\version_6.1.2\lvgl\src\lv_objx/lv_list.c ****  * @param list pointer to a list object
 633:..\..\..\lvgl\version_6.1.2\lvgl\src\lv_objx/lv_list.c ****  * @return layout of the list object
 634:..\..\..\lvgl\version_6.1.2\lvgl\src\lv_objx/lv_list.c ****  */
 635:..\..\..\lvgl\version_6.1.2\lvgl\src\lv_objx/lv_list.c **** lv_layout_t lv_list_get_layout(lv_obj_t * list)
 636:..\..\..\lvgl\version_6.1.2\lvgl\src\lv_objx/lv_list.c **** {
 2139              		.loc 5 636 0
 2140              		.cfi_startproc
 2141              		@ args = 0, pretend = 0, frame = 8
 2142              		@ frame_needed = 1, uses_anonymous_args = 0
 2143 0000 80B5     		push	{r7, lr}
 2144              		.cfi_def_cfa_offset 8
 2145              		.cfi_offset 7, -8
 2146              		.cfi_offset 14, -4
 2147 0002 82B0     		sub	sp, sp, #8
 2148              		.cfi_def_cfa_offset 16
 2149 0004 00AF     		add	r7, sp, #0
 2150              		.cfi_def_cfa_register 7
 2151 0006 7860     		str	r0, [r7, #4]
 637:..\..\..\lvgl\version_6.1.2\lvgl\src\lv_objx/lv_list.c ****     LV_ASSERT_OBJ(list, LV_OBJX_NAME);
 638:..\..\..\lvgl\version_6.1.2\lvgl\src\lv_objx/lv_list.c **** 
 639:..\..\..\lvgl\version_6.1.2\lvgl\src\lv_objx/lv_list.c ****     return lv_page_get_scrl_layout(list);
 2152              		.loc 5 639 0
 2153 0008 7868     		ldr	r0, [r7, #4]
 2154 000a FFF7FEFF 		bl	lv_page_get_scrl_layout
 2155 000e 0346     		mov	r3, r0
 640:..\..\..\lvgl\version_6.1.2\lvgl\src\lv_objx/lv_list.c **** }
 2156              		.loc 5 640 0
 2157 0010 1846     		mov	r0, r3
 2158 0012 0837     		adds	r7, r7, #8
 2159              		.cfi_def_cfa_offset 8
ARM GAS  C:\Users\tmj32\AppData\Local\Temp\ccUUfkkI.s 			page 67


 2160 0014 BD46     		mov	sp, r7
 2161              		.cfi_def_cfa_register 13
 2162              		@ sp needed
 2163 0016 80BD     		pop	{r7, pc}
 2164              		.cfi_endproc
 2165              	.LFE84:
 2166              		.size	lv_list_get_layout, .-lv_list_get_layout
 2167              		.section	.text.lv_list_get_style,"ax",%progbits
 2168              		.align	2
 2169              		.global	lv_list_get_style
 2170              		.thumb
 2171              		.thumb_func
 2172              		.type	lv_list_get_style, %function
 2173              	lv_list_get_style:
 2174              	.LFB85:
 641:..\..\..\lvgl\version_6.1.2\lvgl\src\lv_objx/lv_list.c **** 
 642:..\..\..\lvgl\version_6.1.2\lvgl\src\lv_objx/lv_list.c **** /**
 643:..\..\..\lvgl\version_6.1.2\lvgl\src\lv_objx/lv_list.c ****  * Get a style of a list
 644:..\..\..\lvgl\version_6.1.2\lvgl\src\lv_objx/lv_list.c ****  * @param list pointer to a list object
 645:..\..\..\lvgl\version_6.1.2\lvgl\src\lv_objx/lv_list.c ****  * @param type which style should be get
 646:..\..\..\lvgl\version_6.1.2\lvgl\src\lv_objx/lv_list.c ****  * @return style pointer to a style
 647:..\..\..\lvgl\version_6.1.2\lvgl\src\lv_objx/lv_list.c ****  */
 648:..\..\..\lvgl\version_6.1.2\lvgl\src\lv_objx/lv_list.c **** const lv_style_t * lv_list_get_style(const lv_obj_t * list, lv_list_style_t type)
 649:..\..\..\lvgl\version_6.1.2\lvgl\src\lv_objx/lv_list.c **** {
 2175              		.loc 5 649 0
 2176              		.cfi_startproc
 2177              		@ args = 0, pretend = 0, frame = 16
 2178              		@ frame_needed = 1, uses_anonymous_args = 0
 2179 0000 80B5     		push	{r7, lr}
 2180              		.cfi_def_cfa_offset 8
 2181              		.cfi_offset 7, -8
 2182              		.cfi_offset 14, -4
 2183 0002 84B0     		sub	sp, sp, #16
 2184              		.cfi_def_cfa_offset 24
 2185 0004 00AF     		add	r7, sp, #0
 2186              		.cfi_def_cfa_register 7
 2187 0006 7860     		str	r0, [r7, #4]
 2188 0008 0B46     		mov	r3, r1
 2189 000a FB70     		strb	r3, [r7, #3]
 650:..\..\..\lvgl\version_6.1.2\lvgl\src\lv_objx/lv_list.c ****     LV_ASSERT_OBJ(list, LV_OBJX_NAME);
 651:..\..\..\lvgl\version_6.1.2\lvgl\src\lv_objx/lv_list.c **** 
 652:..\..\..\lvgl\version_6.1.2\lvgl\src\lv_objx/lv_list.c ****     const lv_style_t * style = NULL;
 2190              		.loc 5 652 0
 2191 000c 0023     		movs	r3, #0
 2192 000e FB60     		str	r3, [r7, #12]
 653:..\..\..\lvgl\version_6.1.2\lvgl\src\lv_objx/lv_list.c ****     lv_list_ext_t * ext      = lv_obj_get_ext_attr(list);
 2193              		.loc 5 653 0
 2194 0010 7868     		ldr	r0, [r7, #4]
 2195 0012 FFF7FEFF 		bl	lv_obj_get_ext_attr
 2196 0016 B860     		str	r0, [r7, #8]
 654:..\..\..\lvgl\version_6.1.2\lvgl\src\lv_objx/lv_list.c **** 
 655:..\..\..\lvgl\version_6.1.2\lvgl\src\lv_objx/lv_list.c ****     switch(type) {
 2197              		.loc 5 655 0
 2198 0018 FB78     		ldrb	r3, [r7, #3]	@ zero_extendqisi2
 2199 001a 082B     		cmp	r3, #8
 2200 001c 40D8     		bhi	.L127
 2201 001e 01A2     		adr	r2, .L129
ARM GAS  C:\Users\tmj32\AppData\Local\Temp\ccUUfkkI.s 			page 68


 2202 0020 52F823F0 		ldr	pc, [r2, r3, lsl #2]
 2203              		.p2align 2
 2204              	.L129:
 2205 0024 49000000 		.word	.L128+1
 2206 0028 55000000 		.word	.L130+1
 2207 002c 61000000 		.word	.L131+1
 2208 0030 6D000000 		.word	.L132+1
 2209 0034 79000000 		.word	.L133+1
 2210 0038 81000000 		.word	.L134+1
 2211 003c 89000000 		.word	.L135+1
 2212 0040 91000000 		.word	.L136+1
 2213 0044 99000000 		.word	.L137+1
 2214              		.p2align 1
 2215              	.L128:
 656:..\..\..\lvgl\version_6.1.2\lvgl\src\lv_objx/lv_list.c ****         case LV_LIST_STYLE_BG: style = lv_page_get_style(list, LV_PAGE_STYLE_BG); break;
 2216              		.loc 5 656 0
 2217 0048 0021     		movs	r1, #0
 2218 004a 7868     		ldr	r0, [r7, #4]
 2219 004c FFF7FEFF 		bl	lv_page_get_style
 2220 0050 F860     		str	r0, [r7, #12]
 2221 0052 28E0     		b	.L138
 2222              	.L130:
 657:..\..\..\lvgl\version_6.1.2\lvgl\src\lv_objx/lv_list.c ****         case LV_LIST_STYLE_SCRL: style = lv_page_get_style(list, LV_PAGE_STYLE_SCRL); break;
 2223              		.loc 5 657 0
 2224 0054 0121     		movs	r1, #1
 2225 0056 7868     		ldr	r0, [r7, #4]
 2226 0058 FFF7FEFF 		bl	lv_page_get_style
 2227 005c F860     		str	r0, [r7, #12]
 2228 005e 22E0     		b	.L138
 2229              	.L131:
 658:..\..\..\lvgl\version_6.1.2\lvgl\src\lv_objx/lv_list.c ****         case LV_LIST_STYLE_SB: style = lv_page_get_style(list, LV_PAGE_STYLE_SB); break;
 2230              		.loc 5 658 0
 2231 0060 0221     		movs	r1, #2
 2232 0062 7868     		ldr	r0, [r7, #4]
 2233 0064 FFF7FEFF 		bl	lv_page_get_style
 2234 0068 F860     		str	r0, [r7, #12]
 2235 006a 1CE0     		b	.L138
 2236              	.L132:
 659:..\..\..\lvgl\version_6.1.2\lvgl\src\lv_objx/lv_list.c ****         case LV_LIST_STYLE_EDGE_FLASH: style = lv_page_get_style(list, LV_PAGE_STYLE_EDGE_FLASH); b
 2237              		.loc 5 659 0
 2238 006c 0321     		movs	r1, #3
 2239 006e 7868     		ldr	r0, [r7, #4]
 2240 0070 FFF7FEFF 		bl	lv_page_get_style
 2241 0074 F860     		str	r0, [r7, #12]
 2242 0076 16E0     		b	.L138
 2243              	.L133:
 660:..\..\..\lvgl\version_6.1.2\lvgl\src\lv_objx/lv_list.c ****         case LV_LIST_STYLE_BTN_REL: style = ext->styles_btn[LV_BTN_STATE_REL]; break;
 2244              		.loc 5 660 0
 2245 0078 BB68     		ldr	r3, [r7, #8]
 2246 007a 1B6B     		ldr	r3, [r3, #48]
 2247 007c FB60     		str	r3, [r7, #12]
 2248 007e 12E0     		b	.L138
 2249              	.L134:
 661:..\..\..\lvgl\version_6.1.2\lvgl\src\lv_objx/lv_list.c ****         case LV_LIST_STYLE_BTN_PR: style = ext->styles_btn[LV_BTN_STATE_PR]; break;
 2250              		.loc 5 661 0
 2251 0080 BB68     		ldr	r3, [r7, #8]
 2252 0082 5B6B     		ldr	r3, [r3, #52]
ARM GAS  C:\Users\tmj32\AppData\Local\Temp\ccUUfkkI.s 			page 69


 2253 0084 FB60     		str	r3, [r7, #12]
 2254 0086 0EE0     		b	.L138
 2255              	.L135:
 662:..\..\..\lvgl\version_6.1.2\lvgl\src\lv_objx/lv_list.c ****         case LV_LIST_STYLE_BTN_TGL_REL: style = ext->styles_btn[LV_BTN_STATE_TGL_REL]; break;
 2256              		.loc 5 662 0
 2257 0088 BB68     		ldr	r3, [r7, #8]
 2258 008a 9B6B     		ldr	r3, [r3, #56]
 2259 008c FB60     		str	r3, [r7, #12]
 2260 008e 0AE0     		b	.L138
 2261              	.L136:
 663:..\..\..\lvgl\version_6.1.2\lvgl\src\lv_objx/lv_list.c ****         case LV_LIST_STYLE_BTN_TGL_PR: style = ext->styles_btn[LV_BTN_STATE_TGL_PR]; break;
 2262              		.loc 5 663 0
 2263 0090 BB68     		ldr	r3, [r7, #8]
 2264 0092 DB6B     		ldr	r3, [r3, #60]
 2265 0094 FB60     		str	r3, [r7, #12]
 2266 0096 06E0     		b	.L138
 2267              	.L137:
 664:..\..\..\lvgl\version_6.1.2\lvgl\src\lv_objx/lv_list.c ****         case LV_LIST_STYLE_BTN_INA: style = ext->styles_btn[LV_BTN_STATE_INA]; break;
 2268              		.loc 5 664 0
 2269 0098 BB68     		ldr	r3, [r7, #8]
 2270 009a 1B6C     		ldr	r3, [r3, #64]
 2271 009c FB60     		str	r3, [r7, #12]
 2272 009e 02E0     		b	.L138
 2273              	.L127:
 665:..\..\..\lvgl\version_6.1.2\lvgl\src\lv_objx/lv_list.c ****         default: style = NULL; break;
 2274              		.loc 5 665 0
 2275 00a0 0023     		movs	r3, #0
 2276 00a2 FB60     		str	r3, [r7, #12]
 2277 00a4 00BF     		nop
 2278              	.L138:
 666:..\..\..\lvgl\version_6.1.2\lvgl\src\lv_objx/lv_list.c ****     }
 667:..\..\..\lvgl\version_6.1.2\lvgl\src\lv_objx/lv_list.c **** 
 668:..\..\..\lvgl\version_6.1.2\lvgl\src\lv_objx/lv_list.c ****     return style;
 2279              		.loc 5 668 0
 2280 00a6 FB68     		ldr	r3, [r7, #12]
 669:..\..\..\lvgl\version_6.1.2\lvgl\src\lv_objx/lv_list.c **** }
 2281              		.loc 5 669 0
 2282 00a8 1846     		mov	r0, r3
 2283 00aa 1037     		adds	r7, r7, #16
 2284              		.cfi_def_cfa_offset 8
 2285 00ac BD46     		mov	sp, r7
 2286              		.cfi_def_cfa_register 13
 2287              		@ sp needed
 2288 00ae 80BD     		pop	{r7, pc}
 2289              		.cfi_endproc
 2290              	.LFE85:
 2291              		.size	lv_list_get_style, .-lv_list_get_style
 2292              		.section	.text.lv_list_up,"ax",%progbits
 2293              		.align	2
 2294              		.global	lv_list_up
 2295              		.thumb
 2296              		.thumb_func
 2297              		.type	lv_list_up, %function
 2298              	lv_list_up:
 2299              	.LFB86:
 670:..\..\..\lvgl\version_6.1.2\lvgl\src\lv_objx/lv_list.c **** 
 671:..\..\..\lvgl\version_6.1.2\lvgl\src\lv_objx/lv_list.c **** /*=====================
ARM GAS  C:\Users\tmj32\AppData\Local\Temp\ccUUfkkI.s 			page 70


 672:..\..\..\lvgl\version_6.1.2\lvgl\src\lv_objx/lv_list.c ****  * Other functions
 673:..\..\..\lvgl\version_6.1.2\lvgl\src\lv_objx/lv_list.c ****  *====================*/
 674:..\..\..\lvgl\version_6.1.2\lvgl\src\lv_objx/lv_list.c **** 
 675:..\..\..\lvgl\version_6.1.2\lvgl\src\lv_objx/lv_list.c **** /**
 676:..\..\..\lvgl\version_6.1.2\lvgl\src\lv_objx/lv_list.c ****  * Move the list elements up by one
 677:..\..\..\lvgl\version_6.1.2\lvgl\src\lv_objx/lv_list.c ****  * @param list pointer a to list object
 678:..\..\..\lvgl\version_6.1.2\lvgl\src\lv_objx/lv_list.c ****  */
 679:..\..\..\lvgl\version_6.1.2\lvgl\src\lv_objx/lv_list.c **** void lv_list_up(const lv_obj_t * list)
 680:..\..\..\lvgl\version_6.1.2\lvgl\src\lv_objx/lv_list.c **** {
 2300              		.loc 5 680 0
 2301              		.cfi_startproc
 2302              		@ args = 0, pretend = 0, frame = 64
 2303              		@ frame_needed = 1, uses_anonymous_args = 0
 2304 0000 B0B5     		push	{r4, r5, r7, lr}
 2305              		.cfi_def_cfa_offset 16
 2306              		.cfi_offset 4, -16
 2307              		.cfi_offset 5, -12
 2308              		.cfi_offset 7, -8
 2309              		.cfi_offset 14, -4
 2310 0002 90B0     		sub	sp, sp, #64
 2311              		.cfi_def_cfa_offset 80
 2312 0004 00AF     		add	r7, sp, #0
 2313              		.cfi_def_cfa_register 7
 2314 0006 7860     		str	r0, [r7, #4]
 681:..\..\..\lvgl\version_6.1.2\lvgl\src\lv_objx/lv_list.c ****     LV_ASSERT_OBJ(list, LV_OBJX_NAME);
 682:..\..\..\lvgl\version_6.1.2\lvgl\src\lv_objx/lv_list.c **** 
