ARM GAS  C:\Users\tmj32\AppData\Local\Temp\ccKH8gEj.s 			page 1


   1              		.syntax unified
   2              		.cpu cortex-m4
   3              		.eabi_attribute 27, 1
   4              		.fpu fpv4-sp-d16
   5              		.eabi_attribute 20, 1
   6              		.eabi_attribute 21, 1
   7              		.eabi_attribute 23, 3
   8              		.eabi_attribute 24, 1
   9              		.eabi_attribute 25, 1
  10              		.eabi_attribute 26, 1
  11              		.eabi_attribute 30, 6
  12              		.eabi_attribute 34, 1
  13              		.eabi_attribute 18, 4
  14              		.thumb
  15              		.syntax unified
  16              		.file	"lv_led.c"
  17              		.text
  18              	.Ltext0:
  19              		.cfi_sections	.debug_frame
  20              		.section	.text.lv_color_mix,"ax",%progbits
  21              		.align	2
  22              		.thumb
  23              		.thumb_func
  24              		.type	lv_color_mix, %function
  25              	lv_color_mix:
  26              	.LFB5:
  27              		.file 1 "..\\..\\..\\lvgl\\version_6.1.2\\lvgl\\src\\lv_objx\\../lv_core/../lv_misc/lv_color.h"
   1:..\..\..\lvgl\version_6.1.2\lvgl\src\lv_objx\../lv_core/../lv_misc/lv_color.h **** /**
   2:..\..\..\lvgl\version_6.1.2\lvgl\src\lv_objx\../lv_core/../lv_misc/lv_color.h ****  * @file lv_color.h
   3:..\..\..\lvgl\version_6.1.2\lvgl\src\lv_objx\../lv_core/../lv_misc/lv_color.h ****  *
   4:..\..\..\lvgl\version_6.1.2\lvgl\src\lv_objx\../lv_core/../lv_misc/lv_color.h ****  */
   5:..\..\..\lvgl\version_6.1.2\lvgl\src\lv_objx\../lv_core/../lv_misc/lv_color.h **** 
   6:..\..\..\lvgl\version_6.1.2\lvgl\src\lv_objx\../lv_core/../lv_misc/lv_color.h **** #ifndef LV_COLOR_H
   7:..\..\..\lvgl\version_6.1.2\lvgl\src\lv_objx\../lv_core/../lv_misc/lv_color.h **** #define LV_COLOR_H
   8:..\..\..\lvgl\version_6.1.2\lvgl\src\lv_objx\../lv_core/../lv_misc/lv_color.h **** 
   9:..\..\..\lvgl\version_6.1.2\lvgl\src\lv_objx\../lv_core/../lv_misc/lv_color.h **** #ifdef __cplusplus
  10:..\..\..\lvgl\version_6.1.2\lvgl\src\lv_objx\../lv_core/../lv_misc/lv_color.h **** extern "C" {
  11:..\..\..\lvgl\version_6.1.2\lvgl\src\lv_objx\../lv_core/../lv_misc/lv_color.h **** #endif
  12:..\..\..\lvgl\version_6.1.2\lvgl\src\lv_objx\../lv_core/../lv_misc/lv_color.h **** 
  13:..\..\..\lvgl\version_6.1.2\lvgl\src\lv_objx\../lv_core/../lv_misc/lv_color.h **** /*********************
  14:..\..\..\lvgl\version_6.1.2\lvgl\src\lv_objx\../lv_core/../lv_misc/lv_color.h ****  *      INCLUDES
  15:..\..\..\lvgl\version_6.1.2\lvgl\src\lv_objx\../lv_core/../lv_misc/lv_color.h ****  *********************/
  16:..\..\..\lvgl\version_6.1.2\lvgl\src\lv_objx\../lv_core/../lv_misc/lv_color.h **** #ifdef LV_CONF_INCLUDE_SIMPLE
  17:..\..\..\lvgl\version_6.1.2\lvgl\src\lv_objx\../lv_core/../lv_misc/lv_color.h **** #include "lv_conf.h"
  18:..\..\..\lvgl\version_6.1.2\lvgl\src\lv_objx\../lv_core/../lv_misc/lv_color.h **** #else
  19:..\..\..\lvgl\version_6.1.2\lvgl\src\lv_objx\../lv_core/../lv_misc/lv_color.h **** #include "../../../lv_conf.h"
  20:..\..\..\lvgl\version_6.1.2\lvgl\src\lv_objx\../lv_core/../lv_misc/lv_color.h **** #endif
  21:..\..\..\lvgl\version_6.1.2\lvgl\src\lv_objx\../lv_core/../lv_misc/lv_color.h **** 
  22:..\..\..\lvgl\version_6.1.2\lvgl\src\lv_objx\../lv_core/../lv_misc/lv_color.h **** /*Error checking*/
  23:..\..\..\lvgl\version_6.1.2\lvgl\src\lv_objx\../lv_core/../lv_misc/lv_color.h **** #if LV_COLOR_DEPTH == 24
  24:..\..\..\lvgl\version_6.1.2\lvgl\src\lv_objx\../lv_core/../lv_misc/lv_color.h **** #error "LV_COLOR_DEPTH  24 is deprecated. Use LV_COLOR_DEPTH  32 instead (lv_conf.h)"
  25:..\..\..\lvgl\version_6.1.2\lvgl\src\lv_objx\../lv_core/../lv_misc/lv_color.h **** #endif
  26:..\..\..\lvgl\version_6.1.2\lvgl\src\lv_objx\../lv_core/../lv_misc/lv_color.h **** 
  27:..\..\..\lvgl\version_6.1.2\lvgl\src\lv_objx\../lv_core/../lv_misc/lv_color.h **** #if LV_COLOR_DEPTH != 32 && LV_COLOR_SCREEN_TRANSP != 0
  28:..\..\..\lvgl\version_6.1.2\lvgl\src\lv_objx\../lv_core/../lv_misc/lv_color.h **** #error "LV_COLOR_SCREEN_TRANSP requires LV_COLOR_DEPTH == 32. Set it in lv_conf.h"
  29:..\..\..\lvgl\version_6.1.2\lvgl\src\lv_objx\../lv_core/../lv_misc/lv_color.h **** #endif
  30:..\..\..\lvgl\version_6.1.2\lvgl\src\lv_objx\../lv_core/../lv_misc/lv_color.h **** 
ARM GAS  C:\Users\tmj32\AppData\Local\Temp\ccKH8gEj.s 			page 2


  31:..\..\..\lvgl\version_6.1.2\lvgl\src\lv_objx\../lv_core/../lv_misc/lv_color.h **** #if LV_COLOR_DEPTH != 16 && LV_COLOR_16_SWAP != 0
  32:..\..\..\lvgl\version_6.1.2\lvgl\src\lv_objx\../lv_core/../lv_misc/lv_color.h **** #error "LV_COLOR_16_SWAP requires LV_COLOR_DEPTH == 16. Set it in lv_conf.h"
  33:..\..\..\lvgl\version_6.1.2\lvgl\src\lv_objx\../lv_core/../lv_misc/lv_color.h **** #endif
  34:..\..\..\lvgl\version_6.1.2\lvgl\src\lv_objx\../lv_core/../lv_misc/lv_color.h **** 
  35:..\..\..\lvgl\version_6.1.2\lvgl\src\lv_objx\../lv_core/../lv_misc/lv_color.h **** #include <stdint.h>
  36:..\..\..\lvgl\version_6.1.2\lvgl\src\lv_objx\../lv_core/../lv_misc/lv_color.h **** 
  37:..\..\..\lvgl\version_6.1.2\lvgl\src\lv_objx\../lv_core/../lv_misc/lv_color.h **** /*********************
  38:..\..\..\lvgl\version_6.1.2\lvgl\src\lv_objx\../lv_core/../lv_misc/lv_color.h ****  *      DEFINES
  39:..\..\..\lvgl\version_6.1.2\lvgl\src\lv_objx\../lv_core/../lv_misc/lv_color.h ****  *********************/
  40:..\..\..\lvgl\version_6.1.2\lvgl\src\lv_objx\../lv_core/../lv_misc/lv_color.h **** #define LV_COLOR_WHITE LV_COLOR_MAKE(0xFF, 0xFF, 0xFF)
  41:..\..\..\lvgl\version_6.1.2\lvgl\src\lv_objx\../lv_core/../lv_misc/lv_color.h **** #define LV_COLOR_SILVER LV_COLOR_MAKE(0xC0, 0xC0, 0xC0)
  42:..\..\..\lvgl\version_6.1.2\lvgl\src\lv_objx\../lv_core/../lv_misc/lv_color.h **** #define LV_COLOR_GRAY LV_COLOR_MAKE(0x80, 0x80, 0x80)
  43:..\..\..\lvgl\version_6.1.2\lvgl\src\lv_objx\../lv_core/../lv_misc/lv_color.h **** #define LV_COLOR_BLACK LV_COLOR_MAKE(0x00, 0x00, 0x00)
  44:..\..\..\lvgl\version_6.1.2\lvgl\src\lv_objx\../lv_core/../lv_misc/lv_color.h **** #define LV_COLOR_RED LV_COLOR_MAKE(0xFF, 0x00, 0x00)
  45:..\..\..\lvgl\version_6.1.2\lvgl\src\lv_objx\../lv_core/../lv_misc/lv_color.h **** #define LV_COLOR_MAROON LV_COLOR_MAKE(0x80, 0x00, 0x00)
  46:..\..\..\lvgl\version_6.1.2\lvgl\src\lv_objx\../lv_core/../lv_misc/lv_color.h **** #define LV_COLOR_YELLOW LV_COLOR_MAKE(0xFF, 0xFF, 0x00)
  47:..\..\..\lvgl\version_6.1.2\lvgl\src\lv_objx\../lv_core/../lv_misc/lv_color.h **** #define LV_COLOR_OLIVE LV_COLOR_MAKE(0x80, 0x80, 0x00)
  48:..\..\..\lvgl\version_6.1.2\lvgl\src\lv_objx\../lv_core/../lv_misc/lv_color.h **** #define LV_COLOR_LIME LV_COLOR_MAKE(0x00, 0xFF, 0x00)
  49:..\..\..\lvgl\version_6.1.2\lvgl\src\lv_objx\../lv_core/../lv_misc/lv_color.h **** #define LV_COLOR_GREEN LV_COLOR_MAKE(0x00, 0x80, 0x00)
  50:..\..\..\lvgl\version_6.1.2\lvgl\src\lv_objx\../lv_core/../lv_misc/lv_color.h **** #define LV_COLOR_CYAN LV_COLOR_MAKE(0x00, 0xFF, 0xFF)
  51:..\..\..\lvgl\version_6.1.2\lvgl\src\lv_objx\../lv_core/../lv_misc/lv_color.h **** #define LV_COLOR_AQUA LV_COLOR_CYAN
  52:..\..\..\lvgl\version_6.1.2\lvgl\src\lv_objx\../lv_core/../lv_misc/lv_color.h **** #define LV_COLOR_TEAL LV_COLOR_MAKE(0x00, 0x80, 0x80)
  53:..\..\..\lvgl\version_6.1.2\lvgl\src\lv_objx\../lv_core/../lv_misc/lv_color.h **** #define LV_COLOR_BLUE LV_COLOR_MAKE(0x00, 0x00, 0xFF)
  54:..\..\..\lvgl\version_6.1.2\lvgl\src\lv_objx\../lv_core/../lv_misc/lv_color.h **** #define LV_COLOR_NAVY LV_COLOR_MAKE(0x00, 0x00, 0x80)
  55:..\..\..\lvgl\version_6.1.2\lvgl\src\lv_objx\../lv_core/../lv_misc/lv_color.h **** #define LV_COLOR_MAGENTA LV_COLOR_MAKE(0xFF, 0x00, 0xFF)
  56:..\..\..\lvgl\version_6.1.2\lvgl\src\lv_objx\../lv_core/../lv_misc/lv_color.h **** #define LV_COLOR_PURPLE LV_COLOR_MAKE(0x80, 0x00, 0x80)
  57:..\..\..\lvgl\version_6.1.2\lvgl\src\lv_objx\../lv_core/../lv_misc/lv_color.h **** #define LV_COLOR_ORANGE LV_COLOR_MAKE(0xFF, 0xA5, 0x00)
  58:..\..\..\lvgl\version_6.1.2\lvgl\src\lv_objx\../lv_core/../lv_misc/lv_color.h **** 
  59:..\..\..\lvgl\version_6.1.2\lvgl\src\lv_objx\../lv_core/../lv_misc/lv_color.h **** /**
  60:..\..\..\lvgl\version_6.1.2\lvgl\src\lv_objx\../lv_core/../lv_misc/lv_color.h ****  * Opacity percentages.
  61:..\..\..\lvgl\version_6.1.2\lvgl\src\lv_objx\../lv_core/../lv_misc/lv_color.h ****  */
  62:..\..\..\lvgl\version_6.1.2\lvgl\src\lv_objx\../lv_core/../lv_misc/lv_color.h **** enum {
  63:..\..\..\lvgl\version_6.1.2\lvgl\src\lv_objx\../lv_core/../lv_misc/lv_color.h ****     LV_OPA_TRANSP = 0,
  64:..\..\..\lvgl\version_6.1.2\lvgl\src\lv_objx\../lv_core/../lv_misc/lv_color.h ****     LV_OPA_0      = 0,
  65:..\..\..\lvgl\version_6.1.2\lvgl\src\lv_objx\../lv_core/../lv_misc/lv_color.h ****     LV_OPA_10     = 25,
  66:..\..\..\lvgl\version_6.1.2\lvgl\src\lv_objx\../lv_core/../lv_misc/lv_color.h ****     LV_OPA_20     = 51,
  67:..\..\..\lvgl\version_6.1.2\lvgl\src\lv_objx\../lv_core/../lv_misc/lv_color.h ****     LV_OPA_30     = 76,
  68:..\..\..\lvgl\version_6.1.2\lvgl\src\lv_objx\../lv_core/../lv_misc/lv_color.h ****     LV_OPA_40     = 102,
  69:..\..\..\lvgl\version_6.1.2\lvgl\src\lv_objx\../lv_core/../lv_misc/lv_color.h ****     LV_OPA_50     = 127,
  70:..\..\..\lvgl\version_6.1.2\lvgl\src\lv_objx\../lv_core/../lv_misc/lv_color.h ****     LV_OPA_60     = 153,
  71:..\..\..\lvgl\version_6.1.2\lvgl\src\lv_objx\../lv_core/../lv_misc/lv_color.h ****     LV_OPA_70     = 178,
  72:..\..\..\lvgl\version_6.1.2\lvgl\src\lv_objx\../lv_core/../lv_misc/lv_color.h ****     LV_OPA_80     = 204,
  73:..\..\..\lvgl\version_6.1.2\lvgl\src\lv_objx\../lv_core/../lv_misc/lv_color.h ****     LV_OPA_90     = 229,
  74:..\..\..\lvgl\version_6.1.2\lvgl\src\lv_objx\../lv_core/../lv_misc/lv_color.h ****     LV_OPA_100    = 255,
  75:..\..\..\lvgl\version_6.1.2\lvgl\src\lv_objx\../lv_core/../lv_misc/lv_color.h ****     LV_OPA_COVER  = 255,
  76:..\..\..\lvgl\version_6.1.2\lvgl\src\lv_objx\../lv_core/../lv_misc/lv_color.h **** };
  77:..\..\..\lvgl\version_6.1.2\lvgl\src\lv_objx\../lv_core/../lv_misc/lv_color.h **** 
  78:..\..\..\lvgl\version_6.1.2\lvgl\src\lv_objx\../lv_core/../lv_misc/lv_color.h **** #define LV_OPA_MIN 16  /*Opacities below this will be transparent*/
  79:..\..\..\lvgl\version_6.1.2\lvgl\src\lv_objx\../lv_core/../lv_misc/lv_color.h **** #define LV_OPA_MAX 251 /*Opacities above this will fully cover*/
  80:..\..\..\lvgl\version_6.1.2\lvgl\src\lv_objx\../lv_core/../lv_misc/lv_color.h **** 
  81:..\..\..\lvgl\version_6.1.2\lvgl\src\lv_objx\../lv_core/../lv_misc/lv_color.h **** #if LV_COLOR_DEPTH == 1
  82:..\..\..\lvgl\version_6.1.2\lvgl\src\lv_objx\../lv_core/../lv_misc/lv_color.h **** #define LV_COLOR_SIZE 8
  83:..\..\..\lvgl\version_6.1.2\lvgl\src\lv_objx\../lv_core/../lv_misc/lv_color.h **** #elif LV_COLOR_DEPTH == 8
  84:..\..\..\lvgl\version_6.1.2\lvgl\src\lv_objx\../lv_core/../lv_misc/lv_color.h **** #define LV_COLOR_SIZE 8
  85:..\..\..\lvgl\version_6.1.2\lvgl\src\lv_objx\../lv_core/../lv_misc/lv_color.h **** #elif LV_COLOR_DEPTH == 16
  86:..\..\..\lvgl\version_6.1.2\lvgl\src\lv_objx\../lv_core/../lv_misc/lv_color.h **** #define LV_COLOR_SIZE 16
  87:..\..\..\lvgl\version_6.1.2\lvgl\src\lv_objx\../lv_core/../lv_misc/lv_color.h **** #elif LV_COLOR_DEPTH == 32
ARM GAS  C:\Users\tmj32\AppData\Local\Temp\ccKH8gEj.s 			page 3


  88:..\..\..\lvgl\version_6.1.2\lvgl\src\lv_objx\../lv_core/../lv_misc/lv_color.h **** #define LV_COLOR_SIZE 32
  89:..\..\..\lvgl\version_6.1.2\lvgl\src\lv_objx\../lv_core/../lv_misc/lv_color.h **** #else
  90:..\..\..\lvgl\version_6.1.2\lvgl\src\lv_objx\../lv_core/../lv_misc/lv_color.h **** #error "Invalid LV_COLOR_DEPTH in lv_conf.h! Set it to 1, 8, 16 or 32!"
  91:..\..\..\lvgl\version_6.1.2\lvgl\src\lv_objx\../lv_core/../lv_misc/lv_color.h **** #endif
  92:..\..\..\lvgl\version_6.1.2\lvgl\src\lv_objx\../lv_core/../lv_misc/lv_color.h **** 
  93:..\..\..\lvgl\version_6.1.2\lvgl\src\lv_objx\../lv_core/../lv_misc/lv_color.h **** /*---------------------------------------
  94:..\..\..\lvgl\version_6.1.2\lvgl\src\lv_objx\../lv_core/../lv_misc/lv_color.h ****  * Macros for all existing  color depths
  95:..\..\..\lvgl\version_6.1.2\lvgl\src\lv_objx\../lv_core/../lv_misc/lv_color.h ****  * to set/get values of the color channels
  96:..\..\..\lvgl\version_6.1.2\lvgl\src\lv_objx\../lv_core/../lv_misc/lv_color.h ****  *------------------------------------------*/
  97:..\..\..\lvgl\version_6.1.2\lvgl\src\lv_objx\../lv_core/../lv_misc/lv_color.h **** # define LV_COLOR_SET_R1(c, v) (c).ch.red = (uint8_t)((v) & 0x1);
  98:..\..\..\lvgl\version_6.1.2\lvgl\src\lv_objx\../lv_core/../lv_misc/lv_color.h **** # define LV_COLOR_SET_G1(c, v) (c).ch.green = (uint8_t)((v) & 0x1);
  99:..\..\..\lvgl\version_6.1.2\lvgl\src\lv_objx\../lv_core/../lv_misc/lv_color.h **** # define LV_COLOR_SET_B1(c, v) (c).ch.blue = (uint8_t)((v) & 0x1);
 100:..\..\..\lvgl\version_6.1.2\lvgl\src\lv_objx\../lv_core/../lv_misc/lv_color.h **** # define LV_COLOR_SET_A1(c, v)
 101:..\..\..\lvgl\version_6.1.2\lvgl\src\lv_objx\../lv_core/../lv_misc/lv_color.h **** 
 102:..\..\..\lvgl\version_6.1.2\lvgl\src\lv_objx\../lv_core/../lv_misc/lv_color.h **** # define LV_COLOR_GET_R1(c) (c).ch.red
 103:..\..\..\lvgl\version_6.1.2\lvgl\src\lv_objx\../lv_core/../lv_misc/lv_color.h **** # define LV_COLOR_GET_G1(c) (c).ch.green
 104:..\..\..\lvgl\version_6.1.2\lvgl\src\lv_objx\../lv_core/../lv_misc/lv_color.h **** # define LV_COLOR_GET_B1(c) (c).ch.blue
 105:..\..\..\lvgl\version_6.1.2\lvgl\src\lv_objx\../lv_core/../lv_misc/lv_color.h **** # define LV_COLOR_GET_A1(c) 1
 106:..\..\..\lvgl\version_6.1.2\lvgl\src\lv_objx\../lv_core/../lv_misc/lv_color.h **** 
 107:..\..\..\lvgl\version_6.1.2\lvgl\src\lv_objx\../lv_core/../lv_misc/lv_color.h **** # define LV_COLOR_SET_R8(c, v) (c).ch.red = (uint8_t)(v) & 0x7U;
 108:..\..\..\lvgl\version_6.1.2\lvgl\src\lv_objx\../lv_core/../lv_misc/lv_color.h **** # define LV_COLOR_SET_G8(c, v) (c).ch.green = (uint8_t)(v) & 0x7U;
 109:..\..\..\lvgl\version_6.1.2\lvgl\src\lv_objx\../lv_core/../lv_misc/lv_color.h **** # define LV_COLOR_SET_B8(c, v) (c).ch.blue = (uint8_t)(v) & 0x3U;
 110:..\..\..\lvgl\version_6.1.2\lvgl\src\lv_objx\../lv_core/../lv_misc/lv_color.h **** # define LV_COLOR_SET_A8(c, v) do {} while(0)
 111:..\..\..\lvgl\version_6.1.2\lvgl\src\lv_objx\../lv_core/../lv_misc/lv_color.h **** 
 112:..\..\..\lvgl\version_6.1.2\lvgl\src\lv_objx\../lv_core/../lv_misc/lv_color.h **** # define LV_COLOR_GET_R8(c) (c).ch.red
 113:..\..\..\lvgl\version_6.1.2\lvgl\src\lv_objx\../lv_core/../lv_misc/lv_color.h **** # define LV_COLOR_GET_G8(c) (c).ch.green
 114:..\..\..\lvgl\version_6.1.2\lvgl\src\lv_objx\../lv_core/../lv_misc/lv_color.h **** # define LV_COLOR_GET_B8(c) (c).ch.blue
 115:..\..\..\lvgl\version_6.1.2\lvgl\src\lv_objx\../lv_core/../lv_misc/lv_color.h **** # define LV_COLOR_GET_A8(c) 0xFF
 116:..\..\..\lvgl\version_6.1.2\lvgl\src\lv_objx\../lv_core/../lv_misc/lv_color.h **** 
 117:..\..\..\lvgl\version_6.1.2\lvgl\src\lv_objx\../lv_core/../lv_misc/lv_color.h **** # define LV_COLOR_SET_R16(c, v) (c).ch.red = (uint8_t)(v) & 0x1FU;
 118:..\..\..\lvgl\version_6.1.2\lvgl\src\lv_objx\../lv_core/../lv_misc/lv_color.h **** # define LV_COLOR_SET_G16(c, v) (c).ch.green = (uint8_t)(v) & 0x3FU;
 119:..\..\..\lvgl\version_6.1.2\lvgl\src\lv_objx\../lv_core/../lv_misc/lv_color.h **** # define LV_COLOR_SET_G16_SWAP(c, v) {(c).ch.green_h = (uint8_t)(((v) >> 3) & 0x7); (c).ch.green_l 
 120:..\..\..\lvgl\version_6.1.2\lvgl\src\lv_objx\../lv_core/../lv_misc/lv_color.h **** # define LV_COLOR_SET_B16(c, v) (c).ch.blue = (uint8_t)(v) & 0x1FU;
 121:..\..\..\lvgl\version_6.1.2\lvgl\src\lv_objx\../lv_core/../lv_misc/lv_color.h **** # define LV_COLOR_SET_A16(c, v) do {} while(0)
 122:..\..\..\lvgl\version_6.1.2\lvgl\src\lv_objx\../lv_core/../lv_misc/lv_color.h **** 
 123:..\..\..\lvgl\version_6.1.2\lvgl\src\lv_objx\../lv_core/../lv_misc/lv_color.h **** # define LV_COLOR_GET_R16(c) (c).ch.red
 124:..\..\..\lvgl\version_6.1.2\lvgl\src\lv_objx\../lv_core/../lv_misc/lv_color.h **** # define LV_COLOR_GET_G16(c) (c).ch.green
 125:..\..\..\lvgl\version_6.1.2\lvgl\src\lv_objx\../lv_core/../lv_misc/lv_color.h **** # define LV_COLOR_GET_G16_SWAP(c) (((c).ch.green_h << 3) + (c).ch.green_l)
 126:..\..\..\lvgl\version_6.1.2\lvgl\src\lv_objx\../lv_core/../lv_misc/lv_color.h **** # define LV_COLOR_GET_B16(c) (c).ch.blue
 127:..\..\..\lvgl\version_6.1.2\lvgl\src\lv_objx\../lv_core/../lv_misc/lv_color.h **** # define LV_COLOR_GET_A16(c) 0xFF
 128:..\..\..\lvgl\version_6.1.2\lvgl\src\lv_objx\../lv_core/../lv_misc/lv_color.h **** 
 129:..\..\..\lvgl\version_6.1.2\lvgl\src\lv_objx\../lv_core/../lv_misc/lv_color.h **** # define LV_COLOR_SET_R32(c, v) (c).ch.red = (uint32_t)((v) & 0xFF);
 130:..\..\..\lvgl\version_6.1.2\lvgl\src\lv_objx\../lv_core/../lv_misc/lv_color.h **** # define LV_COLOR_SET_G32(c, v) (c).ch.green = (uint32_t)((v) & 0xFF);
 131:..\..\..\lvgl\version_6.1.2\lvgl\src\lv_objx\../lv_core/../lv_misc/lv_color.h **** # define LV_COLOR_SET_B32(c, v) (c).ch.blue = (uint32_t)((v) & 0xFF);
 132:..\..\..\lvgl\version_6.1.2\lvgl\src\lv_objx\../lv_core/../lv_misc/lv_color.h **** # define LV_COLOR_SET_A32(c, v) (c).ch.alpha = (uint32_t)((v) & 0xFF);
 133:..\..\..\lvgl\version_6.1.2\lvgl\src\lv_objx\../lv_core/../lv_misc/lv_color.h **** 
 134:..\..\..\lvgl\version_6.1.2\lvgl\src\lv_objx\../lv_core/../lv_misc/lv_color.h **** # define LV_COLOR_GET_R32(c) (c).ch.red
 135:..\..\..\lvgl\version_6.1.2\lvgl\src\lv_objx\../lv_core/../lv_misc/lv_color.h **** # define LV_COLOR_GET_G32(c) (c).ch.green
 136:..\..\..\lvgl\version_6.1.2\lvgl\src\lv_objx\../lv_core/../lv_misc/lv_color.h **** # define LV_COLOR_GET_B32(c) (c).ch.blue
 137:..\..\..\lvgl\version_6.1.2\lvgl\src\lv_objx\../lv_core/../lv_misc/lv_color.h **** # define LV_COLOR_GET_A32(c) (c).ch.alpha
 138:..\..\..\lvgl\version_6.1.2\lvgl\src\lv_objx\../lv_core/../lv_misc/lv_color.h **** 
 139:..\..\..\lvgl\version_6.1.2\lvgl\src\lv_objx\../lv_core/../lv_misc/lv_color.h **** 
 140:..\..\..\lvgl\version_6.1.2\lvgl\src\lv_objx\../lv_core/../lv_misc/lv_color.h **** /*---------------------------------------
 141:..\..\..\lvgl\version_6.1.2\lvgl\src\lv_objx\../lv_core/../lv_misc/lv_color.h ****  * Macros for the current color depth
 142:..\..\..\lvgl\version_6.1.2\lvgl\src\lv_objx\../lv_core/../lv_misc/lv_color.h ****  * to set/get values of the color channels
 143:..\..\..\lvgl\version_6.1.2\lvgl\src\lv_objx\../lv_core/../lv_misc/lv_color.h ****  *------------------------------------------*/
 144:..\..\..\lvgl\version_6.1.2\lvgl\src\lv_objx\../lv_core/../lv_misc/lv_color.h **** #if LV_COLOR_DEPTH == 1
ARM GAS  C:\Users\tmj32\AppData\Local\Temp\ccKH8gEj.s 			page 4


 145:..\..\..\lvgl\version_6.1.2\lvgl\src\lv_objx\../lv_core/../lv_misc/lv_color.h **** # define LV_COLOR_SET_R(c, v) LV_COLOR_SET_R1(c,v)
 146:..\..\..\lvgl\version_6.1.2\lvgl\src\lv_objx\../lv_core/../lv_misc/lv_color.h **** # define LV_COLOR_SET_G(c, v) LV_COLOR_SET_G1(c,v)
 147:..\..\..\lvgl\version_6.1.2\lvgl\src\lv_objx\../lv_core/../lv_misc/lv_color.h **** # define LV_COLOR_SET_B(c, v) LV_COLOR_SET_B1(c,v)
 148:..\..\..\lvgl\version_6.1.2\lvgl\src\lv_objx\../lv_core/../lv_misc/lv_color.h **** # define LV_COLOR_SET_A(c, v) LV_COLOR_SET_A1(c,v)
 149:..\..\..\lvgl\version_6.1.2\lvgl\src\lv_objx\../lv_core/../lv_misc/lv_color.h **** 
 150:..\..\..\lvgl\version_6.1.2\lvgl\src\lv_objx\../lv_core/../lv_misc/lv_color.h **** # define LV_COLOR_GET_R(c) LV_COLOR_GET_R1(c)
 151:..\..\..\lvgl\version_6.1.2\lvgl\src\lv_objx\../lv_core/../lv_misc/lv_color.h **** # define LV_COLOR_GET_G(c) LV_COLOR_GET_G1(c)
 152:..\..\..\lvgl\version_6.1.2\lvgl\src\lv_objx\../lv_core/../lv_misc/lv_color.h **** # define LV_COLOR_GET_B(c) LV_COLOR_GET_B1(c)
 153:..\..\..\lvgl\version_6.1.2\lvgl\src\lv_objx\../lv_core/../lv_misc/lv_color.h **** # define LV_COLOR_GET_A(c) LV_COLOR_GET_A1(c)
 154:..\..\..\lvgl\version_6.1.2\lvgl\src\lv_objx\../lv_core/../lv_misc/lv_color.h **** 
 155:..\..\..\lvgl\version_6.1.2\lvgl\src\lv_objx\../lv_core/../lv_misc/lv_color.h **** #elif LV_COLOR_DEPTH == 8
 156:..\..\..\lvgl\version_6.1.2\lvgl\src\lv_objx\../lv_core/../lv_misc/lv_color.h **** # define LV_COLOR_SET_R(c, v) LV_COLOR_SET_R8(c,v)
 157:..\..\..\lvgl\version_6.1.2\lvgl\src\lv_objx\../lv_core/../lv_misc/lv_color.h **** # define LV_COLOR_SET_G(c, v) LV_COLOR_SET_G8(c,v)
 158:..\..\..\lvgl\version_6.1.2\lvgl\src\lv_objx\../lv_core/../lv_misc/lv_color.h **** # define LV_COLOR_SET_B(c, v) LV_COLOR_SET_B8(c,v)
 159:..\..\..\lvgl\version_6.1.2\lvgl\src\lv_objx\../lv_core/../lv_misc/lv_color.h **** # define LV_COLOR_SET_A(c, v) LV_COLOR_SET_A8(c,v)
 160:..\..\..\lvgl\version_6.1.2\lvgl\src\lv_objx\../lv_core/../lv_misc/lv_color.h **** 
 161:..\..\..\lvgl\version_6.1.2\lvgl\src\lv_objx\../lv_core/../lv_misc/lv_color.h **** # define LV_COLOR_GET_R(c) LV_COLOR_GET_R8(c)
 162:..\..\..\lvgl\version_6.1.2\lvgl\src\lv_objx\../lv_core/../lv_misc/lv_color.h **** # define LV_COLOR_GET_G(c) LV_COLOR_GET_G8(c)
 163:..\..\..\lvgl\version_6.1.2\lvgl\src\lv_objx\../lv_core/../lv_misc/lv_color.h **** # define LV_COLOR_GET_B(c) LV_COLOR_GET_B8(c)
 164:..\..\..\lvgl\version_6.1.2\lvgl\src\lv_objx\../lv_core/../lv_misc/lv_color.h **** # define LV_COLOR_GET_A(c) LV_COLOR_GET_A8(c)
 165:..\..\..\lvgl\version_6.1.2\lvgl\src\lv_objx\../lv_core/../lv_misc/lv_color.h **** 
 166:..\..\..\lvgl\version_6.1.2\lvgl\src\lv_objx\../lv_core/../lv_misc/lv_color.h **** #elif LV_COLOR_DEPTH == 16
 167:..\..\..\lvgl\version_6.1.2\lvgl\src\lv_objx\../lv_core/../lv_misc/lv_color.h **** # define LV_COLOR_SET_R(c, v) LV_COLOR_SET_R16(c,v)
 168:..\..\..\lvgl\version_6.1.2\lvgl\src\lv_objx\../lv_core/../lv_misc/lv_color.h **** # if LV_COLOR_16_SWAP == 0
 169:..\..\..\lvgl\version_6.1.2\lvgl\src\lv_objx\../lv_core/../lv_misc/lv_color.h **** #   define LV_COLOR_SET_G(c, v) LV_COLOR_SET_G16(c,v)
 170:..\..\..\lvgl\version_6.1.2\lvgl\src\lv_objx\../lv_core/../lv_misc/lv_color.h **** # else
 171:..\..\..\lvgl\version_6.1.2\lvgl\src\lv_objx\../lv_core/../lv_misc/lv_color.h **** #   define LV_COLOR_SET_G(c, v) LV_COLOR_SET_G16_SWAP(c,v)
 172:..\..\..\lvgl\version_6.1.2\lvgl\src\lv_objx\../lv_core/../lv_misc/lv_color.h **** # endif
 173:..\..\..\lvgl\version_6.1.2\lvgl\src\lv_objx\../lv_core/../lv_misc/lv_color.h **** # define LV_COLOR_SET_B(c, v) LV_COLOR_SET_B16(c,v)
 174:..\..\..\lvgl\version_6.1.2\lvgl\src\lv_objx\../lv_core/../lv_misc/lv_color.h **** # define LV_COLOR_SET_A(c, v) LV_COLOR_SET_A16(c,v)
 175:..\..\..\lvgl\version_6.1.2\lvgl\src\lv_objx\../lv_core/../lv_misc/lv_color.h **** 
 176:..\..\..\lvgl\version_6.1.2\lvgl\src\lv_objx\../lv_core/../lv_misc/lv_color.h **** # define LV_COLOR_GET_R(c) LV_COLOR_GET_R16(c)
 177:..\..\..\lvgl\version_6.1.2\lvgl\src\lv_objx\../lv_core/../lv_misc/lv_color.h **** # if LV_COLOR_16_SWAP == 0
 178:..\..\..\lvgl\version_6.1.2\lvgl\src\lv_objx\../lv_core/../lv_misc/lv_color.h **** #   define LV_COLOR_GET_G(c) LV_COLOR_GET_G16(c)
 179:..\..\..\lvgl\version_6.1.2\lvgl\src\lv_objx\../lv_core/../lv_misc/lv_color.h **** # else
 180:..\..\..\lvgl\version_6.1.2\lvgl\src\lv_objx\../lv_core/../lv_misc/lv_color.h **** #   define LV_COLOR_GET_G(c) LV_COLOR_GET_G16_SWAP(c)
 181:..\..\..\lvgl\version_6.1.2\lvgl\src\lv_objx\../lv_core/../lv_misc/lv_color.h **** # endif
 182:..\..\..\lvgl\version_6.1.2\lvgl\src\lv_objx\../lv_core/../lv_misc/lv_color.h **** # define LV_COLOR_GET_B(c)   LV_COLOR_GET_B16(c)
 183:..\..\..\lvgl\version_6.1.2\lvgl\src\lv_objx\../lv_core/../lv_misc/lv_color.h **** # define LV_COLOR_GET_A(c)   LV_COLOR_GET_A16(c)
 184:..\..\..\lvgl\version_6.1.2\lvgl\src\lv_objx\../lv_core/../lv_misc/lv_color.h **** 
 185:..\..\..\lvgl\version_6.1.2\lvgl\src\lv_objx\../lv_core/../lv_misc/lv_color.h **** #elif LV_COLOR_DEPTH == 32
 186:..\..\..\lvgl\version_6.1.2\lvgl\src\lv_objx\../lv_core/../lv_misc/lv_color.h **** # define LV_COLOR_SET_R(c, v) LV_COLOR_SET_R32(c,v)
 187:..\..\..\lvgl\version_6.1.2\lvgl\src\lv_objx\../lv_core/../lv_misc/lv_color.h **** # define LV_COLOR_SET_G(c, v) LV_COLOR_SET_G32(c,v)
 188:..\..\..\lvgl\version_6.1.2\lvgl\src\lv_objx\../lv_core/../lv_misc/lv_color.h **** # define LV_COLOR_SET_B(c, v) LV_COLOR_SET_B32(c,v)
 189:..\..\..\lvgl\version_6.1.2\lvgl\src\lv_objx\../lv_core/../lv_misc/lv_color.h **** # define LV_COLOR_SET_A(c, v) LV_COLOR_SET_A32(c,v)
 190:..\..\..\lvgl\version_6.1.2\lvgl\src\lv_objx\../lv_core/../lv_misc/lv_color.h **** 
 191:..\..\..\lvgl\version_6.1.2\lvgl\src\lv_objx\../lv_core/../lv_misc/lv_color.h **** # define LV_COLOR_GET_R(c) LV_COLOR_GET_R32(c)
 192:..\..\..\lvgl\version_6.1.2\lvgl\src\lv_objx\../lv_core/../lv_misc/lv_color.h **** # define LV_COLOR_GET_G(c) LV_COLOR_GET_G32(c)
 193:..\..\..\lvgl\version_6.1.2\lvgl\src\lv_objx\../lv_core/../lv_misc/lv_color.h **** # define LV_COLOR_GET_B(c) LV_COLOR_GET_B32(c)
 194:..\..\..\lvgl\version_6.1.2\lvgl\src\lv_objx\../lv_core/../lv_misc/lv_color.h **** # define LV_COLOR_GET_A(c) LV_COLOR_GET_A32(c)
 195:..\..\..\lvgl\version_6.1.2\lvgl\src\lv_objx\../lv_core/../lv_misc/lv_color.h **** #endif
 196:..\..\..\lvgl\version_6.1.2\lvgl\src\lv_objx\../lv_core/../lv_misc/lv_color.h **** 
 197:..\..\..\lvgl\version_6.1.2\lvgl\src\lv_objx\../lv_core/../lv_misc/lv_color.h **** /**********************
 198:..\..\..\lvgl\version_6.1.2\lvgl\src\lv_objx\../lv_core/../lv_misc/lv_color.h ****  *      TYPEDEFS
 199:..\..\..\lvgl\version_6.1.2\lvgl\src\lv_objx\../lv_core/../lv_misc/lv_color.h ****  **********************/
 200:..\..\..\lvgl\version_6.1.2\lvgl\src\lv_objx\../lv_core/../lv_misc/lv_color.h **** 
 201:..\..\..\lvgl\version_6.1.2\lvgl\src\lv_objx\../lv_core/../lv_misc/lv_color.h **** typedef union
ARM GAS  C:\Users\tmj32\AppData\Local\Temp\ccKH8gEj.s 			page 5


 202:..\..\..\lvgl\version_6.1.2\lvgl\src\lv_objx\../lv_core/../lv_misc/lv_color.h **** {
 203:..\..\..\lvgl\version_6.1.2\lvgl\src\lv_objx\../lv_core/../lv_misc/lv_color.h ****     struct
 204:..\..\..\lvgl\version_6.1.2\lvgl\src\lv_objx\../lv_core/../lv_misc/lv_color.h ****     {
 205:..\..\..\lvgl\version_6.1.2\lvgl\src\lv_objx\../lv_core/../lv_misc/lv_color.h ****         uint8_t blue : 1;
 206:..\..\..\lvgl\version_6.1.2\lvgl\src\lv_objx\../lv_core/../lv_misc/lv_color.h ****         uint8_t green : 1;
 207:..\..\..\lvgl\version_6.1.2\lvgl\src\lv_objx\../lv_core/../lv_misc/lv_color.h ****         uint8_t red : 1;
 208:..\..\..\lvgl\version_6.1.2\lvgl\src\lv_objx\../lv_core/../lv_misc/lv_color.h ****     } ch;
 209:..\..\..\lvgl\version_6.1.2\lvgl\src\lv_objx\../lv_core/../lv_misc/lv_color.h ****     uint8_t full;
 210:..\..\..\lvgl\version_6.1.2\lvgl\src\lv_objx\../lv_core/../lv_misc/lv_color.h **** } lv_color1_t;
 211:..\..\..\lvgl\version_6.1.2\lvgl\src\lv_objx\../lv_core/../lv_misc/lv_color.h **** 
 212:..\..\..\lvgl\version_6.1.2\lvgl\src\lv_objx\../lv_core/../lv_misc/lv_color.h **** typedef union
 213:..\..\..\lvgl\version_6.1.2\lvgl\src\lv_objx\../lv_core/../lv_misc/lv_color.h **** {
 214:..\..\..\lvgl\version_6.1.2\lvgl\src\lv_objx\../lv_core/../lv_misc/lv_color.h ****     struct
 215:..\..\..\lvgl\version_6.1.2\lvgl\src\lv_objx\../lv_core/../lv_misc/lv_color.h ****     {
 216:..\..\..\lvgl\version_6.1.2\lvgl\src\lv_objx\../lv_core/../lv_misc/lv_color.h ****         uint8_t blue : 2;
 217:..\..\..\lvgl\version_6.1.2\lvgl\src\lv_objx\../lv_core/../lv_misc/lv_color.h ****         uint8_t green : 3;
 218:..\..\..\lvgl\version_6.1.2\lvgl\src\lv_objx\../lv_core/../lv_misc/lv_color.h ****         uint8_t red : 3;
 219:..\..\..\lvgl\version_6.1.2\lvgl\src\lv_objx\../lv_core/../lv_misc/lv_color.h ****     } ch;
 220:..\..\..\lvgl\version_6.1.2\lvgl\src\lv_objx\../lv_core/../lv_misc/lv_color.h ****     uint8_t full;
 221:..\..\..\lvgl\version_6.1.2\lvgl\src\lv_objx\../lv_core/../lv_misc/lv_color.h **** } lv_color8_t;
 222:..\..\..\lvgl\version_6.1.2\lvgl\src\lv_objx\../lv_core/../lv_misc/lv_color.h **** 
 223:..\..\..\lvgl\version_6.1.2\lvgl\src\lv_objx\../lv_core/../lv_misc/lv_color.h **** typedef union
 224:..\..\..\lvgl\version_6.1.2\lvgl\src\lv_objx\../lv_core/../lv_misc/lv_color.h **** {
 225:..\..\..\lvgl\version_6.1.2\lvgl\src\lv_objx\../lv_core/../lv_misc/lv_color.h ****     struct
 226:..\..\..\lvgl\version_6.1.2\lvgl\src\lv_objx\../lv_core/../lv_misc/lv_color.h ****     {
 227:..\..\..\lvgl\version_6.1.2\lvgl\src\lv_objx\../lv_core/../lv_misc/lv_color.h **** #if LV_COLOR_16_SWAP == 0
 228:..\..\..\lvgl\version_6.1.2\lvgl\src\lv_objx\../lv_core/../lv_misc/lv_color.h ****         uint16_t blue : 5;
 229:..\..\..\lvgl\version_6.1.2\lvgl\src\lv_objx\../lv_core/../lv_misc/lv_color.h ****         uint16_t green : 6;
 230:..\..\..\lvgl\version_6.1.2\lvgl\src\lv_objx\../lv_core/../lv_misc/lv_color.h ****         uint16_t red : 5;
 231:..\..\..\lvgl\version_6.1.2\lvgl\src\lv_objx\../lv_core/../lv_misc/lv_color.h **** #else
 232:..\..\..\lvgl\version_6.1.2\lvgl\src\lv_objx\../lv_core/../lv_misc/lv_color.h ****         uint16_t green_h : 3;
 233:..\..\..\lvgl\version_6.1.2\lvgl\src\lv_objx\../lv_core/../lv_misc/lv_color.h ****         uint16_t red : 5;
 234:..\..\..\lvgl\version_6.1.2\lvgl\src\lv_objx\../lv_core/../lv_misc/lv_color.h ****         uint16_t blue : 5;
 235:..\..\..\lvgl\version_6.1.2\lvgl\src\lv_objx\../lv_core/../lv_misc/lv_color.h ****         uint16_t green_l : 3;
 236:..\..\..\lvgl\version_6.1.2\lvgl\src\lv_objx\../lv_core/../lv_misc/lv_color.h **** #endif
 237:..\..\..\lvgl\version_6.1.2\lvgl\src\lv_objx\../lv_core/../lv_misc/lv_color.h ****     } ch;
 238:..\..\..\lvgl\version_6.1.2\lvgl\src\lv_objx\../lv_core/../lv_misc/lv_color.h ****     uint16_t full;
 239:..\..\..\lvgl\version_6.1.2\lvgl\src\lv_objx\../lv_core/../lv_misc/lv_color.h **** } lv_color16_t;
 240:..\..\..\lvgl\version_6.1.2\lvgl\src\lv_objx\../lv_core/../lv_misc/lv_color.h **** 
 241:..\..\..\lvgl\version_6.1.2\lvgl\src\lv_objx\../lv_core/../lv_misc/lv_color.h **** typedef union
 242:..\..\..\lvgl\version_6.1.2\lvgl\src\lv_objx\../lv_core/../lv_misc/lv_color.h **** {
 243:..\..\..\lvgl\version_6.1.2\lvgl\src\lv_objx\../lv_core/../lv_misc/lv_color.h ****     struct
 244:..\..\..\lvgl\version_6.1.2\lvgl\src\lv_objx\../lv_core/../lv_misc/lv_color.h ****     {
 245:..\..\..\lvgl\version_6.1.2\lvgl\src\lv_objx\../lv_core/../lv_misc/lv_color.h ****         uint8_t blue;
 246:..\..\..\lvgl\version_6.1.2\lvgl\src\lv_objx\../lv_core/../lv_misc/lv_color.h ****         uint8_t green;
 247:..\..\..\lvgl\version_6.1.2\lvgl\src\lv_objx\../lv_core/../lv_misc/lv_color.h ****         uint8_t red;
 248:..\..\..\lvgl\version_6.1.2\lvgl\src\lv_objx\../lv_core/../lv_misc/lv_color.h ****         uint8_t alpha;
 249:..\..\..\lvgl\version_6.1.2\lvgl\src\lv_objx\../lv_core/../lv_misc/lv_color.h ****     } ch;
 250:..\..\..\lvgl\version_6.1.2\lvgl\src\lv_objx\../lv_core/../lv_misc/lv_color.h ****     uint32_t full;
 251:..\..\..\lvgl\version_6.1.2\lvgl\src\lv_objx\../lv_core/../lv_misc/lv_color.h **** } lv_color32_t;
 252:..\..\..\lvgl\version_6.1.2\lvgl\src\lv_objx\../lv_core/../lv_misc/lv_color.h **** 
 253:..\..\..\lvgl\version_6.1.2\lvgl\src\lv_objx\../lv_core/../lv_misc/lv_color.h **** #if LV_COLOR_DEPTH == 1
 254:..\..\..\lvgl\version_6.1.2\lvgl\src\lv_objx\../lv_core/../lv_misc/lv_color.h **** typedef uint8_t lv_color_int_t;
 255:..\..\..\lvgl\version_6.1.2\lvgl\src\lv_objx\../lv_core/../lv_misc/lv_color.h **** typedef lv_color1_t lv_color_t;
 256:..\..\..\lvgl\version_6.1.2\lvgl\src\lv_objx\../lv_core/../lv_misc/lv_color.h **** #elif LV_COLOR_DEPTH == 8
 257:..\..\..\lvgl\version_6.1.2\lvgl\src\lv_objx\../lv_core/../lv_misc/lv_color.h **** typedef uint8_t lv_color_int_t;
 258:..\..\..\lvgl\version_6.1.2\lvgl\src\lv_objx\../lv_core/../lv_misc/lv_color.h **** typedef lv_color8_t lv_color_t;
ARM GAS  C:\Users\tmj32\AppData\Local\Temp\ccKH8gEj.s 			page 6


 259:..\..\..\lvgl\version_6.1.2\lvgl\src\lv_objx\../lv_core/../lv_misc/lv_color.h **** #elif LV_COLOR_DEPTH == 16
 260:..\..\..\lvgl\version_6.1.2\lvgl\src\lv_objx\../lv_core/../lv_misc/lv_color.h **** typedef uint16_t lv_color_int_t;
 261:..\..\..\lvgl\version_6.1.2\lvgl\src\lv_objx\../lv_core/../lv_misc/lv_color.h **** typedef lv_color16_t lv_color_t;
 262:..\..\..\lvgl\version_6.1.2\lvgl\src\lv_objx\../lv_core/../lv_misc/lv_color.h **** #elif LV_COLOR_DEPTH == 32
 263:..\..\..\lvgl\version_6.1.2\lvgl\src\lv_objx\../lv_core/../lv_misc/lv_color.h **** typedef uint32_t lv_color_int_t;
 264:..\..\..\lvgl\version_6.1.2\lvgl\src\lv_objx\../lv_core/../lv_misc/lv_color.h **** typedef lv_color32_t lv_color_t;
 265:..\..\..\lvgl\version_6.1.2\lvgl\src\lv_objx\../lv_core/../lv_misc/lv_color.h **** #else
 266:..\..\..\lvgl\version_6.1.2\lvgl\src\lv_objx\../lv_core/../lv_misc/lv_color.h **** #error "Invalid LV_COLOR_DEPTH in lv_conf.h! Set it to 1, 8, 16 or 32!"
 267:..\..\..\lvgl\version_6.1.2\lvgl\src\lv_objx\../lv_core/../lv_misc/lv_color.h **** #endif
 268:..\..\..\lvgl\version_6.1.2\lvgl\src\lv_objx\../lv_core/../lv_misc/lv_color.h **** 
 269:..\..\..\lvgl\version_6.1.2\lvgl\src\lv_objx\../lv_core/../lv_misc/lv_color.h **** typedef uint8_t lv_opa_t;
 270:..\..\..\lvgl\version_6.1.2\lvgl\src\lv_objx\../lv_core/../lv_misc/lv_color.h **** 
 271:..\..\..\lvgl\version_6.1.2\lvgl\src\lv_objx\../lv_core/../lv_misc/lv_color.h **** typedef struct
 272:..\..\..\lvgl\version_6.1.2\lvgl\src\lv_objx\../lv_core/../lv_misc/lv_color.h **** {
 273:..\..\..\lvgl\version_6.1.2\lvgl\src\lv_objx\../lv_core/../lv_misc/lv_color.h ****     uint16_t h;
 274:..\..\..\lvgl\version_6.1.2\lvgl\src\lv_objx\../lv_core/../lv_misc/lv_color.h ****     uint8_t s;
 275:..\..\..\lvgl\version_6.1.2\lvgl\src\lv_objx\../lv_core/../lv_misc/lv_color.h ****     uint8_t v;
 276:..\..\..\lvgl\version_6.1.2\lvgl\src\lv_objx\../lv_core/../lv_misc/lv_color.h **** } lv_color_hsv_t;
 277:..\..\..\lvgl\version_6.1.2\lvgl\src\lv_objx\../lv_core/../lv_misc/lv_color.h **** 
 278:..\..\..\lvgl\version_6.1.2\lvgl\src\lv_objx\../lv_core/../lv_misc/lv_color.h **** /**********************
 279:..\..\..\lvgl\version_6.1.2\lvgl\src\lv_objx\../lv_core/../lv_misc/lv_color.h ****  * GLOBAL PROTOTYPES
 280:..\..\..\lvgl\version_6.1.2\lvgl\src\lv_objx\../lv_core/../lv_misc/lv_color.h ****  **********************/
 281:..\..\..\lvgl\version_6.1.2\lvgl\src\lv_objx\../lv_core/../lv_misc/lv_color.h **** 
 282:..\..\..\lvgl\version_6.1.2\lvgl\src\lv_objx\../lv_core/../lv_misc/lv_color.h **** /*In color conversations:
 283:..\..\..\lvgl\version_6.1.2\lvgl\src\lv_objx\../lv_core/../lv_misc/lv_color.h ****  * - When converting to bigger color type the LSB weight of 1 LSB is calculated
 284:..\..\..\lvgl\version_6.1.2\lvgl\src\lv_objx\../lv_core/../lv_misc/lv_color.h ****  *   E.g. 16 bit Red has 5 bits
 285:..\..\..\lvgl\version_6.1.2\lvgl\src\lv_objx\../lv_core/../lv_misc/lv_color.h ****  *         8 bit Red has 2 bits
 286:..\..\..\lvgl\version_6.1.2\lvgl\src\lv_objx\../lv_core/../lv_misc/lv_color.h ****  *        ----------------------
 287:..\..\..\lvgl\version_6.1.2\lvgl\src\lv_objx\../lv_core/../lv_misc/lv_color.h ****  *        8 bit red LSB = (2^5 - 1) / (2^2 - 1) = 31 / 3 = 10
 288:..\..\..\lvgl\version_6.1.2\lvgl\src\lv_objx\../lv_core/../lv_misc/lv_color.h ****  *
 289:..\..\..\lvgl\version_6.1.2\lvgl\src\lv_objx\../lv_core/../lv_misc/lv_color.h ****  * - When calculating to smaller color type simply shift out the LSBs
 290:..\..\..\lvgl\version_6.1.2\lvgl\src\lv_objx\../lv_core/../lv_misc/lv_color.h ****  *   E.g.  8 bit Red has 2 bits
 291:..\..\..\lvgl\version_6.1.2\lvgl\src\lv_objx\../lv_core/../lv_misc/lv_color.h ****  *        16 bit Red has 5 bits
 292:..\..\..\lvgl\version_6.1.2\lvgl\src\lv_objx\../lv_core/../lv_misc/lv_color.h ****  *        ----------------------
 293:..\..\..\lvgl\version_6.1.2\lvgl\src\lv_objx\../lv_core/../lv_misc/lv_color.h ****  *         Shift right with 5 - 3 = 2
 294:..\..\..\lvgl\version_6.1.2\lvgl\src\lv_objx\../lv_core/../lv_misc/lv_color.h ****  */
 295:..\..\..\lvgl\version_6.1.2\lvgl\src\lv_objx\../lv_core/../lv_misc/lv_color.h **** 
 296:..\..\..\lvgl\version_6.1.2\lvgl\src\lv_objx\../lv_core/../lv_misc/lv_color.h **** static inline uint8_t lv_color_to1(lv_color_t color)
 297:..\..\..\lvgl\version_6.1.2\lvgl\src\lv_objx\../lv_core/../lv_misc/lv_color.h **** {
 298:..\..\..\lvgl\version_6.1.2\lvgl\src\lv_objx\../lv_core/../lv_misc/lv_color.h **** #if LV_COLOR_DEPTH == 1
 299:..\..\..\lvgl\version_6.1.2\lvgl\src\lv_objx\../lv_core/../lv_misc/lv_color.h ****     return color.full;
 300:..\..\..\lvgl\version_6.1.2\lvgl\src\lv_objx\../lv_core/../lv_misc/lv_color.h **** #elif LV_COLOR_DEPTH == 8
 301:..\..\..\lvgl\version_6.1.2\lvgl\src\lv_objx\../lv_core/../lv_misc/lv_color.h ****     if((LV_COLOR_GET_R(color) & 0x4) || (LV_COLOR_GET_G(color) & 0x4) || (LV_COLOR_GET_B(color) & 0
 302:..\..\..\lvgl\version_6.1.2\lvgl\src\lv_objx\../lv_core/../lv_misc/lv_color.h ****         return 1;
 303:..\..\..\lvgl\version_6.1.2\lvgl\src\lv_objx\../lv_core/../lv_misc/lv_color.h ****     } else {
 304:..\..\..\lvgl\version_6.1.2\lvgl\src\lv_objx\../lv_core/../lv_misc/lv_color.h ****         return 0;
 305:..\..\..\lvgl\version_6.1.2\lvgl\src\lv_objx\../lv_core/../lv_misc/lv_color.h ****     }
 306:..\..\..\lvgl\version_6.1.2\lvgl\src\lv_objx\../lv_core/../lv_misc/lv_color.h **** #elif LV_COLOR_DEPTH == 16
 307:..\..\..\lvgl\version_6.1.2\lvgl\src\lv_objx\../lv_core/../lv_misc/lv_color.h ****     if((LV_COLOR_GET_R(color) & 0x10) || (LV_COLOR_GET_G(color) & 0x20) || (LV_COLOR_GET_B(color) &
 308:..\..\..\lvgl\version_6.1.2\lvgl\src\lv_objx\../lv_core/../lv_misc/lv_color.h ****         return 1;
 309:..\..\..\lvgl\version_6.1.2\lvgl\src\lv_objx\../lv_core/../lv_misc/lv_color.h ****     } else {
 310:..\..\..\lvgl\version_6.1.2\lvgl\src\lv_objx\../lv_core/../lv_misc/lv_color.h ****         return 0;
 311:..\..\..\lvgl\version_6.1.2\lvgl\src\lv_objx\../lv_core/../lv_misc/lv_color.h ****     }
 312:..\..\..\lvgl\version_6.1.2\lvgl\src\lv_objx\../lv_core/../lv_misc/lv_color.h **** #elif LV_COLOR_DEPTH == 32
 313:..\..\..\lvgl\version_6.1.2\lvgl\src\lv_objx\../lv_core/../lv_misc/lv_color.h ****     if((LV_COLOR_GET_R(color) & 0x80) || (LV_COLOR_GET_G(color) & 0x80) || (LV_COLOR_GET_B(color) &
 314:..\..\..\lvgl\version_6.1.2\lvgl\src\lv_objx\../lv_core/../lv_misc/lv_color.h ****         return 1;
 315:..\..\..\lvgl\version_6.1.2\lvgl\src\lv_objx\../lv_core/../lv_misc/lv_color.h ****     } else {
ARM GAS  C:\Users\tmj32\AppData\Local\Temp\ccKH8gEj.s 			page 7


 316:..\..\..\lvgl\version_6.1.2\lvgl\src\lv_objx\../lv_core/../lv_misc/lv_color.h ****         return 0;
 317:..\..\..\lvgl\version_6.1.2\lvgl\src\lv_objx\../lv_core/../lv_misc/lv_color.h ****     }
 318:..\..\..\lvgl\version_6.1.2\lvgl\src\lv_objx\../lv_core/../lv_misc/lv_color.h **** #endif
 319:..\..\..\lvgl\version_6.1.2\lvgl\src\lv_objx\../lv_core/../lv_misc/lv_color.h **** }
 320:..\..\..\lvgl\version_6.1.2\lvgl\src\lv_objx\../lv_core/../lv_misc/lv_color.h **** 
 321:..\..\..\lvgl\version_6.1.2\lvgl\src\lv_objx\../lv_core/../lv_misc/lv_color.h **** static inline uint8_t lv_color_to8(lv_color_t color)
 322:..\..\..\lvgl\version_6.1.2\lvgl\src\lv_objx\../lv_core/../lv_misc/lv_color.h **** {
 323:..\..\..\lvgl\version_6.1.2\lvgl\src\lv_objx\../lv_core/../lv_misc/lv_color.h **** #if LV_COLOR_DEPTH == 1
 324:..\..\..\lvgl\version_6.1.2\lvgl\src\lv_objx\../lv_core/../lv_misc/lv_color.h ****     if(color.full == 0)
 325:..\..\..\lvgl\version_6.1.2\lvgl\src\lv_objx\../lv_core/../lv_misc/lv_color.h ****         return 0;
 326:..\..\..\lvgl\version_6.1.2\lvgl\src\lv_objx\../lv_core/../lv_misc/lv_color.h ****     else
 327:..\..\..\lvgl\version_6.1.2\lvgl\src\lv_objx\../lv_core/../lv_misc/lv_color.h ****         return 0xFF;
 328:..\..\..\lvgl\version_6.1.2\lvgl\src\lv_objx\../lv_core/../lv_misc/lv_color.h **** #elif LV_COLOR_DEPTH == 8
 329:..\..\..\lvgl\version_6.1.2\lvgl\src\lv_objx\../lv_core/../lv_misc/lv_color.h ****     return color.full;
 330:..\..\..\lvgl\version_6.1.2\lvgl\src\lv_objx\../lv_core/../lv_misc/lv_color.h **** #elif LV_COLOR_DEPTH == 16
 331:..\..\..\lvgl\version_6.1.2\lvgl\src\lv_objx\../lv_core/../lv_misc/lv_color.h ****     lv_color8_t ret;
 332:..\..\..\lvgl\version_6.1.2\lvgl\src\lv_objx\../lv_core/../lv_misc/lv_color.h ****     LV_COLOR_SET_R8(ret, LV_COLOR_GET_R(color) >> 2);   /* 5 - 3  = 2*/
 333:..\..\..\lvgl\version_6.1.2\lvgl\src\lv_objx\../lv_core/../lv_misc/lv_color.h ****     LV_COLOR_SET_G8(ret, LV_COLOR_GET_G(color) >> 3); /* 6 - 3  = 3*/
 334:..\..\..\lvgl\version_6.1.2\lvgl\src\lv_objx\../lv_core/../lv_misc/lv_color.h ****     LV_COLOR_SET_B8(ret, LV_COLOR_GET_B(color) >> 3);  /* 5 - 2  = 3*/
 335:..\..\..\lvgl\version_6.1.2\lvgl\src\lv_objx\../lv_core/../lv_misc/lv_color.h ****     return ret.full;
 336:..\..\..\lvgl\version_6.1.2\lvgl\src\lv_objx\../lv_core/../lv_misc/lv_color.h **** #elif LV_COLOR_DEPTH == 32
 337:..\..\..\lvgl\version_6.1.2\lvgl\src\lv_objx\../lv_core/../lv_misc/lv_color.h ****     lv_color8_t ret;
 338:..\..\..\lvgl\version_6.1.2\lvgl\src\lv_objx\../lv_core/../lv_misc/lv_color.h ****     LV_COLOR_SET_R8(ret, LV_COLOR_GET_R(color) >> 5);   /* 8 - 3  = 5*/
 339:..\..\..\lvgl\version_6.1.2\lvgl\src\lv_objx\../lv_core/../lv_misc/lv_color.h ****     LV_COLOR_SET_G8(ret, LV_COLOR_GET_G(color) >> 5); /* 8 - 3  = 5*/
 340:..\..\..\lvgl\version_6.1.2\lvgl\src\lv_objx\../lv_core/../lv_misc/lv_color.h ****     LV_COLOR_SET_B8(ret, LV_COLOR_GET_B(color) >> 6);  /* 8 - 2  = 6*/
 341:..\..\..\lvgl\version_6.1.2\lvgl\src\lv_objx\../lv_core/../lv_misc/lv_color.h ****     return ret.full;
 342:..\..\..\lvgl\version_6.1.2\lvgl\src\lv_objx\../lv_core/../lv_misc/lv_color.h **** #endif
 343:..\..\..\lvgl\version_6.1.2\lvgl\src\lv_objx\../lv_core/../lv_misc/lv_color.h **** }
 344:..\..\..\lvgl\version_6.1.2\lvgl\src\lv_objx\../lv_core/../lv_misc/lv_color.h **** 
 345:..\..\..\lvgl\version_6.1.2\lvgl\src\lv_objx\../lv_core/../lv_misc/lv_color.h **** static inline uint16_t lv_color_to16(lv_color_t color)
 346:..\..\..\lvgl\version_6.1.2\lvgl\src\lv_objx\../lv_core/../lv_misc/lv_color.h **** {
 347:..\..\..\lvgl\version_6.1.2\lvgl\src\lv_objx\../lv_core/../lv_misc/lv_color.h **** #if LV_COLOR_DEPTH == 1
 348:..\..\..\lvgl\version_6.1.2\lvgl\src\lv_objx\../lv_core/../lv_misc/lv_color.h ****     if(color.full == 0)
 349:..\..\..\lvgl\version_6.1.2\lvgl\src\lv_objx\../lv_core/../lv_misc/lv_color.h ****         return 0;
 350:..\..\..\lvgl\version_6.1.2\lvgl\src\lv_objx\../lv_core/../lv_misc/lv_color.h ****     else
 351:..\..\..\lvgl\version_6.1.2\lvgl\src\lv_objx\../lv_core/../lv_misc/lv_color.h ****         return 0xFFFF;
 352:..\..\..\lvgl\version_6.1.2\lvgl\src\lv_objx\../lv_core/../lv_misc/lv_color.h **** #elif LV_COLOR_DEPTH == 8
 353:..\..\..\lvgl\version_6.1.2\lvgl\src\lv_objx\../lv_core/../lv_misc/lv_color.h ****     lv_color16_t ret;
 354:..\..\..\lvgl\version_6.1.2\lvgl\src\lv_objx\../lv_core/../lv_misc/lv_color.h ****     LV_COLOR_SET_R16(ret, LV_COLOR_GET_R(color) * 4);     /*(2^5 - 1)/(2^3 - 1) = 31/7 = 4*/
 355:..\..\..\lvgl\version_6.1.2\lvgl\src\lv_objx\../lv_core/../lv_misc/lv_color.h **** #if LV_COLOR_16_SWAP == 0
 356:..\..\..\lvgl\version_6.1.2\lvgl\src\lv_objx\../lv_core/../lv_misc/lv_color.h ****     LV_COLOR_SET_G16(ret,  LV_COLOR_GET_G(color) * 9); /*(2^6 - 1)/(2^3 - 1) = 63/7 = 9*/
 357:..\..\..\lvgl\version_6.1.2\lvgl\src\lv_objx\../lv_core/../lv_misc/lv_color.h **** #else
 358:..\..\..\lvgl\version_6.1.2\lvgl\src\lv_objx\../lv_core/../lv_misc/lv_color.h ****     LV_COLOR_SET_G16_SWAP(ret, (LV_COLOR_GET_G(color) * 9)); /*(2^6 - 1)/(2^3 - 1) = 63/7 = 9*/
 359:..\..\..\lvgl\version_6.1.2\lvgl\src\lv_objx\../lv_core/../lv_misc/lv_color.h **** #endif
 360:..\..\..\lvgl\version_6.1.2\lvgl\src\lv_objx\../lv_core/../lv_misc/lv_color.h ****     LV_COLOR_SET_B16(ret, LV_COLOR_GET_B(color) * 10);  /*(2^5 - 1)/(2^2 - 1) = 31/3 = 10*/
 361:..\..\..\lvgl\version_6.1.2\lvgl\src\lv_objx\../lv_core/../lv_misc/lv_color.h ****     return ret.full;
 362:..\..\..\lvgl\version_6.1.2\lvgl\src\lv_objx\../lv_core/../lv_misc/lv_color.h **** #elif LV_COLOR_DEPTH == 16
 363:..\..\..\lvgl\version_6.1.2\lvgl\src\lv_objx\../lv_core/../lv_misc/lv_color.h ****     return color.full;
 364:..\..\..\lvgl\version_6.1.2\lvgl\src\lv_objx\../lv_core/../lv_misc/lv_color.h **** #elif LV_COLOR_DEPTH == 32
 365:..\..\..\lvgl\version_6.1.2\lvgl\src\lv_objx\../lv_core/../lv_misc/lv_color.h ****     lv_color16_t ret;
 366:..\..\..\lvgl\version_6.1.2\lvgl\src\lv_objx\../lv_core/../lv_misc/lv_color.h ****     LV_COLOR_SET_R16(ret, LV_COLOR_GET_R(color) >> 3);   /* 8 - 5  = 3*/
 367:..\..\..\lvgl\version_6.1.2\lvgl\src\lv_objx\../lv_core/../lv_misc/lv_color.h **** 
 368:..\..\..\lvgl\version_6.1.2\lvgl\src\lv_objx\../lv_core/../lv_misc/lv_color.h **** #if LV_COLOR_16_SWAP == 0
 369:..\..\..\lvgl\version_6.1.2\lvgl\src\lv_objx\../lv_core/../lv_misc/lv_color.h ****     LV_COLOR_SET_G16(ret, LV_COLOR_GET_G(color) >> 2); /* 8 - 6  = 2*/
 370:..\..\..\lvgl\version_6.1.2\lvgl\src\lv_objx\../lv_core/../lv_misc/lv_color.h **** #else
 371:..\..\..\lvgl\version_6.1.2\lvgl\src\lv_objx\../lv_core/../lv_misc/lv_color.h ****     LV_COLOR_SET_G16_SWAP(ret, ret.ch.green_h = (LV_COLOR_GET_G(color) >> 2); /*(2^6 - 1)/(2^3 - 1)
 372:..\..\..\lvgl\version_6.1.2\lvgl\src\lv_objx\../lv_core/../lv_misc/lv_color.h **** #endif
ARM GAS  C:\Users\tmj32\AppData\Local\Temp\ccKH8gEj.s 			page 8


 373:..\..\..\lvgl\version_6.1.2\lvgl\src\lv_objx\../lv_core/../lv_misc/lv_color.h ****     LV_COLOR_SET_B16(ret, LV_COLOR_GET_B(color) >> 3);  /* 8 - 5  = 3*/
 374:..\..\..\lvgl\version_6.1.2\lvgl\src\lv_objx\../lv_core/../lv_misc/lv_color.h ****     return ret.full;
 375:..\..\..\lvgl\version_6.1.2\lvgl\src\lv_objx\../lv_core/../lv_misc/lv_color.h **** #endif                         
 376:..\..\..\lvgl\version_6.1.2\lvgl\src\lv_objx\../lv_core/../lv_misc/lv_color.h **** }
 377:..\..\..\lvgl\version_6.1.2\lvgl\src\lv_objx\../lv_core/../lv_misc/lv_color.h **** 
 378:..\..\..\lvgl\version_6.1.2\lvgl\src\lv_objx\../lv_core/../lv_misc/lv_color.h **** static inline uint32_t lv_color_to32(lv_color_t color)
 379:..\..\..\lvgl\version_6.1.2\lvgl\src\lv_objx\../lv_core/../lv_misc/lv_color.h **** {
 380:..\..\..\lvgl\version_6.1.2\lvgl\src\lv_objx\../lv_core/../lv_misc/lv_color.h **** #if LV_COLOR_DEPTH == 1
 381:..\..\..\lvgl\version_6.1.2\lvgl\src\lv_objx\../lv_core/../lv_misc/lv_color.h ****     if(color.full == 0)
 382:..\..\..\lvgl\version_6.1.2\lvgl\src\lv_objx\../lv_core/../lv_misc/lv_color.h ****         return 0;
 383:..\..\..\lvgl\version_6.1.2\lvgl\src\lv_objx\../lv_core/../lv_misc/lv_color.h ****     else
 384:..\..\..\lvgl\version_6.1.2\lvgl\src\lv_objx\../lv_core/../lv_misc/lv_color.h ****         return 0xFFFFFFFF;
 385:..\..\..\lvgl\version_6.1.2\lvgl\src\lv_objx\../lv_core/../lv_misc/lv_color.h **** #elif LV_COLOR_DEPTH == 8
 386:..\..\..\lvgl\version_6.1.2\lvgl\src\lv_objx\../lv_core/../lv_misc/lv_color.h ****     lv_color32_t ret;
 387:..\..\..\lvgl\version_6.1.2\lvgl\src\lv_objx\../lv_core/../lv_misc/lv_color.h ****     LV_COLOR_SET_R32(ret, LV_COLOR_GET_R(color) * 36);     /*(2^8 - 1)/(2^3 - 1) = 255/7 = 36*/
 388:..\..\..\lvgl\version_6.1.2\lvgl\src\lv_objx\../lv_core/../lv_misc/lv_color.h ****     LV_COLOR_SET_G32(ret, LV_COLOR_GET_G(color) * 36); /*(2^8 - 1)/(2^3 - 1) = 255/7 = 36*/
 389:..\..\..\lvgl\version_6.1.2\lvgl\src\lv_objx\../lv_core/../lv_misc/lv_color.h ****     LV_COLOR_SET_B32(ret, LV_COLOR_GET_B(color) * 85);   /*(2^8 - 1)/(2^2 - 1) = 255/3 = 85*/
 390:..\..\..\lvgl\version_6.1.2\lvgl\src\lv_objx\../lv_core/../lv_misc/lv_color.h ****     LV_COLOR_SET_A32(ret, 0xFF);
 391:..\..\..\lvgl\version_6.1.2\lvgl\src\lv_objx\../lv_core/../lv_misc/lv_color.h ****     return ret.full;
 392:..\..\..\lvgl\version_6.1.2\lvgl\src\lv_objx\../lv_core/../lv_misc/lv_color.h **** #elif LV_COLOR_DEPTH == 16
 393:..\..\..\lvgl\version_6.1.2\lvgl\src\lv_objx\../lv_core/../lv_misc/lv_color.h ****     /**
 394:..\..\..\lvgl\version_6.1.2\lvgl\src\lv_objx\../lv_core/../lv_misc/lv_color.h ****      * The floating point math for conversion is:
 395:..\..\..\lvgl\version_6.1.2\lvgl\src\lv_objx\../lv_core/../lv_misc/lv_color.h ****      *  valueto = valuefrom * ( (2^bitsto - 1) / (float)(2^bitsfrom - 1) )
 396:..\..\..\lvgl\version_6.1.2\lvgl\src\lv_objx\../lv_core/../lv_misc/lv_color.h ****      * The faster integer math for conversion is:
 397:..\..\..\lvgl\version_6.1.2\lvgl\src\lv_objx\../lv_core/../lv_misc/lv_color.h ****      *  valueto = ( valuefrom * multiplier + adder ) >> divisor
 398:..\..\..\lvgl\version_6.1.2\lvgl\src\lv_objx\../lv_core/../lv_misc/lv_color.h ****      *   multiplier = FLOOR( ( (2^bitsto - 1) << divisor ) / (float)(2^bitsfrom - 1) )
 399:..\..\..\lvgl\version_6.1.2\lvgl\src\lv_objx\../lv_core/../lv_misc/lv_color.h ****      * 
 400:..\..\..\lvgl\version_6.1.2\lvgl\src\lv_objx\../lv_core/../lv_misc/lv_color.h ****      * Find the first divisor where ( adder >> divisor ) <= 0
 401:..\..\..\lvgl\version_6.1.2\lvgl\src\lv_objx\../lv_core/../lv_misc/lv_color.h ****      * 
 402:..\..\..\lvgl\version_6.1.2\lvgl\src\lv_objx\../lv_core/../lv_misc/lv_color.h ****      * 5-bit to 8-bit: ( 31 * multiplier + adder ) >> divisor = 255
 403:..\..\..\lvgl\version_6.1.2\lvgl\src\lv_objx\../lv_core/../lv_misc/lv_color.h ****      * divisor  multiplier  adder  min (0)  max (31)
 404:..\..\..\lvgl\version_6.1.2\lvgl\src\lv_objx\../lv_core/../lv_misc/lv_color.h ****      *       0           8      7        7       255
 405:..\..\..\lvgl\version_6.1.2\lvgl\src\lv_objx\../lv_core/../lv_misc/lv_color.h ****      *       1          16     14        7       255
 406:..\..\..\lvgl\version_6.1.2\lvgl\src\lv_objx\../lv_core/../lv_misc/lv_color.h ****      *       2          32     28        7       255
 407:..\..\..\lvgl\version_6.1.2\lvgl\src\lv_objx\../lv_core/../lv_misc/lv_color.h ****      *       3          65     25        3       255
 408:..\..\..\lvgl\version_6.1.2\lvgl\src\lv_objx\../lv_core/../lv_misc/lv_color.h ****      *       4         131     19        1       255
 409:..\..\..\lvgl\version_6.1.2\lvgl\src\lv_objx\../lv_core/../lv_misc/lv_color.h ****      *       5         263      7        0       255
 410:..\..\..\lvgl\version_6.1.2\lvgl\src\lv_objx\../lv_core/../lv_misc/lv_color.h ****      * 
 411:..\..\..\lvgl\version_6.1.2\lvgl\src\lv_objx\../lv_core/../lv_misc/lv_color.h ****      * 6-bit to 8-bit: 255 = ( 63 * multiplier + adder ) >> divisor
 412:..\..\..\lvgl\version_6.1.2\lvgl\src\lv_objx\../lv_core/../lv_misc/lv_color.h ****      * divisor  multiplier  adder  min (0)  max (63)
 413:..\..\..\lvgl\version_6.1.2\lvgl\src\lv_objx\../lv_core/../lv_misc/lv_color.h ****      *       0           4      3        3       255
 414:..\..\..\lvgl\version_6.1.2\lvgl\src\lv_objx\../lv_core/../lv_misc/lv_color.h ****      *       1           8      6        3       255
 415:..\..\..\lvgl\version_6.1.2\lvgl\src\lv_objx\../lv_core/../lv_misc/lv_color.h ****      *       2          16     12        3       255
 416:..\..\..\lvgl\version_6.1.2\lvgl\src\lv_objx\../lv_core/../lv_misc/lv_color.h ****      *       3          32     24        3       255
 417:..\..\..\lvgl\version_6.1.2\lvgl\src\lv_objx\../lv_core/../lv_misc/lv_color.h ****      *       4          64     48        3       255
 418:..\..\..\lvgl\version_6.1.2\lvgl\src\lv_objx\../lv_core/../lv_misc/lv_color.h ****      *       5         129     33        1       255
 419:..\..\..\lvgl\version_6.1.2\lvgl\src\lv_objx\../lv_core/../lv_misc/lv_color.h ****      *       6         259      3        0       255
 420:..\..\..\lvgl\version_6.1.2\lvgl\src\lv_objx\../lv_core/../lv_misc/lv_color.h ****      */
 421:..\..\..\lvgl\version_6.1.2\lvgl\src\lv_objx\../lv_core/../lv_misc/lv_color.h ****     lv_color32_t ret;
 422:..\..\..\lvgl\version_6.1.2\lvgl\src\lv_objx\../lv_core/../lv_misc/lv_color.h ****     LV_COLOR_SET_R32(ret, (LV_COLOR_GET_R(color) * 263 + 7 ) >> 5);
 423:..\..\..\lvgl\version_6.1.2\lvgl\src\lv_objx\../lv_core/../lv_misc/lv_color.h ****     LV_COLOR_SET_G32(ret, (LV_COLOR_GET_G(color) * 259 + 3 ) >> 6);
 424:..\..\..\lvgl\version_6.1.2\lvgl\src\lv_objx\../lv_core/../lv_misc/lv_color.h ****     LV_COLOR_SET_B32(ret, (LV_COLOR_GET_B(color) * 263 + 7 ) >> 5);
 425:..\..\..\lvgl\version_6.1.2\lvgl\src\lv_objx\../lv_core/../lv_misc/lv_color.h ****     LV_COLOR_SET_A32(ret, 0xFF);
 426:..\..\..\lvgl\version_6.1.2\lvgl\src\lv_objx\../lv_core/../lv_misc/lv_color.h ****     return ret.full;
 427:..\..\..\lvgl\version_6.1.2\lvgl\src\lv_objx\../lv_core/../lv_misc/lv_color.h **** #elif LV_COLOR_DEPTH == 32
 428:..\..\..\lvgl\version_6.1.2\lvgl\src\lv_objx\../lv_core/../lv_misc/lv_color.h ****     return color.full;
 429:..\..\..\lvgl\version_6.1.2\lvgl\src\lv_objx\../lv_core/../lv_misc/lv_color.h **** #endif
ARM GAS  C:\Users\tmj32\AppData\Local\Temp\ccKH8gEj.s 			page 9


 430:..\..\..\lvgl\version_6.1.2\lvgl\src\lv_objx\../lv_core/../lv_misc/lv_color.h **** }
 431:..\..\..\lvgl\version_6.1.2\lvgl\src\lv_objx\../lv_core/../lv_misc/lv_color.h **** 
 432:..\..\..\lvgl\version_6.1.2\lvgl\src\lv_objx\../lv_core/../lv_misc/lv_color.h **** static inline lv_color_t lv_color_mix(lv_color_t c1, lv_color_t c2, uint8_t mix)
 433:..\..\..\lvgl\version_6.1.2\lvgl\src\lv_objx\../lv_core/../lv_misc/lv_color.h **** {
  28              		.loc 1 433 0
  29              		.cfi_startproc
  30              		@ args = 0, pretend = 0, frame = 24
  31              		@ frame_needed = 1, uses_anonymous_args = 0
  32              		@ link register save eliminated.
  33 0000 80B4     		push	{r7}
  34              		.cfi_def_cfa_offset 4
  35              		.cfi_offset 7, -4
  36 0002 87B0     		sub	sp, sp, #28
  37              		.cfi_def_cfa_offset 32
  38 0004 00AF     		add	r7, sp, #0
  39              		.cfi_def_cfa_register 7
  40 0006 F860     		str	r0, [r7, #12]
  41 0008 B960     		str	r1, [r7, #8]
  42 000a 1346     		mov	r3, r2
  43 000c FB71     		strb	r3, [r7, #7]
 434:..\..\..\lvgl\version_6.1.2\lvgl\src\lv_objx\../lv_core/../lv_misc/lv_color.h ****     lv_color_t ret;
 435:..\..\..\lvgl\version_6.1.2\lvgl\src\lv_objx\../lv_core/../lv_misc/lv_color.h **** #if LV_COLOR_DEPTH != 1
 436:..\..\..\lvgl\version_6.1.2\lvgl\src\lv_objx\../lv_core/../lv_misc/lv_color.h ****     /*LV_COLOR_DEPTH == 8, 16 or 32*/
 437:..\..\..\lvgl\version_6.1.2\lvgl\src\lv_objx\../lv_core/../lv_misc/lv_color.h ****     LV_COLOR_SET_R(ret, (uint16_t)((uint16_t) LV_COLOR_GET_R(c1) * mix + LV_COLOR_GET_R(c2) * (255 
  44              		.loc 1 437 0
  45 000e BB7B     		ldrb	r3, [r7, #14]	@ zero_extendqisi2
  46 0010 9AB2     		uxth	r2, r3
  47 0012 FB79     		ldrb	r3, [r7, #7]	@ zero_extendqisi2
  48 0014 9BB2     		uxth	r3, r3
  49 0016 12FB03F3 		smulbb	r3, r2, r3
  50 001a 9AB2     		uxth	r2, r3
  51 001c BB7A     		ldrb	r3, [r7, #10]	@ zero_extendqisi2
  52 001e 99B2     		uxth	r1, r3
  53 0020 FB79     		ldrb	r3, [r7, #7]	@ zero_extendqisi2
  54 0022 C3F1FF03 		rsb	r3, r3, #255
  55 0026 9BB2     		uxth	r3, r3
  56 0028 11FB03F3 		smulbb	r3, r1, r3
  57 002c 9BB2     		uxth	r3, r3
  58 002e 1344     		add	r3, r3, r2
  59 0030 9BB2     		uxth	r3, r3
  60 0032 1B0A     		lsrs	r3, r3, #8
  61 0034 9BB2     		uxth	r3, r3
  62 0036 DBB2     		uxtb	r3, r3
  63 0038 BB75     		strb	r3, [r7, #22]
 438:..\..\..\lvgl\version_6.1.2\lvgl\src\lv_objx\../lv_core/../lv_misc/lv_color.h ****     LV_COLOR_SET_G(ret, (uint16_t)((uint16_t) LV_COLOR_GET_G(c1) * mix + LV_COLOR_GET_G(c2) * (255 
  64              		.loc 1 438 0
  65 003a 7B7B     		ldrb	r3, [r7, #13]	@ zero_extendqisi2
  66 003c 9AB2     		uxth	r2, r3
  67 003e FB79     		ldrb	r3, [r7, #7]	@ zero_extendqisi2
  68 0040 9BB2     		uxth	r3, r3
  69 0042 12FB03F3 		smulbb	r3, r2, r3
  70 0046 9AB2     		uxth	r2, r3
  71 0048 7B7A     		ldrb	r3, [r7, #9]	@ zero_extendqisi2
  72 004a 99B2     		uxth	r1, r3
  73 004c FB79     		ldrb	r3, [r7, #7]	@ zero_extendqisi2
  74 004e C3F1FF03 		rsb	r3, r3, #255
  75 0052 9BB2     		uxth	r3, r3
ARM GAS  C:\Users\tmj32\AppData\Local\Temp\ccKH8gEj.s 			page 10


  76 0054 11FB03F3 		smulbb	r3, r1, r3
  77 0058 9BB2     		uxth	r3, r3
  78 005a 1344     		add	r3, r3, r2
  79 005c 9BB2     		uxth	r3, r3
  80 005e 1B0A     		lsrs	r3, r3, #8
  81 0060 9BB2     		uxth	r3, r3
  82 0062 DBB2     		uxtb	r3, r3
  83 0064 7B75     		strb	r3, [r7, #21]
 439:..\..\..\lvgl\version_6.1.2\lvgl\src\lv_objx\../lv_core/../lv_misc/lv_color.h ****     LV_COLOR_SET_B(ret, (uint16_t)((uint16_t) LV_COLOR_GET_B(c1) * mix + LV_COLOR_GET_B(c2) * (255 
  84              		.loc 1 439 0
  85 0066 3B7B     		ldrb	r3, [r7, #12]	@ zero_extendqisi2
  86 0068 9AB2     		uxth	r2, r3
  87 006a FB79     		ldrb	r3, [r7, #7]	@ zero_extendqisi2
  88 006c 9BB2     		uxth	r3, r3
  89 006e 12FB03F3 		smulbb	r3, r2, r3
  90 0072 9AB2     		uxth	r2, r3
  91 0074 3B7A     		ldrb	r3, [r7, #8]	@ zero_extendqisi2
  92 0076 99B2     		uxth	r1, r3
  93 0078 FB79     		ldrb	r3, [r7, #7]	@ zero_extendqisi2
  94 007a C3F1FF03 		rsb	r3, r3, #255
  95 007e 9BB2     		uxth	r3, r3
  96 0080 11FB03F3 		smulbb	r3, r1, r3
  97 0084 9BB2     		uxth	r3, r3
  98 0086 1344     		add	r3, r3, r2
  99 0088 9BB2     		uxth	r3, r3
 100 008a 1B0A     		lsrs	r3, r3, #8
 101 008c 9BB2     		uxth	r3, r3
 102 008e DBB2     		uxtb	r3, r3
 103 0090 3B75     		strb	r3, [r7, #20]
 440:..\..\..\lvgl\version_6.1.2\lvgl\src\lv_objx\../lv_core/../lv_misc/lv_color.h ****     LV_COLOR_SET_A(ret, 0xFF);
 104              		.loc 1 440 0
 105 0092 FF23     		movs	r3, #255
 106 0094 FB75     		strb	r3, [r7, #23]
 441:..\..\..\lvgl\version_6.1.2\lvgl\src\lv_objx\../lv_core/../lv_misc/lv_color.h **** #else
 442:..\..\..\lvgl\version_6.1.2\lvgl\src\lv_objx\../lv_core/../lv_misc/lv_color.h ****     /*LV_COLOR_DEPTH == 1*/
 443:..\..\..\lvgl\version_6.1.2\lvgl\src\lv_objx\../lv_core/../lv_misc/lv_color.h ****     ret.full = mix > LV_OPA_50 ? c1.full : c2.full;
 444:..\..\..\lvgl\version_6.1.2\lvgl\src\lv_objx\../lv_core/../lv_misc/lv_color.h **** #endif
 445:..\..\..\lvgl\version_6.1.2\lvgl\src\lv_objx\../lv_core/../lv_misc/lv_color.h **** 
 446:..\..\..\lvgl\version_6.1.2\lvgl\src\lv_objx\../lv_core/../lv_misc/lv_color.h ****     return ret;
 107              		.loc 1 446 0
 108 0096 7B69     		ldr	r3, [r7, #20]
 447:..\..\..\lvgl\version_6.1.2\lvgl\src\lv_objx\../lv_core/../lv_misc/lv_color.h **** }
 109              		.loc 1 447 0
 110 0098 1846     		mov	r0, r3
 111 009a 1C37     		adds	r7, r7, #28
 112              		.cfi_def_cfa_offset 4
 113 009c BD46     		mov	sp, r7
 114              		.cfi_def_cfa_register 13
 115              		@ sp needed
 116 009e 5DF8047B 		ldr	r7, [sp], #4
 117              		.cfi_restore 7
 118              		.cfi_def_cfa_offset 0
 119 00a2 7047     		bx	lr
 120              		.cfi_endproc
 121              	.LFE5:
 122              		.size	lv_color_mix, .-lv_color_mix
 123              		.section	.text.lv_led_set_style,"ax",%progbits
ARM GAS  C:\Users\tmj32\AppData\Local\Temp\ccKH8gEj.s 			page 11


 124              		.align	2
 125              		.thumb
 126              		.thumb_func
 127              		.type	lv_led_set_style, %function
 128              	lv_led_set_style:
 129              	.LFB31:
 130              		.file 2 "..\\..\\..\\lvgl\\version_6.1.2\\lvgl\\src\\lv_objx\\lv_led.h"
   1:..\..\..\lvgl\version_6.1.2\lvgl\src\lv_objx/lv_led.h **** /**
   2:..\..\..\lvgl\version_6.1.2\lvgl\src\lv_objx/lv_led.h ****  * @file lv_led.h
   3:..\..\..\lvgl\version_6.1.2\lvgl\src\lv_objx/lv_led.h ****  *
   4:..\..\..\lvgl\version_6.1.2\lvgl\src\lv_objx/lv_led.h ****  */
   5:..\..\..\lvgl\version_6.1.2\lvgl\src\lv_objx/lv_led.h **** 
   6:..\..\..\lvgl\version_6.1.2\lvgl\src\lv_objx/lv_led.h **** #ifndef LV_LED_H
   7:..\..\..\lvgl\version_6.1.2\lvgl\src\lv_objx/lv_led.h **** #define LV_LED_H
   8:..\..\..\lvgl\version_6.1.2\lvgl\src\lv_objx/lv_led.h **** 
   9:..\..\..\lvgl\version_6.1.2\lvgl\src\lv_objx/lv_led.h **** #ifdef __cplusplus
  10:..\..\..\lvgl\version_6.1.2\lvgl\src\lv_objx/lv_led.h **** extern "C" {
  11:..\..\..\lvgl\version_6.1.2\lvgl\src\lv_objx/lv_led.h **** #endif
  12:..\..\..\lvgl\version_6.1.2\lvgl\src\lv_objx/lv_led.h **** 
  13:..\..\..\lvgl\version_6.1.2\lvgl\src\lv_objx/lv_led.h **** /*********************
  14:..\..\..\lvgl\version_6.1.2\lvgl\src\lv_objx/lv_led.h ****  *      INCLUDES
  15:..\..\..\lvgl\version_6.1.2\lvgl\src\lv_objx/lv_led.h ****  *********************/
  16:..\..\..\lvgl\version_6.1.2\lvgl\src\lv_objx/lv_led.h **** #ifdef LV_CONF_INCLUDE_SIMPLE
  17:..\..\..\lvgl\version_6.1.2\lvgl\src\lv_objx/lv_led.h **** #include "lv_conf.h"
  18:..\..\..\lvgl\version_6.1.2\lvgl\src\lv_objx/lv_led.h **** #else
  19:..\..\..\lvgl\version_6.1.2\lvgl\src\lv_objx/lv_led.h **** #include "../../../lv_conf.h"
  20:..\..\..\lvgl\version_6.1.2\lvgl\src\lv_objx/lv_led.h **** #endif
  21:..\..\..\lvgl\version_6.1.2\lvgl\src\lv_objx/lv_led.h **** 
  22:..\..\..\lvgl\version_6.1.2\lvgl\src\lv_objx/lv_led.h **** #if LV_USE_LED != 0
  23:..\..\..\lvgl\version_6.1.2\lvgl\src\lv_objx/lv_led.h **** 
  24:..\..\..\lvgl\version_6.1.2\lvgl\src\lv_objx/lv_led.h **** #include "../lv_core/lv_obj.h"
  25:..\..\..\lvgl\version_6.1.2\lvgl\src\lv_objx/lv_led.h **** 
  26:..\..\..\lvgl\version_6.1.2\lvgl\src\lv_objx/lv_led.h **** /*********************
  27:..\..\..\lvgl\version_6.1.2\lvgl\src\lv_objx/lv_led.h ****  *      DEFINES
  28:..\..\..\lvgl\version_6.1.2\lvgl\src\lv_objx/lv_led.h ****  *********************/
  29:..\..\..\lvgl\version_6.1.2\lvgl\src\lv_objx/lv_led.h **** 
  30:..\..\..\lvgl\version_6.1.2\lvgl\src\lv_objx/lv_led.h **** /**********************
  31:..\..\..\lvgl\version_6.1.2\lvgl\src\lv_objx/lv_led.h ****  *      TYPEDEFS
  32:..\..\..\lvgl\version_6.1.2\lvgl\src\lv_objx/lv_led.h ****  **********************/
  33:..\..\..\lvgl\version_6.1.2\lvgl\src\lv_objx/lv_led.h **** 
  34:..\..\..\lvgl\version_6.1.2\lvgl\src\lv_objx/lv_led.h **** /*Data of led*/
  35:..\..\..\lvgl\version_6.1.2\lvgl\src\lv_objx/lv_led.h **** typedef struct
  36:..\..\..\lvgl\version_6.1.2\lvgl\src\lv_objx/lv_led.h **** {
  37:..\..\..\lvgl\version_6.1.2\lvgl\src\lv_objx/lv_led.h ****     /*No inherited ext.*/
  38:..\..\..\lvgl\version_6.1.2\lvgl\src\lv_objx/lv_led.h ****     /*New data for this type */
  39:..\..\..\lvgl\version_6.1.2\lvgl\src\lv_objx/lv_led.h ****     uint8_t bright; /*Current brightness of the LED (0..255)*/
  40:..\..\..\lvgl\version_6.1.2\lvgl\src\lv_objx/lv_led.h **** } lv_led_ext_t;
  41:..\..\..\lvgl\version_6.1.2\lvgl\src\lv_objx/lv_led.h **** 
  42:..\..\..\lvgl\version_6.1.2\lvgl\src\lv_objx/lv_led.h **** /*Styles*/
  43:..\..\..\lvgl\version_6.1.2\lvgl\src\lv_objx/lv_led.h **** enum {
  44:..\..\..\lvgl\version_6.1.2\lvgl\src\lv_objx/lv_led.h ****     LV_LED_STYLE_MAIN,
  45:..\..\..\lvgl\version_6.1.2\lvgl\src\lv_objx/lv_led.h **** };
  46:..\..\..\lvgl\version_6.1.2\lvgl\src\lv_objx/lv_led.h **** typedef uint8_t lv_led_style_t;
  47:..\..\..\lvgl\version_6.1.2\lvgl\src\lv_objx/lv_led.h **** 
  48:..\..\..\lvgl\version_6.1.2\lvgl\src\lv_objx/lv_led.h **** /**********************
  49:..\..\..\lvgl\version_6.1.2\lvgl\src\lv_objx/lv_led.h ****  * GLOBAL PROTOTYPES
  50:..\..\..\lvgl\version_6.1.2\lvgl\src\lv_objx/lv_led.h ****  **********************/
ARM GAS  C:\Users\tmj32\AppData\Local\Temp\ccKH8gEj.s 			page 12


  51:..\..\..\lvgl\version_6.1.2\lvgl\src\lv_objx/lv_led.h **** 
  52:..\..\..\lvgl\version_6.1.2\lvgl\src\lv_objx/lv_led.h **** /**
  53:..\..\..\lvgl\version_6.1.2\lvgl\src\lv_objx/lv_led.h ****  * Create a led objects
  54:..\..\..\lvgl\version_6.1.2\lvgl\src\lv_objx/lv_led.h ****  * @param par pointer to an object, it will be the parent of the new led
  55:..\..\..\lvgl\version_6.1.2\lvgl\src\lv_objx/lv_led.h ****  * @param copy pointer to a led object, if not NULL then the new object will be copied from it
  56:..\..\..\lvgl\version_6.1.2\lvgl\src\lv_objx/lv_led.h ****  * @return pointer to the created led
  57:..\..\..\lvgl\version_6.1.2\lvgl\src\lv_objx/lv_led.h ****  */
  58:..\..\..\lvgl\version_6.1.2\lvgl\src\lv_objx/lv_led.h **** lv_obj_t * lv_led_create(lv_obj_t * par, const lv_obj_t * copy);
  59:..\..\..\lvgl\version_6.1.2\lvgl\src\lv_objx/lv_led.h **** 
  60:..\..\..\lvgl\version_6.1.2\lvgl\src\lv_objx/lv_led.h **** /**
  61:..\..\..\lvgl\version_6.1.2\lvgl\src\lv_objx/lv_led.h ****  * Set the brightness of a LED object
  62:..\..\..\lvgl\version_6.1.2\lvgl\src\lv_objx/lv_led.h ****  * @param led pointer to a LED object
  63:..\..\..\lvgl\version_6.1.2\lvgl\src\lv_objx/lv_led.h ****  * @param bright 0 (max. dark) ... 255 (max. light)
  64:..\..\..\lvgl\version_6.1.2\lvgl\src\lv_objx/lv_led.h ****  */
  65:..\..\..\lvgl\version_6.1.2\lvgl\src\lv_objx/lv_led.h **** void lv_led_set_bright(lv_obj_t * led, uint8_t bright);
  66:..\..\..\lvgl\version_6.1.2\lvgl\src\lv_objx/lv_led.h **** 
  67:..\..\..\lvgl\version_6.1.2\lvgl\src\lv_objx/lv_led.h **** /**
  68:..\..\..\lvgl\version_6.1.2\lvgl\src\lv_objx/lv_led.h ****  * Light on a LED
  69:..\..\..\lvgl\version_6.1.2\lvgl\src\lv_objx/lv_led.h ****  * @param led pointer to a LED object
  70:..\..\..\lvgl\version_6.1.2\lvgl\src\lv_objx/lv_led.h ****  */
  71:..\..\..\lvgl\version_6.1.2\lvgl\src\lv_objx/lv_led.h **** void lv_led_on(lv_obj_t * led);
  72:..\..\..\lvgl\version_6.1.2\lvgl\src\lv_objx/lv_led.h **** 
  73:..\..\..\lvgl\version_6.1.2\lvgl\src\lv_objx/lv_led.h **** /**
  74:..\..\..\lvgl\version_6.1.2\lvgl\src\lv_objx/lv_led.h ****  * Light off a LED
  75:..\..\..\lvgl\version_6.1.2\lvgl\src\lv_objx/lv_led.h ****  * @param led pointer to a LED object
  76:..\..\..\lvgl\version_6.1.2\lvgl\src\lv_objx/lv_led.h ****  */
  77:..\..\..\lvgl\version_6.1.2\lvgl\src\lv_objx/lv_led.h **** void lv_led_off(lv_obj_t * led);
  78:..\..\..\lvgl\version_6.1.2\lvgl\src\lv_objx/lv_led.h **** 
  79:..\..\..\lvgl\version_6.1.2\lvgl\src\lv_objx/lv_led.h **** /**
  80:..\..\..\lvgl\version_6.1.2\lvgl\src\lv_objx/lv_led.h ****  * Toggle the state of a LED
  81:..\..\..\lvgl\version_6.1.2\lvgl\src\lv_objx/lv_led.h ****  * @param led pointer to a LED object
  82:..\..\..\lvgl\version_6.1.2\lvgl\src\lv_objx/lv_led.h ****  */
  83:..\..\..\lvgl\version_6.1.2\lvgl\src\lv_objx/lv_led.h **** void lv_led_toggle(lv_obj_t * led);
  84:..\..\..\lvgl\version_6.1.2\lvgl\src\lv_objx/lv_led.h **** 
  85:..\..\..\lvgl\version_6.1.2\lvgl\src\lv_objx/lv_led.h **** /**
  86:..\..\..\lvgl\version_6.1.2\lvgl\src\lv_objx/lv_led.h ****  * Set the style of a led
  87:..\..\..\lvgl\version_6.1.2\lvgl\src\lv_objx/lv_led.h ****  * @param led pointer to a led object
  88:..\..\..\lvgl\version_6.1.2\lvgl\src\lv_objx/lv_led.h ****  * @param type which style should be set (can be only `LV_LED_STYLE_MAIN`)
  89:..\..\..\lvgl\version_6.1.2\lvgl\src\lv_objx/lv_led.h ****  * @param style pointer to a style
  90:..\..\..\lvgl\version_6.1.2\lvgl\src\lv_objx/lv_led.h ****  */
  91:..\..\..\lvgl\version_6.1.2\lvgl\src\lv_objx/lv_led.h **** static inline void lv_led_set_style(lv_obj_t * led, lv_led_style_t type, const lv_style_t * style)
  92:..\..\..\lvgl\version_6.1.2\lvgl\src\lv_objx/lv_led.h **** {
 131              		.loc 2 92 0
 132              		.cfi_startproc
 133              		@ args = 0, pretend = 0, frame = 16
 134              		@ frame_needed = 1, uses_anonymous_args = 0
 135 0000 80B5     		push	{r7, lr}
 136              		.cfi_def_cfa_offset 8
 137              		.cfi_offset 7, -8
 138              		.cfi_offset 14, -4
 139 0002 84B0     		sub	sp, sp, #16
 140              		.cfi_def_cfa_offset 24
 141 0004 00AF     		add	r7, sp, #0
 142              		.cfi_def_cfa_register 7
 143 0006 F860     		str	r0, [r7, #12]
 144 0008 0B46     		mov	r3, r1
 145 000a 7A60     		str	r2, [r7, #4]
ARM GAS  C:\Users\tmj32\AppData\Local\Temp\ccKH8gEj.s 			page 13


 146 000c FB72     		strb	r3, [r7, #11]
  93:..\..\..\lvgl\version_6.1.2\lvgl\src\lv_objx/lv_led.h ****     (void)type; /*Unused*/
  94:..\..\..\lvgl\version_6.1.2\lvgl\src\lv_objx/lv_led.h ****     lv_obj_set_style(led, style);
 147              		.loc 2 94 0
 148 000e 7968     		ldr	r1, [r7, #4]
 149 0010 F868     		ldr	r0, [r7, #12]
 150 0012 FFF7FEFF 		bl	lv_obj_set_style
  95:..\..\..\lvgl\version_6.1.2\lvgl\src\lv_objx/lv_led.h **** }
 151              		.loc 2 95 0
 152 0016 00BF     		nop
 153 0018 1037     		adds	r7, r7, #16
 154              		.cfi_def_cfa_offset 8
 155 001a BD46     		mov	sp, r7
 156              		.cfi_def_cfa_register 13
 157              		@ sp needed
 158 001c 80BD     		pop	{r7, pc}
 159              		.cfi_endproc
 160              	.LFE31:
 161              		.size	lv_led_set_style, .-lv_led_set_style
 162 001e 00BF     		.bss
 163              		.align	2
 164              	ancestor_design_f:
 165 0000 00000000 		.space	4
 166              		.align	2
 167              	ancestor_signal:
 168 0004 00000000 		.space	4
 169              		.section	.text.lv_led_create,"ax",%progbits
 170              		.align	2
 171              		.global	lv_led_create
 172              		.thumb
 173              		.thumb_func
 174              		.type	lv_led_create, %function
 175              	lv_led_create:
 176              	.LFB33:
 177              		.file 3 "..\\..\\..\\lvgl\\version_6.1.2\\lvgl\\src\\lv_objx\\lv_led.c"
   1:..\..\..\lvgl\version_6.1.2\lvgl\src\lv_objx/lv_led.c **** /**
   2:..\..\..\lvgl\version_6.1.2\lvgl\src\lv_objx/lv_led.c ****  * @file lv_led.c
   3:..\..\..\lvgl\version_6.1.2\lvgl\src\lv_objx/lv_led.c ****  *
   4:..\..\..\lvgl\version_6.1.2\lvgl\src\lv_objx/lv_led.c ****  */
   5:..\..\..\lvgl\version_6.1.2\lvgl\src\lv_objx/lv_led.c **** 
   6:..\..\..\lvgl\version_6.1.2\lvgl\src\lv_objx/lv_led.c **** /*********************
   7:..\..\..\lvgl\version_6.1.2\lvgl\src\lv_objx/lv_led.c ****  *      INCLUDES
   8:..\..\..\lvgl\version_6.1.2\lvgl\src\lv_objx/lv_led.c ****  *********************/
   9:..\..\..\lvgl\version_6.1.2\lvgl\src\lv_objx/lv_led.c **** #include "lv_led.h"
  10:..\..\..\lvgl\version_6.1.2\lvgl\src\lv_objx/lv_led.c **** #if LV_USE_LED != 0
  11:..\..\..\lvgl\version_6.1.2\lvgl\src\lv_objx/lv_led.c **** 
  12:..\..\..\lvgl\version_6.1.2\lvgl\src\lv_objx/lv_led.c **** #include "../lv_core/lv_debug.h"
  13:..\..\..\lvgl\version_6.1.2\lvgl\src\lv_objx/lv_led.c **** #include "../lv_themes/lv_theme.h"
  14:..\..\..\lvgl\version_6.1.2\lvgl\src\lv_objx/lv_led.c **** #include "../lv_draw/lv_draw.h"
  15:..\..\..\lvgl\version_6.1.2\lvgl\src\lv_objx/lv_led.c **** 
  16:..\..\..\lvgl\version_6.1.2\lvgl\src\lv_objx/lv_led.c **** /*********************
  17:..\..\..\lvgl\version_6.1.2\lvgl\src\lv_objx/lv_led.c ****  *      DEFINES
  18:..\..\..\lvgl\version_6.1.2\lvgl\src\lv_objx/lv_led.c ****  *********************/
  19:..\..\..\lvgl\version_6.1.2\lvgl\src\lv_objx/lv_led.c **** #define LV_OBJX_NAME "lv_led"
  20:..\..\..\lvgl\version_6.1.2\lvgl\src\lv_objx/lv_led.c **** 
  21:..\..\..\lvgl\version_6.1.2\lvgl\src\lv_objx/lv_led.c **** #define LV_LED_WIDTH_DEF (LV_DPI / 3)
  22:..\..\..\lvgl\version_6.1.2\lvgl\src\lv_objx/lv_led.c **** #define LV_LED_HEIGHT_DEF (LV_DPI / 3)
ARM GAS  C:\Users\tmj32\AppData\Local\Temp\ccKH8gEj.s 			page 14


  23:..\..\..\lvgl\version_6.1.2\lvgl\src\lv_objx/lv_led.c **** #define LV_LED_BRIGHT_OFF 100
  24:..\..\..\lvgl\version_6.1.2\lvgl\src\lv_objx/lv_led.c **** #define LV_LED_BRIGHT_ON 255
  25:..\..\..\lvgl\version_6.1.2\lvgl\src\lv_objx/lv_led.c **** 
  26:..\..\..\lvgl\version_6.1.2\lvgl\src\lv_objx/lv_led.c **** /**********************
  27:..\..\..\lvgl\version_6.1.2\lvgl\src\lv_objx/lv_led.c ****  *      TYPEDEFS
  28:..\..\..\lvgl\version_6.1.2\lvgl\src\lv_objx/lv_led.c ****  **********************/
  29:..\..\..\lvgl\version_6.1.2\lvgl\src\lv_objx/lv_led.c **** 
  30:..\..\..\lvgl\version_6.1.2\lvgl\src\lv_objx/lv_led.c **** /**********************
  31:..\..\..\lvgl\version_6.1.2\lvgl\src\lv_objx/lv_led.c ****  *  STATIC PROTOTYPES
  32:..\..\..\lvgl\version_6.1.2\lvgl\src\lv_objx/lv_led.c ****  **********************/
  33:..\..\..\lvgl\version_6.1.2\lvgl\src\lv_objx/lv_led.c **** static bool lv_led_design(lv_obj_t * led, const lv_area_t * mask, lv_design_mode_t mode);
  34:..\..\..\lvgl\version_6.1.2\lvgl\src\lv_objx/lv_led.c **** static lv_res_t lv_led_signal(lv_obj_t * led, lv_signal_t sign, void * param);
  35:..\..\..\lvgl\version_6.1.2\lvgl\src\lv_objx/lv_led.c **** 
  36:..\..\..\lvgl\version_6.1.2\lvgl\src\lv_objx/lv_led.c **** /**********************
  37:..\..\..\lvgl\version_6.1.2\lvgl\src\lv_objx/lv_led.c ****  *  STATIC VARIABLES
  38:..\..\..\lvgl\version_6.1.2\lvgl\src\lv_objx/lv_led.c ****  **********************/
  39:..\..\..\lvgl\version_6.1.2\lvgl\src\lv_objx/lv_led.c **** static lv_design_cb_t ancestor_design_f;
  40:..\..\..\lvgl\version_6.1.2\lvgl\src\lv_objx/lv_led.c **** static lv_signal_cb_t ancestor_signal;
  41:..\..\..\lvgl\version_6.1.2\lvgl\src\lv_objx/lv_led.c **** 
  42:..\..\..\lvgl\version_6.1.2\lvgl\src\lv_objx/lv_led.c **** /**********************
  43:..\..\..\lvgl\version_6.1.2\lvgl\src\lv_objx/lv_led.c ****  *      MACROS
  44:..\..\..\lvgl\version_6.1.2\lvgl\src\lv_objx/lv_led.c ****  **********************/
  45:..\..\..\lvgl\version_6.1.2\lvgl\src\lv_objx/lv_led.c **** 
  46:..\..\..\lvgl\version_6.1.2\lvgl\src\lv_objx/lv_led.c **** /**********************
  47:..\..\..\lvgl\version_6.1.2\lvgl\src\lv_objx/lv_led.c ****  *   GLOBAL FUNCTIONS
  48:..\..\..\lvgl\version_6.1.2\lvgl\src\lv_objx/lv_led.c ****  **********************/
  49:..\..\..\lvgl\version_6.1.2\lvgl\src\lv_objx/lv_led.c **** 
  50:..\..\..\lvgl\version_6.1.2\lvgl\src\lv_objx/lv_led.c **** /**
  51:..\..\..\lvgl\version_6.1.2\lvgl\src\lv_objx/lv_led.c ****  * Create a led objects
  52:..\..\..\lvgl\version_6.1.2\lvgl\src\lv_objx/lv_led.c ****  * @param par pointer to an object, it will be the parent of the new led
  53:..\..\..\lvgl\version_6.1.2\lvgl\src\lv_objx/lv_led.c ****  * @param copy pointer to a led object, if not NULL then the new object will be copied from it
  54:..\..\..\lvgl\version_6.1.2\lvgl\src\lv_objx/lv_led.c ****  * @return pointer to the created led
  55:..\..\..\lvgl\version_6.1.2\lvgl\src\lv_objx/lv_led.c ****  */
  56:..\..\..\lvgl\version_6.1.2\lvgl\src\lv_objx/lv_led.c **** lv_obj_t * lv_led_create(lv_obj_t * par, const lv_obj_t * copy)
  57:..\..\..\lvgl\version_6.1.2\lvgl\src\lv_objx/lv_led.c **** {
 178              		.loc 3 57 0
 179              		.cfi_startproc
 180              		@ args = 0, pretend = 0, frame = 24
 181              		@ frame_needed = 1, uses_anonymous_args = 0
 182 0000 80B5     		push	{r7, lr}
 183              		.cfi_def_cfa_offset 8
 184              		.cfi_offset 7, -8
 185              		.cfi_offset 14, -4
 186 0002 86B0     		sub	sp, sp, #24
 187              		.cfi_def_cfa_offset 32
 188 0004 00AF     		add	r7, sp, #0
 189              		.cfi_def_cfa_register 7
 190 0006 7860     		str	r0, [r7, #4]
 191 0008 3960     		str	r1, [r7]
  58:..\..\..\lvgl\version_6.1.2\lvgl\src\lv_objx/lv_led.c ****     LV_LOG_TRACE("led create started");
  59:..\..\..\lvgl\version_6.1.2\lvgl\src\lv_objx/lv_led.c **** 
  60:..\..\..\lvgl\version_6.1.2\lvgl\src\lv_objx/lv_led.c ****     /*Create the ancestor basic object*/
  61:..\..\..\lvgl\version_6.1.2\lvgl\src\lv_objx/lv_led.c ****     lv_obj_t * new_led = lv_obj_create(par, copy);
 192              		.loc 3 61 0
 193 000a 3968     		ldr	r1, [r7]
 194 000c 7868     		ldr	r0, [r7, #4]
 195 000e FFF7FEFF 		bl	lv_obj_create
ARM GAS  C:\Users\tmj32\AppData\Local\Temp\ccKH8gEj.s 			page 15


 196 0012 7861     		str	r0, [r7, #20]
  62:..\..\..\lvgl\version_6.1.2\lvgl\src\lv_objx/lv_led.c ****     LV_ASSERT_MEM(new_led);
  63:..\..\..\lvgl\version_6.1.2\lvgl\src\lv_objx/lv_led.c ****     if(new_led == NULL) return NULL;
 197              		.loc 3 63 0
 198 0014 7B69     		ldr	r3, [r7, #20]
 199 0016 002B     		cmp	r3, #0
 200 0018 01D1     		bne	.L5
 201              		.loc 3 63 0 is_stmt 0 discriminator 1
 202 001a 0023     		movs	r3, #0
 203 001c 50E0     		b	.L6
 204              	.L5:
  64:..\..\..\lvgl\version_6.1.2\lvgl\src\lv_objx/lv_led.c **** 
  65:..\..\..\lvgl\version_6.1.2\lvgl\src\lv_objx/lv_led.c ****     if(ancestor_signal == NULL) ancestor_signal = lv_obj_get_signal_cb(new_led);
 205              		.loc 3 65 0 is_stmt 1
 206 001e 2A4B     		ldr	r3, .L14
 207 0020 1B68     		ldr	r3, [r3]
 208 0022 002B     		cmp	r3, #0
 209 0024 05D1     		bne	.L7
 210              		.loc 3 65 0 is_stmt 0 discriminator 1
 211 0026 7869     		ldr	r0, [r7, #20]
 212 0028 FFF7FEFF 		bl	lv_obj_get_signal_cb
 213 002c 0246     		mov	r2, r0
 214 002e 264B     		ldr	r3, .L14
 215 0030 1A60     		str	r2, [r3]
 216              	.L7:
  66:..\..\..\lvgl\version_6.1.2\lvgl\src\lv_objx/lv_led.c ****     if(ancestor_design_f == NULL) ancestor_design_f = lv_obj_get_design_cb(new_led);
 217              		.loc 3 66 0 is_stmt 1
 218 0032 264B     		ldr	r3, .L14+4
 219 0034 1B68     		ldr	r3, [r3]
 220 0036 002B     		cmp	r3, #0
 221 0038 05D1     		bne	.L8
 222              		.loc 3 66 0 is_stmt 0 discriminator 1
 223 003a 7869     		ldr	r0, [r7, #20]
 224 003c FFF7FEFF 		bl	lv_obj_get_design_cb
 225 0040 0246     		mov	r2, r0
 226 0042 224B     		ldr	r3, .L14+4
 227 0044 1A60     		str	r2, [r3]
 228              	.L8:
  67:..\..\..\lvgl\version_6.1.2\lvgl\src\lv_objx/lv_led.c **** 
  68:..\..\..\lvgl\version_6.1.2\lvgl\src\lv_objx/lv_led.c ****     /*Allocate the object type specific extended data*/
  69:..\..\..\lvgl\version_6.1.2\lvgl\src\lv_objx/lv_led.c ****     lv_led_ext_t * ext = lv_obj_allocate_ext_attr(new_led, sizeof(lv_led_ext_t));
 229              		.loc 3 69 0 is_stmt 1
 230 0046 0121     		movs	r1, #1
 231 0048 7869     		ldr	r0, [r7, #20]
 232 004a FFF7FEFF 		bl	lv_obj_allocate_ext_attr
 233 004e 3861     		str	r0, [r7, #16]
  70:..\..\..\lvgl\version_6.1.2\lvgl\src\lv_objx/lv_led.c ****     LV_ASSERT_MEM(ext);
  71:..\..\..\lvgl\version_6.1.2\lvgl\src\lv_objx/lv_led.c ****     if(ext == NULL) return NULL;
 234              		.loc 3 71 0
 235 0050 3B69     		ldr	r3, [r7, #16]
 236 0052 002B     		cmp	r3, #0
 237 0054 01D1     		bne	.L9
 238              		.loc 3 71 0 is_stmt 0 discriminator 1
 239 0056 0023     		movs	r3, #0
 240 0058 32E0     		b	.L6
 241              	.L9:
  72:..\..\..\lvgl\version_6.1.2\lvgl\src\lv_objx/lv_led.c **** 
ARM GAS  C:\Users\tmj32\AppData\Local\Temp\ccKH8gEj.s 			page 16


  73:..\..\..\lvgl\version_6.1.2\lvgl\src\lv_objx/lv_led.c ****     ext->bright = LV_LED_BRIGHT_ON;
 242              		.loc 3 73 0 is_stmt 1
 243 005a 3B69     		ldr	r3, [r7, #16]
 244 005c FF22     		movs	r2, #255
 245 005e 1A70     		strb	r2, [r3]
  74:..\..\..\lvgl\version_6.1.2\lvgl\src\lv_objx/lv_led.c **** 
  75:..\..\..\lvgl\version_6.1.2\lvgl\src\lv_objx/lv_led.c ****     lv_obj_set_signal_cb(new_led, lv_led_signal);
 246              		.loc 3 75 0
 247 0060 1B49     		ldr	r1, .L14+8
 248 0062 7869     		ldr	r0, [r7, #20]
 249 0064 FFF7FEFF 		bl	lv_obj_set_signal_cb
  76:..\..\..\lvgl\version_6.1.2\lvgl\src\lv_objx/lv_led.c ****     lv_obj_set_design_cb(new_led, lv_led_design);
 250              		.loc 3 76 0
 251 0068 1A49     		ldr	r1, .L14+12
 252 006a 7869     		ldr	r0, [r7, #20]
 253 006c FFF7FEFF 		bl	lv_obj_set_design_cb
  77:..\..\..\lvgl\version_6.1.2\lvgl\src\lv_objx/lv_led.c **** 
  78:..\..\..\lvgl\version_6.1.2\lvgl\src\lv_objx/lv_led.c ****     /*Init the new led object*/
  79:..\..\..\lvgl\version_6.1.2\lvgl\src\lv_objx/lv_led.c ****     if(copy == NULL) {
 254              		.loc 3 79 0
 255 0070 3B68     		ldr	r3, [r7]
 256 0072 002B     		cmp	r3, #0
 257 0074 18D1     		bne	.L10
 258              	.LBB2:
  80:..\..\..\lvgl\version_6.1.2\lvgl\src\lv_objx/lv_led.c ****         lv_obj_set_size(new_led, LV_LED_WIDTH_DEF, LV_LED_HEIGHT_DEF);
 259              		.loc 3 80 0
 260 0076 3222     		movs	r2, #50
 261 0078 3221     		movs	r1, #50
 262 007a 7869     		ldr	r0, [r7, #20]
 263 007c FFF7FEFF 		bl	lv_obj_set_size
  81:..\..\..\lvgl\version_6.1.2\lvgl\src\lv_objx/lv_led.c **** 
  82:..\..\..\lvgl\version_6.1.2\lvgl\src\lv_objx/lv_led.c ****         /*Set the default styles*/
  83:..\..\..\lvgl\version_6.1.2\lvgl\src\lv_objx/lv_led.c ****         lv_theme_t * th = lv_theme_get_current();
 264              		.loc 3 83 0
 265 0080 FFF7FEFF 		bl	lv_theme_get_current
 266 0084 F860     		str	r0, [r7, #12]
  84:..\..\..\lvgl\version_6.1.2\lvgl\src\lv_objx/lv_led.c ****         if(th) {
 267              		.loc 3 84 0
 268 0086 FB68     		ldr	r3, [r7, #12]
 269 0088 002B     		cmp	r3, #0
 270 008a 07D0     		beq	.L11
  85:..\..\..\lvgl\version_6.1.2\lvgl\src\lv_objx/lv_led.c ****             lv_led_set_style(new_led, LV_LED_STYLE_MAIN, th->style.led);
 271              		.loc 3 85 0
 272 008c FB68     		ldr	r3, [r7, #12]
 273 008e 1B6D     		ldr	r3, [r3, #80]
 274 0090 1A46     		mov	r2, r3
 275 0092 0021     		movs	r1, #0
 276 0094 7869     		ldr	r0, [r7, #20]
 277 0096 FFF7FEFF 		bl	lv_led_set_style
 278 009a 10E0     		b	.L13
 279              	.L11:
  86:..\..\..\lvgl\version_6.1.2\lvgl\src\lv_objx/lv_led.c ****         } else {
  87:..\..\..\lvgl\version_6.1.2\lvgl\src\lv_objx/lv_led.c ****             lv_led_set_style(new_led, LV_LED_STYLE_MAIN, &lv_style_pretty_color);
 280              		.loc 3 87 0
 281 009c 0E4A     		ldr	r2, .L14+16
 282 009e 0021     		movs	r1, #0
 283 00a0 7869     		ldr	r0, [r7, #20]
ARM GAS  C:\Users\tmj32\AppData\Local\Temp\ccKH8gEj.s 			page 17


 284 00a2 FFF7FEFF 		bl	lv_led_set_style
 285 00a6 0AE0     		b	.L13
 286              	.L10:
 287              	.LBE2:
 288              	.LBB3:
  88:..\..\..\lvgl\version_6.1.2\lvgl\src\lv_objx/lv_led.c ****         }
  89:..\..\..\lvgl\version_6.1.2\lvgl\src\lv_objx/lv_led.c ****     }
  90:..\..\..\lvgl\version_6.1.2\lvgl\src\lv_objx/lv_led.c ****     /*Copy an existing object*/
  91:..\..\..\lvgl\version_6.1.2\lvgl\src\lv_objx/lv_led.c ****     else {
  92:..\..\..\lvgl\version_6.1.2\lvgl\src\lv_objx/lv_led.c ****         lv_led_ext_t * copy_ext = lv_obj_get_ext_attr(copy);
 289              		.loc 3 92 0
 290 00a8 3868     		ldr	r0, [r7]
 291 00aa FFF7FEFF 		bl	lv_obj_get_ext_attr
 292 00ae B860     		str	r0, [r7, #8]
  93:..\..\..\lvgl\version_6.1.2\lvgl\src\lv_objx/lv_led.c ****         ext->bright             = copy_ext->bright;
 293              		.loc 3 93 0
 294 00b0 BB68     		ldr	r3, [r7, #8]
 295 00b2 1A78     		ldrb	r2, [r3]	@ zero_extendqisi2
 296 00b4 3B69     		ldr	r3, [r7, #16]
 297 00b6 1A70     		strb	r2, [r3]
  94:..\..\..\lvgl\version_6.1.2\lvgl\src\lv_objx/lv_led.c **** 
  95:..\..\..\lvgl\version_6.1.2\lvgl\src\lv_objx/lv_led.c ****         /*Refresh the style with new signal function*/
  96:..\..\..\lvgl\version_6.1.2\lvgl\src\lv_objx/lv_led.c ****         lv_obj_refresh_style(new_led);
 298              		.loc 3 96 0
 299 00b8 7869     		ldr	r0, [r7, #20]
 300 00ba FFF7FEFF 		bl	lv_obj_refresh_style
 301              	.L13:
 302              	.LBE3:
  97:..\..\..\lvgl\version_6.1.2\lvgl\src\lv_objx/lv_led.c ****     }
  98:..\..\..\lvgl\version_6.1.2\lvgl\src\lv_objx/lv_led.c **** 
  99:..\..\..\lvgl\version_6.1.2\lvgl\src\lv_objx/lv_led.c ****     LV_LOG_INFO("led created");
 100:..\..\..\lvgl\version_6.1.2\lvgl\src\lv_objx/lv_led.c **** 
 101:..\..\..\lvgl\version_6.1.2\lvgl\src\lv_objx/lv_led.c ****     return new_led;
 303              		.loc 3 101 0
 304 00be 7B69     		ldr	r3, [r7, #20]
 305              	.L6:
 102:..\..\..\lvgl\version_6.1.2\lvgl\src\lv_objx/lv_led.c **** }
 306              		.loc 3 102 0
 307 00c0 1846     		mov	r0, r3
 308 00c2 1837     		adds	r7, r7, #24
 309              		.cfi_def_cfa_offset 8
 310 00c4 BD46     		mov	sp, r7
 311              		.cfi_def_cfa_register 13
 312              		@ sp needed
 313 00c6 80BD     		pop	{r7, pc}
 314              	.L15:
 315              		.align	2
 316              	.L14:
 317 00c8 04000000 		.word	ancestor_signal
 318 00cc 00000000 		.word	ancestor_design_f
 319 00d0 00000000 		.word	lv_led_signal
 320 00d4 00000000 		.word	lv_led_design
 321 00d8 00000000 		.word	lv_style_pretty_color
 322              		.cfi_endproc
 323              	.LFE33:
 324              		.size	lv_led_create, .-lv_led_create
 325              		.section	.text.lv_led_set_bright,"ax",%progbits
ARM GAS  C:\Users\tmj32\AppData\Local\Temp\ccKH8gEj.s 			page 18


 326              		.align	2
 327              		.global	lv_led_set_bright
 328              		.thumb
 329              		.thumb_func
 330              		.type	lv_led_set_bright, %function
 331              	lv_led_set_bright:
 332              	.LFB34:
 103:..\..\..\lvgl\version_6.1.2\lvgl\src\lv_objx/lv_led.c **** 
 104:..\..\..\lvgl\version_6.1.2\lvgl\src\lv_objx/lv_led.c **** /*=====================
 105:..\..\..\lvgl\version_6.1.2\lvgl\src\lv_objx/lv_led.c ****  * Setter functions
 106:..\..\..\lvgl\version_6.1.2\lvgl\src\lv_objx/lv_led.c ****  *====================*/
 107:..\..\..\lvgl\version_6.1.2\lvgl\src\lv_objx/lv_led.c **** 
 108:..\..\..\lvgl\version_6.1.2\lvgl\src\lv_objx/lv_led.c **** /**
 109:..\..\..\lvgl\version_6.1.2\lvgl\src\lv_objx/lv_led.c ****  * Set the brightness of a LED object
 110:..\..\..\lvgl\version_6.1.2\lvgl\src\lv_objx/lv_led.c ****  * @param led pointer to a LED object
 111:..\..\..\lvgl\version_6.1.2\lvgl\src\lv_objx/lv_led.c ****  * @param bright 0 (max. dark) ... 255 (max. light)
 112:..\..\..\lvgl\version_6.1.2\lvgl\src\lv_objx/lv_led.c ****  */
 113:..\..\..\lvgl\version_6.1.2\lvgl\src\lv_objx/lv_led.c **** void lv_led_set_bright(lv_obj_t * led, uint8_t bright)
 114:..\..\..\lvgl\version_6.1.2\lvgl\src\lv_objx/lv_led.c **** {
 333              		.loc 3 114 0
 334              		.cfi_startproc
 335              		@ args = 0, pretend = 0, frame = 16
 336              		@ frame_needed = 1, uses_anonymous_args = 0
 337 0000 80B5     		push	{r7, lr}
 338              		.cfi_def_cfa_offset 8
 339              		.cfi_offset 7, -8
 340              		.cfi_offset 14, -4
 341 0002 84B0     		sub	sp, sp, #16
 342              		.cfi_def_cfa_offset 24
 343 0004 00AF     		add	r7, sp, #0
 344              		.cfi_def_cfa_register 7
 345 0006 7860     		str	r0, [r7, #4]
 346 0008 0B46     		mov	r3, r1
 347 000a FB70     		strb	r3, [r7, #3]
 115:..\..\..\lvgl\version_6.1.2\lvgl\src\lv_objx/lv_led.c ****     LV_ASSERT_OBJ(led, LV_OBJX_NAME);
 116:..\..\..\lvgl\version_6.1.2\lvgl\src\lv_objx/lv_led.c **** 
 117:..\..\..\lvgl\version_6.1.2\lvgl\src\lv_objx/lv_led.c ****     /*Set the brightness*/
 118:..\..\..\lvgl\version_6.1.2\lvgl\src\lv_objx/lv_led.c ****     lv_led_ext_t * ext = lv_obj_get_ext_attr(led);
 348              		.loc 3 118 0
 349 000c 7868     		ldr	r0, [r7, #4]
 350 000e FFF7FEFF 		bl	lv_obj_get_ext_attr
 351 0012 F860     		str	r0, [r7, #12]
 119:..\..\..\lvgl\version_6.1.2\lvgl\src\lv_objx/lv_led.c ****     if(ext->bright == bright) return;
 352              		.loc 3 119 0
 353 0014 FB68     		ldr	r3, [r7, #12]
 354 0016 1B78     		ldrb	r3, [r3]	@ zero_extendqisi2
 355 0018 FA78     		ldrb	r2, [r7, #3]	@ zero_extendqisi2
 356 001a 9A42     		cmp	r2, r3
 357 001c 06D0     		beq	.L19
 120:..\..\..\lvgl\version_6.1.2\lvgl\src\lv_objx/lv_led.c **** 
 121:..\..\..\lvgl\version_6.1.2\lvgl\src\lv_objx/lv_led.c ****     ext->bright = bright;
 358              		.loc 3 121 0
 359 001e FB68     		ldr	r3, [r7, #12]
 360 0020 FA78     		ldrb	r2, [r7, #3]
 361 0022 1A70     		strb	r2, [r3]
 122:..\..\..\lvgl\version_6.1.2\lvgl\src\lv_objx/lv_led.c **** 
 123:..\..\..\lvgl\version_6.1.2\lvgl\src\lv_objx/lv_led.c ****     /*Invalidate the object there fore it will be redrawn*/
ARM GAS  C:\Users\tmj32\AppData\Local\Temp\ccKH8gEj.s 			page 19


 124:..\..\..\lvgl\version_6.1.2\lvgl\src\lv_objx/lv_led.c ****     lv_obj_invalidate(led);
 362              		.loc 3 124 0
 363 0024 7868     		ldr	r0, [r7, #4]
 364 0026 FFF7FEFF 		bl	lv_obj_invalidate
 365 002a 00E0     		b	.L16
 366              	.L19:
 119:..\..\..\lvgl\version_6.1.2\lvgl\src\lv_objx/lv_led.c **** 
 367              		.loc 3 119 0
 368 002c 00BF     		nop
 369              	.L16:
 125:..\..\..\lvgl\version_6.1.2\lvgl\src\lv_objx/lv_led.c **** }
 370              		.loc 3 125 0
 371 002e 1037     		adds	r7, r7, #16
 372              		.cfi_def_cfa_offset 8
 373 0030 BD46     		mov	sp, r7
 374              		.cfi_def_cfa_register 13
 375              		@ sp needed
 376 0032 80BD     		pop	{r7, pc}
 377              		.cfi_endproc
 378              	.LFE34:
 379              		.size	lv_led_set_bright, .-lv_led_set_bright
 380              		.section	.text.lv_led_on,"ax",%progbits
 381              		.align	2
 382              		.global	lv_led_on
 383              		.thumb
 384              		.thumb_func
 385              		.type	lv_led_on, %function
 386              	lv_led_on:
 387              	.LFB35:
 126:..\..\..\lvgl\version_6.1.2\lvgl\src\lv_objx/lv_led.c **** 
 127:..\..\..\lvgl\version_6.1.2\lvgl\src\lv_objx/lv_led.c **** /**
 128:..\..\..\lvgl\version_6.1.2\lvgl\src\lv_objx/lv_led.c ****  * Light on a LED
 129:..\..\..\lvgl\version_6.1.2\lvgl\src\lv_objx/lv_led.c ****  * @param led pointer to a LED object
 130:..\..\..\lvgl\version_6.1.2\lvgl\src\lv_objx/lv_led.c ****  */
 131:..\..\..\lvgl\version_6.1.2\lvgl\src\lv_objx/lv_led.c **** void lv_led_on(lv_obj_t * led)
 132:..\..\..\lvgl\version_6.1.2\lvgl\src\lv_objx/lv_led.c **** {
 388              		.loc 3 132 0
 389              		.cfi_startproc
 390              		@ args = 0, pretend = 0, frame = 8
 391              		@ frame_needed = 1, uses_anonymous_args = 0
 392 0000 80B5     		push	{r7, lr}
 393              		.cfi_def_cfa_offset 8
 394              		.cfi_offset 7, -8
 395              		.cfi_offset 14, -4
 396 0002 82B0     		sub	sp, sp, #8
 397              		.cfi_def_cfa_offset 16
 398 0004 00AF     		add	r7, sp, #0
 399              		.cfi_def_cfa_register 7
 400 0006 7860     		str	r0, [r7, #4]
 133:..\..\..\lvgl\version_6.1.2\lvgl\src\lv_objx/lv_led.c ****     LV_ASSERT_OBJ(led, LV_OBJX_NAME);
 134:..\..\..\lvgl\version_6.1.2\lvgl\src\lv_objx/lv_led.c **** 
 135:..\..\..\lvgl\version_6.1.2\lvgl\src\lv_objx/lv_led.c ****     lv_led_set_bright(led, LV_LED_BRIGHT_ON);
 401              		.loc 3 135 0
 402 0008 FF21     		movs	r1, #255
 403 000a 7868     		ldr	r0, [r7, #4]
 404 000c FFF7FEFF 		bl	lv_led_set_bright
 136:..\..\..\lvgl\version_6.1.2\lvgl\src\lv_objx/lv_led.c **** }
ARM GAS  C:\Users\tmj32\AppData\Local\Temp\ccKH8gEj.s 			page 20


 405              		.loc 3 136 0
 406 0010 00BF     		nop
 407 0012 0837     		adds	r7, r7, #8
 408              		.cfi_def_cfa_offset 8
 409 0014 BD46     		mov	sp, r7
 410              		.cfi_def_cfa_register 13
 411              		@ sp needed
 412 0016 80BD     		pop	{r7, pc}
 413              		.cfi_endproc
 414              	.LFE35:
 415              		.size	lv_led_on, .-lv_led_on
 416              		.section	.text.lv_led_off,"ax",%progbits
 417              		.align	2
 418              		.global	lv_led_off
 419              		.thumb
 420              		.thumb_func
 421              		.type	lv_led_off, %function
 422              	lv_led_off:
 423              	.LFB36:
 137:..\..\..\lvgl\version_6.1.2\lvgl\src\lv_objx/lv_led.c **** 
 138:..\..\..\lvgl\version_6.1.2\lvgl\src\lv_objx/lv_led.c **** /**
 139:..\..\..\lvgl\version_6.1.2\lvgl\src\lv_objx/lv_led.c ****  * Light off a LED
 140:..\..\..\lvgl\version_6.1.2\lvgl\src\lv_objx/lv_led.c ****  * @param led pointer to a LED object
 141:..\..\..\lvgl\version_6.1.2\lvgl\src\lv_objx/lv_led.c ****  */
 142:..\..\..\lvgl\version_6.1.2\lvgl\src\lv_objx/lv_led.c **** void lv_led_off(lv_obj_t * led)
 143:..\..\..\lvgl\version_6.1.2\lvgl\src\lv_objx/lv_led.c **** {
 424              		.loc 3 143 0
 425              		.cfi_startproc
 426              		@ args = 0, pretend = 0, frame = 8
 427              		@ frame_needed = 1, uses_anonymous_args = 0
 428 0000 80B5     		push	{r7, lr}
 429              		.cfi_def_cfa_offset 8
 430              		.cfi_offset 7, -8
 431              		.cfi_offset 14, -4
 432 0002 82B0     		sub	sp, sp, #8
 433              		.cfi_def_cfa_offset 16
 434 0004 00AF     		add	r7, sp, #0
 435              		.cfi_def_cfa_register 7
 436 0006 7860     		str	r0, [r7, #4]
 144:..\..\..\lvgl\version_6.1.2\lvgl\src\lv_objx/lv_led.c ****     LV_ASSERT_OBJ(led, LV_OBJX_NAME);
 145:..\..\..\lvgl\version_6.1.2\lvgl\src\lv_objx/lv_led.c **** 
 146:..\..\..\lvgl\version_6.1.2\lvgl\src\lv_objx/lv_led.c ****     lv_led_set_bright(led, LV_LED_BRIGHT_OFF);
 437              		.loc 3 146 0
 438 0008 6421     		movs	r1, #100
 439 000a 7868     		ldr	r0, [r7, #4]
 440 000c FFF7FEFF 		bl	lv_led_set_bright
 147:..\..\..\lvgl\version_6.1.2\lvgl\src\lv_objx/lv_led.c **** }
 441              		.loc 3 147 0
 442 0010 00BF     		nop
 443 0012 0837     		adds	r7, r7, #8
 444              		.cfi_def_cfa_offset 8
 445 0014 BD46     		mov	sp, r7
 446              		.cfi_def_cfa_register 13
 447              		@ sp needed
 448 0016 80BD     		pop	{r7, pc}
 449              		.cfi_endproc
 450              	.LFE36:
ARM GAS  C:\Users\tmj32\AppData\Local\Temp\ccKH8gEj.s 			page 21


 451              		.size	lv_led_off, .-lv_led_off
 452              		.section	.text.lv_led_toggle,"ax",%progbits
 453              		.align	2
 454              		.global	lv_led_toggle
 455              		.thumb
 456              		.thumb_func
 457              		.type	lv_led_toggle, %function
 458              	lv_led_toggle:
 459              	.LFB37:
 148:..\..\..\lvgl\version_6.1.2\lvgl\src\lv_objx/lv_led.c **** 
 149:..\..\..\lvgl\version_6.1.2\lvgl\src\lv_objx/lv_led.c **** /**
 150:..\..\..\lvgl\version_6.1.2\lvgl\src\lv_objx/lv_led.c ****  * Toggle the state of a LED
 151:..\..\..\lvgl\version_6.1.2\lvgl\src\lv_objx/lv_led.c ****  * @param led pointer to a LED object
 152:..\..\..\lvgl\version_6.1.2\lvgl\src\lv_objx/lv_led.c ****  */
 153:..\..\..\lvgl\version_6.1.2\lvgl\src\lv_objx/lv_led.c **** void lv_led_toggle(lv_obj_t * led)
 154:..\..\..\lvgl\version_6.1.2\lvgl\src\lv_objx/lv_led.c **** {
 460              		.loc 3 154 0
 461              		.cfi_startproc
 462              		@ args = 0, pretend = 0, frame = 16
 463              		@ frame_needed = 1, uses_anonymous_args = 0
 464 0000 80B5     		push	{r7, lr}
 465              		.cfi_def_cfa_offset 8
 466              		.cfi_offset 7, -8
 467              		.cfi_offset 14, -4
 468 0002 84B0     		sub	sp, sp, #16
 469              		.cfi_def_cfa_offset 24
 470 0004 00AF     		add	r7, sp, #0
 471              		.cfi_def_cfa_register 7
 472 0006 7860     		str	r0, [r7, #4]
 155:..\..\..\lvgl\version_6.1.2\lvgl\src\lv_objx/lv_led.c ****     LV_ASSERT_OBJ(led, LV_OBJX_NAME);
 156:..\..\..\lvgl\version_6.1.2\lvgl\src\lv_objx/lv_led.c **** 
 157:..\..\..\lvgl\version_6.1.2\lvgl\src\lv_objx/lv_led.c ****     uint8_t bright = lv_led_get_bright(led);
 473              		.loc 3 157 0
 474 0008 7868     		ldr	r0, [r7, #4]
 475 000a FFF7FEFF 		bl	lv_led_get_bright
 476 000e 0346     		mov	r3, r0
 477 0010 FB73     		strb	r3, [r7, #15]
 158:..\..\..\lvgl\version_6.1.2\lvgl\src\lv_objx/lv_led.c ****     if(bright > (LV_LED_BRIGHT_OFF + LV_LED_BRIGHT_ON) >> 1)
 478              		.loc 3 158 0
 479 0012 FB7B     		ldrb	r3, [r7, #15]	@ zero_extendqisi2
 480 0014 B12B     		cmp	r3, #177
 481 0016 03D9     		bls	.L23
 159:..\..\..\lvgl\version_6.1.2\lvgl\src\lv_objx/lv_led.c ****         lv_led_off(led);
 482              		.loc 3 159 0
 483 0018 7868     		ldr	r0, [r7, #4]
 484 001a FFF7FEFF 		bl	lv_led_off
 160:..\..\..\lvgl\version_6.1.2\lvgl\src\lv_objx/lv_led.c ****     else
 161:..\..\..\lvgl\version_6.1.2\lvgl\src\lv_objx/lv_led.c ****         lv_led_on(led);
 162:..\..\..\lvgl\version_6.1.2\lvgl\src\lv_objx/lv_led.c **** }
 485              		.loc 3 162 0
 486 001e 02E0     		b	.L25
 487              	.L23:
 161:..\..\..\lvgl\version_6.1.2\lvgl\src\lv_objx/lv_led.c **** }
 488              		.loc 3 161 0
 489 0020 7868     		ldr	r0, [r7, #4]
 490 0022 FFF7FEFF 		bl	lv_led_on
 491              	.L25:
ARM GAS  C:\Users\tmj32\AppData\Local\Temp\ccKH8gEj.s 			page 22


 492              		.loc 3 162 0
 493 0026 00BF     		nop
 494 0028 1037     		adds	r7, r7, #16
 495              		.cfi_def_cfa_offset 8
 496 002a BD46     		mov	sp, r7
 497              		.cfi_def_cfa_register 13
 498              		@ sp needed
 499 002c 80BD     		pop	{r7, pc}
 500              		.cfi_endproc
 501              	.LFE37:
 502              		.size	lv_led_toggle, .-lv_led_toggle
 503 002e 00BF     		.section	.text.lv_led_get_bright,"ax",%progbits
 504              		.align	2
 505              		.global	lv_led_get_bright
 506              		.thumb
 507              		.thumb_func
 508              		.type	lv_led_get_bright, %function
 509              	lv_led_get_bright:
 510              	.LFB38:
 163:..\..\..\lvgl\version_6.1.2\lvgl\src\lv_objx/lv_led.c **** 
 164:..\..\..\lvgl\version_6.1.2\lvgl\src\lv_objx/lv_led.c **** /*=====================
 165:..\..\..\lvgl\version_6.1.2\lvgl\src\lv_objx/lv_led.c ****  * Getter functions
 166:..\..\..\lvgl\version_6.1.2\lvgl\src\lv_objx/lv_led.c ****  *====================*/
 167:..\..\..\lvgl\version_6.1.2\lvgl\src\lv_objx/lv_led.c **** 
 168:..\..\..\lvgl\version_6.1.2\lvgl\src\lv_objx/lv_led.c **** /**
 169:..\..\..\lvgl\version_6.1.2\lvgl\src\lv_objx/lv_led.c ****  * Get the brightness of a LEd object
 170:..\..\..\lvgl\version_6.1.2\lvgl\src\lv_objx/lv_led.c ****  * @param led pointer to LED object
 171:..\..\..\lvgl\version_6.1.2\lvgl\src\lv_objx/lv_led.c ****  * @return bright 0 (max. dark) ... 255 (max. light)
 172:..\..\..\lvgl\version_6.1.2\lvgl\src\lv_objx/lv_led.c ****  */
 173:..\..\..\lvgl\version_6.1.2\lvgl\src\lv_objx/lv_led.c **** uint8_t lv_led_get_bright(const lv_obj_t * led)
 174:..\..\..\lvgl\version_6.1.2\lvgl\src\lv_objx/lv_led.c **** {
 511              		.loc 3 174 0
 512              		.cfi_startproc
 513              		@ args = 0, pretend = 0, frame = 16
 514              		@ frame_needed = 1, uses_anonymous_args = 0
 515 0000 80B5     		push	{r7, lr}
 516              		.cfi_def_cfa_offset 8
 517              		.cfi_offset 7, -8
 518              		.cfi_offset 14, -4
 519 0002 84B0     		sub	sp, sp, #16
 520              		.cfi_def_cfa_offset 24
 521 0004 00AF     		add	r7, sp, #0
 522              		.cfi_def_cfa_register 7
 523 0006 7860     		str	r0, [r7, #4]
 175:..\..\..\lvgl\version_6.1.2\lvgl\src\lv_objx/lv_led.c ****     LV_ASSERT_OBJ(led, LV_OBJX_NAME);
 176:..\..\..\lvgl\version_6.1.2\lvgl\src\lv_objx/lv_led.c **** 
 177:..\..\..\lvgl\version_6.1.2\lvgl\src\lv_objx/lv_led.c ****     lv_led_ext_t * ext = lv_obj_get_ext_attr(led);
 524              		.loc 3 177 0
 525 0008 7868     		ldr	r0, [r7, #4]
 526 000a FFF7FEFF 		bl	lv_obj_get_ext_attr
 527 000e F860     		str	r0, [r7, #12]
 178:..\..\..\lvgl\version_6.1.2\lvgl\src\lv_objx/lv_led.c ****     return ext->bright;
 528              		.loc 3 178 0
 529 0010 FB68     		ldr	r3, [r7, #12]
 530 0012 1B78     		ldrb	r3, [r3]	@ zero_extendqisi2
 179:..\..\..\lvgl\version_6.1.2\lvgl\src\lv_objx/lv_led.c **** }
 531              		.loc 3 179 0
ARM GAS  C:\Users\tmj32\AppData\Local\Temp\ccKH8gEj.s 			page 23


 532 0014 1846     		mov	r0, r3
 533 0016 1037     		adds	r7, r7, #16
 534              		.cfi_def_cfa_offset 8
 535 0018 BD46     		mov	sp, r7
 536              		.cfi_def_cfa_register 13
 537              		@ sp needed
 538 001a 80BD     		pop	{r7, pc}
 539              		.cfi_endproc
 540              	.LFE38:
 541              		.size	lv_led_get_bright, .-lv_led_get_bright
 542              		.section	.text.lv_led_design,"ax",%progbits
 543              		.align	2
 544              		.thumb
 545              		.thumb_func
 546              		.type	lv_led_design, %function
 547              	lv_led_design:
 548              	.LFB39:
 180:..\..\..\lvgl\version_6.1.2\lvgl\src\lv_objx/lv_led.c **** 
 181:..\..\..\lvgl\version_6.1.2\lvgl\src\lv_objx/lv_led.c **** /**********************
 182:..\..\..\lvgl\version_6.1.2\lvgl\src\lv_objx/lv_led.c ****  *   STATIC FUNCTIONS
 183:..\..\..\lvgl\version_6.1.2\lvgl\src\lv_objx/lv_led.c ****  **********************/
 184:..\..\..\lvgl\version_6.1.2\lvgl\src\lv_objx/lv_led.c **** 
 185:..\..\..\lvgl\version_6.1.2\lvgl\src\lv_objx/lv_led.c **** /**
 186:..\..\..\lvgl\version_6.1.2\lvgl\src\lv_objx/lv_led.c ****  * Handle the drawing related tasks of the leds
 187:..\..\..\lvgl\version_6.1.2\lvgl\src\lv_objx/lv_led.c ****  * @param led pointer to an object
 188:..\..\..\lvgl\version_6.1.2\lvgl\src\lv_objx/lv_led.c ****  * @param mask the object will be drawn only in this area
 189:..\..\..\lvgl\version_6.1.2\lvgl\src\lv_objx/lv_led.c ****  * @param mode LV_DESIGN_COVER_CHK: only check if the object fully covers the 'mask_p' area
 190:..\..\..\lvgl\version_6.1.2\lvgl\src\lv_objx/lv_led.c ****  *                                  (return 'true' if yes)
 191:..\..\..\lvgl\version_6.1.2\lvgl\src\lv_objx/lv_led.c ****  *             LV_DESIGN_DRAW: draw the object (always return 'true')
 192:..\..\..\lvgl\version_6.1.2\lvgl\src\lv_objx/lv_led.c ****  *             LV_DESIGN_DRAW_POST: drawing after every children are drawn
 193:..\..\..\lvgl\version_6.1.2\lvgl\src\lv_objx/lv_led.c ****  * @param return true/false, depends on 'mode'
 194:..\..\..\lvgl\version_6.1.2\lvgl\src\lv_objx/lv_led.c ****  */
 195:..\..\..\lvgl\version_6.1.2\lvgl\src\lv_objx/lv_led.c **** static bool lv_led_design(lv_obj_t * led, const lv_area_t * mask, lv_design_mode_t mode)
 196:..\..\..\lvgl\version_6.1.2\lvgl\src\lv_objx/lv_led.c **** {
 549              		.loc 3 196 0
 550              		.cfi_startproc
 551              		@ args = 0, pretend = 0, frame = 128
 552              		@ frame_needed = 1, uses_anonymous_args = 0
 553 0000 80B5     		push	{r7, lr}
 554              		.cfi_def_cfa_offset 8
 555              		.cfi_offset 7, -8
 556              		.cfi_offset 14, -4
 557 0002 A0B0     		sub	sp, sp, #128
 558              		.cfi_def_cfa_offset 136
 559 0004 00AF     		add	r7, sp, #0
 560              		.cfi_def_cfa_register 7
 561 0006 F860     		str	r0, [r7, #12]
 562 0008 B960     		str	r1, [r7, #8]
 563 000a 1346     		mov	r3, r2
 564 000c FB71     		strb	r3, [r7, #7]
 197:..\..\..\lvgl\version_6.1.2\lvgl\src\lv_objx/lv_led.c ****     if(mode == LV_DESIGN_COVER_CHK) {
 565              		.loc 3 197 0
 566 000e FB79     		ldrb	r3, [r7, #7]	@ zero_extendqisi2
 567 0010 022B     		cmp	r3, #2
 568 0012 07D1     		bne	.L29
 198:..\..\..\lvgl\version_6.1.2\lvgl\src\lv_objx/lv_led.c ****         /*Return false if the object is not covers the mask area*/
 199:..\..\..\lvgl\version_6.1.2\lvgl\src\lv_objx/lv_led.c ****         return ancestor_design_f(led, mask, mode);
ARM GAS  C:\Users\tmj32\AppData\Local\Temp\ccKH8gEj.s 			page 24


 569              		.loc 3 199 0
 570 0014 3F4B     		ldr	r3, .L32
 571 0016 1B68     		ldr	r3, [r3]
 572 0018 FA79     		ldrb	r2, [r7, #7]	@ zero_extendqisi2
 573 001a B968     		ldr	r1, [r7, #8]
 574 001c F868     		ldr	r0, [r7, #12]
 575 001e 9847     		blx	r3
 576 0020 0346     		mov	r3, r0
 577 0022 72E0     		b	.L30
 578              	.L29:
 200:..\..\..\lvgl\version_6.1.2\lvgl\src\lv_objx/lv_led.c ****     } else if(mode == LV_DESIGN_DRAW_MAIN) {
 579              		.loc 3 200 0
 580 0024 FB79     		ldrb	r3, [r7, #7]	@ zero_extendqisi2
 581 0026 002B     		cmp	r3, #0
 582 0028 6ED1     		bne	.L31
 583              	.LBB4:
 201:..\..\..\lvgl\version_6.1.2\lvgl\src\lv_objx/lv_led.c ****         /*Make darker colors in a temporary style according to the brightness*/
 202:..\..\..\lvgl\version_6.1.2\lvgl\src\lv_objx/lv_led.c ****         lv_led_ext_t * ext       = lv_obj_get_ext_attr(led);
 584              		.loc 3 202 0
 585 002a F868     		ldr	r0, [r7, #12]
 586 002c FFF7FEFF 		bl	lv_obj_get_ext_attr
 587 0030 F867     		str	r0, [r7, #124]
 203:..\..\..\lvgl\version_6.1.2\lvgl\src\lv_objx/lv_led.c ****         const lv_style_t * style = lv_obj_get_style(led);
 588              		.loc 3 203 0
 589 0032 F868     		ldr	r0, [r7, #12]
 590 0034 FFF7FEFF 		bl	lv_obj_get_style
 591 0038 B867     		str	r0, [r7, #120]
 204:..\..\..\lvgl\version_6.1.2\lvgl\src\lv_objx/lv_led.c **** 
 205:..\..\..\lvgl\version_6.1.2\lvgl\src\lv_objx/lv_led.c ****         /* Store the real pointer because of 'lv_group'
 206:..\..\..\lvgl\version_6.1.2\lvgl\src\lv_objx/lv_led.c ****          * If the object is in focus 'lv_obj_get_style()' will give a pointer to tmp style
 207:..\..\..\lvgl\version_6.1.2\lvgl\src\lv_objx/lv_led.c ****          * and to the real object style. It is important because of style change tricks below*/
 208:..\..\..\lvgl\version_6.1.2\lvgl\src\lv_objx/lv_led.c ****         const lv_style_t * style_ori_p = led->style_p;
 592              		.loc 3 208 0
 593 003a FB68     		ldr	r3, [r7, #12]
 594 003c 9B6A     		ldr	r3, [r3, #40]
 595 003e 7B67     		str	r3, [r7, #116]
 209:..\..\..\lvgl\version_6.1.2\lvgl\src\lv_objx/lv_led.c **** 
 210:..\..\..\lvgl\version_6.1.2\lvgl\src\lv_objx/lv_led.c ****         /*Create a temporal style*/
 211:..\..\..\lvgl\version_6.1.2\lvgl\src\lv_objx/lv_led.c ****         lv_style_t leds_tmp;
 212:..\..\..\lvgl\version_6.1.2\lvgl\src\lv_objx/lv_led.c ****         memcpy(&leds_tmp, style, sizeof(leds_tmp));
 596              		.loc 3 212 0
 597 0040 07F11403 		add	r3, r7, #20
 598 0044 5022     		movs	r2, #80
 599 0046 B96F     		ldr	r1, [r7, #120]
 600 0048 1846     		mov	r0, r3
 601 004a FFF7FEFF 		bl	memcpy
 213:..\..\..\lvgl\version_6.1.2\lvgl\src\lv_objx/lv_led.c **** 
 214:..\..\..\lvgl\version_6.1.2\lvgl\src\lv_objx/lv_led.c ****         /*Mix. the color with black proportionally with brightness*/
 215:..\..\..\lvgl\version_6.1.2\lvgl\src\lv_objx/lv_led.c ****         leds_tmp.body.main_color   = lv_color_mix(leds_tmp.body.main_color, LV_COLOR_BLACK, ext->br
 602              		.loc 3 215 0
 603 004e 0023     		movs	r3, #0
 604 0050 87F86430 		strb	r3, [r7, #100]
 605 0054 0023     		movs	r3, #0
 606 0056 87F86530 		strb	r3, [r7, #101]
 607 005a 0023     		movs	r3, #0
 608 005c 87F86630 		strb	r3, [r7, #102]
 609 0060 FF23     		movs	r3, #255
ARM GAS  C:\Users\tmj32\AppData\Local\Temp\ccKH8gEj.s 			page 25


 610 0062 87F86730 		strb	r3, [r7, #103]
 611 0066 FB6F     		ldr	r3, [r7, #124]
 612 0068 1B78     		ldrb	r3, [r3]	@ zero_extendqisi2
 613 006a 1A46     		mov	r2, r3
 614 006c 796E     		ldr	r1, [r7, #100]
 615 006e B869     		ldr	r0, [r7, #24]
 616 0070 FFF7FEFF 		bl	lv_color_mix
 617 0074 B861     		str	r0, [r7, #24]
 216:..\..\..\lvgl\version_6.1.2\lvgl\src\lv_objx/lv_led.c ****         leds_tmp.body.grad_color   = lv_color_mix(leds_tmp.body.grad_color, LV_COLOR_BLACK, ext->br
 618              		.loc 3 216 0
 619 0076 0023     		movs	r3, #0
 620 0078 87F86830 		strb	r3, [r7, #104]
 621 007c 0023     		movs	r3, #0
 622 007e 87F86930 		strb	r3, [r7, #105]
 623 0082 0023     		movs	r3, #0
 624 0084 87F86A30 		strb	r3, [r7, #106]
 625 0088 FF23     		movs	r3, #255
 626 008a 87F86B30 		strb	r3, [r7, #107]
 627 008e FB6F     		ldr	r3, [r7, #124]
 628 0090 1B78     		ldrb	r3, [r3]	@ zero_extendqisi2
 629 0092 1A46     		mov	r2, r3
 630 0094 B96E     		ldr	r1, [r7, #104]
 631 0096 F869     		ldr	r0, [r7, #28]
 632 0098 FFF7FEFF 		bl	lv_color_mix
 633 009c F861     		str	r0, [r7, #28]
 217:..\..\..\lvgl\version_6.1.2\lvgl\src\lv_objx/lv_led.c ****         leds_tmp.body.border.color = lv_color_mix(leds_tmp.body.border.color, LV_COLOR_BLACK, ext->
 634              		.loc 3 217 0
 635 009e 0023     		movs	r3, #0
 636 00a0 87F86C30 		strb	r3, [r7, #108]
 637 00a4 0023     		movs	r3, #0
 638 00a6 87F86D30 		strb	r3, [r7, #109]
 639 00aa 0023     		movs	r3, #0
 640 00ac 87F86E30 		strb	r3, [r7, #110]
 641 00b0 FF23     		movs	r3, #255
 642 00b2 87F86F30 		strb	r3, [r7, #111]
 643 00b6 FB6F     		ldr	r3, [r7, #124]
 644 00b8 1B78     		ldrb	r3, [r3]	@ zero_extendqisi2
 645 00ba 1A46     		mov	r2, r3
 646 00bc F96E     		ldr	r1, [r7, #108]
 647 00be 786A     		ldr	r0, [r7, #36]
 648 00c0 FFF7FEFF 		bl	lv_color_mix
 649 00c4 7862     		str	r0, [r7, #36]
 218:..\..\..\lvgl\version_6.1.2\lvgl\src\lv_objx/lv_led.c **** 
 219:..\..\..\lvgl\version_6.1.2\lvgl\src\lv_objx/lv_led.c ****         /*Set the current swidth according to brightness proportionally between LV_LED_BRIGHT_OFF
 220:..\..\..\lvgl\version_6.1.2\lvgl\src\lv_objx/lv_led.c ****          * and LV_LED_BRIGHT_ON*/
 221:..\..\..\lvgl\version_6.1.2\lvgl\src\lv_objx/lv_led.c ****         uint16_t bright_tmp = ext->bright;
 650              		.loc 3 221 0
 651 00c6 FB6F     		ldr	r3, [r7, #124]
 652 00c8 1B78     		ldrb	r3, [r3]	@ zero_extendqisi2
 653 00ca A7F87230 		strh	r3, [r7, #114]	@ movhi
 222:..\..\..\lvgl\version_6.1.2\lvgl\src\lv_objx/lv_led.c ****         leds_tmp.body.shadow.width =
 223:..\..\..\lvgl\version_6.1.2\lvgl\src\lv_objx/lv_led.c ****             ((bright_tmp - LV_LED_BRIGHT_OFF) * style->body.shadow.width) / (LV_LED_BRIGHT_ON - LV_
 654              		.loc 3 223 0
 655 00ce B7F87230 		ldrh	r3, [r7, #114]
 656 00d2 643B     		subs	r3, r3, #100
 657 00d4 BA6F     		ldr	r2, [r7, #120]
 658 00d6 B2F91C20 		ldrsh	r2, [r2, #28]
ARM GAS  C:\Users\tmj32\AppData\Local\Temp\ccKH8gEj.s 			page 26


 659 00da 02FB03F3 		mul	r3, r2, r3
 660 00de 0E4A     		ldr	r2, .L32+4
 661 00e0 82FB0312 		smull	r1, r2, r2, r3
 662 00e4 1211     		asrs	r2, r2, #4
 663 00e6 DB17     		asrs	r3, r3, #31
 664 00e8 D31A     		subs	r3, r2, r3
 222:..\..\..\lvgl\version_6.1.2\lvgl\src\lv_objx/lv_led.c ****         leds_tmp.body.shadow.width =
 665              		.loc 3 222 0
 666 00ea 1BB2     		sxth	r3, r3
 667 00ec 3B86     		strh	r3, [r7, #48]	@ movhi
 224:..\..\..\lvgl\version_6.1.2\lvgl\src\lv_objx/lv_led.c **** 
 225:..\..\..\lvgl\version_6.1.2\lvgl\src\lv_objx/lv_led.c ****         led->style_p = &leds_tmp;
 668              		.loc 3 225 0
 669 00ee FB68     		ldr	r3, [r7, #12]
 670 00f0 07F11402 		add	r2, r7, #20
 671 00f4 9A62     		str	r2, [r3, #40]
 226:..\..\..\lvgl\version_6.1.2\lvgl\src\lv_objx/lv_led.c ****         ancestor_design_f(led, mask, mode);
 672              		.loc 3 226 0
 673 00f6 074B     		ldr	r3, .L32
 674 00f8 1B68     		ldr	r3, [r3]
 675 00fa FA79     		ldrb	r2, [r7, #7]	@ zero_extendqisi2
 676 00fc B968     		ldr	r1, [r7, #8]
 677 00fe F868     		ldr	r0, [r7, #12]
 678 0100 9847     		blx	r3
 227:..\..\..\lvgl\version_6.1.2\lvgl\src\lv_objx/lv_led.c ****         led->style_p = style_ori_p; /*Restore the ORIGINAL style pointer*/
 679              		.loc 3 227 0
 680 0102 FB68     		ldr	r3, [r7, #12]
 681 0104 7A6F     		ldr	r2, [r7, #116]
 682 0106 9A62     		str	r2, [r3, #40]
 683              	.L31:
 684              	.LBE4:
 228:..\..\..\lvgl\version_6.1.2\lvgl\src\lv_objx/lv_led.c ****     }
 229:..\..\..\lvgl\version_6.1.2\lvgl\src\lv_objx/lv_led.c ****     return true;
 685              		.loc 3 229 0
 686 0108 0123     		movs	r3, #1
 687              	.L30:
 230:..\..\..\lvgl\version_6.1.2\lvgl\src\lv_objx/lv_led.c **** }
 688              		.loc 3 230 0
 689 010a 1846     		mov	r0, r3
 690 010c 8037     		adds	r7, r7, #128
 691              		.cfi_def_cfa_offset 8
 692 010e BD46     		mov	sp, r7
 693              		.cfi_def_cfa_register 13
 694              		@ sp needed
 695 0110 80BD     		pop	{r7, pc}
 696              	.L33:
 697 0112 00BF     		.align	2
 698              	.L32:
 699 0114 00000000 		.word	ancestor_design_f
 700 0118 A7016D1A 		.word	443351463
 701              		.cfi_endproc
 702              	.LFE39:
 703              		.size	lv_led_design, .-lv_led_design
 704              		.section	.rodata
 705              		.align	2
 706              	.LC0:
 707 0000 6C765F6C 		.ascii	"lv_led\000"
ARM GAS  C:\Users\tmj32\AppData\Local\Temp\ccKH8gEj.s 			page 27


 707      656400
 708              		.section	.text.lv_led_signal,"ax",%progbits
 709              		.align	2
 710              		.thumb
 711              		.thumb_func
 712              		.type	lv_led_signal, %function
 713              	lv_led_signal:
 714              	.LFB40:
 231:..\..\..\lvgl\version_6.1.2\lvgl\src\lv_objx/lv_led.c **** 
 232:..\..\..\lvgl\version_6.1.2\lvgl\src\lv_objx/lv_led.c **** /**
 233:..\..\..\lvgl\version_6.1.2\lvgl\src\lv_objx/lv_led.c ****  * Signal function of the led
 234:..\..\..\lvgl\version_6.1.2\lvgl\src\lv_objx/lv_led.c ****  * @param led pointer to a led object
 235:..\..\..\lvgl\version_6.1.2\lvgl\src\lv_objx/lv_led.c ****  * @param sign a signal type from lv_signal_t enum
 236:..\..\..\lvgl\version_6.1.2\lvgl\src\lv_objx/lv_led.c ****  * @param param pointer to a signal specific variable
 237:..\..\..\lvgl\version_6.1.2\lvgl\src\lv_objx/lv_led.c ****  * @return LV_RES_OK: the object is not deleted in the function; LV_RES_INV: the object is deleted
 238:..\..\..\lvgl\version_6.1.2\lvgl\src\lv_objx/lv_led.c ****  */
 239:..\..\..\lvgl\version_6.1.2\lvgl\src\lv_objx/lv_led.c **** static lv_res_t lv_led_signal(lv_obj_t * led, lv_signal_t sign, void * param)
 240:..\..\..\lvgl\version_6.1.2\lvgl\src\lv_objx/lv_led.c **** {
 715              		.loc 3 240 0
 716              		.cfi_startproc
 717              		@ args = 0, pretend = 0, frame = 24
 718              		@ frame_needed = 1, uses_anonymous_args = 0
 719 0000 80B5     		push	{r7, lr}
 720              		.cfi_def_cfa_offset 8
 721              		.cfi_offset 7, -8
 722              		.cfi_offset 14, -4
 723 0002 86B0     		sub	sp, sp, #24
 724              		.cfi_def_cfa_offset 32
 725 0004 00AF     		add	r7, sp, #0
 726              		.cfi_def_cfa_register 7
 727 0006 F860     		str	r0, [r7, #12]
 728 0008 0B46     		mov	r3, r1
 729 000a 7A60     		str	r2, [r7, #4]
 730 000c FB72     		strb	r3, [r7, #11]
 241:..\..\..\lvgl\version_6.1.2\lvgl\src\lv_objx/lv_led.c ****     lv_res_t res;
 242:..\..\..\lvgl\version_6.1.2\lvgl\src\lv_objx/lv_led.c **** 
 243:..\..\..\lvgl\version_6.1.2\lvgl\src\lv_objx/lv_led.c ****     /* Include the ancient signal function */
 244:..\..\..\lvgl\version_6.1.2\lvgl\src\lv_objx/lv_led.c ****     res = ancestor_signal(led, sign, param);
 731              		.loc 3 244 0
 732 000e 164B     		ldr	r3, .L43
 733 0010 1B68     		ldr	r3, [r3]
 734 0012 F97A     		ldrb	r1, [r7, #11]	@ zero_extendqisi2
 735 0014 7A68     		ldr	r2, [r7, #4]
 736 0016 F868     		ldr	r0, [r7, #12]
 737 0018 9847     		blx	r3
 738 001a 0346     		mov	r3, r0
 739 001c BB75     		strb	r3, [r7, #22]
 245:..\..\..\lvgl\version_6.1.2\lvgl\src\lv_objx/lv_led.c ****     if(res != LV_RES_OK) return res;
 740              		.loc 3 245 0
 741 001e BB7D     		ldrb	r3, [r7, #22]	@ zero_extendqisi2
 742 0020 012B     		cmp	r3, #1
 743 0022 01D0     		beq	.L35
 744              		.loc 3 245 0 is_stmt 0 discriminator 1
 745 0024 BB7D     		ldrb	r3, [r7, #22]	@ zero_extendqisi2
 746 0026 1BE0     		b	.L36
 747              	.L35:
 246:..\..\..\lvgl\version_6.1.2\lvgl\src\lv_objx/lv_led.c **** 
ARM GAS  C:\Users\tmj32\AppData\Local\Temp\ccKH8gEj.s 			page 28


 247:..\..\..\lvgl\version_6.1.2\lvgl\src\lv_objx/lv_led.c ****     if(sign == LV_SIGNAL_GET_TYPE) {
 748              		.loc 3 247 0 is_stmt 1
 749 0028 FB7A     		ldrb	r3, [r7, #11]	@ zero_extendqisi2
 750 002a 072B     		cmp	r3, #7
 751 002c 17D1     		bne	.L37
 752              	.LBB5:
 248:..\..\..\lvgl\version_6.1.2\lvgl\src\lv_objx/lv_led.c ****         lv_obj_type_t * buf = param;
 753              		.loc 3 248 0
 754 002e 7B68     		ldr	r3, [r7, #4]
 755 0030 3B61     		str	r3, [r7, #16]
 249:..\..\..\lvgl\version_6.1.2\lvgl\src\lv_objx/lv_led.c ****         uint8_t i;
 250:..\..\..\lvgl\version_6.1.2\lvgl\src\lv_objx/lv_led.c ****         for(i = 0; i < LV_MAX_ANCESTOR_NUM - 1; i++) { /*Find the last set data*/
 756              		.loc 3 250 0
 757 0032 0023     		movs	r3, #0
 758 0034 FB75     		strb	r3, [r7, #23]
 759 0036 08E0     		b	.L38
 760              	.L41:
 251:..\..\..\lvgl\version_6.1.2\lvgl\src\lv_objx/lv_led.c ****             if(buf->type[i] == NULL) break;
 761              		.loc 3 251 0
 762 0038 FA7D     		ldrb	r2, [r7, #23]	@ zero_extendqisi2
 763 003a 3B69     		ldr	r3, [r7, #16]
 764 003c 53F82230 		ldr	r3, [r3, r2, lsl #2]
 765 0040 002B     		cmp	r3, #0
 766 0042 06D0     		beq	.L42
 250:..\..\..\lvgl\version_6.1.2\lvgl\src\lv_objx/lv_led.c ****             if(buf->type[i] == NULL) break;
 767              		.loc 3 250 0 discriminator 2
 768 0044 FB7D     		ldrb	r3, [r7, #23]	@ zero_extendqisi2
 769 0046 0133     		adds	r3, r3, #1
 770 0048 FB75     		strb	r3, [r7, #23]
 771              	.L38:
 250:..\..\..\lvgl\version_6.1.2\lvgl\src\lv_objx/lv_led.c ****             if(buf->type[i] == NULL) break;
 772              		.loc 3 250 0 is_stmt 0 discriminator 1
 773 004a FB7D     		ldrb	r3, [r7, #23]	@ zero_extendqisi2
 774 004c 062B     		cmp	r3, #6
 775 004e F3D9     		bls	.L41
 776 0050 00E0     		b	.L40
 777              	.L42:
 778              		.loc 3 251 0 is_stmt 1
 779 0052 00BF     		nop
 780              	.L40:
 252:..\..\..\lvgl\version_6.1.2\lvgl\src\lv_objx/lv_led.c ****         }
 253:..\..\..\lvgl\version_6.1.2\lvgl\src\lv_objx/lv_led.c ****         buf->type[i] = "lv_led";
 781              		.loc 3 253 0
 782 0054 FA7D     		ldrb	r2, [r7, #23]	@ zero_extendqisi2
 783 0056 3B69     		ldr	r3, [r7, #16]
 784 0058 0449     		ldr	r1, .L43+4
 785 005a 43F82210 		str	r1, [r3, r2, lsl #2]
 786              	.L37:
 787              	.LBE5:
 254:..\..\..\lvgl\version_6.1.2\lvgl\src\lv_objx/lv_led.c ****     }
 255:..\..\..\lvgl\version_6.1.2\lvgl\src\lv_objx/lv_led.c **** 
 256:..\..\..\lvgl\version_6.1.2\lvgl\src\lv_objx/lv_led.c ****     return res;
 788              		.loc 3 256 0
 789 005e BB7D     		ldrb	r3, [r7, #22]	@ zero_extendqisi2
 790              	.L36:
 257:..\..\..\lvgl\version_6.1.2\lvgl\src\lv_objx/lv_led.c **** }
 791              		.loc 3 257 0
ARM GAS  C:\Users\tmj32\AppData\Local\Temp\ccKH8gEj.s 			page 29


 792 0060 1846     		mov	r0, r3
 793 0062 1837     		adds	r7, r7, #24
 794              		.cfi_def_cfa_offset 8
 795 0064 BD46     		mov	sp, r7
 796              		.cfi_def_cfa_register 13
 797              		@ sp needed
 798 0066 80BD     		pop	{r7, pc}
 799              	.L44:
 800              		.align	2
 801              	.L43:
 802 0068 04000000 		.word	ancestor_signal
 803 006c 00000000 		.word	.LC0
 804              		.cfi_endproc
 805              	.LFE40:
 806              		.size	lv_led_signal, .-lv_led_signal
 807              		.text
 808              	.Letext0:
 809              		.file 4 "c:\\program files (x86)\\cypress\\psoc creator\\4.3\\psoc creator\\import\\gnu\\arm\\5.4.
 810              		.file 5 "c:\\program files (x86)\\cypress\\psoc creator\\4.3\\psoc creator\\import\\gnu\\arm\\5.4.
 811              		.file 6 "..\\..\\..\\lvgl\\version_6.1.2\\lvgl\\src\\lv_objx\\../../../lv_conf.h"
 812              		.file 7 "..\\..\\..\\lvgl\\version_6.1.2\\lvgl\\src\\lv_objx\\../lv_core/../lv_font/lv_font.h"
 813              		.file 8 "..\\..\\..\\lvgl\\version_6.1.2\\lvgl\\src\\lv_objx\\../lv_core/../lv_misc/lv_area.h"
 814              		.file 9 "..\\..\\..\\lvgl\\version_6.1.2\\lvgl\\src\\lv_objx\\../lv_core/lv_style.h"
 815              		.file 10 "..\\..\\..\\lvgl\\version_6.1.2\\lvgl\\src\\lv_objx\\../lv_core/../lv_misc/lv_types.h"
 816              		.file 11 "..\\..\\..\\lvgl\\version_6.1.2\\lvgl\\src\\lv_objx\\../lv_core/../lv_misc/lv_ll.h"
 817              		.file 12 "..\\..\\..\\lvgl\\version_6.1.2\\lvgl\\src\\lv_objx\\../lv_core/../lv_misc/lv_bidi.h"
 818              		.file 13 "..\\..\\..\\lvgl\\version_6.1.2\\lvgl\\src\\lv_objx\\../lv_core/lv_obj.h"
 819              		.file 14 "..\\..\\..\\lvgl\\version_6.1.2\\lvgl\\src\\lv_objx\\../lv_themes/lv_theme.h"