ARM GAS  C:\Users\tmj32\AppData\Local\Temp\ccepMVRX.s 			page 1


   1              		.syntax unified
   2              		.cpu cortex-m4
   3              		.eabi_attribute 27, 1
   4              		.fpu fpv4-sp-d16
   5              		.eabi_attribute 20, 1
   6              		.eabi_attribute 21, 1
   7              		.eabi_attribute 23, 3
   8              		.eabi_attribute 24, 1
   9              		.eabi_attribute 25, 1
  10              		.eabi_attribute 26, 1
  11              		.eabi_attribute 30, 6
  12              		.eabi_attribute 34, 1
  13              		.eabi_attribute 18, 4
  14              		.thumb
  15              		.syntax unified
  16              		.file	"lv_lmeter.c"
  17              		.text
  18              	.Ltext0:
  19              		.cfi_sections	.debug_frame
  20              		.section	.text.lv_color_mix,"ax",%progbits
  21              		.align	2
  22              		.thumb
  23              		.thumb_func
  24              		.type	lv_color_mix, %function
  25              	lv_color_mix:
  26              	.LFB5:
  27              		.file 1 "..\\..\\..\\lvgl\\version_6.1.2\\lvgl\\src\\lv_objx\\../lv_core/../lv_misc/lv_color.h"
   1:..\..\..\lvgl\version_6.1.2\lvgl\src\lv_objx\../lv_core/../lv_misc/lv_color.h **** /**
   2:..\..\..\lvgl\version_6.1.2\lvgl\src\lv_objx\../lv_core/../lv_misc/lv_color.h ****  * @file lv_color.h
   3:..\..\..\lvgl\version_6.1.2\lvgl\src\lv_objx\../lv_core/../lv_misc/lv_color.h ****  *
   4:..\..\..\lvgl\version_6.1.2\lvgl\src\lv_objx\../lv_core/../lv_misc/lv_color.h ****  */
   5:..\..\..\lvgl\version_6.1.2\lvgl\src\lv_objx\../lv_core/../lv_misc/lv_color.h **** 
   6:..\..\..\lvgl\version_6.1.2\lvgl\src\lv_objx\../lv_core/../lv_misc/lv_color.h **** #ifndef LV_COLOR_H
   7:..\..\..\lvgl\version_6.1.2\lvgl\src\lv_objx\../lv_core/../lv_misc/lv_color.h **** #define LV_COLOR_H
   8:..\..\..\lvgl\version_6.1.2\lvgl\src\lv_objx\../lv_core/../lv_misc/lv_color.h **** 
   9:..\..\..\lvgl\version_6.1.2\lvgl\src\lv_objx\../lv_core/../lv_misc/lv_color.h **** #ifdef __cplusplus
  10:..\..\..\lvgl\version_6.1.2\lvgl\src\lv_objx\../lv_core/../lv_misc/lv_color.h **** extern "C" {
  11:..\..\..\lvgl\version_6.1.2\lvgl\src\lv_objx\../lv_core/../lv_misc/lv_color.h **** #endif
  12:..\..\..\lvgl\version_6.1.2\lvgl\src\lv_objx\../lv_core/../lv_misc/lv_color.h **** 
  13:..\..\..\lvgl\version_6.1.2\lvgl\src\lv_objx\../lv_core/../lv_misc/lv_color.h **** /*********************
  14:..\..\..\lvgl\version_6.1.2\lvgl\src\lv_objx\../lv_core/../lv_misc/lv_color.h ****  *      INCLUDES
  15:..\..\..\lvgl\version_6.1.2\lvgl\src\lv_objx\../lv_core/../lv_misc/lv_color.h ****  *********************/
  16:..\..\..\lvgl\version_6.1.2\lvgl\src\lv_objx\../lv_core/../lv_misc/lv_color.h **** #ifdef LV_CONF_INCLUDE_SIMPLE
  17:..\..\..\lvgl\version_6.1.2\lvgl\src\lv_objx\../lv_core/../lv_misc/lv_color.h **** #include "lv_conf.h"
  18:..\..\..\lvgl\version_6.1.2\lvgl\src\lv_objx\../lv_core/../lv_misc/lv_color.h **** #else
  19:..\..\..\lvgl\version_6.1.2\lvgl\src\lv_objx\../lv_core/../lv_misc/lv_color.h **** #include "../../../lv_conf.h"
  20:..\..\..\lvgl\version_6.1.2\lvgl\src\lv_objx\../lv_core/../lv_misc/lv_color.h **** #endif
  21:..\..\..\lvgl\version_6.1.2\lvgl\src\lv_objx\../lv_core/../lv_misc/lv_color.h **** 
  22:..\..\..\lvgl\version_6.1.2\lvgl\src\lv_objx\../lv_core/../lv_misc/lv_color.h **** /*Error checking*/
  23:..\..\..\lvgl\version_6.1.2\lvgl\src\lv_objx\../lv_core/../lv_misc/lv_color.h **** #if LV_COLOR_DEPTH == 24
  24:..\..\..\lvgl\version_6.1.2\lvgl\src\lv_objx\../lv_core/../lv_misc/lv_color.h **** #error "LV_COLOR_DEPTH  24 is deprecated. Use LV_COLOR_DEPTH  32 instead (lv_conf.h)"
  25:..\..\..\lvgl\version_6.1.2\lvgl\src\lv_objx\../lv_core/../lv_misc/lv_color.h **** #endif
  26:..\..\..\lvgl\version_6.1.2\lvgl\src\lv_objx\../lv_core/../lv_misc/lv_color.h **** 
  27:..\..\..\lvgl\version_6.1.2\lvgl\src\lv_objx\../lv_core/../lv_misc/lv_color.h **** #if LV_COLOR_DEPTH != 32 && LV_COLOR_SCREEN_TRANSP != 0
  28:..\..\..\lvgl\version_6.1.2\lvgl\src\lv_objx\../lv_core/../lv_misc/lv_color.h **** #error "LV_COLOR_SCREEN_TRANSP requires LV_COLOR_DEPTH == 32. Set it in lv_conf.h"
  29:..\..\..\lvgl\version_6.1.2\lvgl\src\lv_objx\../lv_core/../lv_misc/lv_color.h **** #endif
  30:..\..\..\lvgl\version_6.1.2\lvgl\src\lv_objx\../lv_core/../lv_misc/lv_color.h **** 
ARM GAS  C:\Users\tmj32\AppData\Local\Temp\ccepMVRX.s 			page 2


  31:..\..\..\lvgl\version_6.1.2\lvgl\src\lv_objx\../lv_core/../lv_misc/lv_color.h **** #if LV_COLOR_DEPTH != 16 && LV_COLOR_16_SWAP != 0
  32:..\..\..\lvgl\version_6.1.2\lvgl\src\lv_objx\../lv_core/../lv_misc/lv_color.h **** #error "LV_COLOR_16_SWAP requires LV_COLOR_DEPTH == 16. Set it in lv_conf.h"
  33:..\..\..\lvgl\version_6.1.2\lvgl\src\lv_objx\../lv_core/../lv_misc/lv_color.h **** #endif
  34:..\..\..\lvgl\version_6.1.2\lvgl\src\lv_objx\../lv_core/../lv_misc/lv_color.h **** 
  35:..\..\..\lvgl\version_6.1.2\lvgl\src\lv_objx\../lv_core/../lv_misc/lv_color.h **** #include <stdint.h>
  36:..\..\..\lvgl\version_6.1.2\lvgl\src\lv_objx\../lv_core/../lv_misc/lv_color.h **** 
  37:..\..\..\lvgl\version_6.1.2\lvgl\src\lv_objx\../lv_core/../lv_misc/lv_color.h **** /*********************
  38:..\..\..\lvgl\version_6.1.2\lvgl\src\lv_objx\../lv_core/../lv_misc/lv_color.h ****  *      DEFINES
  39:..\..\..\lvgl\version_6.1.2\lvgl\src\lv_objx\../lv_core/../lv_misc/lv_color.h ****  *********************/
  40:..\..\..\lvgl\version_6.1.2\lvgl\src\lv_objx\../lv_core/../lv_misc/lv_color.h **** #define LV_COLOR_WHITE LV_COLOR_MAKE(0xFF, 0xFF, 0xFF)
  41:..\..\..\lvgl\version_6.1.2\lvgl\src\lv_objx\../lv_core/../lv_misc/lv_color.h **** #define LV_COLOR_SILVER LV_COLOR_MAKE(0xC0, 0xC0, 0xC0)
  42:..\..\..\lvgl\version_6.1.2\lvgl\src\lv_objx\../lv_core/../lv_misc/lv_color.h **** #define LV_COLOR_GRAY LV_COLOR_MAKE(0x80, 0x80, 0x80)
  43:..\..\..\lvgl\version_6.1.2\lvgl\src\lv_objx\../lv_core/../lv_misc/lv_color.h **** #define LV_COLOR_BLACK LV_COLOR_MAKE(0x00, 0x00, 0x00)
  44:..\..\..\lvgl\version_6.1.2\lvgl\src\lv_objx\../lv_core/../lv_misc/lv_color.h **** #define LV_COLOR_RED LV_COLOR_MAKE(0xFF, 0x00, 0x00)
  45:..\..\..\lvgl\version_6.1.2\lvgl\src\lv_objx\../lv_core/../lv_misc/lv_color.h **** #define LV_COLOR_MAROON LV_COLOR_MAKE(0x80, 0x00, 0x00)
  46:..\..\..\lvgl\version_6.1.2\lvgl\src\lv_objx\../lv_core/../lv_misc/lv_color.h **** #define LV_COLOR_YELLOW LV_COLOR_MAKE(0xFF, 0xFF, 0x00)
  47:..\..\..\lvgl\version_6.1.2\lvgl\src\lv_objx\../lv_core/../lv_misc/lv_color.h **** #define LV_COLOR_OLIVE LV_COLOR_MAKE(0x80, 0x80, 0x00)
  48:..\..\..\lvgl\version_6.1.2\lvgl\src\lv_objx\../lv_core/../lv_misc/lv_color.h **** #define LV_COLOR_LIME LV_COLOR_MAKE(0x00, 0xFF, 0x00)
  49:..\..\..\lvgl\version_6.1.2\lvgl\src\lv_objx\../lv_core/../lv_misc/lv_color.h **** #define LV_COLOR_GREEN LV_COLOR_MAKE(0x00, 0x80, 0x00)
  50:..\..\..\lvgl\version_6.1.2\lvgl\src\lv_objx\../lv_core/../lv_misc/lv_color.h **** #define LV_COLOR_CYAN LV_COLOR_MAKE(0x00, 0xFF, 0xFF)
  51:..\..\..\lvgl\version_6.1.2\lvgl\src\lv_objx\../lv_core/../lv_misc/lv_color.h **** #define LV_COLOR_AQUA LV_COLOR_CYAN
  52:..\..\..\lvgl\version_6.1.2\lvgl\src\lv_objx\../lv_core/../lv_misc/lv_color.h **** #define LV_COLOR_TEAL LV_COLOR_MAKE(0x00, 0x80, 0x80)
  53:..\..\..\lvgl\version_6.1.2\lvgl\src\lv_objx\../lv_core/../lv_misc/lv_color.h **** #define LV_COLOR_BLUE LV_COLOR_MAKE(0x00, 0x00, 0xFF)
  54:..\..\..\lvgl\version_6.1.2\lvgl\src\lv_objx\../lv_core/../lv_misc/lv_color.h **** #define LV_COLOR_NAVY LV_COLOR_MAKE(0x00, 0x00, 0x80)
  55:..\..\..\lvgl\version_6.1.2\lvgl\src\lv_objx\../lv_core/../lv_misc/lv_color.h **** #define LV_COLOR_MAGENTA LV_COLOR_MAKE(0xFF, 0x00, 0xFF)
  56:..\..\..\lvgl\version_6.1.2\lvgl\src\lv_objx\../lv_core/../lv_misc/lv_color.h **** #define LV_COLOR_PURPLE LV_COLOR_MAKE(0x80, 0x00, 0x80)
  57:..\..\..\lvgl\version_6.1.2\lvgl\src\lv_objx\../lv_core/../lv_misc/lv_color.h **** #define LV_COLOR_ORANGE LV_COLOR_MAKE(0xFF, 0xA5, 0x00)
  58:..\..\..\lvgl\version_6.1.2\lvgl\src\lv_objx\../lv_core/../lv_misc/lv_color.h **** 
  59:..\..\..\lvgl\version_6.1.2\lvgl\src\lv_objx\../lv_core/../lv_misc/lv_color.h **** /**
  60:..\..\..\lvgl\version_6.1.2\lvgl\src\lv_objx\../lv_core/../lv_misc/lv_color.h ****  * Opacity percentages.
  61:..\..\..\lvgl\version_6.1.2\lvgl\src\lv_objx\../lv_core/../lv_misc/lv_color.h ****  */
  62:..\..\..\lvgl\version_6.1.2\lvgl\src\lv_objx\../lv_core/../lv_misc/lv_color.h **** enum {
  63:..\..\..\lvgl\version_6.1.2\lvgl\src\lv_objx\../lv_core/../lv_misc/lv_color.h ****     LV_OPA_TRANSP = 0,
  64:..\..\..\lvgl\version_6.1.2\lvgl\src\lv_objx\../lv_core/../lv_misc/lv_color.h ****     LV_OPA_0      = 0,
  65:..\..\..\lvgl\version_6.1.2\lvgl\src\lv_objx\../lv_core/../lv_misc/lv_color.h ****     LV_OPA_10     = 25,
  66:..\..\..\lvgl\version_6.1.2\lvgl\src\lv_objx\../lv_core/../lv_misc/lv_color.h ****     LV_OPA_20     = 51,
  67:..\..\..\lvgl\version_6.1.2\lvgl\src\lv_objx\../lv_core/../lv_misc/lv_color.h ****     LV_OPA_30     = 76,
  68:..\..\..\lvgl\version_6.1.2\lvgl\src\lv_objx\../lv_core/../lv_misc/lv_color.h ****     LV_OPA_40     = 102,
  69:..\..\..\lvgl\version_6.1.2\lvgl\src\lv_objx\../lv_core/../lv_misc/lv_color.h ****     LV_OPA_50     = 127,
  70:..\..\..\lvgl\version_6.1.2\lvgl\src\lv_objx\../lv_core/../lv_misc/lv_color.h ****     LV_OPA_60     = 153,
  71:..\..\..\lvgl\version_6.1.2\lvgl\src\lv_objx\../lv_core/../lv_misc/lv_color.h ****     LV_OPA_70     = 178,
  72:..\..\..\lvgl\version_6.1.2\lvgl\src\lv_objx\../lv_core/../lv_misc/lv_color.h ****     LV_OPA_80     = 204,
  73:..\..\..\lvgl\version_6.1.2\lvgl\src\lv_objx\../lv_core/../lv_misc/lv_color.h ****     LV_OPA_90     = 229,
  74:..\..\..\lvgl\version_6.1.2\lvgl\src\lv_objx\../lv_core/../lv_misc/lv_color.h ****     LV_OPA_100    = 255,
  75:..\..\..\lvgl\version_6.1.2\lvgl\src\lv_objx\../lv_core/../lv_misc/lv_color.h ****     LV_OPA_COVER  = 255,
  76:..\..\..\lvgl\version_6.1.2\lvgl\src\lv_objx\../lv_core/../lv_misc/lv_color.h **** };
  77:..\..\..\lvgl\version_6.1.2\lvgl\src\lv_objx\../lv_core/../lv_misc/lv_color.h **** 
  78:..\..\..\lvgl\version_6.1.2\lvgl\src\lv_objx\../lv_core/../lv_misc/lv_color.h **** #define LV_OPA_MIN 16  /*Opacities below this will be transparent*/
  79:..\..\..\lvgl\version_6.1.2\lvgl\src\lv_objx\../lv_core/../lv_misc/lv_color.h **** #define LV_OPA_MAX 251 /*Opacities above this will fully cover*/
  80:..\..\..\lvgl\version_6.1.2\lvgl\src\lv_objx\../lv_core/../lv_misc/lv_color.h **** 
  81:..\..\..\lvgl\version_6.1.2\lvgl\src\lv_objx\../lv_core/../lv_misc/lv_color.h **** #if LV_COLOR_DEPTH == 1
  82:..\..\..\lvgl\version_6.1.2\lvgl\src\lv_objx\../lv_core/../lv_misc/lv_color.h **** #define LV_COLOR_SIZE 8
  83:..\..\..\lvgl\version_6.1.2\lvgl\src\lv_objx\../lv_core/../lv_misc/lv_color.h **** #elif LV_COLOR_DEPTH == 8
  84:..\..\..\lvgl\version_6.1.2\lvgl\src\lv_objx\../lv_core/../lv_misc/lv_color.h **** #define LV_COLOR_SIZE 8
  85:..\..\..\lvgl\version_6.1.2\lvgl\src\lv_objx\../lv_core/../lv_misc/lv_color.h **** #elif LV_COLOR_DEPTH == 16
  86:..\..\..\lvgl\version_6.1.2\lvgl\src\lv_objx\../lv_core/../lv_misc/lv_color.h **** #define LV_COLOR_SIZE 16
  87:..\..\..\lvgl\version_6.1.2\lvgl\src\lv_objx\../lv_core/../lv_misc/lv_color.h **** #elif LV_COLOR_DEPTH == 32
ARM GAS  C:\Users\tmj32\AppData\Local\Temp\ccepMVRX.s 			page 3


  88:..\..\..\lvgl\version_6.1.2\lvgl\src\lv_objx\../lv_core/../lv_misc/lv_color.h **** #define LV_COLOR_SIZE 32
  89:..\..\..\lvgl\version_6.1.2\lvgl\src\lv_objx\../lv_core/../lv_misc/lv_color.h **** #else
  90:..\..\..\lvgl\version_6.1.2\lvgl\src\lv_objx\../lv_core/../lv_misc/lv_color.h **** #error "Invalid LV_COLOR_DEPTH in lv_conf.h! Set it to 1, 8, 16 or 32!"
  91:..\..\..\lvgl\version_6.1.2\lvgl\src\lv_objx\../lv_core/../lv_misc/lv_color.h **** #endif
  92:..\..\..\lvgl\version_6.1.2\lvgl\src\lv_objx\../lv_core/../lv_misc/lv_color.h **** 
  93:..\..\..\lvgl\version_6.1.2\lvgl\src\lv_objx\../lv_core/../lv_misc/lv_color.h **** /*---------------------------------------
  94:..\..\..\lvgl\version_6.1.2\lvgl\src\lv_objx\../lv_core/../lv_misc/lv_color.h ****  * Macros for all existing  color depths
  95:..\..\..\lvgl\version_6.1.2\lvgl\src\lv_objx\../lv_core/../lv_misc/lv_color.h ****  * to set/get values of the color channels
  96:..\..\..\lvgl\version_6.1.2\lvgl\src\lv_objx\../lv_core/../lv_misc/lv_color.h ****  *------------------------------------------*/
  97:..\..\..\lvgl\version_6.1.2\lvgl\src\lv_objx\../lv_core/../lv_misc/lv_color.h **** # define LV_COLOR_SET_R1(c, v) (c).ch.red = (uint8_t)((v) & 0x1);
  98:..\..\..\lvgl\version_6.1.2\lvgl\src\lv_objx\../lv_core/../lv_misc/lv_color.h **** # define LV_COLOR_SET_G1(c, v) (c).ch.green = (uint8_t)((v) & 0x1);
  99:..\..\..\lvgl\version_6.1.2\lvgl\src\lv_objx\../lv_core/../lv_misc/lv_color.h **** # define LV_COLOR_SET_B1(c, v) (c).ch.blue = (uint8_t)((v) & 0x1);
 100:..\..\..\lvgl\version_6.1.2\lvgl\src\lv_objx\../lv_core/../lv_misc/lv_color.h **** # define LV_COLOR_SET_A1(c, v)
 101:..\..\..\lvgl\version_6.1.2\lvgl\src\lv_objx\../lv_core/../lv_misc/lv_color.h **** 
 102:..\..\..\lvgl\version_6.1.2\lvgl\src\lv_objx\../lv_core/../lv_misc/lv_color.h **** # define LV_COLOR_GET_R1(c) (c).ch.red
 103:..\..\..\lvgl\version_6.1.2\lvgl\src\lv_objx\../lv_core/../lv_misc/lv_color.h **** # define LV_COLOR_GET_G1(c) (c).ch.green
 104:..\..\..\lvgl\version_6.1.2\lvgl\src\lv_objx\../lv_core/../lv_misc/lv_color.h **** # define LV_COLOR_GET_B1(c) (c).ch.blue
 105:..\..\..\lvgl\version_6.1.2\lvgl\src\lv_objx\../lv_core/../lv_misc/lv_color.h **** # define LV_COLOR_GET_A1(c) 1
 106:..\..\..\lvgl\version_6.1.2\lvgl\src\lv_objx\../lv_core/../lv_misc/lv_color.h **** 
 107:..\..\..\lvgl\version_6.1.2\lvgl\src\lv_objx\../lv_core/../lv_misc/lv_color.h **** # define LV_COLOR_SET_R8(c, v) (c).ch.red = (uint8_t)(v) & 0x7U;
 108:..\..\..\lvgl\version_6.1.2\lvgl\src\lv_objx\../lv_core/../lv_misc/lv_color.h **** # define LV_COLOR_SET_G8(c, v) (c).ch.green = (uint8_t)(v) & 0x7U;
 109:..\..\..\lvgl\version_6.1.2\lvgl\src\lv_objx\../lv_core/../lv_misc/lv_color.h **** # define LV_COLOR_SET_B8(c, v) (c).ch.blue = (uint8_t)(v) & 0x3U;
 110:..\..\..\lvgl\version_6.1.2\lvgl\src\lv_objx\../lv_core/../lv_misc/lv_color.h **** # define LV_COLOR_SET_A8(c, v) do {} while(0)
 111:..\..\..\lvgl\version_6.1.2\lvgl\src\lv_objx\../lv_core/../lv_misc/lv_color.h **** 
 112:..\..\..\lvgl\version_6.1.2\lvgl\src\lv_objx\../lv_core/../lv_misc/lv_color.h **** # define LV_COLOR_GET_R8(c) (c).ch.red
 113:..\..\..\lvgl\version_6.1.2\lvgl\src\lv_objx\../lv_core/../lv_misc/lv_color.h **** # define LV_COLOR_GET_G8(c) (c).ch.green
 114:..\..\..\lvgl\version_6.1.2\lvgl\src\lv_objx\../lv_core/../lv_misc/lv_color.h **** # define LV_COLOR_GET_B8(c) (c).ch.blue
 115:..\..\..\lvgl\version_6.1.2\lvgl\src\lv_objx\../lv_core/../lv_misc/lv_color.h **** # define LV_COLOR_GET_A8(c) 0xFF
 116:..\..\..\lvgl\version_6.1.2\lvgl\src\lv_objx\../lv_core/../lv_misc/lv_color.h **** 
 117:..\..\..\lvgl\version_6.1.2\lvgl\src\lv_objx\../lv_core/../lv_misc/lv_color.h **** # define LV_COLOR_SET_R16(c, v) (c).ch.red = (uint8_t)(v) & 0x1FU;
 118:..\..\..\lvgl\version_6.1.2\lvgl\src\lv_objx\../lv_core/../lv_misc/lv_color.h **** # define LV_COLOR_SET_G16(c, v) (c).ch.green = (uint8_t)(v) & 0x3FU;
 119:..\..\..\lvgl\version_6.1.2\lvgl\src\lv_objx\../lv_core/../lv_misc/lv_color.h **** # define LV_COLOR_SET_G16_SWAP(c, v) {(c).ch.green_h = (uint8_t)(((v) >> 3) & 0x7); (c).ch.green_l 
 120:..\..\..\lvgl\version_6.1.2\lvgl\src\lv_objx\../lv_core/../lv_misc/lv_color.h **** # define LV_COLOR_SET_B16(c, v) (c).ch.blue = (uint8_t)(v) & 0x1FU;
 121:..\..\..\lvgl\version_6.1.2\lvgl\src\lv_objx\../lv_core/../lv_misc/lv_color.h **** # define LV_COLOR_SET_A16(c, v) do {} while(0)
 122:..\..\..\lvgl\version_6.1.2\lvgl\src\lv_objx\../lv_core/../lv_misc/lv_color.h **** 
 123:..\..\..\lvgl\version_6.1.2\lvgl\src\lv_objx\../lv_core/../lv_misc/lv_color.h **** # define LV_COLOR_GET_R16(c) (c).ch.red
 124:..\..\..\lvgl\version_6.1.2\lvgl\src\lv_objx\../lv_core/../lv_misc/lv_color.h **** # define LV_COLOR_GET_G16(c) (c).ch.green
 125:..\..\..\lvgl\version_6.1.2\lvgl\src\lv_objx\../lv_core/../lv_misc/lv_color.h **** # define LV_COLOR_GET_G16_SWAP(c) (((c).ch.green_h << 3) + (c).ch.green_l)
 126:..\..\..\lvgl\version_6.1.2\lvgl\src\lv_objx\../lv_core/../lv_misc/lv_color.h **** # define LV_COLOR_GET_B16(c) (c).ch.blue
 127:..\..\..\lvgl\version_6.1.2\lvgl\src\lv_objx\../lv_core/../lv_misc/lv_color.h **** # define LV_COLOR_GET_A16(c) 0xFF
 128:..\..\..\lvgl\version_6.1.2\lvgl\src\lv_objx\../lv_core/../lv_misc/lv_color.h **** 
 129:..\..\..\lvgl\version_6.1.2\lvgl\src\lv_objx\../lv_core/../lv_misc/lv_color.h **** # define LV_COLOR_SET_R32(c, v) (c).ch.red = (uint32_t)((v) & 0xFF);
 130:..\..\..\lvgl\version_6.1.2\lvgl\src\lv_objx\../lv_core/../lv_misc/lv_color.h **** # define LV_COLOR_SET_G32(c, v) (c).ch.green = (uint32_t)((v) & 0xFF);
 131:..\..\..\lvgl\version_6.1.2\lvgl\src\lv_objx\../lv_core/../lv_misc/lv_color.h **** # define LV_COLOR_SET_B32(c, v) (c).ch.blue = (uint32_t)((v) & 0xFF);
 132:..\..\..\lvgl\version_6.1.2\lvgl\src\lv_objx\../lv_core/../lv_misc/lv_color.h **** # define LV_COLOR_SET_A32(c, v) (c).ch.alpha = (uint32_t)((v) & 0xFF);
 133:..\..\..\lvgl\version_6.1.2\lvgl\src\lv_objx\../lv_core/../lv_misc/lv_color.h **** 
 134:..\..\..\lvgl\version_6.1.2\lvgl\src\lv_objx\../lv_core/../lv_misc/lv_color.h **** # define LV_COLOR_GET_R32(c) (c).ch.red
 135:..\..\..\lvgl\version_6.1.2\lvgl\src\lv_objx\../lv_core/../lv_misc/lv_color.h **** # define LV_COLOR_GET_G32(c) (c).ch.green
 136:..\..\..\lvgl\version_6.1.2\lvgl\src\lv_objx\../lv_core/../lv_misc/lv_color.h **** # define LV_COLOR_GET_B32(c) (c).ch.blue
 137:..\..\..\lvgl\version_6.1.2\lvgl\src\lv_objx\../lv_core/../lv_misc/lv_color.h **** # define LV_COLOR_GET_A32(c) (c).ch.alpha
 138:..\..\..\lvgl\version_6.1.2\lvgl\src\lv_objx\../lv_core/../lv_misc/lv_color.h **** 
 139:..\..\..\lvgl\version_6.1.2\lvgl\src\lv_objx\../lv_core/../lv_misc/lv_color.h **** 
 140:..\..\..\lvgl\version_6.1.2\lvgl\src\lv_objx\../lv_core/../lv_misc/lv_color.h **** /*---------------------------------------
 141:..\..\..\lvgl\version_6.1.2\lvgl\src\lv_objx\../lv_core/../lv_misc/lv_color.h ****  * Macros for the current color depth
 142:..\..\..\lvgl\version_6.1.2\lvgl\src\lv_objx\../lv_core/../lv_misc/lv_color.h ****  * to set/get values of the color channels
 143:..\..\..\lvgl\version_6.1.2\lvgl\src\lv_objx\../lv_core/../lv_misc/lv_color.h ****  *------------------------------------------*/
 144:..\..\..\lvgl\version_6.1.2\lvgl\src\lv_objx\../lv_core/../lv_misc/lv_color.h **** #if LV_COLOR_DEPTH == 1
ARM GAS  C:\Users\tmj32\AppData\Local\Temp\ccepMVRX.s 			page 4


 145:..\..\..\lvgl\version_6.1.2\lvgl\src\lv_objx\../lv_core/../lv_misc/lv_color.h **** # define LV_COLOR_SET_R(c, v) LV_COLOR_SET_R1(c,v)
 146:..\..\..\lvgl\version_6.1.2\lvgl\src\lv_objx\../lv_core/../lv_misc/lv_color.h **** # define LV_COLOR_SET_G(c, v) LV_COLOR_SET_G1(c,v)
 147:..\..\..\lvgl\version_6.1.2\lvgl\src\lv_objx\../lv_core/../lv_misc/lv_color.h **** # define LV_COLOR_SET_B(c, v) LV_COLOR_SET_B1(c,v)
 148:..\..\..\lvgl\version_6.1.2\lvgl\src\lv_objx\../lv_core/../lv_misc/lv_color.h **** # define LV_COLOR_SET_A(c, v) LV_COLOR_SET_A1(c,v)
 149:..\..\..\lvgl\version_6.1.2\lvgl\src\lv_objx\../lv_core/../lv_misc/lv_color.h **** 
 150:..\..\..\lvgl\version_6.1.2\lvgl\src\lv_objx\../lv_core/../lv_misc/lv_color.h **** # define LV_COLOR_GET_R(c) LV_COLOR_GET_R1(c)
 151:..\..\..\lvgl\version_6.1.2\lvgl\src\lv_objx\../lv_core/../lv_misc/lv_color.h **** # define LV_COLOR_GET_G(c) LV_COLOR_GET_G1(c)
 152:..\..\..\lvgl\version_6.1.2\lvgl\src\lv_objx\../lv_core/../lv_misc/lv_color.h **** # define LV_COLOR_GET_B(c) LV_COLOR_GET_B1(c)
 153:..\..\..\lvgl\version_6.1.2\lvgl\src\lv_objx\../lv_core/../lv_misc/lv_color.h **** # define LV_COLOR_GET_A(c) LV_COLOR_GET_A1(c)
 154:..\..\..\lvgl\version_6.1.2\lvgl\src\lv_objx\../lv_core/../lv_misc/lv_color.h **** 
 155:..\..\..\lvgl\version_6.1.2\lvgl\src\lv_objx\../lv_core/../lv_misc/lv_color.h **** #elif LV_COLOR_DEPTH == 8
 156:..\..\..\lvgl\version_6.1.2\lvgl\src\lv_objx\../lv_core/../lv_misc/lv_color.h **** # define LV_COLOR_SET_R(c, v) LV_COLOR_SET_R8(c,v)
 157:..\..\..\lvgl\version_6.1.2\lvgl\src\lv_objx\../lv_core/../lv_misc/lv_color.h **** # define LV_COLOR_SET_G(c, v) LV_COLOR_SET_G8(c,v)
 158:..\..\..\lvgl\version_6.1.2\lvgl\src\lv_objx\../lv_core/../lv_misc/lv_color.h **** # define LV_COLOR_SET_B(c, v) LV_COLOR_SET_B8(c,v)
 159:..\..\..\lvgl\version_6.1.2\lvgl\src\lv_objx\../lv_core/../lv_misc/lv_color.h **** # define LV_COLOR_SET_A(c, v) LV_COLOR_SET_A8(c,v)
 160:..\..\..\lvgl\version_6.1.2\lvgl\src\lv_objx\../lv_core/../lv_misc/lv_color.h **** 
 161:..\..\..\lvgl\version_6.1.2\lvgl\src\lv_objx\../lv_core/../lv_misc/lv_color.h **** # define LV_COLOR_GET_R(c) LV_COLOR_GET_R8(c)
 162:..\..\..\lvgl\version_6.1.2\lvgl\src\lv_objx\../lv_core/../lv_misc/lv_color.h **** # define LV_COLOR_GET_G(c) LV_COLOR_GET_G8(c)
 163:..\..\..\lvgl\version_6.1.2\lvgl\src\lv_objx\../lv_core/../lv_misc/lv_color.h **** # define LV_COLOR_GET_B(c) LV_COLOR_GET_B8(c)
 164:..\..\..\lvgl\version_6.1.2\lvgl\src\lv_objx\../lv_core/../lv_misc/lv_color.h **** # define LV_COLOR_GET_A(c) LV_COLOR_GET_A8(c)
 165:..\..\..\lvgl\version_6.1.2\lvgl\src\lv_objx\../lv_core/../lv_misc/lv_color.h **** 
 166:..\..\..\lvgl\version_6.1.2\lvgl\src\lv_objx\../lv_core/../lv_misc/lv_color.h **** #elif LV_COLOR_DEPTH == 16
 167:..\..\..\lvgl\version_6.1.2\lvgl\src\lv_objx\../lv_core/../lv_misc/lv_color.h **** # define LV_COLOR_SET_R(c, v) LV_COLOR_SET_R16(c,v)
 168:..\..\..\lvgl\version_6.1.2\lvgl\src\lv_objx\../lv_core/../lv_misc/lv_color.h **** # if LV_COLOR_16_SWAP == 0
 169:..\..\..\lvgl\version_6.1.2\lvgl\src\lv_objx\../lv_core/../lv_misc/lv_color.h **** #   define LV_COLOR_SET_G(c, v) LV_COLOR_SET_G16(c,v)
 170:..\..\..\lvgl\version_6.1.2\lvgl\src\lv_objx\../lv_core/../lv_misc/lv_color.h **** # else
 171:..\..\..\lvgl\version_6.1.2\lvgl\src\lv_objx\../lv_core/../lv_misc/lv_color.h **** #   define LV_COLOR_SET_G(c, v) LV_COLOR_SET_G16_SWAP(c,v)
 172:..\..\..\lvgl\version_6.1.2\lvgl\src\lv_objx\../lv_core/../lv_misc/lv_color.h **** # endif
 173:..\..\..\lvgl\version_6.1.2\lvgl\src\lv_objx\../lv_core/../lv_misc/lv_color.h **** # define LV_COLOR_SET_B(c, v) LV_COLOR_SET_B16(c,v)
 174:..\..\..\lvgl\version_6.1.2\lvgl\src\lv_objx\../lv_core/../lv_misc/lv_color.h **** # define LV_COLOR_SET_A(c, v) LV_COLOR_SET_A16(c,v)
 175:..\..\..\lvgl\version_6.1.2\lvgl\src\lv_objx\../lv_core/../lv_misc/lv_color.h **** 
 176:..\..\..\lvgl\version_6.1.2\lvgl\src\lv_objx\../lv_core/../lv_misc/lv_color.h **** # define LV_COLOR_GET_R(c) LV_COLOR_GET_R16(c)
 177:..\..\..\lvgl\version_6.1.2\lvgl\src\lv_objx\../lv_core/../lv_misc/lv_color.h **** # if LV_COLOR_16_SWAP == 0
 178:..\..\..\lvgl\version_6.1.2\lvgl\src\lv_objx\../lv_core/../lv_misc/lv_color.h **** #   define LV_COLOR_GET_G(c) LV_COLOR_GET_G16(c)
 179:..\..\..\lvgl\version_6.1.2\lvgl\src\lv_objx\../lv_core/../lv_misc/lv_color.h **** # else
 180:..\..\..\lvgl\version_6.1.2\lvgl\src\lv_objx\../lv_core/../lv_misc/lv_color.h **** #   define LV_COLOR_GET_G(c) LV_COLOR_GET_G16_SWAP(c)
 181:..\..\..\lvgl\version_6.1.2\lvgl\src\lv_objx\../lv_core/../lv_misc/lv_color.h **** # endif
 182:..\..\..\lvgl\version_6.1.2\lvgl\src\lv_objx\../lv_core/../lv_misc/lv_color.h **** # define LV_COLOR_GET_B(c)   LV_COLOR_GET_B16(c)
 183:..\..\..\lvgl\version_6.1.2\lvgl\src\lv_objx\../lv_core/../lv_misc/lv_color.h **** # define LV_COLOR_GET_A(c)   LV_COLOR_GET_A16(c)
 184:..\..\..\lvgl\version_6.1.2\lvgl\src\lv_objx\../lv_core/../lv_misc/lv_color.h **** 
 185:..\..\..\lvgl\version_6.1.2\lvgl\src\lv_objx\../lv_core/../lv_misc/lv_color.h **** #elif LV_COLOR_DEPTH == 32
 186:..\..\..\lvgl\version_6.1.2\lvgl\src\lv_objx\../lv_core/../lv_misc/lv_color.h **** # define LV_COLOR_SET_R(c, v) LV_COLOR_SET_R32(c,v)
 187:..\..\..\lvgl\version_6.1.2\lvgl\src\lv_objx\../lv_core/../lv_misc/lv_color.h **** # define LV_COLOR_SET_G(c, v) LV_COLOR_SET_G32(c,v)
 188:..\..\..\lvgl\version_6.1.2\lvgl\src\lv_objx\../lv_core/../lv_misc/lv_color.h **** # define LV_COLOR_SET_B(c, v) LV_COLOR_SET_B32(c,v)
 189:..\..\..\lvgl\version_6.1.2\lvgl\src\lv_objx\../lv_core/../lv_misc/lv_color.h **** # define LV_COLOR_SET_A(c, v) LV_COLOR_SET_A32(c,v)
 190:..\..\..\lvgl\version_6.1.2\lvgl\src\lv_objx\../lv_core/../lv_misc/lv_color.h **** 
 191:..\..\..\lvgl\version_6.1.2\lvgl\src\lv_objx\../lv_core/../lv_misc/lv_color.h **** # define LV_COLOR_GET_R(c) LV_COLOR_GET_R32(c)
 192:..\..\..\lvgl\version_6.1.2\lvgl\src\lv_objx\../lv_core/../lv_misc/lv_color.h **** # define LV_COLOR_GET_G(c) LV_COLOR_GET_G32(c)
 193:..\..\..\lvgl\version_6.1.2\lvgl\src\lv_objx\../lv_core/../lv_misc/lv_color.h **** # define LV_COLOR_GET_B(c) LV_COLOR_GET_B32(c)
 194:..\..\..\lvgl\version_6.1.2\lvgl\src\lv_objx\../lv_core/../lv_misc/lv_color.h **** # define LV_COLOR_GET_A(c) LV_COLOR_GET_A32(c)
 195:..\..\..\lvgl\version_6.1.2\lvgl\src\lv_objx\../lv_core/../lv_misc/lv_color.h **** #endif
 196:..\..\..\lvgl\version_6.1.2\lvgl\src\lv_objx\../lv_core/../lv_misc/lv_color.h **** 
 197:..\..\..\lvgl\version_6.1.2\lvgl\src\lv_objx\../lv_core/../lv_misc/lv_color.h **** /**********************
 198:..\..\..\lvgl\version_6.1.2\lvgl\src\lv_objx\../lv_core/../lv_misc/lv_color.h ****  *      TYPEDEFS
 199:..\..\..\lvgl\version_6.1.2\lvgl\src\lv_objx\../lv_core/../lv_misc/lv_color.h ****  **********************/
 200:..\..\..\lvgl\version_6.1.2\lvgl\src\lv_objx\../lv_core/../lv_misc/lv_color.h **** 
 201:..\..\..\lvgl\version_6.1.2\lvgl\src\lv_objx\../lv_core/../lv_misc/lv_color.h **** typedef union
ARM GAS  C:\Users\tmj32\AppData\Local\Temp\ccepMVRX.s 			page 5


 202:..\..\..\lvgl\version_6.1.2\lvgl\src\lv_objx\../lv_core/../lv_misc/lv_color.h **** {
 203:..\..\..\lvgl\version_6.1.2\lvgl\src\lv_objx\../lv_core/../lv_misc/lv_color.h ****     struct
 204:..\..\..\lvgl\version_6.1.2\lvgl\src\lv_objx\../lv_core/../lv_misc/lv_color.h ****     {
 205:..\..\..\lvgl\version_6.1.2\lvgl\src\lv_objx\../lv_core/../lv_misc/lv_color.h ****         uint8_t blue : 1;
 206:..\..\..\lvgl\version_6.1.2\lvgl\src\lv_objx\../lv_core/../lv_misc/lv_color.h ****         uint8_t green : 1;
 207:..\..\..\lvgl\version_6.1.2\lvgl\src\lv_objx\../lv_core/../lv_misc/lv_color.h ****         uint8_t red : 1;
 208:..\..\..\lvgl\version_6.1.2\lvgl\src\lv_objx\../lv_core/../lv_misc/lv_color.h ****     } ch;
 209:..\..\..\lvgl\version_6.1.2\lvgl\src\lv_objx\../lv_core/../lv_misc/lv_color.h ****     uint8_t full;
 210:..\..\..\lvgl\version_6.1.2\lvgl\src\lv_objx\../lv_core/../lv_misc/lv_color.h **** } lv_color1_t;
 211:..\..\..\lvgl\version_6.1.2\lvgl\src\lv_objx\../lv_core/../lv_misc/lv_color.h **** 
 212:..\..\..\lvgl\version_6.1.2\lvgl\src\lv_objx\../lv_core/../lv_misc/lv_color.h **** typedef union
 213:..\..\..\lvgl\version_6.1.2\lvgl\src\lv_objx\../lv_core/../lv_misc/lv_color.h **** {
 214:..\..\..\lvgl\version_6.1.2\lvgl\src\lv_objx\../lv_core/../lv_misc/lv_color.h ****     struct
 215:..\..\..\lvgl\version_6.1.2\lvgl\src\lv_objx\../lv_core/../lv_misc/lv_color.h ****     {
 216:..\..\..\lvgl\version_6.1.2\lvgl\src\lv_objx\../lv_core/../lv_misc/lv_color.h ****         uint8_t blue : 2;
 217:..\..\..\lvgl\version_6.1.2\lvgl\src\lv_objx\../lv_core/../lv_misc/lv_color.h ****         uint8_t green : 3;
 218:..\..\..\lvgl\version_6.1.2\lvgl\src\lv_objx\../lv_core/../lv_misc/lv_color.h ****         uint8_t red : 3;
 219:..\..\..\lvgl\version_6.1.2\lvgl\src\lv_objx\../lv_core/../lv_misc/lv_color.h ****     } ch;
 220:..\..\..\lvgl\version_6.1.2\lvgl\src\lv_objx\../lv_core/../lv_misc/lv_color.h ****     uint8_t full;
 221:..\..\..\lvgl\version_6.1.2\lvgl\src\lv_objx\../lv_core/../lv_misc/lv_color.h **** } lv_color8_t;
 222:..\..\..\lvgl\version_6.1.2\lvgl\src\lv_objx\../lv_core/../lv_misc/lv_color.h **** 
 223:..\..\..\lvgl\version_6.1.2\lvgl\src\lv_objx\../lv_core/../lv_misc/lv_color.h **** typedef union
 224:..\..\..\lvgl\version_6.1.2\lvgl\src\lv_objx\../lv_core/../lv_misc/lv_color.h **** {
 225:..\..\..\lvgl\version_6.1.2\lvgl\src\lv_objx\../lv_core/../lv_misc/lv_color.h ****     struct
 226:..\..\..\lvgl\version_6.1.2\lvgl\src\lv_objx\../lv_core/../lv_misc/lv_color.h ****     {
 227:..\..\..\lvgl\version_6.1.2\lvgl\src\lv_objx\../lv_core/../lv_misc/lv_color.h **** #if LV_COLOR_16_SWAP == 0
 228:..\..\..\lvgl\version_6.1.2\lvgl\src\lv_objx\../lv_core/../lv_misc/lv_color.h ****         uint16_t blue : 5;
 229:..\..\..\lvgl\version_6.1.2\lvgl\src\lv_objx\../lv_core/../lv_misc/lv_color.h ****         uint16_t green : 6;
 230:..\..\..\lvgl\version_6.1.2\lvgl\src\lv_objx\../lv_core/../lv_misc/lv_color.h ****         uint16_t red : 5;
 231:..\..\..\lvgl\version_6.1.2\lvgl\src\lv_objx\../lv_core/../lv_misc/lv_color.h **** #else
 232:..\..\..\lvgl\version_6.1.2\lvgl\src\lv_objx\../lv_core/../lv_misc/lv_color.h ****         uint16_t green_h : 3;
 233:..\..\..\lvgl\version_6.1.2\lvgl\src\lv_objx\../lv_core/../lv_misc/lv_color.h ****         uint16_t red : 5;
 234:..\..\..\lvgl\version_6.1.2\lvgl\src\lv_objx\../lv_core/../lv_misc/lv_color.h ****         uint16_t blue : 5;
 235:..\..\..\lvgl\version_6.1.2\lvgl\src\lv_objx\../lv_core/../lv_misc/lv_color.h ****         uint16_t green_l : 3;
 236:..\..\..\lvgl\version_6.1.2\lvgl\src\lv_objx\../lv_core/../lv_misc/lv_color.h **** #endif
 237:..\..\..\lvgl\version_6.1.2\lvgl\src\lv_objx\../lv_core/../lv_misc/lv_color.h ****     } ch;
 238:..\..\..\lvgl\version_6.1.2\lvgl\src\lv_objx\../lv_core/../lv_misc/lv_color.h ****     uint16_t full;
 239:..\..\..\lvgl\version_6.1.2\lvgl\src\lv_objx\../lv_core/../lv_misc/lv_color.h **** } lv_color16_t;
 240:..\..\..\lvgl\version_6.1.2\lvgl\src\lv_objx\../lv_core/../lv_misc/lv_color.h **** 
 241:..\..\..\lvgl\version_6.1.2\lvgl\src\lv_objx\../lv_core/../lv_misc/lv_color.h **** typedef union
 242:..\..\..\lvgl\version_6.1.2\lvgl\src\lv_objx\../lv_core/../lv_misc/lv_color.h **** {
 243:..\..\..\lvgl\version_6.1.2\lvgl\src\lv_objx\../lv_core/../lv_misc/lv_color.h ****     struct
 244:..\..\..\lvgl\version_6.1.2\lvgl\src\lv_objx\../lv_core/../lv_misc/lv_color.h ****     {
 245:..\..\..\lvgl\version_6.1.2\lvgl\src\lv_objx\../lv_core/../lv_misc/lv_color.h ****         uint8_t blue;
 246:..\..\..\lvgl\version_6.1.2\lvgl\src\lv_objx\../lv_core/../lv_misc/lv_color.h ****         uint8_t green;
 247:..\..\..\lvgl\version_6.1.2\lvgl\src\lv_objx\../lv_core/../lv_misc/lv_color.h ****         uint8_t red;
 248:..\..\..\lvgl\version_6.1.2\lvgl\src\lv_objx\../lv_core/../lv_misc/lv_color.h ****         uint8_t alpha;
 249:..\..\..\lvgl\version_6.1.2\lvgl\src\lv_objx\../lv_core/../lv_misc/lv_color.h ****     } ch;
 250:..\..\..\lvgl\version_6.1.2\lvgl\src\lv_objx\../lv_core/../lv_misc/lv_color.h ****     uint32_t full;
 251:..\..\..\lvgl\version_6.1.2\lvgl\src\lv_objx\../lv_core/../lv_misc/lv_color.h **** } lv_color32_t;
 252:..\..\..\lvgl\version_6.1.2\lvgl\src\lv_objx\../lv_core/../lv_misc/lv_color.h **** 
 253:..\..\..\lvgl\version_6.1.2\lvgl\src\lv_objx\../lv_core/../lv_misc/lv_color.h **** #if LV_COLOR_DEPTH == 1
 254:..\..\..\lvgl\version_6.1.2\lvgl\src\lv_objx\../lv_core/../lv_misc/lv_color.h **** typedef uint8_t lv_color_int_t;
 255:..\..\..\lvgl\version_6.1.2\lvgl\src\lv_objx\../lv_core/../lv_misc/lv_color.h **** typedef lv_color1_t lv_color_t;
 256:..\..\..\lvgl\version_6.1.2\lvgl\src\lv_objx\../lv_core/../lv_misc/lv_color.h **** #elif LV_COLOR_DEPTH == 8
 257:..\..\..\lvgl\version_6.1.2\lvgl\src\lv_objx\../lv_core/../lv_misc/lv_color.h **** typedef uint8_t lv_color_int_t;
 258:..\..\..\lvgl\version_6.1.2\lvgl\src\lv_objx\../lv_core/../lv_misc/lv_color.h **** typedef lv_color8_t lv_color_t;
ARM GAS  C:\Users\tmj32\AppData\Local\Temp\ccepMVRX.s 			page 6


 259:..\..\..\lvgl\version_6.1.2\lvgl\src\lv_objx\../lv_core/../lv_misc/lv_color.h **** #elif LV_COLOR_DEPTH == 16
 260:..\..\..\lvgl\version_6.1.2\lvgl\src\lv_objx\../lv_core/../lv_misc/lv_color.h **** typedef uint16_t lv_color_int_t;
 261:..\..\..\lvgl\version_6.1.2\lvgl\src\lv_objx\../lv_core/../lv_misc/lv_color.h **** typedef lv_color16_t lv_color_t;
 262:..\..\..\lvgl\version_6.1.2\lvgl\src\lv_objx\../lv_core/../lv_misc/lv_color.h **** #elif LV_COLOR_DEPTH == 32
 263:..\..\..\lvgl\version_6.1.2\lvgl\src\lv_objx\../lv_core/../lv_misc/lv_color.h **** typedef uint32_t lv_color_int_t;
 264:..\..\..\lvgl\version_6.1.2\lvgl\src\lv_objx\../lv_core/../lv_misc/lv_color.h **** typedef lv_color32_t lv_color_t;
 265:..\..\..\lvgl\version_6.1.2\lvgl\src\lv_objx\../lv_core/../lv_misc/lv_color.h **** #else
 266:..\..\..\lvgl\version_6.1.2\lvgl\src\lv_objx\../lv_core/../lv_misc/lv_color.h **** #error "Invalid LV_COLOR_DEPTH in lv_conf.h! Set it to 1, 8, 16 or 32!"
 267:..\..\..\lvgl\version_6.1.2\lvgl\src\lv_objx\../lv_core/../lv_misc/lv_color.h **** #endif
 268:..\..\..\lvgl\version_6.1.2\lvgl\src\lv_objx\../lv_core/../lv_misc/lv_color.h **** 
 269:..\..\..\lvgl\version_6.1.2\lvgl\src\lv_objx\../lv_core/../lv_misc/lv_color.h **** typedef uint8_t lv_opa_t;
 270:..\..\..\lvgl\version_6.1.2\lvgl\src\lv_objx\../lv_core/../lv_misc/lv_color.h **** 
 271:..\..\..\lvgl\version_6.1.2\lvgl\src\lv_objx\../lv_core/../lv_misc/lv_color.h **** typedef struct
 272:..\..\..\lvgl\version_6.1.2\lvgl\src\lv_objx\../lv_core/../lv_misc/lv_color.h **** {
 273:..\..\..\lvgl\version_6.1.2\lvgl\src\lv_objx\../lv_core/../lv_misc/lv_color.h ****     uint16_t h;
 274:..\..\..\lvgl\version_6.1.2\lvgl\src\lv_objx\../lv_core/../lv_misc/lv_color.h ****     uint8_t s;
 275:..\..\..\lvgl\version_6.1.2\lvgl\src\lv_objx\../lv_core/../lv_misc/lv_color.h ****     uint8_t v;
 276:..\..\..\lvgl\version_6.1.2\lvgl\src\lv_objx\../lv_core/../lv_misc/lv_color.h **** } lv_color_hsv_t;
 277:..\..\..\lvgl\version_6.1.2\lvgl\src\lv_objx\../lv_core/../lv_misc/lv_color.h **** 
 278:..\..\..\lvgl\version_6.1.2\lvgl\src\lv_objx\../lv_core/../lv_misc/lv_color.h **** /**********************
 279:..\..\..\lvgl\version_6.1.2\lvgl\src\lv_objx\../lv_core/../lv_misc/lv_color.h ****  * GLOBAL PROTOTYPES
 280:..\..\..\lvgl\version_6.1.2\lvgl\src\lv_objx\../lv_core/../lv_misc/lv_color.h ****  **********************/
 281:..\..\..\lvgl\version_6.1.2\lvgl\src\lv_objx\../lv_core/../lv_misc/lv_color.h **** 
 282:..\..\..\lvgl\version_6.1.2\lvgl\src\lv_objx\../lv_core/../lv_misc/lv_color.h **** /*In color conversations:
 283:..\..\..\lvgl\version_6.1.2\lvgl\src\lv_objx\../lv_core/../lv_misc/lv_color.h ****  * - When converting to bigger color type the LSB weight of 1 LSB is calculated
 284:..\..\..\lvgl\version_6.1.2\lvgl\src\lv_objx\../lv_core/../lv_misc/lv_color.h ****  *   E.g. 16 bit Red has 5 bits
 285:..\..\..\lvgl\version_6.1.2\lvgl\src\lv_objx\../lv_core/../lv_misc/lv_color.h ****  *         8 bit Red has 2 bits
 286:..\..\..\lvgl\version_6.1.2\lvgl\src\lv_objx\../lv_core/../lv_misc/lv_color.h ****  *        ----------------------
 287:..\..\..\lvgl\version_6.1.2\lvgl\src\lv_objx\../lv_core/../lv_misc/lv_color.h ****  *        8 bit red LSB = (2^5 - 1) / (2^2 - 1) = 31 / 3 = 10
 288:..\..\..\lvgl\version_6.1.2\lvgl\src\lv_objx\../lv_core/../lv_misc/lv_color.h ****  *
 289:..\..\..\lvgl\version_6.1.2\lvgl\src\lv_objx\../lv_core/../lv_misc/lv_color.h ****  * - When calculating to smaller color type simply shift out the LSBs
 290:..\..\..\lvgl\version_6.1.2\lvgl\src\lv_objx\../lv_core/../lv_misc/lv_color.h ****  *   E.g.  8 bit Red has 2 bits
 291:..\..\..\lvgl\version_6.1.2\lvgl\src\lv_objx\../lv_core/../lv_misc/lv_color.h ****  *        16 bit Red has 5 bits
 292:..\..\..\lvgl\version_6.1.2\lvgl\src\lv_objx\../lv_core/../lv_misc/lv_color.h ****  *        ----------------------
 293:..\..\..\lvgl\version_6.1.2\lvgl\src\lv_objx\../lv_core/../lv_misc/lv_color.h ****  *         Shift right with 5 - 3 = 2
 294:..\..\..\lvgl\version_6.1.2\lvgl\src\lv_objx\../lv_core/../lv_misc/lv_color.h ****  */
 295:..\..\..\lvgl\version_6.1.2\lvgl\src\lv_objx\../lv_core/../lv_misc/lv_color.h **** 
 296:..\..\..\lvgl\version_6.1.2\lvgl\src\lv_objx\../lv_core/../lv_misc/lv_color.h **** static inline uint8_t lv_color_to1(lv_color_t color)
 297:..\..\..\lvgl\version_6.1.2\lvgl\src\lv_objx\../lv_core/../lv_misc/lv_color.h **** {
 298:..\..\..\lvgl\version_6.1.2\lvgl\src\lv_objx\../lv_core/../lv_misc/lv_color.h **** #if LV_COLOR_DEPTH == 1
 299:..\..\..\lvgl\version_6.1.2\lvgl\src\lv_objx\../lv_core/../lv_misc/lv_color.h ****     return color.full;
 300:..\..\..\lvgl\version_6.1.2\lvgl\src\lv_objx\../lv_core/../lv_misc/lv_color.h **** #elif LV_COLOR_DEPTH == 8
 301:..\..\..\lvgl\version_6.1.2\lvgl\src\lv_objx\../lv_core/../lv_misc/lv_color.h ****     if((LV_COLOR_GET_R(color) & 0x4) || (LV_COLOR_GET_G(color) & 0x4) || (LV_COLOR_GET_B(color) & 0
 302:..\..\..\lvgl\version_6.1.2\lvgl\src\lv_objx\../lv_core/../lv_misc/lv_color.h ****         return 1;
 303:..\..\..\lvgl\version_6.1.2\lvgl\src\lv_objx\../lv_core/../lv_misc/lv_color.h ****     } else {
 304:..\..\..\lvgl\version_6.1.2\lvgl\src\lv_objx\../lv_core/../lv_misc/lv_color.h ****         return 0;
 305:..\..\..\lvgl\version_6.1.2\lvgl\src\lv_objx\../lv_core/../lv_misc/lv_color.h ****     }
 306:..\..\..\lvgl\version_6.1.2\lvgl\src\lv_objx\../lv_core/../lv_misc/lv_color.h **** #elif LV_COLOR_DEPTH == 16
 307:..\..\..\lvgl\version_6.1.2\lvgl\src\lv_objx\../lv_core/../lv_misc/lv_color.h ****     if((LV_COLOR_GET_R(color) & 0x10) || (LV_COLOR_GET_G(color) & 0x20) || (LV_COLOR_GET_B(color) &
 308:..\..\..\lvgl\version_6.1.2\lvgl\src\lv_objx\../lv_core/../lv_misc/lv_color.h ****         return 1;
 309:..\..\..\lvgl\version_6.1.2\lvgl\src\lv_objx\../lv_core/../lv_misc/lv_color.h ****     } else {
 310:..\..\..\lvgl\version_6.1.2\lvgl\src\lv_objx\../lv_core/../lv_misc/lv_color.h ****         return 0;
 311:..\..\..\lvgl\version_6.1.2\lvgl\src\lv_objx\../lv_core/../lv_misc/lv_color.h ****     }
 312:..\..\..\lvgl\version_6.1.2\lvgl\src\lv_objx\../lv_core/../lv_misc/lv_color.h **** #elif LV_COLOR_DEPTH == 32
 313:..\..\..\lvgl\version_6.1.2\lvgl\src\lv_objx\../lv_core/../lv_misc/lv_color.h ****     if((LV_COLOR_GET_R(color) & 0x80) || (LV_COLOR_GET_G(color) & 0x80) || (LV_COLOR_GET_B(color) &
 314:..\..\..\lvgl\version_6.1.2\lvgl\src\lv_objx\../lv_core/../lv_misc/lv_color.h ****         return 1;
 315:..\..\..\lvgl\version_6.1.2\lvgl\src\lv_objx\../lv_core/../lv_misc/lv_color.h ****     } else {
ARM GAS  C:\Users\tmj32\AppData\Local\Temp\ccepMVRX.s 			page 7


 316:..\..\..\lvgl\version_6.1.2\lvgl\src\lv_objx\../lv_core/../lv_misc/lv_color.h ****         return 0;
 317:..\..\..\lvgl\version_6.1.2\lvgl\src\lv_objx\../lv_core/../lv_misc/lv_color.h ****     }
 318:..\..\..\lvgl\version_6.1.2\lvgl\src\lv_objx\../lv_core/../lv_misc/lv_color.h **** #endif
 319:..\..\..\lvgl\version_6.1.2\lvgl\src\lv_objx\../lv_core/../lv_misc/lv_color.h **** }
 320:..\..\..\lvgl\version_6.1.2\lvgl\src\lv_objx\../lv_core/../lv_misc/lv_color.h **** 
 321:..\..\..\lvgl\version_6.1.2\lvgl\src\lv_objx\../lv_core/../lv_misc/lv_color.h **** static inline uint8_t lv_color_to8(lv_color_t color)
 322:..\..\..\lvgl\version_6.1.2\lvgl\src\lv_objx\../lv_core/../lv_misc/lv_color.h **** {
 323:..\..\..\lvgl\version_6.1.2\lvgl\src\lv_objx\../lv_core/../lv_misc/lv_color.h **** #if LV_COLOR_DEPTH == 1
 324:..\..\..\lvgl\version_6.1.2\lvgl\src\lv_objx\../lv_core/../lv_misc/lv_color.h ****     if(color.full == 0)
 325:..\..\..\lvgl\version_6.1.2\lvgl\src\lv_objx\../lv_core/../lv_misc/lv_color.h ****         return 0;
 326:..\..\..\lvgl\version_6.1.2\lvgl\src\lv_objx\../lv_core/../lv_misc/lv_color.h ****     else
 327:..\..\..\lvgl\version_6.1.2\lvgl\src\lv_objx\../lv_core/../lv_misc/lv_color.h ****         return 0xFF;
 328:..\..\..\lvgl\version_6.1.2\lvgl\src\lv_objx\../lv_core/../lv_misc/lv_color.h **** #elif LV_COLOR_DEPTH == 8
 329:..\..\..\lvgl\version_6.1.2\lvgl\src\lv_objx\../lv_core/../lv_misc/lv_color.h ****     return color.full;
 330:..\..\..\lvgl\version_6.1.2\lvgl\src\lv_objx\../lv_core/../lv_misc/lv_color.h **** #elif LV_COLOR_DEPTH == 16
 331:..\..\..\lvgl\version_6.1.2\lvgl\src\lv_objx\../lv_core/../lv_misc/lv_color.h ****     lv_color8_t ret;
 332:..\..\..\lvgl\version_6.1.2\lvgl\src\lv_objx\../lv_core/../lv_misc/lv_color.h ****     LV_COLOR_SET_R8(ret, LV_COLOR_GET_R(color) >> 2);   /* 5 - 3  = 2*/
 333:..\..\..\lvgl\version_6.1.2\lvgl\src\lv_objx\../lv_core/../lv_misc/lv_color.h ****     LV_COLOR_SET_G8(ret, LV_COLOR_GET_G(color) >> 3); /* 6 - 3  = 3*/
 334:..\..\..\lvgl\version_6.1.2\lvgl\src\lv_objx\../lv_core/../lv_misc/lv_color.h ****     LV_COLOR_SET_B8(ret, LV_COLOR_GET_B(color) >> 3);  /* 5 - 2  = 3*/
 335:..\..\..\lvgl\version_6.1.2\lvgl\src\lv_objx\../lv_core/../lv_misc/lv_color.h ****     return ret.full;
 336:..\..\..\lvgl\version_6.1.2\lvgl\src\lv_objx\../lv_core/../lv_misc/lv_color.h **** #elif LV_COLOR_DEPTH == 32
 337:..\..\..\lvgl\version_6.1.2\lvgl\src\lv_objx\../lv_core/../lv_misc/lv_color.h ****     lv_color8_t ret;
 338:..\..\..\lvgl\version_6.1.2\lvgl\src\lv_objx\../lv_core/../lv_misc/lv_color.h ****     LV_COLOR_SET_R8(ret, LV_COLOR_GET_R(color) >> 5);   /* 8 - 3  = 5*/
 339:..\..\..\lvgl\version_6.1.2\lvgl\src\lv_objx\../lv_core/../lv_misc/lv_color.h ****     LV_COLOR_SET_G8(ret, LV_COLOR_GET_G(color) >> 5); /* 8 - 3  = 5*/
 340:..\..\..\lvgl\version_6.1.2\lvgl\src\lv_objx\../lv_core/../lv_misc/lv_color.h ****     LV_COLOR_SET_B8(ret, LV_COLOR_GET_B(color) >> 6);  /* 8 - 2  = 6*/
 341:..\..\..\lvgl\version_6.1.2\lvgl\src\lv_objx\../lv_core/../lv_misc/lv_color.h ****     return ret.full;
 342:..\..\..\lvgl\version_6.1.2\lvgl\src\lv_objx\../lv_core/../lv_misc/lv_color.h **** #endif
 343:..\..\..\lvgl\version_6.1.2\lvgl\src\lv_objx\../lv_core/../lv_misc/lv_color.h **** }
 344:..\..\..\lvgl\version_6.1.2\lvgl\src\lv_objx\../lv_core/../lv_misc/lv_color.h **** 
 345:..\..\..\lvgl\version_6.1.2\lvgl\src\lv_objx\../lv_core/../lv_misc/lv_color.h **** static inline uint16_t lv_color_to16(lv_color_t color)
 346:..\..\..\lvgl\version_6.1.2\lvgl\src\lv_objx\../lv_core/../lv_misc/lv_color.h **** {
 347:..\..\..\lvgl\version_6.1.2\lvgl\src\lv_objx\../lv_core/../lv_misc/lv_color.h **** #if LV_COLOR_DEPTH == 1
 348:..\..\..\lvgl\version_6.1.2\lvgl\src\lv_objx\../lv_core/../lv_misc/lv_color.h ****     if(color.full == 0)
 349:..\..\..\lvgl\version_6.1.2\lvgl\src\lv_objx\../lv_core/../lv_misc/lv_color.h ****         return 0;
 350:..\..\..\lvgl\version_6.1.2\lvgl\src\lv_objx\../lv_core/../lv_misc/lv_color.h ****     else
 351:..\..\..\lvgl\version_6.1.2\lvgl\src\lv_objx\../lv_core/../lv_misc/lv_color.h ****         return 0xFFFF;
 352:..\..\..\lvgl\version_6.1.2\lvgl\src\lv_objx\../lv_core/../lv_misc/lv_color.h **** #elif LV_COLOR_DEPTH == 8
 353:..\..\..\lvgl\version_6.1.2\lvgl\src\lv_objx\../lv_core/../lv_misc/lv_color.h ****     lv_color16_t ret;
 354:..\..\..\lvgl\version_6.1.2\lvgl\src\lv_objx\../lv_core/../lv_misc/lv_color.h ****     LV_COLOR_SET_R16(ret, LV_COLOR_GET_R(color) * 4);     /*(2^5 - 1)/(2^3 - 1) = 31/7 = 4*/
 355:..\..\..\lvgl\version_6.1.2\lvgl\src\lv_objx\../lv_core/../lv_misc/lv_color.h **** #if LV_COLOR_16_SWAP == 0
 356:..\..\..\lvgl\version_6.1.2\lvgl\src\lv_objx\../lv_core/../lv_misc/lv_color.h ****     LV_COLOR_SET_G16(ret,  LV_COLOR_GET_G(color) * 9); /*(2^6 - 1)/(2^3 - 1) = 63/7 = 9*/
 357:..\..\..\lvgl\version_6.1.2\lvgl\src\lv_objx\../lv_core/../lv_misc/lv_color.h **** #else
 358:..\..\..\lvgl\version_6.1.2\lvgl\src\lv_objx\../lv_core/../lv_misc/lv_color.h ****     LV_COLOR_SET_G16_SWAP(ret, (LV_COLOR_GET_G(color) * 9)); /*(2^6 - 1)/(2^3 - 1) = 63/7 = 9*/
 359:..\..\..\lvgl\version_6.1.2\lvgl\src\lv_objx\../lv_core/../lv_misc/lv_color.h **** #endif
 360:..\..\..\lvgl\version_6.1.2\lvgl\src\lv_objx\../lv_core/../lv_misc/lv_color.h ****     LV_COLOR_SET_B16(ret, LV_COLOR_GET_B(color) * 10);  /*(2^5 - 1)/(2^2 - 1) = 31/3 = 10*/
 361:..\..\..\lvgl\version_6.1.2\lvgl\src\lv_objx\../lv_core/../lv_misc/lv_color.h ****     return ret.full;
 362:..\..\..\lvgl\version_6.1.2\lvgl\src\lv_objx\../lv_core/../lv_misc/lv_color.h **** #elif LV_COLOR_DEPTH == 16
 363:..\..\..\lvgl\version_6.1.2\lvgl\src\lv_objx\../lv_core/../lv_misc/lv_color.h ****     return color.full;
 364:..\..\..\lvgl\version_6.1.2\lvgl\src\lv_objx\../lv_core/../lv_misc/lv_color.h **** #elif LV_COLOR_DEPTH == 32
 365:..\..\..\lvgl\version_6.1.2\lvgl\src\lv_objx\../lv_core/../lv_misc/lv_color.h ****     lv_color16_t ret;
 366:..\..\..\lvgl\version_6.1.2\lvgl\src\lv_objx\../lv_core/../lv_misc/lv_color.h ****     LV_COLOR_SET_R16(ret, LV_COLOR_GET_R(color) >> 3);   /* 8 - 5  = 3*/
 367:..\..\..\lvgl\version_6.1.2\lvgl\src\lv_objx\../lv_core/../lv_misc/lv_color.h **** 
 368:..\..\..\lvgl\version_6.1.2\lvgl\src\lv_objx\../lv_core/../lv_misc/lv_color.h **** #if LV_COLOR_16_SWAP == 0
 369:..\..\..\lvgl\version_6.1.2\lvgl\src\lv_objx\../lv_core/../lv_misc/lv_color.h ****     LV_COLOR_SET_G16(ret, LV_COLOR_GET_G(color) >> 2); /* 8 - 6  = 2*/
 370:..\..\..\lvgl\version_6.1.2\lvgl\src\lv_objx\../lv_core/../lv_misc/lv_color.h **** #else
 371:..\..\..\lvgl\version_6.1.2\lvgl\src\lv_objx\../lv_core/../lv_misc/lv_color.h ****     LV_COLOR_SET_G16_SWAP(ret, ret.ch.green_h = (LV_COLOR_GET_G(color) >> 2); /*(2^6 - 1)/(2^3 - 1)
 372:..\..\..\lvgl\version_6.1.2\lvgl\src\lv_objx\../lv_core/../lv_misc/lv_color.h **** #endif
ARM GAS  C:\Users\tmj32\AppData\Local\Temp\ccepMVRX.s 			page 8


 373:..\..\..\lvgl\version_6.1.2\lvgl\src\lv_objx\../lv_core/../lv_misc/lv_color.h ****     LV_COLOR_SET_B16(ret, LV_COLOR_GET_B(color) >> 3);  /* 8 - 5  = 3*/
 374:..\..\..\lvgl\version_6.1.2\lvgl\src\lv_objx\../lv_core/../lv_misc/lv_color.h ****     return ret.full;
 375:..\..\..\lvgl\version_6.1.2\lvgl\src\lv_objx\../lv_core/../lv_misc/lv_color.h **** #endif                         
 376:..\..\..\lvgl\version_6.1.2\lvgl\src\lv_objx\../lv_core/../lv_misc/lv_color.h **** }
 377:..\..\..\lvgl\version_6.1.2\lvgl\src\lv_objx\../lv_core/../lv_misc/lv_color.h **** 
 378:..\..\..\lvgl\version_6.1.2\lvgl\src\lv_objx\../lv_core/../lv_misc/lv_color.h **** static inline uint32_t lv_color_to32(lv_color_t color)
 379:..\..\..\lvgl\version_6.1.2\lvgl\src\lv_objx\../lv_core/../lv_misc/lv_color.h **** {
 380:..\..\..\lvgl\version_6.1.2\lvgl\src\lv_objx\../lv_core/../lv_misc/lv_color.h **** #if LV_COLOR_DEPTH == 1
 381:..\..\..\lvgl\version_6.1.2\lvgl\src\lv_objx\../lv_core/../lv_misc/lv_color.h ****     if(color.full == 0)
 382:..\..\..\lvgl\version_6.1.2\lvgl\src\lv_objx\../lv_core/../lv_misc/lv_color.h ****         return 0;
 383:..\..\..\lvgl\version_6.1.2\lvgl\src\lv_objx\../lv_core/../lv_misc/lv_color.h ****     else
 384:..\..\..\lvgl\version_6.1.2\lvgl\src\lv_objx\../lv_core/../lv_misc/lv_color.h ****         return 0xFFFFFFFF;
 385:..\..\..\lvgl\version_6.1.2\lvgl\src\lv_objx\../lv_core/../lv_misc/lv_color.h **** #elif LV_COLOR_DEPTH == 8
 386:..\..\..\lvgl\version_6.1.2\lvgl\src\lv_objx\../lv_core/../lv_misc/lv_color.h ****     lv_color32_t ret;
 387:..\..\..\lvgl\version_6.1.2\lvgl\src\lv_objx\../lv_core/../lv_misc/lv_color.h ****     LV_COLOR_SET_R32(ret, LV_COLOR_GET_R(color) * 36);     /*(2^8 - 1)/(2^3 - 1) = 255/7 = 36*/
 388:..\..\..\lvgl\version_6.1.2\lvgl\src\lv_objx\../lv_core/../lv_misc/lv_color.h ****     LV_COLOR_SET_G32(ret, LV_COLOR_GET_G(color) * 36); /*(2^8 - 1)/(2^3 - 1) = 255/7 = 36*/
 389:..\..\..\lvgl\version_6.1.2\lvgl\src\lv_objx\../lv_core/../lv_misc/lv_color.h ****     LV_COLOR_SET_B32(ret, LV_COLOR_GET_B(color) * 85);   /*(2^8 - 1)/(2^2 - 1) = 255/3 = 85*/
 390:..\..\..\lvgl\version_6.1.2\lvgl\src\lv_objx\../lv_core/../lv_misc/lv_color.h ****     LV_COLOR_SET_A32(ret, 0xFF);
 391:..\..\..\lvgl\version_6.1.2\lvgl\src\lv_objx\../lv_core/../lv_misc/lv_color.h ****     return ret.full;
 392:..\..\..\lvgl\version_6.1.2\lvgl\src\lv_objx\../lv_core/../lv_misc/lv_color.h **** #elif LV_COLOR_DEPTH == 16
 393:..\..\..\lvgl\version_6.1.2\lvgl\src\lv_objx\../lv_core/../lv_misc/lv_color.h ****     /**
 394:..\..\..\lvgl\version_6.1.2\lvgl\src\lv_objx\../lv_core/../lv_misc/lv_color.h ****      * The floating point math for conversion is:
 395:..\..\..\lvgl\version_6.1.2\lvgl\src\lv_objx\../lv_core/../lv_misc/lv_color.h ****      *  valueto = valuefrom * ( (2^bitsto - 1) / (float)(2^bitsfrom - 1) )
 396:..\..\..\lvgl\version_6.1.2\lvgl\src\lv_objx\../lv_core/../lv_misc/lv_color.h ****      * The faster integer math for conversion is:
 397:..\..\..\lvgl\version_6.1.2\lvgl\src\lv_objx\../lv_core/../lv_misc/lv_color.h ****      *  valueto = ( valuefrom * multiplier + adder ) >> divisor
 398:..\..\..\lvgl\version_6.1.2\lvgl\src\lv_objx\../lv_core/../lv_misc/lv_color.h ****      *   multiplier = FLOOR( ( (2^bitsto - 1) << divisor ) / (float)(2^bitsfrom - 1) )
 399:..\..\..\lvgl\version_6.1.2\lvgl\src\lv_objx\../lv_core/../lv_misc/lv_color.h ****      * 
 400:..\..\..\lvgl\version_6.1.2\lvgl\src\lv_objx\../lv_core/../lv_misc/lv_color.h ****      * Find the first divisor where ( adder >> divisor ) <= 0
 401:..\..\..\lvgl\version_6.1.2\lvgl\src\lv_objx\../lv_core/../lv_misc/lv_color.h ****      * 
 402:..\..\..\lvgl\version_6.1.2\lvgl\src\lv_objx\../lv_core/../lv_misc/lv_color.h ****      * 5-bit to 8-bit: ( 31 * multiplier + adder ) >> divisor = 255
 403:..\..\..\lvgl\version_6.1.2\lvgl\src\lv_objx\../lv_core/../lv_misc/lv_color.h ****      * divisor  multiplier  adder  min (0)  max (31)
 404:..\..\..\lvgl\version_6.1.2\lvgl\src\lv_objx\../lv_core/../lv_misc/lv_color.h ****      *       0           8      7        7       255
 405:..\..\..\lvgl\version_6.1.2\lvgl\src\lv_objx\../lv_core/../lv_misc/lv_color.h ****      *       1          16     14        7       255
 406:..\..\..\lvgl\version_6.1.2\lvgl\src\lv_objx\../lv_core/../lv_misc/lv_color.h ****      *       2          32     28        7       255
 407:..\..\..\lvgl\version_6.1.2\lvgl\src\lv_objx\../lv_core/../lv_misc/lv_color.h ****      *       3          65     25        3       255
 408:..\..\..\lvgl\version_6.1.2\lvgl\src\lv_objx\../lv_core/../lv_misc/lv_color.h ****      *       4         131     19        1       255
 409:..\..\..\lvgl\version_6.1.2\lvgl\src\lv_objx\../lv_core/../lv_misc/lv_color.h ****      *       5         263      7        0       255
 410:..\..\..\lvgl\version_6.1.2\lvgl\src\lv_objx\../lv_core/../lv_misc/lv_color.h ****      * 
 411:..\..\..\lvgl\version_6.1.2\lvgl\src\lv_objx\../lv_core/../lv_misc/lv_color.h ****      * 6-bit to 8-bit: 255 = ( 63 * multiplier + adder ) >> divisor
 412:..\..\..\lvgl\version_6.1.2\lvgl\src\lv_objx\../lv_core/../lv_misc/lv_color.h ****      * divisor  multiplier  adder  min (0)  max (63)
 413:..\..\..\lvgl\version_6.1.2\lvgl\src\lv_objx\../lv_core/../lv_misc/lv_color.h ****      *       0           4      3        3       255
 414:..\..\..\lvgl\version_6.1.2\lvgl\src\lv_objx\../lv_core/../lv_misc/lv_color.h ****      *       1           8      6        3       255
 415:..\..\..\lvgl\version_6.1.2\lvgl\src\lv_objx\../lv_core/../lv_misc/lv_color.h ****      *       2          16     12        3       255
 416:..\..\..\lvgl\version_6.1.2\lvgl\src\lv_objx\../lv_core/../lv_misc/lv_color.h ****      *       3          32     24        3       255
 417:..\..\..\lvgl\version_6.1.2\lvgl\src\lv_objx\../lv_core/../lv_misc/lv_color.h ****      *       4          64     48        3       255
 418:..\..\..\lvgl\version_6.1.2\lvgl\src\lv_objx\../lv_core/../lv_misc/lv_color.h ****      *       5         129     33        1       255
 419:..\..\..\lvgl\version_6.1.2\lvgl\src\lv_objx\../lv_core/../lv_misc/lv_color.h ****      *       6         259      3        0       255
 420:..\..\..\lvgl\version_6.1.2\lvgl\src\lv_objx\../lv_core/../lv_misc/lv_color.h ****      */
 421:..\..\..\lvgl\version_6.1.2\lvgl\src\lv_objx\../lv_core/../lv_misc/lv_color.h ****     lv_color32_t ret;
 422:..\..\..\lvgl\version_6.1.2\lvgl\src\lv_objx\../lv_core/../lv_misc/lv_color.h ****     LV_COLOR_SET_R32(ret, (LV_COLOR_GET_R(color) * 263 + 7 ) >> 5);
 423:..\..\..\lvgl\version_6.1.2\lvgl\src\lv_objx\../lv_core/../lv_misc/lv_color.h ****     LV_COLOR_SET_G32(ret, (LV_COLOR_GET_G(color) * 259 + 3 ) >> 6);
 424:..\..\..\lvgl\version_6.1.2\lvgl\src\lv_objx\../lv_core/../lv_misc/lv_color.h ****     LV_COLOR_SET_B32(ret, (LV_COLOR_GET_B(color) * 263 + 7 ) >> 5);
 425:..\..\..\lvgl\version_6.1.2\lvgl\src\lv_objx\../lv_core/../lv_misc/lv_color.h ****     LV_COLOR_SET_A32(ret, 0xFF);
 426:..\..\..\lvgl\version_6.1.2\lvgl\src\lv_objx\../lv_core/../lv_misc/lv_color.h ****     return ret.full;
 427:..\..\..\lvgl\version_6.1.2\lvgl\src\lv_objx\../lv_core/../lv_misc/lv_color.h **** #elif LV_COLOR_DEPTH == 32
 428:..\..\..\lvgl\version_6.1.2\lvgl\src\lv_objx\../lv_core/../lv_misc/lv_color.h ****     return color.full;
 429:..\..\..\lvgl\version_6.1.2\lvgl\src\lv_objx\../lv_core/../lv_misc/lv_color.h **** #endif
ARM GAS  C:\Users\tmj32\AppData\Local\Temp\ccepMVRX.s 			page 9


 430:..\..\..\lvgl\version_6.1.2\lvgl\src\lv_objx\../lv_core/../lv_misc/lv_color.h **** }
 431:..\..\..\lvgl\version_6.1.2\lvgl\src\lv_objx\../lv_core/../lv_misc/lv_color.h **** 
 432:..\..\..\lvgl\version_6.1.2\lvgl\src\lv_objx\../lv_core/../lv_misc/lv_color.h **** static inline lv_color_t lv_color_mix(lv_color_t c1, lv_color_t c2, uint8_t mix)
 433:..\..\..\lvgl\version_6.1.2\lvgl\src\lv_objx\../lv_core/../lv_misc/lv_color.h **** {
  28              		.loc 1 433 0
  29              		.cfi_startproc
  30              		@ args = 0, pretend = 0, frame = 24
  31              		@ frame_needed = 1, uses_anonymous_args = 0
  32              		@ link register save eliminated.
  33 0000 80B4     		push	{r7}
  34              		.cfi_def_cfa_offset 4
  35              		.cfi_offset 7, -4
  36 0002 87B0     		sub	sp, sp, #28
  37              		.cfi_def_cfa_offset 32
  38 0004 00AF     		add	r7, sp, #0
  39              		.cfi_def_cfa_register 7
  40 0006 F860     		str	r0, [r7, #12]
  41 0008 B960     		str	r1, [r7, #8]
  42 000a 1346     		mov	r3, r2
  43 000c FB71     		strb	r3, [r7, #7]
 434:..\..\..\lvgl\version_6.1.2\lvgl\src\lv_objx\../lv_core/../lv_misc/lv_color.h ****     lv_color_t ret;
 435:..\..\..\lvgl\version_6.1.2\lvgl\src\lv_objx\../lv_core/../lv_misc/lv_color.h **** #if LV_COLOR_DEPTH != 1
 436:..\..\..\lvgl\version_6.1.2\lvgl\src\lv_objx\../lv_core/../lv_misc/lv_color.h ****     /*LV_COLOR_DEPTH == 8, 16 or 32*/
 437:..\..\..\lvgl\version_6.1.2\lvgl\src\lv_objx\../lv_core/../lv_misc/lv_color.h ****     LV_COLOR_SET_R(ret, (uint16_t)((uint16_t) LV_COLOR_GET_R(c1) * mix + LV_COLOR_GET_R(c2) * (255 
  44              		.loc 1 437 0
  45 000e BB7B     		ldrb	r3, [r7, #14]	@ zero_extendqisi2
  46 0010 9AB2     		uxth	r2, r3
  47 0012 FB79     		ldrb	r3, [r7, #7]	@ zero_extendqisi2
  48 0014 9BB2     		uxth	r3, r3
  49 0016 12FB03F3 		smulbb	r3, r2, r3
  50 001a 9AB2     		uxth	r2, r3
  51 001c BB7A     		ldrb	r3, [r7, #10]	@ zero_extendqisi2
  52 001e 99B2     		uxth	r1, r3
  53 0020 FB79     		ldrb	r3, [r7, #7]	@ zero_extendqisi2
  54 0022 C3F1FF03 		rsb	r3, r3, #255
  55 0026 9BB2     		uxth	r3, r3
  56 0028 11FB03F3 		smulbb	r3, r1, r3
  57 002c 9BB2     		uxth	r3, r3
  58 002e 1344     		add	r3, r3, r2
  59 0030 9BB2     		uxth	r3, r3
  60 0032 1B0A     		lsrs	r3, r3, #8
  61 0034 9BB2     		uxth	r3, r3
  62 0036 DBB2     		uxtb	r3, r3
  63 0038 BB75     		strb	r3, [r7, #22]
 438:..\..\..\lvgl\version_6.1.2\lvgl\src\lv_objx\../lv_core/../lv_misc/lv_color.h ****     LV_COLOR_SET_G(ret, (uint16_t)((uint16_t) LV_COLOR_GET_G(c1) * mix + LV_COLOR_GET_G(c2) * (255 
  64              		.loc 1 438 0
  65 003a 7B7B     		ldrb	r3, [r7, #13]	@ zero_extendqisi2
  66 003c 9AB2     		uxth	r2, r3
  67 003e FB79     		ldrb	r3, [r7, #7]	@ zero_extendqisi2
  68 0040 9BB2     		uxth	r3, r3
  69 0042 12FB03F3 		smulbb	r3, r2, r3
  70 0046 9AB2     		uxth	r2, r3
  71 0048 7B7A     		ldrb	r3, [r7, #9]	@ zero_extendqisi2
  72 004a 99B2     		uxth	r1, r3
  73 004c FB79     		ldrb	r3, [r7, #7]	@ zero_extendqisi2
  74 004e C3F1FF03 		rsb	r3, r3, #255
  75 0052 9BB2     		uxth	r3, r3
ARM GAS  C:\Users\tmj32\AppData\Local\Temp\ccepMVRX.s 			page 10


  76 0054 11FB03F3 		smulbb	r3, r1, r3
  77 0058 9BB2     		uxth	r3, r3
  78 005a 1344     		add	r3, r3, r2
  79 005c 9BB2     		uxth	r3, r3
  80 005e 1B0A     		lsrs	r3, r3, #8
  81 0060 9BB2     		uxth	r3, r3
  82 0062 DBB2     		uxtb	r3, r3
  83 0064 7B75     		strb	r3, [r7, #21]
 439:..\..\..\lvgl\version_6.1.2\lvgl\src\lv_objx\../lv_core/../lv_misc/lv_color.h ****     LV_COLOR_SET_B(ret, (uint16_t)((uint16_t) LV_COLOR_GET_B(c1) * mix + LV_COLOR_GET_B(c2) * (255 
  84              		.loc 1 439 0
  85 0066 3B7B     		ldrb	r3, [r7, #12]	@ zero_extendqisi2
  86 0068 9AB2     		uxth	r2, r3
  87 006a FB79     		ldrb	r3, [r7, #7]	@ zero_extendqisi2
  88 006c 9BB2     		uxth	r3, r3
  89 006e 12FB03F3 		smulbb	r3, r2, r3
  90 0072 9AB2     		uxth	r2, r3
  91 0074 3B7A     		ldrb	r3, [r7, #8]	@ zero_extendqisi2
  92 0076 99B2     		uxth	r1, r3
  93 0078 FB79     		ldrb	r3, [r7, #7]	@ zero_extendqisi2
  94 007a C3F1FF03 		rsb	r3, r3, #255
  95 007e 9BB2     		uxth	r3, r3
  96 0080 11FB03F3 		smulbb	r3, r1, r3
  97 0084 9BB2     		uxth	r3, r3
  98 0086 1344     		add	r3, r3, r2
  99 0088 9BB2     		uxth	r3, r3
 100 008a 1B0A     		lsrs	r3, r3, #8
 101 008c 9BB2     		uxth	r3, r3
 102 008e DBB2     		uxtb	r3, r3
 103 0090 3B75     		strb	r3, [r7, #20]
 440:..\..\..\lvgl\version_6.1.2\lvgl\src\lv_objx\../lv_core/../lv_misc/lv_color.h ****     LV_COLOR_SET_A(ret, 0xFF);
 104              		.loc 1 440 0
 105 0092 FF23     		movs	r3, #255
 106 0094 FB75     		strb	r3, [r7, #23]
 441:..\..\..\lvgl\version_6.1.2\lvgl\src\lv_objx\../lv_core/../lv_misc/lv_color.h **** #else
 442:..\..\..\lvgl\version_6.1.2\lvgl\src\lv_objx\../lv_core/../lv_misc/lv_color.h ****     /*LV_COLOR_DEPTH == 1*/
 443:..\..\..\lvgl\version_6.1.2\lvgl\src\lv_objx\../lv_core/../lv_misc/lv_color.h ****     ret.full = mix > LV_OPA_50 ? c1.full : c2.full;
 444:..\..\..\lvgl\version_6.1.2\lvgl\src\lv_objx\../lv_core/../lv_misc/lv_color.h **** #endif
 445:..\..\..\lvgl\version_6.1.2\lvgl\src\lv_objx\../lv_core/../lv_misc/lv_color.h **** 
 446:..\..\..\lvgl\version_6.1.2\lvgl\src\lv_objx\../lv_core/../lv_misc/lv_color.h ****     return ret;
 107              		.loc 1 446 0
 108 0096 7B69     		ldr	r3, [r7, #20]
 447:..\..\..\lvgl\version_6.1.2\lvgl\src\lv_objx\../lv_core/../lv_misc/lv_color.h **** }
 109              		.loc 1 447 0
 110 0098 1846     		mov	r0, r3
 111 009a 1C37     		adds	r7, r7, #28
 112              		.cfi_def_cfa_offset 4
 113 009c BD46     		mov	sp, r7
 114              		.cfi_def_cfa_register 13
 115              		@ sp needed
 116 009e 5DF8047B 		ldr	r7, [sp], #4
 117              		.cfi_restore 7
 118              		.cfi_def_cfa_offset 0
 119 00a2 7047     		bx	lr
 120              		.cfi_endproc
 121              	.LFE5:
 122              		.size	lv_color_mix, .-lv_color_mix
 123              		.section	.text.lv_lmeter_set_style,"ax",%progbits
ARM GAS  C:\Users\tmj32\AppData\Local\Temp\ccepMVRX.s 			page 11


 124              		.align	2
 125              		.thumb
 126              		.thumb_func
 127              		.type	lv_lmeter_set_style, %function
 128              	lv_lmeter_set_style:
 129              	.LFB31:
 130              		.file 2 "..\\..\\..\\lvgl\\version_6.1.2\\lvgl\\src\\lv_objx\\lv_lmeter.h"
   1:..\..\..\lvgl\version_6.1.2\lvgl\src\lv_objx/lv_lmeter.h **** /**
   2:..\..\..\lvgl\version_6.1.2\lvgl\src\lv_objx/lv_lmeter.h ****  * @file lv_lmeter.h
   3:..\..\..\lvgl\version_6.1.2\lvgl\src\lv_objx/lv_lmeter.h ****  *
   4:..\..\..\lvgl\version_6.1.2\lvgl\src\lv_objx/lv_lmeter.h ****  */
   5:..\..\..\lvgl\version_6.1.2\lvgl\src\lv_objx/lv_lmeter.h **** 
   6:..\..\..\lvgl\version_6.1.2\lvgl\src\lv_objx/lv_lmeter.h **** #ifndef LV_LMETER_H
   7:..\..\..\lvgl\version_6.1.2\lvgl\src\lv_objx/lv_lmeter.h **** #define LV_LMETER_H
   8:..\..\..\lvgl\version_6.1.2\lvgl\src\lv_objx/lv_lmeter.h **** 
   9:..\..\..\lvgl\version_6.1.2\lvgl\src\lv_objx/lv_lmeter.h **** #ifdef __cplusplus
  10:..\..\..\lvgl\version_6.1.2\lvgl\src\lv_objx/lv_lmeter.h **** extern "C" {
  11:..\..\..\lvgl\version_6.1.2\lvgl\src\lv_objx/lv_lmeter.h **** #endif
  12:..\..\..\lvgl\version_6.1.2\lvgl\src\lv_objx/lv_lmeter.h **** 
  13:..\..\..\lvgl\version_6.1.2\lvgl\src\lv_objx/lv_lmeter.h **** /*********************
  14:..\..\..\lvgl\version_6.1.2\lvgl\src\lv_objx/lv_lmeter.h ****  *      INCLUDES
  15:..\..\..\lvgl\version_6.1.2\lvgl\src\lv_objx/lv_lmeter.h ****  *********************/
  16:..\..\..\lvgl\version_6.1.2\lvgl\src\lv_objx/lv_lmeter.h **** #ifdef LV_CONF_INCLUDE_SIMPLE
  17:..\..\..\lvgl\version_6.1.2\lvgl\src\lv_objx/lv_lmeter.h **** #include "lv_conf.h"
  18:..\..\..\lvgl\version_6.1.2\lvgl\src\lv_objx/lv_lmeter.h **** #else
  19:..\..\..\lvgl\version_6.1.2\lvgl\src\lv_objx/lv_lmeter.h **** #include "../../../lv_conf.h"
  20:..\..\..\lvgl\version_6.1.2\lvgl\src\lv_objx/lv_lmeter.h **** #endif
  21:..\..\..\lvgl\version_6.1.2\lvgl\src\lv_objx/lv_lmeter.h **** 
  22:..\..\..\lvgl\version_6.1.2\lvgl\src\lv_objx/lv_lmeter.h **** #if LV_USE_LMETER != 0
  23:..\..\..\lvgl\version_6.1.2\lvgl\src\lv_objx/lv_lmeter.h **** 
  24:..\..\..\lvgl\version_6.1.2\lvgl\src\lv_objx/lv_lmeter.h **** #include "../lv_core/lv_obj.h"
  25:..\..\..\lvgl\version_6.1.2\lvgl\src\lv_objx/lv_lmeter.h **** 
  26:..\..\..\lvgl\version_6.1.2\lvgl\src\lv_objx/lv_lmeter.h **** /*********************
  27:..\..\..\lvgl\version_6.1.2\lvgl\src\lv_objx/lv_lmeter.h ****  *      DEFINES
  28:..\..\..\lvgl\version_6.1.2\lvgl\src\lv_objx/lv_lmeter.h ****  *********************/
  29:..\..\..\lvgl\version_6.1.2\lvgl\src\lv_objx/lv_lmeter.h **** 
  30:..\..\..\lvgl\version_6.1.2\lvgl\src\lv_objx/lv_lmeter.h **** /**********************
  31:..\..\..\lvgl\version_6.1.2\lvgl\src\lv_objx/lv_lmeter.h ****  *      TYPEDEFS
  32:..\..\..\lvgl\version_6.1.2\lvgl\src\lv_objx/lv_lmeter.h ****  **********************/
  33:..\..\..\lvgl\version_6.1.2\lvgl\src\lv_objx/lv_lmeter.h **** /*Data of line meter*/
  34:..\..\..\lvgl\version_6.1.2\lvgl\src\lv_objx/lv_lmeter.h **** typedef struct
  35:..\..\..\lvgl\version_6.1.2\lvgl\src\lv_objx/lv_lmeter.h **** {
  36:..\..\..\lvgl\version_6.1.2\lvgl\src\lv_objx/lv_lmeter.h ****     /*No inherited ext.*/ /*Ext. of ancestor*/
  37:..\..\..\lvgl\version_6.1.2\lvgl\src\lv_objx/lv_lmeter.h ****     /*New data for this type */
  38:..\..\..\lvgl\version_6.1.2\lvgl\src\lv_objx/lv_lmeter.h ****     uint16_t scale_angle; /*Angle of the scale in deg. (0..360)*/
  39:..\..\..\lvgl\version_6.1.2\lvgl\src\lv_objx/lv_lmeter.h ****     uint16_t angle_ofs;
  40:..\..\..\lvgl\version_6.1.2\lvgl\src\lv_objx/lv_lmeter.h ****     uint16_t line_cnt;     /*Count of lines */
  41:..\..\..\lvgl\version_6.1.2\lvgl\src\lv_objx/lv_lmeter.h ****     int16_t cur_value;
  42:..\..\..\lvgl\version_6.1.2\lvgl\src\lv_objx/lv_lmeter.h ****     int16_t min_value;
  43:..\..\..\lvgl\version_6.1.2\lvgl\src\lv_objx/lv_lmeter.h ****     int16_t max_value;
  44:..\..\..\lvgl\version_6.1.2\lvgl\src\lv_objx/lv_lmeter.h **** } lv_lmeter_ext_t;
  45:..\..\..\lvgl\version_6.1.2\lvgl\src\lv_objx/lv_lmeter.h **** 
  46:..\..\..\lvgl\version_6.1.2\lvgl\src\lv_objx/lv_lmeter.h **** /*Styles*/
  47:..\..\..\lvgl\version_6.1.2\lvgl\src\lv_objx/lv_lmeter.h **** enum {
  48:..\..\..\lvgl\version_6.1.2\lvgl\src\lv_objx/lv_lmeter.h ****     LV_LMETER_STYLE_MAIN,
  49:..\..\..\lvgl\version_6.1.2\lvgl\src\lv_objx/lv_lmeter.h **** };
  50:..\..\..\lvgl\version_6.1.2\lvgl\src\lv_objx/lv_lmeter.h **** typedef uint8_t lv_lmeter_style_t;
ARM GAS  C:\Users\tmj32\AppData\Local\Temp\ccepMVRX.s 			page 12


  51:..\..\..\lvgl\version_6.1.2\lvgl\src\lv_objx/lv_lmeter.h **** 
  52:..\..\..\lvgl\version_6.1.2\lvgl\src\lv_objx/lv_lmeter.h **** /**********************
  53:..\..\..\lvgl\version_6.1.2\lvgl\src\lv_objx/lv_lmeter.h ****  * GLOBAL PROTOTYPES
  54:..\..\..\lvgl\version_6.1.2\lvgl\src\lv_objx/lv_lmeter.h ****  **********************/
  55:..\..\..\lvgl\version_6.1.2\lvgl\src\lv_objx/lv_lmeter.h **** 
  56:..\..\..\lvgl\version_6.1.2\lvgl\src\lv_objx/lv_lmeter.h **** /**
  57:..\..\..\lvgl\version_6.1.2\lvgl\src\lv_objx/lv_lmeter.h ****  * Create a line meter objects
  58:..\..\..\lvgl\version_6.1.2\lvgl\src\lv_objx/lv_lmeter.h ****  * @param par pointer to an object, it will be the parent of the new line meter
  59:..\..\..\lvgl\version_6.1.2\lvgl\src\lv_objx/lv_lmeter.h ****  * @param copy pointer to a line meter object, if not NULL then the new object will be copied from
  60:..\..\..\lvgl\version_6.1.2\lvgl\src\lv_objx/lv_lmeter.h ****  * it
  61:..\..\..\lvgl\version_6.1.2\lvgl\src\lv_objx/lv_lmeter.h ****  * @return pointer to the created line meter
  62:..\..\..\lvgl\version_6.1.2\lvgl\src\lv_objx/lv_lmeter.h ****  */
  63:..\..\..\lvgl\version_6.1.2\lvgl\src\lv_objx/lv_lmeter.h **** lv_obj_t * lv_lmeter_create(lv_obj_t * par, const lv_obj_t * copy);
  64:..\..\..\lvgl\version_6.1.2\lvgl\src\lv_objx/lv_lmeter.h **** 
  65:..\..\..\lvgl\version_6.1.2\lvgl\src\lv_objx/lv_lmeter.h **** /*=====================
  66:..\..\..\lvgl\version_6.1.2\lvgl\src\lv_objx/lv_lmeter.h ****  * Setter functions
  67:..\..\..\lvgl\version_6.1.2\lvgl\src\lv_objx/lv_lmeter.h ****  *====================*/
  68:..\..\..\lvgl\version_6.1.2\lvgl\src\lv_objx/lv_lmeter.h **** 
  69:..\..\..\lvgl\version_6.1.2\lvgl\src\lv_objx/lv_lmeter.h **** /**
  70:..\..\..\lvgl\version_6.1.2\lvgl\src\lv_objx/lv_lmeter.h ****  * Set a new value on the line meter
  71:..\..\..\lvgl\version_6.1.2\lvgl\src\lv_objx/lv_lmeter.h ****  * @param lmeter pointer to a line meter object
  72:..\..\..\lvgl\version_6.1.2\lvgl\src\lv_objx/lv_lmeter.h ****  * @param value new value
  73:..\..\..\lvgl\version_6.1.2\lvgl\src\lv_objx/lv_lmeter.h ****  */
  74:..\..\..\lvgl\version_6.1.2\lvgl\src\lv_objx/lv_lmeter.h **** void lv_lmeter_set_value(lv_obj_t * lmeter, int16_t value);
  75:..\..\..\lvgl\version_6.1.2\lvgl\src\lv_objx/lv_lmeter.h **** 
  76:..\..\..\lvgl\version_6.1.2\lvgl\src\lv_objx/lv_lmeter.h **** /**
  77:..\..\..\lvgl\version_6.1.2\lvgl\src\lv_objx/lv_lmeter.h ****  * Set minimum and the maximum values of a line meter
  78:..\..\..\lvgl\version_6.1.2\lvgl\src\lv_objx/lv_lmeter.h ****  * @param lmeter pointer to he line meter object
  79:..\..\..\lvgl\version_6.1.2\lvgl\src\lv_objx/lv_lmeter.h ****  * @param min minimum value
  80:..\..\..\lvgl\version_6.1.2\lvgl\src\lv_objx/lv_lmeter.h ****  * @param max maximum value
  81:..\..\..\lvgl\version_6.1.2\lvgl\src\lv_objx/lv_lmeter.h ****  */
  82:..\..\..\lvgl\version_6.1.2\lvgl\src\lv_objx/lv_lmeter.h **** void lv_lmeter_set_range(lv_obj_t * lmeter, int16_t min, int16_t max);
  83:..\..\..\lvgl\version_6.1.2\lvgl\src\lv_objx/lv_lmeter.h **** 
  84:..\..\..\lvgl\version_6.1.2\lvgl\src\lv_objx/lv_lmeter.h **** /**
  85:..\..\..\lvgl\version_6.1.2\lvgl\src\lv_objx/lv_lmeter.h ****  * Set the scale settings of a line meter
  86:..\..\..\lvgl\version_6.1.2\lvgl\src\lv_objx/lv_lmeter.h ****  * @param lmeter pointer to a line meter object
  87:..\..\..\lvgl\version_6.1.2\lvgl\src\lv_objx/lv_lmeter.h ****  * @param angle angle of the scale (0..360)
  88:..\..\..\lvgl\version_6.1.2\lvgl\src\lv_objx/lv_lmeter.h ****  * @param line_cnt number of lines
  89:..\..\..\lvgl\version_6.1.2\lvgl\src\lv_objx/lv_lmeter.h ****  */
  90:..\..\..\lvgl\version_6.1.2\lvgl\src\lv_objx/lv_lmeter.h **** void lv_lmeter_set_scale(lv_obj_t * lmeter, uint16_t angle, uint16_t line_cnt);
  91:..\..\..\lvgl\version_6.1.2\lvgl\src\lv_objx/lv_lmeter.h **** 
  92:..\..\..\lvgl\version_6.1.2\lvgl\src\lv_objx/lv_lmeter.h **** /**
  93:..\..\..\lvgl\version_6.1.2\lvgl\src\lv_objx/lv_lmeter.h ****  * Set the set an offset for the line meter's angles to rotate it.
  94:..\..\..\lvgl\version_6.1.2\lvgl\src\lv_objx/lv_lmeter.h ****  * @param lmeter pointer to a line meter object
  95:..\..\..\lvgl\version_6.1.2\lvgl\src\lv_objx/lv_lmeter.h ****  * @param angle angle offset (0..360), rotates clockwise
  96:..\..\..\lvgl\version_6.1.2\lvgl\src\lv_objx/lv_lmeter.h ****  */
  97:..\..\..\lvgl\version_6.1.2\lvgl\src\lv_objx/lv_lmeter.h **** void lv_lmeter_set_angle_offset(lv_obj_t * lmeter, uint16_t angle);
  98:..\..\..\lvgl\version_6.1.2\lvgl\src\lv_objx/lv_lmeter.h **** 
  99:..\..\..\lvgl\version_6.1.2\lvgl\src\lv_objx/lv_lmeter.h **** /**
 100:..\..\..\lvgl\version_6.1.2\lvgl\src\lv_objx/lv_lmeter.h ****  * Set the styles of a line meter
 101:..\..\..\lvgl\version_6.1.2\lvgl\src\lv_objx/lv_lmeter.h ****  * @param lmeter pointer to a line meter object
 102:..\..\..\lvgl\version_6.1.2\lvgl\src\lv_objx/lv_lmeter.h ****  * @param type which style should be set (can be only `LV_LMETER_STYLE_MAIN`)
 103:..\..\..\lvgl\version_6.1.2\lvgl\src\lv_objx/lv_lmeter.h ****  * @param style set the style of the line meter
 104:..\..\..\lvgl\version_6.1.2\lvgl\src\lv_objx/lv_lmeter.h ****  */
 105:..\..\..\lvgl\version_6.1.2\lvgl\src\lv_objx/lv_lmeter.h **** static inline void lv_lmeter_set_style(lv_obj_t * lmeter, lv_lmeter_style_t type, lv_style_t * styl
 106:..\..\..\lvgl\version_6.1.2\lvgl\src\lv_objx/lv_lmeter.h **** {
 131              		.loc 2 106 0
ARM GAS  C:\Users\tmj32\AppData\Local\Temp\ccepMVRX.s 			page 13


 132              		.cfi_startproc
 133              		@ args = 0, pretend = 0, frame = 16
 134              		@ frame_needed = 1, uses_anonymous_args = 0
 135 0000 80B5     		push	{r7, lr}
 136              		.cfi_def_cfa_offset 8
 137              		.cfi_offset 7, -8
 138              		.cfi_offset 14, -4
 139 0002 84B0     		sub	sp, sp, #16
 140              		.cfi_def_cfa_offset 24
 141 0004 00AF     		add	r7, sp, #0
 142              		.cfi_def_cfa_register 7
 143 0006 F860     		str	r0, [r7, #12]
 144 0008 0B46     		mov	r3, r1
 145 000a 7A60     		str	r2, [r7, #4]
 146 000c FB72     		strb	r3, [r7, #11]
 107:..\..\..\lvgl\version_6.1.2\lvgl\src\lv_objx/lv_lmeter.h ****     (void)type; /*Unused*/
 108:..\..\..\lvgl\version_6.1.2\lvgl\src\lv_objx/lv_lmeter.h ****     lv_obj_set_style(lmeter, style);
 147              		.loc 2 108 0
 148 000e 7968     		ldr	r1, [r7, #4]
 149 0010 F868     		ldr	r0, [r7, #12]
 150 0012 FFF7FEFF 		bl	lv_obj_set_style
 109:..\..\..\lvgl\version_6.1.2\lvgl\src\lv_objx/lv_lmeter.h **** }
 151              		.loc 2 109 0
 152 0016 00BF     		nop
 153 0018 1037     		adds	r7, r7, #16
 154              		.cfi_def_cfa_offset 8
 155 001a BD46     		mov	sp, r7
 156              		.cfi_def_cfa_register 13
 157              		@ sp needed
 158 001c 80BD     		pop	{r7, pc}
 159              		.cfi_endproc
 160              	.LFE31:
 161              		.size	lv_lmeter_set_style, .-lv_lmeter_set_style
 162 001e 00BF     		.section	.text.lv_lmeter_get_style,"ax",%progbits
 163              		.align	2
 164              		.thumb
 165              		.thumb_func
 166              		.type	lv_lmeter_get_style, %function
 167              	lv_lmeter_get_style:
 168              	.LFB32:
 110:..\..\..\lvgl\version_6.1.2\lvgl\src\lv_objx/lv_lmeter.h **** 
 111:..\..\..\lvgl\version_6.1.2\lvgl\src\lv_objx/lv_lmeter.h **** /*=====================
 112:..\..\..\lvgl\version_6.1.2\lvgl\src\lv_objx/lv_lmeter.h ****  * Getter functions
 113:..\..\..\lvgl\version_6.1.2\lvgl\src\lv_objx/lv_lmeter.h ****  *====================*/
 114:..\..\..\lvgl\version_6.1.2\lvgl\src\lv_objx/lv_lmeter.h **** 
 115:..\..\..\lvgl\version_6.1.2\lvgl\src\lv_objx/lv_lmeter.h **** /**
 116:..\..\..\lvgl\version_6.1.2\lvgl\src\lv_objx/lv_lmeter.h ****  * Get the value of a line meter
 117:..\..\..\lvgl\version_6.1.2\lvgl\src\lv_objx/lv_lmeter.h ****  * @param lmeter pointer to a line meter object
 118:..\..\..\lvgl\version_6.1.2\lvgl\src\lv_objx/lv_lmeter.h ****  * @return the value of the line meter
 119:..\..\..\lvgl\version_6.1.2\lvgl\src\lv_objx/lv_lmeter.h ****  */
 120:..\..\..\lvgl\version_6.1.2\lvgl\src\lv_objx/lv_lmeter.h **** int16_t lv_lmeter_get_value(const lv_obj_t * lmeter);
 121:..\..\..\lvgl\version_6.1.2\lvgl\src\lv_objx/lv_lmeter.h **** 
 122:..\..\..\lvgl\version_6.1.2\lvgl\src\lv_objx/lv_lmeter.h **** /**
 123:..\..\..\lvgl\version_6.1.2\lvgl\src\lv_objx/lv_lmeter.h ****  * Get the minimum value of a line meter
 124:..\..\..\lvgl\version_6.1.2\lvgl\src\lv_objx/lv_lmeter.h ****  * @param lmeter pointer to a line meter object
 125:..\..\..\lvgl\version_6.1.2\lvgl\src\lv_objx/lv_lmeter.h ****  * @return the minimum value of the line meter
 126:..\..\..\lvgl\version_6.1.2\lvgl\src\lv_objx/lv_lmeter.h ****  */
ARM GAS  C:\Users\tmj32\AppData\Local\Temp\ccepMVRX.s 			page 14


 127:..\..\..\lvgl\version_6.1.2\lvgl\src\lv_objx/lv_lmeter.h **** int16_t lv_lmeter_get_min_value(const lv_obj_t * lmeter);
 128:..\..\..\lvgl\version_6.1.2\lvgl\src\lv_objx/lv_lmeter.h **** 
 129:..\..\..\lvgl\version_6.1.2\lvgl\src\lv_objx/lv_lmeter.h **** /**
 130:..\..\..\lvgl\version_6.1.2\lvgl\src\lv_objx/lv_lmeter.h ****  * Get the maximum value of a line meter
 131:..\..\..\lvgl\version_6.1.2\lvgl\src\lv_objx/lv_lmeter.h ****  * @param lmeter pointer to a line meter object
 132:..\..\..\lvgl\version_6.1.2\lvgl\src\lv_objx/lv_lmeter.h ****  * @return the maximum value of the line meter
 133:..\..\..\lvgl\version_6.1.2\lvgl\src\lv_objx/lv_lmeter.h ****  */
 134:..\..\..\lvgl\version_6.1.2\lvgl\src\lv_objx/lv_lmeter.h **** int16_t lv_lmeter_get_max_value(const lv_obj_t * lmeter);
 135:..\..\..\lvgl\version_6.1.2\lvgl\src\lv_objx/lv_lmeter.h **** 
 136:..\..\..\lvgl\version_6.1.2\lvgl\src\lv_objx/lv_lmeter.h **** /**
 137:..\..\..\lvgl\version_6.1.2\lvgl\src\lv_objx/lv_lmeter.h ****  * Get the scale number of a line meter
 138:..\..\..\lvgl\version_6.1.2\lvgl\src\lv_objx/lv_lmeter.h ****  * @param lmeter pointer to a line meter object
 139:..\..\..\lvgl\version_6.1.2\lvgl\src\lv_objx/lv_lmeter.h ****  * @return number of the scale units
 140:..\..\..\lvgl\version_6.1.2\lvgl\src\lv_objx/lv_lmeter.h ****  */
 141:..\..\..\lvgl\version_6.1.2\lvgl\src\lv_objx/lv_lmeter.h **** uint16_t lv_lmeter_get_line_count(const lv_obj_t * lmeter);
 142:..\..\..\lvgl\version_6.1.2\lvgl\src\lv_objx/lv_lmeter.h **** 
 143:..\..\..\lvgl\version_6.1.2\lvgl\src\lv_objx/lv_lmeter.h **** /**
 144:..\..\..\lvgl\version_6.1.2\lvgl\src\lv_objx/lv_lmeter.h ****  * Get the scale angle of a line meter
 145:..\..\..\lvgl\version_6.1.2\lvgl\src\lv_objx/lv_lmeter.h ****  * @param lmeter pointer to a line meter object
 146:..\..\..\lvgl\version_6.1.2\lvgl\src\lv_objx/lv_lmeter.h ****  * @return angle of the scale
 147:..\..\..\lvgl\version_6.1.2\lvgl\src\lv_objx/lv_lmeter.h ****  */
 148:..\..\..\lvgl\version_6.1.2\lvgl\src\lv_objx/lv_lmeter.h **** uint16_t lv_lmeter_get_scale_angle(const lv_obj_t * lmeter);
 149:..\..\..\lvgl\version_6.1.2\lvgl\src\lv_objx/lv_lmeter.h **** 
 150:..\..\..\lvgl\version_6.1.2\lvgl\src\lv_objx/lv_lmeter.h **** /**
 151:..\..\..\lvgl\version_6.1.2\lvgl\src\lv_objx/lv_lmeter.h ****  * get the set an offset for the line meter.
 152:..\..\..\lvgl\version_6.1.2\lvgl\src\lv_objx/lv_lmeter.h ****  * @param lmeter pointer to a line meter object
 153:..\..\..\lvgl\version_6.1.2\lvgl\src\lv_objx/lv_lmeter.h ****  * @return angle offset (0..360)
 154:..\..\..\lvgl\version_6.1.2\lvgl\src\lv_objx/lv_lmeter.h ****  */
 155:..\..\..\lvgl\version_6.1.2\lvgl\src\lv_objx/lv_lmeter.h **** uint16_t lv_lmeter_get_angle_offset(lv_obj_t * lmeter);
 156:..\..\..\lvgl\version_6.1.2\lvgl\src\lv_objx/lv_lmeter.h **** 
 157:..\..\..\lvgl\version_6.1.2\lvgl\src\lv_objx/lv_lmeter.h **** /**
 158:..\..\..\lvgl\version_6.1.2\lvgl\src\lv_objx/lv_lmeter.h ****  * Get the style of a line meter
 159:..\..\..\lvgl\version_6.1.2\lvgl\src\lv_objx/lv_lmeter.h ****  * @param lmeter pointer to a line meter object
 160:..\..\..\lvgl\version_6.1.2\lvgl\src\lv_objx/lv_lmeter.h ****  * @param type which style should be get (can be only `LV_LMETER_STYLE_MAIN`)
 161:..\..\..\lvgl\version_6.1.2\lvgl\src\lv_objx/lv_lmeter.h ****  * @return pointer to the line meter's style
 162:..\..\..\lvgl\version_6.1.2\lvgl\src\lv_objx/lv_lmeter.h ****  */
 163:..\..\..\lvgl\version_6.1.2\lvgl\src\lv_objx/lv_lmeter.h **** static inline const lv_style_t * lv_lmeter_get_style(const lv_obj_t * lmeter, lv_lmeter_style_t typ
 164:..\..\..\lvgl\version_6.1.2\lvgl\src\lv_objx/lv_lmeter.h **** {
 169              		.loc 2 164 0
 170              		.cfi_startproc
 171              		@ args = 0, pretend = 0, frame = 8
 172              		@ frame_needed = 1, uses_anonymous_args = 0
 173 0000 80B5     		push	{r7, lr}
 174              		.cfi_def_cfa_offset 8
 175              		.cfi_offset 7, -8
 176              		.cfi_offset 14, -4
 177 0002 82B0     		sub	sp, sp, #8
 178              		.cfi_def_cfa_offset 16
 179 0004 00AF     		add	r7, sp, #0
 180              		.cfi_def_cfa_register 7
 181 0006 7860     		str	r0, [r7, #4]
 182 0008 0B46     		mov	r3, r1
 183 000a FB70     		strb	r3, [r7, #3]
 165:..\..\..\lvgl\version_6.1.2\lvgl\src\lv_objx/lv_lmeter.h ****     (void)type; /*Unused*/
 166:..\..\..\lvgl\version_6.1.2\lvgl\src\lv_objx/lv_lmeter.h ****     return lv_obj_get_style(lmeter);
 184              		.loc 2 166 0
 185 000c 7868     		ldr	r0, [r7, #4]
ARM GAS  C:\Users\tmj32\AppData\Local\Temp\ccepMVRX.s 			page 15


 186 000e FFF7FEFF 		bl	lv_obj_get_style
 187 0012 0346     		mov	r3, r0
 167:..\..\..\lvgl\version_6.1.2\lvgl\src\lv_objx/lv_lmeter.h **** }
 188              		.loc 2 167 0
 189 0014 1846     		mov	r0, r3
 190 0016 0837     		adds	r7, r7, #8
 191              		.cfi_def_cfa_offset 8
 192 0018 BD46     		mov	sp, r7
 193              		.cfi_def_cfa_register 13
 194              		@ sp needed
 195 001a 80BD     		pop	{r7, pc}
 196              		.cfi_endproc
 197              	.LFE32:
 198              		.size	lv_lmeter_get_style, .-lv_lmeter_get_style
 199              		.bss
 200              		.align	2
 201              	ancestor_signal:
 202 0000 00000000 		.space	4
 203              		.section	.text.lv_lmeter_create,"ax",%progbits
 204              		.align	2
 205              		.global	lv_lmeter_create
 206              		.thumb
 207              		.thumb_func
 208              		.type	lv_lmeter_create, %function
 209              	lv_lmeter_create:
 210              	.LFB33:
 211              		.file 3 "..\\..\\..\\lvgl\\version_6.1.2\\lvgl\\src\\lv_objx\\lv_lmeter.c"
   1:..\..\..\lvgl\version_6.1.2\lvgl\src\lv_objx/lv_lmeter.c **** /**
   2:..\..\..\lvgl\version_6.1.2\lvgl\src\lv_objx/lv_lmeter.c ****  * @file lv_lmeter.c
   3:..\..\..\lvgl\version_6.1.2\lvgl\src\lv_objx/lv_lmeter.c ****  *
   4:..\..\..\lvgl\version_6.1.2\lvgl\src\lv_objx/lv_lmeter.c ****  */
   5:..\..\..\lvgl\version_6.1.2\lvgl\src\lv_objx/lv_lmeter.c **** 
   6:..\..\..\lvgl\version_6.1.2\lvgl\src\lv_objx/lv_lmeter.c **** /*********************
   7:..\..\..\lvgl\version_6.1.2\lvgl\src\lv_objx/lv_lmeter.c ****  *      INCLUDES
   8:..\..\..\lvgl\version_6.1.2\lvgl\src\lv_objx/lv_lmeter.c ****  *********************/
   9:..\..\..\lvgl\version_6.1.2\lvgl\src\lv_objx/lv_lmeter.c **** #include "lv_lmeter.h"
  10:..\..\..\lvgl\version_6.1.2\lvgl\src\lv_objx/lv_lmeter.c **** #if LV_USE_LMETER != 0
  11:..\..\..\lvgl\version_6.1.2\lvgl\src\lv_objx/lv_lmeter.c **** 
  12:..\..\..\lvgl\version_6.1.2\lvgl\src\lv_objx/lv_lmeter.c **** #include "../lv_core/lv_debug.h"
  13:..\..\..\lvgl\version_6.1.2\lvgl\src\lv_objx/lv_lmeter.c **** #include "../lv_draw/lv_draw.h"
  14:..\..\..\lvgl\version_6.1.2\lvgl\src\lv_objx/lv_lmeter.c **** #include "../lv_themes/lv_theme.h"
  15:..\..\..\lvgl\version_6.1.2\lvgl\src\lv_objx/lv_lmeter.c **** #include "../lv_core/lv_group.h"
  16:..\..\..\lvgl\version_6.1.2\lvgl\src\lv_objx/lv_lmeter.c **** #include "../lv_misc/lv_math.h"
  17:..\..\..\lvgl\version_6.1.2\lvgl\src\lv_objx/lv_lmeter.c **** 
  18:..\..\..\lvgl\version_6.1.2\lvgl\src\lv_objx/lv_lmeter.c **** /*********************
  19:..\..\..\lvgl\version_6.1.2\lvgl\src\lv_objx/lv_lmeter.c ****  *      DEFINES
  20:..\..\..\lvgl\version_6.1.2\lvgl\src\lv_objx/lv_lmeter.c ****  *********************/
  21:..\..\..\lvgl\version_6.1.2\lvgl\src\lv_objx/lv_lmeter.c **** #define LV_OBJX_NAME "lv_lmeter"
  22:..\..\..\lvgl\version_6.1.2\lvgl\src\lv_objx/lv_lmeter.c **** 
  23:..\..\..\lvgl\version_6.1.2\lvgl\src\lv_objx/lv_lmeter.c **** #define LV_LMETER_LINE_UPSCALE 5 /*2^x upscale of line to make rounding*/
  24:..\..\..\lvgl\version_6.1.2\lvgl\src\lv_objx/lv_lmeter.c **** #define LV_LMETER_LINE_UPSCALE_MASK ((1 << LV_LMETER_LINE_UPSCALE) - 1)
  25:..\..\..\lvgl\version_6.1.2\lvgl\src\lv_objx/lv_lmeter.c **** 
  26:..\..\..\lvgl\version_6.1.2\lvgl\src\lv_objx/lv_lmeter.c **** /**********************
  27:..\..\..\lvgl\version_6.1.2\lvgl\src\lv_objx/lv_lmeter.c ****  *      TYPEDEFS
  28:..\..\..\lvgl\version_6.1.2\lvgl\src\lv_objx/lv_lmeter.c ****  **********************/
  29:..\..\..\lvgl\version_6.1.2\lvgl\src\lv_objx/lv_lmeter.c **** 
  30:..\..\..\lvgl\version_6.1.2\lvgl\src\lv_objx/lv_lmeter.c **** /**********************
ARM GAS  C:\Users\tmj32\AppData\Local\Temp\ccepMVRX.s 			page 16


  31:..\..\..\lvgl\version_6.1.2\lvgl\src\lv_objx/lv_lmeter.c ****  *  STATIC PROTOTYPES
  32:..\..\..\lvgl\version_6.1.2\lvgl\src\lv_objx/lv_lmeter.c ****  **********************/
  33:..\..\..\lvgl\version_6.1.2\lvgl\src\lv_objx/lv_lmeter.c **** static bool lv_lmeter_design(lv_obj_t * lmeter, const lv_area_t * mask, lv_design_mode_t mode);
  34:..\..\..\lvgl\version_6.1.2\lvgl\src\lv_objx/lv_lmeter.c **** static lv_res_t lv_lmeter_signal(lv_obj_t * lmeter, lv_signal_t sign, void * param);
  35:..\..\..\lvgl\version_6.1.2\lvgl\src\lv_objx/lv_lmeter.c **** static lv_coord_t lv_lmeter_coord_round(int32_t x);
  36:..\..\..\lvgl\version_6.1.2\lvgl\src\lv_objx/lv_lmeter.c **** 
  37:..\..\..\lvgl\version_6.1.2\lvgl\src\lv_objx/lv_lmeter.c **** /**********************
  38:..\..\..\lvgl\version_6.1.2\lvgl\src\lv_objx/lv_lmeter.c ****  *  STATIC VARIABLES
  39:..\..\..\lvgl\version_6.1.2\lvgl\src\lv_objx/lv_lmeter.c ****  **********************/
  40:..\..\..\lvgl\version_6.1.2\lvgl\src\lv_objx/lv_lmeter.c **** static lv_signal_cb_t ancestor_signal;
  41:..\..\..\lvgl\version_6.1.2\lvgl\src\lv_objx/lv_lmeter.c **** 
  42:..\..\..\lvgl\version_6.1.2\lvgl\src\lv_objx/lv_lmeter.c **** /**********************
  43:..\..\..\lvgl\version_6.1.2\lvgl\src\lv_objx/lv_lmeter.c ****  *      MACROS
  44:..\..\..\lvgl\version_6.1.2\lvgl\src\lv_objx/lv_lmeter.c ****  **********************/
  45:..\..\..\lvgl\version_6.1.2\lvgl\src\lv_objx/lv_lmeter.c **** 
  46:..\..\..\lvgl\version_6.1.2\lvgl\src\lv_objx/lv_lmeter.c **** /**********************
  47:..\..\..\lvgl\version_6.1.2\lvgl\src\lv_objx/lv_lmeter.c ****  *   GLOBAL FUNCTIONS
  48:..\..\..\lvgl\version_6.1.2\lvgl\src\lv_objx/lv_lmeter.c ****  **********************/
  49:..\..\..\lvgl\version_6.1.2\lvgl\src\lv_objx/lv_lmeter.c **** 
  50:..\..\..\lvgl\version_6.1.2\lvgl\src\lv_objx/lv_lmeter.c **** /**
  51:..\..\..\lvgl\version_6.1.2\lvgl\src\lv_objx/lv_lmeter.c ****  * Create a line meter objects
  52:..\..\..\lvgl\version_6.1.2\lvgl\src\lv_objx/lv_lmeter.c ****  * @param par pointer to an object, it will be the parent of the new line meter
  53:..\..\..\lvgl\version_6.1.2\lvgl\src\lv_objx/lv_lmeter.c ****  * @param copy pointer to a line meter object, if not NULL then the new object will be copied from
  54:..\..\..\lvgl\version_6.1.2\lvgl\src\lv_objx/lv_lmeter.c ****  * it
  55:..\..\..\lvgl\version_6.1.2\lvgl\src\lv_objx/lv_lmeter.c ****  * @return pointer to the created line meter
  56:..\..\..\lvgl\version_6.1.2\lvgl\src\lv_objx/lv_lmeter.c ****  */
  57:..\..\..\lvgl\version_6.1.2\lvgl\src\lv_objx/lv_lmeter.c **** lv_obj_t * lv_lmeter_create(lv_obj_t * par, const lv_obj_t * copy)
  58:..\..\..\lvgl\version_6.1.2\lvgl\src\lv_objx/lv_lmeter.c **** {
 212              		.loc 3 58 0
 213              		.cfi_startproc
 214              		@ args = 0, pretend = 0, frame = 24
 215              		@ frame_needed = 1, uses_anonymous_args = 0
 216 0000 80B5     		push	{r7, lr}
 217              		.cfi_def_cfa_offset 8
 218              		.cfi_offset 7, -8
 219              		.cfi_offset 14, -4
 220 0002 86B0     		sub	sp, sp, #24
 221              		.cfi_def_cfa_offset 32
 222 0004 00AF     		add	r7, sp, #0
 223              		.cfi_def_cfa_register 7
 224 0006 7860     		str	r0, [r7, #4]
 225 0008 3960     		str	r1, [r7]
  59:..\..\..\lvgl\version_6.1.2\lvgl\src\lv_objx/lv_lmeter.c ****     LV_LOG_TRACE("line meter create started");
  60:..\..\..\lvgl\version_6.1.2\lvgl\src\lv_objx/lv_lmeter.c **** 
  61:..\..\..\lvgl\version_6.1.2\lvgl\src\lv_objx/lv_lmeter.c ****     /*Create the ancestor of line meter*/
  62:..\..\..\lvgl\version_6.1.2\lvgl\src\lv_objx/lv_lmeter.c ****     lv_obj_t * new_lmeter = lv_obj_create(par, copy);
 226              		.loc 3 62 0
 227 000a 3968     		ldr	r1, [r7]
 228 000c 7868     		ldr	r0, [r7, #4]
 229 000e FFF7FEFF 		bl	lv_obj_create
 230 0012 7861     		str	r0, [r7, #20]
  63:..\..\..\lvgl\version_6.1.2\lvgl\src\lv_objx/lv_lmeter.c ****     LV_ASSERT_MEM(new_lmeter);
  64:..\..\..\lvgl\version_6.1.2\lvgl\src\lv_objx/lv_lmeter.c ****     if(new_lmeter == NULL) return NULL;
 231              		.loc 3 64 0
 232 0014 7B69     		ldr	r3, [r7, #20]
 233 0016 002B     		cmp	r3, #0
 234 0018 01D1     		bne	.L7
ARM GAS  C:\Users\tmj32\AppData\Local\Temp\ccepMVRX.s 			page 17


 235              		.loc 3 64 0 is_stmt 0 discriminator 1
 236 001a 0023     		movs	r3, #0
 237 001c 68E0     		b	.L8
 238              	.L7:
  65:..\..\..\lvgl\version_6.1.2\lvgl\src\lv_objx/lv_lmeter.c **** 
  66:..\..\..\lvgl\version_6.1.2\lvgl\src\lv_objx/lv_lmeter.c ****     if(ancestor_signal == NULL) ancestor_signal = lv_obj_get_signal_cb(new_lmeter);
 239              		.loc 3 66 0 is_stmt 1
 240 001e 364B     		ldr	r3, .L15
 241 0020 1B68     		ldr	r3, [r3]
 242 0022 002B     		cmp	r3, #0
 243 0024 05D1     		bne	.L9
 244              		.loc 3 66 0 is_stmt 0 discriminator 1
 245 0026 7869     		ldr	r0, [r7, #20]
 246 0028 FFF7FEFF 		bl	lv_obj_get_signal_cb
 247 002c 0246     		mov	r2, r0
 248 002e 324B     		ldr	r3, .L15
 249 0030 1A60     		str	r2, [r3]
 250              	.L9:
  67:..\..\..\lvgl\version_6.1.2\lvgl\src\lv_objx/lv_lmeter.c **** 
  68:..\..\..\lvgl\version_6.1.2\lvgl\src\lv_objx/lv_lmeter.c ****     /*Allocate the line meter type specific extended data*/
  69:..\..\..\lvgl\version_6.1.2\lvgl\src\lv_objx/lv_lmeter.c ****     lv_lmeter_ext_t * ext = lv_obj_allocate_ext_attr(new_lmeter, sizeof(lv_lmeter_ext_t));
 251              		.loc 3 69 0 is_stmt 1
 252 0032 0C21     		movs	r1, #12
 253 0034 7869     		ldr	r0, [r7, #20]
 254 0036 FFF7FEFF 		bl	lv_obj_allocate_ext_attr
 255 003a 3861     		str	r0, [r7, #16]
  70:..\..\..\lvgl\version_6.1.2\lvgl\src\lv_objx/lv_lmeter.c ****     LV_ASSERT_MEM(ext);
  71:..\..\..\lvgl\version_6.1.2\lvgl\src\lv_objx/lv_lmeter.c ****     if(ext == NULL) return NULL;
 256              		.loc 3 71 0
 257 003c 3B69     		ldr	r3, [r7, #16]
 258 003e 002B     		cmp	r3, #0
 259 0040 01D1     		bne	.L10
 260              		.loc 3 71 0 is_stmt 0 discriminator 1
 261 0042 0023     		movs	r3, #0
 262 0044 54E0     		b	.L8
 263              	.L10:
  72:..\..\..\lvgl\version_6.1.2\lvgl\src\lv_objx/lv_lmeter.c **** 
  73:..\..\..\lvgl\version_6.1.2\lvgl\src\lv_objx/lv_lmeter.c ****     /*Initialize the allocated 'ext' */
  74:..\..\..\lvgl\version_6.1.2\lvgl\src\lv_objx/lv_lmeter.c ****     ext->min_value   = 0;
 264              		.loc 3 74 0 is_stmt 1
 265 0046 3B69     		ldr	r3, [r7, #16]
 266 0048 0022     		movs	r2, #0
 267 004a 1A81     		strh	r2, [r3, #8]	@ movhi
  75:..\..\..\lvgl\version_6.1.2\lvgl\src\lv_objx/lv_lmeter.c ****     ext->max_value   = 100;
 268              		.loc 3 75 0
 269 004c 3B69     		ldr	r3, [r7, #16]
 270 004e 6422     		movs	r2, #100
 271 0050 5A81     		strh	r2, [r3, #10]	@ movhi
  76:..\..\..\lvgl\version_6.1.2\lvgl\src\lv_objx/lv_lmeter.c ****     ext->cur_value   = 0;
 272              		.loc 3 76 0
 273 0052 3B69     		ldr	r3, [r7, #16]
 274 0054 0022     		movs	r2, #0
 275 0056 DA80     		strh	r2, [r3, #6]	@ movhi
  77:..\..\..\lvgl\version_6.1.2\lvgl\src\lv_objx/lv_lmeter.c ****     ext->line_cnt    = 21;  /*Odd scale number looks better*/
 276              		.loc 3 77 0
 277 0058 3B69     		ldr	r3, [r7, #16]
 278 005a 1522     		movs	r2, #21
ARM GAS  C:\Users\tmj32\AppData\Local\Temp\ccepMVRX.s 			page 18


 279 005c 9A80     		strh	r2, [r3, #4]	@ movhi
  78:..\..\..\lvgl\version_6.1.2\lvgl\src\lv_objx/lv_lmeter.c ****     ext->scale_angle = 240; /*(scale_num - 1) * N looks better */
 280              		.loc 3 78 0
 281 005e 3B69     		ldr	r3, [r7, #16]
 282 0060 F022     		movs	r2, #240
 283 0062 1A80     		strh	r2, [r3]	@ movhi
  79:..\..\..\lvgl\version_6.1.2\lvgl\src\lv_objx/lv_lmeter.c ****     ext->angle_ofs = 0;
 284              		.loc 3 79 0
 285 0064 3B69     		ldr	r3, [r7, #16]
 286 0066 0022     		movs	r2, #0
 287 0068 5A80     		strh	r2, [r3, #2]	@ movhi
  80:..\..\..\lvgl\version_6.1.2\lvgl\src\lv_objx/lv_lmeter.c **** 
  81:..\..\..\lvgl\version_6.1.2\lvgl\src\lv_objx/lv_lmeter.c ****     /*The signal and design functions are not copied so set them here*/
  82:..\..\..\lvgl\version_6.1.2\lvgl\src\lv_objx/lv_lmeter.c ****     lv_obj_set_signal_cb(new_lmeter, lv_lmeter_signal);
 288              		.loc 3 82 0
 289 006a 2449     		ldr	r1, .L15+4
 290 006c 7869     		ldr	r0, [r7, #20]
 291 006e FFF7FEFF 		bl	lv_obj_set_signal_cb
  83:..\..\..\lvgl\version_6.1.2\lvgl\src\lv_objx/lv_lmeter.c ****     lv_obj_set_design_cb(new_lmeter, lv_lmeter_design);
 292              		.loc 3 83 0
 293 0072 2349     		ldr	r1, .L15+8
 294 0074 7869     		ldr	r0, [r7, #20]
 295 0076 FFF7FEFF 		bl	lv_obj_set_design_cb
  84:..\..\..\lvgl\version_6.1.2\lvgl\src\lv_objx/lv_lmeter.c **** 
  85:..\..\..\lvgl\version_6.1.2\lvgl\src\lv_objx/lv_lmeter.c ****     /*Init the new line meter line meter*/
  86:..\..\..\lvgl\version_6.1.2\lvgl\src\lv_objx/lv_lmeter.c ****     if(copy == NULL) {
 296              		.loc 3 86 0
 297 007a 3B68     		ldr	r3, [r7]
 298 007c 002B     		cmp	r3, #0
 299 007e 18D1     		bne	.L11
 300              	.LBB2:
  87:..\..\..\lvgl\version_6.1.2\lvgl\src\lv_objx/lv_lmeter.c ****         lv_obj_set_size(new_lmeter, LV_DPI, LV_DPI);
 301              		.loc 3 87 0
 302 0080 9622     		movs	r2, #150
 303 0082 9621     		movs	r1, #150
 304 0084 7869     		ldr	r0, [r7, #20]
 305 0086 FFF7FEFF 		bl	lv_obj_set_size
  88:..\..\..\lvgl\version_6.1.2\lvgl\src\lv_objx/lv_lmeter.c **** 
  89:..\..\..\lvgl\version_6.1.2\lvgl\src\lv_objx/lv_lmeter.c ****         /*Set the default styles*/
  90:..\..\..\lvgl\version_6.1.2\lvgl\src\lv_objx/lv_lmeter.c ****         lv_theme_t * th = lv_theme_get_current();
 306              		.loc 3 90 0
 307 008a FFF7FEFF 		bl	lv_theme_get_current
 308 008e F860     		str	r0, [r7, #12]
  91:..\..\..\lvgl\version_6.1.2\lvgl\src\lv_objx/lv_lmeter.c ****         if(th) {
 309              		.loc 3 91 0
 310 0090 FB68     		ldr	r3, [r7, #12]
 311 0092 002B     		cmp	r3, #0
 312 0094 07D0     		beq	.L12
  92:..\..\..\lvgl\version_6.1.2\lvgl\src\lv_objx/lv_lmeter.c ****             lv_lmeter_set_style(new_lmeter, LV_LMETER_STYLE_MAIN, th->style.lmeter);
 313              		.loc 3 92 0
 314 0096 FB68     		ldr	r3, [r7, #12]
 315 0098 9B6E     		ldr	r3, [r3, #104]
 316 009a 1A46     		mov	r2, r3
 317 009c 0021     		movs	r1, #0
 318 009e 7869     		ldr	r0, [r7, #20]
 319 00a0 FFF7FEFF 		bl	lv_lmeter_set_style
 320 00a4 23E0     		b	.L14
ARM GAS  C:\Users\tmj32\AppData\Local\Temp\ccepMVRX.s 			page 19


 321              	.L12:
  93:..\..\..\lvgl\version_6.1.2\lvgl\src\lv_objx/lv_lmeter.c ****         } else {
  94:..\..\..\lvgl\version_6.1.2\lvgl\src\lv_objx/lv_lmeter.c ****             lv_lmeter_set_style(new_lmeter, LV_LMETER_STYLE_MAIN, &lv_style_pretty_color);
 322              		.loc 3 94 0
 323 00a6 174A     		ldr	r2, .L15+12
 324 00a8 0021     		movs	r1, #0
 325 00aa 7869     		ldr	r0, [r7, #20]
 326 00ac FFF7FEFF 		bl	lv_lmeter_set_style
 327 00b0 1DE0     		b	.L14
 328              	.L11:
 329              	.LBE2:
 330              	.LBB3:
  95:..\..\..\lvgl\version_6.1.2\lvgl\src\lv_objx/lv_lmeter.c ****         }
  96:..\..\..\lvgl\version_6.1.2\lvgl\src\lv_objx/lv_lmeter.c ****     }
  97:..\..\..\lvgl\version_6.1.2\lvgl\src\lv_objx/lv_lmeter.c ****     /*Copy an existing line meter*/
  98:..\..\..\lvgl\version_6.1.2\lvgl\src\lv_objx/lv_lmeter.c ****     else {
  99:..\..\..\lvgl\version_6.1.2\lvgl\src\lv_objx/lv_lmeter.c ****         lv_lmeter_ext_t * copy_ext = lv_obj_get_ext_attr(copy);
 331              		.loc 3 99 0
 332 00b2 3868     		ldr	r0, [r7]
 333 00b4 FFF7FEFF 		bl	lv_obj_get_ext_attr
 334 00b8 B860     		str	r0, [r7, #8]
 100:..\..\..\lvgl\version_6.1.2\lvgl\src\lv_objx/lv_lmeter.c ****         ext->scale_angle           = copy_ext->scale_angle;
 335              		.loc 3 100 0
 336 00ba BB68     		ldr	r3, [r7, #8]
 337 00bc 1A88     		ldrh	r2, [r3]
 338 00be 3B69     		ldr	r3, [r7, #16]
 339 00c0 1A80     		strh	r2, [r3]	@ movhi
 101:..\..\..\lvgl\version_6.1.2\lvgl\src\lv_objx/lv_lmeter.c ****         ext->line_cnt              = copy_ext->line_cnt;
 340              		.loc 3 101 0
 341 00c2 BB68     		ldr	r3, [r7, #8]
 342 00c4 9A88     		ldrh	r2, [r3, #4]
 343 00c6 3B69     		ldr	r3, [r7, #16]
 344 00c8 9A80     		strh	r2, [r3, #4]	@ movhi
 102:..\..\..\lvgl\version_6.1.2\lvgl\src\lv_objx/lv_lmeter.c ****         ext->min_value             = copy_ext->min_value;
 345              		.loc 3 102 0
 346 00ca BB68     		ldr	r3, [r7, #8]
 347 00cc B3F90820 		ldrsh	r2, [r3, #8]
 348 00d0 3B69     		ldr	r3, [r7, #16]
 349 00d2 1A81     		strh	r2, [r3, #8]	@ movhi
 103:..\..\..\lvgl\version_6.1.2\lvgl\src\lv_objx/lv_lmeter.c ****         ext->max_value             = copy_ext->max_value;
 350              		.loc 3 103 0
 351 00d4 BB68     		ldr	r3, [r7, #8]
 352 00d6 B3F90A20 		ldrsh	r2, [r3, #10]
 353 00da 3B69     		ldr	r3, [r7, #16]
 354 00dc 5A81     		strh	r2, [r3, #10]	@ movhi
 104:..\..\..\lvgl\version_6.1.2\lvgl\src\lv_objx/lv_lmeter.c ****         ext->cur_value             = copy_ext->cur_value;
 355              		.loc 3 104 0
 356 00de BB68     		ldr	r3, [r7, #8]
 357 00e0 B3F90620 		ldrsh	r2, [r3, #6]
 358 00e4 3B69     		ldr	r3, [r7, #16]
 359 00e6 DA80     		strh	r2, [r3, #6]	@ movhi
 105:..\..\..\lvgl\version_6.1.2\lvgl\src\lv_objx/lv_lmeter.c **** 
 106:..\..\..\lvgl\version_6.1.2\lvgl\src\lv_objx/lv_lmeter.c ****         /*Refresh the style with new signal function*/
 107:..\..\..\lvgl\version_6.1.2\lvgl\src\lv_objx/lv_lmeter.c ****         lv_obj_refresh_style(new_lmeter);
 360              		.loc 3 107 0
 361 00e8 7869     		ldr	r0, [r7, #20]
 362 00ea FFF7FEFF 		bl	lv_obj_refresh_style
ARM GAS  C:\Users\tmj32\AppData\Local\Temp\ccepMVRX.s 			page 20


 363              	.L14:
 364              	.LBE3:
 108:..\..\..\lvgl\version_6.1.2\lvgl\src\lv_objx/lv_lmeter.c ****     }
 109:..\..\..\lvgl\version_6.1.2\lvgl\src\lv_objx/lv_lmeter.c **** 
 110:..\..\..\lvgl\version_6.1.2\lvgl\src\lv_objx/lv_lmeter.c ****     LV_LOG_INFO("line meter created");
 111:..\..\..\lvgl\version_6.1.2\lvgl\src\lv_objx/lv_lmeter.c **** 
 112:..\..\..\lvgl\version_6.1.2\lvgl\src\lv_objx/lv_lmeter.c ****     return new_lmeter;
 365              		.loc 3 112 0
 366 00ee 7B69     		ldr	r3, [r7, #20]
 367              	.L8:
 113:..\..\..\lvgl\version_6.1.2\lvgl\src\lv_objx/lv_lmeter.c **** }
 368              		.loc 3 113 0
 369 00f0 1846     		mov	r0, r3
 370 00f2 1837     		adds	r7, r7, #24
 371              		.cfi_def_cfa_offset 8
 372 00f4 BD46     		mov	sp, r7
 373              		.cfi_def_cfa_register 13
 374              		@ sp needed
 375 00f6 80BD     		pop	{r7, pc}
 376              	.L16:
 377              		.align	2
 378              	.L15:
 379 00f8 00000000 		.word	ancestor_signal
 380 00fc 00000000 		.word	lv_lmeter_signal
 381 0100 00000000 		.word	lv_lmeter_design
 382 0104 00000000 		.word	lv_style_pretty_color
 383              		.cfi_endproc
 384              	.LFE33:
 385              		.size	lv_lmeter_create, .-lv_lmeter_create
 386              		.section	.text.lv_lmeter_set_value,"ax",%progbits
 387              		.align	2
 388              		.global	lv_lmeter_set_value
 389              		.thumb
 390              		.thumb_func
 391              		.type	lv_lmeter_set_value, %function
 392              	lv_lmeter_set_value:
 393              	.LFB34:
 114:..\..\..\lvgl\version_6.1.2\lvgl\src\lv_objx/lv_lmeter.c **** 
 115:..\..\..\lvgl\version_6.1.2\lvgl\src\lv_objx/lv_lmeter.c **** /*=====================
 116:..\..\..\lvgl\version_6.1.2\lvgl\src\lv_objx/lv_lmeter.c ****  * Setter functions
 117:..\..\..\lvgl\version_6.1.2\lvgl\src\lv_objx/lv_lmeter.c ****  *====================*/
 118:..\..\..\lvgl\version_6.1.2\lvgl\src\lv_objx/lv_lmeter.c **** 
 119:..\..\..\lvgl\version_6.1.2\lvgl\src\lv_objx/lv_lmeter.c **** /**
 120:..\..\..\lvgl\version_6.1.2\lvgl\src\lv_objx/lv_lmeter.c ****  * Set a new value on the line meter
 121:..\..\..\lvgl\version_6.1.2\lvgl\src\lv_objx/lv_lmeter.c ****  * @param lmeter pointer to a line meter object
 122:..\..\..\lvgl\version_6.1.2\lvgl\src\lv_objx/lv_lmeter.c ****  * @param value new value
 123:..\..\..\lvgl\version_6.1.2\lvgl\src\lv_objx/lv_lmeter.c ****  */
 124:..\..\..\lvgl\version_6.1.2\lvgl\src\lv_objx/lv_lmeter.c **** void lv_lmeter_set_value(lv_obj_t * lmeter, int16_t value)
 125:..\..\..\lvgl\version_6.1.2\lvgl\src\lv_objx/lv_lmeter.c **** {
 394              		.loc 3 125 0
 395              		.cfi_startproc
 396              		@ args = 0, pretend = 0, frame = 16
 397              		@ frame_needed = 1, uses_anonymous_args = 0
 398 0000 80B5     		push	{r7, lr}
 399              		.cfi_def_cfa_offset 8
 400              		.cfi_offset 7, -8
 401              		.cfi_offset 14, -4
ARM GAS  C:\Users\tmj32\AppData\Local\Temp\ccepMVRX.s 			page 21


 402 0002 84B0     		sub	sp, sp, #16
 403              		.cfi_def_cfa_offset 24
 404 0004 00AF     		add	r7, sp, #0
 405              		.cfi_def_cfa_register 7
 406 0006 7860     		str	r0, [r7, #4]
 407 0008 0B46     		mov	r3, r1
 408 000a 7B80     		strh	r3, [r7, #2]	@ movhi
 126:..\..\..\lvgl\version_6.1.2\lvgl\src\lv_objx/lv_lmeter.c ****     LV_ASSERT_OBJ(lmeter, LV_OBJX_NAME);
 127:..\..\..\lvgl\version_6.1.2\lvgl\src\lv_objx/lv_lmeter.c **** 
 128:..\..\..\lvgl\version_6.1.2\lvgl\src\lv_objx/lv_lmeter.c ****     lv_lmeter_ext_t * ext = lv_obj_get_ext_attr(lmeter);
 409              		.loc 3 128 0
 410 000c 7868     		ldr	r0, [r7, #4]
 411 000e FFF7FEFF 		bl	lv_obj_get_ext_attr
 412 0012 F860     		str	r0, [r7, #12]
 129:..\..\..\lvgl\version_6.1.2\lvgl\src\lv_objx/lv_lmeter.c ****     if(ext->cur_value == value) return;
 413              		.loc 3 129 0
 414 0014 FB68     		ldr	r3, [r7, #12]
 415 0016 B3F90630 		ldrsh	r3, [r3, #6]
 416 001a B7F90220 		ldrsh	r2, [r7, #2]
 417 001e 9A42     		cmp	r2, r3
 418 0020 1AD0     		beq	.L20
 130:..\..\..\lvgl\version_6.1.2\lvgl\src\lv_objx/lv_lmeter.c **** 
 131:..\..\..\lvgl\version_6.1.2\lvgl\src\lv_objx/lv_lmeter.c ****     ext->cur_value = value > ext->max_value ? ext->max_value : value;
 419              		.loc 3 131 0
 420 0022 FB68     		ldr	r3, [r7, #12]
 421 0024 B3F90A20 		ldrsh	r2, [r3, #10]
 422 0028 B7F90230 		ldrsh	r3, [r7, #2]
 423 002c 9342     		cmp	r3, r2
 424 002e A8BF     		it	ge
 425 0030 1346     		movge	r3, r2
 426 0032 1AB2     		sxth	r2, r3
 427 0034 FB68     		ldr	r3, [r7, #12]
 428 0036 DA80     		strh	r2, [r3, #6]	@ movhi
 132:..\..\..\lvgl\version_6.1.2\lvgl\src\lv_objx/lv_lmeter.c ****     ext->cur_value = ext->cur_value < ext->min_value ? ext->min_value : ext->cur_value;
 429              		.loc 3 132 0
 430 0038 FB68     		ldr	r3, [r7, #12]
 431 003a B3F90620 		ldrsh	r2, [r3, #6]
 432 003e FB68     		ldr	r3, [r7, #12]
 433 0040 B3F90830 		ldrsh	r3, [r3, #8]
 434 0044 9342     		cmp	r3, r2
 435 0046 B8BF     		it	lt
 436 0048 1346     		movlt	r3, r2
 437 004a 1AB2     		sxth	r2, r3
 438 004c FB68     		ldr	r3, [r7, #12]
 439 004e DA80     		strh	r2, [r3, #6]	@ movhi
 133:..\..\..\lvgl\version_6.1.2\lvgl\src\lv_objx/lv_lmeter.c ****     lv_obj_invalidate(lmeter);
 440              		.loc 3 133 0
 441 0050 7868     		ldr	r0, [r7, #4]
 442 0052 FFF7FEFF 		bl	lv_obj_invalidate
 443 0056 00E0     		b	.L17
 444              	.L20:
 129:..\..\..\lvgl\version_6.1.2\lvgl\src\lv_objx/lv_lmeter.c **** 
 445              		.loc 3 129 0
 446 0058 00BF     		nop
 447              	.L17:
 134:..\..\..\lvgl\version_6.1.2\lvgl\src\lv_objx/lv_lmeter.c **** }
 448              		.loc 3 134 0
ARM GAS  C:\Users\tmj32\AppData\Local\Temp\ccepMVRX.s 			page 22


 449 005a 1037     		adds	r7, r7, #16
 450              		.cfi_def_cfa_offset 8
 451 005c BD46     		mov	sp, r7
 452              		.cfi_def_cfa_register 13
 453              		@ sp needed
 454 005e 80BD     		pop	{r7, pc}
 455              		.cfi_endproc
 456              	.LFE34:
 457              		.size	lv_lmeter_set_value, .-lv_lmeter_set_value
 458              		.section	.text.lv_lmeter_set_range,"ax",%progbits
 459              		.align	2
 460              		.global	lv_lmeter_set_range
 461              		.thumb
 462              		.thumb_func
 463              		.type	lv_lmeter_set_range, %function
 464              	lv_lmeter_set_range:
 465              	.LFB35:
 135:..\..\..\lvgl\version_6.1.2\lvgl\src\lv_objx/lv_lmeter.c **** 
 136:..\..\..\lvgl\version_6.1.2\lvgl\src\lv_objx/lv_lmeter.c **** /**
 137:..\..\..\lvgl\version_6.1.2\lvgl\src\lv_objx/lv_lmeter.c ****  * Set minimum and the maximum values of a line meter
 138:..\..\..\lvgl\version_6.1.2\lvgl\src\lv_objx/lv_lmeter.c ****  * @param lmeter pointer to he line meter object
 139:..\..\..\lvgl\version_6.1.2\lvgl\src\lv_objx/lv_lmeter.c ****  * @param min minimum value
 140:..\..\..\lvgl\version_6.1.2\lvgl\src\lv_objx/lv_lmeter.c ****  * @param max maximum value
 141:..\..\..\lvgl\version_6.1.2\lvgl\src\lv_objx/lv_lmeter.c ****  */
 142:..\..\..\lvgl\version_6.1.2\lvgl\src\lv_objx/lv_lmeter.c **** void lv_lmeter_set_range(lv_obj_t * lmeter, int16_t min, int16_t max)
 143:..\..\..\lvgl\version_6.1.2\lvgl\src\lv_objx/lv_lmeter.c **** {
 466              		.loc 3 143 0
 467              		.cfi_startproc
 468              		@ args = 0, pretend = 0, frame = 16
 469              		@ frame_needed = 1, uses_anonymous_args = 0
 470 0000 80B5     		push	{r7, lr}
 471              		.cfi_def_cfa_offset 8
 472              		.cfi_offset 7, -8
 473              		.cfi_offset 14, -4
 474 0002 84B0     		sub	sp, sp, #16
 475              		.cfi_def_cfa_offset 24
 476 0004 00AF     		add	r7, sp, #0
 477              		.cfi_def_cfa_register 7
 478 0006 7860     		str	r0, [r7, #4]
 479 0008 0B46     		mov	r3, r1
 480 000a 7B80     		strh	r3, [r7, #2]	@ movhi
 481 000c 1346     		mov	r3, r2	@ movhi
 482 000e 3B80     		strh	r3, [r7]	@ movhi
 144:..\..\..\lvgl\version_6.1.2\lvgl\src\lv_objx/lv_lmeter.c ****     LV_ASSERT_OBJ(lmeter, LV_OBJX_NAME);
 145:..\..\..\lvgl\version_6.1.2\lvgl\src\lv_objx/lv_lmeter.c **** 
 146:..\..\..\lvgl\version_6.1.2\lvgl\src\lv_objx/lv_lmeter.c ****     lv_lmeter_ext_t * ext = lv_obj_get_ext_attr(lmeter);
 483              		.loc 3 146 0
 484 0010 7868     		ldr	r0, [r7, #4]
 485 0012 FFF7FEFF 		bl	lv_obj_get_ext_attr
 486 0016 F860     		str	r0, [r7, #12]
 147:..\..\..\lvgl\version_6.1.2\lvgl\src\lv_objx/lv_lmeter.c ****     if(ext->min_value == min && ext->max_value == max) return;
 487              		.loc 3 147 0
 488 0018 FB68     		ldr	r3, [r7, #12]
 489 001a B3F90830 		ldrsh	r3, [r3, #8]
 490 001e B7F90220 		ldrsh	r2, [r7, #2]
 491 0022 9A42     		cmp	r2, r3
 492 0024 06D1     		bne	.L22
ARM GAS  C:\Users\tmj32\AppData\Local\Temp\ccepMVRX.s 			page 23


 493              		.loc 3 147 0 is_stmt 0 discriminator 1
 494 0026 FB68     		ldr	r3, [r7, #12]
 495 0028 B3F90A30 		ldrsh	r3, [r3, #10]
 496 002c B7F90020 		ldrsh	r2, [r7]
 497 0030 9A42     		cmp	r2, r3
 498 0032 2BD0     		beq	.L26
 499              	.L22:
 148:..\..\..\lvgl\version_6.1.2\lvgl\src\lv_objx/lv_lmeter.c **** 
 149:..\..\..\lvgl\version_6.1.2\lvgl\src\lv_objx/lv_lmeter.c ****     ext->max_value = max;
 500              		.loc 3 149 0 is_stmt 1
 501 0034 FB68     		ldr	r3, [r7, #12]
 502 0036 3A88     		ldrh	r2, [r7]	@ movhi
 503 0038 5A81     		strh	r2, [r3, #10]	@ movhi
 150:..\..\..\lvgl\version_6.1.2\lvgl\src\lv_objx/lv_lmeter.c ****     ext->min_value = min;
 504              		.loc 3 150 0
 505 003a FB68     		ldr	r3, [r7, #12]
 506 003c 7A88     		ldrh	r2, [r7, #2]	@ movhi
 507 003e 1A81     		strh	r2, [r3, #8]	@ movhi
 151:..\..\..\lvgl\version_6.1.2\lvgl\src\lv_objx/lv_lmeter.c ****     if(ext->cur_value > max) {
 508              		.loc 3 151 0
 509 0040 FB68     		ldr	r3, [r7, #12]
 510 0042 B3F90630 		ldrsh	r3, [r3, #6]
 511 0046 B7F90020 		ldrsh	r2, [r7]
 512 004a 9A42     		cmp	r2, r3
 513 004c 09DA     		bge	.L24
 152:..\..\..\lvgl\version_6.1.2\lvgl\src\lv_objx/lv_lmeter.c ****         ext->cur_value = max;
 514              		.loc 3 152 0
 515 004e FB68     		ldr	r3, [r7, #12]
 516 0050 3A88     		ldrh	r2, [r7]	@ movhi
 517 0052 DA80     		strh	r2, [r3, #6]	@ movhi
 153:..\..\..\lvgl\version_6.1.2\lvgl\src\lv_objx/lv_lmeter.c ****         lv_lmeter_set_value(lmeter, ext->cur_value);
 518              		.loc 3 153 0
 519 0054 FB68     		ldr	r3, [r7, #12]
 520 0056 B3F90630 		ldrsh	r3, [r3, #6]
 521 005a 1946     		mov	r1, r3
 522 005c 7868     		ldr	r0, [r7, #4]
 523 005e FFF7FEFF 		bl	lv_lmeter_set_value
 524              	.L24:
 154:..\..\..\lvgl\version_6.1.2\lvgl\src\lv_objx/lv_lmeter.c ****     }
 155:..\..\..\lvgl\version_6.1.2\lvgl\src\lv_objx/lv_lmeter.c ****     if(ext->cur_value < min) {
 525              		.loc 3 155 0
 526 0062 FB68     		ldr	r3, [r7, #12]
 527 0064 B3F90630 		ldrsh	r3, [r3, #6]
 528 0068 B7F90220 		ldrsh	r2, [r7, #2]
 529 006c 9A42     		cmp	r2, r3
 530 006e 09DD     		ble	.L25
 156:..\..\..\lvgl\version_6.1.2\lvgl\src\lv_objx/lv_lmeter.c ****         ext->cur_value = min;
 531              		.loc 3 156 0
 532 0070 FB68     		ldr	r3, [r7, #12]
 533 0072 7A88     		ldrh	r2, [r7, #2]	@ movhi
 534 0074 DA80     		strh	r2, [r3, #6]	@ movhi
 157:..\..\..\lvgl\version_6.1.2\lvgl\src\lv_objx/lv_lmeter.c ****         lv_lmeter_set_value(lmeter, ext->cur_value);
 535              		.loc 3 157 0
 536 0076 FB68     		ldr	r3, [r7, #12]
 537 0078 B3F90630 		ldrsh	r3, [r3, #6]
 538 007c 1946     		mov	r1, r3
 539 007e 7868     		ldr	r0, [r7, #4]
ARM GAS  C:\Users\tmj32\AppData\Local\Temp\ccepMVRX.s 			page 24


 540 0080 FFF7FEFF 		bl	lv_lmeter_set_value
 541              	.L25:
 158:..\..\..\lvgl\version_6.1.2\lvgl\src\lv_objx/lv_lmeter.c ****     }
 159:..\..\..\lvgl\version_6.1.2\lvgl\src\lv_objx/lv_lmeter.c ****     lv_obj_invalidate(lmeter);
 542              		.loc 3 159 0
 543 0084 7868     		ldr	r0, [r7, #4]
 544 0086 FFF7FEFF 		bl	lv_obj_invalidate
 545 008a 00E0     		b	.L21
 546              	.L26:
 147:..\..\..\lvgl\version_6.1.2\lvgl\src\lv_objx/lv_lmeter.c **** 
 547              		.loc 3 147 0
 548 008c 00BF     		nop
 549              	.L21:
 160:..\..\..\lvgl\version_6.1.2\lvgl\src\lv_objx/lv_lmeter.c **** }
 550              		.loc 3 160 0
 551 008e 1037     		adds	r7, r7, #16
 552              		.cfi_def_cfa_offset 8
 553 0090 BD46     		mov	sp, r7
 554              		.cfi_def_cfa_register 13
 555              		@ sp needed
 556 0092 80BD     		pop	{r7, pc}
 557              		.cfi_endproc
 558              	.LFE35:
 559              		.size	lv_lmeter_set_range, .-lv_lmeter_set_range
 560              		.section	.text.lv_lmeter_set_scale,"ax",%progbits
 561              		.align	2
 562              		.global	lv_lmeter_set_scale
 563              		.thumb
 564              		.thumb_func
 565              		.type	lv_lmeter_set_scale, %function
 566              	lv_lmeter_set_scale:
 567              	.LFB36:
 161:..\..\..\lvgl\version_6.1.2\lvgl\src\lv_objx/lv_lmeter.c **** 
 162:..\..\..\lvgl\version_6.1.2\lvgl\src\lv_objx/lv_lmeter.c **** /**
 163:..\..\..\lvgl\version_6.1.2\lvgl\src\lv_objx/lv_lmeter.c ****  * Set the scale settings of a line meter
 164:..\..\..\lvgl\version_6.1.2\lvgl\src\lv_objx/lv_lmeter.c ****  * @param lmeter pointer to a line meter object
 165:..\..\..\lvgl\version_6.1.2\lvgl\src\lv_objx/lv_lmeter.c ****  * @param angle angle of the scale (0..360)
 166:..\..\..\lvgl\version_6.1.2\lvgl\src\lv_objx/lv_lmeter.c ****  * @param line_cnt number of lines
 167:..\..\..\lvgl\version_6.1.2\lvgl\src\lv_objx/lv_lmeter.c ****  */
 168:..\..\..\lvgl\version_6.1.2\lvgl\src\lv_objx/lv_lmeter.c **** void lv_lmeter_set_scale(lv_obj_t * lmeter, uint16_t angle, uint16_t line_cnt)
 169:..\..\..\lvgl\version_6.1.2\lvgl\src\lv_objx/lv_lmeter.c **** {
 568              		.loc 3 169 0
 569              		.cfi_startproc
 570              		@ args = 0, pretend = 0, frame = 16
 571              		@ frame_needed = 1, uses_anonymous_args = 0
 572 0000 80B5     		push	{r7, lr}
 573              		.cfi_def_cfa_offset 8
 574              		.cfi_offset 7, -8
 575              		.cfi_offset 14, -4
 576 0002 84B0     		sub	sp, sp, #16
 577              		.cfi_def_cfa_offset 24
 578 0004 00AF     		add	r7, sp, #0
 579              		.cfi_def_cfa_register 7
 580 0006 7860     		str	r0, [r7, #4]
 581 0008 0B46     		mov	r3, r1
 582 000a 7B80     		strh	r3, [r7, #2]	@ movhi
 583 000c 1346     		mov	r3, r2	@ movhi
ARM GAS  C:\Users\tmj32\AppData\Local\Temp\ccepMVRX.s 			page 25


 584 000e 3B80     		strh	r3, [r7]	@ movhi
 170:..\..\..\lvgl\version_6.1.2\lvgl\src\lv_objx/lv_lmeter.c ****     LV_ASSERT_OBJ(lmeter, LV_OBJX_NAME);
 171:..\..\..\lvgl\version_6.1.2\lvgl\src\lv_objx/lv_lmeter.c **** 
 172:..\..\..\lvgl\version_6.1.2\lvgl\src\lv_objx/lv_lmeter.c ****     lv_lmeter_ext_t * ext = lv_obj_get_ext_attr(lmeter);
 585              		.loc 3 172 0
 586 0010 7868     		ldr	r0, [r7, #4]
 587 0012 FFF7FEFF 		bl	lv_obj_get_ext_attr
 588 0016 F860     		str	r0, [r7, #12]
 173:..\..\..\lvgl\version_6.1.2\lvgl\src\lv_objx/lv_lmeter.c ****     if(ext->scale_angle == angle && ext->line_cnt == line_cnt) return;
 589              		.loc 3 173 0
 590 0018 FB68     		ldr	r3, [r7, #12]
 591 001a 1B88     		ldrh	r3, [r3]
 592 001c 7A88     		ldrh	r2, [r7, #2]
 593 001e 9A42     		cmp	r2, r3
 594 0020 04D1     		bne	.L28
 595              		.loc 3 173 0 is_stmt 0 discriminator 1
 596 0022 FB68     		ldr	r3, [r7, #12]
 597 0024 9B88     		ldrh	r3, [r3, #4]
 598 0026 3A88     		ldrh	r2, [r7]
 599 0028 9A42     		cmp	r2, r3
 600 002a 09D0     		beq	.L30
 601              	.L28:
 174:..\..\..\lvgl\version_6.1.2\lvgl\src\lv_objx/lv_lmeter.c **** 
 175:..\..\..\lvgl\version_6.1.2\lvgl\src\lv_objx/lv_lmeter.c ****     ext->scale_angle = angle;
 602              		.loc 3 175 0 is_stmt 1
 603 002c FB68     		ldr	r3, [r7, #12]
 604 002e 7A88     		ldrh	r2, [r7, #2]	@ movhi
 605 0030 1A80     		strh	r2, [r3]	@ movhi
 176:..\..\..\lvgl\version_6.1.2\lvgl\src\lv_objx/lv_lmeter.c ****     ext->line_cnt    = line_cnt;
 606              		.loc 3 176 0
 607 0032 FB68     		ldr	r3, [r7, #12]
 608 0034 3A88     		ldrh	r2, [r7]	@ movhi
 609 0036 9A80     		strh	r2, [r3, #4]	@ movhi
 177:..\..\..\lvgl\version_6.1.2\lvgl\src\lv_objx/lv_lmeter.c **** 
 178:..\..\..\lvgl\version_6.1.2\lvgl\src\lv_objx/lv_lmeter.c ****     lv_obj_invalidate(lmeter);
 610              		.loc 3 178 0
 611 0038 7868     		ldr	r0, [r7, #4]
 612 003a FFF7FEFF 		bl	lv_obj_invalidate
 613 003e 00E0     		b	.L27
 614              	.L30:
 173:..\..\..\lvgl\version_6.1.2\lvgl\src\lv_objx/lv_lmeter.c **** 
 615              		.loc 3 173 0
 616 0040 00BF     		nop
 617              	.L27:
 179:..\..\..\lvgl\version_6.1.2\lvgl\src\lv_objx/lv_lmeter.c **** }
 618              		.loc 3 179 0
 619 0042 1037     		adds	r7, r7, #16
 620              		.cfi_def_cfa_offset 8
 621 0044 BD46     		mov	sp, r7
 622              		.cfi_def_cfa_register 13
 623              		@ sp needed
 624 0046 80BD     		pop	{r7, pc}
 625              		.cfi_endproc
 626              	.LFE36:
 627              		.size	lv_lmeter_set_scale, .-lv_lmeter_set_scale
 628              		.section	.text.lv_lmeter_set_angle_offset,"ax",%progbits
 629              		.align	2
ARM GAS  C:\Users\tmj32\AppData\Local\Temp\ccepMVRX.s 			page 26


 630              		.global	lv_lmeter_set_angle_offset
 631              		.thumb
 632              		.thumb_func
 633              		.type	lv_lmeter_set_angle_offset, %function
 634              	lv_lmeter_set_angle_offset:
 635              	.LFB37:
 180:..\..\..\lvgl\version_6.1.2\lvgl\src\lv_objx/lv_lmeter.c **** 
 181:..\..\..\lvgl\version_6.1.2\lvgl\src\lv_objx/lv_lmeter.c **** /**
 182:..\..\..\lvgl\version_6.1.2\lvgl\src\lv_objx/lv_lmeter.c ****  * Set the set an offset for the line meter's angles to rotate it.
 183:..\..\..\lvgl\version_6.1.2\lvgl\src\lv_objx/lv_lmeter.c ****  * @param lmeter pointer to a line meter object
 184:..\..\..\lvgl\version_6.1.2\lvgl\src\lv_objx/lv_lmeter.c ****  * @param angle angle where the meter will be facing (with its center)
 185:..\..\..\lvgl\version_6.1.2\lvgl\src\lv_objx/lv_lmeter.c ****  */
 186:..\..\..\lvgl\version_6.1.2\lvgl\src\lv_objx/lv_lmeter.c **** void lv_lmeter_set_angle_offset(lv_obj_t * lmeter, uint16_t angle)
 187:..\..\..\lvgl\version_6.1.2\lvgl\src\lv_objx/lv_lmeter.c **** {
 636              		.loc 3 187 0
 637              		.cfi_startproc
 638              		@ args = 0, pretend = 0, frame = 16
 639              		@ frame_needed = 1, uses_anonymous_args = 0
 640 0000 80B5     		push	{r7, lr}
 641              		.cfi_def_cfa_offset 8
 642              		.cfi_offset 7, -8
 643              		.cfi_offset 14, -4
 644 0002 84B0     		sub	sp, sp, #16
 645              		.cfi_def_cfa_offset 24
 646 0004 00AF     		add	r7, sp, #0
 647              		.cfi_def_cfa_register 7
 648 0006 7860     		str	r0, [r7, #4]
 649 0008 0B46     		mov	r3, r1
 650 000a 7B80     		strh	r3, [r7, #2]	@ movhi
 188:..\..\..\lvgl\version_6.1.2\lvgl\src\lv_objx/lv_lmeter.c ****     lv_lmeter_ext_t * ext = lv_obj_get_ext_attr(lmeter);
 651              		.loc 3 188 0
 652 000c 7868     		ldr	r0, [r7, #4]
 653 000e FFF7FEFF 		bl	lv_obj_get_ext_attr
 654 0012 F860     		str	r0, [r7, #12]
 189:..\..\..\lvgl\version_6.1.2\lvgl\src\lv_objx/lv_lmeter.c ****     if(ext->angle_ofs == angle) return;
 655              		.loc 3 189 0
 656 0014 FB68     		ldr	r3, [r7, #12]
 657 0016 5B88     		ldrh	r3, [r3, #2]
 658 0018 7A88     		ldrh	r2, [r7, #2]
 659 001a 9A42     		cmp	r2, r3
 660 001c 06D0     		beq	.L34
 190:..\..\..\lvgl\version_6.1.2\lvgl\src\lv_objx/lv_lmeter.c **** 
 191:..\..\..\lvgl\version_6.1.2\lvgl\src\lv_objx/lv_lmeter.c ****     ext->angle_ofs = angle;
 661              		.loc 3 191 0
 662 001e FB68     		ldr	r3, [r7, #12]
 663 0020 7A88     		ldrh	r2, [r7, #2]	@ movhi
 664 0022 5A80     		strh	r2, [r3, #2]	@ movhi
 192:..\..\..\lvgl\version_6.1.2\lvgl\src\lv_objx/lv_lmeter.c **** 
 193:..\..\..\lvgl\version_6.1.2\lvgl\src\lv_objx/lv_lmeter.c ****     lv_obj_invalidate(lmeter);
 665              		.loc 3 193 0
 666 0024 7868     		ldr	r0, [r7, #4]
 667 0026 FFF7FEFF 		bl	lv_obj_invalidate
 668 002a 00E0     		b	.L31
 669              	.L34:
 189:..\..\..\lvgl\version_6.1.2\lvgl\src\lv_objx/lv_lmeter.c **** 
 670              		.loc 3 189 0
 671 002c 00BF     		nop
ARM GAS  C:\Users\tmj32\AppData\Local\Temp\ccepMVRX.s 			page 27


 672              	.L31:
 194:..\..\..\lvgl\version_6.1.2\lvgl\src\lv_objx/lv_lmeter.c **** }
 673              		.loc 3 194 0
 674 002e 1037     		adds	r7, r7, #16
 675              		.cfi_def_cfa_offset 8
 676 0030 BD46     		mov	sp, r7
 677              		.cfi_def_cfa_register 13
 678              		@ sp needed
 679 0032 80BD     		pop	{r7, pc}
 680              		.cfi_endproc
 681              	.LFE37:
 682              		.size	lv_lmeter_set_angle_offset, .-lv_lmeter_set_angle_offset
 683              		.section	.text.lv_lmeter_get_value,"ax",%progbits
 684              		.align	2
 685              		.global	lv_lmeter_get_value
 686              		.thumb
 687              		.thumb_func
 688              		.type	lv_lmeter_get_value, %function
 689              	lv_lmeter_get_value:
 690              	.LFB38:
 195:..\..\..\lvgl\version_6.1.2\lvgl\src\lv_objx/lv_lmeter.c **** 
 196:..\..\..\lvgl\version_6.1.2\lvgl\src\lv_objx/lv_lmeter.c **** /*=====================
 197:..\..\..\lvgl\version_6.1.2\lvgl\src\lv_objx/lv_lmeter.c ****  * Getter functions
 198:..\..\..\lvgl\version_6.1.2\lvgl\src\lv_objx/lv_lmeter.c ****  *====================*/
 199:..\..\..\lvgl\version_6.1.2\lvgl\src\lv_objx/lv_lmeter.c **** 
 200:..\..\..\lvgl\version_6.1.2\lvgl\src\lv_objx/lv_lmeter.c **** /**
 201:..\..\..\lvgl\version_6.1.2\lvgl\src\lv_objx/lv_lmeter.c ****  * Get the value of a line meter
 202:..\..\..\lvgl\version_6.1.2\lvgl\src\lv_objx/lv_lmeter.c ****  * @param lmeter pointer to a line meter object
 203:..\..\..\lvgl\version_6.1.2\lvgl\src\lv_objx/lv_lmeter.c ****  * @return the value of the line meter
 204:..\..\..\lvgl\version_6.1.2\lvgl\src\lv_objx/lv_lmeter.c ****  */
 205:..\..\..\lvgl\version_6.1.2\lvgl\src\lv_objx/lv_lmeter.c **** int16_t lv_lmeter_get_value(const lv_obj_t * lmeter)
 206:..\..\..\lvgl\version_6.1.2\lvgl\src\lv_objx/lv_lmeter.c **** {
 691              		.loc 3 206 0
 692              		.cfi_startproc
 693              		@ args = 0, pretend = 0, frame = 16
 694              		@ frame_needed = 1, uses_anonymous_args = 0
 695 0000 80B5     		push	{r7, lr}
 696              		.cfi_def_cfa_offset 8
 697              		.cfi_offset 7, -8
 698              		.cfi_offset 14, -4
 699 0002 84B0     		sub	sp, sp, #16
 700              		.cfi_def_cfa_offset 24
 701 0004 00AF     		add	r7, sp, #0
 702              		.cfi_def_cfa_register 7
 703 0006 7860     		str	r0, [r7, #4]
 207:..\..\..\lvgl\version_6.1.2\lvgl\src\lv_objx/lv_lmeter.c ****     LV_ASSERT_OBJ(lmeter, LV_OBJX_NAME);
 208:..\..\..\lvgl\version_6.1.2\lvgl\src\lv_objx/lv_lmeter.c **** 
 209:..\..\..\lvgl\version_6.1.2\lvgl\src\lv_objx/lv_lmeter.c ****     lv_lmeter_ext_t * ext = lv_obj_get_ext_attr(lmeter);
 704              		.loc 3 209 0
 705 0008 7868     		ldr	r0, [r7, #4]
 706 000a FFF7FEFF 		bl	lv_obj_get_ext_attr
 707 000e F860     		str	r0, [r7, #12]
 210:..\..\..\lvgl\version_6.1.2\lvgl\src\lv_objx/lv_lmeter.c ****     return ext->cur_value;
 708              		.loc 3 210 0
 709 0010 FB68     		ldr	r3, [r7, #12]
 710 0012 B3F90630 		ldrsh	r3, [r3, #6]
 211:..\..\..\lvgl\version_6.1.2\lvgl\src\lv_objx/lv_lmeter.c **** }
ARM GAS  C:\Users\tmj32\AppData\Local\Temp\ccepMVRX.s 			page 28


 711              		.loc 3 211 0
 712 0016 1846     		mov	r0, r3
 713 0018 1037     		adds	r7, r7, #16
 714              		.cfi_def_cfa_offset 8
 715 001a BD46     		mov	sp, r7
 716              		.cfi_def_cfa_register 13
 717              		@ sp needed
 718 001c 80BD     		pop	{r7, pc}
 719              		.cfi_endproc
 720              	.LFE38:
 721              		.size	lv_lmeter_get_value, .-lv_lmeter_get_value
 722 001e 00BF     		.section	.text.lv_lmeter_get_min_value,"ax",%progbits
 723              		.align	2
 724              		.global	lv_lmeter_get_min_value
 725              		.thumb
 726              		.thumb_func
 727              		.type	lv_lmeter_get_min_value, %function
 728              	lv_lmeter_get_min_value:
 729              	.LFB39:
 212:..\..\..\lvgl\version_6.1.2\lvgl\src\lv_objx/lv_lmeter.c **** 
 213:..\..\..\lvgl\version_6.1.2\lvgl\src\lv_objx/lv_lmeter.c **** /**
 214:..\..\..\lvgl\version_6.1.2\lvgl\src\lv_objx/lv_lmeter.c ****  * Get the minimum value of a line meter
 215:..\..\..\lvgl\version_6.1.2\lvgl\src\lv_objx/lv_lmeter.c ****  * @param lmeter pointer to a line meter object
 216:..\..\..\lvgl\version_6.1.2\lvgl\src\lv_objx/lv_lmeter.c ****  * @return the minimum value of the line meter
 217:..\..\..\lvgl\version_6.1.2\lvgl\src\lv_objx/lv_lmeter.c ****  */
 218:..\..\..\lvgl\version_6.1.2\lvgl\src\lv_objx/lv_lmeter.c **** int16_t lv_lmeter_get_min_value(const lv_obj_t * lmeter)
 219:..\..\..\lvgl\version_6.1.2\lvgl\src\lv_objx/lv_lmeter.c **** {
 730              		.loc 3 219 0
 731              		.cfi_startproc
 732              		@ args = 0, pretend = 0, frame = 16
 733              		@ frame_needed = 1, uses_anonymous_args = 0
 734 0000 80B5     		push	{r7, lr}
 735              		.cfi_def_cfa_offset 8
 736              		.cfi_offset 7, -8
 737              		.cfi_offset 14, -4
 738 0002 84B0     		sub	sp, sp, #16
 739              		.cfi_def_cfa_offset 24
 740 0004 00AF     		add	r7, sp, #0
 741              		.cfi_def_cfa_register 7
 742 0006 7860     		str	r0, [r7, #4]
 220:..\..\..\lvgl\version_6.1.2\lvgl\src\lv_objx/lv_lmeter.c ****     LV_ASSERT_OBJ(lmeter, LV_OBJX_NAME);
 221:..\..\..\lvgl\version_6.1.2\lvgl\src\lv_objx/lv_lmeter.c **** 
 222:..\..\..\lvgl\version_6.1.2\lvgl\src\lv_objx/lv_lmeter.c ****     lv_lmeter_ext_t * ext = lv_obj_get_ext_attr(lmeter);
 743              		.loc 3 222 0
 744 0008 7868     		ldr	r0, [r7, #4]
 745 000a FFF7FEFF 		bl	lv_obj_get_ext_attr
 746 000e F860     		str	r0, [r7, #12]
 223:..\..\..\lvgl\version_6.1.2\lvgl\src\lv_objx/lv_lmeter.c ****     return ext->min_value;
 747              		.loc 3 223 0
 748 0010 FB68     		ldr	r3, [r7, #12]
 749 0012 B3F90830 		ldrsh	r3, [r3, #8]
 224:..\..\..\lvgl\version_6.1.2\lvgl\src\lv_objx/lv_lmeter.c **** }
 750              		.loc 3 224 0
 751 0016 1846     		mov	r0, r3
 752 0018 1037     		adds	r7, r7, #16
 753              		.cfi_def_cfa_offset 8
 754 001a BD46     		mov	sp, r7
ARM GAS  C:\Users\tmj32\AppData\Local\Temp\ccepMVRX.s 			page 29


 755              		.cfi_def_cfa_register 13
 756              		@ sp needed
 757 001c 80BD     		pop	{r7, pc}
 758              		.cfi_endproc
 759              	.LFE39:
 760              		.size	lv_lmeter_get_min_value, .-lv_lmeter_get_min_value
 761 001e 00BF     		.section	.text.lv_lmeter_get_max_value,"ax",%progbits
 762              		.align	2
 763              		.global	lv_lmeter_get_max_value
 764              		.thumb
 765              		.thumb_func
 766              		.type	lv_lmeter_get_max_value, %function
 767              	lv_lmeter_get_max_value:
 768              	.LFB40:
 225:..\..\..\lvgl\version_6.1.2\lvgl\src\lv_objx/lv_lmeter.c **** 
 226:..\..\..\lvgl\version_6.1.2\lvgl\src\lv_objx/lv_lmeter.c **** /**
 227:..\..\..\lvgl\version_6.1.2\lvgl\src\lv_objx/lv_lmeter.c ****  * Get the maximum value of a line meter
 228:..\..\..\lvgl\version_6.1.2\lvgl\src\lv_objx/lv_lmeter.c ****  * @param lmeter pointer to a line meter object
 229:..\..\..\lvgl\version_6.1.2\lvgl\src\lv_objx/lv_lmeter.c ****  * @return the maximum value of the line meter
 230:..\..\..\lvgl\version_6.1.2\lvgl\src\lv_objx/lv_lmeter.c ****  */
 231:..\..\..\lvgl\version_6.1.2\lvgl\src\lv_objx/lv_lmeter.c **** int16_t lv_lmeter_get_max_value(const lv_obj_t * lmeter)
 232:..\..\..\lvgl\version_6.1.2\lvgl\src\lv_objx/lv_lmeter.c **** {
 769              		.loc 3 232 0
 770              		.cfi_startproc
 771              		@ args = 0, pretend = 0, frame = 16
 772              		@ frame_needed = 1, uses_anonymous_args = 0
 773 0000 80B5     		push	{r7, lr}
 774              		.cfi_def_cfa_offset 8
 775              		.cfi_offset 7, -8
 776              		.cfi_offset 14, -4
 777 0002 84B0     		sub	sp, sp, #16
 778              		.cfi_def_cfa_offset 24
 779 0004 00AF     		add	r7, sp, #0
 780              		.cfi_def_cfa_register 7
 781 0006 7860     		str	r0, [r7, #4]
 233:..\..\..\lvgl\version_6.1.2\lvgl\src\lv_objx/lv_lmeter.c ****     LV_ASSERT_OBJ(lmeter, LV_OBJX_NAME);
 234:..\..\..\lvgl\version_6.1.2\lvgl\src\lv_objx/lv_lmeter.c **** 
 235:..\..\..\lvgl\version_6.1.2\lvgl\src\lv_objx/lv_lmeter.c ****     lv_lmeter_ext_t * ext = lv_obj_get_ext_attr(lmeter);
 782              		.loc 3 235 0
 783 0008 7868     		ldr	r0, [r7, #4]
 784 000a FFF7FEFF 		bl	lv_obj_get_ext_attr
 785 000e F860     		str	r0, [r7, #12]
 236:..\..\..\lvgl\version_6.1.2\lvgl\src\lv_objx/lv_lmeter.c ****     return ext->max_value;
 786              		.loc 3 236 0
 787 0010 FB68     		ldr	r3, [r7, #12]
 788 0012 B3F90A30 		ldrsh	r3, [r3, #10]
 237:..\..\..\lvgl\version_6.1.2\lvgl\src\lv_objx/lv_lmeter.c **** }
 789              		.loc 3 237 0
 790 0016 1846     		mov	r0, r3
 791 0018 1037     		adds	r7, r7, #16
 792              		.cfi_def_cfa_offset 8
 793 001a BD46     		mov	sp, r7
 794              		.cfi_def_cfa_register 13
 795              		@ sp needed
 796 001c 80BD     		pop	{r7, pc}
 797              		.cfi_endproc
 798              	.LFE40:
ARM GAS  C:\Users\tmj32\AppData\Local\Temp\ccepMVRX.s 			page 30


 799              		.size	lv_lmeter_get_max_value, .-lv_lmeter_get_max_value
 800 001e 00BF     		.section	.text.lv_lmeter_get_line_count,"ax",%progbits
 801              		.align	2
 802              		.global	lv_lmeter_get_line_count
 803              		.thumb
 804              		.thumb_func
 805              		.type	lv_lmeter_get_line_count, %function
 806              	lv_lmeter_get_line_count:
 807              	.LFB41:
 238:..\..\..\lvgl\version_6.1.2\lvgl\src\lv_objx/lv_lmeter.c **** 
 239:..\..\..\lvgl\version_6.1.2\lvgl\src\lv_objx/lv_lmeter.c **** /**
 240:..\..\..\lvgl\version_6.1.2\lvgl\src\lv_objx/lv_lmeter.c ****  * Get the scale number of a line meter
 241:..\..\..\lvgl\version_6.1.2\lvgl\src\lv_objx/lv_lmeter.c ****  * @param lmeter pointer to a line meter object
 242:..\..\..\lvgl\version_6.1.2\lvgl\src\lv_objx/lv_lmeter.c ****  * @return number of the scale units
 243:..\..\..\lvgl\version_6.1.2\lvgl\src\lv_objx/lv_lmeter.c ****  */
 244:..\..\..\lvgl\version_6.1.2\lvgl\src\lv_objx/lv_lmeter.c **** uint16_t lv_lmeter_get_line_count(const lv_obj_t * lmeter)
 245:..\..\..\lvgl\version_6.1.2\lvgl\src\lv_objx/lv_lmeter.c **** {
 808              		.loc 3 245 0
 809              		.cfi_startproc
 810              		@ args = 0, pretend = 0, frame = 16
 811              		@ frame_needed = 1, uses_anonymous_args = 0
 812 0000 80B5     		push	{r7, lr}
 813              		.cfi_def_cfa_offset 8
 814              		.cfi_offset 7, -8
 815              		.cfi_offset 14, -4
 816 0002 84B0     		sub	sp, sp, #16
 817              		.cfi_def_cfa_offset 24
 818 0004 00AF     		add	r7, sp, #0
 819              		.cfi_def_cfa_register 7
 820 0006 7860     		str	r0, [r7, #4]
 246:..\..\..\lvgl\version_6.1.2\lvgl\src\lv_objx/lv_lmeter.c ****     LV_ASSERT_OBJ(lmeter, LV_OBJX_NAME);
 247:..\..\..\lvgl\version_6.1.2\lvgl\src\lv_objx/lv_lmeter.c **** 
 248:..\..\..\lvgl\version_6.1.2\lvgl\src\lv_objx/lv_lmeter.c ****     lv_lmeter_ext_t * ext = lv_obj_get_ext_attr(lmeter);
 821              		.loc 3 248 0
 822 0008 7868     		ldr	r0, [r7, #4]
 823 000a FFF7FEFF 		bl	lv_obj_get_ext_attr
 824 000e F860     		str	r0, [r7, #12]
 249:..\..\..\lvgl\version_6.1.2\lvgl\src\lv_objx/lv_lmeter.c ****     return ext->line_cnt;
 825              		.loc 3 249 0
 826 0010 FB68     		ldr	r3, [r7, #12]
 827 0012 9B88     		ldrh	r3, [r3, #4]
 250:..\..\..\lvgl\version_6.1.2\lvgl\src\lv_objx/lv_lmeter.c **** }
 828              		.loc 3 250 0
 829 0014 1846     		mov	r0, r3
 830 0016 1037     		adds	r7, r7, #16
 831              		.cfi_def_cfa_offset 8
 832 0018 BD46     		mov	sp, r7
 833              		.cfi_def_cfa_register 13
 834              		@ sp needed
 835 001a 80BD     		pop	{r7, pc}
 836              		.cfi_endproc
 837              	.LFE41:
 838              		.size	lv_lmeter_get_line_count, .-lv_lmeter_get_line_count
 839              		.section	.text.lv_lmeter_get_scale_angle,"ax",%progbits
 840              		.align	2
 841              		.global	lv_lmeter_get_scale_angle
 842              		.thumb
ARM GAS  C:\Users\tmj32\AppData\Local\Temp\ccepMVRX.s 			page 31


 843              		.thumb_func
 844              		.type	lv_lmeter_get_scale_angle, %function
 845              	lv_lmeter_get_scale_angle:
 846              	.LFB42:
 251:..\..\..\lvgl\version_6.1.2\lvgl\src\lv_objx/lv_lmeter.c **** 
 252:..\..\..\lvgl\version_6.1.2\lvgl\src\lv_objx/lv_lmeter.c **** /**
 253:..\..\..\lvgl\version_6.1.2\lvgl\src\lv_objx/lv_lmeter.c ****  * Get the scale angle of a line meter
 254:..\..\..\lvgl\version_6.1.2\lvgl\src\lv_objx/lv_lmeter.c ****  * @param lmeter pointer to a line meter object
 255:..\..\..\lvgl\version_6.1.2\lvgl\src\lv_objx/lv_lmeter.c ****  * @return angle_ofs of the scale
 256:..\..\..\lvgl\version_6.1.2\lvgl\src\lv_objx/lv_lmeter.c ****  */
 257:..\..\..\lvgl\version_6.1.2\lvgl\src\lv_objx/lv_lmeter.c **** uint16_t lv_lmeter_get_scale_angle(const lv_obj_t * lmeter)
 258:..\..\..\lvgl\version_6.1.2\lvgl\src\lv_objx/lv_lmeter.c **** {
 847              		.loc 3 258 0
 848              		.cfi_startproc
 849              		@ args = 0, pretend = 0, frame = 16
 850              		@ frame_needed = 1, uses_anonymous_args = 0
 851 0000 80B5     		push	{r7, lr}
 852              		.cfi_def_cfa_offset 8
 853              		.cfi_offset 7, -8
 854              		.cfi_offset 14, -4
 855 0002 84B0     		sub	sp, sp, #16
 856              		.cfi_def_cfa_offset 24
 857 0004 00AF     		add	r7, sp, #0
 858              		.cfi_def_cfa_register 7
 859 0006 7860     		str	r0, [r7, #4]
 259:..\..\..\lvgl\version_6.1.2\lvgl\src\lv_objx/lv_lmeter.c ****     LV_ASSERT_OBJ(lmeter, LV_OBJX_NAME);
 260:..\..\..\lvgl\version_6.1.2\lvgl\src\lv_objx/lv_lmeter.c **** 
 261:..\..\..\lvgl\version_6.1.2\lvgl\src\lv_objx/lv_lmeter.c ****     lv_lmeter_ext_t * ext = lv_obj_get_ext_attr(lmeter);
 860              		.loc 3 261 0
 861 0008 7868     		ldr	r0, [r7, #4]
 862 000a FFF7FEFF 		bl	lv_obj_get_ext_attr
 863 000e F860     		str	r0, [r7, #12]
 262:..\..\..\lvgl\version_6.1.2\lvgl\src\lv_objx/lv_lmeter.c ****     return ext->scale_angle;
 864              		.loc 3 262 0
 865 0010 FB68     		ldr	r3, [r7, #12]
 866 0012 1B88     		ldrh	r3, [r3]
 263:..\..\..\lvgl\version_6.1.2\lvgl\src\lv_objx/lv_lmeter.c **** }
 867              		.loc 3 263 0
 868 0014 1846     		mov	r0, r3
 869 0016 1037     		adds	r7, r7, #16
 870              		.cfi_def_cfa_offset 8
 871 0018 BD46     		mov	sp, r7
 872              		.cfi_def_cfa_register 13
 873              		@ sp needed
 874 001a 80BD     		pop	{r7, pc}
 875              		.cfi_endproc
 876              	.LFE42:
 877              		.size	lv_lmeter_get_scale_angle, .-lv_lmeter_get_scale_angle
 878              		.section	.text.lv_lmeter_get_angle_offset,"ax",%progbits
 879              		.align	2
 880              		.global	lv_lmeter_get_angle_offset
 881              		.thumb
 882              		.thumb_func
 883              		.type	lv_lmeter_get_angle_offset, %function
 884              	lv_lmeter_get_angle_offset:
 885              	.LFB43:
 264:..\..\..\lvgl\version_6.1.2\lvgl\src\lv_objx/lv_lmeter.c **** 
ARM GAS  C:\Users\tmj32\AppData\Local\Temp\ccepMVRX.s 			page 32


 265:..\..\..\lvgl\version_6.1.2\lvgl\src\lv_objx/lv_lmeter.c **** /**
 266:..\..\..\lvgl\version_6.1.2\lvgl\src\lv_objx/lv_lmeter.c ****  * get the set an offset for the line meter.
 267:..\..\..\lvgl\version_6.1.2\lvgl\src\lv_objx/lv_lmeter.c ****  * @param lmeter pointer to a line meter object
 268:..\..\..\lvgl\version_6.1.2\lvgl\src\lv_objx/lv_lmeter.c ****  * @return angle offset (0..360)
 269:..\..\..\lvgl\version_6.1.2\lvgl\src\lv_objx/lv_lmeter.c ****  */
 270:..\..\..\lvgl\version_6.1.2\lvgl\src\lv_objx/lv_lmeter.c **** uint16_t lv_lmeter_get_angle_offset(lv_obj_t * lmeter)
 271:..\..\..\lvgl\version_6.1.2\lvgl\src\lv_objx/lv_lmeter.c **** {
 886              		.loc 3 271 0
 887              		.cfi_startproc
 888              		@ args = 0, pretend = 0, frame = 16
 889              		@ frame_needed = 1, uses_anonymous_args = 0
 890 0000 80B5     		push	{r7, lr}
 891              		.cfi_def_cfa_offset 8
 892              		.cfi_offset 7, -8
 893              		.cfi_offset 14, -4
 894 0002 84B0     		sub	sp, sp, #16
 895              		.cfi_def_cfa_offset 24
 896 0004 00AF     		add	r7, sp, #0
 897              		.cfi_def_cfa_register 7
 898 0006 7860     		str	r0, [r7, #4]
 272:..\..\..\lvgl\version_6.1.2\lvgl\src\lv_objx/lv_lmeter.c ****     lv_lmeter_ext_t * ext = lv_obj_get_ext_attr(lmeter);
 899              		.loc 3 272 0
 900 0008 7868     		ldr	r0, [r7, #4]
 901 000a FFF7FEFF 		bl	lv_obj_get_ext_attr
 902 000e F860     		str	r0, [r7, #12]
 273:..\..\..\lvgl\version_6.1.2\lvgl\src\lv_objx/lv_lmeter.c **** 
 274:..\..\..\lvgl\version_6.1.2\lvgl\src\lv_objx/lv_lmeter.c ****     return ext->angle_ofs;
 903              		.loc 3 274 0
 904 0010 FB68     		ldr	r3, [r7, #12]
 905 0012 5B88     		ldrh	r3, [r3, #2]
 275:..\..\..\lvgl\version_6.1.2\lvgl\src\lv_objx/lv_lmeter.c **** }
 906              		.loc 3 275 0
 907 0014 1846     		mov	r0, r3
 908 0016 1037     		adds	r7, r7, #16
 909              		.cfi_def_cfa_offset 8
 910 0018 BD46     		mov	sp, r7
 911              		.cfi_def_cfa_register 13
 912              		@ sp needed
 913 001a 80BD     		pop	{r7, pc}
 914              		.cfi_endproc
 915              	.LFE43:
 916              		.size	lv_lmeter_get_angle_offset, .-lv_lmeter_get_angle_offset
 917              		.section	.text.lv_lmeter_design,"ax",%progbits
 918              		.align	2
 919              		.thumb
 920              		.thumb_func
 921              		.type	lv_lmeter_design, %function
 922              	lv_lmeter_design:
 923              	.LFB44:
 276:..\..\..\lvgl\version_6.1.2\lvgl\src\lv_objx/lv_lmeter.c **** /**********************
 277:..\..\..\lvgl\version_6.1.2\lvgl\src\lv_objx/lv_lmeter.c ****  *   STATIC FUNCTIONS
 278:..\..\..\lvgl\version_6.1.2\lvgl\src\lv_objx/lv_lmeter.c ****  **********************/
 279:..\..\..\lvgl\version_6.1.2\lvgl\src\lv_objx/lv_lmeter.c **** 
 280:..\..\..\lvgl\version_6.1.2\lvgl\src\lv_objx/lv_lmeter.c **** /**
 281:..\..\..\lvgl\version_6.1.2\lvgl\src\lv_objx/lv_lmeter.c ****  * Handle the drawing related tasks of the line meters
 282:..\..\..\lvgl\version_6.1.2\lvgl\src\lv_objx/lv_lmeter.c ****  * @param lmeter pointer to an object
 283:..\..\..\lvgl\version_6.1.2\lvgl\src\lv_objx/lv_lmeter.c ****  * @param mask the object will be drawn only in this area
ARM GAS  C:\Users\tmj32\AppData\Local\Temp\ccepMVRX.s 			page 33


 284:..\..\..\lvgl\version_6.1.2\lvgl\src\lv_objx/lv_lmeter.c ****  * @param mode LV_DESIGN_COVER_CHK: only check if the object fully covers the 'mask_p' area
 285:..\..\..\lvgl\version_6.1.2\lvgl\src\lv_objx/lv_lmeter.c ****  *                                  (return 'true' if yes)
 286:..\..\..\lvgl\version_6.1.2\lvgl\src\lv_objx/lv_lmeter.c ****  *             LV_DESIGN_DRAW: draw the object (always return 'true')
 287:..\..\..\lvgl\version_6.1.2\lvgl\src\lv_objx/lv_lmeter.c ****  *             LV_DESIGN_DRAW_POST: drawing after every children are drawn
 288:..\..\..\lvgl\version_6.1.2\lvgl\src\lv_objx/lv_lmeter.c ****  * @param return true/false, depends on 'mode'
 289:..\..\..\lvgl\version_6.1.2\lvgl\src\lv_objx/lv_lmeter.c ****  */
 290:..\..\..\lvgl\version_6.1.2\lvgl\src\lv_objx/lv_lmeter.c **** static bool lv_lmeter_design(lv_obj_t * lmeter, const lv_area_t * mask, lv_design_mode_t mode)
 291:..\..\..\lvgl\version_6.1.2\lvgl\src\lv_objx/lv_lmeter.c **** {
 924              		.loc 3 291 0
 925              		.cfi_startproc
 926              		@ args = 0, pretend = 0, frame = 144
 927              		@ frame_needed = 1, uses_anonymous_args = 0
 928 0000 80B5     		push	{r7, lr}
 929              		.cfi_def_cfa_offset 8
 930              		.cfi_offset 7, -8
 931              		.cfi_offset 14, -4
 932 0002 A6B0     		sub	sp, sp, #152
 933              		.cfi_def_cfa_offset 160
 934 0004 02AF     		add	r7, sp, #8
 935              		.cfi_def_cfa 7, 152
 936 0006 F860     		str	r0, [r7, #12]
 937 0008 B960     		str	r1, [r7, #8]
 938 000a 1346     		mov	r3, r2
 939 000c FB71     		strb	r3, [r7, #7]
 292:..\..\..\lvgl\version_6.1.2\lvgl\src\lv_objx/lv_lmeter.c ****     /*Return false if the object is not covers the mask_p area*/
 293:..\..\..\lvgl\version_6.1.2\lvgl\src\lv_objx/lv_lmeter.c ****     if(mode == LV_DESIGN_COVER_CHK) {
 940              		.loc 3 293 0
 941 000e FB79     		ldrb	r3, [r7, #7]	@ zero_extendqisi2
 942 0010 022B     		cmp	r3, #2
 943 0012 01D1     		bne	.L48
 294:..\..\..\lvgl\version_6.1.2\lvgl\src\lv_objx/lv_lmeter.c ****         return false;
 944              		.loc 3 294 0
 945 0014 0023     		movs	r3, #0
 946 0016 69E1     		b	.L49
 947              	.L48:
 295:..\..\..\lvgl\version_6.1.2\lvgl\src\lv_objx/lv_lmeter.c ****     }
 296:..\..\..\lvgl\version_6.1.2\lvgl\src\lv_objx/lv_lmeter.c ****     /*Draw the object*/
 297:..\..\..\lvgl\version_6.1.2\lvgl\src\lv_objx/lv_lmeter.c ****     else if(mode == LV_DESIGN_DRAW_MAIN) {
 948              		.loc 3 297 0
 949 0018 FB79     		ldrb	r3, [r7, #7]	@ zero_extendqisi2
 950 001a 002B     		cmp	r3, #0
 951 001c 40F06581 		bne	.L50
 952              	.LBB4:
 298:..\..\..\lvgl\version_6.1.2\lvgl\src\lv_objx/lv_lmeter.c ****         lv_lmeter_ext_t * ext    = lv_obj_get_ext_attr(lmeter);
 953              		.loc 3 298 0
 954 0020 F868     		ldr	r0, [r7, #12]
 955 0022 FFF7FEFF 		bl	lv_obj_get_ext_attr
 956 0026 C7F88800 		str	r0, [r7, #136]
 299:..\..\..\lvgl\version_6.1.2\lvgl\src\lv_objx/lv_lmeter.c ****         const lv_style_t * style = lv_obj_get_style(lmeter);
 957              		.loc 3 299 0
 958 002a F868     		ldr	r0, [r7, #12]
 959 002c FFF7FEFF 		bl	lv_obj_get_style
 960 0030 C7F88400 		str	r0, [r7, #132]
 300:..\..\..\lvgl\version_6.1.2\lvgl\src\lv_objx/lv_lmeter.c ****         lv_opa_t opa_scale       = lv_obj_get_opa_scale(lmeter);
 961              		.loc 3 300 0
 962 0034 F868     		ldr	r0, [r7, #12]
 963 0036 FFF7FEFF 		bl	lv_obj_get_opa_scale
ARM GAS  C:\Users\tmj32\AppData\Local\Temp\ccepMVRX.s 			page 34


 964 003a 0346     		mov	r3, r0
 965 003c 87F88330 		strb	r3, [r7, #131]
 301:..\..\..\lvgl\version_6.1.2\lvgl\src\lv_objx/lv_lmeter.c ****         lv_style_t style_tmp;
 302:..\..\..\lvgl\version_6.1.2\lvgl\src\lv_objx/lv_lmeter.c ****         lv_style_copy(&style_tmp, style);
 966              		.loc 3 302 0
 967 0040 07F11403 		add	r3, r7, #20
 968 0044 D7F88410 		ldr	r1, [r7, #132]
 969 0048 1846     		mov	r0, r3
 970 004a FFF7FEFF 		bl	lv_style_copy
 303:..\..\..\lvgl\version_6.1.2\lvgl\src\lv_objx/lv_lmeter.c **** 
 304:..\..\..\lvgl\version_6.1.2\lvgl\src\lv_objx/lv_lmeter.c **** #if LV_USE_GROUP
 305:..\..\..\lvgl\version_6.1.2\lvgl\src\lv_objx/lv_lmeter.c ****         lv_group_t * g = lv_obj_get_group(lmeter);
 306:..\..\..\lvgl\version_6.1.2\lvgl\src\lv_objx/lv_lmeter.c ****         if(lv_group_get_focused(g) == lmeter) {
 307:..\..\..\lvgl\version_6.1.2\lvgl\src\lv_objx/lv_lmeter.c ****             style_tmp.line.width += 1;
 308:..\..\..\lvgl\version_6.1.2\lvgl\src\lv_objx/lv_lmeter.c ****         }
 309:..\..\..\lvgl\version_6.1.2\lvgl\src\lv_objx/lv_lmeter.c **** #endif
 310:..\..\..\lvgl\version_6.1.2\lvgl\src\lv_objx/lv_lmeter.c **** 
 311:..\..\..\lvgl\version_6.1.2\lvgl\src\lv_objx/lv_lmeter.c ****         lv_coord_t r_out = lv_obj_get_width(lmeter) / 2;
 971              		.loc 3 311 0
 972 004e F868     		ldr	r0, [r7, #12]
 973 0050 FFF7FEFF 		bl	lv_obj_get_width
 974 0054 0346     		mov	r3, r0
 975 0056 DA0F     		lsrs	r2, r3, #31
 976 0058 1344     		add	r3, r3, r2
 977 005a 5B10     		asrs	r3, r3, #1
 978 005c A7F88030 		strh	r3, [r7, #128]	@ movhi
 312:..\..\..\lvgl\version_6.1.2\lvgl\src\lv_objx/lv_lmeter.c ****         lv_coord_t r_in  = r_out - style->body.padding.left;
 979              		.loc 3 312 0
 980 0060 B7F88020 		ldrh	r2, [r7, #128]
 981 0064 D7F88430 		ldr	r3, [r7, #132]
 982 0068 B3F92430 		ldrsh	r3, [r3, #36]
 983 006c 9BB2     		uxth	r3, r3
 984 006e D31A     		subs	r3, r2, r3
 985 0070 9BB2     		uxth	r3, r3
 986 0072 A7F88E30 		strh	r3, [r7, #142]	@ movhi
 313:..\..\..\lvgl\version_6.1.2\lvgl\src\lv_objx/lv_lmeter.c ****         if(r_in < 1) r_in = 1;
 987              		.loc 3 313 0
 988 0076 B7F98E30 		ldrsh	r3, [r7, #142]
 989 007a 002B     		cmp	r3, #0
 990 007c 02DC     		bgt	.L51
 991              		.loc 3 313 0 is_stmt 0 discriminator 1
 992 007e 0123     		movs	r3, #1
 993 0080 A7F88E30 		strh	r3, [r7, #142]	@ movhi
 994              	.L51:
 314:..\..\..\lvgl\version_6.1.2\lvgl\src\lv_objx/lv_lmeter.c **** 
 315:..\..\..\lvgl\version_6.1.2\lvgl\src\lv_objx/lv_lmeter.c ****         lv_coord_t x_ofs  = lv_obj_get_width(lmeter) / 2 + lmeter->coords.x1;
 995              		.loc 3 315 0 is_stmt 1
 996 0084 F868     		ldr	r0, [r7, #12]
 997 0086 FFF7FEFF 		bl	lv_obj_get_width
 998 008a 0346     		mov	r3, r0
 999 008c DA0F     		lsrs	r2, r3, #31
 1000 008e 1344     		add	r3, r3, r2
 1001 0090 5B10     		asrs	r3, r3, #1
 1002 0092 1BB2     		sxth	r3, r3
 1003 0094 9AB2     		uxth	r2, r3
 1004 0096 FB68     		ldr	r3, [r7, #12]
 1005 0098 B3F91030 		ldrsh	r3, [r3, #16]
ARM GAS  C:\Users\tmj32\AppData\Local\Temp\ccepMVRX.s 			page 35


 1006 009c 9BB2     		uxth	r3, r3
 1007 009e 1344     		add	r3, r3, r2
 1008 00a0 9BB2     		uxth	r3, r3
 1009 00a2 A7F87E30 		strh	r3, [r7, #126]	@ movhi
 316:..\..\..\lvgl\version_6.1.2\lvgl\src\lv_objx/lv_lmeter.c ****         lv_coord_t y_ofs  = lv_obj_get_height(lmeter) / 2 + lmeter->coords.y1;
 1010              		.loc 3 316 0
 1011 00a6 F868     		ldr	r0, [r7, #12]
 1012 00a8 FFF7FEFF 		bl	lv_obj_get_height
 1013 00ac 0346     		mov	r3, r0
 1014 00ae DA0F     		lsrs	r2, r3, #31
 1015 00b0 1344     		add	r3, r3, r2
 1016 00b2 5B10     		asrs	r3, r3, #1
 1017 00b4 1BB2     		sxth	r3, r3
 1018 00b6 9AB2     		uxth	r2, r3
 1019 00b8 FB68     		ldr	r3, [r7, #12]
 1020 00ba B3F91230 		ldrsh	r3, [r3, #18]
 1021 00be 9BB2     		uxth	r3, r3
 1022 00c0 1344     		add	r3, r3, r2
 1023 00c2 9BB2     		uxth	r3, r3
 1024 00c4 A7F87C30 		strh	r3, [r7, #124]	@ movhi
 317:..\..\..\lvgl\version_6.1.2\lvgl\src\lv_objx/lv_lmeter.c ****         int16_t angle_ofs = ext->angle_ofs + 90 + (360 - ext->scale_angle) / 2;
 1025              		.loc 3 317 0
 1026 00c8 D7F88830 		ldr	r3, [r7, #136]
 1027 00cc 5A88     		ldrh	r2, [r3, #2]
 1028 00ce D7F88830 		ldr	r3, [r7, #136]
 1029 00d2 1B88     		ldrh	r3, [r3]
 1030 00d4 C3F5B473 		rsb	r3, r3, #360
 1031 00d8 D90F     		lsrs	r1, r3, #31
 1032 00da 0B44     		add	r3, r3, r1
 1033 00dc 5B10     		asrs	r3, r3, #1
 1034 00de 9BB2     		uxth	r3, r3
 1035 00e0 1344     		add	r3, r3, r2
 1036 00e2 9BB2     		uxth	r3, r3
 1037 00e4 5A33     		adds	r3, r3, #90
 1038 00e6 9BB2     		uxth	r3, r3
 1039 00e8 A7F87A30 		strh	r3, [r7, #122]	@ movhi
 318:..\..\..\lvgl\version_6.1.2\lvgl\src\lv_objx/lv_lmeter.c ****         int16_t level =
 319:..\..\..\lvgl\version_6.1.2\lvgl\src\lv_objx/lv_lmeter.c ****             (int32_t)((int32_t)(ext->cur_value - ext->min_value) * ext->line_cnt) / (ext->max_value
 1040              		.loc 3 319 0
 1041 00ec D7F88830 		ldr	r3, [r7, #136]
 1042 00f0 B3F90630 		ldrsh	r3, [r3, #6]
 1043 00f4 1A46     		mov	r2, r3
 1044 00f6 D7F88830 		ldr	r3, [r7, #136]
 1045 00fa B3F90830 		ldrsh	r3, [r3, #8]
 1046 00fe D31A     		subs	r3, r2, r3
 1047 0100 D7F88820 		ldr	r2, [r7, #136]
 1048 0104 9288     		ldrh	r2, [r2, #4]
 1049 0106 02FB03F2 		mul	r2, r2, r3
 1050 010a D7F88830 		ldr	r3, [r7, #136]
 1051 010e B3F90A30 		ldrsh	r3, [r3, #10]
 1052 0112 1946     		mov	r1, r3
 1053 0114 D7F88830 		ldr	r3, [r7, #136]
 1054 0118 B3F90830 		ldrsh	r3, [r3, #8]
 1055 011c CB1A     		subs	r3, r1, r3
 1056 011e 92FBF3F3 		sdiv	r3, r2, r3
 318:..\..\..\lvgl\version_6.1.2\lvgl\src\lv_objx/lv_lmeter.c ****         int16_t level =
 1057              		.loc 3 318 0
ARM GAS  C:\Users\tmj32\AppData\Local\Temp\ccepMVRX.s 			page 36


 1058 0122 A7F87830 		strh	r3, [r7, #120]	@ movhi
 320:..\..\..\lvgl\version_6.1.2\lvgl\src\lv_objx/lv_lmeter.c ****         uint8_t i;
 321:..\..\..\lvgl\version_6.1.2\lvgl\src\lv_objx/lv_lmeter.c **** 
 322:..\..\..\lvgl\version_6.1.2\lvgl\src\lv_objx/lv_lmeter.c ****         style_tmp.line.color = style->body.main_color;
 1059              		.loc 3 322 0
 1060 0126 D7F88430 		ldr	r3, [r7, #132]
 1061 012a 5B68     		ldr	r3, [r3, #4]
 1062 012c FB65     		str	r3, [r7, #92]
 323:..\..\..\lvgl\version_6.1.2\lvgl\src\lv_objx/lv_lmeter.c **** 
 324:..\..\..\lvgl\version_6.1.2\lvgl\src\lv_objx/lv_lmeter.c ****         /*Calculate every coordinate in a bigger size to make rounding later*/
 325:..\..\..\lvgl\version_6.1.2\lvgl\src\lv_objx/lv_lmeter.c ****         r_out = r_out << LV_LMETER_LINE_UPSCALE;
 1063              		.loc 3 325 0
 1064 012e B7F98030 		ldrsh	r3, [r7, #128]
 1065 0132 5B01     		lsls	r3, r3, #5
 1066 0134 A7F88030 		strh	r3, [r7, #128]	@ movhi
 326:..\..\..\lvgl\version_6.1.2\lvgl\src\lv_objx/lv_lmeter.c ****         r_in  = r_in << LV_LMETER_LINE_UPSCALE;
 1067              		.loc 3 326 0
 1068 0138 B7F98E30 		ldrsh	r3, [r7, #142]
 1069 013c 5B01     		lsls	r3, r3, #5
 1070 013e A7F88E30 		strh	r3, [r7, #142]	@ movhi
 327:..\..\..\lvgl\version_6.1.2\lvgl\src\lv_objx/lv_lmeter.c **** 
 328:..\..\..\lvgl\version_6.1.2\lvgl\src\lv_objx/lv_lmeter.c ****         for(i = 0; i < ext->line_cnt; i++) {
 1071              		.loc 3 328 0
 1072 0142 0023     		movs	r3, #0
 1073 0144 87F88D30 		strb	r3, [r7, #141]
 1074 0148 C6E0     		b	.L52
 1075              	.L55:
 1076              	.LBB5:
 329:..\..\..\lvgl\version_6.1.2\lvgl\src\lv_objx/lv_lmeter.c ****             /*Calculate the position a scale label*/
 330:..\..\..\lvgl\version_6.1.2\lvgl\src\lv_objx/lv_lmeter.c ****             int16_t angle = (i * ext->scale_angle) / (ext->line_cnt - 1) + angle_ofs;
 1077              		.loc 3 330 0
 1078 014a 97F88D30 		ldrb	r3, [r7, #141]	@ zero_extendqisi2
 1079 014e D7F88820 		ldr	r2, [r7, #136]
 1080 0152 1288     		ldrh	r2, [r2]
 1081 0154 02FB03F2 		mul	r2, r2, r3
 1082 0158 D7F88830 		ldr	r3, [r7, #136]
 1083 015c 9B88     		ldrh	r3, [r3, #4]
 1084 015e 013B     		subs	r3, r3, #1
 1085 0160 92FBF3F3 		sdiv	r3, r2, r3
 1086 0164 9AB2     		uxth	r2, r3
 1087 0166 B7F87A30 		ldrh	r3, [r7, #122]
 1088 016a 1344     		add	r3, r3, r2
 1089 016c 9BB2     		uxth	r3, r3
 1090 016e A7F87630 		strh	r3, [r7, #118]	@ movhi
 331:..\..\..\lvgl\version_6.1.2\lvgl\src\lv_objx/lv_lmeter.c **** 
 332:..\..\..\lvgl\version_6.1.2\lvgl\src\lv_objx/lv_lmeter.c ****             lv_coord_t y_out = (int32_t)((int32_t)lv_trigo_sin(angle) * r_out) >> LV_TRIGO_SHIFT;
 1091              		.loc 3 332 0
 1092 0172 B7F97630 		ldrsh	r3, [r7, #118]
 1093 0176 1846     		mov	r0, r3
 1094 0178 FFF7FEFF 		bl	lv_trigo_sin
 1095 017c 0346     		mov	r3, r0
 1096 017e 1A46     		mov	r2, r3
 1097 0180 B7F98030 		ldrsh	r3, [r7, #128]
 1098 0184 03FB02F3 		mul	r3, r3, r2
 1099 0188 DB13     		asrs	r3, r3, #15
 1100 018a A7F87430 		strh	r3, [r7, #116]	@ movhi
 333:..\..\..\lvgl\version_6.1.2\lvgl\src\lv_objx/lv_lmeter.c ****             lv_coord_t x_out = (int32_t)((int32_t)lv_trigo_sin(angle + 90) * r_out) >> LV_TRIGO_SHI
ARM GAS  C:\Users\tmj32\AppData\Local\Temp\ccepMVRX.s 			page 37


 1101              		.loc 3 333 0
 1102 018e B7F87630 		ldrh	r3, [r7, #118]
 1103 0192 5A33     		adds	r3, r3, #90
 1104 0194 9BB2     		uxth	r3, r3
 1105 0196 1BB2     		sxth	r3, r3
 1106 0198 1846     		mov	r0, r3
 1107 019a FFF7FEFF 		bl	lv_trigo_sin
 1108 019e 0346     		mov	r3, r0
 1109 01a0 1A46     		mov	r2, r3
 1110 01a2 B7F98030 		ldrsh	r3, [r7, #128]
 1111 01a6 03FB02F3 		mul	r3, r3, r2
 1112 01aa DB13     		asrs	r3, r3, #15
 1113 01ac A7F87230 		strh	r3, [r7, #114]	@ movhi
 334:..\..\..\lvgl\version_6.1.2\lvgl\src\lv_objx/lv_lmeter.c ****             lv_coord_t y_in  = (int32_t)((int32_t)lv_trigo_sin(angle) * r_in) >> LV_TRIGO_SHIFT;
 1114              		.loc 3 334 0
 1115 01b0 B7F97630 		ldrsh	r3, [r7, #118]
 1116 01b4 1846     		mov	r0, r3
 1117 01b6 FFF7FEFF 		bl	lv_trigo_sin
 1118 01ba 0346     		mov	r3, r0
 1119 01bc 1A46     		mov	r2, r3
 1120 01be B7F98E30 		ldrsh	r3, [r7, #142]
 1121 01c2 03FB02F3 		mul	r3, r3, r2
 1122 01c6 DB13     		asrs	r3, r3, #15
 1123 01c8 A7F87030 		strh	r3, [r7, #112]	@ movhi
 335:..\..\..\lvgl\version_6.1.2\lvgl\src\lv_objx/lv_lmeter.c ****             lv_coord_t x_in  = (int32_t)((int32_t)lv_trigo_sin(angle + 90) * r_in) >> LV_TRIGO_SHIF
 1124              		.loc 3 335 0
 1125 01cc B7F87630 		ldrh	r3, [r7, #118]
 1126 01d0 5A33     		adds	r3, r3, #90
 1127 01d2 9BB2     		uxth	r3, r3
 1128 01d4 1BB2     		sxth	r3, r3
 1129 01d6 1846     		mov	r0, r3
 1130 01d8 FFF7FEFF 		bl	lv_trigo_sin
 1131 01dc 0346     		mov	r3, r0
 1132 01de 1A46     		mov	r2, r3
 1133 01e0 B7F98E30 		ldrsh	r3, [r7, #142]
 1134 01e4 03FB02F3 		mul	r3, r3, r2
 1135 01e8 DB13     		asrs	r3, r3, #15
 1136 01ea A7F86E30 		strh	r3, [r7, #110]	@ movhi
 336:..\..\..\lvgl\version_6.1.2\lvgl\src\lv_objx/lv_lmeter.c **** 
 337:..\..\..\lvgl\version_6.1.2\lvgl\src\lv_objx/lv_lmeter.c ****             /*Rounding*/
 338:..\..\..\lvgl\version_6.1.2\lvgl\src\lv_objx/lv_lmeter.c ****             x_out = lv_lmeter_coord_round(x_out);
 1137              		.loc 3 338 0
 1138 01ee B7F97230 		ldrsh	r3, [r7, #114]
 1139 01f2 1846     		mov	r0, r3
 1140 01f4 FFF7FEFF 		bl	lv_lmeter_coord_round
 1141 01f8 0346     		mov	r3, r0
 1142 01fa A7F87230 		strh	r3, [r7, #114]	@ movhi
 339:..\..\..\lvgl\version_6.1.2\lvgl\src\lv_objx/lv_lmeter.c ****             x_in  = lv_lmeter_coord_round(x_in);
 1143              		.loc 3 339 0
 1144 01fe B7F96E30 		ldrsh	r3, [r7, #110]
 1145 0202 1846     		mov	r0, r3
 1146 0204 FFF7FEFF 		bl	lv_lmeter_coord_round
 1147 0208 0346     		mov	r3, r0
 1148 020a A7F86E30 		strh	r3, [r7, #110]	@ movhi
 340:..\..\..\lvgl\version_6.1.2\lvgl\src\lv_objx/lv_lmeter.c ****             y_out = lv_lmeter_coord_round(y_out);
 1149              		.loc 3 340 0
 1150 020e B7F97430 		ldrsh	r3, [r7, #116]
ARM GAS  C:\Users\tmj32\AppData\Local\Temp\ccepMVRX.s 			page 38


 1151 0212 1846     		mov	r0, r3
 1152 0214 FFF7FEFF 		bl	lv_lmeter_coord_round
 1153 0218 0346     		mov	r3, r0
 1154 021a A7F87430 		strh	r3, [r7, #116]	@ movhi
 341:..\..\..\lvgl\version_6.1.2\lvgl\src\lv_objx/lv_lmeter.c ****             y_in  = lv_lmeter_coord_round(y_in);
 1155              		.loc 3 341 0
 1156 021e B7F97030 		ldrsh	r3, [r7, #112]
 1157 0222 1846     		mov	r0, r3
 1158 0224 FFF7FEFF 		bl	lv_lmeter_coord_round
 1159 0228 0346     		mov	r3, r0
 1160 022a A7F87030 		strh	r3, [r7, #112]	@ movhi
 342:..\..\..\lvgl\version_6.1.2\lvgl\src\lv_objx/lv_lmeter.c **** 
 343:..\..\..\lvgl\version_6.1.2\lvgl\src\lv_objx/lv_lmeter.c ****             lv_point_t p1;
 344:..\..\..\lvgl\version_6.1.2\lvgl\src\lv_objx/lv_lmeter.c ****             lv_point_t p2;
 345:..\..\..\lvgl\version_6.1.2\lvgl\src\lv_objx/lv_lmeter.c **** 
 346:..\..\..\lvgl\version_6.1.2\lvgl\src\lv_objx/lv_lmeter.c ****             p2.x = x_in + x_ofs;
 1161              		.loc 3 346 0
 1162 022e B7F86E20 		ldrh	r2, [r7, #110]
 1163 0232 B7F87E30 		ldrh	r3, [r7, #126]
 1164 0236 1344     		add	r3, r3, r2
 1165 0238 9BB2     		uxth	r3, r3
 1166 023a 1BB2     		sxth	r3, r3
 1167 023c A7F86430 		strh	r3, [r7, #100]	@ movhi
 347:..\..\..\lvgl\version_6.1.2\lvgl\src\lv_objx/lv_lmeter.c ****             p2.y = y_in + y_ofs;
 1168              		.loc 3 347 0
 1169 0240 B7F87020 		ldrh	r2, [r7, #112]
 1170 0244 B7F87C30 		ldrh	r3, [r7, #124]
 1171 0248 1344     		add	r3, r3, r2
 1172 024a 9BB2     		uxth	r3, r3
 1173 024c 1BB2     		sxth	r3, r3
 1174 024e A7F86630 		strh	r3, [r7, #102]	@ movhi
 348:..\..\..\lvgl\version_6.1.2\lvgl\src\lv_objx/lv_lmeter.c **** 
 349:..\..\..\lvgl\version_6.1.2\lvgl\src\lv_objx/lv_lmeter.c ****             p1.x = x_out + x_ofs;
 1175              		.loc 3 349 0
 1176 0252 B7F87220 		ldrh	r2, [r7, #114]
 1177 0256 B7F87E30 		ldrh	r3, [r7, #126]
 1178 025a 1344     		add	r3, r3, r2
 1179 025c 9BB2     		uxth	r3, r3
 1180 025e 1BB2     		sxth	r3, r3
 1181 0260 A7F86830 		strh	r3, [r7, #104]	@ movhi
 350:..\..\..\lvgl\version_6.1.2\lvgl\src\lv_objx/lv_lmeter.c ****             p1.y = y_out + y_ofs;
 1182              		.loc 3 350 0
 1183 0264 B7F87420 		ldrh	r2, [r7, #116]
 1184 0268 B7F87C30 		ldrh	r3, [r7, #124]
 1185 026c 1344     		add	r3, r3, r2
 1186 026e 9BB2     		uxth	r3, r3
 1187 0270 1BB2     		sxth	r3, r3
 1188 0272 A7F86A30 		strh	r3, [r7, #106]	@ movhi
 351:..\..\..\lvgl\version_6.1.2\lvgl\src\lv_objx/lv_lmeter.c **** 
 352:..\..\..\lvgl\version_6.1.2\lvgl\src\lv_objx/lv_lmeter.c ****             if(i >= level)
 1189              		.loc 3 352 0
 1190 0276 97F88D20 		ldrb	r2, [r7, #141]	@ zero_extendqisi2
 1191 027a B7F97830 		ldrsh	r3, [r7, #120]
 1192 027e 9A42     		cmp	r2, r3
 1193 0280 04DB     		blt	.L53
 353:..\..\..\lvgl\version_6.1.2\lvgl\src\lv_objx/lv_lmeter.c ****                 style_tmp.line.color = style->line.color;
 1194              		.loc 3 353 0
ARM GAS  C:\Users\tmj32\AppData\Local\Temp\ccepMVRX.s 			page 39


 1195 0282 D7F88430 		ldr	r3, [r7, #132]
 1196 0286 9B6C     		ldr	r3, [r3, #72]
 1197 0288 FB65     		str	r3, [r7, #92]
 1198 028a 13E0     		b	.L54
 1199              	.L53:
 354:..\..\..\lvgl\version_6.1.2\lvgl\src\lv_objx/lv_lmeter.c ****             else {
 355:..\..\..\lvgl\version_6.1.2\lvgl\src\lv_objx/lv_lmeter.c ****                 style_tmp.line.color =
 356:..\..\..\lvgl\version_6.1.2\lvgl\src\lv_objx/lv_lmeter.c ****                     lv_color_mix(style->body.grad_color, style->body.main_color, (255 * i) / ext->l
 1200              		.loc 3 356 0
 1201 028c 97F88D20 		ldrb	r2, [r7, #141]	@ zero_extendqisi2
 1202 0290 1346     		mov	r3, r2
 1203 0292 1B02     		lsls	r3, r3, #8
 1204 0294 9B1A     		subs	r3, r3, r2
 1205 0296 D7F88820 		ldr	r2, [r7, #136]
 1206 029a 9288     		ldrh	r2, [r2, #4]
 1207 029c 93FBF2F3 		sdiv	r3, r3, r2
 1208 02a0 DAB2     		uxtb	r2, r3
 355:..\..\..\lvgl\version_6.1.2\lvgl\src\lv_objx/lv_lmeter.c ****                     lv_color_mix(style->body.grad_color, style->body.main_color, (255 * i) / ext->l
 1209              		.loc 3 355 0
 1210 02a2 D7F88410 		ldr	r1, [r7, #132]
 1211 02a6 D7F88430 		ldr	r3, [r7, #132]
 1212 02aa 4968     		ldr	r1, [r1, #4]
 1213 02ac 9868     		ldr	r0, [r3, #8]
 1214 02ae FFF7FEFF 		bl	lv_color_mix
 1215 02b2 F865     		str	r0, [r7, #92]
 1216              	.L54:
 357:..\..\..\lvgl\version_6.1.2\lvgl\src\lv_objx/lv_lmeter.c ****             }
 358:..\..\..\lvgl\version_6.1.2\lvgl\src\lv_objx/lv_lmeter.c **** 
 359:..\..\..\lvgl\version_6.1.2\lvgl\src\lv_objx/lv_lmeter.c ****             lv_draw_line(&p1, &p2, mask, &style_tmp, opa_scale);
 1217              		.loc 3 359 0 discriminator 2
 1218 02b4 07F11402 		add	r2, r7, #20
 1219 02b8 07F16401 		add	r1, r7, #100
 1220 02bc 07F16800 		add	r0, r7, #104
 1221 02c0 97F88330 		ldrb	r3, [r7, #131]	@ zero_extendqisi2
 1222 02c4 0093     		str	r3, [sp]
 1223 02c6 1346     		mov	r3, r2
 1224 02c8 BA68     		ldr	r2, [r7, #8]
 1225 02ca FFF7FEFF 		bl	lv_draw_line
 1226              	.LBE5:
 328:..\..\..\lvgl\version_6.1.2\lvgl\src\lv_objx/lv_lmeter.c ****             /*Calculate the position a scale label*/
 1227              		.loc 3 328 0 discriminator 2
 1228 02ce 97F88D30 		ldrb	r3, [r7, #141]	@ zero_extendqisi2
 1229 02d2 0133     		adds	r3, r3, #1
 1230 02d4 87F88D30 		strb	r3, [r7, #141]
 1231              	.L52:
 328:..\..\..\lvgl\version_6.1.2\lvgl\src\lv_objx/lv_lmeter.c ****             /*Calculate the position a scale label*/
 1232              		.loc 3 328 0 is_stmt 0 discriminator 1
 1233 02d8 97F88D30 		ldrb	r3, [r7, #141]	@ zero_extendqisi2
 1234 02dc 9AB2     		uxth	r2, r3
 1235 02de D7F88830 		ldr	r3, [r7, #136]
 1236 02e2 9B88     		ldrh	r3, [r3, #4]
 1237 02e4 9A42     		cmp	r2, r3
 1238 02e6 FFF430AF 		bcc	.L55
 1239              	.L50:
 1240              	.LBE4:
 360:..\..\..\lvgl\version_6.1.2\lvgl\src\lv_objx/lv_lmeter.c ****         }
 361:..\..\..\lvgl\version_6.1.2\lvgl\src\lv_objx/lv_lmeter.c **** 
ARM GAS  C:\Users\tmj32\AppData\Local\Temp\ccepMVRX.s 			page 40


 362:..\..\..\lvgl\version_6.1.2\lvgl\src\lv_objx/lv_lmeter.c ****     }
 363:..\..\..\lvgl\version_6.1.2\lvgl\src\lv_objx/lv_lmeter.c ****     /*Post draw when the children are drawn*/
 364:..\..\..\lvgl\version_6.1.2\lvgl\src\lv_objx/lv_lmeter.c ****     else if(mode == LV_DESIGN_DRAW_POST) {
 365:..\..\..\lvgl\version_6.1.2\lvgl\src\lv_objx/lv_lmeter.c ****     }
 366:..\..\..\lvgl\version_6.1.2\lvgl\src\lv_objx/lv_lmeter.c **** 
 367:..\..\..\lvgl\version_6.1.2\lvgl\src\lv_objx/lv_lmeter.c ****     return true;
 1241              		.loc 3 367 0 is_stmt 1
 1242 02ea 0123     		movs	r3, #1
 1243              	.L49:
 368:..\..\..\lvgl\version_6.1.2\lvgl\src\lv_objx/lv_lmeter.c **** }
 1244              		.loc 3 368 0
 1245 02ec 1846     		mov	r0, r3
 1246 02ee 9037     		adds	r7, r7, #144
 1247              		.cfi_def_cfa_offset 8
 1248 02f0 BD46     		mov	sp, r7
 1249              		.cfi_def_cfa_register 13
 1250              		@ sp needed
 1251 02f2 80BD     		pop	{r7, pc}
 1252              		.cfi_endproc
 1253              	.LFE44:
 1254              		.size	lv_lmeter_design, .-lv_lmeter_design
 1255              		.section	.rodata
 1256              		.align	2
 1257              	.LC0:
 1258 0000 6C765F6C 		.ascii	"lv_lmeter\000"
 1258      6D657465 
 1258      7200
 1259              		.section	.text.lv_lmeter_signal,"ax",%progbits
 1260              		.align	2
 1261              		.thumb
 1262              		.thumb_func
 1263              		.type	lv_lmeter_signal, %function
 1264              	lv_lmeter_signal:
 1265              	.LFB45:
 369:..\..\..\lvgl\version_6.1.2\lvgl\src\lv_objx/lv_lmeter.c **** 
 370:..\..\..\lvgl\version_6.1.2\lvgl\src\lv_objx/lv_lmeter.c **** /**
 371:..\..\..\lvgl\version_6.1.2\lvgl\src\lv_objx/lv_lmeter.c ****  * Signal function of the line meter
 372:..\..\..\lvgl\version_6.1.2\lvgl\src\lv_objx/lv_lmeter.c ****  * @param lmeter pointer to a line meter object
 373:..\..\..\lvgl\version_6.1.2\lvgl\src\lv_objx/lv_lmeter.c ****  * @param sign a signal type from lv_signal_t enum
 374:..\..\..\lvgl\version_6.1.2\lvgl\src\lv_objx/lv_lmeter.c ****  * @param param pointer to a signal specific variable
 375:..\..\..\lvgl\version_6.1.2\lvgl\src\lv_objx/lv_lmeter.c ****  * @return LV_RES_OK: the object is not deleted in the function; LV_RES_INV: the object is deleted
 376:..\..\..\lvgl\version_6.1.2\lvgl\src\lv_objx/lv_lmeter.c ****  */
 377:..\..\..\lvgl\version_6.1.2\lvgl\src\lv_objx/lv_lmeter.c **** static lv_res_t lv_lmeter_signal(lv_obj_t * lmeter, lv_signal_t sign, void * param)
 378:..\..\..\lvgl\version_6.1.2\lvgl\src\lv_objx/lv_lmeter.c **** {
 1266              		.loc 3 378 0
 1267              		.cfi_startproc
 1268              		@ args = 0, pretend = 0, frame = 24
 1269              		@ frame_needed = 1, uses_anonymous_args = 0
 1270 0000 80B5     		push	{r7, lr}
 1271              		.cfi_def_cfa_offset 8
 1272              		.cfi_offset 7, -8
 1273              		.cfi_offset 14, -4
 1274 0002 86B0     		sub	sp, sp, #24
 1275              		.cfi_def_cfa_offset 32
 1276 0004 00AF     		add	r7, sp, #0
 1277              		.cfi_def_cfa_register 7
 1278 0006 F860     		str	r0, [r7, #12]
ARM GAS  C:\Users\tmj32\AppData\Local\Temp\ccepMVRX.s 			page 41


 1279 0008 0B46     		mov	r3, r1
 1280 000a 7A60     		str	r2, [r7, #4]
 1281 000c FB72     		strb	r3, [r7, #11]
 379:..\..\..\lvgl\version_6.1.2\lvgl\src\lv_objx/lv_lmeter.c ****     lv_res_t res;
 380:..\..\..\lvgl\version_6.1.2\lvgl\src\lv_objx/lv_lmeter.c **** 
 381:..\..\..\lvgl\version_6.1.2\lvgl\src\lv_objx/lv_lmeter.c ****     /* Include the ancient signal function */
 382:..\..\..\lvgl\version_6.1.2\lvgl\src\lv_objx/lv_lmeter.c ****     res = ancestor_signal(lmeter, sign, param);
 1282              		.loc 3 382 0
 1283 000e 1C4B     		ldr	r3, .L62
 1284 0010 1B68     		ldr	r3, [r3]
 1285 0012 F97A     		ldrb	r1, [r7, #11]	@ zero_extendqisi2
 1286 0014 7A68     		ldr	r2, [r7, #4]
 1287 0016 F868     		ldr	r0, [r7, #12]
 1288 0018 9847     		blx	r3
 1289 001a 0346     		mov	r3, r0
 1290 001c FB75     		strb	r3, [r7, #23]
 383:..\..\..\lvgl\version_6.1.2\lvgl\src\lv_objx/lv_lmeter.c ****     if(res != LV_RES_OK) return res;
 1291              		.loc 3 383 0
 1292 001e FB7D     		ldrb	r3, [r7, #23]	@ zero_extendqisi2
 1293 0020 012B     		cmp	r3, #1
 1294 0022 01D0     		beq	.L57
 1295              		.loc 3 383 0 is_stmt 0 discriminator 1
 1296 0024 FB7D     		ldrb	r3, [r7, #23]	@ zero_extendqisi2
 1297 0026 27E0     		b	.L58
 1298              	.L57:
 384:..\..\..\lvgl\version_6.1.2\lvgl\src\lv_objx/lv_lmeter.c ****     if(sign == LV_SIGNAL_GET_TYPE) return lv_obj_handle_get_type_signal(param, LV_OBJX_NAME);
 1299              		.loc 3 384 0 is_stmt 1
 1300 0028 FB7A     		ldrb	r3, [r7, #11]	@ zero_extendqisi2
 1301 002a 072B     		cmp	r3, #7
 1302 002c 05D1     		bne	.L59
 1303              		.loc 3 384 0 is_stmt 0 discriminator 1
 1304 002e 1549     		ldr	r1, .L62+4
 1305 0030 7868     		ldr	r0, [r7, #4]
 1306 0032 FFF7FEFF 		bl	lv_obj_handle_get_type_signal
 1307 0036 0346     		mov	r3, r0
 1308 0038 1EE0     		b	.L58
 1309              	.L59:
 385:..\..\..\lvgl\version_6.1.2\lvgl\src\lv_objx/lv_lmeter.c **** 
 386:..\..\..\lvgl\version_6.1.2\lvgl\src\lv_objx/lv_lmeter.c ****     if(sign == LV_SIGNAL_CLEANUP) {
 1310              		.loc 3 386 0 is_stmt 1
 1311 003a FB7A     		ldrb	r3, [r7, #11]	@ zero_extendqisi2
 1312 003c 002B     		cmp	r3, #0
 1313 003e 1AD0     		beq	.L60
 387:..\..\..\lvgl\version_6.1.2\lvgl\src\lv_objx/lv_lmeter.c ****         /*Nothing to cleanup. (No dynamically allocated memory in 'ext')*/
 388:..\..\..\lvgl\version_6.1.2\lvgl\src\lv_objx/lv_lmeter.c ****     } else if(sign == LV_SIGNAL_STYLE_CHG) {
 1314              		.loc 3 388 0
 1315 0040 FB7A     		ldrb	r3, [r7, #11]	@ zero_extendqisi2
 1316 0042 042B     		cmp	r3, #4
 1317 0044 03D1     		bne	.L61
 389:..\..\..\lvgl\version_6.1.2\lvgl\src\lv_objx/lv_lmeter.c ****         lv_obj_refresh_ext_draw_pad(lmeter);
 1318              		.loc 3 389 0
 1319 0046 F868     		ldr	r0, [r7, #12]
 1320 0048 FFF7FEFF 		bl	lv_obj_refresh_ext_draw_pad
 1321 004c 13E0     		b	.L60
 1322              	.L61:
 390:..\..\..\lvgl\version_6.1.2\lvgl\src\lv_objx/lv_lmeter.c ****     } else if(sign == LV_SIGNAL_REFR_EXT_DRAW_PAD) {
 1323              		.loc 3 390 0
ARM GAS  C:\Users\tmj32\AppData\Local\Temp\ccepMVRX.s 			page 42


 1324 004e FB7A     		ldrb	r3, [r7, #11]	@ zero_extendqisi2
 1325 0050 062B     		cmp	r3, #6
 1326 0052 10D1     		bne	.L60
 1327              	.LBB6:
 391:..\..\..\lvgl\version_6.1.2\lvgl\src\lv_objx/lv_lmeter.c ****         const lv_style_t * style = lv_lmeter_get_style(lmeter, LV_LMETER_STYLE_MAIN);
 1328              		.loc 3 391 0
 1329 0054 0021     		movs	r1, #0
 1330 0056 F868     		ldr	r0, [r7, #12]
 1331 0058 FFF7FEFF 		bl	lv_lmeter_get_style
 1332 005c 3861     		str	r0, [r7, #16]
 392:..\..\..\lvgl\version_6.1.2\lvgl\src\lv_objx/lv_lmeter.c ****         lmeter->ext_draw_pad     = LV_MATH_MAX(lmeter->ext_draw_pad, style->line.width);
 1333              		.loc 3 392 0
 1334 005e 3B69     		ldr	r3, [r7, #16]
 1335 0060 B3F94C20 		ldrsh	r2, [r3, #76]
 1336 0064 FB68     		ldr	r3, [r7, #12]
 1337 0066 B3F93030 		ldrsh	r3, [r3, #48]
 1338 006a 9342     		cmp	r3, r2
 1339 006c B8BF     		it	lt
 1340 006e 1346     		movlt	r3, r2
 1341 0070 1AB2     		sxth	r2, r3
 1342 0072 FB68     		ldr	r3, [r7, #12]
 1343 0074 1A86     		strh	r2, [r3, #48]	@ movhi
 1344              	.L60:
 1345              	.LBE6:
 393:..\..\..\lvgl\version_6.1.2\lvgl\src\lv_objx/lv_lmeter.c ****     }
 394:..\..\..\lvgl\version_6.1.2\lvgl\src\lv_objx/lv_lmeter.c **** 
 395:..\..\..\lvgl\version_6.1.2\lvgl\src\lv_objx/lv_lmeter.c ****     return res;
 1346              		.loc 3 395 0
 1347 0076 FB7D     		ldrb	r3, [r7, #23]	@ zero_extendqisi2
 1348              	.L58:
 396:..\..\..\lvgl\version_6.1.2\lvgl\src\lv_objx/lv_lmeter.c **** }
 1349              		.loc 3 396 0
 1350 0078 1846     		mov	r0, r3
 1351 007a 1837     		adds	r7, r7, #24
 1352              		.cfi_def_cfa_offset 8
 1353 007c BD46     		mov	sp, r7
 1354              		.cfi_def_cfa_register 13
 1355              		@ sp needed
 1356 007e 80BD     		pop	{r7, pc}
 1357              	.L63:
 1358              		.align	2
 1359              	.L62:
 1360 0080 00000000 		.word	ancestor_signal
 1361 0084 00000000 		.word	.LC0
 1362              		.cfi_endproc
 1363              	.LFE45:
 1364              		.size	lv_lmeter_signal, .-lv_lmeter_signal
 1365              		.section	.text.lv_lmeter_coord_round,"ax",%progbits
 1366              		.align	2
 1367              		.thumb
 1368              		.thumb_func
 1369              		.type	lv_lmeter_coord_round, %function
 1370              	lv_lmeter_coord_round:
 1371              	.LFB46:
 397:..\..\..\lvgl\version_6.1.2\lvgl\src\lv_objx/lv_lmeter.c **** 
 398:..\..\..\lvgl\version_6.1.2\lvgl\src\lv_objx/lv_lmeter.c **** /**
 399:..\..\..\lvgl\version_6.1.2\lvgl\src\lv_objx/lv_lmeter.c ****  * Round a coordinate which is upscaled  (>=x.5 -> x + 1;   <x.5 -> x)
ARM GAS  C:\Users\tmj32\AppData\Local\Temp\ccepMVRX.s 			page 43


 400:..\..\..\lvgl\version_6.1.2\lvgl\src\lv_objx/lv_lmeter.c ****  * @param x a coordinate which is greater then it should be
 401:..\..\..\lvgl\version_6.1.2\lvgl\src\lv_objx/lv_lmeter.c ****  * @return the downscaled and rounded coordinate  (+-1)
 402:..\..\..\lvgl\version_6.1.2\lvgl\src\lv_objx/lv_lmeter.c ****  */
 403:..\..\..\lvgl\version_6.1.2\lvgl\src\lv_objx/lv_lmeter.c **** static lv_coord_t lv_lmeter_coord_round(int32_t x)
 404:..\..\..\lvgl\version_6.1.2\lvgl\src\lv_objx/lv_lmeter.c **** {
 1372              		.loc 3 404 0
 1373              		.cfi_startproc
 1374              		@ args = 0, pretend = 0, frame = 16
 1375              		@ frame_needed = 1, uses_anonymous_args = 0
 1376              		@ link register save eliminated.
 1377 0000 80B4     		push	{r7}
 1378              		.cfi_def_cfa_offset 4
 1379              		.cfi_offset 7, -4
 1380 0002 85B0     		sub	sp, sp, #20
 1381              		.cfi_def_cfa_offset 24
 1382 0004 00AF     		add	r7, sp, #0
 1383              		.cfi_def_cfa_register 7
 1384 0006 7860     		str	r0, [r7, #4]
 405:..\..\..\lvgl\version_6.1.2\lvgl\src\lv_objx/lv_lmeter.c **** #if LV_LMETER_LINE_UPSCALE > 0
 406:..\..\..\lvgl\version_6.1.2\lvgl\src\lv_objx/lv_lmeter.c ****     bool was_negative = false;
 1385              		.loc 3 406 0
 1386 0008 0023     		movs	r3, #0
 1387 000a FB73     		strb	r3, [r7, #15]
 407:..\..\..\lvgl\version_6.1.2\lvgl\src\lv_objx/lv_lmeter.c ****     if(x < 0) {
 1388              		.loc 3 407 0
 1389 000c 7B68     		ldr	r3, [r7, #4]
 1390 000e 002B     		cmp	r3, #0
 1391 0010 04DA     		bge	.L65
 408:..\..\..\lvgl\version_6.1.2\lvgl\src\lv_objx/lv_lmeter.c ****         was_negative = true;
 1392              		.loc 3 408 0
 1393 0012 0123     		movs	r3, #1
 1394 0014 FB73     		strb	r3, [r7, #15]
 409:..\..\..\lvgl\version_6.1.2\lvgl\src\lv_objx/lv_lmeter.c ****         x            = -x;
 1395              		.loc 3 409 0
 1396 0016 7B68     		ldr	r3, [r7, #4]
 1397 0018 5B42     		negs	r3, r3
 1398 001a 7B60     		str	r3, [r7, #4]
 1399              	.L65:
 410:..\..\..\lvgl\version_6.1.2\lvgl\src\lv_objx/lv_lmeter.c ****     }
 411:..\..\..\lvgl\version_6.1.2\lvgl\src\lv_objx/lv_lmeter.c **** 
 412:..\..\..\lvgl\version_6.1.2\lvgl\src\lv_objx/lv_lmeter.c ****     x = (x >> LV_LMETER_LINE_UPSCALE) + ((x & LV_LMETER_LINE_UPSCALE_MASK) >> (LV_LMETER_LINE_UPSCA
 1400              		.loc 3 412 0
 1401 001c 7B68     		ldr	r3, [r7, #4]
 1402 001e 5A11     		asrs	r2, r3, #5
 1403 0020 7B68     		ldr	r3, [r7, #4]
 1404 0022 1B11     		asrs	r3, r3, #4
 1405 0024 03F00103 		and	r3, r3, #1
 1406 0028 1344     		add	r3, r3, r2
 1407 002a 7B60     		str	r3, [r7, #4]
 413:..\..\..\lvgl\version_6.1.2\lvgl\src\lv_objx/lv_lmeter.c **** 
 414:..\..\..\lvgl\version_6.1.2\lvgl\src\lv_objx/lv_lmeter.c ****     if(was_negative) x = -x;
 1408              		.loc 3 414 0
 1409 002c FB7B     		ldrb	r3, [r7, #15]	@ zero_extendqisi2
 1410 002e 002B     		cmp	r3, #0
 1411 0030 02D0     		beq	.L66
 1412              		.loc 3 414 0 is_stmt 0 discriminator 1
 1413 0032 7B68     		ldr	r3, [r7, #4]
ARM GAS  C:\Users\tmj32\AppData\Local\Temp\ccepMVRX.s 			page 44


 1414 0034 5B42     		negs	r3, r3
 1415 0036 7B60     		str	r3, [r7, #4]
 1416              	.L66:
 415:..\..\..\lvgl\version_6.1.2\lvgl\src\lv_objx/lv_lmeter.c **** 
 416:..\..\..\lvgl\version_6.1.2\lvgl\src\lv_objx/lv_lmeter.c ****     return x;
 1417              		.loc 3 416 0 is_stmt 1
 1418 0038 7B68     		ldr	r3, [r7, #4]
 1419 003a 1BB2     		sxth	r3, r3
 417:..\..\..\lvgl\version_6.1.2\lvgl\src\lv_objx/lv_lmeter.c **** #else
 418:..\..\..\lvgl\version_6.1.2\lvgl\src\lv_objx/lv_lmeter.c ****     return x;
 419:..\..\..\lvgl\version_6.1.2\lvgl\src\lv_objx/lv_lmeter.c **** #endif
 420:..\..\..\lvgl\version_6.1.2\lvgl\src\lv_objx/lv_lmeter.c **** }
 1420              		.loc 3 420 0
 1421 003c 1846     		mov	r0, r3
 1422 003e 1437     		adds	r7, r7, #20
 1423              		.cfi_def_cfa_offset 4
 1424 0040 BD46     		mov	sp, r7
 1425              		.cfi_def_cfa_register 13
 1426              		@ sp needed
 1427 0042 5DF8047B 		ldr	r7, [sp], #4
 1428              		.cfi_restore 7
 1429              		.cfi_def_cfa_offset 0
 1430 0046 7047     		bx	lr
 1431              		.cfi_endproc
 1432              	.LFE46:
 1433              		.size	lv_lmeter_coord_round, .-lv_lmeter_coord_round
 1434              		.text
 1435              	.Letext0:
 1436              		.file 4 "c:\\program files (x86)\\cypress\\psoc creator\\4.3\\psoc creator\\import\\gnu\\arm\\5.4.
 1437              		.file 5 "c:\\program files (x86)\\cypress\\psoc creator\\4.3\\psoc creator\\import\\gnu\\arm\\5.4.
 1438              		.file 6 "..\\..\\..\\lvgl\\version_6.1.2\\lvgl\\src\\lv_objx\\../../../lv_conf.h"
 1439              		.file 7 "..\\..\\..\\lvgl\\version_6.1.2\\lvgl\\src\\lv_objx\\../lv_core/../lv_font/lv_font.h"
 1440              		.file 8 "..\\..\\..\\lvgl\\version_6.1.2\\lvgl\\src\\lv_objx\\../lv_core/../lv_misc/lv_area.h"
 1441              		.file 9 "..\\..\\..\\lvgl\\version_6.1.2\\lvgl\\src\\lv_objx\\../lv_core/lv_style.h"
 1442              		.file 10 "..\\..\\..\\lvgl\\version_6.1.2\\lvgl\\src\\lv_objx\\../lv_core/../lv_misc/lv_types.h"
 1443              		.file 11 "..\\..\\..\\lvgl\\version_6.1.2\\lvgl\\src\\lv_objx\\../lv_core/../lv_misc/lv_ll.h"
 1444              		.file 12 "..\\..\\..\\lvgl\\version_6.1.2\\lvgl\\src\\lv_objx\\../lv_core/../lv_misc/lv_bidi.h"
 1445              		.file 13 "..\\..\\..\\lvgl\\version_6.1.2\\lvgl\\src\\lv_objx\\../lv_core/lv_obj.h"
 1446              		.file 14 "..\\..\\..\\lvgl\\version_6.1.2\\lvgl\\src\\lv_objx\\../lv_themes/lv_theme.h"