ARM GAS  C:\Users\tmj32\AppData\Local\Temp\ccUUfkkI.s 			page 1


   1              		.syntax unified
   2              		.cpu cortex-m4
   3              		.eabi_attribute 27, 1
   4              		.fpu fpv4-sp-d16
   5              		.eabi_attribute 20, 1
   6              		.eabi_attribute 21, 1
   7              		.eabi_attribute 23, 3
   8              		.eabi_attribute 24, 1
   9              		.eabi_attribute 25, 1
  10              		.eabi_attribute 26, 1
  11              		.eabi_attribute 30, 6
  12              		.eabi_attribute 34, 1
  13              		.eabi_attribute 18, 4
  14              		.thumb
  15              		.syntax unified
  16              		.file	"lv_list.c"
  17              		.text
  18              	.Ltext0:
  19              		.cfi_sections	.debug_frame
  20              		.section	.text.lv_cont_set_fit2,"ax",%progbits
  21              		.align	2
  22              		.thumb
  23              		.thumb_func
  24              		.type	lv_cont_set_fit2, %function
  25              	lv_cont_set_fit2:
  26              	.LFB31:
  27              		.file 1 "..\\..\\..\\lvgl\\version_6.1.2\\lvgl\\src\\lv_objx\\lv_cont.h"
   1:..\..\..\lvgl\version_6.1.2\lvgl\src\lv_objx/lv_cont.h **** /**
   2:..\..\..\lvgl\version_6.1.2\lvgl\src\lv_objx/lv_cont.h ****  * @file lv_cont.h
   3:..\..\..\lvgl\version_6.1.2\lvgl\src\lv_objx/lv_cont.h ****  *
   4:..\..\..\lvgl\version_6.1.2\lvgl\src\lv_objx/lv_cont.h ****  */
   5:..\..\..\lvgl\version_6.1.2\lvgl\src\lv_objx/lv_cont.h **** 
   6:..\..\..\lvgl\version_6.1.2\lvgl\src\lv_objx/lv_cont.h **** #ifndef LV_CONT_H
   7:..\..\..\lvgl\version_6.1.2\lvgl\src\lv_objx/lv_cont.h **** #define LV_CONT_H
   8:..\..\..\lvgl\version_6.1.2\lvgl\src\lv_objx/lv_cont.h **** 
   9:..\..\..\lvgl\version_6.1.2\lvgl\src\lv_objx/lv_cont.h **** #ifdef __cplusplus
  10:..\..\..\lvgl\version_6.1.2\lvgl\src\lv_objx/lv_cont.h **** extern "C" {
  11:..\..\..\lvgl\version_6.1.2\lvgl\src\lv_objx/lv_cont.h **** #endif
  12:..\..\..\lvgl\version_6.1.2\lvgl\src\lv_objx/lv_cont.h **** 
  13:..\..\..\lvgl\version_6.1.2\lvgl\src\lv_objx/lv_cont.h **** /*********************
  14:..\..\..\lvgl\version_6.1.2\lvgl\src\lv_objx/lv_cont.h ****  *      INCLUDES
  15:..\..\..\lvgl\version_6.1.2\lvgl\src\lv_objx/lv_cont.h ****  *********************/
  16:..\..\..\lvgl\version_6.1.2\lvgl\src\lv_objx/lv_cont.h **** #ifdef LV_CONF_INCLUDE_SIMPLE
  17:..\..\..\lvgl\version_6.1.2\lvgl\src\lv_objx/lv_cont.h **** #include "lv_conf.h"
  18:..\..\..\lvgl\version_6.1.2\lvgl\src\lv_objx/lv_cont.h **** #else
  19:..\..\..\lvgl\version_6.1.2\lvgl\src\lv_objx/lv_cont.h **** #include "../../../lv_conf.h"
  20:..\..\..\lvgl\version_6.1.2\lvgl\src\lv_objx/lv_cont.h **** #endif
  21:..\..\..\lvgl\version_6.1.2\lvgl\src\lv_objx/lv_cont.h **** 
  22:..\..\..\lvgl\version_6.1.2\lvgl\src\lv_objx/lv_cont.h **** #if LV_USE_CONT != 0
  23:..\..\..\lvgl\version_6.1.2\lvgl\src\lv_objx/lv_cont.h **** 
  24:..\..\..\lvgl\version_6.1.2\lvgl\src\lv_objx/lv_cont.h **** #include "../lv_core/lv_obj.h"
  25:..\..\..\lvgl\version_6.1.2\lvgl\src\lv_objx/lv_cont.h **** 
  26:..\..\..\lvgl\version_6.1.2\lvgl\src\lv_objx/lv_cont.h **** /*********************
  27:..\..\..\lvgl\version_6.1.2\lvgl\src\lv_objx/lv_cont.h ****  *      DEFINES
  28:..\..\..\lvgl\version_6.1.2\lvgl\src\lv_objx/lv_cont.h ****  *********************/
  29:..\..\..\lvgl\version_6.1.2\lvgl\src\lv_objx/lv_cont.h **** 
  30:..\..\..\lvgl\version_6.1.2\lvgl\src\lv_objx/lv_cont.h **** /**********************
ARM GAS  C:\Users\tmj32\AppData\Local\Temp\ccUUfkkI.s 			page 2


  31:..\..\..\lvgl\version_6.1.2\lvgl\src\lv_objx/lv_cont.h ****  *      TYPEDEFS
  32:..\..\..\lvgl\version_6.1.2\lvgl\src\lv_objx/lv_cont.h ****  **********************/
  33:..\..\..\lvgl\version_6.1.2\lvgl\src\lv_objx/lv_cont.h **** 
  34:..\..\..\lvgl\version_6.1.2\lvgl\src\lv_objx/lv_cont.h **** /** Container layout options*/
  35:..\..\..\lvgl\version_6.1.2\lvgl\src\lv_objx/lv_cont.h **** enum {
  36:..\..\..\lvgl\version_6.1.2\lvgl\src\lv_objx/lv_cont.h ****     LV_LAYOUT_OFF = 0, /**< No layout */
  37:..\..\..\lvgl\version_6.1.2\lvgl\src\lv_objx/lv_cont.h ****     LV_LAYOUT_CENTER, /**< Center objects */
  38:..\..\..\lvgl\version_6.1.2\lvgl\src\lv_objx/lv_cont.h ****     LV_LAYOUT_COL_L,  /**< Column left align*/
  39:..\..\..\lvgl\version_6.1.2\lvgl\src\lv_objx/lv_cont.h ****     LV_LAYOUT_COL_M,  /**< Column middle align*/
  40:..\..\..\lvgl\version_6.1.2\lvgl\src\lv_objx/lv_cont.h ****     LV_LAYOUT_COL_R,  /**< Column right align*/
  41:..\..\..\lvgl\version_6.1.2\lvgl\src\lv_objx/lv_cont.h ****     LV_LAYOUT_ROW_T,  /**< Row top align*/
  42:..\..\..\lvgl\version_6.1.2\lvgl\src\lv_objx/lv_cont.h ****     LV_LAYOUT_ROW_M,  /**< Row middle align*/
  43:..\..\..\lvgl\version_6.1.2\lvgl\src\lv_objx/lv_cont.h ****     LV_LAYOUT_ROW_B,  /**< Row bottom align*/
  44:..\..\..\lvgl\version_6.1.2\lvgl\src\lv_objx/lv_cont.h ****     LV_LAYOUT_PRETTY, /**< Put as many object as possible in row and begin a new row*/
  45:..\..\..\lvgl\version_6.1.2\lvgl\src\lv_objx/lv_cont.h ****     LV_LAYOUT_GRID,   /**< Align same-sized object into a grid*/
  46:..\..\..\lvgl\version_6.1.2\lvgl\src\lv_objx/lv_cont.h ****     _LV_LAYOUT_NUM
  47:..\..\..\lvgl\version_6.1.2\lvgl\src\lv_objx/lv_cont.h **** };
  48:..\..\..\lvgl\version_6.1.2\lvgl\src\lv_objx/lv_cont.h **** typedef uint8_t lv_layout_t;
  49:..\..\..\lvgl\version_6.1.2\lvgl\src\lv_objx/lv_cont.h **** 
  50:..\..\..\lvgl\version_6.1.2\lvgl\src\lv_objx/lv_cont.h **** /**
  51:..\..\..\lvgl\version_6.1.2\lvgl\src\lv_objx/lv_cont.h ****  * How to resize the container around the children.
  52:..\..\..\lvgl\version_6.1.2\lvgl\src\lv_objx/lv_cont.h ****  */
  53:..\..\..\lvgl\version_6.1.2\lvgl\src\lv_objx/lv_cont.h **** enum {
  54:..\..\..\lvgl\version_6.1.2\lvgl\src\lv_objx/lv_cont.h ****     LV_FIT_NONE,  /**< Do not change the size automatically*/
  55:..\..\..\lvgl\version_6.1.2\lvgl\src\lv_objx/lv_cont.h ****     LV_FIT_TIGHT, /**< Shrink wrap around the children */
  56:..\..\..\lvgl\version_6.1.2\lvgl\src\lv_objx/lv_cont.h ****     LV_FIT_FLOOD, /**< Align the size to the parent's edge*/
  57:..\..\..\lvgl\version_6.1.2\lvgl\src\lv_objx/lv_cont.h ****     LV_FIT_FILL,  /**< Align the size to the parent's edge first but if there is an object out of i
  58:..\..\..\lvgl\version_6.1.2\lvgl\src\lv_objx/lv_cont.h ****                      then get larger */
  59:..\..\..\lvgl\version_6.1.2\lvgl\src\lv_objx/lv_cont.h ****     _LV_FIT_NUM
  60:..\..\..\lvgl\version_6.1.2\lvgl\src\lv_objx/lv_cont.h **** };
  61:..\..\..\lvgl\version_6.1.2\lvgl\src\lv_objx/lv_cont.h **** typedef uint8_t lv_fit_t;
  62:..\..\..\lvgl\version_6.1.2\lvgl\src\lv_objx/lv_cont.h **** 
  63:..\..\..\lvgl\version_6.1.2\lvgl\src\lv_objx/lv_cont.h **** typedef struct
  64:..\..\..\lvgl\version_6.1.2\lvgl\src\lv_objx/lv_cont.h **** {
  65:..\..\..\lvgl\version_6.1.2\lvgl\src\lv_objx/lv_cont.h ****     /*Inherited from 'base_obj' so no inherited ext. */ /*Ext. of ancestor*/
  66:..\..\..\lvgl\version_6.1.2\lvgl\src\lv_objx/lv_cont.h ****     /*New data for this type */
  67:..\..\..\lvgl\version_6.1.2\lvgl\src\lv_objx/lv_cont.h ****     uint8_t layout : 4;     /*A layout from 'lv_layout_t' enum*/
  68:..\..\..\lvgl\version_6.1.2\lvgl\src\lv_objx/lv_cont.h ****     uint8_t fit_left : 2;   /*A fit type from `lv_fit_t` enum */
  69:..\..\..\lvgl\version_6.1.2\lvgl\src\lv_objx/lv_cont.h ****     uint8_t fit_right : 2;  /*A fit type from `lv_fit_t` enum */
  70:..\..\..\lvgl\version_6.1.2\lvgl\src\lv_objx/lv_cont.h ****     uint8_t fit_top : 2;    /*A fit type from `lv_fit_t` enum */
  71:..\..\..\lvgl\version_6.1.2\lvgl\src\lv_objx/lv_cont.h ****     uint8_t fit_bottom : 2; /*A fit type from `lv_fit_t` enum */
  72:..\..\..\lvgl\version_6.1.2\lvgl\src\lv_objx/lv_cont.h **** } lv_cont_ext_t;
  73:..\..\..\lvgl\version_6.1.2\lvgl\src\lv_objx/lv_cont.h **** 
  74:..\..\..\lvgl\version_6.1.2\lvgl\src\lv_objx/lv_cont.h **** /*Styles*/
  75:..\..\..\lvgl\version_6.1.2\lvgl\src\lv_objx/lv_cont.h **** enum {
  76:..\..\..\lvgl\version_6.1.2\lvgl\src\lv_objx/lv_cont.h ****     LV_CONT_STYLE_MAIN,
  77:..\..\..\lvgl\version_6.1.2\lvgl\src\lv_objx/lv_cont.h **** };
  78:..\..\..\lvgl\version_6.1.2\lvgl\src\lv_objx/lv_cont.h **** typedef uint8_t lv_cont_style_t;
  79:..\..\..\lvgl\version_6.1.2\lvgl\src\lv_objx/lv_cont.h **** 
  80:..\..\..\lvgl\version_6.1.2\lvgl\src\lv_objx/lv_cont.h **** /**********************
  81:..\..\..\lvgl\version_6.1.2\lvgl\src\lv_objx/lv_cont.h ****  * GLOBAL PROTOTYPES
  82:..\..\..\lvgl\version_6.1.2\lvgl\src\lv_objx/lv_cont.h ****  **********************/
  83:..\..\..\lvgl\version_6.1.2\lvgl\src\lv_objx/lv_cont.h **** 
  84:..\..\..\lvgl\version_6.1.2\lvgl\src\lv_objx/lv_cont.h **** /**
  85:..\..\..\lvgl\version_6.1.2\lvgl\src\lv_objx/lv_cont.h ****  * Create a container objects
  86:..\..\..\lvgl\version_6.1.2\lvgl\src\lv_objx/lv_cont.h ****  * @param par pointer to an object, it will be the parent of the new container
  87:..\..\..\lvgl\version_6.1.2\lvgl\src\lv_objx/lv_cont.h ****  * @param copy pointer to a container object, if not NULL then the new object will be copied from i
ARM GAS  C:\Users\tmj32\AppData\Local\Temp\ccUUfkkI.s 			page 3


  88:..\..\..\lvgl\version_6.1.2\lvgl\src\lv_objx/lv_cont.h ****  * @return pointer to the created container
  89:..\..\..\lvgl\version_6.1.2\lvgl\src\lv_objx/lv_cont.h ****  */
  90:..\..\..\lvgl\version_6.1.2\lvgl\src\lv_objx/lv_cont.h **** lv_obj_t * lv_cont_create(lv_obj_t * par, const lv_obj_t * copy);
  91:..\..\..\lvgl\version_6.1.2\lvgl\src\lv_objx/lv_cont.h **** 
  92:..\..\..\lvgl\version_6.1.2\lvgl\src\lv_objx/lv_cont.h **** /*=====================
  93:..\..\..\lvgl\version_6.1.2\lvgl\src\lv_objx/lv_cont.h ****  * Setter functions
  94:..\..\..\lvgl\version_6.1.2\lvgl\src\lv_objx/lv_cont.h ****  *====================*/
  95:..\..\..\lvgl\version_6.1.2\lvgl\src\lv_objx/lv_cont.h **** 
  96:..\..\..\lvgl\version_6.1.2\lvgl\src\lv_objx/lv_cont.h **** /**
  97:..\..\..\lvgl\version_6.1.2\lvgl\src\lv_objx/lv_cont.h ****  * Set a layout on a container
  98:..\..\..\lvgl\version_6.1.2\lvgl\src\lv_objx/lv_cont.h ****  * @param cont pointer to a container object
  99:..\..\..\lvgl\version_6.1.2\lvgl\src\lv_objx/lv_cont.h ****  * @param layout a layout from 'lv_cont_layout_t'
 100:..\..\..\lvgl\version_6.1.2\lvgl\src\lv_objx/lv_cont.h ****  */
 101:..\..\..\lvgl\version_6.1.2\lvgl\src\lv_objx/lv_cont.h **** void lv_cont_set_layout(lv_obj_t * cont, lv_layout_t layout);
 102:..\..\..\lvgl\version_6.1.2\lvgl\src\lv_objx/lv_cont.h **** 
 103:..\..\..\lvgl\version_6.1.2\lvgl\src\lv_objx/lv_cont.h **** /**
 104:..\..\..\lvgl\version_6.1.2\lvgl\src\lv_objx/lv_cont.h ****  * Set the fit policy in all 4 directions separately.
 105:..\..\..\lvgl\version_6.1.2\lvgl\src\lv_objx/lv_cont.h ****  * It tell how to change the container's size automatically.
 106:..\..\..\lvgl\version_6.1.2\lvgl\src\lv_objx/lv_cont.h ****  * @param cont pointer to a container object
 107:..\..\..\lvgl\version_6.1.2\lvgl\src\lv_objx/lv_cont.h ****  * @param left left fit policy from `lv_fit_t`
 108:..\..\..\lvgl\version_6.1.2\lvgl\src\lv_objx/lv_cont.h ****  * @param right right fit policy from `lv_fit_t`
 109:..\..\..\lvgl\version_6.1.2\lvgl\src\lv_objx/lv_cont.h ****  * @param top top fit policy from `lv_fit_t`
 110:..\..\..\lvgl\version_6.1.2\lvgl\src\lv_objx/lv_cont.h ****  * @param bottom bottom fit policy from `lv_fit_t`
 111:..\..\..\lvgl\version_6.1.2\lvgl\src\lv_objx/lv_cont.h ****  */
 112:..\..\..\lvgl\version_6.1.2\lvgl\src\lv_objx/lv_cont.h **** void lv_cont_set_fit4(lv_obj_t * cont, lv_fit_t left, lv_fit_t right, lv_fit_t top, lv_fit_t bottom
 113:..\..\..\lvgl\version_6.1.2\lvgl\src\lv_objx/lv_cont.h **** 
 114:..\..\..\lvgl\version_6.1.2\lvgl\src\lv_objx/lv_cont.h **** /**
 115:..\..\..\lvgl\version_6.1.2\lvgl\src\lv_objx/lv_cont.h ****  * Set the fit policy horizontally and vertically separately.
 116:..\..\..\lvgl\version_6.1.2\lvgl\src\lv_objx/lv_cont.h ****  * It tells how to change the container's size automatically.
 117:..\..\..\lvgl\version_6.1.2\lvgl\src\lv_objx/lv_cont.h ****  * @param cont pointer to a container object
 118:..\..\..\lvgl\version_6.1.2\lvgl\src\lv_objx/lv_cont.h ****  * @param hor horizontal fit policy from `lv_fit_t`
 119:..\..\..\lvgl\version_6.1.2\lvgl\src\lv_objx/lv_cont.h ****  * @param ver vertical fit policy from `lv_fit_t`
 120:..\..\..\lvgl\version_6.1.2\lvgl\src\lv_objx/lv_cont.h ****  */
 121:..\..\..\lvgl\version_6.1.2\lvgl\src\lv_objx/lv_cont.h **** static inline void lv_cont_set_fit2(lv_obj_t * cont, lv_fit_t hor, lv_fit_t ver)
 122:..\..\..\lvgl\version_6.1.2\lvgl\src\lv_objx/lv_cont.h **** {
  28              		.loc 1 122 0
  29              		.cfi_startproc
  30              		@ args = 0, pretend = 0, frame = 8
  31              		@ frame_needed = 1, uses_anonymous_args = 0
  32 0000 80B5     		push	{r7, lr}
  33              		.cfi_def_cfa_offset 8
  34              		.cfi_offset 7, -8
  35              		.cfi_offset 14, -4
  36 0002 84B0     		sub	sp, sp, #16
  37              		.cfi_def_cfa_offset 24
  38 0004 02AF     		add	r7, sp, #8
  39              		.cfi_def_cfa 7, 16
  40 0006 7860     		str	r0, [r7, #4]
  41 0008 0B46     		mov	r3, r1
  42 000a FB70     		strb	r3, [r7, #3]
  43 000c 1346     		mov	r3, r2
  44 000e BB70     		strb	r3, [r7, #2]
 123:..\..\..\lvgl\version_6.1.2\lvgl\src\lv_objx/lv_cont.h ****     lv_cont_set_fit4(cont, hor, hor, ver, ver);
  45              		.loc 1 123 0
  46 0010 B878     		ldrb	r0, [r7, #2]	@ zero_extendqisi2
  47 0012 FA78     		ldrb	r2, [r7, #3]	@ zero_extendqisi2
  48 0014 F978     		ldrb	r1, [r7, #3]	@ zero_extendqisi2
ARM GAS  C:\Users\tmj32\AppData\Local\Temp\ccUUfkkI.s 			page 4


  49 0016 BB78     		ldrb	r3, [r7, #2]	@ zero_extendqisi2
  50 0018 0093     		str	r3, [sp]
  51 001a 0346     		mov	r3, r0
  52 001c 7868     		ldr	r0, [r7, #4]
  53 001e FFF7FEFF 		bl	lv_cont_set_fit4
 124:..\..\..\lvgl\version_6.1.2\lvgl\src\lv_objx/lv_cont.h **** }
  54              		.loc 1 124 0
  55 0022 00BF     		nop
  56 0024 0837     		adds	r7, r7, #8
  57              		.cfi_def_cfa_offset 8
  58 0026 BD46     		mov	sp, r7
  59              		.cfi_def_cfa_register 13
  60              		@ sp needed
  61 0028 80BD     		pop	{r7, pc}
  62              		.cfi_endproc
  63              	.LFE31:
  64              		.size	lv_cont_set_fit2, .-lv_cont_set_fit2
  65 002a 00BF     		.section	.text.lv_cont_set_fit,"ax",%progbits
  66              		.align	2
  67              		.thumb
  68              		.thumb_func
  69              		.type	lv_cont_set_fit, %function
  70              	lv_cont_set_fit:
  71              	.LFB32:
 125:..\..\..\lvgl\version_6.1.2\lvgl\src\lv_objx/lv_cont.h **** 
 126:..\..\..\lvgl\version_6.1.2\lvgl\src\lv_objx/lv_cont.h **** /**
 127:..\..\..\lvgl\version_6.1.2\lvgl\src\lv_objx/lv_cont.h ****  * Set the fit policy in all 4 direction at once.
 128:..\..\..\lvgl\version_6.1.2\lvgl\src\lv_objx/lv_cont.h ****  * It tells how to change the container's size automatically.
 129:..\..\..\lvgl\version_6.1.2\lvgl\src\lv_objx/lv_cont.h ****  * @param cont pointer to a container object
 130:..\..\..\lvgl\version_6.1.2\lvgl\src\lv_objx/lv_cont.h ****  * @param fit fit policy from `lv_fit_t`
 131:..\..\..\lvgl\version_6.1.2\lvgl\src\lv_objx/lv_cont.h ****  */
 132:..\..\..\lvgl\version_6.1.2\lvgl\src\lv_objx/lv_cont.h **** static inline void lv_cont_set_fit(lv_obj_t * cont, lv_fit_t fit)
 133:..\..\..\lvgl\version_6.1.2\lvgl\src\lv_objx/lv_cont.h **** {
  72              		.loc 1 133 0
  73              		.cfi_startproc
  74              		@ args = 0, pretend = 0, frame = 8
  75              		@ frame_needed = 1, uses_anonymous_args = 0
  76 0000 80B5     		push	{r7, lr}
  77              		.cfi_def_cfa_offset 8
  78              		.cfi_offset 7, -8
  79              		.cfi_offset 14, -4
  80 0002 84B0     		sub	sp, sp, #16
  81              		.cfi_def_cfa_offset 24
  82 0004 02AF     		add	r7, sp, #8
  83              		.cfi_def_cfa 7, 16
  84 0006 7860     		str	r0, [r7, #4]
  85 0008 0B46     		mov	r3, r1
  86 000a FB70     		strb	r3, [r7, #3]
 134:..\..\..\lvgl\version_6.1.2\lvgl\src\lv_objx/lv_cont.h ****     lv_cont_set_fit4(cont, fit, fit, fit, fit);
  87              		.loc 1 134 0
  88 000c F878     		ldrb	r0, [r7, #3]	@ zero_extendqisi2
  89 000e FA78     		ldrb	r2, [r7, #3]	@ zero_extendqisi2
  90 0010 F978     		ldrb	r1, [r7, #3]	@ zero_extendqisi2
  91 0012 FB78     		ldrb	r3, [r7, #3]	@ zero_extendqisi2
  92 0014 0093     		str	r3, [sp]
  93 0016 0346     		mov	r3, r0
  94 0018 7868     		ldr	r0, [r7, #4]
ARM GAS  C:\Users\tmj32\AppData\Local\Temp\ccUUfkkI.s 			page 5


  95 001a FFF7FEFF 		bl	lv_cont_set_fit4
 135:..\..\..\lvgl\version_6.1.2\lvgl\src\lv_objx/lv_cont.h **** }
  96              		.loc 1 135 0
  97 001e 00BF     		nop
  98 0020 0837     		adds	r7, r7, #8
  99              		.cfi_def_cfa_offset 8
 100 0022 BD46     		mov	sp, r7
 101              		.cfi_def_cfa_register 13
 102              		@ sp needed
 103 0024 80BD     		pop	{r7, pc}
 104              		.cfi_endproc
 105              	.LFE32:
 106              		.size	lv_cont_set_fit, .-lv_cont_set_fit
 107 0026 00BF     		.section	.text.lv_page_set_scrl_fit2,"ax",%progbits
 108              		.align	2
 109              		.thumb
 110              		.thumb_func
 111              		.type	lv_page_set_scrl_fit2, %function
 112              	lv_page_set_scrl_fit2:
 113              	.LFB36:
 114              		.file 2 "..\\..\\..\\lvgl\\version_6.1.2\\lvgl\\src\\lv_objx\\lv_page.h"
   1:..\..\..\lvgl\version_6.1.2\lvgl\src\lv_objx/lv_page.h **** /**
   2:..\..\..\lvgl\version_6.1.2\lvgl\src\lv_objx/lv_page.h ****  * @file lv_page.h
   3:..\..\..\lvgl\version_6.1.2\lvgl\src\lv_objx/lv_page.h ****  *
   4:..\..\..\lvgl\version_6.1.2\lvgl\src\lv_objx/lv_page.h ****  */
   5:..\..\..\lvgl\version_6.1.2\lvgl\src\lv_objx/lv_page.h **** 
   6:..\..\..\lvgl\version_6.1.2\lvgl\src\lv_objx/lv_page.h **** #ifndef LV_PAGE_H
   7:..\..\..\lvgl\version_6.1.2\lvgl\src\lv_objx/lv_page.h **** #define LV_PAGE_H
   8:..\..\..\lvgl\version_6.1.2\lvgl\src\lv_objx/lv_page.h **** 
   9:..\..\..\lvgl\version_6.1.2\lvgl\src\lv_objx/lv_page.h **** #ifdef __cplusplus
  10:..\..\..\lvgl\version_6.1.2\lvgl\src\lv_objx/lv_page.h **** extern "C" {
  11:..\..\..\lvgl\version_6.1.2\lvgl\src\lv_objx/lv_page.h **** #endif
  12:..\..\..\lvgl\version_6.1.2\lvgl\src\lv_objx/lv_page.h **** 
  13:..\..\..\lvgl\version_6.1.2\lvgl\src\lv_objx/lv_page.h **** /*********************
  14:..\..\..\lvgl\version_6.1.2\lvgl\src\lv_objx/lv_page.h ****  *      INCLUDES
  15:..\..\..\lvgl\version_6.1.2\lvgl\src\lv_objx/lv_page.h ****  *********************/
  16:..\..\..\lvgl\version_6.1.2\lvgl\src\lv_objx/lv_page.h **** #ifdef LV_CONF_INCLUDE_SIMPLE
  17:..\..\..\lvgl\version_6.1.2\lvgl\src\lv_objx/lv_page.h **** #include "lv_conf.h"
  18:..\..\..\lvgl\version_6.1.2\lvgl\src\lv_objx/lv_page.h **** #else
  19:..\..\..\lvgl\version_6.1.2\lvgl\src\lv_objx/lv_page.h **** #include "../../../lv_conf.h"
  20:..\..\..\lvgl\version_6.1.2\lvgl\src\lv_objx/lv_page.h **** #endif
  21:..\..\..\lvgl\version_6.1.2\lvgl\src\lv_objx/lv_page.h **** 
  22:..\..\..\lvgl\version_6.1.2\lvgl\src\lv_objx/lv_page.h **** #if LV_USE_PAGE != 0
  23:..\..\..\lvgl\version_6.1.2\lvgl\src\lv_objx/lv_page.h **** 
  24:..\..\..\lvgl\version_6.1.2\lvgl\src\lv_objx/lv_page.h **** /*Testing of dependencies*/
  25:..\..\..\lvgl\version_6.1.2\lvgl\src\lv_objx/lv_page.h **** #if LV_USE_CONT == 0
  26:..\..\..\lvgl\version_6.1.2\lvgl\src\lv_objx/lv_page.h **** #error "lv_page: lv_cont is required. Enable it in lv_conf.h (LV_USE_CONT  1) "
  27:..\..\..\lvgl\version_6.1.2\lvgl\src\lv_objx/lv_page.h **** #endif
  28:..\..\..\lvgl\version_6.1.2\lvgl\src\lv_objx/lv_page.h **** 
  29:..\..\..\lvgl\version_6.1.2\lvgl\src\lv_objx/lv_page.h **** #include "lv_cont.h"
  30:..\..\..\lvgl\version_6.1.2\lvgl\src\lv_objx/lv_page.h **** #include "../lv_core/lv_indev.h"
  31:..\..\..\lvgl\version_6.1.2\lvgl\src\lv_objx/lv_page.h **** #include "../lv_misc/lv_anim.h"
  32:..\..\..\lvgl\version_6.1.2\lvgl\src\lv_objx/lv_page.h **** 
  33:..\..\..\lvgl\version_6.1.2\lvgl\src\lv_objx/lv_page.h **** /*********************
  34:..\..\..\lvgl\version_6.1.2\lvgl\src\lv_objx/lv_page.h ****  *      DEFINES
  35:..\..\..\lvgl\version_6.1.2\lvgl\src\lv_objx/lv_page.h ****  *********************/
  36:..\..\..\lvgl\version_6.1.2\lvgl\src\lv_objx/lv_page.h **** 
ARM GAS  C:\Users\tmj32\AppData\Local\Temp\ccUUfkkI.s 			page 6


  37:..\..\..\lvgl\version_6.1.2\lvgl\src\lv_objx/lv_page.h **** /**********************
  38:..\..\..\lvgl\version_6.1.2\lvgl\src\lv_objx/lv_page.h ****  *      TYPEDEFS
  39:..\..\..\lvgl\version_6.1.2\lvgl\src\lv_objx/lv_page.h ****  **********************/
  40:..\..\..\lvgl\version_6.1.2\lvgl\src\lv_objx/lv_page.h **** 
  41:..\..\..\lvgl\version_6.1.2\lvgl\src\lv_objx/lv_page.h **** /** Scrollbar modes: shows when should the scrollbars be visible*/
  42:..\..\..\lvgl\version_6.1.2\lvgl\src\lv_objx/lv_page.h **** enum {
  43:..\..\..\lvgl\version_6.1.2\lvgl\src\lv_objx/lv_page.h ****     LV_SB_MODE_OFF    = 0x0, /**< Never show scrollbars*/
  44:..\..\..\lvgl\version_6.1.2\lvgl\src\lv_objx/lv_page.h ****     LV_SB_MODE_ON     = 0x1, /**< Always show scrollbars*/
  45:..\..\..\lvgl\version_6.1.2\lvgl\src\lv_objx/lv_page.h ****     LV_SB_MODE_DRAG   = 0x2, /**< Show scrollbars when page is being dragged*/
  46:..\..\..\lvgl\version_6.1.2\lvgl\src\lv_objx/lv_page.h ****     LV_SB_MODE_AUTO   = 0x3, /**< Show scrollbars when the scrollable container is large enough to 
  47:..\..\..\lvgl\version_6.1.2\lvgl\src\lv_objx/lv_page.h ****     LV_SB_MODE_HIDE   = 0x4, /**< Hide the scroll bar temporally*/
  48:..\..\..\lvgl\version_6.1.2\lvgl\src\lv_objx/lv_page.h ****     LV_SB_MODE_UNHIDE = 0x5, /**< Unhide the previously hidden scrollbar. Recover it's type too*/
  49:..\..\..\lvgl\version_6.1.2\lvgl\src\lv_objx/lv_page.h **** };
  50:..\..\..\lvgl\version_6.1.2\lvgl\src\lv_objx/lv_page.h **** typedef uint8_t lv_sb_mode_t;
  51:..\..\..\lvgl\version_6.1.2\lvgl\src\lv_objx/lv_page.h **** 
  52:..\..\..\lvgl\version_6.1.2\lvgl\src\lv_objx/lv_page.h **** /** Edges: describes the four edges of the page*/
  53:..\..\..\lvgl\version_6.1.2\lvgl\src\lv_objx/lv_page.h **** enum { LV_PAGE_EDGE_LEFT = 0x1, LV_PAGE_EDGE_TOP = 0x2, LV_PAGE_EDGE_RIGHT = 0x4, LV_PAGE_EDGE_BOTT
  54:..\..\..\lvgl\version_6.1.2\lvgl\src\lv_objx/lv_page.h **** typedef uint8_t lv_page_edge_t;
  55:..\..\..\lvgl\version_6.1.2\lvgl\src\lv_objx/lv_page.h **** 
  56:..\..\..\lvgl\version_6.1.2\lvgl\src\lv_objx/lv_page.h **** /*Data of page*/
  57:..\..\..\lvgl\version_6.1.2\lvgl\src\lv_objx/lv_page.h **** typedef struct
  58:..\..\..\lvgl\version_6.1.2\lvgl\src\lv_objx/lv_page.h **** {
  59:..\..\..\lvgl\version_6.1.2\lvgl\src\lv_objx/lv_page.h ****     lv_cont_ext_t bg; /*Ext. of ancestor*/
  60:..\..\..\lvgl\version_6.1.2\lvgl\src\lv_objx/lv_page.h ****     /*New data for this type */
  61:..\..\..\lvgl\version_6.1.2\lvgl\src\lv_objx/lv_page.h ****     lv_obj_t * scrl; /*The scrollable object on the background*/
  62:..\..\..\lvgl\version_6.1.2\lvgl\src\lv_objx/lv_page.h ****     struct
  63:..\..\..\lvgl\version_6.1.2\lvgl\src\lv_objx/lv_page.h ****     {
  64:..\..\..\lvgl\version_6.1.2\lvgl\src\lv_objx/lv_page.h ****         const lv_style_t * style; /*Style of scrollbars*/
  65:..\..\..\lvgl\version_6.1.2\lvgl\src\lv_objx/lv_page.h ****         lv_area_t hor_area;       /*Horizontal scrollbar area relative to the page. (Handled by the
  66:..\..\..\lvgl\version_6.1.2\lvgl\src\lv_objx/lv_page.h ****         lv_area_t ver_area;       /*Vertical scrollbar area relative to the page (Handled by the li
  67:..\..\..\lvgl\version_6.1.2\lvgl\src\lv_objx/lv_page.h ****         uint8_t hor_draw : 1;     /*1: horizontal scrollbar is visible now (Handled by the library)
  68:..\..\..\lvgl\version_6.1.2\lvgl\src\lv_objx/lv_page.h ****         uint8_t ver_draw : 1;     /*1: vertical scrollbar is visible now (Handled by the library)*/
  69:..\..\..\lvgl\version_6.1.2\lvgl\src\lv_objx/lv_page.h ****         lv_sb_mode_t mode : 3;    /*Scrollbar visibility from 'lv_page_sb_mode_t'*/
  70:..\..\..\lvgl\version_6.1.2\lvgl\src\lv_objx/lv_page.h ****     } sb;
  71:..\..\..\lvgl\version_6.1.2\lvgl\src\lv_objx/lv_page.h **** #if LV_USE_ANIMATION
  72:..\..\..\lvgl\version_6.1.2\lvgl\src\lv_objx/lv_page.h ****     struct
  73:..\..\..\lvgl\version_6.1.2\lvgl\src\lv_objx/lv_page.h ****     {
  74:..\..\..\lvgl\version_6.1.2\lvgl\src\lv_objx/lv_page.h ****         lv_anim_value_t state;    /*Store the current size of the edge flash effect*/
  75:..\..\..\lvgl\version_6.1.2\lvgl\src\lv_objx/lv_page.h ****         const lv_style_t * style; /*Style of edge flash effect (usually homogeneous circle)*/
  76:..\..\..\lvgl\version_6.1.2\lvgl\src\lv_objx/lv_page.h ****         uint8_t enabled : 1;      /*1: Show a flash animation on the edge*/
  77:..\..\..\lvgl\version_6.1.2\lvgl\src\lv_objx/lv_page.h ****         uint8_t top_ip : 1;       /*Used internally to show that top most position is reached (flas
  78:..\..\..\lvgl\version_6.1.2\lvgl\src\lv_objx/lv_page.h ****                                      Progress)*/
  79:..\..\..\lvgl\version_6.1.2\lvgl\src\lv_objx/lv_page.h ****         uint8_t bottom_ip : 1;    /*Used internally to show that bottom most position is reached (f
  80:..\..\..\lvgl\version_6.1.2\lvgl\src\lv_objx/lv_page.h ****                                      is In Progress)*/
  81:..\..\..\lvgl\version_6.1.2\lvgl\src\lv_objx/lv_page.h ****         uint8_t right_ip : 1;     /*Used internally to show that right most position is reached (fl
  82:..\..\..\lvgl\version_6.1.2\lvgl\src\lv_objx/lv_page.h ****                                      is In Progress)*/
  83:..\..\..\lvgl\version_6.1.2\lvgl\src\lv_objx/lv_page.h ****         uint8_t left_ip : 1;      /*Used internally to show that left most position is reached (fla
  84:..\..\..\lvgl\version_6.1.2\lvgl\src\lv_objx/lv_page.h ****                                      In Progress)*/
  85:..\..\..\lvgl\version_6.1.2\lvgl\src\lv_objx/lv_page.h ****     } edge_flash;
  86:..\..\..\lvgl\version_6.1.2\lvgl\src\lv_objx/lv_page.h **** 
  87:..\..\..\lvgl\version_6.1.2\lvgl\src\lv_objx/lv_page.h ****     uint16_t anim_time; /*Scroll animation time*/
  88:..\..\..\lvgl\version_6.1.2\lvgl\src\lv_objx/lv_page.h **** #endif
  89:..\..\..\lvgl\version_6.1.2\lvgl\src\lv_objx/lv_page.h **** 
  90:..\..\..\lvgl\version_6.1.2\lvgl\src\lv_objx/lv_page.h ****     uint8_t scroll_prop : 1;    /*1: Propagate the scrolling the the parent if the edge is reached*
  91:..\..\..\lvgl\version_6.1.2\lvgl\src\lv_objx/lv_page.h ****     uint8_t scroll_prop_ip : 1; /*1: Scroll propagation is in progress (used by the library)*/
  92:..\..\..\lvgl\version_6.1.2\lvgl\src\lv_objx/lv_page.h **** } lv_page_ext_t;
  93:..\..\..\lvgl\version_6.1.2\lvgl\src\lv_objx/lv_page.h **** 
ARM GAS  C:\Users\tmj32\AppData\Local\Temp\ccUUfkkI.s 			page 7


  94:..\..\..\lvgl\version_6.1.2\lvgl\src\lv_objx/lv_page.h **** enum {
  95:..\..\..\lvgl\version_6.1.2\lvgl\src\lv_objx/lv_page.h ****     LV_PAGE_STYLE_BG,
  96:..\..\..\lvgl\version_6.1.2\lvgl\src\lv_objx/lv_page.h ****     LV_PAGE_STYLE_SCRL,
  97:..\..\..\lvgl\version_6.1.2\lvgl\src\lv_objx/lv_page.h ****     LV_PAGE_STYLE_SB,
  98:..\..\..\lvgl\version_6.1.2\lvgl\src\lv_objx/lv_page.h ****     LV_PAGE_STYLE_EDGE_FLASH,
  99:..\..\..\lvgl\version_6.1.2\lvgl\src\lv_objx/lv_page.h **** };
 100:..\..\..\lvgl\version_6.1.2\lvgl\src\lv_objx/lv_page.h **** typedef uint8_t lv_page_style_t;
 101:..\..\..\lvgl\version_6.1.2\lvgl\src\lv_objx/lv_page.h **** 
 102:..\..\..\lvgl\version_6.1.2\lvgl\src\lv_objx/lv_page.h **** /**********************
 103:..\..\..\lvgl\version_6.1.2\lvgl\src\lv_objx/lv_page.h ****  * GLOBAL PROTOTYPES
 104:..\..\..\lvgl\version_6.1.2\lvgl\src\lv_objx/lv_page.h ****  **********************/
 105:..\..\..\lvgl\version_6.1.2\lvgl\src\lv_objx/lv_page.h **** 
 106:..\..\..\lvgl\version_6.1.2\lvgl\src\lv_objx/lv_page.h **** /**
 107:..\..\..\lvgl\version_6.1.2\lvgl\src\lv_objx/lv_page.h ****  * Create a page objects
 108:..\..\..\lvgl\version_6.1.2\lvgl\src\lv_objx/lv_page.h ****  * @param par pointer to an object, it will be the parent of the new page
 109:..\..\..\lvgl\version_6.1.2\lvgl\src\lv_objx/lv_page.h ****  * @param copy pointer to a page object, if not NULL then the new object will be copied from it
 110:..\..\..\lvgl\version_6.1.2\lvgl\src\lv_objx/lv_page.h ****  * @return pointer to the created page
 111:..\..\..\lvgl\version_6.1.2\lvgl\src\lv_objx/lv_page.h ****  */
 112:..\..\..\lvgl\version_6.1.2\lvgl\src\lv_objx/lv_page.h **** lv_obj_t * lv_page_create(lv_obj_t * par, const lv_obj_t * copy);
 113:..\..\..\lvgl\version_6.1.2\lvgl\src\lv_objx/lv_page.h **** 
 114:..\..\..\lvgl\version_6.1.2\lvgl\src\lv_objx/lv_page.h **** /**
 115:..\..\..\lvgl\version_6.1.2\lvgl\src\lv_objx/lv_page.h ****  * Delete all children of the scrl object, without deleting scrl child.
 116:..\..\..\lvgl\version_6.1.2\lvgl\src\lv_objx/lv_page.h ****  * @param page pointer to an object
 117:..\..\..\lvgl\version_6.1.2\lvgl\src\lv_objx/lv_page.h ****  */
 118:..\..\..\lvgl\version_6.1.2\lvgl\src\lv_objx/lv_page.h **** void lv_page_clean(lv_obj_t * page);
 119:..\..\..\lvgl\version_6.1.2\lvgl\src\lv_objx/lv_page.h **** 
 120:..\..\..\lvgl\version_6.1.2\lvgl\src\lv_objx/lv_page.h **** /**
 121:..\..\..\lvgl\version_6.1.2\lvgl\src\lv_objx/lv_page.h ****  * Get the scrollable object of a page
 122:..\..\..\lvgl\version_6.1.2\lvgl\src\lv_objx/lv_page.h ****  * @param page pointer to a page object
 123:..\..\..\lvgl\version_6.1.2\lvgl\src\lv_objx/lv_page.h ****  * @return pointer to a container which is the scrollable part of the page
 124:..\..\..\lvgl\version_6.1.2\lvgl\src\lv_objx/lv_page.h ****  */
 125:..\..\..\lvgl\version_6.1.2\lvgl\src\lv_objx/lv_page.h **** lv_obj_t * lv_page_get_scrl(const lv_obj_t * page);
 126:..\..\..\lvgl\version_6.1.2\lvgl\src\lv_objx/lv_page.h **** 
 127:..\..\..\lvgl\version_6.1.2\lvgl\src\lv_objx/lv_page.h **** /**
 128:..\..\..\lvgl\version_6.1.2\lvgl\src\lv_objx/lv_page.h ****  * Get the animation time
 129:..\..\..\lvgl\version_6.1.2\lvgl\src\lv_objx/lv_page.h ****  * @param page pointer to a page object
 130:..\..\..\lvgl\version_6.1.2\lvgl\src\lv_objx/lv_page.h ****  * @return the animation time in milliseconds
 131:..\..\..\lvgl\version_6.1.2\lvgl\src\lv_objx/lv_page.h ****  */
 132:..\..\..\lvgl\version_6.1.2\lvgl\src\lv_objx/lv_page.h **** uint16_t lv_page_get_anim_time(const lv_obj_t * page);
 133:..\..\..\lvgl\version_6.1.2\lvgl\src\lv_objx/lv_page.h **** 
 134:..\..\..\lvgl\version_6.1.2\lvgl\src\lv_objx/lv_page.h **** /*=====================
 135:..\..\..\lvgl\version_6.1.2\lvgl\src\lv_objx/lv_page.h ****  * Setter functions
 136:..\..\..\lvgl\version_6.1.2\lvgl\src\lv_objx/lv_page.h ****  *====================*/
 137:..\..\..\lvgl\version_6.1.2\lvgl\src\lv_objx/lv_page.h **** 
 138:..\..\..\lvgl\version_6.1.2\lvgl\src\lv_objx/lv_page.h **** /**
 139:..\..\..\lvgl\version_6.1.2\lvgl\src\lv_objx/lv_page.h ****  * Set the scroll bar mode on a page
 140:..\..\..\lvgl\version_6.1.2\lvgl\src\lv_objx/lv_page.h ****  * @param page pointer to a page object
 141:..\..\..\lvgl\version_6.1.2\lvgl\src\lv_objx/lv_page.h ****  * @param sb_mode the new mode from 'lv_page_sb.mode_t' enum
 142:..\..\..\lvgl\version_6.1.2\lvgl\src\lv_objx/lv_page.h ****  */
 143:..\..\..\lvgl\version_6.1.2\lvgl\src\lv_objx/lv_page.h **** void lv_page_set_sb_mode(lv_obj_t * page, lv_sb_mode_t sb_mode);
 144:..\..\..\lvgl\version_6.1.2\lvgl\src\lv_objx/lv_page.h **** 
 145:..\..\..\lvgl\version_6.1.2\lvgl\src\lv_objx/lv_page.h **** /**
 146:..\..\..\lvgl\version_6.1.2\lvgl\src\lv_objx/lv_page.h ****  * Set the animation time for the page
 147:..\..\..\lvgl\version_6.1.2\lvgl\src\lv_objx/lv_page.h ****  * @param page pointer to a page object
 148:..\..\..\lvgl\version_6.1.2\lvgl\src\lv_objx/lv_page.h ****  * @param anim_time animation time in milliseconds
 149:..\..\..\lvgl\version_6.1.2\lvgl\src\lv_objx/lv_page.h ****  */
 150:..\..\..\lvgl\version_6.1.2\lvgl\src\lv_objx/lv_page.h **** void lv_page_set_anim_time(lv_obj_t * page, uint16_t anim_time);
ARM GAS  C:\Users\tmj32\AppData\Local\Temp\ccUUfkkI.s 			page 8


 151:..\..\..\lvgl\version_6.1.2\lvgl\src\lv_objx/lv_page.h **** 
 152:..\..\..\lvgl\version_6.1.2\lvgl\src\lv_objx/lv_page.h **** /**
 153:..\..\..\lvgl\version_6.1.2\lvgl\src\lv_objx/lv_page.h ****  * Enable the scroll propagation feature. If enabled then the page will move its parent if there is
 154:..\..\..\lvgl\version_6.1.2\lvgl\src\lv_objx/lv_page.h ****  * no more space to scroll.
 155:..\..\..\lvgl\version_6.1.2\lvgl\src\lv_objx/lv_page.h ****  * @param page pointer to a Page
 156:..\..\..\lvgl\version_6.1.2\lvgl\src\lv_objx/lv_page.h ****  * @param en true or false to enable/disable scroll propagation
 157:..\..\..\lvgl\version_6.1.2\lvgl\src\lv_objx/lv_page.h ****  */
 158:..\..\..\lvgl\version_6.1.2\lvgl\src\lv_objx/lv_page.h **** void lv_page_set_scroll_propagation(lv_obj_t * page, bool en);
 159:..\..\..\lvgl\version_6.1.2\lvgl\src\lv_objx/lv_page.h **** 
 160:..\..\..\lvgl\version_6.1.2\lvgl\src\lv_objx/lv_page.h **** /**
 161:..\..\..\lvgl\version_6.1.2\lvgl\src\lv_objx/lv_page.h ****  * Enable the edge flash effect. (Show an arc when the an edge is reached)
 162:..\..\..\lvgl\version_6.1.2\lvgl\src\lv_objx/lv_page.h ****  * @param page pointer to a Page
 163:..\..\..\lvgl\version_6.1.2\lvgl\src\lv_objx/lv_page.h ****  * @param en true or false to enable/disable end flash
 164:..\..\..\lvgl\version_6.1.2\lvgl\src\lv_objx/lv_page.h ****  */
 165:..\..\..\lvgl\version_6.1.2\lvgl\src\lv_objx/lv_page.h **** void lv_page_set_edge_flash(lv_obj_t * page, bool en);
 166:..\..\..\lvgl\version_6.1.2\lvgl\src\lv_objx/lv_page.h **** 
 167:..\..\..\lvgl\version_6.1.2\lvgl\src\lv_objx/lv_page.h **** /**
 168:..\..\..\lvgl\version_6.1.2\lvgl\src\lv_objx/lv_page.h ****  * Set the fit policy in all 4 directions separately.
 169:..\..\..\lvgl\version_6.1.2\lvgl\src\lv_objx/lv_page.h ****  * It tell how to change the page size automatically.
 170:..\..\..\lvgl\version_6.1.2\lvgl\src\lv_objx/lv_page.h ****  * @param page pointer to a page object
 171:..\..\..\lvgl\version_6.1.2\lvgl\src\lv_objx/lv_page.h ****  * @param left left fit policy from `lv_fit_t`
 172:..\..\..\lvgl\version_6.1.2\lvgl\src\lv_objx/lv_page.h ****  * @param right right fit policy from `lv_fit_t`
 173:..\..\..\lvgl\version_6.1.2\lvgl\src\lv_objx/lv_page.h ****  * @param top bottom fit policy from `lv_fit_t`
 174:..\..\..\lvgl\version_6.1.2\lvgl\src\lv_objx/lv_page.h ****  * @param bottom bottom fit policy from `lv_fit_t`
 175:..\..\..\lvgl\version_6.1.2\lvgl\src\lv_objx/lv_page.h ****  */
 176:..\..\..\lvgl\version_6.1.2\lvgl\src\lv_objx/lv_page.h **** static inline void lv_page_set_scrl_fit4(lv_obj_t * page, lv_fit_t left, lv_fit_t right, lv_fit_t t
 177:..\..\..\lvgl\version_6.1.2\lvgl\src\lv_objx/lv_page.h **** {
 178:..\..\..\lvgl\version_6.1.2\lvgl\src\lv_objx/lv_page.h ****     lv_cont_set_fit4(lv_page_get_scrl(page), left, right, top, bottom);
 179:..\..\..\lvgl\version_6.1.2\lvgl\src\lv_objx/lv_page.h **** }
 180:..\..\..\lvgl\version_6.1.2\lvgl\src\lv_objx/lv_page.h **** 
 181:..\..\..\lvgl\version_6.1.2\lvgl\src\lv_objx/lv_page.h **** /**
 182:..\..\..\lvgl\version_6.1.2\lvgl\src\lv_objx/lv_page.h ****  * Set the fit policy horizontally and vertically separately.
 183:..\..\..\lvgl\version_6.1.2\lvgl\src\lv_objx/lv_page.h ****  * It tell how to change the page size automatically.
 184:..\..\..\lvgl\version_6.1.2\lvgl\src\lv_objx/lv_page.h ****  * @param page pointer to a page object
 185:..\..\..\lvgl\version_6.1.2\lvgl\src\lv_objx/lv_page.h ****  * @param hot horizontal fit policy from `lv_fit_t`
 186:..\..\..\lvgl\version_6.1.2\lvgl\src\lv_objx/lv_page.h ****  * @param ver vertical fit policy from `lv_fit_t`
 187:..\..\..\lvgl\version_6.1.2\lvgl\src\lv_objx/lv_page.h ****  */
 188:..\..\..\lvgl\version_6.1.2\lvgl\src\lv_objx/lv_page.h **** static inline void lv_page_set_scrl_fit2(lv_obj_t * page, lv_fit_t hor, lv_fit_t ver)
 189:..\..\..\lvgl\version_6.1.2\lvgl\src\lv_objx/lv_page.h **** {
 115              		.loc 2 189 0
 116              		.cfi_startproc
 117              		@ args = 0, pretend = 0, frame = 8
 118              		@ frame_needed = 1, uses_anonymous_args = 0
 119 0000 80B5     		push	{r7, lr}
 120              		.cfi_def_cfa_offset 8
 121              		.cfi_offset 7, -8
 122              		.cfi_offset 14, -4
 123 0002 82B0     		sub	sp, sp, #8
 124              		.cfi_def_cfa_offset 16
 125 0004 00AF     		add	r7, sp, #0
 126              		.cfi_def_cfa_register 7
 127 0006 7860     		str	r0, [r7, #4]
 128 0008 0B46     		mov	r3, r1
 129 000a FB70     		strb	r3, [r7, #3]
 130 000c 1346     		mov	r3, r2
 131 000e BB70     		strb	r3, [r7, #2]
 190:..\..\..\lvgl\version_6.1.2\lvgl\src\lv_objx/lv_page.h ****     lv_cont_set_fit2(lv_page_get_scrl(page), hor, ver);
ARM GAS  C:\Users\tmj32\AppData\Local\Temp\ccUUfkkI.s 			page 9


 132              		.loc 2 190 0
 133 0010 7868     		ldr	r0, [r7, #4]
 134 0012 FFF7FEFF 		bl	lv_page_get_scrl
 135 0016 BA78     		ldrb	r2, [r7, #2]	@ zero_extendqisi2
 136 0018 FB78     		ldrb	r3, [r7, #3]	@ zero_extendqisi2
 137 001a 1946     		mov	r1, r3
 138 001c FFF7FEFF 		bl	lv_cont_set_fit2
 191:..\..\..\lvgl\version_6.1.2\lvgl\src\lv_objx/lv_page.h **** }
 139              		.loc 2 191 0
 140 0020 00BF     		nop
 141 0022 0837     		adds	r7, r7, #8
 142              		.cfi_def_cfa_offset 8
 143 0024 BD46     		mov	sp, r7
 144              		.cfi_def_cfa_register 13
 145              		@ sp needed
 146 0026 80BD     		pop	{r7, pc}
 147              		.cfi_endproc
 148              	.LFE36:
 149              		.size	lv_page_set_scrl_fit2, .-lv_page_set_scrl_fit2
 150              		.section	.text.lv_page_set_scrl_layout,"ax",%progbits
 151              		.align	2
 152              		.thumb
 153              		.thumb_func
 154              		.type	lv_page_set_scrl_layout, %function
 155              	lv_page_set_scrl_layout:
 156              	.LFB40:
 192:..\..\..\lvgl\version_6.1.2\lvgl\src\lv_objx/lv_page.h **** 
 193:..\..\..\lvgl\version_6.1.2\lvgl\src\lv_objx/lv_page.h **** /**
 194:..\..\..\lvgl\version_6.1.2\lvgl\src\lv_objx/lv_page.h ****  * Set the fit policyin all 4 direction at once.
 195:..\..\..\lvgl\version_6.1.2\lvgl\src\lv_objx/lv_page.h ****  * It tell how to change the page size automatically.
 196:..\..\..\lvgl\version_6.1.2\lvgl\src\lv_objx/lv_page.h ****  * @param page pointer to a button object
 197:..\..\..\lvgl\version_6.1.2\lvgl\src\lv_objx/lv_page.h ****  * @param fit fit policy from `lv_fit_t`
 198:..\..\..\lvgl\version_6.1.2\lvgl\src\lv_objx/lv_page.h ****  */
 199:..\..\..\lvgl\version_6.1.2\lvgl\src\lv_objx/lv_page.h **** static inline void lv_page_set_scrl_fit(lv_obj_t * page, lv_fit_t fit)
 200:..\..\..\lvgl\version_6.1.2\lvgl\src\lv_objx/lv_page.h **** {
 201:..\..\..\lvgl\version_6.1.2\lvgl\src\lv_objx/lv_page.h ****     lv_cont_set_fit(lv_page_get_scrl(page), fit);
 202:..\..\..\lvgl\version_6.1.2\lvgl\src\lv_objx/lv_page.h **** }
 203:..\..\..\lvgl\version_6.1.2\lvgl\src\lv_objx/lv_page.h **** 
 204:..\..\..\lvgl\version_6.1.2\lvgl\src\lv_objx/lv_page.h **** /**
 205:..\..\..\lvgl\version_6.1.2\lvgl\src\lv_objx/lv_page.h ****  * Set width of the scrollable part of a page
 206:..\..\..\lvgl\version_6.1.2\lvgl\src\lv_objx/lv_page.h ****  * @param page pointer to a page object
 207:..\..\..\lvgl\version_6.1.2\lvgl\src\lv_objx/lv_page.h ****  * @param w the new width of the scrollable (it ha no effect is horizontal fit is enabled)
 208:..\..\..\lvgl\version_6.1.2\lvgl\src\lv_objx/lv_page.h ****  */
 209:..\..\..\lvgl\version_6.1.2\lvgl\src\lv_objx/lv_page.h **** static inline void lv_page_set_scrl_width(lv_obj_t * page, lv_coord_t w)
 210:..\..\..\lvgl\version_6.1.2\lvgl\src\lv_objx/lv_page.h **** {
 211:..\..\..\lvgl\version_6.1.2\lvgl\src\lv_objx/lv_page.h ****     lv_obj_set_width(lv_page_get_scrl(page), w);
 212:..\..\..\lvgl\version_6.1.2\lvgl\src\lv_objx/lv_page.h **** }
 213:..\..\..\lvgl\version_6.1.2\lvgl\src\lv_objx/lv_page.h **** 
 214:..\..\..\lvgl\version_6.1.2\lvgl\src\lv_objx/lv_page.h **** /**
 215:..\..\..\lvgl\version_6.1.2\lvgl\src\lv_objx/lv_page.h ****  * Set height of the scrollable part of a page
 216:..\..\..\lvgl\version_6.1.2\lvgl\src\lv_objx/lv_page.h ****  * @param page pointer to a page object
 217:..\..\..\lvgl\version_6.1.2\lvgl\src\lv_objx/lv_page.h ****  * @param h the new height of the scrollable (it ha no effect is vertical fit is enabled)
 218:..\..\..\lvgl\version_6.1.2\lvgl\src\lv_objx/lv_page.h ****  */
 219:..\..\..\lvgl\version_6.1.2\lvgl\src\lv_objx/lv_page.h **** static inline void lv_page_set_scrl_height(lv_obj_t * page, lv_coord_t h)
 220:..\..\..\lvgl\version_6.1.2\lvgl\src\lv_objx/lv_page.h **** {
 221:..\..\..\lvgl\version_6.1.2\lvgl\src\lv_objx/lv_page.h ****     lv_obj_set_height(lv_page_get_scrl(page), h);
 222:..\..\..\lvgl\version_6.1.2\lvgl\src\lv_objx/lv_page.h **** }
ARM GAS  C:\Users\tmj32\AppData\Local\Temp\ccUUfkkI.s 			page 10


 223:..\..\..\lvgl\version_6.1.2\lvgl\src\lv_objx/lv_page.h **** 
 224:..\..\..\lvgl\version_6.1.2\lvgl\src\lv_objx/lv_page.h **** /**
 225:..\..\..\lvgl\version_6.1.2\lvgl\src\lv_objx/lv_page.h ****  * Set the layout of the scrollable part of the page
 226:..\..\..\lvgl\version_6.1.2\lvgl\src\lv_objx/lv_page.h ****  * @param page pointer to a page object
 227:..\..\..\lvgl\version_6.1.2\lvgl\src\lv_objx/lv_page.h ****  * @param layout a layout from 'lv_cont_layout_t'
 228:..\..\..\lvgl\version_6.1.2\lvgl\src\lv_objx/lv_page.h ****  */
 229:..\..\..\lvgl\version_6.1.2\lvgl\src\lv_objx/lv_page.h **** static inline void lv_page_set_scrl_layout(lv_obj_t * page, lv_layout_t layout)
 230:..\..\..\lvgl\version_6.1.2\lvgl\src\lv_objx/lv_page.h **** {
 157              		.loc 2 230 0
 158              		.cfi_startproc
 159              		@ args = 0, pretend = 0, frame = 8
 160              		@ frame_needed = 1, uses_anonymous_args = 0
 161 0000 80B5     		push	{r7, lr}
 162              		.cfi_def_cfa_offset 8
 163              		.cfi_offset 7, -8
 164              		.cfi_offset 14, -4
 165 0002 82B0     		sub	sp, sp, #8
 166              		.cfi_def_cfa_offset 16
 167 0004 00AF     		add	r7, sp, #0
 168              		.cfi_def_cfa_register 7
 169 0006 7860     		str	r0, [r7, #4]
 170 0008 0B46     		mov	r3, r1
 171 000a FB70     		strb	r3, [r7, #3]
 231:..\..\..\lvgl\version_6.1.2\lvgl\src\lv_objx/lv_page.h ****     lv_cont_set_layout(lv_page_get_scrl(page), layout);
 172              		.loc 2 231 0
 173 000c 7868     		ldr	r0, [r7, #4]
 174 000e FFF7FEFF 		bl	lv_page_get_scrl
 175 0012 0246     		mov	r2, r0
 176 0014 FB78     		ldrb	r3, [r7, #3]	@ zero_extendqisi2
 177 0016 1946     		mov	r1, r3
 178 0018 1046     		mov	r0, r2
 179 001a FFF7FEFF 		bl	lv_cont_set_layout
 232:..\..\..\lvgl\version_6.1.2\lvgl\src\lv_objx/lv_page.h **** }
 180              		.loc 2 232 0
 181 001e 00BF     		nop
 182 0020 0837     		adds	r7, r7, #8
 183              		.cfi_def_cfa_offset 8
 184 0022 BD46     		mov	sp, r7
 185              		.cfi_def_cfa_register 13
 186              		@ sp needed
 187 0024 80BD     		pop	{r7, pc}
 188              		.cfi_endproc
 189              	.LFE40:
 190              		.size	lv_page_set_scrl_layout, .-lv_page_set_scrl_layout
 191 0026 00BF     		.section	.text.lv_page_get_scrl_layout,"ax",%progbits
 192              		.align	2
 193              		.thumb
 194              		.thumb_func
 195              		.type	lv_page_get_scrl_layout, %function
 196              	lv_page_get_scrl_layout:
 197              	.LFB43:
 233:..\..\..\lvgl\version_6.1.2\lvgl\src\lv_objx/lv_page.h **** 
 234:..\..\..\lvgl\version_6.1.2\lvgl\src\lv_objx/lv_page.h **** /**
 235:..\..\..\lvgl\version_6.1.2\lvgl\src\lv_objx/lv_page.h ****  * Set a style of a page
 236:..\..\..\lvgl\version_6.1.2\lvgl\src\lv_objx/lv_page.h ****  * @param page pointer to a page object
 237:..\..\..\lvgl\version_6.1.2\lvgl\src\lv_objx/lv_page.h ****  * @param type which style should be set
 238:..\..\..\lvgl\version_6.1.2\lvgl\src\lv_objx/lv_page.h ****  * @param style pointer to a style
ARM GAS  C:\Users\tmj32\AppData\Local\Temp\ccUUfkkI.s 			page 11


 239:..\..\..\lvgl\version_6.1.2\lvgl\src\lv_objx/lv_page.h ****  */
 240:..\..\..\lvgl\version_6.1.2\lvgl\src\lv_objx/lv_page.h **** void lv_page_set_style(lv_obj_t * page, lv_page_style_t type, const lv_style_t * style);
 241:..\..\..\lvgl\version_6.1.2\lvgl\src\lv_objx/lv_page.h **** 
 242:..\..\..\lvgl\version_6.1.2\lvgl\src\lv_objx/lv_page.h **** /*=====================
 243:..\..\..\lvgl\version_6.1.2\lvgl\src\lv_objx/lv_page.h ****  * Getter functions
 244:..\..\..\lvgl\version_6.1.2\lvgl\src\lv_objx/lv_page.h ****  *====================*/
 245:..\..\..\lvgl\version_6.1.2\lvgl\src\lv_objx/lv_page.h **** 
 246:..\..\..\lvgl\version_6.1.2\lvgl\src\lv_objx/lv_page.h **** /**
 247:..\..\..\lvgl\version_6.1.2\lvgl\src\lv_objx/lv_page.h ****  * Set the scroll bar mode on a page
 248:..\..\..\lvgl\version_6.1.2\lvgl\src\lv_objx/lv_page.h ****  * @param page pointer to a page object
 249:..\..\..\lvgl\version_6.1.2\lvgl\src\lv_objx/lv_page.h ****  * @return the mode from 'lv_page_sb.mode_t' enum
 250:..\..\..\lvgl\version_6.1.2\lvgl\src\lv_objx/lv_page.h ****  */
 251:..\..\..\lvgl\version_6.1.2\lvgl\src\lv_objx/lv_page.h **** lv_sb_mode_t lv_page_get_sb_mode(const lv_obj_t * page);
 252:..\..\..\lvgl\version_6.1.2\lvgl\src\lv_objx/lv_page.h **** 
 253:..\..\..\lvgl\version_6.1.2\lvgl\src\lv_objx/lv_page.h **** /**
 254:..\..\..\lvgl\version_6.1.2\lvgl\src\lv_objx/lv_page.h ****  * Get the scroll propagation property
 255:..\..\..\lvgl\version_6.1.2\lvgl\src\lv_objx/lv_page.h ****  * @param page pointer to a Page
 256:..\..\..\lvgl\version_6.1.2\lvgl\src\lv_objx/lv_page.h ****  * @return true or false
 257:..\..\..\lvgl\version_6.1.2\lvgl\src\lv_objx/lv_page.h ****  */
 258:..\..\..\lvgl\version_6.1.2\lvgl\src\lv_objx/lv_page.h **** bool lv_page_get_scroll_propagation(lv_obj_t * page);
 259:..\..\..\lvgl\version_6.1.2\lvgl\src\lv_objx/lv_page.h **** 
 260:..\..\..\lvgl\version_6.1.2\lvgl\src\lv_objx/lv_page.h **** /**
 261:..\..\..\lvgl\version_6.1.2\lvgl\src\lv_objx/lv_page.h ****  * Get the edge flash effect property.
 262:..\..\..\lvgl\version_6.1.2\lvgl\src\lv_objx/lv_page.h ****  * @param page pointer to a Page
 263:..\..\..\lvgl\version_6.1.2\lvgl\src\lv_objx/lv_page.h ****  * return true or false
 264:..\..\..\lvgl\version_6.1.2\lvgl\src\lv_objx/lv_page.h ****  */
 265:..\..\..\lvgl\version_6.1.2\lvgl\src\lv_objx/lv_page.h **** bool lv_page_get_edge_flash(lv_obj_t * page);
 266:..\..\..\lvgl\version_6.1.2\lvgl\src\lv_objx/lv_page.h **** 
 267:..\..\..\lvgl\version_6.1.2\lvgl\src\lv_objx/lv_page.h **** /**
 268:..\..\..\lvgl\version_6.1.2\lvgl\src\lv_objx/lv_page.h ****  * Get that width which can be set to the children to still not cause overflow (show scrollbars)
 269:..\..\..\lvgl\version_6.1.2\lvgl\src\lv_objx/lv_page.h ****  * @param page pointer to a page object
 270:..\..\..\lvgl\version_6.1.2\lvgl\src\lv_objx/lv_page.h ****  * @return the width which still fits into the page
 271:..\..\..\lvgl\version_6.1.2\lvgl\src\lv_objx/lv_page.h ****  */
 272:..\..\..\lvgl\version_6.1.2\lvgl\src\lv_objx/lv_page.h **** lv_coord_t lv_page_get_fit_width(lv_obj_t * page);
 273:..\..\..\lvgl\version_6.1.2\lvgl\src\lv_objx/lv_page.h **** 
 274:..\..\..\lvgl\version_6.1.2\lvgl\src\lv_objx/lv_page.h **** /**
 275:..\..\..\lvgl\version_6.1.2\lvgl\src\lv_objx/lv_page.h ****  * Get that height which can be set to the children to still not cause overflow (show scrollbars)
 276:..\..\..\lvgl\version_6.1.2\lvgl\src\lv_objx/lv_page.h ****  * @param page pointer to a page object
 277:..\..\..\lvgl\version_6.1.2\lvgl\src\lv_objx/lv_page.h ****  * @return the height which still fits into the page
 278:..\..\..\lvgl\version_6.1.2\lvgl\src\lv_objx/lv_page.h ****  */
 279:..\..\..\lvgl\version_6.1.2\lvgl\src\lv_objx/lv_page.h **** lv_coord_t lv_page_get_fit_height(lv_obj_t * page);
 280:..\..\..\lvgl\version_6.1.2\lvgl\src\lv_objx/lv_page.h **** 
 281:..\..\..\lvgl\version_6.1.2\lvgl\src\lv_objx/lv_page.h **** /**
 282:..\..\..\lvgl\version_6.1.2\lvgl\src\lv_objx/lv_page.h ****  * Get width of the scrollable part of a page
 283:..\..\..\lvgl\version_6.1.2\lvgl\src\lv_objx/lv_page.h ****  * @param page pointer to a page object
 284:..\..\..\lvgl\version_6.1.2\lvgl\src\lv_objx/lv_page.h ****  * @return the width of the scrollable
 285:..\..\..\lvgl\version_6.1.2\lvgl\src\lv_objx/lv_page.h ****  */
 286:..\..\..\lvgl\version_6.1.2\lvgl\src\lv_objx/lv_page.h **** static inline lv_coord_t lv_page_get_scrl_width(const lv_obj_t * page)
 287:..\..\..\lvgl\version_6.1.2\lvgl\src\lv_objx/lv_page.h **** {
 288:..\..\..\lvgl\version_6.1.2\lvgl\src\lv_objx/lv_page.h ****     return lv_obj_get_width(lv_page_get_scrl(page));
 289:..\..\..\lvgl\version_6.1.2\lvgl\src\lv_objx/lv_page.h **** }
 290:..\..\..\lvgl\version_6.1.2\lvgl\src\lv_objx/lv_page.h **** 
 291:..\..\..\lvgl\version_6.1.2\lvgl\src\lv_objx/lv_page.h **** /**
 292:..\..\..\lvgl\version_6.1.2\lvgl\src\lv_objx/lv_page.h ****  * Get height of the scrollable part of a page
 293:..\..\..\lvgl\version_6.1.2\lvgl\src\lv_objx/lv_page.h ****  * @param page pointer to a page object
 294:..\..\..\lvgl\version_6.1.2\lvgl\src\lv_objx/lv_page.h ****  * @return the height of the scrollable
 295:..\..\..\lvgl\version_6.1.2\lvgl\src\lv_objx/lv_page.h ****  */
ARM GAS  C:\Users\tmj32\AppData\Local\Temp\ccUUfkkI.s 			page 12


 296:..\..\..\lvgl\version_6.1.2\lvgl\src\lv_objx/lv_page.h **** static inline lv_coord_t lv_page_get_scrl_height(const lv_obj_t * page)
 297:..\..\..\lvgl\version_6.1.2\lvgl\src\lv_objx/lv_page.h **** {
 298:..\..\..\lvgl\version_6.1.2\lvgl\src\lv_objx/lv_page.h ****     return lv_obj_get_height(lv_page_get_scrl(page));
 299:..\..\..\lvgl\version_6.1.2\lvgl\src\lv_objx/lv_page.h **** }
 300:..\..\..\lvgl\version_6.1.2\lvgl\src\lv_objx/lv_page.h **** 
 301:..\..\..\lvgl\version_6.1.2\lvgl\src\lv_objx/lv_page.h **** /**
 302:..\..\..\lvgl\version_6.1.2\lvgl\src\lv_objx/lv_page.h ****  * Get the layout of the scrollable part of a page
 303:..\..\..\lvgl\version_6.1.2\lvgl\src\lv_objx/lv_page.h ****  * @param page pointer to page object
 304:..\..\..\lvgl\version_6.1.2\lvgl\src\lv_objx/lv_page.h ****  * @return the layout from 'lv_cont_layout_t'
 305:..\..\..\lvgl\version_6.1.2\lvgl\src\lv_objx/lv_page.h ****  */
 306:..\..\..\lvgl\version_6.1.2\lvgl\src\lv_objx/lv_page.h **** static inline lv_layout_t lv_page_get_scrl_layout(const lv_obj_t * page)
 307:..\..\..\lvgl\version_6.1.2\lvgl\src\lv_objx/lv_page.h **** {
 198              		.loc 2 307 0
 199              		.cfi_startproc
 200              		@ args = 0, pretend = 0, frame = 8
 201              		@ frame_needed = 1, uses_anonymous_args = 0
 202 0000 80B5     		push	{r7, lr}
 203              		.cfi_def_cfa_offset 8
 204              		.cfi_offset 7, -8
 205              		.cfi_offset 14, -4
 206 0002 82B0     		sub	sp, sp, #8
 207              		.cfi_def_cfa_offset 16
 208 0004 00AF     		add	r7, sp, #0
 209              		.cfi_def_cfa_register 7
 210 0006 7860     		str	r0, [r7, #4]
 308:..\..\..\lvgl\version_6.1.2\lvgl\src\lv_objx/lv_page.h ****     return lv_cont_get_layout(lv_page_get_scrl(page));
 211              		.loc 2 308 0
 212 0008 7868     		ldr	r0, [r7, #4]
 213 000a FFF7FEFF 		bl	lv_page_get_scrl
 214 000e 0346     		mov	r3, r0
 215 0010 1846     		mov	r0, r3
 216 0012 FFF7FEFF 		bl	lv_cont_get_layout
 217 0016 0346     		mov	r3, r0
 309:..\..\..\lvgl\version_6.1.2\lvgl\src\lv_objx/lv_page.h **** }
 218              		.loc 2 309 0
 219 0018 1846     		mov	r0, r3
 220 001a 0837     		adds	r7, r7, #8
 221              		.cfi_def_cfa_offset 8
 222 001c BD46     		mov	sp, r7
 223              		.cfi_def_cfa_register 13
 224              		@ sp needed
 225 001e 80BD     		pop	{r7, pc}
 226              		.cfi_endproc
 227              	.LFE43:
 228              		.size	lv_page_get_scrl_layout, .-lv_page_get_scrl_layout
 229              		.section	.text.lv_btn_set_layout,"ax",%progbits
 230              		.align	2
 231              		.thumb
 232              		.thumb_func
 233              		.type	lv_btn_set_layout, %function
 234              	lv_btn_set_layout:
 235              	.LFB48:
 236              		.file 3 "..\\..\\..\\lvgl\\version_6.1.2\\lvgl\\src\\lv_objx\\lv_btn.h"
   1:..\..\..\lvgl\version_6.1.2\lvgl\src\lv_objx/lv_btn.h **** /**
   2:..\..\..\lvgl\version_6.1.2\lvgl\src\lv_objx/lv_btn.h ****  * @file lv_btn.h
   3:..\..\..\lvgl\version_6.1.2\lvgl\src\lv_objx/lv_btn.h ****  *
   4:..\..\..\lvgl\version_6.1.2\lvgl\src\lv_objx/lv_btn.h ****  */
ARM GAS  C:\Users\tmj32\AppData\Local\Temp\ccUUfkkI.s 			page 13


   5:..\..\..\lvgl\version_6.1.2\lvgl\src\lv_objx/lv_btn.h **** 
   6:..\..\..\lvgl\version_6.1.2\lvgl\src\lv_objx/lv_btn.h **** #ifndef LV_BTN_H
   7:..\..\..\lvgl\version_6.1.2\lvgl\src\lv_objx/lv_btn.h **** #define LV_BTN_H
   8:..\..\..\lvgl\version_6.1.2\lvgl\src\lv_objx/lv_btn.h **** 
   9:..\..\..\lvgl\version_6.1.2\lvgl\src\lv_objx/lv_btn.h **** #ifdef __cplusplus
  10:..\..\..\lvgl\version_6.1.2\lvgl\src\lv_objx/lv_btn.h **** extern "C" {
  11:..\..\..\lvgl\version_6.1.2\lvgl\src\lv_objx/lv_btn.h **** #endif
  12:..\..\..\lvgl\version_6.1.2\lvgl\src\lv_objx/lv_btn.h **** 
  13:..\..\..\lvgl\version_6.1.2\lvgl\src\lv_objx/lv_btn.h **** /*********************
  14:..\..\..\lvgl\version_6.1.2\lvgl\src\lv_objx/lv_btn.h ****  *      INCLUDES
  15:..\..\..\lvgl\version_6.1.2\lvgl\src\lv_objx/lv_btn.h ****  *********************/
  16:..\..\..\lvgl\version_6.1.2\lvgl\src\lv_objx/lv_btn.h **** #ifdef LV_CONF_INCLUDE_SIMPLE
  17:..\..\..\lvgl\version_6.1.2\lvgl\src\lv_objx/lv_btn.h **** #include "lv_conf.h"
  18:..\..\..\lvgl\version_6.1.2\lvgl\src\lv_objx/lv_btn.h **** #else
  19:..\..\..\lvgl\version_6.1.2\lvgl\src\lv_objx/lv_btn.h **** #include "../../../lv_conf.h"
  20:..\..\..\lvgl\version_6.1.2\lvgl\src\lv_objx/lv_btn.h **** #endif
  21:..\..\..\lvgl\version_6.1.2\lvgl\src\lv_objx/lv_btn.h **** 
  22:..\..\..\lvgl\version_6.1.2\lvgl\src\lv_objx/lv_btn.h **** #if LV_USE_BTN != 0
  23:..\..\..\lvgl\version_6.1.2\lvgl\src\lv_objx/lv_btn.h **** 
  24:..\..\..\lvgl\version_6.1.2\lvgl\src\lv_objx/lv_btn.h **** /*Testing of dependencies*/
  25:..\..\..\lvgl\version_6.1.2\lvgl\src\lv_objx/lv_btn.h **** #if LV_USE_CONT == 0
  26:..\..\..\lvgl\version_6.1.2\lvgl\src\lv_objx/lv_btn.h **** #error "lv_btn: lv_cont is required. Enable it in lv_conf.h (LV_USE_CONT  1) "
  27:..\..\..\lvgl\version_6.1.2\lvgl\src\lv_objx/lv_btn.h **** #endif
  28:..\..\..\lvgl\version_6.1.2\lvgl\src\lv_objx/lv_btn.h **** 
  29:..\..\..\lvgl\version_6.1.2\lvgl\src\lv_objx/lv_btn.h **** #include "lv_cont.h"
  30:..\..\..\lvgl\version_6.1.2\lvgl\src\lv_objx/lv_btn.h **** #include "../lv_core/lv_indev.h"
  31:..\..\..\lvgl\version_6.1.2\lvgl\src\lv_objx/lv_btn.h **** 
  32:..\..\..\lvgl\version_6.1.2\lvgl\src\lv_objx/lv_btn.h **** /*********************
  33:..\..\..\lvgl\version_6.1.2\lvgl\src\lv_objx/lv_btn.h ****  *      DEFINES
  34:..\..\..\lvgl\version_6.1.2\lvgl\src\lv_objx/lv_btn.h ****  *********************/
  35:..\..\..\lvgl\version_6.1.2\lvgl\src\lv_objx/lv_btn.h **** 
  36:..\..\..\lvgl\version_6.1.2\lvgl\src\lv_objx/lv_btn.h **** /**********************
  37:..\..\..\lvgl\version_6.1.2\lvgl\src\lv_objx/lv_btn.h ****  *      TYPEDEFS
  38:..\..\..\lvgl\version_6.1.2\lvgl\src\lv_objx/lv_btn.h ****  **********************/
  39:..\..\..\lvgl\version_6.1.2\lvgl\src\lv_objx/lv_btn.h **** 
  40:..\..\..\lvgl\version_6.1.2\lvgl\src\lv_objx/lv_btn.h **** /** Possible states of a button.
  41:..\..\..\lvgl\version_6.1.2\lvgl\src\lv_objx/lv_btn.h ****  * It can be used not only by buttons but other button-like objects too*/
  42:..\..\..\lvgl\version_6.1.2\lvgl\src\lv_objx/lv_btn.h **** enum {
  43:..\..\..\lvgl\version_6.1.2\lvgl\src\lv_objx/lv_btn.h ****     /**Released*/
  44:..\..\..\lvgl\version_6.1.2\lvgl\src\lv_objx/lv_btn.h ****     LV_BTN_STATE_REL,
  45:..\..\..\lvgl\version_6.1.2\lvgl\src\lv_objx/lv_btn.h **** 
  46:..\..\..\lvgl\version_6.1.2\lvgl\src\lv_objx/lv_btn.h ****     /**Pressed*/
  47:..\..\..\lvgl\version_6.1.2\lvgl\src\lv_objx/lv_btn.h ****     LV_BTN_STATE_PR,
  48:..\..\..\lvgl\version_6.1.2\lvgl\src\lv_objx/lv_btn.h **** 
  49:..\..\..\lvgl\version_6.1.2\lvgl\src\lv_objx/lv_btn.h ****     /**Toggled released*/
  50:..\..\..\lvgl\version_6.1.2\lvgl\src\lv_objx/lv_btn.h ****     LV_BTN_STATE_TGL_REL,
  51:..\..\..\lvgl\version_6.1.2\lvgl\src\lv_objx/lv_btn.h **** 
  52:..\..\..\lvgl\version_6.1.2\lvgl\src\lv_objx/lv_btn.h ****     /**Toggled pressed*/
  53:..\..\..\lvgl\version_6.1.2\lvgl\src\lv_objx/lv_btn.h ****     LV_BTN_STATE_TGL_PR,
  54:..\..\..\lvgl\version_6.1.2\lvgl\src\lv_objx/lv_btn.h **** 
  55:..\..\..\lvgl\version_6.1.2\lvgl\src\lv_objx/lv_btn.h ****     /**Inactive*/
  56:..\..\..\lvgl\version_6.1.2\lvgl\src\lv_objx/lv_btn.h ****     LV_BTN_STATE_INA,
  57:..\..\..\lvgl\version_6.1.2\lvgl\src\lv_objx/lv_btn.h **** 
  58:..\..\..\lvgl\version_6.1.2\lvgl\src\lv_objx/lv_btn.h ****     /**Number of states*/
  59:..\..\..\lvgl\version_6.1.2\lvgl\src\lv_objx/lv_btn.h ****     _LV_BTN_STATE_NUM,
  60:..\..\..\lvgl\version_6.1.2\lvgl\src\lv_objx/lv_btn.h **** };
  61:..\..\..\lvgl\version_6.1.2\lvgl\src\lv_objx/lv_btn.h **** typedef uint8_t lv_btn_state_t;
ARM GAS  C:\Users\tmj32\AppData\Local\Temp\ccUUfkkI.s 			page 14


  62:..\..\..\lvgl\version_6.1.2\lvgl\src\lv_objx/lv_btn.h **** 
  63:..\..\..\lvgl\version_6.1.2\lvgl\src\lv_objx/lv_btn.h **** /** Extended data of button*/
  64:..\..\..\lvgl\version_6.1.2\lvgl\src\lv_objx/lv_btn.h **** typedef struct
  65:..\..\..\lvgl\version_6.1.2\lvgl\src\lv_objx/lv_btn.h **** {
  66:..\..\..\lvgl\version_6.1.2\lvgl\src\lv_objx/lv_btn.h ****     /** Ext. of ancestor*/
  67:..\..\..\lvgl\version_6.1.2\lvgl\src\lv_objx/lv_btn.h ****     lv_cont_ext_t cont;
  68:..\..\..\lvgl\version_6.1.2\lvgl\src\lv_objx/lv_btn.h **** 
  69:..\..\..\lvgl\version_6.1.2\lvgl\src\lv_objx/lv_btn.h ****     /*New data for this type */
  70:..\..\..\lvgl\version_6.1.2\lvgl\src\lv_objx/lv_btn.h **** 
  71:..\..\..\lvgl\version_6.1.2\lvgl\src\lv_objx/lv_btn.h ****     /**Styles in each state*/
  72:..\..\..\lvgl\version_6.1.2\lvgl\src\lv_objx/lv_btn.h ****     const lv_style_t * styles[_LV_BTN_STATE_NUM];
  73:..\..\..\lvgl\version_6.1.2\lvgl\src\lv_objx/lv_btn.h **** #if LV_BTN_INK_EFFECT
  74:..\..\..\lvgl\version_6.1.2\lvgl\src\lv_objx/lv_btn.h ****     /** [ms] Time of ink fill effect (0: disable ink effect)*/
  75:..\..\..\lvgl\version_6.1.2\lvgl\src\lv_objx/lv_btn.h ****     uint16_t ink_in_time;
  76:..\..\..\lvgl\version_6.1.2\lvgl\src\lv_objx/lv_btn.h **** 
  77:..\..\..\lvgl\version_6.1.2\lvgl\src\lv_objx/lv_btn.h ****     /** [ms] Wait before the ink disappears */
  78:..\..\..\lvgl\version_6.1.2\lvgl\src\lv_objx/lv_btn.h ****     uint16_t ink_wait_time;
  79:..\..\..\lvgl\version_6.1.2\lvgl\src\lv_objx/lv_btn.h **** 
  80:..\..\..\lvgl\version_6.1.2\lvgl\src\lv_objx/lv_btn.h ****     /** [ms] Time of ink disappearing*/
  81:..\..\..\lvgl\version_6.1.2\lvgl\src\lv_objx/lv_btn.h ****     uint16_t ink_out_time;
  82:..\..\..\lvgl\version_6.1.2\lvgl\src\lv_objx/lv_btn.h **** #endif
  83:..\..\..\lvgl\version_6.1.2\lvgl\src\lv_objx/lv_btn.h **** 
  84:..\..\..\lvgl\version_6.1.2\lvgl\src\lv_objx/lv_btn.h ****     /** Current state of the button from 'lv_btn_state_t' enum*/
  85:..\..\..\lvgl\version_6.1.2\lvgl\src\lv_objx/lv_btn.h ****     lv_btn_state_t state : 3;
  86:..\..\..\lvgl\version_6.1.2\lvgl\src\lv_objx/lv_btn.h **** 
  87:..\..\..\lvgl\version_6.1.2\lvgl\src\lv_objx/lv_btn.h ****     /** 1: Toggle enabled*/
  88:..\..\..\lvgl\version_6.1.2\lvgl\src\lv_objx/lv_btn.h ****     uint8_t toggle : 1;
  89:..\..\..\lvgl\version_6.1.2\lvgl\src\lv_objx/lv_btn.h **** } lv_btn_ext_t;
  90:..\..\..\lvgl\version_6.1.2\lvgl\src\lv_objx/lv_btn.h **** 
  91:..\..\..\lvgl\version_6.1.2\lvgl\src\lv_objx/lv_btn.h **** /**Styles*/
  92:..\..\..\lvgl\version_6.1.2\lvgl\src\lv_objx/lv_btn.h **** enum {
  93:..\..\..\lvgl\version_6.1.2\lvgl\src\lv_objx/lv_btn.h ****     /** Release style */
  94:..\..\..\lvgl\version_6.1.2\lvgl\src\lv_objx/lv_btn.h ****     LV_BTN_STYLE_REL,
  95:..\..\..\lvgl\version_6.1.2\lvgl\src\lv_objx/lv_btn.h **** 
  96:..\..\..\lvgl\version_6.1.2\lvgl\src\lv_objx/lv_btn.h ****     /**Pressed style*/
  97:..\..\..\lvgl\version_6.1.2\lvgl\src\lv_objx/lv_btn.h ****     LV_BTN_STYLE_PR,
  98:..\..\..\lvgl\version_6.1.2\lvgl\src\lv_objx/lv_btn.h **** 
  99:..\..\..\lvgl\version_6.1.2\lvgl\src\lv_objx/lv_btn.h ****     /** Toggle released style*/
 100:..\..\..\lvgl\version_6.1.2\lvgl\src\lv_objx/lv_btn.h ****     LV_BTN_STYLE_TGL_REL,
 101:..\..\..\lvgl\version_6.1.2\lvgl\src\lv_objx/lv_btn.h **** 
 102:..\..\..\lvgl\version_6.1.2\lvgl\src\lv_objx/lv_btn.h ****     /** Toggle pressed style */
 103:..\..\..\lvgl\version_6.1.2\lvgl\src\lv_objx/lv_btn.h ****     LV_BTN_STYLE_TGL_PR,
 104:..\..\..\lvgl\version_6.1.2\lvgl\src\lv_objx/lv_btn.h **** 
 105:..\..\..\lvgl\version_6.1.2\lvgl\src\lv_objx/lv_btn.h ****     /** Inactive style*/
 106:..\..\..\lvgl\version_6.1.2\lvgl\src\lv_objx/lv_btn.h ****     LV_BTN_STYLE_INA,
 107:..\..\..\lvgl\version_6.1.2\lvgl\src\lv_objx/lv_btn.h **** };
 108:..\..\..\lvgl\version_6.1.2\lvgl\src\lv_objx/lv_btn.h **** typedef uint8_t lv_btn_style_t;
 109:..\..\..\lvgl\version_6.1.2\lvgl\src\lv_objx/lv_btn.h **** 
 110:..\..\..\lvgl\version_6.1.2\lvgl\src\lv_objx/lv_btn.h **** /**********************
 111:..\..\..\lvgl\version_6.1.2\lvgl\src\lv_objx/lv_btn.h ****  * GLOBAL PROTOTYPES
 112:..\..\..\lvgl\version_6.1.2\lvgl\src\lv_objx/lv_btn.h ****  **********************/
 113:..\..\..\lvgl\version_6.1.2\lvgl\src\lv_objx/lv_btn.h **** 
 114:..\..\..\lvgl\version_6.1.2\lvgl\src\lv_objx/lv_btn.h **** /**
 115:..\..\..\lvgl\version_6.1.2\lvgl\src\lv_objx/lv_btn.h ****  * Create a button object
 116:..\..\..\lvgl\version_6.1.2\lvgl\src\lv_objx/lv_btn.h ****  * @param par pointer to an object, it will be the parent of the new button
 117:..\..\..\lvgl\version_6.1.2\lvgl\src\lv_objx/lv_btn.h ****  * @param copy pointer to a button object, if not NULL then the new object will be copied from it
 118:..\..\..\lvgl\version_6.1.2\lvgl\src\lv_objx/lv_btn.h ****  * @return pointer to the created button
ARM GAS  C:\Users\tmj32\AppData\Local\Temp\ccUUfkkI.s 			page 15


 119:..\..\..\lvgl\version_6.1.2\lvgl\src\lv_objx/lv_btn.h ****  */
 120:..\..\..\lvgl\version_6.1.2\lvgl\src\lv_objx/lv_btn.h **** lv_obj_t * lv_btn_create(lv_obj_t * par, const lv_obj_t * copy);
 121:..\..\..\lvgl\version_6.1.2\lvgl\src\lv_objx/lv_btn.h **** 
 122:..\..\..\lvgl\version_6.1.2\lvgl\src\lv_objx/lv_btn.h **** /*=====================
 123:..\..\..\lvgl\version_6.1.2\lvgl\src\lv_objx/lv_btn.h ****  * Setter functions
 124:..\..\..\lvgl\version_6.1.2\lvgl\src\lv_objx/lv_btn.h ****  *====================*/
 125:..\..\..\lvgl\version_6.1.2\lvgl\src\lv_objx/lv_btn.h **** 
 126:..\..\..\lvgl\version_6.1.2\lvgl\src\lv_objx/lv_btn.h **** /**
 127:..\..\..\lvgl\version_6.1.2\lvgl\src\lv_objx/lv_btn.h ****  * Enable the toggled states. On release the button will change from/to toggled state.
 128:..\..\..\lvgl\version_6.1.2\lvgl\src\lv_objx/lv_btn.h ****  * @param btn pointer to a button object
 129:..\..\..\lvgl\version_6.1.2\lvgl\src\lv_objx/lv_btn.h ****  * @param tgl true: enable toggled states, false: disable
 130:..\..\..\lvgl\version_6.1.2\lvgl\src\lv_objx/lv_btn.h ****  */
 131:..\..\..\lvgl\version_6.1.2\lvgl\src\lv_objx/lv_btn.h **** void lv_btn_set_toggle(lv_obj_t * btn, bool tgl);
 132:..\..\..\lvgl\version_6.1.2\lvgl\src\lv_objx/lv_btn.h **** 
 133:..\..\..\lvgl\version_6.1.2\lvgl\src\lv_objx/lv_btn.h **** /**
 134:..\..\..\lvgl\version_6.1.2\lvgl\src\lv_objx/lv_btn.h ****  * Set the state of the button
 135:..\..\..\lvgl\version_6.1.2\lvgl\src\lv_objx/lv_btn.h ****  * @param btn pointer to a button object
 136:..\..\..\lvgl\version_6.1.2\lvgl\src\lv_objx/lv_btn.h ****  * @param state the new state of the button (from lv_btn_state_t enum)
 137:..\..\..\lvgl\version_6.1.2\lvgl\src\lv_objx/lv_btn.h ****  */
 138:..\..\..\lvgl\version_6.1.2\lvgl\src\lv_objx/lv_btn.h **** void lv_btn_set_state(lv_obj_t * btn, lv_btn_state_t state);
 139:..\..\..\lvgl\version_6.1.2\lvgl\src\lv_objx/lv_btn.h **** 
 140:..\..\..\lvgl\version_6.1.2\lvgl\src\lv_objx/lv_btn.h **** /**
 141:..\..\..\lvgl\version_6.1.2\lvgl\src\lv_objx/lv_btn.h ****  * Toggle the state of the button (ON->OFF, OFF->ON)
 142:..\..\..\lvgl\version_6.1.2\lvgl\src\lv_objx/lv_btn.h ****  * @param btn pointer to a button object
 143:..\..\..\lvgl\version_6.1.2\lvgl\src\lv_objx/lv_btn.h ****  */
 144:..\..\..\lvgl\version_6.1.2\lvgl\src\lv_objx/lv_btn.h **** void lv_btn_toggle(lv_obj_t * btn);
 145:..\..\..\lvgl\version_6.1.2\lvgl\src\lv_objx/lv_btn.h **** 
 146:..\..\..\lvgl\version_6.1.2\lvgl\src\lv_objx/lv_btn.h **** /**
 147:..\..\..\lvgl\version_6.1.2\lvgl\src\lv_objx/lv_btn.h ****  * Set the layout on a button
 148:..\..\..\lvgl\version_6.1.2\lvgl\src\lv_objx/lv_btn.h ****  * @param btn pointer to a button object
 149:..\..\..\lvgl\version_6.1.2\lvgl\src\lv_objx/lv_btn.h ****  * @param layout a layout from 'lv_cont_layout_t'
 150:..\..\..\lvgl\version_6.1.2\lvgl\src\lv_objx/lv_btn.h ****  */
 151:..\..\..\lvgl\version_6.1.2\lvgl\src\lv_objx/lv_btn.h **** static inline void lv_btn_set_layout(lv_obj_t * btn, lv_layout_t layout)
 152:..\..\..\lvgl\version_6.1.2\lvgl\src\lv_objx/lv_btn.h **** {
 237              		.loc 3 152 0
 238              		.cfi_startproc
 239              		@ args = 0, pretend = 0, frame = 8
 240              		@ frame_needed = 1, uses_anonymous_args = 0
 241 0000 80B5     		push	{r7, lr}
 242              		.cfi_def_cfa_offset 8
 243              		.cfi_offset 7, -8
 244              		.cfi_offset 14, -4
 245 0002 82B0     		sub	sp, sp, #8
 246              		.cfi_def_cfa_offset 16
 247 0004 00AF     		add	r7, sp, #0
 248              		.cfi_def_cfa_register 7
 249 0006 7860     		str	r0, [r7, #4]
 250 0008 0B46     		mov	r3, r1
 251 000a FB70     		strb	r3, [r7, #3]
 153:..\..\..\lvgl\version_6.1.2\lvgl\src\lv_objx/lv_btn.h ****     lv_cont_set_layout(btn, layout);
 252              		.loc 3 153 0
 253 000c FB78     		ldrb	r3, [r7, #3]	@ zero_extendqisi2
 254 000e 1946     		mov	r1, r3
 255 0010 7868     		ldr	r0, [r7, #4]
 256 0012 FFF7FEFF 		bl	lv_cont_set_layout
 154:..\..\..\lvgl\version_6.1.2\lvgl\src\lv_objx/lv_btn.h **** }
 257              		.loc 3 154 0
ARM GAS  C:\Users\tmj32\AppData\Local\Temp\ccUUfkkI.s 			page 16


 258 0016 00BF     		nop
 259 0018 0837     		adds	r7, r7, #8
 260              		.cfi_def_cfa_offset 8
 261 001a BD46     		mov	sp, r7
 262              		.cfi_def_cfa_register 13
 263              		@ sp needed
 264 001c 80BD     		pop	{r7, pc}
 265              		.cfi_endproc
 266              	.LFE48:
 267              		.size	lv_btn_set_layout, .-lv_btn_set_layout
 268 001e 00BF     		.section	.text.lv_btn_set_fit2,"ax",%progbits
 269              		.align	2
 270              		.thumb
 271              		.thumb_func
 272              		.type	lv_btn_set_fit2, %function
 273              	lv_btn_set_fit2:
 274              	.LFB50:
 155:..\..\..\lvgl\version_6.1.2\lvgl\src\lv_objx/lv_btn.h **** 
 156:..\..\..\lvgl\version_6.1.2\lvgl\src\lv_objx/lv_btn.h **** /**
 157:..\..\..\lvgl\version_6.1.2\lvgl\src\lv_objx/lv_btn.h ****  * Set the fit policy in all 4 directions separately.
 158:..\..\..\lvgl\version_6.1.2\lvgl\src\lv_objx/lv_btn.h ****  * It tells how to change the button size automatically.
 159:..\..\..\lvgl\version_6.1.2\lvgl\src\lv_objx/lv_btn.h ****  * @param btn pointer to a button object
 160:..\..\..\lvgl\version_6.1.2\lvgl\src\lv_objx/lv_btn.h ****  * @param left left fit policy from `lv_fit_t`
 161:..\..\..\lvgl\version_6.1.2\lvgl\src\lv_objx/lv_btn.h ****  * @param right right fit policy from `lv_fit_t`
 162:..\..\..\lvgl\version_6.1.2\lvgl\src\lv_objx/lv_btn.h ****  * @param top top fit policy from `lv_fit_t`
 163:..\..\..\lvgl\version_6.1.2\lvgl\src\lv_objx/lv_btn.h ****  * @param bottom bottom fit policy from `lv_fit_t`
 164:..\..\..\lvgl\version_6.1.2\lvgl\src\lv_objx/lv_btn.h ****  */
 165:..\..\..\lvgl\version_6.1.2\lvgl\src\lv_objx/lv_btn.h **** static inline void lv_btn_set_fit4(lv_obj_t * btn, lv_fit_t left, lv_fit_t right, lv_fit_t top, lv_
 166:..\..\..\lvgl\version_6.1.2\lvgl\src\lv_objx/lv_btn.h **** {
 167:..\..\..\lvgl\version_6.1.2\lvgl\src\lv_objx/lv_btn.h ****     lv_cont_set_fit4(btn, left, right, top, bottom);
 168:..\..\..\lvgl\version_6.1.2\lvgl\src\lv_objx/lv_btn.h **** }
 169:..\..\..\lvgl\version_6.1.2\lvgl\src\lv_objx/lv_btn.h **** 
 170:..\..\..\lvgl\version_6.1.2\lvgl\src\lv_objx/lv_btn.h **** /**
 171:..\..\..\lvgl\version_6.1.2\lvgl\src\lv_objx/lv_btn.h ****  * Set the fit policy horizontally and vertically separately.
 172:..\..\..\lvgl\version_6.1.2\lvgl\src\lv_objx/lv_btn.h ****  * It tells how to change the button size automatically.
 173:..\..\..\lvgl\version_6.1.2\lvgl\src\lv_objx/lv_btn.h ****  * @param btn pointer to a button object
 174:..\..\..\lvgl\version_6.1.2\lvgl\src\lv_objx/lv_btn.h ****  * @param hor horizontal fit policy from `lv_fit_t`
 175:..\..\..\lvgl\version_6.1.2\lvgl\src\lv_objx/lv_btn.h ****  * @param ver vertical fit policy from `lv_fit_t`
 176:..\..\..\lvgl\version_6.1.2\lvgl\src\lv_objx/lv_btn.h ****  */
 177:..\..\..\lvgl\version_6.1.2\lvgl\src\lv_objx/lv_btn.h **** static inline void lv_btn_set_fit2(lv_obj_t * btn, lv_fit_t hor, lv_fit_t ver)
 178:..\..\..\lvgl\version_6.1.2\lvgl\src\lv_objx/lv_btn.h **** {
 275              		.loc 3 178 0
 276              		.cfi_startproc
 277              		@ args = 0, pretend = 0, frame = 8
 278              		@ frame_needed = 1, uses_anonymous_args = 0
 279 0000 80B5     		push	{r7, lr}
 280              		.cfi_def_cfa_offset 8
 281              		.cfi_offset 7, -8
 282              		.cfi_offset 14, -4
 283 0002 82B0     		sub	sp, sp, #8
 284              		.cfi_def_cfa_offset 16
 285 0004 00AF     		add	r7, sp, #0
 286              		.cfi_def_cfa_register 7
 287 0006 7860     		str	r0, [r7, #4]
 288 0008 0B46     		mov	r3, r1
 289 000a FB70     		strb	r3, [r7, #3]
 290 000c 1346     		mov	r3, r2
ARM GAS  C:\Users\tmj32\AppData\Local\Temp\ccUUfkkI.s 			page 17


 291 000e BB70     		strb	r3, [r7, #2]
 179:..\..\..\lvgl\version_6.1.2\lvgl\src\lv_objx/lv_btn.h ****     lv_cont_set_fit2(btn, hor, ver);
 292              		.loc 3 179 0
 293 0010 BA78     		ldrb	r2, [r7, #2]	@ zero_extendqisi2
 294 0012 FB78     		ldrb	r3, [r7, #3]	@ zero_extendqisi2
 295 0014 1946     		mov	r1, r3
 296 0016 7868     		ldr	r0, [r7, #4]
 297 0018 FFF7FEFF 		bl	lv_cont_set_fit2
 180:..\..\..\lvgl\version_6.1.2\lvgl\src\lv_objx/lv_btn.h **** }
 298              		.loc 3 180 0
 299 001c 00BF     		nop
 300 001e 0837     		adds	r7, r7, #8
 301              		.cfi_def_cfa_offset 8
 302 0020 BD46     		mov	sp, r7
 303              		.cfi_def_cfa_register 13
 304              		@ sp needed
 305 0022 80BD     		pop	{r7, pc}
 306              		.cfi_endproc
 307              	.LFE50:
 308              		.size	lv_btn_set_fit2, .-lv_btn_set_fit2
 309              		.section	.text.lv_btn_set_fit,"ax",%progbits
 310              		.align	2
 311              		.thumb
 312              		.thumb_func
 313              		.type	lv_btn_set_fit, %function
 314              	lv_btn_set_fit:
 315              	.LFB51:
 181:..\..\..\lvgl\version_6.1.2\lvgl\src\lv_objx/lv_btn.h **** 
 182:..\..\..\lvgl\version_6.1.2\lvgl\src\lv_objx/lv_btn.h **** /**
 183:..\..\..\lvgl\version_6.1.2\lvgl\src\lv_objx/lv_btn.h ****  * Set the fit policy in all 4 direction at once.
 184:..\..\..\lvgl\version_6.1.2\lvgl\src\lv_objx/lv_btn.h ****  * It tells how to change the button size automatically.
 185:..\..\..\lvgl\version_6.1.2\lvgl\src\lv_objx/lv_btn.h ****  * @param btn pointer to a button object
 186:..\..\..\lvgl\version_6.1.2\lvgl\src\lv_objx/lv_btn.h ****  * @param fit fit policy from `lv_fit_t`
 187:..\..\..\lvgl\version_6.1.2\lvgl\src\lv_objx/lv_btn.h ****  */
 188:..\..\..\lvgl\version_6.1.2\lvgl\src\lv_objx/lv_btn.h **** static inline void lv_btn_set_fit(lv_obj_t * btn, lv_fit_t fit)
 189:..\..\..\lvgl\version_6.1.2\lvgl\src\lv_objx/lv_btn.h **** {
 316              		.loc 3 189 0
 317              		.cfi_startproc
 318              		@ args = 0, pretend = 0, frame = 8
 319              		@ frame_needed = 1, uses_anonymous_args = 0
 320 0000 80B5     		push	{r7, lr}
 321              		.cfi_def_cfa_offset 8
 322              		.cfi_offset 7, -8
 323              		.cfi_offset 14, -4
 324 0002 82B0     		sub	sp, sp, #8
 325              		.cfi_def_cfa_offset 16
 326 0004 00AF     		add	r7, sp, #0
 327              		.cfi_def_cfa_register 7
 328 0006 7860     		str	r0, [r7, #4]
 329 0008 0B46     		mov	r3, r1
 330 000a FB70     		strb	r3, [r7, #3]
 190:..\..\..\lvgl\version_6.1.2\lvgl\src\lv_objx/lv_btn.h ****     lv_cont_set_fit(btn, fit);
 331              		.loc 3 190 0
 332 000c FB78     		ldrb	r3, [r7, #3]	@ zero_extendqisi2
 333 000e 1946     		mov	r1, r3
 334 0010 7868     		ldr	r0, [r7, #4]
 335 0012 FFF7FEFF 		bl	lv_cont_set_fit
ARM GAS  C:\Users\tmj32\AppData\Local\Temp\ccUUfkkI.s 			page 18


 191:..\..\..\lvgl\version_6.1.2\lvgl\src\lv_objx/lv_btn.h **** }
 336              		.loc 3 191 0
 337 0016 00BF     		nop
 338 0018 0837     		adds	r7, r7, #8
 339              		.cfi_def_cfa_offset 8
 340 001a BD46     		mov	sp, r7
 341              		.cfi_def_cfa_register 13
 342              		@ sp needed
 343 001c 80BD     		pop	{r7, pc}
 344              		.cfi_endproc
 345              	.LFE51:
 346              		.size	lv_btn_set_fit, .-lv_btn_set_fit
 347 001e 00BF     		.section	.text.lv_list_set_sb_mode,"ax",%progbits
 348              		.align	2
 349              		.thumb
 350              		.thumb_func
 351              		.type	lv_list_set_sb_mode, %function
 352              	lv_list_set_sb_mode:
 353              	.LFB61:
 354              		.file 4 "..\\..\\..\\lvgl\\version_6.1.2\\lvgl\\src\\lv_objx\\lv_list.h"
   1:..\..\..\lvgl\version_6.1.2\lvgl\src\lv_objx/lv_list.h **** /**
   2:..\..\..\lvgl\version_6.1.2\lvgl\src\lv_objx/lv_list.h ****  * @file lv_list.h
   3:..\..\..\lvgl\version_6.1.2\lvgl\src\lv_objx/lv_list.h ****  *
   4:..\..\..\lvgl\version_6.1.2\lvgl\src\lv_objx/lv_list.h ****  */
   5:..\..\..\lvgl\version_6.1.2\lvgl\src\lv_objx/lv_list.h **** 
   6:..\..\..\lvgl\version_6.1.2\lvgl\src\lv_objx/lv_list.h **** #ifndef LV_LIST_H
   7:..\..\..\lvgl\version_6.1.2\lvgl\src\lv_objx/lv_list.h **** #define LV_LIST_H
   8:..\..\..\lvgl\version_6.1.2\lvgl\src\lv_objx/lv_list.h **** 
   9:..\..\..\lvgl\version_6.1.2\lvgl\src\lv_objx/lv_list.h **** #ifdef __cplusplus
  10:..\..\..\lvgl\version_6.1.2\lvgl\src\lv_objx/lv_list.h **** extern "C" {
  11:..\..\..\lvgl\version_6.1.2\lvgl\src\lv_objx/lv_list.h **** #endif
  12:..\..\..\lvgl\version_6.1.2\lvgl\src\lv_objx/lv_list.h **** 
  13:..\..\..\lvgl\version_6.1.2\lvgl\src\lv_objx/lv_list.h **** /*********************
  14:..\..\..\lvgl\version_6.1.2\lvgl\src\lv_objx/lv_list.h ****  *      INCLUDES
  15:..\..\..\lvgl\version_6.1.2\lvgl\src\lv_objx/lv_list.h ****  *********************/
  16:..\..\..\lvgl\version_6.1.2\lvgl\src\lv_objx/lv_list.h **** #ifdef LV_CONF_INCLUDE_SIMPLE
  17:..\..\..\lvgl\version_6.1.2\lvgl\src\lv_objx/lv_list.h **** #include "lv_conf.h"
  18:..\..\..\lvgl\version_6.1.2\lvgl\src\lv_objx/lv_list.h **** #else
  19:..\..\..\lvgl\version_6.1.2\lvgl\src\lv_objx/lv_list.h **** #include "../../../lv_conf.h"
  20:..\..\..\lvgl\version_6.1.2\lvgl\src\lv_objx/lv_list.h **** #endif
  21:..\..\..\lvgl\version_6.1.2\lvgl\src\lv_objx/lv_list.h **** 
  22:..\..\..\lvgl\version_6.1.2\lvgl\src\lv_objx/lv_list.h **** #if LV_USE_LIST != 0
  23:..\..\..\lvgl\version_6.1.2\lvgl\src\lv_objx/lv_list.h **** 
  24:..\..\..\lvgl\version_6.1.2\lvgl\src\lv_objx/lv_list.h **** /*Testing of dependencies*/
  25:..\..\..\lvgl\version_6.1.2\lvgl\src\lv_objx/lv_list.h **** #if LV_USE_PAGE == 0
  26:..\..\..\lvgl\version_6.1.2\lvgl\src\lv_objx/lv_list.h **** #error "lv_list: lv_page is required. Enable it in lv_conf.h (LV_USE_PAGE  1) "
  27:..\..\..\lvgl\version_6.1.2\lvgl\src\lv_objx/lv_list.h **** #endif
  28:..\..\..\lvgl\version_6.1.2\lvgl\src\lv_objx/lv_list.h **** 
  29:..\..\..\lvgl\version_6.1.2\lvgl\src\lv_objx/lv_list.h **** #if LV_USE_BTN == 0
  30:..\..\..\lvgl\version_6.1.2\lvgl\src\lv_objx/lv_list.h **** #error "lv_list: lv_btn is required. Enable it in lv_conf.h (LV_USE_BTN  1) "
  31:..\..\..\lvgl\version_6.1.2\lvgl\src\lv_objx/lv_list.h **** #endif
  32:..\..\..\lvgl\version_6.1.2\lvgl\src\lv_objx/lv_list.h **** 
  33:..\..\..\lvgl\version_6.1.2\lvgl\src\lv_objx/lv_list.h **** #if LV_USE_LABEL == 0
  34:..\..\..\lvgl\version_6.1.2\lvgl\src\lv_objx/lv_list.h **** #error "lv_list: lv_label is required. Enable it in lv_conf.h (LV_USE_LABEL  1) "
  35:..\..\..\lvgl\version_6.1.2\lvgl\src\lv_objx/lv_list.h **** #endif
  36:..\..\..\lvgl\version_6.1.2\lvgl\src\lv_objx/lv_list.h **** 
  37:..\..\..\lvgl\version_6.1.2\lvgl\src\lv_objx/lv_list.h **** #include "../lv_core/lv_obj.h"
ARM GAS  C:\Users\tmj32\AppData\Local\Temp\ccUUfkkI.s 			page 19


  38:..\..\..\lvgl\version_6.1.2\lvgl\src\lv_objx/lv_list.h **** #include "lv_page.h"
  39:..\..\..\lvgl\version_6.1.2\lvgl\src\lv_objx/lv_list.h **** #include "lv_btn.h"
  40:..\..\..\lvgl\version_6.1.2\lvgl\src\lv_objx/lv_list.h **** #include "lv_label.h"
  41:..\..\..\lvgl\version_6.1.2\lvgl\src\lv_objx/lv_list.h **** #include "lv_img.h"
  42:..\..\..\lvgl\version_6.1.2\lvgl\src\lv_objx/lv_list.h **** 
  43:..\..\..\lvgl\version_6.1.2\lvgl\src\lv_objx/lv_list.h **** /*********************
  44:..\..\..\lvgl\version_6.1.2\lvgl\src\lv_objx/lv_list.h ****  *      DEFINES
  45:..\..\..\lvgl\version_6.1.2\lvgl\src\lv_objx/lv_list.h ****  *********************/
  46:..\..\..\lvgl\version_6.1.2\lvgl\src\lv_objx/lv_list.h **** 
  47:..\..\..\lvgl\version_6.1.2\lvgl\src\lv_objx/lv_list.h **** /**********************
  48:..\..\..\lvgl\version_6.1.2\lvgl\src\lv_objx/lv_list.h ****  *      TYPEDEFS
  49:..\..\..\lvgl\version_6.1.2\lvgl\src\lv_objx/lv_list.h ****  **********************/
  50:..\..\..\lvgl\version_6.1.2\lvgl\src\lv_objx/lv_list.h **** /*Data of list*/
  51:..\..\..\lvgl\version_6.1.2\lvgl\src\lv_objx/lv_list.h **** typedef struct
  52:..\..\..\lvgl\version_6.1.2\lvgl\src\lv_objx/lv_list.h **** {
  53:..\..\..\lvgl\version_6.1.2\lvgl\src\lv_objx/lv_list.h ****     lv_page_ext_t page; /*Ext. of ancestor*/
  54:..\..\..\lvgl\version_6.1.2\lvgl\src\lv_objx/lv_list.h ****     /*New data for this type */
  55:..\..\..\lvgl\version_6.1.2\lvgl\src\lv_objx/lv_list.h ****     const lv_style_t * styles_btn[_LV_BTN_STATE_NUM]; /*Styles of the list element buttons*/
  56:..\..\..\lvgl\version_6.1.2\lvgl\src\lv_objx/lv_list.h ****     const lv_style_t * style_img;                     /*Style of the list element images on buttons
  57:..\..\..\lvgl\version_6.1.2\lvgl\src\lv_objx/lv_list.h ****     uint16_t size;                                    /*the number of items(buttons) in the list*/
  58:..\..\..\lvgl\version_6.1.2\lvgl\src\lv_objx/lv_list.h **** 
  59:..\..\..\lvgl\version_6.1.2\lvgl\src\lv_objx/lv_list.h ****     uint8_t single_mode : 1; /* whether single selected mode is enabled */
  60:..\..\..\lvgl\version_6.1.2\lvgl\src\lv_objx/lv_list.h **** 
  61:..\..\..\lvgl\version_6.1.2\lvgl\src\lv_objx/lv_list.h **** #if LV_USE_GROUP
  62:..\..\..\lvgl\version_6.1.2\lvgl\src\lv_objx/lv_list.h ****     lv_obj_t * last_sel;     /* The last selected button. It will be reverted when the list is focu
  63:..\..\..\lvgl\version_6.1.2\lvgl\src\lv_objx/lv_list.h ****     lv_obj_t * selected_btn; /* The button is currently being selected*/
  64:..\..\..\lvgl\version_6.1.2\lvgl\src\lv_objx/lv_list.h ****     /*Used to make the last clicked button pressed (selected) when the list become focused and
  65:..\..\..\lvgl\version_6.1.2\lvgl\src\lv_objx/lv_list.h ****      * `click_focus == 1`*/
  66:..\..\..\lvgl\version_6.1.2\lvgl\src\lv_objx/lv_list.h ****     lv_obj_t * last_clicked_btn;
  67:..\..\..\lvgl\version_6.1.2\lvgl\src\lv_objx/lv_list.h **** #endif
  68:..\..\..\lvgl\version_6.1.2\lvgl\src\lv_objx/lv_list.h **** } lv_list_ext_t;
  69:..\..\..\lvgl\version_6.1.2\lvgl\src\lv_objx/lv_list.h **** 
  70:..\..\..\lvgl\version_6.1.2\lvgl\src\lv_objx/lv_list.h **** /** List styles. */
  71:..\..\..\lvgl\version_6.1.2\lvgl\src\lv_objx/lv_list.h **** enum {
  72:..\..\..\lvgl\version_6.1.2\lvgl\src\lv_objx/lv_list.h ****     LV_LIST_STYLE_BG, /**< List background style */
  73:..\..\..\lvgl\version_6.1.2\lvgl\src\lv_objx/lv_list.h ****     LV_LIST_STYLE_SCRL, /**< List scrollable area style. */
  74:..\..\..\lvgl\version_6.1.2\lvgl\src\lv_objx/lv_list.h ****     LV_LIST_STYLE_SB, /**< List scrollbar style. */
  75:..\..\..\lvgl\version_6.1.2\lvgl\src\lv_objx/lv_list.h ****     LV_LIST_STYLE_EDGE_FLASH, /**< List edge flash style. */
  76:..\..\..\lvgl\version_6.1.2\lvgl\src\lv_objx/lv_list.h ****     LV_LIST_STYLE_BTN_REL, /**< Same meaning as the ordinary button styles. */
  77:..\..\..\lvgl\version_6.1.2\lvgl\src\lv_objx/lv_list.h ****     LV_LIST_STYLE_BTN_PR,
  78:..\..\..\lvgl\version_6.1.2\lvgl\src\lv_objx/lv_list.h ****     LV_LIST_STYLE_BTN_TGL_REL,
  79:..\..\..\lvgl\version_6.1.2\lvgl\src\lv_objx/lv_list.h ****     LV_LIST_STYLE_BTN_TGL_PR,
  80:..\..\..\lvgl\version_6.1.2\lvgl\src\lv_objx/lv_list.h ****     LV_LIST_STYLE_BTN_INA,
  81:..\..\..\lvgl\version_6.1.2\lvgl\src\lv_objx/lv_list.h **** };
  82:..\..\..\lvgl\version_6.1.2\lvgl\src\lv_objx/lv_list.h **** typedef uint8_t lv_list_style_t;
  83:..\..\..\lvgl\version_6.1.2\lvgl\src\lv_objx/lv_list.h **** 
  84:..\..\..\lvgl\version_6.1.2\lvgl\src\lv_objx/lv_list.h **** /**********************
  85:..\..\..\lvgl\version_6.1.2\lvgl\src\lv_objx/lv_list.h ****  * GLOBAL PROTOTYPES
  86:..\..\..\lvgl\version_6.1.2\lvgl\src\lv_objx/lv_list.h ****  **********************/
  87:..\..\..\lvgl\version_6.1.2\lvgl\src\lv_objx/lv_list.h **** 
  88:..\..\..\lvgl\version_6.1.2\lvgl\src\lv_objx/lv_list.h **** /**
  89:..\..\..\lvgl\version_6.1.2\lvgl\src\lv_objx/lv_list.h ****  * Create a list objects
  90:..\..\..\lvgl\version_6.1.2\lvgl\src\lv_objx/lv_list.h ****  * @param par pointer to an object, it will be the parent of the new list
  91:..\..\..\lvgl\version_6.1.2\lvgl\src\lv_objx/lv_list.h ****  * @param copy pointer to a list object, if not NULL then the new object will be copied from it
  92:..\..\..\lvgl\version_6.1.2\lvgl\src\lv_objx/lv_list.h ****  * @return pointer to the created list
  93:..\..\..\lvgl\version_6.1.2\lvgl\src\lv_objx/lv_list.h ****  */
  94:..\..\..\lvgl\version_6.1.2\lvgl\src\lv_objx/lv_list.h **** lv_obj_t * lv_list_create(lv_obj_t * par, const lv_obj_t * copy);
ARM GAS  C:\Users\tmj32\AppData\Local\Temp\ccUUfkkI.s 			page 20


  95:..\..\..\lvgl\version_6.1.2\lvgl\src\lv_objx/lv_list.h **** 
  96:..\..\..\lvgl\version_6.1.2\lvgl\src\lv_objx/lv_list.h **** /**
  97:..\..\..\lvgl\version_6.1.2\lvgl\src\lv_objx/lv_list.h ****  * Delete all children of the scrl object, without deleting scrl child.
  98:..\..\..\lvgl\version_6.1.2\lvgl\src\lv_objx/lv_list.h ****  * @param list pointer to an object
  99:..\..\..\lvgl\version_6.1.2\lvgl\src\lv_objx/lv_list.h ****  */
 100:..\..\..\lvgl\version_6.1.2\lvgl\src\lv_objx/lv_list.h **** void lv_list_clean(lv_obj_t * list);
 101:..\..\..\lvgl\version_6.1.2\lvgl\src\lv_objx/lv_list.h **** 
 102:..\..\..\lvgl\version_6.1.2\lvgl\src\lv_objx/lv_list.h **** /*======================
 103:..\..\..\lvgl\version_6.1.2\lvgl\src\lv_objx/lv_list.h ****  * Add/remove functions
 104:..\..\..\lvgl\version_6.1.2\lvgl\src\lv_objx/lv_list.h ****  *=====================*/
 105:..\..\..\lvgl\version_6.1.2\lvgl\src\lv_objx/lv_list.h **** 
 106:..\..\..\lvgl\version_6.1.2\lvgl\src\lv_objx/lv_list.h **** /**
 107:..\..\..\lvgl\version_6.1.2\lvgl\src\lv_objx/lv_list.h ****  * Add a list element to the list
 108:..\..\..\lvgl\version_6.1.2\lvgl\src\lv_objx/lv_list.h ****  * @param list pointer to list object
 109:..\..\..\lvgl\version_6.1.2\lvgl\src\lv_objx/lv_list.h ****  * @param img_fn file name of an image before the text (NULL if unused)
 110:..\..\..\lvgl\version_6.1.2\lvgl\src\lv_objx/lv_list.h ****  * @param txt text of the list element (NULL if unused)
 111:..\..\..\lvgl\version_6.1.2\lvgl\src\lv_objx/lv_list.h ****  * @return pointer to the new list element which can be customized (a button)
 112:..\..\..\lvgl\version_6.1.2\lvgl\src\lv_objx/lv_list.h ****  */
 113:..\..\..\lvgl\version_6.1.2\lvgl\src\lv_objx/lv_list.h **** lv_obj_t * lv_list_add_btn(lv_obj_t * list, const void * img_src, const char * txt);
 114:..\..\..\lvgl\version_6.1.2\lvgl\src\lv_objx/lv_list.h **** 
 115:..\..\..\lvgl\version_6.1.2\lvgl\src\lv_objx/lv_list.h **** /**
 116:..\..\..\lvgl\version_6.1.2\lvgl\src\lv_objx/lv_list.h ****  * Remove the index of the button in the list
 117:..\..\..\lvgl\version_6.1.2\lvgl\src\lv_objx/lv_list.h ****  * @param list pointer to a list object
 118:..\..\..\lvgl\version_6.1.2\lvgl\src\lv_objx/lv_list.h ****  * @param index pointer to a the button's index in the list, index must be 0 <= index <
 119:..\..\..\lvgl\version_6.1.2\lvgl\src\lv_objx/lv_list.h ****  * lv_list_ext_t.size
 120:..\..\..\lvgl\version_6.1.2\lvgl\src\lv_objx/lv_list.h ****  * @return true: successfully deleted
 121:..\..\..\lvgl\version_6.1.2\lvgl\src\lv_objx/lv_list.h ****  */
 122:..\..\..\lvgl\version_6.1.2\lvgl\src\lv_objx/lv_list.h **** bool lv_list_remove(const lv_obj_t * list, uint16_t index);
 123:..\..\..\lvgl\version_6.1.2\lvgl\src\lv_objx/lv_list.h **** 
 124:..\..\..\lvgl\version_6.1.2\lvgl\src\lv_objx/lv_list.h **** /*=====================
 125:..\..\..\lvgl\version_6.1.2\lvgl\src\lv_objx/lv_list.h ****  * Setter functions
 126:..\..\..\lvgl\version_6.1.2\lvgl\src\lv_objx/lv_list.h ****  *====================*/
 127:..\..\..\lvgl\version_6.1.2\lvgl\src\lv_objx/lv_list.h **** 
 128:..\..\..\lvgl\version_6.1.2\lvgl\src\lv_objx/lv_list.h **** /**
 129:..\..\..\lvgl\version_6.1.2\lvgl\src\lv_objx/lv_list.h ****  * Set single button selected mode, only one button will be selected if enabled.
 130:..\..\..\lvgl\version_6.1.2\lvgl\src\lv_objx/lv_list.h ****  * @param list pointer to the currently pressed list object
 131:..\..\..\lvgl\version_6.1.2\lvgl\src\lv_objx/lv_list.h ****  * @param mode enable(true)/disable(false) single selected mode.
 132:..\..\..\lvgl\version_6.1.2\lvgl\src\lv_objx/lv_list.h ****  */
 133:..\..\..\lvgl\version_6.1.2\lvgl\src\lv_objx/lv_list.h **** void lv_list_set_single_mode(lv_obj_t * list, bool mode);
 134:..\..\..\lvgl\version_6.1.2\lvgl\src\lv_objx/lv_list.h **** 
 135:..\..\..\lvgl\version_6.1.2\lvgl\src\lv_objx/lv_list.h **** #if LV_USE_GROUP
 136:..\..\..\lvgl\version_6.1.2\lvgl\src\lv_objx/lv_list.h **** 
 137:..\..\..\lvgl\version_6.1.2\lvgl\src\lv_objx/lv_list.h **** /**
 138:..\..\..\lvgl\version_6.1.2\lvgl\src\lv_objx/lv_list.h ****  * Make a button selected
 139:..\..\..\lvgl\version_6.1.2\lvgl\src\lv_objx/lv_list.h ****  * @param list pointer to a list object
 140:..\..\..\lvgl\version_6.1.2\lvgl\src\lv_objx/lv_list.h ****  * @param btn pointer to a button to select
 141:..\..\..\lvgl\version_6.1.2\lvgl\src\lv_objx/lv_list.h ****  *            NULL to not select any buttons
 142:..\..\..\lvgl\version_6.1.2\lvgl\src\lv_objx/lv_list.h ****  */
 143:..\..\..\lvgl\version_6.1.2\lvgl\src\lv_objx/lv_list.h **** void lv_list_set_btn_selected(lv_obj_t * list, lv_obj_t * btn);
 144:..\..\..\lvgl\version_6.1.2\lvgl\src\lv_objx/lv_list.h **** #endif
 145:..\..\..\lvgl\version_6.1.2\lvgl\src\lv_objx/lv_list.h **** 
 146:..\..\..\lvgl\version_6.1.2\lvgl\src\lv_objx/lv_list.h **** /**
 147:..\..\..\lvgl\version_6.1.2\lvgl\src\lv_objx/lv_list.h ****  * Set the scroll bar mode of a list
 148:..\..\..\lvgl\version_6.1.2\lvgl\src\lv_objx/lv_list.h ****  * @param list pointer to a list object
 149:..\..\..\lvgl\version_6.1.2\lvgl\src\lv_objx/lv_list.h ****  * @param sb_mode the new mode from 'lv_page_sb_mode_t' enum
 150:..\..\..\lvgl\version_6.1.2\lvgl\src\lv_objx/lv_list.h ****  */
 151:..\..\..\lvgl\version_6.1.2\lvgl\src\lv_objx/lv_list.h **** static inline void lv_list_set_sb_mode(lv_obj_t * list, lv_sb_mode_t mode)
ARM GAS  C:\Users\tmj32\AppData\Local\Temp\ccUUfkkI.s 			page 21


 152:..\..\..\lvgl\version_6.1.2\lvgl\src\lv_objx/lv_list.h **** {
 355              		.loc 4 152 0
 356              		.cfi_startproc
 357              		@ args = 0, pretend = 0, frame = 8
 358              		@ frame_needed = 1, uses_anonymous_args = 0
 359 0000 80B5     		push	{r7, lr}
 360              		.cfi_def_cfa_offset 8
 361              		.cfi_offset 7, -8
 362              		.cfi_offset 14, -4
 363 0002 82B0     		sub	sp, sp, #8
 364              		.cfi_def_cfa_offset 16
 365 0004 00AF     		add	r7, sp, #0
 366              		.cfi_def_cfa_register 7
 367 0006 7860     		str	r0, [r7, #4]
 368 0008 0B46     		mov	r3, r1
 369 000a FB70     		strb	r3, [r7, #3]
 153:..\..\..\lvgl\version_6.1.2\lvgl\src\lv_objx/lv_list.h ****     lv_page_set_sb_mode(list, mode);
 370              		.loc 4 153 0
 371 000c FB78     		ldrb	r3, [r7, #3]	@ zero_extendqisi2
 372 000e 1946     		mov	r1, r3
 373 0010 7868     		ldr	r0, [r7, #4]
 374 0012 FFF7FEFF 		bl	lv_page_set_sb_mode
 154:..\..\..\lvgl\version_6.1.2\lvgl\src\lv_objx/lv_list.h **** }
 375              		.loc 4 154 0
 376 0016 00BF     		nop
 377 0018 0837     		adds	r7, r7, #8
 378              		.cfi_def_cfa_offset 8
 379 001a BD46     		mov	sp, r7
 380              		.cfi_def_cfa_register 13
 381              		@ sp needed
 382 001c 80BD     		pop	{r7, pc}
 383              		.cfi_endproc
 384              	.LFE61:
 385              		.size	lv_list_set_sb_mode, .-lv_list_set_sb_mode
 386 001e 00BF     		.section	.text.lv_list_get_anim_time,"ax",%progbits
 387              		.align	2
 388              		.thumb
 389              		.thumb_func
 390              		.type	lv_list_get_anim_time, %function
 391              	lv_list_get_anim_time:
 392              	.LFB68:
 155:..\..\..\lvgl\version_6.1.2\lvgl\src\lv_objx/lv_list.h **** 
 156:..\..\..\lvgl\version_6.1.2\lvgl\src\lv_objx/lv_list.h **** /**
 157:..\..\..\lvgl\version_6.1.2\lvgl\src\lv_objx/lv_list.h ****  * Enable the scroll propagation feature. If enabled then the List will move its parent if there is
 158:..\..\..\lvgl\version_6.1.2\lvgl\src\lv_objx/lv_list.h ****  * no more space to scroll.
 159:..\..\..\lvgl\version_6.1.2\lvgl\src\lv_objx/lv_list.h ****  * @param list pointer to a List
 160:..\..\..\lvgl\version_6.1.2\lvgl\src\lv_objx/lv_list.h ****  * @param en true or false to enable/disable scroll propagation
 161:..\..\..\lvgl\version_6.1.2\lvgl\src\lv_objx/lv_list.h ****  */
 162:..\..\..\lvgl\version_6.1.2\lvgl\src\lv_objx/lv_list.h **** static inline void lv_list_set_scroll_propagation(lv_obj_t * list, bool en)
 163:..\..\..\lvgl\version_6.1.2\lvgl\src\lv_objx/lv_list.h **** {
 164:..\..\..\lvgl\version_6.1.2\lvgl\src\lv_objx/lv_list.h ****     lv_page_set_scroll_propagation(list, en);
 165:..\..\..\lvgl\version_6.1.2\lvgl\src\lv_objx/lv_list.h **** }
 166:..\..\..\lvgl\version_6.1.2\lvgl\src\lv_objx/lv_list.h **** 
 167:..\..\..\lvgl\version_6.1.2\lvgl\src\lv_objx/lv_list.h **** /**
 168:..\..\..\lvgl\version_6.1.2\lvgl\src\lv_objx/lv_list.h ****  * Enable the edge flash effect. (Show an arc when the an edge is reached)
 169:..\..\..\lvgl\version_6.1.2\lvgl\src\lv_objx/lv_list.h ****  * @param list pointer to a List
 170:..\..\..\lvgl\version_6.1.2\lvgl\src\lv_objx/lv_list.h ****  * @param en true or false to enable/disable end flash
ARM GAS  C:\Users\tmj32\AppData\Local\Temp\ccUUfkkI.s 			page 22


 171:..\..\..\lvgl\version_6.1.2\lvgl\src\lv_objx/lv_list.h ****  */
 172:..\..\..\lvgl\version_6.1.2\lvgl\src\lv_objx/lv_list.h **** static inline void lv_list_set_edge_flash(lv_obj_t * list, bool en)
 173:..\..\..\lvgl\version_6.1.2\lvgl\src\lv_objx/lv_list.h **** {
 174:..\..\..\lvgl\version_6.1.2\lvgl\src\lv_objx/lv_list.h ****     lv_page_set_edge_flash(list, en);
 175:..\..\..\lvgl\version_6.1.2\lvgl\src\lv_objx/lv_list.h **** }
 176:..\..\..\lvgl\version_6.1.2\lvgl\src\lv_objx/lv_list.h **** 
 177:..\..\..\lvgl\version_6.1.2\lvgl\src\lv_objx/lv_list.h **** /**
 178:..\..\..\lvgl\version_6.1.2\lvgl\src\lv_objx/lv_list.h ****  * Set scroll animation duration on 'list_up()' 'list_down()' 'list_focus()'
 179:..\..\..\lvgl\version_6.1.2\lvgl\src\lv_objx/lv_list.h ****  * @param list pointer to a list object
 180:..\..\..\lvgl\version_6.1.2\lvgl\src\lv_objx/lv_list.h ****  * @param anim_time duration of animation [ms]
 181:..\..\..\lvgl\version_6.1.2\lvgl\src\lv_objx/lv_list.h ****  */
 182:..\..\..\lvgl\version_6.1.2\lvgl\src\lv_objx/lv_list.h **** static inline void lv_list_set_anim_time(lv_obj_t * list, uint16_t anim_time)
 183:..\..\..\lvgl\version_6.1.2\lvgl\src\lv_objx/lv_list.h **** {
 184:..\..\..\lvgl\version_6.1.2\lvgl\src\lv_objx/lv_list.h ****     lv_page_set_anim_time(list, anim_time);
 185:..\..\..\lvgl\version_6.1.2\lvgl\src\lv_objx/lv_list.h **** }
 186:..\..\..\lvgl\version_6.1.2\lvgl\src\lv_objx/lv_list.h **** 
 187:..\..\..\lvgl\version_6.1.2\lvgl\src\lv_objx/lv_list.h **** /**
 188:..\..\..\lvgl\version_6.1.2\lvgl\src\lv_objx/lv_list.h ****  * Set a style of a list
 189:..\..\..\lvgl\version_6.1.2\lvgl\src\lv_objx/lv_list.h ****  * @param list pointer to a list object
 190:..\..\..\lvgl\version_6.1.2\lvgl\src\lv_objx/lv_list.h ****  * @param type which style should be set
 191:..\..\..\lvgl\version_6.1.2\lvgl\src\lv_objx/lv_list.h ****  * @param style pointer to a style
 192:..\..\..\lvgl\version_6.1.2\lvgl\src\lv_objx/lv_list.h ****  */
 193:..\..\..\lvgl\version_6.1.2\lvgl\src\lv_objx/lv_list.h **** void lv_list_set_style(lv_obj_t * list, lv_list_style_t type, const lv_style_t * style);
 194:..\..\..\lvgl\version_6.1.2\lvgl\src\lv_objx/lv_list.h **** 
 195:..\..\..\lvgl\version_6.1.2\lvgl\src\lv_objx/lv_list.h **** /**
 196:..\..\..\lvgl\version_6.1.2\lvgl\src\lv_objx/lv_list.h ****  * Set layout of a list
 197:..\..\..\lvgl\version_6.1.2\lvgl\src\lv_objx/lv_list.h ****  * @param list pointer to a list object
 198:..\..\..\lvgl\version_6.1.2\lvgl\src\lv_objx/lv_list.h ****  * @param layout which layout should be used
 199:..\..\..\lvgl\version_6.1.2\lvgl\src\lv_objx/lv_list.h ****  */
 200:..\..\..\lvgl\version_6.1.2\lvgl\src\lv_objx/lv_list.h **** void lv_list_set_layout(lv_obj_t * list, lv_layout_t layout);
 201:..\..\..\lvgl\version_6.1.2\lvgl\src\lv_objx/lv_list.h **** 
 202:..\..\..\lvgl\version_6.1.2\lvgl\src\lv_objx/lv_list.h **** /*=====================
 203:..\..\..\lvgl\version_6.1.2\lvgl\src\lv_objx/lv_list.h ****  * Getter functions
 204:..\..\..\lvgl\version_6.1.2\lvgl\src\lv_objx/lv_list.h ****  *====================*/
 205:..\..\..\lvgl\version_6.1.2\lvgl\src\lv_objx/lv_list.h **** 
 206:..\..\..\lvgl\version_6.1.2\lvgl\src\lv_objx/lv_list.h **** /**
 207:..\..\..\lvgl\version_6.1.2\lvgl\src\lv_objx/lv_list.h ****  * Get single button selected mode.
 208:..\..\..\lvgl\version_6.1.2\lvgl\src\lv_objx/lv_list.h ****  * @param list pointer to the currently pressed list object.
 209:..\..\..\lvgl\version_6.1.2\lvgl\src\lv_objx/lv_list.h ****  */
 210:..\..\..\lvgl\version_6.1.2\lvgl\src\lv_objx/lv_list.h **** bool lv_list_get_single_mode(lv_obj_t * list);
 211:..\..\..\lvgl\version_6.1.2\lvgl\src\lv_objx/lv_list.h **** 
 212:..\..\..\lvgl\version_6.1.2\lvgl\src\lv_objx/lv_list.h **** /**
 213:..\..\..\lvgl\version_6.1.2\lvgl\src\lv_objx/lv_list.h ****  * Get the text of a list element
 214:..\..\..\lvgl\version_6.1.2\lvgl\src\lv_objx/lv_list.h ****  * @param btn pointer to list element
 215:..\..\..\lvgl\version_6.1.2\lvgl\src\lv_objx/lv_list.h ****  * @return pointer to the text
 216:..\..\..\lvgl\version_6.1.2\lvgl\src\lv_objx/lv_list.h ****  */
 217:..\..\..\lvgl\version_6.1.2\lvgl\src\lv_objx/lv_list.h **** const char * lv_list_get_btn_text(const lv_obj_t * btn);
 218:..\..\..\lvgl\version_6.1.2\lvgl\src\lv_objx/lv_list.h **** /**
 219:..\..\..\lvgl\version_6.1.2\lvgl\src\lv_objx/lv_list.h ****  * Get the label object from a list element
 220:..\..\..\lvgl\version_6.1.2\lvgl\src\lv_objx/lv_list.h ****  * @param btn pointer to a list element (button)
 221:..\..\..\lvgl\version_6.1.2\lvgl\src\lv_objx/lv_list.h ****  * @return pointer to the label from the list element or NULL if not found
 222:..\..\..\lvgl\version_6.1.2\lvgl\src\lv_objx/lv_list.h ****  */
 223:..\..\..\lvgl\version_6.1.2\lvgl\src\lv_objx/lv_list.h **** lv_obj_t * lv_list_get_btn_label(const lv_obj_t * btn);
 224:..\..\..\lvgl\version_6.1.2\lvgl\src\lv_objx/lv_list.h **** 
 225:..\..\..\lvgl\version_6.1.2\lvgl\src\lv_objx/lv_list.h **** /**
 226:..\..\..\lvgl\version_6.1.2\lvgl\src\lv_objx/lv_list.h ****  * Get the image object from a list element
 227:..\..\..\lvgl\version_6.1.2\lvgl\src\lv_objx/lv_list.h ****  * @param btn pointer to a list element (button)
ARM GAS  C:\Users\tmj32\AppData\Local\Temp\ccUUfkkI.s 			page 23


 228:..\..\..\lvgl\version_6.1.2\lvgl\src\lv_objx/lv_list.h ****  * @return pointer to the image from the list element or NULL if not found
 229:..\..\..\lvgl\version_6.1.2\lvgl\src\lv_objx/lv_list.h ****  */
 230:..\..\..\lvgl\version_6.1.2\lvgl\src\lv_objx/lv_list.h **** lv_obj_t * lv_list_get_btn_img(const lv_obj_t * btn);
 231:..\..\..\lvgl\version_6.1.2\lvgl\src\lv_objx/lv_list.h **** 
 232:..\..\..\lvgl\version_6.1.2\lvgl\src\lv_objx/lv_list.h **** /**
 233:..\..\..\lvgl\version_6.1.2\lvgl\src\lv_objx/lv_list.h ****  * Get the next button from list. (Starts from the bottom button)
 234:..\..\..\lvgl\version_6.1.2\lvgl\src\lv_objx/lv_list.h ****  * @param list pointer to a list object
 235:..\..\..\lvgl\version_6.1.2\lvgl\src\lv_objx/lv_list.h ****  * @param prev_btn pointer to button. Search the next after it.
 236:..\..\..\lvgl\version_6.1.2\lvgl\src\lv_objx/lv_list.h ****  * @return pointer to the next button or NULL when no more buttons
 237:..\..\..\lvgl\version_6.1.2\lvgl\src\lv_objx/lv_list.h ****  */
 238:..\..\..\lvgl\version_6.1.2\lvgl\src\lv_objx/lv_list.h **** lv_obj_t * lv_list_get_prev_btn(const lv_obj_t * list, lv_obj_t * prev_btn);
 239:..\..\..\lvgl\version_6.1.2\lvgl\src\lv_objx/lv_list.h **** 
 240:..\..\..\lvgl\version_6.1.2\lvgl\src\lv_objx/lv_list.h **** /**
 241:..\..\..\lvgl\version_6.1.2\lvgl\src\lv_objx/lv_list.h ****  * Get the previous button from list. (Starts from the top button)
 242:..\..\..\lvgl\version_6.1.2\lvgl\src\lv_objx/lv_list.h ****  * @param list pointer to a list object
 243:..\..\..\lvgl\version_6.1.2\lvgl\src\lv_objx/lv_list.h ****  * @param prev_btn pointer to button. Search the previous before it.
 244:..\..\..\lvgl\version_6.1.2\lvgl\src\lv_objx/lv_list.h ****  * @return pointer to the previous button or NULL when no more buttons
 245:..\..\..\lvgl\version_6.1.2\lvgl\src\lv_objx/lv_list.h ****  */
 246:..\..\..\lvgl\version_6.1.2\lvgl\src\lv_objx/lv_list.h **** lv_obj_t * lv_list_get_next_btn(const lv_obj_t * list, lv_obj_t * prev_btn);
 247:..\..\..\lvgl\version_6.1.2\lvgl\src\lv_objx/lv_list.h **** 
 248:..\..\..\lvgl\version_6.1.2\lvgl\src\lv_objx/lv_list.h **** /**
 249:..\..\..\lvgl\version_6.1.2\lvgl\src\lv_objx/lv_list.h ****  * Get the index of the button in the list
 250:..\..\..\lvgl\version_6.1.2\lvgl\src\lv_objx/lv_list.h ****  * @param list pointer to a list object. If NULL, assumes btn is part of a list.
 251:..\..\..\lvgl\version_6.1.2\lvgl\src\lv_objx/lv_list.h ****  * @param btn pointer to a list element (button)
 252:..\..\..\lvgl\version_6.1.2\lvgl\src\lv_objx/lv_list.h ****  * @return the index of the button in the list, or -1 of the button not in this list
 253:..\..\..\lvgl\version_6.1.2\lvgl\src\lv_objx/lv_list.h ****  */
 254:..\..\..\lvgl\version_6.1.2\lvgl\src\lv_objx/lv_list.h **** int32_t lv_list_get_btn_index(const lv_obj_t * list, const lv_obj_t * btn);
 255:..\..\..\lvgl\version_6.1.2\lvgl\src\lv_objx/lv_list.h **** 
 256:..\..\..\lvgl\version_6.1.2\lvgl\src\lv_objx/lv_list.h **** /**
 257:..\..\..\lvgl\version_6.1.2\lvgl\src\lv_objx/lv_list.h ****  * Get the number of buttons in the list
 258:..\..\..\lvgl\version_6.1.2\lvgl\src\lv_objx/lv_list.h ****  * @param list pointer to a list object
 259:..\..\..\lvgl\version_6.1.2\lvgl\src\lv_objx/lv_list.h ****  * @return the number of buttons in the list
 260:..\..\..\lvgl\version_6.1.2\lvgl\src\lv_objx/lv_list.h ****  */
 261:..\..\..\lvgl\version_6.1.2\lvgl\src\lv_objx/lv_list.h **** uint16_t lv_list_get_size(const lv_obj_t * list);
 262:..\..\..\lvgl\version_6.1.2\lvgl\src\lv_objx/lv_list.h **** 
 263:..\..\..\lvgl\version_6.1.2\lvgl\src\lv_objx/lv_list.h **** #if LV_USE_GROUP
 264:..\..\..\lvgl\version_6.1.2\lvgl\src\lv_objx/lv_list.h **** /**
 265:..\..\..\lvgl\version_6.1.2\lvgl\src\lv_objx/lv_list.h ****  * Get the currently selected button. Can be used while navigating in the list with a keypad.
 266:..\..\..\lvgl\version_6.1.2\lvgl\src\lv_objx/lv_list.h ****  * @param list pointer to a list object
 267:..\..\..\lvgl\version_6.1.2\lvgl\src\lv_objx/lv_list.h ****  * @return pointer to the selected button
 268:..\..\..\lvgl\version_6.1.2\lvgl\src\lv_objx/lv_list.h ****  */
 269:..\..\..\lvgl\version_6.1.2\lvgl\src\lv_objx/lv_list.h **** lv_obj_t * lv_list_get_btn_selected(const lv_obj_t * list);
 270:..\..\..\lvgl\version_6.1.2\lvgl\src\lv_objx/lv_list.h **** #endif
 271:..\..\..\lvgl\version_6.1.2\lvgl\src\lv_objx/lv_list.h **** 
 272:..\..\..\lvgl\version_6.1.2\lvgl\src\lv_objx/lv_list.h **** /**
 273:..\..\..\lvgl\version_6.1.2\lvgl\src\lv_objx/lv_list.h ****  * Get layout of a list
 274:..\..\..\lvgl\version_6.1.2\lvgl\src\lv_objx/lv_list.h ****  * @param list pointer to a list object
 275:..\..\..\lvgl\version_6.1.2\lvgl\src\lv_objx/lv_list.h ****  * @return layout of the list object
 276:..\..\..\lvgl\version_6.1.2\lvgl\src\lv_objx/lv_list.h ****  */
 277:..\..\..\lvgl\version_6.1.2\lvgl\src\lv_objx/lv_list.h **** lv_layout_t lv_list_get_layout(lv_obj_t * list);
 278:..\..\..\lvgl\version_6.1.2\lvgl\src\lv_objx/lv_list.h **** 
 279:..\..\..\lvgl\version_6.1.2\lvgl\src\lv_objx/lv_list.h **** /**
 280:..\..\..\lvgl\version_6.1.2\lvgl\src\lv_objx/lv_list.h ****  * Get the scroll bar mode of a list
 281:..\..\..\lvgl\version_6.1.2\lvgl\src\lv_objx/lv_list.h ****  * @param list pointer to a list object
 282:..\..\..\lvgl\version_6.1.2\lvgl\src\lv_objx/lv_list.h ****  * @return scrollbar mode from 'lv_page_sb_mode_t' enum
 283:..\..\..\lvgl\version_6.1.2\lvgl\src\lv_objx/lv_list.h ****  */
 284:..\..\..\lvgl\version_6.1.2\lvgl\src\lv_objx/lv_list.h **** static inline lv_sb_mode_t lv_list_get_sb_mode(const lv_obj_t * list)
ARM GAS  C:\Users\tmj32\AppData\Local\Temp\ccUUfkkI.s 			page 24


 285:..\..\..\lvgl\version_6.1.2\lvgl\src\lv_objx/lv_list.h **** {
 286:..\..\..\lvgl\version_6.1.2\lvgl\src\lv_objx/lv_list.h ****     return lv_page_get_sb_mode(list);
 287:..\..\..\lvgl\version_6.1.2\lvgl\src\lv_objx/lv_list.h **** }
 288:..\..\..\lvgl\version_6.1.2\lvgl\src\lv_objx/lv_list.h **** 
 289:..\..\..\lvgl\version_6.1.2\lvgl\src\lv_objx/lv_list.h **** /**
 290:..\..\..\lvgl\version_6.1.2\lvgl\src\lv_objx/lv_list.h ****  * Get the scroll propagation property
 291:..\..\..\lvgl\version_6.1.2\lvgl\src\lv_objx/lv_list.h ****  * @param list pointer to a List
 292:..\..\..\lvgl\version_6.1.2\lvgl\src\lv_objx/lv_list.h ****  * @return true or false
 293:..\..\..\lvgl\version_6.1.2\lvgl\src\lv_objx/lv_list.h ****  */
 294:..\..\..\lvgl\version_6.1.2\lvgl\src\lv_objx/lv_list.h **** static inline bool lv_list_get_scroll_propagation(lv_obj_t * list)
 295:..\..\..\lvgl\version_6.1.2\lvgl\src\lv_objx/lv_list.h **** {
 296:..\..\..\lvgl\version_6.1.2\lvgl\src\lv_objx/lv_list.h ****     return lv_page_get_scroll_propagation(list);
 297:..\..\..\lvgl\version_6.1.2\lvgl\src\lv_objx/lv_list.h **** }
 298:..\..\..\lvgl\version_6.1.2\lvgl\src\lv_objx/lv_list.h **** 
 299:..\..\..\lvgl\version_6.1.2\lvgl\src\lv_objx/lv_list.h **** /**
 300:..\..\..\lvgl\version_6.1.2\lvgl\src\lv_objx/lv_list.h ****  * Get the scroll propagation property
 301:..\..\..\lvgl\version_6.1.2\lvgl\src\lv_objx/lv_list.h ****  * @param list pointer to a List
 302:..\..\..\lvgl\version_6.1.2\lvgl\src\lv_objx/lv_list.h ****  * @return true or false
 303:..\..\..\lvgl\version_6.1.2\lvgl\src\lv_objx/lv_list.h ****  */
 304:..\..\..\lvgl\version_6.1.2\lvgl\src\lv_objx/lv_list.h **** static inline bool lv_list_get_edge_flash(lv_obj_t * list)
 305:..\..\..\lvgl\version_6.1.2\lvgl\src\lv_objx/lv_list.h **** {
 306:..\..\..\lvgl\version_6.1.2\lvgl\src\lv_objx/lv_list.h ****     return lv_page_get_edge_flash(list);
 307:..\..\..\lvgl\version_6.1.2\lvgl\src\lv_objx/lv_list.h **** }
 308:..\..\..\lvgl\version_6.1.2\lvgl\src\lv_objx/lv_list.h **** 
 309:..\..\..\lvgl\version_6.1.2\lvgl\src\lv_objx/lv_list.h **** /**
 310:..\..\..\lvgl\version_6.1.2\lvgl\src\lv_objx/lv_list.h ****  * Get scroll animation duration
 311:..\..\..\lvgl\version_6.1.2\lvgl\src\lv_objx/lv_list.h ****  * @param list pointer to a list object
 312:..\..\..\lvgl\version_6.1.2\lvgl\src\lv_objx/lv_list.h ****  * @return duration of animation [ms]
 313:..\..\..\lvgl\version_6.1.2\lvgl\src\lv_objx/lv_list.h ****  */
 314:..\..\..\lvgl\version_6.1.2\lvgl\src\lv_objx/lv_list.h **** static inline uint16_t lv_list_get_anim_time(const lv_obj_t * list)
 315:..\..\..\lvgl\version_6.1.2\lvgl\src\lv_objx/lv_list.h **** {
 393              		.loc 4 315 0
 394              		.cfi_startproc
 395              		@ args = 0, pretend = 0, frame = 8
 396              		@ frame_needed = 1, uses_anonymous_args = 0
 397 0000 80B5     		push	{r7, lr}
 398              		.cfi_def_cfa_offset 8
 399              		.cfi_offset 7, -8
 400              		.cfi_offset 14, -4
 401 0002 82B0     		sub	sp, sp, #8
 402              		.cfi_def_cfa_offset 16
 403 0004 00AF     		add	r7, sp, #0
 404              		.cfi_def_cfa_register 7
 405 0006 7860     		str	r0, [r7, #4]
 316:..\..\..\lvgl\version_6.1.2\lvgl\src\lv_objx/lv_list.h ****     return lv_page_get_anim_time(list);
 406              		.loc 4 316 0
 407 0008 7868     		ldr	r0, [r7, #4]
 408 000a FFF7FEFF 		bl	lv_page_get_anim_time
 409 000e 0346     		mov	r3, r0
 317:..\..\..\lvgl\version_6.1.2\lvgl\src\lv_objx/lv_list.h **** }
 410              		.loc 4 317 0
 411 0010 1846     		mov	r0, r3
 412 0012 0837     		adds	r7, r7, #8
 413              		.cfi_def_cfa_offset 8
 414 0014 BD46     		mov	sp, r7
 415              		.cfi_def_cfa_register 13
 416              		@ sp needed
ARM GAS  C:\Users\tmj32\AppData\Local\Temp\ccUUfkkI.s 			page 25


 417 0016 80BD     		pop	{r7, pc}
 418              		.cfi_endproc
 419              	.LFE68:
 420              		.size	lv_list_get_anim_time, .-lv_list_get_anim_time
 421              		.bss
 422              		.align	2
 423              	img_signal:
 424 0000 00000000 		.space	4
 425              		.align	2
 426              	label_signal:
 427 0004 00000000 		.space	4
 428              		.align	2
 429              	ancestor_page_signal:
 430 0008 00000000 		.space	4
 431              		.align	2
 432              	ancestor_btn_signal:
 433 000c 00000000 		.space	4
 434              		.section	.text.lv_list_create,"ax",%progbits
 435              		.align	2
 436              		.global	lv_list_create
 437              		.thumb
 438              		.thumb_func
 439              		.type	lv_list_create, %function
 440              	lv_list_create:
 441              	.LFB69:
 442              		.file 5 "..\\..\\..\\lvgl\\version_6.1.2\\lvgl\\src\\lv_objx\\lv_list.c"
   1:..\..\..\lvgl\version_6.1.2\lvgl\src\lv_objx/lv_list.c **** /**
   2:..\..\..\lvgl\version_6.1.2\lvgl\src\lv_objx/lv_list.c ****  * @file lv_list.c
   3:..\..\..\lvgl\version_6.1.2\lvgl\src\lv_objx/lv_list.c ****  *
   4:..\..\..\lvgl\version_6.1.2\lvgl\src\lv_objx/lv_list.c ****  */
   5:..\..\..\lvgl\version_6.1.2\lvgl\src\lv_objx/lv_list.c **** 
   6:..\..\..\lvgl\version_6.1.2\lvgl\src\lv_objx/lv_list.c **** /*********************
   7:..\..\..\lvgl\version_6.1.2\lvgl\src\lv_objx/lv_list.c ****  *      INCLUDES
   8:..\..\..\lvgl\version_6.1.2\lvgl\src\lv_objx/lv_list.c ****  *********************/
   9:..\..\..\lvgl\version_6.1.2\lvgl\src\lv_objx/lv_list.c **** #include "lv_list.h"
  10:..\..\..\lvgl\version_6.1.2\lvgl\src\lv_objx/lv_list.c **** #if LV_USE_LIST != 0
  11:..\..\..\lvgl\version_6.1.2\lvgl\src\lv_objx/lv_list.c **** 
  12:..\..\..\lvgl\version_6.1.2\lvgl\src\lv_objx/lv_list.c **** #include "../lv_core/lv_debug.h"
  13:..\..\..\lvgl\version_6.1.2\lvgl\src\lv_objx/lv_list.c **** #include "../lv_core/lv_group.h"
  14:..\..\..\lvgl\version_6.1.2\lvgl\src\lv_objx/lv_list.c **** #include "../lv_themes/lv_theme.h"
  15:..\..\..\lvgl\version_6.1.2\lvgl\src\lv_objx/lv_list.c **** #include "../lv_misc/lv_anim.h"
  16:..\..\..\lvgl\version_6.1.2\lvgl\src\lv_objx/lv_list.c **** #include "../lv_misc/lv_math.h"
  17:..\..\..\lvgl\version_6.1.2\lvgl\src\lv_objx/lv_list.c **** 
  18:..\..\..\lvgl\version_6.1.2\lvgl\src\lv_objx/lv_list.c **** /*********************
  19:..\..\..\lvgl\version_6.1.2\lvgl\src\lv_objx/lv_list.c ****  *      DEFINES
  20:..\..\..\lvgl\version_6.1.2\lvgl\src\lv_objx/lv_list.c ****  *********************/
  21:..\..\..\lvgl\version_6.1.2\lvgl\src\lv_objx/lv_list.c **** #define LV_OBJX_NAME "lv_list"
  22:..\..\..\lvgl\version_6.1.2\lvgl\src\lv_objx/lv_list.c **** 
  23:..\..\..\lvgl\version_6.1.2\lvgl\src\lv_objx/lv_list.c **** #define LV_LIST_LAYOUT_DEF LV_LAYOUT_COL_M
  24:..\..\..\lvgl\version_6.1.2\lvgl\src\lv_objx/lv_list.c **** 
  25:..\..\..\lvgl\version_6.1.2\lvgl\src\lv_objx/lv_list.c **** #if LV_USE_ANIMATION == 0
  26:..\..\..\lvgl\version_6.1.2\lvgl\src\lv_objx/lv_list.c **** #undef LV_LIST_DEF_ANIM_TIME
  27:..\..\..\lvgl\version_6.1.2\lvgl\src\lv_objx/lv_list.c **** #define LV_LIST_DEF_ANIM_TIME 0
  28:..\..\..\lvgl\version_6.1.2\lvgl\src\lv_objx/lv_list.c **** #endif
  29:..\..\..\lvgl\version_6.1.2\lvgl\src\lv_objx/lv_list.c **** 
  30:..\..\..\lvgl\version_6.1.2\lvgl\src\lv_objx/lv_list.c **** /**********************
  31:..\..\..\lvgl\version_6.1.2\lvgl\src\lv_objx/lv_list.c ****  *      TYPEDEFS
ARM GAS  C:\Users\tmj32\AppData\Local\Temp\ccUUfkkI.s 			page 26


  32:..\..\..\lvgl\version_6.1.2\lvgl\src\lv_objx/lv_list.c ****  **********************/
  33:..\..\..\lvgl\version_6.1.2\lvgl\src\lv_objx/lv_list.c **** 
  34:..\..\..\lvgl\version_6.1.2\lvgl\src\lv_objx/lv_list.c **** /**********************
  35:..\..\..\lvgl\version_6.1.2\lvgl\src\lv_objx/lv_list.c ****  *  STATIC PROTOTYPES
  36:..\..\..\lvgl\version_6.1.2\lvgl\src\lv_objx/lv_list.c ****  **********************/
  37:..\..\..\lvgl\version_6.1.2\lvgl\src\lv_objx/lv_list.c **** static lv_res_t lv_list_signal(lv_obj_t * list, lv_signal_t sign, void * param);
  38:..\..\..\lvgl\version_6.1.2\lvgl\src\lv_objx/lv_list.c **** static lv_res_t lv_list_btn_signal(lv_obj_t * btn, lv_signal_t sign, void * param);
  39:..\..\..\lvgl\version_6.1.2\lvgl\src\lv_objx/lv_list.c **** static void lv_list_btn_single_select(lv_obj_t * btn);
  40:..\..\..\lvgl\version_6.1.2\lvgl\src\lv_objx/lv_list.c **** static bool lv_list_is_list_btn(lv_obj_t * list_btn);
  41:..\..\..\lvgl\version_6.1.2\lvgl\src\lv_objx/lv_list.c **** static bool lv_list_is_list_img(lv_obj_t * list_btn);
  42:..\..\..\lvgl\version_6.1.2\lvgl\src\lv_objx/lv_list.c **** static bool lv_list_is_list_label(lv_obj_t * list_btn);
  43:..\..\..\lvgl\version_6.1.2\lvgl\src\lv_objx/lv_list.c **** 
  44:..\..\..\lvgl\version_6.1.2\lvgl\src\lv_objx/lv_list.c **** /**********************
  45:..\..\..\lvgl\version_6.1.2\lvgl\src\lv_objx/lv_list.c ****  *  STATIC VARIABLES
  46:..\..\..\lvgl\version_6.1.2\lvgl\src\lv_objx/lv_list.c ****  **********************/
  47:..\..\..\lvgl\version_6.1.2\lvgl\src\lv_objx/lv_list.c **** #if LV_USE_IMG
  48:..\..\..\lvgl\version_6.1.2\lvgl\src\lv_objx/lv_list.c **** static lv_signal_cb_t img_signal;
  49:..\..\..\lvgl\version_6.1.2\lvgl\src\lv_objx/lv_list.c **** #endif
  50:..\..\..\lvgl\version_6.1.2\lvgl\src\lv_objx/lv_list.c **** static lv_signal_cb_t label_signal;
  51:..\..\..\lvgl\version_6.1.2\lvgl\src\lv_objx/lv_list.c **** static lv_signal_cb_t ancestor_page_signal;
  52:..\..\..\lvgl\version_6.1.2\lvgl\src\lv_objx/lv_list.c **** static lv_signal_cb_t ancestor_btn_signal;
  53:..\..\..\lvgl\version_6.1.2\lvgl\src\lv_objx/lv_list.c **** 
  54:..\..\..\lvgl\version_6.1.2\lvgl\src\lv_objx/lv_list.c **** 
  55:..\..\..\lvgl\version_6.1.2\lvgl\src\lv_objx/lv_list.c **** /**********************
  56:..\..\..\lvgl\version_6.1.2\lvgl\src\lv_objx/lv_list.c ****  *      MACROS
  57:..\..\..\lvgl\version_6.1.2\lvgl\src\lv_objx/lv_list.c ****  **********************/
  58:..\..\..\lvgl\version_6.1.2\lvgl\src\lv_objx/lv_list.c **** 
  59:..\..\..\lvgl\version_6.1.2\lvgl\src\lv_objx/lv_list.c **** /**********************
  60:..\..\..\lvgl\version_6.1.2\lvgl\src\lv_objx/lv_list.c ****  *   GLOBAL FUNCTIONS
  61:..\..\..\lvgl\version_6.1.2\lvgl\src\lv_objx/lv_list.c ****  **********************/
  62:..\..\..\lvgl\version_6.1.2\lvgl\src\lv_objx/lv_list.c **** 
  63:..\..\..\lvgl\version_6.1.2\lvgl\src\lv_objx/lv_list.c **** /**
  64:..\..\..\lvgl\version_6.1.2\lvgl\src\lv_objx/lv_list.c ****  * Create a list objects
  65:..\..\..\lvgl\version_6.1.2\lvgl\src\lv_objx/lv_list.c ****  * @param par pointer to an object, it will be the parent of the new list
  66:..\..\..\lvgl\version_6.1.2\lvgl\src\lv_objx/lv_list.c ****  * @param copy pointer to a list object, if not NULL then the new object will be copied from it
  67:..\..\..\lvgl\version_6.1.2\lvgl\src\lv_objx/lv_list.c ****  * @return pointer to the created list
  68:..\..\..\lvgl\version_6.1.2\lvgl\src\lv_objx/lv_list.c ****  */
  69:..\..\..\lvgl\version_6.1.2\lvgl\src\lv_objx/lv_list.c **** lv_obj_t * lv_list_create(lv_obj_t * par, const lv_obj_t * copy)
  70:..\..\..\lvgl\version_6.1.2\lvgl\src\lv_objx/lv_list.c **** {
 443              		.loc 5 70 0
 444              		.cfi_startproc
 445              		@ args = 0, pretend = 0, frame = 40
 446              		@ frame_needed = 1, uses_anonymous_args = 0
 447 0000 80B5     		push	{r7, lr}
 448              		.cfi_def_cfa_offset 8
 449              		.cfi_offset 7, -8
 450              		.cfi_offset 14, -4
 451 0002 8AB0     		sub	sp, sp, #40
 452              		.cfi_def_cfa_offset 48
 453 0004 00AF     		add	r7, sp, #0
 454              		.cfi_def_cfa_register 7
 455 0006 7860     		str	r0, [r7, #4]
 456 0008 3960     		str	r1, [r7]
  71:..\..\..\lvgl\version_6.1.2\lvgl\src\lv_objx/lv_list.c ****     LV_LOG_TRACE("list create started");
  72:..\..\..\lvgl\version_6.1.2\lvgl\src\lv_objx/lv_list.c **** 
  73:..\..\..\lvgl\version_6.1.2\lvgl\src\lv_objx/lv_list.c ****     /*Create the ancestor basic object*/
  74:..\..\..\lvgl\version_6.1.2\lvgl\src\lv_objx/lv_list.c ****     lv_obj_t * new_list = lv_page_create(par, copy);
ARM GAS  C:\Users\tmj32\AppData\Local\Temp\ccUUfkkI.s 			page 27


 457              		.loc 5 74 0
 458 000a 3968     		ldr	r1, [r7]
 459 000c 7868     		ldr	r0, [r7, #4]
 460 000e FFF7FEFF 		bl	lv_page_create
 461 0012 F861     		str	r0, [r7, #28]
  75:..\..\..\lvgl\version_6.1.2\lvgl\src\lv_objx/lv_list.c ****     LV_ASSERT_MEM(new_list);
  76:..\..\..\lvgl\version_6.1.2\lvgl\src\lv_objx/lv_list.c ****     if(new_list == NULL) return NULL;
 462              		.loc 5 76 0
 463 0014 FB69     		ldr	r3, [r7, #28]
 464 0016 002B     		cmp	r3, #0
 465 0018 01D1     		bne	.L14
 466              		.loc 5 76 0 is_stmt 0 discriminator 1
 467 001a 0023     		movs	r3, #0
 468 001c F0E0     		b	.L15
 469              	.L14:
  77:..\..\..\lvgl\version_6.1.2\lvgl\src\lv_objx/lv_list.c **** 
  78:..\..\..\lvgl\version_6.1.2\lvgl\src\lv_objx/lv_list.c ****     if(ancestor_page_signal == NULL) ancestor_page_signal = lv_obj_get_signal_cb(new_list);
 470              		.loc 5 78 0 is_stmt 1
 471 001e 7A4B     		ldr	r3, .L25
 472 0020 1B68     		ldr	r3, [r3]
 473 0022 002B     		cmp	r3, #0
 474 0024 05D1     		bne	.L16
 475              		.loc 5 78 0 is_stmt 0 discriminator 1
 476 0026 F869     		ldr	r0, [r7, #28]
 477 0028 FFF7FEFF 		bl	lv_obj_get_signal_cb
 478 002c 0246     		mov	r2, r0
 479 002e 764B     		ldr	r3, .L25
 480 0030 1A60     		str	r2, [r3]
 481              	.L16:
  79:..\..\..\lvgl\version_6.1.2\lvgl\src\lv_objx/lv_list.c **** 
  80:..\..\..\lvgl\version_6.1.2\lvgl\src\lv_objx/lv_list.c ****     lv_list_ext_t * ext = lv_obj_allocate_ext_attr(new_list, sizeof(lv_list_ext_t));
 482              		.loc 5 80 0 is_stmt 1
 483 0032 4C21     		movs	r1, #76
 484 0034 F869     		ldr	r0, [r7, #28]
 485 0036 FFF7FEFF 		bl	lv_obj_allocate_ext_attr
 486 003a B861     		str	r0, [r7, #24]
  81:..\..\..\lvgl\version_6.1.2\lvgl\src\lv_objx/lv_list.c ****     LV_ASSERT_MEM(ext);
  82:..\..\..\lvgl\version_6.1.2\lvgl\src\lv_objx/lv_list.c ****     if(ext == NULL) return NULL;
 487              		.loc 5 82 0
 488 003c BB69     		ldr	r3, [r7, #24]
 489 003e 002B     		cmp	r3, #0
 490 0040 01D1     		bne	.L17
 491              		.loc 5 82 0 is_stmt 0 discriminator 1
 492 0042 0023     		movs	r3, #0
 493 0044 DCE0     		b	.L15
 494              	.L17:
  83:..\..\..\lvgl\version_6.1.2\lvgl\src\lv_objx/lv_list.c **** 
  84:..\..\..\lvgl\version_6.1.2\lvgl\src\lv_objx/lv_list.c ****     ext->style_img                        = NULL;
 495              		.loc 5 84 0 is_stmt 1
 496 0046 BB69     		ldr	r3, [r7, #24]
 497 0048 0022     		movs	r2, #0
 498 004a 5A64     		str	r2, [r3, #68]
  85:..\..\..\lvgl\version_6.1.2\lvgl\src\lv_objx/lv_list.c ****     ext->styles_btn[LV_BTN_STATE_REL]     = &lv_style_btn_rel;
 499              		.loc 5 85 0
 500 004c BB69     		ldr	r3, [r7, #24]
 501 004e 6F4A     		ldr	r2, .L25+4
 502 0050 1A63     		str	r2, [r3, #48]
ARM GAS  C:\Users\tmj32\AppData\Local\Temp\ccUUfkkI.s 			page 28


  86:..\..\..\lvgl\version_6.1.2\lvgl\src\lv_objx/lv_list.c ****     ext->styles_btn[LV_BTN_STATE_PR]      = &lv_style_btn_pr;
 503              		.loc 5 86 0
 504 0052 BB69     		ldr	r3, [r7, #24]
 505 0054 6E4A     		ldr	r2, .L25+8
 506 0056 5A63     		str	r2, [r3, #52]
  87:..\..\..\lvgl\version_6.1.2\lvgl\src\lv_objx/lv_list.c ****     ext->styles_btn[LV_BTN_STATE_TGL_REL] = &lv_style_btn_tgl_rel;
 507              		.loc 5 87 0
 508 0058 BB69     		ldr	r3, [r7, #24]
 509 005a 6E4A     		ldr	r2, .L25+12
 510 005c 9A63     		str	r2, [r3, #56]
  88:..\..\..\lvgl\version_6.1.2\lvgl\src\lv_objx/lv_list.c ****     ext->styles_btn[LV_BTN_STATE_TGL_PR]  = &lv_style_btn_tgl_pr;
 511              		.loc 5 88 0
 512 005e BB69     		ldr	r3, [r7, #24]
 513 0060 6D4A     		ldr	r2, .L25+16
 514 0062 DA63     		str	r2, [r3, #60]
  89:..\..\..\lvgl\version_6.1.2\lvgl\src\lv_objx/lv_list.c ****     ext->styles_btn[LV_BTN_STATE_INA]     = &lv_style_btn_ina;
 515              		.loc 5 89 0
 516 0064 BB69     		ldr	r3, [r7, #24]
 517 0066 6D4A     		ldr	r2, .L25+20
 518 0068 1A64     		str	r2, [r3, #64]
  90:..\..\..\lvgl\version_6.1.2\lvgl\src\lv_objx/lv_list.c ****     ext->single_mode                      = false;
 519              		.loc 5 90 0
 520 006a BA69     		ldr	r2, [r7, #24]
 521 006c 92F84A30 		ldrb	r3, [r2, #74]
 522 0070 6FF30003 		bfc	r3, #0, #1
 523 0074 82F84A30 		strb	r3, [r2, #74]
  91:..\..\..\lvgl\version_6.1.2\lvgl\src\lv_objx/lv_list.c ****     ext->size                             = 0;
 524              		.loc 5 91 0
 525 0078 BB69     		ldr	r3, [r7, #24]
 526 007a 0022     		movs	r2, #0
 527 007c A3F84820 		strh	r2, [r3, #72]	@ movhi
  92:..\..\..\lvgl\version_6.1.2\lvgl\src\lv_objx/lv_list.c **** 
  93:..\..\..\lvgl\version_6.1.2\lvgl\src\lv_objx/lv_list.c **** #if LV_USE_GROUP
  94:..\..\..\lvgl\version_6.1.2\lvgl\src\lv_objx/lv_list.c ****     ext->last_sel     = NULL;
  95:..\..\..\lvgl\version_6.1.2\lvgl\src\lv_objx/lv_list.c ****     ext->selected_btn = NULL;
  96:..\..\..\lvgl\version_6.1.2\lvgl\src\lv_objx/lv_list.c ****     ext->last_clicked_btn = NULL;
  97:..\..\..\lvgl\version_6.1.2\lvgl\src\lv_objx/lv_list.c **** #endif
  98:..\..\..\lvgl\version_6.1.2\lvgl\src\lv_objx/lv_list.c **** 
  99:..\..\..\lvgl\version_6.1.2\lvgl\src\lv_objx/lv_list.c ****     lv_obj_set_signal_cb(new_list, lv_list_signal);
 528              		.loc 5 99 0
 529 0080 6749     		ldr	r1, .L25+24
 530 0082 F869     		ldr	r0, [r7, #28]
 531 0084 FFF7FEFF 		bl	lv_obj_set_signal_cb
 100:..\..\..\lvgl\version_6.1.2\lvgl\src\lv_objx/lv_list.c **** 
 101:..\..\..\lvgl\version_6.1.2\lvgl\src\lv_objx/lv_list.c ****     /*Init the new list object*/
 102:..\..\..\lvgl\version_6.1.2\lvgl\src\lv_objx/lv_list.c ****     if(copy == NULL) {
 532              		.loc 5 102 0
 533 0088 3B68     		ldr	r3, [r7]
 534 008a 002B     		cmp	r3, #0
 535 008c 69D1     		bne	.L18
 536              	.LBB2:
 103:..\..\..\lvgl\version_6.1.2\lvgl\src\lv_objx/lv_list.c ****         lv_page_set_anim_time(new_list, LV_LIST_DEF_ANIM_TIME);
 537              		.loc 5 103 0
 538 008e 6421     		movs	r1, #100
 539 0090 F869     		ldr	r0, [r7, #28]
 540 0092 FFF7FEFF 		bl	lv_page_set_anim_time
 104:..\..\..\lvgl\version_6.1.2\lvgl\src\lv_objx/lv_list.c ****         lv_page_set_scrl_fit2(new_list, LV_FIT_FLOOD, LV_FIT_TIGHT);
ARM GAS  C:\Users\tmj32\AppData\Local\Temp\ccUUfkkI.s 			page 29


 541              		.loc 5 104 0
 542 0096 0122     		movs	r2, #1
 543 0098 0221     		movs	r1, #2
 544 009a F869     		ldr	r0, [r7, #28]
 545 009c FFF7FEFF 		bl	lv_page_set_scrl_fit2
 105:..\..\..\lvgl\version_6.1.2\lvgl\src\lv_objx/lv_list.c ****         lv_obj_set_size(new_list, 2 * LV_DPI, 3 * LV_DPI);
 546              		.loc 5 105 0
 547 00a0 4FF4E172 		mov	r2, #450
 548 00a4 4FF49671 		mov	r1, #300
 549 00a8 F869     		ldr	r0, [r7, #28]
 550 00aa FFF7FEFF 		bl	lv_obj_set_size
 106:..\..\..\lvgl\version_6.1.2\lvgl\src\lv_objx/lv_list.c ****         lv_page_set_scrl_layout(new_list, LV_LIST_LAYOUT_DEF);
 551              		.loc 5 106 0
 552 00ae 0321     		movs	r1, #3
 553 00b0 F869     		ldr	r0, [r7, #28]
 554 00b2 FFF7FEFF 		bl	lv_page_set_scrl_layout
 107:..\..\..\lvgl\version_6.1.2\lvgl\src\lv_objx/lv_list.c ****         lv_list_set_sb_mode(new_list, LV_SB_MODE_DRAG);
 555              		.loc 5 107 0
 556 00b6 0221     		movs	r1, #2
 557 00b8 F869     		ldr	r0, [r7, #28]
 558 00ba FFF7FEFF 		bl	lv_list_set_sb_mode
 108:..\..\..\lvgl\version_6.1.2\lvgl\src\lv_objx/lv_list.c **** 
 109:..\..\..\lvgl\version_6.1.2\lvgl\src\lv_objx/lv_list.c ****         /*Set the default styles*/
 110:..\..\..\lvgl\version_6.1.2\lvgl\src\lv_objx/lv_list.c ****         lv_theme_t * th = lv_theme_get_current();
 559              		.loc 5 110 0
 560 00be FFF7FEFF 		bl	lv_theme_get_current
 561 00c2 7861     		str	r0, [r7, #20]
 111:..\..\..\lvgl\version_6.1.2\lvgl\src\lv_objx/lv_list.c ****         if(th) {
 562              		.loc 5 111 0
 563 00c4 7B69     		ldr	r3, [r7, #20]
 564 00c6 002B     		cmp	r3, #0
 565 00c8 40D0     		beq	.L19
 112:..\..\..\lvgl\version_6.1.2\lvgl\src\lv_objx/lv_list.c ****             lv_list_set_style(new_list, LV_LIST_STYLE_BG, th->style.list.bg);
 566              		.loc 5 112 0
 567 00ca 7B69     		ldr	r3, [r7, #20]
 568 00cc D3F82C31 		ldr	r3, [r3, #300]
 569 00d0 1A46     		mov	r2, r3
 570 00d2 0021     		movs	r1, #0
 571 00d4 F869     		ldr	r0, [r7, #28]
 572 00d6 FFF7FEFF 		bl	lv_list_set_style
 113:..\..\..\lvgl\version_6.1.2\lvgl\src\lv_objx/lv_list.c ****             lv_list_set_style(new_list, LV_LIST_STYLE_SCRL, th->style.list.scrl);
 573              		.loc 5 113 0
 574 00da 7B69     		ldr	r3, [r7, #20]
 575 00dc D3F83031 		ldr	r3, [r3, #304]
 576 00e0 1A46     		mov	r2, r3
 577 00e2 0121     		movs	r1, #1
 578 00e4 F869     		ldr	r0, [r7, #28]
 579 00e6 FFF7FEFF 		bl	lv_list_set_style
 114:..\..\..\lvgl\version_6.1.2\lvgl\src\lv_objx/lv_list.c ****             lv_list_set_style(new_list, LV_LIST_STYLE_SB, th->style.list.sb);
 580              		.loc 5 114 0
 581 00ea 7B69     		ldr	r3, [r7, #20]
 582 00ec D3F83431 		ldr	r3, [r3, #308]
 583 00f0 1A46     		mov	r2, r3
 584 00f2 0221     		movs	r1, #2
 585 00f4 F869     		ldr	r0, [r7, #28]
 586 00f6 FFF7FEFF 		bl	lv_list_set_style
 115:..\..\..\lvgl\version_6.1.2\lvgl\src\lv_objx/lv_list.c ****             lv_list_set_style(new_list, LV_LIST_STYLE_BTN_REL, th->style.list.btn.rel);
ARM GAS  C:\Users\tmj32\AppData\Local\Temp\ccUUfkkI.s 			page 30


 587              		.loc 5 115 0
 588 00fa 7B69     		ldr	r3, [r7, #20]
 589 00fc D3F83831 		ldr	r3, [r3, #312]
 590 0100 1A46     		mov	r2, r3
 591 0102 0421     		movs	r1, #4
 592 0104 F869     		ldr	r0, [r7, #28]
 593 0106 FFF7FEFF 		bl	lv_list_set_style
 116:..\..\..\lvgl\version_6.1.2\lvgl\src\lv_objx/lv_list.c ****             lv_list_set_style(new_list, LV_LIST_STYLE_BTN_PR, th->style.list.btn.pr);
 594              		.loc 5 116 0
 595 010a 7B69     		ldr	r3, [r7, #20]
 596 010c D3F83C31 		ldr	r3, [r3, #316]
 597 0110 1A46     		mov	r2, r3
 598 0112 0521     		movs	r1, #5
 599 0114 F869     		ldr	r0, [r7, #28]
 600 0116 FFF7FEFF 		bl	lv_list_set_style
 117:..\..\..\lvgl\version_6.1.2\lvgl\src\lv_objx/lv_list.c ****             lv_list_set_style(new_list, LV_LIST_STYLE_BTN_TGL_REL, th->style.list.btn.tgl_rel);
 601              		.loc 5 117 0
 602 011a 7B69     		ldr	r3, [r7, #20]
 603 011c D3F84031 		ldr	r3, [r3, #320]
 604 0120 1A46     		mov	r2, r3
 605 0122 0621     		movs	r1, #6
 606 0124 F869     		ldr	r0, [r7, #28]
 607 0126 FFF7FEFF 		bl	lv_list_set_style
 118:..\..\..\lvgl\version_6.1.2\lvgl\src\lv_objx/lv_list.c ****             lv_list_set_style(new_list, LV_LIST_STYLE_BTN_TGL_PR, th->style.list.btn.tgl_pr);
 608              		.loc 5 118 0
 609 012a 7B69     		ldr	r3, [r7, #20]
 610 012c D3F84431 		ldr	r3, [r3, #324]
 611 0130 1A46     		mov	r2, r3
 612 0132 0721     		movs	r1, #7
 613 0134 F869     		ldr	r0, [r7, #28]
 614 0136 FFF7FEFF 		bl	lv_list_set_style
 119:..\..\..\lvgl\version_6.1.2\lvgl\src\lv_objx/lv_list.c ****             lv_list_set_style(new_list, LV_LIST_STYLE_BTN_INA, th->style.list.btn.ina);
 615              		.loc 5 119 0
 616 013a 7B69     		ldr	r3, [r7, #20]
 617 013c D3F84831 		ldr	r3, [r3, #328]
 618 0140 1A46     		mov	r2, r3
 619 0142 0821     		movs	r1, #8
 620 0144 F869     		ldr	r0, [r7, #28]
 621 0146 FFF7FEFF 		bl	lv_list_set_style
 622 014a 58E0     		b	.L21
 623              	.L19:
 120:..\..\..\lvgl\version_6.1.2\lvgl\src\lv_objx/lv_list.c ****         } else {
 121:..\..\..\lvgl\version_6.1.2\lvgl\src\lv_objx/lv_list.c ****             lv_list_set_style(new_list, LV_LIST_STYLE_BG, &lv_style_transp_fit);
 624              		.loc 5 121 0
 625 014c 354A     		ldr	r2, .L25+28
 626 014e 0021     		movs	r1, #0
 627 0150 F869     		ldr	r0, [r7, #28]
 628 0152 FFF7FEFF 		bl	lv_list_set_style
 122:..\..\..\lvgl\version_6.1.2\lvgl\src\lv_objx/lv_list.c ****             lv_list_set_style(new_list, LV_LIST_STYLE_SCRL, &lv_style_pretty);
 629              		.loc 5 122 0
 630 0156 344A     		ldr	r2, .L25+32
 631 0158 0121     		movs	r1, #1
 632 015a F869     		ldr	r0, [r7, #28]
 633 015c FFF7FEFF 		bl	lv_list_set_style
 634 0160 4DE0     		b	.L21
 635              	.L18:
 636              	.LBE2:
ARM GAS  C:\Users\tmj32\AppData\Local\Temp\ccUUfkkI.s 			page 31


 637              	.LBB3:
 123:..\..\..\lvgl\version_6.1.2\lvgl\src\lv_objx/lv_list.c ****         }
 124:..\..\..\lvgl\version_6.1.2\lvgl\src\lv_objx/lv_list.c ****     } else {
 125:..\..\..\lvgl\version_6.1.2\lvgl\src\lv_objx/lv_list.c ****         lv_list_ext_t * copy_ext = lv_obj_get_ext_attr(copy);
 638              		.loc 5 125 0
 639 0162 3868     		ldr	r0, [r7]
 640 0164 FFF7FEFF 		bl	lv_obj_get_ext_attr
 641 0168 3861     		str	r0, [r7, #16]
 126:..\..\..\lvgl\version_6.1.2\lvgl\src\lv_objx/lv_list.c **** 
 127:..\..\..\lvgl\version_6.1.2\lvgl\src\lv_objx/lv_list.c ****         lv_obj_t * copy_btn = lv_list_get_next_btn(copy, NULL);
 642              		.loc 5 127 0
 643 016a 0021     		movs	r1, #0
 644 016c 3868     		ldr	r0, [r7]
 645 016e FFF7FEFF 		bl	lv_list_get_next_btn
 646 0172 7862     		str	r0, [r7, #36]
 128:..\..\..\lvgl\version_6.1.2\lvgl\src\lv_objx/lv_list.c ****         while(copy_btn) {
 647              		.loc 5 128 0
 648 0174 1AE0     		b	.L22
 649              	.L24:
 650              	.LBB4:
 129:..\..\..\lvgl\version_6.1.2\lvgl\src\lv_objx/lv_list.c ****             const void * img_src = NULL;
 651              		.loc 5 129 0
 652 0176 0023     		movs	r3, #0
 653 0178 3B62     		str	r3, [r7, #32]
 130:..\..\..\lvgl\version_6.1.2\lvgl\src\lv_objx/lv_list.c **** #if LV_USE_IMG
 131:..\..\..\lvgl\version_6.1.2\lvgl\src\lv_objx/lv_list.c ****             lv_obj_t * copy_img = lv_list_get_btn_img(copy_btn);
 654              		.loc 5 131 0
 655 017a 786A     		ldr	r0, [r7, #36]
 656 017c FFF7FEFF 		bl	lv_list_get_btn_img
 657 0180 F860     		str	r0, [r7, #12]
 132:..\..\..\lvgl\version_6.1.2\lvgl\src\lv_objx/lv_list.c ****             if(copy_img) img_src = lv_img_get_src(copy_img);
 658              		.loc 5 132 0
 659 0182 FB68     		ldr	r3, [r7, #12]
 660 0184 002B     		cmp	r3, #0
 661 0186 03D0     		beq	.L23
 662              		.loc 5 132 0 is_stmt 0 discriminator 1
 663 0188 F868     		ldr	r0, [r7, #12]
 664 018a FFF7FEFF 		bl	lv_img_get_src
 665 018e 3862     		str	r0, [r7, #32]
 666              	.L23:
 133:..\..\..\lvgl\version_6.1.2\lvgl\src\lv_objx/lv_list.c **** #endif
 134:..\..\..\lvgl\version_6.1.2\lvgl\src\lv_objx/lv_list.c ****             lv_list_add_btn(new_list, img_src, lv_list_get_btn_text(copy_btn));
 667              		.loc 5 134 0 is_stmt 1
 668 0190 786A     		ldr	r0, [r7, #36]
 669 0192 FFF7FEFF 		bl	lv_list_get_btn_text
 670 0196 0346     		mov	r3, r0
 671 0198 1A46     		mov	r2, r3
 672 019a 396A     		ldr	r1, [r7, #32]
 673 019c F869     		ldr	r0, [r7, #28]
 674 019e FFF7FEFF 		bl	lv_list_add_btn
 135:..\..\..\lvgl\version_6.1.2\lvgl\src\lv_objx/lv_list.c ****             copy_btn = lv_list_get_next_btn(copy, copy_btn);
 675              		.loc 5 135 0
 676 01a2 796A     		ldr	r1, [r7, #36]
 677 01a4 3868     		ldr	r0, [r7]
 678 01a6 FFF7FEFF 		bl	lv_list_get_next_btn
 679 01aa 7862     		str	r0, [r7, #36]
 680              	.L22:
ARM GAS  C:\Users\tmj32\AppData\Local\Temp\ccUUfkkI.s 			page 32


 681              	.LBE4:
 128:..\..\..\lvgl\version_6.1.2\lvgl\src\lv_objx/lv_list.c ****             const void * img_src = NULL;
 682              		.loc 5 128 0
 683 01ac 7B6A     		ldr	r3, [r7, #36]
 684 01ae 002B     		cmp	r3, #0
 685 01b0 E1D1     		bne	.L24
 136:..\..\..\lvgl\version_6.1.2\lvgl\src\lv_objx/lv_list.c ****         }
 137:..\..\..\lvgl\version_6.1.2\lvgl\src\lv_objx/lv_list.c **** 
 138:..\..\..\lvgl\version_6.1.2\lvgl\src\lv_objx/lv_list.c ****         lv_list_set_style(new_list, LV_LIST_STYLE_BTN_REL, copy_ext->styles_btn[LV_BTN_STATE_REL]);
 686              		.loc 5 138 0
 687 01b2 3B69     		ldr	r3, [r7, #16]
 688 01b4 1B6B     		ldr	r3, [r3, #48]
 689 01b6 1A46     		mov	r2, r3
 690 01b8 0421     		movs	r1, #4
 691 01ba F869     		ldr	r0, [r7, #28]
 692 01bc FFF7FEFF 		bl	lv_list_set_style
 139:..\..\..\lvgl\version_6.1.2\lvgl\src\lv_objx/lv_list.c ****         lv_list_set_style(new_list, LV_LIST_STYLE_BTN_PR, copy_ext->styles_btn[LV_BTN_STATE_PR]);
 693              		.loc 5 139 0
 694 01c0 3B69     		ldr	r3, [r7, #16]
 695 01c2 5B6B     		ldr	r3, [r3, #52]
 696 01c4 1A46     		mov	r2, r3
 697 01c6 0521     		movs	r1, #5
 698 01c8 F869     		ldr	r0, [r7, #28]
 699 01ca FFF7FEFF 		bl	lv_list_set_style
 140:..\..\..\lvgl\version_6.1.2\lvgl\src\lv_objx/lv_list.c ****         lv_list_set_style(new_list, LV_LIST_STYLE_BTN_TGL_REL, copy_ext->styles_btn[LV_BTN_STATE_TG
 700              		.loc 5 140 0
 701 01ce 3B69     		ldr	r3, [r7, #16]
 702 01d0 9B6B     		ldr	r3, [r3, #56]
 703 01d2 1A46     		mov	r2, r3
 704 01d4 0621     		movs	r1, #6
 705 01d6 F869     		ldr	r0, [r7, #28]
 706 01d8 FFF7FEFF 		bl	lv_list_set_style
 141:..\..\..\lvgl\version_6.1.2\lvgl\src\lv_objx/lv_list.c ****         lv_list_set_style(new_list, LV_LIST_STYLE_BTN_TGL_PR, copy_ext->styles_btn[LV_BTN_STATE_TGL
 707              		.loc 5 141 0
 708 01dc 3B69     		ldr	r3, [r7, #16]
 709 01de 9B6B     		ldr	r3, [r3, #56]
 710 01e0 1A46     		mov	r2, r3
 711 01e2 0721     		movs	r1, #7
 712 01e4 F869     		ldr	r0, [r7, #28]
 713 01e6 FFF7FEFF 		bl	lv_list_set_style
 142:..\..\..\lvgl\version_6.1.2\lvgl\src\lv_objx/lv_list.c ****         lv_list_set_style(new_list, LV_LIST_STYLE_BTN_INA, copy_ext->styles_btn[LV_BTN_STATE_INA]);
 714              		.loc 5 142 0
 715 01ea 3B69     		ldr	r3, [r7, #16]
 716 01ec 1B6C     		ldr	r3, [r3, #64]
 717 01ee 1A46     		mov	r2, r3
 718 01f0 0821     		movs	r1, #8
 719 01f2 F869     		ldr	r0, [r7, #28]
 720 01f4 FFF7FEFF 		bl	lv_list_set_style
 143:..\..\..\lvgl\version_6.1.2\lvgl\src\lv_objx/lv_list.c **** 
 144:..\..\..\lvgl\version_6.1.2\lvgl\src\lv_objx/lv_list.c ****         /*Refresh the style with new signal function*/
 145:..\..\..\lvgl\version_6.1.2\lvgl\src\lv_objx/lv_list.c ****         lv_obj_refresh_style(new_list);
 721              		.loc 5 145 0
 722 01f8 F869     		ldr	r0, [r7, #28]
 723 01fa FFF7FEFF 		bl	lv_obj_refresh_style
 724              	.L21:
 725              	.LBE3:
 146:..\..\..\lvgl\version_6.1.2\lvgl\src\lv_objx/lv_list.c ****     }
ARM GAS  C:\Users\tmj32\AppData\Local\Temp\ccUUfkkI.s 			page 33


 147:..\..\..\lvgl\version_6.1.2\lvgl\src\lv_objx/lv_list.c **** 
 148:..\..\..\lvgl\version_6.1.2\lvgl\src\lv_objx/lv_list.c ****     LV_LOG_INFO("list created");
 149:..\..\..\lvgl\version_6.1.2\lvgl\src\lv_objx/lv_list.c **** 
 150:..\..\..\lvgl\version_6.1.2\lvgl\src\lv_objx/lv_list.c ****     return new_list;
 726              		.loc 5 150 0
 727 01fe FB69     		ldr	r3, [r7, #28]
 728              	.L15:
 151:..\..\..\lvgl\version_6.1.2\lvgl\src\lv_objx/lv_list.c **** }
 729              		.loc 5 151 0
 730 0200 1846     		mov	r0, r3
 731 0202 2837     		adds	r7, r7, #40
 732              		.cfi_def_cfa_offset 8
 733 0204 BD46     		mov	sp, r7
 734              		.cfi_def_cfa_register 13
 735              		@ sp needed
 736 0206 80BD     		pop	{r7, pc}
 737              	.L26:
 738              		.align	2
 739              	.L25:
 740 0208 08000000 		.word	ancestor_page_signal
 741 020c 00000000 		.word	lv_style_btn_rel
 742 0210 00000000 		.word	lv_style_btn_pr
 743 0214 00000000 		.word	lv_style_btn_tgl_rel
 744 0218 00000000 		.word	lv_style_btn_tgl_pr
 745 021c 00000000 		.word	lv_style_btn_ina
 746 0220 00000000 		.word	lv_list_signal
 747 0224 00000000 		.word	lv_style_transp_fit
 748 0228 00000000 		.word	lv_style_pretty
 749              		.cfi_endproc
 750              	.LFE69:
 751              		.size	lv_list_create, .-lv_list_create
 752              		.section	.text.lv_list_clean,"ax",%progbits
 753              		.align	2
 754              		.global	lv_list_clean
 755              		.thumb
 756              		.thumb_func
 757              		.type	lv_list_clean, %function
 758              	lv_list_clean:
 759              	.LFB70:
 152:..\..\..\lvgl\version_6.1.2\lvgl\src\lv_objx/lv_list.c **** 
 153:..\..\..\lvgl\version_6.1.2\lvgl\src\lv_objx/lv_list.c **** /**
 154:..\..\..\lvgl\version_6.1.2\lvgl\src\lv_objx/lv_list.c ****  * Delete all children of the scrl object, without deleting scrl child.
 155:..\..\..\lvgl\version_6.1.2\lvgl\src\lv_objx/lv_list.c ****  * @param list pointer to an object
 156:..\..\..\lvgl\version_6.1.2\lvgl\src\lv_objx/lv_list.c ****  */
 157:..\..\..\lvgl\version_6.1.2\lvgl\src\lv_objx/lv_list.c **** void lv_list_clean(lv_obj_t * list)
 158:..\..\..\lvgl\version_6.1.2\lvgl\src\lv_objx/lv_list.c **** {
 760              		.loc 5 158 0
 761              		.cfi_startproc
 762              		@ args = 0, pretend = 0, frame = 16
 763              		@ frame_needed = 1, uses_anonymous_args = 0
 764 0000 80B5     		push	{r7, lr}
 765              		.cfi_def_cfa_offset 8
 766              		.cfi_offset 7, -8
 767              		.cfi_offset 14, -4
 768 0002 84B0     		sub	sp, sp, #16
 769              		.cfi_def_cfa_offset 24
 770 0004 00AF     		add	r7, sp, #0
ARM GAS  C:\Users\tmj32\AppData\Local\Temp\ccUUfkkI.s 			page 34


 771              		.cfi_def_cfa_register 7
 772 0006 7860     		str	r0, [r7, #4]
 159:..\..\..\lvgl\version_6.1.2\lvgl\src\lv_objx/lv_list.c ****     LV_ASSERT_OBJ(list, LV_OBJX_NAME);
 160:..\..\..\lvgl\version_6.1.2\lvgl\src\lv_objx/lv_list.c **** 
 161:..\..\..\lvgl\version_6.1.2\lvgl\src\lv_objx/lv_list.c ****     lv_obj_t * scrl = lv_page_get_scrl(list);
 773              		.loc 5 161 0
 774 0008 7868     		ldr	r0, [r7, #4]
 775 000a FFF7FEFF 		bl	lv_page_get_scrl
 776 000e F860     		str	r0, [r7, #12]
 162:..\..\..\lvgl\version_6.1.2\lvgl\src\lv_objx/lv_list.c ****     lv_obj_clean(scrl);
 777              		.loc 5 162 0
 778 0010 F868     		ldr	r0, [r7, #12]
 779 0012 FFF7FEFF 		bl	lv_obj_clean
 163:..\..\..\lvgl\version_6.1.2\lvgl\src\lv_objx/lv_list.c ****     lv_list_ext_t * ext = lv_obj_get_ext_attr(list);
 780              		.loc 5 163 0
 781 0016 7868     		ldr	r0, [r7, #4]
 782 0018 FFF7FEFF 		bl	lv_obj_get_ext_attr
 783 001c B860     		str	r0, [r7, #8]
 164:..\..\..\lvgl\version_6.1.2\lvgl\src\lv_objx/lv_list.c ****     ext->size           = 0;
 784              		.loc 5 164 0
 785 001e BB68     		ldr	r3, [r7, #8]
 786 0020 0022     		movs	r2, #0
 787 0022 A3F84820 		strh	r2, [r3, #72]	@ movhi
 165:..\..\..\lvgl\version_6.1.2\lvgl\src\lv_objx/lv_list.c **** }
 788              		.loc 5 165 0
 789 0026 00BF     		nop
 790 0028 1037     		adds	r7, r7, #16
 791              		.cfi_def_cfa_offset 8
 792 002a BD46     		mov	sp, r7
 793              		.cfi_def_cfa_register 13
 794              		@ sp needed
 795 002c 80BD     		pop	{r7, pc}
 796              		.cfi_endproc
 797              	.LFE70:
 798              		.size	lv_list_clean, .-lv_list_clean
 799 002e 00BF     		.section	.text.lv_list_add_btn,"ax",%progbits
 800              		.align	2
 801              		.global	lv_list_add_btn
 802              		.thumb
 803              		.thumb_func
 804              		.type	lv_list_add_btn, %function
 805              	lv_list_add_btn:
 806              	.LFB71:
 166:..\..\..\lvgl\version_6.1.2\lvgl\src\lv_objx/lv_list.c **** 
 167:..\..\..\lvgl\version_6.1.2\lvgl\src\lv_objx/lv_list.c **** /*======================
 168:..\..\..\lvgl\version_6.1.2\lvgl\src\lv_objx/lv_list.c ****  * Add/remove functions
 169:..\..\..\lvgl\version_6.1.2\lvgl\src\lv_objx/lv_list.c ****  *=====================*/
 170:..\..\..\lvgl\version_6.1.2\lvgl\src\lv_objx/lv_list.c **** 
 171:..\..\..\lvgl\version_6.1.2\lvgl\src\lv_objx/lv_list.c **** /**
 172:..\..\..\lvgl\version_6.1.2\lvgl\src\lv_objx/lv_list.c ****  * Add a list element to the list
 173:..\..\..\lvgl\version_6.1.2\lvgl\src\lv_objx/lv_list.c ****  * @param list pointer to list object
 174:..\..\..\lvgl\version_6.1.2\lvgl\src\lv_objx/lv_list.c ****  * @param img_fn file name of an image before the text (NULL if unused)
 175:..\..\..\lvgl\version_6.1.2\lvgl\src\lv_objx/lv_list.c ****  * @param txt text of the list element (NULL if unused)
 176:..\..\..\lvgl\version_6.1.2\lvgl\src\lv_objx/lv_list.c ****  * @return pointer to the new list element which can be customized (a button)
 177:..\..\..\lvgl\version_6.1.2\lvgl\src\lv_objx/lv_list.c ****  */
 178:..\..\..\lvgl\version_6.1.2\lvgl\src\lv_objx/lv_list.c **** lv_obj_t * lv_list_add_btn(lv_obj_t * list, const void * img_src, const char * txt)
 179:..\..\..\lvgl\version_6.1.2\lvgl\src\lv_objx/lv_list.c **** {
ARM GAS  C:\Users\tmj32\AppData\Local\Temp\ccUUfkkI.s 			page 35


 807              		.loc 5 179 0
 808              		.cfi_startproc
 809              		@ args = 0, pretend = 0, frame = 56
 810              		@ frame_needed = 1, uses_anonymous_args = 0
 811 0000 80B5     		push	{r7, lr}
 812              		.cfi_def_cfa_offset 8
 813              		.cfi_offset 7, -8
 814              		.cfi_offset 14, -4
 815 0002 8EB0     		sub	sp, sp, #56
 816              		.cfi_def_cfa_offset 64
 817 0004 00AF     		add	r7, sp, #0
 818              		.cfi_def_cfa_register 7
 819 0006 F860     		str	r0, [r7, #12]
 820 0008 B960     		str	r1, [r7, #8]
 821 000a 7A60     		str	r2, [r7, #4]
 180:..\..\..\lvgl\version_6.1.2\lvgl\src\lv_objx/lv_list.c ****     LV_ASSERT_OBJ(list, LV_OBJX_NAME);
 181:..\..\..\lvgl\version_6.1.2\lvgl\src\lv_objx/lv_list.c **** 
 182:..\..\..\lvgl\version_6.1.2\lvgl\src\lv_objx/lv_list.c ****     lv_obj_t * last_btn = lv_list_get_prev_btn(list, NULL);
 822              		.loc 5 182 0
 823 000c 0021     		movs	r1, #0
 824 000e F868     		ldr	r0, [r7, #12]
 825 0010 FFF7FEFF 		bl	lv_list_get_prev_btn
 826 0014 3863     		str	r0, [r7, #48]
 183:..\..\..\lvgl\version_6.1.2\lvgl\src\lv_objx/lv_list.c **** 
 184:..\..\..\lvgl\version_6.1.2\lvgl\src\lv_objx/lv_list.c ****     /*The coordinates may changed due to autofit so revert them at the end*/
 185:..\..\..\lvgl\version_6.1.2\lvgl\src\lv_objx/lv_list.c ****     lv_coord_t pos_x_ori = lv_obj_get_x(list);
 827              		.loc 5 185 0
 828 0016 F868     		ldr	r0, [r7, #12]
 829 0018 FFF7FEFF 		bl	lv_obj_get_x
 830 001c 0346     		mov	r3, r0
 831 001e FB85     		strh	r3, [r7, #46]	@ movhi
 186:..\..\..\lvgl\version_6.1.2\lvgl\src\lv_objx/lv_list.c ****     lv_coord_t pos_y_ori = lv_obj_get_y(list);
 832              		.loc 5 186 0
 833 0020 F868     		ldr	r0, [r7, #12]
 834 0022 FFF7FEFF 		bl	lv_obj_get_y
 835 0026 0346     		mov	r3, r0
 836 0028 BB85     		strh	r3, [r7, #44]	@ movhi
 187:..\..\..\lvgl\version_6.1.2\lvgl\src\lv_objx/lv_list.c **** 
 188:..\..\..\lvgl\version_6.1.2\lvgl\src\lv_objx/lv_list.c **** 
 189:..\..\..\lvgl\version_6.1.2\lvgl\src\lv_objx/lv_list.c ****     lv_list_ext_t * ext = lv_obj_get_ext_attr(list);
 837              		.loc 5 189 0
 838 002a F868     		ldr	r0, [r7, #12]
 839 002c FFF7FEFF 		bl	lv_obj_get_ext_attr
 840 0030 B862     		str	r0, [r7, #40]
 190:..\..\..\lvgl\version_6.1.2\lvgl\src\lv_objx/lv_list.c ****     ext->size++;
 841              		.loc 5 190 0
 842 0032 BB6A     		ldr	r3, [r7, #40]
 843 0034 B3F84830 		ldrh	r3, [r3, #72]
 844 0038 0133     		adds	r3, r3, #1
 845 003a 9AB2     		uxth	r2, r3
 846 003c BB6A     		ldr	r3, [r7, #40]
 847 003e A3F84820 		strh	r2, [r3, #72]	@ movhi
 191:..\..\..\lvgl\version_6.1.2\lvgl\src\lv_objx/lv_list.c ****     /*Create a list element with the image an the text*/
 192:..\..\..\lvgl\version_6.1.2\lvgl\src\lv_objx/lv_list.c ****     lv_obj_t * liste;
 193:..\..\..\lvgl\version_6.1.2\lvgl\src\lv_objx/lv_list.c ****     liste = lv_btn_create(list, NULL);
 848              		.loc 5 193 0
 849 0042 0021     		movs	r1, #0
ARM GAS  C:\Users\tmj32\AppData\Local\Temp\ccUUfkkI.s 			page 36


 850 0044 F868     		ldr	r0, [r7, #12]
 851 0046 FFF7FEFF 		bl	lv_btn_create
 852 004a 7862     		str	r0, [r7, #36]
 194:..\..\..\lvgl\version_6.1.2\lvgl\src\lv_objx/lv_list.c **** 
 195:..\..\..\lvgl\version_6.1.2\lvgl\src\lv_objx/lv_list.c ****     /*Save the original signal function because it will be required in `lv_list_btn_signal`*/
 196:..\..\..\lvgl\version_6.1.2\lvgl\src\lv_objx/lv_list.c ****     if(ancestor_btn_signal == NULL) ancestor_btn_signal = lv_obj_get_signal_cb(liste);
 853              		.loc 5 196 0
 854 004c 7C4B     		ldr	r3, .L41
 855 004e 1B68     		ldr	r3, [r3]
 856 0050 002B     		cmp	r3, #0
 857 0052 05D1     		bne	.L29
 858              		.loc 5 196 0 is_stmt 0 discriminator 1
 859 0054 786A     		ldr	r0, [r7, #36]
 860 0056 FFF7FEFF 		bl	lv_obj_get_signal_cb
 861 005a 0246     		mov	r2, r0
 862 005c 784B     		ldr	r3, .L41
 863 005e 1A60     		str	r2, [r3]
 864              	.L29:
 197:..\..\..\lvgl\version_6.1.2\lvgl\src\lv_objx/lv_list.c **** 
 198:..\..\..\lvgl\version_6.1.2\lvgl\src\lv_objx/lv_list.c ****     /*Set the default styles*/
 199:..\..\..\lvgl\version_6.1.2\lvgl\src\lv_objx/lv_list.c ****     lv_btn_set_style(liste, LV_BTN_STYLE_REL, ext->styles_btn[LV_BTN_STATE_REL]);
 865              		.loc 5 199 0 is_stmt 1
 866 0060 BB6A     		ldr	r3, [r7, #40]
 867 0062 1B6B     		ldr	r3, [r3, #48]
 868 0064 1A46     		mov	r2, r3
 869 0066 0021     		movs	r1, #0
 870 0068 786A     		ldr	r0, [r7, #36]
 871 006a FFF7FEFF 		bl	lv_btn_set_style
 200:..\..\..\lvgl\version_6.1.2\lvgl\src\lv_objx/lv_list.c ****     lv_btn_set_style(liste, LV_BTN_STYLE_PR, ext->styles_btn[LV_BTN_STATE_PR]);
 872              		.loc 5 200 0
 873 006e BB6A     		ldr	r3, [r7, #40]
 874 0070 5B6B     		ldr	r3, [r3, #52]
 875 0072 1A46     		mov	r2, r3
 876 0074 0121     		movs	r1, #1
 877 0076 786A     		ldr	r0, [r7, #36]
 878 0078 FFF7FEFF 		bl	lv_btn_set_style
 201:..\..\..\lvgl\version_6.1.2\lvgl\src\lv_objx/lv_list.c ****     lv_btn_set_style(liste, LV_BTN_STYLE_TGL_REL, ext->styles_btn[LV_BTN_STATE_TGL_REL]);
 879              		.loc 5 201 0
 880 007c BB6A     		ldr	r3, [r7, #40]
 881 007e 9B6B     		ldr	r3, [r3, #56]
 882 0080 1A46     		mov	r2, r3
 883 0082 0221     		movs	r1, #2
 884 0084 786A     		ldr	r0, [r7, #36]
 885 0086 FFF7FEFF 		bl	lv_btn_set_style
 202:..\..\..\lvgl\version_6.1.2\lvgl\src\lv_objx/lv_list.c ****     lv_btn_set_style(liste, LV_BTN_STYLE_TGL_PR, ext->styles_btn[LV_BTN_STATE_TGL_PR]);
 886              		.loc 5 202 0
 887 008a BB6A     		ldr	r3, [r7, #40]
 888 008c DB6B     		ldr	r3, [r3, #60]
 889 008e 1A46     		mov	r2, r3
 890 0090 0321     		movs	r1, #3
 891 0092 786A     		ldr	r0, [r7, #36]
 892 0094 FFF7FEFF 		bl	lv_btn_set_style
 203:..\..\..\lvgl\version_6.1.2\lvgl\src\lv_objx/lv_list.c ****     lv_btn_set_style(liste, LV_BTN_STYLE_INA, ext->styles_btn[LV_BTN_STATE_INA]);
 893              		.loc 5 203 0
 894 0098 BB6A     		ldr	r3, [r7, #40]
 895 009a 1B6C     		ldr	r3, [r3, #64]
 896 009c 1A46     		mov	r2, r3
ARM GAS  C:\Users\tmj32\AppData\Local\Temp\ccUUfkkI.s 			page 37


 897 009e 0421     		movs	r1, #4
 898 00a0 786A     		ldr	r0, [r7, #36]
 899 00a2 FFF7FEFF 		bl	lv_btn_set_style
 204:..\..\..\lvgl\version_6.1.2\lvgl\src\lv_objx/lv_list.c **** 
 205:..\..\..\lvgl\version_6.1.2\lvgl\src\lv_objx/lv_list.c ****     lv_page_glue_obj(liste, true);
 900              		.loc 5 205 0
 901 00a6 0121     		movs	r1, #1
 902 00a8 786A     		ldr	r0, [r7, #36]
 903 00aa FFF7FEFF 		bl	lv_page_glue_obj
 206:..\..\..\lvgl\version_6.1.2\lvgl\src\lv_objx/lv_list.c ****     lv_btn_set_layout(liste, LV_LAYOUT_ROW_M);
 904              		.loc 5 206 0
 905 00ae 0621     		movs	r1, #6
 906 00b0 786A     		ldr	r0, [r7, #36]
 907 00b2 FFF7FEFF 		bl	lv_btn_set_layout
 207:..\..\..\lvgl\version_6.1.2\lvgl\src\lv_objx/lv_list.c **** 
 208:..\..\..\lvgl\version_6.1.2\lvgl\src\lv_objx/lv_list.c ****     lv_layout_t list_layout = lv_list_get_layout(list);
 908              		.loc 5 208 0
 909 00b6 F868     		ldr	r0, [r7, #12]
 910 00b8 FFF7FEFF 		bl	lv_list_get_layout
 911 00bc 0346     		mov	r3, r0
 912 00be 87F82330 		strb	r3, [r7, #35]
 209:..\..\..\lvgl\version_6.1.2\lvgl\src\lv_objx/lv_list.c ****     bool layout_ver = false;
 913              		.loc 5 209 0
 914 00c2 0023     		movs	r3, #0
 915 00c4 87F83730 		strb	r3, [r7, #55]
 210:..\..\..\lvgl\version_6.1.2\lvgl\src\lv_objx/lv_list.c ****     if(list_layout == LV_LAYOUT_COL_M || list_layout == LV_LAYOUT_COL_L || list_layout == LV_LAYOUT
 916              		.loc 5 210 0
 917 00c8 97F82330 		ldrb	r3, [r7, #35]	@ zero_extendqisi2
 918 00cc 032B     		cmp	r3, #3
 919 00ce 07D0     		beq	.L30
 920              		.loc 5 210 0 is_stmt 0 discriminator 1
 921 00d0 97F82330 		ldrb	r3, [r7, #35]	@ zero_extendqisi2
 922 00d4 022B     		cmp	r3, #2
 923 00d6 03D0     		beq	.L30
 924              		.loc 5 210 0 discriminator 2
 925 00d8 97F82330 		ldrb	r3, [r7, #35]	@ zero_extendqisi2
 926 00dc 042B     		cmp	r3, #4
 927 00de 02D1     		bne	.L31
 928              	.L30:
 211:..\..\..\lvgl\version_6.1.2\lvgl\src\lv_objx/lv_list.c ****            layout_ver = true;
 929              		.loc 5 211 0 is_stmt 1
 930 00e0 0123     		movs	r3, #1
 931 00e2 87F83730 		strb	r3, [r7, #55]
 932              	.L31:
 212:..\..\..\lvgl\version_6.1.2\lvgl\src\lv_objx/lv_list.c ****     }
 213:..\..\..\lvgl\version_6.1.2\lvgl\src\lv_objx/lv_list.c **** 
 214:..\..\..\lvgl\version_6.1.2\lvgl\src\lv_objx/lv_list.c ****     if(layout_ver) {
 933              		.loc 5 214 0
 934 00e6 97F83730 		ldrb	r3, [r7, #55]	@ zero_extendqisi2
 935 00ea 002B     		cmp	r3, #0
 936 00ec 05D0     		beq	.L32
 215:..\..\..\lvgl\version_6.1.2\lvgl\src\lv_objx/lv_list.c ****         lv_btn_set_fit2(liste, LV_FIT_FLOOD, LV_FIT_TIGHT);
 937              		.loc 5 215 0
 938 00ee 0122     		movs	r2, #1
 939 00f0 0221     		movs	r1, #2
 940 00f2 786A     		ldr	r0, [r7, #36]
 941 00f4 FFF7FEFF 		bl	lv_btn_set_fit2
ARM GAS  C:\Users\tmj32\AppData\Local\Temp\ccUUfkkI.s 			page 38


 942 00f8 14E0     		b	.L33
 943              	.L32:
 944              	.LBB5:
 216:..\..\..\lvgl\version_6.1.2\lvgl\src\lv_objx/lv_list.c ****     } else {
 217:..\..\..\lvgl\version_6.1.2\lvgl\src\lv_objx/lv_list.c ****         lv_coord_t w = last_btn ? lv_obj_get_width(last_btn) : (LV_DPI * 3) / 2;
 945              		.loc 5 217 0
 946 00fa 3B6B     		ldr	r3, [r7, #48]
 947 00fc 002B     		cmp	r3, #0
 948 00fe 04D0     		beq	.L34
 949              		.loc 5 217 0 is_stmt 0 discriminator 1
 950 0100 386B     		ldr	r0, [r7, #48]
 951 0102 FFF7FEFF 		bl	lv_obj_get_width
 952 0106 0346     		mov	r3, r0
 953 0108 00E0     		b	.L35
 954              	.L34:
 955              		.loc 5 217 0 discriminator 2
 956 010a E123     		movs	r3, #225
 957              	.L35:
 958              		.loc 5 217 0 discriminator 4
 959 010c 3B84     		strh	r3, [r7, #32]	@ movhi
 218:..\..\..\lvgl\version_6.1.2\lvgl\src\lv_objx/lv_list.c ****         lv_btn_set_fit2(liste, LV_FIT_NONE, LV_FIT_TIGHT);
 960              		.loc 5 218 0 is_stmt 1 discriminator 4
 961 010e 0122     		movs	r2, #1
 962 0110 0021     		movs	r1, #0
 963 0112 786A     		ldr	r0, [r7, #36]
 964 0114 FFF7FEFF 		bl	lv_btn_set_fit2
 219:..\..\..\lvgl\version_6.1.2\lvgl\src\lv_objx/lv_list.c ****         lv_obj_set_width(liste, w);
 965              		.loc 5 219 0 discriminator 4
 966 0118 B7F92030 		ldrsh	r3, [r7, #32]
 967 011c 1946     		mov	r1, r3
 968 011e 786A     		ldr	r0, [r7, #36]
 969 0120 FFF7FEFF 		bl	lv_obj_set_width
 970              	.L33:
 971              	.LBE5:
 220:..\..\..\lvgl\version_6.1.2\lvgl\src\lv_objx/lv_list.c ****     }
 221:..\..\..\lvgl\version_6.1.2\lvgl\src\lv_objx/lv_list.c **** 
 222:..\..\..\lvgl\version_6.1.2\lvgl\src\lv_objx/lv_list.c **** 
 223:..\..\..\lvgl\version_6.1.2\lvgl\src\lv_objx/lv_list.c ****     lv_obj_set_protect(liste, LV_PROTECT_PRESS_LOST);
 972              		.loc 5 223 0
 973 0124 1021     		movs	r1, #16
 974 0126 786A     		ldr	r0, [r7, #36]
 975 0128 FFF7FEFF 		bl	lv_obj_set_protect
 224:..\..\..\lvgl\version_6.1.2\lvgl\src\lv_objx/lv_list.c ****     lv_obj_set_signal_cb(liste, lv_list_btn_signal);
 976              		.loc 5 224 0
 977 012c 4549     		ldr	r1, .L41+4
 978 012e 786A     		ldr	r0, [r7, #36]
 979 0130 FFF7FEFF 		bl	lv_obj_set_signal_cb
 225:..\..\..\lvgl\version_6.1.2\lvgl\src\lv_objx/lv_list.c **** 
 226:..\..\..\lvgl\version_6.1.2\lvgl\src\lv_objx/lv_list.c **** #if LV_USE_IMG != 0
 227:..\..\..\lvgl\version_6.1.2\lvgl\src\lv_objx/lv_list.c ****     lv_obj_t * img = NULL;
 980              		.loc 5 227 0
 981 0134 0023     		movs	r3, #0
 982 0136 FB61     		str	r3, [r7, #28]
 228:..\..\..\lvgl\version_6.1.2\lvgl\src\lv_objx/lv_list.c ****     if(img_src) {
 983              		.loc 5 228 0
 984 0138 BB68     		ldr	r3, [r7, #8]
 985 013a 002B     		cmp	r3, #0
ARM GAS  C:\Users\tmj32\AppData\Local\Temp\ccUUfkkI.s 			page 39


 986 013c 1CD0     		beq	.L36
 229:..\..\..\lvgl\version_6.1.2\lvgl\src\lv_objx/lv_list.c ****         img = lv_img_create(liste, NULL);
 987              		.loc 5 229 0
 988 013e 0021     		movs	r1, #0
 989 0140 786A     		ldr	r0, [r7, #36]
 990 0142 FFF7FEFF 		bl	lv_img_create
 991 0146 F861     		str	r0, [r7, #28]
 230:..\..\..\lvgl\version_6.1.2\lvgl\src\lv_objx/lv_list.c ****         lv_img_set_src(img, img_src);
 992              		.loc 5 230 0
 993 0148 B968     		ldr	r1, [r7, #8]
 994 014a F869     		ldr	r0, [r7, #28]
 995 014c FFF7FEFF 		bl	lv_img_set_src
 231:..\..\..\lvgl\version_6.1.2\lvgl\src\lv_objx/lv_list.c ****         lv_obj_set_style(img, ext->style_img);
 996              		.loc 5 231 0
 997 0150 BB6A     		ldr	r3, [r7, #40]
 998 0152 5B6C     		ldr	r3, [r3, #68]
 999 0154 1946     		mov	r1, r3
 1000 0156 F869     		ldr	r0, [r7, #28]
 1001 0158 FFF7FEFF 		bl	lv_obj_set_style
 232:..\..\..\lvgl\version_6.1.2\lvgl\src\lv_objx/lv_list.c ****         lv_obj_set_click(img, false);
 1002              		.loc 5 232 0
 1003 015c 0021     		movs	r1, #0
 1004 015e F869     		ldr	r0, [r7, #28]
 1005 0160 FFF7FEFF 		bl	lv_obj_set_click
 233:..\..\..\lvgl\version_6.1.2\lvgl\src\lv_objx/lv_list.c ****         if(img_signal == NULL) img_signal = lv_obj_get_signal_cb(img);
 1006              		.loc 5 233 0
 1007 0164 384B     		ldr	r3, .L41+8
 1008 0166 1B68     		ldr	r3, [r3]
 1009 0168 002B     		cmp	r3, #0
 1010 016a 05D1     		bne	.L36
 1011              		.loc 5 233 0 is_stmt 0 discriminator 1
 1012 016c F869     		ldr	r0, [r7, #28]
 1013 016e FFF7FEFF 		bl	lv_obj_get_signal_cb
 1014 0172 0246     		mov	r2, r0
 1015 0174 344B     		ldr	r3, .L41+8
 1016 0176 1A60     		str	r2, [r3]
 1017              	.L36:
 234:..\..\..\lvgl\version_6.1.2\lvgl\src\lv_objx/lv_list.c ****     }
 235:..\..\..\lvgl\version_6.1.2\lvgl\src\lv_objx/lv_list.c **** #endif
 236:..\..\..\lvgl\version_6.1.2\lvgl\src\lv_objx/lv_list.c ****     if(txt != NULL) {
 1018              		.loc 5 236 0 is_stmt 1
 1019 0178 7B68     		ldr	r3, [r7, #4]
 1020 017a 002B     		cmp	r3, #0
 1021 017c 52D0     		beq	.L37
 1022              	.LBB6:
 237:..\..\..\lvgl\version_6.1.2\lvgl\src\lv_objx/lv_list.c ****         lv_coord_t btn_hor_pad = ext->styles_btn[LV_BTN_STYLE_REL]->body.padding.left -
 1023              		.loc 5 237 0
 1024 017e BB6A     		ldr	r3, [r7, #40]
 1025 0180 1B6B     		ldr	r3, [r3, #48]
 1026 0182 B3F92430 		ldrsh	r3, [r3, #36]
 1027 0186 9AB2     		uxth	r2, r3
 238:..\..\..\lvgl\version_6.1.2\lvgl\src\lv_objx/lv_list.c ****                                  ext->styles_btn[LV_BTN_STYLE_REL]->body.padding.right;
 1028              		.loc 5 238 0
 1029 0188 BB6A     		ldr	r3, [r7, #40]
 1030 018a 1B6B     		ldr	r3, [r3, #48]
 1031 018c B3F92630 		ldrsh	r3, [r3, #38]
 237:..\..\..\lvgl\version_6.1.2\lvgl\src\lv_objx/lv_list.c ****         lv_coord_t btn_hor_pad = ext->styles_btn[LV_BTN_STYLE_REL]->body.padding.left -
ARM GAS  C:\Users\tmj32\AppData\Local\Temp\ccUUfkkI.s 			page 40


 1032              		.loc 5 237 0
 1033 0190 9BB2     		uxth	r3, r3
 1034 0192 D31A     		subs	r3, r2, r3
 1035 0194 9BB2     		uxth	r3, r3
 1036 0196 7B83     		strh	r3, [r7, #26]	@ movhi
 239:..\..\..\lvgl\version_6.1.2\lvgl\src\lv_objx/lv_list.c ****         lv_obj_t * label = lv_label_create(liste, NULL);
 1037              		.loc 5 239 0
 1038 0198 0021     		movs	r1, #0
 1039 019a 786A     		ldr	r0, [r7, #36]
 1040 019c FFF7FEFF 		bl	lv_label_create
 1041 01a0 7861     		str	r0, [r7, #20]
 240:..\..\..\lvgl\version_6.1.2\lvgl\src\lv_objx/lv_list.c ****         lv_label_set_text(label, txt);
 1042              		.loc 5 240 0
 1043 01a2 7968     		ldr	r1, [r7, #4]
 1044 01a4 7869     		ldr	r0, [r7, #20]
 1045 01a6 FFF7FEFF 		bl	lv_label_set_text
 241:..\..\..\lvgl\version_6.1.2\lvgl\src\lv_objx/lv_list.c ****         lv_obj_set_click(label, false);
 1046              		.loc 5 241 0
 1047 01aa 0021     		movs	r1, #0
 1048 01ac 7869     		ldr	r0, [r7, #20]
 1049 01ae FFF7FEFF 		bl	lv_obj_set_click
 242:..\..\..\lvgl\version_6.1.2\lvgl\src\lv_objx/lv_list.c ****         lv_label_set_long_mode(label, LV_LABEL_LONG_SROLL_CIRC);
 1050              		.loc 5 242 0
 1051 01b2 0421     		movs	r1, #4
 1052 01b4 7869     		ldr	r0, [r7, #20]
 1053 01b6 FFF7FEFF 		bl	lv_label_set_long_mode
 243:..\..\..\lvgl\version_6.1.2\lvgl\src\lv_objx/lv_list.c ****         if(lv_obj_get_base_dir(liste) == LV_BIDI_DIR_RTL) lv_obj_set_width(label, label->coords.x2 
 1054              		.loc 5 243 0
 1055 01ba 786A     		ldr	r0, [r7, #36]
 1056 01bc FFF7FEFF 		bl	lv_obj_get_base_dir
 1057 01c0 0346     		mov	r3, r0
 1058 01c2 012B     		cmp	r3, #1
 1059 01c4 12D1     		bne	.L38
 1060              		.loc 5 243 0 is_stmt 0 discriminator 1
 1061 01c6 7B69     		ldr	r3, [r7, #20]
 1062 01c8 B3F91430 		ldrsh	r3, [r3, #20]
 1063 01cc 9AB2     		uxth	r2, r3
 1064 01ce 7B6A     		ldr	r3, [r7, #36]
 1065 01d0 B3F91030 		ldrsh	r3, [r3, #16]
 1066 01d4 9BB2     		uxth	r3, r3
 1067 01d6 D31A     		subs	r3, r2, r3
 1068 01d8 9AB2     		uxth	r2, r3
 1069 01da 7B8B     		ldrh	r3, [r7, #26]
 1070 01dc D31A     		subs	r3, r2, r3
 1071 01de 9BB2     		uxth	r3, r3
 1072 01e0 1BB2     		sxth	r3, r3
 1073 01e2 1946     		mov	r1, r3
 1074 01e4 7869     		ldr	r0, [r7, #20]
 1075 01e6 FFF7FEFF 		bl	lv_obj_set_width
 1076 01ea 11E0     		b	.L39
 1077              	.L38:
 244:..\..\..\lvgl\version_6.1.2\lvgl\src\lv_objx/lv_list.c ****         else  lv_obj_set_width(label, liste->coords.x2 - label->coords.x1 - btn_hor_pad);
 1078              		.loc 5 244 0 is_stmt 1
 1079 01ec 7B6A     		ldr	r3, [r7, #36]
 1080 01ee B3F91430 		ldrsh	r3, [r3, #20]
 1081 01f2 9AB2     		uxth	r2, r3
 1082 01f4 7B69     		ldr	r3, [r7, #20]
ARM GAS  C:\Users\tmj32\AppData\Local\Temp\ccUUfkkI.s 			page 41


 1083 01f6 B3F91030 		ldrsh	r3, [r3, #16]
 1084 01fa 9BB2     		uxth	r3, r3
 1085 01fc D31A     		subs	r3, r2, r3
 1086 01fe 9AB2     		uxth	r2, r3
 1087 0200 7B8B     		ldrh	r3, [r7, #26]
 1088 0202 D31A     		subs	r3, r2, r3
 1089 0204 9BB2     		uxth	r3, r3
 1090 0206 1BB2     		sxth	r3, r3
 1091 0208 1946     		mov	r1, r3
 1092 020a 7869     		ldr	r0, [r7, #20]
 1093 020c FFF7FEFF 		bl	lv_obj_set_width
 1094              	.L39:
 245:..\..\..\lvgl\version_6.1.2\lvgl\src\lv_objx/lv_list.c ****         if(label_signal == NULL) label_signal = lv_obj_get_signal_cb(label);
 1095              		.loc 5 245 0
 1096 0210 0E4B     		ldr	r3, .L41+12
 1097 0212 1B68     		ldr	r3, [r3]
 1098 0214 002B     		cmp	r3, #0
 1099 0216 05D1     		bne	.L37
 1100              		.loc 5 245 0 is_stmt 0 discriminator 1
 1101 0218 7869     		ldr	r0, [r7, #20]
 1102 021a FFF7FEFF 		bl	lv_obj_get_signal_cb
 1103 021e 0246     		mov	r2, r0
 1104 0220 0A4B     		ldr	r3, .L41+12
 1105 0222 1A60     		str	r2, [r3]
 1106              	.L37:
 1107              	.LBE6:
 246:..\..\..\lvgl\version_6.1.2\lvgl\src\lv_objx/lv_list.c ****     }
 247:..\..\..\lvgl\version_6.1.2\lvgl\src\lv_objx/lv_list.c **** #if LV_USE_GROUP
 248:..\..\..\lvgl\version_6.1.2\lvgl\src\lv_objx/lv_list.c ****     /* If this is the first item to be added to the list and the list is
 249:..\..\..\lvgl\version_6.1.2\lvgl\src\lv_objx/lv_list.c ****      * focused, select it */
 250:..\..\..\lvgl\version_6.1.2\lvgl\src\lv_objx/lv_list.c ****     {
 251:..\..\..\lvgl\version_6.1.2\lvgl\src\lv_objx/lv_list.c ****         lv_group_t * g = lv_obj_get_group(list);
 252:..\..\..\lvgl\version_6.1.2\lvgl\src\lv_objx/lv_list.c ****         if(ext->size == 1 && lv_group_get_focused(g) == list) {
 253:..\..\..\lvgl\version_6.1.2\lvgl\src\lv_objx/lv_list.c ****             lv_list_set_btn_selected(list, liste);
 254:..\..\..\lvgl\version_6.1.2\lvgl\src\lv_objx/lv_list.c ****         }
 255:..\..\..\lvgl\version_6.1.2\lvgl\src\lv_objx/lv_list.c ****     }
 256:..\..\..\lvgl\version_6.1.2\lvgl\src\lv_objx/lv_list.c **** #endif
 257:..\..\..\lvgl\version_6.1.2\lvgl\src\lv_objx/lv_list.c **** 
 258:..\..\..\lvgl\version_6.1.2\lvgl\src\lv_objx/lv_list.c ****     lv_obj_set_pos(list, pos_x_ori, pos_y_ori);
 1108              		.loc 5 258 0 is_stmt 1
 1109 0224 B7F92C20 		ldrsh	r2, [r7, #44]
 1110 0228 B7F92E30 		ldrsh	r3, [r7, #46]
 1111 022c 1946     		mov	r1, r3
 1112 022e F868     		ldr	r0, [r7, #12]
 1113 0230 FFF7FEFF 		bl	lv_obj_set_pos
 259:..\..\..\lvgl\version_6.1.2\lvgl\src\lv_objx/lv_list.c **** 
 260:..\..\..\lvgl\version_6.1.2\lvgl\src\lv_objx/lv_list.c ****     return liste;
 1114              		.loc 5 260 0
 1115 0234 7B6A     		ldr	r3, [r7, #36]
 261:..\..\..\lvgl\version_6.1.2\lvgl\src\lv_objx/lv_list.c **** }
 1116              		.loc 5 261 0
 1117 0236 1846     		mov	r0, r3
 1118 0238 3837     		adds	r7, r7, #56
 1119              		.cfi_def_cfa_offset 8
 1120 023a BD46     		mov	sp, r7
 1121              		.cfi_def_cfa_register 13
 1122              		@ sp needed
ARM GAS  C:\Users\tmj32\AppData\Local\Temp\ccUUfkkI.s 			page 42


 1123 023c 80BD     		pop	{r7, pc}
 1124              	.L42:
 1125 023e 00BF     		.align	2
 1126              	.L41:
 1127 0240 0C000000 		.word	ancestor_btn_signal
 1128 0244 00000000 		.word	lv_list_btn_signal
 1129 0248 00000000 		.word	img_signal
 1130 024c 04000000 		.word	label_signal
 1131              		.cfi_endproc
 1132              	.LFE71:
 1133              		.size	lv_list_add_btn, .-lv_list_add_btn
 1134              		.section	.text.lv_list_remove,"ax",%progbits
 1135              		.align	2
 1136              		.global	lv_list_remove
 1137              		.thumb
 1138              		.thumb_func
 1139              		.type	lv_list_remove, %function
 1140              	lv_list_remove:
 1141              	.LFB72:
 262:..\..\..\lvgl\version_6.1.2\lvgl\src\lv_objx/lv_list.c **** 
 263:..\..\..\lvgl\version_6.1.2\lvgl\src\lv_objx/lv_list.c **** /**
 264:..\..\..\lvgl\version_6.1.2\lvgl\src\lv_objx/lv_list.c ****  * Remove the index of the button in the list
 265:..\..\..\lvgl\version_6.1.2\lvgl\src\lv_objx/lv_list.c ****  * @param list pointer to a list object
 266:..\..\..\lvgl\version_6.1.2\lvgl\src\lv_objx/lv_list.c ****  * @param index pointer to a the button's index in the list, index must be 0 <= index <
 267:..\..\..\lvgl\version_6.1.2\lvgl\src\lv_objx/lv_list.c ****  * lv_list_ext_t.size
 268:..\..\..\lvgl\version_6.1.2\lvgl\src\lv_objx/lv_list.c ****  * @return true: successfully deleted
 269:..\..\..\lvgl\version_6.1.2\lvgl\src\lv_objx/lv_list.c ****  */
 270:..\..\..\lvgl\version_6.1.2\lvgl\src\lv_objx/lv_list.c **** bool lv_list_remove(const lv_obj_t * list, uint16_t index)
 271:..\..\..\lvgl\version_6.1.2\lvgl\src\lv_objx/lv_list.c **** {
 1142              		.loc 5 271 0
 1143              		.cfi_startproc
 1144              		@ args = 0, pretend = 0, frame = 24
 1145              		@ frame_needed = 1, uses_anonymous_args = 0
 1146 0000 80B5     		push	{r7, lr}
 1147              		.cfi_def_cfa_offset 8
 1148              		.cfi_offset 7, -8
 1149              		.cfi_offset 14, -4
 1150 0002 86B0     		sub	sp, sp, #24
 1151              		.cfi_def_cfa_offset 32
 1152 0004 00AF     		add	r7, sp, #0
 1153              		.cfi_def_cfa_register 7
 1154 0006 7860     		str	r0, [r7, #4]
 1155 0008 0B46     		mov	r3, r1
 1156 000a 7B80     		strh	r3, [r7, #2]	@ movhi
 272:..\..\..\lvgl\version_6.1.2\lvgl\src\lv_objx/lv_list.c ****     LV_ASSERT_OBJ(list, LV_OBJX_NAME);
 273:..\..\..\lvgl\version_6.1.2\lvgl\src\lv_objx/lv_list.c **** 
 274:..\..\..\lvgl\version_6.1.2\lvgl\src\lv_objx/lv_list.c ****     lv_list_ext_t * ext = lv_obj_get_ext_attr(list);
 1157              		.loc 5 274 0
 1158 000c 7868     		ldr	r0, [r7, #4]
 1159 000e FFF7FEFF 		bl	lv_obj_get_ext_attr
 1160 0012 F860     		str	r0, [r7, #12]
 275:..\..\..\lvgl\version_6.1.2\lvgl\src\lv_objx/lv_list.c ****     if(index >= ext->size) return false;
 1161              		.loc 5 275 0
 1162 0014 FB68     		ldr	r3, [r7, #12]
 1163 0016 B3F84830 		ldrh	r3, [r3, #72]
 1164 001a 7A88     		ldrh	r2, [r7, #2]
 1165 001c 9A42     		cmp	r2, r3
ARM GAS  C:\Users\tmj32\AppData\Local\Temp\ccUUfkkI.s 			page 43


 1166 001e 01D3     		bcc	.L44
 1167              		.loc 5 275 0 is_stmt 0 discriminator 1
 1168 0020 0023     		movs	r3, #0
 1169 0022 24E0     		b	.L45
 1170              	.L44:
 276:..\..\..\lvgl\version_6.1.2\lvgl\src\lv_objx/lv_list.c ****     uint16_t count = 0;
 1171              		.loc 5 276 0 is_stmt 1
 1172 0024 0023     		movs	r3, #0
 1173 0026 FB82     		strh	r3, [r7, #22]	@ movhi
 277:..\..\..\lvgl\version_6.1.2\lvgl\src\lv_objx/lv_list.c ****     lv_obj_t * e   = lv_list_get_next_btn(list, NULL);
 1174              		.loc 5 277 0
 1175 0028 0021     		movs	r1, #0
 1176 002a 7868     		ldr	r0, [r7, #4]
 1177 002c FFF7FEFF 		bl	lv_list_get_next_btn
 1178 0030 3861     		str	r0, [r7, #16]
 278:..\..\..\lvgl\version_6.1.2\lvgl\src\lv_objx/lv_list.c ****     while(e != NULL) {
 1179              		.loc 5 278 0
 1180 0032 18E0     		b	.L46
 1181              	.L48:
 279:..\..\..\lvgl\version_6.1.2\lvgl\src\lv_objx/lv_list.c ****         if(count == index) {
 1182              		.loc 5 279 0
 1183 0034 FA8A     		ldrh	r2, [r7, #22]
 1184 0036 7B88     		ldrh	r3, [r7, #2]
 1185 0038 9A42     		cmp	r2, r3
 1186 003a 0CD1     		bne	.L47
 280:..\..\..\lvgl\version_6.1.2\lvgl\src\lv_objx/lv_list.c ****             lv_obj_del(e);
 1187              		.loc 5 280 0
 1188 003c 3869     		ldr	r0, [r7, #16]
 1189 003e FFF7FEFF 		bl	lv_obj_del
 281:..\..\..\lvgl\version_6.1.2\lvgl\src\lv_objx/lv_list.c ****             ext->size--;
 1190              		.loc 5 281 0
 1191 0042 FB68     		ldr	r3, [r7, #12]
 1192 0044 B3F84830 		ldrh	r3, [r3, #72]
 1193 0048 013B     		subs	r3, r3, #1
 1194 004a 9AB2     		uxth	r2, r3
 1195 004c FB68     		ldr	r3, [r7, #12]
 1196 004e A3F84820 		strh	r2, [r3, #72]	@ movhi
 282:..\..\..\lvgl\version_6.1.2\lvgl\src\lv_objx/lv_list.c ****             return true;
 1197              		.loc 5 282 0
 1198 0052 0123     		movs	r3, #1
 1199 0054 0BE0     		b	.L45
 1200              	.L47:
 283:..\..\..\lvgl\version_6.1.2\lvgl\src\lv_objx/lv_list.c ****         }
 284:..\..\..\lvgl\version_6.1.2\lvgl\src\lv_objx/lv_list.c ****         e = lv_list_get_next_btn(list, e);
 1201              		.loc 5 284 0
 1202 0056 3969     		ldr	r1, [r7, #16]
 1203 0058 7868     		ldr	r0, [r7, #4]
 1204 005a FFF7FEFF 		bl	lv_list_get_next_btn
 1205 005e 3861     		str	r0, [r7, #16]
 285:..\..\..\lvgl\version_6.1.2\lvgl\src\lv_objx/lv_list.c ****         count++;
 1206              		.loc 5 285 0
 1207 0060 FB8A     		ldrh	r3, [r7, #22]
 1208 0062 0133     		adds	r3, r3, #1
 1209 0064 FB82     		strh	r3, [r7, #22]	@ movhi
 1210              	.L46:
 278:..\..\..\lvgl\version_6.1.2\lvgl\src\lv_objx/lv_list.c ****         if(count == index) {
 1211              		.loc 5 278 0
ARM GAS  C:\Users\tmj32\AppData\Local\Temp\ccUUfkkI.s 			page 44


 1212 0066 3B69     		ldr	r3, [r7, #16]
 1213 0068 002B     		cmp	r3, #0
 1214 006a E3D1     		bne	.L48
 286:..\..\..\lvgl\version_6.1.2\lvgl\src\lv_objx/lv_list.c ****     }
 287:..\..\..\lvgl\version_6.1.2\lvgl\src\lv_objx/lv_list.c ****     return false;
 1215              		.loc 5 287 0
 1216 006c 0023     		movs	r3, #0
 1217              	.L45:
 288:..\..\..\lvgl\version_6.1.2\lvgl\src\lv_objx/lv_list.c **** }
 1218              		.loc 5 288 0
 1219 006e 1846     		mov	r0, r3
 1220 0070 1837     		adds	r7, r7, #24
 1221              		.cfi_def_cfa_offset 8
 1222 0072 BD46     		mov	sp, r7
 1223              		.cfi_def_cfa_register 13
 1224              		@ sp needed
 1225 0074 80BD     		pop	{r7, pc}
 1226              		.cfi_endproc
 1227              	.LFE72:
 1228              		.size	lv_list_remove, .-lv_list_remove
 1229 0076 00BF     		.section	.text.lv_list_set_single_mode,"ax",%progbits
 1230              		.align	2
 1231              		.global	lv_list_set_single_mode
 1232              		.thumb
 1233              		.thumb_func
 1234              		.type	lv_list_set_single_mode, %function
 1235              	lv_list_set_single_mode:
 1236              	.LFB73:
 289:..\..\..\lvgl\version_6.1.2\lvgl\src\lv_objx/lv_list.c **** 
 290:..\..\..\lvgl\version_6.1.2\lvgl\src\lv_objx/lv_list.c **** /*=====================
 291:..\..\..\lvgl\version_6.1.2\lvgl\src\lv_objx/lv_list.c ****  * Setter functions
 292:..\..\..\lvgl\version_6.1.2\lvgl\src\lv_objx/lv_list.c ****  *====================*/
 293:..\..\..\lvgl\version_6.1.2\lvgl\src\lv_objx/lv_list.c **** 
 294:..\..\..\lvgl\version_6.1.2\lvgl\src\lv_objx/lv_list.c **** /**
 295:..\..\..\lvgl\version_6.1.2\lvgl\src\lv_objx/lv_list.c ****  * Set single button selected mode, only one button will be selected if enabled.
 296:..\..\..\lvgl\version_6.1.2\lvgl\src\lv_objx/lv_list.c ****  * @param list pointer to the currently pressed list object
 297:..\..\..\lvgl\version_6.1.2\lvgl\src\lv_objx/lv_list.c ****  * @param mode, enable(true)/disable(false) single selected mode.
 298:..\..\..\lvgl\version_6.1.2\lvgl\src\lv_objx/lv_list.c ****  */
 299:..\..\..\lvgl\version_6.1.2\lvgl\src\lv_objx/lv_list.c **** void lv_list_set_single_mode(lv_obj_t * list, bool mode)
 300:..\..\..\lvgl\version_6.1.2\lvgl\src\lv_objx/lv_list.c **** {
 1237              		.loc 5 300 0
 1238              		.cfi_startproc
 1239              		@ args = 0, pretend = 0, frame = 16
 1240              		@ frame_needed = 1, uses_anonymous_args = 0
 1241 0000 80B5     		push	{r7, lr}
 1242              		.cfi_def_cfa_offset 8
 1243              		.cfi_offset 7, -8
 1244              		.cfi_offset 14, -4
 1245 0002 84B0     		sub	sp, sp, #16
 1246              		.cfi_def_cfa_offset 24
 1247 0004 00AF     		add	r7, sp, #0
 1248              		.cfi_def_cfa_register 7
 1249 0006 7860     		str	r0, [r7, #4]
 1250 0008 0B46     		mov	r3, r1
 1251 000a FB70     		strb	r3, [r7, #3]
 301:..\..\..\lvgl\version_6.1.2\lvgl\src\lv_objx/lv_list.c ****     LV_ASSERT_OBJ(list, LV_OBJX_NAME);
 302:..\..\..\lvgl\version_6.1.2\lvgl\src\lv_objx/lv_list.c **** 
ARM GAS  C:\Users\tmj32\AppData\Local\Temp\ccUUfkkI.s 			page 45


 303:..\..\..\lvgl\version_6.1.2\lvgl\src\lv_objx/lv_list.c ****     lv_list_ext_t * ext = lv_obj_get_ext_attr(list);
 1252              		.loc 5 303 0
 1253 000c 7868     		ldr	r0, [r7, #4]
 1254 000e FFF7FEFF 		bl	lv_obj_get_ext_attr
 1255 0012 F860     		str	r0, [r7, #12]
 304:..\..\..\lvgl\version_6.1.2\lvgl\src\lv_objx/lv_list.c **** 
 305:..\..\..\lvgl\version_6.1.2\lvgl\src\lv_objx/lv_list.c ****     ext->single_mode = mode;
 1256              		.loc 5 305 0
 1257 0014 FA68     		ldr	r2, [r7, #12]
 1258 0016 92F84A30 		ldrb	r3, [r2, #74]
 1259 001a F978     		ldrb	r1, [r7, #3]
 1260 001c 61F30003 		bfi	r3, r1, #0, #1
 1261 0020 82F84A30 		strb	r3, [r2, #74]
 306:..\..\..\lvgl\version_6.1.2\lvgl\src\lv_objx/lv_list.c **** }
 1262              		.loc 5 306 0
 1263 0024 00BF     		nop
 1264 0026 1037     		adds	r7, r7, #16
 1265              		.cfi_def_cfa_offset 8
 1266 0028 BD46     		mov	sp, r7
 1267              		.cfi_def_cfa_register 13
 1268              		@ sp needed
 1269 002a 80BD     		pop	{r7, pc}
 1270              		.cfi_endproc
 1271              	.LFE73:
 1272              		.size	lv_list_set_single_mode, .-lv_list_set_single_mode
 1273              		.section	.text.lv_list_set_style,"ax",%progbits
 1274              		.align	2
 1275              		.global	lv_list_set_style
 1276              		.thumb
 1277              		.thumb_func
 1278              		.type	lv_list_set_style, %function
 1279              	lv_list_set_style:
 1280              	.LFB74:
 307:..\..\..\lvgl\version_6.1.2\lvgl\src\lv_objx/lv_list.c **** 
 308:..\..\..\lvgl\version_6.1.2\lvgl\src\lv_objx/lv_list.c **** #if LV_USE_GROUP
 309:..\..\..\lvgl\version_6.1.2\lvgl\src\lv_objx/lv_list.c **** 
 310:..\..\..\lvgl\version_6.1.2\lvgl\src\lv_objx/lv_list.c **** /**
 311:..\..\..\lvgl\version_6.1.2\lvgl\src\lv_objx/lv_list.c ****  * Make a button selected
 312:..\..\..\lvgl\version_6.1.2\lvgl\src\lv_objx/lv_list.c ****  * @param list pointer to a list object
 313:..\..\..\lvgl\version_6.1.2\lvgl\src\lv_objx/lv_list.c ****  * @param btn pointer to a button to select
 314:..\..\..\lvgl\version_6.1.2\lvgl\src\lv_objx/lv_list.c ****  *            NULL to not select any buttons
 315:..\..\..\lvgl\version_6.1.2\lvgl\src\lv_objx/lv_list.c ****  */
 316:..\..\..\lvgl\version_6.1.2\lvgl\src\lv_objx/lv_list.c **** void lv_list_set_btn_selected(lv_obj_t * list, lv_obj_t * btn)
 317:..\..\..\lvgl\version_6.1.2\lvgl\src\lv_objx/lv_list.c **** {
 318:..\..\..\lvgl\version_6.1.2\lvgl\src\lv_objx/lv_list.c ****     LV_ASSERT_OBJ(list, LV_OBJX_NAME);
 319:..\..\..\lvgl\version_6.1.2\lvgl\src\lv_objx/lv_list.c ****     if(btn) LV_ASSERT_OBJ(list, "lv_btn");
 320:..\..\..\lvgl\version_6.1.2\lvgl\src\lv_objx/lv_list.c **** 
 321:..\..\..\lvgl\version_6.1.2\lvgl\src\lv_objx/lv_list.c ****     lv_list_ext_t * ext = lv_obj_get_ext_attr(list);
 322:..\..\..\lvgl\version_6.1.2\lvgl\src\lv_objx/lv_list.c **** 
 323:..\..\..\lvgl\version_6.1.2\lvgl\src\lv_objx/lv_list.c ****     if(ext->selected_btn) {
 324:..\..\..\lvgl\version_6.1.2\lvgl\src\lv_objx/lv_list.c ****         lv_btn_state_t s = lv_btn_get_state(ext->selected_btn);
 325:..\..\..\lvgl\version_6.1.2\lvgl\src\lv_objx/lv_list.c ****         if(s == LV_BTN_STATE_PR)
 326:..\..\..\lvgl\version_6.1.2\lvgl\src\lv_objx/lv_list.c ****             lv_btn_set_state(ext->selected_btn, LV_BTN_STATE_REL);
 327:..\..\..\lvgl\version_6.1.2\lvgl\src\lv_objx/lv_list.c ****         else if(s == LV_BTN_STATE_TGL_PR)
 328:..\..\..\lvgl\version_6.1.2\lvgl\src\lv_objx/lv_list.c ****             lv_btn_set_state(ext->selected_btn, LV_BTN_STATE_TGL_REL);
 329:..\..\..\lvgl\version_6.1.2\lvgl\src\lv_objx/lv_list.c ****     }
 330:..\..\..\lvgl\version_6.1.2\lvgl\src\lv_objx/lv_list.c **** 
ARM GAS  C:\Users\tmj32\AppData\Local\Temp\ccUUfkkI.s 			page 46


 331:..\..\..\lvgl\version_6.1.2\lvgl\src\lv_objx/lv_list.c ****     ext->selected_btn = btn;
 332:..\..\..\lvgl\version_6.1.2\lvgl\src\lv_objx/lv_list.c **** 
 333:..\..\..\lvgl\version_6.1.2\lvgl\src\lv_objx/lv_list.c ****     /*Don't forget which button was selected.
 334:..\..\..\lvgl\version_6.1.2\lvgl\src\lv_objx/lv_list.c ****      * It will be restored when the list is focused.*/
 335:..\..\..\lvgl\version_6.1.2\lvgl\src\lv_objx/lv_list.c ****     if(btn != NULL) {
 336:..\..\..\lvgl\version_6.1.2\lvgl\src\lv_objx/lv_list.c ****         ext->last_sel = btn;
 337:..\..\..\lvgl\version_6.1.2\lvgl\src\lv_objx/lv_list.c ****     }
 338:..\..\..\lvgl\version_6.1.2\lvgl\src\lv_objx/lv_list.c **** 
 339:..\..\..\lvgl\version_6.1.2\lvgl\src\lv_objx/lv_list.c ****     if(ext->selected_btn) {
 340:..\..\..\lvgl\version_6.1.2\lvgl\src\lv_objx/lv_list.c ****         lv_btn_state_t s = lv_btn_get_state(ext->selected_btn);
 341:..\..\..\lvgl\version_6.1.2\lvgl\src\lv_objx/lv_list.c ****         if(s == LV_BTN_STATE_REL)
 342:..\..\..\lvgl\version_6.1.2\lvgl\src\lv_objx/lv_list.c ****             lv_btn_set_state(ext->selected_btn, LV_BTN_STATE_PR);
 343:..\..\..\lvgl\version_6.1.2\lvgl\src\lv_objx/lv_list.c ****         else if(s == LV_BTN_STATE_TGL_REL)
 344:..\..\..\lvgl\version_6.1.2\lvgl\src\lv_objx/lv_list.c ****             lv_btn_set_state(ext->selected_btn, LV_BTN_STATE_TGL_PR);
 345:..\..\..\lvgl\version_6.1.2\lvgl\src\lv_objx/lv_list.c **** 
 346:..\..\..\lvgl\version_6.1.2\lvgl\src\lv_objx/lv_list.c ****         lv_page_focus(list, ext->selected_btn, LV_ANIM_ON);
 347:..\..\..\lvgl\version_6.1.2\lvgl\src\lv_objx/lv_list.c ****     }
 348:..\..\..\lvgl\version_6.1.2\lvgl\src\lv_objx/lv_list.c **** }
 349:..\..\..\lvgl\version_6.1.2\lvgl\src\lv_objx/lv_list.c **** 
 350:..\..\..\lvgl\version_6.1.2\lvgl\src\lv_objx/lv_list.c **** #endif
 351:..\..\..\lvgl\version_6.1.2\lvgl\src\lv_objx/lv_list.c **** 
 352:..\..\..\lvgl\version_6.1.2\lvgl\src\lv_objx/lv_list.c **** /**
 353:..\..\..\lvgl\version_6.1.2\lvgl\src\lv_objx/lv_list.c ****  * Set a style of a list
 354:..\..\..\lvgl\version_6.1.2\lvgl\src\lv_objx/lv_list.c ****  * @param list pointer to a list object
 355:..\..\..\lvgl\version_6.1.2\lvgl\src\lv_objx/lv_list.c ****  * @param type which style should be set
 356:..\..\..\lvgl\version_6.1.2\lvgl\src\lv_objx/lv_list.c ****  * @param style pointer to a style
 357:..\..\..\lvgl\version_6.1.2\lvgl\src\lv_objx/lv_list.c ****  */
 358:..\..\..\lvgl\version_6.1.2\lvgl\src\lv_objx/lv_list.c **** void lv_list_set_style(lv_obj_t * list, lv_list_style_t type, const lv_style_t * style)
 359:..\..\..\lvgl\version_6.1.2\lvgl\src\lv_objx/lv_list.c **** {
 1281              		.loc 5 359 0
 1282              		.cfi_startproc
 1283              		@ args = 0, pretend = 0, frame = 32
 1284              		@ frame_needed = 1, uses_anonymous_args = 0
 1285 0000 80B5     		push	{r7, lr}
 1286              		.cfi_def_cfa_offset 8
 1287              		.cfi_offset 7, -8
 1288              		.cfi_offset 14, -4
 1289 0002 88B0     		sub	sp, sp, #32
 1290              		.cfi_def_cfa_offset 40
 1291 0004 00AF     		add	r7, sp, #0
 1292              		.cfi_def_cfa_register 7
 1293 0006 F860     		str	r0, [r7, #12]
 1294 0008 0B46     		mov	r3, r1
 1295 000a 7A60     		str	r2, [r7, #4]
 1296 000c FB72     		strb	r3, [r7, #11]
 360:..\..\..\lvgl\version_6.1.2\lvgl\src\lv_objx/lv_list.c ****     LV_ASSERT_OBJ(list, LV_OBJX_NAME);
 361:..\..\..\lvgl\version_6.1.2\lvgl\src\lv_objx/lv_list.c **** 
 362:..\..\..\lvgl\version_6.1.2\lvgl\src\lv_objx/lv_list.c ****     lv_list_ext_t * ext           = lv_obj_get_ext_attr(list);
 1297              		.loc 5 362 0
 1298 000e F868     		ldr	r0, [r7, #12]
 1299 0010 FFF7FEFF 		bl	lv_obj_get_ext_attr
 1300 0014 7861     		str	r0, [r7, #20]
 363:..\..\..\lvgl\version_6.1.2\lvgl\src\lv_objx/lv_list.c ****     lv_btn_style_t btn_style_refr = LV_BTN_STYLE_REL;
 1301              		.loc 5 363 0
 1302 0016 0023     		movs	r3, #0
 1303 0018 FB77     		strb	r3, [r7, #31]
 364:..\..\..\lvgl\version_6.1.2\lvgl\src\lv_objx/lv_list.c ****     lv_obj_t * btn;
ARM GAS  C:\Users\tmj32\AppData\Local\Temp\ccUUfkkI.s 			page 47


 365:..\..\..\lvgl\version_6.1.2\lvgl\src\lv_objx/lv_list.c **** 
 366:..\..\..\lvgl\version_6.1.2\lvgl\src\lv_objx/lv_list.c ****     switch(type) {
 1304              		.loc 5 366 0
 1305 001a FB7A     		ldrb	r3, [r7, #11]	@ zero_extendqisi2
 1306 001c 082B     		cmp	r3, #8
 1307 001e 4BD8     		bhi	.L51
 1308 0020 01A2     		adr	r2, .L53
 1309 0022 52F823F0 		ldr	pc, [r2, r3, lsl #2]
 1310 0026 00BF     		.p2align 2
 1311              	.L53:
 1312 0028 4D000000 		.word	.L52+1
 1313 002c 59000000 		.word	.L54+1
 1314 0030 65000000 		.word	.L55+1
 1315 0034 71000000 		.word	.L56+1
 1316 0038 7D000000 		.word	.L57+1
 1317 003c 89000000 		.word	.L58+1
 1318 0040 95000000 		.word	.L59+1
 1319 0044 A1000000 		.word	.L60+1
 1320 0048 AD000000 		.word	.L61+1
 1321              		.p2align 1
 1322              	.L52:
 367:..\..\..\lvgl\version_6.1.2\lvgl\src\lv_objx/lv_list.c ****         case LV_LIST_STYLE_BG:
 368:..\..\..\lvgl\version_6.1.2\lvgl\src\lv_objx/lv_list.c ****             lv_page_set_style(list, LV_PAGE_STYLE_BG, style);
 1323              		.loc 5 368 0
 1324 004c 7A68     		ldr	r2, [r7, #4]
 1325 004e 0021     		movs	r1, #0
 1326 0050 F868     		ldr	r0, [r7, #12]
 1327 0052 FFF7FEFF 		bl	lv_page_set_style
 369:..\..\..\lvgl\version_6.1.2\lvgl\src\lv_objx/lv_list.c ****             /*style change signal will call 'refr_btn_width' */
 370:..\..\..\lvgl\version_6.1.2\lvgl\src\lv_objx/lv_list.c ****             break;
 1328              		.loc 5 370 0
 1329 0056 2FE0     		b	.L51
 1330              	.L54:
 371:..\..\..\lvgl\version_6.1.2\lvgl\src\lv_objx/lv_list.c ****         case LV_LIST_STYLE_SCRL: lv_page_set_style(list, LV_PAGE_STYLE_SCRL, style); break;
 1331              		.loc 5 371 0
 1332 0058 7A68     		ldr	r2, [r7, #4]
 1333 005a 0121     		movs	r1, #1
 1334 005c F868     		ldr	r0, [r7, #12]
 1335 005e FFF7FEFF 		bl	lv_page_set_style
 1336 0062 29E0     		b	.L51
 1337              	.L55:
 372:..\..\..\lvgl\version_6.1.2\lvgl\src\lv_objx/lv_list.c ****         case LV_LIST_STYLE_SB: lv_page_set_style(list, LV_PAGE_STYLE_SB, style); break;
 1338              		.loc 5 372 0
 1339 0064 7A68     		ldr	r2, [r7, #4]
 1340 0066 0221     		movs	r1, #2
 1341 0068 F868     		ldr	r0, [r7, #12]
 1342 006a FFF7FEFF 		bl	lv_page_set_style
 1343 006e 23E0     		b	.L51
 1344              	.L56:
 373:..\..\..\lvgl\version_6.1.2\lvgl\src\lv_objx/lv_list.c ****         case LV_LIST_STYLE_EDGE_FLASH: lv_page_set_style(list, LV_PAGE_STYLE_EDGE_FLASH, style); br
 1345              		.loc 5 373 0
 1346 0070 7A68     		ldr	r2, [r7, #4]
 1347 0072 0321     		movs	r1, #3
 1348 0074 F868     		ldr	r0, [r7, #12]
 1349 0076 FFF7FEFF 		bl	lv_page_set_style
 1350 007a 1DE0     		b	.L51
 1351              	.L57:
ARM GAS  C:\Users\tmj32\AppData\Local\Temp\ccUUfkkI.s 			page 48


 374:..\..\..\lvgl\version_6.1.2\lvgl\src\lv_objx/lv_list.c ****         case LV_LIST_STYLE_BTN_REL:
 375:..\..\..\lvgl\version_6.1.2\lvgl\src\lv_objx/lv_list.c ****             ext->styles_btn[LV_BTN_STATE_REL] = style;
 1352              		.loc 5 375 0
 1353 007c 7B69     		ldr	r3, [r7, #20]
 1354 007e 7A68     		ldr	r2, [r7, #4]
 1355 0080 1A63     		str	r2, [r3, #48]
 376:..\..\..\lvgl\version_6.1.2\lvgl\src\lv_objx/lv_list.c ****             btn_style_refr                    = LV_BTN_STYLE_REL;
 1356              		.loc 5 376 0
 1357 0082 0023     		movs	r3, #0
 1358 0084 FB77     		strb	r3, [r7, #31]
 377:..\..\..\lvgl\version_6.1.2\lvgl\src\lv_objx/lv_list.c ****             break;
 1359              		.loc 5 377 0
 1360 0086 17E0     		b	.L51
 1361              	.L58:
 378:..\..\..\lvgl\version_6.1.2\lvgl\src\lv_objx/lv_list.c ****         case LV_LIST_STYLE_BTN_PR:
 379:..\..\..\lvgl\version_6.1.2\lvgl\src\lv_objx/lv_list.c ****             ext->styles_btn[LV_BTN_STATE_PR] = style;
 1362              		.loc 5 379 0
 1363 0088 7B69     		ldr	r3, [r7, #20]
 1364 008a 7A68     		ldr	r2, [r7, #4]
 1365 008c 5A63     		str	r2, [r3, #52]
 380:..\..\..\lvgl\version_6.1.2\lvgl\src\lv_objx/lv_list.c ****             btn_style_refr                   = LV_BTN_STYLE_PR;
 1366              		.loc 5 380 0
 1367 008e 0123     		movs	r3, #1
 1368 0090 FB77     		strb	r3, [r7, #31]
 381:..\..\..\lvgl\version_6.1.2\lvgl\src\lv_objx/lv_list.c ****             break;
 1369              		.loc 5 381 0
 1370 0092 11E0     		b	.L51
 1371              	.L59:
 382:..\..\..\lvgl\version_6.1.2\lvgl\src\lv_objx/lv_list.c ****         case LV_LIST_STYLE_BTN_TGL_REL:
 383:..\..\..\lvgl\version_6.1.2\lvgl\src\lv_objx/lv_list.c ****             ext->styles_btn[LV_BTN_STATE_TGL_REL] = style;
 1372              		.loc 5 383 0
 1373 0094 7B69     		ldr	r3, [r7, #20]
 1374 0096 7A68     		ldr	r2, [r7, #4]
 1375 0098 9A63     		str	r2, [r3, #56]
 384:..\..\..\lvgl\version_6.1.2\lvgl\src\lv_objx/lv_list.c ****             btn_style_refr                        = LV_BTN_STYLE_TGL_REL;
 1376              		.loc 5 384 0
 1377 009a 0223     		movs	r3, #2
 1378 009c FB77     		strb	r3, [r7, #31]
 385:..\..\..\lvgl\version_6.1.2\lvgl\src\lv_objx/lv_list.c ****             break;
 1379              		.loc 5 385 0
 1380 009e 0BE0     		b	.L51
 1381              	.L60:
 386:..\..\..\lvgl\version_6.1.2\lvgl\src\lv_objx/lv_list.c ****         case LV_LIST_STYLE_BTN_TGL_PR:
 387:..\..\..\lvgl\version_6.1.2\lvgl\src\lv_objx/lv_list.c ****             ext->styles_btn[LV_BTN_STATE_TGL_PR] = style;
 1382              		.loc 5 387 0
 1383 00a0 7B69     		ldr	r3, [r7, #20]
 1384 00a2 7A68     		ldr	r2, [r7, #4]
 1385 00a4 DA63     		str	r2, [r3, #60]
 388:..\..\..\lvgl\version_6.1.2\lvgl\src\lv_objx/lv_list.c ****             btn_style_refr                       = LV_BTN_STYLE_TGL_PR;
 1386              		.loc 5 388 0
 1387 00a6 0323     		movs	r3, #3
 1388 00a8 FB77     		strb	r3, [r7, #31]
 389:..\..\..\lvgl\version_6.1.2\lvgl\src\lv_objx/lv_list.c ****             break;
 1389              		.loc 5 389 0
 1390 00aa 05E0     		b	.L51
 1391              	.L61:
 390:..\..\..\lvgl\version_6.1.2\lvgl\src\lv_objx/lv_list.c ****         case LV_LIST_STYLE_BTN_INA:
ARM GAS  C:\Users\tmj32\AppData\Local\Temp\ccUUfkkI.s 			page 49


 391:..\..\..\lvgl\version_6.1.2\lvgl\src\lv_objx/lv_list.c ****             ext->styles_btn[LV_BTN_STATE_INA] = style;
 1392              		.loc 5 391 0
 1393 00ac 7B69     		ldr	r3, [r7, #20]
 1394 00ae 7A68     		ldr	r2, [r7, #4]
 1395 00b0 1A64     		str	r2, [r3, #64]
 392:..\..\..\lvgl\version_6.1.2\lvgl\src\lv_objx/lv_list.c ****             btn_style_refr                    = LV_BTN_STYLE_INA;
 1396              		.loc 5 392 0
 1397 00b2 0423     		movs	r3, #4
 1398 00b4 FB77     		strb	r3, [r7, #31]
 393:..\..\..\lvgl\version_6.1.2\lvgl\src\lv_objx/lv_list.c ****             break;
 1399              		.loc 5 393 0
 1400 00b6 00BF     		nop
 1401              	.L51:
 394:..\..\..\lvgl\version_6.1.2\lvgl\src\lv_objx/lv_list.c ****     }
 395:..\..\..\lvgl\version_6.1.2\lvgl\src\lv_objx/lv_list.c **** 
 396:..\..\..\lvgl\version_6.1.2\lvgl\src\lv_objx/lv_list.c ****     /*Refresh existing buttons' style*/
 397:..\..\..\lvgl\version_6.1.2\lvgl\src\lv_objx/lv_list.c ****     if(type == LV_LIST_STYLE_BTN_PR || type == LV_LIST_STYLE_BTN_REL || type == LV_LIST_STYLE_BTN_T
 1402              		.loc 5 397 0
 1403 00b8 FB7A     		ldrb	r3, [r7, #11]	@ zero_extendqisi2
 1404 00ba 052B     		cmp	r3, #5
 1405 00bc 0BD0     		beq	.L62
 1406              		.loc 5 397 0 is_stmt 0 discriminator 1
 1407 00be FB7A     		ldrb	r3, [r7, #11]	@ zero_extendqisi2
 1408 00c0 042B     		cmp	r3, #4
 1409 00c2 08D0     		beq	.L62
 1410              		.loc 5 397 0 discriminator 2
 1411 00c4 FB7A     		ldrb	r3, [r7, #11]	@ zero_extendqisi2
 1412 00c6 062B     		cmp	r3, #6
 1413 00c8 05D0     		beq	.L62
 1414              		.loc 5 397 0 discriminator 3
 1415 00ca FB7A     		ldrb	r3, [r7, #11]	@ zero_extendqisi2
 1416 00cc 072B     		cmp	r3, #7
 1417 00ce 02D0     		beq	.L62
 398:..\..\..\lvgl\version_6.1.2\lvgl\src\lv_objx/lv_list.c ****        type == LV_LIST_STYLE_BTN_TGL_PR || type == LV_LIST_STYLE_BTN_INA) {
 1418              		.loc 5 398 0 is_stmt 1
 1419 00d0 FB7A     		ldrb	r3, [r7, #11]	@ zero_extendqisi2
 1420 00d2 082B     		cmp	r3, #8
 1421 00d4 17D1     		bne	.L66
 1422              	.L62:
 399:..\..\..\lvgl\version_6.1.2\lvgl\src\lv_objx/lv_list.c ****         btn = lv_list_get_prev_btn(list, NULL);
 1423              		.loc 5 399 0
 1424 00d6 0021     		movs	r1, #0
 1425 00d8 F868     		ldr	r0, [r7, #12]
 1426 00da FFF7FEFF 		bl	lv_list_get_prev_btn
 1427 00de B861     		str	r0, [r7, #24]
 400:..\..\..\lvgl\version_6.1.2\lvgl\src\lv_objx/lv_list.c ****         while(btn != NULL) {
 1428              		.loc 5 400 0
 1429 00e0 0EE0     		b	.L64
 1430              	.L65:
 401:..\..\..\lvgl\version_6.1.2\lvgl\src\lv_objx/lv_list.c ****             lv_btn_set_style(btn, btn_style_refr, ext->styles_btn[btn_style_refr]);
 1431              		.loc 5 401 0
 1432 00e2 FA7F     		ldrb	r2, [r7, #31]	@ zero_extendqisi2
 1433 00e4 7B69     		ldr	r3, [r7, #20]
 1434 00e6 0C32     		adds	r2, r2, #12
 1435 00e8 53F82220 		ldr	r2, [r3, r2, lsl #2]
 1436 00ec FB7F     		ldrb	r3, [r7, #31]	@ zero_extendqisi2
 1437 00ee 1946     		mov	r1, r3
ARM GAS  C:\Users\tmj32\AppData\Local\Temp\ccUUfkkI.s 			page 50


 1438 00f0 B869     		ldr	r0, [r7, #24]
 1439 00f2 FFF7FEFF 		bl	lv_btn_set_style
 402:..\..\..\lvgl\version_6.1.2\lvgl\src\lv_objx/lv_list.c ****             btn = lv_list_get_prev_btn(list, btn);
 1440              		.loc 5 402 0
 1441 00f6 B969     		ldr	r1, [r7, #24]
 1442 00f8 F868     		ldr	r0, [r7, #12]
 1443 00fa FFF7FEFF 		bl	lv_list_get_prev_btn
 1444 00fe B861     		str	r0, [r7, #24]
 1445              	.L64:
 400:..\..\..\lvgl\version_6.1.2\lvgl\src\lv_objx/lv_list.c ****         while(btn != NULL) {
 1446              		.loc 5 400 0
 1447 0100 BB69     		ldr	r3, [r7, #24]
 1448 0102 002B     		cmp	r3, #0
 1449 0104 EDD1     		bne	.L65
 1450              	.L66:
 403:..\..\..\lvgl\version_6.1.2\lvgl\src\lv_objx/lv_list.c ****         }
 404:..\..\..\lvgl\version_6.1.2\lvgl\src\lv_objx/lv_list.c ****     }
 405:..\..\..\lvgl\version_6.1.2\lvgl\src\lv_objx/lv_list.c **** }
 1451              		.loc 5 405 0
 1452 0106 00BF     		nop
 1453 0108 2037     		adds	r7, r7, #32
 1454              		.cfi_def_cfa_offset 8
 1455 010a BD46     		mov	sp, r7
 1456              		.cfi_def_cfa_register 13
 1457              		@ sp needed
 1458 010c 80BD     		pop	{r7, pc}
 1459              		.cfi_endproc
 1460              	.LFE74:
 1461              		.size	lv_list_set_style, .-lv_list_set_style
 1462 010e 00BF     		.section	.text.lv_list_set_layout,"ax",%progbits
 1463              		.align	2
 1464              		.global	lv_list_set_layout
 1465              		.thumb
 1466              		.thumb_func
 1467              		.type	lv_list_set_layout, %function
 1468              	lv_list_set_layout:
 1469              	.LFB75:
 406:..\..\..\lvgl\version_6.1.2\lvgl\src\lv_objx/lv_list.c **** 
 407:..\..\..\lvgl\version_6.1.2\lvgl\src\lv_objx/lv_list.c **** /**
 408:..\..\..\lvgl\version_6.1.2\lvgl\src\lv_objx/lv_list.c ****  * Set layout of a list
 409:..\..\..\lvgl\version_6.1.2\lvgl\src\lv_objx/lv_list.c ****  * @param list pointer to a list object
 410:..\..\..\lvgl\version_6.1.2\lvgl\src\lv_objx/lv_list.c ****  * @param layout which layout should be used
 411:..\..\..\lvgl\version_6.1.2\lvgl\src\lv_objx/lv_list.c ****  */
 412:..\..\..\lvgl\version_6.1.2\lvgl\src\lv_objx/lv_list.c ****  void lv_list_set_layout(lv_obj_t * list, lv_layout_t layout)
 413:..\..\..\lvgl\version_6.1.2\lvgl\src\lv_objx/lv_list.c ****  {
 1470              		.loc 5 413 0
 1471              		.cfi_startproc
 1472              		@ args = 0, pretend = 0, frame = 16
 1473              		@ frame_needed = 1, uses_anonymous_args = 0
 1474 0000 80B5     		push	{r7, lr}
 1475              		.cfi_def_cfa_offset 8
 1476              		.cfi_offset 7, -8
 1477              		.cfi_offset 14, -4
 1478 0002 84B0     		sub	sp, sp, #16
 1479              		.cfi_def_cfa_offset 24
 1480 0004 00AF     		add	r7, sp, #0
 1481              		.cfi_def_cfa_register 7
ARM GAS  C:\Users\tmj32\AppData\Local\Temp\ccUUfkkI.s 			page 51


 1482 0006 7860     		str	r0, [r7, #4]
 1483 0008 0B46     		mov	r3, r1
 1484 000a FB70     		strb	r3, [r7, #3]
 414:..\..\..\lvgl\version_6.1.2\lvgl\src\lv_objx/lv_list.c ****      LV_ASSERT_OBJ(list, LV_OBJX_NAME);
 415:..\..\..\lvgl\version_6.1.2\lvgl\src\lv_objx/lv_list.c **** 
 416:..\..\..\lvgl\version_6.1.2\lvgl\src\lv_objx/lv_list.c **** 	/* Update list layout if necessary */
 417:..\..\..\lvgl\version_6.1.2\lvgl\src\lv_objx/lv_list.c **** 	if (layout == lv_list_get_layout(list)) return;
 1485              		.loc 5 417 0
 1486 000c 7868     		ldr	r0, [r7, #4]
 1487 000e FFF7FEFF 		bl	lv_list_get_layout
 1488 0012 0346     		mov	r3, r0
 1489 0014 1A46     		mov	r2, r3
 1490 0016 FB78     		ldrb	r3, [r7, #3]	@ zero_extendqisi2
 1491 0018 9342     		cmp	r3, r2
 1492 001a 51D0     		beq	.L80
 418:..\..\..\lvgl\version_6.1.2\lvgl\src\lv_objx/lv_list.c **** 
 419:..\..\..\lvgl\version_6.1.2\lvgl\src\lv_objx/lv_list.c ****     /* Get the first button on the list */
 420:..\..\..\lvgl\version_6.1.2\lvgl\src\lv_objx/lv_list.c ****     lv_obj_t * btn = lv_list_get_prev_btn(list, NULL);
 1493              		.loc 5 420 0
 1494 001c 0021     		movs	r1, #0
 1495 001e 7868     		ldr	r0, [r7, #4]
 1496 0020 FFF7FEFF 		bl	lv_list_get_prev_btn
 1497 0024 F860     		str	r0, [r7, #12]
 421:..\..\..\lvgl\version_6.1.2\lvgl\src\lv_objx/lv_list.c **** 
 422:..\..\..\lvgl\version_6.1.2\lvgl\src\lv_objx/lv_list.c ****     /* Visit all buttons on the list and update their layout  */
 423:..\..\..\lvgl\version_6.1.2\lvgl\src\lv_objx/lv_list.c ****     while(btn != NULL) {
 1498              		.loc 5 423 0
 1499 0026 20E0     		b	.L70
 1500              	.L75:
 424:..\..\..\lvgl\version_6.1.2\lvgl\src\lv_objx/lv_list.c ****         /*If a column layout set the buttons' width to list width*/
 425:..\..\..\lvgl\version_6.1.2\lvgl\src\lv_objx/lv_list.c ****         if(layout == LV_LAYOUT_COL_M || layout == LV_LAYOUT_COL_L || layout == LV_LAYOUT_COL_R) {
 1501              		.loc 5 425 0
 1502 0028 FB78     		ldrb	r3, [r7, #3]	@ zero_extendqisi2
 1503 002a 032B     		cmp	r3, #3
 1504 002c 05D0     		beq	.L71
 1505              		.loc 5 425 0 is_stmt 0 discriminator 1
 1506 002e FB78     		ldrb	r3, [r7, #3]	@ zero_extendqisi2
 1507 0030 022B     		cmp	r3, #2
 1508 0032 02D0     		beq	.L71
 1509              		.loc 5 425 0 discriminator 2
 1510 0034 FB78     		ldrb	r3, [r7, #3]	@ zero_extendqisi2
 1511 0036 042B     		cmp	r3, #4
 1512 0038 05D1     		bne	.L72
 1513              	.L71:
 426:..\..\..\lvgl\version_6.1.2\lvgl\src\lv_objx/lv_list.c ****             lv_btn_set_fit2(btn, LV_FIT_FLOOD, LV_FIT_TIGHT);
 1514              		.loc 5 426 0 is_stmt 1
 1515 003a 0122     		movs	r2, #1
 1516 003c 0221     		movs	r1, #2
 1517 003e F868     		ldr	r0, [r7, #12]
 1518 0040 FFF7FEFF 		bl	lv_btn_set_fit2
 1519 0044 0CE0     		b	.L73
 1520              	.L72:
 427:..\..\..\lvgl\version_6.1.2\lvgl\src\lv_objx/lv_list.c ****         }
 428:..\..\..\lvgl\version_6.1.2\lvgl\src\lv_objx/lv_list.c ****         /*If a row layout set the buttons' width according to the content*/
 429:..\..\..\lvgl\version_6.1.2\lvgl\src\lv_objx/lv_list.c ****         else if (layout == LV_LAYOUT_ROW_M || layout == LV_LAYOUT_ROW_T || layout == LV_LAYOUT_ROW_
 1521              		.loc 5 429 0
 1522 0046 FB78     		ldrb	r3, [r7, #3]	@ zero_extendqisi2
ARM GAS  C:\Users\tmj32\AppData\Local\Temp\ccUUfkkI.s 			page 52


 1523 0048 062B     		cmp	r3, #6
 1524 004a 05D0     		beq	.L74
 1525              		.loc 5 429 0 is_stmt 0 discriminator 1
 1526 004c FB78     		ldrb	r3, [r7, #3]	@ zero_extendqisi2
 1527 004e 052B     		cmp	r3, #5
 1528 0050 02D0     		beq	.L74
 1529              		.loc 5 429 0 discriminator 2
 1530 0052 FB78     		ldrb	r3, [r7, #3]	@ zero_extendqisi2
 1531 0054 072B     		cmp	r3, #7
 1532 0056 03D1     		bne	.L73
 1533              	.L74:
 430:..\..\..\lvgl\version_6.1.2\lvgl\src\lv_objx/lv_list.c ****             lv_btn_set_fit(btn, LV_FIT_TIGHT);
 1534              		.loc 5 430 0 is_stmt 1
 1535 0058 0121     		movs	r1, #1
 1536 005a F868     		ldr	r0, [r7, #12]
 1537 005c FFF7FEFF 		bl	lv_btn_set_fit
 1538              	.L73:
 431:..\..\..\lvgl\version_6.1.2\lvgl\src\lv_objx/lv_list.c ****         }
 432:..\..\..\lvgl\version_6.1.2\lvgl\src\lv_objx/lv_list.c **** 
 433:..\..\..\lvgl\version_6.1.2\lvgl\src\lv_objx/lv_list.c ****         btn = lv_list_get_prev_btn(list, btn);
 1539              		.loc 5 433 0
 1540 0060 F968     		ldr	r1, [r7, #12]
 1541 0062 7868     		ldr	r0, [r7, #4]
 1542 0064 FFF7FEFF 		bl	lv_list_get_prev_btn
 1543 0068 F860     		str	r0, [r7, #12]
 1544              	.L70:
 423:..\..\..\lvgl\version_6.1.2\lvgl\src\lv_objx/lv_list.c ****         /*If a column layout set the buttons' width to list width*/
 1545              		.loc 5 423 0
 1546 006a FB68     		ldr	r3, [r7, #12]
 1547 006c 002B     		cmp	r3, #0
 1548 006e DBD1     		bne	.L75
 434:..\..\..\lvgl\version_6.1.2\lvgl\src\lv_objx/lv_list.c ****     }
 435:..\..\..\lvgl\version_6.1.2\lvgl\src\lv_objx/lv_list.c **** 
 436:..\..\..\lvgl\version_6.1.2\lvgl\src\lv_objx/lv_list.c ****     if(layout == LV_LAYOUT_COL_M || layout == LV_LAYOUT_COL_L || layout == LV_LAYOUT_COL_R) {
 1549              		.loc 5 436 0
 1550 0070 FB78     		ldrb	r3, [r7, #3]	@ zero_extendqisi2
 1551 0072 032B     		cmp	r3, #3
 1552 0074 05D0     		beq	.L76
 1553              		.loc 5 436 0 is_stmt 0 discriminator 1
 1554 0076 FB78     		ldrb	r3, [r7, #3]	@ zero_extendqisi2
 1555 0078 022B     		cmp	r3, #2
 1556 007a 02D0     		beq	.L76
 1557              		.loc 5 436 0 discriminator 2
 1558 007c FB78     		ldrb	r3, [r7, #3]	@ zero_extendqisi2
 1559 007e 042B     		cmp	r3, #4
 1560 0080 05D1     		bne	.L77
 1561              	.L76:
 437:..\..\..\lvgl\version_6.1.2\lvgl\src\lv_objx/lv_list.c ****         lv_page_set_scrl_fit2(list, LV_FIT_FLOOD, LV_FIT_TIGHT);
 1562              		.loc 5 437 0 is_stmt 1
 1563 0082 0122     		movs	r2, #1
 1564 0084 0221     		movs	r1, #2
 1565 0086 7868     		ldr	r0, [r7, #4]
 1566 0088 FFF7FEFF 		bl	lv_page_set_scrl_fit2
 1567 008c 12E0     		b	.L78
 1568              	.L77:
 438:..\..\..\lvgl\version_6.1.2\lvgl\src\lv_objx/lv_list.c ****     } else if (layout == LV_LAYOUT_ROW_M || layout == LV_LAYOUT_ROW_T || layout == LV_LAYOUT_ROW_B)
 1569              		.loc 5 438 0
ARM GAS  C:\Users\tmj32\AppData\Local\Temp\ccUUfkkI.s 			page 53


 1570 008e FB78     		ldrb	r3, [r7, #3]	@ zero_extendqisi2
 1571 0090 062B     		cmp	r3, #6
 1572 0092 05D0     		beq	.L79
 1573              		.loc 5 438 0 is_stmt 0 discriminator 1
 1574 0094 FB78     		ldrb	r3, [r7, #3]	@ zero_extendqisi2
 1575 0096 052B     		cmp	r3, #5
 1576 0098 02D0     		beq	.L79
 1577              		.loc 5 438 0 discriminator 2
 1578 009a FB78     		ldrb	r3, [r7, #3]	@ zero_extendqisi2
 1579 009c 072B     		cmp	r3, #7
 1580 009e 09D1     		bne	.L78
 1581              	.L79:
 439:..\..\..\lvgl\version_6.1.2\lvgl\src\lv_objx/lv_list.c ****         lv_page_set_scrl_fit2(list, LV_FIT_TIGHT, LV_FIT_TIGHT);
 1582              		.loc 5 439 0 is_stmt 1
 1583 00a0 0122     		movs	r2, #1
 1584 00a2 0121     		movs	r1, #1
 1585 00a4 7868     		ldr	r0, [r7, #4]
 1586 00a6 FFF7FEFF 		bl	lv_page_set_scrl_fit2
 440:..\..\..\lvgl\version_6.1.2\lvgl\src\lv_objx/lv_list.c ****         lv_cont_set_fit2(list, LV_FIT_NONE, LV_FIT_TIGHT);
 1587              		.loc 5 440 0
 1588 00aa 0122     		movs	r2, #1
 1589 00ac 0021     		movs	r1, #0
 1590 00ae 7868     		ldr	r0, [r7, #4]
 1591 00b0 FFF7FEFF 		bl	lv_cont_set_fit2
 1592              	.L78:
 441:..\..\..\lvgl\version_6.1.2\lvgl\src\lv_objx/lv_list.c ****     }
 442:..\..\..\lvgl\version_6.1.2\lvgl\src\lv_objx/lv_list.c **** 
 443:..\..\..\lvgl\version_6.1.2\lvgl\src\lv_objx/lv_list.c ****     lv_page_set_scrl_layout(list, layout);
 1593              		.loc 5 443 0
 1594 00b4 FB78     		ldrb	r3, [r7, #3]	@ zero_extendqisi2
 1595 00b6 1946     		mov	r1, r3
 1596 00b8 7868     		ldr	r0, [r7, #4]
 1597 00ba FFF7FEFF 		bl	lv_page_set_scrl_layout
 1598 00be 00E0     		b	.L67
 1599              	.L80:
 417:..\..\..\lvgl\version_6.1.2\lvgl\src\lv_objx/lv_list.c **** 
 1600              		.loc 5 417 0
 1601 00c0 00BF     		nop
 1602              	.L67:
 444:..\..\..\lvgl\version_6.1.2\lvgl\src\lv_objx/lv_list.c ****  }
 1603              		.loc 5 444 0
 1604 00c2 1037     		adds	r7, r7, #16
 1605              		.cfi_def_cfa_offset 8
 1606 00c4 BD46     		mov	sp, r7
 1607              		.cfi_def_cfa_register 13
 1608              		@ sp needed
 1609 00c6 80BD     		pop	{r7, pc}
 1610              		.cfi_endproc
 1611              	.LFE75:
 1612              		.size	lv_list_set_layout, .-lv_list_set_layout
 1613              		.section	.text.lv_list_get_single_mode,"ax",%progbits
 1614              		.align	2
 1615              		.global	lv_list_get_single_mode
 1616              		.thumb
 1617              		.thumb_func
 1618              		.type	lv_list_get_single_mode, %function
 1619              	lv_list_get_single_mode:
ARM GAS  C:\Users\tmj32\AppData\Local\Temp\ccUUfkkI.s 			page 54


 1620              	.LFB76:
 445:..\..\..\lvgl\version_6.1.2\lvgl\src\lv_objx/lv_list.c **** 
 446:..\..\..\lvgl\version_6.1.2\lvgl\src\lv_objx/lv_list.c **** /*=====================
 447:..\..\..\lvgl\version_6.1.2\lvgl\src\lv_objx/lv_list.c ****  * Getter functions
 448:..\..\..\lvgl\version_6.1.2\lvgl\src\lv_objx/lv_list.c ****  *====================*/
 449:..\..\..\lvgl\version_6.1.2\lvgl\src\lv_objx/lv_list.c **** 
 450:..\..\..\lvgl\version_6.1.2\lvgl\src\lv_objx/lv_list.c **** /**
 451:..\..\..\lvgl\version_6.1.2\lvgl\src\lv_objx/lv_list.c ****  * Get single button selected mode.
 452:..\..\..\lvgl\version_6.1.2\lvgl\src\lv_objx/lv_list.c ****  * @param list pointer to the currently pressed list object.
 453:..\..\..\lvgl\version_6.1.2\lvgl\src\lv_objx/lv_list.c ****  */
 454:..\..\..\lvgl\version_6.1.2\lvgl\src\lv_objx/lv_list.c **** bool lv_list_get_single_mode(lv_obj_t * list)
 455:..\..\..\lvgl\version_6.1.2\lvgl\src\lv_objx/lv_list.c **** {
 1621              		.loc 5 455 0
 1622              		.cfi_startproc
 1623              		@ args = 0, pretend = 0, frame = 16
 1624              		@ frame_needed = 1, uses_anonymous_args = 0
 1625 0000 80B5     		push	{r7, lr}
 1626              		.cfi_def_cfa_offset 8
 1627              		.cfi_offset 7, -8
 1628              		.cfi_offset 14, -4
 1629 0002 84B0     		sub	sp, sp, #16
 1630              		.cfi_def_cfa_offset 24
 1631 0004 00AF     		add	r7, sp, #0
 1632              		.cfi_def_cfa_register 7
 1633 0006 7860     		str	r0, [r7, #4]
 456:..\..\..\lvgl\version_6.1.2\lvgl\src\lv_objx/lv_list.c ****     LV_ASSERT_OBJ(list, LV_OBJX_NAME);
 457:..\..\..\lvgl\version_6.1.2\lvgl\src\lv_objx/lv_list.c **** 
 458:..\..\..\lvgl\version_6.1.2\lvgl\src\lv_objx/lv_list.c ****     lv_list_ext_t * ext = lv_obj_get_ext_attr(list);
 1634              		.loc 5 458 0
 1635 0008 7868     		ldr	r0, [r7, #4]
 1636 000a FFF7FEFF 		bl	lv_obj_get_ext_attr
 1637 000e F860     		str	r0, [r7, #12]
 459:..\..\..\lvgl\version_6.1.2\lvgl\src\lv_objx/lv_list.c **** 
 460:..\..\..\lvgl\version_6.1.2\lvgl\src\lv_objx/lv_list.c ****     return (ext->single_mode);
 1638              		.loc 5 460 0
 1639 0010 FB68     		ldr	r3, [r7, #12]
 1640 0012 93F84A30 		ldrb	r3, [r3, #74]
 1641 0016 C3F30003 		ubfx	r3, r3, #0, #1
 1642 001a DBB2     		uxtb	r3, r3
 1643 001c 002B     		cmp	r3, #0
 1644 001e 14BF     		ite	ne
 1645 0020 0123     		movne	r3, #1
 1646 0022 0023     		moveq	r3, #0
 1647 0024 DBB2     		uxtb	r3, r3
 461:..\..\..\lvgl\version_6.1.2\lvgl\src\lv_objx/lv_list.c **** }
 1648              		.loc 5 461 0
 1649 0026 1846     		mov	r0, r3
 1650 0028 1037     		adds	r7, r7, #16
 1651              		.cfi_def_cfa_offset 8
 1652 002a BD46     		mov	sp, r7
 1653              		.cfi_def_cfa_register 13
 1654              		@ sp needed
 1655 002c 80BD     		pop	{r7, pc}
 1656              		.cfi_endproc
 1657              	.LFE76:
 1658              		.size	lv_list_get_single_mode, .-lv_list_get_single_mode
 1659 002e 00BF     		.section	.rodata
ARM GAS  C:\Users\tmj32\AppData\Local\Temp\ccUUfkkI.s 			page 55


 1660              		.align	2
 1661              	.LC0:
 1662 0000 00       		.ascii	"\000"
 1663              		.section	.text.lv_list_get_btn_text,"ax",%progbits
 1664              		.align	2
 1665              		.global	lv_list_get_btn_text
 1666              		.thumb
 1667              		.thumb_func
 1668              		.type	lv_list_get_btn_text, %function
 1669              	lv_list_get_btn_text:
 1670              	.LFB77:
 462:..\..\..\lvgl\version_6.1.2\lvgl\src\lv_objx/lv_list.c **** 
 463:..\..\..\lvgl\version_6.1.2\lvgl\src\lv_objx/lv_list.c **** /**
 464:..\..\..\lvgl\version_6.1.2\lvgl\src\lv_objx/lv_list.c ****  * Get the text of a list element
 465:..\..\..\lvgl\version_6.1.2\lvgl\src\lv_objx/lv_list.c ****  * @param btn pointer to list element
 466:..\..\..\lvgl\version_6.1.2\lvgl\src\lv_objx/lv_list.c ****  * @return pointer to the text
 467:..\..\..\lvgl\version_6.1.2\lvgl\src\lv_objx/lv_list.c ****  */
 468:..\..\..\lvgl\version_6.1.2\lvgl\src\lv_objx/lv_list.c **** const char * lv_list_get_btn_text(const lv_obj_t * btn)
 469:..\..\..\lvgl\version_6.1.2\lvgl\src\lv_objx/lv_list.c **** {
 1671              		.loc 5 469 0
 1672              		.cfi_startproc
 1673              		@ args = 0, pretend = 0, frame = 16
 1674              		@ frame_needed = 1, uses_anonymous_args = 0
 1675 0000 80B5     		push	{r7, lr}
 1676              		.cfi_def_cfa_offset 8
 1677              		.cfi_offset 7, -8
 1678              		.cfi_offset 14, -4
 1679 0002 84B0     		sub	sp, sp, #16
 1680              		.cfi_def_cfa_offset 24
 1681 0004 00AF     		add	r7, sp, #0
 1682              		.cfi_def_cfa_register 7
 1683 0006 7860     		str	r0, [r7, #4]
 470:..\..\..\lvgl\version_6.1.2\lvgl\src\lv_objx/lv_list.c ****     LV_ASSERT_OBJ(btn, "lv_btn");
 471:..\..\..\lvgl\version_6.1.2\lvgl\src\lv_objx/lv_list.c **** 
 472:..\..\..\lvgl\version_6.1.2\lvgl\src\lv_objx/lv_list.c ****     lv_obj_t * label = lv_list_get_btn_label(btn);
 1684              		.loc 5 472 0
 1685 0008 7868     		ldr	r0, [r7, #4]
 1686 000a FFF7FEFF 		bl	lv_list_get_btn_label
 1687 000e F860     		str	r0, [r7, #12]
 473:..\..\..\lvgl\version_6.1.2\lvgl\src\lv_objx/lv_list.c ****     if(label == NULL) return "";
 1688              		.loc 5 473 0
 1689 0010 FB68     		ldr	r3, [r7, #12]
 1690 0012 002B     		cmp	r3, #0
 1691 0014 01D1     		bne	.L84
 1692              		.loc 5 473 0 is_stmt 0 discriminator 1
 1693 0016 054B     		ldr	r3, .L86
 1694 0018 03E0     		b	.L85
 1695              	.L84:
 474:..\..\..\lvgl\version_6.1.2\lvgl\src\lv_objx/lv_list.c ****     return lv_label_get_text(label);
 1696              		.loc 5 474 0 is_stmt 1
 1697 001a F868     		ldr	r0, [r7, #12]
 1698 001c FFF7FEFF 		bl	lv_label_get_text
 1699 0020 0346     		mov	r3, r0
 1700              	.L85:
 475:..\..\..\lvgl\version_6.1.2\lvgl\src\lv_objx/lv_list.c **** }
 1701              		.loc 5 475 0
 1702 0022 1846     		mov	r0, r3
ARM GAS  C:\Users\tmj32\AppData\Local\Temp\ccUUfkkI.s 			page 56


 1703 0024 1037     		adds	r7, r7, #16
 1704              		.cfi_def_cfa_offset 8
 1705 0026 BD46     		mov	sp, r7
 1706              		.cfi_def_cfa_register 13
 1707              		@ sp needed
 1708 0028 80BD     		pop	{r7, pc}
 1709              	.L87:
 1710 002a 00BF     		.align	2
 1711              	.L86:
 1712 002c 00000000 		.word	.LC0
 1713              		.cfi_endproc
 1714              	.LFE77:
 1715              		.size	lv_list_get_btn_text, .-lv_list_get_btn_text
 1716              		.section	.text.lv_list_get_btn_label,"ax",%progbits
 1717              		.align	2
 1718              		.global	lv_list_get_btn_label
 1719              		.thumb
 1720              		.thumb_func
 1721              		.type	lv_list_get_btn_label, %function
 1722              	lv_list_get_btn_label:
 1723              	.LFB78:
 476:..\..\..\lvgl\version_6.1.2\lvgl\src\lv_objx/lv_list.c **** 
 477:..\..\..\lvgl\version_6.1.2\lvgl\src\lv_objx/lv_list.c **** /**
 478:..\..\..\lvgl\version_6.1.2\lvgl\src\lv_objx/lv_list.c ****  * Get the label object from a list element
 479:..\..\..\lvgl\version_6.1.2\lvgl\src\lv_objx/lv_list.c ****  * @param btn pointer to a list element (button)
 480:..\..\..\lvgl\version_6.1.2\lvgl\src\lv_objx/lv_list.c ****  * @return pointer to the label from the list element or NULL if not found
 481:..\..\..\lvgl\version_6.1.2\lvgl\src\lv_objx/lv_list.c ****  */
 482:..\..\..\lvgl\version_6.1.2\lvgl\src\lv_objx/lv_list.c **** lv_obj_t * lv_list_get_btn_label(const lv_obj_t * btn)
 483:..\..\..\lvgl\version_6.1.2\lvgl\src\lv_objx/lv_list.c **** {
 1724              		.loc 5 483 0
 1725              		.cfi_startproc
 1726              		@ args = 0, pretend = 0, frame = 16
 1727              		@ frame_needed = 1, uses_anonymous_args = 0
 1728 0000 80B5     		push	{r7, lr}
 1729              		.cfi_def_cfa_offset 8
 1730              		.cfi_offset 7, -8
 1731              		.cfi_offset 14, -4
 1732 0002 84B0     		sub	sp, sp, #16
 1733              		.cfi_def_cfa_offset 24
 1734 0004 00AF     		add	r7, sp, #0
 1735              		.cfi_def_cfa_register 7
 1736 0006 7860     		str	r0, [r7, #4]
 484:..\..\..\lvgl\version_6.1.2\lvgl\src\lv_objx/lv_list.c ****     LV_ASSERT_OBJ(btn, "lv_btn");
 485:..\..\..\lvgl\version_6.1.2\lvgl\src\lv_objx/lv_list.c **** 
 486:..\..\..\lvgl\version_6.1.2\lvgl\src\lv_objx/lv_list.c ****     lv_obj_t * label = lv_obj_get_child(btn, NULL);
 1737              		.loc 5 486 0
 1738 0008 0021     		movs	r1, #0
 1739 000a 7868     		ldr	r0, [r7, #4]
 1740 000c FFF7FEFF 		bl	lv_obj_get_child
 1741 0010 F860     		str	r0, [r7, #12]
 487:..\..\..\lvgl\version_6.1.2\lvgl\src\lv_objx/lv_list.c ****     if(label == NULL) return NULL;
 1742              		.loc 5 487 0
 1743 0012 FB68     		ldr	r3, [r7, #12]
 1744 0014 002B     		cmp	r3, #0
 1745 0016 09D1     		bne	.L91
 1746              		.loc 5 487 0 is_stmt 0 discriminator 1
 1747 0018 0023     		movs	r3, #0
ARM GAS  C:\Users\tmj32\AppData\Local\Temp\ccUUfkkI.s 			page 57


 1748 001a 13E0     		b	.L90
 1749              	.L93:
 488:..\..\..\lvgl\version_6.1.2\lvgl\src\lv_objx/lv_list.c **** 
 489:..\..\..\lvgl\version_6.1.2\lvgl\src\lv_objx/lv_list.c ****     while(lv_list_is_list_label(label) == false) {
 490:..\..\..\lvgl\version_6.1.2\lvgl\src\lv_objx/lv_list.c ****         label = lv_obj_get_child(btn, label);
 1750              		.loc 5 490 0 is_stmt 1
 1751 001c F968     		ldr	r1, [r7, #12]
 1752 001e 7868     		ldr	r0, [r7, #4]
 1753 0020 FFF7FEFF 		bl	lv_obj_get_child
 1754 0024 F860     		str	r0, [r7, #12]
 491:..\..\..\lvgl\version_6.1.2\lvgl\src\lv_objx/lv_list.c ****         if(label == NULL) break;
 1755              		.loc 5 491 0
 1756 0026 FB68     		ldr	r3, [r7, #12]
 1757 0028 002B     		cmp	r3, #0
 1758 002a 09D0     		beq	.L94
 1759              	.L91:
 489:..\..\..\lvgl\version_6.1.2\lvgl\src\lv_objx/lv_list.c ****         label = lv_obj_get_child(btn, label);
 1760              		.loc 5 489 0
 1761 002c F868     		ldr	r0, [r7, #12]
 1762 002e FFF7FEFF 		bl	lv_list_is_list_label
 1763 0032 0346     		mov	r3, r0
 1764 0034 83F00103 		eor	r3, r3, #1
 1765 0038 DBB2     		uxtb	r3, r3
 1766 003a 002B     		cmp	r3, #0
 1767 003c EED1     		bne	.L93
 1768 003e 00E0     		b	.L92
 1769              	.L94:
 1770              		.loc 5 491 0
 1771 0040 00BF     		nop
 1772              	.L92:
 492:..\..\..\lvgl\version_6.1.2\lvgl\src\lv_objx/lv_list.c ****     }
 493:..\..\..\lvgl\version_6.1.2\lvgl\src\lv_objx/lv_list.c **** 
 494:..\..\..\lvgl\version_6.1.2\lvgl\src\lv_objx/lv_list.c ****     return label;
 1773              		.loc 5 494 0
 1774 0042 FB68     		ldr	r3, [r7, #12]
 1775              	.L90:
 495:..\..\..\lvgl\version_6.1.2\lvgl\src\lv_objx/lv_list.c **** }
 1776              		.loc 5 495 0
 1777 0044 1846     		mov	r0, r3
 1778 0046 1037     		adds	r7, r7, #16
 1779              		.cfi_def_cfa_offset 8
 1780 0048 BD46     		mov	sp, r7
 1781              		.cfi_def_cfa_register 13
 1782              		@ sp needed
 1783 004a 80BD     		pop	{r7, pc}
 1784              		.cfi_endproc
 1785              	.LFE78:
 1786              		.size	lv_list_get_btn_label, .-lv_list_get_btn_label
 1787              		.section	.text.lv_list_get_btn_img,"ax",%progbits
 1788              		.align	2
 1789              		.global	lv_list_get_btn_img
 1790              		.thumb
 1791              		.thumb_func
 1792              		.type	lv_list_get_btn_img, %function
 1793              	lv_list_get_btn_img:
 1794              	.LFB79:
 496:..\..\..\lvgl\version_6.1.2\lvgl\src\lv_objx/lv_list.c **** 
ARM GAS  C:\Users\tmj32\AppData\Local\Temp\ccUUfkkI.s 			page 58


 497:..\..\..\lvgl\version_6.1.2\lvgl\src\lv_objx/lv_list.c **** /**
 498:..\..\..\lvgl\version_6.1.2\lvgl\src\lv_objx/lv_list.c ****  * Get the image object from a list element
 499:..\..\..\lvgl\version_6.1.2\lvgl\src\lv_objx/lv_list.c ****  * @param btn pointer to a list element (button)
 500:..\..\..\lvgl\version_6.1.2\lvgl\src\lv_objx/lv_list.c ****  * @return pointer to the image from the list element or NULL if not found
 501:..\..\..\lvgl\version_6.1.2\lvgl\src\lv_objx/lv_list.c ****  */
 502:..\..\..\lvgl\version_6.1.2\lvgl\src\lv_objx/lv_list.c **** lv_obj_t * lv_list_get_btn_img(const lv_obj_t * btn)
 503:..\..\..\lvgl\version_6.1.2\lvgl\src\lv_objx/lv_list.c **** {
 1795              		.loc 5 503 0
 1796              		.cfi_startproc
 1797              		@ args = 0, pretend = 0, frame = 16
 1798              		@ frame_needed = 1, uses_anonymous_args = 0
 1799 0000 80B5     		push	{r7, lr}
 1800              		.cfi_def_cfa_offset 8
 1801              		.cfi_offset 7, -8
 1802              		.cfi_offset 14, -4
 1803 0002 84B0     		sub	sp, sp, #16
 1804              		.cfi_def_cfa_offset 24
 1805 0004 00AF     		add	r7, sp, #0
 1806              		.cfi_def_cfa_register 7
 1807 0006 7860     		str	r0, [r7, #4]
 504:..\..\..\lvgl\version_6.1.2\lvgl\src\lv_objx/lv_list.c ****     LV_ASSERT_OBJ(btn, "lv_btn");
 505:..\..\..\lvgl\version_6.1.2\lvgl\src\lv_objx/lv_list.c **** 
 506:..\..\..\lvgl\version_6.1.2\lvgl\src\lv_objx/lv_list.c **** #if LV_USE_IMG != 0
 507:..\..\..\lvgl\version_6.1.2\lvgl\src\lv_objx/lv_list.c ****     lv_obj_t * img = lv_obj_get_child(btn, NULL);
 1808              		.loc 5 507 0
 1809 0008 0021     		movs	r1, #0
 1810 000a 7868     		ldr	r0, [r7, #4]
 1811 000c FFF7FEFF 		bl	lv_obj_get_child
 1812 0010 F860     		str	r0, [r7, #12]
 508:..\..\..\lvgl\version_6.1.2\lvgl\src\lv_objx/lv_list.c ****     if(img == NULL) return NULL;
 1813              		.loc 5 508 0
 1814 0012 FB68     		ldr	r3, [r7, #12]
 1815 0014 002B     		cmp	r3, #0
 1816 0016 09D1     		bne	.L98
 1817              		.loc 5 508 0 is_stmt 0 discriminator 1
 1818 0018 0023     		movs	r3, #0
 1819 001a 13E0     		b	.L97
 1820              	.L100:
 509:..\..\..\lvgl\version_6.1.2\lvgl\src\lv_objx/lv_list.c **** 
 510:..\..\..\lvgl\version_6.1.2\lvgl\src\lv_objx/lv_list.c ****     while(lv_list_is_list_img(img) == false) {
 511:..\..\..\lvgl\version_6.1.2\lvgl\src\lv_objx/lv_list.c ****         img = lv_obj_get_child(btn, img);
 1821              		.loc 5 511 0 is_stmt 1
 1822 001c F968     		ldr	r1, [r7, #12]
 1823 001e 7868     		ldr	r0, [r7, #4]
 1824 0020 FFF7FEFF 		bl	lv_obj_get_child
 1825 0024 F860     		str	r0, [r7, #12]
 512:..\..\..\lvgl\version_6.1.2\lvgl\src\lv_objx/lv_list.c ****         if(img == NULL) break;
 1826              		.loc 5 512 0
 1827 0026 FB68     		ldr	r3, [r7, #12]
 1828 0028 002B     		cmp	r3, #0
 1829 002a 09D0     		beq	.L101
 1830              	.L98:
 510:..\..\..\lvgl\version_6.1.2\lvgl\src\lv_objx/lv_list.c ****         img = lv_obj_get_child(btn, img);
 1831              		.loc 5 510 0
 1832 002c F868     		ldr	r0, [r7, #12]
 1833 002e FFF7FEFF 		bl	lv_list_is_list_img
 1834 0032 0346     		mov	r3, r0
ARM GAS  C:\Users\tmj32\AppData\Local\Temp\ccUUfkkI.s 			page 59


 1835 0034 83F00103 		eor	r3, r3, #1
 1836 0038 DBB2     		uxtb	r3, r3
 1837 003a 002B     		cmp	r3, #0
 1838 003c EED1     		bne	.L100
 1839 003e 00E0     		b	.L99
 1840              	.L101:
 1841              		.loc 5 512 0
 1842 0040 00BF     		nop
 1843              	.L99:
 513:..\..\..\lvgl\version_6.1.2\lvgl\src\lv_objx/lv_list.c ****     }
 514:..\..\..\lvgl\version_6.1.2\lvgl\src\lv_objx/lv_list.c **** 
 515:..\..\..\lvgl\version_6.1.2\lvgl\src\lv_objx/lv_list.c ****     return img;
 1844              		.loc 5 515 0
 1845 0042 FB68     		ldr	r3, [r7, #12]
 1846              	.L97:
 516:..\..\..\lvgl\version_6.1.2\lvgl\src\lv_objx/lv_list.c **** #else
 517:..\..\..\lvgl\version_6.1.2\lvgl\src\lv_objx/lv_list.c ****     return NULL;
 518:..\..\..\lvgl\version_6.1.2\lvgl\src\lv_objx/lv_list.c **** #endif
 519:..\..\..\lvgl\version_6.1.2\lvgl\src\lv_objx/lv_list.c **** }
 1847              		.loc 5 519 0
 1848 0044 1846     		mov	r0, r3
 1849 0046 1037     		adds	r7, r7, #16
 1850              		.cfi_def_cfa_offset 8
 1851 0048 BD46     		mov	sp, r7
 1852              		.cfi_def_cfa_register 13
 1853              		@ sp needed
 1854 004a 80BD     		pop	{r7, pc}
 1855              		.cfi_endproc
 1856              	.LFE79:
 1857              		.size	lv_list_get_btn_img, .-lv_list_get_btn_img
 1858              		.section	.text.lv_list_get_prev_btn,"ax",%progbits
 1859              		.align	2
 1860              		.global	lv_list_get_prev_btn
 1861              		.thumb
 1862              		.thumb_func
 1863              		.type	lv_list_get_prev_btn, %function
 1864              	lv_list_get_prev_btn:
 1865              	.LFB80:
 520:..\..\..\lvgl\version_6.1.2\lvgl\src\lv_objx/lv_list.c **** 
 521:..\..\..\lvgl\version_6.1.2\lvgl\src\lv_objx/lv_list.c **** /**
 522:..\..\..\lvgl\version_6.1.2\lvgl\src\lv_objx/lv_list.c ****  * Get the previous button from list. (Starts from the bottom button)
 523:..\..\..\lvgl\version_6.1.2\lvgl\src\lv_objx/lv_list.c ****  * @param list pointer to a list object
 524:..\..\..\lvgl\version_6.1.2\lvgl\src\lv_objx/lv_list.c ****  * @param prev_btn pointer to button. Search the previous before it.
 525:..\..\..\lvgl\version_6.1.2\lvgl\src\lv_objx/lv_list.c ****  * @return pointer to the previous button or NULL when no more buttons
 526:..\..\..\lvgl\version_6.1.2\lvgl\src\lv_objx/lv_list.c ****  */
 527:..\..\..\lvgl\version_6.1.2\lvgl\src\lv_objx/lv_list.c **** lv_obj_t * lv_list_get_prev_btn(const lv_obj_t * list, lv_obj_t * prev_btn)
 528:..\..\..\lvgl\version_6.1.2\lvgl\src\lv_objx/lv_list.c **** {
 1866              		.loc 5 528 0
 1867              		.cfi_startproc
 1868              		@ args = 0, pretend = 0, frame = 16
 1869              		@ frame_needed = 1, uses_anonymous_args = 0
 1870 0000 80B5     		push	{r7, lr}
 1871              		.cfi_def_cfa_offset 8
 1872              		.cfi_offset 7, -8
 1873              		.cfi_offset 14, -4
 1874 0002 84B0     		sub	sp, sp, #16
 1875              		.cfi_def_cfa_offset 24
ARM GAS  C:\Users\tmj32\AppData\Local\Temp\ccUUfkkI.s 			page 60


 1876 0004 00AF     		add	r7, sp, #0
 1877              		.cfi_def_cfa_register 7
 1878 0006 7860     		str	r0, [r7, #4]
 1879 0008 3960     		str	r1, [r7]
 529:..\..\..\lvgl\version_6.1.2\lvgl\src\lv_objx/lv_list.c ****     LV_ASSERT_OBJ(list, LV_OBJX_NAME);
 530:..\..\..\lvgl\version_6.1.2\lvgl\src\lv_objx/lv_list.c **** 
 531:..\..\..\lvgl\version_6.1.2\lvgl\src\lv_objx/lv_list.c ****     /* Not a good practice but user can add/create objects to the lists manually.
 532:..\..\..\lvgl\version_6.1.2\lvgl\src\lv_objx/lv_list.c ****      * When getting the next button try to be sure that it is at least a button */
 533:..\..\..\lvgl\version_6.1.2\lvgl\src\lv_objx/lv_list.c **** 
 534:..\..\..\lvgl\version_6.1.2\lvgl\src\lv_objx/lv_list.c ****     lv_obj_t * btn;
 535:..\..\..\lvgl\version_6.1.2\lvgl\src\lv_objx/lv_list.c ****     lv_obj_t * scrl = lv_page_get_scrl(list);
 1880              		.loc 5 535 0
 1881 000a 7868     		ldr	r0, [r7, #4]
 1882 000c FFF7FEFF 		bl	lv_page_get_scrl
 1883 0010 B860     		str	r0, [r7, #8]
 536:..\..\..\lvgl\version_6.1.2\lvgl\src\lv_objx/lv_list.c **** 
 537:..\..\..\lvgl\version_6.1.2\lvgl\src\lv_objx/lv_list.c ****     btn = lv_obj_get_child(scrl, prev_btn);
 1884              		.loc 5 537 0
 1885 0012 3968     		ldr	r1, [r7]
 1886 0014 B868     		ldr	r0, [r7, #8]
 1887 0016 FFF7FEFF 		bl	lv_obj_get_child
 1888 001a F860     		str	r0, [r7, #12]
 538:..\..\..\lvgl\version_6.1.2\lvgl\src\lv_objx/lv_list.c ****     if(btn == NULL) return NULL;
 1889              		.loc 5 538 0
 1890 001c FB68     		ldr	r3, [r7, #12]
 1891 001e 002B     		cmp	r3, #0
 1892 0020 09D1     		bne	.L105
 1893              		.loc 5 538 0 is_stmt 0 discriminator 1
 1894 0022 0023     		movs	r3, #0
 1895 0024 13E0     		b	.L104
 1896              	.L107:
 539:..\..\..\lvgl\version_6.1.2\lvgl\src\lv_objx/lv_list.c **** 
 540:..\..\..\lvgl\version_6.1.2\lvgl\src\lv_objx/lv_list.c ****     while(lv_list_is_list_btn(btn) == false) {
 541:..\..\..\lvgl\version_6.1.2\lvgl\src\lv_objx/lv_list.c ****         btn = lv_obj_get_child(scrl, btn);
 1897              		.loc 5 541 0 is_stmt 1
 1898 0026 F968     		ldr	r1, [r7, #12]
 1899 0028 B868     		ldr	r0, [r7, #8]
 1900 002a FFF7FEFF 		bl	lv_obj_get_child
 1901 002e F860     		str	r0, [r7, #12]
 542:..\..\..\lvgl\version_6.1.2\lvgl\src\lv_objx/lv_list.c ****         if(btn == NULL) break;
 1902              		.loc 5 542 0
 1903 0030 FB68     		ldr	r3, [r7, #12]
 1904 0032 002B     		cmp	r3, #0
 1905 0034 09D0     		beq	.L108
 1906              	.L105:
 540:..\..\..\lvgl\version_6.1.2\lvgl\src\lv_objx/lv_list.c ****         btn = lv_obj_get_child(scrl, btn);
 1907              		.loc 5 540 0
 1908 0036 F868     		ldr	r0, [r7, #12]
 1909 0038 FFF7FEFF 		bl	lv_list_is_list_btn
 1910 003c 0346     		mov	r3, r0
 1911 003e 83F00103 		eor	r3, r3, #1
 1912 0042 DBB2     		uxtb	r3, r3
 1913 0044 002B     		cmp	r3, #0
 1914 0046 EED1     		bne	.L107
 1915 0048 00E0     		b	.L106
 1916              	.L108:
 1917              		.loc 5 542 0
ARM GAS  C:\Users\tmj32\AppData\Local\Temp\ccUUfkkI.s 			page 61


 1918 004a 00BF     		nop
 1919              	.L106:
 543:..\..\..\lvgl\version_6.1.2\lvgl\src\lv_objx/lv_list.c ****     }
 544:..\..\..\lvgl\version_6.1.2\lvgl\src\lv_objx/lv_list.c **** 
 545:..\..\..\lvgl\version_6.1.2\lvgl\src\lv_objx/lv_list.c ****     return btn;
 1920              		.loc 5 545 0
 1921 004c FB68     		ldr	r3, [r7, #12]
 1922              	.L104:
 546:..\..\..\lvgl\version_6.1.2\lvgl\src\lv_objx/lv_list.c **** }
 1923              		.loc 5 546 0
 1924 004e 1846     		mov	r0, r3
 1925 0050 1037     		adds	r7, r7, #16
 1926              		.cfi_def_cfa_offset 8
 1927 0052 BD46     		mov	sp, r7
 1928              		.cfi_def_cfa_register 13
 1929              		@ sp needed
 1930 0054 80BD     		pop	{r7, pc}
 1931              		.cfi_endproc
 1932              	.LFE80:
 1933              		.size	lv_list_get_prev_btn, .-lv_list_get_prev_btn
 1934 0056 00BF     		.section	.text.lv_list_get_next_btn,"ax",%progbits
 1935              		.align	2
 1936              		.global	lv_list_get_next_btn
 1937              		.thumb
 1938              		.thumb_func
 1939              		.type	lv_list_get_next_btn, %function
 1940              	lv_list_get_next_btn:
 1941              	.LFB81:
 547:..\..\..\lvgl\version_6.1.2\lvgl\src\lv_objx/lv_list.c **** 
 548:..\..\..\lvgl\version_6.1.2\lvgl\src\lv_objx/lv_list.c **** /**
 549:..\..\..\lvgl\version_6.1.2\lvgl\src\lv_objx/lv_list.c ****  * Get the next button from list. (Starts from the top button)
 550:..\..\..\lvgl\version_6.1.2\lvgl\src\lv_objx/lv_list.c ****  * @param list pointer to a list object
 551:..\..\..\lvgl\version_6.1.2\lvgl\src\lv_objx/lv_list.c ****  * @param prev_btn pointer to button. Search the next after it.
 552:..\..\..\lvgl\version_6.1.2\lvgl\src\lv_objx/lv_list.c ****  * @return pointer to the next button or NULL when no more buttons
 553:..\..\..\lvgl\version_6.1.2\lvgl\src\lv_objx/lv_list.c ****  */
 554:..\..\..\lvgl\version_6.1.2\lvgl\src\lv_objx/lv_list.c **** lv_obj_t * lv_list_get_next_btn(const lv_obj_t * list, lv_obj_t * prev_btn)
 555:..\..\..\lvgl\version_6.1.2\lvgl\src\lv_objx/lv_list.c **** {
 1942              		.loc 5 555 0
 1943              		.cfi_startproc
 1944              		@ args = 0, pretend = 0, frame = 16
 1945              		@ frame_needed = 1, uses_anonymous_args = 0
 1946 0000 80B5     		push	{r7, lr}
 1947              		.cfi_def_cfa_offset 8
 1948              		.cfi_offset 7, -8
 1949              		.cfi_offset 14, -4
 1950 0002 84B0     		sub	sp, sp, #16
 1951              		.cfi_def_cfa_offset 24
 1952 0004 00AF     		add	r7, sp, #0
 1953              		.cfi_def_cfa_register 7
 1954 0006 7860     		str	r0, [r7, #4]
 1955 0008 3960     		str	r1, [r7]
 556:..\..\..\lvgl\version_6.1.2\lvgl\src\lv_objx/lv_list.c ****     LV_ASSERT_OBJ(list, LV_OBJX_NAME);
 557:..\..\..\lvgl\version_6.1.2\lvgl\src\lv_objx/lv_list.c **** 
 558:..\..\..\lvgl\version_6.1.2\lvgl\src\lv_objx/lv_list.c ****     /* Not a good practice but user can add/create objects to the lists manually.
 559:..\..\..\lvgl\version_6.1.2\lvgl\src\lv_objx/lv_list.c ****      * When getting the next button try to be sure that it is at least a button */
 560:..\..\..\lvgl\version_6.1.2\lvgl\src\lv_objx/lv_list.c **** 
 561:..\..\..\lvgl\version_6.1.2\lvgl\src\lv_objx/lv_list.c ****     lv_obj_t * btn;
ARM GAS  C:\Users\tmj32\AppData\Local\Temp\ccUUfkkI.s 			page 62


 562:..\..\..\lvgl\version_6.1.2\lvgl\src\lv_objx/lv_list.c ****     lv_obj_t * scrl = lv_page_get_scrl(list);
 1956              		.loc 5 562 0
 1957 000a 7868     		ldr	r0, [r7, #4]
 1958 000c FFF7FEFF 		bl	lv_page_get_scrl
 1959 0010 B860     		str	r0, [r7, #8]
 563:..\..\..\lvgl\version_6.1.2\lvgl\src\lv_objx/lv_list.c **** 
 564:..\..\..\lvgl\version_6.1.2\lvgl\src\lv_objx/lv_list.c ****     btn = lv_obj_get_child_back(scrl, prev_btn);
 1960              		.loc 5 564 0
 1961 0012 3968     		ldr	r1, [r7]
 1962 0014 B868     		ldr	r0, [r7, #8]
 1963 0016 FFF7FEFF 		bl	lv_obj_get_child_back
 1964 001a F860     		str	r0, [r7, #12]
 565:..\..\..\lvgl\version_6.1.2\lvgl\src\lv_objx/lv_list.c ****     if(btn == NULL) return NULL;
 1965              		.loc 5 565 0
 1966 001c FB68     		ldr	r3, [r7, #12]
 1967 001e 002B     		cmp	r3, #0
 1968 0020 09D1     		bne	.L112
 1969              		.loc 5 565 0 is_stmt 0 discriminator 1
 1970 0022 0023     		movs	r3, #0
 1971 0024 13E0     		b	.L111
 1972              	.L114:
 566:..\..\..\lvgl\version_6.1.2\lvgl\src\lv_objx/lv_list.c **** 
 567:..\..\..\lvgl\version_6.1.2\lvgl\src\lv_objx/lv_list.c ****     while(lv_list_is_list_btn(btn) == false) {
 568:..\..\..\lvgl\version_6.1.2\lvgl\src\lv_objx/lv_list.c ****         btn = lv_obj_get_child_back(scrl, btn);
 1973              		.loc 5 568 0 is_stmt 1
 1974 0026 F968     		ldr	r1, [r7, #12]
 1975 0028 B868     		ldr	r0, [r7, #8]
 1976 002a FFF7FEFF 		bl	lv_obj_get_child_back
 1977 002e F860     		str	r0, [r7, #12]
 569:..\..\..\lvgl\version_6.1.2\lvgl\src\lv_objx/lv_list.c ****         if(btn == NULL) break;
 1978              		.loc 5 569 0
 1979 0030 FB68     		ldr	r3, [r7, #12]
 1980 0032 002B     		cmp	r3, #0
 1981 0034 09D0     		beq	.L115
 1982              	.L112:
 567:..\..\..\lvgl\version_6.1.2\lvgl\src\lv_objx/lv_list.c ****         btn = lv_obj_get_child_back(scrl, btn);
 1983              		.loc 5 567 0
 1984 0036 F868     		ldr	r0, [r7, #12]
 1985 0038 FFF7FEFF 		bl	lv_list_is_list_btn
 1986 003c 0346     		mov	r3, r0
 1987 003e 83F00103 		eor	r3, r3, #1
 1988 0042 DBB2     		uxtb	r3, r3
 1989 0044 002B     		cmp	r3, #0
 1990 0046 EED1     		bne	.L114
 1991 0048 00E0     		b	.L113
 1992              	.L115:
 1993              		.loc 5 569 0
 1994 004a 00BF     		nop
 1995              	.L113:
 570:..\..\..\lvgl\version_6.1.2\lvgl\src\lv_objx/lv_list.c ****     }
 571:..\..\..\lvgl\version_6.1.2\lvgl\src\lv_objx/lv_list.c **** 
 572:..\..\..\lvgl\version_6.1.2\lvgl\src\lv_objx/lv_list.c ****     return btn;
 1996              		.loc 5 572 0
 1997 004c FB68     		ldr	r3, [r7, #12]
 1998              	.L111:
 573:..\..\..\lvgl\version_6.1.2\lvgl\src\lv_objx/lv_list.c **** }
 1999              		.loc 5 573 0
ARM GAS  C:\Users\tmj32\AppData\Local\Temp\ccUUfkkI.s 			page 63


 2000 004e 1846     		mov	r0, r3
 2001 0050 1037     		adds	r7, r7, #16
 2002              		.cfi_def_cfa_offset 8
 2003 0052 BD46     		mov	sp, r7
 2004              		.cfi_def_cfa_register 13
 2005              		@ sp needed
 2006 0054 80BD     		pop	{r7, pc}
 2007              		.cfi_endproc
 2008              	.LFE81:
 2009              		.size	lv_list_get_next_btn, .-lv_list_get_next_btn
 2010 0056 00BF     		.section	.text.lv_list_get_btn_index,"ax",%progbits
 2011              		.align	2
 2012              		.global	lv_list_get_btn_index
 2013              		.thumb
 2014              		.thumb_func
 2015              		.type	lv_list_get_btn_index, %function
 2016              	lv_list_get_btn_index:
 2017              	.LFB82:
 574:..\..\..\lvgl\version_6.1.2\lvgl\src\lv_objx/lv_list.c **** 
 575:..\..\..\lvgl\version_6.1.2\lvgl\src\lv_objx/lv_list.c **** /**
 576:..\..\..\lvgl\version_6.1.2\lvgl\src\lv_objx/lv_list.c ****  * Get the index of the button in the list
 577:..\..\..\lvgl\version_6.1.2\lvgl\src\lv_objx/lv_list.c ****  * @param list pointer to a list object. If NULL, assumes btn is part of a list.
 578:..\..\..\lvgl\version_6.1.2\lvgl\src\lv_objx/lv_list.c ****  * @param btn pointer to a list element (button)
 579:..\..\..\lvgl\version_6.1.2\lvgl\src\lv_objx/lv_list.c ****  * @return the index of the button in the list, or -1 of the button not in this list
 580:..\..\..\lvgl\version_6.1.2\lvgl\src\lv_objx/lv_list.c ****  */
 581:..\..\..\lvgl\version_6.1.2\lvgl\src\lv_objx/lv_list.c **** int32_t lv_list_get_btn_index(const lv_obj_t * list, const lv_obj_t * btn)
 582:..\..\..\lvgl\version_6.1.2\lvgl\src\lv_objx/lv_list.c **** {
 2018              		.loc 5 582 0
 2019              		.cfi_startproc
 2020              		@ args = 0, pretend = 0, frame = 16
 2021              		@ frame_needed = 1, uses_anonymous_args = 0
 2022 0000 80B5     		push	{r7, lr}
 2023              		.cfi_def_cfa_offset 8
 2024              		.cfi_offset 7, -8
 2025              		.cfi_offset 14, -4
 2026 0002 84B0     		sub	sp, sp, #16
 2027              		.cfi_def_cfa_offset 24
 2028 0004 00AF     		add	r7, sp, #0
 2029              		.cfi_def_cfa_register 7
 2030 0006 7860     		str	r0, [r7, #4]
 2031 0008 3960     		str	r1, [r7]
 583:..\..\..\lvgl\version_6.1.2\lvgl\src\lv_objx/lv_list.c ****     LV_ASSERT_OBJ(list, LV_OBJX_NAME);
 584:..\..\..\lvgl\version_6.1.2\lvgl\src\lv_objx/lv_list.c ****     LV_ASSERT_OBJ(btn, "lv_btn");
 585:..\..\..\lvgl\version_6.1.2\lvgl\src\lv_objx/lv_list.c **** 
 586:..\..\..\lvgl\version_6.1.2\lvgl\src\lv_objx/lv_list.c ****     int index = 0;
 2032              		.loc 5 586 0
 2033 000a 0023     		movs	r3, #0
 2034 000c FB60     		str	r3, [r7, #12]
 587:..\..\..\lvgl\version_6.1.2\lvgl\src\lv_objx/lv_list.c ****     if(list == NULL) {
 2035              		.loc 5 587 0
 2036 000e 7B68     		ldr	r3, [r7, #4]
 2037 0010 002B     		cmp	r3, #0
 2038 0012 07D1     		bne	.L117
 588:..\..\..\lvgl\version_6.1.2\lvgl\src\lv_objx/lv_list.c ****         /* no list provided, assuming btn is part of a list */
 589:..\..\..\lvgl\version_6.1.2\lvgl\src\lv_objx/lv_list.c ****         list = lv_obj_get_parent(lv_obj_get_parent(btn));
 2039              		.loc 5 589 0
 2040 0014 3868     		ldr	r0, [r7]
ARM GAS  C:\Users\tmj32\AppData\Local\Temp\ccUUfkkI.s 			page 64


 2041 0016 FFF7FEFF 		bl	lv_obj_get_parent
 2042 001a 0346     		mov	r3, r0
 2043 001c 1846     		mov	r0, r3
 2044 001e FFF7FEFF 		bl	lv_obj_get_parent
 2045 0022 7860     		str	r0, [r7, #4]
 2046              	.L117:
 590:..\..\..\lvgl\version_6.1.2\lvgl\src\lv_objx/lv_list.c ****     }
 591:..\..\..\lvgl\version_6.1.2\lvgl\src\lv_objx/lv_list.c ****     lv_obj_t * e = lv_list_get_next_btn(list, NULL);
 2047              		.loc 5 591 0
 2048 0024 0021     		movs	r1, #0
 2049 0026 7868     		ldr	r0, [r7, #4]
 2050 0028 FFF7FEFF 		bl	lv_list_get_next_btn
 2051 002c B860     		str	r0, [r7, #8]
 592:..\..\..\lvgl\version_6.1.2\lvgl\src\lv_objx/lv_list.c ****     while(e != NULL) {
 2052              		.loc 5 592 0
 2053 002e 0DE0     		b	.L118
 2054              	.L121:
 593:..\..\..\lvgl\version_6.1.2\lvgl\src\lv_objx/lv_list.c ****         if(e == btn) {
 2055              		.loc 5 593 0
 2056 0030 BA68     		ldr	r2, [r7, #8]
 2057 0032 3B68     		ldr	r3, [r7]
 2058 0034 9A42     		cmp	r2, r3
 2059 0036 01D1     		bne	.L119
 594:..\..\..\lvgl\version_6.1.2\lvgl\src\lv_objx/lv_list.c ****             return index;
 2060              		.loc 5 594 0
 2061 0038 FB68     		ldr	r3, [r7, #12]
 2062 003a 0CE0     		b	.L120
 2063              	.L119:
 595:..\..\..\lvgl\version_6.1.2\lvgl\src\lv_objx/lv_list.c ****         }
 596:..\..\..\lvgl\version_6.1.2\lvgl\src\lv_objx/lv_list.c ****         index++;
 2064              		.loc 5 596 0
 2065 003c FB68     		ldr	r3, [r7, #12]
 2066 003e 0133     		adds	r3, r3, #1
 2067 0040 FB60     		str	r3, [r7, #12]
 597:..\..\..\lvgl\version_6.1.2\lvgl\src\lv_objx/lv_list.c ****         e = lv_list_get_next_btn(list, e);
 2068              		.loc 5 597 0
 2069 0042 B968     		ldr	r1, [r7, #8]
 2070 0044 7868     		ldr	r0, [r7, #4]
 2071 0046 FFF7FEFF 		bl	lv_list_get_next_btn
 2072 004a B860     		str	r0, [r7, #8]
 2073              	.L118:
 592:..\..\..\lvgl\version_6.1.2\lvgl\src\lv_objx/lv_list.c ****         if(e == btn) {
 2074              		.loc 5 592 0
 2075 004c BB68     		ldr	r3, [r7, #8]
 2076 004e 002B     		cmp	r3, #0
 2077 0050 EED1     		bne	.L121
 598:..\..\..\lvgl\version_6.1.2\lvgl\src\lv_objx/lv_list.c ****     }
 599:..\..\..\lvgl\version_6.1.2\lvgl\src\lv_objx/lv_list.c ****     return -1;
 2078              		.loc 5 599 0
 2079 0052 4FF0FF33 		mov	r3, #-1
 2080              	.L120:
 600:..\..\..\lvgl\version_6.1.2\lvgl\src\lv_objx/lv_list.c **** }
 2081              		.loc 5 600 0
 2082 0056 1846     		mov	r0, r3
 2083 0058 1037     		adds	r7, r7, #16
 2084              		.cfi_def_cfa_offset 8
 2085 005a BD46     		mov	sp, r7
ARM GAS  C:\Users\tmj32\AppData\Local\Temp\ccUUfkkI.s 			page 65


 2086              		.cfi_def_cfa_register 13
 2087              		@ sp needed
 2088 005c 80BD     		pop	{r7, pc}
 2089              		.cfi_endproc
 2090              	.LFE82:
 2091              		.size	lv_list_get_btn_index, .-lv_list_get_btn_index
 2092 005e 00BF     		.section	.text.lv_list_get_size,"ax",%progbits
 2093              		.align	2
 2094              		.global	lv_list_get_size
 2095              		.thumb
 2096              		.thumb_func
 2097              		.type	lv_list_get_size, %function
 2098              	lv_list_get_size:
 2099              	.LFB83:
 601:..\..\..\lvgl\version_6.1.2\lvgl\src\lv_objx/lv_list.c **** 
 602:..\..\..\lvgl\version_6.1.2\lvgl\src\lv_objx/lv_list.c **** /**
 603:..\..\..\lvgl\version_6.1.2\lvgl\src\lv_objx/lv_list.c ****  * Get the number of buttons in the list
 604:..\..\..\lvgl\version_6.1.2\lvgl\src\lv_objx/lv_list.c ****  * @param list pointer to a list object
 605:..\..\..\lvgl\version_6.1.2\lvgl\src\lv_objx/lv_list.c ****  * @return the number of buttons in the list
 606:..\..\..\lvgl\version_6.1.2\lvgl\src\lv_objx/lv_list.c ****  */
 607:..\..\..\lvgl\version_6.1.2\lvgl\src\lv_objx/lv_list.c **** uint16_t lv_list_get_size(const lv_obj_t * list)
 608:..\..\..\lvgl\version_6.1.2\lvgl\src\lv_objx/lv_list.c **** {
 2100              		.loc 5 608 0
 2101              		.cfi_startproc
 2102              		@ args = 0, pretend = 0, frame = 16
 2103              		@ frame_needed = 1, uses_anonymous_args = 0
 2104 0000 80B5     		push	{r7, lr}
 2105              		.cfi_def_cfa_offset 8
 2106              		.cfi_offset 7, -8
 2107              		.cfi_offset 14, -4
 2108 0002 84B0     		sub	sp, sp, #16
 2109              		.cfi_def_cfa_offset 24
 2110 0004 00AF     		add	r7, sp, #0
 2111              		.cfi_def_cfa_register 7
 2112 0006 7860     		str	r0, [r7, #4]
 609:..\..\..\lvgl\version_6.1.2\lvgl\src\lv_objx/lv_list.c ****     LV_ASSERT_OBJ(list, LV_OBJX_NAME);
 610:..\..\..\lvgl\version_6.1.2\lvgl\src\lv_objx/lv_list.c **** 
 611:..\..\..\lvgl\version_6.1.2\lvgl\src\lv_objx/lv_list.c ****     lv_list_ext_t * ext = lv_obj_get_ext_attr(list);
 2113              		.loc 5 611 0
 2114 0008 7868     		ldr	r0, [r7, #4]
 2115 000a FFF7FEFF 		bl	lv_obj_get_ext_attr
 2116 000e F860     		str	r0, [r7, #12]
 612:..\..\..\lvgl\version_6.1.2\lvgl\src\lv_objx/lv_list.c ****     return ext->size;
 2117              		.loc 5 612 0
 2118 0010 FB68     		ldr	r3, [r7, #12]
 2119 0012 B3F84830 		ldrh	r3, [r3, #72]
 613:..\..\..\lvgl\version_6.1.2\lvgl\src\lv_objx/lv_list.c **** }
 2120              		.loc 5 613 0
 2121 0016 1846     		mov	r0, r3
 2122 0018 1037     		adds	r7, r7, #16
 2123              		.cfi_def_cfa_offset 8
 2124 001a BD46     		mov	sp, r7
 2125              		.cfi_def_cfa_register 13
 2126              		@ sp needed
 2127 001c 80BD     		pop	{r7, pc}
 2128              		.cfi_endproc
 2129              	.LFE83:
ARM GAS  C:\Users\tmj32\AppData\Local\Temp\ccUUfkkI.s 			page 66


 2130              		.size	lv_list_get_size, .-lv_list_get_size
 2131 001e 00BF     		.section	.text.lv_list_get_layout,"ax",%progbits
 2132              		.align	2
 2133              		.global	lv_list_get_layout
 2134              		.thumb
 2135              		.thumb_func
 2136              		.type	lv_list_get_layout, %function
 2137              	lv_list_get_layout:
 2138              	.LFB84:
 614:..\..\..\lvgl\version_6.1.2\lvgl\src\lv_objx/lv_list.c **** 
 615:..\..\..\lvgl\version_6.1.2\lvgl\src\lv_objx/lv_list.c **** #if LV_USE_GROUP
 616:..\..\..\lvgl\version_6.1.2\lvgl\src\lv_objx/lv_list.c **** /**
 617:..\..\..\lvgl\version_6.1.2\lvgl\src\lv_objx/lv_list.c ****  * Get the currently selected button
 618:..\..\..\lvgl\version_6.1.2\lvgl\src\lv_objx/lv_list.c ****  * @param list pointer to a list object
 619:..\..\..\lvgl\version_6.1.2\lvgl\src\lv_objx/lv_list.c ****  * @return pointer to the selected button
 620:..\..\..\lvgl\version_6.1.2\lvgl\src\lv_objx/lv_list.c ****  */
 621:..\..\..\lvgl\version_6.1.2\lvgl\src\lv_objx/lv_list.c **** lv_obj_t * lv_list_get_btn_selected(const lv_obj_t * list)
 622:..\..\..\lvgl\version_6.1.2\lvgl\src\lv_objx/lv_list.c **** {
 623:..\..\..\lvgl\version_6.1.2\lvgl\src\lv_objx/lv_list.c ****     LV_ASSERT_OBJ(list, LV_OBJX_NAME);
 624:..\..\..\lvgl\version_6.1.2\lvgl\src\lv_objx/lv_list.c **** 
 625:..\..\..\lvgl\version_6.1.2\lvgl\src\lv_objx/lv_list.c ****     lv_list_ext_t * ext = lv_obj_get_ext_attr(list);
 626:..\..\..\lvgl\version_6.1.2\lvgl\src\lv_objx/lv_list.c ****     return ext->selected_btn;
 627:..\..\..\lvgl\version_6.1.2\lvgl\src\lv_objx/lv_list.c **** }
 628:..\..\..\lvgl\version_6.1.2\lvgl\src\lv_objx/lv_list.c **** #endif
 629:..\..\..\lvgl\version_6.1.2\lvgl\src\lv_objx/lv_list.c **** 
 630:..\..\..\lvgl\version_6.1.2\lvgl\src\lv_objx/lv_list.c **** /**
 631:..\..\..\lvgl\version_6.1.2\lvgl\src\lv_objx/lv_list.c ****  * Get layout of a list
 632:..\..\..\lvgl\version_6.1.2\lvgl\src\lv_objx/lv_list.c ****  * @param list pointer to a list object
 633:..\..\..\lvgl\version_6.1.2\lvgl\src\lv_objx/lv_list.c ****  * @return layout of the list object
 634:..\..\..\lvgl\version_6.1.2\lvgl\src\lv_objx/lv_list.c ****  */
 635:..\..\..\lvgl\version_6.1.2\lvgl\src\lv_objx/lv_list.c **** lv_layout_t lv_list_get_layout(lv_obj_t * list)
 636:..\..\..\lvgl\version_6.1.2\lvgl\src\lv_objx/lv_list.c **** {
 2139              		.loc 5 636 0
 2140              		.cfi_startproc
 2141              		@ args = 0, pretend = 0, frame = 8
 2142              		@ frame_needed = 1, uses_anonymous_args = 0
 2143 0000 80B5     		push	{r7, lr}
 2144              		.cfi_def_cfa_offset 8
 2145              		.cfi_offset 7, -8
 2146              		.cfi_offset 14, -4
 2147 0002 82B0     		sub	sp, sp, #8
 2148              		.cfi_def_cfa_offset 16
 2149 0004 00AF     		add	r7, sp, #0
 2150              		.cfi_def_cfa_register 7
 2151 0006 7860     		str	r0, [r7, #4]
 637:..\..\..\lvgl\version_6.1.2\lvgl\src\lv_objx/lv_list.c ****     LV_ASSERT_OBJ(list, LV_OBJX_NAME);
 638:..\..\..\lvgl\version_6.1.2\lvgl\src\lv_objx/lv_list.c **** 
 639:..\..\..\lvgl\version_6.1.2\lvgl\src\lv_objx/lv_list.c ****     return lv_page_get_scrl_layout(list);
 2152              		.loc 5 639 0
 2153 0008 7868     		ldr	r0, [r7, #4]
 2154 000a FFF7FEFF 		bl	lv_page_get_scrl_layout
 2155 000e 0346     		mov	r3, r0
 640:..\..\..\lvgl\version_6.1.2\lvgl\src\lv_objx/lv_list.c **** }
 2156              		.loc 5 640 0
 2157 0010 1846     		mov	r0, r3
 2158 0012 0837     		adds	r7, r7, #8
 2159              		.cfi_def_cfa_offset 8
ARM GAS  C:\Users\tmj32\AppData\Local\Temp\ccUUfkkI.s 			page 67


 2160 0014 BD46     		mov	sp, r7
 2161              		.cfi_def_cfa_register 13
 2162              		@ sp needed
 2163 0016 80BD     		pop	{r7, pc}
 2164              		.cfi_endproc
 2165              	.LFE84:
 2166              		.size	lv_list_get_layout, .-lv_list_get_layout
 2167              		.section	.text.lv_list_get_style,"ax",%progbits
 2168              		.align	2
 2169              		.global	lv_list_get_style
 2170              		.thumb
 2171              		.thumb_func
 2172              		.type	lv_list_get_style, %function
 2173              	lv_list_get_style:
 2174              	.LFB85:
 641:..\..\..\lvgl\version_6.1.2\lvgl\src\lv_objx/lv_list.c **** 
 642:..\..\..\lvgl\version_6.1.2\lvgl\src\lv_objx/lv_list.c **** /**
 643:..\..\..\lvgl\version_6.1.2\lvgl\src\lv_objx/lv_list.c ****  * Get a style of a list
 644:..\..\..\lvgl\version_6.1.2\lvgl\src\lv_objx/lv_list.c ****  * @param list pointer to a list object
 645:..\..\..\lvgl\version_6.1.2\lvgl\src\lv_objx/lv_list.c ****  * @param type which style should be get
 646:..\..\..\lvgl\version_6.1.2\lvgl\src\lv_objx/lv_list.c ****  * @return style pointer to a style
 647:..\..\..\lvgl\version_6.1.2\lvgl\src\lv_objx/lv_list.c ****  */
 648:..\..\..\lvgl\version_6.1.2\lvgl\src\lv_objx/lv_list.c **** const lv_style_t * lv_list_get_style(const lv_obj_t * list, lv_list_style_t type)
 649:..\..\..\lvgl\version_6.1.2\lvgl\src\lv_objx/lv_list.c **** {
 2175              		.loc 5 649 0
 2176              		.cfi_startproc
 2177              		@ args = 0, pretend = 0, frame = 16
 2178              		@ frame_needed = 1, uses_anonymous_args = 0
 2179 0000 80B5     		push	{r7, lr}
 2180              		.cfi_def_cfa_offset 8
 2181              		.cfi_offset 7, -8
 2182              		.cfi_offset 14, -4
 2183 0002 84B0     		sub	sp, sp, #16
 2184              		.cfi_def_cfa_offset 24
 2185 0004 00AF     		add	r7, sp, #0
 2186              		.cfi_def_cfa_register 7
 2187 0006 7860     		str	r0, [r7, #4]
 2188 0008 0B46     		mov	r3, r1
 2189 000a FB70     		strb	r3, [r7, #3]
 650:..\..\..\lvgl\version_6.1.2\lvgl\src\lv_objx/lv_list.c ****     LV_ASSERT_OBJ(list, LV_OBJX_NAME);
 651:..\..\..\lvgl\version_6.1.2\lvgl\src\lv_objx/lv_list.c **** 
 652:..\..\..\lvgl\version_6.1.2\lvgl\src\lv_objx/lv_list.c ****     const lv_style_t * style = NULL;
 2190              		.loc 5 652 0
 2191 000c 0023     		movs	r3, #0
 2192 000e FB60     		str	r3, [r7, #12]
 653:..\..\..\lvgl\version_6.1.2\lvgl\src\lv_objx/lv_list.c ****     lv_list_ext_t * ext      = lv_obj_get_ext_attr(list);
 2193              		.loc 5 653 0
 2194 0010 7868     		ldr	r0, [r7, #4]
 2195 0012 FFF7FEFF 		bl	lv_obj_get_ext_attr
 2196 0016 B860     		str	r0, [r7, #8]
 654:..\..\..\lvgl\version_6.1.2\lvgl\src\lv_objx/lv_list.c **** 
 655:..\..\..\lvgl\version_6.1.2\lvgl\src\lv_objx/lv_list.c ****     switch(type) {
 2197              		.loc 5 655 0
 2198 0018 FB78     		ldrb	r3, [r7, #3]	@ zero_extendqisi2
 2199 001a 082B     		cmp	r3, #8
 2200 001c 40D8     		bhi	.L127
 2201 001e 01A2     		adr	r2, .L129
ARM GAS  C:\Users\tmj32\AppData\Local\Temp\ccUUfkkI.s 			page 68


 2202 0020 52F823F0 		ldr	pc, [r2, r3, lsl #2]
 2203              		.p2align 2
 2204              	.L129:
 2205 0024 49000000 		.word	.L128+1
 2206 0028 55000000 		.word	.L130+1
 2207 002c 61000000 		.word	.L131+1
 2208 0030 6D000000 		.word	.L132+1
 2209 0034 79000000 		.word	.L133+1
 2210 0038 81000000 		.word	.L134+1
 2211 003c 89000000 		.word	.L135+1
 2212 0040 91000000 		.word	.L136+1
 2213 0044 99000000 		.word	.L137+1
 2214              		.p2align 1
 2215              	.L128:
 656:..\..\..\lvgl\version_6.1.2\lvgl\src\lv_objx/lv_list.c ****         case LV_LIST_STYLE_BG: style = lv_page_get_style(list, LV_PAGE_STYLE_BG); break;
 2216              		.loc 5 656 0
 2217 0048 0021     		movs	r1, #0
 2218 004a 7868     		ldr	r0, [r7, #4]
 2219 004c FFF7FEFF 		bl	lv_page_get_style
 2220 0050 F860     		str	r0, [r7, #12]
 2221 0052 28E0     		b	.L138
 2222              	.L130:
 657:..\..\..\lvgl\version_6.1.2\lvgl\src\lv_objx/lv_list.c ****         case LV_LIST_STYLE_SCRL: style = lv_page_get_style(list, LV_PAGE_STYLE_SCRL); break;
 2223              		.loc 5 657 0
 2224 0054 0121     		movs	r1, #1
 2225 0056 7868     		ldr	r0, [r7, #4]
 2226 0058 FFF7FEFF 		bl	lv_page_get_style
 2227 005c F860     		str	r0, [r7, #12]
 2228 005e 22E0     		b	.L138
 2229              	.L131:
 658:..\..\..\lvgl\version_6.1.2\lvgl\src\lv_objx/lv_list.c ****         case LV_LIST_STYLE_SB: style = lv_page_get_style(list, LV_PAGE_STYLE_SB); break;
 2230              		.loc 5 658 0
 2231 0060 0221     		movs	r1, #2
 2232 0062 7868     		ldr	r0, [r7, #4]
 2233 0064 FFF7FEFF 		bl	lv_page_get_style
 2234 0068 F860     		str	r0, [r7, #12]
 2235 006a 1CE0     		b	.L138
 2236              	.L132:
 659:..\..\..\lvgl\version_6.1.2\lvgl\src\lv_objx/lv_list.c ****         case LV_LIST_STYLE_EDGE_FLASH: style = lv_page_get_style(list, LV_PAGE_STYLE_EDGE_FLASH); b
 2237              		.loc 5 659 0
 2238 006c 0321     		movs	r1, #3
 2239 006e 7868     		ldr	r0, [r7, #4]
 2240 0070 FFF7FEFF 		bl	lv_page_get_style
 2241 0074 F860     		str	r0, [r7, #12]
 2242 0076 16E0     		b	.L138
 2243              	.L133:
 660:..\..\..\lvgl\version_6.1.2\lvgl\src\lv_objx/lv_list.c ****         case LV_LIST_STYLE_BTN_REL: style = ext->styles_btn[LV_BTN_STATE_REL]; break;
 2244              		.loc 5 660 0
 2245 0078 BB68     		ldr	r3, [r7, #8]
 2246 007a 1B6B     		ldr	r3, [r3, #48]
 2247 007c FB60     		str	r3, [r7, #12]
 2248 007e 12E0     		b	.L138
 2249              	.L134:
 661:..\..\..\lvgl\version_6.1.2\lvgl\src\lv_objx/lv_list.c ****         case LV_LIST_STYLE_BTN_PR: style = ext->styles_btn[LV_BTN_STATE_PR]; break;
 2250              		.loc 5 661 0
 2251 0080 BB68     		ldr	r3, [r7, #8]
 2252 0082 5B6B     		ldr	r3, [r3, #52]
ARM GAS  C:\Users\tmj32\AppData\Local\Temp\ccUUfkkI.s 			page 69


 2253 0084 FB60     		str	r3, [r7, #12]
 2254 0086 0EE0     		b	.L138
 2255              	.L135:
 662:..\..\..\lvgl\version_6.1.2\lvgl\src\lv_objx/lv_list.c ****         case LV_LIST_STYLE_BTN_TGL_REL: style = ext->styles_btn[LV_BTN_STATE_TGL_REL]; break;
 2256              		.loc 5 662 0
 2257 0088 BB68     		ldr	r3, [r7, #8]
 2258 008a 9B6B     		ldr	r3, [r3, #56]
 2259 008c FB60     		str	r3, [r7, #12]
 2260 008e 0AE0     		b	.L138
 2261              	.L136:
 663:..\..\..\lvgl\version_6.1.2\lvgl\src\lv_objx/lv_list.c ****         case LV_LIST_STYLE_BTN_TGL_PR: style = ext->styles_btn[LV_BTN_STATE_TGL_PR]; break;
 2262              		.loc 5 663 0
 2263 0090 BB68     		ldr	r3, [r7, #8]
 2264 0092 DB6B     		ldr	r3, [r3, #60]
 2265 0094 FB60     		str	r3, [r7, #12]
 2266 0096 06E0     		b	.L138
 2267              	.L137:
 664:..\..\..\lvgl\version_6.1.2\lvgl\src\lv_objx/lv_list.c ****         case LV_LIST_STYLE_BTN_INA: style = ext->styles_btn[LV_BTN_STATE_INA]; break;
 2268              		.loc 5 664 0
 2269 0098 BB68     		ldr	r3, [r7, #8]
 2270 009a 1B6C     		ldr	r3, [r3, #64]
 2271 009c FB60     		str	r3, [r7, #12]
 2272 009e 02E0     		b	.L138
 2273              	.L127:
 665:..\..\..\lvgl\version_6.1.2\lvgl\src\lv_objx/lv_list.c ****         default: style = NULL; break;
 2274              		.loc 5 665 0
 2275 00a0 0023     		movs	r3, #0
 2276 00a2 FB60     		str	r3, [r7, #12]
 2277 00a4 00BF     		nop
 2278              	.L138:
 666:..\..\..\lvgl\version_6.1.2\lvgl\src\lv_objx/lv_list.c ****     }
 667:..\..\..\lvgl\version_6.1.2\lvgl\src\lv_objx/lv_list.c **** 
 668:..\..\..\lvgl\version_6.1.2\lvgl\src\lv_objx/lv_list.c ****     return style;
 2279              		.loc 5 668 0
 2280 00a6 FB68     		ldr	r3, [r7, #12]
 669:..\..\..\lvgl\version_6.1.2\lvgl\src\lv_objx/lv_list.c **** }
 2281              		.loc 5 669 0
 2282 00a8 1846     		mov	r0, r3
 2283 00aa 1037     		adds	r7, r7, #16
 2284              		.cfi_def_cfa_offset 8
 2285 00ac BD46     		mov	sp, r7
 2286              		.cfi_def_cfa_register 13
 2287              		@ sp needed
 2288 00ae 80BD     		pop	{r7, pc}
 2289              		.cfi_endproc
 2290              	.LFE85:
 2291              		.size	lv_list_get_style, .-lv_list_get_style
 2292              		.section	.text.lv_list_up,"ax",%progbits
 2293              		.align	2
 2294              		.global	lv_list_up
 2295              		.thumb
 2296              		.thumb_func
 2297              		.type	lv_list_up, %function
 2298              	lv_list_up:
 2299              	.LFB86:
 670:..\..\..\lvgl\version_6.1.2\lvgl\src\lv_objx/lv_list.c **** 
 671:..\..\..\lvgl\version_6.1.2\lvgl\src\lv_objx/lv_list.c **** /*=====================
ARM GAS  C:\Users\tmj32\AppData\Local\Temp\ccUUfkkI.s 			page 70


 672:..\..\..\lvgl\version_6.1.2\lvgl\src\lv_objx/lv_list.c ****  * Other functions
 673:..\..\..\lvgl\version_6.1.2\lvgl\src\lv_objx/lv_list.c ****  *====================*/
 674:..\..\..\lvgl\version_6.1.2\lvgl\src\lv_objx/lv_list.c **** 
 675:..\..\..\lvgl\version_6.1.2\lvgl\src\lv_objx/lv_list.c **** /**
 676:..\..\..\lvgl\version_6.1.2\lvgl\src\lv_objx/lv_list.c ****  * Move the list elements up by one
 677:..\..\..\lvgl\version_6.1.2\lvgl\src\lv_objx/lv_list.c ****  * @param list pointer a to list object
 678:..\..\..\lvgl\version_6.1.2\lvgl\src\lv_objx/lv_list.c ****  */
 679:..\..\..\lvgl\version_6.1.2\lvgl\src\lv_objx/lv_list.c **** void lv_list_up(const lv_obj_t * list)
 680:..\..\..\lvgl\version_6.1.2\lvgl\src\lv_objx/lv_list.c **** {
 2300              		.loc 5 680 0
 2301              		.cfi_startproc
 2302              		@ args = 0, pretend = 0, frame = 64
 2303              		@ frame_needed = 1, uses_anonymous_args = 0
 2304 0000 B0B5     		push	{r4, r5, r7, lr}
 2305              		.cfi_def_cfa_offset 16
 2306              		.cfi_offset 4, -16
 2307              		.cfi_offset 5, -12
 2308              		.cfi_offset 7, -8
 2309              		.cfi_offset 14, -4
 2310 0002 90B0     		sub	sp, sp, #64
 2311              		.cfi_def_cfa_offset 80
 2312 0004 00AF     		add	r7, sp, #0
 2313              		.cfi_def_cfa_register 7
 2314 0006 7860     		str	r0, [r7, #4]
 681:..\..\..\lvgl\version_6.1.2\lvgl\src\lv_objx/lv_list.c ****     LV_ASSERT_OBJ(list, LV_OBJX_NAME);
 682:..\..\..\lvgl\version_6.1.2\lvgl\src\lv_objx/lv_list.c **** 
 683:..\..\..\lvgl\version_6.1.2\lvgl\src\lv_objx/lv_list.c ****     /*Search the first list element which 'y' coordinate is below the parent
 684:..\..\..\lvgl\version_6.1.2\lvgl\src\lv_objx/lv_list.c ****      * and position the list to show this element on the bottom*/
 685:..\..\..\lvgl\version_6.1.2\lvgl\src\lv_objx/lv_list.c ****     lv_obj_t * scrl = lv_page_get_scrl(list);
 2315              		.loc 5 685 0
 2316 0008 7868     		ldr	r0, [r7, #4]
 2317 000a FFF7FEFF 		bl	lv_page_get_scrl
 2318 000e 7863     		str	r0, [r7, #52]
 686:..\..\..\lvgl\version_6.1.2\lvgl\src\lv_objx/lv_list.c ****     lv_obj_t * e;
 687:..\..\..\lvgl\version_6.1.2\lvgl\src\lv_objx/lv_list.c ****     lv_obj_t * e_prev = NULL;
 2319              		.loc 5 687 0
 2320 0010 0023     		movs	r3, #0
 2321 0012 BB63     		str	r3, [r7, #56]
 688:..\..\..\lvgl\version_6.1.2\lvgl\src\lv_objx/lv_list.c **** 
 689:..\..\..\lvgl\version_6.1.2\lvgl\src\lv_objx/lv_list.c ****     e                 = lv_list_get_prev_btn(list, NULL);
 2322              		.loc 5 689 0
 2323 0014 0021     		movs	r1, #0
 2324 0016 7868     		ldr	r0, [r7, #4]
 2325 0018 FFF7FEFF 		bl	lv_list_get_prev_btn
 2326 001c F863     		str	r0, [r7, #60]
 690:..\..\..\lvgl\version_6.1.2\lvgl\src\lv_objx/lv_list.c ****     while(e != NULL) {
 2327              		.loc 5 690 0
 2328 001e 5CE0     		b	.L141
 2329              	.L146:
 691:..\..\..\lvgl\version_6.1.2\lvgl\src\lv_objx/lv_list.c ****         if(e->coords.y2 <= list->coords.y2) {
 2330              		.loc 5 691 0
 2331 0020 FB6B     		ldr	r3, [r7, #60]
 2332 0022 B3F91620 		ldrsh	r2, [r3, #22]
 2333 0026 7B68     		ldr	r3, [r7, #4]
 2334 0028 B3F91630 		ldrsh	r3, [r3, #22]
 2335 002c 9A42     		cmp	r2, r3
 2336 002e 4DDC     		bgt	.L142
ARM GAS  C:\Users\tmj32\AppData\Local\Temp\ccUUfkkI.s 			page 71


 692:..\..\..\lvgl\version_6.1.2\lvgl\src\lv_objx/lv_list.c ****             if(e_prev != NULL) {
 2337              		.loc 5 692 0
 2338 0030 BB6B     		ldr	r3, [r7, #56]
 2339 0032 002B     		cmp	r3, #0
 2340 0034 55D0     		beq	.L147
 2341              	.LBB7:
 693:..\..\..\lvgl\version_6.1.2\lvgl\src\lv_objx/lv_list.c ****                 lv_coord_t new_y = lv_obj_get_height(list) - (lv_obj_get_y(e_prev) + lv_obj_get_hei
 2342              		.loc 5 693 0
 2343 0036 7868     		ldr	r0, [r7, #4]
 2344 0038 FFF7FEFF 		bl	lv_obj_get_height
 2345 003c 0346     		mov	r3, r0
 2346 003e 9CB2     		uxth	r4, r3
 2347 0040 B86B     		ldr	r0, [r7, #56]
 2348 0042 FFF7FEFF 		bl	lv_obj_get_y
 2349 0046 0346     		mov	r3, r0
 2350 0048 9DB2     		uxth	r5, r3
 2351 004a B86B     		ldr	r0, [r7, #56]
 2352 004c FFF7FEFF 		bl	lv_obj_get_height
 2353 0050 0346     		mov	r3, r0
 2354 0052 9BB2     		uxth	r3, r3
 2355 0054 2B44     		add	r3, r3, r5
 2356 0056 9BB2     		uxth	r3, r3
 2357 0058 E31A     		subs	r3, r4, r3
 2358 005a 9BB2     		uxth	r3, r3
 2359 005c 7B86     		strh	r3, [r7, #50]	@ movhi
 694:..\..\..\lvgl\version_6.1.2\lvgl\src\lv_objx/lv_list.c ****                 if(lv_list_get_anim_time(list) == 0) {
 2360              		.loc 5 694 0
 2361 005e 7868     		ldr	r0, [r7, #4]
 2362 0060 FFF7FEFF 		bl	lv_list_get_anim_time
 2363 0064 0346     		mov	r3, r0
 2364 0066 002B     		cmp	r3, #0
 2365 0068 06D1     		bne	.L144
 695:..\..\..\lvgl\version_6.1.2\lvgl\src\lv_objx/lv_list.c ****                     lv_obj_set_y(scrl, new_y);
 2366              		.loc 5 695 0
 2367 006a B7F93230 		ldrsh	r3, [r7, #50]
 2368 006e 1946     		mov	r1, r3
 2369 0070 786B     		ldr	r0, [r7, #52]
 2370 0072 FFF7FEFF 		bl	lv_obj_set_y
 2371              	.LBE7:
 696:..\..\..\lvgl\version_6.1.2\lvgl\src\lv_objx/lv_list.c ****                 } else {
 697:..\..\..\lvgl\version_6.1.2\lvgl\src\lv_objx/lv_list.c **** #if LV_USE_ANIMATION
 698:..\..\..\lvgl\version_6.1.2\lvgl\src\lv_objx/lv_list.c ****                     lv_anim_t a;
 699:..\..\..\lvgl\version_6.1.2\lvgl\src\lv_objx/lv_list.c ****                     a.var            = scrl;
 700:..\..\..\lvgl\version_6.1.2\lvgl\src\lv_objx/lv_list.c ****                     a.start          = lv_obj_get_y(scrl);
 701:..\..\..\lvgl\version_6.1.2\lvgl\src\lv_objx/lv_list.c ****                     a.end            = new_y;
 702:..\..\..\lvgl\version_6.1.2\lvgl\src\lv_objx/lv_list.c ****                     a.exec_cb        = (lv_anim_exec_xcb_t)lv_obj_set_y;
 703:..\..\..\lvgl\version_6.1.2\lvgl\src\lv_objx/lv_list.c ****                     a.path_cb        = lv_anim_path_linear;
 704:..\..\..\lvgl\version_6.1.2\lvgl\src\lv_objx/lv_list.c ****                     a.ready_cb       = NULL;
 705:..\..\..\lvgl\version_6.1.2\lvgl\src\lv_objx/lv_list.c ****                     a.act_time       = 0;
 706:..\..\..\lvgl\version_6.1.2\lvgl\src\lv_objx/lv_list.c ****                     a.time           = LV_LIST_DEF_ANIM_TIME;
 707:..\..\..\lvgl\version_6.1.2\lvgl\src\lv_objx/lv_list.c ****                     a.playback       = 0;
 708:..\..\..\lvgl\version_6.1.2\lvgl\src\lv_objx/lv_list.c ****                     a.playback_pause = 0;
 709:..\..\..\lvgl\version_6.1.2\lvgl\src\lv_objx/lv_list.c ****                     a.repeat         = 0;
 710:..\..\..\lvgl\version_6.1.2\lvgl\src\lv_objx/lv_list.c ****                     a.repeat_pause   = 0;
 711:..\..\..\lvgl\version_6.1.2\lvgl\src\lv_objx/lv_list.c ****                     lv_anim_create(&a);
 712:..\..\..\lvgl\version_6.1.2\lvgl\src\lv_objx/lv_list.c **** #endif
 713:..\..\..\lvgl\version_6.1.2\lvgl\src\lv_objx/lv_list.c ****                 }
ARM GAS  C:\Users\tmj32\AppData\Local\Temp\ccUUfkkI.s 			page 72


 714:..\..\..\lvgl\version_6.1.2\lvgl\src\lv_objx/lv_list.c ****             }
 715:..\..\..\lvgl\version_6.1.2\lvgl\src\lv_objx/lv_list.c ****             break;
 2372              		.loc 5 715 0
 2373 0076 34E0     		b	.L147
 2374              	.L144:
 2375              	.LBB9:
 2376              	.LBB8:
 699:..\..\..\lvgl\version_6.1.2\lvgl\src\lv_objx/lv_list.c ****                     a.start          = lv_obj_get_y(scrl);
 2377              		.loc 5 699 0
 2378 0078 7B6B     		ldr	r3, [r7, #52]
 2379 007a FB60     		str	r3, [r7, #12]
 700:..\..\..\lvgl\version_6.1.2\lvgl\src\lv_objx/lv_list.c ****                     a.end            = new_y;
 2380              		.loc 5 700 0
 2381 007c 786B     		ldr	r0, [r7, #52]
 2382 007e FFF7FEFF 		bl	lv_obj_get_y
 2383 0082 0346     		mov	r3, r0
 2384 0084 FB61     		str	r3, [r7, #28]
 701:..\..\..\lvgl\version_6.1.2\lvgl\src\lv_objx/lv_list.c ****                     a.exec_cb        = (lv_anim_exec_xcb_t)lv_obj_set_y;
 2385              		.loc 5 701 0
 2386 0086 B7F93230 		ldrsh	r3, [r7, #50]
 2387 008a 3B62     		str	r3, [r7, #32]
 702:..\..\..\lvgl\version_6.1.2\lvgl\src\lv_objx/lv_list.c ****                     a.path_cb        = lv_anim_path_linear;
 2388              		.loc 5 702 0
 2389 008c 174B     		ldr	r3, .L148
 2390 008e 3B61     		str	r3, [r7, #16]
 703:..\..\..\lvgl\version_6.1.2\lvgl\src\lv_objx/lv_list.c ****                     a.ready_cb       = NULL;
 2391              		.loc 5 703 0
 2392 0090 174B     		ldr	r3, .L148+4
 2393 0092 7B61     		str	r3, [r7, #20]
 704:..\..\..\lvgl\version_6.1.2\lvgl\src\lv_objx/lv_list.c ****                     a.act_time       = 0;
 2394              		.loc 5 704 0
 2395 0094 0023     		movs	r3, #0
 2396 0096 BB61     		str	r3, [r7, #24]
 705:..\..\..\lvgl\version_6.1.2\lvgl\src\lv_objx/lv_list.c ****                     a.time           = LV_LIST_DEF_ANIM_TIME;
 2397              		.loc 5 705 0
 2398 0098 0023     		movs	r3, #0
 2399 009a FB84     		strh	r3, [r7, #38]	@ movhi
 706:..\..\..\lvgl\version_6.1.2\lvgl\src\lv_objx/lv_list.c ****                     a.playback       = 0;
 2400              		.loc 5 706 0
 2401 009c 6423     		movs	r3, #100
 2402 009e BB84     		strh	r3, [r7, #36]	@ movhi
 707:..\..\..\lvgl\version_6.1.2\lvgl\src\lv_objx/lv_list.c ****                     a.playback_pause = 0;
 2403              		.loc 5 707 0
 2404 00a0 97F82C30 		ldrb	r3, [r7, #44]
 2405 00a4 6FF30003 		bfc	r3, #0, #1
 2406 00a8 87F82C30 		strb	r3, [r7, #44]
 708:..\..\..\lvgl\version_6.1.2\lvgl\src\lv_objx/lv_list.c ****                     a.repeat         = 0;
 2407              		.loc 5 708 0
 2408 00ac 0023     		movs	r3, #0
 2409 00ae 3B85     		strh	r3, [r7, #40]	@ movhi
 709:..\..\..\lvgl\version_6.1.2\lvgl\src\lv_objx/lv_list.c ****                     a.repeat_pause   = 0;
 2410              		.loc 5 709 0
 2411 00b0 97F82C30 		ldrb	r3, [r7, #44]
 2412 00b4 6FF34103 		bfc	r3, #1, #1
 2413 00b8 87F82C30 		strb	r3, [r7, #44]
 710:..\..\..\lvgl\version_6.1.2\lvgl\src\lv_objx/lv_list.c ****                     lv_anim_create(&a);
 2414              		.loc 5 710 0
ARM GAS  C:\Users\tmj32\AppData\Local\Temp\ccUUfkkI.s 			page 73


 2415 00bc 0023     		movs	r3, #0
 2416 00be 7B85     		strh	r3, [r7, #42]	@ movhi
 711:..\..\..\lvgl\version_6.1.2\lvgl\src\lv_objx/lv_list.c **** #endif
 2417              		.loc 5 711 0
 2418 00c0 07F10C03 		add	r3, r7, #12
 2419 00c4 1846     		mov	r0, r3
 2420 00c6 FFF7FEFF 		bl	lv_anim_create
 2421              	.LBE8:
 2422              	.LBE9:
 2423              		.loc 5 715 0
 2424 00ca 0AE0     		b	.L147
 2425              	.L142:
 716:..\..\..\lvgl\version_6.1.2\lvgl\src\lv_objx/lv_list.c ****         }
 717:..\..\..\lvgl\version_6.1.2\lvgl\src\lv_objx/lv_list.c ****         e_prev = e;
 2426              		.loc 5 717 0
 2427 00cc FB6B     		ldr	r3, [r7, #60]
 2428 00ce BB63     		str	r3, [r7, #56]
 718:..\..\..\lvgl\version_6.1.2\lvgl\src\lv_objx/lv_list.c ****         e      = lv_list_get_prev_btn(list, e);
 2429              		.loc 5 718 0
 2430 00d0 F96B     		ldr	r1, [r7, #60]
 2431 00d2 7868     		ldr	r0, [r7, #4]
 2432 00d4 FFF7FEFF 		bl	lv_list_get_prev_btn
 2433 00d8 F863     		str	r0, [r7, #60]
 2434              	.L141:
 690:..\..\..\lvgl\version_6.1.2\lvgl\src\lv_objx/lv_list.c ****         if(e->coords.y2 <= list->coords.y2) {
 2435              		.loc 5 690 0
 2436 00da FB6B     		ldr	r3, [r7, #60]
 2437 00dc 002B     		cmp	r3, #0
 2438 00de 9FD1     		bne	.L146
 719:..\..\..\lvgl\version_6.1.2\lvgl\src\lv_objx/lv_list.c ****     }
 720:..\..\..\lvgl\version_6.1.2\lvgl\src\lv_objx/lv_list.c **** }
 2439              		.loc 5 720 0
 2440 00e0 00E0     		b	.L145
 2441              	.L147:
 715:..\..\..\lvgl\version_6.1.2\lvgl\src\lv_objx/lv_list.c ****         }
 2442              		.loc 5 715 0
 2443 00e2 00BF     		nop
 2444              	.L145:
 2445              		.loc 5 720 0
 2446 00e4 00BF     		nop
 2447 00e6 4037     		adds	r7, r7, #64
 2448              		.cfi_def_cfa_offset 16
 2449 00e8 BD46     		mov	sp, r7
 2450              		.cfi_def_cfa_register 13
 2451              		@ sp needed
 2452 00ea B0BD     		pop	{r4, r5, r7, pc}
 2453              	.L149:
 2454              		.align	2
 2455              	.L148:
 2456 00ec 00000000 		.word	lv_obj_set_y
 2457 00f0 00000000 		.word	lv_anim_path_linear
 2458              		.cfi_endproc
 2459              	.LFE86:
 2460              		.size	lv_list_up, .-lv_list_up
 2461              		.section	.text.lv_list_down,"ax",%progbits
 2462              		.align	2
 2463              		.global	lv_list_down
ARM GAS  C:\Users\tmj32\AppData\Local\Temp\ccUUfkkI.s 			page 74


 2464              		.thumb
 2465              		.thumb_func
 2466              		.type	lv_list_down, %function
 2467              	lv_list_down:
 2468              	.LFB87:
 721:..\..\..\lvgl\version_6.1.2\lvgl\src\lv_objx/lv_list.c **** 
 722:..\..\..\lvgl\version_6.1.2\lvgl\src\lv_objx/lv_list.c **** /**
 723:..\..\..\lvgl\version_6.1.2\lvgl\src\lv_objx/lv_list.c ****  * Move the list elements down by one
 724:..\..\..\lvgl\version_6.1.2\lvgl\src\lv_objx/lv_list.c ****  * @param list pointer to a list object
 725:..\..\..\lvgl\version_6.1.2\lvgl\src\lv_objx/lv_list.c ****  */
 726:..\..\..\lvgl\version_6.1.2\lvgl\src\lv_objx/lv_list.c **** void lv_list_down(const lv_obj_t * list)
 727:..\..\..\lvgl\version_6.1.2\lvgl\src\lv_objx/lv_list.c **** {
 2469              		.loc 5 727 0
 2470              		.cfi_startproc
 2471              		@ args = 0, pretend = 0, frame = 56
 2472              		@ frame_needed = 1, uses_anonymous_args = 0
 2473 0000 80B5     		push	{r7, lr}
 2474              		.cfi_def_cfa_offset 8
 2475              		.cfi_offset 7, -8
 2476              		.cfi_offset 14, -4
 2477 0002 8EB0     		sub	sp, sp, #56
 2478              		.cfi_def_cfa_offset 64
 2479 0004 00AF     		add	r7, sp, #0
 2480              		.cfi_def_cfa_register 7
 2481 0006 7860     		str	r0, [r7, #4]
 728:..\..\..\lvgl\version_6.1.2\lvgl\src\lv_objx/lv_list.c ****     LV_ASSERT_OBJ(list, LV_OBJX_NAME);
 729:..\..\..\lvgl\version_6.1.2\lvgl\src\lv_objx/lv_list.c **** 
 730:..\..\..\lvgl\version_6.1.2\lvgl\src\lv_objx/lv_list.c ****     /*Search the first list element which 'y' coordinate is above the parent
 731:..\..\..\lvgl\version_6.1.2\lvgl\src\lv_objx/lv_list.c ****      * and position the list to show this element on the top*/
 732:..\..\..\lvgl\version_6.1.2\lvgl\src\lv_objx/lv_list.c ****     lv_obj_t * scrl = lv_page_get_scrl(list);
 2482              		.loc 5 732 0
 2483 0008 7868     		ldr	r0, [r7, #4]
 2484 000a FFF7FEFF 		bl	lv_page_get_scrl
 2485 000e 3863     		str	r0, [r7, #48]
 733:..\..\..\lvgl\version_6.1.2\lvgl\src\lv_objx/lv_list.c ****     lv_obj_t * e;
 734:..\..\..\lvgl\version_6.1.2\lvgl\src\lv_objx/lv_list.c ****     e = lv_list_get_prev_btn(list, NULL);
 2486              		.loc 5 734 0
 2487 0010 0021     		movs	r1, #0
 2488 0012 7868     		ldr	r0, [r7, #4]
 2489 0014 FFF7FEFF 		bl	lv_list_get_prev_btn
 2490 0018 7863     		str	r0, [r7, #52]
 735:..\..\..\lvgl\version_6.1.2\lvgl\src\lv_objx/lv_list.c ****     while(e != NULL) {
 2491              		.loc 5 735 0
 2492 001a 4BE0     		b	.L151
 2493              	.L156:
 736:..\..\..\lvgl\version_6.1.2\lvgl\src\lv_objx/lv_list.c ****         if(e->coords.y1 < list->coords.y1) {
 2494              		.loc 5 736 0
 2495 001c 7B6B     		ldr	r3, [r7, #52]
 2496 001e B3F91220 		ldrsh	r2, [r3, #18]
 2497 0022 7B68     		ldr	r3, [r7, #4]
 2498 0024 B3F91230 		ldrsh	r3, [r3, #18]
 2499 0028 9A42     		cmp	r2, r3
 2500 002a 3EDA     		bge	.L152
 2501              	.LBB10:
 737:..\..\..\lvgl\version_6.1.2\lvgl\src\lv_objx/lv_list.c ****             lv_coord_t new_y = -lv_obj_get_y(e);
 2502              		.loc 5 737 0
 2503 002c 786B     		ldr	r0, [r7, #52]
ARM GAS  C:\Users\tmj32\AppData\Local\Temp\ccUUfkkI.s 			page 75


 2504 002e FFF7FEFF 		bl	lv_obj_get_y
 2505 0032 0346     		mov	r3, r0
 2506 0034 9BB2     		uxth	r3, r3
 2507 0036 5B42     		negs	r3, r3
 2508 0038 9BB2     		uxth	r3, r3
 2509 003a FB85     		strh	r3, [r7, #46]	@ movhi
 738:..\..\..\lvgl\version_6.1.2\lvgl\src\lv_objx/lv_list.c ****             if(lv_list_get_anim_time(list) == 0) {
 2510              		.loc 5 738 0
 2511 003c 7868     		ldr	r0, [r7, #4]
 2512 003e FFF7FEFF 		bl	lv_list_get_anim_time
 2513 0042 0346     		mov	r3, r0
 2514 0044 002B     		cmp	r3, #0
 2515 0046 06D1     		bne	.L153
 739:..\..\..\lvgl\version_6.1.2\lvgl\src\lv_objx/lv_list.c ****                 lv_obj_set_y(scrl, new_y);
 2516              		.loc 5 739 0
 2517 0048 B7F92E30 		ldrsh	r3, [r7, #46]
 2518 004c 1946     		mov	r1, r3
 2519 004e 386B     		ldr	r0, [r7, #48]
 2520 0050 FFF7FEFF 		bl	lv_obj_set_y
 740:..\..\..\lvgl\version_6.1.2\lvgl\src\lv_objx/lv_list.c ****             } else {
 741:..\..\..\lvgl\version_6.1.2\lvgl\src\lv_objx/lv_list.c **** #if LV_USE_ANIMATION
 742:..\..\..\lvgl\version_6.1.2\lvgl\src\lv_objx/lv_list.c ****                 lv_anim_t a;
 743:..\..\..\lvgl\version_6.1.2\lvgl\src\lv_objx/lv_list.c ****                 a.var            = scrl;
 744:..\..\..\lvgl\version_6.1.2\lvgl\src\lv_objx/lv_list.c ****                 a.start          = lv_obj_get_y(scrl);
 745:..\..\..\lvgl\version_6.1.2\lvgl\src\lv_objx/lv_list.c ****                 a.end            = new_y;
 746:..\..\..\lvgl\version_6.1.2\lvgl\src\lv_objx/lv_list.c ****                 a.exec_cb        = (lv_anim_exec_xcb_t)lv_obj_set_y;
 747:..\..\..\lvgl\version_6.1.2\lvgl\src\lv_objx/lv_list.c ****                 a.path_cb        = lv_anim_path_linear;
 748:..\..\..\lvgl\version_6.1.2\lvgl\src\lv_objx/lv_list.c ****                 a.ready_cb       = NULL;
 749:..\..\..\lvgl\version_6.1.2\lvgl\src\lv_objx/lv_list.c ****                 a.act_time       = 0;
 750:..\..\..\lvgl\version_6.1.2\lvgl\src\lv_objx/lv_list.c ****                 a.time           = LV_LIST_DEF_ANIM_TIME;
 751:..\..\..\lvgl\version_6.1.2\lvgl\src\lv_objx/lv_list.c ****                 a.playback       = 0;
 752:..\..\..\lvgl\version_6.1.2\lvgl\src\lv_objx/lv_list.c ****                 a.playback_pause = 0;
 753:..\..\..\lvgl\version_6.1.2\lvgl\src\lv_objx/lv_list.c ****                 a.repeat         = 0;
 754:..\..\..\lvgl\version_6.1.2\lvgl\src\lv_objx/lv_list.c ****                 a.repeat_pause   = 0;
 755:..\..\..\lvgl\version_6.1.2\lvgl\src\lv_objx/lv_list.c ****                 lv_anim_create(&a);
 756:..\..\..\lvgl\version_6.1.2\lvgl\src\lv_objx/lv_list.c **** #endif
 757:..\..\..\lvgl\version_6.1.2\lvgl\src\lv_objx/lv_list.c ****             }
 758:..\..\..\lvgl\version_6.1.2\lvgl\src\lv_objx/lv_list.c ****             break;
 2521              		.loc 5 758 0
 2522 0054 31E0     		b	.L155
 2523              	.L153:
 2524              	.LBB11:
 743:..\..\..\lvgl\version_6.1.2\lvgl\src\lv_objx/lv_list.c ****                 a.start          = lv_obj_get_y(scrl);
 2525              		.loc 5 743 0
 2526 0056 3B6B     		ldr	r3, [r7, #48]
 2527 0058 BB60     		str	r3, [r7, #8]
 744:..\..\..\lvgl\version_6.1.2\lvgl\src\lv_objx/lv_list.c ****                 a.end            = new_y;
 2528              		.loc 5 744 0
 2529 005a 386B     		ldr	r0, [r7, #48]
 2530 005c FFF7FEFF 		bl	lv_obj_get_y
 2531 0060 0346     		mov	r3, r0
 2532 0062 BB61     		str	r3, [r7, #24]
 745:..\..\..\lvgl\version_6.1.2\lvgl\src\lv_objx/lv_list.c ****                 a.exec_cb        = (lv_anim_exec_xcb_t)lv_obj_set_y;
 2533              		.loc 5 745 0
 2534 0064 B7F92E30 		ldrsh	r3, [r7, #46]
 2535 0068 FB61     		str	r3, [r7, #28]
 746:..\..\..\lvgl\version_6.1.2\lvgl\src\lv_objx/lv_list.c ****                 a.path_cb        = lv_anim_path_linear;
ARM GAS  C:\Users\tmj32\AppData\Local\Temp\ccUUfkkI.s 			page 76


 2536              		.loc 5 746 0
 2537 006a 164B     		ldr	r3, .L157
 2538 006c FB60     		str	r3, [r7, #12]
 747:..\..\..\lvgl\version_6.1.2\lvgl\src\lv_objx/lv_list.c ****                 a.ready_cb       = NULL;
 2539              		.loc 5 747 0
 2540 006e 164B     		ldr	r3, .L157+4
 2541 0070 3B61     		str	r3, [r7, #16]
 748:..\..\..\lvgl\version_6.1.2\lvgl\src\lv_objx/lv_list.c ****                 a.act_time       = 0;
 2542              		.loc 5 748 0
 2543 0072 0023     		movs	r3, #0
 2544 0074 7B61     		str	r3, [r7, #20]
 749:..\..\..\lvgl\version_6.1.2\lvgl\src\lv_objx/lv_list.c ****                 a.time           = LV_LIST_DEF_ANIM_TIME;
 2545              		.loc 5 749 0
 2546 0076 0023     		movs	r3, #0
 2547 0078 7B84     		strh	r3, [r7, #34]	@ movhi
 750:..\..\..\lvgl\version_6.1.2\lvgl\src\lv_objx/lv_list.c ****                 a.playback       = 0;
 2548              		.loc 5 750 0
 2549 007a 6423     		movs	r3, #100
 2550 007c 3B84     		strh	r3, [r7, #32]	@ movhi
 751:..\..\..\lvgl\version_6.1.2\lvgl\src\lv_objx/lv_list.c ****                 a.playback_pause = 0;
 2551              		.loc 5 751 0
 2552 007e 97F82830 		ldrb	r3, [r7, #40]
 2553 0082 6FF30003 		bfc	r3, #0, #1
 2554 0086 87F82830 		strb	r3, [r7, #40]
 752:..\..\..\lvgl\version_6.1.2\lvgl\src\lv_objx/lv_list.c ****                 a.repeat         = 0;
 2555              		.loc 5 752 0
 2556 008a 0023     		movs	r3, #0
 2557 008c BB84     		strh	r3, [r7, #36]	@ movhi
 753:..\..\..\lvgl\version_6.1.2\lvgl\src\lv_objx/lv_list.c ****                 a.repeat_pause   = 0;
 2558              		.loc 5 753 0
 2559 008e 97F82830 		ldrb	r3, [r7, #40]
 2560 0092 6FF34103 		bfc	r3, #1, #1
 2561 0096 87F82830 		strb	r3, [r7, #40]
 754:..\..\..\lvgl\version_6.1.2\lvgl\src\lv_objx/lv_list.c ****                 lv_anim_create(&a);
 2562              		.loc 5 754 0
 2563 009a 0023     		movs	r3, #0
 2564 009c FB84     		strh	r3, [r7, #38]	@ movhi
 755:..\..\..\lvgl\version_6.1.2\lvgl\src\lv_objx/lv_list.c **** #endif
 2565              		.loc 5 755 0
 2566 009e 07F10803 		add	r3, r7, #8
 2567 00a2 1846     		mov	r0, r3
 2568 00a4 FFF7FEFF 		bl	lv_anim_create
 2569              	.LBE11:
 2570              		.loc 5 758 0
 2571 00a8 07E0     		b	.L155
 2572              	.L152:
 2573              	.LBE10:
 759:..\..\..\lvgl\version_6.1.2\lvgl\src\lv_objx/lv_list.c ****         }
 760:..\..\..\lvgl\version_6.1.2\lvgl\src\lv_objx/lv_list.c ****         e = lv_list_get_prev_btn(list, e);
 2574              		.loc 5 760 0
 2575 00aa 796B     		ldr	r1, [r7, #52]
 2576 00ac 7868     		ldr	r0, [r7, #4]
 2577 00ae FFF7FEFF 		bl	lv_list_get_prev_btn
 2578 00b2 7863     		str	r0, [r7, #52]
 2579              	.L151:
 735:..\..\..\lvgl\version_6.1.2\lvgl\src\lv_objx/lv_list.c ****         if(e->coords.y1 < list->coords.y1) {
 2580              		.loc 5 735 0
ARM GAS  C:\Users\tmj32\AppData\Local\Temp\ccUUfkkI.s 			page 77


 2581 00b4 7B6B     		ldr	r3, [r7, #52]
 2582 00b6 002B     		cmp	r3, #0
 2583 00b8 B0D1     		bne	.L156
 2584              	.L155:
 761:..\..\..\lvgl\version_6.1.2\lvgl\src\lv_objx/lv_list.c ****     }
 762:..\..\..\lvgl\version_6.1.2\lvgl\src\lv_objx/lv_list.c **** }
 2585              		.loc 5 762 0
 2586 00ba 00BF     		nop
 2587 00bc 3837     		adds	r7, r7, #56
 2588              		.cfi_def_cfa_offset 8
 2589 00be BD46     		mov	sp, r7
 2590              		.cfi_def_cfa_register 13
 2591              		@ sp needed
 2592 00c0 80BD     		pop	{r7, pc}
 2593              	.L158:
 2594 00c2 00BF     		.align	2
 2595              	.L157:
 2596 00c4 00000000 		.word	lv_obj_set_y
 2597 00c8 00000000 		.word	lv_anim_path_linear
 2598              		.cfi_endproc
 2599              	.LFE87:
 2600              		.size	lv_list_down, .-lv_list_down
 2601              		.section	.text.lv_list_focus,"ax",%progbits
 2602              		.align	2
 2603              		.global	lv_list_focus
 2604              		.thumb
 2605              		.thumb_func
 2606              		.type	lv_list_focus, %function
 2607              	lv_list_focus:
 2608              	.LFB88:
 763:..\..\..\lvgl\version_6.1.2\lvgl\src\lv_objx/lv_list.c **** 
 764:..\..\..\lvgl\version_6.1.2\lvgl\src\lv_objx/lv_list.c **** /**
 765:..\..\..\lvgl\version_6.1.2\lvgl\src\lv_objx/lv_list.c ****  * Focus on a list button. It ensures that the button will be visible on the list.
 766:..\..\..\lvgl\version_6.1.2\lvgl\src\lv_objx/lv_list.c ****  * @param btn pointer to a list button to focus
 767:..\..\..\lvgl\version_6.1.2\lvgl\src\lv_objx/lv_list.c ****  * @param anim_en LV_ANIM_ON: scroll with animation, LV_ANOM_OFF: without animation
 768:..\..\..\lvgl\version_6.1.2\lvgl\src\lv_objx/lv_list.c ****  */
 769:..\..\..\lvgl\version_6.1.2\lvgl\src\lv_objx/lv_list.c **** void lv_list_focus(const lv_obj_t * btn, lv_anim_enable_t anim)
 770:..\..\..\lvgl\version_6.1.2\lvgl\src\lv_objx/lv_list.c **** {
 2609              		.loc 5 770 0
 2610              		.cfi_startproc
 2611              		@ args = 0, pretend = 0, frame = 16
 2612              		@ frame_needed = 1, uses_anonymous_args = 0
 2613 0000 80B5     		push	{r7, lr}
 2614              		.cfi_def_cfa_offset 8
 2615              		.cfi_offset 7, -8
 2616              		.cfi_offset 14, -4
 2617 0002 84B0     		sub	sp, sp, #16
 2618              		.cfi_def_cfa_offset 24
 2619 0004 00AF     		add	r7, sp, #0
 2620              		.cfi_def_cfa_register 7
 2621 0006 7860     		str	r0, [r7, #4]
 2622 0008 0B46     		mov	r3, r1
 2623 000a FB70     		strb	r3, [r7, #3]
 771:..\..\..\lvgl\version_6.1.2\lvgl\src\lv_objx/lv_list.c ****     LV_ASSERT_OBJ(btn, "");
 772:..\..\..\lvgl\version_6.1.2\lvgl\src\lv_objx/lv_list.c **** 
 773:..\..\..\lvgl\version_6.1.2\lvgl\src\lv_objx/lv_list.c **** #if LV_USE_ANIMATION == 0
 774:..\..\..\lvgl\version_6.1.2\lvgl\src\lv_objx/lv_list.c ****     anim = false;
ARM GAS  C:\Users\tmj32\AppData\Local\Temp\ccUUfkkI.s 			page 78


 775:..\..\..\lvgl\version_6.1.2\lvgl\src\lv_objx/lv_list.c **** #endif
 776:..\..\..\lvgl\version_6.1.2\lvgl\src\lv_objx/lv_list.c **** 
 777:..\..\..\lvgl\version_6.1.2\lvgl\src\lv_objx/lv_list.c ****     lv_obj_t * list = lv_obj_get_parent(lv_obj_get_parent(btn));
 2624              		.loc 5 777 0
 2625 000c 7868     		ldr	r0, [r7, #4]
 2626 000e FFF7FEFF 		bl	lv_obj_get_parent
 2627 0012 0346     		mov	r3, r0
 2628 0014 1846     		mov	r0, r3
 2629 0016 FFF7FEFF 		bl	lv_obj_get_parent
 2630 001a F860     		str	r0, [r7, #12]
 778:..\..\..\lvgl\version_6.1.2\lvgl\src\lv_objx/lv_list.c **** 
 779:..\..\..\lvgl\version_6.1.2\lvgl\src\lv_objx/lv_list.c ****     lv_page_focus(list, btn, anim == LV_ANIM_OFF ? 0 : lv_list_get_anim_time(list));
 2631              		.loc 5 779 0
 2632 001c FB78     		ldrb	r3, [r7, #3]	@ zero_extendqisi2
 2633 001e 002B     		cmp	r3, #0
 2634 0020 05D0     		beq	.L160
 2635              		.loc 5 779 0 is_stmt 0 discriminator 1
 2636 0022 F868     		ldr	r0, [r7, #12]
 2637 0024 FFF7FEFF 		bl	lv_list_get_anim_time
 2638 0028 0346     		mov	r3, r0
 2639 002a DBB2     		uxtb	r3, r3
 2640 002c 00E0     		b	.L161
 2641              	.L160:
 2642              		.loc 5 779 0 discriminator 2
 2643 002e 0023     		movs	r3, #0
 2644              	.L161:
 2645              		.loc 5 779 0 discriminator 4
 2646 0030 1A46     		mov	r2, r3
 2647 0032 7968     		ldr	r1, [r7, #4]
 2648 0034 F868     		ldr	r0, [r7, #12]
 2649 0036 FFF7FEFF 		bl	lv_page_focus
 780:..\..\..\lvgl\version_6.1.2\lvgl\src\lv_objx/lv_list.c **** }
 2650              		.loc 5 780 0 is_stmt 1 discriminator 4
 2651 003a 00BF     		nop
 2652 003c 1037     		adds	r7, r7, #16
 2653              		.cfi_def_cfa_offset 8
 2654 003e BD46     		mov	sp, r7
 2655              		.cfi_def_cfa_register 13
 2656              		@ sp needed
 2657 0040 80BD     		pop	{r7, pc}
 2658              		.cfi_endproc
 2659              	.LFE88:
 2660              		.size	lv_list_focus, .-lv_list_focus
 2661 0042 00BF     		.section	.rodata
 2662 0001 000000   		.align	2
 2663              	.LC1:
 2664 0004 6C765F6C 		.ascii	"lv_list\000"
 2664      69737400 
 2665              		.section	.text.lv_list_signal,"ax",%progbits
 2666              		.align	2
 2667              		.thumb
 2668              		.thumb_func
 2669              		.type	lv_list_signal, %function
 2670              	lv_list_signal:
 2671              	.LFB89:
 781:..\..\..\lvgl\version_6.1.2\lvgl\src\lv_objx/lv_list.c **** 
 782:..\..\..\lvgl\version_6.1.2\lvgl\src\lv_objx/lv_list.c **** /**********************
ARM GAS  C:\Users\tmj32\AppData\Local\Temp\ccUUfkkI.s 			page 79


 783:..\..\..\lvgl\version_6.1.2\lvgl\src\lv_objx/lv_list.c ****  *   STATIC FUNCTIONS
 784:..\..\..\lvgl\version_6.1.2\lvgl\src\lv_objx/lv_list.c ****  **********************/
 785:..\..\..\lvgl\version_6.1.2\lvgl\src\lv_objx/lv_list.c **** 
 786:..\..\..\lvgl\version_6.1.2\lvgl\src\lv_objx/lv_list.c **** /**
 787:..\..\..\lvgl\version_6.1.2\lvgl\src\lv_objx/lv_list.c ****  * Signal function of the list
 788:..\..\..\lvgl\version_6.1.2\lvgl\src\lv_objx/lv_list.c ****  * @param list pointer to a list object
 789:..\..\..\lvgl\version_6.1.2\lvgl\src\lv_objx/lv_list.c ****  * @param sign a signal type from lv_signal_t enum
 790:..\..\..\lvgl\version_6.1.2\lvgl\src\lv_objx/lv_list.c ****  * @param param pointer to a signal specific variable
 791:..\..\..\lvgl\version_6.1.2\lvgl\src\lv_objx/lv_list.c ****  * @return LV_RES_OK: the object is not deleted in the function; LV_RES_INV: the object is deleted
 792:..\..\..\lvgl\version_6.1.2\lvgl\src\lv_objx/lv_list.c ****  */
 793:..\..\..\lvgl\version_6.1.2\lvgl\src\lv_objx/lv_list.c **** static lv_res_t lv_list_signal(lv_obj_t * list, lv_signal_t sign, void * param)
 794:..\..\..\lvgl\version_6.1.2\lvgl\src\lv_objx/lv_list.c **** {
 2672              		.loc 5 794 0
 2673              		.cfi_startproc
 2674              		@ args = 0, pretend = 0, frame = 24
 2675              		@ frame_needed = 1, uses_anonymous_args = 0
 2676 0000 80B5     		push	{r7, lr}
 2677              		.cfi_def_cfa_offset 8
 2678              		.cfi_offset 7, -8
 2679              		.cfi_offset 14, -4
 2680 0002 86B0     		sub	sp, sp, #24
 2681              		.cfi_def_cfa_offset 32
 2682 0004 00AF     		add	r7, sp, #0
 2683              		.cfi_def_cfa_register 7
 2684 0006 F860     		str	r0, [r7, #12]
 2685 0008 0B46     		mov	r3, r1
 2686 000a 7A60     		str	r2, [r7, #4]
 2687 000c FB72     		strb	r3, [r7, #11]
 795:..\..\..\lvgl\version_6.1.2\lvgl\src\lv_objx/lv_list.c ****     lv_res_t res;
 796:..\..\..\lvgl\version_6.1.2\lvgl\src\lv_objx/lv_list.c **** 
 797:..\..\..\lvgl\version_6.1.2\lvgl\src\lv_objx/lv_list.c ****     /* Include the ancient signal function */
 798:..\..\..\lvgl\version_6.1.2\lvgl\src\lv_objx/lv_list.c ****     res = ancestor_page_signal(list, sign, param);
 2688              		.loc 5 798 0
 2689 000e 1C4B     		ldr	r3, .L167
 2690 0010 1B68     		ldr	r3, [r3]
 2691 0012 F97A     		ldrb	r1, [r7, #11]	@ zero_extendqisi2
 2692 0014 7A68     		ldr	r2, [r7, #4]
 2693 0016 F868     		ldr	r0, [r7, #12]
 2694 0018 9847     		blx	r3
 2695 001a 0346     		mov	r3, r0
 2696 001c FB75     		strb	r3, [r7, #23]
 799:..\..\..\lvgl\version_6.1.2\lvgl\src\lv_objx/lv_list.c ****     if(res != LV_RES_OK) return res;
 2697              		.loc 5 799 0
 2698 001e FB7D     		ldrb	r3, [r7, #23]	@ zero_extendqisi2
 2699 0020 012B     		cmp	r3, #1
 2700 0022 01D0     		beq	.L163
 2701              		.loc 5 799 0 is_stmt 0 discriminator 1
 2702 0024 FB7D     		ldrb	r3, [r7, #23]	@ zero_extendqisi2
 2703 0026 26E0     		b	.L164
 2704              	.L163:
 800:..\..\..\lvgl\version_6.1.2\lvgl\src\lv_objx/lv_list.c ****     if(sign == LV_SIGNAL_GET_TYPE) return lv_obj_handle_get_type_signal(param, LV_OBJX_NAME);
 2705              		.loc 5 800 0 is_stmt 1
 2706 0028 FB7A     		ldrb	r3, [r7, #11]	@ zero_extendqisi2
 2707 002a 072B     		cmp	r3, #7
 2708 002c 05D1     		bne	.L165
 2709              		.loc 5 800 0 is_stmt 0 discriminator 1
 2710 002e 1549     		ldr	r1, .L167+4
ARM GAS  C:\Users\tmj32\AppData\Local\Temp\ccUUfkkI.s 			page 80


 2711 0030 7868     		ldr	r0, [r7, #4]
 2712 0032 FFF7FEFF 		bl	lv_obj_handle_get_type_signal
 2713 0036 0346     		mov	r3, r0
 2714 0038 1DE0     		b	.L164
 2715              	.L165:
 801:..\..\..\lvgl\version_6.1.2\lvgl\src\lv_objx/lv_list.c **** 
 802:..\..\..\lvgl\version_6.1.2\lvgl\src\lv_objx/lv_list.c ****     if(sign == LV_SIGNAL_RELEASED || sign == LV_SIGNAL_PRESSED || sign == LV_SIGNAL_PRESSING ||
 2716              		.loc 5 802 0 is_stmt 1
 2717 003a FB7A     		ldrb	r3, [r7, #11]	@ zero_extendqisi2
 2718 003c 0B2B     		cmp	r3, #11
 2719 003e 19D0     		beq	.L166
 2720              		.loc 5 802 0 is_stmt 0 discriminator 1
 2721 0040 FB7A     		ldrb	r3, [r7, #11]	@ zero_extendqisi2
 2722 0042 082B     		cmp	r3, #8
 2723 0044 16D0     		beq	.L166
 2724              		.loc 5 802 0 discriminator 2
 2725 0046 FB7A     		ldrb	r3, [r7, #11]	@ zero_extendqisi2
 2726 0048 092B     		cmp	r3, #9
 2727 004a 13D0     		beq	.L166
 2728              		.loc 5 802 0 discriminator 3
 2729 004c FB7A     		ldrb	r3, [r7, #11]	@ zero_extendqisi2
 2730 004e 0C2B     		cmp	r3, #12
 2731 0050 10D0     		beq	.L166
 803:..\..\..\lvgl\version_6.1.2\lvgl\src\lv_objx/lv_list.c ****        sign == LV_SIGNAL_LONG_PRESS || sign == LV_SIGNAL_LONG_PRESS_REP) {
 2732              		.loc 5 803 0 is_stmt 1
 2733 0052 FB7A     		ldrb	r3, [r7, #11]	@ zero_extendqisi2
 2734 0054 0D2B     		cmp	r3, #13
 2735 0056 0DD0     		beq	.L166
 804:..\..\..\lvgl\version_6.1.2\lvgl\src\lv_objx/lv_list.c **** #if LV_USE_GROUP
 805:..\..\..\lvgl\version_6.1.2\lvgl\src\lv_objx/lv_list.c ****         /*If pressed/released etc by a KEYPAD or ENCODER delegate signal to the button*/
 806:..\..\..\lvgl\version_6.1.2\lvgl\src\lv_objx/lv_list.c ****         lv_indev_t * indev         = lv_indev_get_act();
 807:..\..\..\lvgl\version_6.1.2\lvgl\src\lv_objx/lv_list.c ****         lv_indev_type_t indev_type = lv_indev_get_type(indev);
 808:..\..\..\lvgl\version_6.1.2\lvgl\src\lv_objx/lv_list.c ****         if(indev_type == LV_INDEV_TYPE_KEYPAD ||
 809:..\..\..\lvgl\version_6.1.2\lvgl\src\lv_objx/lv_list.c ****            (indev_type == LV_INDEV_TYPE_ENCODER && lv_group_get_editing(lv_obj_get_group(list)))) {
 810:..\..\..\lvgl\version_6.1.2\lvgl\src\lv_objx/lv_list.c ****             /*Get the 'pressed' button*/
 811:..\..\..\lvgl\version_6.1.2\lvgl\src\lv_objx/lv_list.c ****             lv_obj_t * btn = NULL;
 812:..\..\..\lvgl\version_6.1.2\lvgl\src\lv_objx/lv_list.c ****             btn            = lv_list_get_prev_btn(list, btn);
 813:..\..\..\lvgl\version_6.1.2\lvgl\src\lv_objx/lv_list.c ****             while(btn != NULL) {
 814:..\..\..\lvgl\version_6.1.2\lvgl\src\lv_objx/lv_list.c ****                 if(lv_btn_get_state(btn) == LV_BTN_STATE_PR) break;
 815:..\..\..\lvgl\version_6.1.2\lvgl\src\lv_objx/lv_list.c ****                 btn = lv_list_get_prev_btn(list, btn);
 816:..\..\..\lvgl\version_6.1.2\lvgl\src\lv_objx/lv_list.c ****             }
 817:..\..\..\lvgl\version_6.1.2\lvgl\src\lv_objx/lv_list.c ****             lv_list_ext_t * ext = lv_obj_get_ext_attr(list);
 818:..\..\..\lvgl\version_6.1.2\lvgl\src\lv_objx/lv_list.c **** 
 819:..\..\..\lvgl\version_6.1.2\lvgl\src\lv_objx/lv_list.c ****             /*The page receives the key presses so the events should be propagated to the selected
 820:..\..\..\lvgl\version_6.1.2\lvgl\src\lv_objx/lv_list.c ****              * button*/
 821:..\..\..\lvgl\version_6.1.2\lvgl\src\lv_objx/lv_list.c ****             if(btn) {
 822:..\..\..\lvgl\version_6.1.2\lvgl\src\lv_objx/lv_list.c ****                 if(sign == LV_SIGNAL_PRESSED) {
 823:..\..\..\lvgl\version_6.1.2\lvgl\src\lv_objx/lv_list.c ****                     res = lv_event_send(btn, LV_EVENT_PRESSED, NULL);
 824:..\..\..\lvgl\version_6.1.2\lvgl\src\lv_objx/lv_list.c ****                 } else if(sign == LV_SIGNAL_PRESSING) {
 825:..\..\..\lvgl\version_6.1.2\lvgl\src\lv_objx/lv_list.c ****                     res = lv_event_send(btn, LV_EVENT_PRESSING, NULL);
 826:..\..\..\lvgl\version_6.1.2\lvgl\src\lv_objx/lv_list.c ****                 } else if(sign == LV_SIGNAL_LONG_PRESS) {
 827:..\..\..\lvgl\version_6.1.2\lvgl\src\lv_objx/lv_list.c ****                     res = lv_event_send(btn, LV_EVENT_LONG_PRESSED, NULL);
 828:..\..\..\lvgl\version_6.1.2\lvgl\src\lv_objx/lv_list.c ****                 } else if(sign == LV_SIGNAL_LONG_PRESS_REP) {
 829:..\..\..\lvgl\version_6.1.2\lvgl\src\lv_objx/lv_list.c ****                     res = lv_event_send(btn, LV_EVENT_LONG_PRESSED_REPEAT, NULL);
 830:..\..\..\lvgl\version_6.1.2\lvgl\src\lv_objx/lv_list.c ****                 } else if(sign == LV_SIGNAL_RELEASED) {
 831:..\..\..\lvgl\version_6.1.2\lvgl\src\lv_objx/lv_list.c **** #if LV_USE_GROUP
 832:..\..\..\lvgl\version_6.1.2\lvgl\src\lv_objx/lv_list.c ****                     ext->last_sel = btn;
ARM GAS  C:\Users\tmj32\AppData\Local\Temp\ccUUfkkI.s 			page 81


 833:..\..\..\lvgl\version_6.1.2\lvgl\src\lv_objx/lv_list.c **** #endif
 834:..\..\..\lvgl\version_6.1.2\lvgl\src\lv_objx/lv_list.c ****                     if(indev->proc.long_pr_sent == 0) {
 835:..\..\..\lvgl\version_6.1.2\lvgl\src\lv_objx/lv_list.c ****                         res = lv_event_send(btn, LV_EVENT_SHORT_CLICKED, NULL);
 836:..\..\..\lvgl\version_6.1.2\lvgl\src\lv_objx/lv_list.c ****                     }
 837:..\..\..\lvgl\version_6.1.2\lvgl\src\lv_objx/lv_list.c ****                     if(lv_indev_is_dragging(indev) == false && res == LV_RES_OK) {
 838:..\..\..\lvgl\version_6.1.2\lvgl\src\lv_objx/lv_list.c ****                         res = lv_event_send(btn, LV_EVENT_CLICKED, NULL);
 839:..\..\..\lvgl\version_6.1.2\lvgl\src\lv_objx/lv_list.c ****                     }
 840:..\..\..\lvgl\version_6.1.2\lvgl\src\lv_objx/lv_list.c ****                     if(res == LV_RES_OK) {
 841:..\..\..\lvgl\version_6.1.2\lvgl\src\lv_objx/lv_list.c ****                         res = lv_event_send(btn, LV_EVENT_RELEASED, NULL);
 842:..\..\..\lvgl\version_6.1.2\lvgl\src\lv_objx/lv_list.c ****                     }
 843:..\..\..\lvgl\version_6.1.2\lvgl\src\lv_objx/lv_list.c ****                 }
 844:..\..\..\lvgl\version_6.1.2\lvgl\src\lv_objx/lv_list.c ****             }
 845:..\..\..\lvgl\version_6.1.2\lvgl\src\lv_objx/lv_list.c ****         }
 846:..\..\..\lvgl\version_6.1.2\lvgl\src\lv_objx/lv_list.c **** #endif
 847:..\..\..\lvgl\version_6.1.2\lvgl\src\lv_objx/lv_list.c ****     } else if(sign == LV_SIGNAL_FOCUS) {
 2736              		.loc 5 847 0
 2737 0058 FB7A     		ldrb	r3, [r7, #11]	@ zero_extendqisi2
 2738 005a 102B     		cmp	r3, #16
 2739 005c 0AD0     		beq	.L166
 848:..\..\..\lvgl\version_6.1.2\lvgl\src\lv_objx/lv_list.c **** 
 849:..\..\..\lvgl\version_6.1.2\lvgl\src\lv_objx/lv_list.c **** #if LV_USE_GROUP
 850:..\..\..\lvgl\version_6.1.2\lvgl\src\lv_objx/lv_list.c ****         lv_indev_type_t indev_type = lv_indev_get_type(lv_indev_get_act());
 851:..\..\..\lvgl\version_6.1.2\lvgl\src\lv_objx/lv_list.c ****         /*With ENCODER select the first button only in edit mode*/
 852:..\..\..\lvgl\version_6.1.2\lvgl\src\lv_objx/lv_list.c ****         if(indev_type == LV_INDEV_TYPE_ENCODER) {
 853:..\..\..\lvgl\version_6.1.2\lvgl\src\lv_objx/lv_list.c ****             lv_group_t * g = lv_obj_get_group(list);
 854:..\..\..\lvgl\version_6.1.2\lvgl\src\lv_objx/lv_list.c ****             if(lv_group_get_editing(g)) {
 855:..\..\..\lvgl\version_6.1.2\lvgl\src\lv_objx/lv_list.c ****                 lv_list_ext_t * ext = lv_obj_get_ext_attr(list);
 856:..\..\..\lvgl\version_6.1.2\lvgl\src\lv_objx/lv_list.c ****                 if(ext->last_sel) {
 857:..\..\..\lvgl\version_6.1.2\lvgl\src\lv_objx/lv_list.c ****                     /* Select the    last used button */
 858:..\..\..\lvgl\version_6.1.2\lvgl\src\lv_objx/lv_list.c ****                     lv_list_set_btn_selected(list, ext->last_sel);
 859:..\..\..\lvgl\version_6.1.2\lvgl\src\lv_objx/lv_list.c ****                 } else {
 860:..\..\..\lvgl\version_6.1.2\lvgl\src\lv_objx/lv_list.c ****                     /*Get the first button and mark it as selected*/
 861:..\..\..\lvgl\version_6.1.2\lvgl\src\lv_objx/lv_list.c ****                     lv_list_set_btn_selected(list, lv_list_get_next_btn(list, NULL));
 862:..\..\..\lvgl\version_6.1.2\lvgl\src\lv_objx/lv_list.c ****                 }
 863:..\..\..\lvgl\version_6.1.2\lvgl\src\lv_objx/lv_list.c ****             } else {
 864:..\..\..\lvgl\version_6.1.2\lvgl\src\lv_objx/lv_list.c ****                 lv_list_set_btn_selected(list, NULL);
 865:..\..\..\lvgl\version_6.1.2\lvgl\src\lv_objx/lv_list.c ****             }
 866:..\..\..\lvgl\version_6.1.2\lvgl\src\lv_objx/lv_list.c ****         }
 867:..\..\..\lvgl\version_6.1.2\lvgl\src\lv_objx/lv_list.c ****         /*Else select the clicked button*/
 868:..\..\..\lvgl\version_6.1.2\lvgl\src\lv_objx/lv_list.c ****         else {
 869:..\..\..\lvgl\version_6.1.2\lvgl\src\lv_objx/lv_list.c ****             /*Mark the last clicked button (if any) as selected because it triggered the focus*/
 870:..\..\..\lvgl\version_6.1.2\lvgl\src\lv_objx/lv_list.c ****             lv_list_ext_t * ext = lv_obj_get_ext_attr(list);
 871:..\..\..\lvgl\version_6.1.2\lvgl\src\lv_objx/lv_list.c ****             if(ext->last_clicked_btn) {
 872:..\..\..\lvgl\version_6.1.2\lvgl\src\lv_objx/lv_list.c ****                 lv_list_set_btn_selected(list, ext->last_clicked_btn);
 873:..\..\..\lvgl\version_6.1.2\lvgl\src\lv_objx/lv_list.c ****                 ext->last_clicked_btn = NULL;
 874:..\..\..\lvgl\version_6.1.2\lvgl\src\lv_objx/lv_list.c **** 
 875:..\..\..\lvgl\version_6.1.2\lvgl\src\lv_objx/lv_list.c ****             } else {
 876:..\..\..\lvgl\version_6.1.2\lvgl\src\lv_objx/lv_list.c ****                 if(ext->last_sel) {
 877:..\..\..\lvgl\version_6.1.2\lvgl\src\lv_objx/lv_list.c ****                     /* Select the last used button */
 878:..\..\..\lvgl\version_6.1.2\lvgl\src\lv_objx/lv_list.c ****                     lv_list_set_btn_selected(list, ext->last_sel);
 879:..\..\..\lvgl\version_6.1.2\lvgl\src\lv_objx/lv_list.c ****                 } else {
 880:..\..\..\lvgl\version_6.1.2\lvgl\src\lv_objx/lv_list.c ****                     /*Get the first button and mark it as selected*/
 881:..\..\..\lvgl\version_6.1.2\lvgl\src\lv_objx/lv_list.c ****                     lv_list_set_btn_selected(list, lv_list_get_next_btn(list, NULL));
 882:..\..\..\lvgl\version_6.1.2\lvgl\src\lv_objx/lv_list.c ****                 }
 883:..\..\..\lvgl\version_6.1.2\lvgl\src\lv_objx/lv_list.c ****             }
 884:..\..\..\lvgl\version_6.1.2\lvgl\src\lv_objx/lv_list.c ****         }
 885:..\..\..\lvgl\version_6.1.2\lvgl\src\lv_objx/lv_list.c **** #endif
ARM GAS  C:\Users\tmj32\AppData\Local\Temp\ccUUfkkI.s 			page 82


 886:..\..\..\lvgl\version_6.1.2\lvgl\src\lv_objx/lv_list.c ****     } else if(sign == LV_SIGNAL_DEFOCUS) {
 2740              		.loc 5 886 0
 2741 005e FB7A     		ldrb	r3, [r7, #11]	@ zero_extendqisi2
 2742 0060 112B     		cmp	r3, #17
 2743 0062 07D0     		beq	.L166
 887:..\..\..\lvgl\version_6.1.2\lvgl\src\lv_objx/lv_list.c **** 
 888:..\..\..\lvgl\version_6.1.2\lvgl\src\lv_objx/lv_list.c **** #if LV_USE_GROUP
 889:..\..\..\lvgl\version_6.1.2\lvgl\src\lv_objx/lv_list.c ****         /*De-select the selected btn*/
 890:..\..\..\lvgl\version_6.1.2\lvgl\src\lv_objx/lv_list.c ****         lv_list_set_btn_selected(list, NULL);
 891:..\..\..\lvgl\version_6.1.2\lvgl\src\lv_objx/lv_list.c ****         lv_list_ext_t * ext = lv_obj_get_ext_attr(list);
 892:..\..\..\lvgl\version_6.1.2\lvgl\src\lv_objx/lv_list.c ****         ext->last_clicked_btn    = NULL; /*button click will be set if click happens before focus*/
 893:..\..\..\lvgl\version_6.1.2\lvgl\src\lv_objx/lv_list.c ****         ext->selected_btn   = NULL;
 894:..\..\..\lvgl\version_6.1.2\lvgl\src\lv_objx/lv_list.c **** #endif
 895:..\..\..\lvgl\version_6.1.2\lvgl\src\lv_objx/lv_list.c ****     } else if(sign == LV_SIGNAL_GET_EDITABLE) {
 2744              		.loc 5 895 0
 2745 0064 FB7A     		ldrb	r3, [r7, #11]	@ zero_extendqisi2
 2746 0066 132B     		cmp	r3, #19
 2747 0068 04D1     		bne	.L166
 2748              	.LBB12:
 896:..\..\..\lvgl\version_6.1.2\lvgl\src\lv_objx/lv_list.c ****         bool * editable = (bool *)param;
 2749              		.loc 5 896 0
 2750 006a 7B68     		ldr	r3, [r7, #4]
 2751 006c 3B61     		str	r3, [r7, #16]
 897:..\..\..\lvgl\version_6.1.2\lvgl\src\lv_objx/lv_list.c ****         *editable       = true;
 2752              		.loc 5 897 0
 2753 006e 3B69     		ldr	r3, [r7, #16]
 2754 0070 0122     		movs	r2, #1
 2755 0072 1A70     		strb	r2, [r3]
 2756              	.L166:
 2757              	.LBE12:
 898:..\..\..\lvgl\version_6.1.2\lvgl\src\lv_objx/lv_list.c ****     } else if(sign == LV_SIGNAL_CONTROL) {
 899:..\..\..\lvgl\version_6.1.2\lvgl\src\lv_objx/lv_list.c **** 
 900:..\..\..\lvgl\version_6.1.2\lvgl\src\lv_objx/lv_list.c **** #if LV_USE_GROUP
 901:..\..\..\lvgl\version_6.1.2\lvgl\src\lv_objx/lv_list.c ****         char c = *((char *)param);
 902:..\..\..\lvgl\version_6.1.2\lvgl\src\lv_objx/lv_list.c ****         if(c == LV_KEY_RIGHT || c == LV_KEY_DOWN) {
 903:..\..\..\lvgl\version_6.1.2\lvgl\src\lv_objx/lv_list.c ****             lv_list_ext_t * ext = lv_obj_get_ext_attr(list);
 904:..\..\..\lvgl\version_6.1.2\lvgl\src\lv_objx/lv_list.c ****             /*If there is a valid selected button the make the previous selected*/
 905:..\..\..\lvgl\version_6.1.2\lvgl\src\lv_objx/lv_list.c ****             if(ext->selected_btn) {
 906:..\..\..\lvgl\version_6.1.2\lvgl\src\lv_objx/lv_list.c ****                 lv_obj_t * btn_prev = lv_list_get_next_btn(list, ext->selected_btn);
 907:..\..\..\lvgl\version_6.1.2\lvgl\src\lv_objx/lv_list.c ****                 if(btn_prev) lv_list_set_btn_selected(list, btn_prev);
 908:..\..\..\lvgl\version_6.1.2\lvgl\src\lv_objx/lv_list.c ****             }
 909:..\..\..\lvgl\version_6.1.2\lvgl\src\lv_objx/lv_list.c ****             /*If there is no selected button the make the first selected*/
 910:..\..\..\lvgl\version_6.1.2\lvgl\src\lv_objx/lv_list.c ****             else {
 911:..\..\..\lvgl\version_6.1.2\lvgl\src\lv_objx/lv_list.c ****                 lv_obj_t * btn = lv_list_get_next_btn(list, NULL);
 912:..\..\..\lvgl\version_6.1.2\lvgl\src\lv_objx/lv_list.c ****                 if(btn)
 913:..\..\..\lvgl\version_6.1.2\lvgl\src\lv_objx/lv_list.c ****                     lv_list_set_btn_selected(list,
 914:..\..\..\lvgl\version_6.1.2\lvgl\src\lv_objx/lv_list.c ****                                              btn); /*If there are no buttons on the list then there
 915:..\..\..\lvgl\version_6.1.2\lvgl\src\lv_objx/lv_list.c ****             }
 916:..\..\..\lvgl\version_6.1.2\lvgl\src\lv_objx/lv_list.c ****         } else if(c == LV_KEY_LEFT || c == LV_KEY_UP) {
 917:..\..\..\lvgl\version_6.1.2\lvgl\src\lv_objx/lv_list.c ****             lv_list_ext_t * ext = lv_obj_get_ext_attr(list);
 918:..\..\..\lvgl\version_6.1.2\lvgl\src\lv_objx/lv_list.c ****             /*If there is a valid selected button the make the next selected*/
 919:..\..\..\lvgl\version_6.1.2\lvgl\src\lv_objx/lv_list.c ****             if(ext->selected_btn != NULL) {
 920:..\..\..\lvgl\version_6.1.2\lvgl\src\lv_objx/lv_list.c ****                 lv_obj_t * btn_next = lv_list_get_prev_btn(list, ext->selected_btn);
 921:..\..\..\lvgl\version_6.1.2\lvgl\src\lv_objx/lv_list.c ****                 if(btn_next) lv_list_set_btn_selected(list, btn_next);
 922:..\..\..\lvgl\version_6.1.2\lvgl\src\lv_objx/lv_list.c ****             }
 923:..\..\..\lvgl\version_6.1.2\lvgl\src\lv_objx/lv_list.c ****             /*If there is no selected button the make the first selected*/
 924:..\..\..\lvgl\version_6.1.2\lvgl\src\lv_objx/lv_list.c ****             else {
ARM GAS  C:\Users\tmj32\AppData\Local\Temp\ccUUfkkI.s 			page 83


 925:..\..\..\lvgl\version_6.1.2\lvgl\src\lv_objx/lv_list.c ****                 lv_obj_t * btn = lv_list_get_next_btn(list, NULL);
 926:..\..\..\lvgl\version_6.1.2\lvgl\src\lv_objx/lv_list.c ****                 if(btn) lv_list_set_btn_selected(list, btn);
 927:..\..\..\lvgl\version_6.1.2\lvgl\src\lv_objx/lv_list.c ****             }
 928:..\..\..\lvgl\version_6.1.2\lvgl\src\lv_objx/lv_list.c ****         }
 929:..\..\..\lvgl\version_6.1.2\lvgl\src\lv_objx/lv_list.c **** #endif
 930:..\..\..\lvgl\version_6.1.2\lvgl\src\lv_objx/lv_list.c ****     }
 931:..\..\..\lvgl\version_6.1.2\lvgl\src\lv_objx/lv_list.c ****     return res;
 2758              		.loc 5 931 0
 2759 0074 FB7D     		ldrb	r3, [r7, #23]	@ zero_extendqisi2
 2760              	.L164:
 932:..\..\..\lvgl\version_6.1.2\lvgl\src\lv_objx/lv_list.c **** }
 2761              		.loc 5 932 0
 2762 0076 1846     		mov	r0, r3
 2763 0078 1837     		adds	r7, r7, #24
 2764              		.cfi_def_cfa_offset 8
 2765 007a BD46     		mov	sp, r7
 2766              		.cfi_def_cfa_register 13
 2767              		@ sp needed
 2768 007c 80BD     		pop	{r7, pc}
 2769              	.L168:
 2770 007e 00BF     		.align	2
 2771              	.L167:
 2772 0080 08000000 		.word	ancestor_page_signal
 2773 0084 04000000 		.word	.LC1
 2774              		.cfi_endproc
 2775              	.LFE89:
 2776              		.size	lv_list_signal, .-lv_list_signal
 2777              		.section	.text.lv_list_btn_signal,"ax",%progbits
 2778              		.align	2
 2779              		.thumb
 2780              		.thumb_func
 2781              		.type	lv_list_btn_signal, %function
 2782              	lv_list_btn_signal:
 2783              	.LFB90:
 933:..\..\..\lvgl\version_6.1.2\lvgl\src\lv_objx/lv_list.c **** 
 934:..\..\..\lvgl\version_6.1.2\lvgl\src\lv_objx/lv_list.c **** /**
 935:..\..\..\lvgl\version_6.1.2\lvgl\src\lv_objx/lv_list.c ****  * Signal function of the list buttons
 936:..\..\..\lvgl\version_6.1.2\lvgl\src\lv_objx/lv_list.c ****  * @param btn pointer to a button on the list
 937:..\..\..\lvgl\version_6.1.2\lvgl\src\lv_objx/lv_list.c ****  * @param sign a signal type from lv_signal_t enum
 938:..\..\..\lvgl\version_6.1.2\lvgl\src\lv_objx/lv_list.c ****  * @param param pointer to a signal specific variable
 939:..\..\..\lvgl\version_6.1.2\lvgl\src\lv_objx/lv_list.c ****  * @return LV_RES_OK: the object is not deleted in the function; LV_RES_INV: the object is deleted
 940:..\..\..\lvgl\version_6.1.2\lvgl\src\lv_objx/lv_list.c ****  */
 941:..\..\..\lvgl\version_6.1.2\lvgl\src\lv_objx/lv_list.c **** static lv_res_t lv_list_btn_signal(lv_obj_t * btn, lv_signal_t sign, void * param)
 942:..\..\..\lvgl\version_6.1.2\lvgl\src\lv_objx/lv_list.c **** {
 2784              		.loc 5 942 0
 2785              		.cfi_startproc
 2786              		@ args = 0, pretend = 0, frame = 40
 2787              		@ frame_needed = 1, uses_anonymous_args = 0
 2788 0000 80B5     		push	{r7, lr}
 2789              		.cfi_def_cfa_offset 8
 2790              		.cfi_offset 7, -8
 2791              		.cfi_offset 14, -4
 2792 0002 8AB0     		sub	sp, sp, #40
 2793              		.cfi_def_cfa_offset 48
 2794 0004 00AF     		add	r7, sp, #0
 2795              		.cfi_def_cfa_register 7
 2796 0006 F860     		str	r0, [r7, #12]
ARM GAS  C:\Users\tmj32\AppData\Local\Temp\ccUUfkkI.s 			page 84


 2797 0008 0B46     		mov	r3, r1
 2798 000a 7A60     		str	r2, [r7, #4]
 2799 000c FB72     		strb	r3, [r7, #11]
 943:..\..\..\lvgl\version_6.1.2\lvgl\src\lv_objx/lv_list.c ****     lv_res_t res;
 944:..\..\..\lvgl\version_6.1.2\lvgl\src\lv_objx/lv_list.c **** 
 945:..\..\..\lvgl\version_6.1.2\lvgl\src\lv_objx/lv_list.c ****     /* Include the ancient signal function */
 946:..\..\..\lvgl\version_6.1.2\lvgl\src\lv_objx/lv_list.c ****     res = ancestor_btn_signal(btn, sign, param);
 2800              		.loc 5 946 0
 2801 000e 314B     		ldr	r3, .L176
 2802 0010 1B68     		ldr	r3, [r3]
 2803 0012 F97A     		ldrb	r1, [r7, #11]	@ zero_extendqisi2
 2804 0014 7A68     		ldr	r2, [r7, #4]
 2805 0016 F868     		ldr	r0, [r7, #12]
 2806 0018 9847     		blx	r3
 2807 001a 0346     		mov	r3, r0
 2808 001c 87F82730 		strb	r3, [r7, #39]
 947:..\..\..\lvgl\version_6.1.2\lvgl\src\lv_objx/lv_list.c ****     if(res != LV_RES_OK) return res;
 2809              		.loc 5 947 0
 2810 0020 97F82730 		ldrb	r3, [r7, #39]	@ zero_extendqisi2
 2811 0024 012B     		cmp	r3, #1
 2812 0026 02D0     		beq	.L170
 2813              		.loc 5 947 0 is_stmt 0 discriminator 1
 2814 0028 97F82730 		ldrb	r3, [r7, #39]	@ zero_extendqisi2
 2815 002c 4EE0     		b	.L171
 2816              	.L170:
 948:..\..\..\lvgl\version_6.1.2\lvgl\src\lv_objx/lv_list.c ****     if(sign == LV_SIGNAL_GET_TYPE) return lv_obj_handle_get_type_signal(param, "");
 2817              		.loc 5 948 0 is_stmt 1
 2818 002e FB7A     		ldrb	r3, [r7, #11]	@ zero_extendqisi2
 2819 0030 072B     		cmp	r3, #7
 2820 0032 05D1     		bne	.L172
 2821              		.loc 5 948 0 is_stmt 0 discriminator 1
 2822 0034 2849     		ldr	r1, .L176+4
 2823 0036 7868     		ldr	r0, [r7, #4]
 2824 0038 FFF7FEFF 		bl	lv_obj_handle_get_type_signal
 2825 003c 0346     		mov	r3, r0
 2826 003e 45E0     		b	.L171
 2827              	.L172:
 949:..\..\..\lvgl\version_6.1.2\lvgl\src\lv_objx/lv_list.c **** 
 950:..\..\..\lvgl\version_6.1.2\lvgl\src\lv_objx/lv_list.c ****     if(sign == LV_SIGNAL_RELEASED) {
 2828              		.loc 5 950 0 is_stmt 1
 2829 0040 FB7A     		ldrb	r3, [r7, #11]	@ zero_extendqisi2
 2830 0042 0B2B     		cmp	r3, #11
 2831 0044 2AD1     		bne	.L173
 2832              	.LBB13:
 951:..\..\..\lvgl\version_6.1.2\lvgl\src\lv_objx/lv_list.c ****         lv_obj_t * list          = lv_obj_get_parent(lv_obj_get_parent(btn));
 2833              		.loc 5 951 0
 2834 0046 F868     		ldr	r0, [r7, #12]
 2835 0048 FFF7FEFF 		bl	lv_obj_get_parent
 2836 004c 0346     		mov	r3, r0
 2837 004e 1846     		mov	r0, r3
 2838 0050 FFF7FEFF 		bl	lv_obj_get_parent
 2839 0054 3862     		str	r0, [r7, #32]
 952:..\..\..\lvgl\version_6.1.2\lvgl\src\lv_objx/lv_list.c ****         lv_list_ext_t * ext      = lv_obj_get_ext_attr(list);
 2840              		.loc 5 952 0
 2841 0056 386A     		ldr	r0, [r7, #32]
 2842 0058 FFF7FEFF 		bl	lv_obj_get_ext_attr
 2843 005c F861     		str	r0, [r7, #28]
ARM GAS  C:\Users\tmj32\AppData\Local\Temp\ccUUfkkI.s 			page 85


 953:..\..\..\lvgl\version_6.1.2\lvgl\src\lv_objx/lv_list.c ****         ext->page.scroll_prop_ip = 0;
 2844              		.loc 5 953 0
 2845 005e FA69     		ldr	r2, [r7, #28]
 2846 0060 92F82E30 		ldrb	r3, [r2, #46]
 2847 0064 6FF34103 		bfc	r3, #1, #1
 2848 0068 82F82E30 		strb	r3, [r2, #46]
 954:..\..\..\lvgl\version_6.1.2\lvgl\src\lv_objx/lv_list.c **** 
 955:..\..\..\lvgl\version_6.1.2\lvgl\src\lv_objx/lv_list.c **** #if LV_USE_GROUP
 956:..\..\..\lvgl\version_6.1.2\lvgl\src\lv_objx/lv_list.c ****         lv_group_t * g = lv_obj_get_group(list);
 957:..\..\..\lvgl\version_6.1.2\lvgl\src\lv_objx/lv_list.c ****         if(lv_group_get_focused(g) == list && lv_indev_is_dragging(lv_indev_get_act()) == false) {
 958:..\..\..\lvgl\version_6.1.2\lvgl\src\lv_objx/lv_list.c ****             /* Is the list is focused then be sure only the button being released
 959:..\..\..\lvgl\version_6.1.2\lvgl\src\lv_objx/lv_list.c ****              * has a pressed state to indicate the selected state on the list*/
 960:..\..\..\lvgl\version_6.1.2\lvgl\src\lv_objx/lv_list.c ****             lv_obj_t * btn_i = lv_list_get_prev_btn(list, NULL);
 961:..\..\..\lvgl\version_6.1.2\lvgl\src\lv_objx/lv_list.c ****             while(btn_i) {
 962:..\..\..\lvgl\version_6.1.2\lvgl\src\lv_objx/lv_list.c ****                 lv_btn_state_t s = lv_btn_get_state(btn_i);
 963:..\..\..\lvgl\version_6.1.2\lvgl\src\lv_objx/lv_list.c ****                 if(s == LV_BTN_STATE_PR)
 964:..\..\..\lvgl\version_6.1.2\lvgl\src\lv_objx/lv_list.c ****                     lv_btn_set_state(btn_i, LV_BTN_STATE_REL);
 965:..\..\..\lvgl\version_6.1.2\lvgl\src\lv_objx/lv_list.c ****                 else if(s == LV_BTN_STATE_TGL_PR)
 966:..\..\..\lvgl\version_6.1.2\lvgl\src\lv_objx/lv_list.c ****                     lv_btn_set_state(btn_i, LV_BTN_STATE_TGL_REL);
 967:..\..\..\lvgl\version_6.1.2\lvgl\src\lv_objx/lv_list.c ****                 btn_i = lv_list_get_prev_btn(list, btn_i);
 968:..\..\..\lvgl\version_6.1.2\lvgl\src\lv_objx/lv_list.c ****             }
 969:..\..\..\lvgl\version_6.1.2\lvgl\src\lv_objx/lv_list.c **** 
 970:..\..\..\lvgl\version_6.1.2\lvgl\src\lv_objx/lv_list.c ****             /*Make the released button "selected"*/
 971:..\..\..\lvgl\version_6.1.2\lvgl\src\lv_objx/lv_list.c ****             lv_list_set_btn_selected(list, btn);
 972:..\..\..\lvgl\version_6.1.2\lvgl\src\lv_objx/lv_list.c ****         }
 973:..\..\..\lvgl\version_6.1.2\lvgl\src\lv_objx/lv_list.c **** 
 974:..\..\..\lvgl\version_6.1.2\lvgl\src\lv_objx/lv_list.c ****         /* If `click_focus == 1` then LV_SIGNAL_FOCUS need to know which button triggered the focus
 975:..\..\..\lvgl\version_6.1.2\lvgl\src\lv_objx/lv_list.c ****          * to mark it as selected (pressed state)*/
 976:..\..\..\lvgl\version_6.1.2\lvgl\src\lv_objx/lv_list.c ****         ext->last_clicked_btn = btn;
 977:..\..\..\lvgl\version_6.1.2\lvgl\src\lv_objx/lv_list.c **** #endif
 978:..\..\..\lvgl\version_6.1.2\lvgl\src\lv_objx/lv_list.c ****         if(lv_indev_is_dragging(lv_indev_get_act()) == false && ext->single_mode) {
 2849              		.loc 5 978 0
 2850 006c FFF7FEFF 		bl	lv_indev_get_act
 2851 0070 0346     		mov	r3, r0
 2852 0072 1846     		mov	r0, r3
 2853 0074 FFF7FEFF 		bl	lv_indev_is_dragging
 2854 0078 0346     		mov	r3, r0
 2855 007a 83F00103 		eor	r3, r3, #1
 2856 007e DBB2     		uxtb	r3, r3
 2857 0080 002B     		cmp	r3, #0
 2858 0082 21D0     		beq	.L175
 2859              		.loc 5 978 0 is_stmt 0 discriminator 1
 2860 0084 FB69     		ldr	r3, [r7, #28]
 2861 0086 93F84A30 		ldrb	r3, [r3, #74]	@ zero_extendqisi2
 2862 008a 03F00103 		and	r3, r3, #1
 2863 008e DBB2     		uxtb	r3, r3
 2864 0090 002B     		cmp	r3, #0
 2865 0092 19D0     		beq	.L175
 979:..\..\..\lvgl\version_6.1.2\lvgl\src\lv_objx/lv_list.c ****             lv_list_btn_single_select(btn);
 2866              		.loc 5 979 0 is_stmt 1
 2867 0094 F868     		ldr	r0, [r7, #12]
 2868 0096 FFF7FEFF 		bl	lv_list_btn_single_select
 2869 009a 15E0     		b	.L175
 2870              	.L173:
 2871              	.LBE13:
 980:..\..\..\lvgl\version_6.1.2\lvgl\src\lv_objx/lv_list.c ****         }
 981:..\..\..\lvgl\version_6.1.2\lvgl\src\lv_objx/lv_list.c ****     } else if(sign == LV_SIGNAL_PRESS_LOST) {
ARM GAS  C:\Users\tmj32\AppData\Local\Temp\ccUUfkkI.s 			page 86


 2872              		.loc 5 981 0
 2873 009c FB7A     		ldrb	r3, [r7, #11]	@ zero_extendqisi2
 2874 009e 0A2B     		cmp	r3, #10
 2875 00a0 12D1     		bne	.L175
 2876              	.LBB14:
 982:..\..\..\lvgl\version_6.1.2\lvgl\src\lv_objx/lv_list.c ****         lv_obj_t * list          = lv_obj_get_parent(lv_obj_get_parent(btn));
 2877              		.loc 5 982 0
 2878 00a2 F868     		ldr	r0, [r7, #12]
 2879 00a4 FFF7FEFF 		bl	lv_obj_get_parent
 2880 00a8 0346     		mov	r3, r0
 2881 00aa 1846     		mov	r0, r3
 2882 00ac FFF7FEFF 		bl	lv_obj_get_parent
 2883 00b0 B861     		str	r0, [r7, #24]
 983:..\..\..\lvgl\version_6.1.2\lvgl\src\lv_objx/lv_list.c ****         lv_list_ext_t * ext      = lv_obj_get_ext_attr(list);
 2884              		.loc 5 983 0
 2885 00b2 B869     		ldr	r0, [r7, #24]
 2886 00b4 FFF7FEFF 		bl	lv_obj_get_ext_attr
 2887 00b8 7861     		str	r0, [r7, #20]
 984:..\..\..\lvgl\version_6.1.2\lvgl\src\lv_objx/lv_list.c ****         ext->page.scroll_prop_ip = 0;
 2888              		.loc 5 984 0
 2889 00ba 7A69     		ldr	r2, [r7, #20]
 2890 00bc 92F82E30 		ldrb	r3, [r2, #46]
 2891 00c0 6FF34103 		bfc	r3, #1, #1
 2892 00c4 82F82E30 		strb	r3, [r2, #46]
 2893              	.L175:
 2894              	.LBE14:
 985:..\..\..\lvgl\version_6.1.2\lvgl\src\lv_objx/lv_list.c ****     } else if(sign == LV_SIGNAL_CLEANUP) {
 986:..\..\..\lvgl\version_6.1.2\lvgl\src\lv_objx/lv_list.c **** 
 987:..\..\..\lvgl\version_6.1.2\lvgl\src\lv_objx/lv_list.c **** #if LV_USE_GROUP
 988:..\..\..\lvgl\version_6.1.2\lvgl\src\lv_objx/lv_list.c ****         lv_obj_t * list = lv_obj_get_parent(lv_obj_get_parent(btn));
 989:..\..\..\lvgl\version_6.1.2\lvgl\src\lv_objx/lv_list.c ****         lv_obj_t * sel  = lv_list_get_btn_selected(list);
 990:..\..\..\lvgl\version_6.1.2\lvgl\src\lv_objx/lv_list.c ****         if(sel == btn) lv_list_set_btn_selected(list, lv_list_get_next_btn(list, btn));
 991:..\..\..\lvgl\version_6.1.2\lvgl\src\lv_objx/lv_list.c **** #endif
 992:..\..\..\lvgl\version_6.1.2\lvgl\src\lv_objx/lv_list.c ****     }
 993:..\..\..\lvgl\version_6.1.2\lvgl\src\lv_objx/lv_list.c **** 
 994:..\..\..\lvgl\version_6.1.2\lvgl\src\lv_objx/lv_list.c ****     return res;
 2895              		.loc 5 994 0
 2896 00c8 97F82730 		ldrb	r3, [r7, #39]	@ zero_extendqisi2
 2897              	.L171:
 995:..\..\..\lvgl\version_6.1.2\lvgl\src\lv_objx/lv_list.c **** }
 2898              		.loc 5 995 0
 2899 00cc 1846     		mov	r0, r3
 2900 00ce 2837     		adds	r7, r7, #40
 2901              		.cfi_def_cfa_offset 8
 2902 00d0 BD46     		mov	sp, r7
 2903              		.cfi_def_cfa_register 13
 2904              		@ sp needed
 2905 00d2 80BD     		pop	{r7, pc}
 2906              	.L177:
 2907              		.align	2
 2908              	.L176:
 2909 00d4 0C000000 		.word	ancestor_btn_signal
 2910 00d8 00000000 		.word	.LC0
 2911              		.cfi_endproc
 2912              	.LFE90:
 2913              		.size	lv_list_btn_signal, .-lv_list_btn_signal
 2914              		.section	.text.lv_list_btn_single_select,"ax",%progbits
ARM GAS  C:\Users\tmj32\AppData\Local\Temp\ccUUfkkI.s 			page 87


 2915              		.align	2
 2916              		.thumb
 2917              		.thumb_func
 2918              		.type	lv_list_btn_single_select, %function
 2919              	lv_list_btn_single_select:
 2920              	.LFB91:
 996:..\..\..\lvgl\version_6.1.2\lvgl\src\lv_objx/lv_list.c **** 
 997:..\..\..\lvgl\version_6.1.2\lvgl\src\lv_objx/lv_list.c **** /**
 998:..\..\..\lvgl\version_6.1.2\lvgl\src\lv_objx/lv_list.c ****  * Make a single button selected in the list, deselect others.
 999:..\..\..\lvgl\version_6.1.2\lvgl\src\lv_objx/lv_list.c ****  * @param btn pointer to the currently pressed list btn object
1000:..\..\..\lvgl\version_6.1.2\lvgl\src\lv_objx/lv_list.c ****  */
1001:..\..\..\lvgl\version_6.1.2\lvgl\src\lv_objx/lv_list.c **** static void lv_list_btn_single_select(lv_obj_t * btn)
1002:..\..\..\lvgl\version_6.1.2\lvgl\src\lv_objx/lv_list.c **** {
 2921              		.loc 5 1002 0
 2922              		.cfi_startproc
 2923              		@ args = 0, pretend = 0, frame = 16
 2924              		@ frame_needed = 1, uses_anonymous_args = 0
 2925 0000 80B5     		push	{r7, lr}
 2926              		.cfi_def_cfa_offset 8
 2927              		.cfi_offset 7, -8
 2928              		.cfi_offset 14, -4
 2929 0002 84B0     		sub	sp, sp, #16
 2930              		.cfi_def_cfa_offset 24
 2931 0004 00AF     		add	r7, sp, #0
 2932              		.cfi_def_cfa_register 7
 2933 0006 7860     		str	r0, [r7, #4]
1003:..\..\..\lvgl\version_6.1.2\lvgl\src\lv_objx/lv_list.c ****     lv_obj_t * list = lv_obj_get_parent(lv_obj_get_parent(btn));
 2934              		.loc 5 1003 0
 2935 0008 7868     		ldr	r0, [r7, #4]
 2936 000a FFF7FEFF 		bl	lv_obj_get_parent
 2937 000e 0346     		mov	r3, r0
 2938 0010 1846     		mov	r0, r3
 2939 0012 FFF7FEFF 		bl	lv_obj_get_parent
 2940 0016 B860     		str	r0, [r7, #8]
1004:..\..\..\lvgl\version_6.1.2\lvgl\src\lv_objx/lv_list.c **** 
1005:..\..\..\lvgl\version_6.1.2\lvgl\src\lv_objx/lv_list.c ****     lv_obj_t * e = lv_list_get_next_btn(list, NULL);
 2941              		.loc 5 1005 0
 2942 0018 0021     		movs	r1, #0
 2943 001a B868     		ldr	r0, [r7, #8]
 2944 001c FFF7FEFF 		bl	lv_list_get_next_btn
 2945 0020 F860     		str	r0, [r7, #12]
 2946              	.L181:
1006:..\..\..\lvgl\version_6.1.2\lvgl\src\lv_objx/lv_list.c ****     do {
1007:..\..\..\lvgl\version_6.1.2\lvgl\src\lv_objx/lv_list.c ****         if(e == btn) {
 2947              		.loc 5 1007 0
 2948 0022 FA68     		ldr	r2, [r7, #12]
 2949 0024 7B68     		ldr	r3, [r7, #4]
 2950 0026 9A42     		cmp	r2, r3
 2951 0028 04D1     		bne	.L179
1008:..\..\..\lvgl\version_6.1.2\lvgl\src\lv_objx/lv_list.c ****             lv_btn_set_state(e, LV_BTN_STATE_TGL_REL);
 2952              		.loc 5 1008 0
 2953 002a 0221     		movs	r1, #2
 2954 002c F868     		ldr	r0, [r7, #12]
 2955 002e FFF7FEFF 		bl	lv_btn_set_state
 2956 0032 03E0     		b	.L180
 2957              	.L179:
1009:..\..\..\lvgl\version_6.1.2\lvgl\src\lv_objx/lv_list.c ****         } else {
ARM GAS  C:\Users\tmj32\AppData\Local\Temp\ccUUfkkI.s 			page 88


1010:..\..\..\lvgl\version_6.1.2\lvgl\src\lv_objx/lv_list.c ****             lv_btn_set_state(e, LV_BTN_STATE_REL);
 2958              		.loc 5 1010 0
 2959 0034 0021     		movs	r1, #0
 2960 0036 F868     		ldr	r0, [r7, #12]
 2961 0038 FFF7FEFF 		bl	lv_btn_set_state
 2962              	.L180:
1011:..\..\..\lvgl\version_6.1.2\lvgl\src\lv_objx/lv_list.c ****         }
1012:..\..\..\lvgl\version_6.1.2\lvgl\src\lv_objx/lv_list.c ****         e = lv_list_get_next_btn(list, e);
 2963              		.loc 5 1012 0
 2964 003c F968     		ldr	r1, [r7, #12]
 2965 003e B868     		ldr	r0, [r7, #8]
 2966 0040 FFF7FEFF 		bl	lv_list_get_next_btn
 2967 0044 F860     		str	r0, [r7, #12]
1013:..\..\..\lvgl\version_6.1.2\lvgl\src\lv_objx/lv_list.c ****     } while(e != NULL);
 2968              		.loc 5 1013 0
 2969 0046 FB68     		ldr	r3, [r7, #12]
 2970 0048 002B     		cmp	r3, #0
 2971 004a EAD1     		bne	.L181
1014:..\..\..\lvgl\version_6.1.2\lvgl\src\lv_objx/lv_list.c **** }
 2972              		.loc 5 1014 0
 2973 004c 00BF     		nop
 2974 004e 1037     		adds	r7, r7, #16
 2975              		.cfi_def_cfa_offset 8
 2976 0050 BD46     		mov	sp, r7
 2977              		.cfi_def_cfa_register 13
 2978              		@ sp needed
 2979 0052 80BD     		pop	{r7, pc}
 2980              		.cfi_endproc
 2981              	.LFE91:
 2982              		.size	lv_list_btn_single_select, .-lv_list_btn_single_select
 2983              		.section	.rodata
 2984              		.align	2
 2985              	.LC2:
 2986 000c 6C765F62 		.ascii	"lv_btn\000"
 2986      746E00
 2987              		.section	.text.lv_list_is_list_btn,"ax",%progbits
 2988              		.align	2
 2989              		.thumb
 2990              		.thumb_func
 2991              		.type	lv_list_is_list_btn, %function
 2992              	lv_list_is_list_btn:
 2993              	.LFB92:
1015:..\..\..\lvgl\version_6.1.2\lvgl\src\lv_objx/lv_list.c **** 
1016:..\..\..\lvgl\version_6.1.2\lvgl\src\lv_objx/lv_list.c **** /**
1017:..\..\..\lvgl\version_6.1.2\lvgl\src\lv_objx/lv_list.c ****  * Check if this is really a list button or another object.
1018:..\..\..\lvgl\version_6.1.2\lvgl\src\lv_objx/lv_list.c ****  * @param list_btn List button
1019:..\..\..\lvgl\version_6.1.2\lvgl\src\lv_objx/lv_list.c ****  */
1020:..\..\..\lvgl\version_6.1.2\lvgl\src\lv_objx/lv_list.c **** static bool lv_list_is_list_btn(lv_obj_t * list_btn)
1021:..\..\..\lvgl\version_6.1.2\lvgl\src\lv_objx/lv_list.c **** {
 2994              		.loc 5 1021 0
 2995              		.cfi_startproc
 2996              		@ args = 0, pretend = 0, frame = 48
 2997              		@ frame_needed = 1, uses_anonymous_args = 0
 2998 0000 80B5     		push	{r7, lr}
 2999              		.cfi_def_cfa_offset 8
 3000              		.cfi_offset 7, -8
 3001              		.cfi_offset 14, -4
ARM GAS  C:\Users\tmj32\AppData\Local\Temp\ccUUfkkI.s 			page 89


 3002 0002 8CB0     		sub	sp, sp, #48
 3003              		.cfi_def_cfa_offset 56
 3004 0004 00AF     		add	r7, sp, #0
 3005              		.cfi_def_cfa_register 7
 3006 0006 7860     		str	r0, [r7, #4]
1022:..\..\..\lvgl\version_6.1.2\lvgl\src\lv_objx/lv_list.c ****     lv_obj_type_t type;
1023:..\..\..\lvgl\version_6.1.2\lvgl\src\lv_objx/lv_list.c **** 
1024:..\..\..\lvgl\version_6.1.2\lvgl\src\lv_objx/lv_list.c ****     lv_obj_get_type(list_btn, &type);
 3007              		.loc 5 1024 0
 3008 0008 07F10C03 		add	r3, r7, #12
 3009 000c 1946     		mov	r1, r3
 3010 000e 7868     		ldr	r0, [r7, #4]
 3011 0010 FFF7FEFF 		bl	lv_obj_get_type
1025:..\..\..\lvgl\version_6.1.2\lvgl\src\lv_objx/lv_list.c ****     uint8_t cnt;
1026:..\..\..\lvgl\version_6.1.2\lvgl\src\lv_objx/lv_list.c ****     for(cnt = 0; cnt < LV_MAX_ANCESTOR_NUM; cnt++) {
 3012              		.loc 5 1026 0
 3013 0014 0023     		movs	r3, #0
 3014 0016 87F82F30 		strb	r3, [r7, #47]
 3015 001a 1FE0     		b	.L183
 3016              	.L188:
1027:..\..\..\lvgl\version_6.1.2\lvgl\src\lv_objx/lv_list.c ****         if(type.type[cnt] == NULL) break;
 3017              		.loc 5 1027 0
 3018 001c 97F82F30 		ldrb	r3, [r7, #47]	@ zero_extendqisi2
 3019 0020 9B00     		lsls	r3, r3, #2
 3020 0022 07F13002 		add	r2, r7, #48
 3021 0026 1344     		add	r3, r3, r2
 3022 0028 53F8243C 		ldr	r3, [r3, #-36]
 3023 002c 002B     		cmp	r3, #0
 3024 002e 1AD0     		beq	.L190
1028:..\..\..\lvgl\version_6.1.2\lvgl\src\lv_objx/lv_list.c ****         if(!strcmp(type.type[cnt], "lv_btn")) return true;
 3025              		.loc 5 1028 0
 3026 0030 97F82F30 		ldrb	r3, [r7, #47]	@ zero_extendqisi2
 3027 0034 9B00     		lsls	r3, r3, #2
 3028 0036 07F13002 		add	r2, r7, #48
 3029 003a 1344     		add	r3, r3, r2
 3030 003c 53F8243C 		ldr	r3, [r3, #-36]
 3031 0040 0C49     		ldr	r1, .L191
 3032 0042 1846     		mov	r0, r3
 3033 0044 FFF7FEFF 		bl	strcmp
 3034 0048 0346     		mov	r3, r0
 3035 004a 002B     		cmp	r3, #0
 3036 004c 01D1     		bne	.L186
 3037              		.loc 5 1028 0 is_stmt 0 discriminator 1
 3038 004e 0123     		movs	r3, #1
 3039 0050 0BE0     		b	.L189
 3040              	.L186:
1026:..\..\..\lvgl\version_6.1.2\lvgl\src\lv_objx/lv_list.c ****         if(type.type[cnt] == NULL) break;
 3041              		.loc 5 1026 0 is_stmt 1 discriminator 2
 3042 0052 97F82F30 		ldrb	r3, [r7, #47]	@ zero_extendqisi2
 3043 0056 0133     		adds	r3, r3, #1
 3044 0058 87F82F30 		strb	r3, [r7, #47]
 3045              	.L183:
1026:..\..\..\lvgl\version_6.1.2\lvgl\src\lv_objx/lv_list.c ****         if(type.type[cnt] == NULL) break;
 3046              		.loc 5 1026 0 is_stmt 0 discriminator 1
 3047 005c 97F82F30 		ldrb	r3, [r7, #47]	@ zero_extendqisi2
 3048 0060 072B     		cmp	r3, #7
 3049 0062 DBD9     		bls	.L188
ARM GAS  C:\Users\tmj32\AppData\Local\Temp\ccUUfkkI.s 			page 90


 3050 0064 00E0     		b	.L185
 3051              	.L190:
1027:..\..\..\lvgl\version_6.1.2\lvgl\src\lv_objx/lv_list.c ****         if(type.type[cnt] == NULL) break;
 3052              		.loc 5 1027 0 is_stmt 1
 3053 0066 00BF     		nop
 3054              	.L185:
1029:..\..\..\lvgl\version_6.1.2\lvgl\src\lv_objx/lv_list.c ****     }
1030:..\..\..\lvgl\version_6.1.2\lvgl\src\lv_objx/lv_list.c ****     return false;
 3055              		.loc 5 1030 0
 3056 0068 0023     		movs	r3, #0
 3057              	.L189:
1031:..\..\..\lvgl\version_6.1.2\lvgl\src\lv_objx/lv_list.c **** }
 3058              		.loc 5 1031 0 discriminator 1
 3059 006a 1846     		mov	r0, r3
 3060 006c 3037     		adds	r7, r7, #48
 3061              		.cfi_def_cfa_offset 8
 3062 006e BD46     		mov	sp, r7
 3063              		.cfi_def_cfa_register 13
 3064              		@ sp needed
 3065 0070 80BD     		pop	{r7, pc}
 3066              	.L192:
 3067 0072 00BF     		.align	2
 3068              	.L191:
 3069 0074 0C000000 		.word	.LC2
 3070              		.cfi_endproc
 3071              	.LFE92:
 3072              		.size	lv_list_is_list_btn, .-lv_list_is_list_btn
 3073              		.section	.rodata
 3074 0013 00       		.align	2
 3075              	.LC3:
 3076 0014 6C765F6C 		.ascii	"lv_label\000"
 3076      6162656C 
 3076      00
 3077              		.section	.text.lv_list_is_list_label,"ax",%progbits
 3078              		.align	2
 3079              		.thumb
 3080              		.thumb_func
 3081              		.type	lv_list_is_list_label, %function
 3082              	lv_list_is_list_label:
 3083              	.LFB93:
1032:..\..\..\lvgl\version_6.1.2\lvgl\src\lv_objx/lv_list.c **** 
1033:..\..\..\lvgl\version_6.1.2\lvgl\src\lv_objx/lv_list.c **** /**
1034:..\..\..\lvgl\version_6.1.2\lvgl\src\lv_objx/lv_list.c ****  * Check if this is really a list label or another object.
1035:..\..\..\lvgl\version_6.1.2\lvgl\src\lv_objx/lv_list.c ****  * @param list_label List label
1036:..\..\..\lvgl\version_6.1.2\lvgl\src\lv_objx/lv_list.c ****  */
1037:..\..\..\lvgl\version_6.1.2\lvgl\src\lv_objx/lv_list.c **** static bool lv_list_is_list_label(lv_obj_t * list_label)
1038:..\..\..\lvgl\version_6.1.2\lvgl\src\lv_objx/lv_list.c **** {
 3084              		.loc 5 1038 0
 3085              		.cfi_startproc
 3086              		@ args = 0, pretend = 0, frame = 48
 3087              		@ frame_needed = 1, uses_anonymous_args = 0
 3088 0000 80B5     		push	{r7, lr}
 3089              		.cfi_def_cfa_offset 8
 3090              		.cfi_offset 7, -8
 3091              		.cfi_offset 14, -4
 3092 0002 8CB0     		sub	sp, sp, #48
 3093              		.cfi_def_cfa_offset 56
ARM GAS  C:\Users\tmj32\AppData\Local\Temp\ccUUfkkI.s 			page 91


 3094 0004 00AF     		add	r7, sp, #0
 3095              		.cfi_def_cfa_register 7
 3096 0006 7860     		str	r0, [r7, #4]
1039:..\..\..\lvgl\version_6.1.2\lvgl\src\lv_objx/lv_list.c ****     lv_obj_type_t type;
1040:..\..\..\lvgl\version_6.1.2\lvgl\src\lv_objx/lv_list.c **** 
1041:..\..\..\lvgl\version_6.1.2\lvgl\src\lv_objx/lv_list.c ****     lv_obj_get_type(list_label, &type);
 3097              		.loc 5 1041 0
 3098 0008 07F10C03 		add	r3, r7, #12
 3099 000c 1946     		mov	r1, r3
 3100 000e 7868     		ldr	r0, [r7, #4]
 3101 0010 FFF7FEFF 		bl	lv_obj_get_type
1042:..\..\..\lvgl\version_6.1.2\lvgl\src\lv_objx/lv_list.c ****     uint8_t cnt;
1043:..\..\..\lvgl\version_6.1.2\lvgl\src\lv_objx/lv_list.c ****     for(cnt = 0; cnt < LV_MAX_ANCESTOR_NUM; cnt++) {
 3102              		.loc 5 1043 0
 3103 0014 0023     		movs	r3, #0
 3104 0016 87F82F30 		strb	r3, [r7, #47]
 3105 001a 1FE0     		b	.L194
 3106              	.L199:
1044:..\..\..\lvgl\version_6.1.2\lvgl\src\lv_objx/lv_list.c ****         if(type.type[cnt] == NULL) break;
 3107              		.loc 5 1044 0
 3108 001c 97F82F30 		ldrb	r3, [r7, #47]	@ zero_extendqisi2
 3109 0020 9B00     		lsls	r3, r3, #2
 3110 0022 07F13002 		add	r2, r7, #48
 3111 0026 1344     		add	r3, r3, r2
 3112 0028 53F8243C 		ldr	r3, [r3, #-36]
 3113 002c 002B     		cmp	r3, #0
 3114 002e 1AD0     		beq	.L201
1045:..\..\..\lvgl\version_6.1.2\lvgl\src\lv_objx/lv_list.c ****         if(!strcmp(type.type[cnt], "lv_label")) return true;
 3115              		.loc 5 1045 0
 3116 0030 97F82F30 		ldrb	r3, [r7, #47]	@ zero_extendqisi2
 3117 0034 9B00     		lsls	r3, r3, #2
 3118 0036 07F13002 		add	r2, r7, #48
 3119 003a 1344     		add	r3, r3, r2
 3120 003c 53F8243C 		ldr	r3, [r3, #-36]
 3121 0040 0C49     		ldr	r1, .L202
 3122 0042 1846     		mov	r0, r3
 3123 0044 FFF7FEFF 		bl	strcmp
 3124 0048 0346     		mov	r3, r0
 3125 004a 002B     		cmp	r3, #0
 3126 004c 01D1     		bne	.L197
 3127              		.loc 5 1045 0 is_stmt 0 discriminator 1
 3128 004e 0123     		movs	r3, #1
 3129 0050 0BE0     		b	.L200
 3130              	.L197:
1043:..\..\..\lvgl\version_6.1.2\lvgl\src\lv_objx/lv_list.c ****         if(type.type[cnt] == NULL) break;
 3131              		.loc 5 1043 0 is_stmt 1 discriminator 2
 3132 0052 97F82F30 		ldrb	r3, [r7, #47]	@ zero_extendqisi2
 3133 0056 0133     		adds	r3, r3, #1
 3134 0058 87F82F30 		strb	r3, [r7, #47]
 3135              	.L194:
1043:..\..\..\lvgl\version_6.1.2\lvgl\src\lv_objx/lv_list.c ****         if(type.type[cnt] == NULL) break;
 3136              		.loc 5 1043 0 is_stmt 0 discriminator 1
 3137 005c 97F82F30 		ldrb	r3, [r7, #47]	@ zero_extendqisi2
 3138 0060 072B     		cmp	r3, #7
 3139 0062 DBD9     		bls	.L199
 3140 0064 00E0     		b	.L196
 3141              	.L201:
ARM GAS  C:\Users\tmj32\AppData\Local\Temp\ccUUfkkI.s 			page 92


1044:..\..\..\lvgl\version_6.1.2\lvgl\src\lv_objx/lv_list.c ****         if(type.type[cnt] == NULL) break;
 3142              		.loc 5 1044 0 is_stmt 1
 3143 0066 00BF     		nop
 3144              	.L196:
1046:..\..\..\lvgl\version_6.1.2\lvgl\src\lv_objx/lv_list.c ****     }
1047:..\..\..\lvgl\version_6.1.2\lvgl\src\lv_objx/lv_list.c ****     return false;
 3145              		.loc 5 1047 0
 3146 0068 0023     		movs	r3, #0
 3147              	.L200:
1048:..\..\..\lvgl\version_6.1.2\lvgl\src\lv_objx/lv_list.c **** }
 3148              		.loc 5 1048 0 discriminator 1
 3149 006a 1846     		mov	r0, r3
 3150 006c 3037     		adds	r7, r7, #48
 3151              		.cfi_def_cfa_offset 8
 3152 006e BD46     		mov	sp, r7
 3153              		.cfi_def_cfa_register 13
 3154              		@ sp needed
 3155 0070 80BD     		pop	{r7, pc}
 3156              	.L203:
 3157 0072 00BF     		.align	2
 3158              	.L202:
 3159 0074 14000000 		.word	.LC3
 3160              		.cfi_endproc
 3161              	.LFE93:
 3162              		.size	lv_list_is_list_label, .-lv_list_is_list_label
 3163              		.section	.rodata
 3164 001d 000000   		.align	2
 3165              	.LC4:
 3166 0020 6C765F69 		.ascii	"lv_img\000"
 3166      6D6700
 3167              		.section	.text.lv_list_is_list_img,"ax",%progbits
 3168              		.align	2
 3169              		.thumb
 3170              		.thumb_func
 3171              		.type	lv_list_is_list_img, %function
 3172              	lv_list_is_list_img:
 3173              	.LFB94:
1049:..\..\..\lvgl\version_6.1.2\lvgl\src\lv_objx/lv_list.c **** 
1050:..\..\..\lvgl\version_6.1.2\lvgl\src\lv_objx/lv_list.c **** /**
1051:..\..\..\lvgl\version_6.1.2\lvgl\src\lv_objx/lv_list.c ****  * Check if this is really a list image or another object.
1052:..\..\..\lvgl\version_6.1.2\lvgl\src\lv_objx/lv_list.c ****  * @param list_image List image
1053:..\..\..\lvgl\version_6.1.2\lvgl\src\lv_objx/lv_list.c ****  */
1054:..\..\..\lvgl\version_6.1.2\lvgl\src\lv_objx/lv_list.c **** static bool lv_list_is_list_img(lv_obj_t * list_img)
1055:..\..\..\lvgl\version_6.1.2\lvgl\src\lv_objx/lv_list.c **** {
 3174              		.loc 5 1055 0
 3175              		.cfi_startproc
 3176              		@ args = 0, pretend = 0, frame = 48
 3177              		@ frame_needed = 1, uses_anonymous_args = 0
 3178 0000 80B5     		push	{r7, lr}
 3179              		.cfi_def_cfa_offset 8
 3180              		.cfi_offset 7, -8
 3181              		.cfi_offset 14, -4
 3182 0002 8CB0     		sub	sp, sp, #48
 3183              		.cfi_def_cfa_offset 56
 3184 0004 00AF     		add	r7, sp, #0
 3185              		.cfi_def_cfa_register 7
 3186 0006 7860     		str	r0, [r7, #4]
ARM GAS  C:\Users\tmj32\AppData\Local\Temp\ccUUfkkI.s 			page 93


1056:..\..\..\lvgl\version_6.1.2\lvgl\src\lv_objx/lv_list.c ****     lv_obj_type_t type;
1057:..\..\..\lvgl\version_6.1.2\lvgl\src\lv_objx/lv_list.c **** 
1058:..\..\..\lvgl\version_6.1.2\lvgl\src\lv_objx/lv_list.c ****     lv_obj_get_type(list_img, &type);
 3187              		.loc 5 1058 0
 3188 0008 07F10C03 		add	r3, r7, #12
 3189 000c 1946     		mov	r1, r3
 3190 000e 7868     		ldr	r0, [r7, #4]
 3191 0010 FFF7FEFF 		bl	lv_obj_get_type
1059:..\..\..\lvgl\version_6.1.2\lvgl\src\lv_objx/lv_list.c ****     uint8_t cnt;
1060:..\..\..\lvgl\version_6.1.2\lvgl\src\lv_objx/lv_list.c ****     for(cnt = 0; cnt < LV_MAX_ANCESTOR_NUM; cnt++) {
 3192              		.loc 5 1060 0
 3193 0014 0023     		movs	r3, #0
 3194 0016 87F82F30 		strb	r3, [r7, #47]
 3195 001a 1FE0     		b	.L205
 3196              	.L210:
1061:..\..\..\lvgl\version_6.1.2\lvgl\src\lv_objx/lv_list.c ****         if(type.type[cnt] == NULL) break;
 3197              		.loc 5 1061 0
 3198 001c 97F82F30 		ldrb	r3, [r7, #47]	@ zero_extendqisi2
 3199 0020 9B00     		lsls	r3, r3, #2
 3200 0022 07F13002 		add	r2, r7, #48
 3201 0026 1344     		add	r3, r3, r2
 3202 0028 53F8243C 		ldr	r3, [r3, #-36]
 3203 002c 002B     		cmp	r3, #0
 3204 002e 1AD0     		beq	.L212
1062:..\..\..\lvgl\version_6.1.2\lvgl\src\lv_objx/lv_list.c ****         if(!strcmp(type.type[cnt], "lv_img")) return true;
 3205              		.loc 5 1062 0
 3206 0030 97F82F30 		ldrb	r3, [r7, #47]	@ zero_extendqisi2
 3207 0034 9B00     		lsls	r3, r3, #2
 3208 0036 07F13002 		add	r2, r7, #48
 3209 003a 1344     		add	r3, r3, r2
 3210 003c 53F8243C 		ldr	r3, [r3, #-36]
 3211 0040 0C49     		ldr	r1, .L213
 3212 0042 1846     		mov	r0, r3
 3213 0044 FFF7FEFF 		bl	strcmp
 3214 0048 0346     		mov	r3, r0
 3215 004a 002B     		cmp	r3, #0
 3216 004c 01D1     		bne	.L208
 3217              		.loc 5 1062 0 is_stmt 0 discriminator 1
 3218 004e 0123     		movs	r3, #1
 3219 0050 0BE0     		b	.L211
 3220              	.L208:
1060:..\..\..\lvgl\version_6.1.2\lvgl\src\lv_objx/lv_list.c ****         if(type.type[cnt] == NULL) break;
 3221              		.loc 5 1060 0 is_stmt 1 discriminator 2
 3222 0052 97F82F30 		ldrb	r3, [r7, #47]	@ zero_extendqisi2
 3223 0056 0133     		adds	r3, r3, #1
 3224 0058 87F82F30 		strb	r3, [r7, #47]
 3225              	.L205:
1060:..\..\..\lvgl\version_6.1.2\lvgl\src\lv_objx/lv_list.c ****         if(type.type[cnt] == NULL) break;
 3226              		.loc 5 1060 0 is_stmt 0 discriminator 1
 3227 005c 97F82F30 		ldrb	r3, [r7, #47]	@ zero_extendqisi2
 3228 0060 072B     		cmp	r3, #7
 3229 0062 DBD9     		bls	.L210
 3230 0064 00E0     		b	.L207
 3231              	.L212:
1061:..\..\..\lvgl\version_6.1.2\lvgl\src\lv_objx/lv_list.c ****         if(type.type[cnt] == NULL) break;
 3232              		.loc 5 1061 0 is_stmt 1
 3233 0066 00BF     		nop
ARM GAS  C:\Users\tmj32\AppData\Local\Temp\ccUUfkkI.s 			page 94


 3234              	.L207:
1063:..\..\..\lvgl\version_6.1.2\lvgl\src\lv_objx/lv_list.c ****     }
1064:..\..\..\lvgl\version_6.1.2\lvgl\src\lv_objx/lv_list.c ****     return false;
 3235              		.loc 5 1064 0
 3236 0068 0023     		movs	r3, #0
 3237              	.L211:
1065:..\..\..\lvgl\version_6.1.2\lvgl\src\lv_objx/lv_list.c **** }
 3238              		.loc 5 1065 0 discriminator 1
 3239 006a 1846     		mov	r0, r3
 3240 006c 3037     		adds	r7, r7, #48
 3241              		.cfi_def_cfa_offset 8
 3242 006e BD46     		mov	sp, r7
 3243              		.cfi_def_cfa_register 13
 3244              		@ sp needed
 3245 0070 80BD     		pop	{r7, pc}
 3246              	.L214:
 3247 0072 00BF     		.align	2
 3248              	.L213:
 3249 0074 20000000 		.word	.LC4
 3250              		.cfi_endproc
 3251              	.LFE94:
 3252              		.size	lv_list_is_list_img, .-lv_list_is_list_img
 3253              		.text
 3254              	.Letext0:
 3255              		.file 6 "c:\\program files (x86)\\cypress\\psoc creator\\4.3\\psoc creator\\import\\gnu\\arm\\5.4.
 3256              		.file 7 "c:\\program files (x86)\\cypress\\psoc creator\\4.3\\psoc creator\\import\\gnu\\arm\\5.4.
 3257              		.file 8 "..\\..\\..\\lvgl\\version_6.1.2\\lvgl\\src\\lv_objx\\../../../lv_conf.h"
 3258              		.file 9 "..\\..\\..\\lvgl\\version_6.1.2\\lvgl\\src\\lv_objx\\../lv_core/../lv_font/lv_font.h"
 3259              		.file 10 "..\\..\\..\\lvgl\\version_6.1.2\\lvgl\\src\\lv_objx\\../lv_core/../lv_misc/lv_color.h"
 3260              		.file 11 "..\\..\\..\\lvgl\\version_6.1.2\\lvgl\\src\\lv_objx\\../lv_core/../lv_misc/lv_area.h"
 3261              		.file 12 "..\\..\\..\\lvgl\\version_6.1.2\\lvgl\\src\\lv_objx\\../lv_core/../lv_misc/lv_anim.h"
 3262              		.file 13 "..\\..\\..\\lvgl\\version_6.1.2\\lvgl\\src\\lv_objx\\../lv_core/lv_style.h"
 3263              		.file 14 "..\\..\\..\\lvgl\\version_6.1.2\\lvgl\\src\\lv_objx\\../lv_core/../lv_misc/lv_types.h"
 3264              		.file 15 "..\\..\\..\\lvgl\\version_6.1.2\\lvgl\\src\\lv_objx\\../lv_core/../lv_misc/lv_ll.h"
 3265              		.file 16 "..\\..\\..\\lvgl\\version_6.1.2\\lvgl\\src\\lv_objx\\../lv_core/../lv_misc/lv_bidi.h"
 3266              		.file 17 "..\\..\\..\\lvgl\\version_6.1.2\\lvgl\\src\\lv_objx\\../lv_core/lv_obj.h"
 3267              		.file 18 "..\\..\\..\\lvgl\\version_6.1.2\\lvgl\\src\\lv_objx\\lv_label.h"
 3268              		.file 19 "..\\..\\..\\lvgl\\version_6.1.2\\lvgl\\src\\lv_objx\\../lv_themes/lv_theme.h"
 3269              		.section	.debug_info,"",%progbits
 3270              	.Ldebug_info0:
 3271 0000 4D220000 		.4byte	0x224d
 3272 0004 0400     		.2byte	0x4
 3273 0006 00000000 		.4byte	.Ldebug_abbrev0
 3274 000a 04       		.byte	0x4
 3275 000b 01       		.uleb128 0x1
 3276 000c 300E0000 		.4byte	.LASF380
 3277 0010 0C       		.byte	0xc
 3278 0011 7E040000 		.4byte	.LASF381
 3279 0015 46090000 		.4byte	.LASF382
 3280 0019 18000000 		.4byte	.Ldebug_ranges0+0x18
 3281 001d 00000000 		.4byte	0
 3282 0021 00000000 		.4byte	.Ldebug_line0
 3283 0025 02       		.uleb128 0x2
 3284 0026 E60C0000 		.4byte	.LASF0
 3285 002a 06       		.byte	0x6
 3286 002b 1B       		.byte	0x1b
 3287 002c 30000000 		.4byte	0x30
ARM GAS  C:\Users\tmj32\AppData\Local\Temp\ccUUfkkI.s 			page 95


 3288 0030 03       		.uleb128 0x3
 3289 0031 01       		.byte	0x1
 3290 0032 06       		.byte	0x6
 3291 0033 6B030000 		.4byte	.LASF2
 3292 0037 02       		.uleb128 0x2
 3293 0038 4B020000 		.4byte	.LASF1
 3294 003c 06       		.byte	0x6
 3295 003d 1D       		.byte	0x1d
 3296 003e 42000000 		.4byte	0x42
 3297 0042 03       		.uleb128 0x3
 3298 0043 01       		.byte	0x1
 3299 0044 08       		.byte	0x8
 3300 0045 39040000 		.4byte	.LASF3
 3301 0049 02       		.uleb128 0x2
 3302 004a F00E0000 		.4byte	.LASF4
 3303 004e 06       		.byte	0x6
 3304 004f 29       		.byte	0x29
 3305 0050 54000000 		.4byte	0x54
 3306 0054 03       		.uleb128 0x3
 3307 0055 02       		.byte	0x2
 3308 0056 05       		.byte	0x5
 3309 0057 75100000 		.4byte	.LASF5
 3310 005b 02       		.uleb128 0x2
 3311 005c 74050000 		.4byte	.LASF6
 3312 0060 06       		.byte	0x6
 3313 0061 2B       		.byte	0x2b
 3314 0062 66000000 		.4byte	0x66
 3315 0066 03       		.uleb128 0x3
 3316 0067 02       		.byte	0x2
 3317 0068 07       		.byte	0x7
 3318 0069 A8120000 		.4byte	.LASF7
 3319 006d 02       		.uleb128 0x2
 3320 006e 1E130000 		.4byte	.LASF8
 3321 0072 06       		.byte	0x6
 3322 0073 3F       		.byte	0x3f
 3323 0074 78000000 		.4byte	0x78
 3324 0078 03       		.uleb128 0x3
 3325 0079 04       		.byte	0x4
 3326 007a 05       		.byte	0x5
 3327 007b BA020000 		.4byte	.LASF9
 3328 007f 02       		.uleb128 0x2
 3329 0080 16090000 		.4byte	.LASF10
 3330 0084 06       		.byte	0x6
 3331 0085 41       		.byte	0x41
 3332 0086 8A000000 		.4byte	0x8a
 3333 008a 03       		.uleb128 0x3
 3334 008b 04       		.byte	0x4
 3335 008c 07       		.byte	0x7
 3336 008d 3B080000 		.4byte	.LASF11
 3337 0091 03       		.uleb128 0x3
 3338 0092 08       		.byte	0x8
 3339 0093 05       		.byte	0x5
 3340 0094 38090000 		.4byte	.LASF12
 3341 0098 03       		.uleb128 0x3
 3342 0099 08       		.byte	0x8
 3343 009a 07       		.byte	0x7
 3344 009b 130D0000 		.4byte	.LASF13
ARM GAS  C:\Users\tmj32\AppData\Local\Temp\ccUUfkkI.s 			page 96


 3345 009f 04       		.uleb128 0x4
 3346 00a0 04       		.byte	0x4
 3347 00a1 05       		.byte	0x5
 3348 00a2 696E7400 		.ascii	"int\000"
 3349 00a6 03       		.uleb128 0x3
 3350 00a7 04       		.byte	0x4
 3351 00a8 07       		.byte	0x7
 3352 00a9 CB0A0000 		.4byte	.LASF14
 3353 00ad 02       		.uleb128 0x2
 3354 00ae 00000000 		.4byte	.LASF15
 3355 00b2 07       		.byte	0x7
 3356 00b3 14       		.byte	0x14
 3357 00b4 25000000 		.4byte	0x25
 3358 00b8 02       		.uleb128 0x2
 3359 00b9 77030000 		.4byte	.LASF16
 3360 00bd 07       		.byte	0x7
 3361 00be 18       		.byte	0x18
 3362 00bf 37000000 		.4byte	0x37
 3363 00c3 02       		.uleb128 0x2
 3364 00c4 9F100000 		.4byte	.LASF17
 3365 00c8 07       		.byte	0x7
 3366 00c9 20       		.byte	0x20
 3367 00ca 49000000 		.4byte	0x49
 3368 00ce 02       		.uleb128 0x2
 3369 00cf 6D0D0000 		.4byte	.LASF18
 3370 00d3 07       		.byte	0x7
 3371 00d4 24       		.byte	0x24
 3372 00d5 5B000000 		.4byte	0x5b
 3373 00d9 02       		.uleb128 0x2
 3374 00da BF000000 		.4byte	.LASF19
 3375 00de 07       		.byte	0x7
 3376 00df 2C       		.byte	0x2c
 3377 00e0 6D000000 		.4byte	0x6d
 3378 00e4 02       		.uleb128 0x2
 3379 00e5 05120000 		.4byte	.LASF20
 3380 00e9 07       		.byte	0x7
 3381 00ea 30       		.byte	0x30
 3382 00eb 7F000000 		.4byte	0x7f
 3383 00ef 02       		.uleb128 0x2
 3384 00f0 CD120000 		.4byte	.LASF21
 3385 00f4 08       		.byte	0x8
 3386 00f5 3C       		.byte	0x3c
 3387 00f6 C3000000 		.4byte	0xc3
 3388 00fa 05       		.uleb128 0x5
 3389 00fb 04       		.byte	0x4
 3390 00fc 03       		.uleb128 0x3
 3391 00fd 08       		.byte	0x8
 3392 00fe 04       		.byte	0x4
 3393 00ff 220C0000 		.4byte	.LASF22
 3394 0103 06       		.uleb128 0x6
 3395 0104 08       		.byte	0x8
 3396 0105 09       		.byte	0x9
 3397 0106 2E       		.byte	0x2e
 3398 0107 54010000 		.4byte	0x154
 3399 010b 07       		.uleb128 0x7
 3400 010c 27000000 		.4byte	.LASF23
 3401 0110 09       		.byte	0x9
ARM GAS  C:\Users\tmj32\AppData\Local\Temp\ccUUfkkI.s 			page 97


 3402 0111 30       		.byte	0x30
 3403 0112 CE000000 		.4byte	0xce
 3404 0116 00       		.byte	0
 3405 0117 07       		.uleb128 0x7
 3406 0118 6F100000 		.4byte	.LASF24
 3407 011c 09       		.byte	0x9
 3408 011d 31       		.byte	0x31
 3409 011e B8000000 		.4byte	0xb8
 3410 0122 02       		.byte	0x2
 3411 0123 07       		.uleb128 0x7
 3412 0124 53100000 		.4byte	.LASF25
 3413 0128 09       		.byte	0x9
 3414 0129 32       		.byte	0x32
 3415 012a B8000000 		.4byte	0xb8
 3416 012e 03       		.byte	0x3
 3417 012f 07       		.uleb128 0x7
 3418 0130 BD040000 		.4byte	.LASF26
 3419 0134 09       		.byte	0x9
 3420 0135 33       		.byte	0x33
 3421 0136 AD000000 		.4byte	0xad
 3422 013a 04       		.byte	0x4
 3423 013b 07       		.uleb128 0x7
 3424 013c C3040000 		.4byte	.LASF27
 3425 0140 09       		.byte	0x9
 3426 0141 34       		.byte	0x34
 3427 0142 AD000000 		.4byte	0xad
 3428 0146 05       		.byte	0x5
 3429 0147 08       		.uleb128 0x8
 3430 0148 62707000 		.ascii	"bpp\000"
 3431 014c 09       		.byte	0x9
 3432 014d 35       		.byte	0x35
 3433 014e B8000000 		.4byte	0xb8
 3434 0152 06       		.byte	0x6
 3435 0153 00       		.byte	0
 3436 0154 02       		.uleb128 0x2
 3437 0155 510B0000 		.4byte	.LASF28
 3438 0159 09       		.byte	0x9
 3439 015a 36       		.byte	0x36
 3440 015b 03010000 		.4byte	0x103
 3441 015f 09       		.uleb128 0x9
 3442 0160 9C130000 		.4byte	.LASF50
 3443 0164 10       		.byte	0x10
 3444 0165 09       		.byte	0x9
 3445 0166 44       		.byte	0x44
 3446 0167 B7010000 		.4byte	0x1b7
 3447 016b 07       		.uleb128 0x7
 3448 016c 10130000 		.4byte	.LASF29
 3449 0170 09       		.byte	0x9
 3450 0171 47       		.byte	0x47
 3451 0172 ED010000 		.4byte	0x1ed
 3452 0176 00       		.byte	0
 3453 0177 07       		.uleb128 0x7
 3454 0178 DE030000 		.4byte	.LASF30
 3455 017c 09       		.byte	0x9
 3456 017d 4A       		.byte	0x4a
 3457 017e 12020000 		.4byte	0x212
 3458 0182 04       		.byte	0x4
ARM GAS  C:\Users\tmj32\AppData\Local\Temp\ccUUfkkI.s 			page 98


 3459 0183 07       		.uleb128 0x7
 3460 0184 25010000 		.4byte	.LASF31
 3461 0188 09       		.byte	0x9
 3462 0189 4D       		.byte	0x4d
 3463 018a B8000000 		.4byte	0xb8
 3464 018e 08       		.byte	0x8
 3465 018f 07       		.uleb128 0x7
 3466 0190 88100000 		.4byte	.LASF32
 3467 0194 09       		.byte	0x9
 3468 0195 4E       		.byte	0x4e
 3469 0196 AD000000 		.4byte	0xad
 3470 019a 09       		.byte	0x9
 3471 019b 0A       		.uleb128 0xa
 3472 019c 6C0C0000 		.4byte	.LASF60
 3473 01a0 09       		.byte	0x9
 3474 01a1 4F       		.byte	0x4f
 3475 01a2 B8000000 		.4byte	0xb8
 3476 01a6 01       		.byte	0x1
 3477 01a7 02       		.byte	0x2
 3478 01a8 06       		.byte	0x6
 3479 01a9 0A       		.byte	0xa
 3480 01aa 08       		.uleb128 0x8
 3481 01ab 64736300 		.ascii	"dsc\000"
 3482 01af 09       		.byte	0x9
 3483 01b0 50       		.byte	0x50
 3484 01b1 FA000000 		.4byte	0xfa
 3485 01b5 0C       		.byte	0xc
 3486 01b6 00       		.byte	0
 3487 01b7 0B       		.uleb128 0xb
 3488 01b8 D5010000 		.4byte	0x1d5
 3489 01bc D5010000 		.4byte	0x1d5
 3490 01c0 0C       		.uleb128 0xc
 3491 01c1 DC010000 		.4byte	0x1dc
 3492 01c5 0C       		.uleb128 0xc
 3493 01c6 E7010000 		.4byte	0x1e7
 3494 01ca 0C       		.uleb128 0xc
 3495 01cb E4000000 		.4byte	0xe4
 3496 01cf 0C       		.uleb128 0xc
 3497 01d0 E4000000 		.4byte	0xe4
 3498 01d4 00       		.byte	0
 3499 01d5 03       		.uleb128 0x3
 3500 01d6 01       		.byte	0x1
 3501 01d7 02       		.byte	0x2
 3502 01d8 D0040000 		.4byte	.LASF33
 3503 01dc 0D       		.uleb128 0xd
 3504 01dd 04       		.byte	0x4
 3505 01de E2010000 		.4byte	0x1e2
 3506 01e2 0E       		.uleb128 0xe
 3507 01e3 5F010000 		.4byte	0x15f
 3508 01e7 0D       		.uleb128 0xd
 3509 01e8 04       		.byte	0x4
 3510 01e9 54010000 		.4byte	0x154
 3511 01ed 0D       		.uleb128 0xd
 3512 01ee 04       		.byte	0x4
 3513 01ef B7010000 		.4byte	0x1b7
 3514 01f3 0B       		.uleb128 0xb
 3515 01f4 07020000 		.4byte	0x207
ARM GAS  C:\Users\tmj32\AppData\Local\Temp\ccUUfkkI.s 			page 99


 3516 01f8 07020000 		.4byte	0x207
 3517 01fc 0C       		.uleb128 0xc
 3518 01fd DC010000 		.4byte	0x1dc
 3519 0201 0C       		.uleb128 0xc
 3520 0202 E4000000 		.4byte	0xe4
 3521 0206 00       		.byte	0
 3522 0207 0D       		.uleb128 0xd
 3523 0208 04       		.byte	0x4
 3524 0209 0D020000 		.4byte	0x20d
 3525 020d 0E       		.uleb128 0xe
 3526 020e B8000000 		.4byte	0xb8
 3527 0212 0D       		.uleb128 0xd
 3528 0213 04       		.byte	0x4
 3529 0214 F3010000 		.4byte	0x1f3
 3530 0218 02       		.uleb128 0x2
 3531 0219 59120000 		.4byte	.LASF34
 3532 021d 09       		.byte	0x9
 3533 021e 56       		.byte	0x56
 3534 021f 5F010000 		.4byte	0x15f
 3535 0223 06       		.uleb128 0x6
 3536 0224 04       		.byte	0x4
 3537 0225 0A       		.byte	0xa
 3538 0226 F3       		.byte	0xf3
 3539 0227 5C020000 		.4byte	0x25c
 3540 022b 07       		.uleb128 0x7
 3541 022c F4030000 		.4byte	.LASF35
 3542 0230 0A       		.byte	0xa
 3543 0231 F5       		.byte	0xf5
 3544 0232 B8000000 		.4byte	0xb8
 3545 0236 00       		.byte	0
 3546 0237 07       		.uleb128 0x7
 3547 0238 53120000 		.4byte	.LASF36
 3548 023c 0A       		.byte	0xa
 3549 023d F6       		.byte	0xf6
 3550 023e B8000000 		.4byte	0xb8
 3551 0242 01       		.byte	0x1
 3552 0243 08       		.uleb128 0x8
 3553 0244 72656400 		.ascii	"red\000"
 3554 0248 0A       		.byte	0xa
 3555 0249 F7       		.byte	0xf7
 3556 024a B8000000 		.4byte	0xb8
 3557 024e 02       		.byte	0x2
 3558 024f 07       		.uleb128 0x7
 3559 0250 60020000 		.4byte	.LASF37
 3560 0254 0A       		.byte	0xa
 3561 0255 F8       		.byte	0xf8
 3562 0256 B8000000 		.4byte	0xb8
 3563 025a 03       		.byte	0x3
 3564 025b 00       		.byte	0
 3565 025c 0F       		.uleb128 0xf
 3566 025d 04       		.byte	0x4
 3567 025e 0A       		.byte	0xa
 3568 025f F1       		.byte	0xf1
 3569 0260 7A020000 		.4byte	0x27a
 3570 0264 10       		.uleb128 0x10
 3571 0265 636800   		.ascii	"ch\000"
 3572 0268 0A       		.byte	0xa
ARM GAS  C:\Users\tmj32\AppData\Local\Temp\ccUUfkkI.s 			page 100


 3573 0269 F9       		.byte	0xf9
 3574 026a 23020000 		.4byte	0x223
 3575 026e 11       		.uleb128 0x11
 3576 026f 340F0000 		.4byte	.LASF38
 3577 0273 0A       		.byte	0xa
 3578 0274 FA       		.byte	0xfa
 3579 0275 E4000000 		.4byte	0xe4
 3580 0279 00       		.byte	0
 3581 027a 02       		.uleb128 0x2
 3582 027b 4F000000 		.4byte	.LASF39
 3583 027f 0A       		.byte	0xa
 3584 0280 FB       		.byte	0xfb
 3585 0281 5C020000 		.4byte	0x25c
 3586 0285 12       		.uleb128 0x12
 3587 0286 A40D0000 		.4byte	.LASF40
 3588 028a 0A       		.byte	0xa
 3589 028b 0801     		.2byte	0x108
 3590 028d 7A020000 		.4byte	0x27a
 3591 0291 12       		.uleb128 0x12
 3592 0292 B6000000 		.4byte	.LASF41
 3593 0296 0A       		.byte	0xa
 3594 0297 0D01     		.2byte	0x10d
 3595 0299 B8000000 		.4byte	0xb8
 3596 029d 03       		.uleb128 0x3
 3597 029e 04       		.byte	0x4
 3598 029f 07       		.byte	0x7
 3599 02a0 40000000 		.4byte	.LASF42
 3600 02a4 03       		.uleb128 0x3
 3601 02a5 01       		.byte	0x1
 3602 02a6 08       		.byte	0x8
 3603 02a7 F9040000 		.4byte	.LASF43
 3604 02ab 0D       		.uleb128 0xd
 3605 02ac 04       		.byte	0x4
 3606 02ad B1020000 		.4byte	0x2b1
 3607 02b1 0E       		.uleb128 0xe
 3608 02b2 A4020000 		.4byte	0x2a4
 3609 02b6 06       		.uleb128 0x6
 3610 02b7 08       		.byte	0x8
 3611 02b8 0B       		.byte	0xb
 3612 02b9 31       		.byte	0x31
 3613 02ba EB020000 		.4byte	0x2eb
 3614 02be 08       		.uleb128 0x8
 3615 02bf 783100   		.ascii	"x1\000"
 3616 02c2 0B       		.byte	0xb
 3617 02c3 33       		.byte	0x33
 3618 02c4 EF000000 		.4byte	0xef
 3619 02c8 00       		.byte	0
 3620 02c9 08       		.uleb128 0x8
 3621 02ca 793100   		.ascii	"y1\000"
 3622 02cd 0B       		.byte	0xb
 3623 02ce 34       		.byte	0x34
 3624 02cf EF000000 		.4byte	0xef
 3625 02d3 02       		.byte	0x2
 3626 02d4 08       		.uleb128 0x8
 3627 02d5 783200   		.ascii	"x2\000"
 3628 02d8 0B       		.byte	0xb
 3629 02d9 35       		.byte	0x35
ARM GAS  C:\Users\tmj32\AppData\Local\Temp\ccUUfkkI.s 			page 101


 3630 02da EF000000 		.4byte	0xef
 3631 02de 04       		.byte	0x4
 3632 02df 08       		.uleb128 0x8
 3633 02e0 793200   		.ascii	"y2\000"
 3634 02e3 0B       		.byte	0xb
 3635 02e4 36       		.byte	0x36
 3636 02e5 EF000000 		.4byte	0xef
 3637 02e9 06       		.byte	0x6
 3638 02ea 00       		.byte	0
 3639 02eb 02       		.uleb128 0x2
 3640 02ec F9060000 		.4byte	.LASF44
 3641 02f0 0B       		.byte	0xb
 3642 02f1 37       		.byte	0x37
 3643 02f2 B6020000 		.4byte	0x2b6
 3644 02f6 13       		.uleb128 0x13
 3645 02f7 01       		.byte	0x1
 3646 02f8 42000000 		.4byte	0x42
 3647 02fc 0C       		.byte	0xc
 3648 02fd 23       		.byte	0x23
 3649 02fe 0F030000 		.4byte	0x30f
 3650 0302 14       		.uleb128 0x14
 3651 0303 CA030000 		.4byte	.LASF45
 3652 0307 00       		.byte	0
 3653 0308 14       		.uleb128 0x14
 3654 0309 72000000 		.4byte	.LASF46
 3655 030d 01       		.byte	0x1
 3656 030e 00       		.byte	0
 3657 030f 02       		.uleb128 0x2
 3658 0310 B4080000 		.4byte	.LASF47
 3659 0314 0C       		.byte	0xc
 3660 0315 28       		.byte	0x28
 3661 0316 B8000000 		.4byte	0xb8
 3662 031a 02       		.uleb128 0x2
 3663 031b 0D060000 		.4byte	.LASF48
 3664 031f 0C       		.byte	0xc
 3665 0320 2B       		.byte	0x2b
 3666 0321 EF000000 		.4byte	0xef
 3667 0325 02       		.uleb128 0x2
 3668 0326 FE040000 		.4byte	.LASF49
 3669 032a 0C       		.byte	0xc
 3670 032b 37       		.byte	0x37
 3671 032c 30030000 		.4byte	0x330
 3672 0330 0D       		.uleb128 0xd
 3673 0331 04       		.byte	0x4
 3674 0332 36030000 		.4byte	0x336
 3675 0336 15       		.uleb128 0x15
 3676 0337 46030000 		.4byte	0x346
 3677 033b 0C       		.uleb128 0xc
 3678 033c FA000000 		.4byte	0xfa
 3679 0340 0C       		.uleb128 0xc
 3680 0341 1A030000 		.4byte	0x31a
 3681 0345 00       		.byte	0
 3682 0346 0D       		.uleb128 0xd
 3683 0347 04       		.byte	0x4
 3684 0348 4C030000 		.4byte	0x34c
 3685 034c 09       		.uleb128 0x9
 3686 034d AC130000 		.4byte	.LASF51
ARM GAS  C:\Users\tmj32\AppData\Local\Temp\ccUUfkkI.s 			page 102


 3687 0351 24       		.byte	0x24
 3688 0352 0C       		.byte	0xc
 3689 0353 44       		.byte	0x44
 3690 0354 0D040000 		.4byte	0x40d
 3691 0358 08       		.uleb128 0x8
 3692 0359 76617200 		.ascii	"var\000"
 3693 035d 0C       		.byte	0xc
 3694 035e 46       		.byte	0x46
 3695 035f FA000000 		.4byte	0xfa
 3696 0363 00       		.byte	0
 3697 0364 07       		.uleb128 0x7
 3698 0365 FA0D0000 		.4byte	.LASF52
 3699 0369 0C       		.byte	0xc
 3700 036a 47       		.byte	0x47
 3701 036b 25030000 		.4byte	0x325
 3702 036f 04       		.byte	0x4
 3703 0370 07       		.uleb128 0x7
 3704 0371 3D010000 		.4byte	.LASF53
 3705 0375 0C       		.byte	0xc
 3706 0376 48       		.byte	0x48
 3707 0377 0D040000 		.4byte	0x40d
 3708 037b 08       		.byte	0x8
 3709 037c 07       		.uleb128 0x7
 3710 037d 65060000 		.4byte	.LASF54
 3711 0381 0C       		.byte	0xc
 3712 0382 49       		.byte	0x49
 3713 0383 38040000 		.4byte	0x438
 3714 0387 0C       		.byte	0xc
 3715 0388 07       		.uleb128 0x7
 3716 0389 49000000 		.4byte	.LASF55
 3717 038d 0C       		.byte	0xc
 3718 038e 4A       		.byte	0x4a
 3719 038f D9000000 		.4byte	0xd9
 3720 0393 10       		.byte	0x10
 3721 0394 08       		.uleb128 0x8
 3722 0395 656E6400 		.ascii	"end\000"
 3723 0399 0C       		.byte	0xc
 3724 039a 4B       		.byte	0x4b
 3725 039b D9000000 		.4byte	0xd9
 3726 039f 14       		.byte	0x14
 3727 03a0 07       		.uleb128 0x7
 3728 03a1 460F0000 		.4byte	.LASF56
 3729 03a5 0C       		.byte	0xc
 3730 03a6 4C       		.byte	0x4c
 3731 03a7 CE000000 		.4byte	0xce
 3732 03ab 18       		.byte	0x18
 3733 03ac 07       		.uleb128 0x7
 3734 03ad 80110000 		.4byte	.LASF57
 3735 03b1 0C       		.byte	0xc
 3736 03b2 4D       		.byte	0x4d
 3737 03b3 C3000000 		.4byte	0xc3
 3738 03b7 1A       		.byte	0x1a
 3739 03b8 07       		.uleb128 0x7
 3740 03b9 0E120000 		.4byte	.LASF58
 3741 03bd 0C       		.byte	0xc
 3742 03be 4E       		.byte	0x4e
 3743 03bf CE000000 		.4byte	0xce
ARM GAS  C:\Users\tmj32\AppData\Local\Temp\ccUUfkkI.s 			page 103


 3744 03c3 1C       		.byte	0x1c
 3745 03c4 07       		.uleb128 0x7
 3746 03c5 99020000 		.4byte	.LASF59
 3747 03c9 0C       		.byte	0xc
 3748 03ca 4F       		.byte	0x4f
 3749 03cb CE000000 		.4byte	0xce
 3750 03cf 1E       		.byte	0x1e
 3751 03d0 0A       		.uleb128 0xa
 3752 03d1 7F100000 		.4byte	.LASF61
 3753 03d5 0C       		.byte	0xc
 3754 03d6 54       		.byte	0x54
 3755 03d7 B8000000 		.4byte	0xb8
 3756 03db 01       		.byte	0x1
 3757 03dc 01       		.byte	0x1
 3758 03dd 07       		.byte	0x7
 3759 03de 20       		.byte	0x20
 3760 03df 0A       		.uleb128 0xa
 3761 03e0 A5000000 		.4byte	.LASF62
 3762 03e4 0C       		.byte	0xc
 3763 03e5 55       		.byte	0x55
 3764 03e6 B8000000 		.4byte	0xb8
 3765 03ea 01       		.byte	0x1
 3766 03eb 01       		.byte	0x1
 3767 03ec 06       		.byte	0x6
 3768 03ed 20       		.byte	0x20
 3769 03ee 0A       		.uleb128 0xa
 3770 03ef F6120000 		.4byte	.LASF63
 3771 03f3 0C       		.byte	0xc
 3772 03f4 57       		.byte	0x57
 3773 03f5 B8000000 		.4byte	0xb8
 3774 03f9 01       		.byte	0x1
 3775 03fa 01       		.byte	0x1
 3776 03fb 05       		.byte	0x5
 3777 03fc 20       		.byte	0x20
 3778 03fd 0A       		.uleb128 0xa
 3779 03fe FB0C0000 		.4byte	.LASF64
 3780 0402 0C       		.byte	0xc
 3781 0403 58       		.byte	0x58
 3782 0404 E4000000 		.4byte	0xe4
 3783 0408 04       		.byte	0x4
 3784 0409 01       		.byte	0x1
 3785 040a 1C       		.byte	0x1c
 3786 040b 20       		.byte	0x20
 3787 040c 00       		.byte	0
 3788 040d 02       		.uleb128 0x2
 3789 040e EC0A0000 		.4byte	.LASF65
 3790 0412 0C       		.byte	0xc
 3791 0413 3E       		.byte	0x3e
 3792 0414 18040000 		.4byte	0x418
 3793 0418 0D       		.uleb128 0xd
 3794 0419 04       		.byte	0x4
 3795 041a 1E040000 		.4byte	0x41e
 3796 041e 0B       		.uleb128 0xb
 3797 041f 1A030000 		.4byte	0x31a
 3798 0423 2D040000 		.4byte	0x42d
 3799 0427 0C       		.uleb128 0xc
 3800 0428 2D040000 		.4byte	0x42d
ARM GAS  C:\Users\tmj32\AppData\Local\Temp\ccUUfkkI.s 			page 104


 3801 042c 00       		.byte	0
 3802 042d 0D       		.uleb128 0xd
 3803 042e 04       		.byte	0x4
 3804 042f 33040000 		.4byte	0x433
 3805 0433 0E       		.uleb128 0xe
 3806 0434 4C030000 		.4byte	0x34c
 3807 0438 02       		.uleb128 0x2
 3808 0439 6C070000 		.4byte	.LASF66
 3809 043d 0C       		.byte	0xc
 3810 043e 41       		.byte	0x41
 3811 043f 43040000 		.4byte	0x443
 3812 0443 0D       		.uleb128 0xd
 3813 0444 04       		.byte	0x4
 3814 0445 49040000 		.4byte	0x449
 3815 0449 15       		.uleb128 0x15
 3816 044a 54040000 		.4byte	0x454
 3817 044e 0C       		.uleb128 0xc
 3818 044f 46030000 		.4byte	0x346
 3819 0453 00       		.byte	0
 3820 0454 02       		.uleb128 0x2
 3821 0455 24080000 		.4byte	.LASF67
 3822 0459 0C       		.byte	0xc
 3823 045a 59       		.byte	0x59
 3824 045b 4C030000 		.4byte	0x34c
 3825 045f 02       		.uleb128 0x2
 3826 0460 28130000 		.4byte	.LASF68
 3827 0464 0D       		.byte	0xd
 3828 0465 2C       		.byte	0x2c
 3829 0466 B8000000 		.4byte	0xb8
 3830 046a 02       		.uleb128 0x2
 3831 046b B10F0000 		.4byte	.LASF69
 3832 046f 0D       		.byte	0xd
 3833 0470 33       		.byte	0x33
 3834 0471 B8000000 		.4byte	0xb8
 3835 0475 06       		.uleb128 0x6
 3836 0476 08       		.byte	0x8
 3837 0477 0D       		.byte	0xd
 3838 0478 48       		.byte	0x48
 3839 0479 AE040000 		.4byte	0x4ae
 3840 047d 07       		.uleb128 0x7
 3841 047e 400F0000 		.4byte	.LASF70
 3842 0482 0D       		.byte	0xd
 3843 0483 4A       		.byte	0x4a
 3844 0484 85020000 		.4byte	0x285
 3845 0488 00       		.byte	0
 3846 0489 07       		.uleb128 0x7
 3847 048a E3090000 		.4byte	.LASF71
 3848 048e 0D       		.byte	0xd
 3849 048f 4B       		.byte	0x4b
 3850 0490 EF000000 		.4byte	0xef
 3851 0494 04       		.byte	0x4
 3852 0495 07       		.uleb128 0x7
 3853 0496 C8120000 		.4byte	.LASF72
 3854 049a 0D       		.byte	0xd
 3855 049b 4C       		.byte	0x4c
 3856 049c 5F040000 		.4byte	0x45f
 3857 04a0 06       		.byte	0x6
ARM GAS  C:\Users\tmj32\AppData\Local\Temp\ccUUfkkI.s 			page 105


 3858 04a1 08       		.uleb128 0x8
 3859 04a2 6F706100 		.ascii	"opa\000"
 3860 04a6 0D       		.byte	0xd
 3861 04a7 4D       		.byte	0x4d
 3862 04a8 91020000 		.4byte	0x291
 3863 04ac 07       		.byte	0x7
 3864 04ad 00       		.byte	0
 3865 04ae 06       		.uleb128 0x6
 3866 04af 08       		.byte	0x8
 3867 04b0 0D       		.byte	0xd
 3868 04b1 51       		.byte	0x51
 3869 04b2 DB040000 		.4byte	0x4db
 3870 04b6 07       		.uleb128 0x7
 3871 04b7 400F0000 		.4byte	.LASF70
 3872 04bb 0D       		.byte	0xd
 3873 04bc 53       		.byte	0x53
 3874 04bd 85020000 		.4byte	0x285
 3875 04c1 00       		.byte	0
 3876 04c2 07       		.uleb128 0x7
 3877 04c3 E3090000 		.4byte	.LASF71
 3878 04c7 0D       		.byte	0xd
 3879 04c8 54       		.byte	0x54
 3880 04c9 EF000000 		.4byte	0xef
 3881 04cd 04       		.byte	0x4
 3882 04ce 07       		.uleb128 0x7
 3883 04cf 01020000 		.4byte	.LASF73
 3884 04d3 0D       		.byte	0xd
 3885 04d4 55       		.byte	0x55
 3886 04d5 6A040000 		.4byte	0x46a
 3887 04d9 06       		.byte	0x6
 3888 04da 00       		.byte	0
 3889 04db 06       		.uleb128 0x6
 3890 04dc 0A       		.byte	0xa
 3891 04dd 0D       		.byte	0xd
 3892 04de 58       		.byte	0x58
 3893 04df 20050000 		.4byte	0x520
 3894 04e3 08       		.uleb128 0x8
 3895 04e4 746F7000 		.ascii	"top\000"
 3896 04e8 0D       		.byte	0xd
 3897 04e9 5A       		.byte	0x5a
 3898 04ea EF000000 		.4byte	0xef
 3899 04ee 00       		.byte	0
 3900 04ef 07       		.uleb128 0x7
 3901 04f0 FB090000 		.4byte	.LASF74
 3902 04f4 0D       		.byte	0xd
 3903 04f5 5B       		.byte	0x5b
 3904 04f6 EF000000 		.4byte	0xef
 3905 04fa 02       		.byte	0x2
 3906 04fb 07       		.uleb128 0x7
 3907 04fc 5C070000 		.4byte	.LASF75
 3908 0500 0D       		.byte	0xd
 3909 0501 5C       		.byte	0x5c
 3910 0502 EF000000 		.4byte	0xef
 3911 0506 04       		.byte	0x4
 3912 0507 07       		.uleb128 0x7
 3913 0508 2A090000 		.4byte	.LASF76
 3914 050c 0D       		.byte	0xd
ARM GAS  C:\Users\tmj32\AppData\Local\Temp\ccUUfkkI.s 			page 106


 3915 050d 5D       		.byte	0x5d
 3916 050e EF000000 		.4byte	0xef
 3917 0512 06       		.byte	0x6
 3918 0513 07       		.uleb128 0x7
 3919 0514 05080000 		.4byte	.LASF77
 3920 0518 0D       		.byte	0xd
 3921 0519 5E       		.byte	0x5e
 3922 051a EF000000 		.4byte	0xef
 3923 051e 08       		.byte	0x8
 3924 051f 00       		.byte	0
 3925 0520 06       		.uleb128 0x6
 3926 0521 28       		.byte	0x28
 3927 0522 0D       		.byte	0xd
 3928 0523 41       		.byte	0x41
 3929 0524 7D050000 		.4byte	0x57d
 3930 0528 07       		.uleb128 0x7
 3931 0529 DB0C0000 		.4byte	.LASF78
 3932 052d 0D       		.byte	0xd
 3933 052e 43       		.byte	0x43
 3934 052f 85020000 		.4byte	0x285
 3935 0533 00       		.byte	0
 3936 0534 07       		.uleb128 0x7
 3937 0535 6F0B0000 		.4byte	.LASF79
 3938 0539 0D       		.byte	0xd
 3939 053a 44       		.byte	0x44
 3940 053b 85020000 		.4byte	0x285
 3941 053f 04       		.byte	0x4
 3942 0540 07       		.uleb128 0x7
 3943 0541 11010000 		.4byte	.LASF80
 3944 0545 0D       		.byte	0xd
 3945 0546 45       		.byte	0x45
 3946 0547 EF000000 		.4byte	0xef
 3947 054b 08       		.byte	0x8
 3948 054c 08       		.uleb128 0x8
 3949 054d 6F706100 		.ascii	"opa\000"
 3950 0551 0D       		.byte	0xd
 3951 0552 46       		.byte	0x46
 3952 0553 91020000 		.4byte	0x291
 3953 0557 0A       		.byte	0xa
 3954 0558 07       		.uleb128 0x7
 3955 0559 03130000 		.4byte	.LASF81
 3956 055d 0D       		.byte	0xd
 3957 055e 4E       		.byte	0x4e
 3958 055f 75040000 		.4byte	0x475
 3959 0563 0C       		.byte	0xc
 3960 0564 07       		.uleb128 0x7
 3961 0565 40110000 		.4byte	.LASF82
 3962 0569 0D       		.byte	0xd
 3963 056a 56       		.byte	0x56
 3964 056b AE040000 		.4byte	0x4ae
 3965 056f 14       		.byte	0x14
 3966 0570 07       		.uleb128 0x7
 3967 0571 D1110000 		.4byte	.LASF83
 3968 0575 0D       		.byte	0xd
 3969 0576 5F       		.byte	0x5f
 3970 0577 DB040000 		.4byte	0x4db
 3971 057b 1C       		.byte	0x1c
ARM GAS  C:\Users\tmj32\AppData\Local\Temp\ccUUfkkI.s 			page 107


 3972 057c 00       		.byte	0
 3973 057d 06       		.uleb128 0x6
 3974 057e 14       		.byte	0x14
 3975 057f 0D       		.byte	0xd
 3976 0580 63       		.byte	0x63
 3977 0581 CE050000 		.4byte	0x5ce
 3978 0585 07       		.uleb128 0x7
 3979 0586 400F0000 		.4byte	.LASF70
 3980 058a 0D       		.byte	0xd
 3981 058b 65       		.byte	0x65
 3982 058c 85020000 		.4byte	0x285
 3983 0590 00       		.byte	0
 3984 0591 07       		.uleb128 0x7
 3985 0592 92130000 		.4byte	.LASF84
 3986 0596 0D       		.byte	0xd
 3987 0597 66       		.byte	0x66
 3988 0598 85020000 		.4byte	0x285
 3989 059c 04       		.byte	0x4
 3990 059d 07       		.uleb128 0x7
 3991 059e FB0F0000 		.4byte	.LASF85
 3992 05a2 0D       		.byte	0xd
 3993 05a3 67       		.byte	0x67
 3994 05a4 CE050000 		.4byte	0x5ce
 3995 05a8 08       		.byte	0x8
 3996 05a9 07       		.uleb128 0x7
 3997 05aa 00100000 		.4byte	.LASF86
 3998 05ae 0D       		.byte	0xd
 3999 05af 68       		.byte	0x68
 4000 05b0 EF000000 		.4byte	0xef
 4001 05b4 0C       		.byte	0xc
 4002 05b5 07       		.uleb128 0x7
 4003 05b6 4B0F0000 		.4byte	.LASF87
 4004 05ba 0D       		.byte	0xd
 4005 05bb 69       		.byte	0x69
 4006 05bc EF000000 		.4byte	0xef
 4007 05c0 0E       		.byte	0xe
 4008 05c1 08       		.uleb128 0x8
 4009 05c2 6F706100 		.ascii	"opa\000"
 4010 05c6 0D       		.byte	0xd
 4011 05c7 6A       		.byte	0x6a
 4012 05c8 91020000 		.4byte	0x291
 4013 05cc 10       		.byte	0x10
 4014 05cd 00       		.byte	0
 4015 05ce 0D       		.uleb128 0xd
 4016 05cf 04       		.byte	0x4
 4017 05d0 D4050000 		.4byte	0x5d4
 4018 05d4 0E       		.uleb128 0xe
 4019 05d5 18020000 		.4byte	0x218
 4020 05d9 06       		.uleb128 0x6
 4021 05da 08       		.byte	0x8
 4022 05db 0D       		.byte	0xd
 4023 05dc 6E       		.byte	0x6e
 4024 05dd 06060000 		.4byte	0x606
 4025 05e1 07       		.uleb128 0x7
 4026 05e2 400F0000 		.4byte	.LASF70
 4027 05e6 0D       		.byte	0xd
 4028 05e7 70       		.byte	0x70
ARM GAS  C:\Users\tmj32\AppData\Local\Temp\ccUUfkkI.s 			page 108


 4029 05e8 85020000 		.4byte	0x285
 4030 05ec 00       		.byte	0
 4031 05ed 07       		.uleb128 0x7
 4032 05ee C7000000 		.4byte	.LASF88
 4033 05f2 0D       		.byte	0xd
 4034 05f3 71       		.byte	0x71
 4035 05f4 91020000 		.4byte	0x291
 4036 05f8 04       		.byte	0x4
 4037 05f9 08       		.uleb128 0x8
 4038 05fa 6F706100 		.ascii	"opa\000"
 4039 05fe 0D       		.byte	0xd
 4040 05ff 72       		.byte	0x72
 4041 0600 91020000 		.4byte	0x291
 4042 0604 05       		.byte	0x5
 4043 0605 00       		.byte	0
 4044 0606 06       		.uleb128 0x6
 4045 0607 08       		.byte	0x8
 4046 0608 0D       		.byte	0xd
 4047 0609 76       		.byte	0x76
 4048 060a 42060000 		.4byte	0x642
 4049 060e 07       		.uleb128 0x7
 4050 060f 400F0000 		.4byte	.LASF70
 4051 0613 0D       		.byte	0xd
 4052 0614 78       		.byte	0x78
 4053 0615 85020000 		.4byte	0x285
 4054 0619 00       		.byte	0
 4055 061a 07       		.uleb128 0x7
 4056 061b E3090000 		.4byte	.LASF71
 4057 061f 0D       		.byte	0xd
 4058 0620 79       		.byte	0x79
 4059 0621 EF000000 		.4byte	0xef
 4060 0625 04       		.byte	0x4
 4061 0626 08       		.uleb128 0x8
 4062 0627 6F706100 		.ascii	"opa\000"
 4063 062b 0D       		.byte	0xd
 4064 062c 7A       		.byte	0x7a
 4065 062d 91020000 		.4byte	0x291
 4066 0631 06       		.byte	0x6
 4067 0632 0A       		.uleb128 0xa
 4068 0633 BD060000 		.4byte	.LASF89
 4069 0637 0D       		.byte	0xd
 4070 0638 7B       		.byte	0x7b
 4071 0639 B8000000 		.4byte	0xb8
 4072 063d 01       		.byte	0x1
 4073 063e 01       		.byte	0x1
 4074 063f 07       		.byte	0x7
 4075 0640 07       		.byte	0x7
 4076 0641 00       		.byte	0
 4077 0642 06       		.uleb128 0x6
 4078 0643 50       		.byte	0x50
 4079 0644 0D       		.byte	0xd
 4080 0645 3C       		.byte	0x3c
 4081 0646 8A060000 		.4byte	0x68a
 4082 064a 0A       		.uleb128 0xa
 4083 064b 8C0A0000 		.4byte	.LASF90
 4084 064f 0D       		.byte	0xd
 4085 0650 3E       		.byte	0x3e
ARM GAS  C:\Users\tmj32\AppData\Local\Temp\ccUUfkkI.s 			page 109


 4086 0651 B8000000 		.4byte	0xb8
 4087 0655 01       		.byte	0x1
 4088 0656 01       		.byte	0x1
 4089 0657 07       		.byte	0x7
 4090 0658 00       		.byte	0
 4091 0659 07       		.uleb128 0x7
 4092 065a 2F050000 		.4byte	.LASF91
 4093 065e 0D       		.byte	0xd
 4094 065f 60       		.byte	0x60
 4095 0660 20050000 		.4byte	0x520
 4096 0664 04       		.byte	0x4
 4097 0665 07       		.uleb128 0x7
 4098 0666 8C060000 		.4byte	.LASF92
 4099 066a 0D       		.byte	0xd
 4100 066b 6B       		.byte	0x6b
 4101 066c 7D050000 		.4byte	0x57d
 4102 0670 2C       		.byte	0x2c
 4103 0671 07       		.uleb128 0x7
 4104 0672 B7060000 		.4byte	.LASF93
 4105 0676 0D       		.byte	0xd
 4106 0677 73       		.byte	0x73
 4107 0678 D9050000 		.4byte	0x5d9
 4108 067c 40       		.byte	0x40
 4109 067d 07       		.uleb128 0x7
 4110 067e 98080000 		.4byte	.LASF94
 4111 0682 0D       		.byte	0xd
 4112 0683 7C       		.byte	0x7c
 4113 0684 06060000 		.4byte	0x606
 4114 0688 48       		.byte	0x48
 4115 0689 00       		.byte	0
 4116 068a 02       		.uleb128 0x2
 4117 068b FA070000 		.4byte	.LASF95
 4118 068f 0D       		.byte	0xd
 4119 0690 84       		.byte	0x84
 4120 0691 42060000 		.4byte	0x642
 4121 0695 0D       		.uleb128 0xd
 4122 0696 04       		.byte	0x4
 4123 0697 8A060000 		.4byte	0x68a
 4124 069b 13       		.uleb128 0x13
 4125 069c 01       		.byte	0x1
 4126 069d 42000000 		.4byte	0x42
 4127 06a1 0E       		.byte	0xe
 4128 06a2 27       		.byte	0x27
 4129 06a3 B4060000 		.4byte	0x6b4
 4130 06a7 14       		.uleb128 0x14
 4131 06a8 E4010000 		.4byte	.LASF96
 4132 06ac 00       		.byte	0
 4133 06ad 14       		.uleb128 0x14
 4134 06ae 760D0000 		.4byte	.LASF97
 4135 06b2 01       		.byte	0x1
 4136 06b3 00       		.byte	0
 4137 06b4 02       		.uleb128 0x2
 4138 06b5 050C0000 		.4byte	.LASF98
 4139 06b9 0E       		.byte	0xe
 4140 06ba 2C       		.byte	0x2c
 4141 06bb B8000000 		.4byte	0xb8
 4142 06bf 02       		.uleb128 0x2
ARM GAS  C:\Users\tmj32\AppData\Local\Temp\ccUUfkkI.s 			page 110


 4143 06c0 1A000000 		.4byte	.LASF99
 4144 06c4 0F       		.byte	0xf
 4145 06c5 1E       		.byte	0x1e
 4146 06c6 B8000000 		.4byte	0xb8
 4147 06ca 06       		.uleb128 0x6
 4148 06cb 0C       		.byte	0xc
 4149 06cc 0F       		.byte	0xf
 4150 06cd 21       		.byte	0x21
 4151 06ce F7060000 		.4byte	0x6f7
 4152 06d2 07       		.uleb128 0x7
 4153 06d3 B7130000 		.4byte	.LASF100
 4154 06d7 0F       		.byte	0xf
 4155 06d8 23       		.byte	0x23
 4156 06d9 E4000000 		.4byte	0xe4
 4157 06dd 00       		.byte	0
 4158 06de 07       		.uleb128 0x7
 4159 06df 13030000 		.4byte	.LASF101
 4160 06e3 0F       		.byte	0xf
 4161 06e4 24       		.byte	0x24
 4162 06e5 F7060000 		.4byte	0x6f7
 4163 06e9 04       		.byte	0x4
 4164 06ea 07       		.uleb128 0x7
 4165 06eb 7D000000 		.4byte	.LASF102
 4166 06ef 0F       		.byte	0xf
 4167 06f0 25       		.byte	0x25
 4168 06f1 F7060000 		.4byte	0x6f7
 4169 06f5 08       		.byte	0x8
 4170 06f6 00       		.byte	0
 4171 06f7 0D       		.uleb128 0xd
 4172 06f8 04       		.byte	0x4
 4173 06f9 BF060000 		.4byte	0x6bf
 4174 06fd 02       		.uleb128 0x2
 4175 06fe 92100000 		.4byte	.LASF103
 4176 0702 0F       		.byte	0xf
 4177 0703 26       		.byte	0x26
 4178 0704 CA060000 		.4byte	0x6ca
 4179 0708 13       		.uleb128 0x13
 4180 0709 01       		.byte	0x1
 4181 070a 42000000 		.4byte	0x42
 4182 070e 10       		.byte	0x10
 4183 070f 25       		.byte	0x25
 4184 0710 39070000 		.4byte	0x739
 4185 0714 14       		.uleb128 0x14
 4186 0715 4B010000 		.4byte	.LASF104
 4187 0719 00       		.byte	0
 4188 071a 14       		.uleb128 0x14
 4189 071b B9110000 		.4byte	.LASF105
 4190 071f 01       		.byte	0x1
 4191 0720 14       		.uleb128 0x14
 4192 0721 230F0000 		.4byte	.LASF106
 4193 0725 02       		.byte	0x2
 4194 0726 14       		.uleb128 0x14
 4195 0727 24070000 		.4byte	.LASF107
 4196 072b 03       		.byte	0x3
 4197 072c 14       		.uleb128 0x14
 4198 072d D80D0000 		.4byte	.LASF108
 4199 0731 20       		.byte	0x20
ARM GAS  C:\Users\tmj32\AppData\Local\Temp\ccUUfkkI.s 			page 111


 4200 0732 14       		.uleb128 0x14
 4201 0733 61000000 		.4byte	.LASF109
 4202 0737 21       		.byte	0x21
 4203 0738 00       		.byte	0
 4204 0739 02       		.uleb128 0x2
 4205 073a DE060000 		.4byte	.LASF110
 4206 073e 10       		.byte	0x10
 4207 073f 30       		.byte	0x30
 4208 0740 B8000000 		.4byte	0xb8
 4209 0744 0D       		.uleb128 0xd
 4210 0745 04       		.byte	0x4
 4211 0746 4A070000 		.4byte	0x74a
 4212 074a 0E       		.uleb128 0xe
 4213 074b EB020000 		.4byte	0x2eb
 4214 074f 09       		.uleb128 0x9
 4215 0750 F10F0000 		.4byte	.LASF111
 4216 0754 40       		.byte	0x40
 4217 0755 11       		.byte	0x11
 4218 0756 BB       		.byte	0xbb
 4219 0757 91080000 		.4byte	0x891
 4220 075b 08       		.uleb128 0x8
 4221 075c 70617200 		.ascii	"par\000"
 4222 0760 11       		.byte	0x11
 4223 0761 BD       		.byte	0xbd
 4224 0762 91080000 		.4byte	0x891
 4225 0766 00       		.byte	0
 4226 0767 07       		.uleb128 0x7
 4227 0768 020A0000 		.4byte	.LASF112
 4228 076c 11       		.byte	0x11
 4229 076d BE       		.byte	0xbe
 4230 076e FD060000 		.4byte	0x6fd
 4231 0772 04       		.byte	0x4
 4232 0773 07       		.uleb128 0x7
 4233 0774 D2100000 		.4byte	.LASF113
 4234 0778 11       		.byte	0x11
 4235 0779 C0       		.byte	0xc0
 4236 077a EB020000 		.4byte	0x2eb
 4237 077e 10       		.byte	0x10
 4238 077f 07       		.uleb128 0x7
 4239 0780 21090000 		.4byte	.LASF114
 4240 0784 11       		.byte	0x11
 4241 0785 C2       		.byte	0xc2
 4242 0786 D7080000 		.4byte	0x8d7
 4243 078a 18       		.byte	0x18
 4244 078b 07       		.uleb128 0x7
 4245 078c E6110000 		.4byte	.LASF115
 4246 0790 11       		.byte	0x11
 4247 0791 C3       		.byte	0xc3
 4248 0792 88090000 		.4byte	0x988
 4249 0796 1C       		.byte	0x1c
 4250 0797 07       		.uleb128 0x7
 4251 0798 1D060000 		.4byte	.LASF116
 4252 079c 11       		.byte	0x11
 4253 079d C4       		.byte	0xc4
 4254 079e A2080000 		.4byte	0x8a2
 4255 07a2 20       		.byte	0x20
 4256 07a3 07       		.uleb128 0x7
ARM GAS  C:\Users\tmj32\AppData\Local\Temp\ccUUfkkI.s 			page 112


 4257 07a4 420C0000 		.4byte	.LASF117
 4258 07a8 11       		.byte	0x11
 4259 07a9 C6       		.byte	0xc6
 4260 07aa FA000000 		.4byte	0xfa
 4261 07ae 24       		.byte	0x24
 4262 07af 07       		.uleb128 0x7
 4263 07b0 30090000 		.4byte	.LASF118
 4264 07b4 11       		.byte	0x11
 4265 07b5 C7       		.byte	0xc7
 4266 07b6 350A0000 		.4byte	0xa35
 4267 07ba 28       		.byte	0x28
 4268 07bb 0A       		.uleb128 0xa
 4269 07bc 45010000 		.4byte	.LASF119
 4270 07c0 11       		.byte	0x11
 4271 07c1 D7       		.byte	0xd7
 4272 07c2 B8000000 		.4byte	0xb8
 4273 07c6 01       		.byte	0x1
 4274 07c7 01       		.byte	0x1
 4275 07c8 07       		.byte	0x7
 4276 07c9 2C       		.byte	0x2c
 4277 07ca 0A       		.uleb128 0xa
 4278 07cb C20F0000 		.4byte	.LASF120
 4279 07cf 11       		.byte	0x11
 4280 07d0 D8       		.byte	0xd8
 4281 07d1 B8000000 		.4byte	0xb8
 4282 07d5 01       		.byte	0x1
 4283 07d6 01       		.byte	0x1
 4284 07d7 06       		.byte	0x6
 4285 07d8 2C       		.byte	0x2c
 4286 07d9 0A       		.uleb128 0xa
 4287 07da C5060000 		.4byte	.LASF121
 4288 07de 11       		.byte	0x11
 4289 07df D9       		.byte	0xd9
 4290 07e0 B8000000 		.4byte	0xb8
 4291 07e4 01       		.byte	0x1
 4292 07e5 01       		.byte	0x1
 4293 07e6 05       		.byte	0x5
 4294 07e7 2C       		.byte	0x2c
 4295 07e8 0A       		.uleb128 0xa
 4296 07e9 53110000 		.4byte	.LASF122
 4297 07ed 11       		.byte	0x11
 4298 07ee DA       		.byte	0xda
 4299 07ef B8000000 		.4byte	0xb8
 4300 07f3 01       		.byte	0x1
 4301 07f4 01       		.byte	0x1
 4302 07f5 04       		.byte	0x4
 4303 07f6 2C       		.byte	0x2c
 4304 07f7 0A       		.uleb128 0xa
 4305 07f8 92020000 		.4byte	.LASF123
 4306 07fc 11       		.byte	0x11
 4307 07fd DB       		.byte	0xdb
 4308 07fe B8000000 		.4byte	0xb8
 4309 0802 01       		.byte	0x1
 4310 0803 01       		.byte	0x1
 4311 0804 03       		.byte	0x3
 4312 0805 2C       		.byte	0x2c
 4313 0806 16       		.uleb128 0x16
ARM GAS  C:\Users\tmj32\AppData\Local\Temp\ccUUfkkI.s 			page 113


 4314 0807 746F7000 		.ascii	"top\000"
 4315 080b 11       		.byte	0x11
 4316 080c DC       		.byte	0xdc
 4317 080d B8000000 		.4byte	0xb8
 4318 0811 01       		.byte	0x1
 4319 0812 01       		.byte	0x1
 4320 0813 02       		.byte	0x2
 4321 0814 2C       		.byte	0x2c
 4322 0815 0A       		.uleb128 0xa
 4323 0816 14110000 		.4byte	.LASF124
 4324 081a 11       		.byte	0x11
 4325 081b DD       		.byte	0xdd
 4326 081c B8000000 		.4byte	0xb8
 4327 0820 01       		.byte	0x1
 4328 0821 01       		.byte	0x1
 4329 0822 01       		.byte	0x1
 4330 0823 2C       		.byte	0x2c
 4331 0824 0A       		.uleb128 0xa
 4332 0825 420A0000 		.4byte	.LASF125
 4333 0829 11       		.byte	0x11
 4334 082a DE       		.byte	0xde
 4335 082b B8000000 		.4byte	0xb8
 4336 082f 01       		.byte	0x1
 4337 0830 01       		.byte	0x1
 4338 0831 00       		.byte	0
 4339 0832 2C       		.byte	0x2c
 4340 0833 0A       		.uleb128 0xa
 4341 0834 63040000 		.4byte	.LASF126
 4342 0838 11       		.byte	0x11
 4343 0839 DF       		.byte	0xdf
 4344 083a 2A0A0000 		.4byte	0xa2a
 4345 083e 01       		.byte	0x1
 4346 083f 02       		.byte	0x2
 4347 0840 06       		.byte	0x6
 4348 0841 2D       		.byte	0x2d
 4349 0842 0A       		.uleb128 0xa
 4350 0843 16100000 		.4byte	.LASF127
 4351 0847 11       		.byte	0x11
 4352 0848 E0       		.byte	0xe0
 4353 0849 39070000 		.4byte	0x739
 4354 084d 01       		.byte	0x1
 4355 084e 02       		.byte	0x2
 4356 084f 04       		.byte	0x4
 4357 0850 2D       		.byte	0x2d
 4358 0851 0A       		.uleb128 0xa
 4359 0852 63120000 		.4byte	.LASF128
 4360 0856 11       		.byte	0x11
 4361 0857 E1       		.byte	0xe1
 4362 0858 B8000000 		.4byte	0xb8
 4363 085c 01       		.byte	0x1
 4364 085d 03       		.byte	0x3
 4365 085e 01       		.byte	0x1
 4366 085f 2D       		.byte	0x2d
 4367 0860 07       		.uleb128 0x7
 4368 0861 110A0000 		.4byte	.LASF129
 4369 0865 11       		.byte	0x11
 4370 0866 E2       		.byte	0xe2
ARM GAS  C:\Users\tmj32\AppData\Local\Temp\ccUUfkkI.s 			page 114


 4371 0867 B8000000 		.4byte	0xb8
 4372 086b 2E       		.byte	0x2e
 4373 086c 07       		.uleb128 0x7
 4374 086d FF130000 		.4byte	.LASF130
 4375 0871 11       		.byte	0x11
 4376 0872 E4       		.byte	0xe4
 4377 0873 91020000 		.4byte	0x291
 4378 0877 2F       		.byte	0x2f
 4379 0878 07       		.uleb128 0x7
 4380 0879 EC060000 		.4byte	.LASF131
 4381 087d 11       		.byte	0x11
 4382 087e E6       		.byte	0xe6
 4383 087f EF000000 		.4byte	0xef
 4384 0883 30       		.byte	0x30
 4385 0884 07       		.uleb128 0x7
 4386 0885 87070000 		.4byte	.LASF132
 4387 0889 11       		.byte	0x11
 4388 088a E9       		.byte	0xe9
 4389 088b 1F0A0000 		.4byte	0xa1f
 4390 088f 34       		.byte	0x34
 4391 0890 00       		.byte	0
 4392 0891 0D       		.uleb128 0xd
 4393 0892 04       		.byte	0x4
 4394 0893 4F070000 		.4byte	0x74f
 4395 0897 02       		.uleb128 0x2
 4396 0898 5B0C0000 		.4byte	.LASF133
 4397 089c 11       		.byte	0x11
 4398 089d 42       		.byte	0x42
 4399 089e B8000000 		.4byte	0xb8
 4400 08a2 02       		.uleb128 0x2
 4401 08a3 E5130000 		.4byte	.LASF134
 4402 08a7 11       		.byte	0x11
 4403 08a8 48       		.byte	0x48
 4404 08a9 AD080000 		.4byte	0x8ad
 4405 08ad 0D       		.uleb128 0xd
 4406 08ae 04       		.byte	0x4
 4407 08af B3080000 		.4byte	0x8b3
 4408 08b3 0B       		.uleb128 0xb
 4409 08b4 D5010000 		.4byte	0x1d5
 4410 08b8 CC080000 		.4byte	0x8cc
 4411 08bc 0C       		.uleb128 0xc
 4412 08bd 91080000 		.4byte	0x891
 4413 08c1 0C       		.uleb128 0xc
 4414 08c2 44070000 		.4byte	0x744
 4415 08c6 0C       		.uleb128 0xc
 4416 08c7 97080000 		.4byte	0x897
 4417 08cb 00       		.byte	0
 4418 08cc 02       		.uleb128 0x2
 4419 08cd A7010000 		.4byte	.LASF135
 4420 08d1 11       		.byte	0x11
 4421 08d2 61       		.byte	0x61
 4422 08d3 B8000000 		.4byte	0xb8
 4423 08d7 02       		.uleb128 0x2
 4424 08d8 4D130000 		.4byte	.LASF136
 4425 08dc 11       		.byte	0x11
 4426 08dd 68       		.byte	0x68
 4427 08de E2080000 		.4byte	0x8e2
ARM GAS  C:\Users\tmj32\AppData\Local\Temp\ccUUfkkI.s 			page 115


 4428 08e2 0D       		.uleb128 0xd
 4429 08e3 04       		.byte	0x4
 4430 08e4 E8080000 		.4byte	0x8e8
 4431 08e8 15       		.uleb128 0x15
 4432 08e9 F8080000 		.4byte	0x8f8
 4433 08ed 0C       		.uleb128 0xc
 4434 08ee 91080000 		.4byte	0x891
 4435 08f2 0C       		.uleb128 0xc
 4436 08f3 CC080000 		.4byte	0x8cc
 4437 08f7 00       		.byte	0
 4438 08f8 13       		.uleb128 0x13
 4439 08f9 01       		.byte	0x1
 4440 08fa 42000000 		.4byte	0x42
 4441 08fe 11       		.byte	0x11
 4442 08ff 6D       		.byte	0x6d
 4443 0900 7D090000 		.4byte	0x97d
 4444 0904 14       		.uleb128 0x14
 4445 0905 4F0A0000 		.4byte	.LASF137
 4446 0909 00       		.byte	0
 4447 090a 14       		.uleb128 0x14
 4448 090b D80A0000 		.4byte	.LASF138
 4449 090f 01       		.byte	0x1
 4450 0910 14       		.uleb128 0x14
 4451 0911 BF100000 		.4byte	.LASF139
 4452 0915 02       		.byte	0x2
 4453 0916 14       		.uleb128 0x14
 4454 0917 AE0C0000 		.4byte	.LASF140
 4455 091b 03       		.byte	0x3
 4456 091c 14       		.uleb128 0x14
 4457 091d 91000000 		.4byte	.LASF141
 4458 0921 04       		.byte	0x4
 4459 0922 14       		.uleb128 0x14
 4460 0923 69110000 		.4byte	.LASF142
 4461 0927 05       		.byte	0x5
 4462 0928 14       		.uleb128 0x14
 4463 0929 47040000 		.4byte	.LASF143
 4464 092d 06       		.byte	0x6
 4465 092e 14       		.uleb128 0x14
 4466 092f B6070000 		.4byte	.LASF144
 4467 0933 07       		.byte	0x7
 4468 0934 14       		.uleb128 0x14
 4469 0935 EF010000 		.4byte	.LASF145
 4470 0939 08       		.byte	0x8
 4471 093a 14       		.uleb128 0x14
 4472 093b 970B0000 		.4byte	.LASF146
 4473 093f 09       		.byte	0x9
 4474 0940 14       		.uleb128 0x14
 4475 0941 720C0000 		.4byte	.LASF147
 4476 0945 0A       		.byte	0xa
 4477 0946 14       		.uleb128 0x14
 4478 0947 C80C0000 		.4byte	.LASF148
 4479 094b 0B       		.byte	0xb
 4480 094c 14       		.uleb128 0x14
 4481 094d FC000000 		.4byte	.LASF149
 4482 0951 0C       		.byte	0xc
 4483 0952 14       		.uleb128 0x14
 4484 0953 F9030000 		.4byte	.LASF150
ARM GAS  C:\Users\tmj32\AppData\Local\Temp\ccUUfkkI.s 			page 116


 4485 0957 0D       		.byte	0xd
 4486 0958 14       		.uleb128 0x14
 4487 0959 7C010000 		.4byte	.LASF151
 4488 095d 0E       		.byte	0xe
 4489 095e 14       		.uleb128 0x14
 4490 095f 870C0000 		.4byte	.LASF152
 4491 0963 0F       		.byte	0xf
 4492 0964 14       		.uleb128 0x14
 4493 0965 9D080000 		.4byte	.LASF153
 4494 0969 10       		.byte	0x10
 4495 096a 14       		.uleb128 0x14
 4496 096b 27060000 		.4byte	.LASF154
 4497 096f 11       		.byte	0x11
 4498 0970 14       		.uleb128 0x14
 4499 0971 E9090000 		.4byte	.LASF155
 4500 0975 12       		.byte	0x12
 4501 0976 14       		.uleb128 0x14
 4502 0977 E8080000 		.4byte	.LASF156
 4503 097b 13       		.byte	0x13
 4504 097c 00       		.byte	0
 4505 097d 02       		.uleb128 0x2
 4506 097e EF0C0000 		.4byte	.LASF157
 4507 0982 11       		.byte	0x11
 4508 0983 88       		.byte	0x88
 4509 0984 B8000000 		.4byte	0xb8
 4510 0988 02       		.uleb128 0x2
 4511 0989 D6040000 		.4byte	.LASF158
 4512 098d 11       		.byte	0x11
 4513 098e 8A       		.byte	0x8a
 4514 098f 93090000 		.4byte	0x993
 4515 0993 0D       		.uleb128 0xd
 4516 0994 04       		.byte	0x4
 4517 0995 99090000 		.4byte	0x999
 4518 0999 0B       		.uleb128 0xb
 4519 099a B4060000 		.4byte	0x6b4
 4520 099e B2090000 		.4byte	0x9b2
 4521 09a2 0C       		.uleb128 0xc
 4522 09a3 91080000 		.4byte	0x891
 4523 09a7 0C       		.uleb128 0xc
 4524 09a8 7D090000 		.4byte	0x97d
 4525 09ac 0C       		.uleb128 0xc
 4526 09ad FA000000 		.4byte	0xfa
 4527 09b1 00       		.byte	0
 4528 09b2 02       		.uleb128 0x2
 4529 09b3 5B010000 		.4byte	.LASF159
 4530 09b7 11       		.byte	0x11
 4531 09b8 A4       		.byte	0xa4
 4532 09b9 B8000000 		.4byte	0xb8
 4533 09bd 06       		.uleb128 0x6
 4534 09be 0C       		.byte	0xc
 4535 09bf 11       		.byte	0x11
 4536 09c0 A7       		.byte	0xa7
 4537 09c1 140A0000 		.4byte	0xa14
 4538 09c5 07       		.uleb128 0x7
 4539 09c6 6A100000 		.4byte	.LASF160
 4540 09ca 11       		.byte	0x11
 4541 09cb A9       		.byte	0xa9
ARM GAS  C:\Users\tmj32\AppData\Local\Temp\ccUUfkkI.s 			page 117


 4542 09cc 140A0000 		.4byte	0xa14
 4543 09d0 00       		.byte	0
 4544 09d1 07       		.uleb128 0x7
 4545 09d2 560F0000 		.4byte	.LASF161
 4546 09d6 11       		.byte	0x11
 4547 09d7 AA       		.byte	0xaa
 4548 09d8 EF000000 		.4byte	0xef
 4549 09dc 04       		.byte	0x4
 4550 09dd 07       		.uleb128 0x7
 4551 09de 3E050000 		.4byte	.LASF162
 4552 09e2 11       		.byte	0x11
 4553 09e3 AB       		.byte	0xab
 4554 09e4 EF000000 		.4byte	0xef
 4555 09e8 06       		.byte	0x6
 4556 09e9 07       		.uleb128 0x7
 4557 09ea 610A0000 		.4byte	.LASF163
 4558 09ee 11       		.byte	0x11
 4559 09ef AC       		.byte	0xac
 4560 09f0 B2090000 		.4byte	0x9b2
 4561 09f4 08       		.byte	0x8
 4562 09f5 0A       		.uleb128 0xa
 4563 09f6 340B0000 		.4byte	.LASF164
 4564 09fa 11       		.byte	0x11
 4565 09fb AD       		.byte	0xad
 4566 09fc B8000000 		.4byte	0xb8
 4567 0a00 01       		.byte	0x1
 4568 0a01 01       		.byte	0x1
 4569 0a02 07       		.byte	0x7
 4570 0a03 09       		.byte	0x9
 4571 0a04 0A       		.uleb128 0xa
 4572 0a05 63130000 		.4byte	.LASF165
 4573 0a09 11       		.byte	0x11
 4574 0a0a AE       		.byte	0xae
 4575 0a0b B8000000 		.4byte	0xb8
 4576 0a0f 01       		.byte	0x1
 4577 0a10 01       		.byte	0x1
 4578 0a11 06       		.byte	0x6
 4579 0a12 09       		.byte	0x9
 4580 0a13 00       		.byte	0
 4581 0a14 0D       		.uleb128 0xd
 4582 0a15 04       		.byte	0x4
 4583 0a16 1A0A0000 		.4byte	0xa1a
 4584 0a1a 0E       		.uleb128 0xe
 4585 0a1b 4F070000 		.4byte	0x74f
 4586 0a1f 02       		.uleb128 0x2
 4587 0a20 18010000 		.4byte	.LASF166
 4588 0a24 11       		.byte	0x11
 4589 0a25 B0       		.byte	0xb0
 4590 0a26 BD090000 		.4byte	0x9bd
 4591 0a2a 02       		.uleb128 0x2
 4592 0a2b 2E0C0000 		.4byte	.LASF167
 4593 0a2f 11       		.byte	0x11
 4594 0a30 B9       		.byte	0xb9
 4595 0a31 B8000000 		.4byte	0xb8
 4596 0a35 0D       		.uleb128 0xd
 4597 0a36 04       		.byte	0x4
 4598 0a37 3B0A0000 		.4byte	0xa3b
ARM GAS  C:\Users\tmj32\AppData\Local\Temp\ccUUfkkI.s 			page 118


 4599 0a3b 0E       		.uleb128 0xe
 4600 0a3c 8A060000 		.4byte	0x68a
 4601 0a40 02       		.uleb128 0x2
 4602 0a41 870F0000 		.4byte	.LASF168
 4603 0a45 11       		.byte	0x11
 4604 0a46 F0       		.byte	0xf0
 4605 0a47 4F070000 		.4byte	0x74f
 4606 0a4b 13       		.uleb128 0x13
 4607 0a4c 01       		.byte	0x1
 4608 0a4d 42000000 		.4byte	0x42
 4609 0a51 11       		.byte	0x11
 4610 0a52 F3       		.byte	0xf3
 4611 0a53 820A0000 		.4byte	0xa82
 4612 0a57 14       		.uleb128 0x14
 4613 0a58 4B0C0000 		.4byte	.LASF169
 4614 0a5c 00       		.byte	0
 4615 0a5d 14       		.uleb128 0x14
 4616 0a5e 28100000 		.4byte	.LASF170
 4617 0a62 01       		.byte	0x1
 4618 0a63 14       		.uleb128 0x14
 4619 0a64 6C040000 		.4byte	.LASF171
 4620 0a68 02       		.byte	0x2
 4621 0a69 14       		.uleb128 0x14
 4622 0a6a 82000000 		.4byte	.LASF172
 4623 0a6e 04       		.byte	0x4
 4624 0a6f 14       		.uleb128 0x14
 4625 0a70 12070000 		.4byte	.LASF173
 4626 0a74 08       		.byte	0x8
 4627 0a75 14       		.uleb128 0x14
 4628 0a76 3D100000 		.4byte	.LASF174
 4629 0a7a 10       		.byte	0x10
 4630 0a7b 14       		.uleb128 0x14
 4631 0a7c 560D0000 		.4byte	.LASF175
 4632 0a80 20       		.byte	0x20
 4633 0a81 00       		.byte	0
 4634 0a82 17       		.uleb128 0x17
 4635 0a83 20       		.byte	0x20
 4636 0a84 11       		.byte	0x11
 4637 0a85 0101     		.2byte	0x101
 4638 0a87 990A0000 		.4byte	0xa99
 4639 0a8b 18       		.uleb128 0x18
 4640 0a8c 01020000 		.4byte	.LASF73
 4641 0a90 11       		.byte	0x11
 4642 0a91 0301     		.2byte	0x103
 4643 0a93 990A0000 		.4byte	0xa99
 4644 0a97 00       		.byte	0
 4645 0a98 00       		.byte	0
 4646 0a99 19       		.uleb128 0x19
 4647 0a9a AB020000 		.4byte	0x2ab
 4648 0a9e A90A0000 		.4byte	0xaa9
 4649 0aa2 1A       		.uleb128 0x1a
 4650 0aa3 9D020000 		.4byte	0x29d
 4651 0aa7 07       		.byte	0x7
 4652 0aa8 00       		.byte	0
 4653 0aa9 12       		.uleb128 0x12
 4654 0aaa D7130000 		.4byte	.LASF176
 4655 0aae 11       		.byte	0x11
ARM GAS  C:\Users\tmj32\AppData\Local\Temp\ccUUfkkI.s 			page 119


 4656 0aaf 0501     		.2byte	0x105
 4657 0ab1 820A0000 		.4byte	0xa82
 4658 0ab5 13       		.uleb128 0x13
 4659 0ab6 01       		.byte	0x1
 4660 0ab7 42000000 		.4byte	0x42
 4661 0abb 01       		.byte	0x1
 4662 0abc 23       		.byte	0x23
 4663 0abd 040B0000 		.4byte	0xb04
 4664 0ac1 14       		.uleb128 0x14
 4665 0ac2 81080000 		.4byte	.LASF177
 4666 0ac6 00       		.byte	0
 4667 0ac7 14       		.uleb128 0x14
 4668 0ac8 28030000 		.4byte	.LASF178
 4669 0acc 01       		.byte	0x1
 4670 0acd 14       		.uleb128 0x14
 4671 0ace 98050000 		.4byte	.LASF179
 4672 0ad2 02       		.byte	0x2
 4673 0ad3 14       		.uleb128 0x14
 4674 0ad4 A8050000 		.4byte	.LASF180
 4675 0ad8 03       		.byte	0x3
 4676 0ad9 14       		.uleb128 0x14
 4677 0ada D1050000 		.4byte	.LASF181
 4678 0ade 04       		.byte	0x4
 4679 0adf 14       		.uleb128 0x14
 4680 0ae0 39030000 		.4byte	.LASF182
 4681 0ae4 05       		.byte	0x5
 4682 0ae5 14       		.uleb128 0x14
 4683 0ae6 18030000 		.4byte	.LASF183
 4684 0aea 06       		.byte	0x6
 4685 0aeb 14       		.uleb128 0x14
 4686 0aec F2020000 		.4byte	.LASF184
 4687 0af0 07       		.byte	0x7
 4688 0af1 14       		.uleb128 0x14
 4689 0af2 02030000 		.4byte	.LASF185
 4690 0af6 08       		.byte	0x8
 4691 0af7 14       		.uleb128 0x14
 4692 0af8 A20F0000 		.4byte	.LASF186
 4693 0afc 09       		.byte	0x9
 4694 0afd 14       		.uleb128 0x14
 4695 0afe 11050000 		.4byte	.LASF187
 4696 0b02 0A       		.byte	0xa
 4697 0b03 00       		.byte	0
 4698 0b04 02       		.uleb128 0x2
 4699 0b05 47110000 		.4byte	.LASF188
 4700 0b09 01       		.byte	0x1
 4701 0b0a 30       		.byte	0x30
 4702 0b0b B8000000 		.4byte	0xb8
 4703 0b0f 13       		.uleb128 0x13
 4704 0b10 01       		.byte	0x1
 4705 0b11 42000000 		.4byte	0x42
 4706 0b15 01       		.byte	0x1
 4707 0b16 35       		.byte	0x35
 4708 0b17 3A0B0000 		.4byte	0xb3a
 4709 0b1b 14       		.uleb128 0x14
 4710 0b1c 06020000 		.4byte	.LASF189
 4711 0b20 00       		.byte	0
 4712 0b21 14       		.uleb128 0x14
ARM GAS  C:\Users\tmj32\AppData\Local\Temp\ccUUfkkI.s 			page 120


 4713 0b22 D9110000 		.4byte	.LASF190
 4714 0b26 01       		.byte	0x1
 4715 0b27 14       		.uleb128 0x14
 4716 0b28 2E080000 		.4byte	.LASF191
 4717 0b2c 02       		.byte	0x2
 4718 0b2d 14       		.uleb128 0x14
 4719 0b2e D70F0000 		.4byte	.LASF192
 4720 0b32 03       		.byte	0x3
 4721 0b33 14       		.uleb128 0x14
 4722 0b34 7B0F0000 		.4byte	.LASF193
 4723 0b38 04       		.byte	0x4
 4724 0b39 00       		.byte	0
 4725 0b3a 02       		.uleb128 0x2
 4726 0b3b EC0D0000 		.4byte	.LASF194
 4727 0b3f 01       		.byte	0x1
 4728 0b40 3D       		.byte	0x3d
 4729 0b41 B8000000 		.4byte	0xb8
 4730 0b45 06       		.uleb128 0x6
 4731 0b46 02       		.byte	0x2
 4732 0b47 01       		.byte	0x1
 4733 0b48 3F       		.byte	0x3f
 4734 0b49 990B0000 		.4byte	0xb99
 4735 0b4d 0A       		.uleb128 0xa
 4736 0b4e 330A0000 		.4byte	.LASF195
 4737 0b52 01       		.byte	0x1
 4738 0b53 43       		.byte	0x43
 4739 0b54 B8000000 		.4byte	0xb8
 4740 0b58 01       		.byte	0x1
 4741 0b59 04       		.byte	0x4
 4742 0b5a 04       		.byte	0x4
 4743 0b5b 00       		.byte	0
 4744 0b5c 0A       		.uleb128 0xa
 4745 0b5d 7A0B0000 		.4byte	.LASF196
 4746 0b61 01       		.byte	0x1
 4747 0b62 44       		.byte	0x44
 4748 0b63 B8000000 		.4byte	0xb8
 4749 0b67 01       		.byte	0x1
 4750 0b68 02       		.byte	0x2
 4751 0b69 02       		.byte	0x2
 4752 0b6a 00       		.byte	0
 4753 0b6b 0A       		.uleb128 0xa
 4754 0b6c 5B0F0000 		.4byte	.LASF197
 4755 0b70 01       		.byte	0x1
 4756 0b71 45       		.byte	0x45
 4757 0b72 B8000000 		.4byte	0xb8
 4758 0b76 01       		.byte	0x1
 4759 0b77 02       		.byte	0x2
 4760 0b78 00       		.byte	0
 4761 0b79 00       		.byte	0
 4762 0b7a 0A       		.uleb128 0xa
 4763 0b7b D6030000 		.4byte	.LASF198
 4764 0b7f 01       		.byte	0x1
 4765 0b80 46       		.byte	0x46
 4766 0b81 B8000000 		.4byte	0xb8
 4767 0b85 01       		.byte	0x1
 4768 0b86 02       		.byte	0x2
 4769 0b87 06       		.byte	0x6
ARM GAS  C:\Users\tmj32\AppData\Local\Temp\ccUUfkkI.s 			page 121


 4770 0b88 01       		.byte	0x1
 4771 0b89 0A       		.uleb128 0xa
 4772 0b8a 120E0000 		.4byte	.LASF199
 4773 0b8e 01       		.byte	0x1
 4774 0b8f 47       		.byte	0x47
 4775 0b90 B8000000 		.4byte	0xb8
 4776 0b94 01       		.byte	0x1
 4777 0b95 02       		.byte	0x2
 4778 0b96 04       		.byte	0x4
 4779 0b97 01       		.byte	0x1
 4780 0b98 00       		.byte	0
 4781 0b99 02       		.uleb128 0x2
 4782 0b9a BD0A0000 		.4byte	.LASF200
 4783 0b9e 01       		.byte	0x1
 4784 0b9f 48       		.byte	0x48
 4785 0ba0 450B0000 		.4byte	0xb45
 4786 0ba4 13       		.uleb128 0x13
 4787 0ba5 01       		.byte	0x1
 4788 0ba6 42000000 		.4byte	0x42
 4789 0baa 02       		.byte	0x2
 4790 0bab 2A       		.byte	0x2a
 4791 0bac D50B0000 		.4byte	0xbd5
 4792 0bb0 14       		.uleb128 0x14
 4793 0bb1 190A0000 		.4byte	.LASF201
 4794 0bb5 00       		.byte	0
 4795 0bb6 14       		.uleb128 0x14
 4796 0bb7 F70B0000 		.4byte	.LASF202
 4797 0bbb 01       		.byte	0x1
 4798 0bbc 14       		.uleb128 0x14
 4799 0bbd 26120000 		.4byte	.LASF203
 4800 0bc1 02       		.byte	0x2
 4801 0bc2 14       		.uleb128 0x14
 4802 0bc3 C00B0000 		.4byte	.LASF204
 4803 0bc7 03       		.byte	0x3
 4804 0bc8 14       		.uleb128 0x14
 4805 0bc9 B3030000 		.4byte	.LASF205
 4806 0bcd 04       		.byte	0x4
 4807 0bce 14       		.uleb128 0x14
 4808 0bcf B8010000 		.4byte	.LASF206
 4809 0bd3 05       		.byte	0x5
 4810 0bd4 00       		.byte	0
 4811 0bd5 02       		.uleb128 0x2
 4812 0bd6 BB120000 		.4byte	.LASF207
 4813 0bda 02       		.byte	0x2
 4814 0bdb 32       		.byte	0x32
 4815 0bdc B8000000 		.4byte	0xb8
 4816 0be0 06       		.uleb128 0x6
 4817 0be1 18       		.byte	0x18
 4818 0be2 02       		.byte	0x2
 4819 0be3 3E       		.byte	0x3e
 4820 0be4 3A0C0000 		.4byte	0xc3a
 4821 0be8 07       		.uleb128 0x7
 4822 0be9 3C0C0000 		.4byte	.LASF208
 4823 0bed 02       		.byte	0x2
 4824 0bee 40       		.byte	0x40
 4825 0bef 350A0000 		.4byte	0xa35
 4826 0bf3 00       		.byte	0
ARM GAS  C:\Users\tmj32\AppData\Local\Temp\ccUUfkkI.s 			page 122


 4827 0bf4 07       		.uleb128 0x7
 4828 0bf5 89130000 		.4byte	.LASF209
 4829 0bf9 02       		.byte	0x2
 4830 0bfa 41       		.byte	0x41
 4831 0bfb EB020000 		.4byte	0x2eb
 4832 0bff 04       		.byte	0x4
 4833 0c00 07       		.uleb128 0x7
 4834 0c01 9B0D0000 		.4byte	.LASF210
 4835 0c05 02       		.byte	0x2
 4836 0c06 42       		.byte	0x42
 4837 0c07 EB020000 		.4byte	0x2eb
 4838 0c0b 0C       		.byte	0xc
 4839 0c0c 0A       		.uleb128 0xa
 4840 0c0d 53070000 		.4byte	.LASF211
 4841 0c11 02       		.byte	0x2
 4842 0c12 43       		.byte	0x43
 4843 0c13 B8000000 		.4byte	0xb8
 4844 0c17 01       		.byte	0x1
 4845 0c18 01       		.byte	0x1
 4846 0c19 07       		.byte	0x7
 4847 0c1a 14       		.byte	0x14
 4848 0c1b 0A       		.uleb128 0xa
 4849 0c1c 12020000 		.4byte	.LASF212
 4850 0c20 02       		.byte	0x2
 4851 0c21 44       		.byte	0x44
 4852 0c22 B8000000 		.4byte	0xb8
 4853 0c26 01       		.byte	0x1
 4854 0c27 01       		.byte	0x1
 4855 0c28 06       		.byte	0x6
 4856 0c29 14       		.byte	0x14
 4857 0c2a 0A       		.uleb128 0xa
 4858 0c2b 9A100000 		.4byte	.LASF213
 4859 0c2f 02       		.byte	0x2
 4860 0c30 45       		.byte	0x45
 4861 0c31 D50B0000 		.4byte	0xbd5
 4862 0c35 01       		.byte	0x1
 4863 0c36 03       		.byte	0x3
 4864 0c37 03       		.byte	0x3
 4865 0c38 14       		.byte	0x14
 4866 0c39 00       		.byte	0
 4867 0c3a 06       		.uleb128 0x6
 4868 0c3b 0C       		.byte	0xc
 4869 0c3c 02       		.byte	0x2
 4870 0c3d 48       		.byte	0x48
 4871 0c3e A60C0000 		.4byte	0xca6
 4872 0c42 07       		.uleb128 0x7
 4873 0c43 B2010000 		.4byte	.LASF214
 4874 0c47 02       		.byte	0x2
 4875 0c48 4A       		.byte	0x4a
 4876 0c49 1A030000 		.4byte	0x31a
 4877 0c4d 00       		.byte	0
 4878 0c4e 07       		.uleb128 0x7
 4879 0c4f 3C0C0000 		.4byte	.LASF208
 4880 0c53 02       		.byte	0x2
 4881 0c54 4B       		.byte	0x4b
 4882 0c55 350A0000 		.4byte	0xa35
 4883 0c59 04       		.byte	0x4
ARM GAS  C:\Users\tmj32\AppData\Local\Temp\ccUUfkkI.s 			page 123


 4884 0c5a 0A       		.uleb128 0xa
 4885 0c5b F2070000 		.4byte	.LASF215
 4886 0c5f 02       		.byte	0x2
 4887 0c60 4C       		.byte	0x4c
 4888 0c61 B8000000 		.4byte	0xb8
 4889 0c65 01       		.byte	0x1
 4890 0c66 01       		.byte	0x1
 4891 0c67 07       		.byte	0x7
 4892 0c68 08       		.byte	0x8
 4893 0c69 0A       		.uleb128 0xa
 4894 0c6a 390F0000 		.4byte	.LASF216
 4895 0c6e 02       		.byte	0x2
 4896 0c6f 4D       		.byte	0x4d
 4897 0c70 B8000000 		.4byte	0xb8
 4898 0c74 01       		.byte	0x1
 4899 0c75 01       		.byte	0x1
 4900 0c76 06       		.byte	0x6
 4901 0c77 08       		.byte	0x8
 4902 0c78 0A       		.uleb128 0xa
 4903 0c79 EC120000 		.4byte	.LASF217
 4904 0c7d 02       		.byte	0x2
 4905 0c7e 4F       		.byte	0x4f
 4906 0c7f B8000000 		.4byte	0xb8
 4907 0c83 01       		.byte	0x1
 4908 0c84 01       		.byte	0x1
 4909 0c85 05       		.byte	0x5
 4910 0c86 08       		.byte	0x8
 4911 0c87 0A       		.uleb128 0xa
 4912 0c88 1F100000 		.4byte	.LASF218
 4913 0c8c 02       		.byte	0x2
 4914 0c8d 51       		.byte	0x51
 4915 0c8e B8000000 		.4byte	0xb8
 4916 0c92 01       		.byte	0x1
 4917 0c93 01       		.byte	0x1
 4918 0c94 04       		.byte	0x4
 4919 0c95 08       		.byte	0x8
 4920 0c96 0A       		.uleb128 0xa
 4921 0c97 52050000 		.4byte	.LASF219
 4922 0c9b 02       		.byte	0x2
 4923 0c9c 53       		.byte	0x53
 4924 0c9d B8000000 		.4byte	0xb8
 4925 0ca1 01       		.byte	0x1
 4926 0ca2 01       		.byte	0x1
 4927 0ca3 03       		.byte	0x3
 4928 0ca4 08       		.byte	0x8
 4929 0ca5 00       		.byte	0
 4930 0ca6 06       		.uleb128 0x6
 4931 0ca7 30       		.byte	0x30
 4932 0ca8 02       		.byte	0x2
 4933 0ca9 39       		.byte	0x39
 4934 0caa 070D0000 		.4byte	0xd07
 4935 0cae 08       		.uleb128 0x8
 4936 0caf 626700   		.ascii	"bg\000"
 4937 0cb2 02       		.byte	0x2
 4938 0cb3 3B       		.byte	0x3b
 4939 0cb4 990B0000 		.4byte	0xb99
 4940 0cb8 00       		.byte	0
ARM GAS  C:\Users\tmj32\AppData\Local\Temp\ccUUfkkI.s 			page 124


 4941 0cb9 07       		.uleb128 0x7
 4942 0cba EF030000 		.4byte	.LASF220
 4943 0cbe 02       		.byte	0x2
 4944 0cbf 3D       		.byte	0x3d
 4945 0cc0 070D0000 		.4byte	0xd07
 4946 0cc4 04       		.byte	0x4
 4947 0cc5 08       		.uleb128 0x8
 4948 0cc6 736200   		.ascii	"sb\000"
 4949 0cc9 02       		.byte	0x2
 4950 0cca 46       		.byte	0x46
 4951 0ccb E00B0000 		.4byte	0xbe0
 4952 0ccf 08       		.byte	0x8
 4953 0cd0 07       		.uleb128 0x7
 4954 0cd1 F4130000 		.4byte	.LASF221
 4955 0cd5 02       		.byte	0x2
 4956 0cd6 55       		.byte	0x55
 4957 0cd7 3A0C0000 		.4byte	0xc3a
 4958 0cdb 20       		.byte	0x20
 4959 0cdc 07       		.uleb128 0x7
 4960 0cdd 34050000 		.4byte	.LASF222
 4961 0ce1 02       		.byte	0x2
 4962 0ce2 57       		.byte	0x57
 4963 0ce3 CE000000 		.4byte	0xce
 4964 0ce7 2C       		.byte	0x2c
 4965 0ce8 0A       		.uleb128 0xa
 4966 0ce9 5F030000 		.4byte	.LASF223
 4967 0ced 02       		.byte	0x2
 4968 0cee 5A       		.byte	0x5a
 4969 0cef B8000000 		.4byte	0xb8
 4970 0cf3 01       		.byte	0x1
 4971 0cf4 01       		.byte	0x1
 4972 0cf5 07       		.byte	0x7
 4973 0cf6 2E       		.byte	0x2e
 4974 0cf7 0A       		.uleb128 0xa
 4975 0cf8 D4070000 		.4byte	.LASF224
 4976 0cfc 02       		.byte	0x2
 4977 0cfd 5B       		.byte	0x5b
 4978 0cfe B8000000 		.4byte	0xb8
 4979 0d02 01       		.byte	0x1
 4980 0d03 01       		.byte	0x1
 4981 0d04 06       		.byte	0x6
 4982 0d05 2E       		.byte	0x2e
 4983 0d06 00       		.byte	0
 4984 0d07 0D       		.uleb128 0xd
 4985 0d08 04       		.byte	0x4
 4986 0d09 400A0000 		.4byte	0xa40
 4987 0d0d 02       		.uleb128 0x2
 4988 0d0e EB040000 		.4byte	.LASF225
 4989 0d12 02       		.byte	0x2
 4990 0d13 5C       		.byte	0x5c
 4991 0d14 A60C0000 		.4byte	0xca6
 4992 0d18 13       		.uleb128 0x13
 4993 0d19 01       		.byte	0x1
 4994 0d1a 42000000 		.4byte	0x42
 4995 0d1e 02       		.byte	0x2
 4996 0d1f 5E       		.byte	0x5e
 4997 0d20 3D0D0000 		.4byte	0xd3d
ARM GAS  C:\Users\tmj32\AppData\Local\Temp\ccUUfkkI.s 			page 125


 4998 0d24 14       		.uleb128 0x14
 4999 0d25 59100000 		.4byte	.LASF226
 5000 0d29 00       		.byte	0
 5001 0d2a 14       		.uleb128 0x14
 5002 0d2b 1D0E0000 		.4byte	.LASF227
 5003 0d2f 01       		.byte	0x1
 5004 0d30 14       		.uleb128 0x14
 5005 0d31 38070000 		.4byte	.LASF228
 5006 0d35 02       		.byte	0x2
 5007 0d36 14       		.uleb128 0x14
 5008 0d37 CF000000 		.4byte	.LASF229
 5009 0d3b 03       		.byte	0x3
 5010 0d3c 00       		.byte	0
 5011 0d3d 13       		.uleb128 0x13
 5012 0d3e 01       		.byte	0x1
 5013 0d3f 42000000 		.4byte	0x42
 5014 0d43 03       		.byte	0x3
 5015 0d44 2A       		.byte	0x2a
 5016 0d45 6E0D0000 		.4byte	0xd6e
 5017 0d49 14       		.uleb128 0x14
 5018 0d4a 2B020000 		.4byte	.LASF230
 5019 0d4e 00       		.byte	0
 5020 0d4f 14       		.uleb128 0x14
 5021 0d50 030D0000 		.4byte	.LASF231
 5022 0d54 01       		.byte	0x1
 5023 0d55 14       		.uleb128 0x14
 5024 0d56 6C080000 		.4byte	.LASF232
 5025 0d5a 02       		.byte	0x2
 5026 0d5b 14       		.uleb128 0x14
 5027 0d5c 9A0C0000 		.4byte	.LASF233
 5028 0d60 03       		.byte	0x3
 5029 0d61 14       		.uleb128 0x14
 5030 0d62 230B0000 		.4byte	.LASF234
 5031 0d66 04       		.byte	0x4
 5032 0d67 14       		.uleb128 0x14
 5033 0d68 BE130000 		.4byte	.LASF235
 5034 0d6c 05       		.byte	0x5
 5035 0d6d 00       		.byte	0
 5036 0d6e 19       		.uleb128 0x19
 5037 0d6f 350A0000 		.4byte	0xa35
 5038 0d73 7E0D0000 		.4byte	0xd7e
 5039 0d77 1A       		.uleb128 0x1a
 5040 0d78 9D020000 		.4byte	0x29d
 5041 0d7c 04       		.byte	0x4
 5042 0d7d 00       		.byte	0
 5043 0d7e 13       		.uleb128 0x13
 5044 0d7f 01       		.byte	0x1
 5045 0d80 42000000 		.4byte	0x42
 5046 0d84 03       		.byte	0x3
 5047 0d85 5C       		.byte	0x5c
 5048 0d86 A90D0000 		.4byte	0xda9
 5049 0d8a 14       		.uleb128 0x14
 5050 0d8b 49030000 		.4byte	.LASF236
 5051 0d8f 00       		.byte	0
 5052 0d90 14       		.uleb128 0x14
 5053 0d91 E7050000 		.4byte	.LASF237
 5054 0d95 01       		.byte	0x1
ARM GAS  C:\Users\tmj32\AppData\Local\Temp\ccUUfkkI.s 			page 126


 5055 0d96 14       		.uleb128 0x14
 5056 0d97 6F130000 		.4byte	.LASF238
 5057 0d9b 02       		.byte	0x2
 5058 0d9c 14       		.uleb128 0x14
 5059 0d9d 94120000 		.4byte	.LASF239
 5060 0da1 03       		.byte	0x3
 5061 0da2 14       		.uleb128 0x14
 5062 0da3 7B0A0000 		.4byte	.LASF240
 5063 0da7 04       		.byte	0x4
 5064 0da8 00       		.byte	0
 5065 0da9 02       		.uleb128 0x2
 5066 0daa 20050000 		.4byte	.LASF241
 5067 0dae 03       		.byte	0x3
 5068 0daf 6C       		.byte	0x6c
 5069 0db0 B8000000 		.4byte	0xb8
 5070 0db4 0D       		.uleb128 0xd
 5071 0db5 04       		.byte	0x4
 5072 0db6 BA0D0000 		.4byte	0xdba
 5073 0dba 1B       		.uleb128 0x1b
 5074 0dbb 13       		.uleb128 0x13
 5075 0dbc 01       		.byte	0x1
 5076 0dbd 42000000 		.4byte	0x42
 5077 0dc1 12       		.byte	0x12
 5078 0dc2 2F       		.byte	0x2f
 5079 0dc3 EC0D0000 		.4byte	0xdec
 5080 0dc7 14       		.uleb128 0x14
 5081 0dc8 800D0000 		.4byte	.LASF242
 5082 0dcc 00       		.byte	0
 5083 0dcd 14       		.uleb128 0x14
 5084 0dce 25040000 		.4byte	.LASF243
 5085 0dd2 01       		.byte	0x1
 5086 0dd3 14       		.uleb128 0x14
 5087 0dd4 900F0000 		.4byte	.LASF244
 5088 0dd8 02       		.byte	0x2
 5089 0dd9 14       		.uleb128 0x14
 5090 0dda 980A0000 		.4byte	.LASF245
 5091 0dde 03       		.byte	0x3
 5092 0ddf 14       		.uleb128 0x14
 5093 0de0 B8050000 		.4byte	.LASF246
 5094 0de4 04       		.byte	0x4
 5095 0de5 14       		.uleb128 0x14
 5096 0de6 6C120000 		.4byte	.LASF247
 5097 0dea 05       		.byte	0x5
 5098 0deb 00       		.byte	0
 5099 0dec 06       		.uleb128 0x6
 5100 0ded 4C       		.byte	0x4c
 5101 0dee 04       		.byte	0x4
 5102 0def 33       		.byte	0x33
 5103 0df0 340E0000 		.4byte	0xe34
 5104 0df4 07       		.uleb128 0x7
 5105 0df5 830B0000 		.4byte	.LASF248
 5106 0df9 04       		.byte	0x4
 5107 0dfa 35       		.byte	0x35
 5108 0dfb 0D0D0000 		.4byte	0xd0d
 5109 0dff 00       		.byte	0
 5110 0e00 07       		.uleb128 0x7
 5111 0e01 73020000 		.4byte	.LASF249
ARM GAS  C:\Users\tmj32\AppData\Local\Temp\ccUUfkkI.s 			page 127


 5112 0e05 04       		.byte	0x4
 5113 0e06 37       		.byte	0x37
 5114 0e07 6E0D0000 		.4byte	0xd6e
 5115 0e0b 30       		.byte	0x30
 5116 0e0c 07       		.uleb128 0x7
 5117 0e0d 49070000 		.4byte	.LASF250
 5118 0e11 04       		.byte	0x4
 5119 0e12 38       		.byte	0x38
 5120 0e13 350A0000 		.4byte	0xa35
 5121 0e17 44       		.byte	0x44
 5122 0e18 07       		.uleb128 0x7
 5123 0e19 650B0000 		.4byte	.LASF251
 5124 0e1d 04       		.byte	0x4
 5125 0e1e 39       		.byte	0x39
 5126 0e1f CE000000 		.4byte	0xce
 5127 0e23 48       		.byte	0x48
 5128 0e24 0A       		.uleb128 0xa
 5129 0e25 31010000 		.4byte	.LASF252
 5130 0e29 04       		.byte	0x4
 5131 0e2a 3B       		.byte	0x3b
 5132 0e2b B8000000 		.4byte	0xb8
 5133 0e2f 01       		.byte	0x1
 5134 0e30 01       		.byte	0x1
 5135 0e31 07       		.byte	0x7
 5136 0e32 4A       		.byte	0x4a
 5137 0e33 00       		.byte	0
 5138 0e34 02       		.uleb128 0x2
 5139 0e35 E30F0000 		.4byte	.LASF253
 5140 0e39 04       		.byte	0x4
 5141 0e3a 44       		.byte	0x44
 5142 0e3b EC0D0000 		.4byte	0xdec
 5143 0e3f 13       		.uleb128 0x13
 5144 0e40 01       		.byte	0x1
 5145 0e41 42000000 		.4byte	0x42
 5146 0e45 04       		.byte	0x4
 5147 0e46 47       		.byte	0x47
 5148 0e47 820E0000 		.4byte	0xe82
 5149 0e4b 14       		.uleb128 0x14
 5150 0e4c 40060000 		.4byte	.LASF254
 5151 0e50 00       		.byte	0
 5152 0e51 14       		.uleb128 0x14
 5153 0e52 07000000 		.4byte	.LASF255
 5154 0e56 01       		.byte	0x1
 5155 0e57 14       		.uleb128 0x14
 5156 0e58 95110000 		.4byte	.LASF256
 5157 0e5c 02       		.byte	0x2
 5158 0e5d 14       		.uleb128 0x14
 5159 0e5e FB100000 		.4byte	.LASF257
 5160 0e62 03       		.byte	0x3
 5161 0e63 14       		.uleb128 0x14
 5162 0e64 2A0D0000 		.4byte	.LASF258
 5163 0e68 04       		.byte	0x4
 5164 0e69 14       		.uleb128 0x14
 5165 0e6a A2060000 		.4byte	.LASF259
 5166 0e6e 05       		.byte	0x5
 5167 0e6f 14       		.uleb128 0x14
 5168 0e70 99030000 		.4byte	.LASF260
ARM GAS  C:\Users\tmj32\AppData\Local\Temp\ccUUfkkI.s 			page 128


 5169 0e74 06       		.byte	0x6
 5170 0e75 14       		.uleb128 0x14
 5171 0e76 9D070000 		.4byte	.LASF261
 5172 0e7a 07       		.byte	0x7
 5173 0e7b 14       		.uleb128 0x14
 5174 0e7c 400D0000 		.4byte	.LASF262
 5175 0e80 08       		.byte	0x8
 5176 0e81 00       		.byte	0
 5177 0e82 02       		.uleb128 0x2
 5178 0e83 7F030000 		.4byte	.LASF263
 5179 0e87 04       		.byte	0x4
 5180 0e88 52       		.byte	0x52
 5181 0e89 B8000000 		.4byte	0xb8
 5182 0e8d 06       		.uleb128 0x6
 5183 0e8e 14       		.byte	0x14
 5184 0e8f 13       		.byte	0x13
 5185 0e90 34       		.byte	0x34
 5186 0e91 D10E0000 		.4byte	0xed1
 5187 0e95 08       		.uleb128 0x8
 5188 0e96 72656C00 		.ascii	"rel\000"
 5189 0e9a 13       		.byte	0x13
 5190 0e9b 36       		.byte	0x36
 5191 0e9c 95060000 		.4byte	0x695
 5192 0ea0 00       		.byte	0
 5193 0ea1 08       		.uleb128 0x8
 5194 0ea2 707200   		.ascii	"pr\000"
 5195 0ea5 13       		.byte	0x13
 5196 0ea6 37       		.byte	0x37
 5197 0ea7 95060000 		.4byte	0x695
 5198 0eab 04       		.byte	0x4
 5199 0eac 07       		.uleb128 0x7
 5200 0ead 1B0B0000 		.4byte	.LASF264
 5201 0eb1 13       		.byte	0x13
 5202 0eb2 38       		.byte	0x38
 5203 0eb3 95060000 		.4byte	0x695
 5204 0eb7 08       		.byte	0x8
 5205 0eb8 07       		.uleb128 0x7
 5206 0eb9 C3030000 		.4byte	.LASF265
 5207 0ebd 13       		.byte	0x13
 5208 0ebe 39       		.byte	0x39
 5209 0ebf 95060000 		.4byte	0x695
 5210 0ec3 0C       		.byte	0xc
 5211 0ec4 08       		.uleb128 0x8
 5212 0ec5 696E6100 		.ascii	"ina\000"
 5213 0ec9 13       		.byte	0x13
 5214 0eca 3A       		.byte	0x3a
 5215 0ecb 95060000 		.4byte	0x695
 5216 0ecf 10       		.byte	0x10
 5217 0ed0 00       		.byte	0
 5218 0ed1 06       		.uleb128 0x6
 5219 0ed2 14       		.byte	0x14
 5220 0ed3 13       		.byte	0x13
 5221 0ed4 3F       		.byte	0x3f
 5222 0ed5 150F0000 		.4byte	0xf15
 5223 0ed9 08       		.uleb128 0x8
 5224 0eda 72656C00 		.ascii	"rel\000"
 5225 0ede 13       		.byte	0x13
ARM GAS  C:\Users\tmj32\AppData\Local\Temp\ccUUfkkI.s 			page 129


 5226 0edf 41       		.byte	0x41
 5227 0ee0 95060000 		.4byte	0x695
 5228 0ee4 00       		.byte	0
 5229 0ee5 08       		.uleb128 0x8
 5230 0ee6 707200   		.ascii	"pr\000"
 5231 0ee9 13       		.byte	0x13
 5232 0eea 42       		.byte	0x42
 5233 0eeb 95060000 		.4byte	0x695
 5234 0eef 04       		.byte	0x4
 5235 0ef0 07       		.uleb128 0x7
 5236 0ef1 1B0B0000 		.4byte	.LASF264
 5237 0ef5 13       		.byte	0x13
 5238 0ef6 43       		.byte	0x43
 5239 0ef7 95060000 		.4byte	0x695
 5240 0efb 08       		.byte	0x8
 5241 0efc 07       		.uleb128 0x7
 5242 0efd C3030000 		.4byte	.LASF265
 5243 0f01 13       		.byte	0x13
 5244 0f02 44       		.byte	0x44
 5245 0f03 95060000 		.4byte	0x695
 5246 0f07 0C       		.byte	0xc
 5247 0f08 08       		.uleb128 0x8
 5248 0f09 696E6100 		.ascii	"ina\000"
 5249 0f0d 13       		.byte	0x13
 5250 0f0e 45       		.byte	0x45
 5251 0f0f 95060000 		.4byte	0x695
 5252 0f13 10       		.byte	0x10
 5253 0f14 00       		.byte	0
 5254 0f15 06       		.uleb128 0x6
 5255 0f16 0C       		.byte	0xc
 5256 0f17 13       		.byte	0x13
 5257 0f18 4A       		.byte	0x4a
 5258 0f19 420F0000 		.4byte	0xf42
 5259 0f1d 07       		.uleb128 0x7
 5260 0f1e 26020000 		.4byte	.LASF266
 5261 0f22 13       		.byte	0x13
 5262 0f23 4C       		.byte	0x4c
 5263 0f24 95060000 		.4byte	0x695
 5264 0f28 00       		.byte	0
 5265 0f29 08       		.uleb128 0x8
 5266 0f2a 73656300 		.ascii	"sec\000"
 5267 0f2e 13       		.byte	0x13
 5268 0f2f 4D       		.byte	0x4d
 5269 0f30 95060000 		.4byte	0x695
 5270 0f34 04       		.byte	0x4
 5271 0f35 07       		.uleb128 0x7
 5272 0f36 61080000 		.4byte	.LASF267
 5273 0f3a 13       		.byte	0x13
 5274 0f3b 4E       		.byte	0x4e
 5275 0f3c 95060000 		.4byte	0x695
 5276 0f40 08       		.byte	0x8
 5277 0f41 00       		.byte	0
 5278 0f42 06       		.uleb128 0x6
 5279 0f43 08       		.byte	0x8
 5280 0f44 13       		.byte	0x13
 5281 0f45 53       		.byte	0x53
 5282 0f46 630F0000 		.4byte	0xf63
ARM GAS  C:\Users\tmj32\AppData\Local\Temp\ccUUfkkI.s 			page 130


 5283 0f4a 07       		.uleb128 0x7
 5284 0f4b 1B020000 		.4byte	.LASF268
 5285 0f4f 13       		.byte	0x13
 5286 0f50 55       		.byte	0x55
 5287 0f51 95060000 		.4byte	0x695
 5288 0f55 00       		.byte	0
 5289 0f56 07       		.uleb128 0x7
 5290 0f57 4E120000 		.4byte	.LASF269
 5291 0f5b 13       		.byte	0x13
 5292 0f5c 56       		.byte	0x56
 5293 0f5d 95060000 		.4byte	0x695
 5294 0f61 04       		.byte	0x4
 5295 0f62 00       		.byte	0
 5296 0f63 06       		.uleb128 0x6
 5297 0f64 04       		.byte	0x4
 5298 0f65 13       		.byte	0x13
 5299 0f66 5B       		.byte	0x5b
 5300 0f67 780F0000 		.4byte	0xf78
 5301 0f6b 07       		.uleb128 0x7
 5302 0f6c E30E0000 		.4byte	.LASF270
 5303 0f70 13       		.byte	0x13
 5304 0f71 5D       		.byte	0x5d
 5305 0f72 95060000 		.4byte	0x695
 5306 0f76 00       		.byte	0
 5307 0f77 00       		.byte	0
 5308 0f78 06       		.uleb128 0x6
 5309 0f79 08       		.byte	0x8
 5310 0f7a 13       		.byte	0x13
 5311 0f7b 66       		.byte	0x66
 5312 0f7c 980F0000 		.4byte	0xf98
 5313 0f80 08       		.uleb128 0x8
 5314 0f81 626700   		.ascii	"bg\000"
 5315 0f84 13       		.byte	0x13
 5316 0f85 68       		.byte	0x68
 5317 0f86 95060000 		.4byte	0x695
 5318 0f8a 00       		.byte	0
 5319 0f8b 07       		.uleb128 0x7
 5320 0f8c 0B0A0000 		.4byte	.LASF271
 5321 0f90 13       		.byte	0x13
 5322 0f91 69       		.byte	0x69
 5323 0f92 95060000 		.4byte	0x695
 5324 0f96 04       		.byte	0x4
 5325 0f97 00       		.byte	0
 5326 0f98 06       		.uleb128 0x6
 5327 0f99 0C       		.byte	0xc
 5328 0f9a 13       		.byte	0x13
 5329 0f9b 6E       		.byte	0x6e
 5330 0f9c C40F0000 		.4byte	0xfc4
 5331 0fa0 08       		.uleb128 0x8
 5332 0fa1 626700   		.ascii	"bg\000"
 5333 0fa4 13       		.byte	0x13
 5334 0fa5 70       		.byte	0x70
 5335 0fa6 95060000 		.4byte	0x695
 5336 0faa 00       		.byte	0
 5337 0fab 07       		.uleb128 0x7
 5338 0fac 0B0A0000 		.4byte	.LASF271
 5339 0fb0 13       		.byte	0x13
ARM GAS  C:\Users\tmj32\AppData\Local\Temp\ccUUfkkI.s 			page 131


 5340 0fb1 71       		.byte	0x71
 5341 0fb2 95060000 		.4byte	0x695
 5342 0fb6 04       		.byte	0x4
 5343 0fb7 07       		.uleb128 0x7
 5344 0fb8 84130000 		.4byte	.LASF272
 5345 0fbc 13       		.byte	0x13
 5346 0fbd 72       		.byte	0x72
 5347 0fbe 95060000 		.4byte	0x695
 5348 0fc2 08       		.byte	0x8
 5349 0fc3 00       		.byte	0
 5350 0fc4 06       		.uleb128 0x6
 5351 0fc5 10       		.byte	0x10
 5352 0fc6 13       		.byte	0x13
 5353 0fc7 87       		.byte	0x87
 5354 0fc8 FC0F0000 		.4byte	0xffc
 5355 0fcc 08       		.uleb128 0x8
 5356 0fcd 626700   		.ascii	"bg\000"
 5357 0fd0 13       		.byte	0x13
 5358 0fd1 89       		.byte	0x89
 5359 0fd2 95060000 		.4byte	0x695
 5360 0fd6 00       		.byte	0
 5361 0fd7 07       		.uleb128 0x7
 5362 0fd8 0B0A0000 		.4byte	.LASF271
 5363 0fdc 13       		.byte	0x13
 5364 0fdd 8A       		.byte	0x8a
 5365 0fde 95060000 		.4byte	0x695
 5366 0fe2 04       		.byte	0x4
 5367 0fe3 07       		.uleb128 0x7
 5368 0fe4 880B0000 		.4byte	.LASF273
 5369 0fe8 13       		.byte	0x13
 5370 0fe9 8B       		.byte	0x8b
 5371 0fea 95060000 		.4byte	0x695
 5372 0fee 08       		.byte	0x8
 5373 0fef 07       		.uleb128 0x7
 5374 0ff0 B5040000 		.4byte	.LASF274
 5375 0ff4 13       		.byte	0x13
 5376 0ff5 8C       		.byte	0x8c
 5377 0ff6 95060000 		.4byte	0x695
 5378 0ffa 0C       		.byte	0xc
 5379 0ffb 00       		.byte	0
 5380 0ffc 06       		.uleb128 0x6
 5381 0ffd 20       		.byte	0x20
 5382 0ffe 13       		.byte	0x13
 5383 0fff 95       		.byte	0x95
 5384 1000 64100000 		.4byte	0x1064
 5385 1004 08       		.uleb128 0x8
 5386 1005 626700   		.ascii	"bg\000"
 5387 1008 13       		.byte	0x13
 5388 1009 97       		.byte	0x97
 5389 100a 95060000 		.4byte	0x695
 5390 100e 00       		.byte	0
 5391 100f 07       		.uleb128 0x7
 5392 1010 C9040000 		.4byte	.LASF275
 5393 1014 13       		.byte	0x13
 5394 1015 98       		.byte	0x98
 5395 1016 95060000 		.4byte	0x695
 5396 101a 04       		.byte	0x4
ARM GAS  C:\Users\tmj32\AppData\Local\Temp\ccUUfkkI.s 			page 132


 5397 101b 07       		.uleb128 0x7
 5398 101c 2D000000 		.4byte	.LASF276
 5399 1020 13       		.byte	0x13
 5400 1021 99       		.byte	0x99
 5401 1022 95060000 		.4byte	0x695
 5402 1026 08       		.byte	0x8
 5403 1027 07       		.uleb128 0x7
 5404 1028 21110000 		.4byte	.LASF277
 5405 102c 13       		.byte	0x13
 5406 102d 9A       		.byte	0x9a
 5407 102e 95060000 		.4byte	0x695
 5408 1032 0C       		.byte	0xc
 5409 1033 07       		.uleb128 0x7
 5410 1034 91010000 		.4byte	.LASF278
 5411 1038 13       		.byte	0x13
 5412 1039 9B       		.byte	0x9b
 5413 103a 95060000 		.4byte	0x695
 5414 103e 10       		.byte	0x10
 5415 103f 07       		.uleb128 0x7
 5416 1040 D0060000 		.4byte	.LASF279
 5417 1044 13       		.byte	0x13
 5418 1045 9C       		.byte	0x9c
 5419 1046 95060000 		.4byte	0x695
 5420 104a 14       		.byte	0x14
 5421 104b 07       		.uleb128 0x7
 5422 104c 8F050000 		.4byte	.LASF280
 5423 1050 13       		.byte	0x13
 5424 1051 9D       		.byte	0x9d
 5425 1052 95060000 		.4byte	0x695
 5426 1056 18       		.byte	0x18
 5427 1057 07       		.uleb128 0x7
 5428 1058 8F030000 		.4byte	.LASF281
 5429 105c 13       		.byte	0x13
 5430 105d 9E       		.byte	0x9e
 5431 105e 95060000 		.4byte	0x695
 5432 1062 1C       		.byte	0x1c
 5433 1063 00       		.byte	0
 5434 1064 06       		.uleb128 0x6
 5435 1065 14       		.byte	0x14
 5436 1066 13       		.byte	0x13
 5437 1067 A6       		.byte	0xa6
 5438 1068 A8100000 		.4byte	0x10a8
 5439 106c 08       		.uleb128 0x8
 5440 106d 72656C00 		.ascii	"rel\000"
 5441 1071 13       		.byte	0x13
 5442 1072 A8       		.byte	0xa8
 5443 1073 95060000 		.4byte	0x695
 5444 1077 00       		.byte	0
 5445 1078 08       		.uleb128 0x8
 5446 1079 707200   		.ascii	"pr\000"
 5447 107c 13       		.byte	0x13
 5448 107d A9       		.byte	0xa9
 5449 107e 95060000 		.4byte	0x695
 5450 1082 04       		.byte	0x4
 5451 1083 07       		.uleb128 0x7
 5452 1084 1B0B0000 		.4byte	.LASF264
 5453 1088 13       		.byte	0x13
ARM GAS  C:\Users\tmj32\AppData\Local\Temp\ccUUfkkI.s 			page 133


 5454 1089 AA       		.byte	0xaa
 5455 108a 95060000 		.4byte	0x695
 5456 108e 08       		.byte	0x8
 5457 108f 07       		.uleb128 0x7
 5458 1090 C3030000 		.4byte	.LASF265
 5459 1094 13       		.byte	0x13
 5460 1095 AB       		.byte	0xab
 5461 1096 95060000 		.4byte	0x695
 5462 109a 0C       		.byte	0xc
 5463 109b 08       		.uleb128 0x8
 5464 109c 696E6100 		.ascii	"ina\000"
 5465 10a0 13       		.byte	0x13
 5466 10a1 AC       		.byte	0xac
 5467 10a2 95060000 		.4byte	0x695
 5468 10a6 10       		.byte	0x10
 5469 10a7 00       		.byte	0
 5470 10a8 06       		.uleb128 0x6
 5471 10a9 18       		.byte	0x18
 5472 10aa 13       		.byte	0x13
 5473 10ab A3       		.byte	0xa3
 5474 10ac C8100000 		.4byte	0x10c8
 5475 10b0 08       		.uleb128 0x8
 5476 10b1 626700   		.ascii	"bg\000"
 5477 10b4 13       		.byte	0x13
 5478 10b5 A5       		.byte	0xa5
 5479 10b6 95060000 		.4byte	0x695
 5480 10ba 00       		.byte	0
 5481 10bb 08       		.uleb128 0x8
 5482 10bc 626F7800 		.ascii	"box\000"
 5483 10c0 13       		.byte	0x13
 5484 10c1 AD       		.byte	0xad
 5485 10c2 64100000 		.4byte	0x1064
 5486 10c6 04       		.byte	0x4
 5487 10c7 00       		.byte	0
 5488 10c8 06       		.uleb128 0x6
 5489 10c9 14       		.byte	0x14
 5490 10ca 13       		.byte	0x13
 5491 10cb B5       		.byte	0xb5
 5492 10cc 0C110000 		.4byte	0x110c
 5493 10d0 08       		.uleb128 0x8
 5494 10d1 72656C00 		.ascii	"rel\000"
 5495 10d5 13       		.byte	0x13
 5496 10d6 B7       		.byte	0xb7
 5497 10d7 95060000 		.4byte	0x695
 5498 10db 00       		.byte	0
 5499 10dc 08       		.uleb128 0x8
 5500 10dd 707200   		.ascii	"pr\000"
 5501 10e0 13       		.byte	0x13
 5502 10e1 B8       		.byte	0xb8
 5503 10e2 95060000 		.4byte	0x695
 5504 10e6 04       		.byte	0x4
 5505 10e7 07       		.uleb128 0x7
 5506 10e8 1B0B0000 		.4byte	.LASF264
 5507 10ec 13       		.byte	0x13
 5508 10ed B9       		.byte	0xb9
 5509 10ee 95060000 		.4byte	0x695
 5510 10f2 08       		.byte	0x8
ARM GAS  C:\Users\tmj32\AppData\Local\Temp\ccUUfkkI.s 			page 134


 5511 10f3 07       		.uleb128 0x7
 5512 10f4 C3030000 		.4byte	.LASF265
 5513 10f8 13       		.byte	0x13
 5514 10f9 BA       		.byte	0xba
 5515 10fa 95060000 		.4byte	0x695
 5516 10fe 0C       		.byte	0xc
 5517 10ff 08       		.uleb128 0x8
 5518 1100 696E6100 		.ascii	"ina\000"
 5519 1104 13       		.byte	0x13
 5520 1105 BB       		.byte	0xbb
 5521 1106 95060000 		.4byte	0x695
 5522 110a 10       		.byte	0x10
 5523 110b 00       		.byte	0
 5524 110c 06       		.uleb128 0x6
 5525 110d 18       		.byte	0x18
 5526 110e 13       		.byte	0x13
 5527 110f B2       		.byte	0xb2
 5528 1110 2C110000 		.4byte	0x112c
 5529 1114 08       		.uleb128 0x8
 5530 1115 626700   		.ascii	"bg\000"
 5531 1118 13       		.byte	0x13
 5532 1119 B4       		.byte	0xb4
 5533 111a 95060000 		.4byte	0x695
 5534 111e 00       		.byte	0
 5535 111f 08       		.uleb128 0x8
 5536 1120 62746E00 		.ascii	"btn\000"
 5537 1124 13       		.byte	0x13
 5538 1125 BC       		.byte	0xbc
 5539 1126 C8100000 		.4byte	0x10c8
 5540 112a 04       		.byte	0x4
 5541 112b 00       		.byte	0
 5542 112c 06       		.uleb128 0x6
 5543 112d 14       		.byte	0x14
 5544 112e 13       		.byte	0x13
 5545 112f C4       		.byte	0xc4
 5546 1130 70110000 		.4byte	0x1170
 5547 1134 08       		.uleb128 0x8
 5548 1135 72656C00 		.ascii	"rel\000"
 5549 1139 13       		.byte	0x13
 5550 113a C6       		.byte	0xc6
 5551 113b 95060000 		.4byte	0x695
 5552 113f 00       		.byte	0
 5553 1140 08       		.uleb128 0x8
 5554 1141 707200   		.ascii	"pr\000"
 5555 1144 13       		.byte	0x13
 5556 1145 C7       		.byte	0xc7
 5557 1146 95060000 		.4byte	0x695
 5558 114a 04       		.byte	0x4
 5559 114b 07       		.uleb128 0x7
 5560 114c 1B0B0000 		.4byte	.LASF264
 5561 1150 13       		.byte	0x13
 5562 1151 C8       		.byte	0xc8
 5563 1152 95060000 		.4byte	0x695
 5564 1156 08       		.byte	0x8
 5565 1157 07       		.uleb128 0x7
 5566 1158 C3030000 		.4byte	.LASF265
 5567 115c 13       		.byte	0x13
ARM GAS  C:\Users\tmj32\AppData\Local\Temp\ccUUfkkI.s 			page 135


 5568 115d C9       		.byte	0xc9
 5569 115e 95060000 		.4byte	0x695
 5570 1162 0C       		.byte	0xc
 5571 1163 08       		.uleb128 0x8
 5572 1164 696E6100 		.ascii	"ina\000"
 5573 1168 13       		.byte	0x13
 5574 1169 CA       		.byte	0xca
 5575 116a 95060000 		.4byte	0x695
 5576 116e 10       		.byte	0x10
 5577 116f 00       		.byte	0
 5578 1170 06       		.uleb128 0x6
 5579 1171 18       		.byte	0x18
 5580 1172 13       		.byte	0x13
 5581 1173 C1       		.byte	0xc1
 5582 1174 90110000 		.4byte	0x1190
 5583 1178 08       		.uleb128 0x8
 5584 1179 626700   		.ascii	"bg\000"
 5585 117c 13       		.byte	0x13
 5586 117d C3       		.byte	0xc3
 5587 117e 95060000 		.4byte	0x695
 5588 1182 00       		.byte	0
 5589 1183 08       		.uleb128 0x8
 5590 1184 62746E00 		.ascii	"btn\000"
 5591 1188 13       		.byte	0x13
 5592 1189 CB       		.byte	0xcb
 5593 118a 2C110000 		.4byte	0x112c
 5594 118e 04       		.byte	0x4
 5595 118f 00       		.byte	0
 5596 1190 06       		.uleb128 0x6
 5597 1191 0C       		.byte	0xc
 5598 1192 13       		.byte	0x13
 5599 1193 D3       		.byte	0xd3
 5600 1194 BB110000 		.4byte	0x11bb
 5601 1198 08       		.uleb128 0x8
 5602 1199 626700   		.ascii	"bg\000"
 5603 119c 13       		.byte	0x13
 5604 119d D5       		.byte	0xd5
 5605 119e 95060000 		.4byte	0x695
 5606 11a2 00       		.byte	0
 5607 11a3 08       		.uleb128 0x8
 5608 11a4 72656C00 		.ascii	"rel\000"
 5609 11a8 13       		.byte	0x13
 5610 11a9 D6       		.byte	0xd6
 5611 11aa 95060000 		.4byte	0x695
 5612 11ae 04       		.byte	0x4
 5613 11af 08       		.uleb128 0x8
 5614 11b0 707200   		.ascii	"pr\000"
 5615 11b3 13       		.byte	0x13
 5616 11b4 D7       		.byte	0xd7
 5617 11b5 95060000 		.4byte	0x695
 5618 11b9 08       		.byte	0x8
 5619 11ba 00       		.byte	0
 5620 11bb 06       		.uleb128 0x6
 5621 11bc 10       		.byte	0x10
 5622 11bd 13       		.byte	0x13
 5623 11be D0       		.byte	0xd0
 5624 11bf DB110000 		.4byte	0x11db
ARM GAS  C:\Users\tmj32\AppData\Local\Temp\ccUUfkkI.s 			page 136


 5625 11c3 08       		.uleb128 0x8
 5626 11c4 626700   		.ascii	"bg\000"
 5627 11c7 13       		.byte	0x13
 5628 11c8 D2       		.byte	0xd2
 5629 11c9 95060000 		.4byte	0x695
 5630 11cd 00       		.byte	0
 5631 11ce 08       		.uleb128 0x8
 5632 11cf 62746E00 		.ascii	"btn\000"
 5633 11d3 13       		.byte	0x13
 5634 11d4 D8       		.byte	0xd8
 5635 11d5 90110000 		.4byte	0x1190
 5636 11d9 04       		.byte	0x4
 5637 11da 00       		.byte	0
 5638 11db 06       		.uleb128 0x6
 5639 11dc 0C       		.byte	0xc
 5640 11dd 13       		.byte	0x13
 5641 11de DD       		.byte	0xdd
 5642 11df 06120000 		.4byte	0x1206
 5643 11e3 08       		.uleb128 0x8
 5644 11e4 626700   		.ascii	"bg\000"
 5645 11e7 13       		.byte	0x13
 5646 11e8 DF       		.byte	0xdf
 5647 11e9 95060000 		.4byte	0x695
 5648 11ed 00       		.byte	0
 5649 11ee 07       		.uleb128 0x7
 5650 11ef EF030000 		.4byte	.LASF220
 5651 11f3 13       		.byte	0x13
 5652 11f4 E0       		.byte	0xe0
 5653 11f5 95060000 		.4byte	0x695
 5654 11f9 04       		.byte	0x4
 5655 11fa 08       		.uleb128 0x8
 5656 11fb 736200   		.ascii	"sb\000"
 5657 11fe 13       		.byte	0x13
 5658 11ff E1       		.byte	0xe1
 5659 1200 95060000 		.4byte	0x695
 5660 1204 08       		.byte	0x8
 5661 1205 00       		.byte	0
 5662 1206 06       		.uleb128 0x6
 5663 1207 10       		.byte	0x10
 5664 1208 13       		.byte	0x13
 5665 1209 E6       		.byte	0xe6
 5666 120a 3E120000 		.4byte	0x123e
 5667 120e 07       		.uleb128 0x7
 5668 120f CF070000 		.4byte	.LASF282
 5669 1213 13       		.byte	0x13
 5670 1214 E8       		.byte	0xe8
 5671 1215 95060000 		.4byte	0x695
 5672 1219 00       		.byte	0
 5673 121a 07       		.uleb128 0x7
 5674 121b FF080000 		.4byte	.LASF283
 5675 121f 13       		.byte	0x13
 5676 1220 E9       		.byte	0xe9
 5677 1221 95060000 		.4byte	0x695
 5678 1225 04       		.byte	0x4
 5679 1226 07       		.uleb128 0x7
 5680 1227 D0130000 		.4byte	.LASF284
 5681 122b 13       		.byte	0x13
ARM GAS  C:\Users\tmj32\AppData\Local\Temp\ccUUfkkI.s 			page 137


 5682 122c EA       		.byte	0xea
 5683 122d 95060000 		.4byte	0x695
 5684 1231 08       		.byte	0x8
 5685 1232 08       		.uleb128 0x8
 5686 1233 736200   		.ascii	"sb\000"
 5687 1236 13       		.byte	0x13
 5688 1237 EB       		.byte	0xeb
 5689 1238 95060000 		.4byte	0x695
 5690 123c 0C       		.byte	0xc
 5691 123d 00       		.byte	0
 5692 123e 06       		.uleb128 0x6
 5693 123f 0C       		.byte	0xc
 5694 1240 13       		.byte	0x13
 5695 1241 F0       		.byte	0xf0
 5696 1242 69120000 		.4byte	0x1269
 5697 1246 08       		.uleb128 0x8
 5698 1247 626700   		.ascii	"bg\000"
 5699 124a 13       		.byte	0x13
 5700 124b F2       		.byte	0xf2
 5701 124c 95060000 		.4byte	0x695
 5702 1250 00       		.byte	0
 5703 1251 07       		.uleb128 0x7
 5704 1252 D0130000 		.4byte	.LASF284
 5705 1256 13       		.byte	0x13
 5706 1257 F3       		.byte	0xf3
 5707 1258 95060000 		.4byte	0x695
 5708 125c 04       		.byte	0x4
 5709 125d 08       		.uleb128 0x8
 5710 125e 736200   		.ascii	"sb\000"
 5711 1261 13       		.byte	0x13
 5712 1262 F4       		.byte	0xf4
 5713 1263 95060000 		.4byte	0x695
 5714 1267 08       		.byte	0x8
 5715 1268 00       		.byte	0
 5716 1269 06       		.uleb128 0x6
 5717 126a 14       		.byte	0x14
 5718 126b 13       		.byte	0x13
 5719 126c FE       		.byte	0xfe
 5720 126d B2120000 		.4byte	0x12b2
 5721 1271 1C       		.uleb128 0x1c
 5722 1272 72656C00 		.ascii	"rel\000"
 5723 1276 13       		.byte	0x13
 5724 1277 0001     		.2byte	0x100
 5725 1279 95060000 		.4byte	0x695
 5726 127d 00       		.byte	0
 5727 127e 1C       		.uleb128 0x1c
 5728 127f 707200   		.ascii	"pr\000"
 5729 1282 13       		.byte	0x13
 5730 1283 0101     		.2byte	0x101
 5731 1285 95060000 		.4byte	0x695
 5732 1289 04       		.byte	0x4
 5733 128a 18       		.uleb128 0x18
 5734 128b 1B0B0000 		.4byte	.LASF264
 5735 128f 13       		.byte	0x13
 5736 1290 0201     		.2byte	0x102
 5737 1292 95060000 		.4byte	0x695
 5738 1296 08       		.byte	0x8
ARM GAS  C:\Users\tmj32\AppData\Local\Temp\ccUUfkkI.s 			page 138


 5739 1297 18       		.uleb128 0x18
 5740 1298 C3030000 		.4byte	.LASF265
 5741 129c 13       		.byte	0x13
 5742 129d 0301     		.2byte	0x103
 5743 129f 95060000 		.4byte	0x695
 5744 12a3 0C       		.byte	0xc
 5745 12a4 1C       		.uleb128 0x1c
 5746 12a5 696E6100 		.ascii	"ina\000"
 5747 12a9 13       		.byte	0x13
 5748 12aa 0401     		.2byte	0x104
 5749 12ac 95060000 		.4byte	0x695
 5750 12b0 10       		.byte	0x10
 5751 12b1 00       		.byte	0
 5752 12b2 06       		.uleb128 0x6
 5753 12b3 20       		.byte	0x20
 5754 12b4 13       		.byte	0x13
 5755 12b5 F9       		.byte	0xf9
 5756 12b6 EA120000 		.4byte	0x12ea
 5757 12ba 08       		.uleb128 0x8
 5758 12bb 626700   		.ascii	"bg\000"
 5759 12be 13       		.byte	0x13
 5760 12bf FB       		.byte	0xfb
 5761 12c0 95060000 		.4byte	0x695
 5762 12c4 00       		.byte	0
 5763 12c5 07       		.uleb128 0x7
 5764 12c6 EF030000 		.4byte	.LASF220
 5765 12ca 13       		.byte	0x13
 5766 12cb FC       		.byte	0xfc
 5767 12cc 95060000 		.4byte	0x695
 5768 12d0 04       		.byte	0x4
 5769 12d1 08       		.uleb128 0x8
 5770 12d2 736200   		.ascii	"sb\000"
 5771 12d5 13       		.byte	0x13
 5772 12d6 FD       		.byte	0xfd
 5773 12d7 95060000 		.4byte	0x695
 5774 12db 08       		.byte	0x8
 5775 12dc 1C       		.uleb128 0x1c
 5776 12dd 62746E00 		.ascii	"btn\000"
 5777 12e1 13       		.byte	0x13
 5778 12e2 0501     		.2byte	0x105
 5779 12e4 69120000 		.4byte	0x1269
 5780 12e8 0C       		.byte	0xc
 5781 12e9 00       		.byte	0
 5782 12ea 17       		.uleb128 0x17
 5783 12eb 0C       		.byte	0xc
 5784 12ec 13       		.byte	0x13
 5785 12ed 0A01     		.2byte	0x10a
 5786 12ef 19130000 		.4byte	0x1319
 5787 12f3 1C       		.uleb128 0x1c
 5788 12f4 626700   		.ascii	"bg\000"
 5789 12f7 13       		.byte	0x13
 5790 12f8 0C01     		.2byte	0x10c
 5791 12fa 95060000 		.4byte	0x695
 5792 12fe 00       		.byte	0
 5793 12ff 1C       		.uleb128 0x1c
 5794 1300 73656C00 		.ascii	"sel\000"
 5795 1304 13       		.byte	0x13
ARM GAS  C:\Users\tmj32\AppData\Local\Temp\ccUUfkkI.s 			page 139


 5796 1305 0D01     		.2byte	0x10d
 5797 1307 95060000 		.4byte	0x695
 5798 130b 04       		.byte	0x4
 5799 130c 1C       		.uleb128 0x1c
 5800 130d 736200   		.ascii	"sb\000"
 5801 1310 13       		.byte	0x13
 5802 1311 0E01     		.2byte	0x10e
 5803 1313 95060000 		.4byte	0x695
 5804 1317 08       		.byte	0x8
 5805 1318 00       		.byte	0
 5806 1319 17       		.uleb128 0x17
 5807 131a 08       		.byte	0x8
 5808 131b 13       		.byte	0x13
 5809 131c 1301     		.2byte	0x113
 5810 131e 3C130000 		.4byte	0x133c
 5811 1322 1C       		.uleb128 0x1c
 5812 1323 626700   		.ascii	"bg\000"
 5813 1326 13       		.byte	0x13
 5814 1327 1501     		.2byte	0x115
 5815 1329 95060000 		.4byte	0x695
 5816 132d 00       		.byte	0
 5817 132e 1C       		.uleb128 0x1c
 5818 132f 73656C00 		.ascii	"sel\000"
 5819 1333 13       		.byte	0x13
 5820 1334 1601     		.2byte	0x116
 5821 1336 95060000 		.4byte	0x695
 5822 133a 04       		.byte	0x4
 5823 133b 00       		.byte	0
 5824 133c 17       		.uleb128 0x17
 5825 133d 14       		.byte	0x14
 5826 133e 13       		.byte	0x13
 5827 133f 1F01     		.2byte	0x11f
 5828 1341 85130000 		.4byte	0x1385
 5829 1345 1C       		.uleb128 0x1c
 5830 1346 626700   		.ascii	"bg\000"
 5831 1349 13       		.byte	0x13
 5832 134a 2101     		.2byte	0x121
 5833 134c 95060000 		.4byte	0x695
 5834 1350 00       		.byte	0
 5835 1351 1C       		.uleb128 0x1c
 5836 1352 72656C00 		.ascii	"rel\000"
 5837 1356 13       		.byte	0x13
 5838 1357 2201     		.2byte	0x122
 5839 1359 95060000 		.4byte	0x695
 5840 135d 04       		.byte	0x4
 5841 135e 1C       		.uleb128 0x1c
 5842 135f 707200   		.ascii	"pr\000"
 5843 1362 13       		.byte	0x13
 5844 1363 2301     		.2byte	0x123
 5845 1365 95060000 		.4byte	0x695
 5846 1369 08       		.byte	0x8
 5847 136a 18       		.uleb128 0x18
 5848 136b 1B0B0000 		.4byte	.LASF264
 5849 136f 13       		.byte	0x13
 5850 1370 2401     		.2byte	0x124
 5851 1372 95060000 		.4byte	0x695
 5852 1376 0C       		.byte	0xc
ARM GAS  C:\Users\tmj32\AppData\Local\Temp\ccUUfkkI.s 			page 140


 5853 1377 18       		.uleb128 0x18
 5854 1378 C3030000 		.4byte	.LASF265
 5855 137c 13       		.byte	0x13
 5856 137d 2501     		.2byte	0x125
 5857 137f 95060000 		.4byte	0x695
 5858 1383 10       		.byte	0x10
 5859 1384 00       		.byte	0
 5860 1385 17       		.uleb128 0x17
 5861 1386 1C       		.byte	0x1c
 5862 1387 13       		.byte	0x13
 5863 1388 1B01     		.2byte	0x11b
 5864 138a B5130000 		.4byte	0x13b5
 5865 138e 1C       		.uleb128 0x1c
 5866 138f 626700   		.ascii	"bg\000"
 5867 1392 13       		.byte	0x13
 5868 1393 1D01     		.2byte	0x11d
 5869 1395 95060000 		.4byte	0x695
 5870 1399 00       		.byte	0
 5871 139a 18       		.uleb128 0x18
 5872 139b 0B0A0000 		.4byte	.LASF271
 5873 139f 13       		.byte	0x13
 5874 13a0 1E01     		.2byte	0x11e
 5875 13a2 95060000 		.4byte	0x695
 5876 13a6 04       		.byte	0x4
 5877 13a7 1C       		.uleb128 0x1c
 5878 13a8 62746E00 		.ascii	"btn\000"
 5879 13ac 13       		.byte	0x13
 5880 13ad 2601     		.2byte	0x126
 5881 13af 3C130000 		.4byte	0x133c
 5882 13b3 08       		.byte	0x8
 5883 13b4 00       		.byte	0
 5884 13b5 17       		.uleb128 0x17
 5885 13b6 0C       		.byte	0xc
 5886 13b7 13       		.byte	0x13
 5887 13b8 2B01     		.2byte	0x12b
 5888 13ba E4130000 		.4byte	0x13e4
 5889 13be 1C       		.uleb128 0x1c
 5890 13bf 626700   		.ascii	"bg\000"
 5891 13c2 13       		.byte	0x13
 5892 13c3 2D01     		.2byte	0x12d
 5893 13c5 95060000 		.4byte	0x695
 5894 13c9 00       		.byte	0
 5895 13ca 18       		.uleb128 0x18
 5896 13cb EF030000 		.4byte	.LASF220
 5897 13cf 13       		.byte	0x13
 5898 13d0 2E01     		.2byte	0x12e
 5899 13d2 95060000 		.4byte	0x695
 5900 13d6 04       		.byte	0x4
 5901 13d7 1C       		.uleb128 0x1c
 5902 13d8 736200   		.ascii	"sb\000"
 5903 13db 13       		.byte	0x13
 5904 13dc 2F01     		.2byte	0x12f
 5905 13de 95060000 		.4byte	0x695
 5906 13e2 08       		.byte	0x8
 5907 13e3 00       		.byte	0
 5908 13e4 17       		.uleb128 0x17
 5909 13e5 08       		.byte	0x8
ARM GAS  C:\Users\tmj32\AppData\Local\Temp\ccUUfkkI.s 			page 141


 5910 13e6 13       		.byte	0x13
 5911 13e7 3401     		.2byte	0x134
 5912 13e9 07140000 		.4byte	0x1407
 5913 13ed 1C       		.uleb128 0x1c
 5914 13ee 626700   		.ascii	"bg\000"
 5915 13f1 13       		.byte	0x13
 5916 13f2 3601     		.2byte	0x136
 5917 13f4 95060000 		.4byte	0x695
 5918 13f8 00       		.byte	0
 5919 13f9 18       		.uleb128 0x18
 5920 13fa 5C000000 		.4byte	.LASF285
 5921 13fe 13       		.byte	0x13
 5922 13ff 3701     		.2byte	0x137
 5923 1401 95060000 		.4byte	0x695
 5924 1405 04       		.byte	0x4
 5925 1406 00       		.byte	0
 5926 1407 17       		.uleb128 0x17
 5927 1408 08       		.byte	0x8
 5928 1409 13       		.byte	0x13
 5929 140a 4201     		.2byte	0x142
 5930 140c 2A140000 		.4byte	0x142a
 5931 1410 1C       		.uleb128 0x1c
 5932 1411 72656C00 		.ascii	"rel\000"
 5933 1415 13       		.byte	0x13
 5934 1416 4401     		.2byte	0x144
 5935 1418 95060000 		.4byte	0x695
 5936 141c 00       		.byte	0
 5937 141d 1C       		.uleb128 0x1c
 5938 141e 707200   		.ascii	"pr\000"
 5939 1421 13       		.byte	0x13
 5940 1422 4501     		.2byte	0x145
 5941 1424 95060000 		.4byte	0x695
 5942 1428 04       		.byte	0x4
 5943 1429 00       		.byte	0
 5944 142a 17       		.uleb128 0x17
 5945 142b 18       		.byte	0x18
 5946 142c 13       		.byte	0x13
 5947 142d 3C01     		.2byte	0x13c
 5948 142f 73140000 		.4byte	0x1473
 5949 1433 1C       		.uleb128 0x1c
 5950 1434 626700   		.ascii	"bg\000"
 5951 1437 13       		.byte	0x13
 5952 1438 3E01     		.2byte	0x13e
 5953 143a 95060000 		.4byte	0x695
 5954 143e 00       		.byte	0
 5955 143f 1C       		.uleb128 0x1c
 5956 1440 736200   		.ascii	"sb\000"
 5957 1443 13       		.byte	0x13
 5958 1444 3F01     		.2byte	0x13f
 5959 1446 95060000 		.4byte	0x695
 5960 144a 04       		.byte	0x4
 5961 144b 18       		.uleb128 0x18
 5962 144c C9040000 		.4byte	.LASF275
 5963 1450 13       		.byte	0x13
 5964 1451 4001     		.2byte	0x140
 5965 1453 95060000 		.4byte	0x695
 5966 1457 08       		.byte	0x8
ARM GAS  C:\Users\tmj32\AppData\Local\Temp\ccUUfkkI.s 			page 142


 5967 1458 18       		.uleb128 0x18
 5968 1459 C9110000 		.4byte	.LASF286
 5969 145d 13       		.byte	0x13
 5970 145e 4101     		.2byte	0x141
 5971 1460 95060000 		.4byte	0x695
 5972 1464 0C       		.byte	0xc
 5973 1465 1C       		.uleb128 0x1c
 5974 1466 62746E00 		.ascii	"btn\000"
 5975 146a 13       		.byte	0x13
 5976 146b 4601     		.2byte	0x146
 5977 146d 07140000 		.4byte	0x1407
 5978 1471 10       		.byte	0x10
 5979 1472 00       		.byte	0
 5980 1473 1D       		.uleb128 0x1d
 5981 1474 A801     		.2byte	0x1a8
 5982 1476 13       		.byte	0x13
 5983 1477 29       		.byte	0x29
 5984 1478 15160000 		.4byte	0x1615
 5985 147c 08       		.uleb128 0x8
 5986 147d 73637200 		.ascii	"scr\000"
 5987 1481 13       		.byte	0x13
 5988 1482 2B       		.byte	0x2b
 5989 1483 95060000 		.4byte	0x695
 5990 1487 00       		.byte	0
 5991 1488 08       		.uleb128 0x8
 5992 1489 626700   		.ascii	"bg\000"
 5993 148c 13       		.byte	0x13
 5994 148d 2C       		.byte	0x2c
 5995 148e 95060000 		.4byte	0x695
 5996 1492 04       		.byte	0x4
 5997 1493 07       		.uleb128 0x7
 5998 1494 FA0E0000 		.4byte	.LASF287
 5999 1498 13       		.byte	0x13
 6000 1499 2D       		.byte	0x2d
 6001 149a 95060000 		.4byte	0x695
 6002 149e 08       		.byte	0x8
 6003 149f 07       		.uleb128 0x7
 6004 14a0 21020000 		.4byte	.LASF288
 6005 14a4 13       		.byte	0x13
 6006 14a5 30       		.byte	0x30
 6007 14a6 95060000 		.4byte	0x695
 6008 14aa 0C       		.byte	0xc
 6009 14ab 08       		.uleb128 0x8
 6010 14ac 62746E00 		.ascii	"btn\000"
 6011 14b0 13       		.byte	0x13
 6012 14b1 3B       		.byte	0x3b
 6013 14b2 8D0E0000 		.4byte	0xe8d
 6014 14b6 10       		.byte	0x10
 6015 14b7 07       		.uleb128 0x7
 6016 14b8 E90E0000 		.4byte	.LASF289
 6017 14bc 13       		.byte	0x13
 6018 14bd 46       		.byte	0x46
 6019 14be D10E0000 		.4byte	0xed1
 6020 14c2 24       		.byte	0x24
 6021 14c3 07       		.uleb128 0x7
 6022 14c4 0A130000 		.4byte	.LASF290
 6023 14c8 13       		.byte	0x13
ARM GAS  C:\Users\tmj32\AppData\Local\Temp\ccUUfkkI.s 			page 143


 6024 14c9 4F       		.byte	0x4f
 6025 14ca 150F0000 		.4byte	0xf15
 6026 14ce 38       		.byte	0x38
 6027 14cf 08       		.uleb128 0x8
 6028 14d0 696D6700 		.ascii	"img\000"
 6029 14d4 13       		.byte	0x13
 6030 14d5 57       		.byte	0x57
 6031 14d6 420F0000 		.4byte	0xf42
 6032 14da 44       		.byte	0x44
 6033 14db 07       		.uleb128 0x7
 6034 14dc 98080000 		.4byte	.LASF94
 6035 14e0 13       		.byte	0x13
 6036 14e1 5E       		.byte	0x5e
 6037 14e2 630F0000 		.4byte	0xf63
 6038 14e6 4C       		.byte	0x4c
 6039 14e7 08       		.uleb128 0x8
 6040 14e8 6C656400 		.ascii	"led\000"
 6041 14ec 13       		.byte	0x13
 6042 14ed 62       		.byte	0x62
 6043 14ee 95060000 		.4byte	0x695
 6044 14f2 50       		.byte	0x50
 6045 14f3 08       		.uleb128 0x8
 6046 14f4 62617200 		.ascii	"bar\000"
 6047 14f8 13       		.byte	0x13
 6048 14f9 6A       		.byte	0x6a
 6049 14fa 780F0000 		.4byte	0xf78
 6050 14fe 54       		.byte	0x54
 6051 14ff 07       		.uleb128 0x7
 6052 1500 AD080000 		.4byte	.LASF291
 6053 1504 13       		.byte	0x13
 6054 1505 73       		.byte	0x73
 6055 1506 980F0000 		.4byte	0xf98
 6056 150a 5C       		.byte	0x5c
 6057 150b 07       		.uleb128 0x7
 6058 150c F5000000 		.4byte	.LASF292
 6059 1510 13       		.byte	0x13
 6060 1511 77       		.byte	0x77
 6061 1512 95060000 		.4byte	0x695
 6062 1516 68       		.byte	0x68
 6063 1517 07       		.uleb128 0x7
 6064 1518 910B0000 		.4byte	.LASF293
 6065 151c 13       		.byte	0x13
 6066 151d 7B       		.byte	0x7b
 6067 151e 95060000 		.4byte	0x695
 6068 1522 6C       		.byte	0x6c
 6069 1523 08       		.uleb128 0x8
 6070 1524 61726300 		.ascii	"arc\000"
 6071 1528 13       		.byte	0x13
 6072 1529 7F       		.byte	0x7f
 6073 152a 95060000 		.4byte	0x695
 6074 152e 70       		.byte	0x70
 6075 152f 07       		.uleb128 0x7
 6076 1530 5B130000 		.4byte	.LASF294
 6077 1534 13       		.byte	0x13
 6078 1535 83       		.byte	0x83
 6079 1536 95060000 		.4byte	0x695
 6080 153a 74       		.byte	0x74
ARM GAS  C:\Users\tmj32\AppData\Local\Temp\ccUUfkkI.s 			page 144


 6081 153b 08       		.uleb128 0x8
 6082 153c 737700   		.ascii	"sw\000"
 6083 153f 13       		.byte	0x13
 6084 1540 8D       		.byte	0x8d
 6085 1541 C40F0000 		.4byte	0xfc4
 6086 1545 78       		.byte	0x78
 6087 1546 07       		.uleb128 0x7
 6088 1547 3C020000 		.4byte	.LASF295
 6089 154b 13       		.byte	0x13
 6090 154c 91       		.byte	0x91
 6091 154d 95060000 		.4byte	0x695
 6092 1551 88       		.byte	0x88
 6093 1552 07       		.uleb128 0x7
 6094 1553 0D100000 		.4byte	.LASF296
 6095 1557 13       		.byte	0x13
 6096 1558 9F       		.byte	0x9f
 6097 1559 FC0F0000 		.4byte	0xffc
 6098 155d 8C       		.byte	0x8c
 6099 155e 08       		.uleb128 0x8
 6100 155f 636200   		.ascii	"cb\000"
 6101 1562 13       		.byte	0x13
 6102 1563 AE       		.byte	0xae
 6103 1564 A8100000 		.4byte	0x10a8
 6104 1568 AC       		.byte	0xac
 6105 1569 07       		.uleb128 0x7
 6106 156a 5A030000 		.4byte	.LASF297
 6107 156e 13       		.byte	0x13
 6108 156f BD       		.byte	0xbd
 6109 1570 0C110000 		.4byte	0x110c
 6110 1574 C4       		.byte	0xc4
 6111 1575 08       		.uleb128 0x8
 6112 1576 6B6200   		.ascii	"kb\000"
 6113 1579 13       		.byte	0x13
 6114 157a CC       		.byte	0xcc
 6115 157b 70110000 		.4byte	0x1170
 6116 157f DC       		.byte	0xdc
 6117 1580 07       		.uleb128 0x7
 6118 1581 FE0A0000 		.4byte	.LASF298
 6119 1585 13       		.byte	0x13
 6120 1586 D9       		.byte	0xd9
 6121 1587 BB110000 		.4byte	0x11bb
 6122 158b F4       		.byte	0xf4
 6123 158c 1E       		.uleb128 0x1e
 6124 158d 830B0000 		.4byte	.LASF248
 6125 1591 13       		.byte	0x13
 6126 1592 E2       		.byte	0xe2
 6127 1593 DB110000 		.4byte	0x11db
 6128 1597 0401     		.2byte	0x104
 6129 1599 1F       		.uleb128 0x1f
 6130 159a 746100   		.ascii	"ta\000"
 6131 159d 13       		.byte	0x13
 6132 159e EC       		.byte	0xec
 6133 159f 06120000 		.4byte	0x1206
 6134 15a3 1001     		.2byte	0x110
 6135 15a5 1E       		.uleb128 0x1e
 6136 15a6 F3100000 		.4byte	.LASF299
 6137 15aa 13       		.byte	0x13
ARM GAS  C:\Users\tmj32\AppData\Local\Temp\ccUUfkkI.s 			page 145


 6138 15ab F5       		.byte	0xf5
 6139 15ac 3E120000 		.4byte	0x123e
 6140 15b0 2001     		.2byte	0x120
 6141 15b2 20       		.uleb128 0x20
 6142 15b3 6A0B0000 		.4byte	.LASF300
 6143 15b7 13       		.byte	0x13
 6144 15b8 0601     		.2byte	0x106
 6145 15ba B2120000 		.4byte	0x12b2
 6146 15be 2C01     		.2byte	0x12c
 6147 15c0 20       		.uleb128 0x20
 6148 15c1 39060000 		.4byte	.LASF301
 6149 15c5 13       		.byte	0x13
 6150 15c6 0F01     		.2byte	0x10f
 6151 15c8 EA120000 		.4byte	0x12ea
 6152 15cc 4C01     		.2byte	0x14c
 6153 15ce 20       		.uleb128 0x20
 6154 15cf 19140000 		.4byte	.LASF302
 6155 15d3 13       		.byte	0x13
 6156 15d4 1701     		.2byte	0x117
 6157 15d6 19130000 		.4byte	0x1319
 6158 15da 5801     		.2byte	0x158
 6159 15dc 20       		.uleb128 0x20
 6160 15dd 3A0A0000 		.4byte	.LASF303
 6161 15e1 13       		.byte	0x13
 6162 15e2 2701     		.2byte	0x127
 6163 15e4 85130000 		.4byte	0x1385
 6164 15e8 6001     		.2byte	0x160
 6165 15ea 20       		.uleb128 0x20
 6166 15eb E4020000 		.4byte	.LASF304
 6167 15ef 13       		.byte	0x13
 6168 15f0 3001     		.2byte	0x130
 6169 15f2 B5130000 		.4byte	0x13b5
 6170 15f6 7C01     		.2byte	0x17c
 6171 15f8 20       		.uleb128 0x20
 6172 15f9 E5040000 		.4byte	.LASF305
 6173 15fd 13       		.byte	0x13
 6174 15fe 3801     		.2byte	0x138
 6175 1600 E4130000 		.4byte	0x13e4
 6176 1604 8801     		.2byte	0x188
 6177 1606 21       		.uleb128 0x21
 6178 1607 77696E00 		.ascii	"win\000"
 6179 160b 13       		.byte	0x13
 6180 160c 4701     		.2byte	0x147
 6181 160e 2A140000 		.4byte	0x142a
 6182 1612 9001     		.2byte	0x190
 6183 1614 00       		.byte	0
 6184 1615 1D       		.uleb128 0x1d
 6185 1616 A801     		.2byte	0x1a8
 6186 1618 13       		.byte	0x13
 6187 1619 27       		.byte	0x27
 6188 161a 2C160000 		.4byte	0x162c
 6189 161e 18       		.uleb128 0x18
 6190 161f 3C0C0000 		.4byte	.LASF208
 6191 1623 13       		.byte	0x13
 6192 1624 4901     		.2byte	0x149
 6193 1626 73140000 		.4byte	0x1473
 6194 162a 00       		.byte	0
ARM GAS  C:\Users\tmj32\AppData\Local\Temp\ccUUfkkI.s 			page 146


 6195 162b 00       		.byte	0
 6196 162c 12       		.uleb128 0x12
 6197 162d 61070000 		.4byte	.LASF306
 6198 1631 13       		.byte	0x13
 6199 1632 5401     		.2byte	0x154
 6200 1634 15160000 		.4byte	0x1615
 6201 1638 22       		.uleb128 0x22
 6202 1639 91060000 		.4byte	.LASF307
 6203 163d 01       		.byte	0x1
 6204 163e 79       		.byte	0x79
 6205 163f 00000000 		.4byte	.LFB31
 6206 1643 2A000000 		.4byte	.LFE31-.LFB31
 6207 1647 01       		.uleb128 0x1
 6208 1648 9C       		.byte	0x9c
 6209 1649 78160000 		.4byte	0x1678
 6210 164d 23       		.uleb128 0x23
 6211 164e 21020000 		.4byte	.LASF288
 6212 1652 01       		.byte	0x1
 6213 1653 79       		.byte	0x79
 6214 1654 070D0000 		.4byte	0xd07
 6215 1658 02       		.uleb128 0x2
 6216 1659 91       		.byte	0x91
 6217 165a 74       		.sleb128 -12
 6218 165b 24       		.uleb128 0x24
 6219 165c 686F7200 		.ascii	"hor\000"
 6220 1660 01       		.byte	0x1
 6221 1661 79       		.byte	0x79
 6222 1662 3A0B0000 		.4byte	0xb3a
 6223 1666 02       		.uleb128 0x2
 6224 1667 91       		.byte	0x91
 6225 1668 73       		.sleb128 -13
 6226 1669 24       		.uleb128 0x24
 6227 166a 76657200 		.ascii	"ver\000"
 6228 166e 01       		.byte	0x1
 6229 166f 79       		.byte	0x79
 6230 1670 3A0B0000 		.4byte	0xb3a
 6231 1674 02       		.uleb128 0x2
 6232 1675 91       		.byte	0x91
 6233 1676 72       		.sleb128 -14
 6234 1677 00       		.byte	0
 6235 1678 22       		.uleb128 0x22
 6236 1679 410B0000 		.4byte	.LASF308
 6237 167d 01       		.byte	0x1
 6238 167e 84       		.byte	0x84
 6239 167f 00000000 		.4byte	.LFB32
 6240 1683 26000000 		.4byte	.LFE32-.LFB32
 6241 1687 01       		.uleb128 0x1
 6242 1688 9C       		.byte	0x9c
 6243 1689 AA160000 		.4byte	0x16aa
 6244 168d 23       		.uleb128 0x23
 6245 168e 21020000 		.4byte	.LASF288
 6246 1692 01       		.byte	0x1
 6247 1693 84       		.byte	0x84
 6248 1694 070D0000 		.4byte	0xd07
 6249 1698 02       		.uleb128 0x2
 6250 1699 91       		.byte	0x91
 6251 169a 74       		.sleb128 -12
ARM GAS  C:\Users\tmj32\AppData\Local\Temp\ccUUfkkI.s 			page 147


 6252 169b 24       		.uleb128 0x24
 6253 169c 66697400 		.ascii	"fit\000"
 6254 16a0 01       		.byte	0x1
 6255 16a1 84       		.byte	0x84
 6256 16a2 3A0B0000 		.4byte	0xb3a
 6257 16a6 02       		.uleb128 0x2
 6258 16a7 91       		.byte	0x91
 6259 16a8 73       		.sleb128 -13
 6260 16a9 00       		.byte	0
 6261 16aa 22       		.uleb128 0x22
 6262 16ab F7050000 		.4byte	.LASF309
 6263 16af 02       		.byte	0x2
 6264 16b0 BC       		.byte	0xbc
 6265 16b1 00000000 		.4byte	.LFB36
 6266 16b5 28000000 		.4byte	.LFE36-.LFB36
 6267 16b9 01       		.uleb128 0x1
 6268 16ba 9C       		.byte	0x9c
 6269 16bb EA160000 		.4byte	0x16ea
 6270 16bf 23       		.uleb128 0x23
 6271 16c0 830B0000 		.4byte	.LASF248
 6272 16c4 02       		.byte	0x2
 6273 16c5 BC       		.byte	0xbc
 6274 16c6 070D0000 		.4byte	0xd07
 6275 16ca 02       		.uleb128 0x2
 6276 16cb 91       		.byte	0x91
 6277 16cc 74       		.sleb128 -12
 6278 16cd 24       		.uleb128 0x24
 6279 16ce 686F7200 		.ascii	"hor\000"
 6280 16d2 02       		.byte	0x2
 6281 16d3 BC       		.byte	0xbc
 6282 16d4 3A0B0000 		.4byte	0xb3a
 6283 16d8 02       		.uleb128 0x2
 6284 16d9 91       		.byte	0x91
 6285 16da 73       		.sleb128 -13
 6286 16db 24       		.uleb128 0x24
 6287 16dc 76657200 		.ascii	"ver\000"
 6288 16e0 02       		.byte	0x2
 6289 16e1 BC       		.byte	0xbc
 6290 16e2 3A0B0000 		.4byte	0xb3a
 6291 16e6 02       		.uleb128 0x2
 6292 16e7 91       		.byte	0x91
 6293 16e8 72       		.sleb128 -14
 6294 16e9 00       		.byte	0
 6295 16ea 22       		.uleb128 0x22
 6296 16eb C5080000 		.4byte	.LASF310
 6297 16ef 02       		.byte	0x2
 6298 16f0 E5       		.byte	0xe5
 6299 16f1 00000000 		.4byte	.LFB40
 6300 16f5 26000000 		.4byte	.LFE40-.LFB40
 6301 16f9 01       		.uleb128 0x1
 6302 16fa 9C       		.byte	0x9c
 6303 16fb 1C170000 		.4byte	0x171c
 6304 16ff 23       		.uleb128 0x23
 6305 1700 830B0000 		.4byte	.LASF248
 6306 1704 02       		.byte	0x2
 6307 1705 E5       		.byte	0xe5
 6308 1706 070D0000 		.4byte	0xd07
ARM GAS  C:\Users\tmj32\AppData\Local\Temp\ccUUfkkI.s 			page 148


 6309 170a 02       		.uleb128 0x2
 6310 170b 91       		.byte	0x91
 6311 170c 74       		.sleb128 -12
 6312 170d 23       		.uleb128 0x23
 6313 170e 330A0000 		.4byte	.LASF195
 6314 1712 02       		.byte	0x2
 6315 1713 E5       		.byte	0xe5
 6316 1714 040B0000 		.4byte	0xb04
 6317 1718 02       		.uleb128 0x2
 6318 1719 91       		.byte	0x91
 6319 171a 73       		.sleb128 -13
 6320 171b 00       		.byte	0
 6321 171c 25       		.uleb128 0x25
 6322 171d 030B0000 		.4byte	.LASF315
 6323 1721 02       		.byte	0x2
 6324 1722 3201     		.2byte	0x132
 6325 1724 040B0000 		.4byte	0xb04
 6326 1728 00000000 		.4byte	.LFB43
 6327 172c 20000000 		.4byte	.LFE43-.LFB43
 6328 1730 01       		.uleb128 0x1
 6329 1731 9C       		.byte	0x9c
 6330 1732 46170000 		.4byte	0x1746
 6331 1736 26       		.uleb128 0x26
 6332 1737 830B0000 		.4byte	.LASF248
 6333 173b 02       		.byte	0x2
 6334 173c 3201     		.2byte	0x132
 6335 173e 46170000 		.4byte	0x1746
 6336 1742 02       		.uleb128 0x2
 6337 1743 91       		.byte	0x91
 6338 1744 74       		.sleb128 -12
 6339 1745 00       		.byte	0
 6340 1746 0D       		.uleb128 0xd
 6341 1747 04       		.byte	0x4
 6342 1748 4C170000 		.4byte	0x174c
 6343 174c 0E       		.uleb128 0xe
 6344 174d 400A0000 		.4byte	0xa40
 6345 1751 22       		.uleb128 0x22
 6346 1752 D00B0000 		.4byte	.LASF311
 6347 1756 03       		.byte	0x3
 6348 1757 97       		.byte	0x97
 6349 1758 00000000 		.4byte	.LFB48
 6350 175c 1E000000 		.4byte	.LFE48-.LFB48
 6351 1760 01       		.uleb128 0x1
 6352 1761 9C       		.byte	0x9c
 6353 1762 83170000 		.4byte	0x1783
 6354 1766 24       		.uleb128 0x24
 6355 1767 62746E00 		.ascii	"btn\000"
 6356 176b 03       		.byte	0x3
 6357 176c 97       		.byte	0x97
 6358 176d 070D0000 		.4byte	0xd07
 6359 1771 02       		.uleb128 0x2
 6360 1772 91       		.byte	0x91
 6361 1773 74       		.sleb128 -12
 6362 1774 23       		.uleb128 0x23
 6363 1775 330A0000 		.4byte	.LASF195
 6364 1779 03       		.byte	0x3
 6365 177a 97       		.byte	0x97
ARM GAS  C:\Users\tmj32\AppData\Local\Temp\ccUUfkkI.s 			page 149


 6366 177b 040B0000 		.4byte	0xb04
 6367 177f 02       		.uleb128 0x2
 6368 1780 91       		.byte	0x91
 6369 1781 73       		.sleb128 -13
 6370 1782 00       		.byte	0
 6371 1783 22       		.uleb128 0x22
 6372 1784 09140000 		.4byte	.LASF312
 6373 1788 03       		.byte	0x3
 6374 1789 B1       		.byte	0xb1
 6375 178a 00000000 		.4byte	.LFB50
 6376 178e 24000000 		.4byte	.LFE50-.LFB50
 6377 1792 01       		.uleb128 0x1
 6378 1793 9C       		.byte	0x9c
 6379 1794 C3170000 		.4byte	0x17c3
 6380 1798 24       		.uleb128 0x24
 6381 1799 62746E00 		.ascii	"btn\000"
 6382 179d 03       		.byte	0x3
 6383 179e B1       		.byte	0xb1
 6384 179f 070D0000 		.4byte	0xd07
 6385 17a3 02       		.uleb128 0x2
 6386 17a4 91       		.byte	0x91
 6387 17a5 74       		.sleb128 -12
 6388 17a6 24       		.uleb128 0x24
 6389 17a7 686F7200 		.ascii	"hor\000"
 6390 17ab 03       		.byte	0x3
 6391 17ac B1       		.byte	0xb1
 6392 17ad 3A0B0000 		.4byte	0xb3a
 6393 17b1 02       		.uleb128 0x2
 6394 17b2 91       		.byte	0x91
 6395 17b3 73       		.sleb128 -13
 6396 17b4 24       		.uleb128 0x24
 6397 17b5 76657200 		.ascii	"ver\000"
 6398 17b9 03       		.byte	0x3
 6399 17ba B1       		.byte	0xb1
 6400 17bb 3A0B0000 		.4byte	0xb3a
 6401 17bf 02       		.uleb128 0x2
 6402 17c0 91       		.byte	0x91
 6403 17c1 72       		.sleb128 -14
 6404 17c2 00       		.byte	0
 6405 17c3 22       		.uleb128 0x22
 6406 17c4 D5020000 		.4byte	.LASF313
 6407 17c8 03       		.byte	0x3
 6408 17c9 BC       		.byte	0xbc
 6409 17ca 00000000 		.4byte	.LFB51
 6410 17ce 1E000000 		.4byte	.LFE51-.LFB51
 6411 17d2 01       		.uleb128 0x1
 6412 17d3 9C       		.byte	0x9c
 6413 17d4 F5170000 		.4byte	0x17f5
 6414 17d8 24       		.uleb128 0x24
 6415 17d9 62746E00 		.ascii	"btn\000"
 6416 17dd 03       		.byte	0x3
 6417 17de BC       		.byte	0xbc
 6418 17df 070D0000 		.4byte	0xd07
 6419 17e3 02       		.uleb128 0x2
 6420 17e4 91       		.byte	0x91
 6421 17e5 74       		.sleb128 -12
 6422 17e6 24       		.uleb128 0x24
ARM GAS  C:\Users\tmj32\AppData\Local\Temp\ccUUfkkI.s 			page 150


 6423 17e7 66697400 		.ascii	"fit\000"
 6424 17eb 03       		.byte	0x3
 6425 17ec BC       		.byte	0xbc
 6426 17ed 3A0B0000 		.4byte	0xb3a
 6427 17f1 02       		.uleb128 0x2
 6428 17f2 91       		.byte	0x91
 6429 17f3 73       		.sleb128 -13
 6430 17f4 00       		.byte	0
 6431 17f5 22       		.uleb128 0x22
 6432 17f6 0E0C0000 		.4byte	.LASF314
 6433 17fa 04       		.byte	0x4
 6434 17fb 97       		.byte	0x97
 6435 17fc 00000000 		.4byte	.LFB61
 6436 1800 1E000000 		.4byte	.LFE61-.LFB61
 6437 1804 01       		.uleb128 0x1
 6438 1805 9C       		.byte	0x9c
 6439 1806 27180000 		.4byte	0x1827
 6440 180a 23       		.uleb128 0x23
 6441 180b 6A0B0000 		.4byte	.LASF300
 6442 180f 04       		.byte	0x4
 6443 1810 97       		.byte	0x97
 6444 1811 070D0000 		.4byte	0xd07
 6445 1815 02       		.uleb128 0x2
 6446 1816 91       		.byte	0x91
 6447 1817 74       		.sleb128 -12
 6448 1818 23       		.uleb128 0x23
 6449 1819 9A100000 		.4byte	.LASF213
 6450 181d 04       		.byte	0x4
 6451 181e 97       		.byte	0x97
 6452 181f D50B0000 		.4byte	0xbd5
 6453 1823 02       		.uleb128 0x2
 6454 1824 91       		.byte	0x91
 6455 1825 73       		.sleb128 -13
 6456 1826 00       		.byte	0
 6457 1827 25       		.uleb128 0x25
 6458 1828 AA0B0000 		.4byte	.LASF316
 6459 182c 04       		.byte	0x4
 6460 182d 3A01     		.2byte	0x13a
 6461 182f CE000000 		.4byte	0xce
 6462 1833 00000000 		.4byte	.LFB68
 6463 1837 18000000 		.4byte	.LFE68-.LFB68
 6464 183b 01       		.uleb128 0x1
 6465 183c 9C       		.byte	0x9c
 6466 183d 51180000 		.4byte	0x1851
 6467 1841 26       		.uleb128 0x26
 6468 1842 6A0B0000 		.4byte	.LASF300
 6469 1846 04       		.byte	0x4
 6470 1847 3A01     		.2byte	0x13a
 6471 1849 46170000 		.4byte	0x1746
 6472 184d 02       		.uleb128 0x2
 6473 184e 91       		.byte	0x91
 6474 184f 74       		.sleb128 -12
 6475 1850 00       		.byte	0
 6476 1851 27       		.uleb128 0x27
 6477 1852 07090000 		.4byte	.LASF323
 6478 1856 05       		.byte	0x5
 6479 1857 45       		.byte	0x45
ARM GAS  C:\Users\tmj32\AppData\Local\Temp\ccUUfkkI.s 			page 151


 6480 1858 070D0000 		.4byte	0xd07
 6481 185c 00000000 		.4byte	.LFB69
 6482 1860 2C020000 		.4byte	.LFE69-.LFB69
 6483 1864 01       		.uleb128 0x1
 6484 1865 9C       		.byte	0x9c
 6485 1866 0A190000 		.4byte	0x190a
 6486 186a 24       		.uleb128 0x24
 6487 186b 70617200 		.ascii	"par\000"
 6488 186f 05       		.byte	0x5
 6489 1870 45       		.byte	0x45
 6490 1871 070D0000 		.4byte	0xd07
 6491 1875 02       		.uleb128 0x2
 6492 1876 91       		.byte	0x91
 6493 1877 54       		.sleb128 -44
 6494 1878 23       		.uleb128 0x23
 6495 1879 ED020000 		.4byte	.LASF317
 6496 187d 05       		.byte	0x5
 6497 187e 45       		.byte	0x45
 6498 187f 46170000 		.4byte	0x1746
 6499 1883 02       		.uleb128 0x2
 6500 1884 91       		.byte	0x91
 6501 1885 50       		.sleb128 -48
 6502 1886 28       		.uleb128 0x28
 6503 1887 1D120000 		.4byte	.LASF318
 6504 188b 05       		.byte	0x5
 6505 188c 4A       		.byte	0x4a
 6506 188d 070D0000 		.4byte	0xd07
 6507 1891 02       		.uleb128 0x2
 6508 1892 91       		.byte	0x91
 6509 1893 6C       		.sleb128 -20
 6510 1894 29       		.uleb128 0x29
 6511 1895 65787400 		.ascii	"ext\000"
 6512 1899 05       		.byte	0x5
 6513 189a 50       		.byte	0x50
 6514 189b 0A190000 		.4byte	0x190a
 6515 189f 02       		.uleb128 0x2
 6516 18a0 91       		.byte	0x91
 6517 18a1 68       		.sleb128 -24
 6518 18a2 2A       		.uleb128 0x2a
 6519 18a3 8E000000 		.4byte	.LBB2
 6520 18a7 D4000000 		.4byte	.LBE2-.LBB2
 6521 18ab BD180000 		.4byte	0x18bd
 6522 18af 29       		.uleb128 0x29
 6523 18b0 746800   		.ascii	"th\000"
 6524 18b3 05       		.byte	0x5
 6525 18b4 6E       		.byte	0x6e
 6526 18b5 10190000 		.4byte	0x1910
 6527 18b9 02       		.uleb128 0x2
 6528 18ba 91       		.byte	0x91
 6529 18bb 64       		.sleb128 -28
 6530 18bc 00       		.byte	0
 6531 18bd 2B       		.uleb128 0x2b
 6532 18be 62010000 		.4byte	.LBB3
 6533 18c2 9C000000 		.4byte	.LBE3-.LBB3
 6534 18c6 28       		.uleb128 0x28
 6535 18c7 42020000 		.4byte	.LASF319
 6536 18cb 05       		.byte	0x5
ARM GAS  C:\Users\tmj32\AppData\Local\Temp\ccUUfkkI.s 			page 152


 6537 18cc 7D       		.byte	0x7d
 6538 18cd 0A190000 		.4byte	0x190a
 6539 18d1 02       		.uleb128 0x2
 6540 18d2 91       		.byte	0x91
 6541 18d3 60       		.sleb128 -32
 6542 18d4 28       		.uleb128 0x28
 6543 18d5 C3020000 		.4byte	.LASF320
 6544 18d9 05       		.byte	0x5
 6545 18da 7F       		.byte	0x7f
 6546 18db 070D0000 		.4byte	0xd07
 6547 18df 02       		.uleb128 0x2
 6548 18e0 91       		.byte	0x91
 6549 18e1 74       		.sleb128 -12
 6550 18e2 2B       		.uleb128 0x2b
 6551 18e3 76010000 		.4byte	.LBB4
 6552 18e7 36000000 		.4byte	.LBE4-.LBB4
 6553 18eb 28       		.uleb128 0x28
 6554 18ec 7F070000 		.4byte	.LASF321
 6555 18f0 05       		.byte	0x5
 6556 18f1 81       		.byte	0x81
 6557 18f2 B40D0000 		.4byte	0xdb4
 6558 18f6 02       		.uleb128 0x2
 6559 18f7 91       		.byte	0x91
 6560 18f8 70       		.sleb128 -16
 6561 18f9 28       		.uleb128 0x28
 6562 18fa 6E060000 		.4byte	.LASF322
 6563 18fe 05       		.byte	0x5
 6564 18ff 83       		.byte	0x83
 6565 1900 070D0000 		.4byte	0xd07
 6566 1904 02       		.uleb128 0x2
 6567 1905 91       		.byte	0x91
 6568 1906 5C       		.sleb128 -36
 6569 1907 00       		.byte	0
 6570 1908 00       		.byte	0
 6571 1909 00       		.byte	0
 6572 190a 0D       		.uleb128 0xd
 6573 190b 04       		.byte	0x4
 6574 190c 340E0000 		.4byte	0xe34
 6575 1910 0D       		.uleb128 0xd
 6576 1911 04       		.byte	0x4
 6577 1912 2C160000 		.4byte	0x162c
 6578 1916 2C       		.uleb128 0x2c
 6579 1917 D6010000 		.4byte	.LASF335
 6580 191b 05       		.byte	0x5
 6581 191c 9D       		.byte	0x9d
 6582 191d 00000000 		.4byte	.LFB70
 6583 1921 2E000000 		.4byte	.LFE70-.LFB70
 6584 1925 01       		.uleb128 0x1
 6585 1926 9C       		.byte	0x9c
 6586 1927 56190000 		.4byte	0x1956
 6587 192b 23       		.uleb128 0x23
 6588 192c 6A0B0000 		.4byte	.LASF300
 6589 1930 05       		.byte	0x5
 6590 1931 9D       		.byte	0x9d
 6591 1932 070D0000 		.4byte	0xd07
 6592 1936 02       		.uleb128 0x2
 6593 1937 91       		.byte	0x91
ARM GAS  C:\Users\tmj32\AppData\Local\Temp\ccUUfkkI.s 			page 153


 6594 1938 6C       		.sleb128 -20
 6595 1939 28       		.uleb128 0x28
 6596 193a EF030000 		.4byte	.LASF220
 6597 193e 05       		.byte	0x5
 6598 193f A1       		.byte	0xa1
 6599 1940 070D0000 		.4byte	0xd07
 6600 1944 02       		.uleb128 0x2
 6601 1945 91       		.byte	0x91
 6602 1946 74       		.sleb128 -12
 6603 1947 29       		.uleb128 0x29
 6604 1948 65787400 		.ascii	"ext\000"
 6605 194c 05       		.byte	0x5
 6606 194d A3       		.byte	0xa3
 6607 194e 0A190000 		.4byte	0x190a
 6608 1952 02       		.uleb128 0x2
 6609 1953 91       		.byte	0x91
 6610 1954 70       		.sleb128 -16
 6611 1955 00       		.byte	0
 6612 1956 27       		.uleb128 0x27
 6613 1957 7F050000 		.4byte	.LASF324
 6614 195b 05       		.byte	0x5
 6615 195c B2       		.byte	0xb2
 6616 195d 070D0000 		.4byte	0xd07
 6617 1961 00000000 		.4byte	.LFB71
 6618 1965 50020000 		.4byte	.LFE71-.LFB71
 6619 1969 01       		.uleb128 0x1
 6620 196a 9C       		.byte	0x9c
 6621 196b 4A1A0000 		.4byte	0x1a4a
 6622 196f 23       		.uleb128 0x23
 6623 1970 6A0B0000 		.4byte	.LASF300
 6624 1974 05       		.byte	0x5
 6625 1975 B2       		.byte	0xb2
 6626 1976 070D0000 		.4byte	0xd07
 6627 197a 02       		.uleb128 0x2
 6628 197b 91       		.byte	0x91
 6629 197c 4C       		.sleb128 -52
 6630 197d 23       		.uleb128 0x23
 6631 197e 7F070000 		.4byte	.LASF321
 6632 1982 05       		.byte	0x5
 6633 1983 B2       		.byte	0xb2
 6634 1984 B40D0000 		.4byte	0xdb4
 6635 1988 02       		.uleb128 0x2
 6636 1989 91       		.byte	0x91
 6637 198a 48       		.sleb128 -56
 6638 198b 24       		.uleb128 0x24
 6639 198c 74787400 		.ascii	"txt\000"
 6640 1990 05       		.byte	0x5
 6641 1991 B2       		.byte	0xb2
 6642 1992 AB020000 		.4byte	0x2ab
 6643 1996 02       		.uleb128 0x2
 6644 1997 91       		.byte	0x91
 6645 1998 44       		.sleb128 -60
 6646 1999 28       		.uleb128 0x28
 6647 199a 37000000 		.4byte	.LASF325
 6648 199e 05       		.byte	0x5
 6649 199f B6       		.byte	0xb6
 6650 19a0 070D0000 		.4byte	0xd07
ARM GAS  C:\Users\tmj32\AppData\Local\Temp\ccUUfkkI.s 			page 154


 6651 19a4 02       		.uleb128 0x2
 6652 19a5 91       		.byte	0x91
 6653 19a6 70       		.sleb128 -16
 6654 19a7 28       		.uleb128 0x28
 6655 19a8 AC000000 		.4byte	.LASF326
 6656 19ac 05       		.byte	0x5
 6657 19ad B9       		.byte	0xb9
 6658 19ae EF000000 		.4byte	0xef
 6659 19b2 02       		.uleb128 0x2
 6660 19b3 91       		.byte	0x91
 6661 19b4 6E       		.sleb128 -18
 6662 19b5 28       		.uleb128 0x28
 6663 19b6 5F110000 		.4byte	.LASF327
 6664 19ba 05       		.byte	0x5
 6665 19bb BA       		.byte	0xba
 6666 19bc EF000000 		.4byte	0xef
 6667 19c0 02       		.uleb128 0x2
 6668 19c1 91       		.byte	0x91
 6669 19c2 6C       		.sleb128 -20
 6670 19c3 29       		.uleb128 0x29
 6671 19c4 65787400 		.ascii	"ext\000"
 6672 19c8 05       		.byte	0x5
 6673 19c9 BD       		.byte	0xbd
 6674 19ca 0A190000 		.4byte	0x190a
 6675 19ce 02       		.uleb128 0x2
 6676 19cf 91       		.byte	0x91
 6677 19d0 68       		.sleb128 -24
 6678 19d1 28       		.uleb128 0x28
 6679 19d2 E1050000 		.4byte	.LASF328
 6680 19d6 05       		.byte	0x5
 6681 19d7 C0       		.byte	0xc0
 6682 19d8 070D0000 		.4byte	0xd07
 6683 19dc 02       		.uleb128 0x2
 6684 19dd 91       		.byte	0x91
 6685 19de 64       		.sleb128 -28
 6686 19df 28       		.uleb128 0x28
 6687 19e0 89110000 		.4byte	.LASF329
 6688 19e4 05       		.byte	0x5
 6689 19e5 D0       		.byte	0xd0
 6690 19e6 040B0000 		.4byte	0xb04
 6691 19ea 02       		.uleb128 0x2
 6692 19eb 91       		.byte	0x91
 6693 19ec 63       		.sleb128 -29
 6694 19ed 28       		.uleb128 0x28
 6695 19ee 280A0000 		.4byte	.LASF330
 6696 19f2 05       		.byte	0x5
 6697 19f3 D1       		.byte	0xd1
 6698 19f4 D5010000 		.4byte	0x1d5
 6699 19f8 02       		.uleb128 0x2
 6700 19f9 91       		.byte	0x91
 6701 19fa 77       		.sleb128 -9
 6702 19fb 29       		.uleb128 0x29
 6703 19fc 696D6700 		.ascii	"img\000"
 6704 1a00 05       		.byte	0x5
 6705 1a01 E3       		.byte	0xe3
 6706 1a02 070D0000 		.4byte	0xd07
 6707 1a06 02       		.uleb128 0x2
ARM GAS  C:\Users\tmj32\AppData\Local\Temp\ccUUfkkI.s 			page 155


 6708 1a07 91       		.byte	0x91
 6709 1a08 5C       		.sleb128 -36
 6710 1a09 2A       		.uleb128 0x2a
 6711 1a0a FA000000 		.4byte	.LBB5
 6712 1a0e 2A000000 		.4byte	.LBE5-.LBB5
 6713 1a12 231A0000 		.4byte	0x1a23
 6714 1a16 29       		.uleb128 0x29
 6715 1a17 7700     		.ascii	"w\000"
 6716 1a19 05       		.byte	0x5
 6717 1a1a D9       		.byte	0xd9
 6718 1a1b EF000000 		.4byte	0xef
 6719 1a1f 02       		.uleb128 0x2
 6720 1a20 91       		.byte	0x91
 6721 1a21 60       		.sleb128 -32
 6722 1a22 00       		.byte	0
 6723 1a23 2B       		.uleb128 0x2b
 6724 1a24 7E010000 		.4byte	.LBB6
 6725 1a28 A6000000 		.4byte	.LBE6-.LBB6
 6726 1a2c 28       		.uleb128 0x28
 6727 1a2d CA010000 		.4byte	.LASF331
 6728 1a31 05       		.byte	0x5
 6729 1a32 ED       		.byte	0xed
 6730 1a33 EF000000 		.4byte	0xef
 6731 1a37 02       		.uleb128 0x2
 6732 1a38 91       		.byte	0x91
 6733 1a39 5A       		.sleb128 -38
 6734 1a3a 28       		.uleb128 0x28
 6735 1a3b 0A130000 		.4byte	.LASF290
 6736 1a3f 05       		.byte	0x5
 6737 1a40 EF       		.byte	0xef
 6738 1a41 070D0000 		.4byte	0xd07
 6739 1a45 02       		.uleb128 0x2
 6740 1a46 91       		.byte	0x91
 6741 1a47 54       		.sleb128 -44
 6742 1a48 00       		.byte	0
 6743 1a49 00       		.byte	0
 6744 1a4a 2D       		.uleb128 0x2d
 6745 1a4b 43050000 		.4byte	.LASF332
 6746 1a4f 05       		.byte	0x5
 6747 1a50 0E01     		.2byte	0x10e
 6748 1a52 D5010000 		.4byte	0x1d5
 6749 1a56 00000000 		.4byte	.LFB72
 6750 1a5a 76000000 		.4byte	.LFE72-.LFB72
 6751 1a5e 01       		.uleb128 0x1
 6752 1a5f 9C       		.byte	0x9c
 6753 1a60 AE1A0000 		.4byte	0x1aae
 6754 1a64 26       		.uleb128 0x26
 6755 1a65 6A0B0000 		.4byte	.LASF300
 6756 1a69 05       		.byte	0x5
 6757 1a6a 0E01     		.2byte	0x10e
 6758 1a6c 46170000 		.4byte	0x1746
 6759 1a70 02       		.uleb128 0x2
 6760 1a71 91       		.byte	0x91
 6761 1a72 64       		.sleb128 -28
 6762 1a73 26       		.uleb128 0x26
 6763 1a74 C9070000 		.4byte	.LASF333
 6764 1a78 05       		.byte	0x5
ARM GAS  C:\Users\tmj32\AppData\Local\Temp\ccUUfkkI.s 			page 156


 6765 1a79 0E01     		.2byte	0x10e
 6766 1a7b CE000000 		.4byte	0xce
 6767 1a7f 02       		.uleb128 0x2
 6768 1a80 91       		.byte	0x91
 6769 1a81 62       		.sleb128 -30
 6770 1a82 2E       		.uleb128 0x2e
 6771 1a83 65787400 		.ascii	"ext\000"
 6772 1a87 05       		.byte	0x5
 6773 1a88 1201     		.2byte	0x112
 6774 1a8a 0A190000 		.4byte	0x190a
 6775 1a8e 02       		.uleb128 0x2
 6776 1a8f 91       		.byte	0x91
 6777 1a90 6C       		.sleb128 -20
 6778 1a91 2F       		.uleb128 0x2f
 6779 1a92 920A0000 		.4byte	.LASF334
 6780 1a96 05       		.byte	0x5
 6781 1a97 1401     		.2byte	0x114
 6782 1a99 CE000000 		.4byte	0xce
 6783 1a9d 02       		.uleb128 0x2
 6784 1a9e 91       		.byte	0x91
 6785 1a9f 76       		.sleb128 -10
 6786 1aa0 2E       		.uleb128 0x2e
 6787 1aa1 6500     		.ascii	"e\000"
 6788 1aa3 05       		.byte	0x5
 6789 1aa4 1501     		.2byte	0x115
 6790 1aa6 070D0000 		.4byte	0xd07
 6791 1aaa 02       		.uleb128 0x2
 6792 1aab 91       		.byte	0x91
 6793 1aac 70       		.sleb128 -16
 6794 1aad 00       		.byte	0
 6795 1aae 30       		.uleb128 0x30
 6796 1aaf A7100000 		.4byte	.LASF336
 6797 1ab3 05       		.byte	0x5
 6798 1ab4 2B01     		.2byte	0x12b
 6799 1ab6 00000000 		.4byte	.LFB73
 6800 1aba 2C000000 		.4byte	.LFE73-.LFB73
 6801 1abe 01       		.uleb128 0x1
 6802 1abf 9C       		.byte	0x9c
 6803 1ac0 F21A0000 		.4byte	0x1af2
 6804 1ac4 26       		.uleb128 0x26
 6805 1ac5 6A0B0000 		.4byte	.LASF300
 6806 1ac9 05       		.byte	0x5
 6807 1aca 2B01     		.2byte	0x12b
 6808 1acc 070D0000 		.4byte	0xd07
 6809 1ad0 02       		.uleb128 0x2
 6810 1ad1 91       		.byte	0x91
 6811 1ad2 6C       		.sleb128 -20
 6812 1ad3 26       		.uleb128 0x26
 6813 1ad4 9A100000 		.4byte	.LASF213
 6814 1ad8 05       		.byte	0x5
 6815 1ad9 2B01     		.2byte	0x12b
 6816 1adb D5010000 		.4byte	0x1d5
 6817 1adf 02       		.uleb128 0x2
 6818 1ae0 91       		.byte	0x91
 6819 1ae1 6B       		.sleb128 -21
 6820 1ae2 2E       		.uleb128 0x2e
 6821 1ae3 65787400 		.ascii	"ext\000"
ARM GAS  C:\Users\tmj32\AppData\Local\Temp\ccUUfkkI.s 			page 157


 6822 1ae7 05       		.byte	0x5
 6823 1ae8 2F01     		.2byte	0x12f
 6824 1aea 0A190000 		.4byte	0x190a
 6825 1aee 02       		.uleb128 0x2
 6826 1aef 91       		.byte	0x91
 6827 1af0 74       		.sleb128 -12
 6828 1af1 00       		.byte	0
 6829 1af2 30       		.uleb128 0x30
 6830 1af3 0B080000 		.4byte	.LASF337
 6831 1af7 05       		.byte	0x5
 6832 1af8 6601     		.2byte	0x166
 6833 1afa 00000000 		.4byte	.LFB74
 6834 1afe 0E010000 		.4byte	.LFE74-.LFB74
 6835 1b02 01       		.uleb128 0x1
 6836 1b03 9C       		.byte	0x9c
 6837 1b04 631B0000 		.4byte	0x1b63
 6838 1b08 26       		.uleb128 0x26
 6839 1b09 6A0B0000 		.4byte	.LASF300
 6840 1b0d 05       		.byte	0x5
 6841 1b0e 6601     		.2byte	0x166
 6842 1b10 070D0000 		.4byte	0xd07
 6843 1b14 02       		.uleb128 0x2
 6844 1b15 91       		.byte	0x91
 6845 1b16 64       		.sleb128 -28
 6846 1b17 26       		.uleb128 0x26
 6847 1b18 01020000 		.4byte	.LASF73
 6848 1b1c 05       		.byte	0x5
 6849 1b1d 6601     		.2byte	0x166
 6850 1b1f 820E0000 		.4byte	0xe82
 6851 1b23 02       		.uleb128 0x2
 6852 1b24 91       		.byte	0x91
 6853 1b25 63       		.sleb128 -29
 6854 1b26 26       		.uleb128 0x26
 6855 1b27 3C0C0000 		.4byte	.LASF208
 6856 1b2b 05       		.byte	0x5
 6857 1b2c 6601     		.2byte	0x166
 6858 1b2e 350A0000 		.4byte	0xa35
 6859 1b32 02       		.uleb128 0x2
 6860 1b33 91       		.byte	0x91
 6861 1b34 5C       		.sleb128 -36
 6862 1b35 2E       		.uleb128 0x2e
 6863 1b36 65787400 		.ascii	"ext\000"
 6864 1b3a 05       		.byte	0x5
 6865 1b3b 6A01     		.2byte	0x16a
 6866 1b3d 0A190000 		.4byte	0x190a
 6867 1b41 02       		.uleb128 0x2
 6868 1b42 91       		.byte	0x91
 6869 1b43 6C       		.sleb128 -20
 6870 1b44 2F       		.uleb128 0x2f
 6871 1b45 E3070000 		.4byte	.LASF338
 6872 1b49 05       		.byte	0x5
 6873 1b4a 6B01     		.2byte	0x16b
 6874 1b4c A90D0000 		.4byte	0xda9
 6875 1b50 02       		.uleb128 0x2
 6876 1b51 91       		.byte	0x91
 6877 1b52 77       		.sleb128 -9
 6878 1b53 2E       		.uleb128 0x2e
ARM GAS  C:\Users\tmj32\AppData\Local\Temp\ccUUfkkI.s 			page 158


 6879 1b54 62746E00 		.ascii	"btn\000"
 6880 1b58 05       		.byte	0x5
 6881 1b59 6C01     		.2byte	0x16c
 6882 1b5b 070D0000 		.4byte	0xd07
 6883 1b5f 02       		.uleb128 0x2
 6884 1b60 91       		.byte	0x91
 6885 1b61 70       		.sleb128 -16
 6886 1b62 00       		.byte	0
 6887 1b63 30       		.uleb128 0x30
 6888 1b64 12040000 		.4byte	.LASF339
 6889 1b68 05       		.byte	0x5
 6890 1b69 9C01     		.2byte	0x19c
 6891 1b6b 00000000 		.4byte	.LFB75
 6892 1b6f C8000000 		.4byte	.LFE75-.LFB75
 6893 1b73 01       		.uleb128 0x1
 6894 1b74 9C       		.byte	0x9c
 6895 1b75 A71B0000 		.4byte	0x1ba7
 6896 1b79 26       		.uleb128 0x26
 6897 1b7a 6A0B0000 		.4byte	.LASF300
 6898 1b7e 05       		.byte	0x5
 6899 1b7f 9C01     		.2byte	0x19c
 6900 1b81 070D0000 		.4byte	0xd07
 6901 1b85 02       		.uleb128 0x2
 6902 1b86 91       		.byte	0x91
 6903 1b87 6C       		.sleb128 -20
 6904 1b88 26       		.uleb128 0x26
 6905 1b89 330A0000 		.4byte	.LASF195
 6906 1b8d 05       		.byte	0x5
 6907 1b8e 9C01     		.2byte	0x19c
 6908 1b90 040B0000 		.4byte	0xb04
 6909 1b94 02       		.uleb128 0x2
 6910 1b95 91       		.byte	0x91
 6911 1b96 6B       		.sleb128 -21
 6912 1b97 2E       		.uleb128 0x2e
 6913 1b98 62746E00 		.ascii	"btn\000"
 6914 1b9c 05       		.byte	0x5
 6915 1b9d A401     		.2byte	0x1a4
 6916 1b9f 070D0000 		.4byte	0xd07
 6917 1ba3 02       		.uleb128 0x2
 6918 1ba4 91       		.byte	0x91
 6919 1ba5 74       		.sleb128 -12
 6920 1ba6 00       		.byte	0
 6921 1ba7 2D       		.uleb128 0x2d
 6922 1ba8 36120000 		.4byte	.LASF340
 6923 1bac 05       		.byte	0x5
 6924 1bad C601     		.2byte	0x1c6
 6925 1baf D5010000 		.4byte	0x1d5
 6926 1bb3 00000000 		.4byte	.LFB76
 6927 1bb7 2E000000 		.4byte	.LFE76-.LFB76
 6928 1bbb 01       		.uleb128 0x1
 6929 1bbc 9C       		.byte	0x9c
 6930 1bbd E01B0000 		.4byte	0x1be0
 6931 1bc1 26       		.uleb128 0x26
 6932 1bc2 6A0B0000 		.4byte	.LASF300
 6933 1bc6 05       		.byte	0x5
 6934 1bc7 C601     		.2byte	0x1c6
 6935 1bc9 070D0000 		.4byte	0xd07
ARM GAS  C:\Users\tmj32\AppData\Local\Temp\ccUUfkkI.s 			page 159


 6936 1bcd 02       		.uleb128 0x2
 6937 1bce 91       		.byte	0x91
 6938 1bcf 6C       		.sleb128 -20
 6939 1bd0 2E       		.uleb128 0x2e
 6940 1bd1 65787400 		.ascii	"ext\000"
 6941 1bd5 05       		.byte	0x5
 6942 1bd6 CA01     		.2byte	0x1ca
 6943 1bd8 0A190000 		.4byte	0x190a
 6944 1bdc 02       		.uleb128 0x2
 6945 1bdd 91       		.byte	0x91
 6946 1bde 74       		.sleb128 -12
 6947 1bdf 00       		.byte	0
 6948 1be0 2D       		.uleb128 0x2d
 6949 1be1 F0110000 		.4byte	.LASF341
 6950 1be5 05       		.byte	0x5
 6951 1be6 D401     		.2byte	0x1d4
 6952 1be8 AB020000 		.4byte	0x2ab
 6953 1bec 00000000 		.4byte	.LFB77
 6954 1bf0 30000000 		.4byte	.LFE77-.LFB77
 6955 1bf4 01       		.uleb128 0x1
 6956 1bf5 9C       		.byte	0x9c
 6957 1bf6 191C0000 		.4byte	0x1c19
 6958 1bfa 31       		.uleb128 0x31
 6959 1bfb 62746E00 		.ascii	"btn\000"
 6960 1bff 05       		.byte	0x5
 6961 1c00 D401     		.2byte	0x1d4
 6962 1c02 46170000 		.4byte	0x1746
 6963 1c06 02       		.uleb128 0x2
 6964 1c07 91       		.byte	0x91
 6965 1c08 6C       		.sleb128 -20
 6966 1c09 2F       		.uleb128 0x2f
 6967 1c0a 0A130000 		.4byte	.LASF290
 6968 1c0e 05       		.byte	0x5
 6969 1c0f D801     		.2byte	0x1d8
 6970 1c11 070D0000 		.4byte	0xd07
 6971 1c15 02       		.uleb128 0x2
 6972 1c16 91       		.byte	0x91
 6973 1c17 74       		.sleb128 -12
 6974 1c18 00       		.byte	0
 6975 1c19 2D       		.uleb128 0x2d
 6976 1c1a 66010000 		.4byte	.LASF342
 6977 1c1e 05       		.byte	0x5
 6978 1c1f E201     		.2byte	0x1e2
 6979 1c21 070D0000 		.4byte	0xd07
 6980 1c25 00000000 		.4byte	.LFB78
 6981 1c29 4C000000 		.4byte	.LFE78-.LFB78
 6982 1c2d 01       		.uleb128 0x1
 6983 1c2e 9C       		.byte	0x9c
 6984 1c2f 521C0000 		.4byte	0x1c52
 6985 1c33 31       		.uleb128 0x31
 6986 1c34 62746E00 		.ascii	"btn\000"
 6987 1c38 05       		.byte	0x5
 6988 1c39 E201     		.2byte	0x1e2
 6989 1c3b 46170000 		.4byte	0x1746
 6990 1c3f 02       		.uleb128 0x2
 6991 1c40 91       		.byte	0x91
 6992 1c41 6C       		.sleb128 -20
ARM GAS  C:\Users\tmj32\AppData\Local\Temp\ccUUfkkI.s 			page 160


 6993 1c42 2F       		.uleb128 0x2f
 6994 1c43 0A130000 		.4byte	.LASF290
 6995 1c47 05       		.byte	0x5
 6996 1c48 E601     		.2byte	0x1e6
 6997 1c4a 070D0000 		.4byte	0xd07
 6998 1c4e 02       		.uleb128 0x2
 6999 1c4f 91       		.byte	0x91
 7000 1c50 74       		.sleb128 -12
 7001 1c51 00       		.byte	0
 7002 1c52 2D       		.uleb128 0x2d
 7003 1c53 7E020000 		.4byte	.LASF343
 7004 1c57 05       		.byte	0x5
 7005 1c58 F601     		.2byte	0x1f6
 7006 1c5a 070D0000 		.4byte	0xd07
 7007 1c5e 00000000 		.4byte	.LFB79
 7008 1c62 4C000000 		.4byte	.LFE79-.LFB79
 7009 1c66 01       		.uleb128 0x1
 7010 1c67 9C       		.byte	0x9c
 7011 1c68 8B1C0000 		.4byte	0x1c8b
 7012 1c6c 31       		.uleb128 0x31
 7013 1c6d 62746E00 		.ascii	"btn\000"
 7014 1c71 05       		.byte	0x5
 7015 1c72 F601     		.2byte	0x1f6
 7016 1c74 46170000 		.4byte	0x1746
 7017 1c78 02       		.uleb128 0x2
 7018 1c79 91       		.byte	0x91
 7019 1c7a 6C       		.sleb128 -20
 7020 1c7b 2E       		.uleb128 0x2e
 7021 1c7c 696D6700 		.ascii	"img\000"
 7022 1c80 05       		.byte	0x5
 7023 1c81 FB01     		.2byte	0x1fb
 7024 1c83 070D0000 		.4byte	0xd07
 7025 1c87 02       		.uleb128 0x2
 7026 1c88 91       		.byte	0x91
 7027 1c89 74       		.sleb128 -12
 7028 1c8a 00       		.byte	0
 7029 1c8b 2D       		.uleb128 0x2d
 7030 1c8c 7F120000 		.4byte	.LASF344
 7031 1c90 05       		.byte	0x5
 7032 1c91 0F02     		.2byte	0x20f
 7033 1c93 070D0000 		.4byte	0xd07
 7034 1c97 00000000 		.4byte	.LFB80
 7035 1c9b 56000000 		.4byte	.LFE80-.LFB80
 7036 1c9f 01       		.uleb128 0x1
 7037 1ca0 9C       		.byte	0x9c
 7038 1ca1 E21C0000 		.4byte	0x1ce2
 7039 1ca5 26       		.uleb128 0x26
 7040 1ca6 6A0B0000 		.4byte	.LASF300
 7041 1caa 05       		.byte	0x5
 7042 1cab 0F02     		.2byte	0x20f
 7043 1cad 46170000 		.4byte	0x1746
 7044 1cb1 02       		.uleb128 0x2
 7045 1cb2 91       		.byte	0x91
 7046 1cb3 6C       		.sleb128 -20
 7047 1cb4 26       		.uleb128 0x26
 7048 1cb5 D8120000 		.4byte	.LASF345
 7049 1cb9 05       		.byte	0x5
ARM GAS  C:\Users\tmj32\AppData\Local\Temp\ccUUfkkI.s 			page 161


 7050 1cba 0F02     		.2byte	0x20f
 7051 1cbc 070D0000 		.4byte	0xd07
 7052 1cc0 02       		.uleb128 0x2
 7053 1cc1 91       		.byte	0x91
 7054 1cc2 68       		.sleb128 -24
 7055 1cc3 2E       		.uleb128 0x2e
 7056 1cc4 62746E00 		.ascii	"btn\000"
 7057 1cc8 05       		.byte	0x5
 7058 1cc9 1602     		.2byte	0x216
 7059 1ccb 070D0000 		.4byte	0xd07
 7060 1ccf 02       		.uleb128 0x2
 7061 1cd0 91       		.byte	0x91
 7062 1cd1 74       		.sleb128 -12
 7063 1cd2 2F       		.uleb128 0x2f
 7064 1cd3 EF030000 		.4byte	.LASF220
 7065 1cd7 05       		.byte	0x5
 7066 1cd8 1702     		.2byte	0x217
 7067 1cda 070D0000 		.4byte	0xd07
 7068 1cde 02       		.uleb128 0x2
 7069 1cdf 91       		.byte	0x91
 7070 1ce0 70       		.sleb128 -16
 7071 1ce1 00       		.byte	0
 7072 1ce2 2D       		.uleb128 0x2d
 7073 1ce3 E20B0000 		.4byte	.LASF346
 7074 1ce7 05       		.byte	0x5
 7075 1ce8 2A02     		.2byte	0x22a
 7076 1cea 070D0000 		.4byte	0xd07
 7077 1cee 00000000 		.4byte	.LFB81
 7078 1cf2 56000000 		.4byte	.LFE81-.LFB81
 7079 1cf6 01       		.uleb128 0x1
 7080 1cf7 9C       		.byte	0x9c
 7081 1cf8 391D0000 		.4byte	0x1d39
 7082 1cfc 26       		.uleb128 0x26
 7083 1cfd 6A0B0000 		.4byte	.LASF300
 7084 1d01 05       		.byte	0x5
 7085 1d02 2A02     		.2byte	0x22a
 7086 1d04 46170000 		.4byte	0x1746
 7087 1d08 02       		.uleb128 0x2
 7088 1d09 91       		.byte	0x91
 7089 1d0a 6C       		.sleb128 -20
 7090 1d0b 26       		.uleb128 0x26
 7091 1d0c D8120000 		.4byte	.LASF345
 7092 1d10 05       		.byte	0x5
 7093 1d11 2A02     		.2byte	0x22a
 7094 1d13 070D0000 		.4byte	0xd07
 7095 1d17 02       		.uleb128 0x2
 7096 1d18 91       		.byte	0x91
 7097 1d19 68       		.sleb128 -24
 7098 1d1a 2E       		.uleb128 0x2e
 7099 1d1b 62746E00 		.ascii	"btn\000"
 7100 1d1f 05       		.byte	0x5
 7101 1d20 3102     		.2byte	0x231
 7102 1d22 070D0000 		.4byte	0xd07
 7103 1d26 02       		.uleb128 0x2
 7104 1d27 91       		.byte	0x91
 7105 1d28 74       		.sleb128 -12
 7106 1d29 2F       		.uleb128 0x2f
ARM GAS  C:\Users\tmj32\AppData\Local\Temp\ccUUfkkI.s 			page 162


 7107 1d2a EF030000 		.4byte	.LASF220
 7108 1d2e 05       		.byte	0x5
 7109 1d2f 3202     		.2byte	0x232
 7110 1d31 070D0000 		.4byte	0xd07
 7111 1d35 02       		.uleb128 0x2
 7112 1d36 91       		.byte	0x91
 7113 1d37 70       		.sleb128 -16
 7114 1d38 00       		.byte	0
 7115 1d39 2D       		.uleb128 0x2d
 7116 1d3a C20D0000 		.4byte	.LASF347
 7117 1d3e 05       		.byte	0x5
 7118 1d3f 4502     		.2byte	0x245
 7119 1d41 D9000000 		.4byte	0xd9
 7120 1d45 00000000 		.4byte	.LFB82
 7121 1d49 5E000000 		.4byte	.LFE82-.LFB82
 7122 1d4d 01       		.uleb128 0x1
 7123 1d4e 9C       		.byte	0x9c
 7124 1d4f 8E1D0000 		.4byte	0x1d8e
 7125 1d53 26       		.uleb128 0x26
 7126 1d54 6A0B0000 		.4byte	.LASF300
 7127 1d58 05       		.byte	0x5
 7128 1d59 4502     		.2byte	0x245
 7129 1d5b 46170000 		.4byte	0x1746
 7130 1d5f 02       		.uleb128 0x2
 7131 1d60 91       		.byte	0x91
 7132 1d61 6C       		.sleb128 -20
 7133 1d62 31       		.uleb128 0x31
 7134 1d63 62746E00 		.ascii	"btn\000"
 7135 1d67 05       		.byte	0x5
 7136 1d68 4502     		.2byte	0x245
 7137 1d6a 46170000 		.4byte	0x1746
 7138 1d6e 02       		.uleb128 0x2
 7139 1d6f 91       		.byte	0x91
 7140 1d70 68       		.sleb128 -24
 7141 1d71 2F       		.uleb128 0x2f
 7142 1d72 C9070000 		.4byte	.LASF333
 7143 1d76 05       		.byte	0x5
 7144 1d77 4A02     		.2byte	0x24a
 7145 1d79 9F000000 		.4byte	0x9f
 7146 1d7d 02       		.uleb128 0x2
 7147 1d7e 91       		.byte	0x91
 7148 1d7f 74       		.sleb128 -12
 7149 1d80 2E       		.uleb128 0x2e
 7150 1d81 6500     		.ascii	"e\000"
 7151 1d83 05       		.byte	0x5
 7152 1d84 4F02     		.2byte	0x24f
 7153 1d86 070D0000 		.4byte	0xd07
 7154 1d8a 02       		.uleb128 0x2
 7155 1d8b 91       		.byte	0x91
 7156 1d8c 70       		.sleb128 -16
 7157 1d8d 00       		.byte	0
 7158 1d8e 2D       		.uleb128 0x2d
 7159 1d8f E2100000 		.4byte	.LASF348
 7160 1d93 05       		.byte	0x5
 7161 1d94 5F02     		.2byte	0x25f
 7162 1d96 CE000000 		.4byte	0xce
 7163 1d9a 00000000 		.4byte	.LFB83
ARM GAS  C:\Users\tmj32\AppData\Local\Temp\ccUUfkkI.s 			page 163


 7164 1d9e 1E000000 		.4byte	.LFE83-.LFB83
 7165 1da2 01       		.uleb128 0x1
 7166 1da3 9C       		.byte	0x9c
 7167 1da4 C71D0000 		.4byte	0x1dc7
 7168 1da8 26       		.uleb128 0x26
 7169 1da9 6A0B0000 		.4byte	.LASF300
 7170 1dad 05       		.byte	0x5
 7171 1dae 5F02     		.2byte	0x25f
 7172 1db0 46170000 		.4byte	0x1746
 7173 1db4 02       		.uleb128 0x2
 7174 1db5 91       		.byte	0x91
 7175 1db6 6C       		.sleb128 -20
 7176 1db7 2E       		.uleb128 0x2e
 7177 1db8 65787400 		.ascii	"ext\000"
 7178 1dbc 05       		.byte	0x5
 7179 1dbd 6302     		.2byte	0x263
 7180 1dbf 0A190000 		.4byte	0x190a
 7181 1dc3 02       		.uleb128 0x2
 7182 1dc4 91       		.byte	0x91
 7183 1dc5 74       		.sleb128 -12
 7184 1dc6 00       		.byte	0
 7185 1dc7 2D       		.uleb128 0x2d
 7186 1dc8 AF0D0000 		.4byte	.LASF349
 7187 1dcc 05       		.byte	0x5
 7188 1dcd 7B02     		.2byte	0x27b
 7189 1dcf 040B0000 		.4byte	0xb04
 7190 1dd3 00000000 		.4byte	.LFB84
 7191 1dd7 18000000 		.4byte	.LFE84-.LFB84
 7192 1ddb 01       		.uleb128 0x1
 7193 1ddc 9C       		.byte	0x9c
 7194 1ddd F11D0000 		.4byte	0x1df1
 7195 1de1 26       		.uleb128 0x26
 7196 1de2 6A0B0000 		.4byte	.LASF300
 7197 1de6 05       		.byte	0x5
 7198 1de7 7B02     		.2byte	0x27b
 7199 1de9 070D0000 		.4byte	0xd07
 7200 1ded 02       		.uleb128 0x2
 7201 1dee 91       		.byte	0x91
 7202 1def 74       		.sleb128 -12
 7203 1df0 00       		.byte	0
 7204 1df1 2D       		.uleb128 0x2d
 7205 1df2 110F0000 		.4byte	.LASF350
 7206 1df6 05       		.byte	0x5
 7207 1df7 8802     		.2byte	0x288
 7208 1df9 350A0000 		.4byte	0xa35
 7209 1dfd 00000000 		.4byte	.LFB85
 7210 1e01 B0000000 		.4byte	.LFE85-.LFB85
 7211 1e05 01       		.uleb128 0x1
 7212 1e06 9C       		.byte	0x9c
 7213 1e07 481E0000 		.4byte	0x1e48
 7214 1e0b 26       		.uleb128 0x26
 7215 1e0c 6A0B0000 		.4byte	.LASF300
 7216 1e10 05       		.byte	0x5
 7217 1e11 8802     		.2byte	0x288
 7218 1e13 46170000 		.4byte	0x1746
 7219 1e17 02       		.uleb128 0x2
 7220 1e18 91       		.byte	0x91
ARM GAS  C:\Users\tmj32\AppData\Local\Temp\ccUUfkkI.s 			page 164


 7221 1e19 6C       		.sleb128 -20
 7222 1e1a 26       		.uleb128 0x26
 7223 1e1b 01020000 		.4byte	.LASF73
 7224 1e1f 05       		.byte	0x5
 7225 1e20 8802     		.2byte	0x288
 7226 1e22 820E0000 		.4byte	0xe82
 7227 1e26 02       		.uleb128 0x2
 7228 1e27 91       		.byte	0x91
 7229 1e28 6B       		.sleb128 -21
 7230 1e29 2F       		.uleb128 0x2f
 7231 1e2a 3C0C0000 		.4byte	.LASF208
 7232 1e2e 05       		.byte	0x5
 7233 1e2f 8C02     		.2byte	0x28c
 7234 1e31 350A0000 		.4byte	0xa35
 7235 1e35 02       		.uleb128 0x2
 7236 1e36 91       		.byte	0x91
 7237 1e37 74       		.sleb128 -12
 7238 1e38 2E       		.uleb128 0x2e
 7239 1e39 65787400 		.ascii	"ext\000"
 7240 1e3d 05       		.byte	0x5
 7241 1e3e 8D02     		.2byte	0x28d
 7242 1e40 0A190000 		.4byte	0x190a
 7243 1e44 02       		.uleb128 0x2
 7244 1e45 91       		.byte	0x91
 7245 1e46 70       		.sleb128 -16
 7246 1e47 00       		.byte	0
 7247 1e48 30       		.uleb128 0x30
 7248 1e49 DD080000 		.4byte	.LASF351
 7249 1e4d 05       		.byte	0x5
 7250 1e4e A702     		.2byte	0x2a7
 7251 1e50 00000000 		.4byte	.LFB86
 7252 1e54 F4000000 		.4byte	.LFE86-.LFB86
 7253 1e58 01       		.uleb128 0x1
 7254 1e59 9C       		.byte	0x9c
 7255 1e5a C71E0000 		.4byte	0x1ec7
 7256 1e5e 26       		.uleb128 0x26
 7257 1e5f 6A0B0000 		.4byte	.LASF300
 7258 1e63 05       		.byte	0x5
 7259 1e64 A702     		.2byte	0x2a7
 7260 1e66 46170000 		.4byte	0x1746
 7261 1e6a 03       		.uleb128 0x3
 7262 1e6b 91       		.byte	0x91
 7263 1e6c B47F     		.sleb128 -76
 7264 1e6e 2F       		.uleb128 0x2f
 7265 1e6f EF030000 		.4byte	.LASF220
 7266 1e73 05       		.byte	0x5
 7267 1e74 AD02     		.2byte	0x2ad
 7268 1e76 070D0000 		.4byte	0xd07
 7269 1e7a 02       		.uleb128 0x2
 7270 1e7b 91       		.byte	0x91
 7271 1e7c 64       		.sleb128 -28
 7272 1e7d 2E       		.uleb128 0x2e
 7273 1e7e 6500     		.ascii	"e\000"
 7274 1e80 05       		.byte	0x5
 7275 1e81 AE02     		.2byte	0x2ae
 7276 1e83 070D0000 		.4byte	0xd07
 7277 1e87 02       		.uleb128 0x2
ARM GAS  C:\Users\tmj32\AppData\Local\Temp\ccUUfkkI.s 			page 165


 7278 1e88 91       		.byte	0x91
 7279 1e89 6C       		.sleb128 -20
 7280 1e8a 2F       		.uleb128 0x2f
 7281 1e8b 1D080000 		.4byte	.LASF352
 7282 1e8f 05       		.byte	0x5
 7283 1e90 AF02     		.2byte	0x2af
 7284 1e92 070D0000 		.4byte	0xd07
 7285 1e96 02       		.uleb128 0x2
 7286 1e97 91       		.byte	0x91
 7287 1e98 68       		.sleb128 -24
 7288 1e99 32       		.uleb128 0x32
 7289 1e9a 00000000 		.4byte	.Ldebug_ranges0+0
 7290 1e9e 2F       		.uleb128 0x2f
 7291 1e9f 950D0000 		.4byte	.LASF353
 7292 1ea3 05       		.byte	0x5
 7293 1ea4 B502     		.2byte	0x2b5
 7294 1ea6 EF000000 		.4byte	0xef
 7295 1eaa 02       		.uleb128 0x2
 7296 1eab 91       		.byte	0x91
 7297 1eac 62       		.sleb128 -30
 7298 1ead 2B       		.uleb128 0x2b
 7299 1eae 78000000 		.4byte	.LBB8
 7300 1eb2 52000000 		.4byte	.LBE8-.LBB8
 7301 1eb6 2E       		.uleb128 0x2e
 7302 1eb7 6100     		.ascii	"a\000"
 7303 1eb9 05       		.byte	0x5
 7304 1eba BA02     		.2byte	0x2ba
 7305 1ebc 54040000 		.4byte	0x454
 7306 1ec0 03       		.uleb128 0x3
 7307 1ec1 91       		.byte	0x91
 7308 1ec2 BC7F     		.sleb128 -68
 7309 1ec4 00       		.byte	0
 7310 1ec5 00       		.byte	0
 7311 1ec6 00       		.byte	0
 7312 1ec7 30       		.uleb128 0x30
 7313 1ec8 E8000000 		.4byte	.LASF354
 7314 1ecc 05       		.byte	0x5
 7315 1ecd D602     		.2byte	0x2d6
 7316 1ecf 00000000 		.4byte	.LFB87
 7317 1ed3 CC000000 		.4byte	.LFE87-.LFB87
 7318 1ed7 01       		.uleb128 0x1
 7319 1ed8 9C       		.byte	0x9c
 7320 1ed9 391F0000 		.4byte	0x1f39
 7321 1edd 26       		.uleb128 0x26
 7322 1ede 6A0B0000 		.4byte	.LASF300
 7323 1ee2 05       		.byte	0x5
 7324 1ee3 D602     		.2byte	0x2d6
 7325 1ee5 46170000 		.4byte	0x1746
 7326 1ee9 02       		.uleb128 0x2
 7327 1eea 91       		.byte	0x91
 7328 1eeb 44       		.sleb128 -60
 7329 1eec 2F       		.uleb128 0x2f
 7330 1eed EF030000 		.4byte	.LASF220
 7331 1ef1 05       		.byte	0x5
 7332 1ef2 DC02     		.2byte	0x2dc
 7333 1ef4 070D0000 		.4byte	0xd07
 7334 1ef8 02       		.uleb128 0x2
ARM GAS  C:\Users\tmj32\AppData\Local\Temp\ccUUfkkI.s 			page 166


 7335 1ef9 91       		.byte	0x91
 7336 1efa 70       		.sleb128 -16
 7337 1efb 2E       		.uleb128 0x2e
 7338 1efc 6500     		.ascii	"e\000"
 7339 1efe 05       		.byte	0x5
 7340 1eff DD02     		.2byte	0x2dd
 7341 1f01 070D0000 		.4byte	0xd07
 7342 1f05 02       		.uleb128 0x2
 7343 1f06 91       		.byte	0x91
 7344 1f07 74       		.sleb128 -12
 7345 1f08 2B       		.uleb128 0x2b
 7346 1f09 2C000000 		.4byte	.LBB10
 7347 1f0d 7E000000 		.4byte	.LBE10-.LBB10
 7348 1f11 2F       		.uleb128 0x2f
 7349 1f12 950D0000 		.4byte	.LASF353
 7350 1f16 05       		.byte	0x5
 7351 1f17 E102     		.2byte	0x2e1
 7352 1f19 EF000000 		.4byte	0xef
 7353 1f1d 02       		.uleb128 0x2
 7354 1f1e 91       		.byte	0x91
 7355 1f1f 6E       		.sleb128 -18
 7356 1f20 2B       		.uleb128 0x2b
 7357 1f21 56000000 		.4byte	.LBB11
 7358 1f25 52000000 		.4byte	.LBE11-.LBB11
 7359 1f29 2E       		.uleb128 0x2e
 7360 1f2a 6100     		.ascii	"a\000"
 7361 1f2c 05       		.byte	0x5
 7362 1f2d E602     		.2byte	0x2e6
 7363 1f2f 54040000 		.4byte	0x454
 7364 1f33 02       		.uleb128 0x2
 7365 1f34 91       		.byte	0x91
 7366 1f35 48       		.sleb128 -56
 7367 1f36 00       		.byte	0
 7368 1f37 00       		.byte	0
 7369 1f38 00       		.byte	0
 7370 1f39 30       		.uleb128 0x30
 7371 1f3a 8F070000 		.4byte	.LASF355
 7372 1f3e 05       		.byte	0x5
 7373 1f3f 0103     		.2byte	0x301
 7374 1f41 00000000 		.4byte	.LFB88
 7375 1f45 42000000 		.4byte	.LFE88-.LFB88
 7376 1f49 01       		.uleb128 0x1
 7377 1f4a 9C       		.byte	0x9c
 7378 1f4b 7D1F0000 		.4byte	0x1f7d
 7379 1f4f 31       		.uleb128 0x31
 7380 1f50 62746E00 		.ascii	"btn\000"
 7381 1f54 05       		.byte	0x5
 7382 1f55 0103     		.2byte	0x301
 7383 1f57 46170000 		.4byte	0x1746
 7384 1f5b 02       		.uleb128 0x2
 7385 1f5c 91       		.byte	0x91
 7386 1f5d 6C       		.sleb128 -20
 7387 1f5e 26       		.uleb128 0x26
 7388 1f5f F50D0000 		.4byte	.LASF356
 7389 1f63 05       		.byte	0x5
 7390 1f64 0103     		.2byte	0x301
 7391 1f66 0F030000 		.4byte	0x30f
ARM GAS  C:\Users\tmj32\AppData\Local\Temp\ccUUfkkI.s 			page 167


 7392 1f6a 02       		.uleb128 0x2
 7393 1f6b 91       		.byte	0x91
 7394 1f6c 6B       		.sleb128 -21
 7395 1f6d 2F       		.uleb128 0x2f
 7396 1f6e 6A0B0000 		.4byte	.LASF300
 7397 1f72 05       		.byte	0x5
 7398 1f73 0903     		.2byte	0x309
 7399 1f75 070D0000 		.4byte	0xd07
 7400 1f79 02       		.uleb128 0x2
 7401 1f7a 91       		.byte	0x91
 7402 1f7b 74       		.sleb128 -12
 7403 1f7c 00       		.byte	0
 7404 1f7d 25       		.uleb128 0x25
 7405 1f7e 03070000 		.4byte	.LASF357
 7406 1f82 05       		.byte	0x5
 7407 1f83 1903     		.2byte	0x319
 7408 1f85 B4060000 		.4byte	0x6b4
 7409 1f89 00000000 		.4byte	.LFB89
 7410 1f8d 88000000 		.4byte	.LFE89-.LFB89
 7411 1f91 01       		.uleb128 0x1
 7412 1f92 9C       		.byte	0x9c
 7413 1f93 ED1F0000 		.4byte	0x1fed
 7414 1f97 26       		.uleb128 0x26
 7415 1f98 6A0B0000 		.4byte	.LASF300
 7416 1f9c 05       		.byte	0x5
 7417 1f9d 1903     		.2byte	0x319
 7418 1f9f 070D0000 		.4byte	0xd07
 7419 1fa3 02       		.uleb128 0x2
 7420 1fa4 91       		.byte	0x91
 7421 1fa5 6C       		.sleb128 -20
 7422 1fa6 26       		.uleb128 0x26
 7423 1fa7 A2010000 		.4byte	.LASF358
 7424 1fab 05       		.byte	0x5
 7425 1fac 1903     		.2byte	0x319
 7426 1fae 7D090000 		.4byte	0x97d
 7427 1fb2 02       		.uleb128 0x2
 7428 1fb3 91       		.byte	0x91
 7429 1fb4 6B       		.sleb128 -21
 7430 1fb5 26       		.uleb128 0x26
 7431 1fb6 66080000 		.4byte	.LASF359
 7432 1fba 05       		.byte	0x5
 7433 1fbb 1903     		.2byte	0x319
 7434 1fbd FA000000 		.4byte	0xfa
 7435 1fc1 02       		.uleb128 0x2
 7436 1fc2 91       		.byte	0x91
 7437 1fc3 64       		.sleb128 -28
 7438 1fc4 2E       		.uleb128 0x2e
 7439 1fc5 72657300 		.ascii	"res\000"
 7440 1fc9 05       		.byte	0x5
 7441 1fca 1B03     		.2byte	0x31b
 7442 1fcc B4060000 		.4byte	0x6b4
 7443 1fd0 02       		.uleb128 0x2
 7444 1fd1 91       		.byte	0x91
 7445 1fd2 77       		.sleb128 -9
 7446 1fd3 2B       		.uleb128 0x2b
 7447 1fd4 6A000000 		.4byte	.LBB12
 7448 1fd8 0A000000 		.4byte	.LBE12-.LBB12
ARM GAS  C:\Users\tmj32\AppData\Local\Temp\ccUUfkkI.s 			page 168


 7449 1fdc 2F       		.uleb128 0x2f
 7450 1fdd 8F080000 		.4byte	.LASF360
 7451 1fe1 05       		.byte	0x5
 7452 1fe2 8003     		.2byte	0x380
 7453 1fe4 ED1F0000 		.4byte	0x1fed
 7454 1fe8 02       		.uleb128 0x2
 7455 1fe9 91       		.byte	0x91
 7456 1fea 70       		.sleb128 -16
 7457 1feb 00       		.byte	0
 7458 1fec 00       		.byte	0
 7459 1fed 0D       		.uleb128 0xd
 7460 1fee 04       		.byte	0x4
 7461 1fef D5010000 		.4byte	0x1d5
 7462 1ff3 25       		.uleb128 0x25
 7463 1ff4 A6110000 		.4byte	.LASF361
 7464 1ff8 05       		.byte	0x5
 7465 1ff9 AD03     		.2byte	0x3ad
 7466 1ffb B4060000 		.4byte	0x6b4
 7467 1fff 00000000 		.4byte	.LFB90
 7468 2003 DC000000 		.4byte	.LFE90-.LFB90
 7469 2007 01       		.uleb128 0x1
 7470 2008 9C       		.byte	0x9c
 7471 2009 9E200000 		.4byte	0x209e
 7472 200d 31       		.uleb128 0x31
 7473 200e 62746E00 		.ascii	"btn\000"
 7474 2012 05       		.byte	0x5
 7475 2013 AD03     		.2byte	0x3ad
 7476 2015 070D0000 		.4byte	0xd07
 7477 2019 02       		.uleb128 0x2
 7478 201a 91       		.byte	0x91
 7479 201b 5C       		.sleb128 -36
 7480 201c 26       		.uleb128 0x26
 7481 201d A2010000 		.4byte	.LASF358
 7482 2021 05       		.byte	0x5
 7483 2022 AD03     		.2byte	0x3ad
 7484 2024 7D090000 		.4byte	0x97d
 7485 2028 02       		.uleb128 0x2
 7486 2029 91       		.byte	0x91
 7487 202a 5B       		.sleb128 -37
 7488 202b 26       		.uleb128 0x26
 7489 202c 66080000 		.4byte	.LASF359
 7490 2030 05       		.byte	0x5
 7491 2031 AD03     		.2byte	0x3ad
 7492 2033 FA000000 		.4byte	0xfa
 7493 2037 02       		.uleb128 0x2
 7494 2038 91       		.byte	0x91
 7495 2039 54       		.sleb128 -44
 7496 203a 2E       		.uleb128 0x2e
 7497 203b 72657300 		.ascii	"res\000"
 7498 203f 05       		.byte	0x5
 7499 2040 AF03     		.2byte	0x3af
 7500 2042 B4060000 		.4byte	0x6b4
 7501 2046 02       		.uleb128 0x2
 7502 2047 91       		.byte	0x91
 7503 2048 77       		.sleb128 -9
 7504 2049 2A       		.uleb128 0x2a
 7505 204a 46000000 		.4byte	.LBB13
ARM GAS  C:\Users\tmj32\AppData\Local\Temp\ccUUfkkI.s 			page 169


 7506 204e 56000000 		.4byte	.LBE13-.LBB13
 7507 2052 75200000 		.4byte	0x2075
 7508 2056 2F       		.uleb128 0x2f
 7509 2057 6A0B0000 		.4byte	.LASF300
 7510 205b 05       		.byte	0x5
 7511 205c B703     		.2byte	0x3b7
 7512 205e 070D0000 		.4byte	0xd07
 7513 2062 02       		.uleb128 0x2
 7514 2063 91       		.byte	0x91
 7515 2064 70       		.sleb128 -16
 7516 2065 2E       		.uleb128 0x2e
 7517 2066 65787400 		.ascii	"ext\000"
 7518 206a 05       		.byte	0x5
 7519 206b B803     		.2byte	0x3b8
 7520 206d 0A190000 		.4byte	0x190a
 7521 2071 02       		.uleb128 0x2
 7522 2072 91       		.byte	0x91
 7523 2073 6C       		.sleb128 -20
 7524 2074 00       		.byte	0
 7525 2075 2B       		.uleb128 0x2b
 7526 2076 A2000000 		.4byte	.LBB14
 7527 207a 26000000 		.4byte	.LBE14-.LBB14
 7528 207e 2F       		.uleb128 0x2f
 7529 207f 6A0B0000 		.4byte	.LASF300
 7530 2083 05       		.byte	0x5
 7531 2084 D603     		.2byte	0x3d6
 7532 2086 070D0000 		.4byte	0xd07
 7533 208a 02       		.uleb128 0x2
 7534 208b 91       		.byte	0x91
 7535 208c 68       		.sleb128 -24
 7536 208d 2E       		.uleb128 0x2e
 7537 208e 65787400 		.ascii	"ext\000"
 7538 2092 05       		.byte	0x5
 7539 2093 D703     		.2byte	0x3d7
 7540 2095 0A190000 		.4byte	0x190a
 7541 2099 02       		.uleb128 0x2
 7542 209a 91       		.byte	0x91
 7543 209b 64       		.sleb128 -28
 7544 209c 00       		.byte	0
 7545 209d 00       		.byte	0
 7546 209e 33       		.uleb128 0x33
 7547 209f 5A050000 		.4byte	.LASF362
 7548 20a3 05       		.byte	0x5
 7549 20a4 E903     		.2byte	0x3e9
 7550 20a6 00000000 		.4byte	.LFB91
 7551 20aa 54000000 		.4byte	.LFE91-.LFB91
 7552 20ae 01       		.uleb128 0x1
 7553 20af 9C       		.byte	0x9c
 7554 20b0 E0200000 		.4byte	0x20e0
 7555 20b4 31       		.uleb128 0x31
 7556 20b5 62746E00 		.ascii	"btn\000"
 7557 20b9 05       		.byte	0x5
 7558 20ba E903     		.2byte	0x3e9
 7559 20bc 070D0000 		.4byte	0xd07
 7560 20c0 02       		.uleb128 0x2
 7561 20c1 91       		.byte	0x91
 7562 20c2 6C       		.sleb128 -20
ARM GAS  C:\Users\tmj32\AppData\Local\Temp\ccUUfkkI.s 			page 170


 7563 20c3 2F       		.uleb128 0x2f
 7564 20c4 6A0B0000 		.4byte	.LASF300
 7565 20c8 05       		.byte	0x5
 7566 20c9 EB03     		.2byte	0x3eb
 7567 20cb 070D0000 		.4byte	0xd07
 7568 20cf 02       		.uleb128 0x2
 7569 20d0 91       		.byte	0x91
 7570 20d1 70       		.sleb128 -16
 7571 20d2 2E       		.uleb128 0x2e
 7572 20d3 6500     		.ascii	"e\000"
 7573 20d5 05       		.byte	0x5
 7574 20d6 ED03     		.2byte	0x3ed
 7575 20d8 070D0000 		.4byte	0xd07
 7576 20dc 02       		.uleb128 0x2
 7577 20dd 91       		.byte	0x91
 7578 20de 74       		.sleb128 -12
 7579 20df 00       		.byte	0
 7580 20e0 25       		.uleb128 0x25
 7581 20e1 A6020000 		.4byte	.LASF363
 7582 20e5 05       		.byte	0x5
 7583 20e6 FC03     		.2byte	0x3fc
 7584 20e8 D5010000 		.4byte	0x1d5
 7585 20ec 00000000 		.4byte	.LFB92
 7586 20f0 78000000 		.4byte	.LFE92-.LFB92
 7587 20f4 01       		.uleb128 0x1
 7588 20f5 9C       		.byte	0x9c
 7589 20f6 28210000 		.4byte	0x2128
 7590 20fa 26       		.uleb128 0x26
 7591 20fb D9100000 		.4byte	.LASF364
 7592 20ff 05       		.byte	0x5
 7593 2100 FC03     		.2byte	0x3fc
 7594 2102 070D0000 		.4byte	0xd07
 7595 2106 02       		.uleb128 0x2
 7596 2107 91       		.byte	0x91
 7597 2108 4C       		.sleb128 -52
 7598 2109 2F       		.uleb128 0x2f
 7599 210a 01020000 		.4byte	.LASF73
 7600 210e 05       		.byte	0x5
 7601 210f FE03     		.2byte	0x3fe
 7602 2111 A90A0000 		.4byte	0xaa9
 7603 2115 02       		.uleb128 0x2
 7604 2116 91       		.byte	0x91
 7605 2117 54       		.sleb128 -44
 7606 2118 2E       		.uleb128 0x2e
 7607 2119 636E7400 		.ascii	"cnt\000"
 7608 211d 05       		.byte	0x5
 7609 211e 0104     		.2byte	0x401
 7610 2120 B8000000 		.4byte	0xb8
 7611 2124 02       		.uleb128 0x2
 7612 2125 91       		.byte	0x91
 7613 2126 77       		.sleb128 -9
 7614 2127 00       		.byte	0
 7615 2128 25       		.uleb128 0x25
 7616 2129 650F0000 		.4byte	.LASF365
 7617 212d 05       		.byte	0x5
 7618 212e 0D04     		.2byte	0x40d
 7619 2130 D5010000 		.4byte	0x1d5
ARM GAS  C:\Users\tmj32\AppData\Local\Temp\ccUUfkkI.s 			page 171


 7620 2134 00000000 		.4byte	.LFB93
 7621 2138 78000000 		.4byte	.LFE93-.LFB93
 7622 213c 01       		.uleb128 0x1
 7623 213d 9C       		.byte	0x9c
 7624 213e 70210000 		.4byte	0x2170
 7625 2142 26       		.uleb128 0x26
 7626 2143 55020000 		.4byte	.LASF366
 7627 2147 05       		.byte	0x5
 7628 2148 0D04     		.2byte	0x40d
 7629 214a 070D0000 		.4byte	0xd07
 7630 214e 02       		.uleb128 0x2
 7631 214f 91       		.byte	0x91
 7632 2150 4C       		.sleb128 -52
 7633 2151 2F       		.uleb128 0x2f
 7634 2152 01020000 		.4byte	.LASF73
 7635 2156 05       		.byte	0x5
 7636 2157 0F04     		.2byte	0x40f
 7637 2159 A90A0000 		.4byte	0xaa9
 7638 215d 02       		.uleb128 0x2
 7639 215e 91       		.byte	0x91
 7640 215f 54       		.sleb128 -44
 7641 2160 2E       		.uleb128 0x2e
 7642 2161 636E7400 		.ascii	"cnt\000"
 7643 2165 05       		.byte	0x5
 7644 2166 1204     		.2byte	0x412
 7645 2168 B8000000 		.4byte	0xb8
 7646 216c 02       		.uleb128 0x2
 7647 216d 91       		.byte	0x91
 7648 216e 77       		.sleb128 -9
 7649 216f 00       		.byte	0
 7650 2170 25       		.uleb128 0x25
 7651 2171 51060000 		.4byte	.LASF367
 7652 2175 05       		.byte	0x5
 7653 2176 1E04     		.2byte	0x41e
 7654 2178 D5010000 		.4byte	0x1d5
 7655 217c 00000000 		.4byte	.LFB94
 7656 2180 78000000 		.4byte	.LFE94-.LFB94
 7657 2184 01       		.uleb128 0x1
 7658 2185 9C       		.byte	0x9c
 7659 2186 B8210000 		.4byte	0x21b8
 7660 218a 26       		.uleb128 0x26
 7661 218b CC020000 		.4byte	.LASF368
 7662 218f 05       		.byte	0x5
 7663 2190 1E04     		.2byte	0x41e
 7664 2192 070D0000 		.4byte	0xd07
 7665 2196 02       		.uleb128 0x2
 7666 2197 91       		.byte	0x91
 7667 2198 4C       		.sleb128 -52
 7668 2199 2F       		.uleb128 0x2f
 7669 219a 01020000 		.4byte	.LASF73
 7670 219e 05       		.byte	0x5
 7671 219f 2004     		.2byte	0x420
 7672 21a1 A90A0000 		.4byte	0xaa9
 7673 21a5 02       		.uleb128 0x2
 7674 21a6 91       		.byte	0x91
 7675 21a7 54       		.sleb128 -44
 7676 21a8 2E       		.uleb128 0x2e
ARM GAS  C:\Users\tmj32\AppData\Local\Temp\ccUUfkkI.s 			page 172


 7677 21a9 636E7400 		.ascii	"cnt\000"
 7678 21ad 05       		.byte	0x5
 7679 21ae 2304     		.2byte	0x423
 7680 21b0 B8000000 		.4byte	0xb8
 7681 21b4 02       		.uleb128 0x2
 7682 21b5 91       		.byte	0x91
 7683 21b6 77       		.sleb128 -9
 7684 21b7 00       		.byte	0
 7685 21b8 28       		.uleb128 0x28
 7686 21b9 E1120000 		.4byte	.LASF369
 7687 21bd 05       		.byte	0x5
 7688 21be 30       		.byte	0x30
 7689 21bf 88090000 		.4byte	0x988
 7690 21c3 05       		.uleb128 0x5
 7691 21c4 03       		.byte	0x3
 7692 21c5 00000000 		.4byte	img_signal
 7693 21c9 28       		.uleb128 0x28
 7694 21ca 66020000 		.4byte	.LASF370
 7695 21ce 05       		.byte	0x5
 7696 21cf 32       		.byte	0x32
 7697 21d0 88090000 		.4byte	0x988
 7698 21d4 05       		.uleb128 0x5
 7699 21d5 03       		.byte	0x3
 7700 21d6 04000000 		.4byte	label_signal
 7701 21da 28       		.uleb128 0x28
 7702 21db 2B110000 		.4byte	.LASF371
 7703 21df 05       		.byte	0x5
 7704 21e0 33       		.byte	0x33
 7705 21e1 88090000 		.4byte	0x988
 7706 21e5 05       		.uleb128 0x5
 7707 21e6 03       		.byte	0x3
 7708 21e7 08000000 		.4byte	ancestor_page_signal
 7709 21eb 28       		.uleb128 0x28
 7710 21ec 4D080000 		.4byte	.LASF372
 7711 21f0 05       		.byte	0x5
 7712 21f1 34       		.byte	0x34
 7713 21f2 88090000 		.4byte	0x988
 7714 21f6 05       		.uleb128 0x5
 7715 21f7 03       		.byte	0x3
 7716 21f8 0C000000 		.4byte	ancestor_btn_signal
 7717 21fc 34       		.uleb128 0x34
 7718 21fd 39130000 		.4byte	.LASF373
 7719 2201 0D       		.byte	0xd
 7720 2202 0D01     		.2byte	0x10d
 7721 2204 8A060000 		.4byte	0x68a
 7722 2208 34       		.uleb128 0x34
 7723 2209 C70F0000 		.4byte	.LASF374
 7724 220d 0D       		.byte	0xd
 7725 220e 1101     		.2byte	0x111
 7726 2210 8A060000 		.4byte	0x68a
 7727 2214 34       		.uleb128 0x34
 7728 2215 AC0A0000 		.4byte	.LASF375
 7729 2219 0D       		.byte	0xd
 7730 221a 1301     		.2byte	0x113
 7731 221c 8A060000 		.4byte	0x68a
 7732 2220 34       		.uleb128 0x34
 7733 2221 020E0000 		.4byte	.LASF376
ARM GAS  C:\Users\tmj32\AppData\Local\Temp\ccUUfkkI.s 			page 173


 7734 2225 0D       		.byte	0xd
 7735 2226 1401     		.2byte	0x114
 7736 2228 8A060000 		.4byte	0x68a
 7737 222c 34       		.uleb128 0x34
 7738 222d 77060000 		.4byte	.LASF377
 7739 2231 0D       		.byte	0xd
 7740 2232 1501     		.2byte	0x115
 7741 2234 8A060000 		.4byte	0x68a
 7742 2238 34       		.uleb128 0x34
 7743 2239 670A0000 		.4byte	.LASF378
 7744 223d 0D       		.byte	0xd
 7745 223e 1601     		.2byte	0x116
 7746 2240 8A060000 		.4byte	0x68a
 7747 2244 34       		.uleb128 0x34
 7748 2245 000F0000 		.4byte	.LASF379
 7749 2249 0D       		.byte	0xd
 7750 224a 1701     		.2byte	0x117
 7751 224c 8A060000 		.4byte	0x68a
 7752 2250 00       		.byte	0
 7753              		.section	.debug_abbrev,"",%progbits
 7754              	.Ldebug_abbrev0:
 7755 0000 01       		.uleb128 0x1
 7756 0001 11       		.uleb128 0x11
 7757 0002 01       		.byte	0x1
 7758 0003 25       		.uleb128 0x25
 7759 0004 0E       		.uleb128 0xe
 7760 0005 13       		.uleb128 0x13
 7761 0006 0B       		.uleb128 0xb
 7762 0007 03       		.uleb128 0x3
 7763 0008 0E       		.uleb128 0xe
 7764 0009 1B       		.uleb128 0x1b
 7765 000a 0E       		.uleb128 0xe
 7766 000b 55       		.uleb128 0x55
 7767 000c 17       		.uleb128 0x17
 7768 000d 11       		.uleb128 0x11
 7769 000e 01       		.uleb128 0x1
 7770 000f 10       		.uleb128 0x10
 7771 0010 17       		.uleb128 0x17
 7772 0011 00       		.byte	0
 7773 0012 00       		.byte	0
 7774 0013 02       		.uleb128 0x2
 7775 0014 16       		.uleb128 0x16
 7776 0015 00       		.byte	0
 7777 0016 03       		.uleb128 0x3
 7778 0017 0E       		.uleb128 0xe
 7779 0018 3A       		.uleb128 0x3a
 7780 0019 0B       		.uleb128 0xb
 7781 001a 3B       		.uleb128 0x3b
 7782 001b 0B       		.uleb128 0xb
 7783 001c 49       		.uleb128 0x49
 7784 001d 13       		.uleb128 0x13
 7785 001e 00       		.byte	0
 7786 001f 00       		.byte	0
 7787 0020 03       		.uleb128 0x3
 7788 0021 24       		.uleb128 0x24
 7789 0022 00       		.byte	0
 7790 0023 0B       		.uleb128 0xb
ARM GAS  C:\Users\tmj32\AppData\Local\Temp\ccUUfkkI.s 			page 174


 7791 0024 0B       		.uleb128 0xb
 7792 0025 3E       		.uleb128 0x3e
 7793 0026 0B       		.uleb128 0xb
 7794 0027 03       		.uleb128 0x3
 7795 0028 0E       		.uleb128 0xe
 7796 0029 00       		.byte	0
 7797 002a 00       		.byte	0
 7798 002b 04       		.uleb128 0x4
 7799 002c 24       		.uleb128 0x24
 7800 002d 00       		.byte	0
 7801 002e 0B       		.uleb128 0xb
 7802 002f 0B       		.uleb128 0xb
 7803 0030 3E       		.uleb128 0x3e
 7804 0031 0B       		.uleb128 0xb
 7805 0032 03       		.uleb128 0x3
 7806 0033 08       		.uleb128 0x8
 7807 0034 00       		.byte	0
 7808 0035 00       		.byte	0
 7809 0036 05       		.uleb128 0x5
 7810 0037 0F       		.uleb128 0xf
 7811 0038 00       		.byte	0
 7812 0039 0B       		.uleb128 0xb
 7813 003a 0B       		.uleb128 0xb
 7814 003b 00       		.byte	0
 7815 003c 00       		.byte	0
 7816 003d 06       		.uleb128 0x6
 7817 003e 13       		.uleb128 0x13
 7818 003f 01       		.byte	0x1
 7819 0040 0B       		.uleb128 0xb
 7820 0041 0B       		.uleb128 0xb
 7821 0042 3A       		.uleb128 0x3a
 7822 0043 0B       		.uleb128 0xb
 7823 0044 3B       		.uleb128 0x3b
 7824 0045 0B       		.uleb128 0xb
 7825 0046 01       		.uleb128 0x1
 7826 0047 13       		.uleb128 0x13
 7827 0048 00       		.byte	0
 7828 0049 00       		.byte	0
 7829 004a 07       		.uleb128 0x7
 7830 004b 0D       		.uleb128 0xd
 7831 004c 00       		.byte	0
 7832 004d 03       		.uleb128 0x3
 7833 004e 0E       		.uleb128 0xe
 7834 004f 3A       		.uleb128 0x3a
 7835 0050 0B       		.uleb128 0xb
 7836 0051 3B       		.uleb128 0x3b
 7837 0052 0B       		.uleb128 0xb
 7838 0053 49       		.uleb128 0x49
 7839 0054 13       		.uleb128 0x13
 7840 0055 38       		.uleb128 0x38
 7841 0056 0B       		.uleb128 0xb
 7842 0057 00       		.byte	0
 7843 0058 00       		.byte	0
 7844 0059 08       		.uleb128 0x8
 7845 005a 0D       		.uleb128 0xd
 7846 005b 00       		.byte	0
 7847 005c 03       		.uleb128 0x3
ARM GAS  C:\Users\tmj32\AppData\Local\Temp\ccUUfkkI.s 			page 175


 7848 005d 08       		.uleb128 0x8
 7849 005e 3A       		.uleb128 0x3a
 7850 005f 0B       		.uleb128 0xb
 7851 0060 3B       		.uleb128 0x3b
 7852 0061 0B       		.uleb128 0xb
 7853 0062 49       		.uleb128 0x49
 7854 0063 13       		.uleb128 0x13
 7855 0064 38       		.uleb128 0x38
 7856 0065 0B       		.uleb128 0xb
 7857 0066 00       		.byte	0
 7858 0067 00       		.byte	0
 7859 0068 09       		.uleb128 0x9
 7860 0069 13       		.uleb128 0x13
 7861 006a 01       		.byte	0x1
 7862 006b 03       		.uleb128 0x3
 7863 006c 0E       		.uleb128 0xe
 7864 006d 0B       		.uleb128 0xb
 7865 006e 0B       		.uleb128 0xb
 7866 006f 3A       		.uleb128 0x3a
 7867 0070 0B       		.uleb128 0xb
 7868 0071 3B       		.uleb128 0x3b
 7869 0072 0B       		.uleb128 0xb
 7870 0073 01       		.uleb128 0x1
 7871 0074 13       		.uleb128 0x13
 7872 0075 00       		.byte	0
 7873 0076 00       		.byte	0
 7874 0077 0A       		.uleb128 0xa
 7875 0078 0D       		.uleb128 0xd
 7876 0079 00       		.byte	0
 7877 007a 03       		.uleb128 0x3
 7878 007b 0E       		.uleb128 0xe
 7879 007c 3A       		.uleb128 0x3a
 7880 007d 0B       		.uleb128 0xb
 7881 007e 3B       		.uleb128 0x3b
 7882 007f 0B       		.uleb128 0xb
 7883 0080 49       		.uleb128 0x49
 7884 0081 13       		.uleb128 0x13
 7885 0082 0B       		.uleb128 0xb
 7886 0083 0B       		.uleb128 0xb
 7887 0084 0D       		.uleb128 0xd
 7888 0085 0B       		.uleb128 0xb
 7889 0086 0C       		.uleb128 0xc
 7890 0087 0B       		.uleb128 0xb
 7891 0088 38       		.uleb128 0x38
 7892 0089 0B       		.uleb128 0xb
 7893 008a 00       		.byte	0
 7894 008b 00       		.byte	0
 7895 008c 0B       		.uleb128 0xb
 7896 008d 15       		.uleb128 0x15
 7897 008e 01       		.byte	0x1
 7898 008f 27       		.uleb128 0x27
 7899 0090 19       		.uleb128 0x19
 7900 0091 49       		.uleb128 0x49
 7901 0092 13       		.uleb128 0x13
 7902 0093 01       		.uleb128 0x1
 7903 0094 13       		.uleb128 0x13
 7904 0095 00       		.byte	0
ARM GAS  C:\Users\tmj32\AppData\Local\Temp\ccUUfkkI.s 			page 176


 7905 0096 00       		.byte	0
 7906 0097 0C       		.uleb128 0xc
 7907 0098 05       		.uleb128 0x5
 7908 0099 00       		.byte	0
 7909 009a 49       		.uleb128 0x49
 7910 009b 13       		.uleb128 0x13
 7911 009c 00       		.byte	0
 7912 009d 00       		.byte	0
 7913 009e 0D       		.uleb128 0xd
 7914 009f 0F       		.uleb128 0xf
 7915 00a0 00       		.byte	0
 7916 00a1 0B       		.uleb128 0xb
 7917 00a2 0B       		.uleb128 0xb
 7918 00a3 49       		.uleb128 0x49
 7919 00a4 13       		.uleb128 0x13
 7920 00a5 00       		.byte	0
 7921 00a6 00       		.byte	0
 7922 00a7 0E       		.uleb128 0xe
 7923 00a8 26       		.uleb128 0x26
 7924 00a9 00       		.byte	0
 7925 00aa 49       		.uleb128 0x49
 7926 00ab 13       		.uleb128 0x13
 7927 00ac 00       		.byte	0
 7928 00ad 00       		.byte	0
 7929 00ae 0F       		.uleb128 0xf
 7930 00af 17       		.uleb128 0x17
 7931 00b0 01       		.byte	0x1
 7932 00b1 0B       		.uleb128 0xb
 7933 00b2 0B       		.uleb128 0xb
 7934 00b3 3A       		.uleb128 0x3a
 7935 00b4 0B       		.uleb128 0xb
 7936 00b5 3B       		.uleb128 0x3b
 7937 00b6 0B       		.uleb128 0xb
 7938 00b7 01       		.uleb128 0x1
 7939 00b8 13       		.uleb128 0x13
 7940 00b9 00       		.byte	0
 7941 00ba 00       		.byte	0
 7942 00bb 10       		.uleb128 0x10
 7943 00bc 0D       		.uleb128 0xd
 7944 00bd 00       		.byte	0
 7945 00be 03       		.uleb128 0x3
 7946 00bf 08       		.uleb128 0x8
 7947 00c0 3A       		.uleb128 0x3a
 7948 00c1 0B       		.uleb128 0xb
 7949 00c2 3B       		.uleb128 0x3b
 7950 00c3 0B       		.uleb128 0xb
 7951 00c4 49       		.uleb128 0x49
 7952 00c5 13       		.uleb128 0x13
 7953 00c6 00       		.byte	0
 7954 00c7 00       		.byte	0
 7955 00c8 11       		.uleb128 0x11
 7956 00c9 0D       		.uleb128 0xd
 7957 00ca 00       		.byte	0
 7958 00cb 03       		.uleb128 0x3
 7959 00cc 0E       		.uleb128 0xe
 7960 00cd 3A       		.uleb128 0x3a
 7961 00ce 0B       		.uleb128 0xb
ARM GAS  C:\Users\tmj32\AppData\Local\Temp\ccUUfkkI.s 			page 177


 7962 00cf 3B       		.uleb128 0x3b
 7963 00d0 0B       		.uleb128 0xb
 7964 00d1 49       		.uleb128 0x49
 7965 00d2 13       		.uleb128 0x13
 7966 00d3 00       		.byte	0
 7967 00d4 00       		.byte	0
 7968 00d5 12       		.uleb128 0x12
 7969 00d6 16       		.uleb128 0x16
 7970 00d7 00       		.byte	0
 7971 00d8 03       		.uleb128 0x3
 7972 00d9 0E       		.uleb128 0xe
 7973 00da 3A       		.uleb128 0x3a
 7974 00db 0B       		.uleb128 0xb
 7975 00dc 3B       		.uleb128 0x3b
 7976 00dd 05       		.uleb128 0x5
 7977 00de 49       		.uleb128 0x49
 7978 00df 13       		.uleb128 0x13
 7979 00e0 00       		.byte	0
 7980 00e1 00       		.byte	0
 7981 00e2 13       		.uleb128 0x13
 7982 00e3 04       		.uleb128 0x4
 7983 00e4 01       		.byte	0x1
 7984 00e5 0B       		.uleb128 0xb
 7985 00e6 0B       		.uleb128 0xb
 7986 00e7 49       		.uleb128 0x49
 7987 00e8 13       		.uleb128 0x13
 7988 00e9 3A       		.uleb128 0x3a
 7989 00ea 0B       		.uleb128 0xb
 7990 00eb 3B       		.uleb128 0x3b
 7991 00ec 0B       		.uleb128 0xb
 7992 00ed 01       		.uleb128 0x1
 7993 00ee 13       		.uleb128 0x13
 7994 00ef 00       		.byte	0
 7995 00f0 00       		.byte	0
 7996 00f1 14       		.uleb128 0x14
 7997 00f2 28       		.uleb128 0x28
 7998 00f3 00       		.byte	0
 7999 00f4 03       		.uleb128 0x3
 8000 00f5 0E       		.uleb128 0xe
 8001 00f6 1C       		.uleb128 0x1c
 8002 00f7 0B       		.uleb128 0xb
 8003 00f8 00       		.byte	0
 8004 00f9 00       		.byte	0
 8005 00fa 15       		.uleb128 0x15
 8006 00fb 15       		.uleb128 0x15
 8007 00fc 01       		.byte	0x1
 8008 00fd 27       		.uleb128 0x27
 8009 00fe 19       		.uleb128 0x19
 8010 00ff 01       		.uleb128 0x1
 8011 0100 13       		.uleb128 0x13
 8012 0101 00       		.byte	0
 8013 0102 00       		.byte	0
 8014 0103 16       		.uleb128 0x16
 8015 0104 0D       		.uleb128 0xd
 8016 0105 00       		.byte	0
 8017 0106 03       		.uleb128 0x3
 8018 0107 08       		.uleb128 0x8
ARM GAS  C:\Users\tmj32\AppData\Local\Temp\ccUUfkkI.s 			page 178


 8019 0108 3A       		.uleb128 0x3a
 8020 0109 0B       		.uleb128 0xb
 8021 010a 3B       		.uleb128 0x3b
 8022 010b 0B       		.uleb128 0xb
 8023 010c 49       		.uleb128 0x49
 8024 010d 13       		.uleb128 0x13
 8025 010e 0B       		.uleb128 0xb
 8026 010f 0B       		.uleb128 0xb
 8027 0110 0D       		.uleb128 0xd
 8028 0111 0B       		.uleb128 0xb
 8029 0112 0C       		.uleb128 0xc
 8030 0113 0B       		.uleb128 0xb
 8031 0114 38       		.uleb128 0x38
 8032 0115 0B       		.uleb128 0xb
 8033 0116 00       		.byte	0
 8034 0117 00       		.byte	0
 8035 0118 17       		.uleb128 0x17
 8036 0119 13       		.uleb128 0x13
 8037 011a 01       		.byte	0x1
 8038 011b 0B       		.uleb128 0xb
 8039 011c 0B       		.uleb128 0xb
 8040 011d 3A       		.uleb128 0x3a
 8041 011e 0B       		.uleb128 0xb
 8042 011f 3B       		.uleb128 0x3b
 8043 0120 05       		.uleb128 0x5
 8044 0121 01       		.uleb128 0x1
 8045 0122 13       		.uleb128 0x13
 8046 0123 00       		.byte	0
 8047 0124 00       		.byte	0
 8048 0125 18       		.uleb128 0x18
 8049 0126 0D       		.uleb128 0xd
 8050 0127 00       		.byte	0
 8051 0128 03       		.uleb128 0x3
 8052 0129 0E       		.uleb128 0xe
 8053 012a 3A       		.uleb128 0x3a
 8054 012b 0B       		.uleb128 0xb
 8055 012c 3B       		.uleb128 0x3b
 8056 012d 05       		.uleb128 0x5
 8057 012e 49       		.uleb128 0x49
 8058 012f 13       		.uleb128 0x13
 8059 0130 38       		.uleb128 0x38
 8060 0131 0B       		.uleb128 0xb
 8061 0132 00       		.byte	0
 8062 0133 00       		.byte	0
 8063 0134 19       		.uleb128 0x19
 8064 0135 01       		.uleb128 0x1
 8065 0136 01       		.byte	0x1
 8066 0137 49       		.uleb128 0x49
 8067 0138 13       		.uleb128 0x13
 8068 0139 01       		.uleb128 0x1
 8069 013a 13       		.uleb128 0x13
 8070 013b 00       		.byte	0
 8071 013c 00       		.byte	0
 8072 013d 1A       		.uleb128 0x1a
 8073 013e 21       		.uleb128 0x21
 8074 013f 00       		.byte	0
 8075 0140 49       		.uleb128 0x49
ARM GAS  C:\Users\tmj32\AppData\Local\Temp\ccUUfkkI.s 			page 179


 8076 0141 13       		.uleb128 0x13
 8077 0142 2F       		.uleb128 0x2f
 8078 0143 0B       		.uleb128 0xb
 8079 0144 00       		.byte	0
 8080 0145 00       		.byte	0
 8081 0146 1B       		.uleb128 0x1b
 8082 0147 26       		.uleb128 0x26
 8083 0148 00       		.byte	0
 8084 0149 00       		.byte	0
 8085 014a 00       		.byte	0
 8086 014b 1C       		.uleb128 0x1c
 8087 014c 0D       		.uleb128 0xd
 8088 014d 00       		.byte	0
 8089 014e 03       		.uleb128 0x3
 8090 014f 08       		.uleb128 0x8
 8091 0150 3A       		.uleb128 0x3a
 8092 0151 0B       		.uleb128 0xb
 8093 0152 3B       		.uleb128 0x3b
 8094 0153 05       		.uleb128 0x5
 8095 0154 49       		.uleb128 0x49
 8096 0155 13       		.uleb128 0x13
 8097 0156 38       		.uleb128 0x38
 8098 0157 0B       		.uleb128 0xb
 8099 0158 00       		.byte	0
 8100 0159 00       		.byte	0
 8101 015a 1D       		.uleb128 0x1d
 8102 015b 13       		.uleb128 0x13
 8103 015c 01       		.byte	0x1
 8104 015d 0B       		.uleb128 0xb
 8105 015e 05       		.uleb128 0x5
 8106 015f 3A       		.uleb128 0x3a
 8107 0160 0B       		.uleb128 0xb
 8108 0161 3B       		.uleb128 0x3b
 8109 0162 0B       		.uleb128 0xb
 8110 0163 01       		.uleb128 0x1
 8111 0164 13       		.uleb128 0x13
 8112 0165 00       		.byte	0
 8113 0166 00       		.byte	0
 8114 0167 1E       		.uleb128 0x1e
 8115 0168 0D       		.uleb128 0xd
 8116 0169 00       		.byte	0
 8117 016a 03       		.uleb128 0x3
 8118 016b 0E       		.uleb128 0xe
 8119 016c 3A       		.uleb128 0x3a
 8120 016d 0B       		.uleb128 0xb
 8121 016e 3B       		.uleb128 0x3b
 8122 016f 0B       		.uleb128 0xb
 8123 0170 49       		.uleb128 0x49
 8124 0171 13       		.uleb128 0x13
 8125 0172 38       		.uleb128 0x38
 8126 0173 05       		.uleb128 0x5
 8127 0174 00       		.byte	0
 8128 0175 00       		.byte	0
 8129 0176 1F       		.uleb128 0x1f
 8130 0177 0D       		.uleb128 0xd
 8131 0178 00       		.byte	0
 8132 0179 03       		.uleb128 0x3
ARM GAS  C:\Users\tmj32\AppData\Local\Temp\ccUUfkkI.s 			page 180


 8133 017a 08       		.uleb128 0x8
 8134 017b 3A       		.uleb128 0x3a
 8135 017c 0B       		.uleb128 0xb
 8136 017d 3B       		.uleb128 0x3b
 8137 017e 0B       		.uleb128 0xb
 8138 017f 49       		.uleb128 0x49
 8139 0180 13       		.uleb128 0x13
 8140 0181 38       		.uleb128 0x38
 8141 0182 05       		.uleb128 0x5
 8142 0183 00       		.byte	0
 8143 0184 00       		.byte	0
 8144 0185 20       		.uleb128 0x20
 8145 0186 0D       		.uleb128 0xd
 8146 0187 00       		.byte	0
 8147 0188 03       		.uleb128 0x3
 8148 0189 0E       		.uleb128 0xe
 8149 018a 3A       		.uleb128 0x3a
 8150 018b 0B       		.uleb128 0xb
 8151 018c 3B       		.uleb128 0x3b
 8152 018d 05       		.uleb128 0x5
 8153 018e 49       		.uleb128 0x49
 8154 018f 13       		.uleb128 0x13
 8155 0190 38       		.uleb128 0x38
 8156 0191 05       		.uleb128 0x5
 8157 0192 00       		.byte	0
 8158 0193 00       		.byte	0
 8159 0194 21       		.uleb128 0x21
 8160 0195 0D       		.uleb128 0xd
 8161 0196 00       		.byte	0
 8162 0197 03       		.uleb128 0x3
 8163 0198 08       		.uleb128 0x8
 8164 0199 3A       		.uleb128 0x3a
 8165 019a 0B       		.uleb128 0xb
 8166 019b 3B       		.uleb128 0x3b
 8167 019c 05       		.uleb128 0x5
 8168 019d 49       		.uleb128 0x49
 8169 019e 13       		.uleb128 0x13
 8170 019f 38       		.uleb128 0x38
 8171 01a0 05       		.uleb128 0x5
 8172 01a1 00       		.byte	0
 8173 01a2 00       		.byte	0
 8174 01a3 22       		.uleb128 0x22
 8175 01a4 2E       		.uleb128 0x2e
 8176 01a5 01       		.byte	0x1
 8177 01a6 03       		.uleb128 0x3
 8178 01a7 0E       		.uleb128 0xe
 8179 01a8 3A       		.uleb128 0x3a
 8180 01a9 0B       		.uleb128 0xb
 8181 01aa 3B       		.uleb128 0x3b
 8182 01ab 0B       		.uleb128 0xb
 8183 01ac 27       		.uleb128 0x27
 8184 01ad 19       		.uleb128 0x19
 8185 01ae 11       		.uleb128 0x11
 8186 01af 01       		.uleb128 0x1
 8187 01b0 12       		.uleb128 0x12
 8188 01b1 06       		.uleb128 0x6
 8189 01b2 40       		.uleb128 0x40
ARM GAS  C:\Users\tmj32\AppData\Local\Temp\ccUUfkkI.s 			page 181


 8190 01b3 18       		.uleb128 0x18
 8191 01b4 9642     		.uleb128 0x2116
 8192 01b6 19       		.uleb128 0x19
 8193 01b7 01       		.uleb128 0x1
 8194 01b8 13       		.uleb128 0x13
 8195 01b9 00       		.byte	0
 8196 01ba 00       		.byte	0
 8197 01bb 23       		.uleb128 0x23
 8198 01bc 05       		.uleb128 0x5
 8199 01bd 00       		.byte	0
 8200 01be 03       		.uleb128 0x3
 8201 01bf 0E       		.uleb128 0xe
 8202 01c0 3A       		.uleb128 0x3a
 8203 01c1 0B       		.uleb128 0xb
 8204 01c2 3B       		.uleb128 0x3b
 8205 01c3 0B       		.uleb128 0xb
 8206 01c4 49       		.uleb128 0x49
 8207 01c5 13       		.uleb128 0x13
 8208 01c6 02       		.uleb128 0x2
 8209 01c7 18       		.uleb128 0x18
 8210 01c8 00       		.byte	0
 8211 01c9 00       		.byte	0
 8212 01ca 24       		.uleb128 0x24
 8213 01cb 05       		.uleb128 0x5
 8214 01cc 00       		.byte	0
 8215 01cd 03       		.uleb128 0x3
 8216 01ce 08       		.uleb128 0x8
 8217 01cf 3A       		.uleb128 0x3a
 8218 01d0 0B       		.uleb128 0xb
 8219 01d1 3B       		.uleb128 0x3b
 8220 01d2 0B       		.uleb128 0xb
 8221 01d3 49       		.uleb128 0x49
 8222 01d4 13       		.uleb128 0x13
 8223 01d5 02       		.uleb128 0x2
 8224 01d6 18       		.uleb128 0x18
 8225 01d7 00       		.byte	0
 8226 01d8 00       		.byte	0
 8227 01d9 25       		.uleb128 0x25
 8228 01da 2E       		.uleb128 0x2e
 8229 01db 01       		.byte	0x1
 8230 01dc 03       		.uleb128 0x3
 8231 01dd 0E       		.uleb128 0xe
 8232 01de 3A       		.uleb128 0x3a
 8233 01df 0B       		.uleb128 0xb
 8234 01e0 3B       		.uleb128 0x3b
 8235 01e1 05       		.uleb128 0x5
 8236 01e2 27       		.uleb128 0x27
 8237 01e3 19       		.uleb128 0x19
 8238 01e4 49       		.uleb128 0x49
 8239 01e5 13       		.uleb128 0x13
 8240 01e6 11       		.uleb128 0x11
 8241 01e7 01       		.uleb128 0x1
 8242 01e8 12       		.uleb128 0x12
 8243 01e9 06       		.uleb128 0x6
 8244 01ea 40       		.uleb128 0x40
 8245 01eb 18       		.uleb128 0x18
 8246 01ec 9642     		.uleb128 0x2116
ARM GAS  C:\Users\tmj32\AppData\Local\Temp\ccUUfkkI.s 			page 182


 8247 01ee 19       		.uleb128 0x19
 8248 01ef 01       		.uleb128 0x1
 8249 01f0 13       		.uleb128 0x13
 8250 01f1 00       		.byte	0
 8251 01f2 00       		.byte	0
 8252 01f3 26       		.uleb128 0x26
 8253 01f4 05       		.uleb128 0x5
 8254 01f5 00       		.byte	0
 8255 01f6 03       		.uleb128 0x3
 8256 01f7 0E       		.uleb128 0xe
 8257 01f8 3A       		.uleb128 0x3a
 8258 01f9 0B       		.uleb128 0xb
 8259 01fa 3B       		.uleb128 0x3b
 8260 01fb 05       		.uleb128 0x5
 8261 01fc 49       		.uleb128 0x49
 8262 01fd 13       		.uleb128 0x13
 8263 01fe 02       		.uleb128 0x2
 8264 01ff 18       		.uleb128 0x18
 8265 0200 00       		.byte	0
 8266 0201 00       		.byte	0
 8267 0202 27       		.uleb128 0x27
 8268 0203 2E       		.uleb128 0x2e
 8269 0204 01       		.byte	0x1
 8270 0205 3F       		.uleb128 0x3f
 8271 0206 19       		.uleb128 0x19
 8272 0207 03       		.uleb128 0x3
 8273 0208 0E       		.uleb128 0xe
 8274 0209 3A       		.uleb128 0x3a
 8275 020a 0B       		.uleb128 0xb
 8276 020b 3B       		.uleb128 0x3b
 8277 020c 0B       		.uleb128 0xb
 8278 020d 27       		.uleb128 0x27
 8279 020e 19       		.uleb128 0x19
 8280 020f 49       		.uleb128 0x49
 8281 0210 13       		.uleb128 0x13
 8282 0211 11       		.uleb128 0x11
 8283 0212 01       		.uleb128 0x1
 8284 0213 12       		.uleb128 0x12
 8285 0214 06       		.uleb128 0x6
 8286 0215 40       		.uleb128 0x40
 8287 0216 18       		.uleb128 0x18
 8288 0217 9642     		.uleb128 0x2116
 8289 0219 19       		.uleb128 0x19
 8290 021a 01       		.uleb128 0x1
 8291 021b 13       		.uleb128 0x13
 8292 021c 00       		.byte	0
 8293 021d 00       		.byte	0
 8294 021e 28       		.uleb128 0x28
 8295 021f 34       		.uleb128 0x34
 8296 0220 00       		.byte	0
 8297 0221 03       		.uleb128 0x3
 8298 0222 0E       		.uleb128 0xe
 8299 0223 3A       		.uleb128 0x3a
 8300 0224 0B       		.uleb128 0xb
 8301 0225 3B       		.uleb128 0x3b
 8302 0226 0B       		.uleb128 0xb
 8303 0227 49       		.uleb128 0x49
ARM GAS  C:\Users\tmj32\AppData\Local\Temp\ccUUfkkI.s 			page 183


 8304 0228 13       		.uleb128 0x13
 8305 0229 02       		.uleb128 0x2
 8306 022a 18       		.uleb128 0x18
 8307 022b 00       		.byte	0
 8308 022c 00       		.byte	0
 8309 022d 29       		.uleb128 0x29
 8310 022e 34       		.uleb128 0x34
 8311 022f 00       		.byte	0
 8312 0230 03       		.uleb128 0x3
 8313 0231 08       		.uleb128 0x8
 8314 0232 3A       		.uleb128 0x3a
 8315 0233 0B       		.uleb128 0xb
 8316 0234 3B       		.uleb128 0x3b
 8317 0235 0B       		.uleb128 0xb
 8318 0236 49       		.uleb128 0x49
 8319 0237 13       		.uleb128 0x13
 8320 0238 02       		.uleb128 0x2
 8321 0239 18       		.uleb128 0x18
 8322 023a 00       		.byte	0
 8323 023b 00       		.byte	0
 8324 023c 2A       		.uleb128 0x2a
 8325 023d 0B       		.uleb128 0xb
 8326 023e 01       		.byte	0x1
 8327 023f 11       		.uleb128 0x11
 8328 0240 01       		.uleb128 0x1
 8329 0241 12       		.uleb128 0x12
 8330 0242 06       		.uleb128 0x6
 8331 0243 01       		.uleb128 0x1
 8332 0244 13       		.uleb128 0x13
 8333 0245 00       		.byte	0
 8334 0246 00       		.byte	0
 8335 0247 2B       		.uleb128 0x2b
 8336 0248 0B       		.uleb128 0xb
 8337 0249 01       		.byte	0x1
 8338 024a 11       		.uleb128 0x11
 8339 024b 01       		.uleb128 0x1
 8340 024c 12       		.uleb128 0x12
 8341 024d 06       		.uleb128 0x6
 8342 024e 00       		.byte	0
 8343 024f 00       		.byte	0
 8344 0250 2C       		.uleb128 0x2c
 8345 0251 2E       		.uleb128 0x2e
 8346 0252 01       		.byte	0x1
 8347 0253 3F       		.uleb128 0x3f
 8348 0254 19       		.uleb128 0x19
 8349 0255 03       		.uleb128 0x3
 8350 0256 0E       		.uleb128 0xe
 8351 0257 3A       		.uleb128 0x3a
 8352 0258 0B       		.uleb128 0xb
 8353 0259 3B       		.uleb128 0x3b
 8354 025a 0B       		.uleb128 0xb
 8355 025b 27       		.uleb128 0x27
 8356 025c 19       		.uleb128 0x19
 8357 025d 11       		.uleb128 0x11
 8358 025e 01       		.uleb128 0x1
 8359 025f 12       		.uleb128 0x12
 8360 0260 06       		.uleb128 0x6
ARM GAS  C:\Users\tmj32\AppData\Local\Temp\ccUUfkkI.s 			page 184


 8361 0261 40       		.uleb128 0x40
 8362 0262 18       		.uleb128 0x18
 8363 0263 9642     		.uleb128 0x2116
 8364 0265 19       		.uleb128 0x19
 8365 0266 01       		.uleb128 0x1
 8366 0267 13       		.uleb128 0x13
 8367 0268 00       		.byte	0
 8368 0269 00       		.byte	0
 8369 026a 2D       		.uleb128 0x2d
 8370 026b 2E       		.uleb128 0x2e
 8371 026c 01       		.byte	0x1
 8372 026d 3F       		.uleb128 0x3f
 8373 026e 19       		.uleb128 0x19
 8374 026f 03       		.uleb128 0x3
 8375 0270 0E       		.uleb128 0xe
 8376 0271 3A       		.uleb128 0x3a
 8377 0272 0B       		.uleb128 0xb
 8378 0273 3B       		.uleb128 0x3b
 8379 0274 05       		.uleb128 0x5
 8380 0275 27       		.uleb128 0x27
 8381 0276 19       		.uleb128 0x19
 8382 0277 49       		.uleb128 0x49
 8383 0278 13       		.uleb128 0x13
 8384 0279 11       		.uleb128 0x11
 8385 027a 01       		.uleb128 0x1
 8386 027b 12       		.uleb128 0x12
 8387 027c 06       		.uleb128 0x6
 8388 027d 40       		.uleb128 0x40
 8389 027e 18       		.uleb128 0x18
 8390 027f 9642     		.uleb128 0x2116
 8391 0281 19       		.uleb128 0x19
 8392 0282 01       		.uleb128 0x1
 8393 0283 13       		.uleb128 0x13
 8394 0284 00       		.byte	0
 8395 0285 00       		.byte	0
 8396 0286 2E       		.uleb128 0x2e
 8397 0287 34       		.uleb128 0x34
 8398 0288 00       		.byte	0
 8399 0289 03       		.uleb128 0x3
 8400 028a 08       		.uleb128 0x8
 8401 028b 3A       		.uleb128 0x3a
 8402 028c 0B       		.uleb128 0xb
 8403 028d 3B       		.uleb128 0x3b
 8404 028e 05       		.uleb128 0x5
 8405 028f 49       		.uleb128 0x49
 8406 0290 13       		.uleb128 0x13
 8407 0291 02       		.uleb128 0x2
 8408 0292 18       		.uleb128 0x18
 8409 0293 00       		.byte	0
 8410 0294 00       		.byte	0
 8411 0295 2F       		.uleb128 0x2f
 8412 0296 34       		.uleb128 0x34
 8413 0297 00       		.byte	0
 8414 0298 03       		.uleb128 0x3
 8415 0299 0E       		.uleb128 0xe
 8416 029a 3A       		.uleb128 0x3a
 8417 029b 0B       		.uleb128 0xb
ARM GAS  C:\Users\tmj32\AppData\Local\Temp\ccUUfkkI.s 			page 185


 8418 029c 3B       		.uleb128 0x3b
 8419 029d 05       		.uleb128 0x5
 8420 029e 49       		.uleb128 0x49
 8421 029f 13       		.uleb128 0x13
 8422 02a0 02       		.uleb128 0x2
 8423 02a1 18       		.uleb128 0x18
 8424 02a2 00       		.byte	0
 8425 02a3 00       		.byte	0
 8426 02a4 30       		.uleb128 0x30
 8427 02a5 2E       		.uleb128 0x2e
 8428 02a6 01       		.byte	0x1
 8429 02a7 3F       		.uleb128 0x3f
 8430 02a8 19       		.uleb128 0x19
 8431 02a9 03       		.uleb128 0x3
 8432 02aa 0E       		.uleb128 0xe
 8433 02ab 3A       		.uleb128 0x3a
 8434 02ac 0B       		.uleb128 0xb
 8435 02ad 3B       		.uleb128 0x3b
 8436 02ae 05       		.uleb128 0x5
 8437 02af 27       		.uleb128 0x27
 8438 02b0 19       		.uleb128 0x19
 8439 02b1 11       		.uleb128 0x11
 8440 02b2 01       		.uleb128 0x1
 8441 02b3 12       		.uleb128 0x12
 8442 02b4 06       		.uleb128 0x6
 8443 02b5 40       		.uleb128 0x40
 8444 02b6 18       		.uleb128 0x18
 8445 02b7 9642     		.uleb128 0x2116
 8446 02b9 19       		.uleb128 0x19
 8447 02ba 01       		.uleb128 0x1
 8448 02bb 13       		.uleb128 0x13
 8449 02bc 00       		.byte	0
 8450 02bd 00       		.byte	0
 8451 02be 31       		.uleb128 0x31
 8452 02bf 05       		.uleb128 0x5
 8453 02c0 00       		.byte	0
 8454 02c1 03       		.uleb128 0x3
 8455 02c2 08       		.uleb128 0x8
 8456 02c3 3A       		.uleb128 0x3a
 8457 02c4 0B       		.uleb128 0xb
 8458 02c5 3B       		.uleb128 0x3b
 8459 02c6 05       		.uleb128 0x5
 8460 02c7 49       		.uleb128 0x49
 8461 02c8 13       		.uleb128 0x13
 8462 02c9 02       		.uleb128 0x2
 8463 02ca 18       		.uleb128 0x18
 8464 02cb 00       		.byte	0
 8465 02cc 00       		.byte	0
 8466 02cd 32       		.uleb128 0x32
 8467 02ce 0B       		.uleb128 0xb
 8468 02cf 01       		.byte	0x1
 8469 02d0 55       		.uleb128 0x55
 8470 02d1 17       		.uleb128 0x17
 8471 02d2 00       		.byte	0
 8472 02d3 00       		.byte	0
 8473 02d4 33       		.uleb128 0x33
 8474 02d5 2E       		.uleb128 0x2e
ARM GAS  C:\Users\tmj32\AppData\Local\Temp\ccUUfkkI.s 			page 186


 8475 02d6 01       		.byte	0x1
 8476 02d7 03       		.uleb128 0x3
 8477 02d8 0E       		.uleb128 0xe
 8478 02d9 3A       		.uleb128 0x3a
 8479 02da 0B       		.uleb128 0xb
 8480 02db 3B       		.uleb128 0x3b
 8481 02dc 05       		.uleb128 0x5
 8482 02dd 27       		.uleb128 0x27
 8483 02de 19       		.uleb128 0x19
 8484 02df 11       		.uleb128 0x11
 8485 02e0 01       		.uleb128 0x1
 8486 02e1 12       		.uleb128 0x12
 8487 02e2 06       		.uleb128 0x6
 8488 02e3 40       		.uleb128 0x40
 8489 02e4 18       		.uleb128 0x18
 8490 02e5 9642     		.uleb128 0x2116
 8491 02e7 19       		.uleb128 0x19
 8492 02e8 01       		.uleb128 0x1
 8493 02e9 13       		.uleb128 0x13
 8494 02ea 00       		.byte	0
 8495 02eb 00       		.byte	0
 8496 02ec 34       		.uleb128 0x34
 8497 02ed 34       		.uleb128 0x34
 8498 02ee 00       		.byte	0
 8499 02ef 03       		.uleb128 0x3
 8500 02f0 0E       		.uleb128 0xe
 8501 02f1 3A       		.uleb128 0x3a
 8502 02f2 0B       		.uleb128 0xb
 8503 02f3 3B       		.uleb128 0x3b
 8504 02f4 05       		.uleb128 0x5
 8505 02f5 49       		.uleb128 0x49
 8506 02f6 13       		.uleb128 0x13
 8507 02f7 3F       		.uleb128 0x3f
 8508 02f8 19       		.uleb128 0x19
 8509 02f9 3C       		.uleb128 0x3c
 8510 02fa 19       		.uleb128 0x19
 8511 02fb 00       		.byte	0
 8512 02fc 00       		.byte	0
 8513 02fd 00       		.byte	0
 8514              		.section	.debug_aranges,"",%progbits
 8515 0000 34010000 		.4byte	0x134
 8516 0004 0200     		.2byte	0x2
 8517 0006 00000000 		.4byte	.Ldebug_info0
 8518 000a 04       		.byte	0x4
 8519 000b 00       		.byte	0
 8520 000c 0000     		.2byte	0
 8521 000e 0000     		.2byte	0
 8522 0010 00000000 		.4byte	.LFB31
 8523 0014 2A000000 		.4byte	.LFE31-.LFB31
 8524 0018 00000000 		.4byte	.LFB32
 8525 001c 26000000 		.4byte	.LFE32-.LFB32
 8526 0020 00000000 		.4byte	.LFB36
 8527 0024 28000000 		.4byte	.LFE36-.LFB36
 8528 0028 00000000 		.4byte	.LFB40
 8529 002c 26000000 		.4byte	.LFE40-.LFB40
 8530 0030 00000000 		.4byte	.LFB43
 8531 0034 20000000 		.4byte	.LFE43-.LFB43
ARM GAS  C:\Users\tmj32\AppData\Local\Temp\ccUUfkkI.s 			page 187


 8532 0038 00000000 		.4byte	.LFB48
 8533 003c 1E000000 		.4byte	.LFE48-.LFB48
 8534 0040 00000000 		.4byte	.LFB50
 8535 0044 24000000 		.4byte	.LFE50-.LFB50
 8536 0048 00000000 		.4byte	.LFB51
 8537 004c 1E000000 		.4byte	.LFE51-.LFB51
 8538 0050 00000000 		.4byte	.LFB61
 8539 0054 1E000000 		.4byte	.LFE61-.LFB61
 8540 0058 00000000 		.4byte	.LFB68
 8541 005c 18000000 		.4byte	.LFE68-.LFB68
 8542 0060 00000000 		.4byte	.LFB69
 8543 0064 2C020000 		.4byte	.LFE69-.LFB69
 8544 0068 00000000 		.4byte	.LFB70
 8545 006c 2E000000 		.4byte	.LFE70-.LFB70
 8546 0070 00000000 		.4byte	.LFB71
 8547 0074 50020000 		.4byte	.LFE71-.LFB71
 8548 0078 00000000 		.4byte	.LFB72
 8549 007c 76000000 		.4byte	.LFE72-.LFB72
 8550 0080 00000000 		.4byte	.LFB73
 8551 0084 2C000000 		.4byte	.LFE73-.LFB73
 8552 0088 00000000 		.4byte	.LFB74
 8553 008c 0E010000 		.4byte	.LFE74-.LFB74
 8554 0090 00000000 		.4byte	.LFB75
 8555 0094 C8000000 		.4byte	.LFE75-.LFB75
 8556 0098 00000000 		.4byte	.LFB76
 8557 009c 2E000000 		.4byte	.LFE76-.LFB76
 8558 00a0 00000000 		.4byte	.LFB77
 8559 00a4 30000000 		.4byte	.LFE77-.LFB77
 8560 00a8 00000000 		.4byte	.LFB78
 8561 00ac 4C000000 		.4byte	.LFE78-.LFB78
 8562 00b0 00000000 		.4byte	.LFB79
 8563 00b4 4C000000 		.4byte	.LFE79-.LFB79
 8564 00b8 00000000 		.4byte	.LFB80
 8565 00bc 56000000 		.4byte	.LFE80-.LFB80
 8566 00c0 00000000 		.4byte	.LFB81
 8567 00c4 56000000 		.4byte	.LFE81-.LFB81
 8568 00c8 00000000 		.4byte	.LFB82
 8569 00cc 5E000000 		.4byte	.LFE82-.LFB82
 8570 00d0 00000000 		.4byte	.LFB83
 8571 00d4 1E000000 		.4byte	.LFE83-.LFB83
 8572 00d8 00000000 		.4byte	.LFB84
 8573 00dc 18000000 		.4byte	.LFE84-.LFB84
 8574 00e0 00000000 		.4byte	.LFB85
 8575 00e4 B0000000 		.4byte	.LFE85-.LFB85
 8576 00e8 00000000 		.4byte	.LFB86
 8577 00ec F4000000 		.4byte	.LFE86-.LFB86
 8578 00f0 00000000 		.4byte	.LFB87
 8579 00f4 CC000000 		.4byte	.LFE87-.LFB87
 8580 00f8 00000000 		.4byte	.LFB88
 8581 00fc 42000000 		.4byte	.LFE88-.LFB88
 8582 0100 00000000 		.4byte	.LFB89
 8583 0104 88000000 		.4byte	.LFE89-.LFB89
 8584 0108 00000000 		.4byte	.LFB90
 8585 010c DC000000 		.4byte	.LFE90-.LFB90
 8586 0110 00000000 		.4byte	.LFB91
 8587 0114 54000000 		.4byte	.LFE91-.LFB91
 8588 0118 00000000 		.4byte	.LFB92
ARM GAS  C:\Users\tmj32\AppData\Local\Temp\ccUUfkkI.s 			page 188


 8589 011c 78000000 		.4byte	.LFE92-.LFB92
 8590 0120 00000000 		.4byte	.LFB93
 8591 0124 78000000 		.4byte	.LFE93-.LFB93
 8592 0128 00000000 		.4byte	.LFB94
 8593 012c 78000000 		.4byte	.LFE94-.LFB94
 8594 0130 00000000 		.4byte	0
 8595 0134 00000000 		.4byte	0
 8596              		.section	.debug_ranges,"",%progbits
 8597              	.Ldebug_ranges0:
 8598 0000 36000000 		.4byte	.LBB7
 8599 0004 76000000 		.4byte	.LBE7
 8600 0008 78000000 		.4byte	.LBB9
 8601 000c CA000000 		.4byte	.LBE9
 8602 0010 00000000 		.4byte	0
 8603 0014 00000000 		.4byte	0
 8604 0018 00000000 		.4byte	.LFB31
 8605 001c 2A000000 		.4byte	.LFE31
 8606 0020 00000000 		.4byte	.LFB32
 8607 0024 26000000 		.4byte	.LFE32
 8608 0028 00000000 		.4byte	.LFB36
 8609 002c 28000000 		.4byte	.LFE36
 8610 0030 00000000 		.4byte	.LFB40
 8611 0034 26000000 		.4byte	.LFE40
 8612 0038 00000000 		.4byte	.LFB43
 8613 003c 20000000 		.4byte	.LFE43
 8614 0040 00000000 		.4byte	.LFB48
 8615 0044 1E000000 		.4byte	.LFE48
 8616 0048 00000000 		.4byte	.LFB50
 8617 004c 24000000 		.4byte	.LFE50
 8618 0050 00000000 		.4byte	.LFB51
 8619 0054 1E000000 		.4byte	.LFE51
 8620 0058 00000000 		.4byte	.LFB61
 8621 005c 1E000000 		.4byte	.LFE61
 8622 0060 00000000 		.4byte	.LFB68
 8623 0064 18000000 		.4byte	.LFE68
 8624 0068 00000000 		.4byte	.LFB69
 8625 006c 2C020000 		.4byte	.LFE69
 8626 0070 00000000 		.4byte	.LFB70
 8627 0074 2E000000 		.4byte	.LFE70
 8628 0078 00000000 		.4byte	.LFB71
 8629 007c 50020000 		.4byte	.LFE71
 8630 0080 00000000 		.4byte	.LFB72
 8631 0084 76000000 		.4byte	.LFE72
 8632 0088 00000000 		.4byte	.LFB73
 8633 008c 2C000000 		.4byte	.LFE73
 8634 0090 00000000 		.4byte	.LFB74
 8635 0094 0E010000 		.4byte	.LFE74
 8636 0098 00000000 		.4byte	.LFB75
 8637 009c C8000000 		.4byte	.LFE75
 8638 00a0 00000000 		.4byte	.LFB76
 8639 00a4 2E000000 		.4byte	.LFE76
 8640 00a8 00000000 		.4byte	.LFB77
 8641 00ac 30000000 		.4byte	.LFE77
 8642 00b0 00000000 		.4byte	.LFB78
 8643 00b4 4C000000 		.4byte	.LFE78
 8644 00b8 00000000 		.4byte	.LFB79
 8645 00bc 4C000000 		.4byte	.LFE79
ARM GAS  C:\Users\tmj32\AppData\Local\Temp\ccUUfkkI.s 			page 189


 8646 00c0 00000000 		.4byte	.LFB80
 8647 00c4 56000000 		.4byte	.LFE80
 8648 00c8 00000000 		.4byte	.LFB81
 8649 00cc 56000000 		.4byte	.LFE81
 8650 00d0 00000000 		.4byte	.LFB82
 8651 00d4 5E000000 		.4byte	.LFE82
 8652 00d8 00000000 		.4byte	.LFB83
 8653 00dc 1E000000 		.4byte	.LFE83
 8654 00e0 00000000 		.4byte	.LFB84
 8655 00e4 18000000 		.4byte	.LFE84
 8656 00e8 00000000 		.4byte	.LFB85
 8657 00ec B0000000 		.4byte	.LFE85
 8658 00f0 00000000 		.4byte	.LFB86
 8659 00f4 F4000000 		.4byte	.LFE86
 8660 00f8 00000000 		.4byte	.LFB87
 8661 00fc CC000000 		.4byte	.LFE87
 8662 0100 00000000 		.4byte	.LFB88
 8663 0104 42000000 		.4byte	.LFE88
 8664 0108 00000000 		.4byte	.LFB89
 8665 010c 88000000 		.4byte	.LFE89
 8666 0110 00000000 		.4byte	.LFB90
 8667 0114 DC000000 		.4byte	.LFE90
 8668 0118 00000000 		.4byte	.LFB91
 8669 011c 54000000 		.4byte	.LFE91
 8670 0120 00000000 		.4byte	.LFB92
 8671 0124 78000000 		.4byte	.LFE92
 8672 0128 00000000 		.4byte	.LFB93
 8673 012c 78000000 		.4byte	.LFE93
 8674 0130 00000000 		.4byte	.LFB94
 8675 0134 78000000 		.4byte	.LFE94
 8676 0138 00000000 		.4byte	0
 8677 013c 00000000 		.4byte	0
 8678              		.section	.debug_line,"",%progbits
 8679              	.Ldebug_line0:
 8680 0000 D0080000 		.section	.debug_str,"MS",%progbits,1
 8680      02004903 
 8680      00000201 
 8680      FB0E0D00 
 8680      01010101 
 8681              	.LASF15:
 8682 0000 696E7438 		.ascii	"int8_t\000"
 8682      5F7400
 8683              	.LASF255:
 8684 0007 4C565F4C 		.ascii	"LV_LIST_STYLE_SCRL\000"
 8684      4953545F 
 8684      5354594C 
 8684      455F5343 
 8684      524C00
 8685              	.LASF99:
 8686 001a 6C765F6C 		.ascii	"lv_ll_node_t\000"
 8686      6C5F6E6F 
 8686      64655F74 
 8686      00
 8687              	.LASF23:
 8688 0027 6164765F 		.ascii	"adv_w\000"
 8688      7700
 8689              	.LASF276:
ARM GAS  C:\Users\tmj32\AppData\Local\Temp\ccUUfkkI.s 			page 190


 8690 002d 68656164 		.ascii	"header_pr\000"
 8690      65725F70 
 8690      7200
 8691              	.LASF325:
 8692 0037 6C617374 		.ascii	"last_btn\000"
 8692      5F62746E 
 8692      00
 8693              	.LASF42:
 8694 0040 73697A65 		.ascii	"sizetype\000"
 8694      74797065 
 8694      00
 8695              	.LASF55:
 8696 0049 73746172 		.ascii	"start\000"
 8696      7400
 8697              	.LASF39:
 8698 004f 6C765F63 		.ascii	"lv_color32_t\000"
 8698      6F6C6F72 
 8698      33325F74 
 8698      00
 8699              	.LASF285:
 8700 005c 63656C6C 		.ascii	"cell\000"
 8700      00
 8701              	.LASF109:
 8702 0061 4C565F42 		.ascii	"LV_BIDI_DIR_WEAK\000"
 8702      4944495F 
 8702      4449525F 
 8702      5745414B 
 8702      00
 8703              	.LASF46:
 8704 0072 4C565F41 		.ascii	"LV_ANIM_ON\000"
 8704      4E494D5F 
 8704      4F4E00
 8705              	.LASF102:
 8706 007d 7461696C 		.ascii	"tail\000"
 8706      00
 8707              	.LASF172:
 8708 0082 4C565F50 		.ascii	"LV_PROTECT_POS\000"
 8708      524F5445 
 8708      43545F50 
 8708      4F5300
 8709              	.LASF141:
 8710 0091 4C565F53 		.ascii	"LV_SIGNAL_STYLE_CHG\000"
 8710      49474E41 
 8710      4C5F5354 
 8710      594C455F 
 8710      43484700 
 8711              	.LASF62:
 8712 00a5 72657065 		.ascii	"repeat\000"
 8712      617400
 8713              	.LASF326:
 8714 00ac 706F735F 		.ascii	"pos_x_ori\000"
 8714      785F6F72 
 8714      6900
 8715              	.LASF41:
 8716 00b6 6C765F6F 		.ascii	"lv_opa_t\000"
 8716      70615F74 
 8716      00
ARM GAS  C:\Users\tmj32\AppData\Local\Temp\ccUUfkkI.s 			page 191


 8717              	.LASF19:
 8718 00bf 696E7433 		.ascii	"int32_t\000"
 8718      325F7400 
 8719              	.LASF88:
 8720 00c7 696E7465 		.ascii	"intense\000"
 8720      6E736500 
 8721              	.LASF229:
 8722 00cf 4C565F50 		.ascii	"LV_PAGE_STYLE_EDGE_FLASH\000"
 8722      4147455F 
 8722      5354594C 
 8722      455F4544 
 8722      47455F46 
 8723              	.LASF354:
 8724 00e8 6C765F6C 		.ascii	"lv_list_down\000"
 8724      6973745F 
 8724      646F776E 
 8724      00
 8725              	.LASF292:
 8726 00f5 6C6D6574 		.ascii	"lmeter\000"
 8726      657200
 8727              	.LASF149:
 8728 00fc 4C565F53 		.ascii	"LV_SIGNAL_LONG_PRESS\000"
 8728      49474E41 
 8728      4C5F4C4F 
 8728      4E475F50 
 8728      52455353 
 8729              	.LASF80:
 8730 0111 72616469 		.ascii	"radius\000"
 8730      757300
 8731              	.LASF166:
 8732 0118 6C765F72 		.ascii	"lv_reailgn_t\000"
 8732      6561696C 
 8732      676E5F74 
 8732      00
 8733              	.LASF31:
 8734 0125 6C696E65 		.ascii	"line_height\000"
 8734      5F686569 
 8734      67687400 
 8735              	.LASF252:
 8736 0131 73696E67 		.ascii	"single_mode\000"
 8736      6C655F6D 
 8736      6F646500 
 8737              	.LASF53:
 8738 013d 70617468 		.ascii	"path_cb\000"
 8738      5F636200 
 8739              	.LASF119:
 8740 0145 636C6963 		.ascii	"click\000"
 8740      6B00
 8741              	.LASF104:
 8742 014b 4C565F42 		.ascii	"LV_BIDI_DIR_LTR\000"
 8742      4944495F 
 8742      4449525F 
 8742      4C545200 
 8743              	.LASF159:
 8744 015b 6C765F61 		.ascii	"lv_align_t\000"
 8744      6C69676E 
 8744      5F7400
ARM GAS  C:\Users\tmj32\AppData\Local\Temp\ccUUfkkI.s 			page 192


 8745              	.LASF342:
 8746 0166 6C765F6C 		.ascii	"lv_list_get_btn_label\000"
 8746      6973745F 
 8746      6765745F 
 8746      62746E5F 
 8746      6C616265 
 8747              	.LASF151:
 8748 017c 4C565F53 		.ascii	"LV_SIGNAL_DRAG_BEGIN\000"
 8748      49474E41 
 8748      4C5F4452 
 8748      41475F42 
 8748      4547494E 
 8749              	.LASF278:
 8750 0191 68696768 		.ascii	"highlighted_days\000"
 8750      6C696768 
 8750      7465645F 
 8750      64617973 
 8750      00
 8751              	.LASF358:
 8752 01a2 7369676E 		.ascii	"sign\000"
 8752      00
 8753              	.LASF135:
 8754 01a7 6C765F65 		.ascii	"lv_event_t\000"
 8754      76656E74 
 8754      5F7400
 8755              	.LASF214:
 8756 01b2 73746174 		.ascii	"state\000"
 8756      6500
 8757              	.LASF206:
 8758 01b8 4C565F53 		.ascii	"LV_SB_MODE_UNHIDE\000"
 8758      425F4D4F 
 8758      44455F55 
 8758      4E484944 
 8758      4500
 8759              	.LASF331:
 8760 01ca 62746E5F 		.ascii	"btn_hor_pad\000"
 8760      686F725F 
 8760      70616400 
 8761              	.LASF335:
 8762 01d6 6C765F6C 		.ascii	"lv_list_clean\000"
 8762      6973745F 
 8762      636C6561 
 8762      6E00
 8763              	.LASF96:
 8764 01e4 4C565F52 		.ascii	"LV_RES_INV\000"
 8764      45535F49 
 8764      4E5600
 8765              	.LASF145:
 8766 01ef 4C565F53 		.ascii	"LV_SIGNAL_PRESSED\000"
 8766      49474E41 
 8766      4C5F5052 
 8766      45535345 
 8766      4400
 8767              	.LASF73:
 8768 0201 74797065 		.ascii	"type\000"
 8768      00
 8769              	.LASF189:
ARM GAS  C:\Users\tmj32\AppData\Local\Temp\ccUUfkkI.s 			page 193


 8770 0206 4C565F46 		.ascii	"LV_FIT_NONE\000"
 8770      49545F4E 
 8770      4F4E4500 
 8771              	.LASF212:
 8772 0212 7665725F 		.ascii	"ver_draw\000"
 8772      64726177 
 8772      00
 8773              	.LASF268:
 8774 021b 6C696768 		.ascii	"light\000"
 8774      7400
 8775              	.LASF288:
 8776 0221 636F6E74 		.ascii	"cont\000"
 8776      00
 8777              	.LASF266:
 8778 0226 7072696D 		.ascii	"prim\000"
 8778      00
 8779              	.LASF230:
 8780 022b 4C565F42 		.ascii	"LV_BTN_STATE_REL\000"
 8780      544E5F53 
 8780      54415445 
 8780      5F52454C 
 8780      00
 8781              	.LASF295:
 8782 023c 63686172 		.ascii	"chart\000"
 8782      7400
 8783              	.LASF319:
 8784 0242 636F7079 		.ascii	"copy_ext\000"
 8784      5F657874 
 8784      00
 8785              	.LASF1:
 8786 024b 5F5F7569 		.ascii	"__uint8_t\000"
 8786      6E74385F 
 8786      7400
 8787              	.LASF366:
 8788 0255 6C697374 		.ascii	"list_label\000"
 8788      5F6C6162 
 8788      656C00
 8789              	.LASF37:
 8790 0260 616C7068 		.ascii	"alpha\000"
 8790      6100
 8791              	.LASF370:
 8792 0266 6C616265 		.ascii	"label_signal\000"
 8792      6C5F7369 
 8792      676E616C 
 8792      00
 8793              	.LASF249:
 8794 0273 7374796C 		.ascii	"styles_btn\000"
 8794      65735F62 
 8794      746E00
 8795              	.LASF343:
 8796 027e 6C765F6C 		.ascii	"lv_list_get_btn_img\000"
 8796      6973745F 
 8796      6765745F 
 8796      62746E5F 
 8796      696D6700 
 8797              	.LASF123:
 8798 0292 68696464 		.ascii	"hidden\000"
ARM GAS  C:\Users\tmj32\AppData\Local\Temp\ccUUfkkI.s 			page 194


 8798      656E00
 8799              	.LASF59:
 8800 0299 72657065 		.ascii	"repeat_pause\000"
 8800      61745F70 
 8800      61757365 
 8800      00
 8801              	.LASF363:
 8802 02a6 6C765F6C 		.ascii	"lv_list_is_list_btn\000"
 8802      6973745F 
 8802      69735F6C 
 8802      6973745F 
 8802      62746E00 
 8803              	.LASF9:
 8804 02ba 6C6F6E67 		.ascii	"long int\000"
 8804      20696E74 
 8804      00
 8805              	.LASF320:
 8806 02c3 636F7079 		.ascii	"copy_btn\000"
 8806      5F62746E 
 8806      00
 8807              	.LASF368:
 8808 02cc 6C697374 		.ascii	"list_img\000"
 8808      5F696D67 
 8808      00
 8809              	.LASF313:
 8810 02d5 6C765F62 		.ascii	"lv_btn_set_fit\000"
 8810      746E5F73 
 8810      65745F66 
 8810      697400
 8811              	.LASF304:
 8812 02e4 74696C65 		.ascii	"tileview\000"
 8812      76696577 
 8812      00
 8813              	.LASF317:
 8814 02ed 636F7079 		.ascii	"copy\000"
 8814      00
 8815              	.LASF184:
 8816 02f2 4C565F4C 		.ascii	"LV_LAYOUT_ROW_B\000"
 8816      41594F55 
 8816      545F524F 
 8816      575F4200 
 8817              	.LASF185:
 8818 0302 4C565F4C 		.ascii	"LV_LAYOUT_PRETTY\000"
 8818      41594F55 
 8818      545F5052 
 8818      45545459 
 8818      00
 8819              	.LASF101:
 8820 0313 68656164 		.ascii	"head\000"
 8820      00
 8821              	.LASF183:
 8822 0318 4C565F4C 		.ascii	"LV_LAYOUT_ROW_M\000"
 8822      41594F55 
 8822      545F524F 
 8822      575F4D00 
 8823              	.LASF178:
 8824 0328 4C565F4C 		.ascii	"LV_LAYOUT_CENTER\000"
ARM GAS  C:\Users\tmj32\AppData\Local\Temp\ccUUfkkI.s 			page 195


 8824      41594F55 
 8824      545F4345 
 8824      4E544552 
 8824      00
 8825              	.LASF182:
 8826 0339 4C565F4C 		.ascii	"LV_LAYOUT_ROW_T\000"
 8826      41594F55 
 8826      545F524F 
 8826      575F5400 
 8827              	.LASF236:
 8828 0349 4C565F42 		.ascii	"LV_BTN_STYLE_REL\000"
 8828      544E5F53 
 8828      54594C45 
 8828      5F52454C 
 8828      00
 8829              	.LASF297:
 8830 035a 62746E6D 		.ascii	"btnm\000"
 8830      00
 8831              	.LASF223:
 8832 035f 7363726F 		.ascii	"scroll_prop\000"
 8832      6C6C5F70 
 8832      726F7000 
 8833              	.LASF2:
 8834 036b 7369676E 		.ascii	"signed char\000"
 8834      65642063 
 8834      68617200 
 8835              	.LASF16:
 8836 0377 75696E74 		.ascii	"uint8_t\000"
 8836      385F7400 
 8837              	.LASF263:
 8838 037f 6C765F6C 		.ascii	"lv_list_style_t\000"
 8838      6973745F 
 8838      7374796C 
 8838      655F7400 
 8839              	.LASF281:
 8840 038f 746F6461 		.ascii	"today_box\000"
 8840      795F626F 
 8840      7800
 8841              	.LASF260:
 8842 0399 4C565F4C 		.ascii	"LV_LIST_STYLE_BTN_TGL_REL\000"
 8842      4953545F 
 8842      5354594C 
 8842      455F4254 
 8842      4E5F5447 
 8843              	.LASF205:
 8844 03b3 4C565F53 		.ascii	"LV_SB_MODE_HIDE\000"
 8844      425F4D4F 
 8844      44455F48 
 8844      49444500 
 8845              	.LASF265:
 8846 03c3 74676C5F 		.ascii	"tgl_pr\000"
 8846      707200
 8847              	.LASF45:
 8848 03ca 4C565F41 		.ascii	"LV_ANIM_OFF\000"
 8848      4E494D5F 
 8848      4F464600 
 8849              	.LASF198:
ARM GAS  C:\Users\tmj32\AppData\Local\Temp\ccUUfkkI.s 			page 196


 8850 03d6 6669745F 		.ascii	"fit_top\000"
 8850      746F7000 
 8851              	.LASF30:
 8852 03de 6765745F 		.ascii	"get_glyph_bitmap\000"
 8852      676C7970 
 8852      685F6269 
 8852      746D6170 
 8852      00
 8853              	.LASF220:
 8854 03ef 7363726C 		.ascii	"scrl\000"
 8854      00
 8855              	.LASF35:
 8856 03f4 626C7565 		.ascii	"blue\000"
 8856      00
 8857              	.LASF150:
 8858 03f9 4C565F53 		.ascii	"LV_SIGNAL_LONG_PRESS_REP\000"
 8858      49474E41 
 8858      4C5F4C4F 
 8858      4E475F50 
 8858      52455353 
 8859              	.LASF339:
 8860 0412 6C765F6C 		.ascii	"lv_list_set_layout\000"
 8860      6973745F 
 8860      7365745F 
 8860      6C61796F 
 8860      757400
 8861              	.LASF243:
 8862 0425 4C565F4C 		.ascii	"LV_LABEL_LONG_BREAK\000"
 8862      4142454C 
 8862      5F4C4F4E 
 8862      475F4252 
 8862      45414B00 
 8863              	.LASF3:
 8864 0439 756E7369 		.ascii	"unsigned char\000"
 8864      676E6564 
 8864      20636861 
 8864      7200
 8865              	.LASF143:
 8866 0447 4C565F53 		.ascii	"LV_SIGNAL_REFR_EXT_DRAW_PAD\000"
 8866      49474E41 
 8866      4C5F5245 
 8866      46525F45 
 8866      58545F44 
 8867              	.LASF126:
 8868 0463 64726167 		.ascii	"drag_dir\000"
 8868      5F646972 
 8868      00
 8869              	.LASF171:
 8870 046c 4C565F50 		.ascii	"LV_PROTECT_PARENT\000"
 8870      524F5445 
 8870      43545F50 
 8870      4152454E 
 8870      5400
 8871              	.LASF381:
 8872 047e 2E2E5C2E 		.ascii	"..\\..\\..\\lvgl\\version_6.1.2\\lvgl\\src\\lv_objx"
 8872      2E5C2E2E 
 8872      5C6C7667 
ARM GAS  C:\Users\tmj32\AppData\Local\Temp\ccUUfkkI.s 			page 197


 8872      6C5C7665 
 8872      7273696F 
 8873 04aa 5C6C765F 		.ascii	"\\lv_list.c\000"
 8873      6C697374 
 8873      2E6300
 8874              	.LASF274:
 8875 04b5 6B6E6F62 		.ascii	"knob_on\000"
 8875      5F6F6E00 
 8876              	.LASF26:
 8877 04bd 6F66735F 		.ascii	"ofs_x\000"
 8877      7800
 8878              	.LASF27:
 8879 04c3 6F66735F 		.ascii	"ofs_y\000"
 8879      7900
 8880              	.LASF275:
 8881 04c9 68656164 		.ascii	"header\000"
 8881      657200
 8882              	.LASF33:
 8883 04d0 5F426F6F 		.ascii	"_Bool\000"
 8883      6C00
 8884              	.LASF158:
 8885 04d6 6C765F73 		.ascii	"lv_signal_cb_t\000"
 8885      69676E61 
 8885      6C5F6362 
 8885      5F7400
 8886              	.LASF305:
 8887 04e5 7461626C 		.ascii	"table\000"
 8887      6500
 8888              	.LASF225:
 8889 04eb 6C765F70 		.ascii	"lv_page_ext_t\000"
 8889      6167655F 
 8889      6578745F 
 8889      7400
 8890              	.LASF43:
 8891 04f9 63686172 		.ascii	"char\000"
 8891      00
 8892              	.LASF49:
 8893 04fe 6C765F61 		.ascii	"lv_anim_exec_xcb_t\000"
 8893      6E696D5F 
 8893      65786563 
 8893      5F786362 
 8893      5F7400
 8894              	.LASF187:
 8895 0511 5F4C565F 		.ascii	"_LV_LAYOUT_NUM\000"
 8895      4C41594F 
 8895      55545F4E 
 8895      554D00
 8896              	.LASF241:
 8897 0520 6C765F62 		.ascii	"lv_btn_style_t\000"
 8897      746E5F73 
 8897      74796C65 
 8897      5F7400
 8898              	.LASF91:
 8899 052f 626F6479 		.ascii	"body\000"
 8899      00
 8900              	.LASF222:
 8901 0534 616E696D 		.ascii	"anim_time\000"
ARM GAS  C:\Users\tmj32\AppData\Local\Temp\ccUUfkkI.s 			page 198


 8901      5F74696D 
 8901      6500
 8902              	.LASF162:
 8903 053e 796F6673 		.ascii	"yofs\000"
 8903      00
 8904              	.LASF332:
 8905 0543 6C765F6C 		.ascii	"lv_list_remove\000"
 8905      6973745F 
 8905      72656D6F 
 8905      766500
 8906              	.LASF219:
 8907 0552 6C656674 		.ascii	"left_ip\000"
 8907      5F697000 
 8908              	.LASF362:
 8909 055a 6C765F6C 		.ascii	"lv_list_btn_single_select\000"
 8909      6973745F 
 8909      62746E5F 
 8909      73696E67 
 8909      6C655F73 
 8910              	.LASF6:
 8911 0574 5F5F7569 		.ascii	"__uint16_t\000"
 8911      6E743136 
 8911      5F7400
 8912              	.LASF324:
 8913 057f 6C765F6C 		.ascii	"lv_list_add_btn\000"
 8913      6973745F 
 8913      6164645F 
 8913      62746E00 
 8914              	.LASF280:
 8915 058f 7765656B 		.ascii	"week_box\000"
 8915      5F626F78 
 8915      00
 8916              	.LASF179:
 8917 0598 4C565F4C 		.ascii	"LV_LAYOUT_COL_L\000"
 8917      41594F55 
 8917      545F434F 
 8917      4C5F4C00 
 8918              	.LASF180:
 8919 05a8 4C565F4C 		.ascii	"LV_LAYOUT_COL_M\000"
 8919      41594F55 
 8919      545F434F 
 8919      4C5F4D00 
 8920              	.LASF246:
 8921 05b8 4C565F4C 		.ascii	"LV_LABEL_LONG_SROLL_CIRC\000"
 8921      4142454C 
 8921      5F4C4F4E 
 8921      475F5352 
 8921      4F4C4C5F 
 8922              	.LASF181:
 8923 05d1 4C565F4C 		.ascii	"LV_LAYOUT_COL_R\000"
 8923      41594F55 
 8923      545F434F 
 8923      4C5F5200 
 8924              	.LASF328:
 8925 05e1 6C697374 		.ascii	"liste\000"
 8925      6500
 8926              	.LASF237:
ARM GAS  C:\Users\tmj32\AppData\Local\Temp\ccUUfkkI.s 			page 199


 8927 05e7 4C565F42 		.ascii	"LV_BTN_STYLE_PR\000"
 8927      544E5F53 
 8927      54594C45 
 8927      5F505200 
 8928              	.LASF309:
 8929 05f7 6C765F70 		.ascii	"lv_page_set_scrl_fit2\000"
 8929      6167655F 
 8929      7365745F 
 8929      7363726C 
 8929      5F666974 
 8930              	.LASF48:
 8931 060d 6C765F61 		.ascii	"lv_anim_value_t\000"
 8931      6E696D5F 
 8931      76616C75 
 8931      655F7400 
 8932              	.LASF116:
 8933 061d 64657369 		.ascii	"design_cb\000"
 8933      676E5F63 
 8933      6200
 8934              	.LASF154:
 8935 0627 4C565F53 		.ascii	"LV_SIGNAL_DEFOCUS\000"
 8935      49474E41 
 8935      4C5F4445 
 8935      464F4355 
 8935      5300
 8936              	.LASF301:
 8937 0639 64646C69 		.ascii	"ddlist\000"
 8937      737400
 8938              	.LASF254:
 8939 0640 4C565F4C 		.ascii	"LV_LIST_STYLE_BG\000"
 8939      4953545F 
 8939      5354594C 
 8939      455F4247 
 8939      00
 8940              	.LASF367:
 8941 0651 6C765F6C 		.ascii	"lv_list_is_list_img\000"
 8941      6973745F 
 8941      69735F6C 
 8941      6973745F 
 8941      696D6700 
 8942              	.LASF54:
 8943 0665 72656164 		.ascii	"ready_cb\000"
 8943      795F6362 
 8943      00
 8944              	.LASF322:
 8945 066e 636F7079 		.ascii	"copy_img\000"
 8945      5F696D67 
 8945      00
 8946              	.LASF377:
 8947 0677 6C765F73 		.ascii	"lv_style_btn_tgl_rel\000"
 8947      74796C65 
 8947      5F62746E 
 8947      5F74676C 
 8947      5F72656C 
 8948              	.LASF92:
 8949 068c 74657874 		.ascii	"text\000"
 8949      00
ARM GAS  C:\Users\tmj32\AppData\Local\Temp\ccUUfkkI.s 			page 200


 8950              	.LASF307:
 8951 0691 6C765F63 		.ascii	"lv_cont_set_fit2\000"
 8951      6F6E745F 
 8951      7365745F 
 8951      66697432 
 8951      00
 8952              	.LASF259:
 8953 06a2 4C565F4C 		.ascii	"LV_LIST_STYLE_BTN_PR\000"
 8953      4953545F 
 8953      5354594C 
 8953      455F4254 
 8953      4E5F5052 
 8954              	.LASF93:
 8955 06b7 696D6167 		.ascii	"image\000"
 8955      6500
 8956              	.LASF89:
 8957 06bd 726F756E 		.ascii	"rounded\000"
 8957      64656400 
 8958              	.LASF121:
 8959 06c5 64726167 		.ascii	"drag_throw\000"
 8959      5F746872 
 8959      6F7700
 8960              	.LASF279:
 8961 06d0 696E6163 		.ascii	"inactive_days\000"
 8961      74697665 
 8961      5F646179 
 8961      7300
 8962              	.LASF110:
 8963 06de 6C765F62 		.ascii	"lv_bidi_dir_t\000"
 8963      6964695F 
 8963      6469725F 
 8963      7400
 8964              	.LASF131:
 8965 06ec 6578745F 		.ascii	"ext_draw_pad\000"
 8965      64726177 
 8965      5F706164 
 8965      00
 8966              	.LASF44:
 8967 06f9 6C765F61 		.ascii	"lv_area_t\000"
 8967      7265615F 
 8967      7400
 8968              	.LASF357:
 8969 0703 6C765F6C 		.ascii	"lv_list_signal\000"
 8969      6973745F 
 8969      7369676E 
 8969      616C00
 8970              	.LASF173:
 8971 0712 4C565F50 		.ascii	"LV_PROTECT_FOLLOW\000"
 8971      524F5445 
 8971      43545F46 
 8971      4F4C4C4F 
 8971      5700
 8972              	.LASF107:
 8973 0724 4C565F42 		.ascii	"LV_BIDI_DIR_INHERIT\000"
 8973      4944495F 
 8973      4449525F 
 8973      494E4845 
ARM GAS  C:\Users\tmj32\AppData\Local\Temp\ccUUfkkI.s 			page 201


 8973      52495400 
 8974              	.LASF228:
 8975 0738 4C565F50 		.ascii	"LV_PAGE_STYLE_SB\000"
 8975      4147455F 
 8975      5354594C 
 8975      455F5342 
 8975      00
 8976              	.LASF250:
 8977 0749 7374796C 		.ascii	"style_img\000"
 8977      655F696D 
 8977      6700
 8978              	.LASF211:
 8979 0753 686F725F 		.ascii	"hor_draw\000"
 8979      64726177 
 8979      00
 8980              	.LASF75:
 8981 075c 6C656674 		.ascii	"left\000"
 8981      00
 8982              	.LASF306:
 8983 0761 6C765F74 		.ascii	"lv_theme_t\000"
 8983      68656D65 
 8983      5F7400
 8984              	.LASF66:
 8985 076c 6C765F61 		.ascii	"lv_anim_ready_cb_t\000"
 8985      6E696D5F 
 8985      72656164 
 8985      795F6362 
 8985      5F7400
 8986              	.LASF321:
 8987 077f 696D675F 		.ascii	"img_src\000"
 8987      73726300 
 8988              	.LASF132:
 8989 0787 7265616C 		.ascii	"realign\000"
 8989      69676E00 
 8990              	.LASF355:
 8991 078f 6C765F6C 		.ascii	"lv_list_focus\000"
 8991      6973745F 
 8991      666F6375 
 8991      7300
 8992              	.LASF261:
 8993 079d 4C565F4C 		.ascii	"LV_LIST_STYLE_BTN_TGL_PR\000"
 8993      4953545F 
 8993      5354594C 
 8993      455F4254 
 8993      4E5F5447 
 8994              	.LASF144:
 8995 07b6 4C565F53 		.ascii	"LV_SIGNAL_GET_TYPE\000"
 8995      49474E41 
 8995      4C5F4745 
 8995      545F5459 
 8995      504500
 8996              	.LASF333:
 8997 07c9 696E6465 		.ascii	"index\000"
 8997      7800
 8998              	.LASF282:
 8999 07cf 61726561 		.ascii	"area\000"
 8999      00
ARM GAS  C:\Users\tmj32\AppData\Local\Temp\ccUUfkkI.s 			page 202


 9000              	.LASF224:
 9001 07d4 7363726F 		.ascii	"scroll_prop_ip\000"
 9001      6C6C5F70 
 9001      726F705F 
 9001      697000
 9002              	.LASF338:
 9003 07e3 62746E5F 		.ascii	"btn_style_refr\000"
 9003      7374796C 
 9003      655F7265 
 9003      667200
 9004              	.LASF215:
 9005 07f2 656E6162 		.ascii	"enabled\000"
 9005      6C656400 
 9006              	.LASF95:
 9007 07fa 6C765F73 		.ascii	"lv_style_t\000"
 9007      74796C65 
 9007      5F7400
 9008              	.LASF77:
 9009 0805 696E6E65 		.ascii	"inner\000"
 9009      7200
 9010              	.LASF337:
 9011 080b 6C765F6C 		.ascii	"lv_list_set_style\000"
 9011      6973745F 
 9011      7365745F 
 9011      7374796C 
 9011      6500
 9012              	.LASF352:
 9013 081d 655F7072 		.ascii	"e_prev\000"
 9013      657600
 9014              	.LASF67:
 9015 0824 6C765F61 		.ascii	"lv_anim_t\000"
 9015      6E696D5F 
 9015      7400
 9016              	.LASF191:
 9017 082e 4C565F46 		.ascii	"LV_FIT_FLOOD\000"
 9017      49545F46 
 9017      4C4F4F44 
 9017      00
 9018              	.LASF11:
 9019 083b 6C6F6E67 		.ascii	"long unsigned int\000"
 9019      20756E73 
 9019      69676E65 
 9019      6420696E 
 9019      7400
 9020              	.LASF372:
 9021 084d 616E6365 		.ascii	"ancestor_btn_signal\000"
 9021      73746F72 
 9021      5F62746E 
 9021      5F736967 
 9021      6E616C00 
 9022              	.LASF267:
 9023 0861 68696E74 		.ascii	"hint\000"
 9023      00
 9024              	.LASF359:
 9025 0866 70617261 		.ascii	"param\000"
 9025      6D00
 9026              	.LASF232:
ARM GAS  C:\Users\tmj32\AppData\Local\Temp\ccUUfkkI.s 			page 203


 9027 086c 4C565F42 		.ascii	"LV_BTN_STATE_TGL_REL\000"
 9027      544E5F53 
 9027      54415445 
 9027      5F54474C 
 9027      5F52454C 
 9028              	.LASF177:
 9029 0881 4C565F4C 		.ascii	"LV_LAYOUT_OFF\000"
 9029      41594F55 
 9029      545F4F46 
 9029      4600
 9030              	.LASF360:
 9031 088f 65646974 		.ascii	"editable\000"
 9031      61626C65 
 9031      00
 9032              	.LASF94:
 9033 0898 6C696E65 		.ascii	"line\000"
 9033      00
 9034              	.LASF153:
 9035 089d 4C565F53 		.ascii	"LV_SIGNAL_FOCUS\000"
 9035      49474E41 
 9035      4C5F464F 
 9035      43555300 
 9036              	.LASF291:
 9037 08ad 736C6964 		.ascii	"slider\000"
 9037      657200
 9038              	.LASF47:
 9039 08b4 6C765F61 		.ascii	"lv_anim_enable_t\000"
 9039      6E696D5F 
 9039      656E6162 
 9039      6C655F74 
 9039      00
 9040              	.LASF310:
 9041 08c5 6C765F70 		.ascii	"lv_page_set_scrl_layout\000"
 9041      6167655F 
 9041      7365745F 
 9041      7363726C 
 9041      5F6C6179 
 9042              	.LASF351:
 9043 08dd 6C765F6C 		.ascii	"lv_list_up\000"
 9043      6973745F 
 9043      757000
 9044              	.LASF156:
 9045 08e8 4C565F53 		.ascii	"LV_SIGNAL_GET_EDITABLE\000"
 9045      49474E41 
 9045      4C5F4745 
 9045      545F4544 
 9045      49544142 
 9046              	.LASF283:
 9047 08ff 6F6E656C 		.ascii	"oneline\000"
 9047      696E6500 
 9048              	.LASF323:
 9049 0907 6C765F6C 		.ascii	"lv_list_create\000"
 9049      6973745F 
 9049      63726561 
 9049      746500
 9050              	.LASF10:
 9051 0916 5F5F7569 		.ascii	"__uint32_t\000"
ARM GAS  C:\Users\tmj32\AppData\Local\Temp\ccUUfkkI.s 			page 204


 9051      6E743332 
 9051      5F7400
 9052              	.LASF114:
 9053 0921 6576656E 		.ascii	"event_cb\000"
 9053      745F6362 
 9053      00
 9054              	.LASF76:
 9055 092a 72696768 		.ascii	"right\000"
 9055      7400
 9056              	.LASF118:
 9057 0930 7374796C 		.ascii	"style_p\000"
 9057      655F7000 
 9058              	.LASF12:
 9059 0938 6C6F6E67 		.ascii	"long long int\000"
 9059      206C6F6E 
 9059      6720696E 
 9059      7400
 9060              	.LASF382:
 9061 0946 433A5C55 		.ascii	"C:\\Users\\tmj32\\Documents\\TCNJ\\Senior_Project\\"
 9061      73657273 
 9061      5C746D6A 
 9061      33325C44 
 9061      6F63756D 
 9062 0973 4F736369 		.ascii	"Oscilloscope_Senior_Project\\tcom_engineering\\embe"
 9062      6C6C6F73 
 9062      636F7065 
 9062      5F53656E 
 9062      696F725F 
 9063 09a4 645F7377 		.ascii	"d_sw\\tcom_app\\tcom_app_psoc6_lvgl6\\tcom_displ_te"
 9063      5C74636F 
 9063      6D5F6170 
 9063      705C7463 
 9063      6F6D5F61 
 9064 09d4 73745F70 		.ascii	"st_psoc6.cydsn\000"
 9064      736F6336 
 9064      2E637964 
 9064      736E00
 9065              	.LASF71:
 9066 09e3 77696474 		.ascii	"width\000"
 9066      6800
 9067              	.LASF155:
 9068 09e9 4C565F53 		.ascii	"LV_SIGNAL_CONTROL\000"
 9068      49474E41 
 9068      4C5F434F 
 9068      4E54524F 
 9068      4C00
 9069              	.LASF74:
 9070 09fb 626F7474 		.ascii	"bottom\000"
 9070      6F6D00
 9071              	.LASF112:
 9072 0a02 6368696C 		.ascii	"child_ll\000"
 9072      645F6C6C 
 9072      00
 9073              	.LASF271:
 9074 0a0b 696E6469 		.ascii	"indic\000"
 9074      6300
 9075              	.LASF129:
ARM GAS  C:\Users\tmj32\AppData\Local\Temp\ccUUfkkI.s 			page 205


 9076 0a11 70726F74 		.ascii	"protect\000"
 9076      65637400 
 9077              	.LASF201:
 9078 0a19 4C565F53 		.ascii	"LV_SB_MODE_OFF\000"
 9078      425F4D4F 
 9078      44455F4F 
 9078      464600
 9079              	.LASF330:
 9080 0a28 6C61796F 		.ascii	"layout_ver\000"
 9080      75745F76 
 9080      657200
 9081              	.LASF195:
 9082 0a33 6C61796F 		.ascii	"layout\000"
 9082      757400
 9083              	.LASF303:
 9084 0a3a 74616276 		.ascii	"tabview\000"
 9084      69657700 
 9085              	.LASF125:
 9086 0a42 70617265 		.ascii	"parent_event\000"
 9086      6E745F65 
 9086      76656E74 
 9086      00
 9087              	.LASF137:
 9088 0a4f 4C565F53 		.ascii	"LV_SIGNAL_CLEANUP\000"
 9088      49474E41 
 9088      4C5F434C 
 9088      45414E55 
 9088      5000
 9089              	.LASF163:
 9090 0a61 616C6967 		.ascii	"align\000"
 9090      6E00
 9091              	.LASF378:
 9092 0a67 6C765F73 		.ascii	"lv_style_btn_tgl_pr\000"
 9092      74796C65 
 9092      5F62746E 
 9092      5F74676C 
 9092      5F707200 
 9093              	.LASF240:
 9094 0a7b 4C565F42 		.ascii	"LV_BTN_STYLE_INA\000"
 9094      544E5F53 
 9094      54594C45 
 9094      5F494E41 
 9094      00
 9095              	.LASF90:
 9096 0a8c 676C6173 		.ascii	"glass\000"
 9096      7300
 9097              	.LASF334:
 9098 0a92 636F756E 		.ascii	"count\000"
 9098      7400
 9099              	.LASF245:
 9100 0a98 4C565F4C 		.ascii	"LV_LABEL_LONG_SROLL\000"
 9100      4142454C 
 9100      5F4C4F4E 
 9100      475F5352 
 9100      4F4C4C00 
 9101              	.LASF375:
 9102 0aac 6C765F73 		.ascii	"lv_style_btn_rel\000"
ARM GAS  C:\Users\tmj32\AppData\Local\Temp\ccUUfkkI.s 			page 206


 9102      74796C65 
 9102      5F62746E 
 9102      5F72656C 
 9102      00
 9103              	.LASF200:
 9104 0abd 6C765F63 		.ascii	"lv_cont_ext_t\000"
 9104      6F6E745F 
 9104      6578745F 
 9104      7400
 9105              	.LASF14:
 9106 0acb 756E7369 		.ascii	"unsigned int\000"
 9106      676E6564 
 9106      20696E74 
 9106      00
 9107              	.LASF138:
 9108 0ad8 4C565F53 		.ascii	"LV_SIGNAL_CHILD_CHG\000"
 9108      49474E41 
 9108      4C5F4348 
 9108      494C445F 
 9108      43484700 
 9109              	.LASF65:
 9110 0aec 6C765F61 		.ascii	"lv_anim_path_cb_t\000"
 9110      6E696D5F 
 9110      70617468 
 9110      5F63625F 
 9110      7400
 9111              	.LASF298:
 9112 0afe 6D626F78 		.ascii	"mbox\000"
 9112      00
 9113              	.LASF315:
 9114 0b03 6C765F70 		.ascii	"lv_page_get_scrl_layout\000"
 9114      6167655F 
 9114      6765745F 
 9114      7363726C 
 9114      5F6C6179 
 9115              	.LASF264:
 9116 0b1b 74676C5F 		.ascii	"tgl_rel\000"
 9116      72656C00 
 9117              	.LASF234:
 9118 0b23 4C565F42 		.ascii	"LV_BTN_STATE_INA\000"
 9118      544E5F53 
 9118      54415445 
 9118      5F494E41 
 9118      00
 9119              	.LASF164:
 9120 0b34 6175746F 		.ascii	"auto_realign\000"
 9120      5F726561 
 9120      6C69676E 
 9120      00
 9121              	.LASF308:
 9122 0b41 6C765F63 		.ascii	"lv_cont_set_fit\000"
 9122      6F6E745F 
 9122      7365745F 
 9122      66697400 
 9123              	.LASF28:
 9124 0b51 6C765F66 		.ascii	"lv_font_glyph_dsc_t\000"
 9124      6F6E745F 
ARM GAS  C:\Users\tmj32\AppData\Local\Temp\ccUUfkkI.s 			page 207


 9124      676C7970 
 9124      685F6473 
 9124      635F7400 
 9125              	.LASF251:
 9126 0b65 73697A65 		.ascii	"size\000"
 9126      00
 9127              	.LASF300:
 9128 0b6a 6C697374 		.ascii	"list\000"
 9128      00
 9129              	.LASF79:
 9130 0b6f 67726164 		.ascii	"grad_color\000"
 9130      5F636F6C 
 9130      6F7200
 9131              	.LASF196:
 9132 0b7a 6669745F 		.ascii	"fit_left\000"
 9132      6C656674 
 9132      00
 9133              	.LASF248:
 9134 0b83 70616765 		.ascii	"page\000"
 9134      00
 9135              	.LASF273:
 9136 0b88 6B6E6F62 		.ascii	"knob_off\000"
 9136      5F6F6666 
 9136      00
 9137              	.LASF293:
 9138 0b91 67617567 		.ascii	"gauge\000"
 9138      6500
 9139              	.LASF146:
 9140 0b97 4C565F53 		.ascii	"LV_SIGNAL_PRESSING\000"
 9140      49474E41 
 9140      4C5F5052 
 9140      45535349 
 9140      4E4700
 9141              	.LASF316:
 9142 0baa 6C765F6C 		.ascii	"lv_list_get_anim_time\000"
 9142      6973745F 
 9142      6765745F 
 9142      616E696D 
 9142      5F74696D 
 9143              	.LASF204:
 9144 0bc0 4C565F53 		.ascii	"LV_SB_MODE_AUTO\000"
 9144      425F4D4F 
 9144      44455F41 
 9144      55544F00 
 9145              	.LASF311:
 9146 0bd0 6C765F62 		.ascii	"lv_btn_set_layout\000"
 9146      746E5F73 
 9146      65745F6C 
 9146      61796F75 
 9146      7400
 9147              	.LASF346:
 9148 0be2 6C765F6C 		.ascii	"lv_list_get_next_btn\000"
 9148      6973745F 
 9148      6765745F 
 9148      6E657874 
 9148      5F62746E 
 9149              	.LASF202:
ARM GAS  C:\Users\tmj32\AppData\Local\Temp\ccUUfkkI.s 			page 208


 9150 0bf7 4C565F53 		.ascii	"LV_SB_MODE_ON\000"
 9150      425F4D4F 
 9150      44455F4F 
 9150      4E00
 9151              	.LASF98:
 9152 0c05 6C765F72 		.ascii	"lv_res_t\000"
 9152      65735F74 
 9152      00
 9153              	.LASF314:
 9154 0c0e 6C765F6C 		.ascii	"lv_list_set_sb_mode\000"
 9154      6973745F 
 9154      7365745F 
 9154      73625F6D 
 9154      6F646500 
 9155              	.LASF22:
 9156 0c22 6C6F6E67 		.ascii	"long double\000"
 9156      20646F75 
 9156      626C6500 
 9157              	.LASF167:
 9158 0c2e 6C765F64 		.ascii	"lv_drag_dir_t\000"
 9158      7261675F 
 9158      6469725F 
 9158      7400
 9159              	.LASF208:
 9160 0c3c 7374796C 		.ascii	"style\000"
 9160      6500
 9161              	.LASF117:
 9162 0c42 6578745F 		.ascii	"ext_attr\000"
 9162      61747472 
 9162      00
 9163              	.LASF169:
 9164 0c4b 4C565F50 		.ascii	"LV_PROTECT_NONE\000"
 9164      524F5445 
 9164      43545F4E 
 9164      4F4E4500 
 9165              	.LASF133:
 9166 0c5b 6C765F64 		.ascii	"lv_design_mode_t\000"
 9166      65736967 
 9166      6E5F6D6F 
 9166      64655F74 
 9166      00
 9167              	.LASF60:
 9168 0c6c 73756270 		.ascii	"subpx\000"
 9168      7800
 9169              	.LASF147:
 9170 0c72 4C565F53 		.ascii	"LV_SIGNAL_PRESS_LOST\000"
 9170      49474E41 
 9170      4C5F5052 
 9170      4553535F 
 9170      4C4F5354 
 9171              	.LASF152:
 9172 0c87 4C565F53 		.ascii	"LV_SIGNAL_DRAG_END\000"
 9172      49474E41 
 9172      4C5F4452 
 9172      41475F45 
 9172      4E4400
 9173              	.LASF233:
ARM GAS  C:\Users\tmj32\AppData\Local\Temp\ccUUfkkI.s 			page 209


 9174 0c9a 4C565F42 		.ascii	"LV_BTN_STATE_TGL_PR\000"
 9174      544E5F53 
 9174      54415445 
 9174      5F54474C 
 9174      5F505200 
 9175              	.LASF140:
 9176 0cae 4C565F53 		.ascii	"LV_SIGNAL_PARENT_SIZE_CHG\000"
 9176      49474E41 
 9176      4C5F5041 
 9176      52454E54 
 9176      5F53495A 
 9177              	.LASF148:
 9178 0cc8 4C565F53 		.ascii	"LV_SIGNAL_RELEASED\000"
 9178      49474E41 
 9178      4C5F5245 
 9178      4C454153 
 9178      454400
 9179              	.LASF78:
 9180 0cdb 6D61696E 		.ascii	"main_color\000"
 9180      5F636F6C 
 9180      6F7200
 9181              	.LASF0:
 9182 0ce6 5F5F696E 		.ascii	"__int8_t\000"
 9182      74385F74 
 9182      00
 9183              	.LASF157:
 9184 0cef 6C765F73 		.ascii	"lv_signal_t\000"
 9184      69676E61 
 9184      6C5F7400 
 9185              	.LASF64:
 9186 0cfb 6861735F 		.ascii	"has_run\000"
 9186      72756E00 
 9187              	.LASF231:
 9188 0d03 4C565F42 		.ascii	"LV_BTN_STATE_PR\000"
 9188      544E5F53 
 9188      54415445 
 9188      5F505200 
 9189              	.LASF13:
 9190 0d13 6C6F6E67 		.ascii	"long long unsigned int\000"
 9190      206C6F6E 
 9190      6720756E 
 9190      7369676E 
 9190      65642069 
 9191              	.LASF258:
 9192 0d2a 4C565F4C 		.ascii	"LV_LIST_STYLE_BTN_REL\000"
 9192      4953545F 
 9192      5354594C 
 9192      455F4254 
 9192      4E5F5245 
 9193              	.LASF262:
 9194 0d40 4C565F4C 		.ascii	"LV_LIST_STYLE_BTN_INA\000"
 9194      4953545F 
 9194      5354594C 
 9194      455F4254 
 9194      4E5F494E 
 9195              	.LASF175:
 9196 0d56 4C565F50 		.ascii	"LV_PROTECT_CLICK_FOCUS\000"
ARM GAS  C:\Users\tmj32\AppData\Local\Temp\ccUUfkkI.s 			page 210


 9196      524F5445 
 9196      43545F43 
 9196      4C49434B 
 9196      5F464F43 
 9197              	.LASF18:
 9198 0d6d 75696E74 		.ascii	"uint16_t\000"
 9198      31365F74 
 9198      00
 9199              	.LASF97:
 9200 0d76 4C565F52 		.ascii	"LV_RES_OK\000"
 9200      45535F4F 
 9200      4B00
 9201              	.LASF242:
 9202 0d80 4C565F4C 		.ascii	"LV_LABEL_LONG_EXPAND\000"
 9202      4142454C 
 9202      5F4C4F4E 
 9202      475F4558 
 9202      50414E44 
 9203              	.LASF353:
 9204 0d95 6E65775F 		.ascii	"new_y\000"
 9204      7900
 9205              	.LASF210:
 9206 0d9b 7665725F 		.ascii	"ver_area\000"
 9206      61726561 
 9206      00
 9207              	.LASF40:
 9208 0da4 6C765F63 		.ascii	"lv_color_t\000"
 9208      6F6C6F72 
 9208      5F7400
 9209              	.LASF349:
 9210 0daf 6C765F6C 		.ascii	"lv_list_get_layout\000"
 9210      6973745F 
 9210      6765745F 
 9210      6C61796F 
 9210      757400
 9211              	.LASF347:
 9212 0dc2 6C765F6C 		.ascii	"lv_list_get_btn_index\000"
 9212      6973745F 
 9212      6765745F 
 9212      62746E5F 
 9212      696E6465 
 9213              	.LASF108:
 9214 0dd8 4C565F42 		.ascii	"LV_BIDI_DIR_NEUTRAL\000"
 9214      4944495F 
 9214      4449525F 
 9214      4E455554 
 9214      52414C00 
 9215              	.LASF194:
 9216 0dec 6C765F66 		.ascii	"lv_fit_t\000"
 9216      69745F74 
 9216      00
 9217              	.LASF356:
 9218 0df5 616E696D 		.ascii	"anim\000"
 9218      00
 9219              	.LASF52:
 9220 0dfa 65786563 		.ascii	"exec_cb\000"
 9220      5F636200 
ARM GAS  C:\Users\tmj32\AppData\Local\Temp\ccUUfkkI.s 			page 211


 9221              	.LASF376:
 9222 0e02 6C765F73 		.ascii	"lv_style_btn_pr\000"
 9222      74796C65 
 9222      5F62746E 
 9222      5F707200 
 9223              	.LASF199:
 9224 0e12 6669745F 		.ascii	"fit_bottom\000"
 9224      626F7474 
 9224      6F6D00
 9225              	.LASF227:
 9226 0e1d 4C565F50 		.ascii	"LV_PAGE_STYLE_SCRL\000"
 9226      4147455F 
 9226      5354594C 
 9226      455F5343 
 9226      524C00
 9227              	.LASF380:
 9228 0e30 474E5520 		.ascii	"GNU C11 5.4.1 20160609 (release) [ARM/embedded-5-br"
 9228      43313120 
 9228      352E342E 
 9228      31203230 
 9228      31363036 
 9229 0e63 616E6368 		.ascii	"anch revision 237715] -mcpu=cortex-m4 -mfloat-abi=s"
 9229      20726576 
 9229      6973696F 
 9229      6E203233 
 9229      37373135 
 9230 0e96 6F667466 		.ascii	"oftfp -mfpu=fpv4-sp-d16 -mthumb -g -O0 -ffunction-s"
 9230      70202D6D 
 9230      6670753D 
 9230      66707634 
 9230      2D73702D 
 9231 0ec9 65637469 		.ascii	"ections -ffat-lto-objects\000"
 9231      6F6E7320 
 9231      2D666661 
 9231      742D6C74 
 9231      6F2D6F62 
 9232              	.LASF270:
 9233 0ee3 6465636F 		.ascii	"decor\000"
 9233      7200
 9234              	.LASF289:
 9235 0ee9 696D6762 		.ascii	"imgbtn\000"
 9235      746E00
 9236              	.LASF4:
 9237 0ef0 5F5F696E 		.ascii	"__int16_t\000"
 9237      7431365F 
 9237      7400
 9238              	.LASF287:
 9239 0efa 70616E65 		.ascii	"panel\000"
 9239      6C00
 9240              	.LASF379:
 9241 0f00 6C765F73 		.ascii	"lv_style_btn_ina\000"
 9241      74796C65 
 9241      5F62746E 
 9241      5F696E61 
 9241      00
 9242              	.LASF350:
 9243 0f11 6C765F6C 		.ascii	"lv_list_get_style\000"
ARM GAS  C:\Users\tmj32\AppData\Local\Temp\ccUUfkkI.s 			page 212


 9243      6973745F 
 9243      6765745F 
 9243      7374796C 
 9243      6500
 9244              	.LASF106:
 9245 0f23 4C565F42 		.ascii	"LV_BIDI_DIR_AUTO\000"
 9245      4944495F 
 9245      4449525F 
 9245      4155544F 
 9245      00
 9246              	.LASF38:
 9247 0f34 66756C6C 		.ascii	"full\000"
 9247      00
 9248              	.LASF216:
 9249 0f39 746F705F 		.ascii	"top_ip\000"
 9249      697000
 9250              	.LASF70:
 9251 0f40 636F6C6F 		.ascii	"color\000"
 9251      7200
 9252              	.LASF56:
 9253 0f46 74696D65 		.ascii	"time\000"
 9253      00
 9254              	.LASF87:
 9255 0f4b 6C696E65 		.ascii	"line_space\000"
 9255      5F737061 
 9255      636500
 9256              	.LASF161:
 9257 0f56 786F6673 		.ascii	"xofs\000"
 9257      00
 9258              	.LASF197:
 9259 0f5b 6669745F 		.ascii	"fit_right\000"
 9259      72696768 
 9259      7400
 9260              	.LASF365:
 9261 0f65 6C765F6C 		.ascii	"lv_list_is_list_label\000"
 9261      6973745F 
 9261      69735F6C 
 9261      6973745F 
 9261      6C616265 
 9262              	.LASF193:
 9263 0f7b 5F4C565F 		.ascii	"_LV_FIT_NUM\000"
 9263      4649545F 
 9263      4E554D00 
 9264              	.LASF168:
 9265 0f87 6C765F6F 		.ascii	"lv_obj_t\000"
 9265      626A5F74 
 9265      00
 9266              	.LASF244:
 9267 0f90 4C565F4C 		.ascii	"LV_LABEL_LONG_DOT\000"
 9267      4142454C 
 9267      5F4C4F4E 
 9267      475F444F 
 9267      5400
 9268              	.LASF186:
 9269 0fa2 4C565F4C 		.ascii	"LV_LAYOUT_GRID\000"
 9269      41594F55 
 9269      545F4752 
ARM GAS  C:\Users\tmj32\AppData\Local\Temp\ccUUfkkI.s 			page 213


 9269      494400
 9270              	.LASF69:
 9271 0fb1 6C765F73 		.ascii	"lv_shadow_type_t\000"
 9271      6861646F 
 9271      775F7479 
 9271      70655F74 
 9271      00
 9272              	.LASF120:
 9273 0fc2 64726167 		.ascii	"drag\000"
 9273      00
 9274              	.LASF374:
 9275 0fc7 6C765F73 		.ascii	"lv_style_pretty\000"
 9275      74796C65 
 9275      5F707265 
 9275      74747900 
 9276              	.LASF192:
 9277 0fd7 4C565F46 		.ascii	"LV_FIT_FILL\000"
 9277      49545F46 
 9277      494C4C00 
 9278              	.LASF253:
 9279 0fe3 6C765F6C 		.ascii	"lv_list_ext_t\000"
 9279      6973745F 
 9279      6578745F 
 9279      7400
 9280              	.LASF111:
 9281 0ff1 5F6C765F 		.ascii	"_lv_obj_t\000"
 9281      6F626A5F 
 9281      7400
 9282              	.LASF85:
 9283 0ffb 666F6E74 		.ascii	"font\000"
 9283      00
 9284              	.LASF86:
 9285 1000 6C657474 		.ascii	"letter_space\000"
 9285      65725F73 
 9285      70616365 
 9285      00
 9286              	.LASF296:
 9287 100d 63616C65 		.ascii	"calendar\000"
 9287      6E646172 
 9287      00
 9288              	.LASF127:
 9289 1016 62617365 		.ascii	"base_dir\000"
 9289      5F646972 
 9289      00
 9290              	.LASF218:
 9291 101f 72696768 		.ascii	"right_ip\000"
 9291      745F6970 
 9291      00
 9292              	.LASF170:
 9293 1028 4C565F50 		.ascii	"LV_PROTECT_CHILD_CHG\000"
 9293      524F5445 
 9293      43545F43 
 9293      48494C44 
 9293      5F434847 
 9294              	.LASF174:
 9295 103d 4C565F50 		.ascii	"LV_PROTECT_PRESS_LOST\000"
 9295      524F5445 
ARM GAS  C:\Users\tmj32\AppData\Local\Temp\ccUUfkkI.s 			page 214


 9295      43545F50 
 9295      52455353 
 9295      5F4C4F53 
 9296              	.LASF25:
 9297 1053 626F785F 		.ascii	"box_h\000"
 9297      6800
 9298              	.LASF226:
 9299 1059 4C565F50 		.ascii	"LV_PAGE_STYLE_BG\000"
 9299      4147455F 
 9299      5354594C 
 9299      455F4247 
 9299      00
 9300              	.LASF160:
 9301 106a 62617365 		.ascii	"base\000"
 9301      00
 9302              	.LASF24:
 9303 106f 626F785F 		.ascii	"box_w\000"
 9303      7700
 9304              	.LASF5:
 9305 1075 73686F72 		.ascii	"short int\000"
 9305      7420696E 
 9305      7400
 9306              	.LASF61:
 9307 107f 706C6179 		.ascii	"playback\000"
 9307      6261636B 
 9307      00
 9308              	.LASF32:
 9309 1088 62617365 		.ascii	"base_line\000"
 9309      5F6C696E 
 9309      6500
 9310              	.LASF103:
 9311 1092 6C765F6C 		.ascii	"lv_ll_t\000"
 9311      6C5F7400 
 9312              	.LASF213:
 9313 109a 6D6F6465 		.ascii	"mode\000"
 9313      00
 9314              	.LASF17:
 9315 109f 696E7431 		.ascii	"int16_t\000"
 9315      365F7400 
 9316              	.LASF336:
 9317 10a7 6C765F6C 		.ascii	"lv_list_set_single_mode\000"
 9317      6973745F 
 9317      7365745F 
 9317      73696E67 
 9317      6C655F6D 
 9318              	.LASF139:
 9319 10bf 4C565F53 		.ascii	"LV_SIGNAL_CORD_CHG\000"
 9319      49474E41 
 9319      4C5F434F 
 9319      52445F43 
 9319      484700
 9320              	.LASF113:
 9321 10d2 636F6F72 		.ascii	"coords\000"
 9321      647300
 9322              	.LASF364:
 9323 10d9 6C697374 		.ascii	"list_btn\000"
 9323      5F62746E 
ARM GAS  C:\Users\tmj32\AppData\Local\Temp\ccUUfkkI.s 			page 215


 9323      00
 9324              	.LASF348:
 9325 10e2 6C765F6C 		.ascii	"lv_list_get_size\000"
 9325      6973745F 
 9325      6765745F 
 9325      73697A65 
 9325      00
 9326              	.LASF299:
 9327 10f3 7370696E 		.ascii	"spinbox\000"
 9327      626F7800 
 9328              	.LASF257:
 9329 10fb 4C565F4C 		.ascii	"LV_LIST_STYLE_EDGE_FLASH\000"
 9329      4953545F 
 9329      5354594C 
 9329      455F4544 
 9329      47455F46 
 9330              	.LASF124:
 9331 1114 6F70615F 		.ascii	"opa_scale_en\000"
 9331      7363616C 
 9331      655F656E 
 9331      00
 9332              	.LASF277:
 9333 1121 6461795F 		.ascii	"day_names\000"
 9333      6E616D65 
 9333      7300
 9334              	.LASF371:
 9335 112b 616E6365 		.ascii	"ancestor_page_signal\000"
 9335      73746F72 
 9335      5F706167 
 9335      655F7369 
 9335      676E616C 
 9336              	.LASF82:
 9337 1140 73686164 		.ascii	"shadow\000"
 9337      6F7700
 9338              	.LASF188:
 9339 1147 6C765F6C 		.ascii	"lv_layout_t\000"
 9339      61796F75 
 9339      745F7400 
 9340              	.LASF122:
 9341 1153 64726167 		.ascii	"drag_parent\000"
 9341      5F706172 
 9341      656E7400 
 9342              	.LASF327:
 9343 115f 706F735F 		.ascii	"pos_y_ori\000"
 9343      795F6F72 
 9343      6900
 9344              	.LASF142:
 9345 1169 4C565F53 		.ascii	"LV_SIGNAL_BASE_DIR_CHG\000"
 9345      49474E41 
 9345      4C5F4241 
 9345      53455F44 
 9345      49525F43 
 9346              	.LASF57:
 9347 1180 6163745F 		.ascii	"act_time\000"
 9347      74696D65 
 9347      00
 9348              	.LASF329:
ARM GAS  C:\Users\tmj32\AppData\Local\Temp\ccUUfkkI.s 			page 216


 9349 1189 6C697374 		.ascii	"list_layout\000"
 9349      5F6C6179 
 9349      6F757400 
 9350              	.LASF256:
 9351 1195 4C565F4C 		.ascii	"LV_LIST_STYLE_SB\000"
 9351      4953545F 
 9351      5354594C 
 9351      455F5342 
 9351      00
 9352              	.LASF361:
 9353 11a6 6C765F6C 		.ascii	"lv_list_btn_signal\000"
 9353      6973745F 
 9353      62746E5F 
 9353      7369676E 
 9353      616C00
 9354              	.LASF105:
 9355 11b9 4C565F42 		.ascii	"LV_BIDI_DIR_RTL\000"
 9355      4944495F 
 9355      4449525F 
 9355      52544C00 
 9356              	.LASF286:
 9357 11c9 636F6E74 		.ascii	"content\000"
 9357      656E7400 
 9358              	.LASF83:
 9359 11d1 70616464 		.ascii	"padding\000"
 9359      696E6700 
 9360              	.LASF190:
 9361 11d9 4C565F46 		.ascii	"LV_FIT_TIGHT\000"
 9361      49545F54 
 9361      49474854 
 9361      00
 9362              	.LASF115:
 9363 11e6 7369676E 		.ascii	"signal_cb\000"
 9363      616C5F63 
 9363      6200
 9364              	.LASF341:
 9365 11f0 6C765F6C 		.ascii	"lv_list_get_btn_text\000"
 9365      6973745F 
 9365      6765745F 
 9365      62746E5F 
 9365      74657874 
 9366              	.LASF20:
 9367 1205 75696E74 		.ascii	"uint32_t\000"
 9367      33325F74 
 9367      00
 9368              	.LASF58:
 9369 120e 706C6179 		.ascii	"playback_pause\000"
 9369      6261636B 
 9369      5F706175 
 9369      736500
 9370              	.LASF318:
 9371 121d 6E65775F 		.ascii	"new_list\000"
 9371      6C697374 
 9371      00
 9372              	.LASF203:
 9373 1226 4C565F53 		.ascii	"LV_SB_MODE_DRAG\000"
 9373      425F4D4F 
ARM GAS  C:\Users\tmj32\AppData\Local\Temp\ccUUfkkI.s 			page 217


 9373      44455F44 
 9373      52414700 
 9374              	.LASF340:
 9375 1236 6C765F6C 		.ascii	"lv_list_get_single_mode\000"
 9375      6973745F 
 9375      6765745F 
 9375      73696E67 
 9375      6C655F6D 
 9376              	.LASF269:
 9377 124e 6461726B 		.ascii	"dark\000"
 9377      00
 9378              	.LASF36:
 9379 1253 67726565 		.ascii	"green\000"
 9379      6E00
 9380              	.LASF34:
 9381 1259 6C765F66 		.ascii	"lv_font_t\000"
 9381      6F6E745F 
 9381      7400
 9382              	.LASF128:
 9383 1263 72657365 		.ascii	"reserved\000"
 9383      72766564 
 9383      00
 9384              	.LASF247:
 9385 126c 4C565F4C 		.ascii	"LV_LABEL_LONG_CROP\000"
 9385      4142454C 
 9385      5F4C4F4E 
 9385      475F4352 
 9385      4F5000
 9386              	.LASF344:
 9387 127f 6C765F6C 		.ascii	"lv_list_get_prev_btn\000"
 9387      6973745F 
 9387      6765745F 
 9387      70726576 
 9387      5F62746E 
 9388              	.LASF239:
 9389 1294 4C565F42 		.ascii	"LV_BTN_STYLE_TGL_PR\000"
 9389      544E5F53 
 9389      54594C45 
 9389      5F54474C 
 9389      5F505200 
 9390              	.LASF7:
 9391 12a8 73686F72 		.ascii	"short unsigned int\000"
 9391      7420756E 
 9391      7369676E 
 9391      65642069 
 9391      6E7400
 9392              	.LASF207:
 9393 12bb 6C765F73 		.ascii	"lv_sb_mode_t\000"
 9393      625F6D6F 
 9393      64655F74 
 9393      00
 9394              	.LASF72:
 9395 12c8 70617274 		.ascii	"part\000"
 9395      00
 9396              	.LASF21:
 9397 12cd 6C765F63 		.ascii	"lv_coord_t\000"
 9397      6F6F7264 
ARM GAS  C:\Users\tmj32\AppData\Local\Temp\ccUUfkkI.s 			page 218


 9397      5F7400
 9398              	.LASF345:
 9399 12d8 70726576 		.ascii	"prev_btn\000"
 9399      5F62746E 
 9399      00
 9400              	.LASF369:
 9401 12e1 696D675F 		.ascii	"img_signal\000"
 9401      7369676E 
 9401      616C00
 9402              	.LASF217:
 9403 12ec 626F7474 		.ascii	"bottom_ip\000"
 9403      6F6D5F69 
 9403      7000
 9404              	.LASF63:
 9405 12f6 706C6179 		.ascii	"playback_now\000"
 9405      6261636B 
 9405      5F6E6F77 
 9405      00
 9406              	.LASF81:
 9407 1303 626F7264 		.ascii	"border\000"
 9407      657200
 9408              	.LASF290:
 9409 130a 6C616265 		.ascii	"label\000"
 9409      6C00
 9410              	.LASF29:
 9411 1310 6765745F 		.ascii	"get_glyph_dsc\000"
 9411      676C7970 
 9411      685F6473 
 9411      6300
 9412              	.LASF8:
 9413 131e 5F5F696E 		.ascii	"__int32_t\000"
 9413      7433325F 
 9413      7400
 9414              	.LASF68:
 9415 1328 6C765F62 		.ascii	"lv_border_part_t\000"
 9415      6F726465 
 9415      725F7061 
 9415      72745F74 
 9415      00
 9416              	.LASF373:
 9417 1339 6C765F73 		.ascii	"lv_style_transp_fit\000"
 9417      74796C65 
 9417      5F747261 
 9417      6E73705F 
 9417      66697400 
 9418              	.LASF136:
 9419 134d 6C765F65 		.ascii	"lv_event_cb_t\000"
 9419      76656E74 
 9419      5F63625F 
 9419      7400
 9420              	.LASF294:
 9421 135b 7072656C 		.ascii	"preload\000"
 9421      6F616400 
 9422              	.LASF165:
 9423 1363 6F726967 		.ascii	"origo_align\000"
 9423      6F5F616C 
 9423      69676E00 
ARM GAS  C:\Users\tmj32\AppData\Local\Temp\ccUUfkkI.s 			page 219


 9424              	.LASF238:
 9425 136f 4C565F42 		.ascii	"LV_BTN_STYLE_TGL_REL\000"
 9425      544E5F53 
 9425      54594C45 
 9425      5F54474C 
 9425      5F52454C 
 9426              	.LASF272:
 9427 1384 6B6E6F62 		.ascii	"knob\000"
 9427      00
 9428              	.LASF209:
 9429 1389 686F725F 		.ascii	"hor_area\000"
 9429      61726561 
 9429      00
 9430              	.LASF84:
 9431 1392 73656C5F 		.ascii	"sel_color\000"
 9431      636F6C6F 
 9431      7200
 9432              	.LASF50:
 9433 139c 5F6C765F 		.ascii	"_lv_font_struct\000"
 9433      666F6E74 
 9433      5F737472 
 9433      75637400 
 9434              	.LASF51:
 9435 13ac 5F6C765F 		.ascii	"_lv_anim_t\000"
 9435      616E696D 
 9435      5F7400
 9436              	.LASF100:
 9437 13b7 6E5F7369 		.ascii	"n_size\000"
 9437      7A6500
 9438              	.LASF235:
 9439 13be 5F4C565F 		.ascii	"_LV_BTN_STATE_NUM\000"
 9439      42544E5F 
 9439      53544154 
 9439      455F4E55 
 9439      4D00
 9440              	.LASF284:
 9441 13d0 63757273 		.ascii	"cursor\000"
 9441      6F7200
 9442              	.LASF176:
 9443 13d7 6C765F6F 		.ascii	"lv_obj_type_t\000"
 9443      626A5F74 
 9443      7970655F 
 9443      7400
 9444              	.LASF134:
 9445 13e5 6C765F64 		.ascii	"lv_design_cb_t\000"
 9445      65736967 
 9445      6E5F6362 
 9445      5F7400
 9446              	.LASF221:
 9447 13f4 65646765 		.ascii	"edge_flash\000"
 9447      5F666C61 
 9447      736800
 9448              	.LASF130:
 9449 13ff 6F70615F 		.ascii	"opa_scale\000"
 9449      7363616C 
 9449      6500
 9450              	.LASF312:
ARM GAS  C:\Users\tmj32\AppData\Local\Temp\ccUUfkkI.s 			page 220


 9451 1409 6C765F62 		.ascii	"lv_btn_set_fit2\000"
 9451      746E5F73 
 9451      65745F66 
 9451      69743200 
 9452              	.LASF302:
 9453 1419 726F6C6C 		.ascii	"roller\000"
 9453      657200
 9454              		.ident	"GCC: (GNU Tools for ARM Embedded Processors) 5.4.1 20160609 (release) [ARM/embedded-5-bran
