ARM GAS  C:\Users\tmj32\AppData\Local\Temp\ccAEAlZv.s 			page 1


   1              		.syntax unified
   2              		.cpu cortex-m4
   3              		.eabi_attribute 27, 1
   4              		.fpu fpv4-sp-d16
   5              		.eabi_attribute 20, 1
   6              		.eabi_attribute 21, 1
   7              		.eabi_attribute 23, 3
   8              		.eabi_attribute 24, 1
   9              		.eabi_attribute 25, 1
  10              		.eabi_attribute 26, 1
  11              		.eabi_attribute 30, 6
  12              		.eabi_attribute 34, 1
  13              		.eabi_attribute 18, 4
  14              		.thumb
  15              		.syntax unified
  16              		.file	"lv_line.c"
  17              		.text
  18              	.Ltext0:
  19              		.cfi_sections	.debug_frame
  20              		.section	.text.lv_line_get_style,"ax",%progbits
  21              		.align	2
  22              		.thumb
  23              		.thumb_func
  24              		.type	lv_line_get_style, %function
  25              	lv_line_get_style:
  26              	.LFB32:
  27              		.file 1 "..\\..\\..\\lvgl\\version_6.1.2\\lvgl\\src\\lv_objx\\lv_line.h"
   1:..\..\..\lvgl\version_6.1.2\lvgl\src\lv_objx/lv_line.h **** /**
   2:..\..\..\lvgl\version_6.1.2\lvgl\src\lv_objx/lv_line.h ****  * @file lv_line.h
   3:..\..\..\lvgl\version_6.1.2\lvgl\src\lv_objx/lv_line.h ****  *
   4:..\..\..\lvgl\version_6.1.2\lvgl\src\lv_objx/lv_line.h ****  */
   5:..\..\..\lvgl\version_6.1.2\lvgl\src\lv_objx/lv_line.h **** 
   6:..\..\..\lvgl\version_6.1.2\lvgl\src\lv_objx/lv_line.h **** #ifndef LV_LINE_H
   7:..\..\..\lvgl\version_6.1.2\lvgl\src\lv_objx/lv_line.h **** #define LV_LINE_H
   8:..\..\..\lvgl\version_6.1.2\lvgl\src\lv_objx/lv_line.h **** 
   9:..\..\..\lvgl\version_6.1.2\lvgl\src\lv_objx/lv_line.h **** #ifdef __cplusplus
  10:..\..\..\lvgl\version_6.1.2\lvgl\src\lv_objx/lv_line.h **** extern "C" {
  11:..\..\..\lvgl\version_6.1.2\lvgl\src\lv_objx/lv_line.h **** #endif
  12:..\..\..\lvgl\version_6.1.2\lvgl\src\lv_objx/lv_line.h **** 
  13:..\..\..\lvgl\version_6.1.2\lvgl\src\lv_objx/lv_line.h **** /*********************
  14:..\..\..\lvgl\version_6.1.2\lvgl\src\lv_objx/lv_line.h ****  *      INCLUDES
  15:..\..\..\lvgl\version_6.1.2\lvgl\src\lv_objx/lv_line.h ****  *********************/
  16:..\..\..\lvgl\version_6.1.2\lvgl\src\lv_objx/lv_line.h **** #ifdef LV_CONF_INCLUDE_SIMPLE
  17:..\..\..\lvgl\version_6.1.2\lvgl\src\lv_objx/lv_line.h **** #include "lv_conf.h"
  18:..\..\..\lvgl\version_6.1.2\lvgl\src\lv_objx/lv_line.h **** #else
  19:..\..\..\lvgl\version_6.1.2\lvgl\src\lv_objx/lv_line.h **** #include "../../../lv_conf.h"
  20:..\..\..\lvgl\version_6.1.2\lvgl\src\lv_objx/lv_line.h **** #endif
  21:..\..\..\lvgl\version_6.1.2\lvgl\src\lv_objx/lv_line.h **** 
  22:..\..\..\lvgl\version_6.1.2\lvgl\src\lv_objx/lv_line.h **** #if LV_USE_LINE != 0
  23:..\..\..\lvgl\version_6.1.2\lvgl\src\lv_objx/lv_line.h **** 
  24:..\..\..\lvgl\version_6.1.2\lvgl\src\lv_objx/lv_line.h **** #include "../lv_core/lv_obj.h"
  25:..\..\..\lvgl\version_6.1.2\lvgl\src\lv_objx/lv_line.h **** 
  26:..\..\..\lvgl\version_6.1.2\lvgl\src\lv_objx/lv_line.h **** /*********************
  27:..\..\..\lvgl\version_6.1.2\lvgl\src\lv_objx/lv_line.h ****  *      DEFINES
  28:..\..\..\lvgl\version_6.1.2\lvgl\src\lv_objx/lv_line.h ****  *********************/
  29:..\..\..\lvgl\version_6.1.2\lvgl\src\lv_objx/lv_line.h **** 
  30:..\..\..\lvgl\version_6.1.2\lvgl\src\lv_objx/lv_line.h **** /**********************
ARM GAS  C:\Users\tmj32\AppData\Local\Temp\ccAEAlZv.s 			page 2


  31:..\..\..\lvgl\version_6.1.2\lvgl\src\lv_objx/lv_line.h ****  *      TYPEDEFS
  32:..\..\..\lvgl\version_6.1.2\lvgl\src\lv_objx/lv_line.h ****  **********************/
  33:..\..\..\lvgl\version_6.1.2\lvgl\src\lv_objx/lv_line.h **** 
  34:..\..\..\lvgl\version_6.1.2\lvgl\src\lv_objx/lv_line.h **** /*Data of line*/
  35:..\..\..\lvgl\version_6.1.2\lvgl\src\lv_objx/lv_line.h **** typedef struct
  36:..\..\..\lvgl\version_6.1.2\lvgl\src\lv_objx/lv_line.h **** {
  37:..\..\..\lvgl\version_6.1.2\lvgl\src\lv_objx/lv_line.h ****     /*Inherited from 'base_obj' so no inherited ext.*/ /*Ext. of ancestor*/
  38:..\..\..\lvgl\version_6.1.2\lvgl\src\lv_objx/lv_line.h ****     const lv_point_t * point_array;                    /*Pointer to an array with the points of the
  39:..\..\..\lvgl\version_6.1.2\lvgl\src\lv_objx/lv_line.h ****     uint16_t point_num;                                /*Number of points in 'point_array' */
  40:..\..\..\lvgl\version_6.1.2\lvgl\src\lv_objx/lv_line.h ****     uint8_t auto_size : 1;                             /*1: set obj. width to x max and obj. height
  41:..\..\..\lvgl\version_6.1.2\lvgl\src\lv_objx/lv_line.h ****     uint8_t y_inv : 1;                                 /*1: y == 0 will be on the bottom*/
  42:..\..\..\lvgl\version_6.1.2\lvgl\src\lv_objx/lv_line.h **** } lv_line_ext_t;
  43:..\..\..\lvgl\version_6.1.2\lvgl\src\lv_objx/lv_line.h **** 
  44:..\..\..\lvgl\version_6.1.2\lvgl\src\lv_objx/lv_line.h **** /*Styles*/
  45:..\..\..\lvgl\version_6.1.2\lvgl\src\lv_objx/lv_line.h **** enum {
  46:..\..\..\lvgl\version_6.1.2\lvgl\src\lv_objx/lv_line.h ****     LV_LINE_STYLE_MAIN,
  47:..\..\..\lvgl\version_6.1.2\lvgl\src\lv_objx/lv_line.h **** };
  48:..\..\..\lvgl\version_6.1.2\lvgl\src\lv_objx/lv_line.h **** typedef uint8_t lv_line_style_t;
  49:..\..\..\lvgl\version_6.1.2\lvgl\src\lv_objx/lv_line.h **** 
  50:..\..\..\lvgl\version_6.1.2\lvgl\src\lv_objx/lv_line.h **** /**********************
  51:..\..\..\lvgl\version_6.1.2\lvgl\src\lv_objx/lv_line.h ****  * GLOBAL PROTOTYPES
  52:..\..\..\lvgl\version_6.1.2\lvgl\src\lv_objx/lv_line.h ****  **********************/
  53:..\..\..\lvgl\version_6.1.2\lvgl\src\lv_objx/lv_line.h **** 
  54:..\..\..\lvgl\version_6.1.2\lvgl\src\lv_objx/lv_line.h **** /**
  55:..\..\..\lvgl\version_6.1.2\lvgl\src\lv_objx/lv_line.h ****  * Create a line objects
  56:..\..\..\lvgl\version_6.1.2\lvgl\src\lv_objx/lv_line.h ****  * @param par pointer to an object, it will be the parent of the new line
  57:..\..\..\lvgl\version_6.1.2\lvgl\src\lv_objx/lv_line.h ****  * @return pointer to the created line
  58:..\..\..\lvgl\version_6.1.2\lvgl\src\lv_objx/lv_line.h ****  */
  59:..\..\..\lvgl\version_6.1.2\lvgl\src\lv_objx/lv_line.h **** lv_obj_t * lv_line_create(lv_obj_t * par, const lv_obj_t * copy);
  60:..\..\..\lvgl\version_6.1.2\lvgl\src\lv_objx/lv_line.h **** 
  61:..\..\..\lvgl\version_6.1.2\lvgl\src\lv_objx/lv_line.h **** /*=====================
  62:..\..\..\lvgl\version_6.1.2\lvgl\src\lv_objx/lv_line.h ****  * Setter functions
  63:..\..\..\lvgl\version_6.1.2\lvgl\src\lv_objx/lv_line.h ****  *====================*/
  64:..\..\..\lvgl\version_6.1.2\lvgl\src\lv_objx/lv_line.h **** 
  65:..\..\..\lvgl\version_6.1.2\lvgl\src\lv_objx/lv_line.h **** /**
  66:..\..\..\lvgl\version_6.1.2\lvgl\src\lv_objx/lv_line.h ****  * Set an array of points. The line object will connect these points.
  67:..\..\..\lvgl\version_6.1.2\lvgl\src\lv_objx/lv_line.h ****  * @param line pointer to a line object
  68:..\..\..\lvgl\version_6.1.2\lvgl\src\lv_objx/lv_line.h ****  * @param point_a an array of points. Only the address is saved,
  69:..\..\..\lvgl\version_6.1.2\lvgl\src\lv_objx/lv_line.h ****  * so the array can NOT be a local variable which will be destroyed
  70:..\..\..\lvgl\version_6.1.2\lvgl\src\lv_objx/lv_line.h ****  * @param point_num number of points in 'point_a'
  71:..\..\..\lvgl\version_6.1.2\lvgl\src\lv_objx/lv_line.h ****  */
  72:..\..\..\lvgl\version_6.1.2\lvgl\src\lv_objx/lv_line.h **** void lv_line_set_points(lv_obj_t * line, const lv_point_t point_a[], uint16_t point_num);
  73:..\..\..\lvgl\version_6.1.2\lvgl\src\lv_objx/lv_line.h **** 
  74:..\..\..\lvgl\version_6.1.2\lvgl\src\lv_objx/lv_line.h **** /**
  75:..\..\..\lvgl\version_6.1.2\lvgl\src\lv_objx/lv_line.h ****  * Enable (or disable) the auto-size option. The size of the object will fit to its points.
  76:..\..\..\lvgl\version_6.1.2\lvgl\src\lv_objx/lv_line.h ****  * (set width to x max and height to y max)
  77:..\..\..\lvgl\version_6.1.2\lvgl\src\lv_objx/lv_line.h ****  * @param line pointer to a line object
  78:..\..\..\lvgl\version_6.1.2\lvgl\src\lv_objx/lv_line.h ****  * @param en true: auto size is enabled, false: auto size is disabled
  79:..\..\..\lvgl\version_6.1.2\lvgl\src\lv_objx/lv_line.h ****  */
  80:..\..\..\lvgl\version_6.1.2\lvgl\src\lv_objx/lv_line.h **** void lv_line_set_auto_size(lv_obj_t * line, bool en);
  81:..\..\..\lvgl\version_6.1.2\lvgl\src\lv_objx/lv_line.h **** 
  82:..\..\..\lvgl\version_6.1.2\lvgl\src\lv_objx/lv_line.h **** /**
  83:..\..\..\lvgl\version_6.1.2\lvgl\src\lv_objx/lv_line.h ****  * Enable (or disable) the y coordinate inversion.
  84:..\..\..\lvgl\version_6.1.2\lvgl\src\lv_objx/lv_line.h ****  * If enabled then y will be subtracted from the height of the object,
  85:..\..\..\lvgl\version_6.1.2\lvgl\src\lv_objx/lv_line.h ****  * therefore the y=0 coordinate will be on the bottom.
  86:..\..\..\lvgl\version_6.1.2\lvgl\src\lv_objx/lv_line.h ****  * @param line pointer to a line object
  87:..\..\..\lvgl\version_6.1.2\lvgl\src\lv_objx/lv_line.h ****  * @param en true: enable the y inversion, false:disable the y inversion
ARM GAS  C:\Users\tmj32\AppData\Local\Temp\ccAEAlZv.s 			page 3


  88:..\..\..\lvgl\version_6.1.2\lvgl\src\lv_objx/lv_line.h ****  */
  89:..\..\..\lvgl\version_6.1.2\lvgl\src\lv_objx/lv_line.h **** void lv_line_set_y_invert(lv_obj_t * line, bool en);
  90:..\..\..\lvgl\version_6.1.2\lvgl\src\lv_objx/lv_line.h **** 
  91:..\..\..\lvgl\version_6.1.2\lvgl\src\lv_objx/lv_line.h **** #define lv_line_set_y_inv                                                                          
  92:..\..\..\lvgl\version_6.1.2\lvgl\src\lv_objx/lv_line.h ****     lv_line_set_y_invert /*The name was inconsistent. In v.6.0 only `lv_line_set_y_invert`will     
  93:..\..\..\lvgl\version_6.1.2\lvgl\src\lv_objx/lv_line.h ****                             work */
  94:..\..\..\lvgl\version_6.1.2\lvgl\src\lv_objx/lv_line.h **** 
  95:..\..\..\lvgl\version_6.1.2\lvgl\src\lv_objx/lv_line.h **** /**
  96:..\..\..\lvgl\version_6.1.2\lvgl\src\lv_objx/lv_line.h ****  * Set the style of a line
  97:..\..\..\lvgl\version_6.1.2\lvgl\src\lv_objx/lv_line.h ****  * @param line pointer to a line object
  98:..\..\..\lvgl\version_6.1.2\lvgl\src\lv_objx/lv_line.h ****  * @param type which style should be set (can be only `LV_LINE_STYLE_MAIN`)
  99:..\..\..\lvgl\version_6.1.2\lvgl\src\lv_objx/lv_line.h ****  * @param style pointer to a style
 100:..\..\..\lvgl\version_6.1.2\lvgl\src\lv_objx/lv_line.h ****  */
 101:..\..\..\lvgl\version_6.1.2\lvgl\src\lv_objx/lv_line.h **** static inline void lv_line_set_style(lv_obj_t * line, lv_line_style_t type, const lv_style_t * styl
 102:..\..\..\lvgl\version_6.1.2\lvgl\src\lv_objx/lv_line.h **** {
 103:..\..\..\lvgl\version_6.1.2\lvgl\src\lv_objx/lv_line.h ****     (void)type; /*Unused*/
 104:..\..\..\lvgl\version_6.1.2\lvgl\src\lv_objx/lv_line.h ****     lv_obj_set_style(line, style);
 105:..\..\..\lvgl\version_6.1.2\lvgl\src\lv_objx/lv_line.h **** }
 106:..\..\..\lvgl\version_6.1.2\lvgl\src\lv_objx/lv_line.h **** 
 107:..\..\..\lvgl\version_6.1.2\lvgl\src\lv_objx/lv_line.h **** /*=====================
 108:..\..\..\lvgl\version_6.1.2\lvgl\src\lv_objx/lv_line.h ****  * Getter functions
 109:..\..\..\lvgl\version_6.1.2\lvgl\src\lv_objx/lv_line.h ****  *====================*/
 110:..\..\..\lvgl\version_6.1.2\lvgl\src\lv_objx/lv_line.h **** 
 111:..\..\..\lvgl\version_6.1.2\lvgl\src\lv_objx/lv_line.h **** /**
 112:..\..\..\lvgl\version_6.1.2\lvgl\src\lv_objx/lv_line.h ****  * Get the auto size attribute
 113:..\..\..\lvgl\version_6.1.2\lvgl\src\lv_objx/lv_line.h ****  * @param line pointer to a line object
 114:..\..\..\lvgl\version_6.1.2\lvgl\src\lv_objx/lv_line.h ****  * @return true: auto size is enabled, false: disabled
 115:..\..\..\lvgl\version_6.1.2\lvgl\src\lv_objx/lv_line.h ****  */
 116:..\..\..\lvgl\version_6.1.2\lvgl\src\lv_objx/lv_line.h **** bool lv_line_get_auto_size(const lv_obj_t * line);
 117:..\..\..\lvgl\version_6.1.2\lvgl\src\lv_objx/lv_line.h **** 
 118:..\..\..\lvgl\version_6.1.2\lvgl\src\lv_objx/lv_line.h **** /**
 119:..\..\..\lvgl\version_6.1.2\lvgl\src\lv_objx/lv_line.h ****  * Get the y inversion attribute
 120:..\..\..\lvgl\version_6.1.2\lvgl\src\lv_objx/lv_line.h ****  * @param line pointer to a line object
 121:..\..\..\lvgl\version_6.1.2\lvgl\src\lv_objx/lv_line.h ****  * @return true: y inversion is enabled, false: disabled
 122:..\..\..\lvgl\version_6.1.2\lvgl\src\lv_objx/lv_line.h ****  */
 123:..\..\..\lvgl\version_6.1.2\lvgl\src\lv_objx/lv_line.h **** bool lv_line_get_y_invert(const lv_obj_t * line);
 124:..\..\..\lvgl\version_6.1.2\lvgl\src\lv_objx/lv_line.h **** 
 125:..\..\..\lvgl\version_6.1.2\lvgl\src\lv_objx/lv_line.h **** /**
 126:..\..\..\lvgl\version_6.1.2\lvgl\src\lv_objx/lv_line.h ****  * Get the style of an line object
 127:..\..\..\lvgl\version_6.1.2\lvgl\src\lv_objx/lv_line.h ****  * @param line pointer to an line object
 128:..\..\..\lvgl\version_6.1.2\lvgl\src\lv_objx/lv_line.h ****  * @param type which style should be get (can be only `LV_LINE_STYLE_MAIN`)
 129:..\..\..\lvgl\version_6.1.2\lvgl\src\lv_objx/lv_line.h ****  * @return pointer to the line's style
 130:..\..\..\lvgl\version_6.1.2\lvgl\src\lv_objx/lv_line.h ****  */
 131:..\..\..\lvgl\version_6.1.2\lvgl\src\lv_objx/lv_line.h **** static inline const lv_style_t * lv_line_get_style(const lv_obj_t * line, lv_line_style_t type)
 132:..\..\..\lvgl\version_6.1.2\lvgl\src\lv_objx/lv_line.h **** {
  28              		.loc 1 132 0
  29              		.cfi_startproc
  30              		@ args = 0, pretend = 0, frame = 8
  31              		@ frame_needed = 1, uses_anonymous_args = 0
  32 0000 80B5     		push	{r7, lr}
  33              		.cfi_def_cfa_offset 8
  34              		.cfi_offset 7, -8
  35              		.cfi_offset 14, -4
  36 0002 82B0     		sub	sp, sp, #8
  37              		.cfi_def_cfa_offset 16
  38 0004 00AF     		add	r7, sp, #0
  39              		.cfi_def_cfa_register 7
ARM GAS  C:\Users\tmj32\AppData\Local\Temp\ccAEAlZv.s 			page 4


  40 0006 7860     		str	r0, [r7, #4]
  41 0008 0B46     		mov	r3, r1
  42 000a FB70     		strb	r3, [r7, #3]
 133:..\..\..\lvgl\version_6.1.2\lvgl\src\lv_objx/lv_line.h ****     (void)type; /*Unused*/
 134:..\..\..\lvgl\version_6.1.2\lvgl\src\lv_objx/lv_line.h ****     return lv_obj_get_style(line);
  43              		.loc 1 134 0
  44 000c 7868     		ldr	r0, [r7, #4]
  45 000e FFF7FEFF 		bl	lv_obj_get_style
  46 0012 0346     		mov	r3, r0
 135:..\..\..\lvgl\version_6.1.2\lvgl\src\lv_objx/lv_line.h **** }
  47              		.loc 1 135 0
  48 0014 1846     		mov	r0, r3
  49 0016 0837     		adds	r7, r7, #8
  50              		.cfi_def_cfa_offset 8
  51 0018 BD46     		mov	sp, r7
  52              		.cfi_def_cfa_register 13
  53              		@ sp needed
  54 001a 80BD     		pop	{r7, pc}
  55              		.cfi_endproc
  56              	.LFE32:
  57              		.size	lv_line_get_style, .-lv_line_get_style
  58              		.bss
  59              		.align	2
  60              	ancestor_signal:
  61 0000 00000000 		.space	4
  62              		.section	.text.lv_line_create,"ax",%progbits
  63              		.align	2
  64              		.global	lv_line_create
  65              		.thumb
  66              		.thumb_func
  67              		.type	lv_line_create, %function
  68              	lv_line_create:
  69              	.LFB33:
  70              		.file 2 "..\\..\\..\\lvgl\\version_6.1.2\\lvgl\\src\\lv_objx\\lv_line.c"
   1:..\..\..\lvgl\version_6.1.2\lvgl\src\lv_objx/lv_line.c **** /**
   2:..\..\..\lvgl\version_6.1.2\lvgl\src\lv_objx/lv_line.c ****  * @file lv_line.c
   3:..\..\..\lvgl\version_6.1.2\lvgl\src\lv_objx/lv_line.c ****  *
   4:..\..\..\lvgl\version_6.1.2\lvgl\src\lv_objx/lv_line.c ****  */
   5:..\..\..\lvgl\version_6.1.2\lvgl\src\lv_objx/lv_line.c **** 
   6:..\..\..\lvgl\version_6.1.2\lvgl\src\lv_objx/lv_line.c **** /*********************
   7:..\..\..\lvgl\version_6.1.2\lvgl\src\lv_objx/lv_line.c ****  *      INCLUDES
   8:..\..\..\lvgl\version_6.1.2\lvgl\src\lv_objx/lv_line.c ****  *********************/
   9:..\..\..\lvgl\version_6.1.2\lvgl\src\lv_objx/lv_line.c **** #include "lv_line.h"
  10:..\..\..\lvgl\version_6.1.2\lvgl\src\lv_objx/lv_line.c **** 
  11:..\..\..\lvgl\version_6.1.2\lvgl\src\lv_objx/lv_line.c **** #if LV_USE_LINE != 0
  12:..\..\..\lvgl\version_6.1.2\lvgl\src\lv_objx/lv_line.c **** #include "../lv_core/lv_debug.h"
  13:..\..\..\lvgl\version_6.1.2\lvgl\src\lv_objx/lv_line.c **** #include "../lv_draw/lv_draw.h"
  14:..\..\..\lvgl\version_6.1.2\lvgl\src\lv_objx/lv_line.c **** #include "../lv_misc/lv_math.h"
  15:..\..\..\lvgl\version_6.1.2\lvgl\src\lv_objx/lv_line.c **** #include <stdbool.h>
  16:..\..\..\lvgl\version_6.1.2\lvgl\src\lv_objx/lv_line.c **** #include <stdint.h>
  17:..\..\..\lvgl\version_6.1.2\lvgl\src\lv_objx/lv_line.c **** #include <string.h>
  18:..\..\..\lvgl\version_6.1.2\lvgl\src\lv_objx/lv_line.c **** 
  19:..\..\..\lvgl\version_6.1.2\lvgl\src\lv_objx/lv_line.c **** /*********************
  20:..\..\..\lvgl\version_6.1.2\lvgl\src\lv_objx/lv_line.c ****  *      DEFINES
  21:..\..\..\lvgl\version_6.1.2\lvgl\src\lv_objx/lv_line.c ****  *********************/
  22:..\..\..\lvgl\version_6.1.2\lvgl\src\lv_objx/lv_line.c **** #define LV_OBJX_NAME "lv_line"
  23:..\..\..\lvgl\version_6.1.2\lvgl\src\lv_objx/lv_line.c **** 
ARM GAS  C:\Users\tmj32\AppData\Local\Temp\ccAEAlZv.s 			page 5


  24:..\..\..\lvgl\version_6.1.2\lvgl\src\lv_objx/lv_line.c **** /**********************
  25:..\..\..\lvgl\version_6.1.2\lvgl\src\lv_objx/lv_line.c ****  *      TYPEDEFS
  26:..\..\..\lvgl\version_6.1.2\lvgl\src\lv_objx/lv_line.c ****  **********************/
  27:..\..\..\lvgl\version_6.1.2\lvgl\src\lv_objx/lv_line.c **** 
  28:..\..\..\lvgl\version_6.1.2\lvgl\src\lv_objx/lv_line.c **** /**********************
  29:..\..\..\lvgl\version_6.1.2\lvgl\src\lv_objx/lv_line.c ****  *  STATIC PROTOTYPES
  30:..\..\..\lvgl\version_6.1.2\lvgl\src\lv_objx/lv_line.c ****  **********************/
  31:..\..\..\lvgl\version_6.1.2\lvgl\src\lv_objx/lv_line.c **** static bool lv_line_design(lv_obj_t * line, const lv_area_t * mask, lv_design_mode_t mode);
  32:..\..\..\lvgl\version_6.1.2\lvgl\src\lv_objx/lv_line.c **** static lv_res_t lv_line_signal(lv_obj_t * line, lv_signal_t sign, void * param);
  33:..\..\..\lvgl\version_6.1.2\lvgl\src\lv_objx/lv_line.c **** 
  34:..\..\..\lvgl\version_6.1.2\lvgl\src\lv_objx/lv_line.c **** /**********************
  35:..\..\..\lvgl\version_6.1.2\lvgl\src\lv_objx/lv_line.c ****  *  STATIC VARIABLES
  36:..\..\..\lvgl\version_6.1.2\lvgl\src\lv_objx/lv_line.c ****  **********************/
  37:..\..\..\lvgl\version_6.1.2\lvgl\src\lv_objx/lv_line.c **** static lv_signal_cb_t ancestor_signal;
  38:..\..\..\lvgl\version_6.1.2\lvgl\src\lv_objx/lv_line.c **** 
  39:..\..\..\lvgl\version_6.1.2\lvgl\src\lv_objx/lv_line.c **** /**********************
  40:..\..\..\lvgl\version_6.1.2\lvgl\src\lv_objx/lv_line.c ****  *      MACROS
  41:..\..\..\lvgl\version_6.1.2\lvgl\src\lv_objx/lv_line.c ****  **********************/
  42:..\..\..\lvgl\version_6.1.2\lvgl\src\lv_objx/lv_line.c **** 
  43:..\..\..\lvgl\version_6.1.2\lvgl\src\lv_objx/lv_line.c **** /**********************
  44:..\..\..\lvgl\version_6.1.2\lvgl\src\lv_objx/lv_line.c ****  *   GLOBAL FUNCTIONS
  45:..\..\..\lvgl\version_6.1.2\lvgl\src\lv_objx/lv_line.c ****  **********************/
  46:..\..\..\lvgl\version_6.1.2\lvgl\src\lv_objx/lv_line.c **** 
  47:..\..\..\lvgl\version_6.1.2\lvgl\src\lv_objx/lv_line.c **** /**
  48:..\..\..\lvgl\version_6.1.2\lvgl\src\lv_objx/lv_line.c ****  * Create a line objects
  49:..\..\..\lvgl\version_6.1.2\lvgl\src\lv_objx/lv_line.c ****  * @param par pointer to an object, it will be the parent of the new line
  50:..\..\..\lvgl\version_6.1.2\lvgl\src\lv_objx/lv_line.c ****  * @return pointer to the created line
  51:..\..\..\lvgl\version_6.1.2\lvgl\src\lv_objx/lv_line.c ****  */
  52:..\..\..\lvgl\version_6.1.2\lvgl\src\lv_objx/lv_line.c **** lv_obj_t * lv_line_create(lv_obj_t * par, const lv_obj_t * copy)
  53:..\..\..\lvgl\version_6.1.2\lvgl\src\lv_objx/lv_line.c **** {
  71              		.loc 2 53 0
  72              		.cfi_startproc
  73              		@ args = 0, pretend = 0, frame = 24
  74              		@ frame_needed = 1, uses_anonymous_args = 0
  75 0000 80B5     		push	{r7, lr}
  76              		.cfi_def_cfa_offset 8
  77              		.cfi_offset 7, -8
  78              		.cfi_offset 14, -4
  79 0002 86B0     		sub	sp, sp, #24
  80              		.cfi_def_cfa_offset 32
  81 0004 00AF     		add	r7, sp, #0
  82              		.cfi_def_cfa_register 7
  83 0006 7860     		str	r0, [r7, #4]
  84 0008 3960     		str	r1, [r7]
  54:..\..\..\lvgl\version_6.1.2\lvgl\src\lv_objx/lv_line.c ****     LV_LOG_TRACE("line create started");
  55:..\..\..\lvgl\version_6.1.2\lvgl\src\lv_objx/lv_line.c **** 
  56:..\..\..\lvgl\version_6.1.2\lvgl\src\lv_objx/lv_line.c ****     /*Create a basic object*/
  57:..\..\..\lvgl\version_6.1.2\lvgl\src\lv_objx/lv_line.c ****     lv_obj_t * new_line = lv_obj_create(par, copy);
  85              		.loc 2 57 0
  86 000a 3968     		ldr	r1, [r7]
  87 000c 7868     		ldr	r0, [r7, #4]
  88 000e FFF7FEFF 		bl	lv_obj_create
  89 0012 7861     		str	r0, [r7, #20]
  58:..\..\..\lvgl\version_6.1.2\lvgl\src\lv_objx/lv_line.c ****     LV_ASSERT_MEM(new_line);
  59:..\..\..\lvgl\version_6.1.2\lvgl\src\lv_objx/lv_line.c ****     if(new_line == NULL) return NULL;
  90              		.loc 2 59 0
  91 0014 7B69     		ldr	r3, [r7, #20]
ARM GAS  C:\Users\tmj32\AppData\Local\Temp\ccAEAlZv.s 			page 6


  92 0016 002B     		cmp	r3, #0
  93 0018 01D1     		bne	.L4
  94              		.loc 2 59 0 is_stmt 0 discriminator 1
  95 001a 0023     		movs	r3, #0
  96 001c 64E0     		b	.L5
  97              	.L4:
  60:..\..\..\lvgl\version_6.1.2\lvgl\src\lv_objx/lv_line.c **** 
  61:..\..\..\lvgl\version_6.1.2\lvgl\src\lv_objx/lv_line.c ****     if(ancestor_signal == NULL) ancestor_signal = lv_obj_get_signal_cb(new_line);
  98              		.loc 2 61 0 is_stmt 1
  99 001e 344B     		ldr	r3, .L10
 100 0020 1B68     		ldr	r3, [r3]
 101 0022 002B     		cmp	r3, #0
 102 0024 05D1     		bne	.L6
 103              		.loc 2 61 0 is_stmt 0 discriminator 1
 104 0026 7869     		ldr	r0, [r7, #20]
 105 0028 FFF7FEFF 		bl	lv_obj_get_signal_cb
 106 002c 0246     		mov	r2, r0
 107 002e 304B     		ldr	r3, .L10
 108 0030 1A60     		str	r2, [r3]
 109              	.L6:
  62:..\..\..\lvgl\version_6.1.2\lvgl\src\lv_objx/lv_line.c **** 
  63:..\..\..\lvgl\version_6.1.2\lvgl\src\lv_objx/lv_line.c ****     /*Extend the basic object to line object*/
  64:..\..\..\lvgl\version_6.1.2\lvgl\src\lv_objx/lv_line.c ****     lv_line_ext_t * ext = lv_obj_allocate_ext_attr(new_line, sizeof(lv_line_ext_t));
 110              		.loc 2 64 0 is_stmt 1
 111 0032 0821     		movs	r1, #8
 112 0034 7869     		ldr	r0, [r7, #20]
 113 0036 FFF7FEFF 		bl	lv_obj_allocate_ext_attr
 114 003a 3861     		str	r0, [r7, #16]
  65:..\..\..\lvgl\version_6.1.2\lvgl\src\lv_objx/lv_line.c ****     LV_ASSERT_MEM(ext);
  66:..\..\..\lvgl\version_6.1.2\lvgl\src\lv_objx/lv_line.c ****     if(ext == NULL) return NULL;
 115              		.loc 2 66 0
 116 003c 3B69     		ldr	r3, [r7, #16]
 117 003e 002B     		cmp	r3, #0
 118 0040 01D1     		bne	.L7
 119              		.loc 2 66 0 is_stmt 0 discriminator 1
 120 0042 0023     		movs	r3, #0
 121 0044 50E0     		b	.L5
 122              	.L7:
  67:..\..\..\lvgl\version_6.1.2\lvgl\src\lv_objx/lv_line.c **** 
  68:..\..\..\lvgl\version_6.1.2\lvgl\src\lv_objx/lv_line.c ****     ext->point_num   = 0;
 123              		.loc 2 68 0 is_stmt 1
 124 0046 3B69     		ldr	r3, [r7, #16]
 125 0048 0022     		movs	r2, #0
 126 004a 9A80     		strh	r2, [r3, #4]	@ movhi
  69:..\..\..\lvgl\version_6.1.2\lvgl\src\lv_objx/lv_line.c ****     ext->point_array = NULL;
 127              		.loc 2 69 0
 128 004c 3B69     		ldr	r3, [r7, #16]
 129 004e 0022     		movs	r2, #0
 130 0050 1A60     		str	r2, [r3]
  70:..\..\..\lvgl\version_6.1.2\lvgl\src\lv_objx/lv_line.c ****     ext->auto_size   = 1;
 131              		.loc 2 70 0
 132 0052 3A69     		ldr	r2, [r7, #16]
 133 0054 9379     		ldrb	r3, [r2, #6]
 134 0056 43F00103 		orr	r3, r3, #1
 135 005a 9371     		strb	r3, [r2, #6]
  71:..\..\..\lvgl\version_6.1.2\lvgl\src\lv_objx/lv_line.c ****     ext->y_inv       = 0;
 136              		.loc 2 71 0
ARM GAS  C:\Users\tmj32\AppData\Local\Temp\ccAEAlZv.s 			page 7


 137 005c 3A69     		ldr	r2, [r7, #16]
 138 005e 9379     		ldrb	r3, [r2, #6]
 139 0060 6FF34103 		bfc	r3, #1, #1
 140 0064 9371     		strb	r3, [r2, #6]
  72:..\..\..\lvgl\version_6.1.2\lvgl\src\lv_objx/lv_line.c **** 
  73:..\..\..\lvgl\version_6.1.2\lvgl\src\lv_objx/lv_line.c ****     lv_obj_set_design_cb(new_line, lv_line_design);
 141              		.loc 2 73 0
 142 0066 2349     		ldr	r1, .L10+4
 143 0068 7869     		ldr	r0, [r7, #20]
 144 006a FFF7FEFF 		bl	lv_obj_set_design_cb
  74:..\..\..\lvgl\version_6.1.2\lvgl\src\lv_objx/lv_line.c ****     lv_obj_set_signal_cb(new_line, lv_line_signal);
 145              		.loc 2 74 0
 146 006e 2249     		ldr	r1, .L10+8
 147 0070 7869     		ldr	r0, [r7, #20]
 148 0072 FFF7FEFF 		bl	lv_obj_set_signal_cb
  75:..\..\..\lvgl\version_6.1.2\lvgl\src\lv_objx/lv_line.c **** 
  76:..\..\..\lvgl\version_6.1.2\lvgl\src\lv_objx/lv_line.c ****     /*Init the new line*/
  77:..\..\..\lvgl\version_6.1.2\lvgl\src\lv_objx/lv_line.c ****     if(copy == NULL) {
 149              		.loc 2 77 0
 150 0076 3B68     		ldr	r3, [r7]
 151 0078 002B     		cmp	r3, #0
 152 007a 0DD1     		bne	.L8
  78:..\..\..\lvgl\version_6.1.2\lvgl\src\lv_objx/lv_line.c ****         lv_obj_set_size(new_line, LV_DPI,
 153              		.loc 2 78 0
 154 007c 9622     		movs	r2, #150
 155 007e 9621     		movs	r1, #150
 156 0080 7869     		ldr	r0, [r7, #20]
 157 0082 FFF7FEFF 		bl	lv_obj_set_size
  79:..\..\..\lvgl\version_6.1.2\lvgl\src\lv_objx/lv_line.c ****                         LV_DPI);          /*Auto size is enables, but set default size until no poi
  80:..\..\..\lvgl\version_6.1.2\lvgl\src\lv_objx/lv_line.c ****         lv_obj_set_style(new_line, NULL); /*Inherit parent's style*/
 158              		.loc 2 80 0
 159 0086 0021     		movs	r1, #0
 160 0088 7869     		ldr	r0, [r7, #20]
 161 008a FFF7FEFF 		bl	lv_obj_set_style
  81:..\..\..\lvgl\version_6.1.2\lvgl\src\lv_objx/lv_line.c ****         lv_obj_set_click(new_line, false);
 162              		.loc 2 81 0
 163 008e 0021     		movs	r1, #0
 164 0090 7869     		ldr	r0, [r7, #20]
 165 0092 FFF7FEFF 		bl	lv_obj_set_click
 166 0096 26E0     		b	.L9
 167              	.L8:
 168              	.LBB2:
  82:..\..\..\lvgl\version_6.1.2\lvgl\src\lv_objx/lv_line.c ****     }
  83:..\..\..\lvgl\version_6.1.2\lvgl\src\lv_objx/lv_line.c ****     /*Copy an existing object*/
  84:..\..\..\lvgl\version_6.1.2\lvgl\src\lv_objx/lv_line.c ****     else {
  85:..\..\..\lvgl\version_6.1.2\lvgl\src\lv_objx/lv_line.c ****         lv_line_ext_t * copy_ext = lv_obj_get_ext_attr(copy);
 169              		.loc 2 85 0
 170 0098 3868     		ldr	r0, [r7]
 171 009a FFF7FEFF 		bl	lv_obj_get_ext_attr
 172 009e F860     		str	r0, [r7, #12]
  86:..\..\..\lvgl\version_6.1.2\lvgl\src\lv_objx/lv_line.c ****         lv_line_set_auto_size(new_line, lv_line_get_auto_size(copy));
 173              		.loc 2 86 0
 174 00a0 3868     		ldr	r0, [r7]
 175 00a2 FFF7FEFF 		bl	lv_line_get_auto_size
 176 00a6 0346     		mov	r3, r0
 177 00a8 1946     		mov	r1, r3
 178 00aa 7869     		ldr	r0, [r7, #20]
ARM GAS  C:\Users\tmj32\AppData\Local\Temp\ccAEAlZv.s 			page 8


 179 00ac FFF7FEFF 		bl	lv_line_set_auto_size
  87:..\..\..\lvgl\version_6.1.2\lvgl\src\lv_objx/lv_line.c ****         lv_line_set_y_invert(new_line, lv_line_get_y_invert(copy));
 180              		.loc 2 87 0
 181 00b0 3868     		ldr	r0, [r7]
 182 00b2 FFF7FEFF 		bl	lv_line_get_y_invert
 183 00b6 0346     		mov	r3, r0
 184 00b8 1946     		mov	r1, r3
 185 00ba 7869     		ldr	r0, [r7, #20]
 186 00bc FFF7FEFF 		bl	lv_line_set_y_invert
  88:..\..\..\lvgl\version_6.1.2\lvgl\src\lv_objx/lv_line.c ****         lv_line_set_auto_size(new_line, lv_line_get_auto_size(copy));
 187              		.loc 2 88 0
 188 00c0 3868     		ldr	r0, [r7]
 189 00c2 FFF7FEFF 		bl	lv_line_get_auto_size
 190 00c6 0346     		mov	r3, r0
 191 00c8 1946     		mov	r1, r3
 192 00ca 7869     		ldr	r0, [r7, #20]
 193 00cc FFF7FEFF 		bl	lv_line_set_auto_size
  89:..\..\..\lvgl\version_6.1.2\lvgl\src\lv_objx/lv_line.c ****         lv_line_set_points(new_line, copy_ext->point_array, copy_ext->point_num);
 194              		.loc 2 89 0
 195 00d0 FB68     		ldr	r3, [r7, #12]
 196 00d2 1968     		ldr	r1, [r3]
 197 00d4 FB68     		ldr	r3, [r7, #12]
 198 00d6 9B88     		ldrh	r3, [r3, #4]
 199 00d8 1A46     		mov	r2, r3
 200 00da 7869     		ldr	r0, [r7, #20]
 201 00dc FFF7FEFF 		bl	lv_line_set_points
  90:..\..\..\lvgl\version_6.1.2\lvgl\src\lv_objx/lv_line.c ****         /*Refresh the style with new signal function*/
  91:..\..\..\lvgl\version_6.1.2\lvgl\src\lv_objx/lv_line.c ****         lv_obj_refresh_style(new_line);
 202              		.loc 2 91 0
 203 00e0 7869     		ldr	r0, [r7, #20]
 204 00e2 FFF7FEFF 		bl	lv_obj_refresh_style
 205              	.L9:
 206              	.LBE2:
  92:..\..\..\lvgl\version_6.1.2\lvgl\src\lv_objx/lv_line.c ****     }
  93:..\..\..\lvgl\version_6.1.2\lvgl\src\lv_objx/lv_line.c **** 
  94:..\..\..\lvgl\version_6.1.2\lvgl\src\lv_objx/lv_line.c ****     LV_LOG_INFO("line created");
  95:..\..\..\lvgl\version_6.1.2\lvgl\src\lv_objx/lv_line.c **** 
  96:..\..\..\lvgl\version_6.1.2\lvgl\src\lv_objx/lv_line.c ****     return new_line;
 207              		.loc 2 96 0
 208 00e6 7B69     		ldr	r3, [r7, #20]
 209              	.L5:
  97:..\..\..\lvgl\version_6.1.2\lvgl\src\lv_objx/lv_line.c **** }
 210              		.loc 2 97 0
 211 00e8 1846     		mov	r0, r3
 212 00ea 1837     		adds	r7, r7, #24
 213              		.cfi_def_cfa_offset 8
 214 00ec BD46     		mov	sp, r7
 215              		.cfi_def_cfa_register 13
 216              		@ sp needed
 217 00ee 80BD     		pop	{r7, pc}
 218              	.L11:
 219              		.align	2
 220              	.L10:
 221 00f0 00000000 		.word	ancestor_signal
 222 00f4 00000000 		.word	lv_line_design
 223 00f8 00000000 		.word	lv_line_signal
 224              		.cfi_endproc
ARM GAS  C:\Users\tmj32\AppData\Local\Temp\ccAEAlZv.s 			page 9


 225              	.LFE33:
 226              		.size	lv_line_create, .-lv_line_create
 227              		.section	.text.lv_line_set_points,"ax",%progbits
 228              		.align	2
 229              		.global	lv_line_set_points
 230              		.thumb
 231              		.thumb_func
 232              		.type	lv_line_set_points, %function
 233              	lv_line_set_points:
 234              	.LFB34:
  98:..\..\..\lvgl\version_6.1.2\lvgl\src\lv_objx/lv_line.c **** 
  99:..\..\..\lvgl\version_6.1.2\lvgl\src\lv_objx/lv_line.c **** /*=====================
 100:..\..\..\lvgl\version_6.1.2\lvgl\src\lv_objx/lv_line.c ****  * Setter functions
 101:..\..\..\lvgl\version_6.1.2\lvgl\src\lv_objx/lv_line.c ****  *====================*/
 102:..\..\..\lvgl\version_6.1.2\lvgl\src\lv_objx/lv_line.c **** 
 103:..\..\..\lvgl\version_6.1.2\lvgl\src\lv_objx/lv_line.c **** /**
 104:..\..\..\lvgl\version_6.1.2\lvgl\src\lv_objx/lv_line.c ****  * Set an array of points. The line object will connect these points.
 105:..\..\..\lvgl\version_6.1.2\lvgl\src\lv_objx/lv_line.c ****  * @param line pointer to a line object
 106:..\..\..\lvgl\version_6.1.2\lvgl\src\lv_objx/lv_line.c ****  * @param point_a an array of points. Only the address is saved,
 107:..\..\..\lvgl\version_6.1.2\lvgl\src\lv_objx/lv_line.c ****  * so the array can NOT be a local variable which will be destroyed
 108:..\..\..\lvgl\version_6.1.2\lvgl\src\lv_objx/lv_line.c ****  * @param point_num number of points in 'point_a'
 109:..\..\..\lvgl\version_6.1.2\lvgl\src\lv_objx/lv_line.c ****  */
 110:..\..\..\lvgl\version_6.1.2\lvgl\src\lv_objx/lv_line.c **** void lv_line_set_points(lv_obj_t * line, const lv_point_t point_a[], uint16_t point_num)
 111:..\..\..\lvgl\version_6.1.2\lvgl\src\lv_objx/lv_line.c **** {
 235              		.loc 2 111 0
 236              		.cfi_startproc
 237              		@ args = 0, pretend = 0, frame = 32
 238              		@ frame_needed = 1, uses_anonymous_args = 0
 239 0000 80B5     		push	{r7, lr}
 240              		.cfi_def_cfa_offset 8
 241              		.cfi_offset 7, -8
 242              		.cfi_offset 14, -4
 243 0002 88B0     		sub	sp, sp, #32
 244              		.cfi_def_cfa_offset 40
 245 0004 00AF     		add	r7, sp, #0
 246              		.cfi_def_cfa_register 7
 247 0006 F860     		str	r0, [r7, #12]
 248 0008 B960     		str	r1, [r7, #8]
 249 000a 1346     		mov	r3, r2
 250 000c FB80     		strh	r3, [r7, #6]	@ movhi
 112:..\..\..\lvgl\version_6.1.2\lvgl\src\lv_objx/lv_line.c ****     LV_ASSERT_OBJ(line, LV_OBJX_NAME);
 113:..\..\..\lvgl\version_6.1.2\lvgl\src\lv_objx/lv_line.c **** 
 114:..\..\..\lvgl\version_6.1.2\lvgl\src\lv_objx/lv_line.c ****     lv_line_ext_t * ext = lv_obj_get_ext_attr(line);
 251              		.loc 2 114 0
 252 000e F868     		ldr	r0, [r7, #12]
 253 0010 FFF7FEFF 		bl	lv_obj_get_ext_attr
 254 0014 7861     		str	r0, [r7, #20]
 115:..\..\..\lvgl\version_6.1.2\lvgl\src\lv_objx/lv_line.c ****     ext->point_array    = point_a;
 255              		.loc 2 115 0
 256 0016 7B69     		ldr	r3, [r7, #20]
 257 0018 BA68     		ldr	r2, [r7, #8]
 258 001a 1A60     		str	r2, [r3]
 116:..\..\..\lvgl\version_6.1.2\lvgl\src\lv_objx/lv_line.c ****     ext->point_num      = point_num;
 259              		.loc 2 116 0
 260 001c 7B69     		ldr	r3, [r7, #20]
 261 001e FA88     		ldrh	r2, [r7, #6]	@ movhi
 262 0020 9A80     		strh	r2, [r3, #4]	@ movhi
ARM GAS  C:\Users\tmj32\AppData\Local\Temp\ccAEAlZv.s 			page 10


 117:..\..\..\lvgl\version_6.1.2\lvgl\src\lv_objx/lv_line.c **** 
 118:..\..\..\lvgl\version_6.1.2\lvgl\src\lv_objx/lv_line.c ****     if(point_num > 0 && ext->auto_size != 0) {
 263              		.loc 2 118 0
 264 0022 FB88     		ldrh	r3, [r7, #6]
 265 0024 002B     		cmp	r3, #0
 266 0026 47D0     		beq	.L13
 267              		.loc 2 118 0 is_stmt 0 discriminator 1
 268 0028 7B69     		ldr	r3, [r7, #20]
 269 002a 9B79     		ldrb	r3, [r3, #6]	@ zero_extendqisi2
 270 002c 03F00103 		and	r3, r3, #1
 271 0030 DBB2     		uxtb	r3, r3
 272 0032 002B     		cmp	r3, #0
 273 0034 40D0     		beq	.L13
 274              	.LBB3:
 119:..\..\..\lvgl\version_6.1.2\lvgl\src\lv_objx/lv_line.c ****         uint16_t i;
 120:..\..\..\lvgl\version_6.1.2\lvgl\src\lv_objx/lv_line.c ****         lv_coord_t xmax = LV_COORD_MIN;
 275              		.loc 2 120 0 is_stmt 1
 276 0036 48F2E833 		movw	r3, #33768
 277 003a BB83     		strh	r3, [r7, #28]	@ movhi
 121:..\..\..\lvgl\version_6.1.2\lvgl\src\lv_objx/lv_line.c ****         lv_coord_t ymax = LV_COORD_MIN;
 278              		.loc 2 121 0
 279 003c 48F2E833 		movw	r3, #33768
 280 0040 7B83     		strh	r3, [r7, #26]	@ movhi
 122:..\..\..\lvgl\version_6.1.2\lvgl\src\lv_objx/lv_line.c ****         for(i = 0; i < point_num; i++) {
 281              		.loc 2 122 0
 282 0042 0023     		movs	r3, #0
 283 0044 FB83     		strh	r3, [r7, #30]	@ movhi
 284 0046 1AE0     		b	.L14
 285              	.L15:
 123:..\..\..\lvgl\version_6.1.2\lvgl\src\lv_objx/lv_line.c ****             xmax = LV_MATH_MAX(point_a[i].x, xmax);
 286              		.loc 2 123 0 discriminator 3
 287 0048 FB8B     		ldrh	r3, [r7, #30]
 288 004a 9B00     		lsls	r3, r3, #2
 289 004c BA68     		ldr	r2, [r7, #8]
 290 004e 1344     		add	r3, r3, r2
 291 0050 B3F90020 		ldrsh	r2, [r3]
 292 0054 B7F91C30 		ldrsh	r3, [r7, #28]
 293 0058 9342     		cmp	r3, r2
 294 005a B8BF     		it	lt
 295 005c 1346     		movlt	r3, r2
 296 005e BB83     		strh	r3, [r7, #28]	@ movhi
 124:..\..\..\lvgl\version_6.1.2\lvgl\src\lv_objx/lv_line.c ****             ymax = LV_MATH_MAX(point_a[i].y, ymax);
 297              		.loc 2 124 0 discriminator 3
 298 0060 FB8B     		ldrh	r3, [r7, #30]
 299 0062 9B00     		lsls	r3, r3, #2
 300 0064 BA68     		ldr	r2, [r7, #8]
 301 0066 1344     		add	r3, r3, r2
 302 0068 B3F90220 		ldrsh	r2, [r3, #2]
 303 006c B7F91A30 		ldrsh	r3, [r7, #26]
 304 0070 9342     		cmp	r3, r2
 305 0072 B8BF     		it	lt
 306 0074 1346     		movlt	r3, r2
 307 0076 7B83     		strh	r3, [r7, #26]	@ movhi
 122:..\..\..\lvgl\version_6.1.2\lvgl\src\lv_objx/lv_line.c ****         for(i = 0; i < point_num; i++) {
 308              		.loc 2 122 0 discriminator 3
 309 0078 FB8B     		ldrh	r3, [r7, #30]
 310 007a 0133     		adds	r3, r3, #1
ARM GAS  C:\Users\tmj32\AppData\Local\Temp\ccAEAlZv.s 			page 11


 311 007c FB83     		strh	r3, [r7, #30]	@ movhi
 312              	.L14:
 122:..\..\..\lvgl\version_6.1.2\lvgl\src\lv_objx/lv_line.c ****         for(i = 0; i < point_num; i++) {
 313              		.loc 2 122 0 is_stmt 0 discriminator 1
 314 007e FA8B     		ldrh	r2, [r7, #30]
 315 0080 FB88     		ldrh	r3, [r7, #6]
 316 0082 9A42     		cmp	r2, r3
 317 0084 E0D3     		bcc	.L15
 125:..\..\..\lvgl\version_6.1.2\lvgl\src\lv_objx/lv_line.c ****         }
 126:..\..\..\lvgl\version_6.1.2\lvgl\src\lv_objx/lv_line.c **** 
 127:..\..\..\lvgl\version_6.1.2\lvgl\src\lv_objx/lv_line.c ****         const lv_style_t * style = lv_line_get_style(line, LV_LINE_STYLE_MAIN);
 318              		.loc 2 127 0 is_stmt 1
 319 0086 0021     		movs	r1, #0
 320 0088 F868     		ldr	r0, [r7, #12]
 321 008a FFF7FEFF 		bl	lv_line_get_style
 322 008e 3861     		str	r0, [r7, #16]
 128:..\..\..\lvgl\version_6.1.2\lvgl\src\lv_objx/lv_line.c ****         lv_obj_set_size(line, xmax + style->line.width, ymax + style->line.width);
 323              		.loc 2 128 0
 324 0090 3B69     		ldr	r3, [r7, #16]
 325 0092 B3F94C30 		ldrsh	r3, [r3, #76]
 326 0096 9AB2     		uxth	r2, r3
 327 0098 BB8B     		ldrh	r3, [r7, #28]
 328 009a 1344     		add	r3, r3, r2
 329 009c 9BB2     		uxth	r3, r3
 330 009e 19B2     		sxth	r1, r3
 331 00a0 3B69     		ldr	r3, [r7, #16]
 332 00a2 B3F94C30 		ldrsh	r3, [r3, #76]
 333 00a6 9AB2     		uxth	r2, r3
 334 00a8 7B8B     		ldrh	r3, [r7, #26]
 335 00aa 1344     		add	r3, r3, r2
 336 00ac 9BB2     		uxth	r3, r3
 337 00ae 1BB2     		sxth	r3, r3
 338 00b0 1A46     		mov	r2, r3
 339 00b2 F868     		ldr	r0, [r7, #12]
 340 00b4 FFF7FEFF 		bl	lv_obj_set_size
 341              	.L13:
 342              	.LBE3:
 129:..\..\..\lvgl\version_6.1.2\lvgl\src\lv_objx/lv_line.c ****     }
 130:..\..\..\lvgl\version_6.1.2\lvgl\src\lv_objx/lv_line.c **** 
 131:..\..\..\lvgl\version_6.1.2\lvgl\src\lv_objx/lv_line.c ****     lv_obj_invalidate(line);
 343              		.loc 2 131 0
 344 00b8 F868     		ldr	r0, [r7, #12]
 345 00ba FFF7FEFF 		bl	lv_obj_invalidate
 132:..\..\..\lvgl\version_6.1.2\lvgl\src\lv_objx/lv_line.c **** }
 346              		.loc 2 132 0
 347 00be 00BF     		nop
 348 00c0 2037     		adds	r7, r7, #32
 349              		.cfi_def_cfa_offset 8
 350 00c2 BD46     		mov	sp, r7
 351              		.cfi_def_cfa_register 13
 352              		@ sp needed
 353 00c4 80BD     		pop	{r7, pc}
 354              		.cfi_endproc
 355              	.LFE34:
 356              		.size	lv_line_set_points, .-lv_line_set_points
 357 00c6 00BF     		.section	.text.lv_line_set_auto_size,"ax",%progbits
 358              		.align	2
ARM GAS  C:\Users\tmj32\AppData\Local\Temp\ccAEAlZv.s 			page 12


 359              		.global	lv_line_set_auto_size
 360              		.thumb
 361              		.thumb_func
 362              		.type	lv_line_set_auto_size, %function
 363              	lv_line_set_auto_size:
 364              	.LFB35:
 133:..\..\..\lvgl\version_6.1.2\lvgl\src\lv_objx/lv_line.c **** 
 134:..\..\..\lvgl\version_6.1.2\lvgl\src\lv_objx/lv_line.c **** /**
 135:..\..\..\lvgl\version_6.1.2\lvgl\src\lv_objx/lv_line.c ****  * Enable (or disable) the auto-size option. The size of the object will fit to its points.
 136:..\..\..\lvgl\version_6.1.2\lvgl\src\lv_objx/lv_line.c ****  * (set width to x max and height to y max)
 137:..\..\..\lvgl\version_6.1.2\lvgl\src\lv_objx/lv_line.c ****  * @param line pointer to a line object
 138:..\..\..\lvgl\version_6.1.2\lvgl\src\lv_objx/lv_line.c ****  * @param en true: auto size is enabled, false: auto size is disabled
 139:..\..\..\lvgl\version_6.1.2\lvgl\src\lv_objx/lv_line.c ****  */
 140:..\..\..\lvgl\version_6.1.2\lvgl\src\lv_objx/lv_line.c **** void lv_line_set_auto_size(lv_obj_t * line, bool en)
 141:..\..\..\lvgl\version_6.1.2\lvgl\src\lv_objx/lv_line.c **** {
 365              		.loc 2 141 0
 366              		.cfi_startproc
 367              		@ args = 0, pretend = 0, frame = 16
 368              		@ frame_needed = 1, uses_anonymous_args = 0
 369 0000 80B5     		push	{r7, lr}
 370              		.cfi_def_cfa_offset 8
 371              		.cfi_offset 7, -8
 372              		.cfi_offset 14, -4
 373 0002 84B0     		sub	sp, sp, #16
 374              		.cfi_def_cfa_offset 24
 375 0004 00AF     		add	r7, sp, #0
 376              		.cfi_def_cfa_register 7
 377 0006 7860     		str	r0, [r7, #4]
 378 0008 0B46     		mov	r3, r1
 379 000a FB70     		strb	r3, [r7, #3]
 142:..\..\..\lvgl\version_6.1.2\lvgl\src\lv_objx/lv_line.c ****     LV_ASSERT_OBJ(line, LV_OBJX_NAME);
 143:..\..\..\lvgl\version_6.1.2\lvgl\src\lv_objx/lv_line.c **** 
 144:..\..\..\lvgl\version_6.1.2\lvgl\src\lv_objx/lv_line.c ****     lv_line_ext_t * ext = lv_obj_get_ext_attr(line);
 380              		.loc 2 144 0
 381 000c 7868     		ldr	r0, [r7, #4]
 382 000e FFF7FEFF 		bl	lv_obj_get_ext_attr
 383 0012 F860     		str	r0, [r7, #12]
 145:..\..\..\lvgl\version_6.1.2\lvgl\src\lv_objx/lv_line.c ****     if(ext->auto_size == en) return;
 384              		.loc 2 145 0
 385 0014 FB68     		ldr	r3, [r7, #12]
 386 0016 9B79     		ldrb	r3, [r3, #6]
 387 0018 C3F30003 		ubfx	r3, r3, #0, #1
 388 001c DBB2     		uxtb	r3, r3
 389 001e FA78     		ldrb	r2, [r7, #3]	@ zero_extendqisi2
 390 0020 9A42     		cmp	r2, r3
 391 0022 19D0     		beq	.L21
 146:..\..\..\lvgl\version_6.1.2\lvgl\src\lv_objx/lv_line.c **** 
 147:..\..\..\lvgl\version_6.1.2\lvgl\src\lv_objx/lv_line.c ****     ext->auto_size = en == false ? 0 : 1;
 392              		.loc 2 147 0
 393 0024 FB78     		ldrb	r3, [r7, #3]
 394 0026 83F00103 		eor	r3, r3, #1
 395 002a DBB2     		uxtb	r3, r3
 396 002c 002B     		cmp	r3, #0
 397 002e 01D0     		beq	.L19
 398              		.loc 2 147 0 is_stmt 0 discriminator 1
 399 0030 0021     		movs	r1, #0
 400 0032 00E0     		b	.L20
ARM GAS  C:\Users\tmj32\AppData\Local\Temp\ccAEAlZv.s 			page 13


 401              	.L19:
 402              		.loc 2 147 0 discriminator 2
 403 0034 0121     		movs	r1, #1
 404              	.L20:
 405              		.loc 2 147 0 discriminator 4
 406 0036 FA68     		ldr	r2, [r7, #12]
 407 0038 9379     		ldrb	r3, [r2, #6]
 408 003a 61F30003 		bfi	r3, r1, #0, #1
 409 003e 9371     		strb	r3, [r2, #6]
 148:..\..\..\lvgl\version_6.1.2\lvgl\src\lv_objx/lv_line.c **** 
 149:..\..\..\lvgl\version_6.1.2\lvgl\src\lv_objx/lv_line.c ****     /*Refresh the object*/
 150:..\..\..\lvgl\version_6.1.2\lvgl\src\lv_objx/lv_line.c ****     if(en) lv_line_set_points(line, ext->point_array, ext->point_num);
 410              		.loc 2 150 0 is_stmt 1 discriminator 4
 411 0040 FB78     		ldrb	r3, [r7, #3]	@ zero_extendqisi2
 412 0042 002B     		cmp	r3, #0
 413 0044 09D0     		beq	.L16
 414              		.loc 2 150 0 is_stmt 0 discriminator 1
 415 0046 FB68     		ldr	r3, [r7, #12]
 416 0048 1968     		ldr	r1, [r3]
 417 004a FB68     		ldr	r3, [r7, #12]
 418 004c 9B88     		ldrh	r3, [r3, #4]
 419 004e 1A46     		mov	r2, r3
 420 0050 7868     		ldr	r0, [r7, #4]
 421 0052 FFF7FEFF 		bl	lv_line_set_points
 422 0056 00E0     		b	.L16
 423              	.L21:
 145:..\..\..\lvgl\version_6.1.2\lvgl\src\lv_objx/lv_line.c **** 
 424              		.loc 2 145 0 is_stmt 1
 425 0058 00BF     		nop
 426              	.L16:
 151:..\..\..\lvgl\version_6.1.2\lvgl\src\lv_objx/lv_line.c **** }
 427              		.loc 2 151 0
 428 005a 1037     		adds	r7, r7, #16
 429              		.cfi_def_cfa_offset 8
 430 005c BD46     		mov	sp, r7
 431              		.cfi_def_cfa_register 13
 432              		@ sp needed
 433 005e 80BD     		pop	{r7, pc}
 434              		.cfi_endproc
 435              	.LFE35:
 436              		.size	lv_line_set_auto_size, .-lv_line_set_auto_size
 437              		.section	.text.lv_line_set_y_invert,"ax",%progbits
 438              		.align	2
 439              		.global	lv_line_set_y_invert
 440              		.thumb
 441              		.thumb_func
 442              		.type	lv_line_set_y_invert, %function
 443              	lv_line_set_y_invert:
 444              	.LFB36:
 152:..\..\..\lvgl\version_6.1.2\lvgl\src\lv_objx/lv_line.c **** 
 153:..\..\..\lvgl\version_6.1.2\lvgl\src\lv_objx/lv_line.c **** /**
 154:..\..\..\lvgl\version_6.1.2\lvgl\src\lv_objx/lv_line.c ****  * Enable (or disable) the y coordinate inversion.
 155:..\..\..\lvgl\version_6.1.2\lvgl\src\lv_objx/lv_line.c ****  * If enabled then y will be subtracted from the height of the object,
 156:..\..\..\lvgl\version_6.1.2\lvgl\src\lv_objx/lv_line.c ****  * therefore the y=0 coordinate will be on the bottom.
 157:..\..\..\lvgl\version_6.1.2\lvgl\src\lv_objx/lv_line.c ****  * @param line pointer to a line object
 158:..\..\..\lvgl\version_6.1.2\lvgl\src\lv_objx/lv_line.c ****  * @param en true: enable the y inversion, false:disable the y inversion
 159:..\..\..\lvgl\version_6.1.2\lvgl\src\lv_objx/lv_line.c ****  */
ARM GAS  C:\Users\tmj32\AppData\Local\Temp\ccAEAlZv.s 			page 14


 160:..\..\..\lvgl\version_6.1.2\lvgl\src\lv_objx/lv_line.c **** void lv_line_set_y_invert(lv_obj_t * line, bool en)
 161:..\..\..\lvgl\version_6.1.2\lvgl\src\lv_objx/lv_line.c **** {
 445              		.loc 2 161 0
 446              		.cfi_startproc
 447              		@ args = 0, pretend = 0, frame = 16
 448              		@ frame_needed = 1, uses_anonymous_args = 0
 449 0000 80B5     		push	{r7, lr}
 450              		.cfi_def_cfa_offset 8
 451              		.cfi_offset 7, -8
 452              		.cfi_offset 14, -4
 453 0002 84B0     		sub	sp, sp, #16
 454              		.cfi_def_cfa_offset 24
 455 0004 00AF     		add	r7, sp, #0
 456              		.cfi_def_cfa_register 7
 457 0006 7860     		str	r0, [r7, #4]
 458 0008 0B46     		mov	r3, r1
 459 000a FB70     		strb	r3, [r7, #3]
 162:..\..\..\lvgl\version_6.1.2\lvgl\src\lv_objx/lv_line.c ****     LV_ASSERT_OBJ(line, LV_OBJX_NAME);
 163:..\..\..\lvgl\version_6.1.2\lvgl\src\lv_objx/lv_line.c **** 
 164:..\..\..\lvgl\version_6.1.2\lvgl\src\lv_objx/lv_line.c ****     lv_line_ext_t * ext = lv_obj_get_ext_attr(line);
 460              		.loc 2 164 0
 461 000c 7868     		ldr	r0, [r7, #4]
 462 000e FFF7FEFF 		bl	lv_obj_get_ext_attr
 463 0012 F860     		str	r0, [r7, #12]
 165:..\..\..\lvgl\version_6.1.2\lvgl\src\lv_objx/lv_line.c ****     if(ext->y_inv == en) return;
 464              		.loc 2 165 0
 465 0014 FB68     		ldr	r3, [r7, #12]
 466 0016 9B79     		ldrb	r3, [r3, #6]
 467 0018 C3F34003 		ubfx	r3, r3, #1, #1
 468 001c DBB2     		uxtb	r3, r3
 469 001e FA78     		ldrb	r2, [r7, #3]	@ zero_extendqisi2
 470 0020 9A42     		cmp	r2, r3
 471 0022 11D0     		beq	.L27
 166:..\..\..\lvgl\version_6.1.2\lvgl\src\lv_objx/lv_line.c **** 
 167:..\..\..\lvgl\version_6.1.2\lvgl\src\lv_objx/lv_line.c ****     ext->y_inv = en == false ? 0 : 1;
 472              		.loc 2 167 0
 473 0024 FB78     		ldrb	r3, [r7, #3]
 474 0026 83F00103 		eor	r3, r3, #1
 475 002a DBB2     		uxtb	r3, r3
 476 002c 002B     		cmp	r3, #0
 477 002e 01D0     		beq	.L25
 478              		.loc 2 167 0 is_stmt 0 discriminator 1
 479 0030 0021     		movs	r1, #0
 480 0032 00E0     		b	.L26
 481              	.L25:
 482              		.loc 2 167 0 discriminator 2
 483 0034 0121     		movs	r1, #1
 484              	.L26:
 485              		.loc 2 167 0 discriminator 4
 486 0036 FA68     		ldr	r2, [r7, #12]
 487 0038 9379     		ldrb	r3, [r2, #6]
 488 003a 61F34103 		bfi	r3, r1, #1, #1
 489 003e 9371     		strb	r3, [r2, #6]
 168:..\..\..\lvgl\version_6.1.2\lvgl\src\lv_objx/lv_line.c **** 
 169:..\..\..\lvgl\version_6.1.2\lvgl\src\lv_objx/lv_line.c ****     lv_obj_invalidate(line);
 490              		.loc 2 169 0 is_stmt 1 discriminator 4
 491 0040 7868     		ldr	r0, [r7, #4]
ARM GAS  C:\Users\tmj32\AppData\Local\Temp\ccAEAlZv.s 			page 15


 492 0042 FFF7FEFF 		bl	lv_obj_invalidate
 493 0046 00E0     		b	.L22
 494              	.L27:
 165:..\..\..\lvgl\version_6.1.2\lvgl\src\lv_objx/lv_line.c **** 
 495              		.loc 2 165 0
 496 0048 00BF     		nop
 497              	.L22:
 170:..\..\..\lvgl\version_6.1.2\lvgl\src\lv_objx/lv_line.c **** }
 498              		.loc 2 170 0
 499 004a 1037     		adds	r7, r7, #16
 500              		.cfi_def_cfa_offset 8
 501 004c BD46     		mov	sp, r7
 502              		.cfi_def_cfa_register 13
 503              		@ sp needed
 504 004e 80BD     		pop	{r7, pc}
 505              		.cfi_endproc
 506              	.LFE36:
 507              		.size	lv_line_set_y_invert, .-lv_line_set_y_invert
 508              		.section	.text.lv_line_get_auto_size,"ax",%progbits
 509              		.align	2
 510              		.global	lv_line_get_auto_size
 511              		.thumb
 512              		.thumb_func
 513              		.type	lv_line_get_auto_size, %function
 514              	lv_line_get_auto_size:
 515              	.LFB37:
 171:..\..\..\lvgl\version_6.1.2\lvgl\src\lv_objx/lv_line.c **** 
 172:..\..\..\lvgl\version_6.1.2\lvgl\src\lv_objx/lv_line.c **** /*=====================
 173:..\..\..\lvgl\version_6.1.2\lvgl\src\lv_objx/lv_line.c ****  * Getter functions
 174:..\..\..\lvgl\version_6.1.2\lvgl\src\lv_objx/lv_line.c ****  *====================*/
 175:..\..\..\lvgl\version_6.1.2\lvgl\src\lv_objx/lv_line.c **** 
 176:..\..\..\lvgl\version_6.1.2\lvgl\src\lv_objx/lv_line.c **** /**
 177:..\..\..\lvgl\version_6.1.2\lvgl\src\lv_objx/lv_line.c ****  * Get the auto size attribute
 178:..\..\..\lvgl\version_6.1.2\lvgl\src\lv_objx/lv_line.c ****  * @param line pointer to a line object
 179:..\..\..\lvgl\version_6.1.2\lvgl\src\lv_objx/lv_line.c ****  * @return true: auto size is enabled, false: disabled
 180:..\..\..\lvgl\version_6.1.2\lvgl\src\lv_objx/lv_line.c ****  */
 181:..\..\..\lvgl\version_6.1.2\lvgl\src\lv_objx/lv_line.c **** bool lv_line_get_auto_size(const lv_obj_t * line)
 182:..\..\..\lvgl\version_6.1.2\lvgl\src\lv_objx/lv_line.c **** {
 516              		.loc 2 182 0
 517              		.cfi_startproc
 518              		@ args = 0, pretend = 0, frame = 16
 519              		@ frame_needed = 1, uses_anonymous_args = 0
 520 0000 80B5     		push	{r7, lr}
 521              		.cfi_def_cfa_offset 8
 522              		.cfi_offset 7, -8
 523              		.cfi_offset 14, -4
 524 0002 84B0     		sub	sp, sp, #16
 525              		.cfi_def_cfa_offset 24
 526 0004 00AF     		add	r7, sp, #0
 527              		.cfi_def_cfa_register 7
 528 0006 7860     		str	r0, [r7, #4]
 183:..\..\..\lvgl\version_6.1.2\lvgl\src\lv_objx/lv_line.c ****     LV_ASSERT_OBJ(line, LV_OBJX_NAME);
 184:..\..\..\lvgl\version_6.1.2\lvgl\src\lv_objx/lv_line.c **** 
 185:..\..\..\lvgl\version_6.1.2\lvgl\src\lv_objx/lv_line.c ****     lv_line_ext_t * ext = lv_obj_get_ext_attr(line);
 529              		.loc 2 185 0
 530 0008 7868     		ldr	r0, [r7, #4]
 531 000a FFF7FEFF 		bl	lv_obj_get_ext_attr
ARM GAS  C:\Users\tmj32\AppData\Local\Temp\ccAEAlZv.s 			page 16


 532 000e F860     		str	r0, [r7, #12]
 186:..\..\..\lvgl\version_6.1.2\lvgl\src\lv_objx/lv_line.c **** 
 187:..\..\..\lvgl\version_6.1.2\lvgl\src\lv_objx/lv_line.c ****     return ext->auto_size == 0 ? false : true;
 533              		.loc 2 187 0
 534 0010 FB68     		ldr	r3, [r7, #12]
 535 0012 9B79     		ldrb	r3, [r3, #6]	@ zero_extendqisi2
 536 0014 03F00103 		and	r3, r3, #1
 537 0018 DBB2     		uxtb	r3, r3
 538 001a 002B     		cmp	r3, #0
 539 001c 14BF     		ite	ne
 540 001e 0123     		movne	r3, #1
 541 0020 0023     		moveq	r3, #0
 542 0022 DBB2     		uxtb	r3, r3
 188:..\..\..\lvgl\version_6.1.2\lvgl\src\lv_objx/lv_line.c **** }
 543              		.loc 2 188 0
 544 0024 1846     		mov	r0, r3
 545 0026 1037     		adds	r7, r7, #16
 546              		.cfi_def_cfa_offset 8
 547 0028 BD46     		mov	sp, r7
 548              		.cfi_def_cfa_register 13
 549              		@ sp needed
 550 002a 80BD     		pop	{r7, pc}
 551              		.cfi_endproc
 552              	.LFE37:
 553              		.size	lv_line_get_auto_size, .-lv_line_get_auto_size
 554              		.section	.text.lv_line_get_y_invert,"ax",%progbits
 555              		.align	2
 556              		.global	lv_line_get_y_invert
 557              		.thumb
 558              		.thumb_func
 559              		.type	lv_line_get_y_invert, %function
 560              	lv_line_get_y_invert:
 561              	.LFB38:
 189:..\..\..\lvgl\version_6.1.2\lvgl\src\lv_objx/lv_line.c **** 
 190:..\..\..\lvgl\version_6.1.2\lvgl\src\lv_objx/lv_line.c **** /**
 191:..\..\..\lvgl\version_6.1.2\lvgl\src\lv_objx/lv_line.c ****  * Get the y inversion attribute
 192:..\..\..\lvgl\version_6.1.2\lvgl\src\lv_objx/lv_line.c ****  * @param line pointer to a line object
 193:..\..\..\lvgl\version_6.1.2\lvgl\src\lv_objx/lv_line.c ****  * @return true: y inversion is enabled, false: disabled
 194:..\..\..\lvgl\version_6.1.2\lvgl\src\lv_objx/lv_line.c ****  */
 195:..\..\..\lvgl\version_6.1.2\lvgl\src\lv_objx/lv_line.c **** bool lv_line_get_y_invert(const lv_obj_t * line)
 196:..\..\..\lvgl\version_6.1.2\lvgl\src\lv_objx/lv_line.c **** {
 562              		.loc 2 196 0
 563              		.cfi_startproc
 564              		@ args = 0, pretend = 0, frame = 16
 565              		@ frame_needed = 1, uses_anonymous_args = 0
 566 0000 80B5     		push	{r7, lr}
 567              		.cfi_def_cfa_offset 8
 568              		.cfi_offset 7, -8
 569              		.cfi_offset 14, -4
 570 0002 84B0     		sub	sp, sp, #16
 571              		.cfi_def_cfa_offset 24
 572 0004 00AF     		add	r7, sp, #0
 573              		.cfi_def_cfa_register 7
 574 0006 7860     		str	r0, [r7, #4]
 197:..\..\..\lvgl\version_6.1.2\lvgl\src\lv_objx/lv_line.c ****     LV_ASSERT_OBJ(line, LV_OBJX_NAME);
 198:..\..\..\lvgl\version_6.1.2\lvgl\src\lv_objx/lv_line.c **** 
 199:..\..\..\lvgl\version_6.1.2\lvgl\src\lv_objx/lv_line.c ****     lv_line_ext_t * ext = lv_obj_get_ext_attr(line);
ARM GAS  C:\Users\tmj32\AppData\Local\Temp\ccAEAlZv.s 			page 17


 575              		.loc 2 199 0
 576 0008 7868     		ldr	r0, [r7, #4]
 577 000a FFF7FEFF 		bl	lv_obj_get_ext_attr
 578 000e F860     		str	r0, [r7, #12]
 200:..\..\..\lvgl\version_6.1.2\lvgl\src\lv_objx/lv_line.c **** 
 201:..\..\..\lvgl\version_6.1.2\lvgl\src\lv_objx/lv_line.c ****     return ext->y_inv == 0 ? false : true;
 579              		.loc 2 201 0
 580 0010 FB68     		ldr	r3, [r7, #12]
 581 0012 9B79     		ldrb	r3, [r3, #6]	@ zero_extendqisi2
 582 0014 03F00203 		and	r3, r3, #2
 583 0018 DBB2     		uxtb	r3, r3
 584 001a 002B     		cmp	r3, #0
 585 001c 14BF     		ite	ne
 586 001e 0123     		movne	r3, #1
 587 0020 0023     		moveq	r3, #0
 588 0022 DBB2     		uxtb	r3, r3
 202:..\..\..\lvgl\version_6.1.2\lvgl\src\lv_objx/lv_line.c **** }
 589              		.loc 2 202 0
 590 0024 1846     		mov	r0, r3
 591 0026 1037     		adds	r7, r7, #16
 592              		.cfi_def_cfa_offset 8
 593 0028 BD46     		mov	sp, r7
 594              		.cfi_def_cfa_register 13
 595              		@ sp needed
 596 002a 80BD     		pop	{r7, pc}
 597              		.cfi_endproc
 598              	.LFE38:
 599              		.size	lv_line_get_y_invert, .-lv_line_get_y_invert
 600              		.section	.text.lv_line_design,"ax",%progbits
 601              		.align	2
 602              		.thumb
 603              		.thumb_func
 604              		.type	lv_line_design, %function
 605              	lv_line_design:
 606              	.LFB39:
 203:..\..\..\lvgl\version_6.1.2\lvgl\src\lv_objx/lv_line.c **** 
 204:..\..\..\lvgl\version_6.1.2\lvgl\src\lv_objx/lv_line.c **** /**********************
 205:..\..\..\lvgl\version_6.1.2\lvgl\src\lv_objx/lv_line.c ****  *   STATIC FUNCTIONS
 206:..\..\..\lvgl\version_6.1.2\lvgl\src\lv_objx/lv_line.c ****  **********************/
 207:..\..\..\lvgl\version_6.1.2\lvgl\src\lv_objx/lv_line.c **** 
 208:..\..\..\lvgl\version_6.1.2\lvgl\src\lv_objx/lv_line.c **** /**
 209:..\..\..\lvgl\version_6.1.2\lvgl\src\lv_objx/lv_line.c ****  * Handle the drawing related tasks of the lines
 210:..\..\..\lvgl\version_6.1.2\lvgl\src\lv_objx/lv_line.c ****  * @param line pointer to an object
 211:..\..\..\lvgl\version_6.1.2\lvgl\src\lv_objx/lv_line.c ****  * @param mask the object will be drawn only in this area
 212:..\..\..\lvgl\version_6.1.2\lvgl\src\lv_objx/lv_line.c ****  * @param mode LV_DESIGN_COVER_CHK: only check if the object fully covers the 'mask_p' area
 213:..\..\..\lvgl\version_6.1.2\lvgl\src\lv_objx/lv_line.c ****  *                                  (return 'true' if yes)
 214:..\..\..\lvgl\version_6.1.2\lvgl\src\lv_objx/lv_line.c ****  *             LV_DESIGN_DRAW: draw the object (always return 'true')
 215:..\..\..\lvgl\version_6.1.2\lvgl\src\lv_objx/lv_line.c ****  *             LV_DESIGN_DRAW_POST: drawing after every children are drawn
 216:..\..\..\lvgl\version_6.1.2\lvgl\src\lv_objx/lv_line.c ****  * @param return true/false, depends on 'mode'
 217:..\..\..\lvgl\version_6.1.2\lvgl\src\lv_objx/lv_line.c ****  */
 218:..\..\..\lvgl\version_6.1.2\lvgl\src\lv_objx/lv_line.c **** static bool lv_line_design(lv_obj_t * line, const lv_area_t * mask, lv_design_mode_t mode)
 219:..\..\..\lvgl\version_6.1.2\lvgl\src\lv_objx/lv_line.c **** {
 607              		.loc 2 219 0
 608              		.cfi_startproc
 609              		@ args = 0, pretend = 0, frame = 144
 610              		@ frame_needed = 1, uses_anonymous_args = 0
 611 0000 80B5     		push	{r7, lr}
ARM GAS  C:\Users\tmj32\AppData\Local\Temp\ccAEAlZv.s 			page 18


 612              		.cfi_def_cfa_offset 8
 613              		.cfi_offset 7, -8
 614              		.cfi_offset 14, -4
 615 0002 A6B0     		sub	sp, sp, #152
 616              		.cfi_def_cfa_offset 160
 617 0004 02AF     		add	r7, sp, #8
 618              		.cfi_def_cfa 7, 152
 619 0006 F860     		str	r0, [r7, #12]
 620 0008 B960     		str	r1, [r7, #8]
 621 000a 1346     		mov	r3, r2
 622 000c FB71     		strb	r3, [r7, #7]
 220:..\..\..\lvgl\version_6.1.2\lvgl\src\lv_objx/lv_line.c ****     /*A line never covers an area*/
 221:..\..\..\lvgl\version_6.1.2\lvgl\src\lv_objx/lv_line.c ****     if(mode == LV_DESIGN_COVER_CHK)
 623              		.loc 2 221 0
 624 000e FB79     		ldrb	r3, [r7, #7]	@ zero_extendqisi2
 625 0010 022B     		cmp	r3, #2
 626 0012 01D1     		bne	.L33
 222:..\..\..\lvgl\version_6.1.2\lvgl\src\lv_objx/lv_line.c ****         return false;
 627              		.loc 2 222 0
 628 0014 0023     		movs	r3, #0
 629 0016 B9E1     		b	.L34
 630              	.L33:
 223:..\..\..\lvgl\version_6.1.2\lvgl\src\lv_objx/lv_line.c ****     else if(mode == LV_DESIGN_DRAW_MAIN) {
 631              		.loc 2 223 0
 632 0018 FB79     		ldrb	r3, [r7, #7]	@ zero_extendqisi2
 633 001a 002B     		cmp	r3, #0
 634 001c 40F0B581 		bne	.L35
 635              	.LBB4:
 224:..\..\..\lvgl\version_6.1.2\lvgl\src\lv_objx/lv_line.c ****         lv_line_ext_t * ext = lv_obj_get_ext_attr(line);
 636              		.loc 2 224 0
 637 0020 F868     		ldr	r0, [r7, #12]
 638 0022 FFF7FEFF 		bl	lv_obj_get_ext_attr
 639 0026 C7F88800 		str	r0, [r7, #136]
 225:..\..\..\lvgl\version_6.1.2\lvgl\src\lv_objx/lv_line.c **** 
 226:..\..\..\lvgl\version_6.1.2\lvgl\src\lv_objx/lv_line.c ****         if(ext->point_num == 0 || ext->point_array == NULL) return false;
 640              		.loc 2 226 0
 641 002a D7F88830 		ldr	r3, [r7, #136]
 642 002e 9B88     		ldrh	r3, [r3, #4]
 643 0030 002B     		cmp	r3, #0
 644 0032 04D0     		beq	.L36
 645              		.loc 2 226 0 is_stmt 0 discriminator 2
 646 0034 D7F88830 		ldr	r3, [r7, #136]
 647 0038 1B68     		ldr	r3, [r3]
 648 003a 002B     		cmp	r3, #0
 649 003c 01D1     		bne	.L37
 650              	.L36:
 651              		.loc 2 226 0 discriminator 3
 652 003e 0023     		movs	r3, #0
 653 0040 A4E1     		b	.L34
 654              	.L37:
 227:..\..\..\lvgl\version_6.1.2\lvgl\src\lv_objx/lv_line.c **** 
 228:..\..\..\lvgl\version_6.1.2\lvgl\src\lv_objx/lv_line.c ****         const lv_style_t * style = lv_obj_get_style(line);
 655              		.loc 2 228 0 is_stmt 1
 656 0042 F868     		ldr	r0, [r7, #12]
 657 0044 FFF7FEFF 		bl	lv_obj_get_style
 658 0048 C7F88400 		str	r0, [r7, #132]
 229:..\..\..\lvgl\version_6.1.2\lvgl\src\lv_objx/lv_line.c ****         lv_opa_t opa_scale       = lv_obj_get_opa_scale(line);
ARM GAS  C:\Users\tmj32\AppData\Local\Temp\ccAEAlZv.s 			page 19


 659              		.loc 2 229 0
 660 004c F868     		ldr	r0, [r7, #12]
 661 004e FFF7FEFF 		bl	lv_obj_get_opa_scale
 662 0052 0346     		mov	r3, r0
 663 0054 87F88330 		strb	r3, [r7, #131]
 230:..\..\..\lvgl\version_6.1.2\lvgl\src\lv_objx/lv_line.c ****         lv_area_t area;
 231:..\..\..\lvgl\version_6.1.2\lvgl\src\lv_objx/lv_line.c ****         lv_obj_get_coords(line, &area);
 664              		.loc 2 231 0
 665 0058 07F17403 		add	r3, r7, #116
 666 005c 1946     		mov	r1, r3
 667 005e F868     		ldr	r0, [r7, #12]
 668 0060 FFF7FEFF 		bl	lv_obj_get_coords
 232:..\..\..\lvgl\version_6.1.2\lvgl\src\lv_objx/lv_line.c ****         lv_coord_t x_ofs = area.x1;
 669              		.loc 2 232 0
 670 0064 B7F87430 		ldrh	r3, [r7, #116]	@ movhi
 671 0068 A7F88030 		strh	r3, [r7, #128]	@ movhi
 233:..\..\..\lvgl\version_6.1.2\lvgl\src\lv_objx/lv_line.c ****         lv_coord_t y_ofs = area.y1;
 672              		.loc 2 233 0
 673 006c B7F87630 		ldrh	r3, [r7, #118]	@ movhi
 674 0070 A7F87E30 		strh	r3, [r7, #126]	@ movhi
 234:..\..\..\lvgl\version_6.1.2\lvgl\src\lv_objx/lv_line.c ****         lv_point_t p1;
 235:..\..\..\lvgl\version_6.1.2\lvgl\src\lv_objx/lv_line.c ****         lv_point_t p2;
 236:..\..\..\lvgl\version_6.1.2\lvgl\src\lv_objx/lv_line.c ****         lv_coord_t h = lv_obj_get_height(line);
 675              		.loc 2 236 0
 676 0074 F868     		ldr	r0, [r7, #12]
 677 0076 FFF7FEFF 		bl	lv_obj_get_height
 678 007a 0346     		mov	r3, r0
 679 007c A7F87C30 		strh	r3, [r7, #124]	@ movhi
 237:..\..\..\lvgl\version_6.1.2\lvgl\src\lv_objx/lv_line.c ****         uint16_t i;
 238:..\..\..\lvgl\version_6.1.2\lvgl\src\lv_objx/lv_line.c **** 
 239:..\..\..\lvgl\version_6.1.2\lvgl\src\lv_objx/lv_line.c ****         lv_style_t circle_style_tmp; /*If rounded...*/
 240:..\..\..\lvgl\version_6.1.2\lvgl\src\lv_objx/lv_line.c ****         if(style->line.rounded) {
 680              		.loc 2 240 0
 681 0080 D7F88430 		ldr	r3, [r7, #132]
 682 0084 93F84F30 		ldrb	r3, [r3, #79]	@ zero_extendqisi2
 683 0088 03F00103 		and	r3, r3, #1
 684 008c DBB2     		uxtb	r3, r3
 685 008e 002B     		cmp	r3, #0
 686 0090 17D0     		beq	.L38
 241:..\..\..\lvgl\version_6.1.2\lvgl\src\lv_objx/lv_line.c ****             lv_style_copy(&circle_style_tmp, style);
 687              		.loc 2 241 0
 688 0092 07F11403 		add	r3, r7, #20
 689 0096 D7F88410 		ldr	r1, [r7, #132]
 690 009a 1846     		mov	r0, r3
 691 009c FFF7FEFF 		bl	lv_style_copy
 242:..\..\..\lvgl\version_6.1.2\lvgl\src\lv_objx/lv_line.c ****             circle_style_tmp.body.radius     = LV_RADIUS_CIRCLE;
 692              		.loc 2 242 0
 693 00a0 47F61843 		movw	r3, #31768
 694 00a4 3B84     		strh	r3, [r7, #32]	@ movhi
 243:..\..\..\lvgl\version_6.1.2\lvgl\src\lv_objx/lv_line.c ****             circle_style_tmp.body.main_color = style->line.color;
 695              		.loc 2 243 0
 696 00a6 D7F88430 		ldr	r3, [r7, #132]
 697 00aa 9B6C     		ldr	r3, [r3, #72]
 698 00ac BB61     		str	r3, [r7, #24]
 244:..\..\..\lvgl\version_6.1.2\lvgl\src\lv_objx/lv_line.c ****             circle_style_tmp.body.grad_color = style->line.color;
 699              		.loc 2 244 0
 700 00ae D7F88430 		ldr	r3, [r7, #132]
ARM GAS  C:\Users\tmj32\AppData\Local\Temp\ccAEAlZv.s 			page 20


 701 00b2 9B6C     		ldr	r3, [r3, #72]
 702 00b4 FB61     		str	r3, [r7, #28]
 245:..\..\..\lvgl\version_6.1.2\lvgl\src\lv_objx/lv_line.c ****             circle_style_tmp.body.opa        = style->line.opa;
 703              		.loc 2 245 0
 704 00b6 D7F88430 		ldr	r3, [r7, #132]
 705 00ba 93F84E30 		ldrb	r3, [r3, #78]	@ zero_extendqisi2
 706 00be 87F82230 		strb	r3, [r7, #34]
 707              	.L38:
 246:..\..\..\lvgl\version_6.1.2\lvgl\src\lv_objx/lv_line.c ****         }
 247:..\..\..\lvgl\version_6.1.2\lvgl\src\lv_objx/lv_line.c ****         lv_area_t circle_area;
 248:..\..\..\lvgl\version_6.1.2\lvgl\src\lv_objx/lv_line.c **** 
 249:..\..\..\lvgl\version_6.1.2\lvgl\src\lv_objx/lv_line.c ****         /*Read all points and draw the lines*/
 250:..\..\..\lvgl\version_6.1.2\lvgl\src\lv_objx/lv_line.c ****         for(i = 0; i < ext->point_num - 1; i++) {
 708              		.loc 2 250 0
 709 00c2 0023     		movs	r3, #0
 710 00c4 A7F88E30 		strh	r3, [r7, #142]	@ movhi
 711 00c8 F0E0     		b	.L39
 712              	.L43:
 251:..\..\..\lvgl\version_6.1.2\lvgl\src\lv_objx/lv_line.c **** 
 252:..\..\..\lvgl\version_6.1.2\lvgl\src\lv_objx/lv_line.c ****             p1.x = ext->point_array[i].x + x_ofs;
 713              		.loc 2 252 0
 714 00ca D7F88830 		ldr	r3, [r7, #136]
 715 00ce 1A68     		ldr	r2, [r3]
 716 00d0 B7F88E30 		ldrh	r3, [r7, #142]
 717 00d4 9B00     		lsls	r3, r3, #2
 718 00d6 1344     		add	r3, r3, r2
 719 00d8 B3F90030 		ldrsh	r3, [r3]
 720 00dc 9AB2     		uxth	r2, r3
 721 00de B7F88030 		ldrh	r3, [r7, #128]
 722 00e2 1344     		add	r3, r3, r2
 723 00e4 9BB2     		uxth	r3, r3
 724 00e6 1BB2     		sxth	r3, r3
 725 00e8 A7F87030 		strh	r3, [r7, #112]	@ movhi
 253:..\..\..\lvgl\version_6.1.2\lvgl\src\lv_objx/lv_line.c ****             p2.x = ext->point_array[i + 1].x + x_ofs;
 726              		.loc 2 253 0
 727 00ec D7F88830 		ldr	r3, [r7, #136]
 728 00f0 1A68     		ldr	r2, [r3]
 729 00f2 B7F88E30 		ldrh	r3, [r7, #142]
 730 00f6 0133     		adds	r3, r3, #1
 731 00f8 9B00     		lsls	r3, r3, #2
 732 00fa 1344     		add	r3, r3, r2
 733 00fc B3F90030 		ldrsh	r3, [r3]
 734 0100 9AB2     		uxth	r2, r3
 735 0102 B7F88030 		ldrh	r3, [r7, #128]
 736 0106 1344     		add	r3, r3, r2
 737 0108 9BB2     		uxth	r3, r3
 738 010a 1BB2     		sxth	r3, r3
 739 010c A7F86C30 		strh	r3, [r7, #108]	@ movhi
 254:..\..\..\lvgl\version_6.1.2\lvgl\src\lv_objx/lv_line.c **** 
 255:..\..\..\lvgl\version_6.1.2\lvgl\src\lv_objx/lv_line.c ****             if(ext->y_inv == 0) {
 740              		.loc 2 255 0
 741 0110 D7F88830 		ldr	r3, [r7, #136]
 742 0114 9B79     		ldrb	r3, [r3, #6]	@ zero_extendqisi2
 743 0116 03F00203 		and	r3, r3, #2
 744 011a DBB2     		uxtb	r3, r3
 745 011c 002B     		cmp	r3, #0
 746 011e 23D1     		bne	.L40
ARM GAS  C:\Users\tmj32\AppData\Local\Temp\ccAEAlZv.s 			page 21


 256:..\..\..\lvgl\version_6.1.2\lvgl\src\lv_objx/lv_line.c ****                 p1.y = ext->point_array[i].y + y_ofs;
 747              		.loc 2 256 0
 748 0120 D7F88830 		ldr	r3, [r7, #136]
 749 0124 1A68     		ldr	r2, [r3]
 750 0126 B7F88E30 		ldrh	r3, [r7, #142]
 751 012a 9B00     		lsls	r3, r3, #2
 752 012c 1344     		add	r3, r3, r2
 753 012e B3F90230 		ldrsh	r3, [r3, #2]
 754 0132 9AB2     		uxth	r2, r3
 755 0134 B7F87E30 		ldrh	r3, [r7, #126]
 756 0138 1344     		add	r3, r3, r2
 757 013a 9BB2     		uxth	r3, r3
 758 013c 1BB2     		sxth	r3, r3
 759 013e A7F87230 		strh	r3, [r7, #114]	@ movhi
 257:..\..\..\lvgl\version_6.1.2\lvgl\src\lv_objx/lv_line.c ****                 p2.y = ext->point_array[i + 1].y + y_ofs;
 760              		.loc 2 257 0
 761 0142 D7F88830 		ldr	r3, [r7, #136]
 762 0146 1A68     		ldr	r2, [r3]
 763 0148 B7F88E30 		ldrh	r3, [r7, #142]
 764 014c 0133     		adds	r3, r3, #1
 765 014e 9B00     		lsls	r3, r3, #2
 766 0150 1344     		add	r3, r3, r2
 767 0152 B3F90230 		ldrsh	r3, [r3, #2]
 768 0156 9AB2     		uxth	r2, r3
 769 0158 B7F87E30 		ldrh	r3, [r7, #126]
 770 015c 1344     		add	r3, r3, r2
 771 015e 9BB2     		uxth	r3, r3
 772 0160 1BB2     		sxth	r3, r3
 773 0162 A7F86E30 		strh	r3, [r7, #110]	@ movhi
 774 0166 2AE0     		b	.L41
 775              	.L40:
 258:..\..\..\lvgl\version_6.1.2\lvgl\src\lv_objx/lv_line.c ****             } else {
 259:..\..\..\lvgl\version_6.1.2\lvgl\src\lv_objx/lv_line.c ****                 p1.y = h - ext->point_array[i].y + y_ofs;
 776              		.loc 2 259 0
 777 0168 B7F87C20 		ldrh	r2, [r7, #124]
 778 016c D7F88830 		ldr	r3, [r7, #136]
 779 0170 1968     		ldr	r1, [r3]
 780 0172 B7F88E30 		ldrh	r3, [r7, #142]
 781 0176 9B00     		lsls	r3, r3, #2
 782 0178 0B44     		add	r3, r3, r1
 783 017a B3F90230 		ldrsh	r3, [r3, #2]
 784 017e 9BB2     		uxth	r3, r3
 785 0180 D31A     		subs	r3, r2, r3
 786 0182 9AB2     		uxth	r2, r3
 787 0184 B7F87E30 		ldrh	r3, [r7, #126]
 788 0188 1344     		add	r3, r3, r2
 789 018a 9BB2     		uxth	r3, r3
 790 018c 1BB2     		sxth	r3, r3
 791 018e A7F87230 		strh	r3, [r7, #114]	@ movhi
 260:..\..\..\lvgl\version_6.1.2\lvgl\src\lv_objx/lv_line.c ****                 p2.y = h - ext->point_array[i + 1].y + y_ofs;
 792              		.loc 2 260 0
 793 0192 B7F87C20 		ldrh	r2, [r7, #124]
 794 0196 D7F88830 		ldr	r3, [r7, #136]
 795 019a 1968     		ldr	r1, [r3]
 796 019c B7F88E30 		ldrh	r3, [r7, #142]
 797 01a0 0133     		adds	r3, r3, #1
 798 01a2 9B00     		lsls	r3, r3, #2
ARM GAS  C:\Users\tmj32\AppData\Local\Temp\ccAEAlZv.s 			page 22


 799 01a4 0B44     		add	r3, r3, r1
 800 01a6 B3F90230 		ldrsh	r3, [r3, #2]
 801 01aa 9BB2     		uxth	r3, r3
 802 01ac D31A     		subs	r3, r2, r3
 803 01ae 9AB2     		uxth	r2, r3
 804 01b0 B7F87E30 		ldrh	r3, [r7, #126]
 805 01b4 1344     		add	r3, r3, r2
 806 01b6 9BB2     		uxth	r3, r3
 807 01b8 1BB2     		sxth	r3, r3
 808 01ba A7F86E30 		strh	r3, [r7, #110]	@ movhi
 809              	.L41:
 261:..\..\..\lvgl\version_6.1.2\lvgl\src\lv_objx/lv_line.c ****             }
 262:..\..\..\lvgl\version_6.1.2\lvgl\src\lv_objx/lv_line.c ****             lv_draw_line(&p1, &p2, mask, style, opa_scale);
 810              		.loc 2 262 0
 811 01be 07F16C01 		add	r1, r7, #108
 812 01c2 07F17000 		add	r0, r7, #112
 813 01c6 97F88330 		ldrb	r3, [r7, #131]	@ zero_extendqisi2
 814 01ca 0093     		str	r3, [sp]
 815 01cc D7F88430 		ldr	r3, [r7, #132]
 816 01d0 BA68     		ldr	r2, [r7, #8]
 817 01d2 FFF7FEFF 		bl	lv_draw_line
 263:..\..\..\lvgl\version_6.1.2\lvgl\src\lv_objx/lv_line.c **** 
 264:..\..\..\lvgl\version_6.1.2\lvgl\src\lv_objx/lv_line.c ****             /*Draw circle on the joints if enabled*/
 265:..\..\..\lvgl\version_6.1.2\lvgl\src\lv_objx/lv_line.c ****             if(style->line.rounded) {
 818              		.loc 2 265 0
 819 01d6 D7F88430 		ldr	r3, [r7, #132]
 820 01da 93F84F30 		ldrb	r3, [r3, #79]	@ zero_extendqisi2
 821 01de 03F00103 		and	r3, r3, #1
 822 01e2 DBB2     		uxtb	r3, r3
 823 01e4 002B     		cmp	r3, #0
 824 01e6 5CD0     		beq	.L42
 266:..\..\..\lvgl\version_6.1.2\lvgl\src\lv_objx/lv_line.c ****                 circle_area.x1 = p1.x - ((style->line.width - 1) >> 1) - ((style->line.width - 1) &
 825              		.loc 2 266 0
 826 01e8 B7F97030 		ldrsh	r3, [r7, #112]
 827 01ec 9AB2     		uxth	r2, r3
 828 01ee D7F88430 		ldr	r3, [r7, #132]
 829 01f2 B3F94C30 		ldrsh	r3, [r3, #76]
 830 01f6 013B     		subs	r3, r3, #1
 831 01f8 5B10     		asrs	r3, r3, #1
 832 01fa 9BB2     		uxth	r3, r3
 833 01fc D31A     		subs	r3, r2, r3
 834 01fe 9AB2     		uxth	r2, r3
 835 0200 D7F88430 		ldr	r3, [r7, #132]
 836 0204 B3F94C30 		ldrsh	r3, [r3, #76]
 837 0208 9BB2     		uxth	r3, r3
 838 020a 013B     		subs	r3, r3, #1
 839 020c 9BB2     		uxth	r3, r3
 840 020e 03F00103 		and	r3, r3, #1
 841 0212 9BB2     		uxth	r3, r3
 842 0214 D31A     		subs	r3, r2, r3
 843 0216 9BB2     		uxth	r3, r3
 844 0218 1BB2     		sxth	r3, r3
 845 021a A7F86430 		strh	r3, [r7, #100]	@ movhi
 267:..\..\..\lvgl\version_6.1.2\lvgl\src\lv_objx/lv_line.c ****                 circle_area.y1 = p1.y - ((style->line.width - 1) >> 1) - ((style->line.width - 1) &
 846              		.loc 2 267 0
 847 021e B7F97230 		ldrsh	r3, [r7, #114]
 848 0222 9AB2     		uxth	r2, r3
ARM GAS  C:\Users\tmj32\AppData\Local\Temp\ccAEAlZv.s 			page 23


 849 0224 D7F88430 		ldr	r3, [r7, #132]
 850 0228 B3F94C30 		ldrsh	r3, [r3, #76]
 851 022c 013B     		subs	r3, r3, #1
 852 022e 5B10     		asrs	r3, r3, #1
 853 0230 9BB2     		uxth	r3, r3
 854 0232 D31A     		subs	r3, r2, r3
 855 0234 9AB2     		uxth	r2, r3
 856 0236 D7F88430 		ldr	r3, [r7, #132]
 857 023a B3F94C30 		ldrsh	r3, [r3, #76]
 858 023e 9BB2     		uxth	r3, r3
 859 0240 013B     		subs	r3, r3, #1
 860 0242 9BB2     		uxth	r3, r3
 861 0244 03F00103 		and	r3, r3, #1
 862 0248 9BB2     		uxth	r3, r3
 863 024a D31A     		subs	r3, r2, r3
 864 024c 9BB2     		uxth	r3, r3
 865 024e 1BB2     		sxth	r3, r3
 866 0250 A7F86630 		strh	r3, [r7, #102]	@ movhi
 268:..\..\..\lvgl\version_6.1.2\lvgl\src\lv_objx/lv_line.c ****                 circle_area.x2 = p1.x + ((style->line.width - 1) >> 1);
 867              		.loc 2 268 0
 868 0254 B7F97030 		ldrsh	r3, [r7, #112]
 869 0258 9AB2     		uxth	r2, r3
 870 025a D7F88430 		ldr	r3, [r7, #132]
 871 025e B3F94C30 		ldrsh	r3, [r3, #76]
 872 0262 013B     		subs	r3, r3, #1
 873 0264 5B10     		asrs	r3, r3, #1
 874 0266 9BB2     		uxth	r3, r3
 875 0268 1344     		add	r3, r3, r2
 876 026a 9BB2     		uxth	r3, r3
 877 026c 1BB2     		sxth	r3, r3
 878 026e A7F86830 		strh	r3, [r7, #104]	@ movhi
 269:..\..\..\lvgl\version_6.1.2\lvgl\src\lv_objx/lv_line.c ****                 circle_area.y2 = p1.y + ((style->line.width - 1) >> 1);
 879              		.loc 2 269 0
 880 0272 B7F97230 		ldrsh	r3, [r7, #114]
 881 0276 9AB2     		uxth	r2, r3
 882 0278 D7F88430 		ldr	r3, [r7, #132]
 883 027c B3F94C30 		ldrsh	r3, [r3, #76]
 884 0280 013B     		subs	r3, r3, #1
 885 0282 5B10     		asrs	r3, r3, #1
 886 0284 9BB2     		uxth	r3, r3
 887 0286 1344     		add	r3, r3, r2
 888 0288 9BB2     		uxth	r3, r3
 889 028a 1BB2     		sxth	r3, r3
 890 028c A7F86A30 		strh	r3, [r7, #106]	@ movhi
 270:..\..\..\lvgl\version_6.1.2\lvgl\src\lv_objx/lv_line.c ****                 lv_draw_rect(&circle_area, mask, &circle_style_tmp, opa_scale);
 891              		.loc 2 270 0
 892 0290 97F88330 		ldrb	r3, [r7, #131]	@ zero_extendqisi2
 893 0294 07F11402 		add	r2, r7, #20
 894 0298 07F16400 		add	r0, r7, #100
 895 029c B968     		ldr	r1, [r7, #8]
 896 029e FFF7FEFF 		bl	lv_draw_rect
 897              	.L42:
 250:..\..\..\lvgl\version_6.1.2\lvgl\src\lv_objx/lv_line.c **** 
 898              		.loc 2 250 0 discriminator 2
 899 02a2 B7F88E30 		ldrh	r3, [r7, #142]
 900 02a6 0133     		adds	r3, r3, #1
 901 02a8 A7F88E30 		strh	r3, [r7, #142]	@ movhi
ARM GAS  C:\Users\tmj32\AppData\Local\Temp\ccAEAlZv.s 			page 24


 902              	.L39:
 250:..\..\..\lvgl\version_6.1.2\lvgl\src\lv_objx/lv_line.c **** 
 903              		.loc 2 250 0 is_stmt 0 discriminator 1
 904 02ac B7F88E20 		ldrh	r2, [r7, #142]
 905 02b0 D7F88830 		ldr	r3, [r7, #136]
 906 02b4 9B88     		ldrh	r3, [r3, #4]
 907 02b6 013B     		subs	r3, r3, #1
 908 02b8 9A42     		cmp	r2, r3
 909 02ba FFF606AF 		blt	.L43
 271:..\..\..\lvgl\version_6.1.2\lvgl\src\lv_objx/lv_line.c ****             }
 272:..\..\..\lvgl\version_6.1.2\lvgl\src\lv_objx/lv_line.c ****         }
 273:..\..\..\lvgl\version_6.1.2\lvgl\src\lv_objx/lv_line.c **** 
 274:..\..\..\lvgl\version_6.1.2\lvgl\src\lv_objx/lv_line.c ****         /*Draw circle on the last point too if enabled*/
 275:..\..\..\lvgl\version_6.1.2\lvgl\src\lv_objx/lv_line.c ****         if(style->line.rounded) {
 910              		.loc 2 275 0 is_stmt 1
 911 02be D7F88430 		ldr	r3, [r7, #132]
 912 02c2 93F84F30 		ldrb	r3, [r3, #79]	@ zero_extendqisi2
 913 02c6 03F00103 		and	r3, r3, #1
 914 02ca DBB2     		uxtb	r3, r3
 915 02cc 002B     		cmp	r3, #0
 916 02ce 5CD0     		beq	.L35
 276:..\..\..\lvgl\version_6.1.2\lvgl\src\lv_objx/lv_line.c ****             circle_area.x1 = p2.x - ((style->line.width - 1) >> 1) - ((style->line.width - 1) & 0x1
 917              		.loc 2 276 0
 918 02d0 B7F96C30 		ldrsh	r3, [r7, #108]
 919 02d4 9AB2     		uxth	r2, r3
 920 02d6 D7F88430 		ldr	r3, [r7, #132]
 921 02da B3F94C30 		ldrsh	r3, [r3, #76]
 922 02de 013B     		subs	r3, r3, #1
 923 02e0 5B10     		asrs	r3, r3, #1
 924 02e2 9BB2     		uxth	r3, r3
 925 02e4 D31A     		subs	r3, r2, r3
 926 02e6 9AB2     		uxth	r2, r3
 927 02e8 D7F88430 		ldr	r3, [r7, #132]
 928 02ec B3F94C30 		ldrsh	r3, [r3, #76]
 929 02f0 9BB2     		uxth	r3, r3
 930 02f2 013B     		subs	r3, r3, #1
 931 02f4 9BB2     		uxth	r3, r3
 932 02f6 03F00103 		and	r3, r3, #1
 933 02fa 9BB2     		uxth	r3, r3
 934 02fc D31A     		subs	r3, r2, r3
 935 02fe 9BB2     		uxth	r3, r3
 936 0300 1BB2     		sxth	r3, r3
 937 0302 A7F86430 		strh	r3, [r7, #100]	@ movhi
 277:..\..\..\lvgl\version_6.1.2\lvgl\src\lv_objx/lv_line.c ****             circle_area.y1 = p2.y - ((style->line.width - 1) >> 1) - ((style->line.width - 1) & 0x1
 938              		.loc 2 277 0
 939 0306 B7F96E30 		ldrsh	r3, [r7, #110]
 940 030a 9AB2     		uxth	r2, r3
 941 030c D7F88430 		ldr	r3, [r7, #132]
 942 0310 B3F94C30 		ldrsh	r3, [r3, #76]
 943 0314 013B     		subs	r3, r3, #1
 944 0316 5B10     		asrs	r3, r3, #1
 945 0318 9BB2     		uxth	r3, r3
 946 031a D31A     		subs	r3, r2, r3
 947 031c 9AB2     		uxth	r2, r3
 948 031e D7F88430 		ldr	r3, [r7, #132]
 949 0322 B3F94C30 		ldrsh	r3, [r3, #76]
 950 0326 9BB2     		uxth	r3, r3
ARM GAS  C:\Users\tmj32\AppData\Local\Temp\ccAEAlZv.s 			page 25


 951 0328 013B     		subs	r3, r3, #1
 952 032a 9BB2     		uxth	r3, r3
 953 032c 03F00103 		and	r3, r3, #1
 954 0330 9BB2     		uxth	r3, r3
 955 0332 D31A     		subs	r3, r2, r3
 956 0334 9BB2     		uxth	r3, r3
 957 0336 1BB2     		sxth	r3, r3
 958 0338 A7F86630 		strh	r3, [r7, #102]	@ movhi
 278:..\..\..\lvgl\version_6.1.2\lvgl\src\lv_objx/lv_line.c ****             circle_area.x2 = p2.x + ((style->line.width - 1) >> 1);
 959              		.loc 2 278 0
 960 033c B7F96C30 		ldrsh	r3, [r7, #108]
 961 0340 9AB2     		uxth	r2, r3
 962 0342 D7F88430 		ldr	r3, [r7, #132]
 963 0346 B3F94C30 		ldrsh	r3, [r3, #76]
 964 034a 013B     		subs	r3, r3, #1
 965 034c 5B10     		asrs	r3, r3, #1
 966 034e 9BB2     		uxth	r3, r3
 967 0350 1344     		add	r3, r3, r2
 968 0352 9BB2     		uxth	r3, r3
 969 0354 1BB2     		sxth	r3, r3
 970 0356 A7F86830 		strh	r3, [r7, #104]	@ movhi
 279:..\..\..\lvgl\version_6.1.2\lvgl\src\lv_objx/lv_line.c ****             circle_area.y2 = p2.y + ((style->line.width - 1) >> 1);
 971              		.loc 2 279 0
 972 035a B7F96E30 		ldrsh	r3, [r7, #110]
 973 035e 9AB2     		uxth	r2, r3
 974 0360 D7F88430 		ldr	r3, [r7, #132]
 975 0364 B3F94C30 		ldrsh	r3, [r3, #76]
 976 0368 013B     		subs	r3, r3, #1
 977 036a 5B10     		asrs	r3, r3, #1
 978 036c 9BB2     		uxth	r3, r3
 979 036e 1344     		add	r3, r3, r2
 980 0370 9BB2     		uxth	r3, r3
 981 0372 1BB2     		sxth	r3, r3
 982 0374 A7F86A30 		strh	r3, [r7, #106]	@ movhi
 280:..\..\..\lvgl\version_6.1.2\lvgl\src\lv_objx/lv_line.c ****             lv_draw_rect(&circle_area, mask, &circle_style_tmp, opa_scale);
 983              		.loc 2 280 0
 984 0378 97F88330 		ldrb	r3, [r7, #131]	@ zero_extendqisi2
 985 037c 07F11402 		add	r2, r7, #20
 986 0380 07F16400 		add	r0, r7, #100
 987 0384 B968     		ldr	r1, [r7, #8]
 988 0386 FFF7FEFF 		bl	lv_draw_rect
 989              	.L35:
 990              	.LBE4:
 281:..\..\..\lvgl\version_6.1.2\lvgl\src\lv_objx/lv_line.c ****         }
 282:..\..\..\lvgl\version_6.1.2\lvgl\src\lv_objx/lv_line.c ****     }
 283:..\..\..\lvgl\version_6.1.2\lvgl\src\lv_objx/lv_line.c ****     return true;
 991              		.loc 2 283 0
 992 038a 0123     		movs	r3, #1
 993              	.L34:
 284:..\..\..\lvgl\version_6.1.2\lvgl\src\lv_objx/lv_line.c **** }
 994              		.loc 2 284 0
 995 038c 1846     		mov	r0, r3
 996 038e 9037     		adds	r7, r7, #144
 997              		.cfi_def_cfa_offset 8
 998 0390 BD46     		mov	sp, r7
 999              		.cfi_def_cfa_register 13
 1000              		@ sp needed
ARM GAS  C:\Users\tmj32\AppData\Local\Temp\ccAEAlZv.s 			page 26


 1001 0392 80BD     		pop	{r7, pc}
 1002              		.cfi_endproc
 1003              	.LFE39:
 1004              		.size	lv_line_design, .-lv_line_design
 1005              		.section	.rodata
 1006              		.align	2
 1007              	.LC0:
 1008 0000 6C765F6C 		.ascii	"lv_line\000"
 1008      696E6500 
 1009              		.section	.text.lv_line_signal,"ax",%progbits
 1010              		.align	2
 1011              		.thumb
 1012              		.thumb_func
 1013              		.type	lv_line_signal, %function
 1014              	lv_line_signal:
 1015              	.LFB40:
 285:..\..\..\lvgl\version_6.1.2\lvgl\src\lv_objx/lv_line.c **** 
 286:..\..\..\lvgl\version_6.1.2\lvgl\src\lv_objx/lv_line.c **** /**
 287:..\..\..\lvgl\version_6.1.2\lvgl\src\lv_objx/lv_line.c ****  * Signal function of the line
 288:..\..\..\lvgl\version_6.1.2\lvgl\src\lv_objx/lv_line.c ****  * @param line pointer to a line object
 289:..\..\..\lvgl\version_6.1.2\lvgl\src\lv_objx/lv_line.c ****  * @param sign a signal type from lv_signal_t enum
 290:..\..\..\lvgl\version_6.1.2\lvgl\src\lv_objx/lv_line.c ****  * @return LV_RES_OK: the object is not deleted in the function; LV_RES_INV: the object is deleted
 291:..\..\..\lvgl\version_6.1.2\lvgl\src\lv_objx/lv_line.c ****  */
 292:..\..\..\lvgl\version_6.1.2\lvgl\src\lv_objx/lv_line.c **** static lv_res_t lv_line_signal(lv_obj_t * line, lv_signal_t sign, void * param)
 293:..\..\..\lvgl\version_6.1.2\lvgl\src\lv_objx/lv_line.c **** {
 1016              		.loc 2 293 0
 1017              		.cfi_startproc
 1018              		@ args = 0, pretend = 0, frame = 24
 1019              		@ frame_needed = 1, uses_anonymous_args = 0
 1020 0000 80B5     		push	{r7, lr}
 1021              		.cfi_def_cfa_offset 8
 1022              		.cfi_offset 7, -8
 1023              		.cfi_offset 14, -4
 1024 0002 86B0     		sub	sp, sp, #24
 1025              		.cfi_def_cfa_offset 32
 1026 0004 00AF     		add	r7, sp, #0
 1027              		.cfi_def_cfa_register 7
 1028 0006 F860     		str	r0, [r7, #12]
 1029 0008 0B46     		mov	r3, r1
 1030 000a 7A60     		str	r2, [r7, #4]
 1031 000c FB72     		strb	r3, [r7, #11]
 294:..\..\..\lvgl\version_6.1.2\lvgl\src\lv_objx/lv_line.c ****     lv_res_t res;
 295:..\..\..\lvgl\version_6.1.2\lvgl\src\lv_objx/lv_line.c **** 
 296:..\..\..\lvgl\version_6.1.2\lvgl\src\lv_objx/lv_line.c ****     /* Include the ancient signal function */
 297:..\..\..\lvgl\version_6.1.2\lvgl\src\lv_objx/lv_line.c ****     res = ancestor_signal(line, sign, param);
 1032              		.loc 2 297 0
 1033 000e 184B     		ldr	r3, .L50
 1034 0010 1B68     		ldr	r3, [r3]
 1035 0012 F97A     		ldrb	r1, [r7, #11]	@ zero_extendqisi2
 1036 0014 7A68     		ldr	r2, [r7, #4]
 1037 0016 F868     		ldr	r0, [r7, #12]
 1038 0018 9847     		blx	r3
 1039 001a 0346     		mov	r3, r0
 1040 001c FB75     		strb	r3, [r7, #23]
 298:..\..\..\lvgl\version_6.1.2\lvgl\src\lv_objx/lv_line.c ****     if(res != LV_RES_OK) return res;
 1041              		.loc 2 298 0
 1042 001e FB7D     		ldrb	r3, [r7, #23]	@ zero_extendqisi2
ARM GAS  C:\Users\tmj32\AppData\Local\Temp\ccAEAlZv.s 			page 27


 1043 0020 012B     		cmp	r3, #1
 1044 0022 01D0     		beq	.L46
 1045              		.loc 2 298 0 is_stmt 0 discriminator 1
 1046 0024 FB7D     		ldrb	r3, [r7, #23]	@ zero_extendqisi2
 1047 0026 1EE0     		b	.L47
 1048              	.L46:
 299:..\..\..\lvgl\version_6.1.2\lvgl\src\lv_objx/lv_line.c ****     if(sign == LV_SIGNAL_GET_TYPE) return lv_obj_handle_get_type_signal(param, LV_OBJX_NAME);
 1049              		.loc 2 299 0 is_stmt 1
 1050 0028 FB7A     		ldrb	r3, [r7, #11]	@ zero_extendqisi2
 1051 002a 072B     		cmp	r3, #7
 1052 002c 05D1     		bne	.L48
 1053              		.loc 2 299 0 is_stmt 0 discriminator 1
 1054 002e 1149     		ldr	r1, .L50+4
 1055 0030 7868     		ldr	r0, [r7, #4]
 1056 0032 FFF7FEFF 		bl	lv_obj_handle_get_type_signal
 1057 0036 0346     		mov	r3, r0
 1058 0038 15E0     		b	.L47
 1059              	.L48:
 300:..\..\..\lvgl\version_6.1.2\lvgl\src\lv_objx/lv_line.c **** 
 301:..\..\..\lvgl\version_6.1.2\lvgl\src\lv_objx/lv_line.c ****    if(sign == LV_SIGNAL_REFR_EXT_DRAW_PAD) {
 1060              		.loc 2 301 0 is_stmt 1
 1061 003a FB7A     		ldrb	r3, [r7, #11]	@ zero_extendqisi2
 1062 003c 062B     		cmp	r3, #6
 1063 003e 11D1     		bne	.L49
 1064              	.LBB5:
 302:..\..\..\lvgl\version_6.1.2\lvgl\src\lv_objx/lv_line.c ****         const lv_style_t * style = lv_line_get_style(line, LV_LINE_STYLE_MAIN);
 1065              		.loc 2 302 0
 1066 0040 0021     		movs	r1, #0
 1067 0042 F868     		ldr	r0, [r7, #12]
 1068 0044 FFF7FEFF 		bl	lv_line_get_style
 1069 0048 3861     		str	r0, [r7, #16]
 303:..\..\..\lvgl\version_6.1.2\lvgl\src\lv_objx/lv_line.c ****         if(line->ext_draw_pad < style->line.width) line->ext_draw_pad = style->line.width;
 1070              		.loc 2 303 0
 1071 004a FB68     		ldr	r3, [r7, #12]
 1072 004c B3F93020 		ldrsh	r2, [r3, #48]
 1073 0050 3B69     		ldr	r3, [r7, #16]
 1074 0052 B3F94C30 		ldrsh	r3, [r3, #76]
 1075 0056 9A42     		cmp	r2, r3
 1076 0058 04DA     		bge	.L49
 1077              		.loc 2 303 0 is_stmt 0 discriminator 1
 1078 005a 3B69     		ldr	r3, [r7, #16]
 1079 005c B3F94C20 		ldrsh	r2, [r3, #76]
 1080 0060 FB68     		ldr	r3, [r7, #12]
 1081 0062 1A86     		strh	r2, [r3, #48]	@ movhi
 1082              	.L49:
 1083              	.LBE5:
 304:..\..\..\lvgl\version_6.1.2\lvgl\src\lv_objx/lv_line.c ****     }
 305:..\..\..\lvgl\version_6.1.2\lvgl\src\lv_objx/lv_line.c **** 
 306:..\..\..\lvgl\version_6.1.2\lvgl\src\lv_objx/lv_line.c ****     return res;
 1084              		.loc 2 306 0 is_stmt 1
 1085 0064 FB7D     		ldrb	r3, [r7, #23]	@ zero_extendqisi2
 1086              	.L47:
 307:..\..\..\lvgl\version_6.1.2\lvgl\src\lv_objx/lv_line.c **** }
 1087              		.loc 2 307 0
 1088 0066 1846     		mov	r0, r3
 1089 0068 1837     		adds	r7, r7, #24
 1090              		.cfi_def_cfa_offset 8
ARM GAS  C:\Users\tmj32\AppData\Local\Temp\ccAEAlZv.s 			page 28


 1091 006a BD46     		mov	sp, r7
 1092              		.cfi_def_cfa_register 13
 1093              		@ sp needed
 1094 006c 80BD     		pop	{r7, pc}
 1095              	.L51:
 1096 006e 00BF     		.align	2
 1097              	.L50:
 1098 0070 00000000 		.word	ancestor_signal
 1099 0074 00000000 		.word	.LC0
 1100              		.cfi_endproc
 1101              	.LFE40:
 1102              		.size	lv_line_signal, .-lv_line_signal
 1103              		.text
 1104              	.Letext0:
 1105              		.file 3 "c:\\program files (x86)\\cypress\\psoc creator\\4.3\\psoc creator\\import\\gnu\\arm\\5.4.
 1106              		.file 4 "c:\\program files (x86)\\cypress\\psoc creator\\4.3\\psoc creator\\import\\gnu\\arm\\5.4.
 1107              		.file 5 "..\\..\\..\\lvgl\\version_6.1.2\\lvgl\\src\\lv_objx\\../../../lv_conf.h"
 1108              		.file 6 "..\\..\\..\\lvgl\\version_6.1.2\\lvgl\\src\\lv_objx\\../lv_core/../lv_font/lv_font.h"
 1109              		.file 7 "..\\..\\..\\lvgl\\version_6.1.2\\lvgl\\src\\lv_objx\\../lv_core/../lv_misc/lv_color.h"
 1110              		.file 8 "..\\..\\..\\lvgl\\version_6.1.2\\lvgl\\src\\lv_objx\\../lv_core/../lv_misc/lv_area.h"
 1111              		.file 9 "..\\..\\..\\lvgl\\version_6.1.2\\lvgl\\src\\lv_objx\\../lv_core/lv_style.h"
 1112              		.file 10 "..\\..\\..\\lvgl\\version_6.1.2\\lvgl\\src\\lv_objx\\../lv_core/../lv_misc/lv_types.h"
 1113              		.file 11 "..\\..\\..\\lvgl\\version_6.1.2\\lvgl\\src\\lv_objx\\../lv_core/../lv_misc/lv_ll.h"
 1114              		.file 12 "..\\..\\..\\lvgl\\version_6.1.2\\lvgl\\src\\lv_objx\\../lv_core/../lv_misc/lv_bidi.h"
 1115              		.file 13 "..\\..\\..\\lvgl\\version_6.1.2\\lvgl\\src\\lv_objx\\../lv_core/lv_obj.h"