ARM GAS  C:\Users\tmj32\AppData\Local\Temp\ccN7X7Jd.s 			page 1


   1              		.syntax unified
   2              		.cpu cortex-m4
   3              		.eabi_attribute 27, 1
   4              		.fpu fpv4-sp-d16
   5              		.eabi_attribute 20, 1
   6              		.eabi_attribute 21, 1
   7              		.eabi_attribute 23, 3
   8              		.eabi_attribute 24, 1
   9              		.eabi_attribute 25, 1
  10              		.eabi_attribute 26, 1
  11              		.eabi_attribute 30, 6
  12              		.eabi_attribute 34, 1
  13              		.eabi_attribute 18, 4
  14              		.thumb
  15              		.syntax unified
  16              		.file	"lv_mem.c"
  17              		.text
  18              	.Ltext0:
  19              		.cfi_sections	.debug_frame
  20              		.bss
  21              		.align	2
  22              	work_mem:
  23 0000 00000000 		.space	4
  24              		.align	2
  25              	zero_mem:
  26 0004 00000000 		.space	4
  27              		.section	.text.lv_mem_init,"ax",%progbits
  28              		.align	2
  29              		.global	lv_mem_init
  30              		.thumb
  31              		.thumb_func
  32              		.type	lv_mem_init, %function
  33              	lv_mem_init:
  34              	.LFB0:
  35              		.file 1 "..\\..\\..\\lvgl\\version_6.1.2\\lvgl\\src\\lv_misc\\lv_mem.c"
   1:..\..\..\lvgl\version_6.1.2\lvgl\src\lv_misc/lv_mem.c **** /**
   2:..\..\..\lvgl\version_6.1.2\lvgl\src\lv_misc/lv_mem.c ****  * @file lv_mem.c
   3:..\..\..\lvgl\version_6.1.2\lvgl\src\lv_misc/lv_mem.c ****  * General and portable implementation of malloc and free.
   4:..\..\..\lvgl\version_6.1.2\lvgl\src\lv_misc/lv_mem.c ****  * The dynamic memory monitoring is also supported.
   5:..\..\..\lvgl\version_6.1.2\lvgl\src\lv_misc/lv_mem.c ****  */
   6:..\..\..\lvgl\version_6.1.2\lvgl\src\lv_misc/lv_mem.c **** 
   7:..\..\..\lvgl\version_6.1.2\lvgl\src\lv_misc/lv_mem.c **** /*********************
   8:..\..\..\lvgl\version_6.1.2\lvgl\src\lv_misc/lv_mem.c ****  *      INCLUDES
   9:..\..\..\lvgl\version_6.1.2\lvgl\src\lv_misc/lv_mem.c ****  *********************/
  10:..\..\..\lvgl\version_6.1.2\lvgl\src\lv_misc/lv_mem.c **** #include "lv_mem.h"
  11:..\..\..\lvgl\version_6.1.2\lvgl\src\lv_misc/lv_mem.c **** #include "lv_math.h"
  12:..\..\..\lvgl\version_6.1.2\lvgl\src\lv_misc/lv_mem.c **** #include <string.h>
  13:..\..\..\lvgl\version_6.1.2\lvgl\src\lv_misc/lv_mem.c **** 
  14:..\..\..\lvgl\version_6.1.2\lvgl\src\lv_misc/lv_mem.c **** #if LV_MEM_CUSTOM != 0
  15:..\..\..\lvgl\version_6.1.2\lvgl\src\lv_misc/lv_mem.c **** #include LV_MEM_CUSTOM_INCLUDE
  16:..\..\..\lvgl\version_6.1.2\lvgl\src\lv_misc/lv_mem.c **** #endif
  17:..\..\..\lvgl\version_6.1.2\lvgl\src\lv_misc/lv_mem.c **** 
  18:..\..\..\lvgl\version_6.1.2\lvgl\src\lv_misc/lv_mem.c **** /*********************
  19:..\..\..\lvgl\version_6.1.2\lvgl\src\lv_misc/lv_mem.c ****  *      DEFINES
  20:..\..\..\lvgl\version_6.1.2\lvgl\src\lv_misc/lv_mem.c ****  *********************/
  21:..\..\..\lvgl\version_6.1.2\lvgl\src\lv_misc/lv_mem.c **** /*Add memory junk on alloc (0xaa) and free(0xbb) (just for testing purposes)*/
  22:..\..\..\lvgl\version_6.1.2\lvgl\src\lv_misc/lv_mem.c **** #ifndef LV_MEM_ADD_JUNK
ARM GAS  C:\Users\tmj32\AppData\Local\Temp\ccN7X7Jd.s 			page 2


  23:..\..\..\lvgl\version_6.1.2\lvgl\src\lv_misc/lv_mem.c **** #define LV_MEM_ADD_JUNK 0
  24:..\..\..\lvgl\version_6.1.2\lvgl\src\lv_misc/lv_mem.c **** #endif
  25:..\..\..\lvgl\version_6.1.2\lvgl\src\lv_misc/lv_mem.c **** 
  26:..\..\..\lvgl\version_6.1.2\lvgl\src\lv_misc/lv_mem.c **** #ifdef LV_ARCH_64
  27:..\..\..\lvgl\version_6.1.2\lvgl\src\lv_misc/lv_mem.c **** #define MEM_UNIT uint64_t
  28:..\..\..\lvgl\version_6.1.2\lvgl\src\lv_misc/lv_mem.c **** #else
  29:..\..\..\lvgl\version_6.1.2\lvgl\src\lv_misc/lv_mem.c **** #define MEM_UNIT uint32_t
  30:..\..\..\lvgl\version_6.1.2\lvgl\src\lv_misc/lv_mem.c **** #endif
  31:..\..\..\lvgl\version_6.1.2\lvgl\src\lv_misc/lv_mem.c **** 
  32:..\..\..\lvgl\version_6.1.2\lvgl\src\lv_misc/lv_mem.c **** /**********************
  33:..\..\..\lvgl\version_6.1.2\lvgl\src\lv_misc/lv_mem.c ****  *      TYPEDEFS
  34:..\..\..\lvgl\version_6.1.2\lvgl\src\lv_misc/lv_mem.c ****  **********************/
  35:..\..\..\lvgl\version_6.1.2\lvgl\src\lv_misc/lv_mem.c **** 
  36:..\..\..\lvgl\version_6.1.2\lvgl\src\lv_misc/lv_mem.c **** #if LV_ENABLE_GC == 0 /*gc custom allocations must not include header*/
  37:..\..\..\lvgl\version_6.1.2\lvgl\src\lv_misc/lv_mem.c **** 
  38:..\..\..\lvgl\version_6.1.2\lvgl\src\lv_misc/lv_mem.c **** /*The size of this union must be 4 bytes (uint32_t)*/
  39:..\..\..\lvgl\version_6.1.2\lvgl\src\lv_misc/lv_mem.c **** typedef union
  40:..\..\..\lvgl\version_6.1.2\lvgl\src\lv_misc/lv_mem.c **** {
  41:..\..\..\lvgl\version_6.1.2\lvgl\src\lv_misc/lv_mem.c ****     struct
  42:..\..\..\lvgl\version_6.1.2\lvgl\src\lv_misc/lv_mem.c ****     {
  43:..\..\..\lvgl\version_6.1.2\lvgl\src\lv_misc/lv_mem.c ****         MEM_UNIT used : 1;    /* 1: if the entry is used*/
  44:..\..\..\lvgl\version_6.1.2\lvgl\src\lv_misc/lv_mem.c ****         MEM_UNIT d_size : 31; /* Size off the data (1 means 4 bytes)*/
  45:..\..\..\lvgl\version_6.1.2\lvgl\src\lv_misc/lv_mem.c ****     } s;
  46:..\..\..\lvgl\version_6.1.2\lvgl\src\lv_misc/lv_mem.c ****     MEM_UNIT header; /* The header (used + d_size)*/
  47:..\..\..\lvgl\version_6.1.2\lvgl\src\lv_misc/lv_mem.c **** } lv_mem_header_t;
  48:..\..\..\lvgl\version_6.1.2\lvgl\src\lv_misc/lv_mem.c **** 
  49:..\..\..\lvgl\version_6.1.2\lvgl\src\lv_misc/lv_mem.c **** typedef struct
  50:..\..\..\lvgl\version_6.1.2\lvgl\src\lv_misc/lv_mem.c **** {
  51:..\..\..\lvgl\version_6.1.2\lvgl\src\lv_misc/lv_mem.c ****     lv_mem_header_t header;
  52:..\..\..\lvgl\version_6.1.2\lvgl\src\lv_misc/lv_mem.c ****     uint8_t first_data; /*First data byte in the allocated data (Just for easily create a pointer)*
  53:..\..\..\lvgl\version_6.1.2\lvgl\src\lv_misc/lv_mem.c **** } lv_mem_ent_t;
  54:..\..\..\lvgl\version_6.1.2\lvgl\src\lv_misc/lv_mem.c **** 
  55:..\..\..\lvgl\version_6.1.2\lvgl\src\lv_misc/lv_mem.c **** #endif /* LV_ENABLE_GC */
  56:..\..\..\lvgl\version_6.1.2\lvgl\src\lv_misc/lv_mem.c **** 
  57:..\..\..\lvgl\version_6.1.2\lvgl\src\lv_misc/lv_mem.c **** /**********************
  58:..\..\..\lvgl\version_6.1.2\lvgl\src\lv_misc/lv_mem.c ****  *  STATIC PROTOTYPES
  59:..\..\..\lvgl\version_6.1.2\lvgl\src\lv_misc/lv_mem.c ****  **********************/
  60:..\..\..\lvgl\version_6.1.2\lvgl\src\lv_misc/lv_mem.c **** #if LV_MEM_CUSTOM == 0
  61:..\..\..\lvgl\version_6.1.2\lvgl\src\lv_misc/lv_mem.c **** static lv_mem_ent_t * ent_get_next(lv_mem_ent_t * act_e);
  62:..\..\..\lvgl\version_6.1.2\lvgl\src\lv_misc/lv_mem.c **** static void * ent_alloc(lv_mem_ent_t * e, size_t size);
  63:..\..\..\lvgl\version_6.1.2\lvgl\src\lv_misc/lv_mem.c **** static void ent_trunc(lv_mem_ent_t * e, size_t size);
  64:..\..\..\lvgl\version_6.1.2\lvgl\src\lv_misc/lv_mem.c **** #endif
  65:..\..\..\lvgl\version_6.1.2\lvgl\src\lv_misc/lv_mem.c **** 
  66:..\..\..\lvgl\version_6.1.2\lvgl\src\lv_misc/lv_mem.c **** /**********************
  67:..\..\..\lvgl\version_6.1.2\lvgl\src\lv_misc/lv_mem.c ****  *  STATIC VARIABLES
  68:..\..\..\lvgl\version_6.1.2\lvgl\src\lv_misc/lv_mem.c ****  **********************/
  69:..\..\..\lvgl\version_6.1.2\lvgl\src\lv_misc/lv_mem.c **** #if LV_MEM_CUSTOM == 0
  70:..\..\..\lvgl\version_6.1.2\lvgl\src\lv_misc/lv_mem.c **** static uint8_t * work_mem;
  71:..\..\..\lvgl\version_6.1.2\lvgl\src\lv_misc/lv_mem.c **** #endif
  72:..\..\..\lvgl\version_6.1.2\lvgl\src\lv_misc/lv_mem.c **** 
  73:..\..\..\lvgl\version_6.1.2\lvgl\src\lv_misc/lv_mem.c **** static uint32_t zero_mem; /*Give the address of this variable if 0 byte should be allocated*/
  74:..\..\..\lvgl\version_6.1.2\lvgl\src\lv_misc/lv_mem.c **** 
  75:..\..\..\lvgl\version_6.1.2\lvgl\src\lv_misc/lv_mem.c **** /**********************
  76:..\..\..\lvgl\version_6.1.2\lvgl\src\lv_misc/lv_mem.c ****  *      MACROS
  77:..\..\..\lvgl\version_6.1.2\lvgl\src\lv_misc/lv_mem.c ****  **********************/
  78:..\..\..\lvgl\version_6.1.2\lvgl\src\lv_misc/lv_mem.c **** 
  79:..\..\..\lvgl\version_6.1.2\lvgl\src\lv_misc/lv_mem.c **** /**********************
ARM GAS  C:\Users\tmj32\AppData\Local\Temp\ccN7X7Jd.s 			page 3


  80:..\..\..\lvgl\version_6.1.2\lvgl\src\lv_misc/lv_mem.c ****  *   GLOBAL FUNCTIONS
  81:..\..\..\lvgl\version_6.1.2\lvgl\src\lv_misc/lv_mem.c ****  **********************/
  82:..\..\..\lvgl\version_6.1.2\lvgl\src\lv_misc/lv_mem.c **** 
  83:..\..\..\lvgl\version_6.1.2\lvgl\src\lv_misc/lv_mem.c **** /**
  84:..\..\..\lvgl\version_6.1.2\lvgl\src\lv_misc/lv_mem.c ****  * Initiaiize the dyn_mem module (work memory and other variables)
  85:..\..\..\lvgl\version_6.1.2\lvgl\src\lv_misc/lv_mem.c ****  */
  86:..\..\..\lvgl\version_6.1.2\lvgl\src\lv_misc/lv_mem.c **** void lv_mem_init(void)
  87:..\..\..\lvgl\version_6.1.2\lvgl\src\lv_misc/lv_mem.c **** {
  36              		.loc 1 87 0
  37              		.cfi_startproc
  38              		@ args = 0, pretend = 0, frame = 8
  39              		@ frame_needed = 1, uses_anonymous_args = 0
  40              		@ link register save eliminated.
  41 0000 80B4     		push	{r7}
  42              		.cfi_def_cfa_offset 4
  43              		.cfi_offset 7, -4
  44 0002 83B0     		sub	sp, sp, #12
  45              		.cfi_def_cfa_offset 16
  46 0004 00AF     		add	r7, sp, #0
  47              		.cfi_def_cfa_register 7
  88:..\..\..\lvgl\version_6.1.2\lvgl\src\lv_misc/lv_mem.c **** #if LV_MEM_CUSTOM == 0
  89:..\..\..\lvgl\version_6.1.2\lvgl\src\lv_misc/lv_mem.c **** 
  90:..\..\..\lvgl\version_6.1.2\lvgl\src\lv_misc/lv_mem.c **** #if LV_MEM_ADR == 0
  91:..\..\..\lvgl\version_6.1.2\lvgl\src\lv_misc/lv_mem.c ****     /*Allocate a large array to store the dynamically allocated data*/
  92:..\..\..\lvgl\version_6.1.2\lvgl\src\lv_misc/lv_mem.c ****     static LV_MEM_ATTR MEM_UNIT work_mem_int[LV_MEM_SIZE / sizeof(MEM_UNIT)];
  93:..\..\..\lvgl\version_6.1.2\lvgl\src\lv_misc/lv_mem.c ****     work_mem = (uint8_t *)work_mem_int;
  48              		.loc 1 93 0
  49 0006 0C4B     		ldr	r3, .L2
  50 0008 0C4A     		ldr	r2, .L2+4
  51 000a 1A60     		str	r2, [r3]
  94:..\..\..\lvgl\version_6.1.2\lvgl\src\lv_misc/lv_mem.c **** #else
  95:..\..\..\lvgl\version_6.1.2\lvgl\src\lv_misc/lv_mem.c ****     work_mem = (uint8_t *)LV_MEM_ADR;
  96:..\..\..\lvgl\version_6.1.2\lvgl\src\lv_misc/lv_mem.c **** #endif
  97:..\..\..\lvgl\version_6.1.2\lvgl\src\lv_misc/lv_mem.c **** 
  98:..\..\..\lvgl\version_6.1.2\lvgl\src\lv_misc/lv_mem.c ****     lv_mem_ent_t * full = (lv_mem_ent_t *)work_mem;
  52              		.loc 1 98 0
  53 000c 0A4B     		ldr	r3, .L2
  54 000e 1B68     		ldr	r3, [r3]
  55 0010 7B60     		str	r3, [r7, #4]
  99:..\..\..\lvgl\version_6.1.2\lvgl\src\lv_misc/lv_mem.c ****     full->header.s.used = 0;
  56              		.loc 1 99 0
  57 0012 7A68     		ldr	r2, [r7, #4]
  58 0014 1378     		ldrb	r3, [r2]
  59 0016 6FF30003 		bfc	r3, #0, #1
  60 001a 1370     		strb	r3, [r2]
 100:..\..\..\lvgl\version_6.1.2\lvgl\src\lv_misc/lv_mem.c ****     /*The total mem size id reduced by the first header and the close patterns */
 101:..\..\..\lvgl\version_6.1.2\lvgl\src\lv_misc/lv_mem.c ****     full->header.s.d_size = LV_MEM_SIZE - sizeof(lv_mem_header_t);
  61              		.loc 1 101 0
  62 001c 7A68     		ldr	r2, [r7, #4]
  63 001e 1368     		ldr	r3, [r2]
  64 0020 4FF6FC71 		movw	r1, #65532
  65 0024 61F35F03 		bfi	r3, r1, #1, #31
  66 0028 1360     		str	r3, [r2]
 102:..\..\..\lvgl\version_6.1.2\lvgl\src\lv_misc/lv_mem.c **** #endif
 103:..\..\..\lvgl\version_6.1.2\lvgl\src\lv_misc/lv_mem.c **** }
  67              		.loc 1 103 0
  68 002a 00BF     		nop
ARM GAS  C:\Users\tmj32\AppData\Local\Temp\ccN7X7Jd.s 			page 4


  69 002c 0C37     		adds	r7, r7, #12
  70              		.cfi_def_cfa_offset 4
  71 002e BD46     		mov	sp, r7
  72              		.cfi_def_cfa_register 13
  73              		@ sp needed
  74 0030 5DF8047B 		ldr	r7, [sp], #4
  75              		.cfi_restore 7
  76              		.cfi_def_cfa_offset 0
  77 0034 7047     		bx	lr
  78              	.L3:
  79 0036 00BF     		.align	2
  80              	.L2:
  81 0038 00000000 		.word	work_mem
  82 003c 08000000 		.word	work_mem_int.4640
  83              		.cfi_endproc
  84              	.LFE0:
  85              		.size	lv_mem_init, .-lv_mem_init
  86              		.section	.text.lv_mem_deinit,"ax",%progbits
  87              		.align	2
  88              		.global	lv_mem_deinit
  89              		.thumb
  90              		.thumb_func
  91              		.type	lv_mem_deinit, %function
  92              	lv_mem_deinit:
  93              	.LFB1:
 104:..\..\..\lvgl\version_6.1.2\lvgl\src\lv_misc/lv_mem.c **** 
 105:..\..\..\lvgl\version_6.1.2\lvgl\src\lv_misc/lv_mem.c **** /**
 106:..\..\..\lvgl\version_6.1.2\lvgl\src\lv_misc/lv_mem.c ****  * Clean up the memory buffer which frees all the allocated memories.
 107:..\..\..\lvgl\version_6.1.2\lvgl\src\lv_misc/lv_mem.c ****  * @note It work only if `LV_MEM_CUSTOM == 0`
 108:..\..\..\lvgl\version_6.1.2\lvgl\src\lv_misc/lv_mem.c ****  */
 109:..\..\..\lvgl\version_6.1.2\lvgl\src\lv_misc/lv_mem.c **** void lv_mem_deinit(void)
 110:..\..\..\lvgl\version_6.1.2\lvgl\src\lv_misc/lv_mem.c **** {
  94              		.loc 1 110 0
  95              		.cfi_startproc
  96              		@ args = 0, pretend = 0, frame = 8
  97              		@ frame_needed = 1, uses_anonymous_args = 0
  98 0000 80B5     		push	{r7, lr}
  99              		.cfi_def_cfa_offset 8
 100              		.cfi_offset 7, -8
 101              		.cfi_offset 14, -4
 102 0002 82B0     		sub	sp, sp, #8
 103              		.cfi_def_cfa_offset 16
 104 0004 00AF     		add	r7, sp, #0
 105              		.cfi_def_cfa_register 7
 111:..\..\..\lvgl\version_6.1.2\lvgl\src\lv_misc/lv_mem.c **** #if LV_MEM_CUSTOM == 0
 112:..\..\..\lvgl\version_6.1.2\lvgl\src\lv_misc/lv_mem.c ****     memset(work_mem, 0x00, (LV_MEM_SIZE / sizeof(MEM_UNIT)) * sizeof(MEM_UNIT));
 106              		.loc 1 112 0
 107 0006 0D4B     		ldr	r3, .L5
 108 0008 1B68     		ldr	r3, [r3]
 109 000a 4FF48032 		mov	r2, #65536
 110 000e 0021     		movs	r1, #0
 111 0010 1846     		mov	r0, r3
 112 0012 FFF7FEFF 		bl	memset
 113:..\..\..\lvgl\version_6.1.2\lvgl\src\lv_misc/lv_mem.c ****     lv_mem_ent_t * full = (lv_mem_ent_t *)work_mem;
 113              		.loc 1 113 0
 114 0016 094B     		ldr	r3, .L5
 115 0018 1B68     		ldr	r3, [r3]
ARM GAS  C:\Users\tmj32\AppData\Local\Temp\ccN7X7Jd.s 			page 5


 116 001a 7B60     		str	r3, [r7, #4]
 114:..\..\..\lvgl\version_6.1.2\lvgl\src\lv_misc/lv_mem.c ****     full->header.s.used = 0;
 117              		.loc 1 114 0
 118 001c 7A68     		ldr	r2, [r7, #4]
 119 001e 1378     		ldrb	r3, [r2]
 120 0020 6FF30003 		bfc	r3, #0, #1
 121 0024 1370     		strb	r3, [r2]
 115:..\..\..\lvgl\version_6.1.2\lvgl\src\lv_misc/lv_mem.c ****     /*The total mem size id reduced by the first header and the close patterns */
 116:..\..\..\lvgl\version_6.1.2\lvgl\src\lv_misc/lv_mem.c ****     full->header.s.d_size = LV_MEM_SIZE - sizeof(lv_mem_header_t);
 122              		.loc 1 116 0
 123 0026 7A68     		ldr	r2, [r7, #4]
 124 0028 1368     		ldr	r3, [r2]
 125 002a 4FF6FC71 		movw	r1, #65532
 126 002e 61F35F03 		bfi	r3, r1, #1, #31
 127 0032 1360     		str	r3, [r2]
 117:..\..\..\lvgl\version_6.1.2\lvgl\src\lv_misc/lv_mem.c **** #endif
 118:..\..\..\lvgl\version_6.1.2\lvgl\src\lv_misc/lv_mem.c **** }
 128              		.loc 1 118 0
 129 0034 00BF     		nop
 130 0036 0837     		adds	r7, r7, #8
 131              		.cfi_def_cfa_offset 8
 132 0038 BD46     		mov	sp, r7
 133              		.cfi_def_cfa_register 13
 134              		@ sp needed
 135 003a 80BD     		pop	{r7, pc}
 136              	.L6:
 137              		.align	2
 138              	.L5:
 139 003c 00000000 		.word	work_mem
 140              		.cfi_endproc
 141              	.LFE1:
 142              		.size	lv_mem_deinit, .-lv_mem_deinit
 143              		.section	.text.lv_mem_alloc,"ax",%progbits
 144              		.align	2
 145              		.global	lv_mem_alloc
 146              		.thumb
 147              		.thumb_func
 148              		.type	lv_mem_alloc, %function
 149              	lv_mem_alloc:
 150              	.LFB2:
 119:..\..\..\lvgl\version_6.1.2\lvgl\src\lv_misc/lv_mem.c **** 
 120:..\..\..\lvgl\version_6.1.2\lvgl\src\lv_misc/lv_mem.c **** /**
 121:..\..\..\lvgl\version_6.1.2\lvgl\src\lv_misc/lv_mem.c ****  * Allocate a memory dynamically
 122:..\..\..\lvgl\version_6.1.2\lvgl\src\lv_misc/lv_mem.c ****  * @param size size of the memory to allocate in bytes
 123:..\..\..\lvgl\version_6.1.2\lvgl\src\lv_misc/lv_mem.c ****  * @return pointer to the allocated memory
 124:..\..\..\lvgl\version_6.1.2\lvgl\src\lv_misc/lv_mem.c ****  */
 125:..\..\..\lvgl\version_6.1.2\lvgl\src\lv_misc/lv_mem.c **** void * lv_mem_alloc(size_t size)
 126:..\..\..\lvgl\version_6.1.2\lvgl\src\lv_misc/lv_mem.c **** {
 151              		.loc 1 126 0
 152              		.cfi_startproc
 153              		@ args = 0, pretend = 0, frame = 16
 154              		@ frame_needed = 1, uses_anonymous_args = 0
 155 0000 80B5     		push	{r7, lr}
 156              		.cfi_def_cfa_offset 8
 157              		.cfi_offset 7, -8
 158              		.cfi_offset 14, -4
 159 0002 84B0     		sub	sp, sp, #16
ARM GAS  C:\Users\tmj32\AppData\Local\Temp\ccN7X7Jd.s 			page 6


 160              		.cfi_def_cfa_offset 24
 161 0004 00AF     		add	r7, sp, #0
 162              		.cfi_def_cfa_register 7
 163 0006 7860     		str	r0, [r7, #4]
 127:..\..\..\lvgl\version_6.1.2\lvgl\src\lv_misc/lv_mem.c ****     if(size == 0) {
 164              		.loc 1 127 0
 165 0008 7B68     		ldr	r3, [r7, #4]
 166 000a 002B     		cmp	r3, #0
 167 000c 01D1     		bne	.L8
 128:..\..\..\lvgl\version_6.1.2\lvgl\src\lv_misc/lv_mem.c ****         return &zero_mem;
 168              		.loc 1 128 0
 169 000e 144B     		ldr	r3, .L14
 170 0010 22E0     		b	.L9
 171              	.L8:
 129:..\..\..\lvgl\version_6.1.2\lvgl\src\lv_misc/lv_mem.c ****     }
 130:..\..\..\lvgl\version_6.1.2\lvgl\src\lv_misc/lv_mem.c **** 
 131:..\..\..\lvgl\version_6.1.2\lvgl\src\lv_misc/lv_mem.c **** #ifdef LV_ARCH_64
 132:..\..\..\lvgl\version_6.1.2\lvgl\src\lv_misc/lv_mem.c ****     /*Round the size up to 8*/
 133:..\..\..\lvgl\version_6.1.2\lvgl\src\lv_misc/lv_mem.c ****     if(size & 0x7) {
 134:..\..\..\lvgl\version_6.1.2\lvgl\src\lv_misc/lv_mem.c ****         size = size & (~0x7);
 135:..\..\..\lvgl\version_6.1.2\lvgl\src\lv_misc/lv_mem.c ****         size += 8;
 136:..\..\..\lvgl\version_6.1.2\lvgl\src\lv_misc/lv_mem.c ****     }
 137:..\..\..\lvgl\version_6.1.2\lvgl\src\lv_misc/lv_mem.c **** #else
 138:..\..\..\lvgl\version_6.1.2\lvgl\src\lv_misc/lv_mem.c ****     /*Round the size up to 4*/
 139:..\..\..\lvgl\version_6.1.2\lvgl\src\lv_misc/lv_mem.c ****     if(size & 0x3) {
 172              		.loc 1 139 0
 173 0012 7B68     		ldr	r3, [r7, #4]
 174 0014 03F00303 		and	r3, r3, #3
 175 0018 002B     		cmp	r3, #0
 176 001a 06D0     		beq	.L10
 140:..\..\..\lvgl\version_6.1.2\lvgl\src\lv_misc/lv_mem.c ****         size = size & (~0x3);
 177              		.loc 1 140 0
 178 001c 7B68     		ldr	r3, [r7, #4]
 179 001e 23F00303 		bic	r3, r3, #3
 180 0022 7B60     		str	r3, [r7, #4]
 141:..\..\..\lvgl\version_6.1.2\lvgl\src\lv_misc/lv_mem.c ****         size += 4;
 181              		.loc 1 141 0
 182 0024 7B68     		ldr	r3, [r7, #4]
 183 0026 0433     		adds	r3, r3, #4
 184 0028 7B60     		str	r3, [r7, #4]
 185              	.L10:
 142:..\..\..\lvgl\version_6.1.2\lvgl\src\lv_misc/lv_mem.c ****     }
 143:..\..\..\lvgl\version_6.1.2\lvgl\src\lv_misc/lv_mem.c **** #endif
 144:..\..\..\lvgl\version_6.1.2\lvgl\src\lv_misc/lv_mem.c ****     void * alloc = NULL;
 186              		.loc 1 144 0
 187 002a 0023     		movs	r3, #0
 188 002c FB60     		str	r3, [r7, #12]
 145:..\..\..\lvgl\version_6.1.2\lvgl\src\lv_misc/lv_mem.c **** 
 146:..\..\..\lvgl\version_6.1.2\lvgl\src\lv_misc/lv_mem.c **** #if LV_MEM_CUSTOM == 0
 147:..\..\..\lvgl\version_6.1.2\lvgl\src\lv_misc/lv_mem.c ****     /*Use the built-in allocators*/
 148:..\..\..\lvgl\version_6.1.2\lvgl\src\lv_misc/lv_mem.c ****     lv_mem_ent_t * e = NULL;
 189              		.loc 1 148 0
 190 002e 0023     		movs	r3, #0
 191 0030 BB60     		str	r3, [r7, #8]
 192              	.L13:
 149:..\..\..\lvgl\version_6.1.2\lvgl\src\lv_misc/lv_mem.c **** 
 150:..\..\..\lvgl\version_6.1.2\lvgl\src\lv_misc/lv_mem.c ****     /* Search for a appropriate entry*/
ARM GAS  C:\Users\tmj32\AppData\Local\Temp\ccN7X7Jd.s 			page 7


 151:..\..\..\lvgl\version_6.1.2\lvgl\src\lv_misc/lv_mem.c ****     do {
 152:..\..\..\lvgl\version_6.1.2\lvgl\src\lv_misc/lv_mem.c ****         /* Get the next entry*/
 153:..\..\..\lvgl\version_6.1.2\lvgl\src\lv_misc/lv_mem.c ****         e = ent_get_next(e);
 193              		.loc 1 153 0
 194 0032 B868     		ldr	r0, [r7, #8]
 195 0034 FFF7FEFF 		bl	ent_get_next
 196 0038 B860     		str	r0, [r7, #8]
 154:..\..\..\lvgl\version_6.1.2\lvgl\src\lv_misc/lv_mem.c **** 
 155:..\..\..\lvgl\version_6.1.2\lvgl\src\lv_misc/lv_mem.c ****         /*If there is next entry then try to allocate there*/
 156:..\..\..\lvgl\version_6.1.2\lvgl\src\lv_misc/lv_mem.c ****         if(e != NULL) {
 197              		.loc 1 156 0
 198 003a BB68     		ldr	r3, [r7, #8]
 199 003c 002B     		cmp	r3, #0
 200 003e 04D0     		beq	.L11
 157:..\..\..\lvgl\version_6.1.2\lvgl\src\lv_misc/lv_mem.c ****             alloc = ent_alloc(e, size);
 201              		.loc 1 157 0
 202 0040 7968     		ldr	r1, [r7, #4]
 203 0042 B868     		ldr	r0, [r7, #8]
 204 0044 FFF7FEFF 		bl	ent_alloc
 205 0048 F860     		str	r0, [r7, #12]
 206              	.L11:
 158:..\..\..\lvgl\version_6.1.2\lvgl\src\lv_misc/lv_mem.c ****         }
 159:..\..\..\lvgl\version_6.1.2\lvgl\src\lv_misc/lv_mem.c ****         /* End if there is not next entry OR the alloc. is successful*/
 160:..\..\..\lvgl\version_6.1.2\lvgl\src\lv_misc/lv_mem.c ****     } while(e != NULL && alloc == NULL);
 207              		.loc 1 160 0
 208 004a BB68     		ldr	r3, [r7, #8]
 209 004c 002B     		cmp	r3, #0
 210 004e 02D0     		beq	.L12
 211              		.loc 1 160 0 is_stmt 0 discriminator 1
 212 0050 FB68     		ldr	r3, [r7, #12]
 213 0052 002B     		cmp	r3, #0
 214 0054 EDD0     		beq	.L13
 215              	.L12:
 161:..\..\..\lvgl\version_6.1.2\lvgl\src\lv_misc/lv_mem.c **** 
 162:..\..\..\lvgl\version_6.1.2\lvgl\src\lv_misc/lv_mem.c **** #else
 163:..\..\..\lvgl\version_6.1.2\lvgl\src\lv_misc/lv_mem.c **** /*Use custom, user defined malloc function*/
 164:..\..\..\lvgl\version_6.1.2\lvgl\src\lv_misc/lv_mem.c **** #if LV_ENABLE_GC == 1 /*gc must not include header*/
 165:..\..\..\lvgl\version_6.1.2\lvgl\src\lv_misc/lv_mem.c ****     alloc = LV_MEM_CUSTOM_ALLOC(size);
 166:..\..\..\lvgl\version_6.1.2\lvgl\src\lv_misc/lv_mem.c **** #else                 /* LV_ENABLE_GC */
 167:..\..\..\lvgl\version_6.1.2\lvgl\src\lv_misc/lv_mem.c ****     /*Allocate a header too to store the size*/
 168:..\..\..\lvgl\version_6.1.2\lvgl\src\lv_misc/lv_mem.c ****     alloc = LV_MEM_CUSTOM_ALLOC(size + sizeof(lv_mem_header_t));
 169:..\..\..\lvgl\version_6.1.2\lvgl\src\lv_misc/lv_mem.c ****     if(alloc != NULL) {
 170:..\..\..\lvgl\version_6.1.2\lvgl\src\lv_misc/lv_mem.c ****         ((lv_mem_ent_t *)alloc)->header.s.d_size = size;
 171:..\..\..\lvgl\version_6.1.2\lvgl\src\lv_misc/lv_mem.c ****         ((lv_mem_ent_t *)alloc)->header.s.used   = 1;
 172:..\..\..\lvgl\version_6.1.2\lvgl\src\lv_misc/lv_mem.c **** 
 173:..\..\..\lvgl\version_6.1.2\lvgl\src\lv_misc/lv_mem.c ****         alloc = &((lv_mem_ent_t *)alloc)->first_data;
 174:..\..\..\lvgl\version_6.1.2\lvgl\src\lv_misc/lv_mem.c ****     }
 175:..\..\..\lvgl\version_6.1.2\lvgl\src\lv_misc/lv_mem.c **** #endif                /* LV_ENABLE_GC */
 176:..\..\..\lvgl\version_6.1.2\lvgl\src\lv_misc/lv_mem.c **** #endif                /* LV_MEM_CUSTOM */
 177:..\..\..\lvgl\version_6.1.2\lvgl\src\lv_misc/lv_mem.c **** 
 178:..\..\..\lvgl\version_6.1.2\lvgl\src\lv_misc/lv_mem.c **** #if LV_MEM_ADD_JUNK
 179:..\..\..\lvgl\version_6.1.2\lvgl\src\lv_misc/lv_mem.c ****     if(alloc != NULL) memset(alloc, 0xaa, size);
 180:..\..\..\lvgl\version_6.1.2\lvgl\src\lv_misc/lv_mem.c **** #endif
 181:..\..\..\lvgl\version_6.1.2\lvgl\src\lv_misc/lv_mem.c **** 
 182:..\..\..\lvgl\version_6.1.2\lvgl\src\lv_misc/lv_mem.c ****     if(alloc == NULL) LV_LOG_WARN("Couldn't allocate memory");
 183:..\..\..\lvgl\version_6.1.2\lvgl\src\lv_misc/lv_mem.c **** 
 184:..\..\..\lvgl\version_6.1.2\lvgl\src\lv_misc/lv_mem.c ****     return alloc;
ARM GAS  C:\Users\tmj32\AppData\Local\Temp\ccN7X7Jd.s 			page 8


 216              		.loc 1 184 0 is_stmt 1
 217 0056 FB68     		ldr	r3, [r7, #12]
 218              	.L9:
 185:..\..\..\lvgl\version_6.1.2\lvgl\src\lv_misc/lv_mem.c **** }
 219              		.loc 1 185 0
 220 0058 1846     		mov	r0, r3
 221 005a 1037     		adds	r7, r7, #16
 222              		.cfi_def_cfa_offset 8
 223 005c BD46     		mov	sp, r7
 224              		.cfi_def_cfa_register 13
 225              		@ sp needed
 226 005e 80BD     		pop	{r7, pc}
 227              	.L15:
 228              		.align	2
 229              	.L14:
 230 0060 04000000 		.word	zero_mem
 231              		.cfi_endproc
 232              	.LFE2:
 233              		.size	lv_mem_alloc, .-lv_mem_alloc
 234              		.section	.text.lv_mem_free,"ax",%progbits
 235              		.align	2
 236              		.global	lv_mem_free
 237              		.thumb
 238              		.thumb_func
 239              		.type	lv_mem_free, %function
 240              	lv_mem_free:
 241              	.LFB3:
 186:..\..\..\lvgl\version_6.1.2\lvgl\src\lv_misc/lv_mem.c **** 
 187:..\..\..\lvgl\version_6.1.2\lvgl\src\lv_misc/lv_mem.c **** /**
 188:..\..\..\lvgl\version_6.1.2\lvgl\src\lv_misc/lv_mem.c ****  * Free an allocated data
 189:..\..\..\lvgl\version_6.1.2\lvgl\src\lv_misc/lv_mem.c ****  * @param data pointer to an allocated memory
 190:..\..\..\lvgl\version_6.1.2\lvgl\src\lv_misc/lv_mem.c ****  */
 191:..\..\..\lvgl\version_6.1.2\lvgl\src\lv_misc/lv_mem.c **** void lv_mem_free(const void * data)
 192:..\..\..\lvgl\version_6.1.2\lvgl\src\lv_misc/lv_mem.c **** {
 242              		.loc 1 192 0
 243              		.cfi_startproc
 244              		@ args = 0, pretend = 0, frame = 16
 245              		@ frame_needed = 1, uses_anonymous_args = 0
 246 0000 80B5     		push	{r7, lr}
 247              		.cfi_def_cfa_offset 8
 248              		.cfi_offset 7, -8
 249              		.cfi_offset 14, -4
 250 0002 84B0     		sub	sp, sp, #16
 251              		.cfi_def_cfa_offset 24
 252 0004 00AF     		add	r7, sp, #0
 253              		.cfi_def_cfa_register 7
 254 0006 7860     		str	r0, [r7, #4]
 193:..\..\..\lvgl\version_6.1.2\lvgl\src\lv_misc/lv_mem.c ****     if(data == &zero_mem) return;
 255              		.loc 1 193 0
 256 0008 7B68     		ldr	r3, [r7, #4]
 257 000a 1E4A     		ldr	r2, .L27
 258 000c 9342     		cmp	r3, r2
 259 000e 30D0     		beq	.L24
 194:..\..\..\lvgl\version_6.1.2\lvgl\src\lv_misc/lv_mem.c ****     if(data == NULL) return;
 260              		.loc 1 194 0
 261 0010 7B68     		ldr	r3, [r7, #4]
 262 0012 002B     		cmp	r3, #0
ARM GAS  C:\Users\tmj32\AppData\Local\Temp\ccN7X7Jd.s 			page 9


 263 0014 2FD0     		beq	.L25
 195:..\..\..\lvgl\version_6.1.2\lvgl\src\lv_misc/lv_mem.c **** 
 196:..\..\..\lvgl\version_6.1.2\lvgl\src\lv_misc/lv_mem.c **** #if LV_MEM_ADD_JUNK
 197:..\..\..\lvgl\version_6.1.2\lvgl\src\lv_misc/lv_mem.c ****     memset((void *)data, 0xbb, lv_mem_get_size(data));
 198:..\..\..\lvgl\version_6.1.2\lvgl\src\lv_misc/lv_mem.c **** #endif
 199:..\..\..\lvgl\version_6.1.2\lvgl\src\lv_misc/lv_mem.c **** 
 200:..\..\..\lvgl\version_6.1.2\lvgl\src\lv_misc/lv_mem.c **** #if LV_ENABLE_GC == 0
 201:..\..\..\lvgl\version_6.1.2\lvgl\src\lv_misc/lv_mem.c ****     /*e points to the header*/
 202:..\..\..\lvgl\version_6.1.2\lvgl\src\lv_misc/lv_mem.c ****     lv_mem_ent_t * e = (lv_mem_ent_t *)((uint8_t *)data - sizeof(lv_mem_header_t));
 264              		.loc 1 202 0
 265 0016 7B68     		ldr	r3, [r7, #4]
 266 0018 043B     		subs	r3, r3, #4
 267 001a BB60     		str	r3, [r7, #8]
 203:..\..\..\lvgl\version_6.1.2\lvgl\src\lv_misc/lv_mem.c ****     e->header.s.used = 0;
 268              		.loc 1 203 0
 269 001c BA68     		ldr	r2, [r7, #8]
 270 001e 1378     		ldrb	r3, [r2]
 271 0020 6FF30003 		bfc	r3, #0, #1
 272 0024 1370     		strb	r3, [r2]
 204:..\..\..\lvgl\version_6.1.2\lvgl\src\lv_misc/lv_mem.c **** #endif
 205:..\..\..\lvgl\version_6.1.2\lvgl\src\lv_misc/lv_mem.c **** 
 206:..\..\..\lvgl\version_6.1.2\lvgl\src\lv_misc/lv_mem.c **** #if LV_MEM_CUSTOM == 0
 207:..\..\..\lvgl\version_6.1.2\lvgl\src\lv_misc/lv_mem.c **** #if LV_MEM_AUTO_DEFRAG
 208:..\..\..\lvgl\version_6.1.2\lvgl\src\lv_misc/lv_mem.c ****     /* Make a simple defrag.
 209:..\..\..\lvgl\version_6.1.2\lvgl\src\lv_misc/lv_mem.c ****      * Join the following free entries after this*/
 210:..\..\..\lvgl\version_6.1.2\lvgl\src\lv_misc/lv_mem.c ****     lv_mem_ent_t * e_next;
 211:..\..\..\lvgl\version_6.1.2\lvgl\src\lv_misc/lv_mem.c ****     e_next = ent_get_next(e);
 273              		.loc 1 211 0
 274 0026 B868     		ldr	r0, [r7, #8]
 275 0028 FFF7FEFF 		bl	ent_get_next
 276 002c F860     		str	r0, [r7, #12]
 212:..\..\..\lvgl\version_6.1.2\lvgl\src\lv_misc/lv_mem.c ****     while(e_next != NULL) {
 277              		.loc 1 212 0
 278 002e 1CE0     		b	.L20
 279              	.L23:
 213:..\..\..\lvgl\version_6.1.2\lvgl\src\lv_misc/lv_mem.c ****         if(e_next->header.s.used == 0) {
 280              		.loc 1 213 0
 281 0030 FB68     		ldr	r3, [r7, #12]
 282 0032 1B78     		ldrb	r3, [r3]	@ zero_extendqisi2
 283 0034 03F00103 		and	r3, r3, #1
 284 0038 DBB2     		uxtb	r3, r3
 285 003a 002B     		cmp	r3, #0
 286 003c 1DD1     		bne	.L26
 214:..\..\..\lvgl\version_6.1.2\lvgl\src\lv_misc/lv_mem.c ****             e->header.s.d_size += e_next->header.s.d_size + sizeof(e->header);
 287              		.loc 1 214 0
 288 003e BB68     		ldr	r3, [r7, #8]
 289 0040 1B68     		ldr	r3, [r3]
 290 0042 C3F35E03 		ubfx	r3, r3, #1, #31
 291 0046 1A46     		mov	r2, r3
 292 0048 FB68     		ldr	r3, [r7, #12]
 293 004a 1B68     		ldr	r3, [r3]
 294 004c C3F35E03 		ubfx	r3, r3, #1, #31
 295 0050 1344     		add	r3, r3, r2
 296 0052 0433     		adds	r3, r3, #4
 297 0054 23F00041 		bic	r1, r3, #-2147483648
 298 0058 BA68     		ldr	r2, [r7, #8]
 299 005a 1368     		ldr	r3, [r2]
ARM GAS  C:\Users\tmj32\AppData\Local\Temp\ccN7X7Jd.s 			page 10


 300 005c 61F35F03 		bfi	r3, r1, #1, #31
 301 0060 1360     		str	r3, [r2]
 215:..\..\..\lvgl\version_6.1.2\lvgl\src\lv_misc/lv_mem.c ****         } else {
 216:..\..\..\lvgl\version_6.1.2\lvgl\src\lv_misc/lv_mem.c ****             break;
 217:..\..\..\lvgl\version_6.1.2\lvgl\src\lv_misc/lv_mem.c ****         }
 218:..\..\..\lvgl\version_6.1.2\lvgl\src\lv_misc/lv_mem.c ****         e_next = ent_get_next(e_next);
 302              		.loc 1 218 0
 303 0062 F868     		ldr	r0, [r7, #12]
 304 0064 FFF7FEFF 		bl	ent_get_next
 305 0068 F860     		str	r0, [r7, #12]
 306              	.L20:
 212:..\..\..\lvgl\version_6.1.2\lvgl\src\lv_misc/lv_mem.c ****         if(e_next->header.s.used == 0) {
 307              		.loc 1 212 0
 308 006a FB68     		ldr	r3, [r7, #12]
 309 006c 002B     		cmp	r3, #0
 310 006e DFD1     		bne	.L23
 311 0070 04E0     		b	.L16
 312              	.L24:
 193:..\..\..\lvgl\version_6.1.2\lvgl\src\lv_misc/lv_mem.c ****     if(data == NULL) return;
 313              		.loc 1 193 0
 314 0072 00BF     		nop
 315 0074 02E0     		b	.L16
 316              	.L25:
 194:..\..\..\lvgl\version_6.1.2\lvgl\src\lv_misc/lv_mem.c **** 
 317              		.loc 1 194 0
 318 0076 00BF     		nop
 319 0078 00E0     		b	.L16
 320              	.L26:
 216:..\..\..\lvgl\version_6.1.2\lvgl\src\lv_misc/lv_mem.c ****         }
 321              		.loc 1 216 0
 322 007a 00BF     		nop
 323              	.L16:
 219:..\..\..\lvgl\version_6.1.2\lvgl\src\lv_misc/lv_mem.c ****     }
 220:..\..\..\lvgl\version_6.1.2\lvgl\src\lv_misc/lv_mem.c **** #endif
 221:..\..\..\lvgl\version_6.1.2\lvgl\src\lv_misc/lv_mem.c **** #else /*Use custom, user defined free function*/
 222:..\..\..\lvgl\version_6.1.2\lvgl\src\lv_misc/lv_mem.c **** #if LV_ENABLE_GC == 0
 223:..\..\..\lvgl\version_6.1.2\lvgl\src\lv_misc/lv_mem.c ****     LV_MEM_CUSTOM_FREE(e);
 224:..\..\..\lvgl\version_6.1.2\lvgl\src\lv_misc/lv_mem.c **** #else
 225:..\..\..\lvgl\version_6.1.2\lvgl\src\lv_misc/lv_mem.c ****     LV_MEM_CUSTOM_FREE((void *)data);
 226:..\..\..\lvgl\version_6.1.2\lvgl\src\lv_misc/lv_mem.c **** #endif /*LV_ENABLE_GC*/
 227:..\..\..\lvgl\version_6.1.2\lvgl\src\lv_misc/lv_mem.c **** #endif
 228:..\..\..\lvgl\version_6.1.2\lvgl\src\lv_misc/lv_mem.c **** }
 324              		.loc 1 228 0
 325 007c 1037     		adds	r7, r7, #16
 326              		.cfi_def_cfa_offset 8
 327 007e BD46     		mov	sp, r7
 328              		.cfi_def_cfa_register 13
 329              		@ sp needed
 330 0080 80BD     		pop	{r7, pc}
 331              	.L28:
 332 0082 00BF     		.align	2
 333              	.L27:
 334 0084 04000000 		.word	zero_mem
 335              		.cfi_endproc
 336              	.LFE3:
 337              		.size	lv_mem_free, .-lv_mem_free
 338              		.section	.text.lv_mem_realloc,"ax",%progbits
ARM GAS  C:\Users\tmj32\AppData\Local\Temp\ccN7X7Jd.s 			page 11


 339              		.align	2
 340              		.global	lv_mem_realloc
 341              		.thumb
 342              		.thumb_func
 343              		.type	lv_mem_realloc, %function
 344              	lv_mem_realloc:
 345              	.LFB4:
 229:..\..\..\lvgl\version_6.1.2\lvgl\src\lv_misc/lv_mem.c **** 
 230:..\..\..\lvgl\version_6.1.2\lvgl\src\lv_misc/lv_mem.c **** /**
 231:..\..\..\lvgl\version_6.1.2\lvgl\src\lv_misc/lv_mem.c ****  * Reallocate a memory with a new size. The old content will be kept.
 232:..\..\..\lvgl\version_6.1.2\lvgl\src\lv_misc/lv_mem.c ****  * @param data pointer to an allocated memory.
 233:..\..\..\lvgl\version_6.1.2\lvgl\src\lv_misc/lv_mem.c ****  * Its content will be copied to the new memory block and freed
 234:..\..\..\lvgl\version_6.1.2\lvgl\src\lv_misc/lv_mem.c ****  * @param new_size the desired new size in byte
 235:..\..\..\lvgl\version_6.1.2\lvgl\src\lv_misc/lv_mem.c ****  * @return pointer to the new memory
 236:..\..\..\lvgl\version_6.1.2\lvgl\src\lv_misc/lv_mem.c ****  */
 237:..\..\..\lvgl\version_6.1.2\lvgl\src\lv_misc/lv_mem.c **** 
 238:..\..\..\lvgl\version_6.1.2\lvgl\src\lv_misc/lv_mem.c **** #if LV_ENABLE_GC == 0
 239:..\..\..\lvgl\version_6.1.2\lvgl\src\lv_misc/lv_mem.c **** 
 240:..\..\..\lvgl\version_6.1.2\lvgl\src\lv_misc/lv_mem.c **** void * lv_mem_realloc(void * data_p, size_t new_size)
 241:..\..\..\lvgl\version_6.1.2\lvgl\src\lv_misc/lv_mem.c **** {
 346              		.loc 1 241 0
 347              		.cfi_startproc
 348              		@ args = 0, pretend = 0, frame = 24
 349              		@ frame_needed = 1, uses_anonymous_args = 0
 350 0000 80B5     		push	{r7, lr}
 351              		.cfi_def_cfa_offset 8
 352              		.cfi_offset 7, -8
 353              		.cfi_offset 14, -4
 354 0002 86B0     		sub	sp, sp, #24
 355              		.cfi_def_cfa_offset 32
 356 0004 00AF     		add	r7, sp, #0
 357              		.cfi_def_cfa_register 7
 358 0006 7860     		str	r0, [r7, #4]
 359 0008 3960     		str	r1, [r7]
 242:..\..\..\lvgl\version_6.1.2\lvgl\src\lv_misc/lv_mem.c ****     /*data_p could be previously freed pointer (in this case it is invalid)*/
 243:..\..\..\lvgl\version_6.1.2\lvgl\src\lv_misc/lv_mem.c ****     if(data_p != NULL) {
 360              		.loc 1 243 0
 361 000a 7B68     		ldr	r3, [r7, #4]
 362 000c 002B     		cmp	r3, #0
 363 000e 0BD0     		beq	.L30
 364              	.LBB2:
 244:..\..\..\lvgl\version_6.1.2\lvgl\src\lv_misc/lv_mem.c ****         lv_mem_ent_t * e = (lv_mem_ent_t *)((uint8_t *)data_p - sizeof(lv_mem_header_t));
 365              		.loc 1 244 0
 366 0010 7B68     		ldr	r3, [r7, #4]
 367 0012 043B     		subs	r3, r3, #4
 368 0014 7B61     		str	r3, [r7, #20]
 245:..\..\..\lvgl\version_6.1.2\lvgl\src\lv_misc/lv_mem.c ****         if(e->header.s.used == 0) {
 369              		.loc 1 245 0
 370 0016 7B69     		ldr	r3, [r7, #20]
 371 0018 1B78     		ldrb	r3, [r3]	@ zero_extendqisi2
 372 001a 03F00103 		and	r3, r3, #1
 373 001e DBB2     		uxtb	r3, r3
 374 0020 002B     		cmp	r3, #0
 375 0022 01D1     		bne	.L30
 246:..\..\..\lvgl\version_6.1.2\lvgl\src\lv_misc/lv_mem.c ****             data_p = NULL;
 376              		.loc 1 246 0
 377 0024 0023     		movs	r3, #0
ARM GAS  C:\Users\tmj32\AppData\Local\Temp\ccN7X7Jd.s 			page 12


 378 0026 7B60     		str	r3, [r7, #4]
 379              	.L30:
 380              	.LBE2:
 247:..\..\..\lvgl\version_6.1.2\lvgl\src\lv_misc/lv_mem.c ****         }
 248:..\..\..\lvgl\version_6.1.2\lvgl\src\lv_misc/lv_mem.c ****     }
 249:..\..\..\lvgl\version_6.1.2\lvgl\src\lv_misc/lv_mem.c **** 
 250:..\..\..\lvgl\version_6.1.2\lvgl\src\lv_misc/lv_mem.c ****     uint32_t old_size = lv_mem_get_size(data_p);
 381              		.loc 1 250 0
 382 0028 7868     		ldr	r0, [r7, #4]
 383 002a FFF7FEFF 		bl	lv_mem_get_size
 384 002e 3861     		str	r0, [r7, #16]
 251:..\..\..\lvgl\version_6.1.2\lvgl\src\lv_misc/lv_mem.c ****     if(old_size == new_size) return data_p; /*Also avoid reallocating the same memory*/
 385              		.loc 1 251 0
 386 0030 3A69     		ldr	r2, [r7, #16]
 387 0032 3B68     		ldr	r3, [r7]
 388 0034 9A42     		cmp	r2, r3
 389 0036 01D1     		bne	.L31
 390              		.loc 1 251 0 is_stmt 0 discriminator 1
 391 0038 7B68     		ldr	r3, [r7, #4]
 392 003a 28E0     		b	.L32
 393              	.L31:
 252:..\..\..\lvgl\version_6.1.2\lvgl\src\lv_misc/lv_mem.c **** 
 253:..\..\..\lvgl\version_6.1.2\lvgl\src\lv_misc/lv_mem.c **** #if LV_MEM_CUSTOM == 0
 254:..\..\..\lvgl\version_6.1.2\lvgl\src\lv_misc/lv_mem.c ****     /* Truncate the memory if the new size is smaller. */
 255:..\..\..\lvgl\version_6.1.2\lvgl\src\lv_misc/lv_mem.c ****     if(new_size < old_size) {
 394              		.loc 1 255 0 is_stmt 1
 395 003c 3A68     		ldr	r2, [r7]
 396 003e 3B69     		ldr	r3, [r7, #16]
 397 0040 9A42     		cmp	r2, r3
 398 0042 09D2     		bcs	.L33
 399              	.LBB3:
 256:..\..\..\lvgl\version_6.1.2\lvgl\src\lv_misc/lv_mem.c ****         lv_mem_ent_t * e = (lv_mem_ent_t *)((uint8_t *)data_p - sizeof(lv_mem_header_t));
 400              		.loc 1 256 0
 401 0044 7B68     		ldr	r3, [r7, #4]
 402 0046 043B     		subs	r3, r3, #4
 403 0048 FB60     		str	r3, [r7, #12]
 257:..\..\..\lvgl\version_6.1.2\lvgl\src\lv_misc/lv_mem.c ****         ent_trunc(e, new_size);
 404              		.loc 1 257 0
 405 004a 3968     		ldr	r1, [r7]
 406 004c F868     		ldr	r0, [r7, #12]
 407 004e FFF7FEFF 		bl	ent_trunc
 258:..\..\..\lvgl\version_6.1.2\lvgl\src\lv_misc/lv_mem.c ****         return &e->first_data;
 408              		.loc 1 258 0
 409 0052 FB68     		ldr	r3, [r7, #12]
 410 0054 0433     		adds	r3, r3, #4
 411 0056 1AE0     		b	.L32
 412              	.L33:
 413              	.LBE3:
 259:..\..\..\lvgl\version_6.1.2\lvgl\src\lv_misc/lv_mem.c ****     }
 260:..\..\..\lvgl\version_6.1.2\lvgl\src\lv_misc/lv_mem.c **** #endif
 261:..\..\..\lvgl\version_6.1.2\lvgl\src\lv_misc/lv_mem.c **** 
 262:..\..\..\lvgl\version_6.1.2\lvgl\src\lv_misc/lv_mem.c ****     void * new_p;
 263:..\..\..\lvgl\version_6.1.2\lvgl\src\lv_misc/lv_mem.c ****     new_p = lv_mem_alloc(new_size);
 414              		.loc 1 263 0
 415 0058 3868     		ldr	r0, [r7]
 416 005a FFF7FEFF 		bl	lv_mem_alloc
 417 005e B860     		str	r0, [r7, #8]
ARM GAS  C:\Users\tmj32\AppData\Local\Temp\ccN7X7Jd.s 			page 13


 264:..\..\..\lvgl\version_6.1.2\lvgl\src\lv_misc/lv_mem.c **** 
 265:..\..\..\lvgl\version_6.1.2\lvgl\src\lv_misc/lv_mem.c ****     if(new_p != NULL && data_p != NULL) {
 418              		.loc 1 265 0
 419 0060 BB68     		ldr	r3, [r7, #8]
 420 0062 002B     		cmp	r3, #0
 421 0064 12D0     		beq	.L35
 422              		.loc 1 265 0 is_stmt 0 discriminator 1
 423 0066 7B68     		ldr	r3, [r7, #4]
 424 0068 002B     		cmp	r3, #0
 425 006a 0FD0     		beq	.L35
 266:..\..\..\lvgl\version_6.1.2\lvgl\src\lv_misc/lv_mem.c ****         /*Copy the old data to the new. Use the smaller size*/
 267:..\..\..\lvgl\version_6.1.2\lvgl\src\lv_misc/lv_mem.c ****         if(old_size != 0) {
 426              		.loc 1 267 0 is_stmt 1
 427 006c 3B69     		ldr	r3, [r7, #16]
 428 006e 002B     		cmp	r3, #0
 429 0070 0CD0     		beq	.L35
 268:..\..\..\lvgl\version_6.1.2\lvgl\src\lv_misc/lv_mem.c ****             memcpy(new_p, data_p, LV_MATH_MIN(new_size, old_size));
 430              		.loc 1 268 0
 431 0072 3A69     		ldr	r2, [r7, #16]
 432 0074 3B68     		ldr	r3, [r7]
 433 0076 9342     		cmp	r3, r2
 434 0078 28BF     		it	cs
 435 007a 1346     		movcs	r3, r2
 436 007c 1A46     		mov	r2, r3
 437 007e 7968     		ldr	r1, [r7, #4]
 438 0080 B868     		ldr	r0, [r7, #8]
 439 0082 FFF7FEFF 		bl	memcpy
 269:..\..\..\lvgl\version_6.1.2\lvgl\src\lv_misc/lv_mem.c ****             lv_mem_free(data_p);
 440              		.loc 1 269 0
 441 0086 7868     		ldr	r0, [r7, #4]
 442 0088 FFF7FEFF 		bl	lv_mem_free
 443              	.L35:
 270:..\..\..\lvgl\version_6.1.2\lvgl\src\lv_misc/lv_mem.c ****         }
 271:..\..\..\lvgl\version_6.1.2\lvgl\src\lv_misc/lv_mem.c ****     }
 272:..\..\..\lvgl\version_6.1.2\lvgl\src\lv_misc/lv_mem.c **** 
 273:..\..\..\lvgl\version_6.1.2\lvgl\src\lv_misc/lv_mem.c ****     if(new_p == NULL) LV_LOG_WARN("Couldn't allocate memory");
 274:..\..\..\lvgl\version_6.1.2\lvgl\src\lv_misc/lv_mem.c **** 
 275:..\..\..\lvgl\version_6.1.2\lvgl\src\lv_misc/lv_mem.c ****     return new_p;
 444              		.loc 1 275 0
 445 008c BB68     		ldr	r3, [r7, #8]
 446              	.L32:
 276:..\..\..\lvgl\version_6.1.2\lvgl\src\lv_misc/lv_mem.c **** }
 447              		.loc 1 276 0
 448 008e 1846     		mov	r0, r3
 449 0090 1837     		adds	r7, r7, #24
 450              		.cfi_def_cfa_offset 8
 451 0092 BD46     		mov	sp, r7
 452              		.cfi_def_cfa_register 13
 453              		@ sp needed
 454 0094 80BD     		pop	{r7, pc}
 455              		.cfi_endproc
 456              	.LFE4:
 457              		.size	lv_mem_realloc, .-lv_mem_realloc
 458 0096 00BF     		.section	.text.lv_mem_defrag,"ax",%progbits
 459              		.align	2
 460              		.global	lv_mem_defrag
 461              		.thumb
ARM GAS  C:\Users\tmj32\AppData\Local\Temp\ccN7X7Jd.s 			page 14


 462              		.thumb_func
 463              		.type	lv_mem_defrag, %function
 464              	lv_mem_defrag:
 465              	.LFB5:
 277:..\..\..\lvgl\version_6.1.2\lvgl\src\lv_misc/lv_mem.c **** 
 278:..\..\..\lvgl\version_6.1.2\lvgl\src\lv_misc/lv_mem.c **** #else /* LV_ENABLE_GC */
 279:..\..\..\lvgl\version_6.1.2\lvgl\src\lv_misc/lv_mem.c **** 
 280:..\..\..\lvgl\version_6.1.2\lvgl\src\lv_misc/lv_mem.c **** void * lv_mem_realloc(void * data_p, size_t new_size)
 281:..\..\..\lvgl\version_6.1.2\lvgl\src\lv_misc/lv_mem.c **** {
 282:..\..\..\lvgl\version_6.1.2\lvgl\src\lv_misc/lv_mem.c ****     void * new_p = LV_MEM_CUSTOM_REALLOC(data_p, new_size);
 283:..\..\..\lvgl\version_6.1.2\lvgl\src\lv_misc/lv_mem.c ****     if(new_p == NULL) LV_LOG_WARN("Couldn't allocate memory");
 284:..\..\..\lvgl\version_6.1.2\lvgl\src\lv_misc/lv_mem.c ****     return new_p;
 285:..\..\..\lvgl\version_6.1.2\lvgl\src\lv_misc/lv_mem.c **** }
 286:..\..\..\lvgl\version_6.1.2\lvgl\src\lv_misc/lv_mem.c **** 
 287:..\..\..\lvgl\version_6.1.2\lvgl\src\lv_misc/lv_mem.c **** #endif /* lv_enable_gc */
 288:..\..\..\lvgl\version_6.1.2\lvgl\src\lv_misc/lv_mem.c **** 
 289:..\..\..\lvgl\version_6.1.2\lvgl\src\lv_misc/lv_mem.c **** /**
 290:..\..\..\lvgl\version_6.1.2\lvgl\src\lv_misc/lv_mem.c ****  * Join the adjacent free memory blocks
 291:..\..\..\lvgl\version_6.1.2\lvgl\src\lv_misc/lv_mem.c ****  */
 292:..\..\..\lvgl\version_6.1.2\lvgl\src\lv_misc/lv_mem.c **** void lv_mem_defrag(void)
 293:..\..\..\lvgl\version_6.1.2\lvgl\src\lv_misc/lv_mem.c **** {
 466              		.loc 1 293 0
 467              		.cfi_startproc
 468              		@ args = 0, pretend = 0, frame = 8
 469              		@ frame_needed = 1, uses_anonymous_args = 0
 470 0000 80B5     		push	{r7, lr}
 471              		.cfi_def_cfa_offset 8
 472              		.cfi_offset 7, -8
 473              		.cfi_offset 14, -4
 474 0002 82B0     		sub	sp, sp, #8
 475              		.cfi_def_cfa_offset 16
 476 0004 00AF     		add	r7, sp, #0
 477              		.cfi_def_cfa_register 7
 294:..\..\..\lvgl\version_6.1.2\lvgl\src\lv_misc/lv_mem.c **** #if LV_MEM_CUSTOM == 0
 295:..\..\..\lvgl\version_6.1.2\lvgl\src\lv_misc/lv_mem.c ****     lv_mem_ent_t * e_free;
 296:..\..\..\lvgl\version_6.1.2\lvgl\src\lv_misc/lv_mem.c ****     lv_mem_ent_t * e_next;
 297:..\..\..\lvgl\version_6.1.2\lvgl\src\lv_misc/lv_mem.c ****     e_free = ent_get_next(NULL);
 478              		.loc 1 297 0
 479 0006 0020     		movs	r0, #0
 480 0008 FFF7FEFF 		bl	ent_get_next
 481 000c 7860     		str	r0, [r7, #4]
 482              	.L49:
 298:..\..\..\lvgl\version_6.1.2\lvgl\src\lv_misc/lv_mem.c **** 
 299:..\..\..\lvgl\version_6.1.2\lvgl\src\lv_misc/lv_mem.c ****     while(1) {
 300:..\..\..\lvgl\version_6.1.2\lvgl\src\lv_misc/lv_mem.c ****         /*Search the next free entry*/
 301:..\..\..\lvgl\version_6.1.2\lvgl\src\lv_misc/lv_mem.c ****         while(e_free != NULL) {
 483              		.loc 1 301 0
 484 000e 0AE0     		b	.L37
 485              	.L40:
 302:..\..\..\lvgl\version_6.1.2\lvgl\src\lv_misc/lv_mem.c ****             if(e_free->header.s.used != 0) {
 486              		.loc 1 302 0
 487 0010 7B68     		ldr	r3, [r7, #4]
 488 0012 1B78     		ldrb	r3, [r3]	@ zero_extendqisi2
 489 0014 03F00103 		and	r3, r3, #1
 490 0018 DBB2     		uxtb	r3, r3
 491 001a 002B     		cmp	r3, #0
 492 001c 07D0     		beq	.L50
ARM GAS  C:\Users\tmj32\AppData\Local\Temp\ccN7X7Jd.s 			page 15


 303:..\..\..\lvgl\version_6.1.2\lvgl\src\lv_misc/lv_mem.c ****                 e_free = ent_get_next(e_free);
 493              		.loc 1 303 0
 494 001e 7868     		ldr	r0, [r7, #4]
 495 0020 FFF7FEFF 		bl	ent_get_next
 496 0024 7860     		str	r0, [r7, #4]
 497              	.L37:
 301:..\..\..\lvgl\version_6.1.2\lvgl\src\lv_misc/lv_mem.c ****             if(e_free->header.s.used != 0) {
 498              		.loc 1 301 0
 499 0026 7B68     		ldr	r3, [r7, #4]
 500 0028 002B     		cmp	r3, #0
 501 002a F1D1     		bne	.L40
 502 002c 00E0     		b	.L39
 503              	.L50:
 304:..\..\..\lvgl\version_6.1.2\lvgl\src\lv_misc/lv_mem.c ****             } else {
 305:..\..\..\lvgl\version_6.1.2\lvgl\src\lv_misc/lv_mem.c ****                 break;
 504              		.loc 1 305 0
 505 002e 00BF     		nop
 506              	.L39:
 306:..\..\..\lvgl\version_6.1.2\lvgl\src\lv_misc/lv_mem.c ****             }
 307:..\..\..\lvgl\version_6.1.2\lvgl\src\lv_misc/lv_mem.c ****         }
 308:..\..\..\lvgl\version_6.1.2\lvgl\src\lv_misc/lv_mem.c **** 
 309:..\..\..\lvgl\version_6.1.2\lvgl\src\lv_misc/lv_mem.c ****         if(e_free == NULL) return;
 507              		.loc 1 309 0
 508 0030 7B68     		ldr	r3, [r7, #4]
 509 0032 002B     		cmp	r3, #0
 510 0034 2CD0     		beq	.L51
 310:..\..\..\lvgl\version_6.1.2\lvgl\src\lv_misc/lv_mem.c **** 
 311:..\..\..\lvgl\version_6.1.2\lvgl\src\lv_misc/lv_mem.c ****         /*Joint the following free entries to the free*/
 312:..\..\..\lvgl\version_6.1.2\lvgl\src\lv_misc/lv_mem.c ****         e_next = ent_get_next(e_free);
 511              		.loc 1 312 0
 512 0036 7868     		ldr	r0, [r7, #4]
 513 0038 FFF7FEFF 		bl	ent_get_next
 514 003c 3860     		str	r0, [r7]
 313:..\..\..\lvgl\version_6.1.2\lvgl\src\lv_misc/lv_mem.c ****         while(e_next != NULL) {
 515              		.loc 1 313 0
 516 003e 1CE0     		b	.L43
 517              	.L47:
 314:..\..\..\lvgl\version_6.1.2\lvgl\src\lv_misc/lv_mem.c ****             if(e_next->header.s.used == 0) {
 518              		.loc 1 314 0
 519 0040 3B68     		ldr	r3, [r7]
 520 0042 1B78     		ldrb	r3, [r3]	@ zero_extendqisi2
 521 0044 03F00103 		and	r3, r3, #1
 522 0048 DBB2     		uxtb	r3, r3
 523 004a 002B     		cmp	r3, #0
 524 004c 19D1     		bne	.L52
 315:..\..\..\lvgl\version_6.1.2\lvgl\src\lv_misc/lv_mem.c ****                 e_free->header.s.d_size += e_next->header.s.d_size + sizeof(e_next->header);
 525              		.loc 1 315 0
 526 004e 7B68     		ldr	r3, [r7, #4]
 527 0050 1B68     		ldr	r3, [r3]
 528 0052 C3F35E03 		ubfx	r3, r3, #1, #31
 529 0056 1A46     		mov	r2, r3
 530 0058 3B68     		ldr	r3, [r7]
 531 005a 1B68     		ldr	r3, [r3]
 532 005c C3F35E03 		ubfx	r3, r3, #1, #31
 533 0060 1344     		add	r3, r3, r2
 534 0062 0433     		adds	r3, r3, #4
 535 0064 23F00041 		bic	r1, r3, #-2147483648
ARM GAS  C:\Users\tmj32\AppData\Local\Temp\ccN7X7Jd.s 			page 16


 536 0068 7A68     		ldr	r2, [r7, #4]
 537 006a 1368     		ldr	r3, [r2]
 538 006c 61F35F03 		bfi	r3, r1, #1, #31
 539 0070 1360     		str	r3, [r2]
 316:..\..\..\lvgl\version_6.1.2\lvgl\src\lv_misc/lv_mem.c ****             } else {
 317:..\..\..\lvgl\version_6.1.2\lvgl\src\lv_misc/lv_mem.c ****                 break;
 318:..\..\..\lvgl\version_6.1.2\lvgl\src\lv_misc/lv_mem.c ****             }
 319:..\..\..\lvgl\version_6.1.2\lvgl\src\lv_misc/lv_mem.c **** 
 320:..\..\..\lvgl\version_6.1.2\lvgl\src\lv_misc/lv_mem.c ****             e_next = ent_get_next(e_next);
 540              		.loc 1 320 0
 541 0072 3868     		ldr	r0, [r7]
 542 0074 FFF7FEFF 		bl	ent_get_next
 543 0078 3860     		str	r0, [r7]
 544              	.L43:
 313:..\..\..\lvgl\version_6.1.2\lvgl\src\lv_misc/lv_mem.c ****             if(e_next->header.s.used == 0) {
 545              		.loc 1 313 0
 546 007a 3B68     		ldr	r3, [r7]
 547 007c 002B     		cmp	r3, #0
 548 007e DFD1     		bne	.L47
 549 0080 00E0     		b	.L46
 550              	.L52:
 317:..\..\..\lvgl\version_6.1.2\lvgl\src\lv_misc/lv_mem.c ****             }
 551              		.loc 1 317 0
 552 0082 00BF     		nop
 553              	.L46:
 321:..\..\..\lvgl\version_6.1.2\lvgl\src\lv_misc/lv_mem.c ****         }
 322:..\..\..\lvgl\version_6.1.2\lvgl\src\lv_misc/lv_mem.c **** 
 323:..\..\..\lvgl\version_6.1.2\lvgl\src\lv_misc/lv_mem.c ****         if(e_next == NULL) return;
 554              		.loc 1 323 0
 555 0084 3B68     		ldr	r3, [r7]
 556 0086 002B     		cmp	r3, #0
 557 0088 04D0     		beq	.L53
 324:..\..\..\lvgl\version_6.1.2\lvgl\src\lv_misc/lv_mem.c **** 
 325:..\..\..\lvgl\version_6.1.2\lvgl\src\lv_misc/lv_mem.c ****         /*Continue from the lastly checked entry*/
 326:..\..\..\lvgl\version_6.1.2\lvgl\src\lv_misc/lv_mem.c ****         e_free = e_next;
 558              		.loc 1 326 0
 559 008a 3B68     		ldr	r3, [r7]
 560 008c 7B60     		str	r3, [r7, #4]
 327:..\..\..\lvgl\version_6.1.2\lvgl\src\lv_misc/lv_mem.c ****     }
 561              		.loc 1 327 0
 562 008e BEE7     		b	.L49
 563              	.L51:
 309:..\..\..\lvgl\version_6.1.2\lvgl\src\lv_misc/lv_mem.c **** 
 564              		.loc 1 309 0
 565 0090 00BF     		nop
 566 0092 00E0     		b	.L36
 567              	.L53:
 323:..\..\..\lvgl\version_6.1.2\lvgl\src\lv_misc/lv_mem.c **** 
 568              		.loc 1 323 0
 569 0094 00BF     		nop
 570              	.L36:
 328:..\..\..\lvgl\version_6.1.2\lvgl\src\lv_misc/lv_mem.c **** #endif
 329:..\..\..\lvgl\version_6.1.2\lvgl\src\lv_misc/lv_mem.c **** }
 571              		.loc 1 329 0
 572 0096 0837     		adds	r7, r7, #8
 573              		.cfi_def_cfa_offset 8
 574 0098 BD46     		mov	sp, r7
ARM GAS  C:\Users\tmj32\AppData\Local\Temp\ccN7X7Jd.s 			page 17


 575              		.cfi_def_cfa_register 13
 576              		@ sp needed
 577 009a 80BD     		pop	{r7, pc}
 578              		.cfi_endproc
 579              	.LFE5:
 580              		.size	lv_mem_defrag, .-lv_mem_defrag
 581              		.section	.text.lv_mem_monitor,"ax",%progbits
 582              		.align	2
 583              		.global	lv_mem_monitor
 584              		.thumb
 585              		.thumb_func
 586              		.type	lv_mem_monitor, %function
 587              	lv_mem_monitor:
 588              	.LFB6:
 330:..\..\..\lvgl\version_6.1.2\lvgl\src\lv_misc/lv_mem.c **** 
 331:..\..\..\lvgl\version_6.1.2\lvgl\src\lv_misc/lv_mem.c **** /**
 332:..\..\..\lvgl\version_6.1.2\lvgl\src\lv_misc/lv_mem.c ****  * Give information about the work memory of dynamic allocation
 333:..\..\..\lvgl\version_6.1.2\lvgl\src\lv_misc/lv_mem.c ****  * @param mon_p pointer to a dm_mon_p variable,
 334:..\..\..\lvgl\version_6.1.2\lvgl\src\lv_misc/lv_mem.c ****  *              the result of the analysis will be stored here
 335:..\..\..\lvgl\version_6.1.2\lvgl\src\lv_misc/lv_mem.c ****  */
 336:..\..\..\lvgl\version_6.1.2\lvgl\src\lv_misc/lv_mem.c **** void lv_mem_monitor(lv_mem_monitor_t * mon_p)
 337:..\..\..\lvgl\version_6.1.2\lvgl\src\lv_misc/lv_mem.c **** {
 589              		.loc 1 337 0
 590              		.cfi_startproc
 591              		@ args = 0, pretend = 0, frame = 16
 592              		@ frame_needed = 1, uses_anonymous_args = 0
 593 0000 80B5     		push	{r7, lr}
 594              		.cfi_def_cfa_offset 8
 595              		.cfi_offset 7, -8
 596              		.cfi_offset 14, -4
 597 0002 84B0     		sub	sp, sp, #16
 598              		.cfi_def_cfa_offset 24
 599 0004 00AF     		add	r7, sp, #0
 600              		.cfi_def_cfa_register 7
 601 0006 7860     		str	r0, [r7, #4]
 338:..\..\..\lvgl\version_6.1.2\lvgl\src\lv_misc/lv_mem.c ****     /*Init the data*/
 339:..\..\..\lvgl\version_6.1.2\lvgl\src\lv_misc/lv_mem.c ****     memset(mon_p, 0, sizeof(lv_mem_monitor_t));
 602              		.loc 1 339 0
 603 0008 1822     		movs	r2, #24
 604 000a 0021     		movs	r1, #0
 605 000c 7868     		ldr	r0, [r7, #4]
 606 000e FFF7FEFF 		bl	memset
 340:..\..\..\lvgl\version_6.1.2\lvgl\src\lv_misc/lv_mem.c **** #if LV_MEM_CUSTOM == 0
 341:..\..\..\lvgl\version_6.1.2\lvgl\src\lv_misc/lv_mem.c ****     lv_mem_ent_t * e;
 342:..\..\..\lvgl\version_6.1.2\lvgl\src\lv_misc/lv_mem.c ****     e = NULL;
 607              		.loc 1 342 0
 608 0012 0023     		movs	r3, #0
 609 0014 FB60     		str	r3, [r7, #12]
 343:..\..\..\lvgl\version_6.1.2\lvgl\src\lv_misc/lv_mem.c **** 
 344:..\..\..\lvgl\version_6.1.2\lvgl\src\lv_misc/lv_mem.c ****     e = ent_get_next(e);
 610              		.loc 1 344 0
 611 0016 F868     		ldr	r0, [r7, #12]
 612 0018 FFF7FEFF 		bl	ent_get_next
 613 001c F860     		str	r0, [r7, #12]
 345:..\..\..\lvgl\version_6.1.2\lvgl\src\lv_misc/lv_mem.c **** 
 346:..\..\..\lvgl\version_6.1.2\lvgl\src\lv_misc/lv_mem.c ****     while(e != NULL) {
 614              		.loc 1 346 0
ARM GAS  C:\Users\tmj32\AppData\Local\Temp\ccN7X7Jd.s 			page 18


 615 001e 2EE0     		b	.L55
 616              	.L59:
 347:..\..\..\lvgl\version_6.1.2\lvgl\src\lv_misc/lv_mem.c ****         if(e->header.s.used == 0) {
 617              		.loc 1 347 0
 618 0020 FB68     		ldr	r3, [r7, #12]
 619 0022 1B78     		ldrb	r3, [r3]	@ zero_extendqisi2
 620 0024 03F00103 		and	r3, r3, #1
 621 0028 DBB2     		uxtb	r3, r3
 622 002a 002B     		cmp	r3, #0
 623 002c 1ED1     		bne	.L56
 348:..\..\..\lvgl\version_6.1.2\lvgl\src\lv_misc/lv_mem.c ****             mon_p->free_cnt++;
 624              		.loc 1 348 0
 625 002e 7B68     		ldr	r3, [r7, #4]
 626 0030 5B68     		ldr	r3, [r3, #4]
 627 0032 5A1C     		adds	r2, r3, #1
 628 0034 7B68     		ldr	r3, [r7, #4]
 629 0036 5A60     		str	r2, [r3, #4]
 349:..\..\..\lvgl\version_6.1.2\lvgl\src\lv_misc/lv_mem.c ****             mon_p->free_size += e->header.s.d_size;
 630              		.loc 1 349 0
 631 0038 7B68     		ldr	r3, [r7, #4]
 632 003a 9B68     		ldr	r3, [r3, #8]
 633 003c FA68     		ldr	r2, [r7, #12]
 634 003e 1268     		ldr	r2, [r2]
 635 0040 C2F35E02 		ubfx	r2, r2, #1, #31
 636 0044 1A44     		add	r2, r2, r3
 637 0046 7B68     		ldr	r3, [r7, #4]
 638 0048 9A60     		str	r2, [r3, #8]
 350:..\..\..\lvgl\version_6.1.2\lvgl\src\lv_misc/lv_mem.c ****             if(e->header.s.d_size > mon_p->free_biggest_size) {
 639              		.loc 1 350 0
 640 004a FB68     		ldr	r3, [r7, #12]
 641 004c 1B68     		ldr	r3, [r3]
 642 004e C3F35E03 		ubfx	r3, r3, #1, #31
 643 0052 1A46     		mov	r2, r3
 644 0054 7B68     		ldr	r3, [r7, #4]
 645 0056 DB68     		ldr	r3, [r3, #12]
 646 0058 9A42     		cmp	r2, r3
 647 005a 0CD9     		bls	.L58
 351:..\..\..\lvgl\version_6.1.2\lvgl\src\lv_misc/lv_mem.c ****                 mon_p->free_biggest_size = e->header.s.d_size;
 648              		.loc 1 351 0
 649 005c FB68     		ldr	r3, [r7, #12]
 650 005e 1B68     		ldr	r3, [r3]
 651 0060 C3F35E03 		ubfx	r3, r3, #1, #31
 652 0064 1A46     		mov	r2, r3
 653 0066 7B68     		ldr	r3, [r7, #4]
 654 0068 DA60     		str	r2, [r3, #12]
 655 006a 04E0     		b	.L58
 656              	.L56:
 352:..\..\..\lvgl\version_6.1.2\lvgl\src\lv_misc/lv_mem.c ****             }
 353:..\..\..\lvgl\version_6.1.2\lvgl\src\lv_misc/lv_mem.c ****         } else {
 354:..\..\..\lvgl\version_6.1.2\lvgl\src\lv_misc/lv_mem.c ****             mon_p->used_cnt++;
 657              		.loc 1 354 0
 658 006c 7B68     		ldr	r3, [r7, #4]
 659 006e 1B69     		ldr	r3, [r3, #16]
 660 0070 5A1C     		adds	r2, r3, #1
 661 0072 7B68     		ldr	r3, [r7, #4]
 662 0074 1A61     		str	r2, [r3, #16]
 663              	.L58:
ARM GAS  C:\Users\tmj32\AppData\Local\Temp\ccN7X7Jd.s 			page 19


 355:..\..\..\lvgl\version_6.1.2\lvgl\src\lv_misc/lv_mem.c ****         }
 356:..\..\..\lvgl\version_6.1.2\lvgl\src\lv_misc/lv_mem.c **** 
 357:..\..\..\lvgl\version_6.1.2\lvgl\src\lv_misc/lv_mem.c ****         e = ent_get_next(e);
 664              		.loc 1 357 0
 665 0076 F868     		ldr	r0, [r7, #12]
 666 0078 FFF7FEFF 		bl	ent_get_next
 667 007c F860     		str	r0, [r7, #12]
 668              	.L55:
 346:..\..\..\lvgl\version_6.1.2\lvgl\src\lv_misc/lv_mem.c ****         if(e->header.s.used == 0) {
 669              		.loc 1 346 0
 670 007e FB68     		ldr	r3, [r7, #12]
 671 0080 002B     		cmp	r3, #0
 672 0082 CDD1     		bne	.L59
 358:..\..\..\lvgl\version_6.1.2\lvgl\src\lv_misc/lv_mem.c ****     }
 359:..\..\..\lvgl\version_6.1.2\lvgl\src\lv_misc/lv_mem.c ****     mon_p->total_size = LV_MEM_SIZE;
 673              		.loc 1 359 0
 674 0084 7B68     		ldr	r3, [r7, #4]
 675 0086 4FF48032 		mov	r2, #65536
 676 008a 1A60     		str	r2, [r3]
 360:..\..\..\lvgl\version_6.1.2\lvgl\src\lv_misc/lv_mem.c ****     mon_p->used_pct   = 100 - (100U * mon_p->free_size) / mon_p->total_size;
 677              		.loc 1 360 0
 678 008c 7B68     		ldr	r3, [r7, #4]
 679 008e 9B68     		ldr	r3, [r3, #8]
 680 0090 6422     		movs	r2, #100
 681 0092 02FB03F2 		mul	r2, r2, r3
 682 0096 7B68     		ldr	r3, [r7, #4]
 683 0098 1B68     		ldr	r3, [r3]
 684 009a B2FBF3F3 		udiv	r3, r2, r3
 685 009e DBB2     		uxtb	r3, r3
 686 00a0 C3F16403 		rsb	r3, r3, #100
 687 00a4 DAB2     		uxtb	r2, r3
 688 00a6 7B68     		ldr	r3, [r7, #4]
 689 00a8 1A75     		strb	r2, [r3, #20]
 361:..\..\..\lvgl\version_6.1.2\lvgl\src\lv_misc/lv_mem.c ****     mon_p->frag_pct   = (uint32_t)mon_p->free_biggest_size * 100U / mon_p->free_size;
 690              		.loc 1 361 0
 691 00aa 7B68     		ldr	r3, [r7, #4]
 692 00ac DB68     		ldr	r3, [r3, #12]
 693 00ae 6422     		movs	r2, #100
 694 00b0 02FB03F2 		mul	r2, r2, r3
 695 00b4 7B68     		ldr	r3, [r7, #4]
 696 00b6 9B68     		ldr	r3, [r3, #8]
 697 00b8 B2FBF3F3 		udiv	r3, r2, r3
 698 00bc DAB2     		uxtb	r2, r3
 699 00be 7B68     		ldr	r3, [r7, #4]
 700 00c0 5A75     		strb	r2, [r3, #21]
 362:..\..\..\lvgl\version_6.1.2\lvgl\src\lv_misc/lv_mem.c ****     mon_p->frag_pct   = 100 - mon_p->frag_pct;
 701              		.loc 1 362 0
 702 00c2 7B68     		ldr	r3, [r7, #4]
 703 00c4 5B7D     		ldrb	r3, [r3, #21]	@ zero_extendqisi2
 704 00c6 C3F16403 		rsb	r3, r3, #100
 705 00ca DAB2     		uxtb	r2, r3
 706 00cc 7B68     		ldr	r3, [r7, #4]
 707 00ce 5A75     		strb	r2, [r3, #21]
 363:..\..\..\lvgl\version_6.1.2\lvgl\src\lv_misc/lv_mem.c **** #endif
 364:..\..\..\lvgl\version_6.1.2\lvgl\src\lv_misc/lv_mem.c **** }
 708              		.loc 1 364 0
 709 00d0 00BF     		nop
ARM GAS  C:\Users\tmj32\AppData\Local\Temp\ccN7X7Jd.s 			page 20


 710 00d2 1037     		adds	r7, r7, #16
 711              		.cfi_def_cfa_offset 8
 712 00d4 BD46     		mov	sp, r7
 713              		.cfi_def_cfa_register 13
 714              		@ sp needed
 715 00d6 80BD     		pop	{r7, pc}
 716              		.cfi_endproc
 717              	.LFE6:
 718              		.size	lv_mem_monitor, .-lv_mem_monitor
 719              		.section	.text.lv_mem_get_size,"ax",%progbits
 720              		.align	2
 721              		.global	lv_mem_get_size
 722              		.thumb
 723              		.thumb_func
 724              		.type	lv_mem_get_size, %function
 725              	lv_mem_get_size:
 726              	.LFB7:
 365:..\..\..\lvgl\version_6.1.2\lvgl\src\lv_misc/lv_mem.c **** 
 366:..\..\..\lvgl\version_6.1.2\lvgl\src\lv_misc/lv_mem.c **** /**
 367:..\..\..\lvgl\version_6.1.2\lvgl\src\lv_misc/lv_mem.c ****  * Give the size of an allocated memory
 368:..\..\..\lvgl\version_6.1.2\lvgl\src\lv_misc/lv_mem.c ****  * @param data pointer to an allocated memory
 369:..\..\..\lvgl\version_6.1.2\lvgl\src\lv_misc/lv_mem.c ****  * @return the size of data memory in bytes
 370:..\..\..\lvgl\version_6.1.2\lvgl\src\lv_misc/lv_mem.c ****  */
 371:..\..\..\lvgl\version_6.1.2\lvgl\src\lv_misc/lv_mem.c **** 
 372:..\..\..\lvgl\version_6.1.2\lvgl\src\lv_misc/lv_mem.c **** #if LV_ENABLE_GC == 0
 373:..\..\..\lvgl\version_6.1.2\lvgl\src\lv_misc/lv_mem.c **** 
 374:..\..\..\lvgl\version_6.1.2\lvgl\src\lv_misc/lv_mem.c **** uint32_t lv_mem_get_size(const void * data)
 375:..\..\..\lvgl\version_6.1.2\lvgl\src\lv_misc/lv_mem.c **** {
 727              		.loc 1 375 0
 728              		.cfi_startproc
 729              		@ args = 0, pretend = 0, frame = 16
 730              		@ frame_needed = 1, uses_anonymous_args = 0
 731              		@ link register save eliminated.
 732 0000 80B4     		push	{r7}
 733              		.cfi_def_cfa_offset 4
 734              		.cfi_offset 7, -4
 735 0002 85B0     		sub	sp, sp, #20
 736              		.cfi_def_cfa_offset 24
 737 0004 00AF     		add	r7, sp, #0
 738              		.cfi_def_cfa_register 7
 739 0006 7860     		str	r0, [r7, #4]
 376:..\..\..\lvgl\version_6.1.2\lvgl\src\lv_misc/lv_mem.c ****     if(data == NULL) return 0;
 740              		.loc 1 376 0
 741 0008 7B68     		ldr	r3, [r7, #4]
 742 000a 002B     		cmp	r3, #0
 743 000c 01D1     		bne	.L61
 744              		.loc 1 376 0 is_stmt 0 discriminator 1
 745 000e 0023     		movs	r3, #0
 746 0010 0CE0     		b	.L62
 747              	.L61:
 377:..\..\..\lvgl\version_6.1.2\lvgl\src\lv_misc/lv_mem.c ****     if(data == &zero_mem) return 0;
 748              		.loc 1 377 0 is_stmt 1
 749 0012 7B68     		ldr	r3, [r7, #4]
 750 0014 084A     		ldr	r2, .L64
 751 0016 9342     		cmp	r3, r2
 752 0018 01D1     		bne	.L63
 753              		.loc 1 377 0 is_stmt 0 discriminator 1
ARM GAS  C:\Users\tmj32\AppData\Local\Temp\ccN7X7Jd.s 			page 21


 754 001a 0023     		movs	r3, #0
 755 001c 06E0     		b	.L62
 756              	.L63:
 378:..\..\..\lvgl\version_6.1.2\lvgl\src\lv_misc/lv_mem.c **** 
 379:..\..\..\lvgl\version_6.1.2\lvgl\src\lv_misc/lv_mem.c ****     lv_mem_ent_t * e = (lv_mem_ent_t *)((uint8_t *)data - sizeof(lv_mem_header_t));
 757              		.loc 1 379 0 is_stmt 1
 758 001e 7B68     		ldr	r3, [r7, #4]
 759 0020 043B     		subs	r3, r3, #4
 760 0022 FB60     		str	r3, [r7, #12]
 380:..\..\..\lvgl\version_6.1.2\lvgl\src\lv_misc/lv_mem.c **** 
 381:..\..\..\lvgl\version_6.1.2\lvgl\src\lv_misc/lv_mem.c ****     return e->header.s.d_size;
 761              		.loc 1 381 0
 762 0024 FB68     		ldr	r3, [r7, #12]
 763 0026 1B68     		ldr	r3, [r3]
 764 0028 C3F35E03 		ubfx	r3, r3, #1, #31
 765              	.L62:
 382:..\..\..\lvgl\version_6.1.2\lvgl\src\lv_misc/lv_mem.c **** }
 766              		.loc 1 382 0
 767 002c 1846     		mov	r0, r3
 768 002e 1437     		adds	r7, r7, #20
 769              		.cfi_def_cfa_offset 4
 770 0030 BD46     		mov	sp, r7
 771              		.cfi_def_cfa_register 13
 772              		@ sp needed
 773 0032 5DF8047B 		ldr	r7, [sp], #4
 774              		.cfi_restore 7
 775              		.cfi_def_cfa_offset 0
 776 0036 7047     		bx	lr
 777              	.L65:
 778              		.align	2
 779              	.L64:
 780 0038 04000000 		.word	zero_mem
 781              		.cfi_endproc
 782              	.LFE7:
 783              		.size	lv_mem_get_size, .-lv_mem_get_size
 784              		.section	.text.ent_get_next,"ax",%progbits
 785              		.align	2
 786              		.thumb
 787              		.thumb_func
 788              		.type	ent_get_next, %function
 789              	ent_get_next:
 790              	.LFB8:
 383:..\..\..\lvgl\version_6.1.2\lvgl\src\lv_misc/lv_mem.c **** 
 384:..\..\..\lvgl\version_6.1.2\lvgl\src\lv_misc/lv_mem.c **** #else /* LV_ENABLE_GC */
 385:..\..\..\lvgl\version_6.1.2\lvgl\src\lv_misc/lv_mem.c **** 
 386:..\..\..\lvgl\version_6.1.2\lvgl\src\lv_misc/lv_mem.c **** uint32_t lv_mem_get_size(const void * data)
 387:..\..\..\lvgl\version_6.1.2\lvgl\src\lv_misc/lv_mem.c **** {
 388:..\..\..\lvgl\version_6.1.2\lvgl\src\lv_misc/lv_mem.c ****     return LV_MEM_CUSTOM_GET_SIZE(data);
 389:..\..\..\lvgl\version_6.1.2\lvgl\src\lv_misc/lv_mem.c **** }
 390:..\..\..\lvgl\version_6.1.2\lvgl\src\lv_misc/lv_mem.c **** 
 391:..\..\..\lvgl\version_6.1.2\lvgl\src\lv_misc/lv_mem.c **** #endif /*LV_ENABLE_GC*/
 392:..\..\..\lvgl\version_6.1.2\lvgl\src\lv_misc/lv_mem.c **** 
 393:..\..\..\lvgl\version_6.1.2\lvgl\src\lv_misc/lv_mem.c **** /**********************
 394:..\..\..\lvgl\version_6.1.2\lvgl\src\lv_misc/lv_mem.c ****  *   STATIC FUNCTIONS
 395:..\..\..\lvgl\version_6.1.2\lvgl\src\lv_misc/lv_mem.c ****  **********************/
 396:..\..\..\lvgl\version_6.1.2\lvgl\src\lv_misc/lv_mem.c **** 
 397:..\..\..\lvgl\version_6.1.2\lvgl\src\lv_misc/lv_mem.c **** #if LV_MEM_CUSTOM == 0
ARM GAS  C:\Users\tmj32\AppData\Local\Temp\ccN7X7Jd.s 			page 22


 398:..\..\..\lvgl\version_6.1.2\lvgl\src\lv_misc/lv_mem.c **** /**
 399:..\..\..\lvgl\version_6.1.2\lvgl\src\lv_misc/lv_mem.c ****  * Give the next entry after 'act_e'
 400:..\..\..\lvgl\version_6.1.2\lvgl\src\lv_misc/lv_mem.c ****  * @param act_e pointer to an entry
 401:..\..\..\lvgl\version_6.1.2\lvgl\src\lv_misc/lv_mem.c ****  * @return pointer to an entry after 'act_e'
 402:..\..\..\lvgl\version_6.1.2\lvgl\src\lv_misc/lv_mem.c ****  */
 403:..\..\..\lvgl\version_6.1.2\lvgl\src\lv_misc/lv_mem.c **** static lv_mem_ent_t * ent_get_next(lv_mem_ent_t * act_e)
 404:..\..\..\lvgl\version_6.1.2\lvgl\src\lv_misc/lv_mem.c **** {
 791              		.loc 1 404 0
 792              		.cfi_startproc
 793              		@ args = 0, pretend = 0, frame = 16
 794              		@ frame_needed = 1, uses_anonymous_args = 0
 795              		@ link register save eliminated.
 796 0000 80B4     		push	{r7}
 797              		.cfi_def_cfa_offset 4
 798              		.cfi_offset 7, -4
 799 0002 85B0     		sub	sp, sp, #20
 800              		.cfi_def_cfa_offset 24
 801 0004 00AF     		add	r7, sp, #0
 802              		.cfi_def_cfa_register 7
 803 0006 7860     		str	r0, [r7, #4]
 405:..\..\..\lvgl\version_6.1.2\lvgl\src\lv_misc/lv_mem.c ****     lv_mem_ent_t * next_e = NULL;
 804              		.loc 1 405 0
 805 0008 0023     		movs	r3, #0
 806 000a FB60     		str	r3, [r7, #12]
 406:..\..\..\lvgl\version_6.1.2\lvgl\src\lv_misc/lv_mem.c **** 
 407:..\..\..\lvgl\version_6.1.2\lvgl\src\lv_misc/lv_mem.c ****     if(act_e == NULL) { /*NULL means: get the first entry*/
 807              		.loc 1 407 0
 808 000c 7B68     		ldr	r3, [r7, #4]
 809 000e 002B     		cmp	r3, #0
 810 0010 03D1     		bne	.L67
 408:..\..\..\lvgl\version_6.1.2\lvgl\src\lv_misc/lv_mem.c ****         next_e = (lv_mem_ent_t *)work_mem;
 811              		.loc 1 408 0
 812 0012 104B     		ldr	r3, .L70
 813 0014 1B68     		ldr	r3, [r3]
 814 0016 FB60     		str	r3, [r7, #12]
 815 0018 14E0     		b	.L68
 816              	.L67:
 817              	.LBB4:
 409:..\..\..\lvgl\version_6.1.2\lvgl\src\lv_misc/lv_mem.c ****     } else { /*Get the next entry */
 410:..\..\..\lvgl\version_6.1.2\lvgl\src\lv_misc/lv_mem.c ****         uint8_t * data = &act_e->first_data;
 818              		.loc 1 410 0
 819 001a 7B68     		ldr	r3, [r7, #4]
 820 001c 0433     		adds	r3, r3, #4
 821 001e BB60     		str	r3, [r7, #8]
 411:..\..\..\lvgl\version_6.1.2\lvgl\src\lv_misc/lv_mem.c ****         next_e         = (lv_mem_ent_t *)&data[act_e->header.s.d_size];
 822              		.loc 1 411 0
 823 0020 7B68     		ldr	r3, [r7, #4]
 824 0022 1B68     		ldr	r3, [r3]
 825 0024 C3F35E03 		ubfx	r3, r3, #1, #31
 826 0028 1A46     		mov	r2, r3
 827 002a BB68     		ldr	r3, [r7, #8]
 828 002c 1344     		add	r3, r3, r2
 829 002e FB60     		str	r3, [r7, #12]
 412:..\..\..\lvgl\version_6.1.2\lvgl\src\lv_misc/lv_mem.c **** 
 413:..\..\..\lvgl\version_6.1.2\lvgl\src\lv_misc/lv_mem.c ****         if(&next_e->first_data >= &work_mem[LV_MEM_SIZE]) next_e = NULL;
 830              		.loc 1 413 0
 831 0030 FB68     		ldr	r3, [r7, #12]
ARM GAS  C:\Users\tmj32\AppData\Local\Temp\ccN7X7Jd.s 			page 23


 832 0032 1A1D     		adds	r2, r3, #4
 833 0034 074B     		ldr	r3, .L70
 834 0036 1B68     		ldr	r3, [r3]
 835 0038 03F58033 		add	r3, r3, #65536
 836 003c 9A42     		cmp	r2, r3
 837 003e 01D3     		bcc	.L68
 838              		.loc 1 413 0 is_stmt 0 discriminator 1
 839 0040 0023     		movs	r3, #0
 840 0042 FB60     		str	r3, [r7, #12]
 841              	.L68:
 842              	.LBE4:
 414:..\..\..\lvgl\version_6.1.2\lvgl\src\lv_misc/lv_mem.c ****     }
 415:..\..\..\lvgl\version_6.1.2\lvgl\src\lv_misc/lv_mem.c **** 
 416:..\..\..\lvgl\version_6.1.2\lvgl\src\lv_misc/lv_mem.c ****     return next_e;
 843              		.loc 1 416 0 is_stmt 1
 844 0044 FB68     		ldr	r3, [r7, #12]
 417:..\..\..\lvgl\version_6.1.2\lvgl\src\lv_misc/lv_mem.c **** }
 845              		.loc 1 417 0
 846 0046 1846     		mov	r0, r3
 847 0048 1437     		adds	r7, r7, #20
 848              		.cfi_def_cfa_offset 4
 849 004a BD46     		mov	sp, r7
 850              		.cfi_def_cfa_register 13
 851              		@ sp needed
 852 004c 5DF8047B 		ldr	r7, [sp], #4
 853              		.cfi_restore 7
 854              		.cfi_def_cfa_offset 0
 855 0050 7047     		bx	lr
 856              	.L71:
 857 0052 00BF     		.align	2
 858              	.L70:
 859 0054 00000000 		.word	work_mem
 860              		.cfi_endproc
 861              	.LFE8:
 862              		.size	ent_get_next, .-ent_get_next
 863              		.section	.text.ent_alloc,"ax",%progbits
 864              		.align	2
 865              		.thumb
 866              		.thumb_func
 867              		.type	ent_alloc, %function
 868              	ent_alloc:
 869              	.LFB9:
 418:..\..\..\lvgl\version_6.1.2\lvgl\src\lv_misc/lv_mem.c **** 
 419:..\..\..\lvgl\version_6.1.2\lvgl\src\lv_misc/lv_mem.c **** /**
 420:..\..\..\lvgl\version_6.1.2\lvgl\src\lv_misc/lv_mem.c ****  * Try to do the real allocation with a given size
 421:..\..\..\lvgl\version_6.1.2\lvgl\src\lv_misc/lv_mem.c ****  * @param e try to allocate to this entry
 422:..\..\..\lvgl\version_6.1.2\lvgl\src\lv_misc/lv_mem.c ****  * @param size size of the new memory in bytes
 423:..\..\..\lvgl\version_6.1.2\lvgl\src\lv_misc/lv_mem.c ****  * @return pointer to the allocated memory or NULL if not enough memory in the entry
 424:..\..\..\lvgl\version_6.1.2\lvgl\src\lv_misc/lv_mem.c ****  */
 425:..\..\..\lvgl\version_6.1.2\lvgl\src\lv_misc/lv_mem.c **** static void * ent_alloc(lv_mem_ent_t * e, size_t size)
 426:..\..\..\lvgl\version_6.1.2\lvgl\src\lv_misc/lv_mem.c **** {
 870              		.loc 1 426 0
 871              		.cfi_startproc
 872              		@ args = 0, pretend = 0, frame = 16
 873              		@ frame_needed = 1, uses_anonymous_args = 0
 874 0000 80B5     		push	{r7, lr}
 875              		.cfi_def_cfa_offset 8
ARM GAS  C:\Users\tmj32\AppData\Local\Temp\ccN7X7Jd.s 			page 24


 876              		.cfi_offset 7, -8
 877              		.cfi_offset 14, -4
 878 0002 84B0     		sub	sp, sp, #16
 879              		.cfi_def_cfa_offset 24
 880 0004 00AF     		add	r7, sp, #0
 881              		.cfi_def_cfa_register 7
 882 0006 7860     		str	r0, [r7, #4]
 883 0008 3960     		str	r1, [r7]
 427:..\..\..\lvgl\version_6.1.2\lvgl\src\lv_misc/lv_mem.c ****     void * alloc = NULL;
 884              		.loc 1 427 0
 885 000a 0023     		movs	r3, #0
 886 000c FB60     		str	r3, [r7, #12]
 428:..\..\..\lvgl\version_6.1.2\lvgl\src\lv_misc/lv_mem.c **** 
 429:..\..\..\lvgl\version_6.1.2\lvgl\src\lv_misc/lv_mem.c ****     /*If the memory is free and big enough then use it */
 430:..\..\..\lvgl\version_6.1.2\lvgl\src\lv_misc/lv_mem.c ****     if(e->header.s.used == 0 && e->header.s.d_size >= size) {
 887              		.loc 1 430 0
 888 000e 7B68     		ldr	r3, [r7, #4]
 889 0010 1B78     		ldrb	r3, [r3]	@ zero_extendqisi2
 890 0012 03F00103 		and	r3, r3, #1
 891 0016 DBB2     		uxtb	r3, r3
 892 0018 002B     		cmp	r3, #0
 893 001a 13D1     		bne	.L73
 894              		.loc 1 430 0 is_stmt 0 discriminator 1
 895 001c 7B68     		ldr	r3, [r7, #4]
 896 001e 1B68     		ldr	r3, [r3]
 897 0020 C3F35E03 		ubfx	r3, r3, #1, #31
 898 0024 1A46     		mov	r2, r3
 899 0026 3B68     		ldr	r3, [r7]
 900 0028 9A42     		cmp	r2, r3
 901 002a 0BD3     		bcc	.L73
 431:..\..\..\lvgl\version_6.1.2\lvgl\src\lv_misc/lv_mem.c ****         /*Truncate the entry to the desired size */
 432:..\..\..\lvgl\version_6.1.2\lvgl\src\lv_misc/lv_mem.c ****         ent_trunc(e, size),
 902              		.loc 1 432 0 is_stmt 1
 903 002c 3968     		ldr	r1, [r7]
 904 002e 7868     		ldr	r0, [r7, #4]
 905 0030 FFF7FEFF 		bl	ent_trunc
 433:..\..\..\lvgl\version_6.1.2\lvgl\src\lv_misc/lv_mem.c **** 
 434:..\..\..\lvgl\version_6.1.2\lvgl\src\lv_misc/lv_mem.c ****             e->header.s.used = 1;
 906              		.loc 1 434 0
 907 0034 7A68     		ldr	r2, [r7, #4]
 908 0036 1378     		ldrb	r3, [r2]
 909 0038 43F00103 		orr	r3, r3, #1
 910 003c 1370     		strb	r3, [r2]
 435:..\..\..\lvgl\version_6.1.2\lvgl\src\lv_misc/lv_mem.c **** 
 436:..\..\..\lvgl\version_6.1.2\lvgl\src\lv_misc/lv_mem.c ****         /*Save the allocated data*/
 437:..\..\..\lvgl\version_6.1.2\lvgl\src\lv_misc/lv_mem.c ****         alloc = &e->first_data;
 911              		.loc 1 437 0
 912 003e 7B68     		ldr	r3, [r7, #4]
 913 0040 0433     		adds	r3, r3, #4
 914 0042 FB60     		str	r3, [r7, #12]
 915              	.L73:
 438:..\..\..\lvgl\version_6.1.2\lvgl\src\lv_misc/lv_mem.c ****     }
 439:..\..\..\lvgl\version_6.1.2\lvgl\src\lv_misc/lv_mem.c **** 
 440:..\..\..\lvgl\version_6.1.2\lvgl\src\lv_misc/lv_mem.c ****     return alloc;
 916              		.loc 1 440 0
 917 0044 FB68     		ldr	r3, [r7, #12]
 441:..\..\..\lvgl\version_6.1.2\lvgl\src\lv_misc/lv_mem.c **** }
ARM GAS  C:\Users\tmj32\AppData\Local\Temp\ccN7X7Jd.s 			page 25


 918              		.loc 1 441 0
 919 0046 1846     		mov	r0, r3
 920 0048 1037     		adds	r7, r7, #16
 921              		.cfi_def_cfa_offset 8
 922 004a BD46     		mov	sp, r7
 923              		.cfi_def_cfa_register 13
 924              		@ sp needed
 925 004c 80BD     		pop	{r7, pc}
 926              		.cfi_endproc
 927              	.LFE9:
 928              		.size	ent_alloc, .-ent_alloc
 929 004e 00BF     		.section	.text.ent_trunc,"ax",%progbits
 930              		.align	2
 931              		.thumb
 932              		.thumb_func
 933              		.type	ent_trunc, %function
 934              	ent_trunc:
 935              	.LFB10:
 442:..\..\..\lvgl\version_6.1.2\lvgl\src\lv_misc/lv_mem.c **** 
 443:..\..\..\lvgl\version_6.1.2\lvgl\src\lv_misc/lv_mem.c **** /**
 444:..\..\..\lvgl\version_6.1.2\lvgl\src\lv_misc/lv_mem.c ****  * Truncate the data of entry to the given size
 445:..\..\..\lvgl\version_6.1.2\lvgl\src\lv_misc/lv_mem.c ****  * @param e Pointer to an entry
 446:..\..\..\lvgl\version_6.1.2\lvgl\src\lv_misc/lv_mem.c ****  * @param size new size in bytes
 447:..\..\..\lvgl\version_6.1.2\lvgl\src\lv_misc/lv_mem.c ****  */
 448:..\..\..\lvgl\version_6.1.2\lvgl\src\lv_misc/lv_mem.c **** static void ent_trunc(lv_mem_ent_t * e, size_t size)
 449:..\..\..\lvgl\version_6.1.2\lvgl\src\lv_misc/lv_mem.c **** {
 936              		.loc 1 449 0
 937              		.cfi_startproc
 938              		@ args = 0, pretend = 0, frame = 16
 939              		@ frame_needed = 1, uses_anonymous_args = 0
 940              		@ link register save eliminated.
 941 0000 80B4     		push	{r7}
 942              		.cfi_def_cfa_offset 4
 943              		.cfi_offset 7, -4
 944 0002 85B0     		sub	sp, sp, #20
 945              		.cfi_def_cfa_offset 24
 946 0004 00AF     		add	r7, sp, #0
 947              		.cfi_def_cfa_register 7
 948 0006 7860     		str	r0, [r7, #4]
 949 0008 3960     		str	r1, [r7]
 450:..\..\..\lvgl\version_6.1.2\lvgl\src\lv_misc/lv_mem.c **** #ifdef LV_ARCH_64
 451:..\..\..\lvgl\version_6.1.2\lvgl\src\lv_misc/lv_mem.c ****     /*Round the size up to 8*/
 452:..\..\..\lvgl\version_6.1.2\lvgl\src\lv_misc/lv_mem.c ****     if(size & 0x7) {
 453:..\..\..\lvgl\version_6.1.2\lvgl\src\lv_misc/lv_mem.c ****         size = size & (~0x7);
 454:..\..\..\lvgl\version_6.1.2\lvgl\src\lv_misc/lv_mem.c ****         size += 8;
 455:..\..\..\lvgl\version_6.1.2\lvgl\src\lv_misc/lv_mem.c ****     }
 456:..\..\..\lvgl\version_6.1.2\lvgl\src\lv_misc/lv_mem.c **** #else
 457:..\..\..\lvgl\version_6.1.2\lvgl\src\lv_misc/lv_mem.c ****     /*Round the size up to 4*/
 458:..\..\..\lvgl\version_6.1.2\lvgl\src\lv_misc/lv_mem.c ****     if(size & 0x3) {
 950              		.loc 1 458 0
 951 000a 3B68     		ldr	r3, [r7]
 952 000c 03F00303 		and	r3, r3, #3
 953 0010 002B     		cmp	r3, #0
 954 0012 06D0     		beq	.L76
 459:..\..\..\lvgl\version_6.1.2\lvgl\src\lv_misc/lv_mem.c ****         size = size & (~0x3);
 955              		.loc 1 459 0
 956 0014 3B68     		ldr	r3, [r7]
ARM GAS  C:\Users\tmj32\AppData\Local\Temp\ccN7X7Jd.s 			page 26


 957 0016 23F00303 		bic	r3, r3, #3
 958 001a 3B60     		str	r3, [r7]
 460:..\..\..\lvgl\version_6.1.2\lvgl\src\lv_misc/lv_mem.c ****         size += 4;
 959              		.loc 1 460 0
 960 001c 3B68     		ldr	r3, [r7]
 961 001e 0433     		adds	r3, r3, #4
 962 0020 3B60     		str	r3, [r7]
 963              	.L76:
 461:..\..\..\lvgl\version_6.1.2\lvgl\src\lv_misc/lv_mem.c ****     }
 462:..\..\..\lvgl\version_6.1.2\lvgl\src\lv_misc/lv_mem.c **** #endif
 463:..\..\..\lvgl\version_6.1.2\lvgl\src\lv_misc/lv_mem.c **** 
 464:..\..\..\lvgl\version_6.1.2\lvgl\src\lv_misc/lv_mem.c ****     /*Don't let empty space only for a header without data*/
 465:..\..\..\lvgl\version_6.1.2\lvgl\src\lv_misc/lv_mem.c ****     if(e->header.s.d_size == size + sizeof(lv_mem_header_t)) {
 964              		.loc 1 465 0
 965 0022 7B68     		ldr	r3, [r7, #4]
 966 0024 1B68     		ldr	r3, [r3]
 967 0026 C3F35E03 		ubfx	r3, r3, #1, #31
 968 002a 1A46     		mov	r2, r3
 969 002c 3B68     		ldr	r3, [r7]
 970 002e 0433     		adds	r3, r3, #4
 971 0030 9A42     		cmp	r2, r3
 972 0032 04D1     		bne	.L77
 466:..\..\..\lvgl\version_6.1.2\lvgl\src\lv_misc/lv_mem.c ****         size = e->header.s.d_size;
 973              		.loc 1 466 0
 974 0034 7B68     		ldr	r3, [r7, #4]
 975 0036 1B68     		ldr	r3, [r3]
 976 0038 C3F35E03 		ubfx	r3, r3, #1, #31
 977 003c 3B60     		str	r3, [r7]
 978              	.L77:
 467:..\..\..\lvgl\version_6.1.2\lvgl\src\lv_misc/lv_mem.c ****     }
 468:..\..\..\lvgl\version_6.1.2\lvgl\src\lv_misc/lv_mem.c **** 
 469:..\..\..\lvgl\version_6.1.2\lvgl\src\lv_misc/lv_mem.c ****     /* Create the new entry after the current if there is space for it */
 470:..\..\..\lvgl\version_6.1.2\lvgl\src\lv_misc/lv_mem.c ****     if(e->header.s.d_size != size) {
 979              		.loc 1 470 0
 980 003e 7B68     		ldr	r3, [r7, #4]
 981 0040 1B68     		ldr	r3, [r3]
 982 0042 C3F35E03 		ubfx	r3, r3, #1, #31
 983 0046 1A46     		mov	r2, r3
 984 0048 3B68     		ldr	r3, [r7]
 985 004a 9A42     		cmp	r2, r3
 986 004c 1AD0     		beq	.L78
 987              	.LBB5:
 471:..\..\..\lvgl\version_6.1.2\lvgl\src\lv_misc/lv_mem.c ****         uint8_t * e_data             = &e->first_data;
 988              		.loc 1 471 0
 989 004e 7B68     		ldr	r3, [r7, #4]
 990 0050 0433     		adds	r3, r3, #4
 991 0052 FB60     		str	r3, [r7, #12]
 472:..\..\..\lvgl\version_6.1.2\lvgl\src\lv_misc/lv_mem.c ****         lv_mem_ent_t * after_new_e   = (lv_mem_ent_t *)&e_data[size];
 992              		.loc 1 472 0
 993 0054 FA68     		ldr	r2, [r7, #12]
 994 0056 3B68     		ldr	r3, [r7]
 995 0058 1344     		add	r3, r3, r2
 996 005a BB60     		str	r3, [r7, #8]
 473:..\..\..\lvgl\version_6.1.2\lvgl\src\lv_misc/lv_mem.c ****         after_new_e->header.s.used   = 0;
 997              		.loc 1 473 0
 998 005c BA68     		ldr	r2, [r7, #8]
 999 005e 1378     		ldrb	r3, [r2]
ARM GAS  C:\Users\tmj32\AppData\Local\Temp\ccN7X7Jd.s 			page 27


 1000 0060 6FF30003 		bfc	r3, #0, #1
 1001 0064 1370     		strb	r3, [r2]
 474:..\..\..\lvgl\version_6.1.2\lvgl\src\lv_misc/lv_mem.c ****         after_new_e->header.s.d_size = (uint32_t)e->header.s.d_size - size - sizeof(lv_mem_header_t
 1002              		.loc 1 474 0
 1003 0066 7B68     		ldr	r3, [r7, #4]
 1004 0068 1B68     		ldr	r3, [r3]
 1005 006a C3F35E03 		ubfx	r3, r3, #1, #31
 1006 006e 1A46     		mov	r2, r3
 1007 0070 3B68     		ldr	r3, [r7]
 1008 0072 D31A     		subs	r3, r2, r3
 1009 0074 043B     		subs	r3, r3, #4
 1010 0076 23F00041 		bic	r1, r3, #-2147483648
 1011 007a BA68     		ldr	r2, [r7, #8]
 1012 007c 1368     		ldr	r3, [r2]
 1013 007e 61F35F03 		bfi	r3, r1, #1, #31
 1014 0082 1360     		str	r3, [r2]
 1015              	.L78:
 1016              	.LBE5:
 475:..\..\..\lvgl\version_6.1.2\lvgl\src\lv_misc/lv_mem.c ****     }
 476:..\..\..\lvgl\version_6.1.2\lvgl\src\lv_misc/lv_mem.c **** 
 477:..\..\..\lvgl\version_6.1.2\lvgl\src\lv_misc/lv_mem.c ****     /* Set the new size for the original entry */
 478:..\..\..\lvgl\version_6.1.2\lvgl\src\lv_misc/lv_mem.c ****     e->header.s.d_size = (uint32_t)size;
 1017              		.loc 1 478 0
 1018 0084 3B68     		ldr	r3, [r7]
 1019 0086 23F00041 		bic	r1, r3, #-2147483648
 1020 008a 7A68     		ldr	r2, [r7, #4]
 1021 008c 1368     		ldr	r3, [r2]
 1022 008e 61F35F03 		bfi	r3, r1, #1, #31
 1023 0092 1360     		str	r3, [r2]
 479:..\..\..\lvgl\version_6.1.2\lvgl\src\lv_misc/lv_mem.c **** }
 1024              		.loc 1 479 0
 1025 0094 00BF     		nop
 1026 0096 1437     		adds	r7, r7, #20
 1027              		.cfi_def_cfa_offset 4
 1028 0098 BD46     		mov	sp, r7
 1029              		.cfi_def_cfa_register 13
 1030              		@ sp needed
 1031 009a 5DF8047B 		ldr	r7, [sp], #4
 1032              		.cfi_restore 7
 1033              		.cfi_def_cfa_offset 0
 1034 009e 7047     		bx	lr
 1035              		.cfi_endproc
 1036              	.LFE10:
 1037              		.size	ent_trunc, .-ent_trunc
 1038              		.bss
 1039              		.align	2
 1040              	work_mem_int.4640:
 1041 0008 00000000 		.space	65536
 1041      00000000 
 1041      00000000 
 1041      00000000 
 1041      00000000 
 1042              		.text
 1043              	.Letext0:
 1044              		.file 2 "c:\\program files (x86)\\cypress\\psoc creator\\4.3\\psoc creator\\import\\gnu\\arm\\5.4.
 1045              		.file 3 "c:\\program files (x86)\\cypress\\psoc creator\\4.3\\psoc creator\\import\\gnu\\arm\\5.4.
 1046              		.file 4 "c:\\program files (x86)\\cypress\\psoc creator\\4.3\\psoc creator\\import\\gnu\\arm\\5.4.
ARM GAS  C:\Users\tmj32\AppData\Local\Temp\ccN7X7Jd.s 			page 28


 1047              		.file 5 "..\\..\\..\\lvgl\\version_6.1.2\\lvgl\\src\\lv_misc\\lv_mem.h"