ARM GAS  C:\Users\tmj32\AppData\Local\Temp\ccKMzZ2b.s 			page 1


   1              		.syntax unified
   2              		.cpu cortex-m4
   3              		.eabi_attribute 27, 1
   4              		.fpu fpv4-sp-d16
   5              		.eabi_attribute 20, 1
   6              		.eabi_attribute 21, 1
   7              		.eabi_attribute 23, 3
   8              		.eabi_attribute 24, 1
   9              		.eabi_attribute 25, 1
  10              		.eabi_attribute 26, 1
  11              		.eabi_attribute 30, 6
  12              		.eabi_attribute 34, 1
  13              		.eabi_attribute 18, 4
  14              		.thumb
  15              		.syntax unified
  16              		.file	"lv_math.c"
  17              		.text
  18              	.Ltext0:
  19              		.cfi_sections	.debug_frame
  20              		.section	.rodata
  21              		.align	2
  22              		.type	sin0_90_table, %object
  23              		.size	sin0_90_table, 182
  24              	sin0_90_table:
  25 0000 0000     		.short	0
  26 0002 3C02     		.short	572
  27 0004 7804     		.short	1144
  28 0006 B306     		.short	1715
  29 0008 EE08     		.short	2286
  30 000a 280B     		.short	2856
  31 000c 610D     		.short	3425
  32 000e 990F     		.short	3993
  33 0010 D011     		.short	4560
  34 0012 0614     		.short	5126
  35 0014 3A16     		.short	5690
  36 0016 6C18     		.short	6252
  37 0018 9D1A     		.short	6813
  38 001a CB1C     		.short	7371
  39 001c F71E     		.short	7927
  40 001e 2121     		.short	8481
  41 0020 4823     		.short	9032
  42 0022 6C25     		.short	9580
  43 0024 8E27     		.short	10126
  44 0026 AC29     		.short	10668
  45 0028 C72B     		.short	11207
  46 002a DF2D     		.short	11743
  47 002c F32F     		.short	12275
  48 002e 0332     		.short	12803
  49 0030 1034     		.short	13328
  50 0032 1836     		.short	13848
  51 0034 1C38     		.short	14364
  52 0036 1C3A     		.short	14876
  53 0038 173C     		.short	15383
  54 003a 0E3E     		.short	15886
  55 003c FF3F     		.short	16383
  56 003e EC41     		.short	16876
  57 0040 D443     		.short	17364
ARM GAS  C:\Users\tmj32\AppData\Local\Temp\ccKMzZ2b.s 			page 2


  58 0042 B645     		.short	17846
  59 0044 9347     		.short	18323
  60 0046 6A49     		.short	18794
  61 0048 3C4B     		.short	19260
  62 004a 084D     		.short	19720
  63 004c CD4E     		.short	20173
  64 004e 8D50     		.short	20621
  65 0050 4652     		.short	21062
  66 0052 F953     		.short	21497
  67 0054 A555     		.short	21925
  68 0056 4B57     		.short	22347
  69 0058 EA58     		.short	22762
  70 005a 825A     		.short	23170
  71 005c 135C     		.short	23571
  72 005e 9C5D     		.short	23964
  73 0060 1F5F     		.short	24351
  74 0062 9A60     		.short	24730
  75 0064 0D62     		.short	25101
  76 0066 7963     		.short	25465
  77 0068 DD64     		.short	25821
  78 006a 3966     		.short	26169
  79 006c 8D67     		.short	26509
  80 006e D968     		.short	26841
  81 0070 1D6A     		.short	27165
  82 0072 596B     		.short	27481
  83 0074 8C6C     		.short	27788
  84 0076 B76D     		.short	28087
  85 0078 D96E     		.short	28377
  86 007a F36F     		.short	28659
  87 007c 0471     		.short	28932
  88 007e 0C72     		.short	29196
  89 0080 0B73     		.short	29451
  90 0082 0174     		.short	29697
  91 0084 EE74     		.short	29934
  92 0086 D275     		.short	30162
  93 0088 AD76     		.short	30381
  94 008a 7F77     		.short	30591
  95 008c 4778     		.short	30791
  96 008e 0679     		.short	30982
  97 0090 BB79     		.short	31163
  98 0092 677A     		.short	31335
  99 0094 0A7B     		.short	31498
 100 0096 A27B     		.short	31650
 101 0098 327C     		.short	31794
 102 009a B77C     		.short	31927
 103 009c 337D     		.short	32051
 104 009e A57D     		.short	32165
 105 00a0 0D7E     		.short	32269
 106 00a2 6C7E     		.short	32364
 107 00a4 C07E     		.short	32448
 108 00a6 0B7F     		.short	32523
 109 00a8 4B7F     		.short	32587
 110 00aa 827F     		.short	32642
 111 00ac AF7F     		.short	32687
 112 00ae D27F     		.short	32722
 113 00b0 EB7F     		.short	32747
 114 00b2 FA7F     		.short	32762
ARM GAS  C:\Users\tmj32\AppData\Local\Temp\ccKMzZ2b.s 			page 3


 115 00b4 FF7F     		.short	32767
 116              		.section	.text.lv_trigo_sin,"ax",%progbits
 117              		.align	2
 118              		.global	lv_trigo_sin
 119              		.thumb
 120              		.thumb_func
 121              		.type	lv_trigo_sin, %function
 122              	lv_trigo_sin:
 123              	.LFB0:
 124              		.file 1 "..\\..\\..\\lvgl\\version_6.1.2\\lvgl\\src\\lv_misc\\lv_math.c"
   1:..\..\..\lvgl\version_6.1.2\lvgl\src\lv_misc/lv_math.c **** /**
   2:..\..\..\lvgl\version_6.1.2\lvgl\src\lv_misc/lv_math.c ****  * @file lv_math.c
   3:..\..\..\lvgl\version_6.1.2\lvgl\src\lv_misc/lv_math.c ****  *
   4:..\..\..\lvgl\version_6.1.2\lvgl\src\lv_misc/lv_math.c ****  */
   5:..\..\..\lvgl\version_6.1.2\lvgl\src\lv_misc/lv_math.c **** 
   6:..\..\..\lvgl\version_6.1.2\lvgl\src\lv_misc/lv_math.c **** /*********************
   7:..\..\..\lvgl\version_6.1.2\lvgl\src\lv_misc/lv_math.c ****  *      INCLUDES
   8:..\..\..\lvgl\version_6.1.2\lvgl\src\lv_misc/lv_math.c ****  *********************/
   9:..\..\..\lvgl\version_6.1.2\lvgl\src\lv_misc/lv_math.c **** #include "lv_math.h"
  10:..\..\..\lvgl\version_6.1.2\lvgl\src\lv_misc/lv_math.c **** #include <stdbool.h>
  11:..\..\..\lvgl\version_6.1.2\lvgl\src\lv_misc/lv_math.c **** #include <stdlib.h>
  12:..\..\..\lvgl\version_6.1.2\lvgl\src\lv_misc/lv_math.c **** 
  13:..\..\..\lvgl\version_6.1.2\lvgl\src\lv_misc/lv_math.c **** /*********************
  14:..\..\..\lvgl\version_6.1.2\lvgl\src\lv_misc/lv_math.c ****  *      DEFINES
  15:..\..\..\lvgl\version_6.1.2\lvgl\src\lv_misc/lv_math.c ****  *********************/
  16:..\..\..\lvgl\version_6.1.2\lvgl\src\lv_misc/lv_math.c **** 
  17:..\..\..\lvgl\version_6.1.2\lvgl\src\lv_misc/lv_math.c **** /**********************
  18:..\..\..\lvgl\version_6.1.2\lvgl\src\lv_misc/lv_math.c ****  *      TYPEDEFS
  19:..\..\..\lvgl\version_6.1.2\lvgl\src\lv_misc/lv_math.c ****  **********************/
  20:..\..\..\lvgl\version_6.1.2\lvgl\src\lv_misc/lv_math.c **** 
  21:..\..\..\lvgl\version_6.1.2\lvgl\src\lv_misc/lv_math.c **** /**********************
  22:..\..\..\lvgl\version_6.1.2\lvgl\src\lv_misc/lv_math.c ****  *  STATIC PROTOTYPES
  23:..\..\..\lvgl\version_6.1.2\lvgl\src\lv_misc/lv_math.c ****  **********************/
  24:..\..\..\lvgl\version_6.1.2\lvgl\src\lv_misc/lv_math.c **** 
  25:..\..\..\lvgl\version_6.1.2\lvgl\src\lv_misc/lv_math.c **** /**********************
  26:..\..\..\lvgl\version_6.1.2\lvgl\src\lv_misc/lv_math.c ****  *  STATIC VARIABLES
  27:..\..\..\lvgl\version_6.1.2\lvgl\src\lv_misc/lv_math.c ****  **********************/
  28:..\..\..\lvgl\version_6.1.2\lvgl\src\lv_misc/lv_math.c **** static const int16_t sin0_90_table[] = {
  29:..\..\..\lvgl\version_6.1.2\lvgl\src\lv_misc/lv_math.c ****     0,     572,   1144,  1715,  2286,  2856,  3425,  3993,  4560,  5126,  5690,  6252,  6813,  7371
  30:..\..\..\lvgl\version_6.1.2\lvgl\src\lv_misc/lv_math.c ****     9032,  9580,  10126, 10668, 11207, 11743, 12275, 12803, 13328, 13848, 14364, 14876, 15383, 1588
  31:..\..\..\lvgl\version_6.1.2\lvgl\src\lv_misc/lv_math.c ****     17364, 17846, 18323, 18794, 19260, 19720, 20173, 20621, 21062, 21497, 21925, 22347, 22762, 2317
  32:..\..\..\lvgl\version_6.1.2\lvgl\src\lv_misc/lv_math.c ****     24351, 24730, 25101, 25465, 25821, 26169, 26509, 26841, 27165, 27481, 27788, 28087, 28377, 2865
  33:..\..\..\lvgl\version_6.1.2\lvgl\src\lv_misc/lv_math.c ****     29451, 29697, 29934, 30162, 30381, 30591, 30791, 30982, 31163, 31335, 31498, 31650, 31794, 3192
  34:..\..\..\lvgl\version_6.1.2\lvgl\src\lv_misc/lv_math.c ****     32269, 32364, 32448, 32523, 32587, 32642, 32687, 32722, 32747, 32762, 32767};
  35:..\..\..\lvgl\version_6.1.2\lvgl\src\lv_misc/lv_math.c **** 
  36:..\..\..\lvgl\version_6.1.2\lvgl\src\lv_misc/lv_math.c **** /**********************
  37:..\..\..\lvgl\version_6.1.2\lvgl\src\lv_misc/lv_math.c ****  *      MACROS
  38:..\..\..\lvgl\version_6.1.2\lvgl\src\lv_misc/lv_math.c ****  **********************/
  39:..\..\..\lvgl\version_6.1.2\lvgl\src\lv_misc/lv_math.c **** 
  40:..\..\..\lvgl\version_6.1.2\lvgl\src\lv_misc/lv_math.c **** /**********************
  41:..\..\..\lvgl\version_6.1.2\lvgl\src\lv_misc/lv_math.c ****  *   GLOBAL FUNCTIONS
  42:..\..\..\lvgl\version_6.1.2\lvgl\src\lv_misc/lv_math.c ****  **********************/
  43:..\..\..\lvgl\version_6.1.2\lvgl\src\lv_misc/lv_math.c **** 
  44:..\..\..\lvgl\version_6.1.2\lvgl\src\lv_misc/lv_math.c **** /**
  45:..\..\..\lvgl\version_6.1.2\lvgl\src\lv_misc/lv_math.c ****  * Return with sinus of an angle
  46:..\..\..\lvgl\version_6.1.2\lvgl\src\lv_misc/lv_math.c ****  * @param angle
  47:..\..\..\lvgl\version_6.1.2\lvgl\src\lv_misc/lv_math.c ****  * @return sinus of 'angle'. sin(-90) = -32767, sin(90) = 32767
ARM GAS  C:\Users\tmj32\AppData\Local\Temp\ccKMzZ2b.s 			page 4


  48:..\..\..\lvgl\version_6.1.2\lvgl\src\lv_misc/lv_math.c ****  */
  49:..\..\..\lvgl\version_6.1.2\lvgl\src\lv_misc/lv_math.c **** int16_t lv_trigo_sin(int16_t angle)
  50:..\..\..\lvgl\version_6.1.2\lvgl\src\lv_misc/lv_math.c **** {
 125              		.loc 1 50 0
 126              		.cfi_startproc
 127              		@ args = 0, pretend = 0, frame = 16
 128              		@ frame_needed = 1, uses_anonymous_args = 0
 129              		@ link register save eliminated.
 130 0000 80B4     		push	{r7}
 131              		.cfi_def_cfa_offset 4
 132              		.cfi_offset 7, -4
 133 0002 85B0     		sub	sp, sp, #20
 134              		.cfi_def_cfa_offset 24
 135 0004 00AF     		add	r7, sp, #0
 136              		.cfi_def_cfa_register 7
 137 0006 0346     		mov	r3, r0
 138 0008 FB80     		strh	r3, [r7, #6]	@ movhi
  51:..\..\..\lvgl\version_6.1.2\lvgl\src\lv_misc/lv_math.c ****     int16_t ret = 0;
 139              		.loc 1 51 0
 140 000a 0023     		movs	r3, #0
 141 000c FB81     		strh	r3, [r7, #14]	@ movhi
  52:..\..\..\lvgl\version_6.1.2\lvgl\src\lv_misc/lv_math.c ****     angle       = angle % 360;
 142              		.loc 1 52 0
 143 000e B7F90630 		ldrsh	r3, [r7, #6]
 144 0012 314A     		ldr	r2, .L8
 145 0014 83FB0212 		smull	r1, r2, r3, r2
 146 0018 1A44     		add	r2, r2, r3
 147 001a 1112     		asrs	r1, r2, #8
 148 001c DA17     		asrs	r2, r3, #31
 149 001e 8A1A     		subs	r2, r1, r2
 150 0020 4FF4B471 		mov	r1, #360
 151 0024 01FB02F2 		mul	r2, r1, r2
 152 0028 9B1A     		subs	r3, r3, r2
 153 002a FB80     		strh	r3, [r7, #6]	@ movhi
  53:..\..\..\lvgl\version_6.1.2\lvgl\src\lv_misc/lv_math.c **** 
  54:..\..\..\lvgl\version_6.1.2\lvgl\src\lv_misc/lv_math.c ****     if(angle < 0) angle = 360 + angle;
 154              		.loc 1 54 0
 155 002c B7F90630 		ldrsh	r3, [r7, #6]
 156 0030 002B     		cmp	r3, #0
 157 0032 04DA     		bge	.L2
 158              		.loc 1 54 0 is_stmt 0 discriminator 1
 159 0034 FB88     		ldrh	r3, [r7, #6]
 160 0036 03F5B473 		add	r3, r3, #360
 161 003a 9BB2     		uxth	r3, r3
 162 003c FB80     		strh	r3, [r7, #6]	@ movhi
 163              	.L2:
  55:..\..\..\lvgl\version_6.1.2\lvgl\src\lv_misc/lv_math.c **** 
  56:..\..\..\lvgl\version_6.1.2\lvgl\src\lv_misc/lv_math.c ****     if(angle < 90) {
 164              		.loc 1 56 0 is_stmt 1
 165 003e B7F90630 		ldrsh	r3, [r7, #6]
 166 0042 592B     		cmp	r3, #89
 167 0044 06DC     		bgt	.L3
  57:..\..\..\lvgl\version_6.1.2\lvgl\src\lv_misc/lv_math.c ****         ret = sin0_90_table[angle];
 168              		.loc 1 57 0
 169 0046 B7F90630 		ldrsh	r3, [r7, #6]
 170 004a 244A     		ldr	r2, .L8+4
 171 004c 32F81330 		ldrh	r3, [r2, r3, lsl #1]	@ movhi
ARM GAS  C:\Users\tmj32\AppData\Local\Temp\ccKMzZ2b.s 			page 5


 172 0050 FB81     		strh	r3, [r7, #14]	@ movhi
 173 0052 38E0     		b	.L4
 174              	.L3:
  58:..\..\..\lvgl\version_6.1.2\lvgl\src\lv_misc/lv_math.c ****     } else if(angle >= 90 && angle < 180) {
 175              		.loc 1 58 0
 176 0054 B7F90630 		ldrsh	r3, [r7, #6]
 177 0058 592B     		cmp	r3, #89
 178 005a 0FDD     		ble	.L5
 179              		.loc 1 58 0 is_stmt 0 discriminator 1
 180 005c B7F90630 		ldrsh	r3, [r7, #6]
 181 0060 B32B     		cmp	r3, #179
 182 0062 0BDC     		bgt	.L5
  59:..\..\..\lvgl\version_6.1.2\lvgl\src\lv_misc/lv_math.c ****         angle = 180 - angle;
 183              		.loc 1 59 0 is_stmt 1
 184 0064 FB88     		ldrh	r3, [r7, #6]
 185 0066 C3F1B403 		rsb	r3, r3, #180
 186 006a 9BB2     		uxth	r3, r3
 187 006c FB80     		strh	r3, [r7, #6]	@ movhi
  60:..\..\..\lvgl\version_6.1.2\lvgl\src\lv_misc/lv_math.c ****         ret   = sin0_90_table[angle];
 188              		.loc 1 60 0
 189 006e B7F90630 		ldrsh	r3, [r7, #6]
 190 0072 1A4A     		ldr	r2, .L8+4
 191 0074 32F81330 		ldrh	r3, [r2, r3, lsl #1]	@ movhi
 192 0078 FB81     		strh	r3, [r7, #14]	@ movhi
 193 007a 24E0     		b	.L4
 194              	.L5:
  61:..\..\..\lvgl\version_6.1.2\lvgl\src\lv_misc/lv_math.c ****     } else if(angle >= 180 && angle < 270) {
 195              		.loc 1 61 0
 196 007c B7F90630 		ldrsh	r3, [r7, #6]
 197 0080 B32B     		cmp	r3, #179
 198 0082 12DD     		ble	.L6
 199              		.loc 1 61 0 is_stmt 0 discriminator 1
 200 0084 B7F90630 		ldrsh	r3, [r7, #6]
 201 0088 B3F5877F 		cmp	r3, #270
 202 008c 0DDA     		bge	.L6
  62:..\..\..\lvgl\version_6.1.2\lvgl\src\lv_misc/lv_math.c ****         angle = angle - 180;
 203              		.loc 1 62 0 is_stmt 1
 204 008e FB88     		ldrh	r3, [r7, #6]
 205 0090 B43B     		subs	r3, r3, #180
 206 0092 9BB2     		uxth	r3, r3
 207 0094 FB80     		strh	r3, [r7, #6]	@ movhi
  63:..\..\..\lvgl\version_6.1.2\lvgl\src\lv_misc/lv_math.c ****         ret   = -sin0_90_table[angle];
 208              		.loc 1 63 0
 209 0096 B7F90630 		ldrsh	r3, [r7, #6]
 210 009a 104A     		ldr	r2, .L8+4
 211 009c 32F91330 		ldrsh	r3, [r2, r3, lsl #1]
 212 00a0 9BB2     		uxth	r3, r3
 213 00a2 5B42     		negs	r3, r3
 214 00a4 9BB2     		uxth	r3, r3
 215 00a6 FB81     		strh	r3, [r7, #14]	@ movhi
 216 00a8 0DE0     		b	.L4
 217              	.L6:
  64:..\..\..\lvgl\version_6.1.2\lvgl\src\lv_misc/lv_math.c ****     } else { /*angle >=270*/
  65:..\..\..\lvgl\version_6.1.2\lvgl\src\lv_misc/lv_math.c ****         angle = 360 - angle;
 218              		.loc 1 65 0
 219 00aa FB88     		ldrh	r3, [r7, #6]
 220 00ac C3F5B473 		rsb	r3, r3, #360
ARM GAS  C:\Users\tmj32\AppData\Local\Temp\ccKMzZ2b.s 			page 6


 221 00b0 9BB2     		uxth	r3, r3
 222 00b2 FB80     		strh	r3, [r7, #6]	@ movhi
  66:..\..\..\lvgl\version_6.1.2\lvgl\src\lv_misc/lv_math.c ****         ret   = -sin0_90_table[angle];
 223              		.loc 1 66 0
 224 00b4 B7F90630 		ldrsh	r3, [r7, #6]
 225 00b8 084A     		ldr	r2, .L8+4
 226 00ba 32F91330 		ldrsh	r3, [r2, r3, lsl #1]
 227 00be 9BB2     		uxth	r3, r3
 228 00c0 5B42     		negs	r3, r3
 229 00c2 9BB2     		uxth	r3, r3
 230 00c4 FB81     		strh	r3, [r7, #14]	@ movhi
 231              	.L4:
  67:..\..\..\lvgl\version_6.1.2\lvgl\src\lv_misc/lv_math.c ****     }
  68:..\..\..\lvgl\version_6.1.2\lvgl\src\lv_misc/lv_math.c **** 
  69:..\..\..\lvgl\version_6.1.2\lvgl\src\lv_misc/lv_math.c ****     return ret;
 232              		.loc 1 69 0
 233 00c6 B7F90E30 		ldrsh	r3, [r7, #14]
  70:..\..\..\lvgl\version_6.1.2\lvgl\src\lv_misc/lv_math.c **** }
 234              		.loc 1 70 0
 235 00ca 1846     		mov	r0, r3
 236 00cc 1437     		adds	r7, r7, #20
 237              		.cfi_def_cfa_offset 4
 238 00ce BD46     		mov	sp, r7
 239              		.cfi_def_cfa_register 13
 240              		@ sp needed
 241 00d0 5DF8047B 		ldr	r7, [sp], #4
 242              		.cfi_restore 7
 243              		.cfi_def_cfa_offset 0
 244 00d4 7047     		bx	lr
 245              	.L9:
 246 00d6 00BF     		.align	2
 247              	.L8:
 248 00d8 B7600BB6 		.word	-1240768329
 249 00dc 00000000 		.word	sin0_90_table
 250              		.cfi_endproc
 251              	.LFE0:
 252              		.size	lv_trigo_sin, .-lv_trigo_sin
 253              		.section	.text.lv_bezier3,"ax",%progbits
 254              		.align	2
 255              		.global	lv_bezier3
 256              		.thumb
 257              		.thumb_func
 258              		.type	lv_bezier3, %function
 259              	lv_bezier3:
 260              	.LFB1:
  71:..\..\..\lvgl\version_6.1.2\lvgl\src\lv_misc/lv_math.c **** 
  72:..\..\..\lvgl\version_6.1.2\lvgl\src\lv_misc/lv_math.c **** /**
  73:..\..\..\lvgl\version_6.1.2\lvgl\src\lv_misc/lv_math.c ****  * Calculate a value of a Cubic Bezier function.
  74:..\..\..\lvgl\version_6.1.2\lvgl\src\lv_misc/lv_math.c ****  * @param t time in range of [0..LV_BEZIER_VAL_MAX]
  75:..\..\..\lvgl\version_6.1.2\lvgl\src\lv_misc/lv_math.c ****  * @param u0 start values in range of [0..LV_BEZIER_VAL_MAX]
  76:..\..\..\lvgl\version_6.1.2\lvgl\src\lv_misc/lv_math.c ****  * @param u1 control value 1 values in range of [0..LV_BEZIER_VAL_MAX]
  77:..\..\..\lvgl\version_6.1.2\lvgl\src\lv_misc/lv_math.c ****  * @param u2 control value 2 in range of [0..LV_BEZIER_VAL_MAX]
  78:..\..\..\lvgl\version_6.1.2\lvgl\src\lv_misc/lv_math.c ****  * @param u3 end values in range of [0..LV_BEZIER_VAL_MAX]
  79:..\..\..\lvgl\version_6.1.2\lvgl\src\lv_misc/lv_math.c ****  * @return the value calculated from the given parameters in range of [0..LV_BEZIER_VAL_MAX]
  80:..\..\..\lvgl\version_6.1.2\lvgl\src\lv_misc/lv_math.c ****  */
  81:..\..\..\lvgl\version_6.1.2\lvgl\src\lv_misc/lv_math.c **** int32_t lv_bezier3(uint32_t t, int32_t u0, int32_t u1, int32_t u2, int32_t u3)
  82:..\..\..\lvgl\version_6.1.2\lvgl\src\lv_misc/lv_math.c **** {
ARM GAS  C:\Users\tmj32\AppData\Local\Temp\ccKMzZ2b.s 			page 7


 261              		.loc 1 82 0
 262              		.cfi_startproc
 263              		@ args = 4, pretend = 0, frame = 56
 264              		@ frame_needed = 1, uses_anonymous_args = 0
 265              		@ link register save eliminated.
 266 0000 80B4     		push	{r7}
 267              		.cfi_def_cfa_offset 4
 268              		.cfi_offset 7, -4
 269 0002 8FB0     		sub	sp, sp, #60
 270              		.cfi_def_cfa_offset 64
 271 0004 00AF     		add	r7, sp, #0
 272              		.cfi_def_cfa_register 7
 273 0006 F860     		str	r0, [r7, #12]
 274 0008 B960     		str	r1, [r7, #8]
 275 000a 7A60     		str	r2, [r7, #4]
 276 000c 3B60     		str	r3, [r7]
  83:..\..\..\lvgl\version_6.1.2\lvgl\src\lv_misc/lv_math.c ****     uint32_t t_rem  = 1024 - t;
 277              		.loc 1 83 0
 278 000e FB68     		ldr	r3, [r7, #12]
 279 0010 C3F58063 		rsb	r3, r3, #1024
 280 0014 7B63     		str	r3, [r7, #52]
  84:..\..\..\lvgl\version_6.1.2\lvgl\src\lv_misc/lv_math.c ****     uint32_t t_rem2 = (t_rem * t_rem) >> 10;
 281              		.loc 1 84 0
 282 0016 7B6B     		ldr	r3, [r7, #52]
 283 0018 7A6B     		ldr	r2, [r7, #52]
 284 001a 02FB03F3 		mul	r3, r2, r3
 285 001e 9B0A     		lsrs	r3, r3, #10
 286 0020 3B63     		str	r3, [r7, #48]
  85:..\..\..\lvgl\version_6.1.2\lvgl\src\lv_misc/lv_math.c ****     uint32_t t_rem3 = (t_rem2 * t_rem) >> 10;
 287              		.loc 1 85 0
 288 0022 3B6B     		ldr	r3, [r7, #48]
 289 0024 7A6B     		ldr	r2, [r7, #52]
 290 0026 02FB03F3 		mul	r3, r2, r3
 291 002a 9B0A     		lsrs	r3, r3, #10
 292 002c FB62     		str	r3, [r7, #44]
  86:..\..\..\lvgl\version_6.1.2\lvgl\src\lv_misc/lv_math.c ****     uint32_t t2     = (t * t) >> 10;
 293              		.loc 1 86 0
 294 002e FB68     		ldr	r3, [r7, #12]
 295 0030 FA68     		ldr	r2, [r7, #12]
 296 0032 02FB03F3 		mul	r3, r2, r3
 297 0036 9B0A     		lsrs	r3, r3, #10
 298 0038 BB62     		str	r3, [r7, #40]
  87:..\..\..\lvgl\version_6.1.2\lvgl\src\lv_misc/lv_math.c ****     uint32_t t3     = (t2 * t) >> 10;
 299              		.loc 1 87 0
 300 003a BB6A     		ldr	r3, [r7, #40]
 301 003c FA68     		ldr	r2, [r7, #12]
 302 003e 02FB03F3 		mul	r3, r2, r3
 303 0042 9B0A     		lsrs	r3, r3, #10
 304 0044 7B62     		str	r3, [r7, #36]
  88:..\..\..\lvgl\version_6.1.2\lvgl\src\lv_misc/lv_math.c **** 
  89:..\..\..\lvgl\version_6.1.2\lvgl\src\lv_misc/lv_math.c ****     uint32_t v1 = ((uint32_t)t_rem3 * u0) >> 10;
 305              		.loc 1 89 0
 306 0046 BB68     		ldr	r3, [r7, #8]
 307 0048 FA6A     		ldr	r2, [r7, #44]
 308 004a 02FB03F3 		mul	r3, r2, r3
 309 004e 9B0A     		lsrs	r3, r3, #10
 310 0050 3B62     		str	r3, [r7, #32]
ARM GAS  C:\Users\tmj32\AppData\Local\Temp\ccKMzZ2b.s 			page 8


  90:..\..\..\lvgl\version_6.1.2\lvgl\src\lv_misc/lv_math.c ****     uint32_t v2 = ((uint32_t)3 * t_rem2 * t * u1) >> 20;
 311              		.loc 1 90 0
 312 0052 3B6B     		ldr	r3, [r7, #48]
 313 0054 FA68     		ldr	r2, [r7, #12]
 314 0056 02FB03F3 		mul	r3, r2, r3
 315 005a 7A68     		ldr	r2, [r7, #4]
 316 005c 02FB03F2 		mul	r2, r2, r3
 317 0060 1346     		mov	r3, r2
 318 0062 5B00     		lsls	r3, r3, #1
 319 0064 1344     		add	r3, r3, r2
 320 0066 1B0D     		lsrs	r3, r3, #20
 321 0068 FB61     		str	r3, [r7, #28]
  91:..\..\..\lvgl\version_6.1.2\lvgl\src\lv_misc/lv_math.c ****     uint32_t v3 = ((uint32_t)3 * t_rem * t2 * u2) >> 20;
 322              		.loc 1 91 0
 323 006a 7B6B     		ldr	r3, [r7, #52]
 324 006c BA6A     		ldr	r2, [r7, #40]
 325 006e 02FB03F3 		mul	r3, r2, r3
 326 0072 3A68     		ldr	r2, [r7]
 327 0074 02FB03F2 		mul	r2, r2, r3
 328 0078 1346     		mov	r3, r2
 329 007a 5B00     		lsls	r3, r3, #1
 330 007c 1344     		add	r3, r3, r2
 331 007e 1B0D     		lsrs	r3, r3, #20
 332 0080 BB61     		str	r3, [r7, #24]
  92:..\..\..\lvgl\version_6.1.2\lvgl\src\lv_misc/lv_math.c ****     uint32_t v4 = ((uint32_t)t3 * u3) >> 10;
 333              		.loc 1 92 0
 334 0082 3B6C     		ldr	r3, [r7, #64]
 335 0084 7A6A     		ldr	r2, [r7, #36]
 336 0086 02FB03F3 		mul	r3, r2, r3
 337 008a 9B0A     		lsrs	r3, r3, #10
 338 008c 7B61     		str	r3, [r7, #20]
  93:..\..\..\lvgl\version_6.1.2\lvgl\src\lv_misc/lv_math.c **** 
  94:..\..\..\lvgl\version_6.1.2\lvgl\src\lv_misc/lv_math.c ****     return v1 + v2 + v3 + v4;
 339              		.loc 1 94 0
 340 008e 3A6A     		ldr	r2, [r7, #32]
 341 0090 FB69     		ldr	r3, [r7, #28]
 342 0092 1A44     		add	r2, r2, r3
 343 0094 BB69     		ldr	r3, [r7, #24]
 344 0096 1A44     		add	r2, r2, r3
 345 0098 7B69     		ldr	r3, [r7, #20]
 346 009a 1344     		add	r3, r3, r2
  95:..\..\..\lvgl\version_6.1.2\lvgl\src\lv_misc/lv_math.c **** }
 347              		.loc 1 95 0
 348 009c 1846     		mov	r0, r3
 349 009e 3C37     		adds	r7, r7, #60
 350              		.cfi_def_cfa_offset 4
 351 00a0 BD46     		mov	sp, r7
 352              		.cfi_def_cfa_register 13
 353              		@ sp needed
 354 00a2 5DF8047B 		ldr	r7, [sp], #4
 355              		.cfi_restore 7
 356              		.cfi_def_cfa_offset 0
 357 00a6 7047     		bx	lr
 358              		.cfi_endproc
 359              	.LFE1:
 360              		.size	lv_bezier3, .-lv_bezier3
 361              		.section	.text.lv_atan2,"ax",%progbits
ARM GAS  C:\Users\tmj32\AppData\Local\Temp\ccKMzZ2b.s 			page 9


 362              		.align	2
 363              		.global	lv_atan2
 364              		.thumb
 365              		.thumb_func
 366              		.type	lv_atan2, %function
 367              	lv_atan2:
 368              	.LFB2:
  96:..\..\..\lvgl\version_6.1.2\lvgl\src\lv_misc/lv_math.c **** 
  97:..\..\..\lvgl\version_6.1.2\lvgl\src\lv_misc/lv_math.c **** /**
  98:..\..\..\lvgl\version_6.1.2\lvgl\src\lv_misc/lv_math.c ****  * Calculate the atan2 of a vector.
  99:..\..\..\lvgl\version_6.1.2\lvgl\src\lv_misc/lv_math.c ****  * @param x
 100:..\..\..\lvgl\version_6.1.2\lvgl\src\lv_misc/lv_math.c ****  * @param y
 101:..\..\..\lvgl\version_6.1.2\lvgl\src\lv_misc/lv_math.c ****  * @return the angle in degree calculated from the given parameters in range of [0..360]
 102:..\..\..\lvgl\version_6.1.2\lvgl\src\lv_misc/lv_math.c ****  */
 103:..\..\..\lvgl\version_6.1.2\lvgl\src\lv_misc/lv_math.c **** uint16_t lv_atan2(int x, int y)
 104:..\..\..\lvgl\version_6.1.2\lvgl\src\lv_misc/lv_math.c **** {
 369              		.loc 1 104 0
 370              		.cfi_startproc
 371              		@ args = 0, pretend = 0, frame = 32
 372              		@ frame_needed = 1, uses_anonymous_args = 0
 373              		@ link register save eliminated.
 374 0000 80B4     		push	{r7}
 375              		.cfi_def_cfa_offset 4
 376              		.cfi_offset 7, -4
 377 0002 89B0     		sub	sp, sp, #36
 378              		.cfi_def_cfa_offset 40
 379 0004 00AF     		add	r7, sp, #0
 380              		.cfi_def_cfa_register 7
 381 0006 7860     		str	r0, [r7, #4]
 382 0008 3960     		str	r1, [r7]
 105:..\..\..\lvgl\version_6.1.2\lvgl\src\lv_misc/lv_math.c ****     // Fast XY vector to integer degree algorithm - Jan 2011 www.RomanBlack.com
 106:..\..\..\lvgl\version_6.1.2\lvgl\src\lv_misc/lv_math.c ****     // Converts any XY values including 0 to a degree value that should be
 107:..\..\..\lvgl\version_6.1.2\lvgl\src\lv_misc/lv_math.c ****     // within +/- 1 degree of the accurate value without needing
 108:..\..\..\lvgl\version_6.1.2\lvgl\src\lv_misc/lv_math.c ****     // large slow trig functions like ArcTan() or ArcCos().
 109:..\..\..\lvgl\version_6.1.2\lvgl\src\lv_misc/lv_math.c ****     // NOTE! at least one of the X or Y values must be non-zero!
 110:..\..\..\lvgl\version_6.1.2\lvgl\src\lv_misc/lv_math.c ****     // This is the full version, for all 4 quadrants and will generate
 111:..\..\..\lvgl\version_6.1.2\lvgl\src\lv_misc/lv_math.c ****     // the angle in integer degrees from 0-360.
 112:..\..\..\lvgl\version_6.1.2\lvgl\src\lv_misc/lv_math.c ****     // Any values of X and Y are usable including negative values provided
 113:..\..\..\lvgl\version_6.1.2\lvgl\src\lv_misc/lv_math.c ****     // they are between -1456 and 1456 so the 16bit multiply does not overflow.
 114:..\..\..\lvgl\version_6.1.2\lvgl\src\lv_misc/lv_math.c **** 
 115:..\..\..\lvgl\version_6.1.2\lvgl\src\lv_misc/lv_math.c ****     unsigned char negflag;
 116:..\..\..\lvgl\version_6.1.2\lvgl\src\lv_misc/lv_math.c ****     unsigned char tempdegree;
 117:..\..\..\lvgl\version_6.1.2\lvgl\src\lv_misc/lv_math.c ****     unsigned char comp;
 118:..\..\..\lvgl\version_6.1.2\lvgl\src\lv_misc/lv_math.c ****     unsigned int degree;     // this will hold the result
 119:..\..\..\lvgl\version_6.1.2\lvgl\src\lv_misc/lv_math.c ****     //signed int x;            // these hold the XY vector at the start
 120:..\..\..\lvgl\version_6.1.2\lvgl\src\lv_misc/lv_math.c ****     //signed int y;            // (and they will be destroyed)
 121:..\..\..\lvgl\version_6.1.2\lvgl\src\lv_misc/lv_math.c ****     unsigned int ux;
 122:..\..\..\lvgl\version_6.1.2\lvgl\src\lv_misc/lv_math.c ****     unsigned int uy;
 123:..\..\..\lvgl\version_6.1.2\lvgl\src\lv_misc/lv_math.c **** 
 124:..\..\..\lvgl\version_6.1.2\lvgl\src\lv_misc/lv_math.c ****     // Save the sign flags then remove signs and get XY as unsigned ints
 125:..\..\..\lvgl\version_6.1.2\lvgl\src\lv_misc/lv_math.c ****     negflag = 0;
 383              		.loc 1 125 0
 384 000a 0023     		movs	r3, #0
 385 000c FB77     		strb	r3, [r7, #31]
 126:..\..\..\lvgl\version_6.1.2\lvgl\src\lv_misc/lv_math.c ****     if(x < 0) {
 386              		.loc 1 126 0
 387 000e 7B68     		ldr	r3, [r7, #4]
ARM GAS  C:\Users\tmj32\AppData\Local\Temp\ccKMzZ2b.s 			page 10


 388 0010 002B     		cmp	r3, #0
 389 0012 05DA     		bge	.L13
 127:..\..\..\lvgl\version_6.1.2\lvgl\src\lv_misc/lv_math.c ****         negflag += 0x01;    // x flag bit
 390              		.loc 1 127 0
 391 0014 FB7F     		ldrb	r3, [r7, #31]
 392 0016 0133     		adds	r3, r3, #1
 393 0018 FB77     		strb	r3, [r7, #31]
 128:..\..\..\lvgl\version_6.1.2\lvgl\src\lv_misc/lv_math.c ****         x = (0 - x);        // is now +
 394              		.loc 1 128 0
 395 001a 7B68     		ldr	r3, [r7, #4]
 396 001c 5B42     		negs	r3, r3
 397 001e 7B60     		str	r3, [r7, #4]
 398              	.L13:
 129:..\..\..\lvgl\version_6.1.2\lvgl\src\lv_misc/lv_math.c ****     }
 130:..\..\..\lvgl\version_6.1.2\lvgl\src\lv_misc/lv_math.c ****     ux = x;                // copy to unsigned var before multiply
 399              		.loc 1 130 0
 400 0020 7B68     		ldr	r3, [r7, #4]
 401 0022 7B61     		str	r3, [r7, #20]
 131:..\..\..\lvgl\version_6.1.2\lvgl\src\lv_misc/lv_math.c ****     if(y < 0) {
 402              		.loc 1 131 0
 403 0024 3B68     		ldr	r3, [r7]
 404 0026 002B     		cmp	r3, #0
 405 0028 05DA     		bge	.L14
 132:..\..\..\lvgl\version_6.1.2\lvgl\src\lv_misc/lv_math.c ****         negflag += 0x02;    // y flag bit
 406              		.loc 1 132 0
 407 002a FB7F     		ldrb	r3, [r7, #31]
 408 002c 0233     		adds	r3, r3, #2
 409 002e FB77     		strb	r3, [r7, #31]
 133:..\..\..\lvgl\version_6.1.2\lvgl\src\lv_misc/lv_math.c ****         y = (0 - y);        // is now +
 410              		.loc 1 133 0
 411 0030 3B68     		ldr	r3, [r7]
 412 0032 5B42     		negs	r3, r3
 413 0034 3B60     		str	r3, [r7]
 414              	.L14:
 134:..\..\..\lvgl\version_6.1.2\lvgl\src\lv_misc/lv_math.c ****     }
 135:..\..\..\lvgl\version_6.1.2\lvgl\src\lv_misc/lv_math.c ****     uy = y;                // copy to unsigned var before multiply
 415              		.loc 1 135 0
 416 0036 3B68     		ldr	r3, [r7]
 417 0038 3B61     		str	r3, [r7, #16]
 136:..\..\..\lvgl\version_6.1.2\lvgl\src\lv_misc/lv_math.c **** 
 137:..\..\..\lvgl\version_6.1.2\lvgl\src\lv_misc/lv_math.c ****     // 1. Calc the scaled "degrees"
 138:..\..\..\lvgl\version_6.1.2\lvgl\src\lv_misc/lv_math.c ****     if(ux > uy) {
 418              		.loc 1 138 0
 419 003a 7A69     		ldr	r2, [r7, #20]
 420 003c 3B69     		ldr	r3, [r7, #16]
 421 003e 9A42     		cmp	r2, r3
 422 0040 0DD9     		bls	.L15
 139:..\..\..\lvgl\version_6.1.2\lvgl\src\lv_misc/lv_math.c ****         degree = (uy * 45) / ux;   // degree result will be 0-45 range
 423              		.loc 1 139 0
 424 0042 3A69     		ldr	r2, [r7, #16]
 425 0044 1346     		mov	r3, r2
 426 0046 5B00     		lsls	r3, r3, #1
 427 0048 1344     		add	r3, r3, r2
 428 004a 1A01     		lsls	r2, r3, #4
 429 004c D21A     		subs	r2, r2, r3
 430 004e 7B69     		ldr	r3, [r7, #20]
 431 0050 B2FBF3F3 		udiv	r3, r2, r3
ARM GAS  C:\Users\tmj32\AppData\Local\Temp\ccKMzZ2b.s 			page 11


 432 0054 BB61     		str	r3, [r7, #24]
 140:..\..\..\lvgl\version_6.1.2\lvgl\src\lv_misc/lv_math.c ****         negflag += 0x10;    // octant flag bit
 433              		.loc 1 140 0
 434 0056 FB7F     		ldrb	r3, [r7, #31]
 435 0058 1033     		adds	r3, r3, #16
 436 005a FB77     		strb	r3, [r7, #31]
 437 005c 09E0     		b	.L16
 438              	.L15:
 141:..\..\..\lvgl\version_6.1.2\lvgl\src\lv_misc/lv_math.c ****     } else {
 142:..\..\..\lvgl\version_6.1.2\lvgl\src\lv_misc/lv_math.c ****         degree = (ux * 45) / uy;   // degree result will be 0-45 range
 439              		.loc 1 142 0
 440 005e 7A69     		ldr	r2, [r7, #20]
 441 0060 1346     		mov	r3, r2
 442 0062 5B00     		lsls	r3, r3, #1
 443 0064 1344     		add	r3, r3, r2
 444 0066 1A01     		lsls	r2, r3, #4
 445 0068 D21A     		subs	r2, r2, r3
 446 006a 3B69     		ldr	r3, [r7, #16]
 447 006c B2FBF3F3 		udiv	r3, r2, r3
 448 0070 BB61     		str	r3, [r7, #24]
 449              	.L16:
 143:..\..\..\lvgl\version_6.1.2\lvgl\src\lv_misc/lv_math.c ****     }
 144:..\..\..\lvgl\version_6.1.2\lvgl\src\lv_misc/lv_math.c **** 
 145:..\..\..\lvgl\version_6.1.2\lvgl\src\lv_misc/lv_math.c ****     // 2. Compensate for the 4 degree error curve
 146:..\..\..\lvgl\version_6.1.2\lvgl\src\lv_misc/lv_math.c ****     comp = 0;
 450              		.loc 1 146 0
 451 0072 0023     		movs	r3, #0
 452 0074 BB77     		strb	r3, [r7, #30]
 147:..\..\..\lvgl\version_6.1.2\lvgl\src\lv_misc/lv_math.c ****     tempdegree = degree;    // use an unsigned char for speed!
 453              		.loc 1 147 0
 454 0076 BB69     		ldr	r3, [r7, #24]
 455 0078 FB73     		strb	r3, [r7, #15]
 148:..\..\..\lvgl\version_6.1.2\lvgl\src\lv_misc/lv_math.c ****     if(tempdegree > 22) {    // if top half of range
 456              		.loc 1 148 0
 457 007a FB7B     		ldrb	r3, [r7, #15]	@ zero_extendqisi2
 458 007c 162B     		cmp	r3, #22
 459 007e 18D9     		bls	.L17
 149:..\..\..\lvgl\version_6.1.2\lvgl\src\lv_misc/lv_math.c ****         if(tempdegree <= 44) comp++;
 460              		.loc 1 149 0
 461 0080 FB7B     		ldrb	r3, [r7, #15]	@ zero_extendqisi2
 462 0082 2C2B     		cmp	r3, #44
 463 0084 02D8     		bhi	.L18
 464              		.loc 1 149 0 is_stmt 0 discriminator 1
 465 0086 BB7F     		ldrb	r3, [r7, #30]	@ zero_extendqisi2
 466 0088 0133     		adds	r3, r3, #1
 467 008a BB77     		strb	r3, [r7, #30]
 468              	.L18:
 150:..\..\..\lvgl\version_6.1.2\lvgl\src\lv_misc/lv_math.c ****         if(tempdegree <= 41) comp++;
 469              		.loc 1 150 0 is_stmt 1
 470 008c FB7B     		ldrb	r3, [r7, #15]	@ zero_extendqisi2
 471 008e 292B     		cmp	r3, #41
 472 0090 02D8     		bhi	.L19
 473              		.loc 1 150 0 is_stmt 0 discriminator 1
 474 0092 BB7F     		ldrb	r3, [r7, #30]	@ zero_extendqisi2
 475 0094 0133     		adds	r3, r3, #1
 476 0096 BB77     		strb	r3, [r7, #30]
 477              	.L19:
ARM GAS  C:\Users\tmj32\AppData\Local\Temp\ccKMzZ2b.s 			page 12


 151:..\..\..\lvgl\version_6.1.2\lvgl\src\lv_misc/lv_math.c ****         if(tempdegree <= 37) comp++;
 478              		.loc 1 151 0 is_stmt 1
 479 0098 FB7B     		ldrb	r3, [r7, #15]	@ zero_extendqisi2
 480 009a 252B     		cmp	r3, #37
 481 009c 02D8     		bhi	.L20
 482              		.loc 1 151 0 is_stmt 0 discriminator 1
 483 009e BB7F     		ldrb	r3, [r7, #30]	@ zero_extendqisi2
 484 00a0 0133     		adds	r3, r3, #1
 485 00a2 BB77     		strb	r3, [r7, #30]
 486              	.L20:
 152:..\..\..\lvgl\version_6.1.2\lvgl\src\lv_misc/lv_math.c ****         if(tempdegree <= 32) comp++;  // max is 4 degrees compensated
 487              		.loc 1 152 0 is_stmt 1
 488 00a4 FB7B     		ldrb	r3, [r7, #15]	@ zero_extendqisi2
 489 00a6 202B     		cmp	r3, #32
 490 00a8 1BD8     		bhi	.L22
 491              		.loc 1 152 0 is_stmt 0 discriminator 1
 492 00aa BB7F     		ldrb	r3, [r7, #30]	@ zero_extendqisi2
 493 00ac 0133     		adds	r3, r3, #1
 494 00ae BB77     		strb	r3, [r7, #30]
 495 00b0 17E0     		b	.L22
 496              	.L17:
 153:..\..\..\lvgl\version_6.1.2\lvgl\src\lv_misc/lv_math.c ****     } else { // else is lower half of range
 154:..\..\..\lvgl\version_6.1.2\lvgl\src\lv_misc/lv_math.c ****         if(tempdegree >= 2) comp++;
 497              		.loc 1 154 0 is_stmt 1
 498 00b2 FB7B     		ldrb	r3, [r7, #15]	@ zero_extendqisi2
 499 00b4 012B     		cmp	r3, #1
 500 00b6 02D9     		bls	.L23
 501              		.loc 1 154 0 is_stmt 0 discriminator 1
 502 00b8 BB7F     		ldrb	r3, [r7, #30]	@ zero_extendqisi2
 503 00ba 0133     		adds	r3, r3, #1
 504 00bc BB77     		strb	r3, [r7, #30]
 505              	.L23:
 155:..\..\..\lvgl\version_6.1.2\lvgl\src\lv_misc/lv_math.c ****         if(tempdegree >= 6) comp++;
 506              		.loc 1 155 0 is_stmt 1
 507 00be FB7B     		ldrb	r3, [r7, #15]	@ zero_extendqisi2
 508 00c0 052B     		cmp	r3, #5
 509 00c2 02D9     		bls	.L24
 510              		.loc 1 155 0 is_stmt 0 discriminator 1
 511 00c4 BB7F     		ldrb	r3, [r7, #30]	@ zero_extendqisi2
 512 00c6 0133     		adds	r3, r3, #1
 513 00c8 BB77     		strb	r3, [r7, #30]
 514              	.L24:
 156:..\..\..\lvgl\version_6.1.2\lvgl\src\lv_misc/lv_math.c ****         if(tempdegree >= 10) comp++;
 515              		.loc 1 156 0 is_stmt 1
 516 00ca FB7B     		ldrb	r3, [r7, #15]	@ zero_extendqisi2
 517 00cc 092B     		cmp	r3, #9
 518 00ce 02D9     		bls	.L25
 519              		.loc 1 156 0 is_stmt 0 discriminator 1
 520 00d0 BB7F     		ldrb	r3, [r7, #30]	@ zero_extendqisi2
 521 00d2 0133     		adds	r3, r3, #1
 522 00d4 BB77     		strb	r3, [r7, #30]
 523              	.L25:
 157:..\..\..\lvgl\version_6.1.2\lvgl\src\lv_misc/lv_math.c ****         if(tempdegree >= 15) comp++;  // max is 4 degrees compensated
 524              		.loc 1 157 0 is_stmt 1
 525 00d6 FB7B     		ldrb	r3, [r7, #15]	@ zero_extendqisi2
 526 00d8 0E2B     		cmp	r3, #14
 527 00da 02D9     		bls	.L22
ARM GAS  C:\Users\tmj32\AppData\Local\Temp\ccKMzZ2b.s 			page 13


 528              		.loc 1 157 0 is_stmt 0 discriminator 1
 529 00dc BB7F     		ldrb	r3, [r7, #30]	@ zero_extendqisi2
 530 00de 0133     		adds	r3, r3, #1
 531 00e0 BB77     		strb	r3, [r7, #30]
 532              	.L22:
 158:..\..\..\lvgl\version_6.1.2\lvgl\src\lv_misc/lv_math.c ****     }
 159:..\..\..\lvgl\version_6.1.2\lvgl\src\lv_misc/lv_math.c ****     degree += comp;   // degree is now accurate to +/- 1 degree!
 533              		.loc 1 159 0 is_stmt 1
 534 00e2 BB7F     		ldrb	r3, [r7, #30]	@ zero_extendqisi2
 535 00e4 BA69     		ldr	r2, [r7, #24]
 536 00e6 1344     		add	r3, r3, r2
 537 00e8 BB61     		str	r3, [r7, #24]
 160:..\..\..\lvgl\version_6.1.2\lvgl\src\lv_misc/lv_math.c **** 
 161:..\..\..\lvgl\version_6.1.2\lvgl\src\lv_misc/lv_math.c ****     // Invert degree if it was X>Y octant, makes 0-45 into 90-45
 162:..\..\..\lvgl\version_6.1.2\lvgl\src\lv_misc/lv_math.c ****     if(negflag & 0x10) degree = (90 - degree);
 538              		.loc 1 162 0
 539 00ea FB7F     		ldrb	r3, [r7, #31]	@ zero_extendqisi2
 540 00ec 03F01003 		and	r3, r3, #16
 541 00f0 002B     		cmp	r3, #0
 542 00f2 03D0     		beq	.L26
 543              		.loc 1 162 0 is_stmt 0 discriminator 1
 544 00f4 BB69     		ldr	r3, [r7, #24]
 545 00f6 C3F15A03 		rsb	r3, r3, #90
 546 00fa BB61     		str	r3, [r7, #24]
 547              	.L26:
 163:..\..\..\lvgl\version_6.1.2\lvgl\src\lv_misc/lv_math.c **** 
 164:..\..\..\lvgl\version_6.1.2\lvgl\src\lv_misc/lv_math.c ****     // 3. Degree is now 0-90 range for this quadrant,
 165:..\..\..\lvgl\version_6.1.2\lvgl\src\lv_misc/lv_math.c ****     // need to invert it for whichever quadrant it was in
 166:..\..\..\lvgl\version_6.1.2\lvgl\src\lv_misc/lv_math.c ****     if(negflag & 0x02) { // if -Y
 548              		.loc 1 166 0 is_stmt 1
 549 00fc FB7F     		ldrb	r3, [r7, #31]	@ zero_extendqisi2
 550 00fe 03F00203 		and	r3, r3, #2
 551 0102 002B     		cmp	r3, #0
 552 0104 0DD0     		beq	.L27
 167:..\..\..\lvgl\version_6.1.2\lvgl\src\lv_misc/lv_math.c ****         if(negflag & 0x01)   // if -Y -X
 553              		.loc 1 167 0
 554 0106 FB7F     		ldrb	r3, [r7, #31]	@ zero_extendqisi2
 555 0108 03F00103 		and	r3, r3, #1
 556 010c 002B     		cmp	r3, #0
 557 010e 03D0     		beq	.L28
 168:..\..\..\lvgl\version_6.1.2\lvgl\src\lv_misc/lv_math.c ****             degree = (180 + degree);
 558              		.loc 1 168 0
 559 0110 BB69     		ldr	r3, [r7, #24]
 560 0112 B433     		adds	r3, r3, #180
 561 0114 BB61     		str	r3, [r7, #24]
 562 0116 0DE0     		b	.L30
 563              	.L28:
 169:..\..\..\lvgl\version_6.1.2\lvgl\src\lv_misc/lv_math.c ****         else        // else is -Y +X
 170:..\..\..\lvgl\version_6.1.2\lvgl\src\lv_misc/lv_math.c ****             degree = (180 - degree);
 564              		.loc 1 170 0
 565 0118 BB69     		ldr	r3, [r7, #24]
 566 011a C3F1B403 		rsb	r3, r3, #180
 567 011e BB61     		str	r3, [r7, #24]
 568 0120 08E0     		b	.L30
 569              	.L27:
 171:..\..\..\lvgl\version_6.1.2\lvgl\src\lv_misc/lv_math.c ****     } else { // else is +Y
 172:..\..\..\lvgl\version_6.1.2\lvgl\src\lv_misc/lv_math.c ****         if(negflag & 0x01)   // if +Y -X
ARM GAS  C:\Users\tmj32\AppData\Local\Temp\ccKMzZ2b.s 			page 14


 570              		.loc 1 172 0
 571 0122 FB7F     		ldrb	r3, [r7, #31]	@ zero_extendqisi2
 572 0124 03F00103 		and	r3, r3, #1
 573 0128 002B     		cmp	r3, #0
 574 012a 03D0     		beq	.L30
 173:..\..\..\lvgl\version_6.1.2\lvgl\src\lv_misc/lv_math.c ****             degree = (360 - degree);
 575              		.loc 1 173 0
 576 012c BB69     		ldr	r3, [r7, #24]
 577 012e C3F5B473 		rsb	r3, r3, #360
 578 0132 BB61     		str	r3, [r7, #24]
 579              	.L30:
 174:..\..\..\lvgl\version_6.1.2\lvgl\src\lv_misc/lv_math.c ****     }
 175:..\..\..\lvgl\version_6.1.2\lvgl\src\lv_misc/lv_math.c ****     return degree;
 580              		.loc 1 175 0
 581 0134 BB69     		ldr	r3, [r7, #24]
 582 0136 9BB2     		uxth	r3, r3
 176:..\..\..\lvgl\version_6.1.2\lvgl\src\lv_misc/lv_math.c **** }
 583              		.loc 1 176 0
 584 0138 1846     		mov	r0, r3
 585 013a 2437     		adds	r7, r7, #36
 586              		.cfi_def_cfa_offset 4
 587 013c BD46     		mov	sp, r7
 588              		.cfi_def_cfa_register 13
 589              		@ sp needed
 590 013e 5DF8047B 		ldr	r7, [sp], #4
 591              		.cfi_restore 7
 592              		.cfi_def_cfa_offset 0
 593 0142 7047     		bx	lr
 594              		.cfi_endproc
 595              	.LFE2:
 596              		.size	lv_atan2, .-lv_atan2
 597              		.section	.text.lv_sqrt,"ax",%progbits
 598              		.align	2
 599              		.global	lv_sqrt
 600              		.thumb
 601              		.thumb_func
 602              		.type	lv_sqrt, %function
 603              	lv_sqrt:
 604              	.LFB3:
 177:..\..\..\lvgl\version_6.1.2\lvgl\src\lv_misc/lv_math.c **** 
 178:..\..\..\lvgl\version_6.1.2\lvgl\src\lv_misc/lv_math.c **** /**
 179:..\..\..\lvgl\version_6.1.2\lvgl\src\lv_misc/lv_math.c ****  * Calculate the integer square root of a number.
 180:..\..\..\lvgl\version_6.1.2\lvgl\src\lv_misc/lv_math.c ****  * @param num
 181:..\..\..\lvgl\version_6.1.2\lvgl\src\lv_misc/lv_math.c ****  * @return square root of 'num'
 182:..\..\..\lvgl\version_6.1.2\lvgl\src\lv_misc/lv_math.c ****  */
 183:..\..\..\lvgl\version_6.1.2\lvgl\src\lv_misc/lv_math.c **** uint32_t lv_sqrt(uint32_t num)
 184:..\..\..\lvgl\version_6.1.2\lvgl\src\lv_misc/lv_math.c **** {
 605              		.loc 1 184 0
 606              		.cfi_startproc
 607              		@ args = 0, pretend = 0, frame = 16
 608              		@ frame_needed = 1, uses_anonymous_args = 0
 609              		@ link register save eliminated.
 610 0000 80B4     		push	{r7}
 611              		.cfi_def_cfa_offset 4
 612              		.cfi_offset 7, -4
 613 0002 85B0     		sub	sp, sp, #20
 614              		.cfi_def_cfa_offset 24
ARM GAS  C:\Users\tmj32\AppData\Local\Temp\ccKMzZ2b.s 			page 15


 615 0004 00AF     		add	r7, sp, #0
 616              		.cfi_def_cfa_register 7
 617 0006 7860     		str	r0, [r7, #4]
 185:..\..\..\lvgl\version_6.1.2\lvgl\src\lv_misc/lv_math.c ****     // http://www.codecodex.com/wiki/Calculate_an_integer_square_root#C
 186:..\..\..\lvgl\version_6.1.2\lvgl\src\lv_misc/lv_math.c ****     uint32_t root  = 0;
 618              		.loc 1 186 0
 619 0008 0023     		movs	r3, #0
 620 000a FB60     		str	r3, [r7, #12]
 187:..\..\..\lvgl\version_6.1.2\lvgl\src\lv_misc/lv_math.c ****     uint32_t place = 0x40000000;
 621              		.loc 1 187 0
 622 000c 4FF08043 		mov	r3, #1073741824
 623 0010 BB60     		str	r3, [r7, #8]
 188:..\..\..\lvgl\version_6.1.2\lvgl\src\lv_misc/lv_math.c **** 
 189:..\..\..\lvgl\version_6.1.2\lvgl\src\lv_misc/lv_math.c ****     while(place > num) place >>= 2;
 624              		.loc 1 189 0
 625 0012 02E0     		b	.L33
 626              	.L34:
 627              		.loc 1 189 0 is_stmt 0 discriminator 2
 628 0014 BB68     		ldr	r3, [r7, #8]
 629 0016 9B08     		lsrs	r3, r3, #2
 630 0018 BB60     		str	r3, [r7, #8]
 631              	.L33:
 632              		.loc 1 189 0 discriminator 1
 633 001a BA68     		ldr	r2, [r7, #8]
 634 001c 7B68     		ldr	r3, [r7, #4]
 635 001e 9A42     		cmp	r2, r3
 636 0020 F8D8     		bhi	.L34
 190:..\..\..\lvgl\version_6.1.2\lvgl\src\lv_misc/lv_math.c ****     while(place) {
 637              		.loc 1 190 0 is_stmt 1
 638 0022 16E0     		b	.L35
 639              	.L37:
 191:..\..\..\lvgl\version_6.1.2\lvgl\src\lv_misc/lv_math.c ****         if(num >= root + place) {
 640              		.loc 1 191 0
 641 0024 FA68     		ldr	r2, [r7, #12]
 642 0026 BB68     		ldr	r3, [r7, #8]
 643 0028 1A44     		add	r2, r2, r3
 644 002a 7B68     		ldr	r3, [r7, #4]
 645 002c 9A42     		cmp	r2, r3
 646 002e 0AD8     		bhi	.L36
 192:..\..\..\lvgl\version_6.1.2\lvgl\src\lv_misc/lv_math.c ****             num -= root + place;
 647              		.loc 1 192 0
 648 0030 FA68     		ldr	r2, [r7, #12]
 649 0032 BB68     		ldr	r3, [r7, #8]
 650 0034 1344     		add	r3, r3, r2
 651 0036 7A68     		ldr	r2, [r7, #4]
 652 0038 D31A     		subs	r3, r2, r3
 653 003a 7B60     		str	r3, [r7, #4]
 193:..\..\..\lvgl\version_6.1.2\lvgl\src\lv_misc/lv_math.c ****             root += (place << 1);
 654              		.loc 1 193 0
 655 003c BB68     		ldr	r3, [r7, #8]
 656 003e 5B00     		lsls	r3, r3, #1
 657 0040 FA68     		ldr	r2, [r7, #12]
 658 0042 1344     		add	r3, r3, r2
 659 0044 FB60     		str	r3, [r7, #12]
 660              	.L36:
 194:..\..\..\lvgl\version_6.1.2\lvgl\src\lv_misc/lv_math.c ****         }
 195:..\..\..\lvgl\version_6.1.2\lvgl\src\lv_misc/lv_math.c ****         root >>= 1;
ARM GAS  C:\Users\tmj32\AppData\Local\Temp\ccKMzZ2b.s 			page 16


 661              		.loc 1 195 0
 662 0046 FB68     		ldr	r3, [r7, #12]
 663 0048 5B08     		lsrs	r3, r3, #1
 664 004a FB60     		str	r3, [r7, #12]
 196:..\..\..\lvgl\version_6.1.2\lvgl\src\lv_misc/lv_math.c ****         place >>= 2;
 665              		.loc 1 196 0
 666 004c BB68     		ldr	r3, [r7, #8]
 667 004e 9B08     		lsrs	r3, r3, #2
 668 0050 BB60     		str	r3, [r7, #8]
 669              	.L35:
 190:..\..\..\lvgl\version_6.1.2\lvgl\src\lv_misc/lv_math.c ****         if(num >= root + place) {
 670              		.loc 1 190 0
 671 0052 BB68     		ldr	r3, [r7, #8]
 672 0054 002B     		cmp	r3, #0
 673 0056 E5D1     		bne	.L37
 197:..\..\..\lvgl\version_6.1.2\lvgl\src\lv_misc/lv_math.c ****     }
 198:..\..\..\lvgl\version_6.1.2\lvgl\src\lv_misc/lv_math.c ****     return root;
 674              		.loc 1 198 0
 675 0058 FB68     		ldr	r3, [r7, #12]
 199:..\..\..\lvgl\version_6.1.2\lvgl\src\lv_misc/lv_math.c **** }
 676              		.loc 1 199 0
 677 005a 1846     		mov	r0, r3
 678 005c 1437     		adds	r7, r7, #20
 679              		.cfi_def_cfa_offset 4
 680 005e BD46     		mov	sp, r7
 681              		.cfi_def_cfa_register 13
 682              		@ sp needed
 683 0060 5DF8047B 		ldr	r7, [sp], #4
 684              		.cfi_restore 7
 685              		.cfi_def_cfa_offset 0
 686 0064 7047     		bx	lr
 687              		.cfi_endproc
 688              	.LFE3:
 689              		.size	lv_sqrt, .-lv_sqrt
 690 0066 00BF     		.text
 691              	.Letext0:
 692              		.file 2 "c:\\program files (x86)\\cypress\\psoc creator\\4.3\\psoc creator\\import\\gnu\\arm\\5.4.
 693              		.file 3 "c:\\program files (x86)\\cypress\\psoc creator\\4.3\\psoc creator\\import\\gnu\\arm\\5.4.