ARM GAS  C:\Users\tmj32\AppData\Local\Temp\ccSNdAsc.s 			page 1


   1              		.syntax unified
   2              		.cpu cortex-m4
   3              		.eabi_attribute 27, 1
   4              		.fpu fpv4-sp-d16
   5              		.eabi_attribute 20, 1
   6              		.eabi_attribute 21, 1
   7              		.eabi_attribute 23, 3
   8              		.eabi_attribute 24, 1
   9              		.eabi_attribute 25, 1
  10              		.eabi_attribute 26, 1
  11              		.eabi_attribute 30, 6
  12              		.eabi_attribute 34, 1
  13              		.eabi_attribute 18, 4
  14              		.thumb
  15              		.syntax unified
  16              		.file	"lv_mbox.c"
  17              		.text
  18              	.Ltext0:
  19              		.cfi_sections	.debug_frame
  20              		.section	.text.lv_font_get_line_height,"ax",%progbits
  21              		.align	2
  22              		.thumb
  23              		.thumb_func
  24              		.type	lv_font_get_line_height, %function
  25              	lv_font_get_line_height:
  26              	.LFB0:
  27              		.file 1 "..\\..\\..\\lvgl\\version_6.1.2\\lvgl\\src\\lv_objx\\../lv_core/../lv_font/lv_font.h"
   1:..\..\..\lvgl\version_6.1.2\lvgl\src\lv_objx\../lv_core/../lv_font/lv_font.h **** /**
   2:..\..\..\lvgl\version_6.1.2\lvgl\src\lv_objx\../lv_core/../lv_font/lv_font.h ****  * @file lv_font.h
   3:..\..\..\lvgl\version_6.1.2\lvgl\src\lv_objx\../lv_core/../lv_font/lv_font.h ****  *
   4:..\..\..\lvgl\version_6.1.2\lvgl\src\lv_objx\../lv_core/../lv_font/lv_font.h ****  */
   5:..\..\..\lvgl\version_6.1.2\lvgl\src\lv_objx\../lv_core/../lv_font/lv_font.h **** 
   6:..\..\..\lvgl\version_6.1.2\lvgl\src\lv_objx\../lv_core/../lv_font/lv_font.h **** #ifndef LV_FONT_H
   7:..\..\..\lvgl\version_6.1.2\lvgl\src\lv_objx\../lv_core/../lv_font/lv_font.h **** #define LV_FONT_H
   8:..\..\..\lvgl\version_6.1.2\lvgl\src\lv_objx\../lv_core/../lv_font/lv_font.h **** 
   9:..\..\..\lvgl\version_6.1.2\lvgl\src\lv_objx\../lv_core/../lv_font/lv_font.h **** #ifdef __cplusplus
  10:..\..\..\lvgl\version_6.1.2\lvgl\src\lv_objx\../lv_core/../lv_font/lv_font.h **** extern "C" {
  11:..\..\..\lvgl\version_6.1.2\lvgl\src\lv_objx\../lv_core/../lv_font/lv_font.h **** #endif
  12:..\..\..\lvgl\version_6.1.2\lvgl\src\lv_objx\../lv_core/../lv_font/lv_font.h **** 
  13:..\..\..\lvgl\version_6.1.2\lvgl\src\lv_objx\../lv_core/../lv_font/lv_font.h **** /*********************
  14:..\..\..\lvgl\version_6.1.2\lvgl\src\lv_objx\../lv_core/../lv_font/lv_font.h ****  *      INCLUDES
  15:..\..\..\lvgl\version_6.1.2\lvgl\src\lv_objx\../lv_core/../lv_font/lv_font.h ****  *********************/
  16:..\..\..\lvgl\version_6.1.2\lvgl\src\lv_objx\../lv_core/../lv_font/lv_font.h **** #ifdef LV_CONF_INCLUDE_SIMPLE
  17:..\..\..\lvgl\version_6.1.2\lvgl\src\lv_objx\../lv_core/../lv_font/lv_font.h **** #include "lv_conf.h"
  18:..\..\..\lvgl\version_6.1.2\lvgl\src\lv_objx\../lv_core/../lv_font/lv_font.h **** #else
  19:..\..\..\lvgl\version_6.1.2\lvgl\src\lv_objx\../lv_core/../lv_font/lv_font.h **** #include "../../../lv_conf.h"
  20:..\..\..\lvgl\version_6.1.2\lvgl\src\lv_objx\../lv_core/../lv_font/lv_font.h **** #endif
  21:..\..\..\lvgl\version_6.1.2\lvgl\src\lv_objx\../lv_core/../lv_font/lv_font.h **** 
  22:..\..\..\lvgl\version_6.1.2\lvgl\src\lv_objx\../lv_core/../lv_font/lv_font.h **** #include <stdint.h>
  23:..\..\..\lvgl\version_6.1.2\lvgl\src\lv_objx\../lv_core/../lv_font/lv_font.h **** #include <stddef.h>
  24:..\..\..\lvgl\version_6.1.2\lvgl\src\lv_objx\../lv_core/../lv_font/lv_font.h **** #include <stdbool.h>
  25:..\..\..\lvgl\version_6.1.2\lvgl\src\lv_objx\../lv_core/../lv_font/lv_font.h **** 
  26:..\..\..\lvgl\version_6.1.2\lvgl\src\lv_objx\../lv_core/../lv_font/lv_font.h **** #include "lv_symbol_def.h"
  27:..\..\..\lvgl\version_6.1.2\lvgl\src\lv_objx\../lv_core/../lv_font/lv_font.h **** 
  28:..\..\..\lvgl\version_6.1.2\lvgl\src\lv_objx\../lv_core/../lv_font/lv_font.h **** /*********************
  29:..\..\..\lvgl\version_6.1.2\lvgl\src\lv_objx\../lv_core/../lv_font/lv_font.h ****  *      DEFINES
  30:..\..\..\lvgl\version_6.1.2\lvgl\src\lv_objx\../lv_core/../lv_font/lv_font.h ****  *********************/
ARM GAS  C:\Users\tmj32\AppData\Local\Temp\ccSNdAsc.s 			page 2


  31:..\..\..\lvgl\version_6.1.2\lvgl\src\lv_objx\../lv_core/../lv_font/lv_font.h **** /*Number of fractional digits in the advanced width (`adv_w`) field of `lv_font_glyph_dsc_t`*/
  32:..\..\..\lvgl\version_6.1.2\lvgl\src\lv_objx\../lv_core/../lv_font/lv_font.h **** #define LV_FONT_WIDTH_FRACT_DIGIT       4
  33:..\..\..\lvgl\version_6.1.2\lvgl\src\lv_objx\../lv_core/../lv_font/lv_font.h **** 
  34:..\..\..\lvgl\version_6.1.2\lvgl\src\lv_objx\../lv_core/../lv_font/lv_font.h **** #define LV_FONT_KERN_POSITIVE        0
  35:..\..\..\lvgl\version_6.1.2\lvgl\src\lv_objx\../lv_core/../lv_font/lv_font.h **** #define LV_FONT_KERN_NEGATIVE        1
  36:..\..\..\lvgl\version_6.1.2\lvgl\src\lv_objx\../lv_core/../lv_font/lv_font.h **** 
  37:..\..\..\lvgl\version_6.1.2\lvgl\src\lv_objx\../lv_core/../lv_font/lv_font.h **** /**********************
  38:..\..\..\lvgl\version_6.1.2\lvgl\src\lv_objx\../lv_core/../lv_font/lv_font.h ****  *      TYPEDEFS
  39:..\..\..\lvgl\version_6.1.2\lvgl\src\lv_objx\../lv_core/../lv_font/lv_font.h ****  **********************/
  40:..\..\..\lvgl\version_6.1.2\lvgl\src\lv_objx\../lv_core/../lv_font/lv_font.h **** 
  41:..\..\..\lvgl\version_6.1.2\lvgl\src\lv_objx\../lv_core/../lv_font/lv_font.h **** /*------------------
  42:..\..\..\lvgl\version_6.1.2\lvgl\src\lv_objx\../lv_core/../lv_font/lv_font.h ****  * General types
  43:..\..\..\lvgl\version_6.1.2\lvgl\src\lv_objx\../lv_core/../lv_font/lv_font.h ****  *-----------------*/
  44:..\..\..\lvgl\version_6.1.2\lvgl\src\lv_objx\../lv_core/../lv_font/lv_font.h **** 
  45:..\..\..\lvgl\version_6.1.2\lvgl\src\lv_objx\../lv_core/../lv_font/lv_font.h **** /** Describes the properties of a glyph. */
  46:..\..\..\lvgl\version_6.1.2\lvgl\src\lv_objx\../lv_core/../lv_font/lv_font.h **** typedef struct
  47:..\..\..\lvgl\version_6.1.2\lvgl\src\lv_objx\../lv_core/../lv_font/lv_font.h **** {
  48:..\..\..\lvgl\version_6.1.2\lvgl\src\lv_objx\../lv_core/../lv_font/lv_font.h ****     uint16_t adv_w; /**< The glyph needs this space. Draw the next glyph after this width. 8 bit in
  49:..\..\..\lvgl\version_6.1.2\lvgl\src\lv_objx\../lv_core/../lv_font/lv_font.h ****     uint8_t box_w;  /**< Width of the glyph's bounding box*/
  50:..\..\..\lvgl\version_6.1.2\lvgl\src\lv_objx\../lv_core/../lv_font/lv_font.h ****     uint8_t box_h;  /**< Height of the glyph's bounding box*/
  51:..\..\..\lvgl\version_6.1.2\lvgl\src\lv_objx\../lv_core/../lv_font/lv_font.h ****     int8_t ofs_x;   /**< x offset of the bounding box*/
  52:..\..\..\lvgl\version_6.1.2\lvgl\src\lv_objx\../lv_core/../lv_font/lv_font.h ****     int8_t ofs_y;  /**< y offset of the bounding box*/
  53:..\..\..\lvgl\version_6.1.2\lvgl\src\lv_objx\../lv_core/../lv_font/lv_font.h ****     uint8_t bpp;   /**< Bit-per-pixel: 1, 2, 4, 8*/
  54:..\..\..\lvgl\version_6.1.2\lvgl\src\lv_objx\../lv_core/../lv_font/lv_font.h **** }lv_font_glyph_dsc_t;
  55:..\..\..\lvgl\version_6.1.2\lvgl\src\lv_objx\../lv_core/../lv_font/lv_font.h **** 
  56:..\..\..\lvgl\version_6.1.2\lvgl\src\lv_objx\../lv_core/../lv_font/lv_font.h **** 
  57:..\..\..\lvgl\version_6.1.2\lvgl\src\lv_objx\../lv_core/../lv_font/lv_font.h **** /** The bitmaps might be upscaled by 3 to achieve subpixel rendering. */
  58:..\..\..\lvgl\version_6.1.2\lvgl\src\lv_objx\../lv_core/../lv_font/lv_font.h **** enum {
  59:..\..\..\lvgl\version_6.1.2\lvgl\src\lv_objx\../lv_core/../lv_font/lv_font.h ****     LV_FONT_SUBPX_NONE,
  60:..\..\..\lvgl\version_6.1.2\lvgl\src\lv_objx\../lv_core/../lv_font/lv_font.h ****     LV_FONT_SUBPX_HOR,
  61:..\..\..\lvgl\version_6.1.2\lvgl\src\lv_objx\../lv_core/../lv_font/lv_font.h ****     LV_FONT_SUBPX_VER,
  62:..\..\..\lvgl\version_6.1.2\lvgl\src\lv_objx\../lv_core/../lv_font/lv_font.h ****     LV_FONT_SUBPX_BOTH,
  63:..\..\..\lvgl\version_6.1.2\lvgl\src\lv_objx\../lv_core/../lv_font/lv_font.h **** };
  64:..\..\..\lvgl\version_6.1.2\lvgl\src\lv_objx\../lv_core/../lv_font/lv_font.h **** 
  65:..\..\..\lvgl\version_6.1.2\lvgl\src\lv_objx\../lv_core/../lv_font/lv_font.h **** typedef uint8_t lv_font_subpx_t;
  66:..\..\..\lvgl\version_6.1.2\lvgl\src\lv_objx\../lv_core/../lv_font/lv_font.h **** 
  67:..\..\..\lvgl\version_6.1.2\lvgl\src\lv_objx\../lv_core/../lv_font/lv_font.h **** /** Describe the properties of a font*/
  68:..\..\..\lvgl\version_6.1.2\lvgl\src\lv_objx\../lv_core/../lv_font/lv_font.h **** typedef struct _lv_font_struct
  69:..\..\..\lvgl\version_6.1.2\lvgl\src\lv_objx\../lv_core/../lv_font/lv_font.h **** {
  70:..\..\..\lvgl\version_6.1.2\lvgl\src\lv_objx\../lv_core/../lv_font/lv_font.h ****     /** Get a glyph's  descriptor from a font*/
  71:..\..\..\lvgl\version_6.1.2\lvgl\src\lv_objx\../lv_core/../lv_font/lv_font.h ****     bool (*get_glyph_dsc)(const struct _lv_font_struct *, lv_font_glyph_dsc_t *, uint32_t letter, u
  72:..\..\..\lvgl\version_6.1.2\lvgl\src\lv_objx\../lv_core/../lv_font/lv_font.h **** 
  73:..\..\..\lvgl\version_6.1.2\lvgl\src\lv_objx\../lv_core/../lv_font/lv_font.h ****     /** Get a glyph's bitmap from a font*/
  74:..\..\..\lvgl\version_6.1.2\lvgl\src\lv_objx\../lv_core/../lv_font/lv_font.h ****     const uint8_t * (*get_glyph_bitmap)(const struct _lv_font_struct *, uint32_t);
  75:..\..\..\lvgl\version_6.1.2\lvgl\src\lv_objx\../lv_core/../lv_font/lv_font.h **** 
  76:..\..\..\lvgl\version_6.1.2\lvgl\src\lv_objx\../lv_core/../lv_font/lv_font.h ****     /*Pointer to the font in a font pack (must have the same line height)*/
  77:..\..\..\lvgl\version_6.1.2\lvgl\src\lv_objx\../lv_core/../lv_font/lv_font.h ****     uint8_t line_height;      /**< The real line height where any text fits*/
  78:..\..\..\lvgl\version_6.1.2\lvgl\src\lv_objx\../lv_core/../lv_font/lv_font.h ****     int8_t base_line;        /**< Base line measured from the top of the line_height*/
  79:..\..\..\lvgl\version_6.1.2\lvgl\src\lv_objx\../lv_core/../lv_font/lv_font.h ****     uint8_t subpx  :2;        /**< An element of `lv_font_subpx_t`*/
  80:..\..\..\lvgl\version_6.1.2\lvgl\src\lv_objx\../lv_core/../lv_font/lv_font.h ****     void * dsc;               /**< Store implementation specific or run_time data or caching here*/
  81:..\..\..\lvgl\version_6.1.2\lvgl\src\lv_objx\../lv_core/../lv_font/lv_font.h **** #if LV_USE_USER_DATA
  82:..\..\..\lvgl\version_6.1.2\lvgl\src\lv_objx\../lv_core/../lv_font/lv_font.h ****     lv_font_user_data_t user_data; /**< Custom user data for font. */
  83:..\..\..\lvgl\version_6.1.2\lvgl\src\lv_objx\../lv_core/../lv_font/lv_font.h **** #endif
  84:..\..\..\lvgl\version_6.1.2\lvgl\src\lv_objx\../lv_core/../lv_font/lv_font.h **** 
  85:..\..\..\lvgl\version_6.1.2\lvgl\src\lv_objx\../lv_core/../lv_font/lv_font.h **** 
  86:..\..\..\lvgl\version_6.1.2\lvgl\src\lv_objx\../lv_core/../lv_font/lv_font.h **** } lv_font_t;
  87:..\..\..\lvgl\version_6.1.2\lvgl\src\lv_objx\../lv_core/../lv_font/lv_font.h **** 
ARM GAS  C:\Users\tmj32\AppData\Local\Temp\ccSNdAsc.s 			page 3


  88:..\..\..\lvgl\version_6.1.2\lvgl\src\lv_objx\../lv_core/../lv_font/lv_font.h **** /**********************
  89:..\..\..\lvgl\version_6.1.2\lvgl\src\lv_objx\../lv_core/../lv_font/lv_font.h ****  * GLOBAL PROTOTYPES
  90:..\..\..\lvgl\version_6.1.2\lvgl\src\lv_objx\../lv_core/../lv_font/lv_font.h ****  **********************/
  91:..\..\..\lvgl\version_6.1.2\lvgl\src\lv_objx\../lv_core/../lv_font/lv_font.h **** 
  92:..\..\..\lvgl\version_6.1.2\lvgl\src\lv_objx\../lv_core/../lv_font/lv_font.h **** /**
  93:..\..\..\lvgl\version_6.1.2\lvgl\src\lv_objx\../lv_core/../lv_font/lv_font.h ****  * Return with the bitmap of a font.
  94:..\..\..\lvgl\version_6.1.2\lvgl\src\lv_objx\../lv_core/../lv_font/lv_font.h ****  * @param font_p pointer to a font
  95:..\..\..\lvgl\version_6.1.2\lvgl\src\lv_objx\../lv_core/../lv_font/lv_font.h ****  * @param letter an UNICODE character code
  96:..\..\..\lvgl\version_6.1.2\lvgl\src\lv_objx\../lv_core/../lv_font/lv_font.h ****  * @return  pointer to the bitmap of the letter
  97:..\..\..\lvgl\version_6.1.2\lvgl\src\lv_objx\../lv_core/../lv_font/lv_font.h ****  */
  98:..\..\..\lvgl\version_6.1.2\lvgl\src\lv_objx\../lv_core/../lv_font/lv_font.h **** const uint8_t * lv_font_get_glyph_bitmap(const lv_font_t * font_p, uint32_t letter);
  99:..\..\..\lvgl\version_6.1.2\lvgl\src\lv_objx\../lv_core/../lv_font/lv_font.h **** 
 100:..\..\..\lvgl\version_6.1.2\lvgl\src\lv_objx\../lv_core/../lv_font/lv_font.h **** /**
 101:..\..\..\lvgl\version_6.1.2\lvgl\src\lv_objx\../lv_core/../lv_font/lv_font.h ****  * Get the descriptor of a glyph
 102:..\..\..\lvgl\version_6.1.2\lvgl\src\lv_objx\../lv_core/../lv_font/lv_font.h ****  * @param font_p pointer to font
 103:..\..\..\lvgl\version_6.1.2\lvgl\src\lv_objx\../lv_core/../lv_font/lv_font.h ****  * @param dsc_out store the result descriptor here
 104:..\..\..\lvgl\version_6.1.2\lvgl\src\lv_objx\../lv_core/../lv_font/lv_font.h ****  * @param letter an UNICODE letter code
 105:..\..\..\lvgl\version_6.1.2\lvgl\src\lv_objx\../lv_core/../lv_font/lv_font.h ****  * @return true: descriptor is successfully loaded into `dsc_out`.
 106:..\..\..\lvgl\version_6.1.2\lvgl\src\lv_objx\../lv_core/../lv_font/lv_font.h ****  *         false: the letter was not found, no data is loaded to `dsc_out`
 107:..\..\..\lvgl\version_6.1.2\lvgl\src\lv_objx\../lv_core/../lv_font/lv_font.h ****  */
 108:..\..\..\lvgl\version_6.1.2\lvgl\src\lv_objx\../lv_core/../lv_font/lv_font.h **** bool lv_font_get_glyph_dsc(const lv_font_t * font_p, lv_font_glyph_dsc_t * dsc_out, uint32_t letter
 109:..\..\..\lvgl\version_6.1.2\lvgl\src\lv_objx\../lv_core/../lv_font/lv_font.h **** 
 110:..\..\..\lvgl\version_6.1.2\lvgl\src\lv_objx\../lv_core/../lv_font/lv_font.h **** /**
 111:..\..\..\lvgl\version_6.1.2\lvgl\src\lv_objx\../lv_core/../lv_font/lv_font.h ****  * Get the width of a glyph with kerning
 112:..\..\..\lvgl\version_6.1.2\lvgl\src\lv_objx\../lv_core/../lv_font/lv_font.h ****  * @param font pointer to a font
 113:..\..\..\lvgl\version_6.1.2\lvgl\src\lv_objx\../lv_core/../lv_font/lv_font.h ****  * @param letter an UNICODE letter
 114:..\..\..\lvgl\version_6.1.2\lvgl\src\lv_objx\../lv_core/../lv_font/lv_font.h ****  * @param letter_next the next letter after `letter`. Used for kerning
 115:..\..\..\lvgl\version_6.1.2\lvgl\src\lv_objx\../lv_core/../lv_font/lv_font.h ****  * @return the width of the glyph
 116:..\..\..\lvgl\version_6.1.2\lvgl\src\lv_objx\../lv_core/../lv_font/lv_font.h ****  */
 117:..\..\..\lvgl\version_6.1.2\lvgl\src\lv_objx\../lv_core/../lv_font/lv_font.h **** uint16_t lv_font_get_glyph_width(const lv_font_t * font, uint32_t letter, uint32_t letter_next);
 118:..\..\..\lvgl\version_6.1.2\lvgl\src\lv_objx\../lv_core/../lv_font/lv_font.h **** 
 119:..\..\..\lvgl\version_6.1.2\lvgl\src\lv_objx\../lv_core/../lv_font/lv_font.h **** /**
 120:..\..\..\lvgl\version_6.1.2\lvgl\src\lv_objx\../lv_core/../lv_font/lv_font.h ****  * Get the line height of a font. All characters fit into this height
 121:..\..\..\lvgl\version_6.1.2\lvgl\src\lv_objx\../lv_core/../lv_font/lv_font.h ****  * @param font_p pointer to a font
 122:..\..\..\lvgl\version_6.1.2\lvgl\src\lv_objx\../lv_core/../lv_font/lv_font.h ****  * @return the height of a font
 123:..\..\..\lvgl\version_6.1.2\lvgl\src\lv_objx\../lv_core/../lv_font/lv_font.h ****  */
 124:..\..\..\lvgl\version_6.1.2\lvgl\src\lv_objx\../lv_core/../lv_font/lv_font.h **** static inline uint8_t lv_font_get_line_height(const lv_font_t * font_p)
 125:..\..\..\lvgl\version_6.1.2\lvgl\src\lv_objx\../lv_core/../lv_font/lv_font.h **** {
  28              		.loc 1 125 0
  29              		.cfi_startproc
  30              		@ args = 0, pretend = 0, frame = 8
  31              		@ frame_needed = 1, uses_anonymous_args = 0
  32              		@ link register save eliminated.
  33 0000 80B4     		push	{r7}
  34              		.cfi_def_cfa_offset 4
  35              		.cfi_offset 7, -4
  36 0002 83B0     		sub	sp, sp, #12
  37              		.cfi_def_cfa_offset 16
  38 0004 00AF     		add	r7, sp, #0
  39              		.cfi_def_cfa_register 7
  40 0006 7860     		str	r0, [r7, #4]
 126:..\..\..\lvgl\version_6.1.2\lvgl\src\lv_objx\../lv_core/../lv_font/lv_font.h ****     return font_p->line_height;
  41              		.loc 1 126 0
  42 0008 7B68     		ldr	r3, [r7, #4]
  43 000a 1B7A     		ldrb	r3, [r3, #8]	@ zero_extendqisi2
 127:..\..\..\lvgl\version_6.1.2\lvgl\src\lv_objx\../lv_core/../lv_font/lv_font.h **** }
  44              		.loc 1 127 0
ARM GAS  C:\Users\tmj32\AppData\Local\Temp\ccSNdAsc.s 			page 4


  45 000c 1846     		mov	r0, r3
  46 000e 0C37     		adds	r7, r7, #12
  47              		.cfi_def_cfa_offset 4
  48 0010 BD46     		mov	sp, r7
  49              		.cfi_def_cfa_register 13
  50              		@ sp needed
  51 0012 5DF8047B 		ldr	r7, [sp], #4
  52              		.cfi_restore 7
  53              		.cfi_def_cfa_offset 0
  54 0016 7047     		bx	lr
  55              		.cfi_endproc
  56              	.LFE0:
  57              		.size	lv_font_get_line_height, .-lv_font_get_line_height
  58              		.section	.text.lv_area_get_width,"ax",%progbits
  59              		.align	2
  60              		.thumb
  61              		.thumb_func
  62              		.type	lv_area_get_width, %function
  63              	lv_area_get_width:
  64              	.LFB11:
  65              		.file 2 "..\\..\\..\\lvgl\\version_6.1.2\\lvgl\\src\\lv_objx\\../lv_core/../lv_misc/lv_area.h"
   1:..\..\..\lvgl\version_6.1.2\lvgl\src\lv_objx\../lv_core/../lv_misc/lv_area.h **** /**
   2:..\..\..\lvgl\version_6.1.2\lvgl\src\lv_objx\../lv_core/../lv_misc/lv_area.h ****  * @file lv_area.h
   3:..\..\..\lvgl\version_6.1.2\lvgl\src\lv_objx\../lv_core/../lv_misc/lv_area.h ****  *
   4:..\..\..\lvgl\version_6.1.2\lvgl\src\lv_objx\../lv_core/../lv_misc/lv_area.h ****  */
   5:..\..\..\lvgl\version_6.1.2\lvgl\src\lv_objx\../lv_core/../lv_misc/lv_area.h **** 
   6:..\..\..\lvgl\version_6.1.2\lvgl\src\lv_objx\../lv_core/../lv_misc/lv_area.h **** #ifndef LV_AREA_H
   7:..\..\..\lvgl\version_6.1.2\lvgl\src\lv_objx\../lv_core/../lv_misc/lv_area.h **** #define LV_AREA_H
   8:..\..\..\lvgl\version_6.1.2\lvgl\src\lv_objx\../lv_core/../lv_misc/lv_area.h **** 
   9:..\..\..\lvgl\version_6.1.2\lvgl\src\lv_objx\../lv_core/../lv_misc/lv_area.h **** #ifdef __cplusplus
  10:..\..\..\lvgl\version_6.1.2\lvgl\src\lv_objx\../lv_core/../lv_misc/lv_area.h **** extern "C" {
  11:..\..\..\lvgl\version_6.1.2\lvgl\src\lv_objx\../lv_core/../lv_misc/lv_area.h **** #endif
  12:..\..\..\lvgl\version_6.1.2\lvgl\src\lv_objx\../lv_core/../lv_misc/lv_area.h **** 
  13:..\..\..\lvgl\version_6.1.2\lvgl\src\lv_objx\../lv_core/../lv_misc/lv_area.h **** /*********************
  14:..\..\..\lvgl\version_6.1.2\lvgl\src\lv_objx\../lv_core/../lv_misc/lv_area.h ****  *      INCLUDES
  15:..\..\..\lvgl\version_6.1.2\lvgl\src\lv_objx\../lv_core/../lv_misc/lv_area.h ****  *********************/
  16:..\..\..\lvgl\version_6.1.2\lvgl\src\lv_objx\../lv_core/../lv_misc/lv_area.h **** #include <string.h>
  17:..\..\..\lvgl\version_6.1.2\lvgl\src\lv_objx\../lv_core/../lv_misc/lv_area.h **** #include <stdbool.h>
  18:..\..\..\lvgl\version_6.1.2\lvgl\src\lv_objx\../lv_core/../lv_misc/lv_area.h **** #include <stdint.h>
  19:..\..\..\lvgl\version_6.1.2\lvgl\src\lv_objx\../lv_core/../lv_misc/lv_area.h **** #ifdef LV_CONF_INCLUDE_SIMPLE
  20:..\..\..\lvgl\version_6.1.2\lvgl\src\lv_objx\../lv_core/../lv_misc/lv_area.h **** #include "lv_conf.h"
  21:..\..\..\lvgl\version_6.1.2\lvgl\src\lv_objx\../lv_core/../lv_misc/lv_area.h **** #else
  22:..\..\..\lvgl\version_6.1.2\lvgl\src\lv_objx\../lv_core/../lv_misc/lv_area.h **** #include "../../../lv_conf.h"
  23:..\..\..\lvgl\version_6.1.2\lvgl\src\lv_objx\../lv_core/../lv_misc/lv_area.h **** #endif
  24:..\..\..\lvgl\version_6.1.2\lvgl\src\lv_objx\../lv_core/../lv_misc/lv_area.h **** 
  25:..\..\..\lvgl\version_6.1.2\lvgl\src\lv_objx\../lv_core/../lv_misc/lv_area.h **** /*********************
  26:..\..\..\lvgl\version_6.1.2\lvgl\src\lv_objx\../lv_core/../lv_misc/lv_area.h ****  *      DEFINES
  27:..\..\..\lvgl\version_6.1.2\lvgl\src\lv_objx\../lv_core/../lv_misc/lv_area.h ****  *********************/
  28:..\..\..\lvgl\version_6.1.2\lvgl\src\lv_objx\../lv_core/../lv_misc/lv_area.h **** /*To avoid overflow don't let the max ranges (reduce with 1000) */
  29:..\..\..\lvgl\version_6.1.2\lvgl\src\lv_objx\../lv_core/../lv_misc/lv_area.h **** #define LV_COORD_MAX ((lv_coord_t)((uint32_t)((uint32_t)1 << (8 * sizeof(lv_coord_t) - 1)) - 1000))
  30:..\..\..\lvgl\version_6.1.2\lvgl\src\lv_objx\../lv_core/../lv_misc/lv_area.h **** #define LV_COORD_MIN (-LV_COORD_MAX)
  31:..\..\..\lvgl\version_6.1.2\lvgl\src\lv_objx\../lv_core/../lv_misc/lv_area.h **** 
  32:..\..\..\lvgl\version_6.1.2\lvgl\src\lv_objx\../lv_core/../lv_misc/lv_area.h **** LV_EXPORT_CONST_INT(LV_COORD_MAX);
  33:..\..\..\lvgl\version_6.1.2\lvgl\src\lv_objx\../lv_core/../lv_misc/lv_area.h **** LV_EXPORT_CONST_INT(LV_COORD_MIN);
  34:..\..\..\lvgl\version_6.1.2\lvgl\src\lv_objx\../lv_core/../lv_misc/lv_area.h **** 
  35:..\..\..\lvgl\version_6.1.2\lvgl\src\lv_objx\../lv_core/../lv_misc/lv_area.h **** /**********************
  36:..\..\..\lvgl\version_6.1.2\lvgl\src\lv_objx\../lv_core/../lv_misc/lv_area.h ****  *      TYPEDEFS
ARM GAS  C:\Users\tmj32\AppData\Local\Temp\ccSNdAsc.s 			page 5


  37:..\..\..\lvgl\version_6.1.2\lvgl\src\lv_objx\../lv_core/../lv_misc/lv_area.h ****  **********************/
  38:..\..\..\lvgl\version_6.1.2\lvgl\src\lv_objx\../lv_core/../lv_misc/lv_area.h **** 
  39:..\..\..\lvgl\version_6.1.2\lvgl\src\lv_objx\../lv_core/../lv_misc/lv_area.h **** /**
  40:..\..\..\lvgl\version_6.1.2\lvgl\src\lv_objx\../lv_core/../lv_misc/lv_area.h ****  * Represents a point on the screen.
  41:..\..\..\lvgl\version_6.1.2\lvgl\src\lv_objx\../lv_core/../lv_misc/lv_area.h ****  */
  42:..\..\..\lvgl\version_6.1.2\lvgl\src\lv_objx\../lv_core/../lv_misc/lv_area.h **** typedef struct
  43:..\..\..\lvgl\version_6.1.2\lvgl\src\lv_objx\../lv_core/../lv_misc/lv_area.h **** {
  44:..\..\..\lvgl\version_6.1.2\lvgl\src\lv_objx\../lv_core/../lv_misc/lv_area.h ****     lv_coord_t x;
  45:..\..\..\lvgl\version_6.1.2\lvgl\src\lv_objx\../lv_core/../lv_misc/lv_area.h ****     lv_coord_t y;
  46:..\..\..\lvgl\version_6.1.2\lvgl\src\lv_objx\../lv_core/../lv_misc/lv_area.h **** } lv_point_t;
  47:..\..\..\lvgl\version_6.1.2\lvgl\src\lv_objx\../lv_core/../lv_misc/lv_area.h **** 
  48:..\..\..\lvgl\version_6.1.2\lvgl\src\lv_objx\../lv_core/../lv_misc/lv_area.h **** /** Represents an area of the screen. */
  49:..\..\..\lvgl\version_6.1.2\lvgl\src\lv_objx\../lv_core/../lv_misc/lv_area.h **** typedef struct
  50:..\..\..\lvgl\version_6.1.2\lvgl\src\lv_objx\../lv_core/../lv_misc/lv_area.h **** {
  51:..\..\..\lvgl\version_6.1.2\lvgl\src\lv_objx\../lv_core/../lv_misc/lv_area.h ****     lv_coord_t x1;
  52:..\..\..\lvgl\version_6.1.2\lvgl\src\lv_objx\../lv_core/../lv_misc/lv_area.h ****     lv_coord_t y1;
  53:..\..\..\lvgl\version_6.1.2\lvgl\src\lv_objx\../lv_core/../lv_misc/lv_area.h ****     lv_coord_t x2;
  54:..\..\..\lvgl\version_6.1.2\lvgl\src\lv_objx\../lv_core/../lv_misc/lv_area.h ****     lv_coord_t y2;
  55:..\..\..\lvgl\version_6.1.2\lvgl\src\lv_objx\../lv_core/../lv_misc/lv_area.h **** } lv_area_t;
  56:..\..\..\lvgl\version_6.1.2\lvgl\src\lv_objx\../lv_core/../lv_misc/lv_area.h **** 
  57:..\..\..\lvgl\version_6.1.2\lvgl\src\lv_objx\../lv_core/../lv_misc/lv_area.h **** /**********************
  58:..\..\..\lvgl\version_6.1.2\lvgl\src\lv_objx\../lv_core/../lv_misc/lv_area.h ****  * GLOBAL PROTOTYPES
  59:..\..\..\lvgl\version_6.1.2\lvgl\src\lv_objx\../lv_core/../lv_misc/lv_area.h ****  **********************/
  60:..\..\..\lvgl\version_6.1.2\lvgl\src\lv_objx\../lv_core/../lv_misc/lv_area.h **** 
  61:..\..\..\lvgl\version_6.1.2\lvgl\src\lv_objx\../lv_core/../lv_misc/lv_area.h **** /**
  62:..\..\..\lvgl\version_6.1.2\lvgl\src\lv_objx\../lv_core/../lv_misc/lv_area.h ****  * Initialize an area
  63:..\..\..\lvgl\version_6.1.2\lvgl\src\lv_objx\../lv_core/../lv_misc/lv_area.h ****  * @param area_p pointer to an area
  64:..\..\..\lvgl\version_6.1.2\lvgl\src\lv_objx\../lv_core/../lv_misc/lv_area.h ****  * @param x1 left coordinate of the area
  65:..\..\..\lvgl\version_6.1.2\lvgl\src\lv_objx\../lv_core/../lv_misc/lv_area.h ****  * @param y1 top coordinate of the area
  66:..\..\..\lvgl\version_6.1.2\lvgl\src\lv_objx\../lv_core/../lv_misc/lv_area.h ****  * @param x2 right coordinate of the area
  67:..\..\..\lvgl\version_6.1.2\lvgl\src\lv_objx\../lv_core/../lv_misc/lv_area.h ****  * @param y2 bottom coordinate of the area
  68:..\..\..\lvgl\version_6.1.2\lvgl\src\lv_objx\../lv_core/../lv_misc/lv_area.h ****  */
  69:..\..\..\lvgl\version_6.1.2\lvgl\src\lv_objx\../lv_core/../lv_misc/lv_area.h **** void lv_area_set(lv_area_t * area_p, lv_coord_t x1, lv_coord_t y1, lv_coord_t x2, lv_coord_t y2);
  70:..\..\..\lvgl\version_6.1.2\lvgl\src\lv_objx\../lv_core/../lv_misc/lv_area.h **** 
  71:..\..\..\lvgl\version_6.1.2\lvgl\src\lv_objx\../lv_core/../lv_misc/lv_area.h **** /**
  72:..\..\..\lvgl\version_6.1.2\lvgl\src\lv_objx\../lv_core/../lv_misc/lv_area.h ****  * Copy an area
  73:..\..\..\lvgl\version_6.1.2\lvgl\src\lv_objx\../lv_core/../lv_misc/lv_area.h ****  * @param dest pointer to the destination area
  74:..\..\..\lvgl\version_6.1.2\lvgl\src\lv_objx\../lv_core/../lv_misc/lv_area.h ****  * @param src pointer to the source area
  75:..\..\..\lvgl\version_6.1.2\lvgl\src\lv_objx\../lv_core/../lv_misc/lv_area.h ****  */
  76:..\..\..\lvgl\version_6.1.2\lvgl\src\lv_objx\../lv_core/../lv_misc/lv_area.h **** inline static void lv_area_copy(lv_area_t * dest, const lv_area_t * src)
  77:..\..\..\lvgl\version_6.1.2\lvgl\src\lv_objx\../lv_core/../lv_misc/lv_area.h **** {
  78:..\..\..\lvgl\version_6.1.2\lvgl\src\lv_objx\../lv_core/../lv_misc/lv_area.h ****     memcpy(dest, src, sizeof(lv_area_t));
  79:..\..\..\lvgl\version_6.1.2\lvgl\src\lv_objx\../lv_core/../lv_misc/lv_area.h **** }
  80:..\..\..\lvgl\version_6.1.2\lvgl\src\lv_objx\../lv_core/../lv_misc/lv_area.h **** 
  81:..\..\..\lvgl\version_6.1.2\lvgl\src\lv_objx\../lv_core/../lv_misc/lv_area.h **** /**
  82:..\..\..\lvgl\version_6.1.2\lvgl\src\lv_objx\../lv_core/../lv_misc/lv_area.h ****  * Get the width of an area
  83:..\..\..\lvgl\version_6.1.2\lvgl\src\lv_objx\../lv_core/../lv_misc/lv_area.h ****  * @param area_p pointer to an area
  84:..\..\..\lvgl\version_6.1.2\lvgl\src\lv_objx\../lv_core/../lv_misc/lv_area.h ****  * @return the width of the area (if x1 == x2 -> width = 1)
  85:..\..\..\lvgl\version_6.1.2\lvgl\src\lv_objx\../lv_core/../lv_misc/lv_area.h ****  */
  86:..\..\..\lvgl\version_6.1.2\lvgl\src\lv_objx\../lv_core/../lv_misc/lv_area.h **** static inline lv_coord_t lv_area_get_width(const lv_area_t * area_p)
  87:..\..\..\lvgl\version_6.1.2\lvgl\src\lv_objx\../lv_core/../lv_misc/lv_area.h **** {
  66              		.loc 2 87 0
  67              		.cfi_startproc
  68              		@ args = 0, pretend = 0, frame = 8
  69              		@ frame_needed = 1, uses_anonymous_args = 0
  70              		@ link register save eliminated.
  71 0000 80B4     		push	{r7}
ARM GAS  C:\Users\tmj32\AppData\Local\Temp\ccSNdAsc.s 			page 6


  72              		.cfi_def_cfa_offset 4
  73              		.cfi_offset 7, -4
  74 0002 83B0     		sub	sp, sp, #12
  75              		.cfi_def_cfa_offset 16
  76 0004 00AF     		add	r7, sp, #0
  77              		.cfi_def_cfa_register 7
  78 0006 7860     		str	r0, [r7, #4]
  88:..\..\..\lvgl\version_6.1.2\lvgl\src\lv_objx\../lv_core/../lv_misc/lv_area.h ****     return (lv_coord_t)(area_p->x2 - area_p->x1 + 1);
  79              		.loc 2 88 0
  80 0008 7B68     		ldr	r3, [r7, #4]
  81 000a B3F90430 		ldrsh	r3, [r3, #4]
  82 000e 9AB2     		uxth	r2, r3
  83 0010 7B68     		ldr	r3, [r7, #4]
  84 0012 B3F90030 		ldrsh	r3, [r3]
  85 0016 9BB2     		uxth	r3, r3
  86 0018 D31A     		subs	r3, r2, r3
  87 001a 9BB2     		uxth	r3, r3
  88 001c 0133     		adds	r3, r3, #1
  89 001e 9BB2     		uxth	r3, r3
  90 0020 1BB2     		sxth	r3, r3
  89:..\..\..\lvgl\version_6.1.2\lvgl\src\lv_objx\../lv_core/../lv_misc/lv_area.h **** }
  91              		.loc 2 89 0
  92 0022 1846     		mov	r0, r3
  93 0024 0C37     		adds	r7, r7, #12
  94              		.cfi_def_cfa_offset 4
  95 0026 BD46     		mov	sp, r7
  96              		.cfi_def_cfa_register 13
  97              		@ sp needed
  98 0028 5DF8047B 		ldr	r7, [sp], #4
  99              		.cfi_restore 7
 100              		.cfi_def_cfa_offset 0
 101 002c 7047     		bx	lr
 102              		.cfi_endproc
 103              	.LFE11:
 104              		.size	lv_area_get_width, .-lv_area_get_width
 105 002e 00BF     		.section	.text.lv_cont_set_fit2,"ax",%progbits
 106              		.align	2
 107              		.thumb
 108              		.thumb_func
 109              		.type	lv_cont_set_fit2, %function
 110              	lv_cont_set_fit2:
 111              	.LFB31:
 112              		.file 3 "..\\..\\..\\lvgl\\version_6.1.2\\lvgl\\src\\lv_objx\\lv_cont.h"
   1:..\..\..\lvgl\version_6.1.2\lvgl\src\lv_objx/lv_cont.h **** /**
   2:..\..\..\lvgl\version_6.1.2\lvgl\src\lv_objx/lv_cont.h ****  * @file lv_cont.h
   3:..\..\..\lvgl\version_6.1.2\lvgl\src\lv_objx/lv_cont.h ****  *
   4:..\..\..\lvgl\version_6.1.2\lvgl\src\lv_objx/lv_cont.h ****  */
   5:..\..\..\lvgl\version_6.1.2\lvgl\src\lv_objx/lv_cont.h **** 
   6:..\..\..\lvgl\version_6.1.2\lvgl\src\lv_objx/lv_cont.h **** #ifndef LV_CONT_H
   7:..\..\..\lvgl\version_6.1.2\lvgl\src\lv_objx/lv_cont.h **** #define LV_CONT_H
   8:..\..\..\lvgl\version_6.1.2\lvgl\src\lv_objx/lv_cont.h **** 
   9:..\..\..\lvgl\version_6.1.2\lvgl\src\lv_objx/lv_cont.h **** #ifdef __cplusplus
  10:..\..\..\lvgl\version_6.1.2\lvgl\src\lv_objx/lv_cont.h **** extern "C" {
  11:..\..\..\lvgl\version_6.1.2\lvgl\src\lv_objx/lv_cont.h **** #endif
  12:..\..\..\lvgl\version_6.1.2\lvgl\src\lv_objx/lv_cont.h **** 
  13:..\..\..\lvgl\version_6.1.2\lvgl\src\lv_objx/lv_cont.h **** /*********************
  14:..\..\..\lvgl\version_6.1.2\lvgl\src\lv_objx/lv_cont.h ****  *      INCLUDES
ARM GAS  C:\Users\tmj32\AppData\Local\Temp\ccSNdAsc.s 			page 7


  15:..\..\..\lvgl\version_6.1.2\lvgl\src\lv_objx/lv_cont.h ****  *********************/
  16:..\..\..\lvgl\version_6.1.2\lvgl\src\lv_objx/lv_cont.h **** #ifdef LV_CONF_INCLUDE_SIMPLE
  17:..\..\..\lvgl\version_6.1.2\lvgl\src\lv_objx/lv_cont.h **** #include "lv_conf.h"
  18:..\..\..\lvgl\version_6.1.2\lvgl\src\lv_objx/lv_cont.h **** #else
  19:..\..\..\lvgl\version_6.1.2\lvgl\src\lv_objx/lv_cont.h **** #include "../../../lv_conf.h"
  20:..\..\..\lvgl\version_6.1.2\lvgl\src\lv_objx/lv_cont.h **** #endif
  21:..\..\..\lvgl\version_6.1.2\lvgl\src\lv_objx/lv_cont.h **** 
  22:..\..\..\lvgl\version_6.1.2\lvgl\src\lv_objx/lv_cont.h **** #if LV_USE_CONT != 0
  23:..\..\..\lvgl\version_6.1.2\lvgl\src\lv_objx/lv_cont.h **** 
  24:..\..\..\lvgl\version_6.1.2\lvgl\src\lv_objx/lv_cont.h **** #include "../lv_core/lv_obj.h"
  25:..\..\..\lvgl\version_6.1.2\lvgl\src\lv_objx/lv_cont.h **** 
  26:..\..\..\lvgl\version_6.1.2\lvgl\src\lv_objx/lv_cont.h **** /*********************
  27:..\..\..\lvgl\version_6.1.2\lvgl\src\lv_objx/lv_cont.h ****  *      DEFINES
  28:..\..\..\lvgl\version_6.1.2\lvgl\src\lv_objx/lv_cont.h ****  *********************/
  29:..\..\..\lvgl\version_6.1.2\lvgl\src\lv_objx/lv_cont.h **** 
  30:..\..\..\lvgl\version_6.1.2\lvgl\src\lv_objx/lv_cont.h **** /**********************
  31:..\..\..\lvgl\version_6.1.2\lvgl\src\lv_objx/lv_cont.h ****  *      TYPEDEFS
  32:..\..\..\lvgl\version_6.1.2\lvgl\src\lv_objx/lv_cont.h ****  **********************/
  33:..\..\..\lvgl\version_6.1.2\lvgl\src\lv_objx/lv_cont.h **** 
  34:..\..\..\lvgl\version_6.1.2\lvgl\src\lv_objx/lv_cont.h **** /** Container layout options*/
  35:..\..\..\lvgl\version_6.1.2\lvgl\src\lv_objx/lv_cont.h **** enum {
  36:..\..\..\lvgl\version_6.1.2\lvgl\src\lv_objx/lv_cont.h ****     LV_LAYOUT_OFF = 0, /**< No layout */
  37:..\..\..\lvgl\version_6.1.2\lvgl\src\lv_objx/lv_cont.h ****     LV_LAYOUT_CENTER, /**< Center objects */
  38:..\..\..\lvgl\version_6.1.2\lvgl\src\lv_objx/lv_cont.h ****     LV_LAYOUT_COL_L,  /**< Column left align*/
  39:..\..\..\lvgl\version_6.1.2\lvgl\src\lv_objx/lv_cont.h ****     LV_LAYOUT_COL_M,  /**< Column middle align*/
  40:..\..\..\lvgl\version_6.1.2\lvgl\src\lv_objx/lv_cont.h ****     LV_LAYOUT_COL_R,  /**< Column right align*/
  41:..\..\..\lvgl\version_6.1.2\lvgl\src\lv_objx/lv_cont.h ****     LV_LAYOUT_ROW_T,  /**< Row top align*/
  42:..\..\..\lvgl\version_6.1.2\lvgl\src\lv_objx/lv_cont.h ****     LV_LAYOUT_ROW_M,  /**< Row middle align*/
  43:..\..\..\lvgl\version_6.1.2\lvgl\src\lv_objx/lv_cont.h ****     LV_LAYOUT_ROW_B,  /**< Row bottom align*/
  44:..\..\..\lvgl\version_6.1.2\lvgl\src\lv_objx/lv_cont.h ****     LV_LAYOUT_PRETTY, /**< Put as many object as possible in row and begin a new row*/
  45:..\..\..\lvgl\version_6.1.2\lvgl\src\lv_objx/lv_cont.h ****     LV_LAYOUT_GRID,   /**< Align same-sized object into a grid*/
  46:..\..\..\lvgl\version_6.1.2\lvgl\src\lv_objx/lv_cont.h ****     _LV_LAYOUT_NUM
  47:..\..\..\lvgl\version_6.1.2\lvgl\src\lv_objx/lv_cont.h **** };
  48:..\..\..\lvgl\version_6.1.2\lvgl\src\lv_objx/lv_cont.h **** typedef uint8_t lv_layout_t;
  49:..\..\..\lvgl\version_6.1.2\lvgl\src\lv_objx/lv_cont.h **** 
  50:..\..\..\lvgl\version_6.1.2\lvgl\src\lv_objx/lv_cont.h **** /**
  51:..\..\..\lvgl\version_6.1.2\lvgl\src\lv_objx/lv_cont.h ****  * How to resize the container around the children.
  52:..\..\..\lvgl\version_6.1.2\lvgl\src\lv_objx/lv_cont.h ****  */
  53:..\..\..\lvgl\version_6.1.2\lvgl\src\lv_objx/lv_cont.h **** enum {
  54:..\..\..\lvgl\version_6.1.2\lvgl\src\lv_objx/lv_cont.h ****     LV_FIT_NONE,  /**< Do not change the size automatically*/
  55:..\..\..\lvgl\version_6.1.2\lvgl\src\lv_objx/lv_cont.h ****     LV_FIT_TIGHT, /**< Shrink wrap around the children */
  56:..\..\..\lvgl\version_6.1.2\lvgl\src\lv_objx/lv_cont.h ****     LV_FIT_FLOOD, /**< Align the size to the parent's edge*/
  57:..\..\..\lvgl\version_6.1.2\lvgl\src\lv_objx/lv_cont.h ****     LV_FIT_FILL,  /**< Align the size to the parent's edge first but if there is an object out of i
  58:..\..\..\lvgl\version_6.1.2\lvgl\src\lv_objx/lv_cont.h ****                      then get larger */
  59:..\..\..\lvgl\version_6.1.2\lvgl\src\lv_objx/lv_cont.h ****     _LV_FIT_NUM
  60:..\..\..\lvgl\version_6.1.2\lvgl\src\lv_objx/lv_cont.h **** };
  61:..\..\..\lvgl\version_6.1.2\lvgl\src\lv_objx/lv_cont.h **** typedef uint8_t lv_fit_t;
  62:..\..\..\lvgl\version_6.1.2\lvgl\src\lv_objx/lv_cont.h **** 
  63:..\..\..\lvgl\version_6.1.2\lvgl\src\lv_objx/lv_cont.h **** typedef struct
  64:..\..\..\lvgl\version_6.1.2\lvgl\src\lv_objx/lv_cont.h **** {
  65:..\..\..\lvgl\version_6.1.2\lvgl\src\lv_objx/lv_cont.h ****     /*Inherited from 'base_obj' so no inherited ext. */ /*Ext. of ancestor*/
  66:..\..\..\lvgl\version_6.1.2\lvgl\src\lv_objx/lv_cont.h ****     /*New data for this type */
  67:..\..\..\lvgl\version_6.1.2\lvgl\src\lv_objx/lv_cont.h ****     uint8_t layout : 4;     /*A layout from 'lv_layout_t' enum*/
  68:..\..\..\lvgl\version_6.1.2\lvgl\src\lv_objx/lv_cont.h ****     uint8_t fit_left : 2;   /*A fit type from `lv_fit_t` enum */
  69:..\..\..\lvgl\version_6.1.2\lvgl\src\lv_objx/lv_cont.h ****     uint8_t fit_right : 2;  /*A fit type from `lv_fit_t` enum */
  70:..\..\..\lvgl\version_6.1.2\lvgl\src\lv_objx/lv_cont.h ****     uint8_t fit_top : 2;    /*A fit type from `lv_fit_t` enum */
  71:..\..\..\lvgl\version_6.1.2\lvgl\src\lv_objx/lv_cont.h ****     uint8_t fit_bottom : 2; /*A fit type from `lv_fit_t` enum */
ARM GAS  C:\Users\tmj32\AppData\Local\Temp\ccSNdAsc.s 			page 8


  72:..\..\..\lvgl\version_6.1.2\lvgl\src\lv_objx/lv_cont.h **** } lv_cont_ext_t;
  73:..\..\..\lvgl\version_6.1.2\lvgl\src\lv_objx/lv_cont.h **** 
  74:..\..\..\lvgl\version_6.1.2\lvgl\src\lv_objx/lv_cont.h **** /*Styles*/
  75:..\..\..\lvgl\version_6.1.2\lvgl\src\lv_objx/lv_cont.h **** enum {
  76:..\..\..\lvgl\version_6.1.2\lvgl\src\lv_objx/lv_cont.h ****     LV_CONT_STYLE_MAIN,
  77:..\..\..\lvgl\version_6.1.2\lvgl\src\lv_objx/lv_cont.h **** };
  78:..\..\..\lvgl\version_6.1.2\lvgl\src\lv_objx/lv_cont.h **** typedef uint8_t lv_cont_style_t;
  79:..\..\..\lvgl\version_6.1.2\lvgl\src\lv_objx/lv_cont.h **** 
  80:..\..\..\lvgl\version_6.1.2\lvgl\src\lv_objx/lv_cont.h **** /**********************
  81:..\..\..\lvgl\version_6.1.2\lvgl\src\lv_objx/lv_cont.h ****  * GLOBAL PROTOTYPES
  82:..\..\..\lvgl\version_6.1.2\lvgl\src\lv_objx/lv_cont.h ****  **********************/
  83:..\..\..\lvgl\version_6.1.2\lvgl\src\lv_objx/lv_cont.h **** 
  84:..\..\..\lvgl\version_6.1.2\lvgl\src\lv_objx/lv_cont.h **** /**
  85:..\..\..\lvgl\version_6.1.2\lvgl\src\lv_objx/lv_cont.h ****  * Create a container objects
  86:..\..\..\lvgl\version_6.1.2\lvgl\src\lv_objx/lv_cont.h ****  * @param par pointer to an object, it will be the parent of the new container
  87:..\..\..\lvgl\version_6.1.2\lvgl\src\lv_objx/lv_cont.h ****  * @param copy pointer to a container object, if not NULL then the new object will be copied from i
  88:..\..\..\lvgl\version_6.1.2\lvgl\src\lv_objx/lv_cont.h ****  * @return pointer to the created container
  89:..\..\..\lvgl\version_6.1.2\lvgl\src\lv_objx/lv_cont.h ****  */
  90:..\..\..\lvgl\version_6.1.2\lvgl\src\lv_objx/lv_cont.h **** lv_obj_t * lv_cont_create(lv_obj_t * par, const lv_obj_t * copy);
  91:..\..\..\lvgl\version_6.1.2\lvgl\src\lv_objx/lv_cont.h **** 
  92:..\..\..\lvgl\version_6.1.2\lvgl\src\lv_objx/lv_cont.h **** /*=====================
  93:..\..\..\lvgl\version_6.1.2\lvgl\src\lv_objx/lv_cont.h ****  * Setter functions
  94:..\..\..\lvgl\version_6.1.2\lvgl\src\lv_objx/lv_cont.h ****  *====================*/
  95:..\..\..\lvgl\version_6.1.2\lvgl\src\lv_objx/lv_cont.h **** 
  96:..\..\..\lvgl\version_6.1.2\lvgl\src\lv_objx/lv_cont.h **** /**
  97:..\..\..\lvgl\version_6.1.2\lvgl\src\lv_objx/lv_cont.h ****  * Set a layout on a container
  98:..\..\..\lvgl\version_6.1.2\lvgl\src\lv_objx/lv_cont.h ****  * @param cont pointer to a container object
  99:..\..\..\lvgl\version_6.1.2\lvgl\src\lv_objx/lv_cont.h ****  * @param layout a layout from 'lv_cont_layout_t'
 100:..\..\..\lvgl\version_6.1.2\lvgl\src\lv_objx/lv_cont.h ****  */
 101:..\..\..\lvgl\version_6.1.2\lvgl\src\lv_objx/lv_cont.h **** void lv_cont_set_layout(lv_obj_t * cont, lv_layout_t layout);
 102:..\..\..\lvgl\version_6.1.2\lvgl\src\lv_objx/lv_cont.h **** 
 103:..\..\..\lvgl\version_6.1.2\lvgl\src\lv_objx/lv_cont.h **** /**
 104:..\..\..\lvgl\version_6.1.2\lvgl\src\lv_objx/lv_cont.h ****  * Set the fit policy in all 4 directions separately.
 105:..\..\..\lvgl\version_6.1.2\lvgl\src\lv_objx/lv_cont.h ****  * It tell how to change the container's size automatically.
 106:..\..\..\lvgl\version_6.1.2\lvgl\src\lv_objx/lv_cont.h ****  * @param cont pointer to a container object
 107:..\..\..\lvgl\version_6.1.2\lvgl\src\lv_objx/lv_cont.h ****  * @param left left fit policy from `lv_fit_t`
 108:..\..\..\lvgl\version_6.1.2\lvgl\src\lv_objx/lv_cont.h ****  * @param right right fit policy from `lv_fit_t`
 109:..\..\..\lvgl\version_6.1.2\lvgl\src\lv_objx/lv_cont.h ****  * @param top top fit policy from `lv_fit_t`
 110:..\..\..\lvgl\version_6.1.2\lvgl\src\lv_objx/lv_cont.h ****  * @param bottom bottom fit policy from `lv_fit_t`
 111:..\..\..\lvgl\version_6.1.2\lvgl\src\lv_objx/lv_cont.h ****  */
 112:..\..\..\lvgl\version_6.1.2\lvgl\src\lv_objx/lv_cont.h **** void lv_cont_set_fit4(lv_obj_t * cont, lv_fit_t left, lv_fit_t right, lv_fit_t top, lv_fit_t bottom
 113:..\..\..\lvgl\version_6.1.2\lvgl\src\lv_objx/lv_cont.h **** 
 114:..\..\..\lvgl\version_6.1.2\lvgl\src\lv_objx/lv_cont.h **** /**
 115:..\..\..\lvgl\version_6.1.2\lvgl\src\lv_objx/lv_cont.h ****  * Set the fit policy horizontally and vertically separately.
 116:..\..\..\lvgl\version_6.1.2\lvgl\src\lv_objx/lv_cont.h ****  * It tells how to change the container's size automatically.
 117:..\..\..\lvgl\version_6.1.2\lvgl\src\lv_objx/lv_cont.h ****  * @param cont pointer to a container object
 118:..\..\..\lvgl\version_6.1.2\lvgl\src\lv_objx/lv_cont.h ****  * @param hor horizontal fit policy from `lv_fit_t`
 119:..\..\..\lvgl\version_6.1.2\lvgl\src\lv_objx/lv_cont.h ****  * @param ver vertical fit policy from `lv_fit_t`
 120:..\..\..\lvgl\version_6.1.2\lvgl\src\lv_objx/lv_cont.h ****  */
 121:..\..\..\lvgl\version_6.1.2\lvgl\src\lv_objx/lv_cont.h **** static inline void lv_cont_set_fit2(lv_obj_t * cont, lv_fit_t hor, lv_fit_t ver)
 122:..\..\..\lvgl\version_6.1.2\lvgl\src\lv_objx/lv_cont.h **** {
 113              		.loc 3 122 0
 114              		.cfi_startproc
 115              		@ args = 0, pretend = 0, frame = 8
 116              		@ frame_needed = 1, uses_anonymous_args = 0
 117 0000 80B5     		push	{r7, lr}
 118              		.cfi_def_cfa_offset 8
ARM GAS  C:\Users\tmj32\AppData\Local\Temp\ccSNdAsc.s 			page 9


 119              		.cfi_offset 7, -8
 120              		.cfi_offset 14, -4
 121 0002 84B0     		sub	sp, sp, #16
 122              		.cfi_def_cfa_offset 24
 123 0004 02AF     		add	r7, sp, #8
 124              		.cfi_def_cfa 7, 16
 125 0006 7860     		str	r0, [r7, #4]
 126 0008 0B46     		mov	r3, r1
 127 000a FB70     		strb	r3, [r7, #3]
 128 000c 1346     		mov	r3, r2
 129 000e BB70     		strb	r3, [r7, #2]
 123:..\..\..\lvgl\version_6.1.2\lvgl\src\lv_objx/lv_cont.h ****     lv_cont_set_fit4(cont, hor, hor, ver, ver);
 130              		.loc 3 123 0
 131 0010 B878     		ldrb	r0, [r7, #2]	@ zero_extendqisi2
 132 0012 FA78     		ldrb	r2, [r7, #3]	@ zero_extendqisi2
 133 0014 F978     		ldrb	r1, [r7, #3]	@ zero_extendqisi2
 134 0016 BB78     		ldrb	r3, [r7, #2]	@ zero_extendqisi2
 135 0018 0093     		str	r3, [sp]
 136 001a 0346     		mov	r3, r0
 137 001c 7868     		ldr	r0, [r7, #4]
 138 001e FFF7FEFF 		bl	lv_cont_set_fit4
 124:..\..\..\lvgl\version_6.1.2\lvgl\src\lv_objx/lv_cont.h **** }
 139              		.loc 3 124 0
 140 0022 00BF     		nop
 141 0024 0837     		adds	r7, r7, #8
 142              		.cfi_def_cfa_offset 8
 143 0026 BD46     		mov	sp, r7
 144              		.cfi_def_cfa_register 13
 145              		@ sp needed
 146 0028 80BD     		pop	{r7, pc}
 147              		.cfi_endproc
 148              	.LFE31:
 149              		.size	lv_cont_set_fit2, .-lv_cont_set_fit2
 150 002a 00BF     		.section	.text.lv_cont_set_fit,"ax",%progbits
 151              		.align	2
 152              		.thumb
 153              		.thumb_func
 154              		.type	lv_cont_set_fit, %function
 155              	lv_cont_set_fit:
 156              	.LFB32:
 125:..\..\..\lvgl\version_6.1.2\lvgl\src\lv_objx/lv_cont.h **** 
 126:..\..\..\lvgl\version_6.1.2\lvgl\src\lv_objx/lv_cont.h **** /**
 127:..\..\..\lvgl\version_6.1.2\lvgl\src\lv_objx/lv_cont.h ****  * Set the fit policy in all 4 direction at once.
 128:..\..\..\lvgl\version_6.1.2\lvgl\src\lv_objx/lv_cont.h ****  * It tells how to change the container's size automatically.
 129:..\..\..\lvgl\version_6.1.2\lvgl\src\lv_objx/lv_cont.h ****  * @param cont pointer to a container object
 130:..\..\..\lvgl\version_6.1.2\lvgl\src\lv_objx/lv_cont.h ****  * @param fit fit policy from `lv_fit_t`
 131:..\..\..\lvgl\version_6.1.2\lvgl\src\lv_objx/lv_cont.h ****  */
 132:..\..\..\lvgl\version_6.1.2\lvgl\src\lv_objx/lv_cont.h **** static inline void lv_cont_set_fit(lv_obj_t * cont, lv_fit_t fit)
 133:..\..\..\lvgl\version_6.1.2\lvgl\src\lv_objx/lv_cont.h **** {
 157              		.loc 3 133 0
 158              		.cfi_startproc
 159              		@ args = 0, pretend = 0, frame = 8
 160              		@ frame_needed = 1, uses_anonymous_args = 0
 161 0000 80B5     		push	{r7, lr}
 162              		.cfi_def_cfa_offset 8
 163              		.cfi_offset 7, -8
 164              		.cfi_offset 14, -4
ARM GAS  C:\Users\tmj32\AppData\Local\Temp\ccSNdAsc.s 			page 10


 165 0002 84B0     		sub	sp, sp, #16
 166              		.cfi_def_cfa_offset 24
 167 0004 02AF     		add	r7, sp, #8
 168              		.cfi_def_cfa 7, 16
 169 0006 7860     		str	r0, [r7, #4]
 170 0008 0B46     		mov	r3, r1
 171 000a FB70     		strb	r3, [r7, #3]
 134:..\..\..\lvgl\version_6.1.2\lvgl\src\lv_objx/lv_cont.h ****     lv_cont_set_fit4(cont, fit, fit, fit, fit);
 172              		.loc 3 134 0
 173 000c F878     		ldrb	r0, [r7, #3]	@ zero_extendqisi2
 174 000e FA78     		ldrb	r2, [r7, #3]	@ zero_extendqisi2
 175 0010 F978     		ldrb	r1, [r7, #3]	@ zero_extendqisi2
 176 0012 FB78     		ldrb	r3, [r7, #3]	@ zero_extendqisi2
 177 0014 0093     		str	r3, [sp]
 178 0016 0346     		mov	r3, r0
 179 0018 7868     		ldr	r0, [r7, #4]
 180 001a FFF7FEFF 		bl	lv_cont_set_fit4
 135:..\..\..\lvgl\version_6.1.2\lvgl\src\lv_objx/lv_cont.h **** }
 181              		.loc 3 135 0
 182 001e 00BF     		nop
 183 0020 0837     		adds	r7, r7, #8
 184              		.cfi_def_cfa_offset 8
 185 0022 BD46     		mov	sp, r7
 186              		.cfi_def_cfa_register 13
 187              		@ sp needed
 188 0024 80BD     		pop	{r7, pc}
 189              		.cfi_endproc
 190              	.LFE32:
 191              		.size	lv_cont_set_fit, .-lv_cont_set_fit
 192 0026 00BF     		.bss
 193              		.align	2
 194              	ancestor_signal:
 195 0000 00000000 		.space	4
 196              		.section	.rodata
 197              		.align	2
 198              	.LC0:
 199 0000 4D657373 		.ascii	"Message\000"
 199      61676500 
 200              		.section	.text.lv_mbox_create,"ax",%progbits
 201              		.align	2
 202              		.global	lv_mbox_create
 203              		.thumb
 204              		.thumb_func
 205              		.type	lv_mbox_create, %function
 206              	lv_mbox_create:
 207              	.LFB46:
 208              		.file 4 "..\\..\\..\\lvgl\\version_6.1.2\\lvgl\\src\\lv_objx\\lv_mbox.c"
   1:..\..\..\lvgl\version_6.1.2\lvgl\src\lv_objx/lv_mbox.c **** /**
   2:..\..\..\lvgl\version_6.1.2\lvgl\src\lv_objx/lv_mbox.c ****  * @file lv_mbox.c
   3:..\..\..\lvgl\version_6.1.2\lvgl\src\lv_objx/lv_mbox.c ****  *
   4:..\..\..\lvgl\version_6.1.2\lvgl\src\lv_objx/lv_mbox.c ****  */
   5:..\..\..\lvgl\version_6.1.2\lvgl\src\lv_objx/lv_mbox.c **** 
   6:..\..\..\lvgl\version_6.1.2\lvgl\src\lv_objx/lv_mbox.c **** /*********************
   7:..\..\..\lvgl\version_6.1.2\lvgl\src\lv_objx/lv_mbox.c ****  *      INCLUDES
   8:..\..\..\lvgl\version_6.1.2\lvgl\src\lv_objx/lv_mbox.c ****  *********************/
   9:..\..\..\lvgl\version_6.1.2\lvgl\src\lv_objx/lv_mbox.c **** #include "lv_mbox.h"
  10:..\..\..\lvgl\version_6.1.2\lvgl\src\lv_objx/lv_mbox.c **** #if LV_USE_MBOX != 0
ARM GAS  C:\Users\tmj32\AppData\Local\Temp\ccSNdAsc.s 			page 11


  11:..\..\..\lvgl\version_6.1.2\lvgl\src\lv_objx/lv_mbox.c **** 
  12:..\..\..\lvgl\version_6.1.2\lvgl\src\lv_objx/lv_mbox.c **** #include "../lv_core/lv_debug.h"
  13:..\..\..\lvgl\version_6.1.2\lvgl\src\lv_objx/lv_mbox.c **** #include "../lv_core/lv_group.h"
  14:..\..\..\lvgl\version_6.1.2\lvgl\src\lv_objx/lv_mbox.c **** #include "../lv_themes/lv_theme.h"
  15:..\..\..\lvgl\version_6.1.2\lvgl\src\lv_objx/lv_mbox.c **** #include "../lv_misc/lv_anim.h"
  16:..\..\..\lvgl\version_6.1.2\lvgl\src\lv_objx/lv_mbox.c **** #include "../lv_misc/lv_math.h"
  17:..\..\..\lvgl\version_6.1.2\lvgl\src\lv_objx/lv_mbox.c **** 
  18:..\..\..\lvgl\version_6.1.2\lvgl\src\lv_objx/lv_mbox.c **** /*********************
  19:..\..\..\lvgl\version_6.1.2\lvgl\src\lv_objx/lv_mbox.c ****  *      DEFINES
  20:..\..\..\lvgl\version_6.1.2\lvgl\src\lv_objx/lv_mbox.c ****  *********************/
  21:..\..\..\lvgl\version_6.1.2\lvgl\src\lv_objx/lv_mbox.c **** #define LV_OBJX_NAME "lv_mbos"
  22:..\..\..\lvgl\version_6.1.2\lvgl\src\lv_objx/lv_mbox.c **** 
  23:..\..\..\lvgl\version_6.1.2\lvgl\src\lv_objx/lv_mbox.c **** #if LV_USE_ANIMATION
  24:..\..\..\lvgl\version_6.1.2\lvgl\src\lv_objx/lv_mbox.c **** #ifndef LV_MBOX_CLOSE_ANIM_TIME
  25:..\..\..\lvgl\version_6.1.2\lvgl\src\lv_objx/lv_mbox.c **** #define LV_MBOX_CLOSE_ANIM_TIME 200 /*List close animation time)  */
  26:..\..\..\lvgl\version_6.1.2\lvgl\src\lv_objx/lv_mbox.c **** #endif
  27:..\..\..\lvgl\version_6.1.2\lvgl\src\lv_objx/lv_mbox.c **** #else
  28:..\..\..\lvgl\version_6.1.2\lvgl\src\lv_objx/lv_mbox.c **** #undef LV_MBOX_CLOSE_ANIM_TIME
  29:..\..\..\lvgl\version_6.1.2\lvgl\src\lv_objx/lv_mbox.c **** #define LV_MBOX_CLOSE_ANIM_TIME 0 /*No animations*/
  30:..\..\..\lvgl\version_6.1.2\lvgl\src\lv_objx/lv_mbox.c **** #endif
  31:..\..\..\lvgl\version_6.1.2\lvgl\src\lv_objx/lv_mbox.c **** 
  32:..\..\..\lvgl\version_6.1.2\lvgl\src\lv_objx/lv_mbox.c **** /**********************
  33:..\..\..\lvgl\version_6.1.2\lvgl\src\lv_objx/lv_mbox.c ****  *      TYPEDEFS
  34:..\..\..\lvgl\version_6.1.2\lvgl\src\lv_objx/lv_mbox.c ****  **********************/
  35:..\..\..\lvgl\version_6.1.2\lvgl\src\lv_objx/lv_mbox.c **** 
  36:..\..\..\lvgl\version_6.1.2\lvgl\src\lv_objx/lv_mbox.c **** /**********************
  37:..\..\..\lvgl\version_6.1.2\lvgl\src\lv_objx/lv_mbox.c ****  *  STATIC PROTOTYPES
  38:..\..\..\lvgl\version_6.1.2\lvgl\src\lv_objx/lv_mbox.c ****  **********************/
  39:..\..\..\lvgl\version_6.1.2\lvgl\src\lv_objx/lv_mbox.c **** static lv_res_t lv_mbox_signal(lv_obj_t * mbox, lv_signal_t sign, void * param);
  40:..\..\..\lvgl\version_6.1.2\lvgl\src\lv_objx/lv_mbox.c **** static void mbox_realign(lv_obj_t * mbox);
  41:..\..\..\lvgl\version_6.1.2\lvgl\src\lv_objx/lv_mbox.c **** #if LV_USE_ANIMATION
  42:..\..\..\lvgl\version_6.1.2\lvgl\src\lv_objx/lv_mbox.c **** static void lv_mbox_close_ready_cb(lv_anim_t * a);
  43:..\..\..\lvgl\version_6.1.2\lvgl\src\lv_objx/lv_mbox.c **** #endif
  44:..\..\..\lvgl\version_6.1.2\lvgl\src\lv_objx/lv_mbox.c **** static void lv_mbox_default_event_cb(lv_obj_t * mbox, lv_event_t event);
  45:..\..\..\lvgl\version_6.1.2\lvgl\src\lv_objx/lv_mbox.c **** static void lv_mbox_btnm_event_cb(lv_obj_t * btnm, lv_event_t event);
  46:..\..\..\lvgl\version_6.1.2\lvgl\src\lv_objx/lv_mbox.c **** 
  47:..\..\..\lvgl\version_6.1.2\lvgl\src\lv_objx/lv_mbox.c **** /**********************
  48:..\..\..\lvgl\version_6.1.2\lvgl\src\lv_objx/lv_mbox.c ****  *  STATIC VARIABLES
  49:..\..\..\lvgl\version_6.1.2\lvgl\src\lv_objx/lv_mbox.c ****  **********************/
  50:..\..\..\lvgl\version_6.1.2\lvgl\src\lv_objx/lv_mbox.c **** static lv_signal_cb_t ancestor_signal;
  51:..\..\..\lvgl\version_6.1.2\lvgl\src\lv_objx/lv_mbox.c **** 
  52:..\..\..\lvgl\version_6.1.2\lvgl\src\lv_objx/lv_mbox.c **** /**********************
  53:..\..\..\lvgl\version_6.1.2\lvgl\src\lv_objx/lv_mbox.c ****  *      MACROS
  54:..\..\..\lvgl\version_6.1.2\lvgl\src\lv_objx/lv_mbox.c ****  **********************/
  55:..\..\..\lvgl\version_6.1.2\lvgl\src\lv_objx/lv_mbox.c **** 
  56:..\..\..\lvgl\version_6.1.2\lvgl\src\lv_objx/lv_mbox.c **** /**********************
  57:..\..\..\lvgl\version_6.1.2\lvgl\src\lv_objx/lv_mbox.c ****  *   GLOBAL FUNCTIONS
  58:..\..\..\lvgl\version_6.1.2\lvgl\src\lv_objx/lv_mbox.c ****  **********************/
  59:..\..\..\lvgl\version_6.1.2\lvgl\src\lv_objx/lv_mbox.c **** 
  60:..\..\..\lvgl\version_6.1.2\lvgl\src\lv_objx/lv_mbox.c **** /**
  61:..\..\..\lvgl\version_6.1.2\lvgl\src\lv_objx/lv_mbox.c ****  * Create a message box objects
  62:..\..\..\lvgl\version_6.1.2\lvgl\src\lv_objx/lv_mbox.c ****  * @param par pointer to an object, it will be the parent of the new message box
  63:..\..\..\lvgl\version_6.1.2\lvgl\src\lv_objx/lv_mbox.c ****  * @param copy pointer to a message box object, if not NULL then the new object will be copied from
  64:..\..\..\lvgl\version_6.1.2\lvgl\src\lv_objx/lv_mbox.c ****  * it
  65:..\..\..\lvgl\version_6.1.2\lvgl\src\lv_objx/lv_mbox.c ****  * @return pointer to the created message box
  66:..\..\..\lvgl\version_6.1.2\lvgl\src\lv_objx/lv_mbox.c ****  */
  67:..\..\..\lvgl\version_6.1.2\lvgl\src\lv_objx/lv_mbox.c **** lv_obj_t * lv_mbox_create(lv_obj_t * par, const lv_obj_t * copy)
ARM GAS  C:\Users\tmj32\AppData\Local\Temp\ccSNdAsc.s 			page 12


  68:..\..\..\lvgl\version_6.1.2\lvgl\src\lv_objx/lv_mbox.c **** {
 209              		.loc 4 68 0
 210              		.cfi_startproc
 211              		@ args = 0, pretend = 0, frame = 24
 212              		@ frame_needed = 1, uses_anonymous_args = 0
 213 0000 80B5     		push	{r7, lr}
 214              		.cfi_def_cfa_offset 8
 215              		.cfi_offset 7, -8
 216              		.cfi_offset 14, -4
 217 0002 88B0     		sub	sp, sp, #32
 218              		.cfi_def_cfa_offset 40
 219 0004 02AF     		add	r7, sp, #8
 220              		.cfi_def_cfa 7, 32
 221 0006 7860     		str	r0, [r7, #4]
 222 0008 3960     		str	r1, [r7]
  69:..\..\..\lvgl\version_6.1.2\lvgl\src\lv_objx/lv_mbox.c ****     LV_LOG_TRACE("mesasge box create started");
  70:..\..\..\lvgl\version_6.1.2\lvgl\src\lv_objx/lv_mbox.c **** 
  71:..\..\..\lvgl\version_6.1.2\lvgl\src\lv_objx/lv_mbox.c ****     /*Create the ancestor message box*/
  72:..\..\..\lvgl\version_6.1.2\lvgl\src\lv_objx/lv_mbox.c ****     lv_obj_t * new_mbox = lv_cont_create(par, copy);
 223              		.loc 4 72 0
 224 000a 3968     		ldr	r1, [r7]
 225 000c 7868     		ldr	r0, [r7, #4]
 226 000e FFF7FEFF 		bl	lv_cont_create
 227 0012 7861     		str	r0, [r7, #20]
  73:..\..\..\lvgl\version_6.1.2\lvgl\src\lv_objx/lv_mbox.c ****     LV_ASSERT_MEM(new_mbox);
  74:..\..\..\lvgl\version_6.1.2\lvgl\src\lv_objx/lv_mbox.c ****     if(new_mbox == NULL) return NULL;
 228              		.loc 4 74 0
 229 0014 7B69     		ldr	r3, [r7, #20]
 230 0016 002B     		cmp	r3, #0
 231 0018 01D1     		bne	.L8
 232              		.loc 4 74 0 is_stmt 0 discriminator 1
 233 001a 0023     		movs	r3, #0
 234 001c 89E0     		b	.L9
 235              	.L8:
  75:..\..\..\lvgl\version_6.1.2\lvgl\src\lv_objx/lv_mbox.c **** 
  76:..\..\..\lvgl\version_6.1.2\lvgl\src\lv_objx/lv_mbox.c ****     if(ancestor_signal == NULL) ancestor_signal = lv_obj_get_signal_cb(new_mbox);
 236              		.loc 4 76 0 is_stmt 1
 237 001e 474B     		ldr	r3, .L17
 238 0020 1B68     		ldr	r3, [r3]
 239 0022 002B     		cmp	r3, #0
 240 0024 05D1     		bne	.L10
 241              		.loc 4 76 0 is_stmt 0 discriminator 1
 242 0026 7869     		ldr	r0, [r7, #20]
 243 0028 FFF7FEFF 		bl	lv_obj_get_signal_cb
 244 002c 0246     		mov	r2, r0
 245 002e 434B     		ldr	r3, .L17
 246 0030 1A60     		str	r2, [r3]
 247              	.L10:
  77:..\..\..\lvgl\version_6.1.2\lvgl\src\lv_objx/lv_mbox.c **** 
  78:..\..\..\lvgl\version_6.1.2\lvgl\src\lv_objx/lv_mbox.c ****     /*Allocate the message box type specific extended data*/
  79:..\..\..\lvgl\version_6.1.2\lvgl\src\lv_objx/lv_mbox.c ****     lv_mbox_ext_t * ext = lv_obj_allocate_ext_attr(new_mbox, sizeof(lv_mbox_ext_t));
 248              		.loc 4 79 0 is_stmt 1
 249 0032 1021     		movs	r1, #16
 250 0034 7869     		ldr	r0, [r7, #20]
 251 0036 FFF7FEFF 		bl	lv_obj_allocate_ext_attr
 252 003a 3861     		str	r0, [r7, #16]
  80:..\..\..\lvgl\version_6.1.2\lvgl\src\lv_objx/lv_mbox.c ****     LV_ASSERT_MEM(ext);
ARM GAS  C:\Users\tmj32\AppData\Local\Temp\ccSNdAsc.s 			page 13


  81:..\..\..\lvgl\version_6.1.2\lvgl\src\lv_objx/lv_mbox.c ****     if(ext == NULL) return NULL;
 253              		.loc 4 81 0
 254 003c 3B69     		ldr	r3, [r7, #16]
 255 003e 002B     		cmp	r3, #0
 256 0040 01D1     		bne	.L11
 257              		.loc 4 81 0 is_stmt 0 discriminator 1
 258 0042 0023     		movs	r3, #0
 259 0044 75E0     		b	.L9
 260              	.L11:
  82:..\..\..\lvgl\version_6.1.2\lvgl\src\lv_objx/lv_mbox.c **** 
  83:..\..\..\lvgl\version_6.1.2\lvgl\src\lv_objx/lv_mbox.c ****     ext->text = NULL;
 261              		.loc 4 83 0 is_stmt 1
 262 0046 3B69     		ldr	r3, [r7, #16]
 263 0048 0022     		movs	r2, #0
 264 004a 5A60     		str	r2, [r3, #4]
  84:..\..\..\lvgl\version_6.1.2\lvgl\src\lv_objx/lv_mbox.c ****     ext->btnm = NULL;
 265              		.loc 4 84 0
 266 004c 3B69     		ldr	r3, [r7, #16]
 267 004e 0022     		movs	r2, #0
 268 0050 9A60     		str	r2, [r3, #8]
  85:..\..\..\lvgl\version_6.1.2\lvgl\src\lv_objx/lv_mbox.c **** #if LV_USE_ANIMATION
  86:..\..\..\lvgl\version_6.1.2\lvgl\src\lv_objx/lv_mbox.c ****     ext->anim_time = LV_MBOX_CLOSE_ANIM_TIME;
 269              		.loc 4 86 0
 270 0052 3B69     		ldr	r3, [r7, #16]
 271 0054 C822     		movs	r2, #200
 272 0056 9A81     		strh	r2, [r3, #12]	@ movhi
  87:..\..\..\lvgl\version_6.1.2\lvgl\src\lv_objx/lv_mbox.c **** #endif
  88:..\..\..\lvgl\version_6.1.2\lvgl\src\lv_objx/lv_mbox.c **** 
  89:..\..\..\lvgl\version_6.1.2\lvgl\src\lv_objx/lv_mbox.c ****     /*The signal and design functions are not copied so set them here*/
  90:..\..\..\lvgl\version_6.1.2\lvgl\src\lv_objx/lv_mbox.c ****     lv_obj_set_signal_cb(new_mbox, lv_mbox_signal);
 273              		.loc 4 90 0
 274 0058 3949     		ldr	r1, .L17+4
 275 005a 7869     		ldr	r0, [r7, #20]
 276 005c FFF7FEFF 		bl	lv_obj_set_signal_cb
  91:..\..\..\lvgl\version_6.1.2\lvgl\src\lv_objx/lv_mbox.c **** 
  92:..\..\..\lvgl\version_6.1.2\lvgl\src\lv_objx/lv_mbox.c ****     /*Init the new message box message box*/
  93:..\..\..\lvgl\version_6.1.2\lvgl\src\lv_objx/lv_mbox.c ****     if(copy == NULL) {
 277              		.loc 4 93 0
 278 0060 3B68     		ldr	r3, [r7]
 279 0062 002B     		cmp	r3, #0
 280 0064 47D1     		bne	.L12
 281              	.LBB2:
  94:..\..\..\lvgl\version_6.1.2\lvgl\src\lv_objx/lv_mbox.c ****         ext->text = lv_label_create(new_mbox, NULL);
 282              		.loc 4 94 0
 283 0066 0021     		movs	r1, #0
 284 0068 7869     		ldr	r0, [r7, #20]
 285 006a FFF7FEFF 		bl	lv_label_create
 286 006e 0246     		mov	r2, r0
 287 0070 3B69     		ldr	r3, [r7, #16]
 288 0072 5A60     		str	r2, [r3, #4]
  95:..\..\..\lvgl\version_6.1.2\lvgl\src\lv_objx/lv_mbox.c ****         lv_label_set_align(ext->text, LV_LABEL_ALIGN_CENTER);
 289              		.loc 4 95 0
 290 0074 3B69     		ldr	r3, [r7, #16]
 291 0076 5B68     		ldr	r3, [r3, #4]
 292 0078 0121     		movs	r1, #1
 293 007a 1846     		mov	r0, r3
 294 007c FFF7FEFF 		bl	lv_label_set_align
ARM GAS  C:\Users\tmj32\AppData\Local\Temp\ccSNdAsc.s 			page 14


  96:..\..\..\lvgl\version_6.1.2\lvgl\src\lv_objx/lv_mbox.c ****         lv_label_set_long_mode(ext->text, LV_LABEL_LONG_BREAK);
 295              		.loc 4 96 0
 296 0080 3B69     		ldr	r3, [r7, #16]
 297 0082 5B68     		ldr	r3, [r3, #4]
 298 0084 0121     		movs	r1, #1
 299 0086 1846     		mov	r0, r3
 300 0088 FFF7FEFF 		bl	lv_label_set_long_mode
  97:..\..\..\lvgl\version_6.1.2\lvgl\src\lv_objx/lv_mbox.c ****         lv_label_set_text(ext->text, "Message");
 301              		.loc 4 97 0
 302 008c 3B69     		ldr	r3, [r7, #16]
 303 008e 5B68     		ldr	r3, [r3, #4]
 304 0090 2C49     		ldr	r1, .L17+8
 305 0092 1846     		mov	r0, r3
 306 0094 FFF7FEFF 		bl	lv_label_set_text
  98:..\..\..\lvgl\version_6.1.2\lvgl\src\lv_objx/lv_mbox.c **** 
  99:..\..\..\lvgl\version_6.1.2\lvgl\src\lv_objx/lv_mbox.c ****         lv_cont_set_layout(new_mbox, LV_LAYOUT_COL_M);
 307              		.loc 4 99 0
 308 0098 0321     		movs	r1, #3
 309 009a 7869     		ldr	r0, [r7, #20]
 310 009c FFF7FEFF 		bl	lv_cont_set_layout
 100:..\..\..\lvgl\version_6.1.2\lvgl\src\lv_objx/lv_mbox.c ****         lv_cont_set_fit2(new_mbox, LV_FIT_NONE, LV_FIT_TIGHT);
 311              		.loc 4 100 0
 312 00a0 0122     		movs	r2, #1
 313 00a2 0021     		movs	r1, #0
 314 00a4 7869     		ldr	r0, [r7, #20]
 315 00a6 FFF7FEFF 		bl	lv_cont_set_fit2
 101:..\..\..\lvgl\version_6.1.2\lvgl\src\lv_objx/lv_mbox.c ****         lv_obj_set_width(new_mbox, LV_DPI * 2);
 316              		.loc 4 101 0
 317 00aa 4FF49671 		mov	r1, #300
 318 00ae 7869     		ldr	r0, [r7, #20]
 319 00b0 FFF7FEFF 		bl	lv_obj_set_width
 102:..\..\..\lvgl\version_6.1.2\lvgl\src\lv_objx/lv_mbox.c ****         lv_obj_align(new_mbox, NULL, LV_ALIGN_CENTER, 0, 0);
 320              		.loc 4 102 0
 321 00b4 0023     		movs	r3, #0
 322 00b6 0093     		str	r3, [sp]
 323 00b8 0023     		movs	r3, #0
 324 00ba 0022     		movs	r2, #0
 325 00bc 0021     		movs	r1, #0
 326 00be 7869     		ldr	r0, [r7, #20]
 327 00c0 FFF7FEFF 		bl	lv_obj_align
 103:..\..\..\lvgl\version_6.1.2\lvgl\src\lv_objx/lv_mbox.c ****         lv_obj_set_event_cb(new_mbox, lv_mbox_default_event_cb);
 328              		.loc 4 103 0
 329 00c4 2049     		ldr	r1, .L17+12
 330 00c6 7869     		ldr	r0, [r7, #20]
 331 00c8 FFF7FEFF 		bl	lv_obj_set_event_cb
 104:..\..\..\lvgl\version_6.1.2\lvgl\src\lv_objx/lv_mbox.c **** 
 105:..\..\..\lvgl\version_6.1.2\lvgl\src\lv_objx/lv_mbox.c ****         /*Set the default styles*/
 106:..\..\..\lvgl\version_6.1.2\lvgl\src\lv_objx/lv_mbox.c ****         lv_theme_t * th = lv_theme_get_current();
 332              		.loc 4 106 0
 333 00cc FFF7FEFF 		bl	lv_theme_get_current
 334 00d0 F860     		str	r0, [r7, #12]
 107:..\..\..\lvgl\version_6.1.2\lvgl\src\lv_objx/lv_mbox.c ****         if(th) {
 335              		.loc 4 107 0
 336 00d2 FB68     		ldr	r3, [r7, #12]
 337 00d4 002B     		cmp	r3, #0
 338 00d6 08D0     		beq	.L13
 108:..\..\..\lvgl\version_6.1.2\lvgl\src\lv_objx/lv_mbox.c ****             lv_mbox_set_style(new_mbox, LV_MBOX_STYLE_BG, th->style.mbox.bg);
ARM GAS  C:\Users\tmj32\AppData\Local\Temp\ccSNdAsc.s 			page 15


 339              		.loc 4 108 0
 340 00d8 FB68     		ldr	r3, [r7, #12]
 341 00da D3F8F430 		ldr	r3, [r3, #244]
 342 00de 1A46     		mov	r2, r3
 343 00e0 0021     		movs	r1, #0
 344 00e2 7869     		ldr	r0, [r7, #20]
 345 00e4 FFF7FEFF 		bl	lv_mbox_set_style
 346 00e8 22E0     		b	.L15
 347              	.L13:
 109:..\..\..\lvgl\version_6.1.2\lvgl\src\lv_objx/lv_mbox.c ****         } else {
 110:..\..\..\lvgl\version_6.1.2\lvgl\src\lv_objx/lv_mbox.c ****             lv_mbox_set_style(new_mbox, LV_MBOX_STYLE_BG, &lv_style_pretty);
 348              		.loc 4 110 0
 349 00ea 184A     		ldr	r2, .L17+16
 350 00ec 0021     		movs	r1, #0
 351 00ee 7869     		ldr	r0, [r7, #20]
 352 00f0 FFF7FEFF 		bl	lv_mbox_set_style
 353 00f4 1CE0     		b	.L15
 354              	.L12:
 355              	.LBE2:
 356              	.LBB3:
 111:..\..\..\lvgl\version_6.1.2\lvgl\src\lv_objx/lv_mbox.c ****         }
 112:..\..\..\lvgl\version_6.1.2\lvgl\src\lv_objx/lv_mbox.c **** 
 113:..\..\..\lvgl\version_6.1.2\lvgl\src\lv_objx/lv_mbox.c ****     }
 114:..\..\..\lvgl\version_6.1.2\lvgl\src\lv_objx/lv_mbox.c ****     /*Copy an existing message box*/
 115:..\..\..\lvgl\version_6.1.2\lvgl\src\lv_objx/lv_mbox.c ****     else {
 116:..\..\..\lvgl\version_6.1.2\lvgl\src\lv_objx/lv_mbox.c ****         lv_mbox_ext_t * copy_ext = lv_obj_get_ext_attr(copy);
 357              		.loc 4 116 0
 358 00f6 3868     		ldr	r0, [r7]
 359 00f8 FFF7FEFF 		bl	lv_obj_get_ext_attr
 360 00fc B860     		str	r0, [r7, #8]
 117:..\..\..\lvgl\version_6.1.2\lvgl\src\lv_objx/lv_mbox.c **** 
 118:..\..\..\lvgl\version_6.1.2\lvgl\src\lv_objx/lv_mbox.c ****         ext->text = lv_label_create(new_mbox, copy_ext->text);
 361              		.loc 4 118 0
 362 00fe BB68     		ldr	r3, [r7, #8]
 363 0100 5B68     		ldr	r3, [r3, #4]
 364 0102 1946     		mov	r1, r3
 365 0104 7869     		ldr	r0, [r7, #20]
 366 0106 FFF7FEFF 		bl	lv_label_create
 367 010a 0246     		mov	r2, r0
 368 010c 3B69     		ldr	r3, [r7, #16]
 369 010e 5A60     		str	r2, [r3, #4]
 119:..\..\..\lvgl\version_6.1.2\lvgl\src\lv_objx/lv_mbox.c **** 
 120:..\..\..\lvgl\version_6.1.2\lvgl\src\lv_objx/lv_mbox.c ****         /*Copy the buttons and the label on them*/
 121:..\..\..\lvgl\version_6.1.2\lvgl\src\lv_objx/lv_mbox.c ****         if(copy_ext->btnm) ext->btnm = lv_btnm_create(new_mbox, copy_ext->btnm);
 370              		.loc 4 121 0
 371 0110 BB68     		ldr	r3, [r7, #8]
 372 0112 9B68     		ldr	r3, [r3, #8]
 373 0114 002B     		cmp	r3, #0
 374 0116 08D0     		beq	.L16
 375              		.loc 4 121 0 is_stmt 0 discriminator 1
 376 0118 BB68     		ldr	r3, [r7, #8]
 377 011a 9B68     		ldr	r3, [r3, #8]
 378 011c 1946     		mov	r1, r3
 379 011e 7869     		ldr	r0, [r7, #20]
 380 0120 FFF7FEFF 		bl	lv_btnm_create
 381 0124 0246     		mov	r2, r0
 382 0126 3B69     		ldr	r3, [r7, #16]
ARM GAS  C:\Users\tmj32\AppData\Local\Temp\ccSNdAsc.s 			page 16


 383 0128 9A60     		str	r2, [r3, #8]
 384              	.L16:
 122:..\..\..\lvgl\version_6.1.2\lvgl\src\lv_objx/lv_mbox.c **** 
 123:..\..\..\lvgl\version_6.1.2\lvgl\src\lv_objx/lv_mbox.c ****         /*Refresh the style with new signal function*/
 124:..\..\..\lvgl\version_6.1.2\lvgl\src\lv_objx/lv_mbox.c ****         lv_obj_refresh_style(new_mbox);
 385              		.loc 4 124 0 is_stmt 1
 386 012a 7869     		ldr	r0, [r7, #20]
 387 012c FFF7FEFF 		bl	lv_obj_refresh_style
 388              	.L15:
 389              	.LBE3:
 125:..\..\..\lvgl\version_6.1.2\lvgl\src\lv_objx/lv_mbox.c ****     }
 126:..\..\..\lvgl\version_6.1.2\lvgl\src\lv_objx/lv_mbox.c **** 
 127:..\..\..\lvgl\version_6.1.2\lvgl\src\lv_objx/lv_mbox.c ****     LV_LOG_INFO("mesasge box created");
 128:..\..\..\lvgl\version_6.1.2\lvgl\src\lv_objx/lv_mbox.c **** 
 129:..\..\..\lvgl\version_6.1.2\lvgl\src\lv_objx/lv_mbox.c ****     return new_mbox;
 390              		.loc 4 129 0
 391 0130 7B69     		ldr	r3, [r7, #20]
 392              	.L9:
 130:..\..\..\lvgl\version_6.1.2\lvgl\src\lv_objx/lv_mbox.c **** }
 393              		.loc 4 130 0
 394 0132 1846     		mov	r0, r3
 395 0134 1837     		adds	r7, r7, #24
 396              		.cfi_def_cfa_offset 8
 397 0136 BD46     		mov	sp, r7
 398              		.cfi_def_cfa_register 13
 399              		@ sp needed
 400 0138 80BD     		pop	{r7, pc}
 401              	.L18:
 402 013a 00BF     		.align	2
 403              	.L17:
 404 013c 00000000 		.word	ancestor_signal
 405 0140 00000000 		.word	lv_mbox_signal
 406 0144 00000000 		.word	.LC0
 407 0148 00000000 		.word	lv_mbox_default_event_cb
 408 014c 00000000 		.word	lv_style_pretty
 409              		.cfi_endproc
 410              	.LFE46:
 411              		.size	lv_mbox_create, .-lv_mbox_create
 412              		.section	.text.lv_mbox_add_btns,"ax",%progbits
 413              		.align	2
 414              		.global	lv_mbox_add_btns
 415              		.thumb
 416              		.thumb_func
 417              		.type	lv_mbox_add_btns, %function
 418              	lv_mbox_add_btns:
 419              	.LFB47:
 131:..\..\..\lvgl\version_6.1.2\lvgl\src\lv_objx/lv_mbox.c **** 
 132:..\..\..\lvgl\version_6.1.2\lvgl\src\lv_objx/lv_mbox.c **** /*======================
 133:..\..\..\lvgl\version_6.1.2\lvgl\src\lv_objx/lv_mbox.c ****  * Add/remove functions
 134:..\..\..\lvgl\version_6.1.2\lvgl\src\lv_objx/lv_mbox.c ****  *=====================*/
 135:..\..\..\lvgl\version_6.1.2\lvgl\src\lv_objx/lv_mbox.c **** 
 136:..\..\..\lvgl\version_6.1.2\lvgl\src\lv_objx/lv_mbox.c **** /**
 137:..\..\..\lvgl\version_6.1.2\lvgl\src\lv_objx/lv_mbox.c ****  * Add button to the message box
 138:..\..\..\lvgl\version_6.1.2\lvgl\src\lv_objx/lv_mbox.c ****  * @param mbox pointer to message box object
 139:..\..\..\lvgl\version_6.1.2\lvgl\src\lv_objx/lv_mbox.c ****  * @param btn_map button descriptor (button matrix map).
 140:..\..\..\lvgl\version_6.1.2\lvgl\src\lv_objx/lv_mbox.c ****  *                E.g.  a const char *txt[] = {"ok", "close", ""} (Can not be local variable)
 141:..\..\..\lvgl\version_6.1.2\lvgl\src\lv_objx/lv_mbox.c ****  */
ARM GAS  C:\Users\tmj32\AppData\Local\Temp\ccSNdAsc.s 			page 17


 142:..\..\..\lvgl\version_6.1.2\lvgl\src\lv_objx/lv_mbox.c **** void lv_mbox_add_btns(lv_obj_t * mbox, const char * btn_map[])
 143:..\..\..\lvgl\version_6.1.2\lvgl\src\lv_objx/lv_mbox.c **** {
 420              		.loc 4 143 0
 421              		.cfi_startproc
 422              		@ args = 0, pretend = 0, frame = 16
 423              		@ frame_needed = 1, uses_anonymous_args = 0
 424 0000 80B5     		push	{r7, lr}
 425              		.cfi_def_cfa_offset 8
 426              		.cfi_offset 7, -8
 427              		.cfi_offset 14, -4
 428 0002 84B0     		sub	sp, sp, #16
 429              		.cfi_def_cfa_offset 24
 430 0004 00AF     		add	r7, sp, #0
 431              		.cfi_def_cfa_register 7
 432 0006 7860     		str	r0, [r7, #4]
 433 0008 3960     		str	r1, [r7]
 144:..\..\..\lvgl\version_6.1.2\lvgl\src\lv_objx/lv_mbox.c ****     LV_ASSERT_OBJ(mbox, LV_OBJX_NAME);
 145:..\..\..\lvgl\version_6.1.2\lvgl\src\lv_objx/lv_mbox.c ****     LV_ASSERT_NULL(btn_map);
 146:..\..\..\lvgl\version_6.1.2\lvgl\src\lv_objx/lv_mbox.c **** 
 147:..\..\..\lvgl\version_6.1.2\lvgl\src\lv_objx/lv_mbox.c ****     lv_mbox_ext_t * ext = lv_obj_get_ext_attr(mbox);
 434              		.loc 4 147 0
 435 000a 7868     		ldr	r0, [r7, #4]
 436 000c FFF7FEFF 		bl	lv_obj_get_ext_attr
 437 0010 F860     		str	r0, [r7, #12]
 148:..\..\..\lvgl\version_6.1.2\lvgl\src\lv_objx/lv_mbox.c **** 
 149:..\..\..\lvgl\version_6.1.2\lvgl\src\lv_objx/lv_mbox.c ****     /*Create a button matrix if not exists yet*/
 150:..\..\..\lvgl\version_6.1.2\lvgl\src\lv_objx/lv_mbox.c ****     if(ext->btnm == NULL) {
 438              		.loc 4 150 0
 439 0012 FB68     		ldr	r3, [r7, #12]
 440 0014 9B68     		ldr	r3, [r3, #8]
 441 0016 002B     		cmp	r3, #0
 442 0018 2CD1     		bne	.L20
 443              	.LBB4:
 151:..\..\..\lvgl\version_6.1.2\lvgl\src\lv_objx/lv_mbox.c ****         ext->btnm = lv_btnm_create(mbox, NULL);
 444              		.loc 4 151 0
 445 001a 0021     		movs	r1, #0
 446 001c 7868     		ldr	r0, [r7, #4]
 447 001e FFF7FEFF 		bl	lv_btnm_create
 448 0022 0246     		mov	r2, r0
 449 0024 FB68     		ldr	r3, [r7, #12]
 450 0026 9A60     		str	r2, [r3, #8]
 152:..\..\..\lvgl\version_6.1.2\lvgl\src\lv_objx/lv_mbox.c **** 
 153:..\..\..\lvgl\version_6.1.2\lvgl\src\lv_objx/lv_mbox.c ****         /*Set the default styles*/
 154:..\..\..\lvgl\version_6.1.2\lvgl\src\lv_objx/lv_mbox.c ****         lv_theme_t * th = lv_theme_get_current();
 451              		.loc 4 154 0
 452 0028 FFF7FEFF 		bl	lv_theme_get_current
 453 002c B860     		str	r0, [r7, #8]
 155:..\..\..\lvgl\version_6.1.2\lvgl\src\lv_objx/lv_mbox.c ****         if(th) {
 454              		.loc 4 155 0
 455 002e BB68     		ldr	r3, [r7, #8]
 456 0030 002B     		cmp	r3, #0
 457 0032 18D0     		beq	.L21
 156:..\..\..\lvgl\version_6.1.2\lvgl\src\lv_objx/lv_mbox.c ****             lv_mbox_set_style(mbox, LV_MBOX_STYLE_BTN_BG, th->style.mbox.btn.bg);
 458              		.loc 4 156 0
 459 0034 BB68     		ldr	r3, [r7, #8]
 460 0036 D3F8F830 		ldr	r3, [r3, #248]
 461 003a 1A46     		mov	r2, r3
ARM GAS  C:\Users\tmj32\AppData\Local\Temp\ccSNdAsc.s 			page 18


 462 003c 0121     		movs	r1, #1
 463 003e 7868     		ldr	r0, [r7, #4]
 464 0040 FFF7FEFF 		bl	lv_mbox_set_style
 157:..\..\..\lvgl\version_6.1.2\lvgl\src\lv_objx/lv_mbox.c ****             lv_mbox_set_style(mbox, LV_MBOX_STYLE_BTN_REL, th->style.mbox.btn.rel);
 465              		.loc 4 157 0
 466 0044 BB68     		ldr	r3, [r7, #8]
 467 0046 D3F8FC30 		ldr	r3, [r3, #252]
 468 004a 1A46     		mov	r2, r3
 469 004c 0221     		movs	r1, #2
 470 004e 7868     		ldr	r0, [r7, #4]
 471 0050 FFF7FEFF 		bl	lv_mbox_set_style
 158:..\..\..\lvgl\version_6.1.2\lvgl\src\lv_objx/lv_mbox.c ****             lv_mbox_set_style(mbox, LV_MBOX_STYLE_BTN_PR, th->style.mbox.btn.pr);
 472              		.loc 4 158 0
 473 0054 BB68     		ldr	r3, [r7, #8]
 474 0056 D3F80031 		ldr	r3, [r3, #256]
 475 005a 1A46     		mov	r2, r3
 476 005c 0321     		movs	r1, #3
 477 005e 7868     		ldr	r0, [r7, #4]
 478 0060 FFF7FEFF 		bl	lv_mbox_set_style
 479 0064 06E0     		b	.L20
 480              	.L21:
 159:..\..\..\lvgl\version_6.1.2\lvgl\src\lv_objx/lv_mbox.c ****         } else {
 160:..\..\..\lvgl\version_6.1.2\lvgl\src\lv_objx/lv_mbox.c ****             lv_btnm_set_style(ext->btnm, LV_BTNM_STYLE_BG, &lv_style_transp_fit);
 481              		.loc 4 160 0
 482 0066 FB68     		ldr	r3, [r7, #12]
 483 0068 9B68     		ldr	r3, [r3, #8]
 484 006a 0F4A     		ldr	r2, .L22
 485 006c 0021     		movs	r1, #0
 486 006e 1846     		mov	r0, r3
 487 0070 FFF7FEFF 		bl	lv_btnm_set_style
 488              	.L20:
 489              	.LBE4:
 161:..\..\..\lvgl\version_6.1.2\lvgl\src\lv_objx/lv_mbox.c ****         }
 162:..\..\..\lvgl\version_6.1.2\lvgl\src\lv_objx/lv_mbox.c ****     }
 163:..\..\..\lvgl\version_6.1.2\lvgl\src\lv_objx/lv_mbox.c **** 
 164:..\..\..\lvgl\version_6.1.2\lvgl\src\lv_objx/lv_mbox.c ****     lv_btnm_set_map(ext->btnm, btn_map);
 490              		.loc 4 164 0
 491 0074 FB68     		ldr	r3, [r7, #12]
 492 0076 9B68     		ldr	r3, [r3, #8]
 493 0078 3968     		ldr	r1, [r7]
 494 007a 1846     		mov	r0, r3
 495 007c FFF7FEFF 		bl	lv_btnm_set_map
 165:..\..\..\lvgl\version_6.1.2\lvgl\src\lv_objx/lv_mbox.c ****     lv_btnm_set_btn_ctrl_all(ext->btnm, LV_BTNM_CTRL_CLICK_TRIG | LV_BTNM_CTRL_NO_REPEAT);
 496              		.loc 4 165 0
 497 0080 FB68     		ldr	r3, [r7, #12]
 498 0082 9B68     		ldr	r3, [r3, #8]
 499 0084 4FF48871 		mov	r1, #272
 500 0088 1846     		mov	r0, r3
 501 008a FFF7FEFF 		bl	lv_btnm_set_btn_ctrl_all
 166:..\..\..\lvgl\version_6.1.2\lvgl\src\lv_objx/lv_mbox.c ****     lv_obj_set_event_cb(ext->btnm, lv_mbox_btnm_event_cb);
 502              		.loc 4 166 0
 503 008e FB68     		ldr	r3, [r7, #12]
 504 0090 9B68     		ldr	r3, [r3, #8]
 505 0092 0649     		ldr	r1, .L22+4
 506 0094 1846     		mov	r0, r3
 507 0096 FFF7FEFF 		bl	lv_obj_set_event_cb
 167:..\..\..\lvgl\version_6.1.2\lvgl\src\lv_objx/lv_mbox.c **** 
ARM GAS  C:\Users\tmj32\AppData\Local\Temp\ccSNdAsc.s 			page 19


 168:..\..\..\lvgl\version_6.1.2\lvgl\src\lv_objx/lv_mbox.c ****     mbox_realign(mbox);
 508              		.loc 4 168 0
 509 009a 7868     		ldr	r0, [r7, #4]
 510 009c FFF7FEFF 		bl	mbox_realign
 169:..\..\..\lvgl\version_6.1.2\lvgl\src\lv_objx/lv_mbox.c **** }
 511              		.loc 4 169 0
 512 00a0 00BF     		nop
 513 00a2 1037     		adds	r7, r7, #16
 514              		.cfi_def_cfa_offset 8
 515 00a4 BD46     		mov	sp, r7
 516              		.cfi_def_cfa_register 13
 517              		@ sp needed
 518 00a6 80BD     		pop	{r7, pc}
 519              	.L23:
 520              		.align	2
 521              	.L22:
 522 00a8 00000000 		.word	lv_style_transp_fit
 523 00ac 00000000 		.word	lv_mbox_btnm_event_cb
 524              		.cfi_endproc
 525              	.LFE47:
 526              		.size	lv_mbox_add_btns, .-lv_mbox_add_btns
 527              		.section	.text.lv_mbox_set_text,"ax",%progbits
 528              		.align	2
 529              		.global	lv_mbox_set_text
 530              		.thumb
 531              		.thumb_func
 532              		.type	lv_mbox_set_text, %function
 533              	lv_mbox_set_text:
 534              	.LFB48:
 170:..\..\..\lvgl\version_6.1.2\lvgl\src\lv_objx/lv_mbox.c **** 
 171:..\..\..\lvgl\version_6.1.2\lvgl\src\lv_objx/lv_mbox.c **** /*=====================
 172:..\..\..\lvgl\version_6.1.2\lvgl\src\lv_objx/lv_mbox.c ****  * Setter functions
 173:..\..\..\lvgl\version_6.1.2\lvgl\src\lv_objx/lv_mbox.c ****  *====================*/
 174:..\..\..\lvgl\version_6.1.2\lvgl\src\lv_objx/lv_mbox.c **** 
 175:..\..\..\lvgl\version_6.1.2\lvgl\src\lv_objx/lv_mbox.c **** /**
 176:..\..\..\lvgl\version_6.1.2\lvgl\src\lv_objx/lv_mbox.c ****  * Set the text of the message box
 177:..\..\..\lvgl\version_6.1.2\lvgl\src\lv_objx/lv_mbox.c ****  * @param mbox pointer to a message box
 178:..\..\..\lvgl\version_6.1.2\lvgl\src\lv_objx/lv_mbox.c ****  * @param txt a '\0' terminated character string which will be the message box text
 179:..\..\..\lvgl\version_6.1.2\lvgl\src\lv_objx/lv_mbox.c ****  */
 180:..\..\..\lvgl\version_6.1.2\lvgl\src\lv_objx/lv_mbox.c **** void lv_mbox_set_text(lv_obj_t * mbox, const char * txt)
 181:..\..\..\lvgl\version_6.1.2\lvgl\src\lv_objx/lv_mbox.c **** {
 535              		.loc 4 181 0
 536              		.cfi_startproc
 537              		@ args = 0, pretend = 0, frame = 16
 538              		@ frame_needed = 1, uses_anonymous_args = 0
 539 0000 80B5     		push	{r7, lr}
 540              		.cfi_def_cfa_offset 8
 541              		.cfi_offset 7, -8
 542              		.cfi_offset 14, -4
 543 0002 84B0     		sub	sp, sp, #16
 544              		.cfi_def_cfa_offset 24
 545 0004 00AF     		add	r7, sp, #0
 546              		.cfi_def_cfa_register 7
 547 0006 7860     		str	r0, [r7, #4]
 548 0008 3960     		str	r1, [r7]
 182:..\..\..\lvgl\version_6.1.2\lvgl\src\lv_objx/lv_mbox.c ****     LV_ASSERT_OBJ(mbox, LV_OBJX_NAME);
 183:..\..\..\lvgl\version_6.1.2\lvgl\src\lv_objx/lv_mbox.c ****     LV_ASSERT_STR(txt);
ARM GAS  C:\Users\tmj32\AppData\Local\Temp\ccSNdAsc.s 			page 20


 184:..\..\..\lvgl\version_6.1.2\lvgl\src\lv_objx/lv_mbox.c **** 
 185:..\..\..\lvgl\version_6.1.2\lvgl\src\lv_objx/lv_mbox.c ****     lv_mbox_ext_t * ext = lv_obj_get_ext_attr(mbox);
 549              		.loc 4 185 0
 550 000a 7868     		ldr	r0, [r7, #4]
 551 000c FFF7FEFF 		bl	lv_obj_get_ext_attr
 552 0010 F860     		str	r0, [r7, #12]
 186:..\..\..\lvgl\version_6.1.2\lvgl\src\lv_objx/lv_mbox.c ****     lv_label_set_text(ext->text, txt);
 553              		.loc 4 186 0
 554 0012 FB68     		ldr	r3, [r7, #12]
 555 0014 5B68     		ldr	r3, [r3, #4]
 556 0016 3968     		ldr	r1, [r7]
 557 0018 1846     		mov	r0, r3
 558 001a FFF7FEFF 		bl	lv_label_set_text
 187:..\..\..\lvgl\version_6.1.2\lvgl\src\lv_objx/lv_mbox.c **** 
 188:..\..\..\lvgl\version_6.1.2\lvgl\src\lv_objx/lv_mbox.c ****     mbox_realign(mbox);
 559              		.loc 4 188 0
 560 001e 7868     		ldr	r0, [r7, #4]
 561 0020 FFF7FEFF 		bl	mbox_realign
 189:..\..\..\lvgl\version_6.1.2\lvgl\src\lv_objx/lv_mbox.c **** }
 562              		.loc 4 189 0
 563 0024 00BF     		nop
 564 0026 1037     		adds	r7, r7, #16
 565              		.cfi_def_cfa_offset 8
 566 0028 BD46     		mov	sp, r7
 567              		.cfi_def_cfa_register 13
 568              		@ sp needed
 569 002a 80BD     		pop	{r7, pc}
 570              		.cfi_endproc
 571              	.LFE48:
 572              		.size	lv_mbox_set_text, .-lv_mbox_set_text
 573              		.section	.text.lv_mbox_set_anim_time,"ax",%progbits
 574              		.align	2
 575              		.global	lv_mbox_set_anim_time
 576              		.thumb
 577              		.thumb_func
 578              		.type	lv_mbox_set_anim_time, %function
 579              	lv_mbox_set_anim_time:
 580              	.LFB49:
 190:..\..\..\lvgl\version_6.1.2\lvgl\src\lv_objx/lv_mbox.c **** 
 191:..\..\..\lvgl\version_6.1.2\lvgl\src\lv_objx/lv_mbox.c **** /**
 192:..\..\..\lvgl\version_6.1.2\lvgl\src\lv_objx/lv_mbox.c ****  * Set animation duration
 193:..\..\..\lvgl\version_6.1.2\lvgl\src\lv_objx/lv_mbox.c ****  * @param mbox pointer to a message box object
 194:..\..\..\lvgl\version_6.1.2\lvgl\src\lv_objx/lv_mbox.c ****  * @param anim_time animation length in  milliseconds (0: no animation)
 195:..\..\..\lvgl\version_6.1.2\lvgl\src\lv_objx/lv_mbox.c ****  */
 196:..\..\..\lvgl\version_6.1.2\lvgl\src\lv_objx/lv_mbox.c **** void lv_mbox_set_anim_time(lv_obj_t * mbox, uint16_t anim_time)
 197:..\..\..\lvgl\version_6.1.2\lvgl\src\lv_objx/lv_mbox.c **** {
 581              		.loc 4 197 0
 582              		.cfi_startproc
 583              		@ args = 0, pretend = 0, frame = 16
 584              		@ frame_needed = 1, uses_anonymous_args = 0
 585 0000 80B5     		push	{r7, lr}
 586              		.cfi_def_cfa_offset 8
 587              		.cfi_offset 7, -8
 588              		.cfi_offset 14, -4
 589 0002 84B0     		sub	sp, sp, #16
 590              		.cfi_def_cfa_offset 24
 591 0004 00AF     		add	r7, sp, #0
ARM GAS  C:\Users\tmj32\AppData\Local\Temp\ccSNdAsc.s 			page 21


 592              		.cfi_def_cfa_register 7
 593 0006 7860     		str	r0, [r7, #4]
 594 0008 0B46     		mov	r3, r1
 595 000a 7B80     		strh	r3, [r7, #2]	@ movhi
 198:..\..\..\lvgl\version_6.1.2\lvgl\src\lv_objx/lv_mbox.c ****     LV_ASSERT_OBJ(mbox, LV_OBJX_NAME);
 199:..\..\..\lvgl\version_6.1.2\lvgl\src\lv_objx/lv_mbox.c **** 
 200:..\..\..\lvgl\version_6.1.2\lvgl\src\lv_objx/lv_mbox.c **** #if LV_USE_ANIMATION
 201:..\..\..\lvgl\version_6.1.2\lvgl\src\lv_objx/lv_mbox.c ****     lv_mbox_ext_t * ext = lv_obj_get_ext_attr(mbox);
 596              		.loc 4 201 0
 597 000c 7868     		ldr	r0, [r7, #4]
 598 000e FFF7FEFF 		bl	lv_obj_get_ext_attr
 599 0012 F860     		str	r0, [r7, #12]
 202:..\..\..\lvgl\version_6.1.2\lvgl\src\lv_objx/lv_mbox.c ****     anim_time           = 0;
 600              		.loc 4 202 0
 601 0014 0023     		movs	r3, #0
 602 0016 7B80     		strh	r3, [r7, #2]	@ movhi
 203:..\..\..\lvgl\version_6.1.2\lvgl\src\lv_objx/lv_mbox.c ****     ext->anim_time      = anim_time;
 603              		.loc 4 203 0
 604 0018 FB68     		ldr	r3, [r7, #12]
 605 001a 7A88     		ldrh	r2, [r7, #2]	@ movhi
 606 001c 9A81     		strh	r2, [r3, #12]	@ movhi
 204:..\..\..\lvgl\version_6.1.2\lvgl\src\lv_objx/lv_mbox.c **** #else
 205:..\..\..\lvgl\version_6.1.2\lvgl\src\lv_objx/lv_mbox.c ****     (void)mbox;
 206:..\..\..\lvgl\version_6.1.2\lvgl\src\lv_objx/lv_mbox.c ****     (void)anim_time;
 207:..\..\..\lvgl\version_6.1.2\lvgl\src\lv_objx/lv_mbox.c **** #endif
 208:..\..\..\lvgl\version_6.1.2\lvgl\src\lv_objx/lv_mbox.c **** }
 607              		.loc 4 208 0
 608 001e 00BF     		nop
 609 0020 1037     		adds	r7, r7, #16
 610              		.cfi_def_cfa_offset 8
 611 0022 BD46     		mov	sp, r7
 612              		.cfi_def_cfa_register 13
 613              		@ sp needed
 614 0024 80BD     		pop	{r7, pc}
 615              		.cfi_endproc
 616              	.LFE49:
 617              		.size	lv_mbox_set_anim_time, .-lv_mbox_set_anim_time
 618 0026 00BF     		.section	.text.lv_mbox_start_auto_close,"ax",%progbits
 619              		.align	2
 620              		.global	lv_mbox_start_auto_close
 621              		.thumb
 622              		.thumb_func
 623              		.type	lv_mbox_start_auto_close, %function
 624              	lv_mbox_start_auto_close:
 625              	.LFB50:
 209:..\..\..\lvgl\version_6.1.2\lvgl\src\lv_objx/lv_mbox.c **** 
 210:..\..\..\lvgl\version_6.1.2\lvgl\src\lv_objx/lv_mbox.c **** /**
 211:..\..\..\lvgl\version_6.1.2\lvgl\src\lv_objx/lv_mbox.c ****  * Automatically delete the message box after a given time
 212:..\..\..\lvgl\version_6.1.2\lvgl\src\lv_objx/lv_mbox.c ****  * @param mbox pointer to a message box object
 213:..\..\..\lvgl\version_6.1.2\lvgl\src\lv_objx/lv_mbox.c ****  * @param delay a time (in milliseconds) to wait before delete the message box
 214:..\..\..\lvgl\version_6.1.2\lvgl\src\lv_objx/lv_mbox.c ****  */
 215:..\..\..\lvgl\version_6.1.2\lvgl\src\lv_objx/lv_mbox.c **** void lv_mbox_start_auto_close(lv_obj_t * mbox, uint16_t delay)
 216:..\..\..\lvgl\version_6.1.2\lvgl\src\lv_objx/lv_mbox.c **** {
 626              		.loc 4 216 0
 627              		.cfi_startproc
 628              		@ args = 0, pretend = 0, frame = 48
 629              		@ frame_needed = 1, uses_anonymous_args = 0
ARM GAS  C:\Users\tmj32\AppData\Local\Temp\ccSNdAsc.s 			page 22


 630 0000 80B5     		push	{r7, lr}
 631              		.cfi_def_cfa_offset 8
 632              		.cfi_offset 7, -8
 633              		.cfi_offset 14, -4
 634 0002 8CB0     		sub	sp, sp, #48
 635              		.cfi_def_cfa_offset 56
 636 0004 00AF     		add	r7, sp, #0
 637              		.cfi_def_cfa_register 7
 638 0006 7860     		str	r0, [r7, #4]
 639 0008 0B46     		mov	r3, r1
 640 000a 7B80     		strh	r3, [r7, #2]	@ movhi
 217:..\..\..\lvgl\version_6.1.2\lvgl\src\lv_objx/lv_mbox.c ****     LV_ASSERT_OBJ(mbox, LV_OBJX_NAME);
 218:..\..\..\lvgl\version_6.1.2\lvgl\src\lv_objx/lv_mbox.c **** 
 219:..\..\..\lvgl\version_6.1.2\lvgl\src\lv_objx/lv_mbox.c **** #if LV_USE_ANIMATION
 220:..\..\..\lvgl\version_6.1.2\lvgl\src\lv_objx/lv_mbox.c ****     if(lv_mbox_get_anim_time(mbox) != 0) {
 641              		.loc 4 220 0
 642 000c 7868     		ldr	r0, [r7, #4]
 643 000e FFF7FEFF 		bl	lv_mbox_get_anim_time
 644 0012 0346     		mov	r3, r0
 645 0014 002B     		cmp	r3, #0
 646 0016 40D0     		beq	.L27
 647              	.LBB5:
 221:..\..\..\lvgl\version_6.1.2\lvgl\src\lv_objx/lv_mbox.c ****         /*Add shrinking animations*/
 222:..\..\..\lvgl\version_6.1.2\lvgl\src\lv_objx/lv_mbox.c ****         lv_anim_t a;
 223:..\..\..\lvgl\version_6.1.2\lvgl\src\lv_objx/lv_mbox.c ****         a.var            = mbox;
 648              		.loc 4 223 0
 649 0018 7B68     		ldr	r3, [r7, #4]
 650 001a FB60     		str	r3, [r7, #12]
 224:..\..\..\lvgl\version_6.1.2\lvgl\src\lv_objx/lv_mbox.c ****         a.start          = lv_obj_get_height(mbox);
 651              		.loc 4 224 0
 652 001c 7868     		ldr	r0, [r7, #4]
 653 001e FFF7FEFF 		bl	lv_obj_get_height
 654 0022 0346     		mov	r3, r0
 655 0024 FB61     		str	r3, [r7, #28]
 225:..\..\..\lvgl\version_6.1.2\lvgl\src\lv_objx/lv_mbox.c ****         a.end            = 0;
 656              		.loc 4 225 0
 657 0026 0023     		movs	r3, #0
 658 0028 3B62     		str	r3, [r7, #32]
 226:..\..\..\lvgl\version_6.1.2\lvgl\src\lv_objx/lv_mbox.c ****         a.exec_cb        = (lv_anim_exec_xcb_t)lv_obj_set_height;
 659              		.loc 4 226 0
 660 002a 324B     		ldr	r3, .L30
 661 002c 3B61     		str	r3, [r7, #16]
 227:..\..\..\lvgl\version_6.1.2\lvgl\src\lv_objx/lv_mbox.c ****         a.path_cb        = lv_anim_path_linear;
 662              		.loc 4 227 0
 663 002e 324B     		ldr	r3, .L30+4
 664 0030 7B61     		str	r3, [r7, #20]
 228:..\..\..\lvgl\version_6.1.2\lvgl\src\lv_objx/lv_mbox.c ****         a.ready_cb       = NULL;
 665              		.loc 4 228 0
 666 0032 0023     		movs	r3, #0
 667 0034 BB61     		str	r3, [r7, #24]
 229:..\..\..\lvgl\version_6.1.2\lvgl\src\lv_objx/lv_mbox.c ****         a.act_time       = -delay;
 668              		.loc 4 229 0
 669 0036 7B88     		ldrh	r3, [r7, #2]	@ movhi
 670 0038 5B42     		negs	r3, r3
 671 003a 9BB2     		uxth	r3, r3
 672 003c 1BB2     		sxth	r3, r3
 673 003e FB84     		strh	r3, [r7, #38]	@ movhi
ARM GAS  C:\Users\tmj32\AppData\Local\Temp\ccSNdAsc.s 			page 23


 230:..\..\..\lvgl\version_6.1.2\lvgl\src\lv_objx/lv_mbox.c ****         a.time           = lv_mbox_get_anim_time(mbox);
 674              		.loc 4 230 0
 675 0040 7868     		ldr	r0, [r7, #4]
 676 0042 FFF7FEFF 		bl	lv_mbox_get_anim_time
 677 0046 0346     		mov	r3, r0
 678 0048 BB84     		strh	r3, [r7, #36]	@ movhi
 231:..\..\..\lvgl\version_6.1.2\lvgl\src\lv_objx/lv_mbox.c ****         a.playback       = 0;
 679              		.loc 4 231 0
 680 004a 97F82C30 		ldrb	r3, [r7, #44]
 681 004e 6FF30003 		bfc	r3, #0, #1
 682 0052 87F82C30 		strb	r3, [r7, #44]
 232:..\..\..\lvgl\version_6.1.2\lvgl\src\lv_objx/lv_mbox.c ****         a.playback_pause = 0;
 683              		.loc 4 232 0
 684 0056 0023     		movs	r3, #0
 685 0058 3B85     		strh	r3, [r7, #40]	@ movhi
 233:..\..\..\lvgl\version_6.1.2\lvgl\src\lv_objx/lv_mbox.c ****         a.repeat         = 0;
 686              		.loc 4 233 0
 687 005a 97F82C30 		ldrb	r3, [r7, #44]
 688 005e 6FF34103 		bfc	r3, #1, #1
 689 0062 87F82C30 		strb	r3, [r7, #44]
 234:..\..\..\lvgl\version_6.1.2\lvgl\src\lv_objx/lv_mbox.c ****         a.repeat_pause   = 0;
 690              		.loc 4 234 0
 691 0066 0023     		movs	r3, #0
 692 0068 7B85     		strh	r3, [r7, #42]	@ movhi
 235:..\..\..\lvgl\version_6.1.2\lvgl\src\lv_objx/lv_mbox.c ****         lv_anim_create(&a);
 693              		.loc 4 235 0
 694 006a 07F10C03 		add	r3, r7, #12
 695 006e 1846     		mov	r0, r3
 696 0070 FFF7FEFF 		bl	lv_anim_create
 236:..\..\..\lvgl\version_6.1.2\lvgl\src\lv_objx/lv_mbox.c **** 
 237:..\..\..\lvgl\version_6.1.2\lvgl\src\lv_objx/lv_mbox.c ****         a.start    = lv_obj_get_width(mbox);
 697              		.loc 4 237 0
 698 0074 7868     		ldr	r0, [r7, #4]
 699 0076 FFF7FEFF 		bl	lv_obj_get_width
 700 007a 0346     		mov	r3, r0
 701 007c FB61     		str	r3, [r7, #28]
 238:..\..\..\lvgl\version_6.1.2\lvgl\src\lv_objx/lv_mbox.c ****         a.exec_cb  = (lv_anim_exec_xcb_t)lv_obj_set_width;
 702              		.loc 4 238 0
 703 007e 1F4B     		ldr	r3, .L30+8
 704 0080 3B61     		str	r3, [r7, #16]
 239:..\..\..\lvgl\version_6.1.2\lvgl\src\lv_objx/lv_mbox.c ****         a.ready_cb = lv_mbox_close_ready_cb;
 705              		.loc 4 239 0
 706 0082 1F4B     		ldr	r3, .L30+12
 707 0084 BB61     		str	r3, [r7, #24]
 240:..\..\..\lvgl\version_6.1.2\lvgl\src\lv_objx/lv_mbox.c ****         lv_anim_create(&a);
 708              		.loc 4 240 0
 709 0086 07F10C03 		add	r3, r7, #12
 710 008a 1846     		mov	r0, r3
 711 008c FFF7FEFF 		bl	lv_anim_create
 241:..\..\..\lvgl\version_6.1.2\lvgl\src\lv_objx/lv_mbox.c **** 
 242:..\..\..\lvgl\version_6.1.2\lvgl\src\lv_objx/lv_mbox.c ****         /*Disable fit to let shrinking work*/
 243:..\..\..\lvgl\version_6.1.2\lvgl\src\lv_objx/lv_mbox.c ****         lv_cont_set_fit(mbox, LV_FIT_NONE);
 712              		.loc 4 243 0
 713 0090 0021     		movs	r1, #0
 714 0092 7868     		ldr	r0, [r7, #4]
 715 0094 FFF7FEFF 		bl	lv_cont_set_fit
 716              	.LBE5:
ARM GAS  C:\Users\tmj32\AppData\Local\Temp\ccSNdAsc.s 			page 24


 244:..\..\..\lvgl\version_6.1.2\lvgl\src\lv_objx/lv_mbox.c ****     } else {
 245:..\..\..\lvgl\version_6.1.2\lvgl\src\lv_objx/lv_mbox.c ****         /*Create an animation to delete the mbox `delay` ms later*/
 246:..\..\..\lvgl\version_6.1.2\lvgl\src\lv_objx/lv_mbox.c ****         lv_anim_t a;
 247:..\..\..\lvgl\version_6.1.2\lvgl\src\lv_objx/lv_mbox.c ****         a.var            = mbox;
 248:..\..\..\lvgl\version_6.1.2\lvgl\src\lv_objx/lv_mbox.c ****         a.start          = 0;
 249:..\..\..\lvgl\version_6.1.2\lvgl\src\lv_objx/lv_mbox.c ****         a.end            = 1;
 250:..\..\..\lvgl\version_6.1.2\lvgl\src\lv_objx/lv_mbox.c ****         a.exec_cb        = (lv_anim_exec_xcb_t)NULL;
 251:..\..\..\lvgl\version_6.1.2\lvgl\src\lv_objx/lv_mbox.c ****         a.path_cb        = lv_anim_path_linear;
 252:..\..\..\lvgl\version_6.1.2\lvgl\src\lv_objx/lv_mbox.c ****         a.ready_cb       = lv_mbox_close_ready_cb;
 253:..\..\..\lvgl\version_6.1.2\lvgl\src\lv_objx/lv_mbox.c ****         a.act_time       = -delay;
 254:..\..\..\lvgl\version_6.1.2\lvgl\src\lv_objx/lv_mbox.c ****         a.time           = 0;
 255:..\..\..\lvgl\version_6.1.2\lvgl\src\lv_objx/lv_mbox.c ****         a.playback       = 0;
 256:..\..\..\lvgl\version_6.1.2\lvgl\src\lv_objx/lv_mbox.c ****         a.playback_pause = 0;
 257:..\..\..\lvgl\version_6.1.2\lvgl\src\lv_objx/lv_mbox.c ****         a.repeat         = 0;
 258:..\..\..\lvgl\version_6.1.2\lvgl\src\lv_objx/lv_mbox.c ****         a.repeat_pause   = 0;
 259:..\..\..\lvgl\version_6.1.2\lvgl\src\lv_objx/lv_mbox.c ****         lv_anim_create(&a);
 260:..\..\..\lvgl\version_6.1.2\lvgl\src\lv_objx/lv_mbox.c ****     }
 261:..\..\..\lvgl\version_6.1.2\lvgl\src\lv_objx/lv_mbox.c **** #else
 262:..\..\..\lvgl\version_6.1.2\lvgl\src\lv_objx/lv_mbox.c ****     (void)delay; /*Unused*/
 263:..\..\..\lvgl\version_6.1.2\lvgl\src\lv_objx/lv_mbox.c ****     lv_obj_del(mbox);
 264:..\..\..\lvgl\version_6.1.2\lvgl\src\lv_objx/lv_mbox.c **** #endif
 265:..\..\..\lvgl\version_6.1.2\lvgl\src\lv_objx/lv_mbox.c **** }
 717              		.loc 4 265 0
 718 0098 27E0     		b	.L29
 719              	.L27:
 720              	.LBB6:
 247:..\..\..\lvgl\version_6.1.2\lvgl\src\lv_objx/lv_mbox.c ****         a.start          = 0;
 721              		.loc 4 247 0
 722 009a 7B68     		ldr	r3, [r7, #4]
 723 009c FB60     		str	r3, [r7, #12]
 248:..\..\..\lvgl\version_6.1.2\lvgl\src\lv_objx/lv_mbox.c ****         a.end            = 1;
 724              		.loc 4 248 0
 725 009e 0023     		movs	r3, #0
 726 00a0 FB61     		str	r3, [r7, #28]
 249:..\..\..\lvgl\version_6.1.2\lvgl\src\lv_objx/lv_mbox.c ****         a.exec_cb        = (lv_anim_exec_xcb_t)NULL;
 727              		.loc 4 249 0
 728 00a2 0123     		movs	r3, #1
 729 00a4 3B62     		str	r3, [r7, #32]
 250:..\..\..\lvgl\version_6.1.2\lvgl\src\lv_objx/lv_mbox.c ****         a.path_cb        = lv_anim_path_linear;
 730              		.loc 4 250 0
 731 00a6 0023     		movs	r3, #0
 732 00a8 3B61     		str	r3, [r7, #16]
 251:..\..\..\lvgl\version_6.1.2\lvgl\src\lv_objx/lv_mbox.c ****         a.ready_cb       = lv_mbox_close_ready_cb;
 733              		.loc 4 251 0
 734 00aa 134B     		ldr	r3, .L30+4
 735 00ac 7B61     		str	r3, [r7, #20]
 252:..\..\..\lvgl\version_6.1.2\lvgl\src\lv_objx/lv_mbox.c ****         a.act_time       = -delay;
 736              		.loc 4 252 0
 737 00ae 144B     		ldr	r3, .L30+12
 738 00b0 BB61     		str	r3, [r7, #24]
 253:..\..\..\lvgl\version_6.1.2\lvgl\src\lv_objx/lv_mbox.c ****         a.time           = 0;
 739              		.loc 4 253 0
 740 00b2 7B88     		ldrh	r3, [r7, #2]	@ movhi
 741 00b4 5B42     		negs	r3, r3
 742 00b6 9BB2     		uxth	r3, r3
 743 00b8 1BB2     		sxth	r3, r3
 744 00ba FB84     		strh	r3, [r7, #38]	@ movhi
ARM GAS  C:\Users\tmj32\AppData\Local\Temp\ccSNdAsc.s 			page 25


 254:..\..\..\lvgl\version_6.1.2\lvgl\src\lv_objx/lv_mbox.c ****         a.playback       = 0;
 745              		.loc 4 254 0
 746 00bc 0023     		movs	r3, #0
 747 00be BB84     		strh	r3, [r7, #36]	@ movhi
 255:..\..\..\lvgl\version_6.1.2\lvgl\src\lv_objx/lv_mbox.c ****         a.playback_pause = 0;
 748              		.loc 4 255 0
 749 00c0 97F82C30 		ldrb	r3, [r7, #44]
 750 00c4 6FF30003 		bfc	r3, #0, #1
 751 00c8 87F82C30 		strb	r3, [r7, #44]
 256:..\..\..\lvgl\version_6.1.2\lvgl\src\lv_objx/lv_mbox.c ****         a.repeat         = 0;
 752              		.loc 4 256 0
 753 00cc 0023     		movs	r3, #0
 754 00ce 3B85     		strh	r3, [r7, #40]	@ movhi
 257:..\..\..\lvgl\version_6.1.2\lvgl\src\lv_objx/lv_mbox.c ****         a.repeat_pause   = 0;
 755              		.loc 4 257 0
 756 00d0 97F82C30 		ldrb	r3, [r7, #44]
 757 00d4 6FF34103 		bfc	r3, #1, #1
 758 00d8 87F82C30 		strb	r3, [r7, #44]
 258:..\..\..\lvgl\version_6.1.2\lvgl\src\lv_objx/lv_mbox.c ****         lv_anim_create(&a);
 759              		.loc 4 258 0
 760 00dc 0023     		movs	r3, #0
 761 00de 7B85     		strh	r3, [r7, #42]	@ movhi
 259:..\..\..\lvgl\version_6.1.2\lvgl\src\lv_objx/lv_mbox.c ****     }
 762              		.loc 4 259 0
 763 00e0 07F10C03 		add	r3, r7, #12
 764 00e4 1846     		mov	r0, r3
 765 00e6 FFF7FEFF 		bl	lv_anim_create
 766              	.L29:
 767              	.LBE6:
 768              		.loc 4 265 0
 769 00ea 00BF     		nop
 770 00ec 3037     		adds	r7, r7, #48
 771              		.cfi_def_cfa_offset 8
 772 00ee BD46     		mov	sp, r7
 773              		.cfi_def_cfa_register 13
 774              		@ sp needed
 775 00f0 80BD     		pop	{r7, pc}
 776              	.L31:
 777 00f2 00BF     		.align	2
 778              	.L30:
 779 00f4 00000000 		.word	lv_obj_set_height
 780 00f8 00000000 		.word	lv_anim_path_linear
 781 00fc 00000000 		.word	lv_obj_set_width
 782 0100 00000000 		.word	lv_mbox_close_ready_cb
 783              		.cfi_endproc
 784              	.LFE50:
 785              		.size	lv_mbox_start_auto_close, .-lv_mbox_start_auto_close
 786              		.section	.text.lv_mbox_stop_auto_close,"ax",%progbits
 787              		.align	2
 788              		.global	lv_mbox_stop_auto_close
 789              		.thumb
 790              		.thumb_func
 791              		.type	lv_mbox_stop_auto_close, %function
 792              	lv_mbox_stop_auto_close:
 793              	.LFB51:
 266:..\..\..\lvgl\version_6.1.2\lvgl\src\lv_objx/lv_mbox.c **** 
 267:..\..\..\lvgl\version_6.1.2\lvgl\src\lv_objx/lv_mbox.c **** /**
ARM GAS  C:\Users\tmj32\AppData\Local\Temp\ccSNdAsc.s 			page 26


 268:..\..\..\lvgl\version_6.1.2\lvgl\src\lv_objx/lv_mbox.c ****  * Stop the auto. closing of message box
 269:..\..\..\lvgl\version_6.1.2\lvgl\src\lv_objx/lv_mbox.c ****  * @param mbox pointer to a message box object
 270:..\..\..\lvgl\version_6.1.2\lvgl\src\lv_objx/lv_mbox.c ****  */
 271:..\..\..\lvgl\version_6.1.2\lvgl\src\lv_objx/lv_mbox.c **** void lv_mbox_stop_auto_close(lv_obj_t * mbox)
 272:..\..\..\lvgl\version_6.1.2\lvgl\src\lv_objx/lv_mbox.c **** {
 794              		.loc 4 272 0
 795              		.cfi_startproc
 796              		@ args = 0, pretend = 0, frame = 8
 797              		@ frame_needed = 1, uses_anonymous_args = 0
 798 0000 80B5     		push	{r7, lr}
 799              		.cfi_def_cfa_offset 8
 800              		.cfi_offset 7, -8
 801              		.cfi_offset 14, -4
 802 0002 82B0     		sub	sp, sp, #8
 803              		.cfi_def_cfa_offset 16
 804 0004 00AF     		add	r7, sp, #0
 805              		.cfi_def_cfa_register 7
 806 0006 7860     		str	r0, [r7, #4]
 273:..\..\..\lvgl\version_6.1.2\lvgl\src\lv_objx/lv_mbox.c ****     LV_ASSERT_OBJ(mbox, LV_OBJX_NAME);
 274:..\..\..\lvgl\version_6.1.2\lvgl\src\lv_objx/lv_mbox.c **** 
 275:..\..\..\lvgl\version_6.1.2\lvgl\src\lv_objx/lv_mbox.c **** #if LV_USE_ANIMATION
 276:..\..\..\lvgl\version_6.1.2\lvgl\src\lv_objx/lv_mbox.c ****     lv_anim_del(mbox, NULL);
 807              		.loc 4 276 0
 808 0008 0021     		movs	r1, #0
 809 000a 7868     		ldr	r0, [r7, #4]
 810 000c FFF7FEFF 		bl	lv_anim_del
 277:..\..\..\lvgl\version_6.1.2\lvgl\src\lv_objx/lv_mbox.c **** #else
 278:..\..\..\lvgl\version_6.1.2\lvgl\src\lv_objx/lv_mbox.c ****     (void)mbox; /*Unused*/
 279:..\..\..\lvgl\version_6.1.2\lvgl\src\lv_objx/lv_mbox.c **** #endif
 280:..\..\..\lvgl\version_6.1.2\lvgl\src\lv_objx/lv_mbox.c **** }
 811              		.loc 4 280 0
 812 0010 00BF     		nop
 813 0012 0837     		adds	r7, r7, #8
 814              		.cfi_def_cfa_offset 8
 815 0014 BD46     		mov	sp, r7
 816              		.cfi_def_cfa_register 13
 817              		@ sp needed
 818 0016 80BD     		pop	{r7, pc}
 819              		.cfi_endproc
 820              	.LFE51:
 821              		.size	lv_mbox_stop_auto_close, .-lv_mbox_stop_auto_close
 822              		.section	.text.lv_mbox_set_style,"ax",%progbits
 823              		.align	2
 824              		.global	lv_mbox_set_style
 825              		.thumb
 826              		.thumb_func
 827              		.type	lv_mbox_set_style, %function
 828              	lv_mbox_set_style:
 829              	.LFB52:
 281:..\..\..\lvgl\version_6.1.2\lvgl\src\lv_objx/lv_mbox.c **** 
 282:..\..\..\lvgl\version_6.1.2\lvgl\src\lv_objx/lv_mbox.c **** /**
 283:..\..\..\lvgl\version_6.1.2\lvgl\src\lv_objx/lv_mbox.c ****  * Set a style of a message box
 284:..\..\..\lvgl\version_6.1.2\lvgl\src\lv_objx/lv_mbox.c ****  * @param mbox pointer to a message box object
 285:..\..\..\lvgl\version_6.1.2\lvgl\src\lv_objx/lv_mbox.c ****  * @param type which style should be set
 286:..\..\..\lvgl\version_6.1.2\lvgl\src\lv_objx/lv_mbox.c ****  * @param style pointer to a style
 287:..\..\..\lvgl\version_6.1.2\lvgl\src\lv_objx/lv_mbox.c ****  */
 288:..\..\..\lvgl\version_6.1.2\lvgl\src\lv_objx/lv_mbox.c **** void lv_mbox_set_style(lv_obj_t * mbox, lv_mbox_style_t type, const lv_style_t * style)
ARM GAS  C:\Users\tmj32\AppData\Local\Temp\ccSNdAsc.s 			page 27


 289:..\..\..\lvgl\version_6.1.2\lvgl\src\lv_objx/lv_mbox.c **** {
 830              		.loc 4 289 0
 831              		.cfi_startproc
 832              		@ args = 0, pretend = 0, frame = 24
 833              		@ frame_needed = 1, uses_anonymous_args = 0
 834 0000 80B5     		push	{r7, lr}
 835              		.cfi_def_cfa_offset 8
 836              		.cfi_offset 7, -8
 837              		.cfi_offset 14, -4
 838 0002 86B0     		sub	sp, sp, #24
 839              		.cfi_def_cfa_offset 32
 840 0004 00AF     		add	r7, sp, #0
 841              		.cfi_def_cfa_register 7
 842 0006 F860     		str	r0, [r7, #12]
 843 0008 0B46     		mov	r3, r1
 844 000a 7A60     		str	r2, [r7, #4]
 845 000c FB72     		strb	r3, [r7, #11]
 290:..\..\..\lvgl\version_6.1.2\lvgl\src\lv_objx/lv_mbox.c ****     LV_ASSERT_OBJ(mbox, LV_OBJX_NAME);
 291:..\..\..\lvgl\version_6.1.2\lvgl\src\lv_objx/lv_mbox.c **** 
 292:..\..\..\lvgl\version_6.1.2\lvgl\src\lv_objx/lv_mbox.c ****     lv_mbox_ext_t * ext = lv_obj_get_ext_attr(mbox);
 846              		.loc 4 292 0
 847 000e F868     		ldr	r0, [r7, #12]
 848 0010 FFF7FEFF 		bl	lv_obj_get_ext_attr
 849 0014 7861     		str	r0, [r7, #20]
 293:..\..\..\lvgl\version_6.1.2\lvgl\src\lv_objx/lv_mbox.c **** 
 294:..\..\..\lvgl\version_6.1.2\lvgl\src\lv_objx/lv_mbox.c ****     switch(type) {
 850              		.loc 4 294 0
 851 0016 FB7A     		ldrb	r3, [r7, #11]	@ zero_extendqisi2
 852 0018 062B     		cmp	r3, #6
 853 001a 46D8     		bhi	.L34
 854 001c 01A2     		adr	r2, .L36
 855 001e 52F823F0 		ldr	pc, [r2, r3, lsl #2]
 856 0022 00BF     		.p2align 2
 857              	.L36:
 858 0024 41000000 		.word	.L35+1
 859 0028 4B000000 		.word	.L37+1
 860 002c 5B000000 		.word	.L38+1
 861 0030 6B000000 		.word	.L39+1
 862 0034 7B000000 		.word	.L40+1
 863 0038 8B000000 		.word	.L41+1
 864 003c 9B000000 		.word	.L42+1
 865              		.p2align 1
 866              	.L35:
 295:..\..\..\lvgl\version_6.1.2\lvgl\src\lv_objx/lv_mbox.c ****         case LV_MBOX_STYLE_BG: lv_obj_set_style(mbox, style); break;
 867              		.loc 4 295 0
 868 0040 7968     		ldr	r1, [r7, #4]
 869 0042 F868     		ldr	r0, [r7, #12]
 870 0044 FFF7FEFF 		bl	lv_obj_set_style
 871 0048 2FE0     		b	.L34
 872              	.L37:
 296:..\..\..\lvgl\version_6.1.2\lvgl\src\lv_objx/lv_mbox.c ****         case LV_MBOX_STYLE_BTN_BG: lv_btnm_set_style(ext->btnm, LV_BTNM_STYLE_BG, style); break;
 873              		.loc 4 296 0
 874 004a 7B69     		ldr	r3, [r7, #20]
 875 004c 9B68     		ldr	r3, [r3, #8]
 876 004e 7A68     		ldr	r2, [r7, #4]
 877 0050 0021     		movs	r1, #0
 878 0052 1846     		mov	r0, r3
ARM GAS  C:\Users\tmj32\AppData\Local\Temp\ccSNdAsc.s 			page 28


 879 0054 FFF7FEFF 		bl	lv_btnm_set_style
 880 0058 27E0     		b	.L34
 881              	.L38:
 297:..\..\..\lvgl\version_6.1.2\lvgl\src\lv_objx/lv_mbox.c ****         case LV_MBOX_STYLE_BTN_REL: lv_btnm_set_style(ext->btnm, LV_BTNM_STYLE_BTN_REL, style); bre
 882              		.loc 4 297 0
 883 005a 7B69     		ldr	r3, [r7, #20]
 884 005c 9B68     		ldr	r3, [r3, #8]
 885 005e 7A68     		ldr	r2, [r7, #4]
 886 0060 0121     		movs	r1, #1
 887 0062 1846     		mov	r0, r3
 888 0064 FFF7FEFF 		bl	lv_btnm_set_style
 889 0068 1FE0     		b	.L34
 890              	.L39:
 298:..\..\..\lvgl\version_6.1.2\lvgl\src\lv_objx/lv_mbox.c ****         case LV_MBOX_STYLE_BTN_PR: lv_btnm_set_style(ext->btnm, LV_BTNM_STYLE_BTN_PR, style); break
 891              		.loc 4 298 0
 892 006a 7B69     		ldr	r3, [r7, #20]
 893 006c 9B68     		ldr	r3, [r3, #8]
 894 006e 7A68     		ldr	r2, [r7, #4]
 895 0070 0221     		movs	r1, #2
 896 0072 1846     		mov	r0, r3
 897 0074 FFF7FEFF 		bl	lv_btnm_set_style
 898 0078 17E0     		b	.L34
 899              	.L40:
 299:..\..\..\lvgl\version_6.1.2\lvgl\src\lv_objx/lv_mbox.c ****         case LV_MBOX_STYLE_BTN_TGL_REL: lv_btnm_set_style(ext->btnm, LV_BTNM_STYLE_BTN_TGL_REL, sty
 900              		.loc 4 299 0
 901 007a 7B69     		ldr	r3, [r7, #20]
 902 007c 9B68     		ldr	r3, [r3, #8]
 903 007e 7A68     		ldr	r2, [r7, #4]
 904 0080 0321     		movs	r1, #3
 905 0082 1846     		mov	r0, r3
 906 0084 FFF7FEFF 		bl	lv_btnm_set_style
 907 0088 0FE0     		b	.L34
 908              	.L41:
 300:..\..\..\lvgl\version_6.1.2\lvgl\src\lv_objx/lv_mbox.c ****         case LV_MBOX_STYLE_BTN_TGL_PR: lv_btnm_set_style(ext->btnm, LV_BTNM_STYLE_BTN_TGL_PR, style
 909              		.loc 4 300 0
 910 008a 7B69     		ldr	r3, [r7, #20]
 911 008c 9B68     		ldr	r3, [r3, #8]
 912 008e 7A68     		ldr	r2, [r7, #4]
 913 0090 0421     		movs	r1, #4
 914 0092 1846     		mov	r0, r3
 915 0094 FFF7FEFF 		bl	lv_btnm_set_style
 916 0098 07E0     		b	.L34
 917              	.L42:
 301:..\..\..\lvgl\version_6.1.2\lvgl\src\lv_objx/lv_mbox.c ****         case LV_MBOX_STYLE_BTN_INA: lv_btnm_set_style(ext->btnm, LV_BTNM_STYLE_BTN_INA, style); bre
 918              		.loc 4 301 0
 919 009a 7B69     		ldr	r3, [r7, #20]
 920 009c 9B68     		ldr	r3, [r3, #8]
 921 009e 7A68     		ldr	r2, [r7, #4]
 922 00a0 0521     		movs	r1, #5
 923 00a2 1846     		mov	r0, r3
 924 00a4 FFF7FEFF 		bl	lv_btnm_set_style
 925 00a8 00BF     		nop
 926              	.L34:
 302:..\..\..\lvgl\version_6.1.2\lvgl\src\lv_objx/lv_mbox.c ****     }
 303:..\..\..\lvgl\version_6.1.2\lvgl\src\lv_objx/lv_mbox.c **** 
 304:..\..\..\lvgl\version_6.1.2\lvgl\src\lv_objx/lv_mbox.c ****     mbox_realign(mbox);
 927              		.loc 4 304 0
ARM GAS  C:\Users\tmj32\AppData\Local\Temp\ccSNdAsc.s 			page 29


 928 00aa F868     		ldr	r0, [r7, #12]
 929 00ac FFF7FEFF 		bl	mbox_realign
 305:..\..\..\lvgl\version_6.1.2\lvgl\src\lv_objx/lv_mbox.c **** }
 930              		.loc 4 305 0
 931 00b0 00BF     		nop
 932 00b2 1837     		adds	r7, r7, #24
 933              		.cfi_def_cfa_offset 8
 934 00b4 BD46     		mov	sp, r7
 935              		.cfi_def_cfa_register 13
 936              		@ sp needed
 937 00b6 80BD     		pop	{r7, pc}
 938              		.cfi_endproc
 939              	.LFE52:
 940              		.size	lv_mbox_set_style, .-lv_mbox_set_style
 941              		.section	.text.lv_mbox_set_recolor,"ax",%progbits
 942              		.align	2
 943              		.global	lv_mbox_set_recolor
 944              		.thumb
 945              		.thumb_func
 946              		.type	lv_mbox_set_recolor, %function
 947              	lv_mbox_set_recolor:
 948              	.LFB53:
 306:..\..\..\lvgl\version_6.1.2\lvgl\src\lv_objx/lv_mbox.c **** 
 307:..\..\..\lvgl\version_6.1.2\lvgl\src\lv_objx/lv_mbox.c **** /**
 308:..\..\..\lvgl\version_6.1.2\lvgl\src\lv_objx/lv_mbox.c ****  * Set whether recoloring is enabled
 309:..\..\..\lvgl\version_6.1.2\lvgl\src\lv_objx/lv_mbox.c ****  * @param btnm pointer to button matrix object
 310:..\..\..\lvgl\version_6.1.2\lvgl\src\lv_objx/lv_mbox.c ****  * @param en whether recoloring is enabled
 311:..\..\..\lvgl\version_6.1.2\lvgl\src\lv_objx/lv_mbox.c ****  */
 312:..\..\..\lvgl\version_6.1.2\lvgl\src\lv_objx/lv_mbox.c **** void lv_mbox_set_recolor(lv_obj_t * mbox, bool en)
 313:..\..\..\lvgl\version_6.1.2\lvgl\src\lv_objx/lv_mbox.c **** {
 949              		.loc 4 313 0
 950              		.cfi_startproc
 951              		@ args = 0, pretend = 0, frame = 16
 952              		@ frame_needed = 1, uses_anonymous_args = 0
 953 0000 80B5     		push	{r7, lr}
 954              		.cfi_def_cfa_offset 8
 955              		.cfi_offset 7, -8
 956              		.cfi_offset 14, -4
 957 0002 84B0     		sub	sp, sp, #16
 958              		.cfi_def_cfa_offset 24
 959 0004 00AF     		add	r7, sp, #0
 960              		.cfi_def_cfa_register 7
 961 0006 7860     		str	r0, [r7, #4]
 962 0008 0B46     		mov	r3, r1
 963 000a FB70     		strb	r3, [r7, #3]
 314:..\..\..\lvgl\version_6.1.2\lvgl\src\lv_objx/lv_mbox.c ****     LV_ASSERT_OBJ(mbox, LV_OBJX_NAME);
 315:..\..\..\lvgl\version_6.1.2\lvgl\src\lv_objx/lv_mbox.c **** 
 316:..\..\..\lvgl\version_6.1.2\lvgl\src\lv_objx/lv_mbox.c ****     lv_mbox_ext_t * ext = lv_obj_get_ext_attr(mbox);
 964              		.loc 4 316 0
 965 000c 7868     		ldr	r0, [r7, #4]
 966 000e FFF7FEFF 		bl	lv_obj_get_ext_attr
 967 0012 F860     		str	r0, [r7, #12]
 317:..\..\..\lvgl\version_6.1.2\lvgl\src\lv_objx/lv_mbox.c **** 
 318:..\..\..\lvgl\version_6.1.2\lvgl\src\lv_objx/lv_mbox.c ****     if(ext->btnm) lv_btnm_set_recolor(ext->btnm, en);
 968              		.loc 4 318 0
 969 0014 FB68     		ldr	r3, [r7, #12]
 970 0016 9B68     		ldr	r3, [r3, #8]
ARM GAS  C:\Users\tmj32\AppData\Local\Temp\ccSNdAsc.s 			page 30


 971 0018 002B     		cmp	r3, #0
 972 001a 06D0     		beq	.L45
 973              		.loc 4 318 0 is_stmt 0 discriminator 1
 974 001c FB68     		ldr	r3, [r7, #12]
 975 001e 9B68     		ldr	r3, [r3, #8]
 976 0020 FA78     		ldrb	r2, [r7, #3]	@ zero_extendqisi2
 977 0022 1146     		mov	r1, r2
 978 0024 1846     		mov	r0, r3
 979 0026 FFF7FEFF 		bl	lv_btnm_set_recolor
 980              	.L45:
 319:..\..\..\lvgl\version_6.1.2\lvgl\src\lv_objx/lv_mbox.c **** }
 981              		.loc 4 319 0 is_stmt 1
 982 002a 00BF     		nop
 983 002c 1037     		adds	r7, r7, #16
 984              		.cfi_def_cfa_offset 8
 985 002e BD46     		mov	sp, r7
 986              		.cfi_def_cfa_register 13
 987              		@ sp needed
 988 0030 80BD     		pop	{r7, pc}
 989              		.cfi_endproc
 990              	.LFE53:
 991              		.size	lv_mbox_set_recolor, .-lv_mbox_set_recolor
 992 0032 00BF     		.section	.text.lv_mbox_get_text,"ax",%progbits
 993              		.align	2
 994              		.global	lv_mbox_get_text
 995              		.thumb
 996              		.thumb_func
 997              		.type	lv_mbox_get_text, %function
 998              	lv_mbox_get_text:
 999              	.LFB54:
 320:..\..\..\lvgl\version_6.1.2\lvgl\src\lv_objx/lv_mbox.c **** 
 321:..\..\..\lvgl\version_6.1.2\lvgl\src\lv_objx/lv_mbox.c **** /*=====================
 322:..\..\..\lvgl\version_6.1.2\lvgl\src\lv_objx/lv_mbox.c ****  * Getter functions
 323:..\..\..\lvgl\version_6.1.2\lvgl\src\lv_objx/lv_mbox.c ****  *====================*/
 324:..\..\..\lvgl\version_6.1.2\lvgl\src\lv_objx/lv_mbox.c **** 
 325:..\..\..\lvgl\version_6.1.2\lvgl\src\lv_objx/lv_mbox.c **** /**
 326:..\..\..\lvgl\version_6.1.2\lvgl\src\lv_objx/lv_mbox.c ****  * Get the text of the message box
 327:..\..\..\lvgl\version_6.1.2\lvgl\src\lv_objx/lv_mbox.c ****  * @param mbox pointer to a message box object
 328:..\..\..\lvgl\version_6.1.2\lvgl\src\lv_objx/lv_mbox.c ****  * @return pointer to the text of the message box
 329:..\..\..\lvgl\version_6.1.2\lvgl\src\lv_objx/lv_mbox.c ****  */
 330:..\..\..\lvgl\version_6.1.2\lvgl\src\lv_objx/lv_mbox.c **** const char * lv_mbox_get_text(const lv_obj_t * mbox)
 331:..\..\..\lvgl\version_6.1.2\lvgl\src\lv_objx/lv_mbox.c **** {
 1000              		.loc 4 331 0
 1001              		.cfi_startproc
 1002              		@ args = 0, pretend = 0, frame = 16
 1003              		@ frame_needed = 1, uses_anonymous_args = 0
 1004 0000 80B5     		push	{r7, lr}
 1005              		.cfi_def_cfa_offset 8
 1006              		.cfi_offset 7, -8
 1007              		.cfi_offset 14, -4
 1008 0002 84B0     		sub	sp, sp, #16
 1009              		.cfi_def_cfa_offset 24
 1010 0004 00AF     		add	r7, sp, #0
 1011              		.cfi_def_cfa_register 7
 1012 0006 7860     		str	r0, [r7, #4]
 332:..\..\..\lvgl\version_6.1.2\lvgl\src\lv_objx/lv_mbox.c ****     LV_ASSERT_OBJ(mbox, LV_OBJX_NAME);
 333:..\..\..\lvgl\version_6.1.2\lvgl\src\lv_objx/lv_mbox.c **** 
ARM GAS  C:\Users\tmj32\AppData\Local\Temp\ccSNdAsc.s 			page 31


 334:..\..\..\lvgl\version_6.1.2\lvgl\src\lv_objx/lv_mbox.c ****     lv_mbox_ext_t * ext = lv_obj_get_ext_attr(mbox);
 1013              		.loc 4 334 0
 1014 0008 7868     		ldr	r0, [r7, #4]
 1015 000a FFF7FEFF 		bl	lv_obj_get_ext_attr
 1016 000e F860     		str	r0, [r7, #12]
 335:..\..\..\lvgl\version_6.1.2\lvgl\src\lv_objx/lv_mbox.c **** 
 336:..\..\..\lvgl\version_6.1.2\lvgl\src\lv_objx/lv_mbox.c ****     return lv_label_get_text(ext->text);
 1017              		.loc 4 336 0
 1018 0010 FB68     		ldr	r3, [r7, #12]
 1019 0012 5B68     		ldr	r3, [r3, #4]
 1020 0014 1846     		mov	r0, r3
 1021 0016 FFF7FEFF 		bl	lv_label_get_text
 1022 001a 0346     		mov	r3, r0
 337:..\..\..\lvgl\version_6.1.2\lvgl\src\lv_objx/lv_mbox.c **** }
 1023              		.loc 4 337 0
 1024 001c 1846     		mov	r0, r3
 1025 001e 1037     		adds	r7, r7, #16
 1026              		.cfi_def_cfa_offset 8
 1027 0020 BD46     		mov	sp, r7
 1028              		.cfi_def_cfa_register 13
 1029              		@ sp needed
 1030 0022 80BD     		pop	{r7, pc}
 1031              		.cfi_endproc
 1032              	.LFE54:
 1033              		.size	lv_mbox_get_text, .-lv_mbox_get_text
 1034              		.section	.text.lv_mbox_get_active_btn,"ax",%progbits
 1035              		.align	2
 1036              		.global	lv_mbox_get_active_btn
 1037              		.thumb
 1038              		.thumb_func
 1039              		.type	lv_mbox_get_active_btn, %function
 1040              	lv_mbox_get_active_btn:
 1041              	.LFB55:
 338:..\..\..\lvgl\version_6.1.2\lvgl\src\lv_objx/lv_mbox.c **** 
 339:..\..\..\lvgl\version_6.1.2\lvgl\src\lv_objx/lv_mbox.c **** /**
 340:..\..\..\lvgl\version_6.1.2\lvgl\src\lv_objx/lv_mbox.c ****  * Get the index of the lastly "activated" button by the user (pressed, released etc)
 341:..\..\..\lvgl\version_6.1.2\lvgl\src\lv_objx/lv_mbox.c ****  * Useful in the the `event_cb`.
 342:..\..\..\lvgl\version_6.1.2\lvgl\src\lv_objx/lv_mbox.c ****  * @param btnm pointer to button matrix object
 343:..\..\..\lvgl\version_6.1.2\lvgl\src\lv_objx/lv_mbox.c ****  * @return  index of the last released button (LV_BTNM_BTN_NONE: if unset)
 344:..\..\..\lvgl\version_6.1.2\lvgl\src\lv_objx/lv_mbox.c ****  */
 345:..\..\..\lvgl\version_6.1.2\lvgl\src\lv_objx/lv_mbox.c **** uint16_t lv_mbox_get_active_btn(lv_obj_t * mbox)
 346:..\..\..\lvgl\version_6.1.2\lvgl\src\lv_objx/lv_mbox.c **** {
 1042              		.loc 4 346 0
 1043              		.cfi_startproc
 1044              		@ args = 0, pretend = 0, frame = 16
 1045              		@ frame_needed = 1, uses_anonymous_args = 0
 1046 0000 80B5     		push	{r7, lr}
 1047              		.cfi_def_cfa_offset 8
 1048              		.cfi_offset 7, -8
 1049              		.cfi_offset 14, -4
 1050 0002 84B0     		sub	sp, sp, #16
 1051              		.cfi_def_cfa_offset 24
 1052 0004 00AF     		add	r7, sp, #0
 1053              		.cfi_def_cfa_register 7
 1054 0006 7860     		str	r0, [r7, #4]
 347:..\..\..\lvgl\version_6.1.2\lvgl\src\lv_objx/lv_mbox.c ****     LV_ASSERT_OBJ(mbox, LV_OBJX_NAME);
 348:..\..\..\lvgl\version_6.1.2\lvgl\src\lv_objx/lv_mbox.c **** 
ARM GAS  C:\Users\tmj32\AppData\Local\Temp\ccSNdAsc.s 			page 32


 349:..\..\..\lvgl\version_6.1.2\lvgl\src\lv_objx/lv_mbox.c ****     lv_mbox_ext_t * ext = lv_obj_get_ext_attr(mbox);
 1055              		.loc 4 349 0
 1056 0008 7868     		ldr	r0, [r7, #4]
 1057 000a FFF7FEFF 		bl	lv_obj_get_ext_attr
 1058 000e F860     		str	r0, [r7, #12]
 350:..\..\..\lvgl\version_6.1.2\lvgl\src\lv_objx/lv_mbox.c ****     if(ext->btnm)
 1059              		.loc 4 350 0
 1060 0010 FB68     		ldr	r3, [r7, #12]
 1061 0012 9B68     		ldr	r3, [r3, #8]
 1062 0014 002B     		cmp	r3, #0
 1063 0016 06D0     		beq	.L49
 351:..\..\..\lvgl\version_6.1.2\lvgl\src\lv_objx/lv_mbox.c ****         return lv_btnm_get_active_btn(ext->btnm);
 1064              		.loc 4 351 0
 1065 0018 FB68     		ldr	r3, [r7, #12]
 1066 001a 9B68     		ldr	r3, [r3, #8]
 1067 001c 1846     		mov	r0, r3
 1068 001e FFF7FEFF 		bl	lv_btnm_get_active_btn
 1069 0022 0346     		mov	r3, r0
 1070 0024 01E0     		b	.L50
 1071              	.L49:
 352:..\..\..\lvgl\version_6.1.2\lvgl\src\lv_objx/lv_mbox.c ****     else
 353:..\..\..\lvgl\version_6.1.2\lvgl\src\lv_objx/lv_mbox.c ****         return LV_BTNM_BTN_NONE;
 1072              		.loc 4 353 0
 1073 0026 4FF6FF73 		movw	r3, #65535
 1074              	.L50:
 354:..\..\..\lvgl\version_6.1.2\lvgl\src\lv_objx/lv_mbox.c **** }
 1075              		.loc 4 354 0
 1076 002a 1846     		mov	r0, r3
 1077 002c 1037     		adds	r7, r7, #16
 1078              		.cfi_def_cfa_offset 8
 1079 002e BD46     		mov	sp, r7
 1080              		.cfi_def_cfa_register 13
 1081              		@ sp needed
 1082 0030 80BD     		pop	{r7, pc}
 1083              		.cfi_endproc
 1084              	.LFE55:
 1085              		.size	lv_mbox_get_active_btn, .-lv_mbox_get_active_btn
 1086 0032 00BF     		.section	.text.lv_mbox_get_active_btn_text,"ax",%progbits
 1087              		.align	2
 1088              		.global	lv_mbox_get_active_btn_text
 1089              		.thumb
 1090              		.thumb_func
 1091              		.type	lv_mbox_get_active_btn_text, %function
 1092              	lv_mbox_get_active_btn_text:
 1093              	.LFB56:
 355:..\..\..\lvgl\version_6.1.2\lvgl\src\lv_objx/lv_mbox.c **** 
 356:..\..\..\lvgl\version_6.1.2\lvgl\src\lv_objx/lv_mbox.c **** /**
 357:..\..\..\lvgl\version_6.1.2\lvgl\src\lv_objx/lv_mbox.c ****  * Get the text of the lastly "activated" button by the user (pressed, released etc)
 358:..\..\..\lvgl\version_6.1.2\lvgl\src\lv_objx/lv_mbox.c ****  * Useful in the the `event_cb`.
 359:..\..\..\lvgl\version_6.1.2\lvgl\src\lv_objx/lv_mbox.c ****  * @param btnm pointer to button matrix object
 360:..\..\..\lvgl\version_6.1.2\lvgl\src\lv_objx/lv_mbox.c ****  * @return text of the last released button (NULL: if unset)
 361:..\..\..\lvgl\version_6.1.2\lvgl\src\lv_objx/lv_mbox.c ****  */
 362:..\..\..\lvgl\version_6.1.2\lvgl\src\lv_objx/lv_mbox.c **** const char * lv_mbox_get_active_btn_text(lv_obj_t * mbox)
 363:..\..\..\lvgl\version_6.1.2\lvgl\src\lv_objx/lv_mbox.c **** {
 1094              		.loc 4 363 0
 1095              		.cfi_startproc
 1096              		@ args = 0, pretend = 0, frame = 16
ARM GAS  C:\Users\tmj32\AppData\Local\Temp\ccSNdAsc.s 			page 33


 1097              		@ frame_needed = 1, uses_anonymous_args = 0
 1098 0000 80B5     		push	{r7, lr}
 1099              		.cfi_def_cfa_offset 8
 1100              		.cfi_offset 7, -8
 1101              		.cfi_offset 14, -4
 1102 0002 84B0     		sub	sp, sp, #16
 1103              		.cfi_def_cfa_offset 24
 1104 0004 00AF     		add	r7, sp, #0
 1105              		.cfi_def_cfa_register 7
 1106 0006 7860     		str	r0, [r7, #4]
 364:..\..\..\lvgl\version_6.1.2\lvgl\src\lv_objx/lv_mbox.c ****     LV_ASSERT_OBJ(mbox, LV_OBJX_NAME);
 365:..\..\..\lvgl\version_6.1.2\lvgl\src\lv_objx/lv_mbox.c **** 
 366:..\..\..\lvgl\version_6.1.2\lvgl\src\lv_objx/lv_mbox.c ****     lv_mbox_ext_t * ext = lv_obj_get_ext_attr(mbox);
 1107              		.loc 4 366 0
 1108 0008 7868     		ldr	r0, [r7, #4]
 1109 000a FFF7FEFF 		bl	lv_obj_get_ext_attr
 1110 000e F860     		str	r0, [r7, #12]
 367:..\..\..\lvgl\version_6.1.2\lvgl\src\lv_objx/lv_mbox.c ****     if(ext->btnm)
 1111              		.loc 4 367 0
 1112 0010 FB68     		ldr	r3, [r7, #12]
 1113 0012 9B68     		ldr	r3, [r3, #8]
 1114 0014 002B     		cmp	r3, #0
 1115 0016 06D0     		beq	.L52
 368:..\..\..\lvgl\version_6.1.2\lvgl\src\lv_objx/lv_mbox.c ****         return lv_btnm_get_active_btn_text(ext->btnm);
 1116              		.loc 4 368 0
 1117 0018 FB68     		ldr	r3, [r7, #12]
 1118 001a 9B68     		ldr	r3, [r3, #8]
 1119 001c 1846     		mov	r0, r3
 1120 001e FFF7FEFF 		bl	lv_btnm_get_active_btn_text
 1121 0022 0346     		mov	r3, r0
 1122 0024 00E0     		b	.L53
 1123              	.L52:
 369:..\..\..\lvgl\version_6.1.2\lvgl\src\lv_objx/lv_mbox.c ****     else
 370:..\..\..\lvgl\version_6.1.2\lvgl\src\lv_objx/lv_mbox.c ****         return NULL;
 1124              		.loc 4 370 0
 1125 0026 0023     		movs	r3, #0
 1126              	.L53:
 371:..\..\..\lvgl\version_6.1.2\lvgl\src\lv_objx/lv_mbox.c **** }
 1127              		.loc 4 371 0
 1128 0028 1846     		mov	r0, r3
 1129 002a 1037     		adds	r7, r7, #16
 1130              		.cfi_def_cfa_offset 8
 1131 002c BD46     		mov	sp, r7
 1132              		.cfi_def_cfa_register 13
 1133              		@ sp needed
 1134 002e 80BD     		pop	{r7, pc}
 1135              		.cfi_endproc
 1136              	.LFE56:
 1137              		.size	lv_mbox_get_active_btn_text, .-lv_mbox_get_active_btn_text
 1138              		.section	.text.lv_mbox_get_anim_time,"ax",%progbits
 1139              		.align	2
 1140              		.global	lv_mbox_get_anim_time
 1141              		.thumb
 1142              		.thumb_func
 1143              		.type	lv_mbox_get_anim_time, %function
 1144              	lv_mbox_get_anim_time:
 1145              	.LFB57:
ARM GAS  C:\Users\tmj32\AppData\Local\Temp\ccSNdAsc.s 			page 34


 372:..\..\..\lvgl\version_6.1.2\lvgl\src\lv_objx/lv_mbox.c **** 
 373:..\..\..\lvgl\version_6.1.2\lvgl\src\lv_objx/lv_mbox.c **** /**
 374:..\..\..\lvgl\version_6.1.2\lvgl\src\lv_objx/lv_mbox.c ****  * Get the animation duration (close animation time)
 375:..\..\..\lvgl\version_6.1.2\lvgl\src\lv_objx/lv_mbox.c ****  * @param mbox pointer to a message box object
 376:..\..\..\lvgl\version_6.1.2\lvgl\src\lv_objx/lv_mbox.c ****  * @return animation length in  milliseconds (0: no animation)
 377:..\..\..\lvgl\version_6.1.2\lvgl\src\lv_objx/lv_mbox.c ****  */
 378:..\..\..\lvgl\version_6.1.2\lvgl\src\lv_objx/lv_mbox.c **** uint16_t lv_mbox_get_anim_time(const lv_obj_t * mbox)
 379:..\..\..\lvgl\version_6.1.2\lvgl\src\lv_objx/lv_mbox.c **** {
 1146              		.loc 4 379 0
 1147              		.cfi_startproc
 1148              		@ args = 0, pretend = 0, frame = 16
 1149              		@ frame_needed = 1, uses_anonymous_args = 0
 1150 0000 80B5     		push	{r7, lr}
 1151              		.cfi_def_cfa_offset 8
 1152              		.cfi_offset 7, -8
 1153              		.cfi_offset 14, -4
 1154 0002 84B0     		sub	sp, sp, #16
 1155              		.cfi_def_cfa_offset 24
 1156 0004 00AF     		add	r7, sp, #0
 1157              		.cfi_def_cfa_register 7
 1158 0006 7860     		str	r0, [r7, #4]
 380:..\..\..\lvgl\version_6.1.2\lvgl\src\lv_objx/lv_mbox.c ****     LV_ASSERT_OBJ(mbox, LV_OBJX_NAME);
 381:..\..\..\lvgl\version_6.1.2\lvgl\src\lv_objx/lv_mbox.c **** 
 382:..\..\..\lvgl\version_6.1.2\lvgl\src\lv_objx/lv_mbox.c **** #if LV_USE_ANIMATION
 383:..\..\..\lvgl\version_6.1.2\lvgl\src\lv_objx/lv_mbox.c ****     lv_mbox_ext_t * ext = lv_obj_get_ext_attr(mbox);
 1159              		.loc 4 383 0
 1160 0008 7868     		ldr	r0, [r7, #4]
 1161 000a FFF7FEFF 		bl	lv_obj_get_ext_attr
 1162 000e F860     		str	r0, [r7, #12]
 384:..\..\..\lvgl\version_6.1.2\lvgl\src\lv_objx/lv_mbox.c ****     return ext->anim_time;
 1163              		.loc 4 384 0
 1164 0010 FB68     		ldr	r3, [r7, #12]
 1165 0012 9B89     		ldrh	r3, [r3, #12]
 385:..\..\..\lvgl\version_6.1.2\lvgl\src\lv_objx/lv_mbox.c **** #else
 386:..\..\..\lvgl\version_6.1.2\lvgl\src\lv_objx/lv_mbox.c ****     (void)mbox;
 387:..\..\..\lvgl\version_6.1.2\lvgl\src\lv_objx/lv_mbox.c ****     return 0;
 388:..\..\..\lvgl\version_6.1.2\lvgl\src\lv_objx/lv_mbox.c **** #endif
 389:..\..\..\lvgl\version_6.1.2\lvgl\src\lv_objx/lv_mbox.c **** }
 1166              		.loc 4 389 0
 1167 0014 1846     		mov	r0, r3
 1168 0016 1037     		adds	r7, r7, #16
 1169              		.cfi_def_cfa_offset 8
 1170 0018 BD46     		mov	sp, r7
 1171              		.cfi_def_cfa_register 13
 1172              		@ sp needed
 1173 001a 80BD     		pop	{r7, pc}
 1174              		.cfi_endproc
 1175              	.LFE57:
 1176              		.size	lv_mbox_get_anim_time, .-lv_mbox_get_anim_time
 1177              		.section	.text.lv_mbox_get_style,"ax",%progbits
 1178              		.align	2
 1179              		.global	lv_mbox_get_style
 1180              		.thumb
 1181              		.thumb_func
 1182              		.type	lv_mbox_get_style, %function
 1183              	lv_mbox_get_style:
 1184              	.LFB58:
ARM GAS  C:\Users\tmj32\AppData\Local\Temp\ccSNdAsc.s 			page 35


 390:..\..\..\lvgl\version_6.1.2\lvgl\src\lv_objx/lv_mbox.c **** 
 391:..\..\..\lvgl\version_6.1.2\lvgl\src\lv_objx/lv_mbox.c **** /**
 392:..\..\..\lvgl\version_6.1.2\lvgl\src\lv_objx/lv_mbox.c ****  * Get a style of a message box
 393:..\..\..\lvgl\version_6.1.2\lvgl\src\lv_objx/lv_mbox.c ****  * @param mbox pointer to a message box object
 394:..\..\..\lvgl\version_6.1.2\lvgl\src\lv_objx/lv_mbox.c ****  * @param type which style should be get
 395:..\..\..\lvgl\version_6.1.2\lvgl\src\lv_objx/lv_mbox.c ****  * @return style pointer to a style
 396:..\..\..\lvgl\version_6.1.2\lvgl\src\lv_objx/lv_mbox.c ****  */
 397:..\..\..\lvgl\version_6.1.2\lvgl\src\lv_objx/lv_mbox.c **** const lv_style_t * lv_mbox_get_style(const lv_obj_t * mbox, lv_mbox_style_t type)
 398:..\..\..\lvgl\version_6.1.2\lvgl\src\lv_objx/lv_mbox.c **** {
 1185              		.loc 4 398 0
 1186              		.cfi_startproc
 1187              		@ args = 0, pretend = 0, frame = 16
 1188              		@ frame_needed = 1, uses_anonymous_args = 0
 1189 0000 80B5     		push	{r7, lr}
 1190              		.cfi_def_cfa_offset 8
 1191              		.cfi_offset 7, -8
 1192              		.cfi_offset 14, -4
 1193 0002 84B0     		sub	sp, sp, #16
 1194              		.cfi_def_cfa_offset 24
 1195 0004 00AF     		add	r7, sp, #0
 1196              		.cfi_def_cfa_register 7
 1197 0006 7860     		str	r0, [r7, #4]
 1198 0008 0B46     		mov	r3, r1
 1199 000a FB70     		strb	r3, [r7, #3]
 399:..\..\..\lvgl\version_6.1.2\lvgl\src\lv_objx/lv_mbox.c ****     LV_ASSERT_OBJ(mbox, LV_OBJX_NAME);
 400:..\..\..\lvgl\version_6.1.2\lvgl\src\lv_objx/lv_mbox.c **** 
 401:..\..\..\lvgl\version_6.1.2\lvgl\src\lv_objx/lv_mbox.c ****     const lv_style_t * style = NULL;
 1200              		.loc 4 401 0
 1201 000c 0023     		movs	r3, #0
 1202 000e FB60     		str	r3, [r7, #12]
 402:..\..\..\lvgl\version_6.1.2\lvgl\src\lv_objx/lv_mbox.c ****     lv_mbox_ext_t * ext      = lv_obj_get_ext_attr(mbox);
 1203              		.loc 4 402 0
 1204 0010 7868     		ldr	r0, [r7, #4]
 1205 0012 FFF7FEFF 		bl	lv_obj_get_ext_attr
 1206 0016 B860     		str	r0, [r7, #8]
 403:..\..\..\lvgl\version_6.1.2\lvgl\src\lv_objx/lv_mbox.c **** 
 404:..\..\..\lvgl\version_6.1.2\lvgl\src\lv_objx/lv_mbox.c ****     switch(type) {
 1207              		.loc 4 404 0
 1208 0018 FB78     		ldrb	r3, [r7, #3]	@ zero_extendqisi2
 1209 001a 062B     		cmp	r3, #6
 1210 001c 45D8     		bhi	.L57
 1211 001e 01A2     		adr	r2, .L59
 1212 0020 52F823F0 		ldr	pc, [r2, r3, lsl #2]
 1213              		.p2align 2
 1214              	.L59:
 1215 0024 41000000 		.word	.L58+1
 1216 0028 4B000000 		.word	.L60+1
 1217 002c 5B000000 		.word	.L61+1
 1218 0030 6B000000 		.word	.L62+1
 1219 0034 7B000000 		.word	.L63+1
 1220 0038 8B000000 		.word	.L64+1
 1221 003c 9B000000 		.word	.L65+1
 1222              		.p2align 1
 1223              	.L58:
 405:..\..\..\lvgl\version_6.1.2\lvgl\src\lv_objx/lv_mbox.c ****         case LV_MBOX_STYLE_BG: style = lv_obj_get_style(mbox); break;
 1224              		.loc 4 405 0
 1225 0040 7868     		ldr	r0, [r7, #4]
ARM GAS  C:\Users\tmj32\AppData\Local\Temp\ccSNdAsc.s 			page 36


 1226 0042 FFF7FEFF 		bl	lv_obj_get_style
 1227 0046 F860     		str	r0, [r7, #12]
 1228 0048 32E0     		b	.L66
 1229              	.L60:
 406:..\..\..\lvgl\version_6.1.2\lvgl\src\lv_objx/lv_mbox.c ****         case LV_MBOX_STYLE_BTN_BG: style = lv_btnm_get_style(ext->btnm, LV_BTNM_STYLE_BG); break;
 1230              		.loc 4 406 0
 1231 004a BB68     		ldr	r3, [r7, #8]
 1232 004c 9B68     		ldr	r3, [r3, #8]
 1233 004e 0021     		movs	r1, #0
 1234 0050 1846     		mov	r0, r3
 1235 0052 FFF7FEFF 		bl	lv_btnm_get_style
 1236 0056 F860     		str	r0, [r7, #12]
 1237 0058 2AE0     		b	.L66
 1238              	.L61:
 407:..\..\..\lvgl\version_6.1.2\lvgl\src\lv_objx/lv_mbox.c ****         case LV_MBOX_STYLE_BTN_REL: style = lv_btnm_get_style(ext->btnm, LV_BTNM_STYLE_BTN_REL); br
 1239              		.loc 4 407 0
 1240 005a BB68     		ldr	r3, [r7, #8]
 1241 005c 9B68     		ldr	r3, [r3, #8]
 1242 005e 0121     		movs	r1, #1
 1243 0060 1846     		mov	r0, r3
 1244 0062 FFF7FEFF 		bl	lv_btnm_get_style
 1245 0066 F860     		str	r0, [r7, #12]
 1246 0068 22E0     		b	.L66
 1247              	.L62:
 408:..\..\..\lvgl\version_6.1.2\lvgl\src\lv_objx/lv_mbox.c ****         case LV_MBOX_STYLE_BTN_PR: style = lv_btnm_get_style(ext->btnm, LV_BTNM_STYLE_BTN_PR); brea
 1248              		.loc 4 408 0
 1249 006a BB68     		ldr	r3, [r7, #8]
 1250 006c 9B68     		ldr	r3, [r3, #8]
 1251 006e 0221     		movs	r1, #2
 1252 0070 1846     		mov	r0, r3
 1253 0072 FFF7FEFF 		bl	lv_btnm_get_style
 1254 0076 F860     		str	r0, [r7, #12]
 1255 0078 1AE0     		b	.L66
 1256              	.L63:
 409:..\..\..\lvgl\version_6.1.2\lvgl\src\lv_objx/lv_mbox.c ****         case LV_MBOX_STYLE_BTN_TGL_REL: style = lv_btnm_get_style(ext->btnm, LV_BTNM_STYLE_BTN_TGL_
 1257              		.loc 4 409 0
 1258 007a BB68     		ldr	r3, [r7, #8]
 1259 007c 9B68     		ldr	r3, [r3, #8]
 1260 007e 0321     		movs	r1, #3
 1261 0080 1846     		mov	r0, r3
 1262 0082 FFF7FEFF 		bl	lv_btnm_get_style
 1263 0086 F860     		str	r0, [r7, #12]
 1264 0088 12E0     		b	.L66
 1265              	.L64:
 410:..\..\..\lvgl\version_6.1.2\lvgl\src\lv_objx/lv_mbox.c ****         case LV_MBOX_STYLE_BTN_TGL_PR: style = lv_btnm_get_style(ext->btnm, LV_BTNM_STYLE_BTN_TGL_P
 1266              		.loc 4 410 0
 1267 008a BB68     		ldr	r3, [r7, #8]
 1268 008c 9B68     		ldr	r3, [r3, #8]
 1269 008e 0421     		movs	r1, #4
 1270 0090 1846     		mov	r0, r3
 1271 0092 FFF7FEFF 		bl	lv_btnm_get_style
 1272 0096 F860     		str	r0, [r7, #12]
 1273 0098 0AE0     		b	.L66
 1274              	.L65:
 411:..\..\..\lvgl\version_6.1.2\lvgl\src\lv_objx/lv_mbox.c ****         case LV_MBOX_STYLE_BTN_INA: style = lv_btnm_get_style(ext->btnm, LV_BTNM_STYLE_BTN_INA); br
 1275              		.loc 4 411 0
 1276 009a BB68     		ldr	r3, [r7, #8]
ARM GAS  C:\Users\tmj32\AppData\Local\Temp\ccSNdAsc.s 			page 37


 1277 009c 9B68     		ldr	r3, [r3, #8]
 1278 009e 0521     		movs	r1, #5
 1279 00a0 1846     		mov	r0, r3
 1280 00a2 FFF7FEFF 		bl	lv_btnm_get_style
 1281 00a6 F860     		str	r0, [r7, #12]
 1282 00a8 02E0     		b	.L66
 1283              	.L57:
 412:..\..\..\lvgl\version_6.1.2\lvgl\src\lv_objx/lv_mbox.c ****         default: style = NULL; break;
 1284              		.loc 4 412 0
 1285 00aa 0023     		movs	r3, #0
 1286 00ac FB60     		str	r3, [r7, #12]
 1287 00ae 00BF     		nop
 1288              	.L66:
 413:..\..\..\lvgl\version_6.1.2\lvgl\src\lv_objx/lv_mbox.c ****     }
 414:..\..\..\lvgl\version_6.1.2\lvgl\src\lv_objx/lv_mbox.c **** 
 415:..\..\..\lvgl\version_6.1.2\lvgl\src\lv_objx/lv_mbox.c ****     return style;
 1289              		.loc 4 415 0
 1290 00b0 FB68     		ldr	r3, [r7, #12]
 416:..\..\..\lvgl\version_6.1.2\lvgl\src\lv_objx/lv_mbox.c **** }
 1291              		.loc 4 416 0
 1292 00b2 1846     		mov	r0, r3
 1293 00b4 1037     		adds	r7, r7, #16
 1294              		.cfi_def_cfa_offset 8
 1295 00b6 BD46     		mov	sp, r7
 1296              		.cfi_def_cfa_register 13
 1297              		@ sp needed
 1298 00b8 80BD     		pop	{r7, pc}
 1299              		.cfi_endproc
 1300              	.LFE58:
 1301              		.size	lv_mbox_get_style, .-lv_mbox_get_style
 1302 00ba 00BF     		.section	.text.lv_mbox_get_recolor,"ax",%progbits
 1303              		.align	2
 1304              		.global	lv_mbox_get_recolor
 1305              		.thumb
 1306              		.thumb_func
 1307              		.type	lv_mbox_get_recolor, %function
 1308              	lv_mbox_get_recolor:
 1309              	.LFB59:
 417:..\..\..\lvgl\version_6.1.2\lvgl\src\lv_objx/lv_mbox.c **** 
 418:..\..\..\lvgl\version_6.1.2\lvgl\src\lv_objx/lv_mbox.c **** /**
 419:..\..\..\lvgl\version_6.1.2\lvgl\src\lv_objx/lv_mbox.c ****  * Get whether recoloring is enabled
 420:..\..\..\lvgl\version_6.1.2\lvgl\src\lv_objx/lv_mbox.c ****  * @param mbox pointer to a message box object
 421:..\..\..\lvgl\version_6.1.2\lvgl\src\lv_objx/lv_mbox.c ****  * @return whether recoloring is enabled
 422:..\..\..\lvgl\version_6.1.2\lvgl\src\lv_objx/lv_mbox.c ****  */
 423:..\..\..\lvgl\version_6.1.2\lvgl\src\lv_objx/lv_mbox.c **** bool lv_mbox_get_recolor(const lv_obj_t * mbox)
 424:..\..\..\lvgl\version_6.1.2\lvgl\src\lv_objx/lv_mbox.c **** {
 1310              		.loc 4 424 0
 1311              		.cfi_startproc
 1312              		@ args = 0, pretend = 0, frame = 16
 1313              		@ frame_needed = 1, uses_anonymous_args = 0
 1314 0000 80B5     		push	{r7, lr}
 1315              		.cfi_def_cfa_offset 8
 1316              		.cfi_offset 7, -8
 1317              		.cfi_offset 14, -4
 1318 0002 84B0     		sub	sp, sp, #16
 1319              		.cfi_def_cfa_offset 24
 1320 0004 00AF     		add	r7, sp, #0
ARM GAS  C:\Users\tmj32\AppData\Local\Temp\ccSNdAsc.s 			page 38


 1321              		.cfi_def_cfa_register 7
 1322 0006 7860     		str	r0, [r7, #4]
 425:..\..\..\lvgl\version_6.1.2\lvgl\src\lv_objx/lv_mbox.c ****     LV_ASSERT_OBJ(mbox, LV_OBJX_NAME);
 426:..\..\..\lvgl\version_6.1.2\lvgl\src\lv_objx/lv_mbox.c **** 
 427:..\..\..\lvgl\version_6.1.2\lvgl\src\lv_objx/lv_mbox.c ****     lv_mbox_ext_t * ext = lv_obj_get_ext_attr(mbox);
 1323              		.loc 4 427 0
 1324 0008 7868     		ldr	r0, [r7, #4]
 1325 000a FFF7FEFF 		bl	lv_obj_get_ext_attr
 1326 000e F860     		str	r0, [r7, #12]
 428:..\..\..\lvgl\version_6.1.2\lvgl\src\lv_objx/lv_mbox.c **** 
 429:..\..\..\lvgl\version_6.1.2\lvgl\src\lv_objx/lv_mbox.c ****     if(!ext->btnm) return false;
 1327              		.loc 4 429 0
 1328 0010 FB68     		ldr	r3, [r7, #12]
 1329 0012 9B68     		ldr	r3, [r3, #8]
 1330 0014 002B     		cmp	r3, #0
 1331 0016 01D1     		bne	.L69
 1332              		.loc 4 429 0 is_stmt 0 discriminator 1
 1333 0018 0023     		movs	r3, #0
 1334 001a 05E0     		b	.L70
 1335              	.L69:
 430:..\..\..\lvgl\version_6.1.2\lvgl\src\lv_objx/lv_mbox.c **** 
 431:..\..\..\lvgl\version_6.1.2\lvgl\src\lv_objx/lv_mbox.c ****     return lv_btnm_get_recolor(ext->btnm);
 1336              		.loc 4 431 0 is_stmt 1
 1337 001c FB68     		ldr	r3, [r7, #12]
 1338 001e 9B68     		ldr	r3, [r3, #8]
 1339 0020 1846     		mov	r0, r3
 1340 0022 FFF7FEFF 		bl	lv_btnm_get_recolor
 1341 0026 0346     		mov	r3, r0
 1342              	.L70:
 432:..\..\..\lvgl\version_6.1.2\lvgl\src\lv_objx/lv_mbox.c **** }
 1343              		.loc 4 432 0
 1344 0028 1846     		mov	r0, r3
 1345 002a 1037     		adds	r7, r7, #16
 1346              		.cfi_def_cfa_offset 8
 1347 002c BD46     		mov	sp, r7
 1348              		.cfi_def_cfa_register 13
 1349              		@ sp needed
 1350 002e 80BD     		pop	{r7, pc}
 1351              		.cfi_endproc
 1352              	.LFE59:
 1353              		.size	lv_mbox_get_recolor, .-lv_mbox_get_recolor
 1354              		.section	.text.lv_mbox_get_btnm,"ax",%progbits
 1355              		.align	2
 1356              		.global	lv_mbox_get_btnm
 1357              		.thumb
 1358              		.thumb_func
 1359              		.type	lv_mbox_get_btnm, %function
 1360              	lv_mbox_get_btnm:
 1361              	.LFB60:
 433:..\..\..\lvgl\version_6.1.2\lvgl\src\lv_objx/lv_mbox.c **** 
 434:..\..\..\lvgl\version_6.1.2\lvgl\src\lv_objx/lv_mbox.c **** /**
 435:..\..\..\lvgl\version_6.1.2\lvgl\src\lv_objx/lv_mbox.c ****  * Get message box button matrix
 436:..\..\..\lvgl\version_6.1.2\lvgl\src\lv_objx/lv_mbox.c ****  * @param mbox pointer to a message box object
 437:..\..\..\lvgl\version_6.1.2\lvgl\src\lv_objx/lv_mbox.c ****  * @return pointer to button matrix object
 438:..\..\..\lvgl\version_6.1.2\lvgl\src\lv_objx/lv_mbox.c ****  * @remarks return value will be NULL unless `lv_mbox_add_btns` has been already called
 439:..\..\..\lvgl\version_6.1.2\lvgl\src\lv_objx/lv_mbox.c ****  */
 440:..\..\..\lvgl\version_6.1.2\lvgl\src\lv_objx/lv_mbox.c **** lv_obj_t * lv_mbox_get_btnm(lv_obj_t * mbox)
ARM GAS  C:\Users\tmj32\AppData\Local\Temp\ccSNdAsc.s 			page 39


 441:..\..\..\lvgl\version_6.1.2\lvgl\src\lv_objx/lv_mbox.c **** {
 1362              		.loc 4 441 0
 1363              		.cfi_startproc
 1364              		@ args = 0, pretend = 0, frame = 16
 1365              		@ frame_needed = 1, uses_anonymous_args = 0
 1366 0000 80B5     		push	{r7, lr}
 1367              		.cfi_def_cfa_offset 8
 1368              		.cfi_offset 7, -8
 1369              		.cfi_offset 14, -4
 1370 0002 84B0     		sub	sp, sp, #16
 1371              		.cfi_def_cfa_offset 24
 1372 0004 00AF     		add	r7, sp, #0
 1373              		.cfi_def_cfa_register 7
 1374 0006 7860     		str	r0, [r7, #4]
 442:..\..\..\lvgl\version_6.1.2\lvgl\src\lv_objx/lv_mbox.c ****     LV_ASSERT_OBJ(mbox, LV_OBJX_NAME);
 443:..\..\..\lvgl\version_6.1.2\lvgl\src\lv_objx/lv_mbox.c **** 
 444:..\..\..\lvgl\version_6.1.2\lvgl\src\lv_objx/lv_mbox.c ****     lv_mbox_ext_t * ext = lv_obj_get_ext_attr(mbox);
 1375              		.loc 4 444 0
 1376 0008 7868     		ldr	r0, [r7, #4]
 1377 000a FFF7FEFF 		bl	lv_obj_get_ext_attr
 1378 000e F860     		str	r0, [r7, #12]
 445:..\..\..\lvgl\version_6.1.2\lvgl\src\lv_objx/lv_mbox.c ****     return ext->btnm;
 1379              		.loc 4 445 0
 1380 0010 FB68     		ldr	r3, [r7, #12]
 1381 0012 9B68     		ldr	r3, [r3, #8]
 446:..\..\..\lvgl\version_6.1.2\lvgl\src\lv_objx/lv_mbox.c **** }
 1382              		.loc 4 446 0
 1383 0014 1846     		mov	r0, r3
 1384 0016 1037     		adds	r7, r7, #16
 1385              		.cfi_def_cfa_offset 8
 1386 0018 BD46     		mov	sp, r7
 1387              		.cfi_def_cfa_register 13
 1388              		@ sp needed
 1389 001a 80BD     		pop	{r7, pc}
 1390              		.cfi_endproc
 1391              	.LFE60:
 1392              		.size	lv_mbox_get_btnm, .-lv_mbox_get_btnm
 1393              		.section	.rodata
 1394              		.align	2
 1395              	.LC1:
 1396 0008 6C765F6D 		.ascii	"lv_mbos\000"
 1396      626F7300 
 1397              		.section	.text.lv_mbox_signal,"ax",%progbits
 1398              		.align	2
 1399              		.thumb
 1400              		.thumb_func
 1401              		.type	lv_mbox_signal, %function
 1402              	lv_mbox_signal:
 1403              	.LFB61:
 447:..\..\..\lvgl\version_6.1.2\lvgl\src\lv_objx/lv_mbox.c **** 
 448:..\..\..\lvgl\version_6.1.2\lvgl\src\lv_objx/lv_mbox.c **** /**********************
 449:..\..\..\lvgl\version_6.1.2\lvgl\src\lv_objx/lv_mbox.c ****  *   STATIC FUNCTIONS
 450:..\..\..\lvgl\version_6.1.2\lvgl\src\lv_objx/lv_mbox.c ****  **********************/
 451:..\..\..\lvgl\version_6.1.2\lvgl\src\lv_objx/lv_mbox.c **** 
 452:..\..\..\lvgl\version_6.1.2\lvgl\src\lv_objx/lv_mbox.c **** /**
 453:..\..\..\lvgl\version_6.1.2\lvgl\src\lv_objx/lv_mbox.c ****  * Signal function of the message box
 454:..\..\..\lvgl\version_6.1.2\lvgl\src\lv_objx/lv_mbox.c ****  * @param mbox pointer to a message box object
ARM GAS  C:\Users\tmj32\AppData\Local\Temp\ccSNdAsc.s 			page 40


 455:..\..\..\lvgl\version_6.1.2\lvgl\src\lv_objx/lv_mbox.c ****  * @param sign a signal type from lv_signal_t enum
 456:..\..\..\lvgl\version_6.1.2\lvgl\src\lv_objx/lv_mbox.c ****  * @param param pointer to a signal specific variable
 457:..\..\..\lvgl\version_6.1.2\lvgl\src\lv_objx/lv_mbox.c ****  * @return LV_RES_OK: the object is not deleted in the function; LV_RES_INV: the object is deleted
 458:..\..\..\lvgl\version_6.1.2\lvgl\src\lv_objx/lv_mbox.c ****  */
 459:..\..\..\lvgl\version_6.1.2\lvgl\src\lv_objx/lv_mbox.c **** static lv_res_t lv_mbox_signal(lv_obj_t * mbox, lv_signal_t sign, void * param)
 460:..\..\..\lvgl\version_6.1.2\lvgl\src\lv_objx/lv_mbox.c **** {
 1404              		.loc 4 460 0
 1405              		.cfi_startproc
 1406              		@ args = 0, pretend = 0, frame = 32
 1407              		@ frame_needed = 1, uses_anonymous_args = 0
 1408 0000 90B5     		push	{r4, r7, lr}
 1409              		.cfi_def_cfa_offset 12
 1410              		.cfi_offset 4, -12
 1411              		.cfi_offset 7, -8
 1412              		.cfi_offset 14, -4
 1413 0002 89B0     		sub	sp, sp, #36
 1414              		.cfi_def_cfa_offset 48
 1415 0004 00AF     		add	r7, sp, #0
 1416              		.cfi_def_cfa_register 7
 1417 0006 F860     		str	r0, [r7, #12]
 1418 0008 0B46     		mov	r3, r1
 1419 000a 7A60     		str	r2, [r7, #4]
 1420 000c FB72     		strb	r3, [r7, #11]
 461:..\..\..\lvgl\version_6.1.2\lvgl\src\lv_objx/lv_mbox.c ****     lv_res_t res;
 462:..\..\..\lvgl\version_6.1.2\lvgl\src\lv_objx/lv_mbox.c **** 
 463:..\..\..\lvgl\version_6.1.2\lvgl\src\lv_objx/lv_mbox.c ****     /*Translate LV_KEY_UP/DOWN to LV_KEY_LEFT/RIGHT */
 464:..\..\..\lvgl\version_6.1.2\lvgl\src\lv_objx/lv_mbox.c ****     char c_trans = 0;
 1421              		.loc 4 464 0
 1422 000e 0023     		movs	r3, #0
 1423 0010 FB75     		strb	r3, [r7, #23]
 465:..\..\..\lvgl\version_6.1.2\lvgl\src\lv_objx/lv_mbox.c ****     if(sign == LV_SIGNAL_CONTROL) {
 1424              		.loc 4 465 0
 1425 0012 FB7A     		ldrb	r3, [r7, #11]	@ zero_extendqisi2
 1426 0014 122B     		cmp	r3, #18
 1427 0016 0FD1     		bne	.L74
 466:..\..\..\lvgl\version_6.1.2\lvgl\src\lv_objx/lv_mbox.c ****         c_trans = *((char *)param);
 1428              		.loc 4 466 0
 1429 0018 7B68     		ldr	r3, [r7, #4]
 1430 001a 1B78     		ldrb	r3, [r3]	@ zero_extendqisi2
 1431 001c FB75     		strb	r3, [r7, #23]
 467:..\..\..\lvgl\version_6.1.2\lvgl\src\lv_objx/lv_mbox.c ****         if(c_trans == LV_KEY_DOWN) c_trans = LV_KEY_LEFT;
 1432              		.loc 4 467 0
 1433 001e FB7D     		ldrb	r3, [r7, #23]	@ zero_extendqisi2
 1434 0020 122B     		cmp	r3, #18
 1435 0022 01D1     		bne	.L75
 1436              		.loc 4 467 0 is_stmt 0 discriminator 1
 1437 0024 1423     		movs	r3, #20
 1438 0026 FB75     		strb	r3, [r7, #23]
 1439              	.L75:
 468:..\..\..\lvgl\version_6.1.2\lvgl\src\lv_objx/lv_mbox.c ****         if(c_trans == LV_KEY_UP) c_trans = LV_KEY_RIGHT;
 1440              		.loc 4 468 0 is_stmt 1
 1441 0028 FB7D     		ldrb	r3, [r7, #23]	@ zero_extendqisi2
 1442 002a 112B     		cmp	r3, #17
 1443 002c 01D1     		bne	.L76
 1444              		.loc 4 468 0 is_stmt 0 discriminator 1
 1445 002e 1323     		movs	r3, #19
 1446 0030 FB75     		strb	r3, [r7, #23]
ARM GAS  C:\Users\tmj32\AppData\Local\Temp\ccSNdAsc.s 			page 41


 1447              	.L76:
 469:..\..\..\lvgl\version_6.1.2\lvgl\src\lv_objx/lv_mbox.c **** 
 470:..\..\..\lvgl\version_6.1.2\lvgl\src\lv_objx/lv_mbox.c ****         param = &c_trans;
 1448              		.loc 4 470 0 is_stmt 1
 1449 0032 07F11703 		add	r3, r7, #23
 1450 0036 7B60     		str	r3, [r7, #4]
 1451              	.L74:
 471:..\..\..\lvgl\version_6.1.2\lvgl\src\lv_objx/lv_mbox.c ****     }
 472:..\..\..\lvgl\version_6.1.2\lvgl\src\lv_objx/lv_mbox.c **** 
 473:..\..\..\lvgl\version_6.1.2\lvgl\src\lv_objx/lv_mbox.c ****     /* Include the ancient signal function */
 474:..\..\..\lvgl\version_6.1.2\lvgl\src\lv_objx/lv_mbox.c ****     res = ancestor_signal(mbox, sign, param);
 1452              		.loc 4 474 0
 1453 0038 354B     		ldr	r3, .L90
 1454 003a 1B68     		ldr	r3, [r3]
 1455 003c F97A     		ldrb	r1, [r7, #11]	@ zero_extendqisi2
 1456 003e 7A68     		ldr	r2, [r7, #4]
 1457 0040 F868     		ldr	r0, [r7, #12]
 1458 0042 9847     		blx	r3
 1459 0044 0346     		mov	r3, r0
 1460 0046 FB77     		strb	r3, [r7, #31]
 475:..\..\..\lvgl\version_6.1.2\lvgl\src\lv_objx/lv_mbox.c ****     if(res != LV_RES_OK) return res;
 1461              		.loc 4 475 0
 1462 0048 FB7F     		ldrb	r3, [r7, #31]	@ zero_extendqisi2
 1463 004a 012B     		cmp	r3, #1
 1464 004c 01D0     		beq	.L77
 1465              		.loc 4 475 0 is_stmt 0 discriminator 1
 1466 004e FB7F     		ldrb	r3, [r7, #31]	@ zero_extendqisi2
 1467 0050 59E0     		b	.L89
 1468              	.L77:
 476:..\..\..\lvgl\version_6.1.2\lvgl\src\lv_objx/lv_mbox.c ****     if(sign == LV_SIGNAL_GET_TYPE) return lv_obj_handle_get_type_signal(param, LV_OBJX_NAME);
 1469              		.loc 4 476 0 is_stmt 1
 1470 0052 FB7A     		ldrb	r3, [r7, #11]	@ zero_extendqisi2
 1471 0054 072B     		cmp	r3, #7
 1472 0056 05D1     		bne	.L79
 1473              		.loc 4 476 0 is_stmt 0 discriminator 1
 1474 0058 2E49     		ldr	r1, .L90+4
 1475 005a 7868     		ldr	r0, [r7, #4]
 1476 005c FFF7FEFF 		bl	lv_obj_handle_get_type_signal
 1477 0060 0346     		mov	r3, r0
 1478 0062 50E0     		b	.L89
 1479              	.L79:
 477:..\..\..\lvgl\version_6.1.2\lvgl\src\lv_objx/lv_mbox.c **** 
 478:..\..\..\lvgl\version_6.1.2\lvgl\src\lv_objx/lv_mbox.c ****     lv_mbox_ext_t * ext = lv_obj_get_ext_attr(mbox);
 1480              		.loc 4 478 0 is_stmt 1
 1481 0064 F868     		ldr	r0, [r7, #12]
 1482 0066 FFF7FEFF 		bl	lv_obj_get_ext_attr
 1483 006a B861     		str	r0, [r7, #24]
 479:..\..\..\lvgl\version_6.1.2\lvgl\src\lv_objx/lv_mbox.c ****     if(sign == LV_SIGNAL_CORD_CHG) {
 1484              		.loc 4 479 0
 1485 006c FB7A     		ldrb	r3, [r7, #11]	@ zero_extendqisi2
 1486 006e 022B     		cmp	r3, #2
 1487 0070 0ED1     		bne	.L80
 480:..\..\..\lvgl\version_6.1.2\lvgl\src\lv_objx/lv_mbox.c ****         if(lv_obj_get_width(mbox) != lv_area_get_width(param)) {
 1488              		.loc 4 480 0
 1489 0072 F868     		ldr	r0, [r7, #12]
 1490 0074 FFF7FEFF 		bl	lv_obj_get_width
 1491 0078 0346     		mov	r3, r0
ARM GAS  C:\Users\tmj32\AppData\Local\Temp\ccSNdAsc.s 			page 42


 1492 007a 1C46     		mov	r4, r3
 1493 007c 7868     		ldr	r0, [r7, #4]
 1494 007e FFF7FEFF 		bl	lv_area_get_width
 1495 0082 0346     		mov	r3, r0
 1496 0084 9C42     		cmp	r4, r3
 1497 0086 3DD0     		beq	.L82
 481:..\..\..\lvgl\version_6.1.2\lvgl\src\lv_objx/lv_mbox.c ****             mbox_realign(mbox);
 1498              		.loc 4 481 0
 1499 0088 F868     		ldr	r0, [r7, #12]
 1500 008a FFF7FEFF 		bl	mbox_realign
 1501 008e 39E0     		b	.L82
 1502              	.L80:
 482:..\..\..\lvgl\version_6.1.2\lvgl\src\lv_objx/lv_mbox.c ****         }
 483:..\..\..\lvgl\version_6.1.2\lvgl\src\lv_objx/lv_mbox.c ****     } else if(sign == LV_SIGNAL_STYLE_CHG) {
 1503              		.loc 4 483 0
 1504 0090 FB7A     		ldrb	r3, [r7, #11]	@ zero_extendqisi2
 1505 0092 042B     		cmp	r3, #4
 1506 0094 03D1     		bne	.L83
 484:..\..\..\lvgl\version_6.1.2\lvgl\src\lv_objx/lv_mbox.c ****         mbox_realign(mbox);
 1507              		.loc 4 484 0
 1508 0096 F868     		ldr	r0, [r7, #12]
 1509 0098 FFF7FEFF 		bl	mbox_realign
 1510 009c 32E0     		b	.L82
 1511              	.L83:
 485:..\..\..\lvgl\version_6.1.2\lvgl\src\lv_objx/lv_mbox.c ****     } else if(sign == LV_SIGNAL_RELEASED) {
 1512              		.loc 4 485 0
 1513 009e FB7A     		ldrb	r3, [r7, #11]	@ zero_extendqisi2
 1514 00a0 0B2B     		cmp	r3, #11
 1515 00a2 17D1     		bne	.L84
 486:..\..\..\lvgl\version_6.1.2\lvgl\src\lv_objx/lv_mbox.c ****         if(ext->btnm) {
 1516              		.loc 4 486 0
 1517 00a4 BB69     		ldr	r3, [r7, #24]
 1518 00a6 9B68     		ldr	r3, [r3, #8]
 1519 00a8 002B     		cmp	r3, #0
 1520 00aa 2BD0     		beq	.L82
 1521              	.LBB7:
 487:..\..\..\lvgl\version_6.1.2\lvgl\src\lv_objx/lv_mbox.c ****             uint32_t btn_id = lv_btnm_get_active_btn(ext->btnm);
 1522              		.loc 4 487 0
 1523 00ac BB69     		ldr	r3, [r7, #24]
 1524 00ae 9B68     		ldr	r3, [r3, #8]
 1525 00b0 1846     		mov	r0, r3
 1526 00b2 FFF7FEFF 		bl	lv_btnm_get_active_btn
 1527 00b6 0346     		mov	r3, r0
 1528 00b8 3B61     		str	r3, [r7, #16]
 488:..\..\..\lvgl\version_6.1.2\lvgl\src\lv_objx/lv_mbox.c ****             if(btn_id != LV_BTNM_BTN_NONE) lv_event_send(mbox, LV_EVENT_VALUE_CHANGED, &btn_id);
 1529              		.loc 4 488 0
 1530 00ba 3B69     		ldr	r3, [r7, #16]
 1531 00bc 4FF6FF72 		movw	r2, #65535
 1532 00c0 9342     		cmp	r3, r2
 1533 00c2 1FD0     		beq	.L82
 1534              		.loc 4 488 0 is_stmt 0 discriminator 1
 1535 00c4 07F11003 		add	r3, r7, #16
 1536 00c8 1A46     		mov	r2, r3
 1537 00ca 0E21     		movs	r1, #14
 1538 00cc F868     		ldr	r0, [r7, #12]
 1539 00ce FFF7FEFF 		bl	lv_event_send
 1540 00d2 17E0     		b	.L82
ARM GAS  C:\Users\tmj32\AppData\Local\Temp\ccSNdAsc.s 			page 43


 1541              	.L84:
 1542              	.LBE7:
 489:..\..\..\lvgl\version_6.1.2\lvgl\src\lv_objx/lv_mbox.c ****         }
 490:..\..\..\lvgl\version_6.1.2\lvgl\src\lv_objx/lv_mbox.c ****     } else if(sign == LV_SIGNAL_FOCUS || sign == LV_SIGNAL_DEFOCUS || sign == LV_SIGNAL_CONTROL ||
 1543              		.loc 4 490 0 is_stmt 1
 1544 00d4 FB7A     		ldrb	r3, [r7, #11]	@ zero_extendqisi2
 1545 00d6 102B     		cmp	r3, #16
 1546 00d8 08D0     		beq	.L87
 1547              		.loc 4 490 0 is_stmt 0 discriminator 1
 1548 00da FB7A     		ldrb	r3, [r7, #11]	@ zero_extendqisi2
 1549 00dc 112B     		cmp	r3, #17
 1550 00de 05D0     		beq	.L87
 1551              		.loc 4 490 0 discriminator 2
 1552 00e0 FB7A     		ldrb	r3, [r7, #11]	@ zero_extendqisi2
 1553 00e2 122B     		cmp	r3, #18
 1554 00e4 02D0     		beq	.L87
 1555              		.loc 4 490 0 discriminator 3
 1556 00e6 FB7A     		ldrb	r3, [r7, #11]	@ zero_extendqisi2
 1557 00e8 132B     		cmp	r3, #19
 1558 00ea 0BD1     		bne	.L82
 1559              	.L87:
 491:..\..\..\lvgl\version_6.1.2\lvgl\src\lv_objx/lv_mbox.c ****               sign == LV_SIGNAL_GET_EDITABLE) {
 492:..\..\..\lvgl\version_6.1.2\lvgl\src\lv_objx/lv_mbox.c ****         if(ext->btnm) {
 1560              		.loc 4 492 0 is_stmt 1
 1561 00ec BB69     		ldr	r3, [r7, #24]
 1562 00ee 9B68     		ldr	r3, [r3, #8]
 1563 00f0 002B     		cmp	r3, #0
 1564 00f2 07D0     		beq	.L82
 493:..\..\..\lvgl\version_6.1.2\lvgl\src\lv_objx/lv_mbox.c ****             ext->btnm->signal_cb(ext->btnm, sign, param);
 1565              		.loc 4 493 0
 1566 00f4 BB69     		ldr	r3, [r7, #24]
 1567 00f6 9B68     		ldr	r3, [r3, #8]
 1568 00f8 DB69     		ldr	r3, [r3, #28]
 1569 00fa BA69     		ldr	r2, [r7, #24]
 1570 00fc 9068     		ldr	r0, [r2, #8]
 1571 00fe F97A     		ldrb	r1, [r7, #11]	@ zero_extendqisi2
 1572 0100 7A68     		ldr	r2, [r7, #4]
 1573 0102 9847     		blx	r3
 1574              	.L82:
 494:..\..\..\lvgl\version_6.1.2\lvgl\src\lv_objx/lv_mbox.c ****         }
 495:..\..\..\lvgl\version_6.1.2\lvgl\src\lv_objx/lv_mbox.c **** 
 496:..\..\..\lvgl\version_6.1.2\lvgl\src\lv_objx/lv_mbox.c ****         /* The button matrix with ENCODER input supposes it's in a group but in this case it isn't
 497:..\..\..\lvgl\version_6.1.2\lvgl\src\lv_objx/lv_mbox.c ****          * (Only the message box's container) So so some actions here instead*/
 498:..\..\..\lvgl\version_6.1.2\lvgl\src\lv_objx/lv_mbox.c ****         if(sign == LV_SIGNAL_FOCUS) {
 499:..\..\..\lvgl\version_6.1.2\lvgl\src\lv_objx/lv_mbox.c **** #if LV_USE_GROUP
 500:..\..\..\lvgl\version_6.1.2\lvgl\src\lv_objx/lv_mbox.c ****             lv_indev_t * indev         = lv_indev_get_act();
 501:..\..\..\lvgl\version_6.1.2\lvgl\src\lv_objx/lv_mbox.c ****             lv_indev_type_t indev_type = lv_indev_get_type(indev);
 502:..\..\..\lvgl\version_6.1.2\lvgl\src\lv_objx/lv_mbox.c ****             if(indev_type == LV_INDEV_TYPE_ENCODER) {
 503:..\..\..\lvgl\version_6.1.2\lvgl\src\lv_objx/lv_mbox.c ****                 /*In navigation mode don't select any button but in edit mode select the fist*/
 504:..\..\..\lvgl\version_6.1.2\lvgl\src\lv_objx/lv_mbox.c ****                 lv_btnm_ext_t * btnm_ext = lv_obj_get_ext_attr(ext->btnm);
 505:..\..\..\lvgl\version_6.1.2\lvgl\src\lv_objx/lv_mbox.c ****                 if(lv_group_get_editing(lv_obj_get_group(mbox)))
 506:..\..\..\lvgl\version_6.1.2\lvgl\src\lv_objx/lv_mbox.c ****                     btnm_ext->btn_id_pr = 0;
 507:..\..\..\lvgl\version_6.1.2\lvgl\src\lv_objx/lv_mbox.c ****                 else
 508:..\..\..\lvgl\version_6.1.2\lvgl\src\lv_objx/lv_mbox.c ****                     btnm_ext->btn_id_pr = LV_BTNM_BTN_NONE;
 509:..\..\..\lvgl\version_6.1.2\lvgl\src\lv_objx/lv_mbox.c ****             }
 510:..\..\..\lvgl\version_6.1.2\lvgl\src\lv_objx/lv_mbox.c **** #endif
 511:..\..\..\lvgl\version_6.1.2\lvgl\src\lv_objx/lv_mbox.c ****         }
ARM GAS  C:\Users\tmj32\AppData\Local\Temp\ccSNdAsc.s 			page 44


 512:..\..\..\lvgl\version_6.1.2\lvgl\src\lv_objx/lv_mbox.c ****     }
 513:..\..\..\lvgl\version_6.1.2\lvgl\src\lv_objx/lv_mbox.c **** 
 514:..\..\..\lvgl\version_6.1.2\lvgl\src\lv_objx/lv_mbox.c ****     return res;
 1575              		.loc 4 514 0
 1576 0104 FB7F     		ldrb	r3, [r7, #31]	@ zero_extendqisi2
 1577              	.L89:
 515:..\..\..\lvgl\version_6.1.2\lvgl\src\lv_objx/lv_mbox.c **** }
 1578              		.loc 4 515 0 discriminator 2
 1579 0106 1846     		mov	r0, r3
 1580 0108 2437     		adds	r7, r7, #36
 1581              		.cfi_def_cfa_offset 12
 1582 010a BD46     		mov	sp, r7
 1583              		.cfi_def_cfa_register 13
 1584              		@ sp needed
 1585 010c 90BD     		pop	{r4, r7, pc}
 1586              	.L91:
 1587 010e 00BF     		.align	2
 1588              	.L90:
 1589 0110 00000000 		.word	ancestor_signal
 1590 0114 08000000 		.word	.LC1
 1591              		.cfi_endproc
 1592              	.LFE61:
 1593              		.size	lv_mbox_signal, .-lv_mbox_signal
 1594              		.section	.text.mbox_realign,"ax",%progbits
 1595              		.align	2
 1596              		.thumb
 1597              		.thumb_func
 1598              		.type	mbox_realign, %function
 1599              	mbox_realign:
 1600              	.LFB62:
 516:..\..\..\lvgl\version_6.1.2\lvgl\src\lv_objx/lv_mbox.c **** 
 517:..\..\..\lvgl\version_6.1.2\lvgl\src\lv_objx/lv_mbox.c **** /**
 518:..\..\..\lvgl\version_6.1.2\lvgl\src\lv_objx/lv_mbox.c ****  * Resize the button holder to fit
 519:..\..\..\lvgl\version_6.1.2\lvgl\src\lv_objx/lv_mbox.c ****  * @param mbox pointer to message box object
 520:..\..\..\lvgl\version_6.1.2\lvgl\src\lv_objx/lv_mbox.c ****  */
 521:..\..\..\lvgl\version_6.1.2\lvgl\src\lv_objx/lv_mbox.c **** static void mbox_realign(lv_obj_t * mbox)
 522:..\..\..\lvgl\version_6.1.2\lvgl\src\lv_objx/lv_mbox.c **** {
 1601              		.loc 4 522 0
 1602              		.cfi_startproc
 1603              		@ args = 0, pretend = 0, frame = 32
 1604              		@ frame_needed = 1, uses_anonymous_args = 0
 1605 0000 80B5     		push	{r7, lr}
 1606              		.cfi_def_cfa_offset 8
 1607              		.cfi_offset 7, -8
 1608              		.cfi_offset 14, -4
 1609 0002 88B0     		sub	sp, sp, #32
 1610              		.cfi_def_cfa_offset 40
 1611 0004 00AF     		add	r7, sp, #0
 1612              		.cfi_def_cfa_register 7
 1613 0006 7860     		str	r0, [r7, #4]
 523:..\..\..\lvgl\version_6.1.2\lvgl\src\lv_objx/lv_mbox.c ****     lv_mbox_ext_t * ext = lv_obj_get_ext_attr(mbox);
 1614              		.loc 4 523 0
 1615 0008 7868     		ldr	r0, [r7, #4]
 1616 000a FFF7FEFF 		bl	lv_obj_get_ext_attr
 1617 000e F861     		str	r0, [r7, #28]
 524:..\..\..\lvgl\version_6.1.2\lvgl\src\lv_objx/lv_mbox.c **** 
 525:..\..\..\lvgl\version_6.1.2\lvgl\src\lv_objx/lv_mbox.c ****     const lv_style_t * style = lv_mbox_get_style(mbox, LV_MBOX_STYLE_BG);
ARM GAS  C:\Users\tmj32\AppData\Local\Temp\ccSNdAsc.s 			page 45


 1618              		.loc 4 525 0
 1619 0010 0021     		movs	r1, #0
 1620 0012 7868     		ldr	r0, [r7, #4]
 1621 0014 FFF7FEFF 		bl	lv_mbox_get_style
 1622 0018 B861     		str	r0, [r7, #24]
 526:..\..\..\lvgl\version_6.1.2\lvgl\src\lv_objx/lv_mbox.c ****     lv_coord_t w             = lv_obj_get_width(mbox) - style->body.padding.left - style->body.padd
 1623              		.loc 4 526 0
 1624 001a 7868     		ldr	r0, [r7, #4]
 1625 001c FFF7FEFF 		bl	lv_obj_get_width
 1626 0020 0346     		mov	r3, r0
 1627 0022 9AB2     		uxth	r2, r3
 1628 0024 BB69     		ldr	r3, [r7, #24]
 1629 0026 B3F92430 		ldrsh	r3, [r3, #36]
 1630 002a 9BB2     		uxth	r3, r3
 1631 002c D31A     		subs	r3, r2, r3
 1632 002e 9AB2     		uxth	r2, r3
 1633 0030 BB69     		ldr	r3, [r7, #24]
 1634 0032 B3F92630 		ldrsh	r3, [r3, #38]
 1635 0036 9BB2     		uxth	r3, r3
 1636 0038 D31A     		subs	r3, r2, r3
 1637 003a 9BB2     		uxth	r3, r3
 1638 003c FB82     		strh	r3, [r7, #22]	@ movhi
 527:..\..\..\lvgl\version_6.1.2\lvgl\src\lv_objx/lv_mbox.c **** 
 528:..\..\..\lvgl\version_6.1.2\lvgl\src\lv_objx/lv_mbox.c ****     if(ext->text) {
 1639              		.loc 4 528 0
 1640 003e FB69     		ldr	r3, [r7, #28]
 1641 0040 5B68     		ldr	r3, [r3, #4]
 1642 0042 002B     		cmp	r3, #0
 1643 0044 07D0     		beq	.L93
 529:..\..\..\lvgl\version_6.1.2\lvgl\src\lv_objx/lv_mbox.c ****         lv_obj_set_width(ext->text, w);
 1644              		.loc 4 529 0
 1645 0046 FB69     		ldr	r3, [r7, #28]
 1646 0048 5B68     		ldr	r3, [r3, #4]
 1647 004a B7F91620 		ldrsh	r2, [r7, #22]
 1648 004e 1146     		mov	r1, r2
 1649 0050 1846     		mov	r0, r3
 1650 0052 FFF7FEFF 		bl	lv_obj_set_width
 1651              	.L93:
 530:..\..\..\lvgl\version_6.1.2\lvgl\src\lv_objx/lv_mbox.c ****     }
 531:..\..\..\lvgl\version_6.1.2\lvgl\src\lv_objx/lv_mbox.c **** 
 532:..\..\..\lvgl\version_6.1.2\lvgl\src\lv_objx/lv_mbox.c ****     if(ext->btnm) {
 1652              		.loc 4 532 0
 1653 0056 FB69     		ldr	r3, [r7, #28]
 1654 0058 9B68     		ldr	r3, [r3, #8]
 1655 005a 002B     		cmp	r3, #0
 1656 005c 31D0     		beq	.L95
 1657              	.LBB8:
 533:..\..\..\lvgl\version_6.1.2\lvgl\src\lv_objx/lv_mbox.c ****         const lv_style_t * btn_bg_style  = lv_mbox_get_style(mbox, LV_MBOX_STYLE_BTN_BG);
 1658              		.loc 4 533 0
 1659 005e 0121     		movs	r1, #1
 1660 0060 7868     		ldr	r0, [r7, #4]
 1661 0062 FFF7FEFF 		bl	lv_mbox_get_style
 1662 0066 3861     		str	r0, [r7, #16]
 534:..\..\..\lvgl\version_6.1.2\lvgl\src\lv_objx/lv_mbox.c ****         const lv_style_t * btn_rel_style = lv_mbox_get_style(mbox, LV_MBOX_STYLE_BTN_REL);
 1663              		.loc 4 534 0
 1664 0068 0221     		movs	r1, #2
 1665 006a 7868     		ldr	r0, [r7, #4]
ARM GAS  C:\Users\tmj32\AppData\Local\Temp\ccSNdAsc.s 			page 46


 1666 006c FFF7FEFF 		bl	lv_mbox_get_style
 1667 0070 F860     		str	r0, [r7, #12]
 535:..\..\..\lvgl\version_6.1.2\lvgl\src\lv_objx/lv_mbox.c ****         lv_coord_t font_h                = lv_font_get_line_height(btn_rel_style->text.font);
 1668              		.loc 4 535 0
 1669 0072 FB68     		ldr	r3, [r7, #12]
 1670 0074 5B6B     		ldr	r3, [r3, #52]
 1671 0076 1846     		mov	r0, r3
 1672 0078 FFF7FEFF 		bl	lv_font_get_line_height
 1673 007c 0346     		mov	r3, r0
 1674 007e 7B81     		strh	r3, [r7, #10]	@ movhi
 536:..\..\..\lvgl\version_6.1.2\lvgl\src\lv_objx/lv_mbox.c ****         lv_obj_set_size(ext->btnm, w,
 1675              		.loc 4 536 0
 1676 0080 FB69     		ldr	r3, [r7, #28]
 1677 0082 9868     		ldr	r0, [r3, #8]
 537:..\..\..\lvgl\version_6.1.2\lvgl\src\lv_objx/lv_mbox.c ****                         font_h + btn_rel_style->body.padding.top + btn_rel_style->body.padding.bott
 1678              		.loc 4 537 0
 1679 0084 FB68     		ldr	r3, [r7, #12]
 1680 0086 B3F92030 		ldrsh	r3, [r3, #32]
 536:..\..\..\lvgl\version_6.1.2\lvgl\src\lv_objx/lv_mbox.c ****         lv_obj_set_size(ext->btnm, w,
 1681              		.loc 4 536 0
 1682 008a 9AB2     		uxth	r2, r3
 1683 008c 7B89     		ldrh	r3, [r7, #10]
 1684 008e 1344     		add	r3, r3, r2
 1685 0090 9AB2     		uxth	r2, r3
 1686              		.loc 4 537 0
 1687 0092 FB68     		ldr	r3, [r7, #12]
 1688 0094 B3F92230 		ldrsh	r3, [r3, #34]
 536:..\..\..\lvgl\version_6.1.2\lvgl\src\lv_objx/lv_mbox.c ****         lv_obj_set_size(ext->btnm, w,
 1689              		.loc 4 536 0
 1690 0098 9BB2     		uxth	r3, r3
 1691 009a 1344     		add	r3, r3, r2
 1692 009c 9AB2     		uxth	r2, r3
 538:..\..\..\lvgl\version_6.1.2\lvgl\src\lv_objx/lv_mbox.c ****                             btn_bg_style->body.padding.top + btn_bg_style->body.padding.bottom);
 1693              		.loc 4 538 0
 1694 009e 3B69     		ldr	r3, [r7, #16]
 1695 00a0 B3F92030 		ldrsh	r3, [r3, #32]
 536:..\..\..\lvgl\version_6.1.2\lvgl\src\lv_objx/lv_mbox.c ****         lv_obj_set_size(ext->btnm, w,
 1696              		.loc 4 536 0
 1697 00a4 9BB2     		uxth	r3, r3
 1698 00a6 1344     		add	r3, r3, r2
 1699 00a8 9AB2     		uxth	r2, r3
 1700              		.loc 4 538 0
 1701 00aa 3B69     		ldr	r3, [r7, #16]
 1702 00ac B3F92230 		ldrsh	r3, [r3, #34]
 536:..\..\..\lvgl\version_6.1.2\lvgl\src\lv_objx/lv_mbox.c ****         lv_obj_set_size(ext->btnm, w,
 1703              		.loc 4 536 0
 1704 00b0 9BB2     		uxth	r3, r3
 1705 00b2 1344     		add	r3, r3, r2
 1706 00b4 9BB2     		uxth	r3, r3
 1707 00b6 1AB2     		sxth	r2, r3
 1708 00b8 B7F91630 		ldrsh	r3, [r7, #22]
 1709 00bc 1946     		mov	r1, r3
 1710 00be FFF7FEFF 		bl	lv_obj_set_size
 1711              	.L95:
 1712              	.LBE8:
 539:..\..\..\lvgl\version_6.1.2\lvgl\src\lv_objx/lv_mbox.c ****     }
 540:..\..\..\lvgl\version_6.1.2\lvgl\src\lv_objx/lv_mbox.c **** }
ARM GAS  C:\Users\tmj32\AppData\Local\Temp\ccSNdAsc.s 			page 47


 1713              		.loc 4 540 0
 1714 00c2 00BF     		nop
 1715 00c4 2037     		adds	r7, r7, #32
 1716              		.cfi_def_cfa_offset 8
 1717 00c6 BD46     		mov	sp, r7
 1718              		.cfi_def_cfa_register 13
 1719              		@ sp needed
 1720 00c8 80BD     		pop	{r7, pc}
 1721              		.cfi_endproc
 1722              	.LFE62:
 1723              		.size	mbox_realign, .-mbox_realign
 1724 00ca 00BF     		.section	.text.lv_mbox_close_ready_cb,"ax",%progbits
 1725              		.align	2
 1726              		.thumb
 1727              		.thumb_func
 1728              		.type	lv_mbox_close_ready_cb, %function
 1729              	lv_mbox_close_ready_cb:
 1730              	.LFB63:
 541:..\..\..\lvgl\version_6.1.2\lvgl\src\lv_objx/lv_mbox.c **** 
 542:..\..\..\lvgl\version_6.1.2\lvgl\src\lv_objx/lv_mbox.c **** #if LV_USE_ANIMATION
 543:..\..\..\lvgl\version_6.1.2\lvgl\src\lv_objx/lv_mbox.c **** static void lv_mbox_close_ready_cb(lv_anim_t * a)
 544:..\..\..\lvgl\version_6.1.2\lvgl\src\lv_objx/lv_mbox.c **** {
 1731              		.loc 4 544 0
 1732              		.cfi_startproc
 1733              		@ args = 0, pretend = 0, frame = 8
 1734              		@ frame_needed = 1, uses_anonymous_args = 0
 1735 0000 80B5     		push	{r7, lr}
 1736              		.cfi_def_cfa_offset 8
 1737              		.cfi_offset 7, -8
 1738              		.cfi_offset 14, -4
 1739 0002 82B0     		sub	sp, sp, #8
 1740              		.cfi_def_cfa_offset 16
 1741 0004 00AF     		add	r7, sp, #0
 1742              		.cfi_def_cfa_register 7
 1743 0006 7860     		str	r0, [r7, #4]
 545:..\..\..\lvgl\version_6.1.2\lvgl\src\lv_objx/lv_mbox.c ****     lv_obj_del(a->var);
 1744              		.loc 4 545 0
 1745 0008 7B68     		ldr	r3, [r7, #4]
 1746 000a 1B68     		ldr	r3, [r3]
 1747 000c 1846     		mov	r0, r3
 1748 000e FFF7FEFF 		bl	lv_obj_del
 546:..\..\..\lvgl\version_6.1.2\lvgl\src\lv_objx/lv_mbox.c **** }
 1749              		.loc 4 546 0
 1750 0012 00BF     		nop
 1751 0014 0837     		adds	r7, r7, #8
 1752              		.cfi_def_cfa_offset 8
 1753 0016 BD46     		mov	sp, r7
 1754              		.cfi_def_cfa_register 13
 1755              		@ sp needed
 1756 0018 80BD     		pop	{r7, pc}
 1757              		.cfi_endproc
 1758              	.LFE63:
 1759              		.size	lv_mbox_close_ready_cb, .-lv_mbox_close_ready_cb
 1760 001a 00BF     		.section	.text.lv_mbox_default_event_cb,"ax",%progbits
 1761              		.align	2
 1762              		.thumb
 1763              		.thumb_func
ARM GAS  C:\Users\tmj32\AppData\Local\Temp\ccSNdAsc.s 			page 48


 1764              		.type	lv_mbox_default_event_cb, %function
 1765              	lv_mbox_default_event_cb:
 1766              	.LFB64:
 547:..\..\..\lvgl\version_6.1.2\lvgl\src\lv_objx/lv_mbox.c **** #endif
 548:..\..\..\lvgl\version_6.1.2\lvgl\src\lv_objx/lv_mbox.c **** 
 549:..\..\..\lvgl\version_6.1.2\lvgl\src\lv_objx/lv_mbox.c **** static void lv_mbox_default_event_cb(lv_obj_t * mbox, lv_event_t event)
 550:..\..\..\lvgl\version_6.1.2\lvgl\src\lv_objx/lv_mbox.c **** {
 1767              		.loc 4 550 0
 1768              		.cfi_startproc
 1769              		@ args = 0, pretend = 0, frame = 16
 1770              		@ frame_needed = 1, uses_anonymous_args = 0
 1771 0000 80B5     		push	{r7, lr}
 1772              		.cfi_def_cfa_offset 8
 1773              		.cfi_offset 7, -8
 1774              		.cfi_offset 14, -4
 1775 0002 84B0     		sub	sp, sp, #16
 1776              		.cfi_def_cfa_offset 24
 1777 0004 00AF     		add	r7, sp, #0
 1778              		.cfi_def_cfa_register 7
 1779 0006 7860     		str	r0, [r7, #4]
 1780 0008 0B46     		mov	r3, r1
 1781 000a FB70     		strb	r3, [r7, #3]
 551:..\..\..\lvgl\version_6.1.2\lvgl\src\lv_objx/lv_mbox.c ****     if(event != LV_EVENT_VALUE_CHANGED) return;
 1782              		.loc 4 551 0
 1783 000c FB78     		ldrb	r3, [r7, #3]	@ zero_extendqisi2
 1784 000e 0E2B     		cmp	r3, #14
 1785 0010 0ED1     		bne	.L101
 552:..\..\..\lvgl\version_6.1.2\lvgl\src\lv_objx/lv_mbox.c **** 
 553:..\..\..\lvgl\version_6.1.2\lvgl\src\lv_objx/lv_mbox.c ****     uint32_t btn_id = lv_mbox_get_active_btn(mbox);
 1786              		.loc 4 553 0
 1787 0012 7868     		ldr	r0, [r7, #4]
 1788 0014 FFF7FEFF 		bl	lv_mbox_get_active_btn
 1789 0018 0346     		mov	r3, r0
 1790 001a FB60     		str	r3, [r7, #12]
 554:..\..\..\lvgl\version_6.1.2\lvgl\src\lv_objx/lv_mbox.c ****     if(btn_id == LV_BTNM_BTN_NONE) return;
 1791              		.loc 4 554 0
 1792 001c FB68     		ldr	r3, [r7, #12]
 1793 001e 4FF6FF72 		movw	r2, #65535
 1794 0022 9342     		cmp	r3, r2
 1795 0024 06D0     		beq	.L102
 555:..\..\..\lvgl\version_6.1.2\lvgl\src\lv_objx/lv_mbox.c **** 
 556:..\..\..\lvgl\version_6.1.2\lvgl\src\lv_objx/lv_mbox.c ****     lv_mbox_start_auto_close(mbox, 0);
 1796              		.loc 4 556 0
 1797 0026 0021     		movs	r1, #0
 1798 0028 7868     		ldr	r0, [r7, #4]
 1799 002a FFF7FEFF 		bl	lv_mbox_start_auto_close
 1800 002e 02E0     		b	.L97
 1801              	.L101:
 551:..\..\..\lvgl\version_6.1.2\lvgl\src\lv_objx/lv_mbox.c **** 
 1802              		.loc 4 551 0
 1803 0030 00BF     		nop
 1804 0032 00E0     		b	.L97
 1805              	.L102:
 554:..\..\..\lvgl\version_6.1.2\lvgl\src\lv_objx/lv_mbox.c ****     if(btn_id == LV_BTNM_BTN_NONE) return;
 1806              		.loc 4 554 0
 1807 0034 00BF     		nop
 1808              	.L97:
ARM GAS  C:\Users\tmj32\AppData\Local\Temp\ccSNdAsc.s 			page 49


 557:..\..\..\lvgl\version_6.1.2\lvgl\src\lv_objx/lv_mbox.c **** }
 1809              		.loc 4 557 0
 1810 0036 1037     		adds	r7, r7, #16
 1811              		.cfi_def_cfa_offset 8
 1812 0038 BD46     		mov	sp, r7
 1813              		.cfi_def_cfa_register 13
 1814              		@ sp needed
 1815 003a 80BD     		pop	{r7, pc}
 1816              		.cfi_endproc
 1817              	.LFE64:
 1818              		.size	lv_mbox_default_event_cb, .-lv_mbox_default_event_cb
 1819              		.section	.text.lv_mbox_btnm_event_cb,"ax",%progbits
 1820              		.align	2
 1821              		.thumb
 1822              		.thumb_func
 1823              		.type	lv_mbox_btnm_event_cb, %function
 1824              	lv_mbox_btnm_event_cb:
 1825              	.LFB65:
 558:..\..\..\lvgl\version_6.1.2\lvgl\src\lv_objx/lv_mbox.c **** 
 559:..\..\..\lvgl\version_6.1.2\lvgl\src\lv_objx/lv_mbox.c **** static void lv_mbox_btnm_event_cb(lv_obj_t * btnm, lv_event_t event)
 560:..\..\..\lvgl\version_6.1.2\lvgl\src\lv_objx/lv_mbox.c **** {
 1826              		.loc 4 560 0
 1827              		.cfi_startproc
 1828              		@ args = 0, pretend = 0, frame = 16
 1829              		@ frame_needed = 1, uses_anonymous_args = 0
 1830 0000 80B5     		push	{r7, lr}
 1831              		.cfi_def_cfa_offset 8
 1832              		.cfi_offset 7, -8
 1833              		.cfi_offset 14, -4
 1834 0002 84B0     		sub	sp, sp, #16
 1835              		.cfi_def_cfa_offset 24
 1836 0004 00AF     		add	r7, sp, #0
 1837              		.cfi_def_cfa_register 7
 1838 0006 7860     		str	r0, [r7, #4]
 1839 0008 0B46     		mov	r3, r1
 1840 000a FB70     		strb	r3, [r7, #3]
 561:..\..\..\lvgl\version_6.1.2\lvgl\src\lv_objx/lv_mbox.c ****     lv_obj_t * mbox = lv_obj_get_parent(btnm);
 1841              		.loc 4 561 0
 1842 000c 7868     		ldr	r0, [r7, #4]
 1843 000e FFF7FEFF 		bl	lv_obj_get_parent
 1844 0012 F860     		str	r0, [r7, #12]
 562:..\..\..\lvgl\version_6.1.2\lvgl\src\lv_objx/lv_mbox.c **** 
 563:..\..\..\lvgl\version_6.1.2\lvgl\src\lv_objx/lv_mbox.c ****     /*clang-format off*/
 564:..\..\..\lvgl\version_6.1.2\lvgl\src\lv_objx/lv_mbox.c ****     if(event == LV_EVENT_PRESSED || event == LV_EVENT_PRESSING || event == LV_EVENT_PRESS_LOST ||
 1845              		.loc 4 564 0
 1846 0014 FB78     		ldrb	r3, [r7, #3]	@ zero_extendqisi2
 1847 0016 002B     		cmp	r3, #0
 1848 0018 17D0     		beq	.L104
 1849              		.loc 4 564 0 is_stmt 0 discriminator 1
 1850 001a FB78     		ldrb	r3, [r7, #3]	@ zero_extendqisi2
 1851 001c 012B     		cmp	r3, #1
 1852 001e 14D0     		beq	.L104
 1853              		.loc 4 564 0 discriminator 2
 1854 0020 FB78     		ldrb	r3, [r7, #3]	@ zero_extendqisi2
 1855 0022 022B     		cmp	r3, #2
 1856 0024 11D0     		beq	.L104
 1857              		.loc 4 564 0 discriminator 3
ARM GAS  C:\Users\tmj32\AppData\Local\Temp\ccSNdAsc.s 			page 50


 1858 0026 FB78     		ldrb	r3, [r7, #3]	@ zero_extendqisi2
 1859 0028 072B     		cmp	r3, #7
 1860 002a 0ED0     		beq	.L104
 565:..\..\..\lvgl\version_6.1.2\lvgl\src\lv_objx/lv_mbox.c ****        event == LV_EVENT_RELEASED || event == LV_EVENT_SHORT_CLICKED || event == LV_EVENT_CLICKED |
 1861              		.loc 4 565 0 is_stmt 1
 1862 002c FB78     		ldrb	r3, [r7, #3]	@ zero_extendqisi2
 1863 002e 032B     		cmp	r3, #3
 1864 0030 0BD0     		beq	.L104
 1865              		.loc 4 565 0 is_stmt 0 discriminator 1
 1866 0032 FB78     		ldrb	r3, [r7, #3]	@ zero_extendqisi2
 1867 0034 062B     		cmp	r3, #6
 1868 0036 08D0     		beq	.L104
 1869              		.loc 4 565 0 discriminator 2
 1870 0038 FB78     		ldrb	r3, [r7, #3]	@ zero_extendqisi2
 1871 003a 042B     		cmp	r3, #4
 1872 003c 05D0     		beq	.L104
 566:..\..\..\lvgl\version_6.1.2\lvgl\src\lv_objx/lv_mbox.c ****        event == LV_EVENT_LONG_PRESSED || event == LV_EVENT_LONG_PRESSED_REPEAT ||
 1873              		.loc 4 566 0 is_stmt 1
 1874 003e FB78     		ldrb	r3, [r7, #3]	@ zero_extendqisi2
 1875 0040 052B     		cmp	r3, #5
 1876 0042 02D0     		beq	.L104
 1877              		.loc 4 566 0 is_stmt 0 discriminator 1
 1878 0044 FB78     		ldrb	r3, [r7, #3]	@ zero_extendqisi2
 1879 0046 0E2B     		cmp	r3, #14
 1880 0048 07D1     		bne	.L106
 1881              	.L104:
 567:..\..\..\lvgl\version_6.1.2\lvgl\src\lv_objx/lv_mbox.c ****        event == LV_EVENT_VALUE_CHANGED) {
 568:..\..\..\lvgl\version_6.1.2\lvgl\src\lv_objx/lv_mbox.c ****         lv_event_send(mbox, event, lv_event_get_data());
 1882              		.loc 4 568 0 is_stmt 1
 1883 004a FFF7FEFF 		bl	lv_event_get_data
 1884 004e 0246     		mov	r2, r0
 1885 0050 FB78     		ldrb	r3, [r7, #3]	@ zero_extendqisi2
 1886 0052 1946     		mov	r1, r3
 1887 0054 F868     		ldr	r0, [r7, #12]
 1888 0056 FFF7FEFF 		bl	lv_event_send
 1889              	.L106:
 569:..\..\..\lvgl\version_6.1.2\lvgl\src\lv_objx/lv_mbox.c ****     }
 570:..\..\..\lvgl\version_6.1.2\lvgl\src\lv_objx/lv_mbox.c ****     /*clang-format on*/
 571:..\..\..\lvgl\version_6.1.2\lvgl\src\lv_objx/lv_mbox.c **** }
 1890              		.loc 4 571 0
 1891 005a 00BF     		nop
 1892 005c 1037     		adds	r7, r7, #16
 1893              		.cfi_def_cfa_offset 8
 1894 005e BD46     		mov	sp, r7
 1895              		.cfi_def_cfa_register 13
 1896              		@ sp needed
 1897 0060 80BD     		pop	{r7, pc}
 1898              		.cfi_endproc
 1899              	.LFE65:
 1900              		.size	lv_mbox_btnm_event_cb, .-lv_mbox_btnm_event_cb
 1901 0062 00BF     		.text
 1902              	.Letext0:
 1903              		.file 5 "c:\\program files (x86)\\cypress\\psoc creator\\4.3\\psoc creator\\import\\gnu\\arm\\5.4.
 1904              		.file 6 "c:\\program files (x86)\\cypress\\psoc creator\\4.3\\psoc creator\\import\\gnu\\arm\\5.4.
 1905              		.file 7 "..\\..\\..\\lvgl\\version_6.1.2\\lvgl\\src\\lv_objx\\../../../lv_conf.h"
 1906              		.file 8 "..\\..\\..\\lvgl\\version_6.1.2\\lvgl\\src\\lv_objx\\../lv_core/../lv_misc/lv_color.h"
 1907              		.file 9 "..\\..\\..\\lvgl\\version_6.1.2\\lvgl\\src\\lv_objx\\../lv_core/../lv_misc/lv_anim.h"
ARM GAS  C:\Users\tmj32\AppData\Local\Temp\ccSNdAsc.s 			page 51


 1908              		.file 10 "..\\..\\..\\lvgl\\version_6.1.2\\lvgl\\src\\lv_objx\\../lv_core/lv_style.h"
 1909              		.file 11 "..\\..\\..\\lvgl\\version_6.1.2\\lvgl\\src\\lv_objx\\../lv_core/../lv_misc/lv_types.h"
 1910              		.file 12 "..\\..\\..\\lvgl\\version_6.1.2\\lvgl\\src\\lv_objx\\../lv_core/../lv_misc/lv_ll.h"
 1911              		.file 13 "..\\..\\..\\lvgl\\version_6.1.2\\lvgl\\src\\lv_objx\\../lv_core/../lv_misc/lv_bidi.h"
 1912              		.file 14 "..\\..\\..\\lvgl\\version_6.1.2\\lvgl\\src\\lv_objx\\../lv_core/lv_obj.h"
 1913              		.file 15 "..\\..\\..\\lvgl\\version_6.1.2\\lvgl\\src\\lv_objx\\lv_label.h"
 1914              		.file 16 "..\\..\\..\\lvgl\\version_6.1.2\\lvgl\\src\\lv_objx\\../lv_core/../lv_core/lv_group.h"
 1915              		.file 17 "..\\..\\..\\lvgl\\version_6.1.2\\lvgl\\src\\lv_objx\\lv_btn.h"
 1916              		.file 18 "..\\..\\..\\lvgl\\version_6.1.2\\lvgl\\src\\lv_objx\\lv_btnm.h"
 1917              		.file 19 "..\\..\\..\\lvgl\\version_6.1.2\\lvgl\\src\\lv_objx\\lv_mbox.h"
 1918              		.file 20 "..\\..\\..\\lvgl\\version_6.1.2\\lvgl\\src\\lv_objx\\../lv_themes/lv_theme.h"
 1919              		.section	.debug_info,"",%progbits
 1920              	.Ldebug_info0:
 1921 0000 531C0000 		.4byte	0x1c53
 1922 0004 0400     		.2byte	0x4
 1923 0006 00000000 		.4byte	.Ldebug_abbrev0
 1924 000a 04       		.byte	0x4
 1925 000b 01       		.uleb128 0x1
 1926 000c 3A0F0000 		.4byte	.LASF362
 1927 0010 0C       		.byte	0xc
 1928 0011 CC0E0000 		.4byte	.LASF363
 1929 0015 0C090000 		.4byte	.LASF364
 1930 0019 00000000 		.4byte	.Ldebug_ranges0+0
 1931 001d 00000000 		.4byte	0
 1932 0021 00000000 		.4byte	.Ldebug_line0
 1933 0025 02       		.uleb128 0x2
 1934 0026 FB0D0000 		.4byte	.LASF0
 1935 002a 05       		.byte	0x5
 1936 002b 1B       		.byte	0x1b
 1937 002c 30000000 		.4byte	0x30
 1938 0030 03       		.uleb128 0x3
 1939 0031 01       		.byte	0x1
 1940 0032 06       		.byte	0x6
 1941 0033 89030000 		.4byte	.LASF2
 1942 0037 02       		.uleb128 0x2
 1943 0038 2F020000 		.4byte	.LASF1
 1944 003c 05       		.byte	0x5
 1945 003d 1D       		.byte	0x1d
 1946 003e 42000000 		.4byte	0x42
 1947 0042 03       		.uleb128 0x3
 1948 0043 01       		.byte	0x1
 1949 0044 08       		.byte	0x8
 1950 0045 32040000 		.4byte	.LASF3
 1951 0049 02       		.uleb128 0x2
 1952 004a 0A100000 		.4byte	.LASF4
 1953 004e 05       		.byte	0x5
 1954 004f 29       		.byte	0x29
 1955 0050 54000000 		.4byte	0x54
 1956 0054 03       		.uleb128 0x3
 1957 0055 02       		.byte	0x2
 1958 0056 05       		.byte	0x5
 1959 0057 4E110000 		.4byte	.LASF5
 1960 005b 02       		.uleb128 0x2
 1961 005c 21050000 		.4byte	.LASF6
 1962 0060 05       		.byte	0x5
 1963 0061 2B       		.byte	0x2b
 1964 0062 66000000 		.4byte	0x66
ARM GAS  C:\Users\tmj32\AppData\Local\Temp\ccSNdAsc.s 			page 52


 1965 0066 03       		.uleb128 0x3
 1966 0067 02       		.byte	0x2
 1967 0068 07       		.byte	0x7
 1968 0069 36130000 		.4byte	.LASF7
 1969 006d 02       		.uleb128 0x2
 1970 006e A2130000 		.4byte	.LASF8
 1971 0072 05       		.byte	0x5
 1972 0073 3F       		.byte	0x3f
 1973 0074 78000000 		.4byte	0x78
 1974 0078 03       		.uleb128 0x3
 1975 0079 04       		.byte	0x4
 1976 007a 05       		.byte	0x5
 1977 007b B2020000 		.4byte	.LASF9
 1978 007f 02       		.uleb128 0x2
 1979 0080 DC080000 		.4byte	.LASF10
 1980 0084 05       		.byte	0x5
 1981 0085 41       		.byte	0x41
 1982 0086 8A000000 		.4byte	0x8a
 1983 008a 03       		.uleb128 0x3
 1984 008b 04       		.byte	0x4
 1985 008c 07       		.byte	0x7
 1986 008d AF070000 		.4byte	.LASF11
 1987 0091 03       		.uleb128 0x3
 1988 0092 08       		.byte	0x8
 1989 0093 05       		.byte	0x5
 1990 0094 FE080000 		.4byte	.LASF12
 1991 0098 03       		.uleb128 0x3
 1992 0099 08       		.byte	0x8
 1993 009a 07       		.byte	0x7
 1994 009b 280E0000 		.4byte	.LASF13
 1995 009f 04       		.uleb128 0x4
 1996 00a0 04       		.byte	0x4
 1997 00a1 05       		.byte	0x5
 1998 00a2 696E7400 		.ascii	"int\000"
 1999 00a6 03       		.uleb128 0x3
 2000 00a7 04       		.byte	0x4
 2001 00a8 07       		.byte	0x7
 2002 00a9 D40A0000 		.4byte	.LASF14
 2003 00ad 02       		.uleb128 0x2
 2004 00ae 00000000 		.4byte	.LASF15
 2005 00b2 06       		.byte	0x6
 2006 00b3 14       		.byte	0x14
 2007 00b4 25000000 		.4byte	0x25
 2008 00b8 02       		.uleb128 0x2
 2009 00b9 95030000 		.4byte	.LASF16
 2010 00bd 06       		.byte	0x6
 2011 00be 18       		.byte	0x18
 2012 00bf 37000000 		.4byte	0x37
 2013 00c3 02       		.uleb128 0x2
 2014 00c4 8A110000 		.4byte	.LASF17
 2015 00c8 06       		.byte	0x6
 2016 00c9 20       		.byte	0x20
 2017 00ca 49000000 		.4byte	0x49
 2018 00ce 02       		.uleb128 0x2
 2019 00cf 6B0E0000 		.4byte	.LASF18
 2020 00d3 06       		.byte	0x6
 2021 00d4 24       		.byte	0x24
ARM GAS  C:\Users\tmj32\AppData\Local\Temp\ccSNdAsc.s 			page 53


 2022 00d5 5B000000 		.4byte	0x5b
 2023 00d9 02       		.uleb128 0x2
 2024 00da B4000000 		.4byte	.LASF19
 2025 00de 06       		.byte	0x6
 2026 00df 2C       		.byte	0x2c
 2027 00e0 6D000000 		.4byte	0x6d
 2028 00e4 02       		.uleb128 0x2
 2029 00e5 C3120000 		.4byte	.LASF20
 2030 00e9 06       		.byte	0x6
 2031 00ea 30       		.byte	0x30
 2032 00eb 7F000000 		.4byte	0x7f
 2033 00ef 02       		.uleb128 0x2
 2034 00f0 5B130000 		.4byte	.LASF21
 2035 00f4 07       		.byte	0x7
 2036 00f5 3C       		.byte	0x3c
 2037 00f6 C3000000 		.4byte	0xc3
 2038 00fa 05       		.uleb128 0x5
 2039 00fb 04       		.byte	0x4
 2040 00fc 03       		.uleb128 0x3
 2041 00fd 08       		.byte	0x8
 2042 00fe 04       		.byte	0x4
 2043 00ff D30C0000 		.4byte	.LASF22
 2044 0103 06       		.uleb128 0x6
 2045 0104 08       		.byte	0x8
 2046 0105 01       		.byte	0x1
 2047 0106 2E       		.byte	0x2e
 2048 0107 54010000 		.4byte	0x154
 2049 010b 07       		.uleb128 0x7
 2050 010c 28000000 		.4byte	.LASF23
 2051 0110 01       		.byte	0x1
 2052 0111 30       		.byte	0x30
 2053 0112 CE000000 		.4byte	0xce
 2054 0116 00       		.byte	0
 2055 0117 07       		.uleb128 0x7
 2056 0118 48110000 		.4byte	.LASF24
 2057 011c 01       		.byte	0x1
 2058 011d 31       		.byte	0x31
 2059 011e B8000000 		.4byte	0xb8
 2060 0122 02       		.byte	0x2
 2061 0123 07       		.uleb128 0x7
 2062 0124 31110000 		.4byte	.LASF25
 2063 0128 01       		.byte	0x1
 2064 0129 32       		.byte	0x32
 2065 012a B8000000 		.4byte	0xb8
 2066 012e 03       		.byte	0x3
 2067 012f 07       		.uleb128 0x7
 2068 0130 A0040000 		.4byte	.LASF26
 2069 0134 01       		.byte	0x1
 2070 0135 33       		.byte	0x33
 2071 0136 AD000000 		.4byte	0xad
 2072 013a 04       		.byte	0x4
 2073 013b 07       		.uleb128 0x7
 2074 013c A6040000 		.4byte	.LASF27
 2075 0140 01       		.byte	0x1
 2076 0141 34       		.byte	0x34
 2077 0142 AD000000 		.4byte	0xad
 2078 0146 05       		.byte	0x5
ARM GAS  C:\Users\tmj32\AppData\Local\Temp\ccSNdAsc.s 			page 54


 2079 0147 08       		.uleb128 0x8
 2080 0148 62707000 		.ascii	"bpp\000"
 2081 014c 01       		.byte	0x1
 2082 014d 35       		.byte	0x35
 2083 014e B8000000 		.4byte	0xb8
 2084 0152 06       		.byte	0x6
 2085 0153 00       		.byte	0
 2086 0154 02       		.uleb128 0x2
 2087 0155 B50B0000 		.4byte	.LASF28
 2088 0159 01       		.byte	0x1
 2089 015a 36       		.byte	0x36
 2090 015b 03010000 		.4byte	0x103
 2091 015f 09       		.uleb128 0x9
 2092 0160 0C140000 		.4byte	.LASF47
 2093 0164 10       		.byte	0x10
 2094 0165 01       		.byte	0x1
 2095 0166 44       		.byte	0x44
 2096 0167 B7010000 		.4byte	0x1b7
 2097 016b 07       		.uleb128 0x7
 2098 016c 94130000 		.4byte	.LASF29
 2099 0170 01       		.byte	0x1
 2100 0171 47       		.byte	0x47
 2101 0172 ED010000 		.4byte	0x1ed
 2102 0176 00       		.byte	0
 2103 0177 07       		.uleb128 0x7
 2104 0178 D0030000 		.4byte	.LASF30
 2105 017c 01       		.byte	0x1
 2106 017d 4A       		.byte	0x4a
 2107 017e 12020000 		.4byte	0x212
 2108 0182 04       		.byte	0x4
 2109 0183 07       		.uleb128 0x7
 2110 0184 18010000 		.4byte	.LASF31
 2111 0188 01       		.byte	0x1
 2112 0189 4D       		.byte	0x4d
 2113 018a B8000000 		.4byte	0xb8
 2114 018e 08       		.byte	0x8
 2115 018f 07       		.uleb128 0x7
 2116 0190 61110000 		.4byte	.LASF32
 2117 0194 01       		.byte	0x1
 2118 0195 4E       		.byte	0x4e
 2119 0196 AD000000 		.4byte	0xad
 2120 019a 09       		.byte	0x9
 2121 019b 0A       		.uleb128 0xa
 2122 019c 230D0000 		.4byte	.LASF57
 2123 01a0 01       		.byte	0x1
 2124 01a1 4F       		.byte	0x4f
 2125 01a2 B8000000 		.4byte	0xb8
 2126 01a6 01       		.byte	0x1
 2127 01a7 02       		.byte	0x2
 2128 01a8 06       		.byte	0x6
 2129 01a9 0A       		.byte	0xa
 2130 01aa 08       		.uleb128 0x8
 2131 01ab 64736300 		.ascii	"dsc\000"
 2132 01af 01       		.byte	0x1
 2133 01b0 50       		.byte	0x50
 2134 01b1 FA000000 		.4byte	0xfa
 2135 01b5 0C       		.byte	0xc
ARM GAS  C:\Users\tmj32\AppData\Local\Temp\ccSNdAsc.s 			page 55


 2136 01b6 00       		.byte	0
 2137 01b7 0B       		.uleb128 0xb
 2138 01b8 D5010000 		.4byte	0x1d5
 2139 01bc D5010000 		.4byte	0x1d5
 2140 01c0 0C       		.uleb128 0xc
 2141 01c1 DC010000 		.4byte	0x1dc
 2142 01c5 0C       		.uleb128 0xc
 2143 01c6 E7010000 		.4byte	0x1e7
 2144 01ca 0C       		.uleb128 0xc
 2145 01cb E4000000 		.4byte	0xe4
 2146 01cf 0C       		.uleb128 0xc
 2147 01d0 E4000000 		.4byte	0xe4
 2148 01d4 00       		.byte	0
 2149 01d5 03       		.uleb128 0x3
 2150 01d6 01       		.byte	0x1
 2151 01d7 02       		.byte	0x2
 2152 01d8 C4040000 		.4byte	.LASF33
 2153 01dc 0D       		.uleb128 0xd
 2154 01dd 04       		.byte	0x4
 2155 01de E2010000 		.4byte	0x1e2
 2156 01e2 0E       		.uleb128 0xe
 2157 01e3 5F010000 		.4byte	0x15f
 2158 01e7 0D       		.uleb128 0xd
 2159 01e8 04       		.byte	0x4
 2160 01e9 54010000 		.4byte	0x154
 2161 01ed 0D       		.uleb128 0xd
 2162 01ee 04       		.byte	0x4
 2163 01ef B7010000 		.4byte	0x1b7
 2164 01f3 0B       		.uleb128 0xb
 2165 01f4 07020000 		.4byte	0x207
 2166 01f8 07020000 		.4byte	0x207
 2167 01fc 0C       		.uleb128 0xc
 2168 01fd DC010000 		.4byte	0x1dc
 2169 0201 0C       		.uleb128 0xc
 2170 0202 E4000000 		.4byte	0xe4
 2171 0206 00       		.byte	0
 2172 0207 0D       		.uleb128 0xd
 2173 0208 04       		.byte	0x4
 2174 0209 0D020000 		.4byte	0x20d
 2175 020d 0E       		.uleb128 0xe
 2176 020e B8000000 		.4byte	0xb8
 2177 0212 0D       		.uleb128 0xd
 2178 0213 04       		.byte	0x4
 2179 0214 F3010000 		.4byte	0x1f3
 2180 0218 02       		.uleb128 0x2
 2181 0219 FC120000 		.4byte	.LASF34
 2182 021d 01       		.byte	0x1
 2183 021e 56       		.byte	0x56
 2184 021f 5F010000 		.4byte	0x15f
 2185 0223 06       		.uleb128 0x6
 2186 0224 04       		.byte	0x4
 2187 0225 08       		.byte	0x8
 2188 0226 F3       		.byte	0xf3
 2189 0227 5C020000 		.4byte	0x25c
 2190 022b 07       		.uleb128 0x7
 2191 022c E6030000 		.4byte	.LASF35
 2192 0230 08       		.byte	0x8
ARM GAS  C:\Users\tmj32\AppData\Local\Temp\ccSNdAsc.s 			page 56


 2193 0231 F5       		.byte	0xf5
 2194 0232 B8000000 		.4byte	0xb8
 2195 0236 00       		.byte	0
 2196 0237 07       		.uleb128 0x7
 2197 0238 F6120000 		.4byte	.LASF36
 2198 023c 08       		.byte	0x8
 2199 023d F6       		.byte	0xf6
 2200 023e B8000000 		.4byte	0xb8
 2201 0242 01       		.byte	0x1
 2202 0243 08       		.uleb128 0x8
 2203 0244 72656400 		.ascii	"red\000"
 2204 0248 08       		.byte	0x8
 2205 0249 F7       		.byte	0xf7
 2206 024a B8000000 		.4byte	0xb8
 2207 024e 02       		.byte	0x2
 2208 024f 07       		.uleb128 0x7
 2209 0250 4B020000 		.4byte	.LASF37
 2210 0254 08       		.byte	0x8
 2211 0255 F8       		.byte	0xf8
 2212 0256 B8000000 		.4byte	0xb8
 2213 025a 03       		.byte	0x3
 2214 025b 00       		.byte	0
 2215 025c 0F       		.uleb128 0xf
 2216 025d 04       		.byte	0x4
 2217 025e 08       		.byte	0x8
 2218 025f F1       		.byte	0xf1
 2219 0260 7A020000 		.4byte	0x27a
 2220 0264 10       		.uleb128 0x10
 2221 0265 636800   		.ascii	"ch\000"
 2222 0268 08       		.byte	0x8
 2223 0269 F9       		.byte	0xf9
 2224 026a 23020000 		.4byte	0x223
 2225 026e 11       		.uleb128 0x11
 2226 026f 1A100000 		.4byte	.LASF38
 2227 0273 08       		.byte	0x8
 2228 0274 FA       		.byte	0xfa
 2229 0275 E4000000 		.4byte	0xe4
 2230 0279 00       		.byte	0
 2231 027a 02       		.uleb128 0x2
 2232 027b 61000000 		.4byte	.LASF39
 2233 027f 08       		.byte	0x8
 2234 0280 FB       		.byte	0xfb
 2235 0281 5C020000 		.4byte	0x25c
 2236 0285 12       		.uleb128 0x12
 2237 0286 930E0000 		.4byte	.LASF40
 2238 028a 08       		.byte	0x8
 2239 028b 0801     		.2byte	0x108
 2240 028d 7A020000 		.4byte	0x27a
 2241 0291 12       		.uleb128 0x12
 2242 0292 AB000000 		.4byte	.LASF41
 2243 0296 08       		.byte	0x8
 2244 0297 0D01     		.2byte	0x10d
 2245 0299 B8000000 		.4byte	0xb8
 2246 029d 03       		.uleb128 0x3
 2247 029e 04       		.byte	0x4
 2248 029f 07       		.byte	0x7
 2249 02a0 45000000 		.4byte	.LASF42
ARM GAS  C:\Users\tmj32\AppData\Local\Temp\ccSNdAsc.s 			page 57


 2250 02a4 03       		.uleb128 0x3
 2251 02a5 01       		.byte	0x1
 2252 02a6 08       		.byte	0x8
 2253 02a7 DF040000 		.4byte	.LASF43
 2254 02ab 0D       		.uleb128 0xd
 2255 02ac 04       		.byte	0x4
 2256 02ad B1020000 		.4byte	0x2b1
 2257 02b1 0E       		.uleb128 0xe
 2258 02b2 A4020000 		.4byte	0x2a4
 2259 02b6 06       		.uleb128 0x6
 2260 02b7 08       		.byte	0x8
 2261 02b8 02       		.byte	0x2
 2262 02b9 31       		.byte	0x31
 2263 02ba EB020000 		.4byte	0x2eb
 2264 02be 08       		.uleb128 0x8
 2265 02bf 783100   		.ascii	"x1\000"
 2266 02c2 02       		.byte	0x2
 2267 02c3 33       		.byte	0x33
 2268 02c4 EF000000 		.4byte	0xef
 2269 02c8 00       		.byte	0
 2270 02c9 08       		.uleb128 0x8
 2271 02ca 793100   		.ascii	"y1\000"
 2272 02cd 02       		.byte	0x2
 2273 02ce 34       		.byte	0x34
 2274 02cf EF000000 		.4byte	0xef
 2275 02d3 02       		.byte	0x2
 2276 02d4 08       		.uleb128 0x8
 2277 02d5 783200   		.ascii	"x2\000"
 2278 02d8 02       		.byte	0x2
 2279 02d9 35       		.byte	0x35
 2280 02da EF000000 		.4byte	0xef
 2281 02de 04       		.byte	0x4
 2282 02df 08       		.uleb128 0x8
 2283 02e0 793200   		.ascii	"y2\000"
 2284 02e3 02       		.byte	0x2
 2285 02e4 36       		.byte	0x36
 2286 02e5 EF000000 		.4byte	0xef
 2287 02e9 06       		.byte	0x6
 2288 02ea 00       		.byte	0
 2289 02eb 02       		.uleb128 0x2
 2290 02ec 74060000 		.4byte	.LASF44
 2291 02f0 02       		.byte	0x2
 2292 02f1 37       		.byte	0x37
 2293 02f2 B6020000 		.4byte	0x2b6
 2294 02f6 02       		.uleb128 0x2
 2295 02f7 94050000 		.4byte	.LASF45
 2296 02fb 09       		.byte	0x9
 2297 02fc 2B       		.byte	0x2b
 2298 02fd EF000000 		.4byte	0xef
 2299 0301 02       		.uleb128 0x2
 2300 0302 EB040000 		.4byte	.LASF46
 2301 0306 09       		.byte	0x9
 2302 0307 37       		.byte	0x37
 2303 0308 0C030000 		.4byte	0x30c
 2304 030c 0D       		.uleb128 0xd
 2305 030d 04       		.byte	0x4
 2306 030e 12030000 		.4byte	0x312
ARM GAS  C:\Users\tmj32\AppData\Local\Temp\ccSNdAsc.s 			page 58


 2307 0312 13       		.uleb128 0x13
 2308 0313 22030000 		.4byte	0x322
 2309 0317 0C       		.uleb128 0xc
 2310 0318 FA000000 		.4byte	0xfa
 2311 031c 0C       		.uleb128 0xc
 2312 031d F6020000 		.4byte	0x2f6
 2313 0321 00       		.byte	0
 2314 0322 0D       		.uleb128 0xd
 2315 0323 04       		.byte	0x4
 2316 0324 28030000 		.4byte	0x328
 2317 0328 09       		.uleb128 0x9
 2318 0329 1C140000 		.4byte	.LASF48
 2319 032d 24       		.byte	0x24
 2320 032e 09       		.byte	0x9
 2321 032f 44       		.byte	0x44
 2322 0330 E9030000 		.4byte	0x3e9
 2323 0334 08       		.uleb128 0x8
 2324 0335 76617200 		.ascii	"var\000"
 2325 0339 09       		.byte	0x9
 2326 033a 46       		.byte	0x46
 2327 033b FA000000 		.4byte	0xfa
 2328 033f 00       		.byte	0
 2329 0340 07       		.uleb128 0x7
 2330 0341 C40E0000 		.4byte	.LASF49
 2331 0345 09       		.byte	0x9
 2332 0346 47       		.byte	0x47
 2333 0347 01030000 		.4byte	0x301
 2334 034b 04       		.byte	0x4
 2335 034c 07       		.uleb128 0x7
 2336 034d 24010000 		.4byte	.LASF50
 2337 0351 09       		.byte	0x9
 2338 0352 48       		.byte	0x48
 2339 0353 E9030000 		.4byte	0x3e9
 2340 0357 08       		.byte	0x8
 2341 0358 07       		.uleb128 0x7
 2342 0359 FF050000 		.4byte	.LASF51
 2343 035d 09       		.byte	0x9
 2344 035e 49       		.byte	0x49
 2345 035f 14040000 		.4byte	0x414
 2346 0363 0C       		.byte	0xc
 2347 0364 07       		.uleb128 0x7
 2348 0365 5B000000 		.4byte	.LASF52
 2349 0369 09       		.byte	0x9
 2350 036a 4A       		.byte	0x4a
 2351 036b D9000000 		.4byte	0xd9
 2352 036f 10       		.byte	0x10
 2353 0370 08       		.uleb128 0x8
 2354 0371 656E6400 		.ascii	"end\000"
 2355 0375 09       		.byte	0x9
 2356 0376 4B       		.byte	0x4b
 2357 0377 D9000000 		.4byte	0xd9
 2358 037b 14       		.byte	0x14
 2359 037c 07       		.uleb128 0x7
 2360 037d 3B100000 		.4byte	.LASF53
 2361 0381 09       		.byte	0x9
 2362 0382 4C       		.byte	0x4c
 2363 0383 CE000000 		.4byte	0xce
ARM GAS  C:\Users\tmj32\AppData\Local\Temp\ccSNdAsc.s 			page 59


 2364 0387 18       		.byte	0x18
 2365 0388 07       		.uleb128 0x7
 2366 0389 58120000 		.4byte	.LASF54
 2367 038d 09       		.byte	0x9
 2368 038e 4D       		.byte	0x4d
 2369 038f C3000000 		.4byte	0xc3
 2370 0393 1A       		.byte	0x1a
 2371 0394 07       		.uleb128 0x7
 2372 0395 CC120000 		.4byte	.LASF55
 2373 0399 09       		.byte	0x9
 2374 039a 4E       		.byte	0x4e
 2375 039b CE000000 		.4byte	0xce
 2376 039f 1C       		.byte	0x1c
 2377 03a0 07       		.uleb128 0x7
 2378 03a1 A5020000 		.4byte	.LASF56
 2379 03a5 09       		.byte	0x9
 2380 03a6 4F       		.byte	0x4f
 2381 03a7 CE000000 		.4byte	0xce
 2382 03ab 1E       		.byte	0x1e
 2383 03ac 0A       		.uleb128 0xa
 2384 03ad 58110000 		.4byte	.LASF58
 2385 03b1 09       		.byte	0x9
 2386 03b2 54       		.byte	0x54
 2387 03b3 B8000000 		.4byte	0xb8
 2388 03b7 01       		.byte	0x1
 2389 03b8 01       		.byte	0x1
 2390 03b9 07       		.byte	0x7
 2391 03ba 20       		.byte	0x20
 2392 03bb 0A       		.uleb128 0xa
 2393 03bc A4000000 		.4byte	.LASF59
 2394 03c0 09       		.byte	0x9
 2395 03c1 55       		.byte	0x55
 2396 03c2 B8000000 		.4byte	0xb8
 2397 03c6 01       		.byte	0x1
 2398 03c7 01       		.byte	0x1
 2399 03c8 06       		.byte	0x6
 2400 03c9 20       		.byte	0x20
 2401 03ca 0A       		.uleb128 0xa
 2402 03cb 7A130000 		.4byte	.LASF60
 2403 03cf 09       		.byte	0x9
 2404 03d0 57       		.byte	0x57
 2405 03d1 B8000000 		.4byte	0xb8
 2406 03d5 01       		.byte	0x1
 2407 03d6 01       		.byte	0x1
 2408 03d7 05       		.byte	0x5
 2409 03d8 20       		.byte	0x20
 2410 03d9 0A       		.uleb128 0xa
 2411 03da 100E0000 		.4byte	.LASF61
 2412 03de 09       		.byte	0x9
 2413 03df 58       		.byte	0x58
 2414 03e0 E4000000 		.4byte	0xe4
 2415 03e4 04       		.byte	0x4
 2416 03e5 01       		.byte	0x1
 2417 03e6 1C       		.byte	0x1c
 2418 03e7 20       		.byte	0x20
 2419 03e8 00       		.byte	0
 2420 03e9 02       		.uleb128 0x2
ARM GAS  C:\Users\tmj32\AppData\Local\Temp\ccSNdAsc.s 			page 60


 2421 03ea F50A0000 		.4byte	.LASF62
 2422 03ee 09       		.byte	0x9
 2423 03ef 3E       		.byte	0x3e
 2424 03f0 F4030000 		.4byte	0x3f4
 2425 03f4 0D       		.uleb128 0xd
 2426 03f5 04       		.byte	0x4
 2427 03f6 FA030000 		.4byte	0x3fa
 2428 03fa 0B       		.uleb128 0xb
 2429 03fb F6020000 		.4byte	0x2f6
 2430 03ff 09040000 		.4byte	0x409
 2431 0403 0C       		.uleb128 0xc
 2432 0404 09040000 		.4byte	0x409
 2433 0408 00       		.byte	0
 2434 0409 0D       		.uleb128 0xd
 2435 040a 04       		.byte	0x4
 2436 040b 0F040000 		.4byte	0x40f
 2437 040f 0E       		.uleb128 0xe
 2438 0410 28030000 		.4byte	0x328
 2439 0414 02       		.uleb128 0x2
 2440 0415 D0060000 		.4byte	.LASF63
 2441 0419 09       		.byte	0x9
 2442 041a 41       		.byte	0x41
 2443 041b 1F040000 		.4byte	0x41f
 2444 041f 0D       		.uleb128 0xd
 2445 0420 04       		.byte	0x4
 2446 0421 25040000 		.4byte	0x425
 2447 0425 13       		.uleb128 0x13
 2448 0426 30040000 		.4byte	0x430
 2449 042a 0C       		.uleb128 0xc
 2450 042b 22030000 		.4byte	0x322
 2451 042f 00       		.byte	0
 2452 0430 02       		.uleb128 0x2
 2453 0431 98070000 		.4byte	.LASF64
 2454 0435 09       		.byte	0x9
 2455 0436 59       		.byte	0x59
 2456 0437 28030000 		.4byte	0x328
 2457 043b 02       		.uleb128 0x2
 2458 043c AC130000 		.4byte	.LASF65
 2459 0440 0A       		.byte	0xa
 2460 0441 2C       		.byte	0x2c
 2461 0442 B8000000 		.4byte	0xb8
 2462 0446 02       		.uleb128 0x2
 2463 0447 A6100000 		.4byte	.LASF66
 2464 044b 0A       		.byte	0xa
 2465 044c 33       		.byte	0x33
 2466 044d B8000000 		.4byte	0xb8
 2467 0451 06       		.uleb128 0x6
 2468 0452 08       		.byte	0x8
 2469 0453 0A       		.byte	0xa
 2470 0454 48       		.byte	0x48
 2471 0455 8A040000 		.4byte	0x48a
 2472 0459 07       		.uleb128 0x7
 2473 045a 35100000 		.4byte	.LASF67
 2474 045e 0A       		.byte	0xa
 2475 045f 4A       		.byte	0x4a
 2476 0460 85020000 		.4byte	0x285
 2477 0464 00       		.byte	0
ARM GAS  C:\Users\tmj32\AppData\Local\Temp\ccSNdAsc.s 			page 61


 2478 0465 07       		.uleb128 0x7
 2479 0466 C2090000 		.4byte	.LASF68
 2480 046a 0A       		.byte	0xa
 2481 046b 4B       		.byte	0x4b
 2482 046c EF000000 		.4byte	0xef
 2483 0470 04       		.byte	0x4
 2484 0471 07       		.uleb128 0x7
 2485 0472 49130000 		.4byte	.LASF69
 2486 0476 0A       		.byte	0xa
 2487 0477 4C       		.byte	0x4c
 2488 0478 3B040000 		.4byte	0x43b
 2489 047c 06       		.byte	0x6
 2490 047d 08       		.uleb128 0x8
 2491 047e 6F706100 		.ascii	"opa\000"
 2492 0482 0A       		.byte	0xa
 2493 0483 4D       		.byte	0x4d
 2494 0484 91020000 		.4byte	0x291
 2495 0488 07       		.byte	0x7
 2496 0489 00       		.byte	0
 2497 048a 06       		.uleb128 0x6
 2498 048b 08       		.byte	0x8
 2499 048c 0A       		.byte	0xa
 2500 048d 51       		.byte	0x51
 2501 048e B7040000 		.4byte	0x4b7
 2502 0492 07       		.uleb128 0x7
 2503 0493 35100000 		.4byte	.LASF67
 2504 0497 0A       		.byte	0xa
 2505 0498 53       		.byte	0x53
 2506 0499 85020000 		.4byte	0x285
 2507 049d 00       		.byte	0
 2508 049e 07       		.uleb128 0x7
 2509 049f C2090000 		.4byte	.LASF68
 2510 04a3 0A       		.byte	0xa
 2511 04a4 54       		.byte	0x54
 2512 04a5 EF000000 		.4byte	0xef
 2513 04a9 04       		.byte	0x4
 2514 04aa 07       		.uleb128 0x7
 2515 04ab C5010000 		.4byte	.LASF70
 2516 04af 0A       		.byte	0xa
 2517 04b0 55       		.byte	0x55
 2518 04b1 46040000 		.4byte	0x446
 2519 04b5 06       		.byte	0x6
 2520 04b6 00       		.byte	0
 2521 04b7 06       		.uleb128 0x6
 2522 04b8 0A       		.byte	0xa
 2523 04b9 0A       		.byte	0xa
 2524 04ba 58       		.byte	0x58
 2525 04bb FC040000 		.4byte	0x4fc
 2526 04bf 08       		.uleb128 0x8
 2527 04c0 746F7000 		.ascii	"top\000"
 2528 04c4 0A       		.byte	0xa
 2529 04c5 5A       		.byte	0x5a
 2530 04c6 EF000000 		.4byte	0xef
 2531 04ca 00       		.byte	0
 2532 04cb 07       		.uleb128 0x7
 2533 04cc F0090000 		.4byte	.LASF71
 2534 04d0 0A       		.byte	0xa
ARM GAS  C:\Users\tmj32\AppData\Local\Temp\ccSNdAsc.s 			page 62


 2535 04d1 5B       		.byte	0x5b
 2536 04d2 EF000000 		.4byte	0xef
 2537 04d6 02       		.byte	0x2
 2538 04d7 07       		.uleb128 0x7
 2539 04d8 C0060000 		.4byte	.LASF72
 2540 04dc 0A       		.byte	0xa
 2541 04dd 5C       		.byte	0x5c
 2542 04de EF000000 		.4byte	0xef
 2543 04e2 04       		.byte	0x4
 2544 04e3 07       		.uleb128 0x7
 2545 04e4 F0080000 		.4byte	.LASF73
 2546 04e8 0A       		.byte	0xa
 2547 04e9 5D       		.byte	0x5d
 2548 04ea EF000000 		.4byte	0xef
 2549 04ee 06       		.byte	0x6
 2550 04ef 07       		.uleb128 0x7
 2551 04f0 7A070000 		.4byte	.LASF74
 2552 04f4 0A       		.byte	0xa
 2553 04f5 5E       		.byte	0x5e
 2554 04f6 EF000000 		.4byte	0xef
 2555 04fa 08       		.byte	0x8
 2556 04fb 00       		.byte	0
 2557 04fc 06       		.uleb128 0x6
 2558 04fd 28       		.byte	0x28
 2559 04fe 0A       		.byte	0xa
 2560 04ff 41       		.byte	0x41
 2561 0500 59050000 		.4byte	0x559
 2562 0504 07       		.uleb128 0x7
 2563 0505 DC0D0000 		.4byte	.LASF75
 2564 0509 0A       		.byte	0xa
 2565 050a 43       		.byte	0x43
 2566 050b 85020000 		.4byte	0x285
 2567 050f 00       		.byte	0
 2568 0510 07       		.uleb128 0x7
 2569 0511 CE0B0000 		.4byte	.LASF76
 2570 0515 0A       		.byte	0xa
 2571 0516 44       		.byte	0x44
 2572 0517 85020000 		.4byte	0x285
 2573 051b 04       		.byte	0x4
 2574 051c 07       		.uleb128 0x7
 2575 051d 04010000 		.4byte	.LASF77
 2576 0521 0A       		.byte	0xa
 2577 0522 45       		.byte	0x45
 2578 0523 EF000000 		.4byte	0xef
 2579 0527 08       		.byte	0x8
 2580 0528 08       		.uleb128 0x8
 2581 0529 6F706100 		.ascii	"opa\000"
 2582 052d 0A       		.byte	0xa
 2583 052e 46       		.byte	0x46
 2584 052f 91020000 		.4byte	0x291
 2585 0533 0A       		.byte	0xa
 2586 0534 07       		.uleb128 0x7
 2587 0535 87130000 		.4byte	.LASF78
 2588 0539 0A       		.byte	0xa
 2589 053a 4E       		.byte	0x4e
 2590 053b 51040000 		.4byte	0x451
 2591 053f 0C       		.byte	0xc
ARM GAS  C:\Users\tmj32\AppData\Local\Temp\ccSNdAsc.s 			page 63


 2592 0540 07       		.uleb128 0x7
 2593 0541 DC110000 		.4byte	.LASF79
 2594 0545 0A       		.byte	0xa
 2595 0546 56       		.byte	0x56
 2596 0547 8A040000 		.4byte	0x48a
 2597 054b 14       		.byte	0x14
 2598 054c 07       		.uleb128 0x7
 2599 054d A4120000 		.4byte	.LASF80
 2600 0551 0A       		.byte	0xa
 2601 0552 5F       		.byte	0x5f
 2602 0553 B7040000 		.4byte	0x4b7
 2603 0557 1C       		.byte	0x1c
 2604 0558 00       		.byte	0
 2605 0559 06       		.uleb128 0x6
 2606 055a 14       		.byte	0x14
 2607 055b 0A       		.byte	0xa
 2608 055c 63       		.byte	0x63
 2609 055d AA050000 		.4byte	0x5aa
 2610 0561 07       		.uleb128 0x7
 2611 0562 35100000 		.4byte	.LASF67
 2612 0566 0A       		.byte	0xa
 2613 0567 65       		.byte	0x65
 2614 0568 85020000 		.4byte	0x285
 2615 056c 00       		.byte	0
 2616 056d 07       		.uleb128 0x7
 2617 056e 02140000 		.4byte	.LASF81
 2618 0572 0A       		.byte	0xa
 2619 0573 66       		.byte	0x66
 2620 0574 85020000 		.4byte	0x285
 2621 0578 04       		.byte	0x4
 2622 0579 07       		.uleb128 0x7
 2623 057a 0D110000 		.4byte	.LASF82
 2624 057e 0A       		.byte	0xa
 2625 057f 67       		.byte	0x67
 2626 0580 AA050000 		.4byte	0x5aa
 2627 0584 08       		.byte	0x8
 2628 0585 07       		.uleb128 0x7
 2629 0586 12110000 		.4byte	.LASF83
 2630 058a 0A       		.byte	0xa
 2631 058b 68       		.byte	0x68
 2632 058c EF000000 		.4byte	0xef
 2633 0590 0C       		.byte	0xc
 2634 0591 07       		.uleb128 0x7
 2635 0592 56100000 		.4byte	.LASF84
 2636 0596 0A       		.byte	0xa
 2637 0597 69       		.byte	0x69
 2638 0598 EF000000 		.4byte	0xef
 2639 059c 0E       		.byte	0xe
 2640 059d 08       		.uleb128 0x8
 2641 059e 6F706100 		.ascii	"opa\000"
 2642 05a2 0A       		.byte	0xa
 2643 05a3 6A       		.byte	0x6a
 2644 05a4 91020000 		.4byte	0x291
 2645 05a8 10       		.byte	0x10
 2646 05a9 00       		.byte	0
 2647 05aa 0D       		.uleb128 0xd
 2648 05ab 04       		.byte	0x4
ARM GAS  C:\Users\tmj32\AppData\Local\Temp\ccSNdAsc.s 			page 64


 2649 05ac B0050000 		.4byte	0x5b0
 2650 05b0 0E       		.uleb128 0xe
 2651 05b1 18020000 		.4byte	0x218
 2652 05b5 06       		.uleb128 0x6
 2653 05b6 08       		.byte	0x8
 2654 05b7 0A       		.byte	0xa
 2655 05b8 6E       		.byte	0x6e
 2656 05b9 E2050000 		.4byte	0x5e2
 2657 05bd 07       		.uleb128 0x7
 2658 05be 35100000 		.4byte	.LASF67
 2659 05c2 0A       		.byte	0xa
 2660 05c3 70       		.byte	0x70
 2661 05c4 85020000 		.4byte	0x285
 2662 05c8 00       		.byte	0
 2663 05c9 07       		.uleb128 0x7
 2664 05ca BC000000 		.4byte	.LASF85
 2665 05ce 0A       		.byte	0xa
 2666 05cf 71       		.byte	0x71
 2667 05d0 91020000 		.4byte	0x291
 2668 05d4 04       		.byte	0x4
 2669 05d5 08       		.uleb128 0x8
 2670 05d6 6F706100 		.ascii	"opa\000"
 2671 05da 0A       		.byte	0xa
 2672 05db 72       		.byte	0x72
 2673 05dc 91020000 		.4byte	0x291
 2674 05e0 05       		.byte	0x5
 2675 05e1 00       		.byte	0
 2676 05e2 06       		.uleb128 0x6
 2677 05e3 08       		.byte	0x8
 2678 05e4 0A       		.byte	0xa
 2679 05e5 76       		.byte	0x76
 2680 05e6 1E060000 		.4byte	0x61e
 2681 05ea 07       		.uleb128 0x7
 2682 05eb 35100000 		.4byte	.LASF67
 2683 05ef 0A       		.byte	0xa
 2684 05f0 78       		.byte	0x78
 2685 05f1 85020000 		.4byte	0x285
 2686 05f5 00       		.byte	0
 2687 05f6 07       		.uleb128 0x7
 2688 05f7 C2090000 		.4byte	.LASF68
 2689 05fb 0A       		.byte	0xa
 2690 05fc 79       		.byte	0x79
 2691 05fd EF000000 		.4byte	0xef
 2692 0601 04       		.byte	0x4
 2693 0602 08       		.uleb128 0x8
 2694 0603 6F706100 		.ascii	"opa\000"
 2695 0607 0A       		.byte	0xa
 2696 0608 7A       		.byte	0x7a
 2697 0609 91020000 		.4byte	0x291
 2698 060d 06       		.byte	0x6
 2699 060e 0A       		.uleb128 0xa
 2700 060f 38060000 		.4byte	.LASF86
 2701 0613 0A       		.byte	0xa
 2702 0614 7B       		.byte	0x7b
 2703 0615 B8000000 		.4byte	0xb8
 2704 0619 01       		.byte	0x1
 2705 061a 01       		.byte	0x1
ARM GAS  C:\Users\tmj32\AppData\Local\Temp\ccSNdAsc.s 			page 65


 2706 061b 07       		.byte	0x7
 2707 061c 07       		.byte	0x7
 2708 061d 00       		.byte	0
 2709 061e 06       		.uleb128 0x6
 2710 061f 50       		.byte	0x50
 2711 0620 0A       		.byte	0xa
 2712 0621 3C       		.byte	0x3c
 2713 0622 66060000 		.4byte	0x666
 2714 0626 0A       		.uleb128 0xa
 2715 0627 6B0A0000 		.4byte	.LASF87
 2716 062b 0A       		.byte	0xa
 2717 062c 3E       		.byte	0x3e
 2718 062d B8000000 		.4byte	0xb8
 2719 0631 01       		.byte	0x1
 2720 0632 01       		.byte	0x1
 2721 0633 07       		.byte	0x7
 2722 0634 00       		.byte	0
 2723 0635 07       		.uleb128 0x7
 2724 0636 0D050000 		.4byte	.LASF88
 2725 063a 0A       		.byte	0xa
 2726 063b 60       		.byte	0x60
 2727 063c FC040000 		.4byte	0x4fc
 2728 0640 04       		.byte	0x4
 2729 0641 07       		.uleb128 0x7
 2730 0642 08060000 		.4byte	.LASF89
 2731 0646 0A       		.byte	0xa
 2732 0647 6B       		.byte	0x6b
 2733 0648 59050000 		.4byte	0x559
 2734 064c 2C       		.byte	0x2c
 2735 064d 07       		.uleb128 0x7
 2736 064e 32060000 		.4byte	.LASF90
 2737 0652 0A       		.byte	0xa
 2738 0653 73       		.byte	0x73
 2739 0654 B5050000 		.4byte	0x5b5
 2740 0658 40       		.byte	0x40
 2741 0659 07       		.uleb128 0x7
 2742 065a 14080000 		.4byte	.LASF91
 2743 065e 0A       		.byte	0xa
 2744 065f 7C       		.byte	0x7c
 2745 0660 E2050000 		.4byte	0x5e2
 2746 0664 48       		.byte	0x48
 2747 0665 00       		.byte	0
 2748 0666 02       		.uleb128 0x2
 2749 0667 6F070000 		.4byte	.LASF92
 2750 066b 0A       		.byte	0xa
 2751 066c 84       		.byte	0x84
 2752 066d 1E060000 		.4byte	0x61e
 2753 0671 0D       		.uleb128 0xd
 2754 0672 04       		.byte	0x4
 2755 0673 66060000 		.4byte	0x666
 2756 0677 14       		.uleb128 0x14
 2757 0678 01       		.byte	0x1
 2758 0679 42000000 		.4byte	0x42
 2759 067d 0B       		.byte	0xb
 2760 067e 27       		.byte	0x27
 2761 067f 90060000 		.4byte	0x690
 2762 0683 15       		.uleb128 0x15
ARM GAS  C:\Users\tmj32\AppData\Local\Temp\ccSNdAsc.s 			page 66


 2763 0684 91010000 		.4byte	.LASF93
 2764 0688 00       		.byte	0
 2765 0689 15       		.uleb128 0x15
 2766 068a 740E0000 		.4byte	.LASF94
 2767 068e 01       		.byte	0x1
 2768 068f 00       		.byte	0
 2769 0690 02       		.uleb128 0x2
 2770 0691 B00C0000 		.4byte	.LASF95
 2771 0695 0B       		.byte	0xb
 2772 0696 2C       		.byte	0x2c
 2773 0697 B8000000 		.4byte	0xb8
 2774 069b 02       		.uleb128 0x2
 2775 069c 07000000 		.4byte	.LASF96
 2776 06a0 0C       		.byte	0xc
 2777 06a1 1E       		.byte	0x1e
 2778 06a2 B8000000 		.4byte	0xb8
 2779 06a6 06       		.uleb128 0x6
 2780 06a7 0C       		.byte	0xc
 2781 06a8 0C       		.byte	0xc
 2782 06a9 21       		.byte	0x21
 2783 06aa D3060000 		.4byte	0x6d3
 2784 06ae 07       		.uleb128 0x7
 2785 06af 27140000 		.4byte	.LASF97
 2786 06b3 0C       		.byte	0xc
 2787 06b4 23       		.byte	0x23
 2788 06b5 E4000000 		.4byte	0xe4
 2789 06b9 00       		.byte	0
 2790 06ba 07       		.uleb128 0x7
 2791 06bb 2B030000 		.4byte	.LASF98
 2792 06bf 0C       		.byte	0xc
 2793 06c0 24       		.byte	0x24
 2794 06c1 D3060000 		.4byte	0x6d3
 2795 06c5 04       		.byte	0x4
 2796 06c6 07       		.uleb128 0x7
 2797 06c7 73000000 		.4byte	.LASF99
 2798 06cb 0C       		.byte	0xc
 2799 06cc 25       		.byte	0x25
 2800 06cd D3060000 		.4byte	0x6d3
 2801 06d1 08       		.byte	0x8
 2802 06d2 00       		.byte	0
 2803 06d3 0D       		.uleb128 0xd
 2804 06d4 04       		.byte	0x4
 2805 06d5 9B060000 		.4byte	0x69b
 2806 06d9 02       		.uleb128 0x2
 2807 06da 6B110000 		.4byte	.LASF100
 2808 06de 0C       		.byte	0xc
 2809 06df 26       		.byte	0x26
 2810 06e0 A6060000 		.4byte	0x6a6
 2811 06e4 02       		.uleb128 0x2
 2812 06e5 59060000 		.4byte	.LASF101
 2813 06e9 0D       		.byte	0xd
 2814 06ea 30       		.byte	0x30
 2815 06eb B8000000 		.4byte	0xb8
 2816 06ef 0D       		.uleb128 0xd
 2817 06f0 04       		.byte	0x4
 2818 06f1 F5060000 		.4byte	0x6f5
 2819 06f5 0E       		.uleb128 0xe
ARM GAS  C:\Users\tmj32\AppData\Local\Temp\ccSNdAsc.s 			page 67


 2820 06f6 EB020000 		.4byte	0x2eb
 2821 06fa 09       		.uleb128 0x9
 2822 06fb EE100000 		.4byte	.LASF102
 2823 06ff 40       		.byte	0x40
 2824 0700 0E       		.byte	0xe
 2825 0701 BB       		.byte	0xbb
 2826 0702 3C080000 		.4byte	0x83c
 2827 0706 08       		.uleb128 0x8
 2828 0707 70617200 		.ascii	"par\000"
 2829 070b 0E       		.byte	0xe
 2830 070c BD       		.byte	0xbd
 2831 070d 3C080000 		.4byte	0x83c
 2832 0711 00       		.byte	0
 2833 0712 07       		.uleb128 0x7
 2834 0713 F7090000 		.4byte	.LASF103
 2835 0717 0E       		.byte	0xe
 2836 0718 BE       		.byte	0xbe
 2837 0719 D9060000 		.4byte	0x6d9
 2838 071d 04       		.byte	0x4
 2839 071e 07       		.uleb128 0x7
 2840 071f A5110000 		.4byte	.LASF104
 2841 0723 0E       		.byte	0xe
 2842 0724 C0       		.byte	0xc0
 2843 0725 EB020000 		.4byte	0x2eb
 2844 0729 10       		.byte	0x10
 2845 072a 07       		.uleb128 0x7
 2846 072b E7080000 		.4byte	.LASF105
 2847 072f 0E       		.byte	0xe
 2848 0730 C2       		.byte	0xc2
 2849 0731 07090000 		.4byte	0x907
 2850 0735 18       		.byte	0x18
 2851 0736 07       		.uleb128 0x7
 2852 0737 B9120000 		.4byte	.LASF106
 2853 073b 0E       		.byte	0xe
 2854 073c C3       		.byte	0xc3
 2855 073d B8090000 		.4byte	0x9b8
 2856 0741 1C       		.byte	0x1c
 2857 0742 07       		.uleb128 0x7
 2858 0743 A4050000 		.4byte	.LASF107
 2859 0747 0E       		.byte	0xe
 2860 0748 C4       		.byte	0xc4
 2861 0749 4D080000 		.4byte	0x84d
 2862 074d 20       		.byte	0x20
 2863 074e 07       		.uleb128 0x7
 2864 074f F30C0000 		.4byte	.LASF108
 2865 0753 0E       		.byte	0xe
 2866 0754 C6       		.byte	0xc6
 2867 0755 FA000000 		.4byte	0xfa
 2868 0759 24       		.byte	0x24
 2869 075a 07       		.uleb128 0x7
 2870 075b F6080000 		.4byte	.LASF109
 2871 075f 0E       		.byte	0xe
 2872 0760 C7       		.byte	0xc7
 2873 0761 F00A0000 		.4byte	0xaf0
 2874 0765 28       		.byte	0x28
 2875 0766 0A       		.uleb128 0xa
 2876 0767 2C010000 		.4byte	.LASF110
ARM GAS  C:\Users\tmj32\AppData\Local\Temp\ccSNdAsc.s 			page 68


 2877 076b 0E       		.byte	0xe
 2878 076c D7       		.byte	0xd7
 2879 076d B8000000 		.4byte	0xb8
 2880 0771 01       		.byte	0x1
 2881 0772 01       		.byte	0x1
 2882 0773 07       		.byte	0x7
 2883 0774 2C       		.byte	0x2c
 2884 0775 0A       		.uleb128 0xa
 2885 0776 B7100000 		.4byte	.LASF111
 2886 077a 0E       		.byte	0xe
 2887 077b D8       		.byte	0xd8
 2888 077c B8000000 		.4byte	0xb8
 2889 0780 01       		.byte	0x1
 2890 0781 01       		.byte	0x1
 2891 0782 06       		.byte	0x6
 2892 0783 2C       		.byte	0x2c
 2893 0784 0A       		.uleb128 0xa
 2894 0785 40060000 		.4byte	.LASF112
 2895 0789 0E       		.byte	0xe
 2896 078a D9       		.byte	0xd9
 2897 078b B8000000 		.4byte	0xb8
 2898 078f 01       		.byte	0x1
 2899 0790 01       		.byte	0x1
 2900 0791 05       		.byte	0x5
 2901 0792 2C       		.byte	0x2c
 2902 0793 0A       		.uleb128 0xa
 2903 0794 35120000 		.4byte	.LASF113
 2904 0798 0E       		.byte	0xe
 2905 0799 DA       		.byte	0xda
 2906 079a B8000000 		.4byte	0xb8
 2907 079e 01       		.byte	0x1
 2908 079f 01       		.byte	0x1
 2909 07a0 04       		.byte	0x4
 2910 07a1 2C       		.byte	0x2c
 2911 07a2 0A       		.uleb128 0xa
 2912 07a3 9E020000 		.4byte	.LASF114
 2913 07a7 0E       		.byte	0xe
 2914 07a8 DB       		.byte	0xdb
 2915 07a9 B8000000 		.4byte	0xb8
 2916 07ad 01       		.byte	0x1
 2917 07ae 01       		.byte	0x1
 2918 07af 03       		.byte	0x3
 2919 07b0 2C       		.byte	0x2c
 2920 07b1 16       		.uleb128 0x16
 2921 07b2 746F7000 		.ascii	"top\000"
 2922 07b6 0E       		.byte	0xe
 2923 07b7 DC       		.byte	0xdc
 2924 07b8 B8000000 		.4byte	0xb8
 2925 07bc 01       		.byte	0x1
 2926 07bd 01       		.byte	0x1
 2927 07be 02       		.byte	0x2
 2928 07bf 2C       		.byte	0x2c
 2929 07c0 0A       		.uleb128 0xa
 2930 07c1 C5110000 		.4byte	.LASF115
 2931 07c5 0E       		.byte	0xe
 2932 07c6 DD       		.byte	0xdd
 2933 07c7 B8000000 		.4byte	0xb8
ARM GAS  C:\Users\tmj32\AppData\Local\Temp\ccSNdAsc.s 			page 69


 2934 07cb 01       		.byte	0x1
 2935 07cc 01       		.byte	0x1
 2936 07cd 01       		.byte	0x1
 2937 07ce 2C       		.byte	0x2c
 2938 07cf 0A       		.uleb128 0xa
 2939 07d0 2E0A0000 		.4byte	.LASF116
 2940 07d4 0E       		.byte	0xe
 2941 07d5 DE       		.byte	0xde
 2942 07d6 B8000000 		.4byte	0xb8
 2943 07da 01       		.byte	0x1
 2944 07db 01       		.byte	0x1
 2945 07dc 00       		.byte	0
 2946 07dd 2C       		.byte	0x2c
 2947 07de 0A       		.uleb128 0xa
 2948 07df 71040000 		.4byte	.LASF117
 2949 07e3 0E       		.byte	0xe
 2950 07e4 DF       		.byte	0xdf
 2951 07e5 E50A0000 		.4byte	0xae5
 2952 07e9 01       		.byte	0x1
 2953 07ea 02       		.byte	0x2
 2954 07eb 06       		.byte	0x6
 2955 07ec 2D       		.byte	0x2d
 2956 07ed 0A       		.uleb128 0xa
 2957 07ee 28110000 		.4byte	.LASF118
 2958 07f2 0E       		.byte	0xe
 2959 07f3 E0       		.byte	0xe0
 2960 07f4 E4060000 		.4byte	0x6e4
 2961 07f8 01       		.byte	0x1
 2962 07f9 02       		.byte	0x2
 2963 07fa 04       		.byte	0x4
 2964 07fb 2D       		.byte	0x2d
 2965 07fc 0A       		.uleb128 0xa
 2966 07fd 06130000 		.4byte	.LASF119
 2967 0801 0E       		.byte	0xe
 2968 0802 E1       		.byte	0xe1
 2969 0803 B8000000 		.4byte	0xb8
 2970 0807 01       		.byte	0x1
 2971 0808 03       		.byte	0x3
 2972 0809 01       		.byte	0x1
 2973 080a 2D       		.byte	0x2d
 2974 080b 07       		.uleb128 0x7
 2975 080c 060A0000 		.4byte	.LASF120
 2976 0810 0E       		.byte	0xe
 2977 0811 E2       		.byte	0xe2
 2978 0812 B8000000 		.4byte	0xb8
 2979 0816 2E       		.byte	0x2e
 2980 0817 07       		.uleb128 0x7
 2981 0818 68140000 		.4byte	.LASF121
 2982 081c 0E       		.byte	0xe
 2983 081d E4       		.byte	0xe4
 2984 081e 91020000 		.4byte	0x291
 2985 0822 2F       		.byte	0x2f
 2986 0823 07       		.uleb128 0x7
 2987 0824 67060000 		.4byte	.LASF122
 2988 0828 0E       		.byte	0xe
 2989 0829 E6       		.byte	0xe6
 2990 082a EF000000 		.4byte	0xef
ARM GAS  C:\Users\tmj32\AppData\Local\Temp\ccSNdAsc.s 			page 70


 2991 082e 30       		.byte	0x30
 2992 082f 07       		.uleb128 0x7
 2993 0830 F2060000 		.4byte	.LASF123
 2994 0834 0E       		.byte	0xe
 2995 0835 E9       		.byte	0xe9
 2996 0836 DA0A0000 		.4byte	0xada
 2997 083a 34       		.byte	0x34
 2998 083b 00       		.byte	0
 2999 083c 0D       		.uleb128 0xd
 3000 083d 04       		.byte	0x4
 3001 083e FA060000 		.4byte	0x6fa
 3002 0842 02       		.uleb128 0x2
 3003 0843 120D0000 		.4byte	.LASF124
 3004 0847 0E       		.byte	0xe
 3005 0848 42       		.byte	0x42
 3006 0849 B8000000 		.4byte	0xb8
 3007 084d 02       		.uleb128 0x2
 3008 084e 59140000 		.4byte	.LASF125
 3009 0852 0E       		.byte	0xe
 3010 0853 48       		.byte	0x48
 3011 0854 58080000 		.4byte	0x858
 3012 0858 0D       		.uleb128 0xd
 3013 0859 04       		.byte	0x4
 3014 085a 5E080000 		.4byte	0x85e
 3015 085e 0B       		.uleb128 0xb
 3016 085f D5010000 		.4byte	0x1d5
 3017 0863 77080000 		.4byte	0x877
 3018 0867 0C       		.uleb128 0xc
 3019 0868 3C080000 		.4byte	0x83c
 3020 086c 0C       		.uleb128 0xc
 3021 086d EF060000 		.4byte	0x6ef
 3022 0871 0C       		.uleb128 0xc
 3023 0872 42080000 		.4byte	0x842
 3024 0876 00       		.byte	0
 3025 0877 14       		.uleb128 0x14
 3026 0878 01       		.byte	0x1
 3027 0879 42000000 		.4byte	0x42
 3028 087d 0E       		.byte	0xe
 3029 087e 4A       		.byte	0x4a
 3030 087f FC080000 		.4byte	0x8fc
 3031 0883 15       		.uleb128 0x15
 3032 0884 760D0000 		.4byte	.LASF126
 3033 0888 00       		.byte	0
 3034 0889 15       		.uleb128 0x15
 3035 088a E20B0000 		.4byte	.LASF127
 3036 088e 01       		.byte	0x1
 3037 088f 15       		.uleb128 0x15
 3038 0890 66130000 		.4byte	.LASF128
 3039 0894 02       		.byte	0x2
 3040 0895 15       		.uleb128 0x15
 3041 0896 600C0000 		.4byte	.LASF129
 3042 089a 03       		.byte	0x3
 3043 089b 15       		.uleb128 0x15
 3044 089c CA010000 		.4byte	.LASF130
 3045 08a0 04       		.byte	0x4
 3046 08a1 15       		.uleb128 0x15
 3047 08a2 930C0000 		.4byte	.LASF131
ARM GAS  C:\Users\tmj32\AppData\Local\Temp\ccSNdAsc.s 			page 71


 3048 08a6 05       		.byte	0x5
 3049 08a7 15       		.uleb128 0x15
 3050 08a8 AF060000 		.4byte	.LASF132
 3051 08ac 06       		.byte	0x6
 3052 08ad 15       		.uleb128 0x15
 3053 08ae 47140000 		.4byte	.LASF133
 3054 08b2 07       		.byte	0x7
 3055 08b3 15       		.uleb128 0x15
 3056 08b4 1E060000 		.4byte	.LASF134
 3057 08b8 08       		.byte	0x8
 3058 08b9 15       		.uleb128 0x15
 3059 08ba 290D0000 		.4byte	.LASF135
 3060 08be 09       		.byte	0x9
 3061 08bf 15       		.uleb128 0x15
 3062 08c0 FA060000 		.4byte	.LASF136
 3063 08c4 0A       		.byte	0xa
 3064 08c5 15       		.uleb128 0x15
 3065 08c6 4E130000 		.4byte	.LASF137
 3066 08ca 0B       		.byte	0xb
 3067 08cb 15       		.uleb128 0x15
 3068 08cc E7050000 		.4byte	.LASF138
 3069 08d0 0C       		.byte	0xc
 3070 08d1 15       		.uleb128 0x15
 3071 08d2 E3110000 		.4byte	.LASF139
 3072 08d6 0D       		.byte	0xd
 3073 08d7 15       		.uleb128 0x15
 3074 08d8 470B0000 		.4byte	.LASF140
 3075 08dc 0E       		.byte	0xe
 3076 08dd 15       		.uleb128 0x15
 3077 08de C4000000 		.4byte	.LASF141
 3078 08e2 0F       		.byte	0xf
 3079 08e3 15       		.uleb128 0x15
 3080 08e4 46080000 		.4byte	.LASF142
 3081 08e8 10       		.byte	0x10
 3082 08e9 15       		.uleb128 0x15
 3083 08ea E3060000 		.4byte	.LASF143
 3084 08ee 11       		.byte	0x11
 3085 08ef 15       		.uleb128 0x15
 3086 08f0 A10D0000 		.4byte	.LASF144
 3087 08f4 12       		.byte	0x12
 3088 08f5 15       		.uleb128 0x15
 3089 08f6 B60A0000 		.4byte	.LASF145
 3090 08fa 13       		.byte	0x13
 3091 08fb 00       		.byte	0
 3092 08fc 02       		.uleb128 0x2
 3093 08fd 68010000 		.4byte	.LASF146
 3094 0901 0E       		.byte	0xe
 3095 0902 61       		.byte	0x61
 3096 0903 B8000000 		.4byte	0xb8
 3097 0907 02       		.uleb128 0x2
 3098 0908 D1130000 		.4byte	.LASF147
 3099 090c 0E       		.byte	0xe
 3100 090d 68       		.byte	0x68
 3101 090e 12090000 		.4byte	0x912
 3102 0912 0D       		.uleb128 0xd
 3103 0913 04       		.byte	0x4
 3104 0914 18090000 		.4byte	0x918
ARM GAS  C:\Users\tmj32\AppData\Local\Temp\ccSNdAsc.s 			page 72


 3105 0918 13       		.uleb128 0x13
 3106 0919 28090000 		.4byte	0x928
 3107 091d 0C       		.uleb128 0xc
 3108 091e 3C080000 		.4byte	0x83c
 3109 0922 0C       		.uleb128 0xc
 3110 0923 FC080000 		.4byte	0x8fc
 3111 0927 00       		.byte	0
 3112 0928 14       		.uleb128 0x14
 3113 0929 01       		.byte	0x1
 3114 092a 42000000 		.4byte	0x42
 3115 092e 0E       		.byte	0xe
 3116 092f 6D       		.byte	0x6d
 3117 0930 AD090000 		.4byte	0x9ad
 3118 0934 15       		.uleb128 0x15
 3119 0935 3B0A0000 		.4byte	.LASF148
 3120 0939 00       		.byte	0
 3121 093a 15       		.uleb128 0x15
 3122 093b E10A0000 		.4byte	.LASF149
 3123 093f 01       		.byte	0x1
 3124 0940 15       		.uleb128 0x15
 3125 0941 92110000 		.4byte	.LASF150
 3126 0945 02       		.byte	0x2
 3127 0946 15       		.uleb128 0x15
 3128 0947 870D0000 		.4byte	.LASF151
 3129 094b 03       		.byte	0x3
 3130 094c 15       		.uleb128 0x15
 3131 094d 90000000 		.4byte	.LASF152
 3132 0951 04       		.byte	0x4
 3133 0952 15       		.uleb128 0x15
 3134 0953 41120000 		.4byte	.LASF153
 3135 0957 05       		.byte	0x5
 3136 0958 15       		.uleb128 0x15
 3137 0959 55040000 		.4byte	.LASF154
 3138 095d 06       		.byte	0x6
 3139 095e 15       		.uleb128 0x15
 3140 095f 47070000 		.4byte	.LASF155
 3141 0963 07       		.byte	0x7
 3142 0964 15       		.uleb128 0x15
 3143 0965 B3010000 		.4byte	.LASF156
 3144 0969 08       		.byte	0x8
 3145 096a 15       		.uleb128 0x15
 3146 096b 4D0C0000 		.4byte	.LASF157
 3147 096f 09       		.byte	0x9
 3148 0970 15       		.uleb128 0x15
 3149 0971 3B0D0000 		.4byte	.LASF158
 3150 0975 0A       		.byte	0xa
 3151 0976 15       		.uleb128 0x15
 3152 0977 B10D0000 		.4byte	.LASF159
 3153 097b 0B       		.byte	0xb
 3154 097c 15       		.uleb128 0x15
 3155 097d EF000000 		.4byte	.LASF160
 3156 0981 0C       		.byte	0xc
 3157 0982 15       		.uleb128 0x15
 3158 0983 EB030000 		.4byte	.LASF161
 3159 0987 0D       		.byte	0xd
 3160 0988 15       		.uleb128 0x15
 3161 0989 3D010000 		.4byte	.LASF162
ARM GAS  C:\Users\tmj32\AppData\Local\Temp\ccSNdAsc.s 			page 73


 3162 098d 0E       		.byte	0xe
 3163 098e 15       		.uleb128 0x15
 3164 098f 5B0D0000 		.4byte	.LASF163
 3165 0993 0F       		.byte	0xf
 3166 0994 15       		.uleb128 0x15
 3167 0995 19080000 		.4byte	.LASF164
 3168 0999 10       		.byte	0x10
 3169 099a 15       		.uleb128 0x15
 3170 099b D5050000 		.4byte	.LASF165
 3171 099f 11       		.byte	0x11
 3172 09a0 15       		.uleb128 0x15
 3173 09a1 DE090000 		.4byte	.LASF166
 3174 09a5 12       		.byte	0x12
 3175 09a6 15       		.uleb128 0x15
 3176 09a7 A4080000 		.4byte	.LASF167
 3177 09ab 13       		.byte	0x13
 3178 09ac 00       		.byte	0
 3179 09ad 02       		.uleb128 0x2
 3180 09ae 040E0000 		.4byte	.LASF168
 3181 09b2 0E       		.byte	0xe
 3182 09b3 88       		.byte	0x88
 3183 09b4 B8000000 		.4byte	0xb8
 3184 09b8 02       		.uleb128 0x2
 3185 09b9 CA040000 		.4byte	.LASF169
 3186 09bd 0E       		.byte	0xe
 3187 09be 8A       		.byte	0x8a
 3188 09bf C3090000 		.4byte	0x9c3
 3189 09c3 0D       		.uleb128 0xd
 3190 09c4 04       		.byte	0x4
 3191 09c5 C9090000 		.4byte	0x9c9
 3192 09c9 0B       		.uleb128 0xb
 3193 09ca 90060000 		.4byte	0x690
 3194 09ce E2090000 		.4byte	0x9e2
 3195 09d2 0C       		.uleb128 0xc
 3196 09d3 3C080000 		.4byte	0x83c
 3197 09d7 0C       		.uleb128 0xc
 3198 09d8 AD090000 		.4byte	0x9ad
 3199 09dc 0C       		.uleb128 0xc
 3200 09dd FA000000 		.4byte	0xfa
 3201 09e1 00       		.byte	0
 3202 09e2 14       		.uleb128 0x14
 3203 09e3 01       		.byte	0x1
 3204 09e4 42000000 		.4byte	0x42
 3205 09e8 0E       		.byte	0xe
 3206 09e9 8D       		.byte	0x8d
 3207 09ea 6D0A0000 		.4byte	0xa6d
 3208 09ee 15       		.uleb128 0x15
 3209 09ef 280B0000 		.4byte	.LASF170
 3210 09f3 00       		.byte	0
 3211 09f4 15       		.uleb128 0x15
 3212 09f5 F8100000 		.4byte	.LASF171
 3213 09f9 01       		.byte	0x1
 3214 09fa 15       		.uleb128 0x15
 3215 09fb E70D0000 		.4byte	.LASF172
 3216 09ff 02       		.byte	0x2
 3217 0a00 15       		.uleb128 0x15
 3218 0a01 C8090000 		.4byte	.LASF173
ARM GAS  C:\Users\tmj32\AppData\Local\Temp\ccSNdAsc.s 			page 74


 3219 0a05 03       		.byte	0x3
 3220 0a06 15       		.uleb128 0x15
 3221 0a07 530A0000 		.4byte	.LASF174
 3222 0a0b 04       		.byte	0x4
 3223 0a0c 15       		.uleb128 0x15
 3224 0a0d DC020000 		.4byte	.LASF175
 3225 0a11 05       		.byte	0x5
 3226 0a12 15       		.uleb128 0x15
 3227 0a13 14070000 		.4byte	.LASF176
 3228 0a17 06       		.byte	0x6
 3229 0a18 15       		.uleb128 0x15
 3230 0a19 08120000 		.4byte	.LASF177
 3231 0a1d 07       		.byte	0x7
 3232 0a1e 15       		.uleb128 0x15
 3233 0a1f 1F100000 		.4byte	.LASF178
 3234 0a23 08       		.byte	0x8
 3235 0a24 15       		.uleb128 0x15
 3236 0a25 FC0C0000 		.4byte	.LASF179
 3237 0a29 09       		.byte	0x9
 3238 0a2a 15       		.uleb128 0x15
 3239 0a2b 7E120000 		.4byte	.LASF180
 3240 0a2f 0A       		.byte	0xa
 3241 0a30 15       		.uleb128 0x15
 3242 0a31 73110000 		.4byte	.LASF181
 3243 0a35 0B       		.byte	0xb
 3244 0a36 15       		.uleb128 0x15
 3245 0a37 C3080000 		.4byte	.LASF182
 3246 0a3b 0C       		.byte	0xc
 3247 0a3c 15       		.uleb128 0x15
 3248 0a3d 80070000 		.4byte	.LASF183
 3249 0a41 0D       		.byte	0xd
 3250 0a42 15       		.uleb128 0x15
 3251 0a43 2D070000 		.4byte	.LASF184
 3252 0a47 0E       		.byte	0xe
 3253 0a48 15       		.uleb128 0x15
 3254 0a49 DB120000 		.4byte	.LASF185
 3255 0a4d 0F       		.byte	0xf
 3256 0a4e 15       		.uleb128 0x15
 3257 0a4f 7E050000 		.4byte	.LASF186
 3258 0a53 10       		.byte	0x10
 3259 0a54 15       		.uleb128 0x15
 3260 0a55 A9090000 		.4byte	.LASF187
 3261 0a59 11       		.byte	0x11
 3262 0a5a 15       		.uleb128 0x15
 3263 0a5b 540E0000 		.4byte	.LASF188
 3264 0a5f 12       		.byte	0x12
 3265 0a60 15       		.uleb128 0x15
 3266 0a61 9C010000 		.4byte	.LASF189
 3267 0a65 13       		.byte	0x13
 3268 0a66 15       		.uleb128 0x15
 3269 0a67 B90C0000 		.4byte	.LASF190
 3270 0a6b 14       		.byte	0x14
 3271 0a6c 00       		.byte	0
 3272 0a6d 02       		.uleb128 0x2
 3273 0a6e 32010000 		.4byte	.LASF191
 3274 0a72 0E       		.byte	0xe
 3275 0a73 A4       		.byte	0xa4
ARM GAS  C:\Users\tmj32\AppData\Local\Temp\ccSNdAsc.s 			page 75


 3276 0a74 B8000000 		.4byte	0xb8
 3277 0a78 06       		.uleb128 0x6
 3278 0a79 0C       		.byte	0xc
 3279 0a7a 0E       		.byte	0xe
 3280 0a7b A7       		.byte	0xa7
 3281 0a7c CF0A0000 		.4byte	0xacf
 3282 0a80 07       		.uleb128 0x7
 3283 0a81 43110000 		.4byte	.LASF192
 3284 0a85 0E       		.byte	0xe
 3285 0a86 A9       		.byte	0xa9
 3286 0a87 CF0A0000 		.4byte	0xacf
 3287 0a8b 00       		.byte	0
 3288 0a8c 07       		.uleb128 0x7
 3289 0a8d 61100000 		.4byte	.LASF193
 3290 0a91 0E       		.byte	0xe
 3291 0a92 AA       		.byte	0xaa
 3292 0a93 EF000000 		.4byte	0xef
 3293 0a97 04       		.byte	0x4
 3294 0a98 07       		.uleb128 0x7
 3295 0a99 1C050000 		.4byte	.LASF194
 3296 0a9d 0E       		.byte	0xe
 3297 0a9e AB       		.byte	0xab
 3298 0a9f EF000000 		.4byte	0xef
 3299 0aa3 06       		.byte	0x6
 3300 0aa4 07       		.uleb128 0x7
 3301 0aa5 4D0A0000 		.4byte	.LASF195
 3302 0aa9 0E       		.byte	0xe
 3303 0aaa AC       		.byte	0xac
 3304 0aab 6D0A0000 		.4byte	0xa6d
 3305 0aaf 08       		.byte	0x8
 3306 0ab0 0A       		.uleb128 0xa
 3307 0ab1 840B0000 		.4byte	.LASF196
 3308 0ab5 0E       		.byte	0xe
 3309 0ab6 AD       		.byte	0xad
 3310 0ab7 B8000000 		.4byte	0xb8
 3311 0abb 01       		.byte	0x1
 3312 0abc 01       		.byte	0x1
 3313 0abd 07       		.byte	0x7
 3314 0abe 09       		.byte	0x9
 3315 0abf 0A       		.uleb128 0xa
 3316 0ac0 E7130000 		.4byte	.LASF197
 3317 0ac4 0E       		.byte	0xe
 3318 0ac5 AE       		.byte	0xae
 3319 0ac6 B8000000 		.4byte	0xb8
 3320 0aca 01       		.byte	0x1
 3321 0acb 01       		.byte	0x1
 3322 0acc 06       		.byte	0x6
 3323 0acd 09       		.byte	0x9
 3324 0ace 00       		.byte	0
 3325 0acf 0D       		.uleb128 0xd
 3326 0ad0 04       		.byte	0x4
 3327 0ad1 D50A0000 		.4byte	0xad5
 3328 0ad5 0E       		.uleb128 0xe
 3329 0ad6 FA060000 		.4byte	0x6fa
 3330 0ada 02       		.uleb128 0x2
 3331 0adb 0B010000 		.4byte	.LASF198
 3332 0adf 0E       		.byte	0xe
ARM GAS  C:\Users\tmj32\AppData\Local\Temp\ccSNdAsc.s 			page 76


 3333 0ae0 B0       		.byte	0xb0
 3334 0ae1 780A0000 		.4byte	0xa78
 3335 0ae5 02       		.uleb128 0x2
 3336 0ae6 DF0C0000 		.4byte	.LASF199
 3337 0aea 0E       		.byte	0xe
 3338 0aeb B9       		.byte	0xb9
 3339 0aec B8000000 		.4byte	0xb8
 3340 0af0 0D       		.uleb128 0xd
 3341 0af1 04       		.byte	0x4
 3342 0af2 F60A0000 		.4byte	0xaf6
 3343 0af6 0E       		.uleb128 0xe
 3344 0af7 66060000 		.4byte	0x666
 3345 0afb 02       		.uleb128 0x2
 3346 0afc 7C100000 		.4byte	.LASF200
 3347 0b00 0E       		.byte	0xe
 3348 0b01 F0       		.byte	0xf0
 3349 0b02 FA060000 		.4byte	0x6fa
 3350 0b06 14       		.uleb128 0x14
 3351 0b07 01       		.byte	0x1
 3352 0b08 42000000 		.4byte	0x42
 3353 0b0c 03       		.byte	0x3
 3354 0b0d 23       		.byte	0x23
 3355 0b0e 550B0000 		.4byte	0xb55
 3356 0b12 15       		.uleb128 0x15
 3357 0b13 06080000 		.4byte	.LASF201
 3358 0b17 00       		.byte	0
 3359 0b18 15       		.uleb128 0x15
 3360 0b19 40030000 		.4byte	.LASF202
 3361 0b1d 01       		.byte	0x1
 3362 0b1e 15       		.uleb128 0x15
 3363 0b1f 35050000 		.4byte	.LASF203
 3364 0b23 02       		.byte	0x2
 3365 0b24 15       		.uleb128 0x15
 3366 0b25 45050000 		.4byte	.LASF204
 3367 0b29 03       		.byte	0x3
 3368 0b2a 15       		.uleb128 0x15
 3369 0b2b 6E050000 		.4byte	.LASF205
 3370 0b2f 04       		.byte	0x4
 3371 0b30 15       		.uleb128 0x15
 3372 0b31 51030000 		.4byte	.LASF206
 3373 0b35 05       		.byte	0x5
 3374 0b36 15       		.uleb128 0x15
 3375 0b37 30030000 		.4byte	.LASF207
 3376 0b3b 06       		.byte	0x6
 3377 0b3c 15       		.uleb128 0x15
 3378 0b3d 0A030000 		.4byte	.LASF208
 3379 0b41 07       		.byte	0x7
 3380 0b42 15       		.uleb128 0x15
 3381 0b43 1A030000 		.4byte	.LASF209
 3382 0b47 08       		.byte	0x8
 3383 0b48 15       		.uleb128 0x15
 3384 0b49 97100000 		.4byte	.LASF210
 3385 0b4d 09       		.byte	0x9
 3386 0b4e 15       		.uleb128 0x15
 3387 0b4f FE040000 		.4byte	.LASF211
 3388 0b53 0A       		.byte	0xa
 3389 0b54 00       		.byte	0
ARM GAS  C:\Users\tmj32\AppData\Local\Temp\ccSNdAsc.s 			page 77


 3390 0b55 14       		.uleb128 0x14
 3391 0b56 01       		.byte	0x1
 3392 0b57 42000000 		.4byte	0x42
 3393 0b5b 03       		.byte	0x3
 3394 0b5c 35       		.byte	0x35
 3395 0b5d 800B0000 		.4byte	0xb80
 3396 0b61 15       		.uleb128 0x15
 3397 0b62 E0010000 		.4byte	.LASF212
 3398 0b66 00       		.byte	0
 3399 0b67 15       		.uleb128 0x15
 3400 0b68 AC120000 		.4byte	.LASF213
 3401 0b6c 01       		.byte	0x1
 3402 0b6d 15       		.uleb128 0x15
 3403 0b6e A2070000 		.4byte	.LASF214
 3404 0b72 02       		.byte	0x2
 3405 0b73 15       		.uleb128 0x15
 3406 0b74 CC100000 		.4byte	.LASF215
 3407 0b78 03       		.byte	0x3
 3408 0b79 15       		.uleb128 0x15
 3409 0b7a 70100000 		.4byte	.LASF216
 3410 0b7e 04       		.byte	0x4
 3411 0b7f 00       		.byte	0
 3412 0b80 02       		.uleb128 0x2
 3413 0b81 BB0E0000 		.4byte	.LASF217
 3414 0b85 03       		.byte	0x3
 3415 0b86 3D       		.byte	0x3d
 3416 0b87 B8000000 		.4byte	0xb8
 3417 0b8b 06       		.uleb128 0x6
 3418 0b8c 02       		.byte	0x2
 3419 0b8d 03       		.byte	0x3
 3420 0b8e 3F       		.byte	0x3f
 3421 0b8f DF0B0000 		.4byte	0xbdf
 3422 0b93 0A       		.uleb128 0xa
 3423 0b94 1F0A0000 		.4byte	.LASF218
 3424 0b98 03       		.byte	0x3
 3425 0b99 43       		.byte	0x43
 3426 0b9a B8000000 		.4byte	0xb8
 3427 0b9e 01       		.byte	0x1
 3428 0b9f 04       		.byte	0x4
 3429 0ba0 04       		.byte	0x4
 3430 0ba1 00       		.byte	0
 3431 0ba2 0A       		.uleb128 0xa
 3432 0ba3 D90B0000 		.4byte	.LASF219
 3433 0ba7 03       		.byte	0x3
 3434 0ba8 44       		.byte	0x44
 3435 0ba9 B8000000 		.4byte	0xb8
 3436 0bad 01       		.byte	0x1
 3437 0bae 02       		.byte	0x2
 3438 0baf 02       		.byte	0x2
 3439 0bb0 00       		.byte	0
 3440 0bb1 0A       		.uleb128 0xa
 3441 0bb2 66100000 		.4byte	.LASF220
 3442 0bb6 03       		.byte	0x3
 3443 0bb7 45       		.byte	0x45
 3444 0bb8 B8000000 		.4byte	0xb8
 3445 0bbc 01       		.byte	0x1
 3446 0bbd 02       		.byte	0x2
ARM GAS  C:\Users\tmj32\AppData\Local\Temp\ccSNdAsc.s 			page 78


 3447 0bbe 00       		.byte	0
 3448 0bbf 00       		.byte	0
 3449 0bc0 0A       		.uleb128 0xa
 3450 0bc1 C8030000 		.4byte	.LASF221
 3451 0bc5 03       		.byte	0x3
 3452 0bc6 46       		.byte	0x46
 3453 0bc7 B8000000 		.4byte	0xb8
 3454 0bcb 01       		.byte	0x1
 3455 0bcc 02       		.byte	0x2
 3456 0bcd 06       		.byte	0x6
 3457 0bce 01       		.byte	0x1
 3458 0bcf 0A       		.uleb128 0xa
 3459 0bd0 0F0F0000 		.4byte	.LASF222
 3460 0bd4 03       		.byte	0x3
 3461 0bd5 47       		.byte	0x47
 3462 0bd6 B8000000 		.4byte	0xb8
 3463 0bda 01       		.byte	0x1
 3464 0bdb 02       		.byte	0x2
 3465 0bdc 04       		.byte	0x4
 3466 0bdd 01       		.byte	0x1
 3467 0bde 00       		.byte	0
 3468 0bdf 02       		.uleb128 0x2
 3469 0be0 C60A0000 		.4byte	.LASF223
 3470 0be4 03       		.byte	0x3
 3471 0be5 48       		.byte	0x48
 3472 0be6 8B0B0000 		.4byte	0xb8b
 3473 0bea 14       		.uleb128 0x14
 3474 0beb 01       		.byte	0x1
 3475 0bec 42000000 		.4byte	0x42
 3476 0bf0 0F       		.byte	0xf
 3477 0bf1 2F       		.byte	0x2f
 3478 0bf2 1B0C0000 		.4byte	0xc1b
 3479 0bf6 15       		.uleb128 0x15
 3480 0bf7 7E0E0000 		.4byte	.LASF224
 3481 0bfb 00       		.byte	0
 3482 0bfc 15       		.uleb128 0x15
 3483 0bfd 1E040000 		.4byte	.LASF225
 3484 0c01 01       		.byte	0x1
 3485 0c02 15       		.uleb128 0x15
 3486 0c03 85100000 		.4byte	.LASF226
 3487 0c07 02       		.byte	0x2
 3488 0c08 15       		.uleb128 0x15
 3489 0c09 A20A0000 		.4byte	.LASF227
 3490 0c0d 03       		.byte	0x3
 3491 0c0e 15       		.uleb128 0x15
 3492 0c0f 55050000 		.4byte	.LASF228
 3493 0c13 04       		.byte	0x4
 3494 0c14 15       		.uleb128 0x15
 3495 0c15 23130000 		.4byte	.LASF229
 3496 0c19 05       		.byte	0x5
 3497 0c1a 00       		.byte	0
 3498 0c1b 14       		.uleb128 0x14
 3499 0c1c 01       		.byte	0x1
 3500 0c1d 42000000 		.4byte	0x42
 3501 0c21 0F       		.byte	0xf
 3502 0c22 3B       		.byte	0x3b
 3503 0c23 400C0000 		.4byte	0xc40
ARM GAS  C:\Users\tmj32\AppData\Local\Temp\ccSNdAsc.s 			page 79


 3504 0c27 15       		.uleb128 0x15
 3505 0c28 0F130000 		.4byte	.LASF230
 3506 0c2c 00       		.byte	0
 3507 0c2d 15       		.uleb128 0x15
 3508 0c2e 19020000 		.4byte	.LASF231
 3509 0c32 01       		.byte	0x1
 3510 0c33 15       		.uleb128 0x15
 3511 0c34 40040000 		.4byte	.LASF232
 3512 0c38 02       		.byte	0x2
 3513 0c39 15       		.uleb128 0x15
 3514 0c3a DB000000 		.4byte	.LASF233
 3515 0c3e 03       		.byte	0x3
 3516 0c3f 00       		.byte	0
 3517 0c40 14       		.uleb128 0x14
 3518 0c41 01       		.byte	0x1
 3519 0c42 42000000 		.4byte	0x42
 3520 0c46 10       		.byte	0x10
 3521 0c47 1E       		.byte	0x1e
 3522 0c48 950C0000 		.4byte	0xc95
 3523 0c4c 15       		.uleb128 0x15
 3524 0c4d F8130000 		.4byte	.LASF234
 3525 0c51 11       		.byte	0x11
 3526 0c52 15       		.uleb128 0x15
 3527 0c53 030F0000 		.4byte	.LASF235
 3528 0c57 12       		.byte	0x12
 3529 0c58 15       		.uleb128 0x15
 3530 0c59 4E000000 		.4byte	.LASF236
 3531 0c5d 13       		.byte	0x13
 3532 0c5e 15       		.uleb128 0x15
 3533 0c5f 7D030000 		.4byte	.LASF237
 3534 0c63 14       		.byte	0x14
 3535 0c64 15       		.uleb128 0x15
 3536 0c65 1A0F0000 		.4byte	.LASF238
 3537 0c69 1B       		.byte	0x1b
 3538 0c6a 15       		.uleb128 0x15
 3539 0c6b F3020000 		.4byte	.LASF239
 3540 0c6f 7F       		.byte	0x7f
 3541 0c70 15       		.uleb128 0x15
 3542 0c71 AC040000 		.4byte	.LASF240
 3543 0c75 08       		.byte	0x8
 3544 0c76 15       		.uleb128 0x15
 3545 0c77 73010000 		.4byte	.LASF241
 3546 0c7b 0A       		.byte	0xa
 3547 0c7c 15       		.uleb128 0x15
 3548 0c7d 280C0000 		.4byte	.LASF242
 3549 0c81 09       		.byte	0x9
 3550 0c82 15       		.uleb128 0x15
 3551 0c83 37110000 		.4byte	.LASF243
 3552 0c87 0B       		.byte	0xb
 3553 0c88 15       		.uleb128 0x15
 3554 0c89 C1070000 		.4byte	.LASF244
 3555 0c8d 02       		.byte	0x2
 3556 0c8e 15       		.uleb128 0x15
 3557 0c8f 500D0000 		.4byte	.LASF245
 3558 0c93 03       		.byte	0x3
 3559 0c94 00       		.byte	0
 3560 0c95 14       		.uleb128 0x14
ARM GAS  C:\Users\tmj32\AppData\Local\Temp\ccSNdAsc.s 			page 80


 3561 0c96 01       		.byte	0x1
 3562 0c97 42000000 		.4byte	0x42
 3563 0c9b 11       		.byte	0x11
 3564 0c9c 2A       		.byte	0x2a
 3565 0c9d C60C0000 		.4byte	0xcc6
 3566 0ca1 15       		.uleb128 0x15
 3567 0ca2 02020000 		.4byte	.LASF246
 3568 0ca6 00       		.byte	0
 3569 0ca7 15       		.uleb128 0x15
 3570 0ca8 180E0000 		.4byte	.LASF247
 3571 0cac 01       		.byte	0x1
 3572 0cad 15       		.uleb128 0x15
 3573 0cae D8070000 		.4byte	.LASF248
 3574 0cb2 02       		.byte	0x2
 3575 0cb3 15       		.uleb128 0x15
 3576 0cb4 14000000 		.4byte	.LASF249
 3577 0cb8 03       		.byte	0x3
 3578 0cb9 15       		.uleb128 0x15
 3579 0cba 5E0B0000 		.4byte	.LASF250
 3580 0cbe 04       		.byte	0x4
 3581 0cbf 15       		.uleb128 0x15
 3582 0cc0 2E140000 		.4byte	.LASF251
 3583 0cc4 05       		.byte	0x5
 3584 0cc5 00       		.byte	0
 3585 0cc6 14       		.uleb128 0x14
 3586 0cc7 02       		.byte	0x2
 3587 0cc8 66000000 		.4byte	0x66
 3588 0ccc 12       		.byte	0x12
 3589 0ccd 29       		.byte	0x29
 3590 0cce F80C0000 		.4byte	0xcf8
 3591 0cd2 15       		.uleb128 0x15
 3592 0cd3 0C0B0000 		.4byte	.LASF252
 3593 0cd7 08       		.byte	0x8
 3594 0cd8 15       		.uleb128 0x15
 3595 0cd9 2E000000 		.4byte	.LASF253
 3596 0cdd 10       		.byte	0x10
 3597 0cde 15       		.uleb128 0x15
 3598 0cdf 51020000 		.4byte	.LASF254
 3599 0ce3 20       		.byte	0x20
 3600 0ce4 15       		.uleb128 0x15
 3601 0ce5 1D120000 		.4byte	.LASF255
 3602 0ce9 40       		.byte	0x40
 3603 0cea 15       		.uleb128 0x15
 3604 0ceb F40B0000 		.4byte	.LASF256
 3605 0cef 80       		.byte	0x80
 3606 0cf0 17       		.uleb128 0x17
 3607 0cf1 C4020000 		.4byte	.LASF257
 3608 0cf5 0001     		.2byte	0x100
 3609 0cf7 00       		.byte	0
 3610 0cf8 0D       		.uleb128 0xd
 3611 0cf9 04       		.byte	0x4
 3612 0cfa AB020000 		.4byte	0x2ab
 3613 0cfe 14       		.uleb128 0x14
 3614 0cff 01       		.byte	0x1
 3615 0d00 42000000 		.4byte	0x42
 3616 0d04 12       		.byte	0x12
 3617 0d05 43       		.byte	0x43
ARM GAS  C:\Users\tmj32\AppData\Local\Temp\ccSNdAsc.s 			page 81


 3618 0d06 2F0D0000 		.4byte	0xd2f
 3619 0d0a 15       		.uleb128 0x15
 3620 0d0b C4050000 		.4byte	.LASF258
 3621 0d0f 00       		.byte	0
 3622 0d10 15       		.uleb128 0x15
 3623 0d11 AE050000 		.4byte	.LASF259
 3624 0d15 01       		.byte	0x1
 3625 0d16 15       		.uleb128 0x15
 3626 0d17 3F0E0000 		.4byte	.LASF260
 3627 0d1b 02       		.byte	0x2
 3628 0d1c 15       		.uleb128 0x15
 3629 0d1d A7030000 		.4byte	.LASF261
 3630 0d21 03       		.byte	0x3
 3631 0d22 15       		.uleb128 0x15
 3632 0d23 ED070000 		.4byte	.LASF262
 3633 0d27 04       		.byte	0x4
 3634 0d28 15       		.uleb128 0x15
 3635 0d29 D8100000 		.4byte	.LASF263
 3636 0d2d 05       		.byte	0x5
 3637 0d2e 00       		.byte	0
 3638 0d2f 06       		.uleb128 0x6
 3639 0d30 10       		.byte	0x10
 3640 0d31 13       		.byte	0x13
 3641 0d32 33       		.byte	0x33
 3642 0d33 670D0000 		.4byte	0xd67
 3643 0d37 08       		.uleb128 0x8
 3644 0d38 626700   		.ascii	"bg\000"
 3645 0d3b 13       		.byte	0x13
 3646 0d3c 35       		.byte	0x35
 3647 0d3d DF0B0000 		.4byte	0xbdf
 3648 0d41 00       		.byte	0
 3649 0d42 07       		.uleb128 0x7
 3650 0d43 08060000 		.4byte	.LASF89
 3651 0d47 13       		.byte	0x13
 3652 0d48 37       		.byte	0x37
 3653 0d49 670D0000 		.4byte	0xd67
 3654 0d4d 04       		.byte	0x4
 3655 0d4e 07       		.uleb128 0x7
 3656 0d4f 61030000 		.4byte	.LASF264
 3657 0d53 13       		.byte	0x13
 3658 0d54 38       		.byte	0x38
 3659 0d55 670D0000 		.4byte	0xd67
 3660 0d59 08       		.byte	0x8
 3661 0d5a 07       		.uleb128 0x7
 3662 0d5b 12050000 		.4byte	.LASF265
 3663 0d5f 13       		.byte	0x13
 3664 0d60 3A       		.byte	0x3a
 3665 0d61 CE000000 		.4byte	0xce
 3666 0d65 0C       		.byte	0xc
 3667 0d66 00       		.byte	0
 3668 0d67 0D       		.uleb128 0xd
 3669 0d68 04       		.byte	0x4
 3670 0d69 FB0A0000 		.4byte	0xafb
 3671 0d6d 02       		.uleb128 0x2
 3672 0d6e AD0E0000 		.4byte	.LASF266
 3673 0d72 13       		.byte	0x13
 3674 0d73 3C       		.byte	0x3c
ARM GAS  C:\Users\tmj32\AppData\Local\Temp\ccSNdAsc.s 			page 82


 3675 0d74 2F0D0000 		.4byte	0xd2f
 3676 0d78 14       		.uleb128 0x14
 3677 0d79 01       		.byte	0x1
 3678 0d7a 42000000 		.4byte	0x42
 3679 0d7e 13       		.byte	0x13
 3680 0d7f 3F       		.byte	0x3f
 3681 0d80 AF0D0000 		.4byte	0xdaf
 3682 0d84 15       		.uleb128 0x15
 3683 0d85 80010000 		.4byte	.LASF267
 3684 0d89 00       		.byte	0
 3685 0d8a 15       		.uleb128 0x15
 3686 0d8b 6F0B0000 		.4byte	.LASF268
 3687 0d8f 01       		.byte	0x1
 3688 0d90 15       		.uleb128 0x15
 3689 0d91 61120000 		.4byte	.LASF269
 3690 0d95 02       		.byte	0x2
 3691 0d96 15       		.uleb128 0x15
 3692 0d97 57080000 		.4byte	.LASF270
 3693 0d9b 03       		.byte	0x3
 3694 0d9c 15       		.uleb128 0x15
 3695 0d9d 04040000 		.4byte	.LASF271
 3696 0da1 04       		.byte	0x4
 3697 0da2 15       		.uleb128 0x15
 3698 0da3 8B080000 		.4byte	.LASF272
 3699 0da7 05       		.byte	0x5
 3700 0da8 15       		.uleb128 0x15
 3701 0da9 8F060000 		.4byte	.LASF273
 3702 0dad 06       		.byte	0x6
 3703 0dae 00       		.byte	0
 3704 0daf 02       		.uleb128 0x2
 3705 0db0 ED0F0000 		.4byte	.LASF274
 3706 0db4 13       		.byte	0x13
 3707 0db5 48       		.byte	0x48
 3708 0db6 B8000000 		.4byte	0xb8
 3709 0dba 06       		.uleb128 0x6
 3710 0dbb 14       		.byte	0x14
 3711 0dbc 14       		.byte	0x14
 3712 0dbd 34       		.byte	0x34
 3713 0dbe FE0D0000 		.4byte	0xdfe
 3714 0dc2 08       		.uleb128 0x8
 3715 0dc3 72656C00 		.ascii	"rel\000"
 3716 0dc7 14       		.byte	0x14
 3717 0dc8 36       		.byte	0x36
 3718 0dc9 71060000 		.4byte	0x671
 3719 0dcd 00       		.byte	0
 3720 0dce 08       		.uleb128 0x8
 3721 0dcf 707200   		.ascii	"pr\000"
 3722 0dd2 14       		.byte	0x14
 3723 0dd3 37       		.byte	0x37
 3724 0dd4 71060000 		.4byte	0x671
 3725 0dd8 04       		.byte	0x4
 3726 0dd9 07       		.uleb128 0x7
 3727 0dda 200B0000 		.4byte	.LASF275
 3728 0dde 14       		.byte	0x14
 3729 0ddf 38       		.byte	0x38
 3730 0de0 71060000 		.4byte	0x671
 3731 0de4 08       		.byte	0x8
ARM GAS  C:\Users\tmj32\AppData\Local\Temp\ccSNdAsc.s 			page 83


 3732 0de5 07       		.uleb128 0x7
 3733 0de6 C1030000 		.4byte	.LASF276
 3734 0dea 14       		.byte	0x14
 3735 0deb 39       		.byte	0x39
 3736 0dec 71060000 		.4byte	0x671
 3737 0df0 0C       		.byte	0xc
 3738 0df1 08       		.uleb128 0x8
 3739 0df2 696E6100 		.ascii	"ina\000"
 3740 0df6 14       		.byte	0x14
 3741 0df7 3A       		.byte	0x3a
 3742 0df8 71060000 		.4byte	0x671
 3743 0dfc 10       		.byte	0x10
 3744 0dfd 00       		.byte	0
 3745 0dfe 06       		.uleb128 0x6
 3746 0dff 14       		.byte	0x14
 3747 0e00 14       		.byte	0x14
 3748 0e01 3F       		.byte	0x3f
 3749 0e02 420E0000 		.4byte	0xe42
 3750 0e06 08       		.uleb128 0x8
 3751 0e07 72656C00 		.ascii	"rel\000"
 3752 0e0b 14       		.byte	0x14
 3753 0e0c 41       		.byte	0x41
 3754 0e0d 71060000 		.4byte	0x671
 3755 0e11 00       		.byte	0
 3756 0e12 08       		.uleb128 0x8
 3757 0e13 707200   		.ascii	"pr\000"
 3758 0e16 14       		.byte	0x14
 3759 0e17 42       		.byte	0x42
 3760 0e18 71060000 		.4byte	0x671
 3761 0e1c 04       		.byte	0x4
 3762 0e1d 07       		.uleb128 0x7
 3763 0e1e 200B0000 		.4byte	.LASF275
 3764 0e22 14       		.byte	0x14
 3765 0e23 43       		.byte	0x43
 3766 0e24 71060000 		.4byte	0x671
 3767 0e28 08       		.byte	0x8
 3768 0e29 07       		.uleb128 0x7
 3769 0e2a C1030000 		.4byte	.LASF276
 3770 0e2e 14       		.byte	0x14
 3771 0e2f 44       		.byte	0x44
 3772 0e30 71060000 		.4byte	0x671
 3773 0e34 0C       		.byte	0xc
 3774 0e35 08       		.uleb128 0x8
 3775 0e36 696E6100 		.ascii	"ina\000"
 3776 0e3a 14       		.byte	0x14
 3777 0e3b 45       		.byte	0x45
 3778 0e3c 71060000 		.4byte	0x671
 3779 0e40 10       		.byte	0x10
 3780 0e41 00       		.byte	0
 3781 0e42 06       		.uleb128 0x6
 3782 0e43 0C       		.byte	0xc
 3783 0e44 14       		.byte	0x14
 3784 0e45 4A       		.byte	0x4a
 3785 0e46 6F0E0000 		.4byte	0xe6f
 3786 0e4a 07       		.uleb128 0x7
 3787 0e4b FD010000 		.4byte	.LASF277
 3788 0e4f 14       		.byte	0x14
ARM GAS  C:\Users\tmj32\AppData\Local\Temp\ccSNdAsc.s 			page 84


 3789 0e50 4C       		.byte	0x4c
 3790 0e51 71060000 		.4byte	0x671
 3791 0e55 00       		.byte	0
 3792 0e56 08       		.uleb128 0x8
 3793 0e57 73656300 		.ascii	"sec\000"
 3794 0e5b 14       		.byte	0x14
 3795 0e5c 4D       		.byte	0x4d
 3796 0e5d 71060000 		.4byte	0x671
 3797 0e61 04       		.byte	0x4
 3798 0e62 07       		.uleb128 0x7
 3799 0e63 CD070000 		.4byte	.LASF278
 3800 0e67 14       		.byte	0x14
 3801 0e68 4E       		.byte	0x4e
 3802 0e69 71060000 		.4byte	0x671
 3803 0e6d 08       		.byte	0x8
 3804 0e6e 00       		.byte	0
 3805 0e6f 06       		.uleb128 0x6
 3806 0e70 08       		.byte	0x8
 3807 0e71 14       		.byte	0x14
 3808 0e72 53       		.byte	0x53
 3809 0e73 900E0000 		.4byte	0xe90
 3810 0e77 07       		.uleb128 0x7
 3811 0e78 F2010000 		.4byte	.LASF279
 3812 0e7c 14       		.byte	0x14
 3813 0e7d 55       		.byte	0x55
 3814 0e7e 71060000 		.4byte	0x671
 3815 0e82 00       		.byte	0
 3816 0e83 07       		.uleb128 0x7
 3817 0e84 F1120000 		.4byte	.LASF280
 3818 0e88 14       		.byte	0x14
 3819 0e89 56       		.byte	0x56
 3820 0e8a 71060000 		.4byte	0x671
 3821 0e8e 04       		.byte	0x4
 3822 0e8f 00       		.byte	0
 3823 0e90 06       		.uleb128 0x6
 3824 0e91 04       		.byte	0x4
 3825 0e92 14       		.byte	0x14
 3826 0e93 5B       		.byte	0x5b
 3827 0e94 A50E0000 		.4byte	0xea5
 3828 0e98 07       		.uleb128 0x7
 3829 0e99 FD0F0000 		.4byte	.LASF281
 3830 0e9d 14       		.byte	0x14
 3831 0e9e 5D       		.byte	0x5d
 3832 0e9f 71060000 		.4byte	0x671
 3833 0ea3 00       		.byte	0
 3834 0ea4 00       		.byte	0
 3835 0ea5 06       		.uleb128 0x6
 3836 0ea6 08       		.byte	0x8
 3837 0ea7 14       		.byte	0x14
 3838 0ea8 66       		.byte	0x66
 3839 0ea9 C50E0000 		.4byte	0xec5
 3840 0ead 08       		.uleb128 0x8
 3841 0eae 626700   		.ascii	"bg\000"
 3842 0eb1 14       		.byte	0x14
 3843 0eb2 68       		.byte	0x68
 3844 0eb3 71060000 		.4byte	0x671
 3845 0eb7 00       		.byte	0
ARM GAS  C:\Users\tmj32\AppData\Local\Temp\ccSNdAsc.s 			page 85


 3846 0eb8 07       		.uleb128 0x7
 3847 0eb9 000A0000 		.4byte	.LASF282
 3848 0ebd 14       		.byte	0x14
 3849 0ebe 69       		.byte	0x69
 3850 0ebf 71060000 		.4byte	0x671
 3851 0ec3 04       		.byte	0x4
 3852 0ec4 00       		.byte	0
 3853 0ec5 06       		.uleb128 0x6
 3854 0ec6 0C       		.byte	0xc
 3855 0ec7 14       		.byte	0x14
 3856 0ec8 6E       		.byte	0x6e
 3857 0ec9 F10E0000 		.4byte	0xef1
 3858 0ecd 08       		.uleb128 0x8
 3859 0ece 626700   		.ascii	"bg\000"
 3860 0ed1 14       		.byte	0x14
 3861 0ed2 70       		.byte	0x70
 3862 0ed3 71060000 		.4byte	0x671
 3863 0ed7 00       		.byte	0
 3864 0ed8 07       		.uleb128 0x7
 3865 0ed9 000A0000 		.4byte	.LASF282
 3866 0edd 14       		.byte	0x14
 3867 0ede 71       		.byte	0x71
 3868 0edf 71060000 		.4byte	0x671
 3869 0ee3 04       		.byte	0x4
 3870 0ee4 07       		.uleb128 0x7
 3871 0ee5 F3130000 		.4byte	.LASF283
 3872 0ee9 14       		.byte	0x14
 3873 0eea 72       		.byte	0x72
 3874 0eeb 71060000 		.4byte	0x671
 3875 0eef 08       		.byte	0x8
 3876 0ef0 00       		.byte	0
 3877 0ef1 06       		.uleb128 0x6
 3878 0ef2 10       		.byte	0x10
 3879 0ef3 14       		.byte	0x14
 3880 0ef4 87       		.byte	0x87
 3881 0ef5 290F0000 		.4byte	0xf29
 3882 0ef9 08       		.uleb128 0x8
 3883 0efa 626700   		.ascii	"bg\000"
 3884 0efd 14       		.byte	0x14
 3885 0efe 89       		.byte	0x89
 3886 0eff 71060000 		.4byte	0x671
 3887 0f03 00       		.byte	0
 3888 0f04 07       		.uleb128 0x7
 3889 0f05 000A0000 		.4byte	.LASF282
 3890 0f09 14       		.byte	0x14
 3891 0f0a 8A       		.byte	0x8a
 3892 0f0b 71060000 		.4byte	0x671
 3893 0f0f 04       		.byte	0x4
 3894 0f10 07       		.uleb128 0x7
 3895 0f11 100C0000 		.4byte	.LASF284
 3896 0f15 14       		.byte	0x14
 3897 0f16 8B       		.byte	0x8b
 3898 0f17 71060000 		.4byte	0x671
 3899 0f1b 08       		.byte	0x8
 3900 0f1c 07       		.uleb128 0x7
 3901 0f1d 98040000 		.4byte	.LASF285
 3902 0f21 14       		.byte	0x14
ARM GAS  C:\Users\tmj32\AppData\Local\Temp\ccSNdAsc.s 			page 86


 3903 0f22 8C       		.byte	0x8c
 3904 0f23 71060000 		.4byte	0x671
 3905 0f27 0C       		.byte	0xc
 3906 0f28 00       		.byte	0
 3907 0f29 06       		.uleb128 0x6
 3908 0f2a 20       		.byte	0x20
 3909 0f2b 14       		.byte	0x14
 3910 0f2c 95       		.byte	0x95
 3911 0f2d 910F0000 		.4byte	0xf91
 3912 0f31 08       		.uleb128 0x8
 3913 0f32 626700   		.ascii	"bg\000"
 3914 0f35 14       		.byte	0x14
 3915 0f36 97       		.byte	0x97
 3916 0f37 71060000 		.4byte	0x671
 3917 0f3b 00       		.byte	0
 3918 0f3c 07       		.uleb128 0x7
 3919 0f3d BD040000 		.4byte	.LASF286
 3920 0f41 14       		.byte	0x14
 3921 0f42 98       		.byte	0x98
 3922 0f43 71060000 		.4byte	0x671
 3923 0f47 04       		.byte	0x4
 3924 0f48 07       		.uleb128 0x7
 3925 0f49 A5060000 		.4byte	.LASF287
 3926 0f4d 14       		.byte	0x14
 3927 0f4e 99       		.byte	0x99
 3928 0f4f 71060000 		.4byte	0x671
 3929 0f53 08       		.byte	0x8
 3930 0f54 07       		.uleb128 0x7
 3931 0f55 D2110000 		.4byte	.LASF288
 3932 0f59 14       		.byte	0x14
 3933 0f5a 9A       		.byte	0x9a
 3934 0f5b 71060000 		.4byte	0x671
 3935 0f5f 0C       		.byte	0xc
 3936 0f60 07       		.uleb128 0x7
 3937 0f61 52010000 		.4byte	.LASF289
 3938 0f65 14       		.byte	0x14
 3939 0f66 9B       		.byte	0x9b
 3940 0f67 71060000 		.4byte	0x671
 3941 0f6b 10       		.byte	0x10
 3942 0f6c 07       		.uleb128 0x7
 3943 0f6d 4B060000 		.4byte	.LASF290
 3944 0f71 14       		.byte	0x14
 3945 0f72 9C       		.byte	0x9c
 3946 0f73 71060000 		.4byte	0x671
 3947 0f77 14       		.byte	0x14
 3948 0f78 07       		.uleb128 0x7
 3949 0f79 2C050000 		.4byte	.LASF291
 3950 0f7d 14       		.byte	0x14
 3951 0f7e 9D       		.byte	0x9d
 3952 0f7f 71060000 		.4byte	0x671
 3953 0f83 18       		.byte	0x18
 3954 0f84 07       		.uleb128 0x7
 3955 0f85 9D030000 		.4byte	.LASF292
 3956 0f89 14       		.byte	0x14
 3957 0f8a 9E       		.byte	0x9e
 3958 0f8b 71060000 		.4byte	0x671
 3959 0f8f 1C       		.byte	0x1c
ARM GAS  C:\Users\tmj32\AppData\Local\Temp\ccSNdAsc.s 			page 87


 3960 0f90 00       		.byte	0
 3961 0f91 06       		.uleb128 0x6
 3962 0f92 14       		.byte	0x14
 3963 0f93 14       		.byte	0x14
 3964 0f94 A6       		.byte	0xa6
 3965 0f95 D50F0000 		.4byte	0xfd5
 3966 0f99 08       		.uleb128 0x8
 3967 0f9a 72656C00 		.ascii	"rel\000"
 3968 0f9e 14       		.byte	0x14
 3969 0f9f A8       		.byte	0xa8
 3970 0fa0 71060000 		.4byte	0x671
 3971 0fa4 00       		.byte	0
 3972 0fa5 08       		.uleb128 0x8
 3973 0fa6 707200   		.ascii	"pr\000"
 3974 0fa9 14       		.byte	0x14
 3975 0faa A9       		.byte	0xa9
 3976 0fab 71060000 		.4byte	0x671
 3977 0faf 04       		.byte	0x4
 3978 0fb0 07       		.uleb128 0x7
 3979 0fb1 200B0000 		.4byte	.LASF275
 3980 0fb5 14       		.byte	0x14
 3981 0fb6 AA       		.byte	0xaa
 3982 0fb7 71060000 		.4byte	0x671
 3983 0fbb 08       		.byte	0x8
 3984 0fbc 07       		.uleb128 0x7
 3985 0fbd C1030000 		.4byte	.LASF276
 3986 0fc1 14       		.byte	0x14
 3987 0fc2 AB       		.byte	0xab
 3988 0fc3 71060000 		.4byte	0x671
 3989 0fc7 0C       		.byte	0xc
 3990 0fc8 08       		.uleb128 0x8
 3991 0fc9 696E6100 		.ascii	"ina\000"
 3992 0fcd 14       		.byte	0x14
 3993 0fce AC       		.byte	0xac
 3994 0fcf 71060000 		.4byte	0x671
 3995 0fd3 10       		.byte	0x10
 3996 0fd4 00       		.byte	0
 3997 0fd5 06       		.uleb128 0x6
 3998 0fd6 18       		.byte	0x18
 3999 0fd7 14       		.byte	0x14
 4000 0fd8 A3       		.byte	0xa3
 4001 0fd9 F50F0000 		.4byte	0xff5
 4002 0fdd 08       		.uleb128 0x8
 4003 0fde 626700   		.ascii	"bg\000"
 4004 0fe1 14       		.byte	0x14
 4005 0fe2 A5       		.byte	0xa5
 4006 0fe3 71060000 		.4byte	0x671
 4007 0fe7 00       		.byte	0
 4008 0fe8 08       		.uleb128 0x8
 4009 0fe9 626F7800 		.ascii	"box\000"
 4010 0fed 14       		.byte	0x14
 4011 0fee AD       		.byte	0xad
 4012 0fef 910F0000 		.4byte	0xf91
 4013 0ff3 04       		.byte	0x4
 4014 0ff4 00       		.byte	0
 4015 0ff5 06       		.uleb128 0x6
 4016 0ff6 14       		.byte	0x14
ARM GAS  C:\Users\tmj32\AppData\Local\Temp\ccSNdAsc.s 			page 88


 4017 0ff7 14       		.byte	0x14
 4018 0ff8 B5       		.byte	0xb5
 4019 0ff9 39100000 		.4byte	0x1039
 4020 0ffd 08       		.uleb128 0x8
 4021 0ffe 72656C00 		.ascii	"rel\000"
 4022 1002 14       		.byte	0x14
 4023 1003 B7       		.byte	0xb7
 4024 1004 71060000 		.4byte	0x671
 4025 1008 00       		.byte	0
 4026 1009 08       		.uleb128 0x8
 4027 100a 707200   		.ascii	"pr\000"
 4028 100d 14       		.byte	0x14
 4029 100e B8       		.byte	0xb8
 4030 100f 71060000 		.4byte	0x671
 4031 1013 04       		.byte	0x4
 4032 1014 07       		.uleb128 0x7
 4033 1015 200B0000 		.4byte	.LASF275
 4034 1019 14       		.byte	0x14
 4035 101a B9       		.byte	0xb9
 4036 101b 71060000 		.4byte	0x671
 4037 101f 08       		.byte	0x8
 4038 1020 07       		.uleb128 0x7
 4039 1021 C1030000 		.4byte	.LASF276
 4040 1025 14       		.byte	0x14
 4041 1026 BA       		.byte	0xba
 4042 1027 71060000 		.4byte	0x671
 4043 102b 0C       		.byte	0xc
 4044 102c 08       		.uleb128 0x8
 4045 102d 696E6100 		.ascii	"ina\000"
 4046 1031 14       		.byte	0x14
 4047 1032 BB       		.byte	0xbb
 4048 1033 71060000 		.4byte	0x671
 4049 1037 10       		.byte	0x10
 4050 1038 00       		.byte	0
 4051 1039 06       		.uleb128 0x6
 4052 103a 18       		.byte	0x18
 4053 103b 14       		.byte	0x14
 4054 103c B2       		.byte	0xb2
 4055 103d 59100000 		.4byte	0x1059
 4056 1041 08       		.uleb128 0x8
 4057 1042 626700   		.ascii	"bg\000"
 4058 1045 14       		.byte	0x14
 4059 1046 B4       		.byte	0xb4
 4060 1047 71060000 		.4byte	0x671
 4061 104b 00       		.byte	0
 4062 104c 08       		.uleb128 0x8
 4063 104d 62746E00 		.ascii	"btn\000"
 4064 1051 14       		.byte	0x14
 4065 1052 BC       		.byte	0xbc
 4066 1053 F50F0000 		.4byte	0xff5
 4067 1057 04       		.byte	0x4
 4068 1058 00       		.byte	0
 4069 1059 06       		.uleb128 0x6
 4070 105a 14       		.byte	0x14
 4071 105b 14       		.byte	0x14
 4072 105c C4       		.byte	0xc4
 4073 105d 9D100000 		.4byte	0x109d
ARM GAS  C:\Users\tmj32\AppData\Local\Temp\ccSNdAsc.s 			page 89


 4074 1061 08       		.uleb128 0x8
 4075 1062 72656C00 		.ascii	"rel\000"
 4076 1066 14       		.byte	0x14
 4077 1067 C6       		.byte	0xc6
 4078 1068 71060000 		.4byte	0x671
 4079 106c 00       		.byte	0
 4080 106d 08       		.uleb128 0x8
 4081 106e 707200   		.ascii	"pr\000"
 4082 1071 14       		.byte	0x14
 4083 1072 C7       		.byte	0xc7
 4084 1073 71060000 		.4byte	0x671
 4085 1077 04       		.byte	0x4
 4086 1078 07       		.uleb128 0x7
 4087 1079 200B0000 		.4byte	.LASF275
 4088 107d 14       		.byte	0x14
 4089 107e C8       		.byte	0xc8
 4090 107f 71060000 		.4byte	0x671
 4091 1083 08       		.byte	0x8
 4092 1084 07       		.uleb128 0x7
 4093 1085 C1030000 		.4byte	.LASF276
 4094 1089 14       		.byte	0x14
 4095 108a C9       		.byte	0xc9
 4096 108b 71060000 		.4byte	0x671
 4097 108f 0C       		.byte	0xc
 4098 1090 08       		.uleb128 0x8
 4099 1091 696E6100 		.ascii	"ina\000"
 4100 1095 14       		.byte	0x14
 4101 1096 CA       		.byte	0xca
 4102 1097 71060000 		.4byte	0x671
 4103 109b 10       		.byte	0x10
 4104 109c 00       		.byte	0
 4105 109d 06       		.uleb128 0x6
 4106 109e 18       		.byte	0x18
 4107 109f 14       		.byte	0x14
 4108 10a0 C1       		.byte	0xc1
 4109 10a1 BD100000 		.4byte	0x10bd
 4110 10a5 08       		.uleb128 0x8
 4111 10a6 626700   		.ascii	"bg\000"
 4112 10a9 14       		.byte	0x14
 4113 10aa C3       		.byte	0xc3
 4114 10ab 71060000 		.4byte	0x671
 4115 10af 00       		.byte	0
 4116 10b0 08       		.uleb128 0x8
 4117 10b1 62746E00 		.ascii	"btn\000"
 4118 10b5 14       		.byte	0x14
 4119 10b6 CB       		.byte	0xcb
 4120 10b7 59100000 		.4byte	0x1059
 4121 10bb 04       		.byte	0x4
 4122 10bc 00       		.byte	0
 4123 10bd 06       		.uleb128 0x6
 4124 10be 0C       		.byte	0xc
 4125 10bf 14       		.byte	0x14
 4126 10c0 D3       		.byte	0xd3
 4127 10c1 E8100000 		.4byte	0x10e8
 4128 10c5 08       		.uleb128 0x8
 4129 10c6 626700   		.ascii	"bg\000"
 4130 10c9 14       		.byte	0x14
ARM GAS  C:\Users\tmj32\AppData\Local\Temp\ccSNdAsc.s 			page 90


 4131 10ca D5       		.byte	0xd5
 4132 10cb 71060000 		.4byte	0x671
 4133 10cf 00       		.byte	0
 4134 10d0 08       		.uleb128 0x8
 4135 10d1 72656C00 		.ascii	"rel\000"
 4136 10d5 14       		.byte	0x14
 4137 10d6 D6       		.byte	0xd6
 4138 10d7 71060000 		.4byte	0x671
 4139 10db 04       		.byte	0x4
 4140 10dc 08       		.uleb128 0x8
 4141 10dd 707200   		.ascii	"pr\000"
 4142 10e0 14       		.byte	0x14
 4143 10e1 D7       		.byte	0xd7
 4144 10e2 71060000 		.4byte	0x671
 4145 10e6 08       		.byte	0x8
 4146 10e7 00       		.byte	0
 4147 10e8 06       		.uleb128 0x6
 4148 10e9 10       		.byte	0x10
 4149 10ea 14       		.byte	0x14
 4150 10eb D0       		.byte	0xd0
 4151 10ec 08110000 		.4byte	0x1108
 4152 10f0 08       		.uleb128 0x8
 4153 10f1 626700   		.ascii	"bg\000"
 4154 10f4 14       		.byte	0x14
 4155 10f5 D2       		.byte	0xd2
 4156 10f6 71060000 		.4byte	0x671
 4157 10fa 00       		.byte	0
 4158 10fb 08       		.uleb128 0x8
 4159 10fc 62746E00 		.ascii	"btn\000"
 4160 1100 14       		.byte	0x14
 4161 1101 D8       		.byte	0xd8
 4162 1102 BD100000 		.4byte	0x10bd
 4163 1106 04       		.byte	0x4
 4164 1107 00       		.byte	0
 4165 1108 06       		.uleb128 0x6
 4166 1109 0C       		.byte	0xc
 4167 110a 14       		.byte	0x14
 4168 110b DD       		.byte	0xdd
 4169 110c 33110000 		.4byte	0x1133
 4170 1110 08       		.uleb128 0x8
 4171 1111 626700   		.ascii	"bg\000"
 4172 1114 14       		.byte	0x14
 4173 1115 DF       		.byte	0xdf
 4174 1116 71060000 		.4byte	0x671
 4175 111a 00       		.byte	0
 4176 111b 07       		.uleb128 0x7
 4177 111c E1030000 		.4byte	.LASF293
 4178 1120 14       		.byte	0x14
 4179 1121 E0       		.byte	0xe0
 4180 1122 71060000 		.4byte	0x671
 4181 1126 04       		.byte	0x4
 4182 1127 08       		.uleb128 0x8
 4183 1128 736200   		.ascii	"sb\000"
 4184 112b 14       		.byte	0x14
 4185 112c E1       		.byte	0xe1
 4186 112d 71060000 		.4byte	0x671
 4187 1131 08       		.byte	0x8
ARM GAS  C:\Users\tmj32\AppData\Local\Temp\ccSNdAsc.s 			page 91


 4188 1132 00       		.byte	0
 4189 1133 06       		.uleb128 0x6
 4190 1134 10       		.byte	0x10
 4191 1135 14       		.byte	0x14
 4192 1136 E6       		.byte	0xe6
 4193 1137 6B110000 		.4byte	0x116b
 4194 113b 07       		.uleb128 0x7
 4195 113c 6A070000 		.4byte	.LASF294
 4196 1140 14       		.byte	0x14
 4197 1141 E8       		.byte	0xe8
 4198 1142 71060000 		.4byte	0x671
 4199 1146 00       		.byte	0
 4200 1147 07       		.uleb128 0x7
 4201 1148 BB080000 		.4byte	.LASF295
 4202 114c 14       		.byte	0x14
 4203 114d E9       		.byte	0xe9
 4204 114e 71060000 		.4byte	0x671
 4205 1152 04       		.byte	0x4
 4206 1153 07       		.uleb128 0x7
 4207 1154 40140000 		.4byte	.LASF296
 4208 1158 14       		.byte	0x14
 4209 1159 EA       		.byte	0xea
 4210 115a 71060000 		.4byte	0x671
 4211 115e 08       		.byte	0x8
 4212 115f 08       		.uleb128 0x8
 4213 1160 736200   		.ascii	"sb\000"
 4214 1163 14       		.byte	0x14
 4215 1164 EB       		.byte	0xeb
 4216 1165 71060000 		.4byte	0x671
 4217 1169 0C       		.byte	0xc
 4218 116a 00       		.byte	0
 4219 116b 06       		.uleb128 0x6
 4220 116c 0C       		.byte	0xc
 4221 116d 14       		.byte	0x14
 4222 116e F0       		.byte	0xf0
 4223 116f 96110000 		.4byte	0x1196
 4224 1173 08       		.uleb128 0x8
 4225 1174 626700   		.ascii	"bg\000"
 4226 1177 14       		.byte	0x14
 4227 1178 F2       		.byte	0xf2
 4228 1179 71060000 		.4byte	0x671
 4229 117d 00       		.byte	0
 4230 117e 07       		.uleb128 0x7
 4231 117f 40140000 		.4byte	.LASF296
 4232 1183 14       		.byte	0x14
 4233 1184 F3       		.byte	0xf3
 4234 1185 71060000 		.4byte	0x671
 4235 1189 04       		.byte	0x4
 4236 118a 08       		.uleb128 0x8
 4237 118b 736200   		.ascii	"sb\000"
 4238 118e 14       		.byte	0x14
 4239 118f F4       		.byte	0xf4
 4240 1190 71060000 		.4byte	0x671
 4241 1194 08       		.byte	0x8
 4242 1195 00       		.byte	0
 4243 1196 06       		.uleb128 0x6
 4244 1197 14       		.byte	0x14
ARM GAS  C:\Users\tmj32\AppData\Local\Temp\ccSNdAsc.s 			page 92


 4245 1198 14       		.byte	0x14
 4246 1199 FE       		.byte	0xfe
 4247 119a DF110000 		.4byte	0x11df
 4248 119e 18       		.uleb128 0x18
 4249 119f 72656C00 		.ascii	"rel\000"
 4250 11a3 14       		.byte	0x14
 4251 11a4 0001     		.2byte	0x100
 4252 11a6 71060000 		.4byte	0x671
 4253 11aa 00       		.byte	0
 4254 11ab 18       		.uleb128 0x18
 4255 11ac 707200   		.ascii	"pr\000"
 4256 11af 14       		.byte	0x14
 4257 11b0 0101     		.2byte	0x101
 4258 11b2 71060000 		.4byte	0x671
 4259 11b6 04       		.byte	0x4
 4260 11b7 19       		.uleb128 0x19
 4261 11b8 200B0000 		.4byte	.LASF275
 4262 11bc 14       		.byte	0x14
 4263 11bd 0201     		.2byte	0x102
 4264 11bf 71060000 		.4byte	0x671
 4265 11c3 08       		.byte	0x8
 4266 11c4 19       		.uleb128 0x19
 4267 11c5 C1030000 		.4byte	.LASF276
 4268 11c9 14       		.byte	0x14
 4269 11ca 0301     		.2byte	0x103
 4270 11cc 71060000 		.4byte	0x671
 4271 11d0 0C       		.byte	0xc
 4272 11d1 18       		.uleb128 0x18
 4273 11d2 696E6100 		.ascii	"ina\000"
 4274 11d6 14       		.byte	0x14
 4275 11d7 0401     		.2byte	0x104
 4276 11d9 71060000 		.4byte	0x671
 4277 11dd 10       		.byte	0x10
 4278 11de 00       		.byte	0
 4279 11df 06       		.uleb128 0x6
 4280 11e0 20       		.byte	0x20
 4281 11e1 14       		.byte	0x14
 4282 11e2 F9       		.byte	0xf9
 4283 11e3 17120000 		.4byte	0x1217
 4284 11e7 08       		.uleb128 0x8
 4285 11e8 626700   		.ascii	"bg\000"
 4286 11eb 14       		.byte	0x14
 4287 11ec FB       		.byte	0xfb
 4288 11ed 71060000 		.4byte	0x671
 4289 11f1 00       		.byte	0
 4290 11f2 07       		.uleb128 0x7
 4291 11f3 E1030000 		.4byte	.LASF293
 4292 11f7 14       		.byte	0x14
 4293 11f8 FC       		.byte	0xfc
 4294 11f9 71060000 		.4byte	0x671
 4295 11fd 04       		.byte	0x4
 4296 11fe 08       		.uleb128 0x8
 4297 11ff 736200   		.ascii	"sb\000"
 4298 1202 14       		.byte	0x14
 4299 1203 FD       		.byte	0xfd
 4300 1204 71060000 		.4byte	0x671
 4301 1208 08       		.byte	0x8
ARM GAS  C:\Users\tmj32\AppData\Local\Temp\ccSNdAsc.s 			page 93


 4302 1209 18       		.uleb128 0x18
 4303 120a 62746E00 		.ascii	"btn\000"
 4304 120e 14       		.byte	0x14
 4305 120f 0501     		.2byte	0x105
 4306 1211 96110000 		.4byte	0x1196
 4307 1215 0C       		.byte	0xc
 4308 1216 00       		.byte	0
 4309 1217 1A       		.uleb128 0x1a
 4310 1218 0C       		.byte	0xc
 4311 1219 14       		.byte	0x14
 4312 121a 0A01     		.2byte	0x10a
 4313 121c 46120000 		.4byte	0x1246
 4314 1220 18       		.uleb128 0x18
 4315 1221 626700   		.ascii	"bg\000"
 4316 1224 14       		.byte	0x14
 4317 1225 0C01     		.2byte	0x10c
 4318 1227 71060000 		.4byte	0x671
 4319 122b 00       		.byte	0
 4320 122c 18       		.uleb128 0x18
 4321 122d 73656C00 		.ascii	"sel\000"
 4322 1231 14       		.byte	0x14
 4323 1232 0D01     		.2byte	0x10d
 4324 1234 71060000 		.4byte	0x671
 4325 1238 04       		.byte	0x4
 4326 1239 18       		.uleb128 0x18
 4327 123a 736200   		.ascii	"sb\000"
 4328 123d 14       		.byte	0x14
 4329 123e 0E01     		.2byte	0x10e
 4330 1240 71060000 		.4byte	0x671
 4331 1244 08       		.byte	0x8
 4332 1245 00       		.byte	0
 4333 1246 1A       		.uleb128 0x1a
 4334 1247 08       		.byte	0x8
 4335 1248 14       		.byte	0x14
 4336 1249 1301     		.2byte	0x113
 4337 124b 69120000 		.4byte	0x1269
 4338 124f 18       		.uleb128 0x18
 4339 1250 626700   		.ascii	"bg\000"
 4340 1253 14       		.byte	0x14
 4341 1254 1501     		.2byte	0x115
 4342 1256 71060000 		.4byte	0x671
 4343 125a 00       		.byte	0
 4344 125b 18       		.uleb128 0x18
 4345 125c 73656C00 		.ascii	"sel\000"
 4346 1260 14       		.byte	0x14
 4347 1261 1601     		.2byte	0x116
 4348 1263 71060000 		.4byte	0x671
 4349 1267 04       		.byte	0x4
 4350 1268 00       		.byte	0
 4351 1269 1A       		.uleb128 0x1a
 4352 126a 14       		.byte	0x14
 4353 126b 14       		.byte	0x14
 4354 126c 1F01     		.2byte	0x11f
 4355 126e B2120000 		.4byte	0x12b2
 4356 1272 18       		.uleb128 0x18
 4357 1273 626700   		.ascii	"bg\000"
 4358 1276 14       		.byte	0x14
ARM GAS  C:\Users\tmj32\AppData\Local\Temp\ccSNdAsc.s 			page 94


 4359 1277 2101     		.2byte	0x121
 4360 1279 71060000 		.4byte	0x671
 4361 127d 00       		.byte	0
 4362 127e 18       		.uleb128 0x18
 4363 127f 72656C00 		.ascii	"rel\000"
 4364 1283 14       		.byte	0x14
 4365 1284 2201     		.2byte	0x122
 4366 1286 71060000 		.4byte	0x671
 4367 128a 04       		.byte	0x4
 4368 128b 18       		.uleb128 0x18
 4369 128c 707200   		.ascii	"pr\000"
 4370 128f 14       		.byte	0x14
 4371 1290 2301     		.2byte	0x123
 4372 1292 71060000 		.4byte	0x671
 4373 1296 08       		.byte	0x8
 4374 1297 19       		.uleb128 0x19
 4375 1298 200B0000 		.4byte	.LASF275
 4376 129c 14       		.byte	0x14
 4377 129d 2401     		.2byte	0x124
 4378 129f 71060000 		.4byte	0x671
 4379 12a3 0C       		.byte	0xc
 4380 12a4 19       		.uleb128 0x19
 4381 12a5 C1030000 		.4byte	.LASF276
 4382 12a9 14       		.byte	0x14
 4383 12aa 2501     		.2byte	0x125
 4384 12ac 71060000 		.4byte	0x671
 4385 12b0 10       		.byte	0x10
 4386 12b1 00       		.byte	0
 4387 12b2 1A       		.uleb128 0x1a
 4388 12b3 1C       		.byte	0x1c
 4389 12b4 14       		.byte	0x14
 4390 12b5 1B01     		.2byte	0x11b
 4391 12b7 E2120000 		.4byte	0x12e2
 4392 12bb 18       		.uleb128 0x18
 4393 12bc 626700   		.ascii	"bg\000"
 4394 12bf 14       		.byte	0x14
 4395 12c0 1D01     		.2byte	0x11d
 4396 12c2 71060000 		.4byte	0x671
 4397 12c6 00       		.byte	0
 4398 12c7 19       		.uleb128 0x19
 4399 12c8 000A0000 		.4byte	.LASF282
 4400 12cc 14       		.byte	0x14
 4401 12cd 1E01     		.2byte	0x11e
 4402 12cf 71060000 		.4byte	0x671
 4403 12d3 04       		.byte	0x4
 4404 12d4 18       		.uleb128 0x18
 4405 12d5 62746E00 		.ascii	"btn\000"
 4406 12d9 14       		.byte	0x14
 4407 12da 2601     		.2byte	0x126
 4408 12dc 69120000 		.4byte	0x1269
 4409 12e0 08       		.byte	0x8
 4410 12e1 00       		.byte	0
 4411 12e2 1A       		.uleb128 0x1a
 4412 12e3 0C       		.byte	0xc
 4413 12e4 14       		.byte	0x14
 4414 12e5 2B01     		.2byte	0x12b
 4415 12e7 11130000 		.4byte	0x1311
ARM GAS  C:\Users\tmj32\AppData\Local\Temp\ccSNdAsc.s 			page 95


 4416 12eb 18       		.uleb128 0x18
 4417 12ec 626700   		.ascii	"bg\000"
 4418 12ef 14       		.byte	0x14
 4419 12f0 2D01     		.2byte	0x12d
 4420 12f2 71060000 		.4byte	0x671
 4421 12f6 00       		.byte	0
 4422 12f7 19       		.uleb128 0x19
 4423 12f8 E1030000 		.4byte	.LASF293
 4424 12fc 14       		.byte	0x14
 4425 12fd 2E01     		.2byte	0x12e
 4426 12ff 71060000 		.4byte	0x671
 4427 1303 04       		.byte	0x4
 4428 1304 18       		.uleb128 0x18
 4429 1305 736200   		.ascii	"sb\000"
 4430 1308 14       		.byte	0x14
 4431 1309 2F01     		.2byte	0x12f
 4432 130b 71060000 		.4byte	0x671
 4433 130f 08       		.byte	0x8
 4434 1310 00       		.byte	0
 4435 1311 1A       		.uleb128 0x1a
 4436 1312 08       		.byte	0x8
 4437 1313 14       		.byte	0x14
 4438 1314 3401     		.2byte	0x134
 4439 1316 34130000 		.4byte	0x1334
 4440 131a 18       		.uleb128 0x18
 4441 131b 626700   		.ascii	"bg\000"
 4442 131e 14       		.byte	0x14
 4443 131f 3601     		.2byte	0x136
 4444 1321 71060000 		.4byte	0x671
 4445 1325 00       		.byte	0
 4446 1326 19       		.uleb128 0x19
 4447 1327 6E000000 		.4byte	.LASF297
 4448 132b 14       		.byte	0x14
 4449 132c 3701     		.2byte	0x137
 4450 132e 71060000 		.4byte	0x671
 4451 1332 04       		.byte	0x4
 4452 1333 00       		.byte	0
 4453 1334 1A       		.uleb128 0x1a
 4454 1335 08       		.byte	0x8
 4455 1336 14       		.byte	0x14
 4456 1337 4201     		.2byte	0x142
 4457 1339 57130000 		.4byte	0x1357
 4458 133d 18       		.uleb128 0x18
 4459 133e 72656C00 		.ascii	"rel\000"
 4460 1342 14       		.byte	0x14
 4461 1343 4401     		.2byte	0x144
 4462 1345 71060000 		.4byte	0x671
 4463 1349 00       		.byte	0
 4464 134a 18       		.uleb128 0x18
 4465 134b 707200   		.ascii	"pr\000"
 4466 134e 14       		.byte	0x14
 4467 134f 4501     		.2byte	0x145
 4468 1351 71060000 		.4byte	0x671
 4469 1355 04       		.byte	0x4
 4470 1356 00       		.byte	0
 4471 1357 1A       		.uleb128 0x1a
 4472 1358 18       		.byte	0x18
ARM GAS  C:\Users\tmj32\AppData\Local\Temp\ccSNdAsc.s 			page 96


 4473 1359 14       		.byte	0x14
 4474 135a 3C01     		.2byte	0x13c
 4475 135c A0130000 		.4byte	0x13a0
 4476 1360 18       		.uleb128 0x18
 4477 1361 626700   		.ascii	"bg\000"
 4478 1364 14       		.byte	0x14
 4479 1365 3E01     		.2byte	0x13e
 4480 1367 71060000 		.4byte	0x671
 4481 136b 00       		.byte	0
 4482 136c 18       		.uleb128 0x18
 4483 136d 736200   		.ascii	"sb\000"
 4484 1370 14       		.byte	0x14
 4485 1371 3F01     		.2byte	0x13f
 4486 1373 71060000 		.4byte	0x671
 4487 1377 04       		.byte	0x4
 4488 1378 19       		.uleb128 0x19
 4489 1379 BD040000 		.4byte	.LASF286
 4490 137d 14       		.byte	0x14
 4491 137e 4001     		.2byte	0x140
 4492 1380 71060000 		.4byte	0x671
 4493 1384 08       		.byte	0x8
 4494 1385 19       		.uleb128 0x19
 4495 1386 9C120000 		.4byte	.LASF298
 4496 138a 14       		.byte	0x14
 4497 138b 4101     		.2byte	0x141
 4498 138d 71060000 		.4byte	0x671
 4499 1391 0C       		.byte	0xc
 4500 1392 18       		.uleb128 0x18
 4501 1393 62746E00 		.ascii	"btn\000"
 4502 1397 14       		.byte	0x14
 4503 1398 4601     		.2byte	0x146
 4504 139a 34130000 		.4byte	0x1334
 4505 139e 10       		.byte	0x10
 4506 139f 00       		.byte	0
 4507 13a0 1B       		.uleb128 0x1b
 4508 13a1 A801     		.2byte	0x1a8
 4509 13a3 14       		.byte	0x14
 4510 13a4 29       		.byte	0x29
 4511 13a5 42150000 		.4byte	0x1542
 4512 13a9 08       		.uleb128 0x8
 4513 13aa 73637200 		.ascii	"scr\000"
 4514 13ae 14       		.byte	0x14
 4515 13af 2B       		.byte	0x2b
 4516 13b0 71060000 		.4byte	0x671
 4517 13b4 00       		.byte	0
 4518 13b5 08       		.uleb128 0x8
 4519 13b6 626700   		.ascii	"bg\000"
 4520 13b9 14       		.byte	0x14
 4521 13ba 2C       		.byte	0x2c
 4522 13bb 71060000 		.4byte	0x671
 4523 13bf 04       		.byte	0x4
 4524 13c0 07       		.uleb128 0x7
 4525 13c1 14100000 		.4byte	.LASF299
 4526 13c5 14       		.byte	0x14
 4527 13c6 2D       		.byte	0x2d
 4528 13c7 71060000 		.4byte	0x671
 4529 13cb 08       		.byte	0x8
ARM GAS  C:\Users\tmj32\AppData\Local\Temp\ccSNdAsc.s 			page 97


 4530 13cc 07       		.uleb128 0x7
 4531 13cd F8010000 		.4byte	.LASF300
 4532 13d1 14       		.byte	0x14
 4533 13d2 30       		.byte	0x30
 4534 13d3 71060000 		.4byte	0x671
 4535 13d7 0C       		.byte	0xc
 4536 13d8 08       		.uleb128 0x8
 4537 13d9 62746E00 		.ascii	"btn\000"
 4538 13dd 14       		.byte	0x14
 4539 13de 3B       		.byte	0x3b
 4540 13df BA0D0000 		.4byte	0xdba
 4541 13e3 10       		.byte	0x10
 4542 13e4 07       		.uleb128 0x7
 4543 13e5 03100000 		.4byte	.LASF301
 4544 13e9 14       		.byte	0x14
 4545 13ea 46       		.byte	0x46
 4546 13eb FE0D0000 		.4byte	0xdfe
 4547 13ef 24       		.byte	0x24
 4548 13f0 07       		.uleb128 0x7
 4549 13f1 8E130000 		.4byte	.LASF302
 4550 13f5 14       		.byte	0x14
 4551 13f6 4F       		.byte	0x4f
 4552 13f7 420E0000 		.4byte	0xe42
 4553 13fb 38       		.byte	0x38
 4554 13fc 08       		.uleb128 0x8
 4555 13fd 696D6700 		.ascii	"img\000"
 4556 1401 14       		.byte	0x14
 4557 1402 57       		.byte	0x57
 4558 1403 6F0E0000 		.4byte	0xe6f
 4559 1407 44       		.byte	0x44
 4560 1408 07       		.uleb128 0x7
 4561 1409 14080000 		.4byte	.LASF91
 4562 140d 14       		.byte	0x14
 4563 140e 5E       		.byte	0x5e
 4564 140f 900E0000 		.4byte	0xe90
 4565 1413 4C       		.byte	0x4c
 4566 1414 08       		.uleb128 0x8
 4567 1415 6C656400 		.ascii	"led\000"
 4568 1419 14       		.byte	0x14
 4569 141a 62       		.byte	0x62
 4570 141b 71060000 		.4byte	0x671
 4571 141f 50       		.byte	0x50
 4572 1420 08       		.uleb128 0x8
 4573 1421 62617200 		.ascii	"bar\000"
 4574 1425 14       		.byte	0x14
 4575 1426 6A       		.byte	0x6a
 4576 1427 A50E0000 		.4byte	0xea5
 4577 142b 54       		.byte	0x54
 4578 142c 07       		.uleb128 0x7
 4579 142d 3F080000 		.4byte	.LASF303
 4580 1431 14       		.byte	0x14
 4581 1432 73       		.byte	0x73
 4582 1433 C50E0000 		.4byte	0xec5
 4583 1437 5C       		.byte	0x5c
 4584 1438 07       		.uleb128 0x7
 4585 1439 D4000000 		.4byte	.LASF304
 4586 143d 14       		.byte	0x14
ARM GAS  C:\Users\tmj32\AppData\Local\Temp\ccSNdAsc.s 			page 98


 4587 143e 77       		.byte	0x77
 4588 143f 71060000 		.4byte	0x671
 4589 1443 68       		.byte	0x68
 4590 1444 07       		.uleb128 0x7
 4591 1445 190C0000 		.4byte	.LASF305
 4592 1449 14       		.byte	0x14
 4593 144a 7B       		.byte	0x7b
 4594 144b 71060000 		.4byte	0x671
 4595 144f 6C       		.byte	0x6c
 4596 1450 08       		.uleb128 0x8
 4597 1451 61726300 		.ascii	"arc\000"
 4598 1455 14       		.byte	0x14
 4599 1456 7F       		.byte	0x7f
 4600 1457 71060000 		.4byte	0x671
 4601 145b 70       		.byte	0x70
 4602 145c 07       		.uleb128 0x7
 4603 145d DF130000 		.4byte	.LASF306
 4604 1461 14       		.byte	0x14
 4605 1462 83       		.byte	0x83
 4606 1463 71060000 		.4byte	0x671
 4607 1467 74       		.byte	0x74
 4608 1468 08       		.uleb128 0x8
 4609 1469 737700   		.ascii	"sw\000"
 4610 146c 14       		.byte	0x14
 4611 146d 8D       		.byte	0x8d
 4612 146e F10E0000 		.4byte	0xef1
 4613 1472 78       		.byte	0x78
 4614 1473 07       		.uleb128 0x7
 4615 1474 13020000 		.4byte	.LASF307
 4616 1478 14       		.byte	0x14
 4617 1479 91       		.byte	0x91
 4618 147a 71060000 		.4byte	0x671
 4619 147e 88       		.byte	0x88
 4620 147f 07       		.uleb128 0x7
 4621 1480 1F110000 		.4byte	.LASF308
 4622 1484 14       		.byte	0x14
 4623 1485 9F       		.byte	0x9f
 4624 1486 290F0000 		.4byte	0xf29
 4625 148a 8C       		.byte	0x8c
 4626 148b 08       		.uleb128 0x8
 4627 148c 636200   		.ascii	"cb\000"
 4628 148f 14       		.byte	0x14
 4629 1490 AE       		.byte	0xae
 4630 1491 D50F0000 		.4byte	0xfd5
 4631 1495 AC       		.byte	0xac
 4632 1496 07       		.uleb128 0x7
 4633 1497 61030000 		.4byte	.LASF264
 4634 149b 14       		.byte	0x14
 4635 149c BD       		.byte	0xbd
 4636 149d 39100000 		.4byte	0x1039
 4637 14a1 C4       		.byte	0xc4
 4638 14a2 08       		.uleb128 0x8
 4639 14a3 6B6200   		.ascii	"kb\000"
 4640 14a6 14       		.byte	0x14
 4641 14a7 CC       		.byte	0xcc
 4642 14a8 9D100000 		.4byte	0x109d
 4643 14ac DC       		.byte	0xdc
ARM GAS  C:\Users\tmj32\AppData\Local\Temp\ccSNdAsc.s 			page 99


 4644 14ad 07       		.uleb128 0x7
 4645 14ae 070B0000 		.4byte	.LASF309
 4646 14b2 14       		.byte	0x14
 4647 14b3 D9       		.byte	0xd9
 4648 14b4 E8100000 		.4byte	0x10e8
 4649 14b8 F4       		.byte	0xf4
 4650 14b9 1C       		.uleb128 0x1c
 4651 14ba 0B0C0000 		.4byte	.LASF310
 4652 14be 14       		.byte	0x14
 4653 14bf E2       		.byte	0xe2
 4654 14c0 08110000 		.4byte	0x1108
 4655 14c4 0401     		.2byte	0x104
 4656 14c6 1D       		.uleb128 0x1d
 4657 14c7 746100   		.ascii	"ta\000"
 4658 14ca 14       		.byte	0x14
 4659 14cb EC       		.byte	0xec
 4660 14cc 33110000 		.4byte	0x1133
 4661 14d0 1001     		.2byte	0x110
 4662 14d2 1C       		.uleb128 0x1c
 4663 14d3 BD110000 		.4byte	.LASF311
 4664 14d7 14       		.byte	0x14
 4665 14d8 F5       		.byte	0xf5
 4666 14d9 6B110000 		.4byte	0x116b
 4667 14dd 2001     		.2byte	0x120
 4668 14df 1E       		.uleb128 0x1e
 4669 14e0 C90B0000 		.4byte	.LASF312
 4670 14e4 14       		.byte	0x14
 4671 14e5 0601     		.2byte	0x106
 4672 14e7 DF110000 		.4byte	0x11df
 4673 14eb 2C01     		.2byte	0x12c
 4674 14ed 1E       		.uleb128 0x1e
 4675 14ee F8050000 		.4byte	.LASF313
 4676 14f2 14       		.byte	0x14
 4677 14f3 0F01     		.2byte	0x10f
 4678 14f5 17120000 		.4byte	0x1217
 4679 14f9 4C01     		.2byte	0x14c
 4680 14fb 1E       		.uleb128 0x1e
 4681 14fc 72140000 		.4byte	.LASF314
 4682 1500 14       		.byte	0x14
 4683 1501 1701     		.2byte	0x117
 4684 1503 46120000 		.4byte	0x1246
 4685 1507 5801     		.2byte	0x158
 4686 1509 1E       		.uleb128 0x1e
 4687 150a 260A0000 		.4byte	.LASF315
 4688 150e 14       		.byte	0x14
 4689 150f 2701     		.2byte	0x127
 4690 1511 B2120000 		.4byte	0x12b2
 4691 1515 6001     		.2byte	0x160
 4692 1517 1E       		.uleb128 0x1e
 4693 1518 BB020000 		.4byte	.LASF316
 4694 151c 14       		.byte	0x14
 4695 151d 3001     		.2byte	0x130
 4696 151f E2120000 		.4byte	0x12e2
 4697 1523 7C01     		.2byte	0x17c
 4698 1525 1E       		.uleb128 0x1e
 4699 1526 D9040000 		.4byte	.LASF317
 4700 152a 14       		.byte	0x14
ARM GAS  C:\Users\tmj32\AppData\Local\Temp\ccSNdAsc.s 			page 100


 4701 152b 3801     		.2byte	0x138
 4702 152d 11130000 		.4byte	0x1311
 4703 1531 8801     		.2byte	0x188
 4704 1533 1F       		.uleb128 0x1f
 4705 1534 77696E00 		.ascii	"win\000"
 4706 1538 14       		.byte	0x14
 4707 1539 4701     		.2byte	0x147
 4708 153b 57130000 		.4byte	0x1357
 4709 153f 9001     		.2byte	0x190
 4710 1541 00       		.byte	0
 4711 1542 1B       		.uleb128 0x1b
 4712 1543 A801     		.2byte	0x1a8
 4713 1545 14       		.byte	0x14
 4714 1546 27       		.byte	0x27
 4715 1547 59150000 		.4byte	0x1559
 4716 154b 19       		.uleb128 0x19
 4717 154c ED0C0000 		.4byte	.LASF318
 4718 1550 14       		.byte	0x14
 4719 1551 4901     		.2byte	0x149
 4720 1553 A0130000 		.4byte	0x13a0
 4721 1557 00       		.byte	0
 4722 1558 00       		.byte	0
 4723 1559 12       		.uleb128 0x12
 4724 155a C5060000 		.4byte	.LASF319
 4725 155e 14       		.byte	0x14
 4726 155f 5401     		.2byte	0x154
 4727 1561 42150000 		.4byte	0x1542
 4728 1565 20       		.uleb128 0x20
 4729 1566 78000000 		.4byte	.LASF320
 4730 156a 01       		.byte	0x1
 4731 156b 7C       		.byte	0x7c
 4732 156c B8000000 		.4byte	0xb8
 4733 1570 00000000 		.4byte	.LFB0
 4734 1574 18000000 		.4byte	.LFE0-.LFB0
 4735 1578 01       		.uleb128 0x1
 4736 1579 9C       		.byte	0x9c
 4737 157a 8D150000 		.4byte	0x158d
 4738 157e 21       		.uleb128 0x21
 4739 157f 77120000 		.4byte	.LASF322
 4740 1583 01       		.byte	0x1
 4741 1584 7C       		.byte	0x7c
 4742 1585 AA050000 		.4byte	0x5aa
 4743 1589 02       		.uleb128 0x2
 4744 158a 91       		.byte	0x91
 4745 158b 74       		.sleb128 -12
 4746 158c 00       		.byte	0
 4747 158d 20       		.uleb128 0x20
 4748 158e F6110000 		.4byte	.LASF321
 4749 1592 02       		.byte	0x2
 4750 1593 56       		.byte	0x56
 4751 1594 EF000000 		.4byte	0xef
 4752 1598 00000000 		.4byte	.LFB11
 4753 159c 2E000000 		.4byte	.LFE11-.LFB11
 4754 15a0 01       		.uleb128 0x1
 4755 15a1 9C       		.byte	0x9c
 4756 15a2 B5150000 		.4byte	0x15b5
 4757 15a6 21       		.uleb128 0x21
ARM GAS  C:\Users\tmj32\AppData\Local\Temp\ccSNdAsc.s 			page 101


 4758 15a7 03030000 		.4byte	.LASF323
 4759 15ab 02       		.byte	0x2
 4760 15ac 56       		.byte	0x56
 4761 15ad EF060000 		.4byte	0x6ef
 4762 15b1 02       		.uleb128 0x2
 4763 15b2 91       		.byte	0x91
 4764 15b3 74       		.sleb128 -12
 4765 15b4 00       		.byte	0
 4766 15b5 22       		.uleb128 0x22
 4767 15b6 0D060000 		.4byte	.LASF324
 4768 15ba 03       		.byte	0x3
 4769 15bb 79       		.byte	0x79
 4770 15bc 00000000 		.4byte	.LFB31
 4771 15c0 2A000000 		.4byte	.LFE31-.LFB31
 4772 15c4 01       		.uleb128 0x1
 4773 15c5 9C       		.byte	0x9c
 4774 15c6 F5150000 		.4byte	0x15f5
 4775 15ca 21       		.uleb128 0x21
 4776 15cb F8010000 		.4byte	.LASF300
 4777 15cf 03       		.byte	0x3
 4778 15d0 79       		.byte	0x79
 4779 15d1 670D0000 		.4byte	0xd67
 4780 15d5 02       		.uleb128 0x2
 4781 15d6 91       		.byte	0x91
 4782 15d7 74       		.sleb128 -12
 4783 15d8 23       		.uleb128 0x23
 4784 15d9 686F7200 		.ascii	"hor\000"
 4785 15dd 03       		.byte	0x3
 4786 15de 79       		.byte	0x79
 4787 15df 800B0000 		.4byte	0xb80
 4788 15e3 02       		.uleb128 0x2
 4789 15e4 91       		.byte	0x91
 4790 15e5 73       		.sleb128 -13
 4791 15e6 23       		.uleb128 0x23
 4792 15e7 76657200 		.ascii	"ver\000"
 4793 15eb 03       		.byte	0x3
 4794 15ec 79       		.byte	0x79
 4795 15ed 800B0000 		.4byte	0xb80
 4796 15f1 02       		.uleb128 0x2
 4797 15f2 91       		.byte	0x91
 4798 15f3 72       		.sleb128 -14
 4799 15f4 00       		.byte	0
 4800 15f5 22       		.uleb128 0x22
 4801 15f6 A50B0000 		.4byte	.LASF325
 4802 15fa 03       		.byte	0x3
 4803 15fb 84       		.byte	0x84
 4804 15fc 00000000 		.4byte	.LFB32
 4805 1600 26000000 		.4byte	.LFE32-.LFB32
 4806 1604 01       		.uleb128 0x1
 4807 1605 9C       		.byte	0x9c
 4808 1606 27160000 		.4byte	0x1627
 4809 160a 21       		.uleb128 0x21
 4810 160b F8010000 		.4byte	.LASF300
 4811 160f 03       		.byte	0x3
 4812 1610 84       		.byte	0x84
 4813 1611 670D0000 		.4byte	0xd67
 4814 1615 02       		.uleb128 0x2
ARM GAS  C:\Users\tmj32\AppData\Local\Temp\ccSNdAsc.s 			page 102


 4815 1616 91       		.byte	0x91
 4816 1617 74       		.sleb128 -12
 4817 1618 23       		.uleb128 0x23
 4818 1619 66697400 		.ascii	"fit\000"
 4819 161d 03       		.byte	0x3
 4820 161e 84       		.byte	0x84
 4821 161f 800B0000 		.4byte	0xb80
 4822 1623 02       		.uleb128 0x2
 4823 1624 91       		.byte	0x91
 4824 1625 73       		.sleb128 -13
 4825 1626 00       		.byte	0
 4826 1627 24       		.uleb128 0x24
 4827 1628 9E0E0000 		.4byte	.LASF338
 4828 162c 04       		.byte	0x4
 4829 162d 43       		.byte	0x43
 4830 162e 670D0000 		.4byte	0xd67
 4831 1632 00000000 		.4byte	.LFB46
 4832 1636 50010000 		.4byte	.LFE46-.LFB46
 4833 163a 01       		.uleb128 0x1
 4834 163b 9C       		.byte	0x9c
 4835 163c AC160000 		.4byte	0x16ac
 4836 1640 23       		.uleb128 0x23
 4837 1641 70617200 		.ascii	"par\000"
 4838 1645 04       		.byte	0x4
 4839 1646 43       		.byte	0x43
 4840 1647 670D0000 		.4byte	0xd67
 4841 164b 02       		.uleb128 0x2
 4842 164c 91       		.byte	0x91
 4843 164d 64       		.sleb128 -28
 4844 164e 21       		.uleb128 0x21
 4845 164f FE020000 		.4byte	.LASF326
 4846 1653 04       		.byte	0x4
 4847 1654 43       		.byte	0x43
 4848 1655 AC160000 		.4byte	0x16ac
 4849 1659 02       		.uleb128 0x2
 4850 165a 91       		.byte	0x91
 4851 165b 60       		.sleb128 -32
 4852 165c 25       		.uleb128 0x25
 4853 165d 1F0C0000 		.4byte	.LASF327
 4854 1661 04       		.byte	0x4
 4855 1662 48       		.byte	0x48
 4856 1663 670D0000 		.4byte	0xd67
 4857 1667 02       		.uleb128 0x2
 4858 1668 91       		.byte	0x91
 4859 1669 74       		.sleb128 -12
 4860 166a 26       		.uleb128 0x26
 4861 166b 65787400 		.ascii	"ext\000"
 4862 166f 04       		.byte	0x4
 4863 1670 4F       		.byte	0x4f
 4864 1671 B7160000 		.4byte	0x16b7
 4865 1675 02       		.uleb128 0x2
 4866 1676 91       		.byte	0x91
 4867 1677 70       		.sleb128 -16
 4868 1678 27       		.uleb128 0x27
 4869 1679 66000000 		.4byte	.LBB2
 4870 167d 90000000 		.4byte	.LBE2-.LBB2
 4871 1681 93160000 		.4byte	0x1693
ARM GAS  C:\Users\tmj32\AppData\Local\Temp\ccSNdAsc.s 			page 103


 4872 1685 26       		.uleb128 0x26
 4873 1686 746800   		.ascii	"th\000"
 4874 1689 04       		.byte	0x4
 4875 168a 6A       		.byte	0x6a
 4876 168b BD160000 		.4byte	0x16bd
 4877 168f 02       		.uleb128 0x2
 4878 1690 91       		.byte	0x91
 4879 1691 6C       		.sleb128 -20
 4880 1692 00       		.byte	0
 4881 1693 28       		.uleb128 0x28
 4882 1694 F6000000 		.4byte	.LBB3
 4883 1698 3A000000 		.4byte	.LBE3-.LBB3
 4884 169c 25       		.uleb128 0x25
 4885 169d 93120000 		.4byte	.LASF328
 4886 16a1 04       		.byte	0x4
 4887 16a2 74       		.byte	0x74
 4888 16a3 B7160000 		.4byte	0x16b7
 4889 16a7 02       		.uleb128 0x2
 4890 16a8 91       		.byte	0x91
 4891 16a9 68       		.sleb128 -24
 4892 16aa 00       		.byte	0
 4893 16ab 00       		.byte	0
 4894 16ac 0D       		.uleb128 0xd
 4895 16ad 04       		.byte	0x4
 4896 16ae B2160000 		.4byte	0x16b2
 4897 16b2 0E       		.uleb128 0xe
 4898 16b3 FB0A0000 		.4byte	0xafb
 4899 16b7 0D       		.uleb128 0xd
 4900 16b8 04       		.byte	0x4
 4901 16b9 6D0D0000 		.4byte	0xd6d
 4902 16bd 0D       		.uleb128 0xd
 4903 16be 04       		.byte	0x4
 4904 16bf 59150000 		.4byte	0x1559
 4905 16c3 29       		.uleb128 0x29
 4906 16c4 7E060000 		.4byte	.LASF330
 4907 16c8 04       		.byte	0x4
 4908 16c9 8E       		.byte	0x8e
 4909 16ca 00000000 		.4byte	.LFB47
 4910 16ce B0000000 		.4byte	.LFE47-.LFB47
 4911 16d2 01       		.uleb128 0x1
 4912 16d3 9C       		.byte	0x9c
 4913 16d4 1A170000 		.4byte	0x171a
 4914 16d8 21       		.uleb128 0x21
 4915 16d9 070B0000 		.4byte	.LASF309
 4916 16dd 04       		.byte	0x4
 4917 16de 8E       		.byte	0x8e
 4918 16df 670D0000 		.4byte	0xd67
 4919 16e3 02       		.uleb128 0x2
 4920 16e4 91       		.byte	0x91
 4921 16e5 6C       		.sleb128 -20
 4922 16e6 21       		.uleb128 0x21
 4923 16e7 7D020000 		.4byte	.LASF329
 4924 16eb 04       		.byte	0x4
 4925 16ec 8E       		.byte	0x8e
 4926 16ed F80C0000 		.4byte	0xcf8
 4927 16f1 02       		.uleb128 0x2
 4928 16f2 91       		.byte	0x91
ARM GAS  C:\Users\tmj32\AppData\Local\Temp\ccSNdAsc.s 			page 104


 4929 16f3 68       		.sleb128 -24
 4930 16f4 26       		.uleb128 0x26
 4931 16f5 65787400 		.ascii	"ext\000"
 4932 16f9 04       		.byte	0x4
 4933 16fa 93       		.byte	0x93
 4934 16fb B7160000 		.4byte	0x16b7
 4935 16ff 02       		.uleb128 0x2
 4936 1700 91       		.byte	0x91
 4937 1701 74       		.sleb128 -12
 4938 1702 28       		.uleb128 0x28
 4939 1703 1A000000 		.4byte	.LBB4
 4940 1707 5A000000 		.4byte	.LBE4-.LBB4
 4941 170b 26       		.uleb128 0x26
 4942 170c 746800   		.ascii	"th\000"
 4943 170f 04       		.byte	0x4
 4944 1710 9A       		.byte	0x9a
 4945 1711 BD160000 		.4byte	0x16bd
 4946 1715 02       		.uleb128 0x2
 4947 1716 91       		.byte	0x91
 4948 1717 70       		.sleb128 -16
 4949 1718 00       		.byte	0
 4950 1719 00       		.byte	0
 4951 171a 29       		.uleb128 0x29
 4952 171b 0E0A0000 		.4byte	.LASF331
 4953 171f 04       		.byte	0x4
 4954 1720 B4       		.byte	0xb4
 4955 1721 00000000 		.4byte	.LFB48
 4956 1725 2C000000 		.4byte	.LFE48-.LFB48
 4957 1729 01       		.uleb128 0x1
 4958 172a 9C       		.byte	0x9c
 4959 172b 5A170000 		.4byte	0x175a
 4960 172f 21       		.uleb128 0x21
 4961 1730 070B0000 		.4byte	.LASF309
 4962 1734 04       		.byte	0x4
 4963 1735 B4       		.byte	0xb4
 4964 1736 670D0000 		.4byte	0xd67
 4965 173a 02       		.uleb128 0x2
 4966 173b 91       		.byte	0x91
 4967 173c 6C       		.sleb128 -20
 4968 173d 23       		.uleb128 0x23
 4969 173e 74787400 		.ascii	"txt\000"
 4970 1742 04       		.byte	0x4
 4971 1743 B4       		.byte	0xb4
 4972 1744 AB020000 		.4byte	0x2ab
 4973 1748 02       		.uleb128 0x2
 4974 1749 91       		.byte	0x91
 4975 174a 68       		.sleb128 -24
 4976 174b 26       		.uleb128 0x26
 4977 174c 65787400 		.ascii	"ext\000"
 4978 1750 04       		.byte	0x4
 4979 1751 B9       		.byte	0xb9
 4980 1752 B7160000 		.4byte	0x16b7
 4981 1756 02       		.uleb128 0x2
 4982 1757 91       		.byte	0x91
 4983 1758 74       		.sleb128 -12
 4984 1759 00       		.byte	0
 4985 175a 29       		.uleb128 0x29
ARM GAS  C:\Users\tmj32\AppData\Local\Temp\ccSNdAsc.s 			page 105


 4986 175b 29080000 		.4byte	.LASF332
 4987 175f 04       		.byte	0x4
 4988 1760 C4       		.byte	0xc4
 4989 1761 00000000 		.4byte	.LFB49
 4990 1765 26000000 		.4byte	.LFE49-.LFB49
 4991 1769 01       		.uleb128 0x1
 4992 176a 9C       		.byte	0x9c
 4993 176b 9A170000 		.4byte	0x179a
 4994 176f 21       		.uleb128 0x21
 4995 1770 070B0000 		.4byte	.LASF309
 4996 1774 04       		.byte	0x4
 4997 1775 C4       		.byte	0xc4
 4998 1776 670D0000 		.4byte	0xd67
 4999 177a 02       		.uleb128 0x2
 5000 177b 91       		.byte	0x91
 5001 177c 6C       		.sleb128 -20
 5002 177d 21       		.uleb128 0x21
 5003 177e 12050000 		.4byte	.LASF265
 5004 1782 04       		.byte	0x4
 5005 1783 C4       		.byte	0xc4
 5006 1784 CE000000 		.4byte	0xce
 5007 1788 02       		.uleb128 0x2
 5008 1789 91       		.byte	0x91
 5009 178a 6A       		.sleb128 -22
 5010 178b 26       		.uleb128 0x26
 5011 178c 65787400 		.ascii	"ext\000"
 5012 1790 04       		.byte	0x4
 5013 1791 C9       		.byte	0xc9
 5014 1792 B7160000 		.4byte	0x16b7
 5015 1796 02       		.uleb128 0x2
 5016 1797 91       		.byte	0x91
 5017 1798 74       		.sleb128 -12
 5018 1799 00       		.byte	0
 5019 179a 29       		.uleb128 0x29
 5020 179b 340C0000 		.4byte	.LASF333
 5021 179f 04       		.byte	0x4
 5022 17a0 D7       		.byte	0xd7
 5023 17a1 00000000 		.4byte	.LFB50
 5024 17a5 04010000 		.4byte	.LFE50-.LFB50
 5025 17a9 01       		.uleb128 0x1
 5026 17aa 9C       		.byte	0x9c
 5027 17ab FC170000 		.4byte	0x17fc
 5028 17af 21       		.uleb128 0x21
 5029 17b0 070B0000 		.4byte	.LASF309
 5030 17b4 04       		.byte	0x4
 5031 17b5 D7       		.byte	0xd7
 5032 17b6 670D0000 		.4byte	0xd67
 5033 17ba 02       		.uleb128 0x2
 5034 17bb 91       		.byte	0x91
 5035 17bc 4C       		.sleb128 -52
 5036 17bd 21       		.uleb128 0x21
 5037 17be EC010000 		.4byte	.LASF334
 5038 17c2 04       		.byte	0x4
 5039 17c3 D7       		.byte	0xd7
 5040 17c4 CE000000 		.4byte	0xce
 5041 17c8 02       		.uleb128 0x2
 5042 17c9 91       		.byte	0x91
ARM GAS  C:\Users\tmj32\AppData\Local\Temp\ccSNdAsc.s 			page 106


 5043 17ca 4A       		.sleb128 -54
 5044 17cb 27       		.uleb128 0x27
 5045 17cc 18000000 		.4byte	.LBB5
 5046 17d0 80000000 		.4byte	.LBE5-.LBB5
 5047 17d4 E5170000 		.4byte	0x17e5
 5048 17d8 26       		.uleb128 0x26
 5049 17d9 6100     		.ascii	"a\000"
 5050 17db 04       		.byte	0x4
 5051 17dc DE       		.byte	0xde
 5052 17dd 30040000 		.4byte	0x430
 5053 17e1 02       		.uleb128 0x2
 5054 17e2 91       		.byte	0x91
 5055 17e3 54       		.sleb128 -44
 5056 17e4 00       		.byte	0
 5057 17e5 28       		.uleb128 0x28
 5058 17e6 9A000000 		.4byte	.LBB6
 5059 17ea 50000000 		.4byte	.LBE6-.LBB6
 5060 17ee 26       		.uleb128 0x26
 5061 17ef 6100     		.ascii	"a\000"
 5062 17f1 04       		.byte	0x4
 5063 17f2 F6       		.byte	0xf6
 5064 17f3 30040000 		.4byte	0x430
 5065 17f7 02       		.uleb128 0x2
 5066 17f8 91       		.byte	0x91
 5067 17f9 54       		.sleb128 -44
 5068 17fa 00       		.byte	0
 5069 17fb 00       		.byte	0
 5070 17fc 2A       		.uleb128 0x2a
 5071 17fd C40D0000 		.4byte	.LASF335
 5072 1801 04       		.byte	0x4
 5073 1802 0F01     		.2byte	0x10f
 5074 1804 00000000 		.4byte	.LFB51
 5075 1808 18000000 		.4byte	.LFE51-.LFB51
 5076 180c 01       		.uleb128 0x1
 5077 180d 9C       		.byte	0x9c
 5078 180e 22180000 		.4byte	0x1822
 5079 1812 2B       		.uleb128 0x2b
 5080 1813 070B0000 		.4byte	.LASF309
 5081 1817 04       		.byte	0x4
 5082 1818 0F01     		.2byte	0x10f
 5083 181a 670D0000 		.4byte	0xd67
 5084 181e 02       		.uleb128 0x2
 5085 181f 91       		.byte	0x91
 5086 1820 74       		.sleb128 -12
 5087 1821 00       		.byte	0
 5088 1822 2A       		.uleb128 0x2a
 5089 1823 39020000 		.4byte	.LASF336
 5090 1827 04       		.byte	0x4
 5091 1828 2001     		.2byte	0x120
 5092 182a 00000000 		.4byte	.LFB52
 5093 182e B8000000 		.4byte	.LFE52-.LFB52
 5094 1832 01       		.uleb128 0x1
 5095 1833 9C       		.byte	0x9c
 5096 1834 75180000 		.4byte	0x1875
 5097 1838 2B       		.uleb128 0x2b
 5098 1839 070B0000 		.4byte	.LASF309
 5099 183d 04       		.byte	0x4
ARM GAS  C:\Users\tmj32\AppData\Local\Temp\ccSNdAsc.s 			page 107


 5100 183e 2001     		.2byte	0x120
 5101 1840 670D0000 		.4byte	0xd67
 5102 1844 02       		.uleb128 0x2
 5103 1845 91       		.byte	0x91
 5104 1846 6C       		.sleb128 -20
 5105 1847 2B       		.uleb128 0x2b
 5106 1848 C5010000 		.4byte	.LASF70
 5107 184c 04       		.byte	0x4
 5108 184d 2001     		.2byte	0x120
 5109 184f AF0D0000 		.4byte	0xdaf
 5110 1853 02       		.uleb128 0x2
 5111 1854 91       		.byte	0x91
 5112 1855 6B       		.sleb128 -21
 5113 1856 2B       		.uleb128 0x2b
 5114 1857 ED0C0000 		.4byte	.LASF318
 5115 185b 04       		.byte	0x4
 5116 185c 2001     		.2byte	0x120
 5117 185e F00A0000 		.4byte	0xaf0
 5118 1862 02       		.uleb128 0x2
 5119 1863 91       		.byte	0x91
 5120 1864 64       		.sleb128 -28
 5121 1865 2C       		.uleb128 0x2c
 5122 1866 65787400 		.ascii	"ext\000"
 5123 186a 04       		.byte	0x4
 5124 186b 2401     		.2byte	0x124
 5125 186d B7160000 		.4byte	0x16b7
 5126 1871 02       		.uleb128 0x2
 5127 1872 91       		.byte	0x91
 5128 1873 74       		.sleb128 -12
 5129 1874 00       		.byte	0
 5130 1875 2A       		.uleb128 0x2a
 5131 1876 910B0000 		.4byte	.LASF337
 5132 187a 04       		.byte	0x4
 5133 187b 3801     		.2byte	0x138
 5134 187d 00000000 		.4byte	.LFB53
 5135 1881 32000000 		.4byte	.LFE53-.LFB53
 5136 1885 01       		.uleb128 0x1
 5137 1886 9C       		.byte	0x9c
 5138 1887 B8180000 		.4byte	0x18b8
 5139 188b 2B       		.uleb128 0x2b
 5140 188c 070B0000 		.4byte	.LASF309
 5141 1890 04       		.byte	0x4
 5142 1891 3801     		.2byte	0x138
 5143 1893 670D0000 		.4byte	0xd67
 5144 1897 02       		.uleb128 0x2
 5145 1898 91       		.byte	0x91
 5146 1899 6C       		.sleb128 -20
 5147 189a 2D       		.uleb128 0x2d
 5148 189b 656E00   		.ascii	"en\000"
 5149 189e 04       		.byte	0x4
 5150 189f 3801     		.2byte	0x138
 5151 18a1 D5010000 		.4byte	0x1d5
 5152 18a5 02       		.uleb128 0x2
 5153 18a6 91       		.byte	0x91
 5154 18a7 6B       		.sleb128 -21
 5155 18a8 2C       		.uleb128 0x2c
 5156 18a9 65787400 		.ascii	"ext\000"
ARM GAS  C:\Users\tmj32\AppData\Local\Temp\ccSNdAsc.s 			page 108


 5157 18ad 04       		.byte	0x4
 5158 18ae 3C01     		.2byte	0x13c
 5159 18b0 B7160000 		.4byte	0x16b7
 5160 18b4 02       		.uleb128 0x2
 5161 18b5 91       		.byte	0x91
 5162 18b6 74       		.sleb128 -12
 5163 18b7 00       		.byte	0
 5164 18b8 2E       		.uleb128 0x2e
 5165 18b9 7A040000 		.4byte	.LASF339
 5166 18bd 04       		.byte	0x4
 5167 18be 4A01     		.2byte	0x14a
 5168 18c0 AB020000 		.4byte	0x2ab
 5169 18c4 00000000 		.4byte	.LFB54
 5170 18c8 24000000 		.4byte	.LFE54-.LFB54
 5171 18cc 01       		.uleb128 0x1
 5172 18cd 9C       		.byte	0x9c
 5173 18ce F1180000 		.4byte	0x18f1
 5174 18d2 2B       		.uleb128 0x2b
 5175 18d3 070B0000 		.4byte	.LASF309
 5176 18d7 04       		.byte	0x4
 5177 18d8 4A01     		.2byte	0x14a
 5178 18da AC160000 		.4byte	0x16ac
 5179 18de 02       		.uleb128 0x2
 5180 18df 91       		.byte	0x91
 5181 18e0 6C       		.sleb128 -20
 5182 18e1 2C       		.uleb128 0x2c
 5183 18e2 65787400 		.ascii	"ext\000"
 5184 18e6 04       		.byte	0x4
 5185 18e7 4E01     		.2byte	0x14e
 5186 18e9 B7160000 		.4byte	0x16b7
 5187 18ed 02       		.uleb128 0x2
 5188 18ee 91       		.byte	0x91
 5189 18ef 74       		.sleb128 -12
 5190 18f0 00       		.byte	0
 5191 18f1 2E       		.uleb128 0x2e
 5192 18f2 66030000 		.4byte	.LASF340
 5193 18f6 04       		.byte	0x4
 5194 18f7 5901     		.2byte	0x159
 5195 18f9 CE000000 		.4byte	0xce
 5196 18fd 00000000 		.4byte	.LFB55
 5197 1901 32000000 		.4byte	.LFE55-.LFB55
 5198 1905 01       		.uleb128 0x1
 5199 1906 9C       		.byte	0x9c
 5200 1907 2A190000 		.4byte	0x192a
 5201 190b 2B       		.uleb128 0x2b
 5202 190c 070B0000 		.4byte	.LASF309
 5203 1910 04       		.byte	0x4
 5204 1911 5901     		.2byte	0x159
 5205 1913 670D0000 		.4byte	0xd67
 5206 1917 02       		.uleb128 0x2
 5207 1918 91       		.byte	0x91
 5208 1919 6C       		.sleb128 -20
 5209 191a 2C       		.uleb128 0x2c
 5210 191b 65787400 		.ascii	"ext\000"
 5211 191f 04       		.byte	0x4
 5212 1920 5D01     		.2byte	0x15d
 5213 1922 B7160000 		.4byte	0x16b7
ARM GAS  C:\Users\tmj32\AppData\Local\Temp\ccSNdAsc.s 			page 109


 5214 1926 02       		.uleb128 0x2
 5215 1927 91       		.byte	0x91
 5216 1928 74       		.sleb128 -12
 5217 1929 00       		.byte	0
 5218 192a 2E       		.uleb128 0x2e
 5219 192b 770C0000 		.4byte	.LASF341
 5220 192f 04       		.byte	0x4
 5221 1930 6A01     		.2byte	0x16a
 5222 1932 AB020000 		.4byte	0x2ab
 5223 1936 00000000 		.4byte	.LFB56
 5224 193a 30000000 		.4byte	.LFE56-.LFB56
 5225 193e 01       		.uleb128 0x1
 5226 193f 9C       		.byte	0x9c
 5227 1940 63190000 		.4byte	0x1963
 5228 1944 2B       		.uleb128 0x2b
 5229 1945 070B0000 		.4byte	.LASF309
 5230 1949 04       		.byte	0x4
 5231 194a 6A01     		.2byte	0x16a
 5232 194c 670D0000 		.4byte	0xd67
 5233 1950 02       		.uleb128 0x2
 5234 1951 91       		.byte	0x91
 5235 1952 6C       		.sleb128 -20
 5236 1953 2C       		.uleb128 0x2c
 5237 1954 65787400 		.ascii	"ext\000"
 5238 1958 04       		.byte	0x4
 5239 1959 6E01     		.2byte	0x16e
 5240 195b B7160000 		.4byte	0x16b7
 5241 195f 02       		.uleb128 0x2
 5242 1960 91       		.byte	0x91
 5243 1961 74       		.sleb128 -12
 5244 1962 00       		.byte	0
 5245 1963 2E       		.uleb128 0x2e
 5246 1964 67020000 		.4byte	.LASF342
 5247 1968 04       		.byte	0x4
 5248 1969 7A01     		.2byte	0x17a
 5249 196b CE000000 		.4byte	0xce
 5250 196f 00000000 		.4byte	.LFB57
 5251 1973 1C000000 		.4byte	.LFE57-.LFB57
 5252 1977 01       		.uleb128 0x1
 5253 1978 9C       		.byte	0x9c
 5254 1979 9C190000 		.4byte	0x199c
 5255 197d 2B       		.uleb128 0x2b
 5256 197e 070B0000 		.4byte	.LASF309
 5257 1982 04       		.byte	0x4
 5258 1983 7A01     		.2byte	0x17a
 5259 1985 AC160000 		.4byte	0x16ac
 5260 1989 02       		.uleb128 0x2
 5261 198a 91       		.byte	0x91
 5262 198b 6C       		.sleb128 -20
 5263 198c 2C       		.uleb128 0x2c
 5264 198d 65787400 		.ascii	"ext\000"
 5265 1991 04       		.byte	0x4
 5266 1992 7F01     		.2byte	0x17f
 5267 1994 B7160000 		.4byte	0x16b7
 5268 1998 02       		.uleb128 0x2
 5269 1999 91       		.byte	0x91
 5270 199a 74       		.sleb128 -12
ARM GAS  C:\Users\tmj32\AppData\Local\Temp\ccSNdAsc.s 			page 110


 5271 199b 00       		.byte	0
 5272 199c 2E       		.uleb128 0x2e
 5273 199d 79080000 		.4byte	.LASF343
 5274 19a1 04       		.byte	0x4
 5275 19a2 8D01     		.2byte	0x18d
 5276 19a4 F00A0000 		.4byte	0xaf0
 5277 19a8 00000000 		.4byte	.LFB58
 5278 19ac BA000000 		.4byte	.LFE58-.LFB58
 5279 19b0 01       		.uleb128 0x1
 5280 19b1 9C       		.byte	0x9c
 5281 19b2 F3190000 		.4byte	0x19f3
 5282 19b6 2B       		.uleb128 0x2b
 5283 19b7 070B0000 		.4byte	.LASF309
 5284 19bb 04       		.byte	0x4
 5285 19bc 8D01     		.2byte	0x18d
 5286 19be AC160000 		.4byte	0x16ac
 5287 19c2 02       		.uleb128 0x2
 5288 19c3 91       		.byte	0x91
 5289 19c4 6C       		.sleb128 -20
 5290 19c5 2B       		.uleb128 0x2b
 5291 19c6 C5010000 		.4byte	.LASF70
 5292 19ca 04       		.byte	0x4
 5293 19cb 8D01     		.2byte	0x18d
 5294 19cd AF0D0000 		.4byte	0xdaf
 5295 19d1 02       		.uleb128 0x2
 5296 19d2 91       		.byte	0x91
 5297 19d3 6B       		.sleb128 -21
 5298 19d4 2F       		.uleb128 0x2f
 5299 19d5 ED0C0000 		.4byte	.LASF318
 5300 19d9 04       		.byte	0x4
 5301 19da 9101     		.2byte	0x191
 5302 19dc F00A0000 		.4byte	0xaf0
 5303 19e0 02       		.uleb128 0x2
 5304 19e1 91       		.byte	0x91
 5305 19e2 74       		.sleb128 -12
 5306 19e3 2C       		.uleb128 0x2c
 5307 19e4 65787400 		.ascii	"ext\000"
 5308 19e8 04       		.byte	0x4
 5309 19e9 9201     		.2byte	0x192
 5310 19eb B7160000 		.4byte	0x16b7
 5311 19ef 02       		.uleb128 0x2
 5312 19f0 91       		.byte	0x91
 5313 19f1 70       		.sleb128 -16
 5314 19f2 00       		.byte	0
 5315 19f3 2E       		.uleb128 0x2e
 5316 19f4 710A0000 		.4byte	.LASF344
 5317 19f8 04       		.byte	0x4
 5318 19f9 A701     		.2byte	0x1a7
 5319 19fb D5010000 		.4byte	0x1d5
 5320 19ff 00000000 		.4byte	.LFB59
 5321 1a03 30000000 		.4byte	.LFE59-.LFB59
 5322 1a07 01       		.uleb128 0x1
 5323 1a08 9C       		.byte	0x9c
 5324 1a09 2C1A0000 		.4byte	0x1a2c
 5325 1a0d 2B       		.uleb128 0x2b
 5326 1a0e 070B0000 		.4byte	.LASF309
 5327 1a12 04       		.byte	0x4
ARM GAS  C:\Users\tmj32\AppData\Local\Temp\ccSNdAsc.s 			page 111


 5328 1a13 A701     		.2byte	0x1a7
 5329 1a15 AC160000 		.4byte	0x16ac
 5330 1a19 02       		.uleb128 0x2
 5331 1a1a 91       		.byte	0x91
 5332 1a1b 6C       		.sleb128 -20
 5333 1a1c 2C       		.uleb128 0x2c
 5334 1a1d 65787400 		.ascii	"ext\000"
 5335 1a21 04       		.byte	0x4
 5336 1a22 AB01     		.2byte	0x1ab
 5337 1a24 B7160000 		.4byte	0x16b7
 5338 1a28 02       		.uleb128 0x2
 5339 1a29 91       		.byte	0x91
 5340 1a2a 74       		.sleb128 -12
 5341 1a2b 00       		.byte	0
 5342 1a2c 2E       		.uleb128 0x2e
 5343 1a2d AC110000 		.4byte	.LASF345
 5344 1a31 04       		.byte	0x4
 5345 1a32 B801     		.2byte	0x1b8
 5346 1a34 670D0000 		.4byte	0xd67
 5347 1a38 00000000 		.4byte	.LFB60
 5348 1a3c 1C000000 		.4byte	.LFE60-.LFB60
 5349 1a40 01       		.uleb128 0x1
 5350 1a41 9C       		.byte	0x9c
 5351 1a42 651A0000 		.4byte	0x1a65
 5352 1a46 2B       		.uleb128 0x2b
 5353 1a47 070B0000 		.4byte	.LASF309
 5354 1a4b 04       		.byte	0x4
 5355 1a4c B801     		.2byte	0x1b8
 5356 1a4e 670D0000 		.4byte	0xd67
 5357 1a52 02       		.uleb128 0x2
 5358 1a53 91       		.byte	0x91
 5359 1a54 6C       		.sleb128 -20
 5360 1a55 2C       		.uleb128 0x2c
 5361 1a56 65787400 		.ascii	"ext\000"
 5362 1a5a 04       		.byte	0x4
 5363 1a5b BC01     		.2byte	0x1bc
 5364 1a5d B7160000 		.4byte	0x16b7
 5365 1a61 02       		.uleb128 0x2
 5366 1a62 91       		.byte	0x91
 5367 1a63 74       		.sleb128 -12
 5368 1a64 00       		.byte	0
 5369 1a65 30       		.uleb128 0x30
 5370 1a66 380B0000 		.4byte	.LASF346
 5371 1a6a 04       		.byte	0x4
 5372 1a6b CB01     		.2byte	0x1cb
 5373 1a6d 90060000 		.4byte	0x690
 5374 1a71 00000000 		.4byte	.LFB61
 5375 1a75 18010000 		.4byte	.LFE61-.LFB61
 5376 1a79 01       		.uleb128 0x1
 5377 1a7a 9C       		.byte	0x9c
 5378 1a7b F31A0000 		.4byte	0x1af3
 5379 1a7f 2B       		.uleb128 0x2b
 5380 1a80 070B0000 		.4byte	.LASF309
 5381 1a84 04       		.byte	0x4
 5382 1a85 CB01     		.2byte	0x1cb
 5383 1a87 670D0000 		.4byte	0xd67
 5384 1a8b 02       		.uleb128 0x2
ARM GAS  C:\Users\tmj32\AppData\Local\Temp\ccSNdAsc.s 			page 112


 5385 1a8c 91       		.byte	0x91
 5386 1a8d 5C       		.sleb128 -36
 5387 1a8e 2B       		.uleb128 0x2b
 5388 1a8f 63010000 		.4byte	.LASF347
 5389 1a93 04       		.byte	0x4
 5390 1a94 CB01     		.2byte	0x1cb
 5391 1a96 AD090000 		.4byte	0x9ad
 5392 1a9a 02       		.uleb128 0x2
 5393 1a9b 91       		.byte	0x91
 5394 1a9c 5B       		.sleb128 -37
 5395 1a9d 2B       		.uleb128 0x2b
 5396 1a9e D2070000 		.4byte	.LASF348
 5397 1aa2 04       		.byte	0x4
 5398 1aa3 CB01     		.2byte	0x1cb
 5399 1aa5 FA000000 		.4byte	0xfa
 5400 1aa9 02       		.uleb128 0x2
 5401 1aaa 91       		.byte	0x91
 5402 1aab 54       		.sleb128 -44
 5403 1aac 2C       		.uleb128 0x2c
 5404 1aad 72657300 		.ascii	"res\000"
 5405 1ab1 04       		.byte	0x4
 5406 1ab2 CD01     		.2byte	0x1cd
 5407 1ab4 90060000 		.4byte	0x690
 5408 1ab8 02       		.uleb128 0x2
 5409 1ab9 91       		.byte	0x91
 5410 1aba 6F       		.sleb128 -17
 5411 1abb 2F       		.uleb128 0x2f
 5412 1abc 6E0D0000 		.4byte	.LASF349
 5413 1ac0 04       		.byte	0x4
 5414 1ac1 D001     		.2byte	0x1d0
 5415 1ac3 A4020000 		.4byte	0x2a4
 5416 1ac7 02       		.uleb128 0x2
 5417 1ac8 91       		.byte	0x91
 5418 1ac9 67       		.sleb128 -25
 5419 1aca 2C       		.uleb128 0x2c
 5420 1acb 65787400 		.ascii	"ext\000"
 5421 1acf 04       		.byte	0x4
 5422 1ad0 DE01     		.2byte	0x1de
 5423 1ad2 B7160000 		.4byte	0x16b7
 5424 1ad6 02       		.uleb128 0x2
 5425 1ad7 91       		.byte	0x91
 5426 1ad8 68       		.sleb128 -24
 5427 1ad9 28       		.uleb128 0x28
 5428 1ada AC000000 		.4byte	.LBB7
 5429 1ade 28000000 		.4byte	.LBE7-.LBB7
 5430 1ae2 2F       		.uleb128 0x2f
 5431 1ae3 E4040000 		.4byte	.LASF350
 5432 1ae7 04       		.byte	0x4
 5433 1ae8 E701     		.2byte	0x1e7
 5434 1aea E4000000 		.4byte	0xe4
 5435 1aee 02       		.uleb128 0x2
 5436 1aef 91       		.byte	0x91
 5437 1af0 60       		.sleb128 -32
 5438 1af1 00       		.byte	0
 5439 1af2 00       		.byte	0
 5440 1af3 31       		.uleb128 0x31
 5441 1af4 6C080000 		.4byte	.LASF351
ARM GAS  C:\Users\tmj32\AppData\Local\Temp\ccSNdAsc.s 			page 113


 5442 1af8 04       		.byte	0x4
 5443 1af9 0902     		.2byte	0x209
 5444 1afb 00000000 		.4byte	.LFB62
 5445 1aff CA000000 		.4byte	.LFE62-.LFB62
 5446 1b03 01       		.uleb128 0x1
 5447 1b04 9C       		.byte	0x9c
 5448 1b05 7B1B0000 		.4byte	0x1b7b
 5449 1b09 2B       		.uleb128 0x2b
 5450 1b0a 070B0000 		.4byte	.LASF309
 5451 1b0e 04       		.byte	0x4
 5452 1b0f 0902     		.2byte	0x209
 5453 1b11 670D0000 		.4byte	0xd67
 5454 1b15 02       		.uleb128 0x2
 5455 1b16 91       		.byte	0x91
 5456 1b17 5C       		.sleb128 -36
 5457 1b18 2C       		.uleb128 0x2c
 5458 1b19 65787400 		.ascii	"ext\000"
 5459 1b1d 04       		.byte	0x4
 5460 1b1e 0B02     		.2byte	0x20b
 5461 1b20 B7160000 		.4byte	0x16b7
 5462 1b24 02       		.uleb128 0x2
 5463 1b25 91       		.byte	0x91
 5464 1b26 74       		.sleb128 -12
 5465 1b27 2F       		.uleb128 0x2f
 5466 1b28 ED0C0000 		.4byte	.LASF318
 5467 1b2c 04       		.byte	0x4
 5468 1b2d 0D02     		.2byte	0x20d
 5469 1b2f F00A0000 		.4byte	0xaf0
 5470 1b33 02       		.uleb128 0x2
 5471 1b34 91       		.byte	0x91
 5472 1b35 70       		.sleb128 -16
 5473 1b36 2C       		.uleb128 0x2c
 5474 1b37 7700     		.ascii	"w\000"
 5475 1b39 04       		.byte	0x4
 5476 1b3a 0E02     		.2byte	0x20e
 5477 1b3c EF000000 		.4byte	0xef
 5478 1b40 02       		.uleb128 0x2
 5479 1b41 91       		.byte	0x91
 5480 1b42 6E       		.sleb128 -18
 5481 1b43 28       		.uleb128 0x28
 5482 1b44 5E000000 		.4byte	.LBB8
 5483 1b48 64000000 		.4byte	.LBE8-.LBB8
 5484 1b4c 2F       		.uleb128 0x2f
 5485 1b4d 8B040000 		.4byte	.LASF352
 5486 1b51 04       		.byte	0x4
 5487 1b52 1502     		.2byte	0x215
 5488 1b54 F00A0000 		.4byte	0xaf0
 5489 1b58 02       		.uleb128 0x2
 5490 1b59 91       		.byte	0x91
 5491 1b5a 68       		.sleb128 -24
 5492 1b5b 2F       		.uleb128 0x2f
 5493 1b5c 2C0F0000 		.4byte	.LASF353
 5494 1b60 04       		.byte	0x4
 5495 1b61 1602     		.2byte	0x216
 5496 1b63 F00A0000 		.4byte	0xaf0
 5497 1b67 02       		.uleb128 0x2
 5498 1b68 91       		.byte	0x91
ARM GAS  C:\Users\tmj32\AppData\Local\Temp\ccSNdAsc.s 			page 114


 5499 1b69 64       		.sleb128 -28
 5500 1b6a 2F       		.uleb128 0x2f
 5501 1b6b 250F0000 		.4byte	.LASF354
 5502 1b6f 04       		.byte	0x4
 5503 1b70 1702     		.2byte	0x217
 5504 1b72 EF000000 		.4byte	0xef
 5505 1b76 02       		.uleb128 0x2
 5506 1b77 91       		.byte	0x91
 5507 1b78 62       		.sleb128 -30
 5508 1b79 00       		.byte	0
 5509 1b7a 00       		.byte	0
 5510 1b7b 31       		.uleb128 0x31
 5511 1b7c 850A0000 		.4byte	.LASF355
 5512 1b80 04       		.byte	0x4
 5513 1b81 1F02     		.2byte	0x21f
 5514 1b83 00000000 		.4byte	.LFB63
 5515 1b87 1A000000 		.4byte	.LFE63-.LFB63
 5516 1b8b 01       		.uleb128 0x1
 5517 1b8c 9C       		.byte	0x9c
 5518 1b8d 9F1B0000 		.4byte	0x1b9f
 5519 1b91 2D       		.uleb128 0x2d
 5520 1b92 6100     		.ascii	"a\000"
 5521 1b94 04       		.byte	0x4
 5522 1b95 1F02     		.2byte	0x21f
 5523 1b97 9F1B0000 		.4byte	0x1b9f
 5524 1b9b 02       		.uleb128 0x2
 5525 1b9c 91       		.byte	0x91
 5526 1b9d 74       		.sleb128 -12
 5527 1b9e 00       		.byte	0
 5528 1b9f 0D       		.uleb128 0xd
 5529 1ba0 04       		.byte	0x4
 5530 1ba1 30040000 		.4byte	0x430
 5531 1ba5 31       		.uleb128 0x31
 5532 1ba6 85020000 		.4byte	.LASF356
 5533 1baa 04       		.byte	0x4
 5534 1bab 2502     		.2byte	0x225
 5535 1bad 00000000 		.4byte	.LFB64
 5536 1bb1 3C000000 		.4byte	.LFE64-.LFB64
 5537 1bb5 01       		.uleb128 0x1
 5538 1bb6 9C       		.byte	0x9c
 5539 1bb7 E91B0000 		.4byte	0x1be9
 5540 1bbb 2B       		.uleb128 0x2b
 5541 1bbc 070B0000 		.4byte	.LASF309
 5542 1bc0 04       		.byte	0x4
 5543 1bc1 2502     		.2byte	0x225
 5544 1bc3 670D0000 		.4byte	0xd67
 5545 1bc7 02       		.uleb128 0x2
 5546 1bc8 91       		.byte	0x91
 5547 1bc9 6C       		.sleb128 -20
 5548 1bca 2B       		.uleb128 0x2b
 5549 1bcb 9C0A0000 		.4byte	.LASF357
 5550 1bcf 04       		.byte	0x4
 5551 1bd0 2502     		.2byte	0x225
 5552 1bd2 FC080000 		.4byte	0x8fc
 5553 1bd6 02       		.uleb128 0x2
 5554 1bd7 91       		.byte	0x91
 5555 1bd8 6B       		.sleb128 -21
ARM GAS  C:\Users\tmj32\AppData\Local\Temp\ccSNdAsc.s 			page 115


 5556 1bd9 2F       		.uleb128 0x2f
 5557 1bda E4040000 		.4byte	.LASF350
 5558 1bde 04       		.byte	0x4
 5559 1bdf 2902     		.2byte	0x229
 5560 1be1 E4000000 		.4byte	0xe4
 5561 1be5 02       		.uleb128 0x2
 5562 1be6 91       		.byte	0x91
 5563 1be7 74       		.sleb128 -12
 5564 1be8 00       		.byte	0
 5565 1be9 31       		.uleb128 0x31
 5566 1bea 40100000 		.4byte	.LASF358
 5567 1bee 04       		.byte	0x4
 5568 1bef 2F02     		.2byte	0x22f
 5569 1bf1 00000000 		.4byte	.LFB65
 5570 1bf5 62000000 		.4byte	.LFE65-.LFB65
 5571 1bf9 01       		.uleb128 0x1
 5572 1bfa 9C       		.byte	0x9c
 5573 1bfb 2D1C0000 		.4byte	0x1c2d
 5574 1bff 2B       		.uleb128 0x2b
 5575 1c00 61030000 		.4byte	.LASF264
 5576 1c04 04       		.byte	0x4
 5577 1c05 2F02     		.2byte	0x22f
 5578 1c07 670D0000 		.4byte	0xd67
 5579 1c0b 02       		.uleb128 0x2
 5580 1c0c 91       		.byte	0x91
 5581 1c0d 6C       		.sleb128 -20
 5582 1c0e 2B       		.uleb128 0x2b
 5583 1c0f 9C0A0000 		.4byte	.LASF357
 5584 1c13 04       		.byte	0x4
 5585 1c14 2F02     		.2byte	0x22f
 5586 1c16 FC080000 		.4byte	0x8fc
 5587 1c1a 02       		.uleb128 0x2
 5588 1c1b 91       		.byte	0x91
 5589 1c1c 6B       		.sleb128 -21
 5590 1c1d 2F       		.uleb128 0x2f
 5591 1c1e 070B0000 		.4byte	.LASF309
 5592 1c22 04       		.byte	0x4
 5593 1c23 3102     		.2byte	0x231
 5594 1c25 670D0000 		.4byte	0xd67
 5595 1c29 02       		.uleb128 0x2
 5596 1c2a 91       		.byte	0x91
 5597 1c2b 74       		.sleb128 -12
 5598 1c2c 00       		.byte	0
 5599 1c2d 25       		.uleb128 0x25
 5600 1c2e 5A070000 		.4byte	.LASF359
 5601 1c32 04       		.byte	0x4
 5602 1c33 32       		.byte	0x32
 5603 1c34 B8090000 		.4byte	0x9b8
 5604 1c38 05       		.uleb128 0x5
 5605 1c39 03       		.byte	0x3
 5606 1c3a 00000000 		.4byte	ancestor_signal
 5607 1c3e 32       		.uleb128 0x32
 5608 1c3f BD130000 		.4byte	.LASF360
 5609 1c43 0A       		.byte	0xa
 5610 1c44 0D01     		.2byte	0x10d
 5611 1c46 66060000 		.4byte	0x666
 5612 1c4a 32       		.uleb128 0x32
ARM GAS  C:\Users\tmj32\AppData\Local\Temp\ccSNdAsc.s 			page 116


 5613 1c4b BC100000 		.4byte	.LASF361
 5614 1c4f 0A       		.byte	0xa
 5615 1c50 1101     		.2byte	0x111
 5616 1c52 66060000 		.4byte	0x666
 5617 1c56 00       		.byte	0
 5618              		.section	.debug_abbrev,"",%progbits
 5619              	.Ldebug_abbrev0:
 5620 0000 01       		.uleb128 0x1
 5621 0001 11       		.uleb128 0x11
 5622 0002 01       		.byte	0x1
 5623 0003 25       		.uleb128 0x25
 5624 0004 0E       		.uleb128 0xe
 5625 0005 13       		.uleb128 0x13
 5626 0006 0B       		.uleb128 0xb
 5627 0007 03       		.uleb128 0x3
 5628 0008 0E       		.uleb128 0xe
 5629 0009 1B       		.uleb128 0x1b
 5630 000a 0E       		.uleb128 0xe
 5631 000b 55       		.uleb128 0x55
 5632 000c 17       		.uleb128 0x17
 5633 000d 11       		.uleb128 0x11
 5634 000e 01       		.uleb128 0x1
 5635 000f 10       		.uleb128 0x10
 5636 0010 17       		.uleb128 0x17
 5637 0011 00       		.byte	0
 5638 0012 00       		.byte	0
 5639 0013 02       		.uleb128 0x2
 5640 0014 16       		.uleb128 0x16
 5641 0015 00       		.byte	0
 5642 0016 03       		.uleb128 0x3
 5643 0017 0E       		.uleb128 0xe
 5644 0018 3A       		.uleb128 0x3a
 5645 0019 0B       		.uleb128 0xb
 5646 001a 3B       		.uleb128 0x3b
 5647 001b 0B       		.uleb128 0xb
 5648 001c 49       		.uleb128 0x49
 5649 001d 13       		.uleb128 0x13
 5650 001e 00       		.byte	0
 5651 001f 00       		.byte	0
 5652 0020 03       		.uleb128 0x3
 5653 0021 24       		.uleb128 0x24
 5654 0022 00       		.byte	0
 5655 0023 0B       		.uleb128 0xb
 5656 0024 0B       		.uleb128 0xb
 5657 0025 3E       		.uleb128 0x3e
 5658 0026 0B       		.uleb128 0xb
 5659 0027 03       		.uleb128 0x3
 5660 0028 0E       		.uleb128 0xe
 5661 0029 00       		.byte	0
 5662 002a 00       		.byte	0
 5663 002b 04       		.uleb128 0x4
 5664 002c 24       		.uleb128 0x24
 5665 002d 00       		.byte	0
 5666 002e 0B       		.uleb128 0xb
 5667 002f 0B       		.uleb128 0xb
 5668 0030 3E       		.uleb128 0x3e
 5669 0031 0B       		.uleb128 0xb
ARM GAS  C:\Users\tmj32\AppData\Local\Temp\ccSNdAsc.s 			page 117


 5670 0032 03       		.uleb128 0x3
 5671 0033 08       		.uleb128 0x8
 5672 0034 00       		.byte	0
 5673 0035 00       		.byte	0
 5674 0036 05       		.uleb128 0x5
 5675 0037 0F       		.uleb128 0xf
 5676 0038 00       		.byte	0
 5677 0039 0B       		.uleb128 0xb
 5678 003a 0B       		.uleb128 0xb
 5679 003b 00       		.byte	0
 5680 003c 00       		.byte	0
 5681 003d 06       		.uleb128 0x6
 5682 003e 13       		.uleb128 0x13
 5683 003f 01       		.byte	0x1
 5684 0040 0B       		.uleb128 0xb
 5685 0041 0B       		.uleb128 0xb
 5686 0042 3A       		.uleb128 0x3a
 5687 0043 0B       		.uleb128 0xb
 5688 0044 3B       		.uleb128 0x3b
 5689 0045 0B       		.uleb128 0xb
 5690 0046 01       		.uleb128 0x1
 5691 0047 13       		.uleb128 0x13
 5692 0048 00       		.byte	0
 5693 0049 00       		.byte	0
 5694 004a 07       		.uleb128 0x7
 5695 004b 0D       		.uleb128 0xd
 5696 004c 00       		.byte	0
 5697 004d 03       		.uleb128 0x3
 5698 004e 0E       		.uleb128 0xe
 5699 004f 3A       		.uleb128 0x3a
 5700 0050 0B       		.uleb128 0xb
 5701 0051 3B       		.uleb128 0x3b
 5702 0052 0B       		.uleb128 0xb
 5703 0053 49       		.uleb128 0x49
 5704 0054 13       		.uleb128 0x13
 5705 0055 38       		.uleb128 0x38
 5706 0056 0B       		.uleb128 0xb
 5707 0057 00       		.byte	0
 5708 0058 00       		.byte	0
 5709 0059 08       		.uleb128 0x8
 5710 005a 0D       		.uleb128 0xd
 5711 005b 00       		.byte	0
 5712 005c 03       		.uleb128 0x3
 5713 005d 08       		.uleb128 0x8
 5714 005e 3A       		.uleb128 0x3a
 5715 005f 0B       		.uleb128 0xb
 5716 0060 3B       		.uleb128 0x3b
 5717 0061 0B       		.uleb128 0xb
 5718 0062 49       		.uleb128 0x49
 5719 0063 13       		.uleb128 0x13
 5720 0064 38       		.uleb128 0x38
 5721 0065 0B       		.uleb128 0xb
 5722 0066 00       		.byte	0
 5723 0067 00       		.byte	0
 5724 0068 09       		.uleb128 0x9
 5725 0069 13       		.uleb128 0x13
 5726 006a 01       		.byte	0x1
ARM GAS  C:\Users\tmj32\AppData\Local\Temp\ccSNdAsc.s 			page 118


 5727 006b 03       		.uleb128 0x3
 5728 006c 0E       		.uleb128 0xe
 5729 006d 0B       		.uleb128 0xb
 5730 006e 0B       		.uleb128 0xb
 5731 006f 3A       		.uleb128 0x3a
 5732 0070 0B       		.uleb128 0xb
 5733 0071 3B       		.uleb128 0x3b
 5734 0072 0B       		.uleb128 0xb
 5735 0073 01       		.uleb128 0x1
 5736 0074 13       		.uleb128 0x13
 5737 0075 00       		.byte	0
 5738 0076 00       		.byte	0
 5739 0077 0A       		.uleb128 0xa
 5740 0078 0D       		.uleb128 0xd
 5741 0079 00       		.byte	0
 5742 007a 03       		.uleb128 0x3
 5743 007b 0E       		.uleb128 0xe
 5744 007c 3A       		.uleb128 0x3a
 5745 007d 0B       		.uleb128 0xb
 5746 007e 3B       		.uleb128 0x3b
 5747 007f 0B       		.uleb128 0xb
 5748 0080 49       		.uleb128 0x49
 5749 0081 13       		.uleb128 0x13
 5750 0082 0B       		.uleb128 0xb
 5751 0083 0B       		.uleb128 0xb
 5752 0084 0D       		.uleb128 0xd
 5753 0085 0B       		.uleb128 0xb
 5754 0086 0C       		.uleb128 0xc
 5755 0087 0B       		.uleb128 0xb
 5756 0088 38       		.uleb128 0x38
 5757 0089 0B       		.uleb128 0xb
 5758 008a 00       		.byte	0
 5759 008b 00       		.byte	0
 5760 008c 0B       		.uleb128 0xb
 5761 008d 15       		.uleb128 0x15
 5762 008e 01       		.byte	0x1
 5763 008f 27       		.uleb128 0x27
 5764 0090 19       		.uleb128 0x19
 5765 0091 49       		.uleb128 0x49
 5766 0092 13       		.uleb128 0x13
 5767 0093 01       		.uleb128 0x1
 5768 0094 13       		.uleb128 0x13
 5769 0095 00       		.byte	0
 5770 0096 00       		.byte	0
 5771 0097 0C       		.uleb128 0xc
 5772 0098 05       		.uleb128 0x5
 5773 0099 00       		.byte	0
 5774 009a 49       		.uleb128 0x49
 5775 009b 13       		.uleb128 0x13
 5776 009c 00       		.byte	0
 5777 009d 00       		.byte	0
 5778 009e 0D       		.uleb128 0xd
 5779 009f 0F       		.uleb128 0xf
 5780 00a0 00       		.byte	0
 5781 00a1 0B       		.uleb128 0xb
 5782 00a2 0B       		.uleb128 0xb
 5783 00a3 49       		.uleb128 0x49
ARM GAS  C:\Users\tmj32\AppData\Local\Temp\ccSNdAsc.s 			page 119


 5784 00a4 13       		.uleb128 0x13
 5785 00a5 00       		.byte	0
 5786 00a6 00       		.byte	0
 5787 00a7 0E       		.uleb128 0xe
 5788 00a8 26       		.uleb128 0x26
 5789 00a9 00       		.byte	0
 5790 00aa 49       		.uleb128 0x49
 5791 00ab 13       		.uleb128 0x13
 5792 00ac 00       		.byte	0
 5793 00ad 00       		.byte	0
 5794 00ae 0F       		.uleb128 0xf
 5795 00af 17       		.uleb128 0x17
 5796 00b0 01       		.byte	0x1
 5797 00b1 0B       		.uleb128 0xb
 5798 00b2 0B       		.uleb128 0xb
 5799 00b3 3A       		.uleb128 0x3a
 5800 00b4 0B       		.uleb128 0xb
 5801 00b5 3B       		.uleb128 0x3b
 5802 00b6 0B       		.uleb128 0xb
 5803 00b7 01       		.uleb128 0x1
 5804 00b8 13       		.uleb128 0x13
 5805 00b9 00       		.byte	0
 5806 00ba 00       		.byte	0
 5807 00bb 10       		.uleb128 0x10
 5808 00bc 0D       		.uleb128 0xd
 5809 00bd 00       		.byte	0
 5810 00be 03       		.uleb128 0x3
 5811 00bf 08       		.uleb128 0x8
 5812 00c0 3A       		.uleb128 0x3a
 5813 00c1 0B       		.uleb128 0xb
 5814 00c2 3B       		.uleb128 0x3b
 5815 00c3 0B       		.uleb128 0xb
 5816 00c4 49       		.uleb128 0x49
 5817 00c5 13       		.uleb128 0x13
 5818 00c6 00       		.byte	0
 5819 00c7 00       		.byte	0
 5820 00c8 11       		.uleb128 0x11
 5821 00c9 0D       		.uleb128 0xd
 5822 00ca 00       		.byte	0
 5823 00cb 03       		.uleb128 0x3
 5824 00cc 0E       		.uleb128 0xe
 5825 00cd 3A       		.uleb128 0x3a
 5826 00ce 0B       		.uleb128 0xb
 5827 00cf 3B       		.uleb128 0x3b
 5828 00d0 0B       		.uleb128 0xb
 5829 00d1 49       		.uleb128 0x49
 5830 00d2 13       		.uleb128 0x13
 5831 00d3 00       		.byte	0
 5832 00d4 00       		.byte	0
 5833 00d5 12       		.uleb128 0x12
 5834 00d6 16       		.uleb128 0x16
 5835 00d7 00       		.byte	0
 5836 00d8 03       		.uleb128 0x3
 5837 00d9 0E       		.uleb128 0xe
 5838 00da 3A       		.uleb128 0x3a
 5839 00db 0B       		.uleb128 0xb
 5840 00dc 3B       		.uleb128 0x3b
ARM GAS  C:\Users\tmj32\AppData\Local\Temp\ccSNdAsc.s 			page 120


 5841 00dd 05       		.uleb128 0x5
 5842 00de 49       		.uleb128 0x49
 5843 00df 13       		.uleb128 0x13
 5844 00e0 00       		.byte	0
 5845 00e1 00       		.byte	0
 5846 00e2 13       		.uleb128 0x13
 5847 00e3 15       		.uleb128 0x15
 5848 00e4 01       		.byte	0x1
 5849 00e5 27       		.uleb128 0x27
 5850 00e6 19       		.uleb128 0x19
 5851 00e7 01       		.uleb128 0x1
 5852 00e8 13       		.uleb128 0x13
 5853 00e9 00       		.byte	0
 5854 00ea 00       		.byte	0
 5855 00eb 14       		.uleb128 0x14
 5856 00ec 04       		.uleb128 0x4
 5857 00ed 01       		.byte	0x1
 5858 00ee 0B       		.uleb128 0xb
 5859 00ef 0B       		.uleb128 0xb
 5860 00f0 49       		.uleb128 0x49
 5861 00f1 13       		.uleb128 0x13
 5862 00f2 3A       		.uleb128 0x3a
 5863 00f3 0B       		.uleb128 0xb
 5864 00f4 3B       		.uleb128 0x3b
 5865 00f5 0B       		.uleb128 0xb
 5866 00f6 01       		.uleb128 0x1
 5867 00f7 13       		.uleb128 0x13
 5868 00f8 00       		.byte	0
 5869 00f9 00       		.byte	0
 5870 00fa 15       		.uleb128 0x15
 5871 00fb 28       		.uleb128 0x28
 5872 00fc 00       		.byte	0
 5873 00fd 03       		.uleb128 0x3
 5874 00fe 0E       		.uleb128 0xe
 5875 00ff 1C       		.uleb128 0x1c
 5876 0100 0B       		.uleb128 0xb
 5877 0101 00       		.byte	0
 5878 0102 00       		.byte	0
 5879 0103 16       		.uleb128 0x16
 5880 0104 0D       		.uleb128 0xd
 5881 0105 00       		.byte	0
 5882 0106 03       		.uleb128 0x3
 5883 0107 08       		.uleb128 0x8
 5884 0108 3A       		.uleb128 0x3a
 5885 0109 0B       		.uleb128 0xb
 5886 010a 3B       		.uleb128 0x3b
 5887 010b 0B       		.uleb128 0xb
 5888 010c 49       		.uleb128 0x49
 5889 010d 13       		.uleb128 0x13
 5890 010e 0B       		.uleb128 0xb
 5891 010f 0B       		.uleb128 0xb
 5892 0110 0D       		.uleb128 0xd
 5893 0111 0B       		.uleb128 0xb
 5894 0112 0C       		.uleb128 0xc
 5895 0113 0B       		.uleb128 0xb
 5896 0114 38       		.uleb128 0x38
 5897 0115 0B       		.uleb128 0xb
ARM GAS  C:\Users\tmj32\AppData\Local\Temp\ccSNdAsc.s 			page 121


 5898 0116 00       		.byte	0
 5899 0117 00       		.byte	0
 5900 0118 17       		.uleb128 0x17
 5901 0119 28       		.uleb128 0x28
 5902 011a 00       		.byte	0
 5903 011b 03       		.uleb128 0x3
 5904 011c 0E       		.uleb128 0xe
 5905 011d 1C       		.uleb128 0x1c
 5906 011e 05       		.uleb128 0x5
 5907 011f 00       		.byte	0
 5908 0120 00       		.byte	0
 5909 0121 18       		.uleb128 0x18
 5910 0122 0D       		.uleb128 0xd
 5911 0123 00       		.byte	0
 5912 0124 03       		.uleb128 0x3
 5913 0125 08       		.uleb128 0x8
 5914 0126 3A       		.uleb128 0x3a
 5915 0127 0B       		.uleb128 0xb
 5916 0128 3B       		.uleb128 0x3b
 5917 0129 05       		.uleb128 0x5
 5918 012a 49       		.uleb128 0x49
 5919 012b 13       		.uleb128 0x13
 5920 012c 38       		.uleb128 0x38
 5921 012d 0B       		.uleb128 0xb
 5922 012e 00       		.byte	0
 5923 012f 00       		.byte	0
 5924 0130 19       		.uleb128 0x19
 5925 0131 0D       		.uleb128 0xd
 5926 0132 00       		.byte	0
 5927 0133 03       		.uleb128 0x3
 5928 0134 0E       		.uleb128 0xe
 5929 0135 3A       		.uleb128 0x3a
 5930 0136 0B       		.uleb128 0xb
 5931 0137 3B       		.uleb128 0x3b
 5932 0138 05       		.uleb128 0x5
 5933 0139 49       		.uleb128 0x49
 5934 013a 13       		.uleb128 0x13
 5935 013b 38       		.uleb128 0x38
 5936 013c 0B       		.uleb128 0xb
 5937 013d 00       		.byte	0
 5938 013e 00       		.byte	0
 5939 013f 1A       		.uleb128 0x1a
 5940 0140 13       		.uleb128 0x13
 5941 0141 01       		.byte	0x1
 5942 0142 0B       		.uleb128 0xb
 5943 0143 0B       		.uleb128 0xb
 5944 0144 3A       		.uleb128 0x3a
 5945 0145 0B       		.uleb128 0xb
 5946 0146 3B       		.uleb128 0x3b
 5947 0147 05       		.uleb128 0x5
 5948 0148 01       		.uleb128 0x1
 5949 0149 13       		.uleb128 0x13
 5950 014a 00       		.byte	0
 5951 014b 00       		.byte	0
 5952 014c 1B       		.uleb128 0x1b
 5953 014d 13       		.uleb128 0x13
 5954 014e 01       		.byte	0x1
ARM GAS  C:\Users\tmj32\AppData\Local\Temp\ccSNdAsc.s 			page 122


 5955 014f 0B       		.uleb128 0xb
 5956 0150 05       		.uleb128 0x5
 5957 0151 3A       		.uleb128 0x3a
 5958 0152 0B       		.uleb128 0xb
 5959 0153 3B       		.uleb128 0x3b
 5960 0154 0B       		.uleb128 0xb
 5961 0155 01       		.uleb128 0x1
 5962 0156 13       		.uleb128 0x13
 5963 0157 00       		.byte	0
 5964 0158 00       		.byte	0
 5965 0159 1C       		.uleb128 0x1c
 5966 015a 0D       		.uleb128 0xd
 5967 015b 00       		.byte	0
 5968 015c 03       		.uleb128 0x3
 5969 015d 0E       		.uleb128 0xe
 5970 015e 3A       		.uleb128 0x3a
 5971 015f 0B       		.uleb128 0xb
 5972 0160 3B       		.uleb128 0x3b
 5973 0161 0B       		.uleb128 0xb
 5974 0162 49       		.uleb128 0x49
 5975 0163 13       		.uleb128 0x13
 5976 0164 38       		.uleb128 0x38
 5977 0165 05       		.uleb128 0x5
 5978 0166 00       		.byte	0
 5979 0167 00       		.byte	0
 5980 0168 1D       		.uleb128 0x1d
 5981 0169 0D       		.uleb128 0xd
 5982 016a 00       		.byte	0
 5983 016b 03       		.uleb128 0x3
 5984 016c 08       		.uleb128 0x8
 5985 016d 3A       		.uleb128 0x3a
 5986 016e 0B       		.uleb128 0xb
 5987 016f 3B       		.uleb128 0x3b
 5988 0170 0B       		.uleb128 0xb
 5989 0171 49       		.uleb128 0x49
 5990 0172 13       		.uleb128 0x13
 5991 0173 38       		.uleb128 0x38
 5992 0174 05       		.uleb128 0x5
 5993 0175 00       		.byte	0
 5994 0176 00       		.byte	0
 5995 0177 1E       		.uleb128 0x1e
 5996 0178 0D       		.uleb128 0xd
 5997 0179 00       		.byte	0
 5998 017a 03       		.uleb128 0x3
 5999 017b 0E       		.uleb128 0xe
 6000 017c 3A       		.uleb128 0x3a
 6001 017d 0B       		.uleb128 0xb
 6002 017e 3B       		.uleb128 0x3b
 6003 017f 05       		.uleb128 0x5
 6004 0180 49       		.uleb128 0x49
 6005 0181 13       		.uleb128 0x13
 6006 0182 38       		.uleb128 0x38
 6007 0183 05       		.uleb128 0x5
 6008 0184 00       		.byte	0
 6009 0185 00       		.byte	0
 6010 0186 1F       		.uleb128 0x1f
 6011 0187 0D       		.uleb128 0xd
ARM GAS  C:\Users\tmj32\AppData\Local\Temp\ccSNdAsc.s 			page 123


 6012 0188 00       		.byte	0
 6013 0189 03       		.uleb128 0x3
 6014 018a 08       		.uleb128 0x8
 6015 018b 3A       		.uleb128 0x3a
 6016 018c 0B       		.uleb128 0xb
 6017 018d 3B       		.uleb128 0x3b
 6018 018e 05       		.uleb128 0x5
 6019 018f 49       		.uleb128 0x49
 6020 0190 13       		.uleb128 0x13
 6021 0191 38       		.uleb128 0x38
 6022 0192 05       		.uleb128 0x5
 6023 0193 00       		.byte	0
 6024 0194 00       		.byte	0
 6025 0195 20       		.uleb128 0x20
 6026 0196 2E       		.uleb128 0x2e
 6027 0197 01       		.byte	0x1
 6028 0198 03       		.uleb128 0x3
 6029 0199 0E       		.uleb128 0xe
 6030 019a 3A       		.uleb128 0x3a
 6031 019b 0B       		.uleb128 0xb
 6032 019c 3B       		.uleb128 0x3b
 6033 019d 0B       		.uleb128 0xb
 6034 019e 27       		.uleb128 0x27
 6035 019f 19       		.uleb128 0x19
 6036 01a0 49       		.uleb128 0x49
 6037 01a1 13       		.uleb128 0x13
 6038 01a2 11       		.uleb128 0x11
 6039 01a3 01       		.uleb128 0x1
 6040 01a4 12       		.uleb128 0x12
 6041 01a5 06       		.uleb128 0x6
 6042 01a6 40       		.uleb128 0x40
 6043 01a7 18       		.uleb128 0x18
 6044 01a8 9742     		.uleb128 0x2117
 6045 01aa 19       		.uleb128 0x19
 6046 01ab 01       		.uleb128 0x1
 6047 01ac 13       		.uleb128 0x13
 6048 01ad 00       		.byte	0
 6049 01ae 00       		.byte	0
 6050 01af 21       		.uleb128 0x21
 6051 01b0 05       		.uleb128 0x5
 6052 01b1 00       		.byte	0
 6053 01b2 03       		.uleb128 0x3
 6054 01b3 0E       		.uleb128 0xe
 6055 01b4 3A       		.uleb128 0x3a
 6056 01b5 0B       		.uleb128 0xb
 6057 01b6 3B       		.uleb128 0x3b
 6058 01b7 0B       		.uleb128 0xb
 6059 01b8 49       		.uleb128 0x49
 6060 01b9 13       		.uleb128 0x13
 6061 01ba 02       		.uleb128 0x2
 6062 01bb 18       		.uleb128 0x18
 6063 01bc 00       		.byte	0
 6064 01bd 00       		.byte	0
 6065 01be 22       		.uleb128 0x22
 6066 01bf 2E       		.uleb128 0x2e
 6067 01c0 01       		.byte	0x1
 6068 01c1 03       		.uleb128 0x3
ARM GAS  C:\Users\tmj32\AppData\Local\Temp\ccSNdAsc.s 			page 124


 6069 01c2 0E       		.uleb128 0xe
 6070 01c3 3A       		.uleb128 0x3a
 6071 01c4 0B       		.uleb128 0xb
 6072 01c5 3B       		.uleb128 0x3b
 6073 01c6 0B       		.uleb128 0xb
 6074 01c7 27       		.uleb128 0x27
 6075 01c8 19       		.uleb128 0x19
 6076 01c9 11       		.uleb128 0x11
 6077 01ca 01       		.uleb128 0x1
 6078 01cb 12       		.uleb128 0x12
 6079 01cc 06       		.uleb128 0x6
 6080 01cd 40       		.uleb128 0x40
 6081 01ce 18       		.uleb128 0x18
 6082 01cf 9642     		.uleb128 0x2116
 6083 01d1 19       		.uleb128 0x19
 6084 01d2 01       		.uleb128 0x1
 6085 01d3 13       		.uleb128 0x13
 6086 01d4 00       		.byte	0
 6087 01d5 00       		.byte	0
 6088 01d6 23       		.uleb128 0x23
 6089 01d7 05       		.uleb128 0x5
 6090 01d8 00       		.byte	0
 6091 01d9 03       		.uleb128 0x3
 6092 01da 08       		.uleb128 0x8
 6093 01db 3A       		.uleb128 0x3a
 6094 01dc 0B       		.uleb128 0xb
 6095 01dd 3B       		.uleb128 0x3b
 6096 01de 0B       		.uleb128 0xb
 6097 01df 49       		.uleb128 0x49
 6098 01e0 13       		.uleb128 0x13
 6099 01e1 02       		.uleb128 0x2
 6100 01e2 18       		.uleb128 0x18
 6101 01e3 00       		.byte	0
 6102 01e4 00       		.byte	0
 6103 01e5 24       		.uleb128 0x24
 6104 01e6 2E       		.uleb128 0x2e
 6105 01e7 01       		.byte	0x1
 6106 01e8 3F       		.uleb128 0x3f
 6107 01e9 19       		.uleb128 0x19
 6108 01ea 03       		.uleb128 0x3
 6109 01eb 0E       		.uleb128 0xe
 6110 01ec 3A       		.uleb128 0x3a
 6111 01ed 0B       		.uleb128 0xb
 6112 01ee 3B       		.uleb128 0x3b
 6113 01ef 0B       		.uleb128 0xb
 6114 01f0 27       		.uleb128 0x27
 6115 01f1 19       		.uleb128 0x19
 6116 01f2 49       		.uleb128 0x49
 6117 01f3 13       		.uleb128 0x13
 6118 01f4 11       		.uleb128 0x11
 6119 01f5 01       		.uleb128 0x1
 6120 01f6 12       		.uleb128 0x12
 6121 01f7 06       		.uleb128 0x6
 6122 01f8 40       		.uleb128 0x40
 6123 01f9 18       		.uleb128 0x18
 6124 01fa 9642     		.uleb128 0x2116
 6125 01fc 19       		.uleb128 0x19
ARM GAS  C:\Users\tmj32\AppData\Local\Temp\ccSNdAsc.s 			page 125


 6126 01fd 01       		.uleb128 0x1
 6127 01fe 13       		.uleb128 0x13
 6128 01ff 00       		.byte	0
 6129 0200 00       		.byte	0
 6130 0201 25       		.uleb128 0x25
 6131 0202 34       		.uleb128 0x34
 6132 0203 00       		.byte	0
 6133 0204 03       		.uleb128 0x3
 6134 0205 0E       		.uleb128 0xe
 6135 0206 3A       		.uleb128 0x3a
 6136 0207 0B       		.uleb128 0xb
 6137 0208 3B       		.uleb128 0x3b
 6138 0209 0B       		.uleb128 0xb
 6139 020a 49       		.uleb128 0x49
 6140 020b 13       		.uleb128 0x13
 6141 020c 02       		.uleb128 0x2
 6142 020d 18       		.uleb128 0x18
 6143 020e 00       		.byte	0
 6144 020f 00       		.byte	0
 6145 0210 26       		.uleb128 0x26
 6146 0211 34       		.uleb128 0x34
 6147 0212 00       		.byte	0
 6148 0213 03       		.uleb128 0x3
 6149 0214 08       		.uleb128 0x8
 6150 0215 3A       		.uleb128 0x3a
 6151 0216 0B       		.uleb128 0xb
 6152 0217 3B       		.uleb128 0x3b
 6153 0218 0B       		.uleb128 0xb
 6154 0219 49       		.uleb128 0x49
 6155 021a 13       		.uleb128 0x13
 6156 021b 02       		.uleb128 0x2
 6157 021c 18       		.uleb128 0x18
 6158 021d 00       		.byte	0
 6159 021e 00       		.byte	0
 6160 021f 27       		.uleb128 0x27
 6161 0220 0B       		.uleb128 0xb
 6162 0221 01       		.byte	0x1
 6163 0222 11       		.uleb128 0x11
 6164 0223 01       		.uleb128 0x1
 6165 0224 12       		.uleb128 0x12
 6166 0225 06       		.uleb128 0x6
 6167 0226 01       		.uleb128 0x1
 6168 0227 13       		.uleb128 0x13
 6169 0228 00       		.byte	0
 6170 0229 00       		.byte	0
 6171 022a 28       		.uleb128 0x28
 6172 022b 0B       		.uleb128 0xb
 6173 022c 01       		.byte	0x1
 6174 022d 11       		.uleb128 0x11
 6175 022e 01       		.uleb128 0x1
 6176 022f 12       		.uleb128 0x12
 6177 0230 06       		.uleb128 0x6
 6178 0231 00       		.byte	0
 6179 0232 00       		.byte	0
 6180 0233 29       		.uleb128 0x29
 6181 0234 2E       		.uleb128 0x2e
 6182 0235 01       		.byte	0x1
ARM GAS  C:\Users\tmj32\AppData\Local\Temp\ccSNdAsc.s 			page 126


 6183 0236 3F       		.uleb128 0x3f
 6184 0237 19       		.uleb128 0x19
 6185 0238 03       		.uleb128 0x3
 6186 0239 0E       		.uleb128 0xe
 6187 023a 3A       		.uleb128 0x3a
 6188 023b 0B       		.uleb128 0xb
 6189 023c 3B       		.uleb128 0x3b
 6190 023d 0B       		.uleb128 0xb
 6191 023e 27       		.uleb128 0x27
 6192 023f 19       		.uleb128 0x19
 6193 0240 11       		.uleb128 0x11
 6194 0241 01       		.uleb128 0x1
 6195 0242 12       		.uleb128 0x12
 6196 0243 06       		.uleb128 0x6
 6197 0244 40       		.uleb128 0x40
 6198 0245 18       		.uleb128 0x18
 6199 0246 9642     		.uleb128 0x2116
 6200 0248 19       		.uleb128 0x19
 6201 0249 01       		.uleb128 0x1
 6202 024a 13       		.uleb128 0x13
 6203 024b 00       		.byte	0
 6204 024c 00       		.byte	0
 6205 024d 2A       		.uleb128 0x2a
 6206 024e 2E       		.uleb128 0x2e
 6207 024f 01       		.byte	0x1
 6208 0250 3F       		.uleb128 0x3f
 6209 0251 19       		.uleb128 0x19
 6210 0252 03       		.uleb128 0x3
 6211 0253 0E       		.uleb128 0xe
 6212 0254 3A       		.uleb128 0x3a
 6213 0255 0B       		.uleb128 0xb
 6214 0256 3B       		.uleb128 0x3b
 6215 0257 05       		.uleb128 0x5
 6216 0258 27       		.uleb128 0x27
 6217 0259 19       		.uleb128 0x19
 6218 025a 11       		.uleb128 0x11
 6219 025b 01       		.uleb128 0x1
 6220 025c 12       		.uleb128 0x12
 6221 025d 06       		.uleb128 0x6
 6222 025e 40       		.uleb128 0x40
 6223 025f 18       		.uleb128 0x18
 6224 0260 9642     		.uleb128 0x2116
 6225 0262 19       		.uleb128 0x19
 6226 0263 01       		.uleb128 0x1
 6227 0264 13       		.uleb128 0x13
 6228 0265 00       		.byte	0
 6229 0266 00       		.byte	0
 6230 0267 2B       		.uleb128 0x2b
 6231 0268 05       		.uleb128 0x5
 6232 0269 00       		.byte	0
 6233 026a 03       		.uleb128 0x3
 6234 026b 0E       		.uleb128 0xe
 6235 026c 3A       		.uleb128 0x3a
 6236 026d 0B       		.uleb128 0xb
 6237 026e 3B       		.uleb128 0x3b
 6238 026f 05       		.uleb128 0x5
 6239 0270 49       		.uleb128 0x49
ARM GAS  C:\Users\tmj32\AppData\Local\Temp\ccSNdAsc.s 			page 127


 6240 0271 13       		.uleb128 0x13
 6241 0272 02       		.uleb128 0x2
 6242 0273 18       		.uleb128 0x18
 6243 0274 00       		.byte	0
 6244 0275 00       		.byte	0
 6245 0276 2C       		.uleb128 0x2c
 6246 0277 34       		.uleb128 0x34
 6247 0278 00       		.byte	0
 6248 0279 03       		.uleb128 0x3
 6249 027a 08       		.uleb128 0x8
 6250 027b 3A       		.uleb128 0x3a
 6251 027c 0B       		.uleb128 0xb
 6252 027d 3B       		.uleb128 0x3b
 6253 027e 05       		.uleb128 0x5
 6254 027f 49       		.uleb128 0x49
 6255 0280 13       		.uleb128 0x13
 6256 0281 02       		.uleb128 0x2
 6257 0282 18       		.uleb128 0x18
 6258 0283 00       		.byte	0
 6259 0284 00       		.byte	0
 6260 0285 2D       		.uleb128 0x2d
 6261 0286 05       		.uleb128 0x5
 6262 0287 00       		.byte	0
 6263 0288 03       		.uleb128 0x3
 6264 0289 08       		.uleb128 0x8
 6265 028a 3A       		.uleb128 0x3a
 6266 028b 0B       		.uleb128 0xb
 6267 028c 3B       		.uleb128 0x3b
 6268 028d 05       		.uleb128 0x5
 6269 028e 49       		.uleb128 0x49
 6270 028f 13       		.uleb128 0x13
 6271 0290 02       		.uleb128 0x2
 6272 0291 18       		.uleb128 0x18
 6273 0292 00       		.byte	0
 6274 0293 00       		.byte	0
 6275 0294 2E       		.uleb128 0x2e
 6276 0295 2E       		.uleb128 0x2e
 6277 0296 01       		.byte	0x1
 6278 0297 3F       		.uleb128 0x3f
 6279 0298 19       		.uleb128 0x19
 6280 0299 03       		.uleb128 0x3
 6281 029a 0E       		.uleb128 0xe
 6282 029b 3A       		.uleb128 0x3a
 6283 029c 0B       		.uleb128 0xb
 6284 029d 3B       		.uleb128 0x3b
 6285 029e 05       		.uleb128 0x5
 6286 029f 27       		.uleb128 0x27
 6287 02a0 19       		.uleb128 0x19
 6288 02a1 49       		.uleb128 0x49
 6289 02a2 13       		.uleb128 0x13
 6290 02a3 11       		.uleb128 0x11
 6291 02a4 01       		.uleb128 0x1
 6292 02a5 12       		.uleb128 0x12
 6293 02a6 06       		.uleb128 0x6
 6294 02a7 40       		.uleb128 0x40
 6295 02a8 18       		.uleb128 0x18
 6296 02a9 9642     		.uleb128 0x2116
ARM GAS  C:\Users\tmj32\AppData\Local\Temp\ccSNdAsc.s 			page 128


 6297 02ab 19       		.uleb128 0x19
 6298 02ac 01       		.uleb128 0x1
 6299 02ad 13       		.uleb128 0x13
 6300 02ae 00       		.byte	0
 6301 02af 00       		.byte	0
 6302 02b0 2F       		.uleb128 0x2f
 6303 02b1 34       		.uleb128 0x34
 6304 02b2 00       		.byte	0
 6305 02b3 03       		.uleb128 0x3
 6306 02b4 0E       		.uleb128 0xe
 6307 02b5 3A       		.uleb128 0x3a
 6308 02b6 0B       		.uleb128 0xb
 6309 02b7 3B       		.uleb128 0x3b
 6310 02b8 05       		.uleb128 0x5
 6311 02b9 49       		.uleb128 0x49
 6312 02ba 13       		.uleb128 0x13
 6313 02bb 02       		.uleb128 0x2
 6314 02bc 18       		.uleb128 0x18
 6315 02bd 00       		.byte	0
 6316 02be 00       		.byte	0
 6317 02bf 30       		.uleb128 0x30
 6318 02c0 2E       		.uleb128 0x2e
 6319 02c1 01       		.byte	0x1
 6320 02c2 03       		.uleb128 0x3
 6321 02c3 0E       		.uleb128 0xe
 6322 02c4 3A       		.uleb128 0x3a
 6323 02c5 0B       		.uleb128 0xb
 6324 02c6 3B       		.uleb128 0x3b
 6325 02c7 05       		.uleb128 0x5
 6326 02c8 27       		.uleb128 0x27
 6327 02c9 19       		.uleb128 0x19
 6328 02ca 49       		.uleb128 0x49
 6329 02cb 13       		.uleb128 0x13
 6330 02cc 11       		.uleb128 0x11
 6331 02cd 01       		.uleb128 0x1
 6332 02ce 12       		.uleb128 0x12
 6333 02cf 06       		.uleb128 0x6
 6334 02d0 40       		.uleb128 0x40
 6335 02d1 18       		.uleb128 0x18
 6336 02d2 9642     		.uleb128 0x2116
 6337 02d4 19       		.uleb128 0x19
 6338 02d5 01       		.uleb128 0x1
 6339 02d6 13       		.uleb128 0x13
 6340 02d7 00       		.byte	0
 6341 02d8 00       		.byte	0
 6342 02d9 31       		.uleb128 0x31
 6343 02da 2E       		.uleb128 0x2e
 6344 02db 01       		.byte	0x1
 6345 02dc 03       		.uleb128 0x3
 6346 02dd 0E       		.uleb128 0xe
 6347 02de 3A       		.uleb128 0x3a
 6348 02df 0B       		.uleb128 0xb
 6349 02e0 3B       		.uleb128 0x3b
 6350 02e1 05       		.uleb128 0x5
 6351 02e2 27       		.uleb128 0x27
 6352 02e3 19       		.uleb128 0x19
 6353 02e4 11       		.uleb128 0x11
ARM GAS  C:\Users\tmj32\AppData\Local\Temp\ccSNdAsc.s 			page 129


 6354 02e5 01       		.uleb128 0x1
 6355 02e6 12       		.uleb128 0x12
 6356 02e7 06       		.uleb128 0x6
 6357 02e8 40       		.uleb128 0x40
 6358 02e9 18       		.uleb128 0x18
 6359 02ea 9642     		.uleb128 0x2116
 6360 02ec 19       		.uleb128 0x19
 6361 02ed 01       		.uleb128 0x1
 6362 02ee 13       		.uleb128 0x13
 6363 02ef 00       		.byte	0
 6364 02f0 00       		.byte	0
 6365 02f1 32       		.uleb128 0x32
 6366 02f2 34       		.uleb128 0x34
 6367 02f3 00       		.byte	0
 6368 02f4 03       		.uleb128 0x3
 6369 02f5 0E       		.uleb128 0xe
 6370 02f6 3A       		.uleb128 0x3a
 6371 02f7 0B       		.uleb128 0xb
 6372 02f8 3B       		.uleb128 0x3b
 6373 02f9 05       		.uleb128 0x5
 6374 02fa 49       		.uleb128 0x49
 6375 02fb 13       		.uleb128 0x13
 6376 02fc 3F       		.uleb128 0x3f
 6377 02fd 19       		.uleb128 0x19
 6378 02fe 3C       		.uleb128 0x3c
 6379 02ff 19       		.uleb128 0x19
 6380 0300 00       		.byte	0
 6381 0301 00       		.byte	0
 6382 0302 00       		.byte	0
 6383              		.section	.debug_aranges,"",%progbits
 6384 0000 D4000000 		.4byte	0xd4
 6385 0004 0200     		.2byte	0x2
 6386 0006 00000000 		.4byte	.Ldebug_info0
 6387 000a 04       		.byte	0x4
 6388 000b 00       		.byte	0
 6389 000c 0000     		.2byte	0
 6390 000e 0000     		.2byte	0
 6391 0010 00000000 		.4byte	.LFB0
 6392 0014 18000000 		.4byte	.LFE0-.LFB0
 6393 0018 00000000 		.4byte	.LFB11
 6394 001c 2E000000 		.4byte	.LFE11-.LFB11
 6395 0020 00000000 		.4byte	.LFB31
 6396 0024 2A000000 		.4byte	.LFE31-.LFB31
 6397 0028 00000000 		.4byte	.LFB32
 6398 002c 26000000 		.4byte	.LFE32-.LFB32
 6399 0030 00000000 		.4byte	.LFB46
 6400 0034 50010000 		.4byte	.LFE46-.LFB46
 6401 0038 00000000 		.4byte	.LFB47
 6402 003c B0000000 		.4byte	.LFE47-.LFB47
 6403 0040 00000000 		.4byte	.LFB48
 6404 0044 2C000000 		.4byte	.LFE48-.LFB48
 6405 0048 00000000 		.4byte	.LFB49
 6406 004c 26000000 		.4byte	.LFE49-.LFB49
 6407 0050 00000000 		.4byte	.LFB50
 6408 0054 04010000 		.4byte	.LFE50-.LFB50
 6409 0058 00000000 		.4byte	.LFB51
 6410 005c 18000000 		.4byte	.LFE51-.LFB51
ARM GAS  C:\Users\tmj32\AppData\Local\Temp\ccSNdAsc.s 			page 130


 6411 0060 00000000 		.4byte	.LFB52
 6412 0064 B8000000 		.4byte	.LFE52-.LFB52
 6413 0068 00000000 		.4byte	.LFB53
 6414 006c 32000000 		.4byte	.LFE53-.LFB53
 6415 0070 00000000 		.4byte	.LFB54
 6416 0074 24000000 		.4byte	.LFE54-.LFB54
 6417 0078 00000000 		.4byte	.LFB55
 6418 007c 32000000 		.4byte	.LFE55-.LFB55
 6419 0080 00000000 		.4byte	.LFB56
 6420 0084 30000000 		.4byte	.LFE56-.LFB56
 6421 0088 00000000 		.4byte	.LFB57
 6422 008c 1C000000 		.4byte	.LFE57-.LFB57
 6423 0090 00000000 		.4byte	.LFB58
 6424 0094 BA000000 		.4byte	.LFE58-.LFB58
 6425 0098 00000000 		.4byte	.LFB59
 6426 009c 30000000 		.4byte	.LFE59-.LFB59
 6427 00a0 00000000 		.4byte	.LFB60
 6428 00a4 1C000000 		.4byte	.LFE60-.LFB60
 6429 00a8 00000000 		.4byte	.LFB61
 6430 00ac 18010000 		.4byte	.LFE61-.LFB61
 6431 00b0 00000000 		.4byte	.LFB62
 6432 00b4 CA000000 		.4byte	.LFE62-.LFB62
 6433 00b8 00000000 		.4byte	.LFB63
 6434 00bc 1A000000 		.4byte	.LFE63-.LFB63
 6435 00c0 00000000 		.4byte	.LFB64
 6436 00c4 3C000000 		.4byte	.LFE64-.LFB64
 6437 00c8 00000000 		.4byte	.LFB65
 6438 00cc 62000000 		.4byte	.LFE65-.LFB65
 6439 00d0 00000000 		.4byte	0
 6440 00d4 00000000 		.4byte	0
 6441              		.section	.debug_ranges,"",%progbits
 6442              	.Ldebug_ranges0:
 6443 0000 00000000 		.4byte	.LFB0
 6444 0004 18000000 		.4byte	.LFE0
 6445 0008 00000000 		.4byte	.LFB11
 6446 000c 2E000000 		.4byte	.LFE11
 6447 0010 00000000 		.4byte	.LFB31
 6448 0014 2A000000 		.4byte	.LFE31
 6449 0018 00000000 		.4byte	.LFB32
 6450 001c 26000000 		.4byte	.LFE32
 6451 0020 00000000 		.4byte	.LFB46
 6452 0024 50010000 		.4byte	.LFE46
 6453 0028 00000000 		.4byte	.LFB47
 6454 002c B0000000 		.4byte	.LFE47
 6455 0030 00000000 		.4byte	.LFB48
 6456 0034 2C000000 		.4byte	.LFE48
 6457 0038 00000000 		.4byte	.LFB49
 6458 003c 26000000 		.4byte	.LFE49
 6459 0040 00000000 		.4byte	.LFB50
 6460 0044 04010000 		.4byte	.LFE50
 6461 0048 00000000 		.4byte	.LFB51
 6462 004c 18000000 		.4byte	.LFE51
 6463 0050 00000000 		.4byte	.LFB52
 6464 0054 B8000000 		.4byte	.LFE52
 6465 0058 00000000 		.4byte	.LFB53
 6466 005c 32000000 		.4byte	.LFE53
 6467 0060 00000000 		.4byte	.LFB54
ARM GAS  C:\Users\tmj32\AppData\Local\Temp\ccSNdAsc.s 			page 131


 6468 0064 24000000 		.4byte	.LFE54
 6469 0068 00000000 		.4byte	.LFB55
 6470 006c 32000000 		.4byte	.LFE55
 6471 0070 00000000 		.4byte	.LFB56
 6472 0074 30000000 		.4byte	.LFE56
 6473 0078 00000000 		.4byte	.LFB57
 6474 007c 1C000000 		.4byte	.LFE57
 6475 0080 00000000 		.4byte	.LFB58
 6476 0084 BA000000 		.4byte	.LFE58
 6477 0088 00000000 		.4byte	.LFB59
 6478 008c 30000000 		.4byte	.LFE59
 6479 0090 00000000 		.4byte	.LFB60
 6480 0094 1C000000 		.4byte	.LFE60
 6481 0098 00000000 		.4byte	.LFB61
 6482 009c 18010000 		.4byte	.LFE61
 6483 00a0 00000000 		.4byte	.LFB62
 6484 00a4 CA000000 		.4byte	.LFE62
 6485 00a8 00000000 		.4byte	.LFB63
 6486 00ac 1A000000 		.4byte	.LFE63
 6487 00b0 00000000 		.4byte	.LFB64
 6488 00b4 3C000000 		.4byte	.LFE64
 6489 00b8 00000000 		.4byte	.LFB65
 6490 00bc 62000000 		.4byte	.LFE65
 6491 00c0 00000000 		.4byte	0
 6492 00c4 00000000 		.4byte	0
 6493              		.section	.debug_line,"",%progbits
 6494              	.Ldebug_line0:
 6495 0000 A8060000 		.section	.debug_str,"MS",%progbits,1
 6495      02009A03 
 6495      00000201 
 6495      FB0E0D00 
 6495      01010101 
 6496              	.LASF15:
 6497 0000 696E7438 		.ascii	"int8_t\000"
 6497      5F7400
 6498              	.LASF96:
 6499 0007 6C765F6C 		.ascii	"lv_ll_node_t\000"
 6499      6C5F6E6F 
 6499      64655F74 
 6499      00
 6500              	.LASF249:
 6501 0014 4C565F42 		.ascii	"LV_BTN_STATE_TGL_PR\000"
 6501      544E5F53 
 6501      54415445 
 6501      5F54474C 
 6501      5F505200 
 6502              	.LASF23:
 6503 0028 6164765F 		.ascii	"adv_w\000"
 6503      7700
 6504              	.LASF253:
 6505 002e 4C565F42 		.ascii	"LV_BTNM_CTRL_NO_REPEAT\000"
 6505      544E4D5F 
 6505      4354524C 
 6505      5F4E4F5F 
 6505      52455045 
 6506              	.LASF42:
 6507 0045 73697A65 		.ascii	"sizetype\000"
ARM GAS  C:\Users\tmj32\AppData\Local\Temp\ccSNdAsc.s 			page 132


 6507      74797065 
 6507      00
 6508              	.LASF236:
 6509 004e 4C565F4B 		.ascii	"LV_KEY_RIGHT\000"
 6509      45595F52 
 6509      49474854 
 6509      00
 6510              	.LASF52:
 6511 005b 73746172 		.ascii	"start\000"
 6511      7400
 6512              	.LASF39:
 6513 0061 6C765F63 		.ascii	"lv_color32_t\000"
 6513      6F6C6F72 
 6513      33325F74 
 6513      00
 6514              	.LASF297:
 6515 006e 63656C6C 		.ascii	"cell\000"
 6515      00
 6516              	.LASF99:
 6517 0073 7461696C 		.ascii	"tail\000"
 6517      00
 6518              	.LASF320:
 6519 0078 6C765F66 		.ascii	"lv_font_get_line_height\000"
 6519      6F6E745F 
 6519      6765745F 
 6519      6C696E65 
 6519      5F686569 
 6520              	.LASF152:
 6521 0090 4C565F53 		.ascii	"LV_SIGNAL_STYLE_CHG\000"
 6521      49474E41 
 6521      4C5F5354 
 6521      594C455F 
 6521      43484700 
 6522              	.LASF59:
 6523 00a4 72657065 		.ascii	"repeat\000"
 6523      617400
 6524              	.LASF41:
 6525 00ab 6C765F6F 		.ascii	"lv_opa_t\000"
 6525      70615F74 
 6525      00
 6526              	.LASF19:
 6527 00b4 696E7433 		.ascii	"int32_t\000"
 6527      325F7400 
 6528              	.LASF85:
 6529 00bc 696E7465 		.ascii	"intense\000"
 6529      6E736500 
 6530              	.LASF141:
 6531 00c4 4C565F45 		.ascii	"LV_EVENT_INSERT\000"
 6531      56454E54 
 6531      5F494E53 
 6531      45525400 
 6532              	.LASF304:
 6533 00d4 6C6D6574 		.ascii	"lmeter\000"
 6533      657200
 6534              	.LASF233:
 6535 00db 4C565F4C 		.ascii	"LV_LABEL_ALIGN_AUTO\000"
 6535      4142454C 
ARM GAS  C:\Users\tmj32\AppData\Local\Temp\ccSNdAsc.s 			page 133


 6535      5F414C49 
 6535      474E5F41 
 6535      55544F00 
 6536              	.LASF160:
 6537 00ef 4C565F53 		.ascii	"LV_SIGNAL_LONG_PRESS\000"
 6537      49474E41 
 6537      4C5F4C4F 
 6537      4E475F50 
 6537      52455353 
 6538              	.LASF77:
 6539 0104 72616469 		.ascii	"radius\000"
 6539      757300
 6540              	.LASF198:
 6541 010b 6C765F72 		.ascii	"lv_reailgn_t\000"
 6541      6561696C 
 6541      676E5F74 
 6541      00
 6542              	.LASF31:
 6543 0118 6C696E65 		.ascii	"line_height\000"
 6543      5F686569 
 6543      67687400 
 6544              	.LASF50:
 6545 0124 70617468 		.ascii	"path_cb\000"
 6545      5F636200 
 6546              	.LASF110:
 6547 012c 636C6963 		.ascii	"click\000"
 6547      6B00
 6548              	.LASF191:
 6549 0132 6C765F61 		.ascii	"lv_align_t\000"
 6549      6C69676E 
 6549      5F7400
 6550              	.LASF162:
 6551 013d 4C565F53 		.ascii	"LV_SIGNAL_DRAG_BEGIN\000"
 6551      49474E41 
 6551      4C5F4452 
 6551      41475F42 
 6551      4547494E 
 6552              	.LASF289:
 6553 0152 68696768 		.ascii	"highlighted_days\000"
 6553      6C696768 
 6553      7465645F 
 6553      64617973 
 6553      00
 6554              	.LASF347:
 6555 0163 7369676E 		.ascii	"sign\000"
 6555      00
 6556              	.LASF146:
 6557 0168 6C765F65 		.ascii	"lv_event_t\000"
 6557      76656E74 
 6557      5F7400
 6558              	.LASF241:
 6559 0173 4C565F4B 		.ascii	"LV_KEY_ENTER\000"
 6559      45595F45 
 6559      4E544552 
 6559      00
 6560              	.LASF267:
 6561 0180 4C565F4D 		.ascii	"LV_MBOX_STYLE_BG\000"
ARM GAS  C:\Users\tmj32\AppData\Local\Temp\ccSNdAsc.s 			page 134


 6561      424F585F 
 6561      5354594C 
 6561      455F4247 
 6561      00
 6562              	.LASF93:
 6563 0191 4C565F52 		.ascii	"LV_RES_INV\000"
 6563      45535F49 
 6563      4E5600
 6564              	.LASF189:
 6565 019c 4C565F41 		.ascii	"LV_ALIGN_OUT_RIGHT_MID\000"
 6565      4C49474E 
 6565      5F4F5554 
 6565      5F524947 
 6565      48545F4D 
 6566              	.LASF156:
 6567 01b3 4C565F53 		.ascii	"LV_SIGNAL_PRESSED\000"
 6567      49474E41 
 6567      4C5F5052 
 6567      45535345 
 6567      4400
 6568              	.LASF70:
 6569 01c5 74797065 		.ascii	"type\000"
 6569      00
 6570              	.LASF130:
 6571 01ca 4C565F45 		.ascii	"LV_EVENT_LONG_PRESSED\000"
 6571      56454E54 
 6571      5F4C4F4E 
 6571      475F5052 
 6571      45535345 
 6572              	.LASF212:
 6573 01e0 4C565F46 		.ascii	"LV_FIT_NONE\000"
 6573      49545F4E 
 6573      4F4E4500 
 6574              	.LASF334:
 6575 01ec 64656C61 		.ascii	"delay\000"
 6575      7900
 6576              	.LASF279:
 6577 01f2 6C696768 		.ascii	"light\000"
 6577      7400
 6578              	.LASF300:
 6579 01f8 636F6E74 		.ascii	"cont\000"
 6579      00
 6580              	.LASF277:
 6581 01fd 7072696D 		.ascii	"prim\000"
 6581      00
 6582              	.LASF246:
 6583 0202 4C565F42 		.ascii	"LV_BTN_STATE_REL\000"
 6583      544E5F53 
 6583      54415445 
 6583      5F52454C 
 6583      00
 6584              	.LASF307:
 6585 0213 63686172 		.ascii	"chart\000"
 6585      7400
 6586              	.LASF231:
 6587 0219 4C565F4C 		.ascii	"LV_LABEL_ALIGN_CENTER\000"
 6587      4142454C 
ARM GAS  C:\Users\tmj32\AppData\Local\Temp\ccSNdAsc.s 			page 135


 6587      5F414C49 
 6587      474E5F43 
 6587      454E5445 
 6588              	.LASF1:
 6589 022f 5F5F7569 		.ascii	"__uint8_t\000"
 6589      6E74385F 
 6589      7400
 6590              	.LASF336:
 6591 0239 6C765F6D 		.ascii	"lv_mbox_set_style\000"
 6591      626F785F 
 6591      7365745F 
 6591      7374796C 
 6591      6500
 6592              	.LASF37:
 6593 024b 616C7068 		.ascii	"alpha\000"
 6593      6100
 6594              	.LASF254:
 6595 0251 4C565F42 		.ascii	"LV_BTNM_CTRL_INACTIVE\000"
 6595      544E4D5F 
 6595      4354524C 
 6595      5F494E41 
 6595      43544956 
 6596              	.LASF342:
 6597 0267 6C765F6D 		.ascii	"lv_mbox_get_anim_time\000"
 6597      626F785F 
 6597      6765745F 
 6597      616E696D 
 6597      5F74696D 
 6598              	.LASF329:
 6599 027d 62746E5F 		.ascii	"btn_map\000"
 6599      6D617000 
 6600              	.LASF356:
 6601 0285 6C765F6D 		.ascii	"lv_mbox_default_event_cb\000"
 6601      626F785F 
 6601      64656661 
 6601      756C745F 
 6601      6576656E 
 6602              	.LASF114:
 6603 029e 68696464 		.ascii	"hidden\000"
 6603      656E00
 6604              	.LASF56:
 6605 02a5 72657065 		.ascii	"repeat_pause\000"
 6605      61745F70 
 6605      61757365 
 6605      00
 6606              	.LASF9:
 6607 02b2 6C6F6E67 		.ascii	"long int\000"
 6607      20696E74 
 6607      00
 6608              	.LASF316:
 6609 02bb 74696C65 		.ascii	"tileview\000"
 6609      76696577 
 6609      00
 6610              	.LASF257:
 6611 02c4 4C565F42 		.ascii	"LV_BTNM_CTRL_CLICK_TRIG\000"
 6611      544E4D5F 
 6611      4354524C 
ARM GAS  C:\Users\tmj32\AppData\Local\Temp\ccSNdAsc.s 			page 136


 6611      5F434C49 
 6611      434B5F54 
 6612              	.LASF175:
 6613 02dc 4C565F41 		.ascii	"LV_ALIGN_IN_BOTTOM_MID\000"
 6613      4C49474E 
 6613      5F494E5F 
 6613      424F5454 
 6613      4F4D5F4D 
 6614              	.LASF239:
 6615 02f3 4C565F4B 		.ascii	"LV_KEY_DEL\000"
 6615      45595F44 
 6615      454C00
 6616              	.LASF326:
 6617 02fe 636F7079 		.ascii	"copy\000"
 6617      00
 6618              	.LASF323:
 6619 0303 61726561 		.ascii	"area_p\000"
 6619      5F7000
 6620              	.LASF208:
 6621 030a 4C565F4C 		.ascii	"LV_LAYOUT_ROW_B\000"
 6621      41594F55 
 6621      545F524F 
 6621      575F4200 
 6622              	.LASF209:
 6623 031a 4C565F4C 		.ascii	"LV_LAYOUT_PRETTY\000"
 6623      41594F55 
 6623      545F5052 
 6623      45545459 
 6623      00
 6624              	.LASF98:
 6625 032b 68656164 		.ascii	"head\000"
 6625      00
 6626              	.LASF207:
 6627 0330 4C565F4C 		.ascii	"LV_LAYOUT_ROW_M\000"
 6627      41594F55 
 6627      545F524F 
 6627      575F4D00 
 6628              	.LASF202:
 6629 0340 4C565F4C 		.ascii	"LV_LAYOUT_CENTER\000"
 6629      41594F55 
 6629      545F4345 
 6629      4E544552 
 6629      00
 6630              	.LASF206:
 6631 0351 4C565F4C 		.ascii	"LV_LAYOUT_ROW_T\000"
 6631      41594F55 
 6631      545F524F 
 6631      575F5400 
 6632              	.LASF264:
 6633 0361 62746E6D 		.ascii	"btnm\000"
 6633      00
 6634              	.LASF340:
 6635 0366 6C765F6D 		.ascii	"lv_mbox_get_active_btn\000"
 6635      626F785F 
 6635      6765745F 
 6635      61637469 
 6635      76655F62 
ARM GAS  C:\Users\tmj32\AppData\Local\Temp\ccSNdAsc.s 			page 137


 6636              	.LASF237:
 6637 037d 4C565F4B 		.ascii	"LV_KEY_LEFT\000"
 6637      45595F4C 
 6637      45465400 
 6638              	.LASF2:
 6639 0389 7369676E 		.ascii	"signed char\000"
 6639      65642063 
 6639      68617200 
 6640              	.LASF16:
 6641 0395 75696E74 		.ascii	"uint8_t\000"
 6641      385F7400 
 6642              	.LASF292:
 6643 039d 746F6461 		.ascii	"today_box\000"
 6643      795F626F 
 6643      7800
 6644              	.LASF261:
 6645 03a7 4C565F42 		.ascii	"LV_BTNM_STYLE_BTN_TGL_REL\000"
 6645      544E4D5F 
 6645      5354594C 
 6645      455F4254 
 6645      4E5F5447 
 6646              	.LASF276:
 6647 03c1 74676C5F 		.ascii	"tgl_pr\000"
 6647      707200
 6648              	.LASF221:
 6649 03c8 6669745F 		.ascii	"fit_top\000"
 6649      746F7000 
 6650              	.LASF30:
 6651 03d0 6765745F 		.ascii	"get_glyph_bitmap\000"
 6651      676C7970 
 6651      685F6269 
 6651      746D6170 
 6651      00
 6652              	.LASF293:
 6653 03e1 7363726C 		.ascii	"scrl\000"
 6653      00
 6654              	.LASF35:
 6655 03e6 626C7565 		.ascii	"blue\000"
 6655      00
 6656              	.LASF161:
 6657 03eb 4C565F53 		.ascii	"LV_SIGNAL_LONG_PRESS_REP\000"
 6657      49474E41 
 6657      4C5F4C4F 
 6657      4E475F50 
 6657      52455353 
 6658              	.LASF271:
 6659 0404 4C565F4D 		.ascii	"LV_MBOX_STYLE_BTN_TGL_REL\000"
 6659      424F585F 
 6659      5354594C 
 6659      455F4254 
 6659      4E5F5447 
 6660              	.LASF225:
 6661 041e 4C565F4C 		.ascii	"LV_LABEL_LONG_BREAK\000"
 6661      4142454C 
 6661      5F4C4F4E 
 6661      475F4252 
 6661      45414B00 
ARM GAS  C:\Users\tmj32\AppData\Local\Temp\ccSNdAsc.s 			page 138


 6662              	.LASF3:
 6663 0432 756E7369 		.ascii	"unsigned char\000"
 6663      676E6564 
 6663      20636861 
 6663      7200
 6664              	.LASF232:
 6665 0440 4C565F4C 		.ascii	"LV_LABEL_ALIGN_RIGHT\000"
 6665      4142454C 
 6665      5F414C49 
 6665      474E5F52 
 6665      49474854 
 6666              	.LASF154:
 6667 0455 4C565F53 		.ascii	"LV_SIGNAL_REFR_EXT_DRAW_PAD\000"
 6667      49474E41 
 6667      4C5F5245 
 6667      46525F45 
 6667      58545F44 
 6668              	.LASF117:
 6669 0471 64726167 		.ascii	"drag_dir\000"
 6669      5F646972 
 6669      00
 6670              	.LASF339:
 6671 047a 6C765F6D 		.ascii	"lv_mbox_get_text\000"
 6671      626F785F 
 6671      6765745F 
 6671      74657874 
 6671      00
 6672              	.LASF352:
 6673 048b 62746E5F 		.ascii	"btn_bg_style\000"
 6673      62675F73 
 6673      74796C65 
 6673      00
 6674              	.LASF285:
 6675 0498 6B6E6F62 		.ascii	"knob_on\000"
 6675      5F6F6E00 
 6676              	.LASF26:
 6677 04a0 6F66735F 		.ascii	"ofs_x\000"
 6677      7800
 6678              	.LASF27:
 6679 04a6 6F66735F 		.ascii	"ofs_y\000"
 6679      7900
 6680              	.LASF240:
 6681 04ac 4C565F4B 		.ascii	"LV_KEY_BACKSPACE\000"
 6681      45595F42 
 6681      41434B53 
 6681      50414345 
 6681      00
 6682              	.LASF286:
 6683 04bd 68656164 		.ascii	"header\000"
 6683      657200
 6684              	.LASF33:
 6685 04c4 5F426F6F 		.ascii	"_Bool\000"
 6685      6C00
 6686              	.LASF169:
 6687 04ca 6C765F73 		.ascii	"lv_signal_cb_t\000"
 6687      69676E61 
 6687      6C5F6362 
ARM GAS  C:\Users\tmj32\AppData\Local\Temp\ccSNdAsc.s 			page 139


 6687      5F7400
 6688              	.LASF317:
 6689 04d9 7461626C 		.ascii	"table\000"
 6689      6500
 6690              	.LASF43:
 6691 04df 63686172 		.ascii	"char\000"
 6691      00
 6692              	.LASF350:
 6693 04e4 62746E5F 		.ascii	"btn_id\000"
 6693      696400
 6694              	.LASF46:
 6695 04eb 6C765F61 		.ascii	"lv_anim_exec_xcb_t\000"
 6695      6E696D5F 
 6695      65786563 
 6695      5F786362 
 6695      5F7400
 6696              	.LASF211:
 6697 04fe 5F4C565F 		.ascii	"_LV_LAYOUT_NUM\000"
 6697      4C41594F 
 6697      55545F4E 
 6697      554D00
 6698              	.LASF88:
 6699 050d 626F6479 		.ascii	"body\000"
 6699      00
 6700              	.LASF265:
 6701 0512 616E696D 		.ascii	"anim_time\000"
 6701      5F74696D 
 6701      6500
 6702              	.LASF194:
 6703 051c 796F6673 		.ascii	"yofs\000"
 6703      00
 6704              	.LASF6:
 6705 0521 5F5F7569 		.ascii	"__uint16_t\000"
 6705      6E743136 
 6705      5F7400
 6706              	.LASF291:
 6707 052c 7765656B 		.ascii	"week_box\000"
 6707      5F626F78 
 6707      00
 6708              	.LASF203:
 6709 0535 4C565F4C 		.ascii	"LV_LAYOUT_COL_L\000"
 6709      41594F55 
 6709      545F434F 
 6709      4C5F4C00 
 6710              	.LASF204:
 6711 0545 4C565F4C 		.ascii	"LV_LAYOUT_COL_M\000"
 6711      41594F55 
 6711      545F434F 
 6711      4C5F4D00 
 6712              	.LASF228:
 6713 0555 4C565F4C 		.ascii	"LV_LABEL_LONG_SROLL_CIRC\000"
 6713      4142454C 
 6713      5F4C4F4E 
 6713      475F5352 
 6713      4F4C4C5F 
 6714              	.LASF205:
 6715 056e 4C565F4C 		.ascii	"LV_LAYOUT_COL_R\000"
ARM GAS  C:\Users\tmj32\AppData\Local\Temp\ccSNdAsc.s 			page 140


 6715      41594F55 
 6715      545F434F 
 6715      4C5F5200 
 6716              	.LASF186:
 6717 057e 4C565F41 		.ascii	"LV_ALIGN_OUT_LEFT_MID\000"
 6717      4C49474E 
 6717      5F4F5554 
 6717      5F4C4546 
 6717      545F4D49 
 6718              	.LASF45:
 6719 0594 6C765F61 		.ascii	"lv_anim_value_t\000"
 6719      6E696D5F 
 6719      76616C75 
 6719      655F7400 
 6720              	.LASF107:
 6721 05a4 64657369 		.ascii	"design_cb\000"
 6721      676E5F63 
 6721      6200
 6722              	.LASF259:
 6723 05ae 4C565F42 		.ascii	"LV_BTNM_STYLE_BTN_REL\000"
 6723      544E4D5F 
 6723      5354594C 
 6723      455F4254 
 6723      4E5F5245 
 6724              	.LASF258:
 6725 05c4 4C565F42 		.ascii	"LV_BTNM_STYLE_BG\000"
 6725      544E4D5F 
 6725      5354594C 
 6725      455F4247 
 6725      00
 6726              	.LASF165:
 6727 05d5 4C565F53 		.ascii	"LV_SIGNAL_DEFOCUS\000"
 6727      49474E41 
 6727      4C5F4445 
 6727      464F4355 
 6727      5300
 6728              	.LASF138:
 6729 05e7 4C565F45 		.ascii	"LV_EVENT_FOCUSED\000"
 6729      56454E54 
 6729      5F464F43 
 6729      55534544 
 6729      00
 6730              	.LASF313:
 6731 05f8 64646C69 		.ascii	"ddlist\000"
 6731      737400
 6732              	.LASF51:
 6733 05ff 72656164 		.ascii	"ready_cb\000"
 6733      795F6362 
 6733      00
 6734              	.LASF89:
 6735 0608 74657874 		.ascii	"text\000"
 6735      00
 6736              	.LASF324:
 6737 060d 6C765F63 		.ascii	"lv_cont_set_fit2\000"
 6737      6F6E745F 
 6737      7365745F 
 6737      66697432 
ARM GAS  C:\Users\tmj32\AppData\Local\Temp\ccSNdAsc.s 			page 141


 6737      00
 6738              	.LASF134:
 6739 061e 4C565F45 		.ascii	"LV_EVENT_DRAG_BEGIN\000"
 6739      56454E54 
 6739      5F445241 
 6739      475F4245 
 6739      47494E00 
 6740              	.LASF90:
 6741 0632 696D6167 		.ascii	"image\000"
 6741      6500
 6742              	.LASF86:
 6743 0638 726F756E 		.ascii	"rounded\000"
 6743      64656400 
 6744              	.LASF112:
 6745 0640 64726167 		.ascii	"drag_throw\000"
 6745      5F746872 
 6745      6F7700
 6746              	.LASF290:
 6747 064b 696E6163 		.ascii	"inactive_days\000"
 6747      74697665 
 6747      5F646179 
 6747      7300
 6748              	.LASF101:
 6749 0659 6C765F62 		.ascii	"lv_bidi_dir_t\000"
 6749      6964695F 
 6749      6469725F 
 6749      7400
 6750              	.LASF122:
 6751 0667 6578745F 		.ascii	"ext_draw_pad\000"
 6751      64726177 
 6751      5F706164 
 6751      00
 6752              	.LASF44:
 6753 0674 6C765F61 		.ascii	"lv_area_t\000"
 6753      7265615F 
 6753      7400
 6754              	.LASF330:
 6755 067e 6C765F6D 		.ascii	"lv_mbox_add_btns\000"
 6755      626F785F 
 6755      6164645F 
 6755      62746E73 
 6755      00
 6756              	.LASF273:
 6757 068f 4C565F4D 		.ascii	"LV_MBOX_STYLE_BTN_INA\000"
 6757      424F585F 
 6757      5354594C 
 6757      455F4254 
 6757      4E5F494E 
 6758              	.LASF287:
 6759 06a5 68656164 		.ascii	"header_pr\000"
 6759      65725F70 
 6759      7200
 6760              	.LASF132:
 6761 06af 4C565F45 		.ascii	"LV_EVENT_CLICKED\000"
 6761      56454E54 
 6761      5F434C49 
 6761      434B4544 
ARM GAS  C:\Users\tmj32\AppData\Local\Temp\ccSNdAsc.s 			page 142


 6761      00
 6762              	.LASF72:
 6763 06c0 6C656674 		.ascii	"left\000"
 6763      00
 6764              	.LASF319:
 6765 06c5 6C765F74 		.ascii	"lv_theme_t\000"
 6765      68656D65 
 6765      5F7400
 6766              	.LASF63:
 6767 06d0 6C765F61 		.ascii	"lv_anim_ready_cb_t\000"
 6767      6E696D5F 
 6767      72656164 
 6767      795F6362 
 6767      5F7400
 6768              	.LASF143:
 6769 06e3 4C565F45 		.ascii	"LV_EVENT_APPLY\000"
 6769      56454E54 
 6769      5F415050 
 6769      4C5900
 6770              	.LASF123:
 6771 06f2 7265616C 		.ascii	"realign\000"
 6771      69676E00 
 6772              	.LASF136:
 6773 06fa 4C565F45 		.ascii	"LV_EVENT_DRAG_THROW_BEGIN\000"
 6773      56454E54 
 6773      5F445241 
 6773      475F5448 
 6773      524F575F 
 6774              	.LASF176:
 6775 0714 4C565F41 		.ascii	"LV_ALIGN_IN_BOTTOM_RIGHT\000"
 6775      4C49474E 
 6775      5F494E5F 
 6775      424F5454 
 6775      4F4D5F52 
 6776              	.LASF184:
 6777 072d 4C565F41 		.ascii	"LV_ALIGN_OUT_BOTTOM_RIGHT\000"
 6777      4C49474E 
 6777      5F4F5554 
 6777      5F424F54 
 6777      544F4D5F 
 6778              	.LASF155:
 6779 0747 4C565F53 		.ascii	"LV_SIGNAL_GET_TYPE\000"
 6779      49474E41 
 6779      4C5F4745 
 6779      545F5459 
 6779      504500
 6780              	.LASF359:
 6781 075a 616E6365 		.ascii	"ancestor_signal\000"
 6781      73746F72 
 6781      5F736967 
 6781      6E616C00 
 6782              	.LASF294:
 6783 076a 61726561 		.ascii	"area\000"
 6783      00
 6784              	.LASF92:
 6785 076f 6C765F73 		.ascii	"lv_style_t\000"
 6785      74796C65 
ARM GAS  C:\Users\tmj32\AppData\Local\Temp\ccSNdAsc.s 			page 143


 6785      5F7400
 6786              	.LASF74:
 6787 077a 696E6E65 		.ascii	"inner\000"
 6787      7200
 6788              	.LASF183:
 6789 0780 4C565F41 		.ascii	"LV_ALIGN_OUT_BOTTOM_MID\000"
 6789      4C49474E 
 6789      5F4F5554 
 6789      5F424F54 
 6789      544F4D5F 
 6790              	.LASF64:
 6791 0798 6C765F61 		.ascii	"lv_anim_t\000"
 6791      6E696D5F 
 6791      7400
 6792              	.LASF214:
 6793 07a2 4C565F46 		.ascii	"LV_FIT_FLOOD\000"
 6793      49545F46 
 6793      4C4F4F44 
 6793      00
 6794              	.LASF11:
 6795 07af 6C6F6E67 		.ascii	"long unsigned int\000"
 6795      20756E73 
 6795      69676E65 
 6795      6420696E 
 6795      7400
 6796              	.LASF244:
 6797 07c1 4C565F4B 		.ascii	"LV_KEY_HOME\000"
 6797      45595F48 
 6797      4F4D4500 
 6798              	.LASF278:
 6799 07cd 68696E74 		.ascii	"hint\000"
 6799      00
 6800              	.LASF348:
 6801 07d2 70617261 		.ascii	"param\000"
 6801      6D00
 6802              	.LASF248:
 6803 07d8 4C565F42 		.ascii	"LV_BTN_STATE_TGL_REL\000"
 6803      544E5F53 
 6803      54415445 
 6803      5F54474C 
 6803      5F52454C 
 6804              	.LASF262:
 6805 07ed 4C565F42 		.ascii	"LV_BTNM_STYLE_BTN_TGL_PR\000"
 6805      544E4D5F 
 6805      5354594C 
 6805      455F4254 
 6805      4E5F5447 
 6806              	.LASF201:
 6807 0806 4C565F4C 		.ascii	"LV_LAYOUT_OFF\000"
 6807      41594F55 
 6807      545F4F46 
 6807      4600
 6808              	.LASF91:
 6809 0814 6C696E65 		.ascii	"line\000"
 6809      00
 6810              	.LASF164:
 6811 0819 4C565F53 		.ascii	"LV_SIGNAL_FOCUS\000"
ARM GAS  C:\Users\tmj32\AppData\Local\Temp\ccSNdAsc.s 			page 144


 6811      49474E41 
 6811      4C5F464F 
 6811      43555300 
 6812              	.LASF332:
 6813 0829 6C765F6D 		.ascii	"lv_mbox_set_anim_time\000"
 6813      626F785F 
 6813      7365745F 
 6813      616E696D 
 6813      5F74696D 
 6814              	.LASF303:
 6815 083f 736C6964 		.ascii	"slider\000"
 6815      657200
 6816              	.LASF142:
 6817 0846 4C565F45 		.ascii	"LV_EVENT_REFRESH\000"
 6817      56454E54 
 6817      5F524546 
 6817      52455348 
 6817      00
 6818              	.LASF270:
 6819 0857 4C565F4D 		.ascii	"LV_MBOX_STYLE_BTN_PR\000"
 6819      424F585F 
 6819      5354594C 
 6819      455F4254 
 6819      4E5F5052 
 6820              	.LASF351:
 6821 086c 6D626F78 		.ascii	"mbox_realign\000"
 6821      5F726561 
 6821      6C69676E 
 6821      00
 6822              	.LASF343:
 6823 0879 6C765F6D 		.ascii	"lv_mbox_get_style\000"
 6823      626F785F 
 6823      6765745F 
 6823      7374796C 
 6823      6500
 6824              	.LASF272:
 6825 088b 4C565F4D 		.ascii	"LV_MBOX_STYLE_BTN_TGL_PR\000"
 6825      424F585F 
 6825      5354594C 
 6825      455F4254 
 6825      4E5F5447 
 6826              	.LASF167:
 6827 08a4 4C565F53 		.ascii	"LV_SIGNAL_GET_EDITABLE\000"
 6827      49474E41 
 6827      4C5F4745 
 6827      545F4544 
 6827      49544142 
 6828              	.LASF295:
 6829 08bb 6F6E656C 		.ascii	"oneline\000"
 6829      696E6500 
 6830              	.LASF182:
 6831 08c3 4C565F41 		.ascii	"LV_ALIGN_OUT_BOTTOM_LEFT\000"
 6831      4C49474E 
 6831      5F4F5554 
 6831      5F424F54 
 6831      544F4D5F 
 6832              	.LASF10:
ARM GAS  C:\Users\tmj32\AppData\Local\Temp\ccSNdAsc.s 			page 145


 6833 08dc 5F5F7569 		.ascii	"__uint32_t\000"
 6833      6E743332 
 6833      5F7400
 6834              	.LASF105:
 6835 08e7 6576656E 		.ascii	"event_cb\000"
 6835      745F6362 
 6835      00
 6836              	.LASF73:
 6837 08f0 72696768 		.ascii	"right\000"
 6837      7400
 6838              	.LASF109:
 6839 08f6 7374796C 		.ascii	"style_p\000"
 6839      655F7000 
 6840              	.LASF12:
 6841 08fe 6C6F6E67 		.ascii	"long long int\000"
 6841      206C6F6E 
 6841      6720696E 
 6841      7400
 6842              	.LASF364:
 6843 090c 433A5C55 		.ascii	"C:\\Users\\tmj32\\Documents\\TCNJ\\Senior_Project\\"
 6843      73657273 
 6843      5C746D6A 
 6843      33325C44 
 6843      6F63756D 
 6844 0939 4F736369 		.ascii	"Oscilloscope_Senior_Project\\tcom_engineering\\embe"
 6844      6C6C6F73 
 6844      636F7065 
 6844      5F53656E 
 6844      696F725F 
 6845 096a 645F7377 		.ascii	"d_sw\\tcom_app\\tcom_app_psoc6_lvgl6\\tcom_displ_te"
 6845      5C74636F 
 6845      6D5F6170 
 6845      705C7463 
 6845      6F6D5F61 
 6846 099a 73745F70 		.ascii	"st_psoc6.cydsn\000"
 6846      736F6336 
 6846      2E637964 
 6846      736E00
 6847              	.LASF187:
 6848 09a9 4C565F41 		.ascii	"LV_ALIGN_OUT_LEFT_BOTTOM\000"
 6848      4C49474E 
 6848      5F4F5554 
 6848      5F4C4546 
 6848      545F424F 
 6849              	.LASF68:
 6850 09c2 77696474 		.ascii	"width\000"
 6850      6800
 6851              	.LASF173:
 6852 09c8 4C565F41 		.ascii	"LV_ALIGN_IN_TOP_RIGHT\000"
 6852      4C49474E 
 6852      5F494E5F 
 6852      544F505F 
 6852      52494748 
 6853              	.LASF166:
 6854 09de 4C565F53 		.ascii	"LV_SIGNAL_CONTROL\000"
 6854      49474E41 
 6854      4C5F434F 
ARM GAS  C:\Users\tmj32\AppData\Local\Temp\ccSNdAsc.s 			page 146


 6854      4E54524F 
 6854      4C00
 6855              	.LASF71:
 6856 09f0 626F7474 		.ascii	"bottom\000"
 6856      6F6D00
 6857              	.LASF103:
 6858 09f7 6368696C 		.ascii	"child_ll\000"
 6858      645F6C6C 
 6858      00
 6859              	.LASF282:
 6860 0a00 696E6469 		.ascii	"indic\000"
 6860      6300
 6861              	.LASF120:
 6862 0a06 70726F74 		.ascii	"protect\000"
 6862      65637400 
 6863              	.LASF331:
 6864 0a0e 6C765F6D 		.ascii	"lv_mbox_set_text\000"
 6864      626F785F 
 6864      7365745F 
 6864      74657874 
 6864      00
 6865              	.LASF218:
 6866 0a1f 6C61796F 		.ascii	"layout\000"
 6866      757400
 6867              	.LASF315:
 6868 0a26 74616276 		.ascii	"tabview\000"
 6868      69657700 
 6869              	.LASF116:
 6870 0a2e 70617265 		.ascii	"parent_event\000"
 6870      6E745F65 
 6870      76656E74 
 6870      00
 6871              	.LASF148:
 6872 0a3b 4C565F53 		.ascii	"LV_SIGNAL_CLEANUP\000"
 6872      49474E41 
 6872      4C5F434C 
 6872      45414E55 
 6872      5000
 6873              	.LASF195:
 6874 0a4d 616C6967 		.ascii	"align\000"
 6874      6E00
 6875              	.LASF174:
 6876 0a53 4C565F41 		.ascii	"LV_ALIGN_IN_BOTTOM_LEFT\000"
 6876      4C49474E 
 6876      5F494E5F 
 6876      424F5454 
 6876      4F4D5F4C 
 6877              	.LASF87:
 6878 0a6b 676C6173 		.ascii	"glass\000"
 6878      7300
 6879              	.LASF344:
 6880 0a71 6C765F6D 		.ascii	"lv_mbox_get_recolor\000"
 6880      626F785F 
 6880      6765745F 
 6880      7265636F 
 6880      6C6F7200 
 6881              	.LASF355:
ARM GAS  C:\Users\tmj32\AppData\Local\Temp\ccSNdAsc.s 			page 147


 6882 0a85 6C765F6D 		.ascii	"lv_mbox_close_ready_cb\000"
 6882      626F785F 
 6882      636C6F73 
 6882      655F7265 
 6882      6164795F 
 6883              	.LASF357:
 6884 0a9c 6576656E 		.ascii	"event\000"
 6884      7400
 6885              	.LASF227:
 6886 0aa2 4C565F4C 		.ascii	"LV_LABEL_LONG_SROLL\000"
 6886      4142454C 
 6886      5F4C4F4E 
 6886      475F5352 
 6886      4F4C4C00 
 6887              	.LASF145:
 6888 0ab6 4C565F45 		.ascii	"LV_EVENT_DELETE\000"
 6888      56454E54 
 6888      5F44454C 
 6888      45544500 
 6889              	.LASF223:
 6890 0ac6 6C765F63 		.ascii	"lv_cont_ext_t\000"
 6890      6F6E745F 
 6890      6578745F 
 6890      7400
 6891              	.LASF14:
 6892 0ad4 756E7369 		.ascii	"unsigned int\000"
 6892      676E6564 
 6892      20696E74 
 6892      00
 6893              	.LASF149:
 6894 0ae1 4C565F53 		.ascii	"LV_SIGNAL_CHILD_CHG\000"
 6894      49474E41 
 6894      4C5F4348 
 6894      494C445F 
 6894      43484700 
 6895              	.LASF62:
 6896 0af5 6C765F61 		.ascii	"lv_anim_path_cb_t\000"
 6896      6E696D5F 
 6896      70617468 
 6896      5F63625F 
 6896      7400
 6897              	.LASF309:
 6898 0b07 6D626F78 		.ascii	"mbox\000"
 6898      00
 6899              	.LASF252:
 6900 0b0c 4C565F42 		.ascii	"LV_BTNM_CTRL_HIDDEN\000"
 6900      544E4D5F 
 6900      4354524C 
 6900      5F484944 
 6900      44454E00 
 6901              	.LASF275:
 6902 0b20 74676C5F 		.ascii	"tgl_rel\000"
 6902      72656C00 
 6903              	.LASF170:
 6904 0b28 4C565F41 		.ascii	"LV_ALIGN_CENTER\000"
 6904      4C49474E 
 6904      5F43454E 
ARM GAS  C:\Users\tmj32\AppData\Local\Temp\ccSNdAsc.s 			page 148


 6904      54455200 
 6905              	.LASF346:
 6906 0b38 6C765F6D 		.ascii	"lv_mbox_signal\000"
 6906      626F785F 
 6906      7369676E 
 6906      616C00
 6907              	.LASF140:
 6908 0b47 4C565F45 		.ascii	"LV_EVENT_VALUE_CHANGED\000"
 6908      56454E54 
 6908      5F56414C 
 6908      55455F43 
 6908      48414E47 
 6909              	.LASF250:
 6910 0b5e 4C565F42 		.ascii	"LV_BTN_STATE_INA\000"
 6910      544E5F53 
 6910      54415445 
 6910      5F494E41 
 6910      00
 6911              	.LASF268:
 6912 0b6f 4C565F4D 		.ascii	"LV_MBOX_STYLE_BTN_BG\000"
 6912      424F585F 
 6912      5354594C 
 6912      455F4254 
 6912      4E5F4247 
 6913              	.LASF196:
 6914 0b84 6175746F 		.ascii	"auto_realign\000"
 6914      5F726561 
 6914      6C69676E 
 6914      00
 6915              	.LASF337:
 6916 0b91 6C765F6D 		.ascii	"lv_mbox_set_recolor\000"
 6916      626F785F 
 6916      7365745F 
 6916      7265636F 
 6916      6C6F7200 
 6917              	.LASF325:
 6918 0ba5 6C765F63 		.ascii	"lv_cont_set_fit\000"
 6918      6F6E745F 
 6918      7365745F 
 6918      66697400 
 6919              	.LASF28:
 6920 0bb5 6C765F66 		.ascii	"lv_font_glyph_dsc_t\000"
 6920      6F6E745F 
 6920      676C7970 
 6920      685F6473 
 6920      635F7400 
 6921              	.LASF312:
 6922 0bc9 6C697374 		.ascii	"list\000"
 6922      00
 6923              	.LASF76:
 6924 0bce 67726164 		.ascii	"grad_color\000"
 6924      5F636F6C 
 6924      6F7200
 6925              	.LASF219:
 6926 0bd9 6669745F 		.ascii	"fit_left\000"
 6926      6C656674 
 6926      00
ARM GAS  C:\Users\tmj32\AppData\Local\Temp\ccSNdAsc.s 			page 149


 6927              	.LASF127:
 6928 0be2 4C565F45 		.ascii	"LV_EVENT_PRESSING\000"
 6928      56454E54 
 6928      5F505245 
 6928      5353494E 
 6928      4700
 6929              	.LASF256:
 6930 0bf4 4C565F42 		.ascii	"LV_BTNM_CTRL_TGL_STATE\000"
 6930      544E4D5F 
 6930      4354524C 
 6930      5F54474C 
 6930      5F535441 
 6931              	.LASF310:
 6932 0c0b 70616765 		.ascii	"page\000"
 6932      00
 6933              	.LASF284:
 6934 0c10 6B6E6F62 		.ascii	"knob_off\000"
 6934      5F6F6666 
 6934      00
 6935              	.LASF305:
 6936 0c19 67617567 		.ascii	"gauge\000"
 6936      6500
 6937              	.LASF327:
 6938 0c1f 6E65775F 		.ascii	"new_mbox\000"
 6938      6D626F78 
 6938      00
 6939              	.LASF242:
 6940 0c28 4C565F4B 		.ascii	"LV_KEY_NEXT\000"
 6940      45595F4E 
 6940      45585400 
 6941              	.LASF333:
 6942 0c34 6C765F6D 		.ascii	"lv_mbox_start_auto_close\000"
 6942      626F785F 
 6942      73746172 
 6942      745F6175 
 6942      746F5F63 
 6943              	.LASF157:
 6944 0c4d 4C565F53 		.ascii	"LV_SIGNAL_PRESSING\000"
 6944      49474E41 
 6944      4C5F5052 
 6944      45535349 
 6944      4E4700
 6945              	.LASF129:
 6946 0c60 4C565F45 		.ascii	"LV_EVENT_SHORT_CLICKED\000"
 6946      56454E54 
 6946      5F53484F 
 6946      52545F43 
 6946      4C49434B 
 6947              	.LASF341:
 6948 0c77 6C765F6D 		.ascii	"lv_mbox_get_active_btn_text\000"
 6948      626F785F 
 6948      6765745F 
 6948      61637469 
 6948      76655F62 
 6949              	.LASF131:
 6950 0c93 4C565F45 		.ascii	"LV_EVENT_LONG_PRESSED_REPEAT\000"
 6950      56454E54 
ARM GAS  C:\Users\tmj32\AppData\Local\Temp\ccSNdAsc.s 			page 150


 6950      5F4C4F4E 
 6950      475F5052 
 6950      45535345 
 6951              	.LASF95:
 6952 0cb0 6C765F72 		.ascii	"lv_res_t\000"
 6952      65735F74 
 6952      00
 6953              	.LASF190:
 6954 0cb9 4C565F41 		.ascii	"LV_ALIGN_OUT_RIGHT_BOTTOM\000"
 6954      4C49474E 
 6954      5F4F5554 
 6954      5F524947 
 6954      48545F42 
 6955              	.LASF22:
 6956 0cd3 6C6F6E67 		.ascii	"long double\000"
 6956      20646F75 
 6956      626C6500 
 6957              	.LASF199:
 6958 0cdf 6C765F64 		.ascii	"lv_drag_dir_t\000"
 6958      7261675F 
 6958      6469725F 
 6958      7400
 6959              	.LASF318:
 6960 0ced 7374796C 		.ascii	"style\000"
 6960      6500
 6961              	.LASF108:
 6962 0cf3 6578745F 		.ascii	"ext_attr\000"
 6962      61747472 
 6962      00
 6963              	.LASF179:
 6964 0cfc 4C565F41 		.ascii	"LV_ALIGN_OUT_TOP_LEFT\000"
 6964      4C49474E 
 6964      5F4F5554 
 6964      5F544F50 
 6964      5F4C4546 
 6965              	.LASF124:
 6966 0d12 6C765F64 		.ascii	"lv_design_mode_t\000"
 6966      65736967 
 6966      6E5F6D6F 
 6966      64655F74 
 6966      00
 6967              	.LASF57:
 6968 0d23 73756270 		.ascii	"subpx\000"
 6968      7800
 6969              	.LASF135:
 6970 0d29 4C565F45 		.ascii	"LV_EVENT_DRAG_END\000"
 6970      56454E54 
 6970      5F445241 
 6970      475F454E 
 6970      4400
 6971              	.LASF158:
 6972 0d3b 4C565F53 		.ascii	"LV_SIGNAL_PRESS_LOST\000"
 6972      49474E41 
 6972      4C5F5052 
 6972      4553535F 
 6972      4C4F5354 
 6973              	.LASF245:
ARM GAS  C:\Users\tmj32\AppData\Local\Temp\ccSNdAsc.s 			page 151


 6974 0d50 4C565F4B 		.ascii	"LV_KEY_END\000"
 6974      45595F45 
 6974      4E4400
 6975              	.LASF163:
 6976 0d5b 4C565F53 		.ascii	"LV_SIGNAL_DRAG_END\000"
 6976      49474E41 
 6976      4C5F4452 
 6976      41475F45 
 6976      4E4400
 6977              	.LASF349:
 6978 0d6e 635F7472 		.ascii	"c_trans\000"
 6978      616E7300 
 6979              	.LASF126:
 6980 0d76 4C565F45 		.ascii	"LV_EVENT_PRESSED\000"
 6980      56454E54 
 6980      5F505245 
 6980      53534544 
 6980      00
 6981              	.LASF151:
 6982 0d87 4C565F53 		.ascii	"LV_SIGNAL_PARENT_SIZE_CHG\000"
 6982      49474E41 
 6982      4C5F5041 
 6982      52454E54 
 6982      5F53495A 
 6983              	.LASF144:
 6984 0da1 4C565F45 		.ascii	"LV_EVENT_CANCEL\000"
 6984      56454E54 
 6984      5F43414E 
 6984      43454C00 
 6985              	.LASF159:
 6986 0db1 4C565F53 		.ascii	"LV_SIGNAL_RELEASED\000"
 6986      49474E41 
 6986      4C5F5245 
 6986      4C454153 
 6986      454400
 6987              	.LASF335:
 6988 0dc4 6C765F6D 		.ascii	"lv_mbox_stop_auto_close\000"
 6988      626F785F 
 6988      73746F70 
 6988      5F617574 
 6988      6F5F636C 
 6989              	.LASF75:
 6990 0ddc 6D61696E 		.ascii	"main_color\000"
 6990      5F636F6C 
 6990      6F7200
 6991              	.LASF172:
 6992 0de7 4C565F41 		.ascii	"LV_ALIGN_IN_TOP_MID\000"
 6992      4C49474E 
 6992      5F494E5F 
 6992      544F505F 
 6992      4D494400 
 6993              	.LASF0:
 6994 0dfb 5F5F696E 		.ascii	"__int8_t\000"
 6994      74385F74 
 6994      00
 6995              	.LASF168:
 6996 0e04 6C765F73 		.ascii	"lv_signal_t\000"
ARM GAS  C:\Users\tmj32\AppData\Local\Temp\ccSNdAsc.s 			page 152


 6996      69676E61 
 6996      6C5F7400 
 6997              	.LASF61:
 6998 0e10 6861735F 		.ascii	"has_run\000"
 6998      72756E00 
 6999              	.LASF247:
 7000 0e18 4C565F42 		.ascii	"LV_BTN_STATE_PR\000"
 7000      544E5F53 
 7000      54415445 
 7000      5F505200 
 7001              	.LASF13:
 7002 0e28 6C6F6E67 		.ascii	"long long unsigned int\000"
 7002      206C6F6E 
 7002      6720756E 
 7002      7369676E 
 7002      65642069 
 7003              	.LASF260:
 7004 0e3f 4C565F42 		.ascii	"LV_BTNM_STYLE_BTN_PR\000"
 7004      544E4D5F 
 7004      5354594C 
 7004      455F4254 
 7004      4E5F5052 
 7005              	.LASF188:
 7006 0e54 4C565F41 		.ascii	"LV_ALIGN_OUT_RIGHT_TOP\000"
 7006      4C49474E 
 7006      5F4F5554 
 7006      5F524947 
 7006      48545F54 
 7007              	.LASF18:
 7008 0e6b 75696E74 		.ascii	"uint16_t\000"
 7008      31365F74 
 7008      00
 7009              	.LASF94:
 7010 0e74 4C565F52 		.ascii	"LV_RES_OK\000"
 7010      45535F4F 
 7010      4B00
 7011              	.LASF224:
 7012 0e7e 4C565F4C 		.ascii	"LV_LABEL_LONG_EXPAND\000"
 7012      4142454C 
 7012      5F4C4F4E 
 7012      475F4558 
 7012      50414E44 
 7013              	.LASF40:
 7014 0e93 6C765F63 		.ascii	"lv_color_t\000"
 7014      6F6C6F72 
 7014      5F7400
 7015              	.LASF338:
 7016 0e9e 6C765F6D 		.ascii	"lv_mbox_create\000"
 7016      626F785F 
 7016      63726561 
 7016      746500
 7017              	.LASF266:
 7018 0ead 6C765F6D 		.ascii	"lv_mbox_ext_t\000"
 7018      626F785F 
 7018      6578745F 
 7018      7400
 7019              	.LASF217:
ARM GAS  C:\Users\tmj32\AppData\Local\Temp\ccSNdAsc.s 			page 153


 7020 0ebb 6C765F66 		.ascii	"lv_fit_t\000"
 7020      69745F74 
 7020      00
 7021              	.LASF49:
 7022 0ec4 65786563 		.ascii	"exec_cb\000"
 7022      5F636200 
 7023              	.LASF363:
 7024 0ecc 2E2E5C2E 		.ascii	"..\\..\\..\\lvgl\\version_6.1.2\\lvgl\\src\\lv_objx"
 7024      2E5C2E2E 
 7024      5C6C7667 
 7024      6C5C7665 
 7024      7273696F 
 7025 0ef8 5C6C765F 		.ascii	"\\lv_mbox.c\000"
 7025      6D626F78 
 7025      2E6300
 7026              	.LASF235:
 7027 0f03 4C565F4B 		.ascii	"LV_KEY_DOWN\000"
 7027      45595F44 
 7027      4F574E00 
 7028              	.LASF222:
 7029 0f0f 6669745F 		.ascii	"fit_bottom\000"
 7029      626F7474 
 7029      6F6D00
 7030              	.LASF238:
 7031 0f1a 4C565F4B 		.ascii	"LV_KEY_ESC\000"
 7031      45595F45 
 7031      534300
 7032              	.LASF354:
 7033 0f25 666F6E74 		.ascii	"font_h\000"
 7033      5F6800
 7034              	.LASF353:
 7035 0f2c 62746E5F 		.ascii	"btn_rel_style\000"
 7035      72656C5F 
 7035      7374796C 
 7035      6500
 7036              	.LASF362:
 7037 0f3a 474E5520 		.ascii	"GNU C11 5.4.1 20160609 (release) [ARM/embedded-5-br"
 7037      43313120 
 7037      352E342E 
 7037      31203230 
 7037      31363036 
 7038 0f6d 616E6368 		.ascii	"anch revision 237715] -mcpu=cortex-m4 -mfloat-abi=s"
 7038      20726576 
 7038      6973696F 
 7038      6E203233 
 7038      37373135 
 7039 0fa0 6F667466 		.ascii	"oftfp -mfpu=fpv4-sp-d16 -mthumb -g -O0 -ffunction-s"
 7039      70202D6D 
 7039      6670753D 
 7039      66707634 
 7039      2D73702D 
 7040 0fd3 65637469 		.ascii	"ections -ffat-lto-objects\000"
 7040      6F6E7320 
 7040      2D666661 
 7040      742D6C74 
 7040      6F2D6F62 
 7041              	.LASF274:
ARM GAS  C:\Users\tmj32\AppData\Local\Temp\ccSNdAsc.s 			page 154


 7042 0fed 6C765F6D 		.ascii	"lv_mbox_style_t\000"
 7042      626F785F 
 7042      7374796C 
 7042      655F7400 
 7043              	.LASF281:
 7044 0ffd 6465636F 		.ascii	"decor\000"
 7044      7200
 7045              	.LASF301:
 7046 1003 696D6762 		.ascii	"imgbtn\000"
 7046      746E00
 7047              	.LASF4:
 7048 100a 5F5F696E 		.ascii	"__int16_t\000"
 7048      7431365F 
 7048      7400
 7049              	.LASF299:
 7050 1014 70616E65 		.ascii	"panel\000"
 7050      6C00
 7051              	.LASF38:
 7052 101a 66756C6C 		.ascii	"full\000"
 7052      00
 7053              	.LASF178:
 7054 101f 4C565F41 		.ascii	"LV_ALIGN_IN_RIGHT_MID\000"
 7054      4C49474E 
 7054      5F494E5F 
 7054      52494748 
 7054      545F4D49 
 7055              	.LASF67:
 7056 1035 636F6C6F 		.ascii	"color\000"
 7056      7200
 7057              	.LASF53:
 7058 103b 74696D65 		.ascii	"time\000"
 7058      00
 7059              	.LASF358:
 7060 1040 6C765F6D 		.ascii	"lv_mbox_btnm_event_cb\000"
 7060      626F785F 
 7060      62746E6D 
 7060      5F657665 
 7060      6E745F63 
 7061              	.LASF84:
 7062 1056 6C696E65 		.ascii	"line_space\000"
 7062      5F737061 
 7062      636500
 7063              	.LASF193:
 7064 1061 786F6673 		.ascii	"xofs\000"
 7064      00
 7065              	.LASF220:
 7066 1066 6669745F 		.ascii	"fit_right\000"
 7066      72696768 
 7066      7400
 7067              	.LASF216:
 7068 1070 5F4C565F 		.ascii	"_LV_FIT_NUM\000"
 7068      4649545F 
 7068      4E554D00 
 7069              	.LASF200:
 7070 107c 6C765F6F 		.ascii	"lv_obj_t\000"
 7070      626A5F74 
 7070      00
ARM GAS  C:\Users\tmj32\AppData\Local\Temp\ccSNdAsc.s 			page 155


 7071              	.LASF226:
 7072 1085 4C565F4C 		.ascii	"LV_LABEL_LONG_DOT\000"
 7072      4142454C 
 7072      5F4C4F4E 
 7072      475F444F 
 7072      5400
 7073              	.LASF210:
 7074 1097 4C565F4C 		.ascii	"LV_LAYOUT_GRID\000"
 7074      41594F55 
 7074      545F4752 
 7074      494400
 7075              	.LASF66:
 7076 10a6 6C765F73 		.ascii	"lv_shadow_type_t\000"
 7076      6861646F 
 7076      775F7479 
 7076      70655F74 
 7076      00
 7077              	.LASF111:
 7078 10b7 64726167 		.ascii	"drag\000"
 7078      00
 7079              	.LASF361:
 7080 10bc 6C765F73 		.ascii	"lv_style_pretty\000"
 7080      74796C65 
 7080      5F707265 
 7080      74747900 
 7081              	.LASF215:
 7082 10cc 4C565F46 		.ascii	"LV_FIT_FILL\000"
 7082      49545F46 
 7082      494C4C00 
 7083              	.LASF263:
 7084 10d8 4C565F42 		.ascii	"LV_BTNM_STYLE_BTN_INA\000"
 7084      544E4D5F 
 7084      5354594C 
 7084      455F4254 
 7084      4E5F494E 
 7085              	.LASF102:
 7086 10ee 5F6C765F 		.ascii	"_lv_obj_t\000"
 7086      6F626A5F 
 7086      7400
 7087              	.LASF171:
 7088 10f8 4C565F41 		.ascii	"LV_ALIGN_IN_TOP_LEFT\000"
 7088      4C49474E 
 7088      5F494E5F 
 7088      544F505F 
 7088      4C454654 
 7089              	.LASF82:
 7090 110d 666F6E74 		.ascii	"font\000"
 7090      00
 7091              	.LASF83:
 7092 1112 6C657474 		.ascii	"letter_space\000"
 7092      65725F73 
 7092      70616365 
 7092      00
 7093              	.LASF308:
 7094 111f 63616C65 		.ascii	"calendar\000"
 7094      6E646172 
 7094      00
ARM GAS  C:\Users\tmj32\AppData\Local\Temp\ccSNdAsc.s 			page 156


 7095              	.LASF118:
 7096 1128 62617365 		.ascii	"base_dir\000"
 7096      5F646972 
 7096      00
 7097              	.LASF25:
 7098 1131 626F785F 		.ascii	"box_h\000"
 7098      6800
 7099              	.LASF243:
 7100 1137 4C565F4B 		.ascii	"LV_KEY_PREV\000"
 7100      45595F50 
 7100      52455600 
 7101              	.LASF192:
 7102 1143 62617365 		.ascii	"base\000"
 7102      00
 7103              	.LASF24:
 7104 1148 626F785F 		.ascii	"box_w\000"
 7104      7700
 7105              	.LASF5:
 7106 114e 73686F72 		.ascii	"short int\000"
 7106      7420696E 
 7106      7400
 7107              	.LASF58:
 7108 1158 706C6179 		.ascii	"playback\000"
 7108      6261636B 
 7108      00
 7109              	.LASF32:
 7110 1161 62617365 		.ascii	"base_line\000"
 7110      5F6C696E 
 7110      6500
 7111              	.LASF100:
 7112 116b 6C765F6C 		.ascii	"lv_ll_t\000"
 7112      6C5F7400 
 7113              	.LASF181:
 7114 1173 4C565F41 		.ascii	"LV_ALIGN_OUT_TOP_RIGHT\000"
 7114      4C49474E 
 7114      5F4F5554 
 7114      5F544F50 
 7114      5F524947 
 7115              	.LASF17:
 7116 118a 696E7431 		.ascii	"int16_t\000"
 7116      365F7400 
 7117              	.LASF150:
 7118 1192 4C565F53 		.ascii	"LV_SIGNAL_CORD_CHG\000"
 7118      49474E41 
 7118      4C5F434F 
 7118      52445F43 
 7118      484700
 7119              	.LASF104:
 7120 11a5 636F6F72 		.ascii	"coords\000"
 7120      647300
 7121              	.LASF345:
 7122 11ac 6C765F6D 		.ascii	"lv_mbox_get_btnm\000"
 7122      626F785F 
 7122      6765745F 
 7122      62746E6D 
 7122      00
 7123              	.LASF311:
ARM GAS  C:\Users\tmj32\AppData\Local\Temp\ccSNdAsc.s 			page 157


 7124 11bd 7370696E 		.ascii	"spinbox\000"
 7124      626F7800 
 7125              	.LASF115:
 7126 11c5 6F70615F 		.ascii	"opa_scale_en\000"
 7126      7363616C 
 7126      655F656E 
 7126      00
 7127              	.LASF288:
 7128 11d2 6461795F 		.ascii	"day_names\000"
 7128      6E616D65 
 7128      7300
 7129              	.LASF79:
 7130 11dc 73686164 		.ascii	"shadow\000"
 7130      6F7700
 7131              	.LASF139:
 7132 11e3 4C565F45 		.ascii	"LV_EVENT_DEFOCUSED\000"
 7132      56454E54 
 7132      5F444546 
 7132      4F435553 
 7132      454400
 7133              	.LASF321:
 7134 11f6 6C765F61 		.ascii	"lv_area_get_width\000"
 7134      7265615F 
 7134      6765745F 
 7134      77696474 
 7134      6800
 7135              	.LASF177:
 7136 1208 4C565F41 		.ascii	"LV_ALIGN_IN_LEFT_MID\000"
 7136      4C49474E 
 7136      5F494E5F 
 7136      4C454654 
 7136      5F4D4944 
 7137              	.LASF255:
 7138 121d 4C565F42 		.ascii	"LV_BTNM_CTRL_TGL_ENABLE\000"
 7138      544E4D5F 
 7138      4354524C 
 7138      5F54474C 
 7138      5F454E41 
 7139              	.LASF113:
 7140 1235 64726167 		.ascii	"drag_parent\000"
 7140      5F706172 
 7140      656E7400 
 7141              	.LASF153:
 7142 1241 4C565F53 		.ascii	"LV_SIGNAL_BASE_DIR_CHG\000"
 7142      49474E41 
 7142      4C5F4241 
 7142      53455F44 
 7142      49525F43 
 7143              	.LASF54:
 7144 1258 6163745F 		.ascii	"act_time\000"
 7144      74696D65 
 7144      00
 7145              	.LASF269:
 7146 1261 4C565F4D 		.ascii	"LV_MBOX_STYLE_BTN_REL\000"
 7146      424F585F 
 7146      5354594C 
 7146      455F4254 
ARM GAS  C:\Users\tmj32\AppData\Local\Temp\ccSNdAsc.s 			page 158


 7146      4E5F5245 
 7147              	.LASF322:
 7148 1277 666F6E74 		.ascii	"font_p\000"
 7148      5F7000
 7149              	.LASF180:
 7150 127e 4C565F41 		.ascii	"LV_ALIGN_OUT_TOP_MID\000"
 7150      4C49474E 
 7150      5F4F5554 
 7150      5F544F50 
 7150      5F4D4944 
 7151              	.LASF328:
 7152 1293 636F7079 		.ascii	"copy_ext\000"
 7152      5F657874 
 7152      00
 7153              	.LASF298:
 7154 129c 636F6E74 		.ascii	"content\000"
 7154      656E7400 
 7155              	.LASF80:
 7156 12a4 70616464 		.ascii	"padding\000"
 7156      696E6700 
 7157              	.LASF213:
 7158 12ac 4C565F46 		.ascii	"LV_FIT_TIGHT\000"
 7158      49545F54 
 7158      49474854 
 7158      00
 7159              	.LASF106:
 7160 12b9 7369676E 		.ascii	"signal_cb\000"
 7160      616C5F63 
 7160      6200
 7161              	.LASF20:
 7162 12c3 75696E74 		.ascii	"uint32_t\000"
 7162      33325F74 
 7162      00
 7163              	.LASF55:
 7164 12cc 706C6179 		.ascii	"playback_pause\000"
 7164      6261636B 
 7164      5F706175 
 7164      736500
 7165              	.LASF185:
 7166 12db 4C565F41 		.ascii	"LV_ALIGN_OUT_LEFT_TOP\000"
 7166      4C49474E 
 7166      5F4F5554 
 7166      5F4C4546 
 7166      545F544F 
 7167              	.LASF280:
 7168 12f1 6461726B 		.ascii	"dark\000"
 7168      00
 7169              	.LASF36:
 7170 12f6 67726565 		.ascii	"green\000"
 7170      6E00
 7171              	.LASF34:
 7172 12fc 6C765F66 		.ascii	"lv_font_t\000"
 7172      6F6E745F 
 7172      7400
 7173              	.LASF119:
 7174 1306 72657365 		.ascii	"reserved\000"
 7174      72766564 
ARM GAS  C:\Users\tmj32\AppData\Local\Temp\ccSNdAsc.s 			page 159


 7174      00
 7175              	.LASF230:
 7176 130f 4C565F4C 		.ascii	"LV_LABEL_ALIGN_LEFT\000"
 7176      4142454C 
 7176      5F414C49 
 7176      474E5F4C 
 7176      45465400 
 7177              	.LASF229:
 7178 1323 4C565F4C 		.ascii	"LV_LABEL_LONG_CROP\000"
 7178      4142454C 
 7178      5F4C4F4E 
 7178      475F4352 
 7178      4F5000
 7179              	.LASF7:
 7180 1336 73686F72 		.ascii	"short unsigned int\000"
 7180      7420756E 
 7180      7369676E 
 7180      65642069 
 7180      6E7400
 7181              	.LASF69:
 7182 1349 70617274 		.ascii	"part\000"
 7182      00
 7183              	.LASF137:
 7184 134e 4C565F45 		.ascii	"LV_EVENT_KEY\000"
 7184      56454E54 
 7184      5F4B4559 
 7184      00
 7185              	.LASF21:
 7186 135b 6C765F63 		.ascii	"lv_coord_t\000"
 7186      6F6F7264 
 7186      5F7400
 7187              	.LASF128:
 7188 1366 4C565F45 		.ascii	"LV_EVENT_PRESS_LOST\000"
 7188      56454E54 
 7188      5F505245 
 7188      53535F4C 
 7188      4F535400 
 7189              	.LASF60:
 7190 137a 706C6179 		.ascii	"playback_now\000"
 7190      6261636B 
 7190      5F6E6F77 
 7190      00
 7191              	.LASF78:
 7192 1387 626F7264 		.ascii	"border\000"
 7192      657200
 7193              	.LASF302:
 7194 138e 6C616265 		.ascii	"label\000"
 7194      6C00
 7195              	.LASF29:
 7196 1394 6765745F 		.ascii	"get_glyph_dsc\000"
 7196      676C7970 
 7196      685F6473 
 7196      6300
 7197              	.LASF8:
 7198 13a2 5F5F696E 		.ascii	"__int32_t\000"
 7198      7433325F 
 7198      7400
ARM GAS  C:\Users\tmj32\AppData\Local\Temp\ccSNdAsc.s 			page 160


 7199              	.LASF65:
 7200 13ac 6C765F62 		.ascii	"lv_border_part_t\000"
 7200      6F726465 
 7200      725F7061 
 7200      72745F74 
 7200      00
 7201              	.LASF360:
 7202 13bd 6C765F73 		.ascii	"lv_style_transp_fit\000"
 7202      74796C65 
 7202      5F747261 
 7202      6E73705F 
 7202      66697400 
 7203              	.LASF147:
 7204 13d1 6C765F65 		.ascii	"lv_event_cb_t\000"
 7204      76656E74 
 7204      5F63625F 
 7204      7400
 7205              	.LASF306:
 7206 13df 7072656C 		.ascii	"preload\000"
 7206      6F616400 
 7207              	.LASF197:
 7208 13e7 6F726967 		.ascii	"origo_align\000"
 7208      6F5F616C 
 7208      69676E00 
 7209              	.LASF283:
 7210 13f3 6B6E6F62 		.ascii	"knob\000"
 7210      00
 7211              	.LASF234:
 7212 13f8 4C565F4B 		.ascii	"LV_KEY_UP\000"
 7212      45595F55 
 7212      5000
 7213              	.LASF81:
 7214 1402 73656C5F 		.ascii	"sel_color\000"
 7214      636F6C6F 
 7214      7200
 7215              	.LASF47:
 7216 140c 5F6C765F 		.ascii	"_lv_font_struct\000"
 7216      666F6E74 
 7216      5F737472 
 7216      75637400 
 7217              	.LASF48:
 7218 141c 5F6C765F 		.ascii	"_lv_anim_t\000"
 7218      616E696D 
 7218      5F7400
 7219              	.LASF97:
 7220 1427 6E5F7369 		.ascii	"n_size\000"
 7220      7A6500
 7221              	.LASF251:
 7222 142e 5F4C565F 		.ascii	"_LV_BTN_STATE_NUM\000"
 7222      42544E5F 
 7222      53544154 
 7222      455F4E55 
 7222      4D00
 7223              	.LASF296:
 7224 1440 63757273 		.ascii	"cursor\000"
 7224      6F7200
 7225              	.LASF133:
ARM GAS  C:\Users\tmj32\AppData\Local\Temp\ccSNdAsc.s 			page 161


 7226 1447 4C565F45 		.ascii	"LV_EVENT_RELEASED\000"
 7226      56454E54 
 7226      5F52454C 
 7226      45415345 
 7226      4400
 7227              	.LASF125:
 7228 1459 6C765F64 		.ascii	"lv_design_cb_t\000"
 7228      65736967 
 7228      6E5F6362 
 7228      5F7400
 7229              	.LASF121:
 7230 1468 6F70615F 		.ascii	"opa_scale\000"
 7230      7363616C 
 7230      6500
 7231              	.LASF314:
 7232 1472 726F6C6C 		.ascii	"roller\000"
 7232      657200
 7233              		.ident	"GCC: (GNU Tools for ARM Embedded Processors) 5.4.1 20160609 (release) [ARM/embedded-5-bran
