ARM GAS  C:\Users\tmj32\AppData\Local\Temp\ccSNdAsc.s 			page 1


   1              		.syntax unified
   2              		.cpu cortex-m4
   3              		.eabi_attribute 27, 1
   4              		.fpu fpv4-sp-d16
   5              		.eabi_attribute 20, 1
   6              		.eabi_attribute 21, 1
   7              		.eabi_attribute 23, 3
   8              		.eabi_attribute 24, 1
   9              		.eabi_attribute 25, 1
  10              		.eabi_attribute 26, 1
  11              		.eabi_attribute 30, 6
  12              		.eabi_attribute 34, 1
  13              		.eabi_attribute 18, 4
  14              		.thumb
  15              		.syntax unified
  16              		.file	"lv_mbox.c"
  17              		.text
  18              	.Ltext0:
  19              		.cfi_sections	.debug_frame
  20              		.section	.text.lv_font_get_line_height,"ax",%progbits
  21              		.align	2
  22              		.thumb
  23              		.thumb_func
  24              		.type	lv_font_get_line_height, %function
  25              	lv_font_get_line_height:
  26              	.LFB0:
  27              		.file 1 "..\\..\\..\\lvgl\\version_6.1.2\\lvgl\\src\\lv_objx\\../lv_core/../lv_font/lv_font.h"
   1:..\..\..\lvgl\version_6.1.2\lvgl\src\lv_objx\../lv_core/../lv_font/lv_font.h **** /**
   2:..\..\..\lvgl\version_6.1.2\lvgl\src\lv_objx\../lv_core/../lv_font/lv_font.h ****  * @file lv_font.h
   3:..\..\..\lvgl\version_6.1.2\lvgl\src\lv_objx\../lv_core/../lv_font/lv_font.h ****  *
   4:..\..\..\lvgl\version_6.1.2\lvgl\src\lv_objx\../lv_core/../lv_font/lv_font.h ****  */
   5:..\..\..\lvgl\version_6.1.2\lvgl\src\lv_objx\../lv_core/../lv_font/lv_font.h **** 
   6:..\..\..\lvgl\version_6.1.2\lvgl\src\lv_objx\../lv_core/../lv_font/lv_font.h **** #ifndef LV_FONT_H
   7:..\..\..\lvgl\version_6.1.2\lvgl\src\lv_objx\../lv_core/../lv_font/lv_font.h **** #define LV_FONT_H
   8:..\..\..\lvgl\version_6.1.2\lvgl\src\lv_objx\../lv_core/../lv_font/lv_font.h **** 
   9:..\..\..\lvgl\version_6.1.2\lvgl\src\lv_objx\../lv_core/../lv_font/lv_font.h **** #ifdef __cplusplus
  10:..\..\..\lvgl\version_6.1.2\lvgl\src\lv_objx\../lv_core/../lv_font/lv_font.h **** extern "C" {
  11:..\..\..\lvgl\version_6.1.2\lvgl\src\lv_objx\../lv_core/../lv_font/lv_font.h **** #endif
  12:..\..\..\lvgl\version_6.1.2\lvgl\src\lv_objx\../lv_core/../lv_font/lv_font.h **** 
  13:..\..\..\lvgl\version_6.1.2\lvgl\src\lv_objx\../lv_core/../lv_font/lv_font.h **** /*********************
  14:..\..\..\lvgl\version_6.1.2\lvgl\src\lv_objx\../lv_core/../lv_font/lv_font.h ****  *      INCLUDES
  15:..\..\..\lvgl\version_6.1.2\lvgl\src\lv_objx\../lv_core/../lv_font/lv_font.h ****  *********************/
  16:..\..\..\lvgl\version_6.1.2\lvgl\src\lv_objx\../lv_core/../lv_font/lv_font.h **** #ifdef LV_CONF_INCLUDE_SIMPLE
  17:..\..\..\lvgl\version_6.1.2\lvgl\src\lv_objx\../lv_core/../lv_font/lv_font.h **** #include "lv_conf.h"
  18:..\..\..\lvgl\version_6.1.2\lvgl\src\lv_objx\../lv_core/../lv_font/lv_font.h **** #else
  19:..\..\..\lvgl\version_6.1.2\lvgl\src\lv_objx\../lv_core/../lv_font/lv_font.h **** #include "../../../lv_conf.h"
  20:..\..\..\lvgl\version_6.1.2\lvgl\src\lv_objx\../lv_core/../lv_font/lv_font.h **** #endif
  21:..\..\..\lvgl\version_6.1.2\lvgl\src\lv_objx\../lv_core/../lv_font/lv_font.h **** 
  22:..\..\..\lvgl\version_6.1.2\lvgl\src\lv_objx\../lv_core/../lv_font/lv_font.h **** #include <stdint.h>
  23:..\..\..\lvgl\version_6.1.2\lvgl\src\lv_objx\../lv_core/../lv_font/lv_font.h **** #include <stddef.h>
  24:..\..\..\lvgl\version_6.1.2\lvgl\src\lv_objx\../lv_core/../lv_font/lv_font.h **** #include <stdbool.h>
  25:..\..\..\lvgl\version_6.1.2\lvgl\src\lv_objx\../lv_core/../lv_font/lv_font.h **** 
  26:..\..\..\lvgl\version_6.1.2\lvgl\src\lv_objx\../lv_core/../lv_font/lv_font.h **** #include "lv_symbol_def.h"
  27:..\..\..\lvgl\version_6.1.2\lvgl\src\lv_objx\../lv_core/../lv_font/lv_font.h **** 
  28:..\..\..\lvgl\version_6.1.2\lvgl\src\lv_objx\../lv_core/../lv_font/lv_font.h **** /*********************
  29:..\..\..\lvgl\version_6.1.2\lvgl\src\lv_objx\../lv_core/../lv_font/lv_font.h ****  *      DEFINES
  30:..\..\..\lvgl\version_6.1.2\lvgl\src\lv_objx\../lv_core/../lv_font/lv_font.h ****  *********************/
ARM GAS  C:\Users\tmj32\AppData\Local\Temp\ccSNdAsc.s 			page 2


  31:..\..\..\lvgl\version_6.1.2\lvgl\src\lv_objx\../lv_core/../lv_font/lv_font.h **** /*Number of fractional digits in the advanced width (`adv_w`) field of `lv_font_glyph_dsc_t`*/
  32:..\..\..\lvgl\version_6.1.2\lvgl\src\lv_objx\../lv_core/../lv_font/lv_font.h **** #define LV_FONT_WIDTH_FRACT_DIGIT       4
  33:..\..\..\lvgl\version_6.1.2\lvgl\src\lv_objx\../lv_core/../lv_font/lv_font.h **** 
  34:..\..\..\lvgl\version_6.1.2\lvgl\src\lv_objx\../lv_core/../lv_font/lv_font.h **** #define LV_FONT_KERN_POSITIVE        0
  35:..\..\..\lvgl\version_6.1.2\lvgl\src\lv_objx\../lv_core/../lv_font/lv_font.h **** #define LV_FONT_KERN_NEGATIVE        1
  36:..\..\..\lvgl\version_6.1.2\lvgl\src\lv_objx\../lv_core/../lv_font/lv_font.h **** 
  37:..\..\..\lvgl\version_6.1.2\lvgl\src\lv_objx\../lv_core/../lv_font/lv_font.h **** /**********************
  38:..\..\..\lvgl\version_6.1.2\lvgl\src\lv_objx\../lv_core/../lv_font/lv_font.h ****  *      TYPEDEFS
  39:..\..\..\lvgl\version_6.1.2\lvgl\src\lv_objx\../lv_core/../lv_font/lv_font.h ****  **********************/
  40:..\..\..\lvgl\version_6.1.2\lvgl\src\lv_objx\../lv_core/../lv_font/lv_font.h **** 
  41:..\..\..\lvgl\version_6.1.2\lvgl\src\lv_objx\../lv_core/../lv_font/lv_font.h **** /*------------------
  42:..\..\..\lvgl\version_6.1.2\lvgl\src\lv_objx\../lv_core/../lv_font/lv_font.h ****  * General types
  43:..\..\..\lvgl\version_6.1.2\lvgl\src\lv_objx\../lv_core/../lv_font/lv_font.h ****  *-----------------*/
  44:..\..\..\lvgl\version_6.1.2\lvgl\src\lv_objx\../lv_core/../lv_font/lv_font.h **** 
  45:..\..\..\lvgl\version_6.1.2\lvgl\src\lv_objx\../lv_core/../lv_font/lv_font.h **** /** Describes the properties of a glyph. */
  46:..\..\..\lvgl\version_6.1.2\lvgl\src\lv_objx\../lv_core/../lv_font/lv_font.h **** typedef struct
  47:..\..\..\lvgl\version_6.1.2\lvgl\src\lv_objx\../lv_core/../lv_font/lv_font.h **** {
  48:..\..\..\lvgl\version_6.1.2\lvgl\src\lv_objx\../lv_core/../lv_font/lv_font.h ****     uint16_t adv_w; /**< The glyph needs this space. Draw the next glyph after this width. 8 bit in
  49:..\..\..\lvgl\version_6.1.2\lvgl\src\lv_objx\../lv_core/../lv_font/lv_font.h ****     uint8_t box_w;  /**< Width of the glyph's bounding box*/
  50:..\..\..\lvgl\version_6.1.2\lvgl\src\lv_objx\../lv_core/../lv_font/lv_font.h ****     uint8_t box_h;  /**< Height of the glyph's bounding box*/
  51:..\..\..\lvgl\version_6.1.2\lvgl\src\lv_objx\../lv_core/../lv_font/lv_font.h ****     int8_t ofs_x;   /**< x offset of the bounding box*/
  52:..\..\..\lvgl\version_6.1.2\lvgl\src\lv_objx\../lv_core/../lv_font/lv_font.h ****     int8_t ofs_y;  /**< y offset of the bounding box*/
  53:..\..\..\lvgl\version_6.1.2\lvgl\src\lv_objx\../lv_core/../lv_font/lv_font.h ****     uint8_t bpp;   /**< Bit-per-pixel: 1, 2, 4, 8*/
  54:..\..\..\lvgl\version_6.1.2\lvgl\src\lv_objx\../lv_core/../lv_font/lv_font.h **** }lv_font_glyph_dsc_t;
  55:..\..\..\lvgl\version_6.1.2\lvgl\src\lv_objx\../lv_core/../lv_font/lv_font.h **** 
  56:..\..\..\lvgl\version_6.1.2\lvgl\src\lv_objx\../lv_core/../lv_font/lv_font.h **** 
  57:..\..\..\lvgl\version_6.1.2\lvgl\src\lv_objx\../lv_core/../lv_font/lv_font.h **** /** The bitmaps might be upscaled by 3 to achieve subpixel rendering. */
  58:..\..\..\lvgl\version_6.1.2\lvgl\src\lv_objx\../lv_core/../lv_font/lv_font.h **** enum {
  59:..\..\..\lvgl\version_6.1.2\lvgl\src\lv_objx\../lv_core/../lv_font/lv_font.h ****     LV_FONT_SUBPX_NONE,
  60:..\..\..\lvgl\version_6.1.2\lvgl\src\lv_objx\../lv_core/../lv_font/lv_font.h ****     LV_FONT_SUBPX_HOR,
  61:..\..\..\lvgl\version_6.1.2\lvgl\src\lv_objx\../lv_core/../lv_font/lv_font.h ****     LV_FONT_SUBPX_VER,
  62:..\..\..\lvgl\version_6.1.2\lvgl\src\lv_objx\../lv_core/../lv_font/lv_font.h ****     LV_FONT_SUBPX_BOTH,
  63:..\..\..\lvgl\version_6.1.2\lvgl\src\lv_objx\../lv_core/../lv_font/lv_font.h **** };
  64:..\..\..\lvgl\version_6.1.2\lvgl\src\lv_objx\../lv_core/../lv_font/lv_font.h **** 
  65:..\..\..\lvgl\version_6.1.2\lvgl\src\lv_objx\../lv_core/../lv_font/lv_font.h **** typedef uint8_t lv_font_subpx_t;
  66:..\..\..\lvgl\version_6.1.2\lvgl\src\lv_objx\../lv_core/../lv_font/lv_font.h **** 
  67:..\..\..\lvgl\version_6.1.2\lvgl\src\lv_objx\../lv_core/../lv_font/lv_font.h **** /** Describe the properties of a font*/
  68:..\..\..\lvgl\version_6.1.2\lvgl\src\lv_objx\../lv_core/../lv_font/lv_font.h **** typedef struct _lv_font_struct
  69:..\..\..\lvgl\version_6.1.2\lvgl\src\lv_objx\../lv_core/../lv_font/lv_font.h **** {
  70:..\..\..\lvgl\version_6.1.2\lvgl\src\lv_objx\../lv_core/../lv_font/lv_font.h ****     /** Get a glyph's  descriptor from a font*/
  71:..\..\..\lvgl\version_6.1.2\lvgl\src\lv_objx\../lv_core/../lv_font/lv_font.h ****     bool (*get_glyph_dsc)(const struct _lv_font_struct *, lv_font_glyph_dsc_t *, uint32_t letter, u
  72:..\..\..\lvgl\version_6.1.2\lvgl\src\lv_objx\../lv_core/../lv_font/lv_font.h **** 
  73:..\..\..\lvgl\version_6.1.2\lvgl\src\lv_objx\../lv_core/../lv_font/lv_font.h ****     /** Get a glyph's bitmap from a font*/
  74:..\..\..\lvgl\version_6.1.2\lvgl\src\lv_objx\../lv_core/../lv_font/lv_font.h ****     const uint8_t * (*get_glyph_bitmap)(const struct _lv_font_struct *, uint32_t);
  75:..\..\..\lvgl\version_6.1.2\lvgl\src\lv_objx\../lv_core/../lv_font/lv_font.h **** 
  76:..\..\..\lvgl\version_6.1.2\lvgl\src\lv_objx\../lv_core/../lv_font/lv_font.h ****     /*Pointer to the font in a font pack (must have the same line height)*/
  77:..\..\..\lvgl\version_6.1.2\lvgl\src\lv_objx\../lv_core/../lv_font/lv_font.h ****     uint8_t line_height;      /**< The real line height where any text fits*/
  78:..\..\..\lvgl\version_6.1.2\lvgl\src\lv_objx\../lv_core/../lv_font/lv_font.h ****     int8_t base_line;        /**< Base line measured from the top of the line_height*/
  79:..\..\..\lvgl\version_6.1.2\lvgl\src\lv_objx\../lv_core/../lv_font/lv_font.h ****     uint8_t subpx  :2;        /**< An element of `lv_font_subpx_t`*/
  80:..\..\..\lvgl\version_6.1.2\lvgl\src\lv_objx\../lv_core/../lv_font/lv_font.h ****     void * dsc;               /**< Store implementation specific or run_time data or caching here*/
  81:..\..\..\lvgl\version_6.1.2\lvgl\src\lv_objx\../lv_core/../lv_font/lv_font.h **** #if LV_USE_USER_DATA
  82:..\..\..\lvgl\version_6.1.2\lvgl\src\lv_objx\../lv_core/../lv_font/lv_font.h ****     lv_font_user_data_t user_data; /**< Custom user data for font. */
  83:..\..\..\lvgl\version_6.1.2\lvgl\src\lv_objx\../lv_core/../lv_font/lv_font.h **** #endif
  84:..\..\..\lvgl\version_6.1.2\lvgl\src\lv_objx\../lv_core/../lv_font/lv_font.h **** 
  85:..\..\..\lvgl\version_6.1.2\lvgl\src\lv_objx\../lv_core/../lv_font/lv_font.h **** 
  86:..\..\..\lvgl\version_6.1.2\lvgl\src\lv_objx\../lv_core/../lv_font/lv_font.h **** } lv_font_t;
  87:..\..\..\lvgl\version_6.1.2\lvgl\src\lv_objx\../lv_core/../lv_font/lv_font.h **** 
ARM GAS  C:\Users\tmj32\AppData\Local\Temp\ccSNdAsc.s 			page 3


  88:..\..\..\lvgl\version_6.1.2\lvgl\src\lv_objx\../lv_core/../lv_font/lv_font.h **** /**********************
  89:..\..\..\lvgl\version_6.1.2\lvgl\src\lv_objx\../lv_core/../lv_font/lv_font.h ****  * GLOBAL PROTOTYPES
  90:..\..\..\lvgl\version_6.1.2\lvgl\src\lv_objx\../lv_core/../lv_font/lv_font.h ****  **********************/
  91:..\..\..\lvgl\version_6.1.2\lvgl\src\lv_objx\../lv_core/../lv_font/lv_font.h **** 
  92:..\..\..\lvgl\version_6.1.2\lvgl\src\lv_objx\../lv_core/../lv_font/lv_font.h **** /**
  93:..\..\..\lvgl\version_6.1.2\lvgl\src\lv_objx\../lv_core/../lv_font/lv_font.h ****  * Return with the bitmap of a font.
  94:..\..\..\lvgl\version_6.1.2\lvgl\src\lv_objx\../lv_core/../lv_font/lv_font.h ****  * @param font_p pointer to a font
  95:..\..\..\lvgl\version_6.1.2\lvgl\src\lv_objx\../lv_core/../lv_font/lv_font.h ****  * @param letter an UNICODE character code
  96:..\..\..\lvgl\version_6.1.2\lvgl\src\lv_objx\../lv_core/../lv_font/lv_font.h ****  * @return  pointer to the bitmap of the letter
  97:..\..\..\lvgl\version_6.1.2\lvgl\src\lv_objx\../lv_core/../lv_font/lv_font.h ****  */
  98:..\..\..\lvgl\version_6.1.2\lvgl\src\lv_objx\../lv_core/../lv_font/lv_font.h **** const uint8_t * lv_font_get_glyph_bitmap(const lv_font_t * font_p, uint32_t letter);
  99:..\..\..\lvgl\version_6.1.2\lvgl\src\lv_objx\../lv_core/../lv_font/lv_font.h **** 
 100:..\..\..\lvgl\version_6.1.2\lvgl\src\lv_objx\../lv_core/../lv_font/lv_font.h **** /**
 101:..\..\..\lvgl\version_6.1.2\lvgl\src\lv_objx\../lv_core/../lv_font/lv_font.h ****  * Get the descriptor of a glyph
 102:..\..\..\lvgl\version_6.1.2\lvgl\src\lv_objx\../lv_core/../lv_font/lv_font.h ****  * @param font_p pointer to font
 103:..\..\..\lvgl\version_6.1.2\lvgl\src\lv_objx\../lv_core/../lv_font/lv_font.h ****  * @param dsc_out store the result descriptor here
 104:..\..\..\lvgl\version_6.1.2\lvgl\src\lv_objx\../lv_core/../lv_font/lv_font.h ****  * @param letter an UNICODE letter code
 105:..\..\..\lvgl\version_6.1.2\lvgl\src\lv_objx\../lv_core/../lv_font/lv_font.h ****  * @return true: descriptor is successfully loaded into `dsc_out`.
 106:..\..\..\lvgl\version_6.1.2\lvgl\src\lv_objx\../lv_core/../lv_font/lv_font.h ****  *         false: the letter was not found, no data is loaded to `dsc_out`
 107:..\..\..\lvgl\version_6.1.2\lvgl\src\lv_objx\../lv_core/../lv_font/lv_font.h ****  */
 108:..\..\..\lvgl\version_6.1.2\lvgl\src\lv_objx\../lv_core/../lv_font/lv_font.h **** bool lv_font_get_glyph_dsc(const lv_font_t * font_p, lv_font_glyph_dsc_t * dsc_out, uint32_t letter
 109:..\..\..\lvgl\version_6.1.2\lvgl\src\lv_objx\../lv_core/../lv_font/lv_font.h **** 
 110:..\..\..\lvgl\version_6.1.2\lvgl\src\lv_objx\../lv_core/../lv_font/lv_font.h **** /**
 111:..\..\..\lvgl\version_6.1.2\lvgl\src\lv_objx\../lv_core/../lv_font/lv_font.h ****  * Get the width of a glyph with kerning
 112:..\..\..\lvgl\version_6.1.2\lvgl\src\lv_objx\../lv_core/../lv_font/lv_font.h ****  * @param font pointer to a font
 113:..\..\..\lvgl\version_6.1.2\lvgl\src\lv_objx\../lv_core/../lv_font/lv_font.h ****  * @param letter an UNICODE letter
 114:..\..\..\lvgl\version_6.1.2\lvgl\src\lv_objx\../lv_core/../lv_font/lv_font.h ****  * @param letter_next the next letter after `letter`. Used for kerning
 115:..\..\..\lvgl\version_6.1.2\lvgl\src\lv_objx\../lv_core/../lv_font/lv_font.h ****  * @return the width of the glyph
 116:..\..\..\lvgl\version_6.1.2\lvgl\src\lv_objx\../lv_core/../lv_font/lv_font.h ****  */
 117:..\..\..\lvgl\version_6.1.2\lvgl\src\lv_objx\../lv_core/../lv_font/lv_font.h **** uint16_t lv_font_get_glyph_width(const lv_font_t * font, uint32_t letter, uint32_t letter_next);
 118:..\..\..\lvgl\version_6.1.2\lvgl\src\lv_objx\../lv_core/../lv_font/lv_font.h **** 
 119:..\..\..\lvgl\version_6.1.2\lvgl\src\lv_objx\../lv_core/../lv_font/lv_font.h **** /**
 120:..\..\..\lvgl\version_6.1.2\lvgl\src\lv_objx\../lv_core/../lv_font/lv_font.h ****  * Get the line height of a font. All characters fit into this height
 121:..\..\..\lvgl\version_6.1.2\lvgl\src\lv_objx\../lv_core/../lv_font/lv_font.h ****  * @param font_p pointer to a font
 122:..\..\..\lvgl\version_6.1.2\lvgl\src\lv_objx\../lv_core/../lv_font/lv_font.h ****  * @return the height of a font
 123:..\..\..\lvgl\version_6.1.2\lvgl\src\lv_objx\../lv_core/../lv_font/lv_font.h ****  */
 124:..\..\..\lvgl\version_6.1.2\lvgl\src\lv_objx\../lv_core/../lv_font/lv_font.h **** static inline uint8_t lv_font_get_line_height(const lv_font_t * font_p)
 125:..\..\..\lvgl\version_6.1.2\lvgl\src\lv_objx\../lv_core/../lv_font/lv_font.h **** {
  28              		.loc 1 125 0
  29              		.cfi_startproc
  30              		@ args = 0, pretend = 0, frame = 8
  31              		@ frame_needed = 1, uses_anonymous_args = 0
  32              		@ link register save eliminated.
  33 0000 80B4     		push	{r7}
  34              		.cfi_def_cfa_offset 4
  35              		.cfi_offset 7, -4
  36 0002 83B0     		sub	sp, sp, #12
  37              		.cfi_def_cfa_offset 16
  38 0004 00AF     		add	r7, sp, #0
  39              		.cfi_def_cfa_register 7
  40 0006 7860     		str	r0, [r7, #4]
 126:..\..\..\lvgl\version_6.1.2\lvgl\src\lv_objx\../lv_core/../lv_font/lv_font.h ****     return font_p->line_height;
  41              		.loc 1 126 0
  42 0008 7B68     		ldr	r3, [r7, #4]
  43 000a 1B7A     		ldrb	r3, [r3, #8]	@ zero_extendqisi2
 127:..\..\..\lvgl\version_6.1.2\lvgl\src\lv_objx\../lv_core/../lv_font/lv_font.h **** }
  44              		.loc 1 127 0
ARM GAS  C:\Users\tmj32\AppData\Local\Temp\ccSNdAsc.s 			page 4


  45 000c 1846     		mov	r0, r3
  46 000e 0C37     		adds	r7, r7, #12
  47              		.cfi_def_cfa_offset 4
  48 0010 BD46     		mov	sp, r7
  49              		.cfi_def_cfa_register 13
  50              		@ sp needed
  51 0012 5DF8047B 		ldr	r7, [sp], #4
  52              		.cfi_restore 7
  53              		.cfi_def_cfa_offset 0
  54 0016 7047     		bx	lr
  55              		.cfi_endproc
  56              	.LFE0:
  57              		.size	lv_font_get_line_height, .-lv_font_get_line_height
  58              		.section	.text.lv_area_get_width,"ax",%progbits
  59              		.align	2
  60              		.thumb
  61              		.thumb_func
  62              		.type	lv_area_get_width, %function
  63              	lv_area_get_width:
  64              	.LFB11:
  65              		.file 2 "..\\..\\..\\lvgl\\version_6.1.2\\lvgl\\src\\lv_objx\\../lv_core/../lv_misc/lv_area.h"
   1:..\..\..\lvgl\version_6.1.2\lvgl\src\lv_objx\../lv_core/../lv_misc/lv_area.h **** /**
   2:..\..\..\lvgl\version_6.1.2\lvgl\src\lv_objx\../lv_core/../lv_misc/lv_area.h ****  * @file lv_area.h
   3:..\..\..\lvgl\version_6.1.2\lvgl\src\lv_objx\../lv_core/../lv_misc/lv_area.h ****  *
   4:..\..\..\lvgl\version_6.1.2\lvgl\src\lv_objx\../lv_core/../lv_misc/lv_area.h ****  */
   5:..\..\..\lvgl\version_6.1.2\lvgl\src\lv_objx\../lv_core/../lv_misc/lv_area.h **** 
   6:..\..\..\lvgl\version_6.1.2\lvgl\src\lv_objx\../lv_core/../lv_misc/lv_area.h **** #ifndef LV_AREA_H
   7:..\..\..\lvgl\version_6.1.2\lvgl\src\lv_objx\../lv_core/../lv_misc/lv_area.h **** #define LV_AREA_H
   8:..\..\..\lvgl\version_6.1.2\lvgl\src\lv_objx\../lv_core/../lv_misc/lv_area.h **** 
   9:..\..\..\lvgl\version_6.1.2\lvgl\src\lv_objx\../lv_core/../lv_misc/lv_area.h **** #ifdef __cplusplus
  10:..\..\..\lvgl\version_6.1.2\lvgl\src\lv_objx\../lv_core/../lv_misc/lv_area.h **** extern "C" {
  11:..\..\..\lvgl\version_6.1.2\lvgl\src\lv_objx\../lv_core/../lv_misc/lv_area.h **** #endif
  12:..\..\..\lvgl\version_6.1.2\lvgl\src\lv_objx\../lv_core/../lv_misc/lv_area.h **** 
  13:..\..\..\lvgl\version_6.1.2\lvgl\src\lv_objx\../lv_core/../lv_misc/lv_area.h **** /*********************
  14:..\..\..\lvgl\version_6.1.2\lvgl\src\lv_objx\../lv_core/../lv_misc/lv_area.h ****  *      INCLUDES
  15:..\..\..\lvgl\version_6.1.2\lvgl\src\lv_objx\../lv_core/../lv_misc/lv_area.h ****  *********************/
  16:..\..\..\lvgl\version_6.1.2\lvgl\src\lv_objx\../lv_core/../lv_misc/lv_area.h **** #include <string.h>
  17:..\..\..\lvgl\version_6.1.2\lvgl\src\lv_objx\../lv_core/../lv_misc/lv_area.h **** #include <stdbool.h>
  18:..\..\..\lvgl\version_6.1.2\lvgl\src\lv_objx\../lv_core/../lv_misc/lv_area.h **** #include <stdint.h>
  19:..\..\..\lvgl\version_6.1.2\lvgl\src\lv_objx\../lv_core/../lv_misc/lv_area.h **** #ifdef LV_CONF_INCLUDE_SIMPLE
  20:..\..\..\lvgl\version_6.1.2\lvgl\src\lv_objx\../lv_core/../lv_misc/lv_area.h **** #include "lv_conf.h"
  21:..\..\..\lvgl\version_6.1.2\lvgl\src\lv_objx\../lv_core/../lv_misc/lv_area.h **** #else
  22:..\..\..\lvgl\version_6.1.2\lvgl\src\lv_objx\../lv_core/../lv_misc/lv_area.h **** #include "../../../lv_conf.h"
  23:..\..\..\lvgl\version_6.1.2\lvgl\src\lv_objx\../lv_core/../lv_misc/lv_area.h **** #endif
  24:..\..\..\lvgl\version_6.1.2\lvgl\src\lv_objx\../lv_core/../lv_misc/lv_area.h **** 
  25:..\..\..\lvgl\version_6.1.2\lvgl\src\lv_objx\../lv_core/../lv_misc/lv_area.h **** /*********************
  26:..\..\..\lvgl\version_6.1.2\lvgl\src\lv_objx\../lv_core/../lv_misc/lv_area.h ****  *      DEFINES
  27:..\..\..\lvgl\version_6.1.2\lvgl\src\lv_objx\../lv_core/../lv_misc/lv_area.h ****  *********************/
  28:..\..\..\lvgl\version_6.1.2\lvgl\src\lv_objx\../lv_core/../lv_misc/lv_area.h **** /*To avoid overflow don't let the max ranges (reduce with 1000) */
  29:..\..\..\lvgl\version_6.1.2\lvgl\src\lv_objx\../lv_core/../lv_misc/lv_area.h **** #define LV_COORD_MAX ((lv_coord_t)((uint32_t)((uint32_t)1 << (8 * sizeof(lv_coord_t) - 1)) - 1000))
  30:..\..\..\lvgl\version_6.1.2\lvgl\src\lv_objx\../lv_core/../lv_misc/lv_area.h **** #define LV_COORD_MIN (-LV_COORD_MAX)
  31:..\..\..\lvgl\version_6.1.2\lvgl\src\lv_objx\../lv_core/../lv_misc/lv_area.h **** 
  32:..\..\..\lvgl\version_6.1.2\lvgl\src\lv_objx\../lv_core/../lv_misc/lv_area.h **** LV_EXPORT_CONST_INT(LV_COORD_MAX);
  33:..\..\..\lvgl\version_6.1.2\lvgl\src\lv_objx\../lv_core/../lv_misc/lv_area.h **** LV_EXPORT_CONST_INT(LV_COORD_MIN);
  34:..\..\..\lvgl\version_6.1.2\lvgl\src\lv_objx\../lv_core/../lv_misc/lv_area.h **** 
  35:..\..\..\lvgl\version_6.1.2\lvgl\src\lv_objx\../lv_core/../lv_misc/lv_area.h **** /**********************
  36:..\..\..\lvgl\version_6.1.2\lvgl\src\lv_objx\../lv_core/../lv_misc/lv_area.h ****  *      TYPEDEFS
ARM GAS  C:\Users\tmj32\AppData\Local\Temp\ccSNdAsc.s 			page 5


  37:..\..\..\lvgl\version_6.1.2\lvgl\src\lv_objx\../lv_core/../lv_misc/lv_area.h ****  **********************/
  38:..\..\..\lvgl\version_6.1.2\lvgl\src\lv_objx\../lv_core/../lv_misc/lv_area.h **** 
  39:..\..\..\lvgl\version_6.1.2\lvgl\src\lv_objx\../lv_core/../lv_misc/lv_area.h **** /**
  40:..\..\..\lvgl\version_6.1.2\lvgl\src\lv_objx\../lv_core/../lv_misc/lv_area.h ****  * Represents a point on the screen.
  41:..\..\..\lvgl\version_6.1.2\lvgl\src\lv_objx\../lv_core/../lv_misc/lv_area.h ****  */
  42:..\..\..\lvgl\version_6.1.2\lvgl\src\lv_objx\../lv_core/../lv_misc/lv_area.h **** typedef struct
  43:..\..\..\lvgl\version_6.1.2\lvgl\src\lv_objx\../lv_core/../lv_misc/lv_area.h **** {
  44:..\..\..\lvgl\version_6.1.2\lvgl\src\lv_objx\../lv_core/../lv_misc/lv_area.h ****     lv_coord_t x;
  45:..\..\..\lvgl\version_6.1.2\lvgl\src\lv_objx\../lv_core/../lv_misc/lv_area.h ****     lv_coord_t y;
  46:..\..\..\lvgl\version_6.1.2\lvgl\src\lv_objx\../lv_core/../lv_misc/lv_area.h **** } lv_point_t;
  47:..\..\..\lvgl\version_6.1.2\lvgl\src\lv_objx\../lv_core/../lv_misc/lv_area.h **** 
  48:..\..\..\lvgl\version_6.1.2\lvgl\src\lv_objx\../lv_core/../lv_misc/lv_area.h **** /** Represents an area of the screen. */
  49:..\..\..\lvgl\version_6.1.2\lvgl\src\lv_objx\../lv_core/../lv_misc/lv_area.h **** typedef struct
  50:..\..\..\lvgl\version_6.1.2\lvgl\src\lv_objx\../lv_core/../lv_misc/lv_area.h **** {
  51:..\..\..\lvgl\version_6.1.2\lvgl\src\lv_objx\../lv_core/../lv_misc/lv_area.h ****     lv_coord_t x1;
  52:..\..\..\lvgl\version_6.1.2\lvgl\src\lv_objx\../lv_core/../lv_misc/lv_area.h ****     lv_coord_t y1;
  53:..\..\..\lvgl\version_6.1.2\lvgl\src\lv_objx\../lv_core/../lv_misc/lv_area.h ****     lv_coord_t x2;
  54:..\..\..\lvgl\version_6.1.2\lvgl\src\lv_objx\../lv_core/../lv_misc/lv_area.h ****     lv_coord_t y2;
  55:..\..\..\lvgl\version_6.1.2\lvgl\src\lv_objx\../lv_core/../lv_misc/lv_area.h **** } lv_area_t;
  56:..\..\..\lvgl\version_6.1.2\lvgl\src\lv_objx\../lv_core/../lv_misc/lv_area.h **** 
  57:..\..\..\lvgl\version_6.1.2\lvgl\src\lv_objx\../lv_core/../lv_misc/lv_area.h **** /**********************
  58:..\..\..\lvgl\version_6.1.2\lvgl\src\lv_objx\../lv_core/../lv_misc/lv_area.h ****  * GLOBAL PROTOTYPES
  59:..\..\..\lvgl\version_6.1.2\lvgl\src\lv_objx\../lv_core/../lv_misc/lv_area.h ****  **********************/
  60:..\..\..\lvgl\version_6.1.2\lvgl\src\lv_objx\../lv_core/../lv_misc/lv_area.h **** 
  61:..\..\..\lvgl\version_6.1.2\lvgl\src\lv_objx\../lv_core/../lv_misc/lv_area.h **** /**
  62:..\..\..\lvgl\version_6.1.2\lvgl\src\lv_objx\../lv_core/../lv_misc/lv_area.h ****  * Initialize an area
  63:..\..\..\lvgl\version_6.1.2\lvgl\src\lv_objx\../lv_core/../lv_misc/lv_area.h ****  * @param area_p pointer to an area
  64:..\..\..\lvgl\version_6.1.2\lvgl\src\lv_objx\../lv_core/../lv_misc/lv_area.h ****  * @param x1 left coordinate of the area
  65:..\..\..\lvgl\version_6.1.2\lvgl\src\lv_objx\../lv_core/../lv_misc/lv_area.h ****  * @param y1 top coordinate of the area
  66:..\..\..\lvgl\version_6.1.2\lvgl\src\lv_objx\../lv_core/../lv_misc/lv_area.h ****  * @param x2 right coordinate of the area
  67:..\..\..\lvgl\version_6.1.2\lvgl\src\lv_objx\../lv_core/../lv_misc/lv_area.h ****  * @param y2 bottom coordinate of the area
  68:..\..\..\lvgl\version_6.1.2\lvgl\src\lv_objx\../lv_core/../lv_misc/lv_area.h ****  */
  69:..\..\..\lvgl\version_6.1.2\lvgl\src\lv_objx\../lv_core/../lv_misc/lv_area.h **** void lv_area_set(lv_area_t * area_p, lv_coord_t x1, lv_coord_t y1, lv_coord_t x2, lv_coord_t y2);
  70:..\..\..\lvgl\version_6.1.2\lvgl\src\lv_objx\../lv_core/../lv_misc/lv_area.h **** 
  71:..\..\..\lvgl\version_6.1.2\lvgl\src\lv_objx\../lv_core/../lv_misc/lv_area.h **** /**
  72:..\..\..\lvgl\version_6.1.2\lvgl\src\lv_objx\../lv_core/../lv_misc/lv_area.h ****  * Copy an area
  73:..\..\..\lvgl\version_6.1.2\lvgl\src\lv_objx\../lv_core/../lv_misc/lv_area.h ****  * @param dest pointer to the destination area
  74:..\..\..\lvgl\version_6.1.2\lvgl\src\lv_objx\../lv_core/../lv_misc/lv_area.h ****  * @param src pointer to the source area
  75:..\..\..\lvgl\version_6.1.2\lvgl\src\lv_objx\../lv_core/../lv_misc/lv_area.h ****  */
  76:..\..\..\lvgl\version_6.1.2\lvgl\src\lv_objx\../lv_core/../lv_misc/lv_area.h **** inline static void lv_area_copy(lv_area_t * dest, const lv_area_t * src)
  77:..\..\..\lvgl\version_6.1.2\lvgl\src\lv_objx\../lv_core/../lv_misc/lv_area.h **** {
  78:..\..\..\lvgl\version_6.1.2\lvgl\src\lv_objx\../lv_core/../lv_misc/lv_area.h ****     memcpy(dest, src, sizeof(lv_area_t));
  79:..\..\..\lvgl\version_6.1.2\lvgl\src\lv_objx\../lv_core/../lv_misc/lv_area.h **** }
  80:..\..\..\lvgl\version_6.1.2\lvgl\src\lv_objx\../lv_core/../lv_misc/lv_area.h **** 
  81:..\..\..\lvgl\version_6.1.2\lvgl\src\lv_objx\../lv_core/../lv_misc/lv_area.h **** /**
  82:..\..\..\lvgl\version_6.1.2\lvgl\src\lv_objx\../lv_core/../lv_misc/lv_area.h ****  * Get the width of an area
  83:..\..\..\lvgl\version_6.1.2\lvgl\src\lv_objx\../lv_core/../lv_misc/lv_area.h ****  * @param area_p pointer to an area
  84:..\..\..\lvgl\version_6.1.2\lvgl\src\lv_objx\../lv_core/../lv_misc/lv_area.h ****  * @return the width of the area (if x1 == x2 -> width = 1)
  85:..\..\..\lvgl\version_6.1.2\lvgl\src\lv_objx\../lv_core/../lv_misc/lv_area.h ****  */
  86:..\..\..\lvgl\version_6.1.2\lvgl\src\lv_objx\../lv_core/../lv_misc/lv_area.h **** static inline lv_coord_t lv_area_get_width(const lv_area_t * area_p)
  87:..\..\..\lvgl\version_6.1.2\lvgl\src\lv_objx\../lv_core/../lv_misc/lv_area.h **** {
  66              		.loc 2 87 0
  67              		.cfi_startproc
  68              		@ args = 0, pretend = 0, frame = 8
  69              		@ frame_needed = 1, uses_anonymous_args = 0
  70              		@ link register save eliminated.
  71 0000 80B4     		push	{r7}
ARM GAS  C:\Users\tmj32\AppData\Local\Temp\ccSNdAsc.s 			page 6


  72              		.cfi_def_cfa_offset 4
  73              		.cfi_offset 7, -4
  74 0002 83B0     		sub	sp, sp, #12
  75              		.cfi_def_cfa_offset 16
  76 0004 00AF     		add	r7, sp, #0
  77              		.cfi_def_cfa_register 7
  78 0006 7860     		str	r0, [r7, #4]
  88:..\..\..\lvgl\version_6.1.2\lvgl\src\lv_objx\../lv_core/../lv_misc/lv_area.h ****     return (lv_coord_t)(area_p->x2 - area_p->x1 + 1);
  79              		.loc 2 88 0
  80 0008 7B68     		ldr	r3, [r7, #4]
  81 000a B3F90430 		ldrsh	r3, [r3, #4]
  82 000e 9AB2     		uxth	r2, r3
  83 0010 7B68     		ldr	r3, [r7, #4]
  84 0012 B3F90030 		ldrsh	r3, [r3]
  85 0016 9BB2     		uxth	r3, r3
  86 0018 D31A     		subs	r3, r2, r3
  87 001a 9BB2     		uxth	r3, r3
  88 001c 0133     		adds	r3, r3, #1
  89 001e 9BB2     		uxth	r3, r3
  90 0020 1BB2     		sxth	r3, r3
  89:..\..\..\lvgl\version_6.1.2\lvgl\src\lv_objx\../lv_core/../lv_misc/lv_area.h **** }
  91              		.loc 2 89 0
  92 0022 1846     		mov	r0, r3
  93 0024 0C37     		adds	r7, r7, #12
  94              		.cfi_def_cfa_offset 4
  95 0026 BD46     		mov	sp, r7
  96              		.cfi_def_cfa_register 13
  97              		@ sp needed
  98 0028 5DF8047B 		ldr	r7, [sp], #4
  99              		.cfi_restore 7
 100              		.cfi_def_cfa_offset 0
 101 002c 7047     		bx	lr
 102              		.cfi_endproc
 103              	.LFE11:
 104              		.size	lv_area_get_width, .-lv_area_get_width
 105 002e 00BF     		.section	.text.lv_cont_set_fit2,"ax",%progbits
 106              		.align	2
 107              		.thumb
 108              		.thumb_func
 109              		.type	lv_cont_set_fit2, %function
 110              	lv_cont_set_fit2:
 111              	.LFB31:
 112              		.file 3 "..\\..\\..\\lvgl\\version_6.1.2\\lvgl\\src\\lv_objx\\lv_cont.h"
   1:..\..\..\lvgl\version_6.1.2\lvgl\src\lv_objx/lv_cont.h **** /**
   2:..\..\..\lvgl\version_6.1.2\lvgl\src\lv_objx/lv_cont.h ****  * @file lv_cont.h
   3:..\..\..\lvgl\version_6.1.2\lvgl\src\lv_objx/lv_cont.h ****  *
   4:..\..\..\lvgl\version_6.1.2\lvgl\src\lv_objx/lv_cont.h ****  */
   5:..\..\..\lvgl\version_6.1.2\lvgl\src\lv_objx/lv_cont.h **** 
   6:..\..\..\lvgl\version_6.1.2\lvgl\src\lv_objx/lv_cont.h **** #ifndef LV_CONT_H
   7:..\..\..\lvgl\version_6.1.2\lvgl\src\lv_objx/lv_cont.h **** #define LV_CONT_H
   8:..\..\..\lvgl\version_6.1.2\lvgl\src\lv_objx/lv_cont.h **** 
   9:..\..\..\lvgl\version_6.1.2\lvgl\src\lv_objx/lv_cont.h **** #ifdef __cplusplus
  10:..\..\..\lvgl\version_6.1.2\lvgl\src\lv_objx/lv_cont.h **** extern "C" {
  11:..\..\..\lvgl\version_6.1.2\lvgl\src\lv_objx/lv_cont.h **** #endif
  12:..\..\..\lvgl\version_6.1.2\lvgl\src\lv_objx/lv_cont.h **** 
  13:..\..\..\lvgl\version_6.1.2\lvgl\src\lv_objx/lv_cont.h **** /*********************
  14:..\..\..\lvgl\version_6.1.2\lvgl\src\lv_objx/lv_cont.h ****  *      INCLUDES
ARM GAS  C:\Users\tmj32\AppData\Local\Temp\ccSNdAsc.s 			page 7


  15:..\..\..\lvgl\version_6.1.2\lvgl\src\lv_objx/lv_cont.h ****  *********************/
  16:..\..\..\lvgl\version_6.1.2\lvgl\src\lv_objx/lv_cont.h **** #ifdef LV_CONF_INCLUDE_SIMPLE
  17:..\..\..\lvgl\version_6.1.2\lvgl\src\lv_objx/lv_cont.h **** #include "lv_conf.h"
  18:..\..\..\lvgl\version_6.1.2\lvgl\src\lv_objx/lv_cont.h **** #else
  19:..\..\..\lvgl\version_6.1.2\lvgl\src\lv_objx/lv_cont.h **** #include "../../../lv_conf.h"
  20:..\..\..\lvgl\version_6.1.2\lvgl\src\lv_objx/lv_cont.h **** #endif
  21:..\..\..\lvgl\version_6.1.2\lvgl\src\lv_objx/lv_cont.h **** 
  22:..\..\..\lvgl\version_6.1.2\lvgl\src\lv_objx/lv_cont.h **** #if LV_USE_CONT != 0
  23:..\..\..\lvgl\version_6.1.2\lvgl\src\lv_objx/lv_cont.h **** 
  24:..\..\..\lvgl\version_6.1.2\lvgl\src\lv_objx/lv_cont.h **** #include "../lv_core/lv_obj.h"
  25:..\..\..\lvgl\version_6.1.2\lvgl\src\lv_objx/lv_cont.h **** 
  26:..\..\..\lvgl\version_6.1.2\lvgl\src\lv_objx/lv_cont.h **** /*********************
  27:..\..\..\lvgl\version_6.1.2\lvgl\src\lv_objx/lv_cont.h ****  *      DEFINES
  28:..\..\..\lvgl\version_6.1.2\lvgl\src\lv_objx/lv_cont.h ****  *********************/
  29:..\..\..\lvgl\version_6.1.2\lvgl\src\lv_objx/lv_cont.h **** 
  30:..\..\..\lvgl\version_6.1.2\lvgl\src\lv_objx/lv_cont.h **** /**********************
  31:..\..\..\lvgl\version_6.1.2\lvgl\src\lv_objx/lv_cont.h ****  *      TYPEDEFS
  32:..\..\..\lvgl\version_6.1.2\lvgl\src\lv_objx/lv_cont.h ****  **********************/
  33:..\..\..\lvgl\version_6.1.2\lvgl\src\lv_objx/lv_cont.h **** 
  34:..\..\..\lvgl\version_6.1.2\lvgl\src\lv_objx/lv_cont.h **** /** Container layout options*/
  35:..\..\..\lvgl\version_6.1.2\lvgl\src\lv_objx/lv_cont.h **** enum {
  36:..\..\..\lvgl\version_6.1.2\lvgl\src\lv_objx/lv_cont.h ****     LV_LAYOUT_OFF = 0, /**< No layout */
  37:..\..\..\lvgl\version_6.1.2\lvgl\src\lv_objx/lv_cont.h ****     LV_LAYOUT_CENTER, /**< Center objects */
  38:..\..\..\lvgl\version_6.1.2\lvgl\src\lv_objx/lv_cont.h ****     LV_LAYOUT_COL_L,  /**< Column left align*/
  39:..\..\..\lvgl\version_6.1.2\lvgl\src\lv_objx/lv_cont.h ****     LV_LAYOUT_COL_M,  /**< Column middle align*/
  40:..\..\..\lvgl\version_6.1.2\lvgl\src\lv_objx/lv_cont.h ****     LV_LAYOUT_COL_R,  /**< Column right align*/
  41:..\..\..\lvgl\version_6.1.2\lvgl\src\lv_objx/lv_cont.h ****     LV_LAYOUT_ROW_T,  /**< Row top align*/
  42:..\..\..\lvgl\version_6.1.2\lvgl\src\lv_objx/lv_cont.h ****     LV_LAYOUT_ROW_M,  /**< Row middle align*/
  43:..\..\..\lvgl\version_6.1.2\lvgl\src\lv_objx/lv_cont.h ****     LV_LAYOUT_ROW_B,  /**< Row bottom align*/
  44:..\..\..\lvgl\version_6.1.2\lvgl\src\lv_objx/lv_cont.h ****     LV_LAYOUT_PRETTY, /**< Put as many object as possible in row and begin a new row*/
  45:..\..\..\lvgl\version_6.1.2\lvgl\src\lv_objx/lv_cont.h ****     LV_LAYOUT_GRID,   /**< Align same-sized object into a grid*/
  46:..\..\..\lvgl\version_6.1.2\lvgl\src\lv_objx/lv_cont.h ****     _LV_LAYOUT_NUM
  47:..\..\..\lvgl\version_6.1.2\lvgl\src\lv_objx/lv_cont.h **** };
  48:..\..\..\lvgl\version_6.1.2\lvgl\src\lv_objx/lv_cont.h **** typedef uint8_t lv_layout_t;
  49:..\..\..\lvgl\version_6.1.2\lvgl\src\lv_objx/lv_cont.h **** 
  50:..\..\..\lvgl\version_6.1.2\lvgl\src\lv_objx/lv_cont.h **** /**
  51:..\..\..\lvgl\version_6.1.2\lvgl\src\lv_objx/lv_cont.h ****  * How to resize the container around the children.
  52:..\..\..\lvgl\version_6.1.2\lvgl\src\lv_objx/lv_cont.h ****  */
  53:..\..\..\lvgl\version_6.1.2\lvgl\src\lv_objx/lv_cont.h **** enum {
  54:..\..\..\lvgl\version_6.1.2\lvgl\src\lv_objx/lv_cont.h ****     LV_FIT_NONE,  /**< Do not change the size automatically*/
  55:..\..\..\lvgl\version_6.1.2\lvgl\src\lv_objx/lv_cont.h ****     LV_FIT_TIGHT, /**< Shrink wrap around the children */
  56:..\..\..\lvgl\version_6.1.2\lvgl\src\lv_objx/lv_cont.h ****     LV_FIT_FLOOD, /**< Align the size to the parent's edge*/
  57:..\..\..\lvgl\version_6.1.2\lvgl\src\lv_objx/lv_cont.h ****     LV_FIT_FILL,  /**< Align the size to the parent's edge first but if there is an object out of i
  58:..\..\..\lvgl\version_6.1.2\lvgl\src\lv_objx/lv_cont.h ****                      then get larger */
  59:..\..\..\lvgl\version_6.1.2\lvgl\src\lv_objx/lv_cont.h ****     _LV_FIT_NUM
  60:..\..\..\lvgl\version_6.1.2\lvgl\src\lv_objx/lv_cont.h **** };
  61:..\..\..\lvgl\version_6.1.2\lvgl\src\lv_objx/lv_cont.h **** typedef uint8_t lv_fit_t;
  62:..\..\..\lvgl\version_6.1.2\lvgl\src\lv_objx/lv_cont.h **** 
  63:..\..\..\lvgl\version_6.1.2\lvgl\src\lv_objx/lv_cont.h **** typedef struct
  64:..\..\..\lvgl\version_6.1.2\lvgl\src\lv_objx/lv_cont.h **** {
  65:..\..\..\lvgl\version_6.1.2\lvgl\src\lv_objx/lv_cont.h ****     /*Inherited from 'base_obj' so no inherited ext. */ /*Ext. of ancestor*/
  66:..\..\..\lvgl\version_6.1.2\lvgl\src\lv_objx/lv_cont.h ****     /*New data for this type */
  67:..\..\..\lvgl\version_6.1.2\lvgl\src\lv_objx/lv_cont.h ****     uint8_t layout : 4;     /*A layout from 'lv_layout_t' enum*/
  68:..\..\..\lvgl\version_6.1.2\lvgl\src\lv_objx/lv_cont.h ****     uint8_t fit_left : 2;   /*A fit type from `lv_fit_t` enum */
  69:..\..\..\lvgl\version_6.1.2\lvgl\src\lv_objx/lv_cont.h ****     uint8_t fit_right : 2;  /*A fit type from `lv_fit_t` enum */
  70:..\..\..\lvgl\version_6.1.2\lvgl\src\lv_objx/lv_cont.h ****     uint8_t fit_top : 2;    /*A fit type from `lv_fit_t` enum */
  71:..\..\..\lvgl\version_6.1.2\lvgl\src\lv_objx/lv_cont.h ****     uint8_t fit_bottom : 2; /*A fit type from `lv_fit_t` enum */
ARM GAS  C:\Users\tmj32\AppData\Local\Temp\ccSNdAsc.s 			page 8


  72:..\..\..\lvgl\version_6.1.2\lvgl\src\lv_objx/lv_cont.h **** } lv_cont_ext_t;
  73:..\..\..\lvgl\version_6.1.2\lvgl\src\lv_objx/lv_cont.h **** 
  74:..\..\..\lvgl\version_6.1.2\lvgl\src\lv_objx/lv_cont.h **** /*Styles*/
  75:..\..\..\lvgl\version_6.1.2\lvgl\src\lv_objx/lv_cont.h **** enum {
  76:..\..\..\lvgl\version_6.1.2\lvgl\src\lv_objx/lv_cont.h ****     LV_CONT_STYLE_MAIN,
  77:..\..\..\lvgl\version_6.1.2\lvgl\src\lv_objx/lv_cont.h **** };
  78:..\..\..\lvgl\version_6.1.2\lvgl\src\lv_objx/lv_cont.h **** typedef uint8_t lv_cont_style_t;
  79:..\..\..\lvgl\version_6.1.2\lvgl\src\lv_objx/lv_cont.h **** 
  80:..\..\..\lvgl\version_6.1.2\lvgl\src\lv_objx/lv_cont.h **** /**********************
  81:..\..\..\lvgl\version_6.1.2\lvgl\src\lv_objx/lv_cont.h ****  * GLOBAL PROTOTYPES
  82:..\..\..\lvgl\version_6.1.2\lvgl\src\lv_objx/lv_cont.h ****  **********************/
  83:..\..\..\lvgl\version_6.1.2\lvgl\src\lv_objx/lv_cont.h **** 
  84:..\..\..\lvgl\version_6.1.2\lvgl\src\lv_objx/lv_cont.h **** /**
  85:..\..\..\lvgl\version_6.1.2\lvgl\src\lv_objx/lv_cont.h ****  * Create a container objects
  86:..\..\..\lvgl\version_6.1.2\lvgl\src\lv_objx/lv_cont.h ****  * @param par pointer to an object, it will be the parent of the new container
  87:..\..\..\lvgl\version_6.1.2\lvgl\src\lv_objx/lv_cont.h ****  * @param copy pointer to a container object, if not NULL then the new object will be copied from i
  88:..\..\..\lvgl\version_6.1.2\lvgl\src\lv_objx/lv_cont.h ****  * @return pointer to the created container
  89:..\..\..\lvgl\version_6.1.2\lvgl\src\lv_objx/lv_cont.h ****  */
  90:..\..\..\lvgl\version_6.1.2\lvgl\src\lv_objx/lv_cont.h **** lv_obj_t * lv_cont_create(lv_obj_t * par, const lv_obj_t * copy);
  91:..\..\..\lvgl\version_6.1.2\lvgl\src\lv_objx/lv_cont.h **** 
  92:..\..\..\lvgl\version_6.1.2\lvgl\src\lv_objx/lv_cont.h **** /*=====================
  93:..\..\..\lvgl\version_6.1.2\lvgl\src\lv_objx/lv_cont.h ****  * Setter functions
  94:..\..\..\lvgl\version_6.1.2\lvgl\src\lv_objx/lv_cont.h ****  *====================*/
  95:..\..\..\lvgl\version_6.1.2\lvgl\src\lv_objx/lv_cont.h **** 
  96:..\..\..\lvgl\version_6.1.2\lvgl\src\lv_objx/lv_cont.h **** /**
  97:..\..\..\lvgl\version_6.1.2\lvgl\src\lv_objx/lv_cont.h ****  * Set a layout on a container
  98:..\..\..\lvgl\version_6.1.2\lvgl\src\lv_objx/lv_cont.h ****  * @param cont pointer to a container object
  99:..\..\..\lvgl\version_6.1.2\lvgl\src\lv_objx/lv_cont.h ****  * @param layout a layout from 'lv_cont_layout_t'
 100:..\..\..\lvgl\version_6.1.2\lvgl\src\lv_objx/lv_cont.h ****  */
 101:..\..\..\lvgl\version_6.1.2\lvgl\src\lv_objx/lv_cont.h **** void lv_cont_set_layout(lv_obj_t * cont, lv_layout_t layout);
 102:..\..\..\lvgl\version_6.1.2\lvgl\src\lv_objx/lv_cont.h **** 
 103:..\..\..\lvgl\version_6.1.2\lvgl\src\lv_objx/lv_cont.h **** /**
 104:..\..\..\lvgl\version_6.1.2\lvgl\src\lv_objx/lv_cont.h ****  * Set the fit policy in all 4 directions separately.
 105:..\..\..\lvgl\version_6.1.2\lvgl\src\lv_objx/lv_cont.h ****  * It tell how to change the container's size automatically.
 106:..\..\..\lvgl\version_6.1.2\lvgl\src\lv_objx/lv_cont.h ****  * @param cont pointer to a container object
 107:..\..\..\lvgl\version_6.1.2\lvgl\src\lv_objx/lv_cont.h ****  * @param left left fit policy from `lv_fit_t`
 108:..\..\..\lvgl\version_6.1.2\lvgl\src\lv_objx/lv_cont.h ****  * @param right right fit policy from `lv_fit_t`
 109:..\..\..\lvgl\version_6.1.2\lvgl\src\lv_objx/lv_cont.h ****  * @param top top fit policy from `lv_fit_t`
 110:..\..\..\lvgl\version_6.1.2\lvgl\src\lv_objx/lv_cont.h ****  * @param bottom bottom fit policy from `lv_fit_t`
 111:..\..\..\lvgl\version_6.1.2\lvgl\src\lv_objx/lv_cont.h ****  */
 112:..\..\..\lvgl\version_6.1.2\lvgl\src\lv_objx/lv_cont.h **** void lv_cont_set_fit4(lv_obj_t * cont, lv_fit_t left, lv_fit_t right, lv_fit_t top, lv_fit_t bottom
 113:..\..\..\lvgl\version_6.1.2\lvgl\src\lv_objx/lv_cont.h **** 
 114:..\..\..\lvgl\version_6.1.2\lvgl\src\lv_objx/lv_cont.h **** /**
 115:..\..\..\lvgl\version_6.1.2\lvgl\src\lv_objx/lv_cont.h ****  * Set the fit policy horizontally and vertically separately.
 116:..\..\..\lvgl\version_6.1.2\lvgl\src\lv_objx/lv_cont.h ****  * It tells how to change the container's size automatically.
 117:..\..\..\lvgl\version_6.1.2\lvgl\src\lv_objx/lv_cont.h ****  * @param cont pointer to a container object
 118:..\..\..\lvgl\version_6.1.2\lvgl\src\lv_objx/lv_cont.h ****  * @param hor horizontal fit policy from `lv_fit_t`
 119:..\..\..\lvgl\version_6.1.2\lvgl\src\lv_objx/lv_cont.h ****  * @param ver vertical fit policy from `lv_fit_t`
 120:..\..\..\lvgl\version_6.1.2\lvgl\src\lv_objx/lv_cont.h ****  */
 121:..\..\..\lvgl\version_6.1.2\lvgl\src\lv_objx/lv_cont.h **** static inline void lv_cont_set_fit2(lv_obj_t * cont, lv_fit_t hor, lv_fit_t ver)
 122:..\..\..\lvgl\version_6.1.2\lvgl\src\lv_objx/lv_cont.h **** {
 113              		.loc 3 122 0
 114              		.cfi_startproc
 115              		@ args = 0, pretend = 0, frame = 8
 116              		@ frame_needed = 1, uses_anonymous_args = 0
 117 0000 80B5     		push	{r7, lr}
 118              		.cfi_def_cfa_offset 8
ARM GAS  C:\Users\tmj32\AppData\Local\Temp\ccSNdAsc.s 			page 9


 119              		.cfi_offset 7, -8
 120              		.cfi_offset 14, -4
 121 0002 84B0     		sub	sp, sp, #16
 122              		.cfi_def_cfa_offset 24
 123 0004 02AF     		add	r7, sp, #8
 124              		.cfi_def_cfa 7, 16
 125 0006 7860     		str	r0, [r7, #4]
 126 0008 0B46     		mov	r3, r1
 127 000a FB70     		strb	r3, [r7, #3]
 128 000c 1346     		mov	r3, r2
 129 000e BB70     		strb	r3, [r7, #2]
 123:..\..\..\lvgl\version_6.1.2\lvgl\src\lv_objx/lv_cont.h ****     lv_cont_set_fit4(cont, hor, hor, ver, ver);
 130              		.loc 3 123 0
 131 0010 B878     		ldrb	r0, [r7, #2]	@ zero_extendqisi2
 132 0012 FA78     		ldrb	r2, [r7, #3]	@ zero_extendqisi2
 133 0014 F978     		ldrb	r1, [r7, #3]	@ zero_extendqisi2
 134 0016 BB78     		ldrb	r3, [r7, #2]	@ zero_extendqisi2
 135 0018 0093     		str	r3, [sp]
 136 001a 0346     		mov	r3, r0
 137 001c 7868     		ldr	r0, [r7, #4]
 138 001e FFF7FEFF 		bl	lv_cont_set_fit4
 124:..\..\..\lvgl\version_6.1.2\lvgl\src\lv_objx/lv_cont.h **** }
 139              		.loc 3 124 0
 140 0022 00BF     		nop
 141 0024 0837     		adds	r7, r7, #8
 142              		.cfi_def_cfa_offset 8
 143 0026 BD46     		mov	sp, r7
 144              		.cfi_def_cfa_register 13
 145              		@ sp needed
 146 0028 80BD     		pop	{r7, pc}
 147              		.cfi_endproc
 148              	.LFE31:
 149              		.size	lv_cont_set_fit2, .-lv_cont_set_fit2
 150 002a 00BF     		.section	.text.lv_cont_set_fit,"ax",%progbits
 151              		.align	2
 152              		.thumb
 153              		.thumb_func
 154              		.type	lv_cont_set_fit, %function
 155              	lv_cont_set_fit:
 156              	.LFB32:
 125:..\..\..\lvgl\version_6.1.2\lvgl\src\lv_objx/lv_cont.h **** 
 126:..\..\..\lvgl\version_6.1.2\lvgl\src\lv_objx/lv_cont.h **** /**
 127:..\..\..\lvgl\version_6.1.2\lvgl\src\lv_objx/lv_cont.h ****  * Set the fit policy in all 4 direction at once.
 128:..\..\..\lvgl\version_6.1.2\lvgl\src\lv_objx/lv_cont.h ****  * It tells how to change the container's size automatically.
 129:..\..\..\lvgl\version_6.1.2\lvgl\src\lv_objx/lv_cont.h ****  * @param cont pointer to a container object
 130:..\..\..\lvgl\version_6.1.2\lvgl\src\lv_objx/lv_cont.h ****  * @param fit fit policy from `lv_fit_t`
 131:..\..\..\lvgl\version_6.1.2\lvgl\src\lv_objx/lv_cont.h ****  */
 132:..\..\..\lvgl\version_6.1.2\lvgl\src\lv_objx/lv_cont.h **** static inline void lv_cont_set_fit(lv_obj_t * cont, lv_fit_t fit)
 133:..\..\..\lvgl\version_6.1.2\lvgl\src\lv_objx/lv_cont.h **** {
 157              		.loc 3 133 0
 158              		.cfi_startproc
 159              		@ args = 0, pretend = 0, frame = 8
 160              		@ frame_needed = 1, uses_anonymous_args = 0
 161 0000 80B5     		push	{r7, lr}
 162              		.cfi_def_cfa_offset 8
 163              		.cfi_offset 7, -8
 164              		.cfi_offset 14, -4
ARM GAS  C:\Users\tmj32\AppData\Local\Temp\ccSNdAsc.s 			page 10


 165 0002 84B0     		sub	sp, sp, #16
 166              		.cfi_def_cfa_offset 24
 167 0004 02AF     		add	r7, sp, #8
 168              		.cfi_def_cfa 7, 16
 169 0006 7860     		str	r0, [r7, #4]
 170 0008 0B46     		mov	r3, r1
 171 000a FB70     		strb	r3, [r7, #3]
 134:..\..\..\lvgl\version_6.1.2\lvgl\src\lv_objx/lv_cont.h ****     lv_cont_set_fit4(cont, fit, fit, fit, fit);
 172              		.loc 3 134 0
 173 000c F878     		ldrb	r0, [r7, #3]	@ zero_extendqisi2
 174 000e FA78     		ldrb	r2, [r7, #3]	@ zero_extendqisi2
 175 0010 F978     		ldrb	r1, [r7, #3]	@ zero_extendqisi2
 176 0012 FB78     		ldrb	r3, [r7, #3]	@ zero_extendqisi2
 177 0014 0093     		str	r3, [sp]
 178 0016 0346     		mov	r3, r0
 179 0018 7868     		ldr	r0, [r7, #4]
 180 001a FFF7FEFF 		bl	lv_cont_set_fit4
 135:..\..\..\lvgl\version_6.1.2\lvgl\src\lv_objx/lv_cont.h **** }
 181              		.loc 3 135 0
 182 001e 00BF     		nop
 183 0020 0837     		adds	r7, r7, #8
 184              		.cfi_def_cfa_offset 8
 185 0022 BD46     		mov	sp, r7
 186              		.cfi_def_cfa_register 13
 187              		@ sp needed
 188 0024 80BD     		pop	{r7, pc}
 189              		.cfi_endproc
 190              	.LFE32:
 191              		.size	lv_cont_set_fit, .-lv_cont_set_fit
 192 0026 00BF     		.bss
 193              		.align	2
 194              	ancestor_signal:
 195 0000 00000000 		.space	4
 196              		.section	.rodata
 197              		.align	2
 198              	.LC0:
 199 0000 4D657373 		.ascii	"Message\000"
 199      61676500 
 200              		.section	.text.lv_mbox_create,"ax",%progbits
 201              		.align	2
 202              		.global	lv_mbox_create
 203              		.thumb
 204              		.thumb_func
 205              		.type	lv_mbox_create, %function
 206              	lv_mbox_create:
 207              	.LFB46:
 208              		.file 4 "..\\..\\..\\lvgl\\version_6.1.2\\lvgl\\src\\lv_objx\\lv_mbox.c"
   1:..\..\..\lvgl\version_6.1.2\lvgl\src\lv_objx/lv_mbox.c **** /**
   2:..\..\..\lvgl\version_6.1.2\lvgl\src\lv_objx/lv_mbox.c ****  * @file lv_mbox.c
   3:..\..\..\lvgl\version_6.1.2\lvgl\src\lv_objx/lv_mbox.c ****  *
   4:..\..\..\lvgl\version_6.1.2\lvgl\src\lv_objx/lv_mbox.c ****  */
   5:..\..\..\lvgl\version_6.1.2\lvgl\src\lv_objx/lv_mbox.c **** 
   6:..\..\..\lvgl\version_6.1.2\lvgl\src\lv_objx/lv_mbox.c **** /*********************
   7:..\..\..\lvgl\version_6.1.2\lvgl\src\lv_objx/lv_mbox.c ****  *      INCLUDES
   8:..\..\..\lvgl\version_6.1.2\lvgl\src\lv_objx/lv_mbox.c ****  *********************/
   9:..\..\..\lvgl\version_6.1.2\lvgl\src\lv_objx/lv_mbox.c **** #include "lv_mbox.h"
  10:..\..\..\lvgl\version_6.1.2\lvgl\src\lv_objx/lv_mbox.c **** #if LV_USE_MBOX != 0
ARM GAS  C:\Users\tmj32\AppData\Local\Temp\ccSNdAsc.s 			page 11


  11:..\..\..\lvgl\version_6.1.2\lvgl\src\lv_objx/lv_mbox.c **** 
  12:..\..\..\lvgl\version_6.1.2\lvgl\src\lv_objx/lv_mbox.c **** #include "../lv_core/lv_debug.h"
  13:..\..\..\lvgl\version_6.1.2\lvgl\src\lv_objx/lv_mbox.c **** #include "../lv_core/lv_group.h"
  14:..\..\..\lvgl\version_6.1.2\lvgl\src\lv_objx/lv_mbox.c **** #include "../lv_themes/lv_theme.h"
  15:..\..\..\lvgl\version_6.1.2\lvgl\src\lv_objx/lv_mbox.c **** #include "../lv_misc/lv_anim.h"
  16:..\..\..\lvgl\version_6.1.2\lvgl\src\lv_objx/lv_mbox.c **** #include "../lv_misc/lv_math.h"
  17:..\..\..\lvgl\version_6.1.2\lvgl\src\lv_objx/lv_mbox.c **** 
  18:..\..\..\lvgl\version_6.1.2\lvgl\src\lv_objx/lv_mbox.c **** /*********************
  19:..\..\..\lvgl\version_6.1.2\lvgl\src\lv_objx/lv_mbox.c ****  *      DEFINES
  20:..\..\..\lvgl\version_6.1.2\lvgl\src\lv_objx/lv_mbox.c ****  *********************/
  21:..\..\..\lvgl\version_6.1.2\lvgl\src\lv_objx/lv_mbox.c **** #define LV_OBJX_NAME "lv_mbos"
  22:..\..\..\lvgl\version_6.1.2\lvgl\src\lv_objx/lv_mbox.c **** 
  23:..\..\..\lvgl\version_6.1.2\lvgl\src\lv_objx/lv_mbox.c **** #if LV_USE_ANIMATION
  24:..\..\..\lvgl\version_6.1.2\lvgl\src\lv_objx/lv_mbox.c **** #ifndef LV_MBOX_CLOSE_ANIM_TIME
  25:..\..\..\lvgl\version_6.1.2\lvgl\src\lv_objx/lv_mbox.c **** #define LV_MBOX_CLOSE_ANIM_TIME 200 /*List close animation time)  */
  26:..\..\..\lvgl\version_6.1.2\lvgl\src\lv_objx/lv_mbox.c **** #endif
  27:..\..\..\lvgl\version_6.1.2\lvgl\src\lv_objx/lv_mbox.c **** #else
  28:..\..\..\lvgl\version_6.1.2\lvgl\src\lv_objx/lv_mbox.c **** #undef LV_MBOX_CLOSE_ANIM_TIME
  29:..\..\..\lvgl\version_6.1.2\lvgl\src\lv_objx/lv_mbox.c **** #define LV_MBOX_CLOSE_ANIM_TIME 0 /*No animations*/
  30:..\..\..\lvgl\version_6.1.2\lvgl\src\lv_objx/lv_mbox.c **** #endif
  31:..\..\..\lvgl\version_6.1.2\lvgl\src\lv_objx/lv_mbox.c **** 
  32:..\..\..\lvgl\version_6.1.2\lvgl\src\lv_objx/lv_mbox.c **** /**********************
  33:..\..\..\lvgl\version_6.1.2\lvgl\src\lv_objx/lv_mbox.c ****  *      TYPEDEFS
  34:..\..\..\lvgl\version_6.1.2\lvgl\src\lv_objx/lv_mbox.c ****  **********************/
  35:..\..\..\lvgl\version_6.1.2\lvgl\src\lv_objx/lv_mbox.c **** 
  36:..\..\..\lvgl\version_6.1.2\lvgl\src\lv_objx/lv_mbox.c **** /**********************
  37:..\..\..\lvgl\version_6.1.2\lvgl\src\lv_objx/lv_mbox.c ****  *  STATIC PROTOTYPES
  38:..\..\..\lvgl\version_6.1.2\lvgl\src\lv_objx/lv_mbox.c ****  **********************/
  39:..\..\..\lvgl\version_6.1.2\lvgl\src\lv_objx/lv_mbox.c **** static lv_res_t lv_mbox_signal(lv_obj_t * mbox, lv_signal_t sign, void * param);
  40:..\..\..\lvgl\version_6.1.2\lvgl\src\lv_objx/lv_mbox.c **** static void mbox_realign(lv_obj_t * mbox);
  41:..\..\..\lvgl\version_6.1.2\lvgl\src\lv_objx/lv_mbox.c **** #if LV_USE_ANIMATION
  42:..\..\..\lvgl\version_6.1.2\lvgl\src\lv_objx/lv_mbox.c **** static void lv_mbox_close_ready_cb(lv_anim_t * a);
  43:..\..\..\lvgl\version_6.1.2\lvgl\src\lv_objx/lv_mbox.c **** #endif
  44:..\..\..\lvgl\version_6.1.2\lvgl\src\lv_objx/lv_mbox.c **** static void lv_mbox_default_event_cb(lv_obj_t * mbox, lv_event_t event);
  45:..\..\..\lvgl\version_6.1.2\lvgl\src\lv_objx/lv_mbox.c **** static void lv_mbox_btnm_event_cb(lv_obj_t * btnm, lv_event_t event);
  46:..\..\..\lvgl\version_6.1.2\lvgl\src\lv_objx/lv_mbox.c **** 
  47:..\..\..\lvgl\version_6.1.2\lvgl\src\lv_objx/lv_mbox.c **** /**********************
  48:..\..\..\lvgl\version_6.1.2\lvgl\src\lv_objx/lv_mbox.c ****  *  STATIC VARIABLES
  49:..\..\..\lvgl\version_6.1.2\lvgl\src\lv_objx/lv_mbox.c ****  **********************/
  50:..\..\..\lvgl\version_6.1.2\lvgl\src\lv_objx/lv_mbox.c **** static lv_signal_cb_t ancestor_signal;
  51:..\..\..\lvgl\version_6.1.2\lvgl\src\lv_objx/lv_mbox.c **** 
  52:..\..\..\lvgl\version_6.1.2\lvgl\src\lv_objx/lv_mbox.c **** /**********************
  53:..\..\..\lvgl\version_6.1.2\lvgl\src\lv_objx/lv_mbox.c ****  *      MACROS
  54:..\..\..\lvgl\version_6.1.2\lvgl\src\lv_objx/lv_mbox.c ****  **********************/
  55:..\..\..\lvgl\version_6.1.2\lvgl\src\lv_objx/lv_mbox.c **** 
  56:..\..\..\lvgl\version_6.1.2\lvgl\src\lv_objx/lv_mbox.c **** /**********************
  57:..\..\..\lvgl\version_6.1.2\lvgl\src\lv_objx/lv_mbox.c ****  *   GLOBAL FUNCTIONS
  58:..\..\..\lvgl\version_6.1.2\lvgl\src\lv_objx/lv_mbox.c ****  **********************/
  59:..\..\..\lvgl\version_6.1.2\lvgl\src\lv_objx/lv_mbox.c **** 
  60:..\..\..\lvgl\version_6.1.2\lvgl\src\lv_objx/lv_mbox.c **** /**
  61:..\..\..\lvgl\version_6.1.2\lvgl\src\lv_objx/lv_mbox.c ****  * Create a message box objects
  62:..\..\..\lvgl\version_6.1.2\lvgl\src\lv_objx/lv_mbox.c ****  * @param par pointer to an object, it will be the parent of the new message box
  63:..\..\..\lvgl\version_6.1.2\lvgl\src\lv_objx/lv_mbox.c ****  * @param copy pointer to a message box object, if not NULL then the new object will be copied from
  64:..\..\..\lvgl\version_6.1.2\lvgl\src\lv_objx/lv_mbox.c ****  * it
  65:..\..\..\lvgl\version_6.1.2\lvgl\src\lv_objx/lv_mbox.c ****  * @return pointer to the created message box
  66:..\..\..\lvgl\version_6.1.2\lvgl\src\lv_objx/lv_mbox.c ****  */
  67:..\..\..\lvgl\version_6.1.2\lvgl\src\lv_objx/lv_mbox.c **** lv_obj_t * lv_mbox_create(lv_obj_t * par, const lv_obj_t * copy)
ARM GAS  C:\Users\tmj32\AppData\Local\Temp\ccSNdAsc.s 			page 12


  68:..\..\..\lvgl\version_6.1.2\lvgl\src\lv_objx/lv_mbox.c **** {
 209              		.loc 4 68 0
 210              		.cfi_startproc
 211              		@ args = 0, pretend = 0, frame = 24
 212              		@ frame_needed = 1, uses_anonymous_args = 0
 213 0000 80B5     		push	{r7, lr}
 214              		.cfi_def_cfa_offset 8
 215              		.cfi_offset 7, -8
 216              		.cfi_offset 14, -4
 217 0002 88B0     		sub	sp, sp, #32
 218              		.cfi_def_cfa_offset 40
 219 0004 02AF     		add	r7, sp, #8
 220              		.cfi_def_cfa 7, 32
 221 0006 7860     		str	r0, [r7, #4]
 222 0008 3960     		str	r1, [r7]
  69:..\..\..\lvgl\version_6.1.2\lvgl\src\lv_objx/lv_mbox.c ****     LV_LOG_TRACE("mesasge box create started");
  70:..\..\..\lvgl\version_6.1.2\lvgl\src\lv_objx/lv_mbox.c **** 
  71:..\..\..\lvgl\version_6.1.2\lvgl\src\lv_objx/lv_mbox.c ****     /*Create the ancestor message box*/
  72:..\..\..\lvgl\version_6.1.2\lvgl\src\lv_objx/lv_mbox.c ****     lv_obj_t * new_mbox = lv_cont_create(par, copy);
 223              		.loc 4 72 0
 224 000a 3968     		ldr	r1, [r7]
 225 000c 7868     		ldr	r0, [r7, #4]
 226 000e FFF7FEFF 		bl	lv_cont_create
 227 0012 7861     		str	r0, [r7, #20]
  73:..\..\..\lvgl\version_6.1.2\lvgl\src\lv_objx/lv_mbox.c ****     LV_ASSERT_MEM(new_mbox);
  74:..\..\..\lvgl\version_6.1.2\lvgl\src\lv_objx/lv_mbox.c ****     if(new_mbox == NULL) return NULL;
 228              		.loc 4 74 0
 229 0014 7B69     		ldr	r3, [r7, #20]
 230 0016 002B     		cmp	r3, #0
 231 0018 01D1     		bne	.L8
 232              		.loc 4 74 0 is_stmt 0 discriminator 1
 233 001a 0023     		movs	r3, #0
 234 001c 89E0     		b	.L9
 235              	.L8:
  75:..\..\..\lvgl\version_6.1.2\lvgl\src\lv_objx/lv_mbox.c **** 
  76:..\..\..\lvgl\version_6.1.2\lvgl\src\lv_objx/lv_mbox.c ****     if(ancestor_signal == NULL) ancestor_signal = lv_obj_get_signal_cb(new_mbox);
 236              		.loc 4 76 0 is_stmt 1
 237 001e 474B     		ldr	r3, .L17
 238 0020 1B68     		ldr	r3, [r3]
 239 0022 002B     		cmp	r3, #0
 240 0024 05D1     		bne	.L10
 241              		.loc 4 76 0 is_stmt 0 discriminator 1
 242 0026 7869     		ldr	r0, [r7, #20]
 243 0028 FFF7FEFF 		bl	lv_obj_get_signal_cb
 244 002c 0246     		mov	r2, r0
 245 002e 434B     		ldr	r3, .L17
 246 0030 1A60     		str	r2, [r3]
 247              	.L10:
  77:..\..\..\lvgl\version_6.1.2\lvgl\src\lv_objx/lv_mbox.c **** 
  78:..\..\..\lvgl\version_6.1.2\lvgl\src\lv_objx/lv_mbox.c ****     /*Allocate the message box type specific extended data*/
  79:..\..\..\lvgl\version_6.1.2\lvgl\src\lv_objx/lv_mbox.c ****     lv_mbox_ext_t * ext = lv_obj_allocate_ext_attr(new_mbox, sizeof(lv_mbox_ext_t));
 248              		.loc 4 79 0 is_stmt 1
 249 0032 1021     		movs	r1, #16
 250 0034 7869     		ldr	r0, [r7, #20]
 251 0036 FFF7FEFF 		bl	lv_obj_allocate_ext_attr
 252 003a 3861     		str	r0, [r7, #16]
  80:..\..\..\lvgl\version_6.1.2\lvgl\src\lv_objx/lv_mbox.c ****     LV_ASSERT_MEM(ext);
ARM GAS  C:\Users\tmj32\AppData\Local\Temp\ccSNdAsc.s 			page 13


  81:..\..\..\lvgl\version_6.1.2\lvgl\src\lv_objx/lv_mbox.c ****     if(ext == NULL) return NULL;
 253              		.loc 4 81 0
 254 003c 3B69     		ldr	r3, [r7, #16]
 255 003e 002B     		cmp	r3, #0
 256 0040 01D1     		bne	.L11
 257              		.loc 4 81 0 is_stmt 0 discriminator 1
 258 0042 0023     		movs	r3, #0
 259 0044 75E0     		b	.L9
 260              	.L11:
  82:..\..\..\lvgl\version_6.1.2\lvgl\src\lv_objx/lv_mbox.c **** 
  83:..\..\..\lvgl\version_6.1.2\lvgl\src\lv_objx/lv_mbox.c ****     ext->text = NULL;
 261              		.loc 4 83 0 is_stmt 1
 262 0046 3B69     		ldr	r3, [r7, #16]
 263 0048 0022     		movs	r2, #0
 264 004a 5A60     		str	r2, [r3, #4]
  84:..\..\..\lvgl\version_6.1.2\lvgl\src\lv_objx/lv_mbox.c ****     ext->btnm = NULL;
 265              		.loc 4 84 0
 266 004c 3B69     		ldr	r3, [r7, #16]
 267 004e 0022     		movs	r2, #0
 268 0050 9A60     		str	r2, [r3, #8]
  85:..\..\..\lvgl\version_6.1.2\lvgl\src\lv_objx/lv_mbox.c **** #if LV_USE_ANIMATION
  86:..\..\..\lvgl\version_6.1.2\lvgl\src\lv_objx/lv_mbox.c ****     ext->anim_time = LV_MBOX_CLOSE_ANIM_TIME;
 269              		.loc 4 86 0
 270 0052 3B69     		ldr	r3, [r7, #16]
 271 0054 C822     		movs	r2, #200
 272 0056 9A81     		strh	r2, [r3, #12]	@ movhi
  87:..\..\..\lvgl\version_6.1.2\lvgl\src\lv_objx/lv_mbox.c **** #endif
  88:..\..\..\lvgl\version_6.1.2\lvgl\src\lv_objx/lv_mbox.c **** 
  89:..\..\..\lvgl\version_6.1.2\lvgl\src\lv_objx/lv_mbox.c ****     /*The signal and design functions are not copied so set them here*/
  90:..\..\..\lvgl\version_6.1.2\lvgl\src\lv_objx/lv_mbox.c ****     lv_obj_set_signal_cb(new_mbox, lv_mbox_signal);
 273              		.loc 4 90 0
 274 0058 3949     		ldr	r1, .L17+4
 275 005a 7869     		ldr	r0, [r7, #20]
 276 005c FFF7FEFF 		bl	lv_obj_set_signal_cb
  91:..\..\..\lvgl\version_6.1.2\lvgl\src\lv_objx/lv_mbox.c **** 
  92:..\..\..\lvgl\version_6.1.2\lvgl\src\lv_objx/lv_mbox.c ****     /*Init the new message box message box*/
  93:..\..\..\lvgl\version_6.1.2\lvgl\src\lv_objx/lv_mbox.c ****     if(copy == NULL) {
 277              		.loc 4 93 0
 278 0060 3B68     		ldr	r3, [r7]
 279 0062 002B     		cmp	r3, #0
 280 0064 47D1     		bne	.L12
 281              	.LBB2:
  94:..\..\..\lvgl\version_6.1.2\lvgl\src\lv_objx/lv_mbox.c ****         ext->text = lv_label_create(new_mbox, NULL);
 282              		.loc 4 94 0
 283 0066 0021     		movs	r1, #0
 284 0068 7869     		ldr	r0, [r7, #20]
 285 006a FFF7FEFF 		bl	lv_label_create
 286 006e 0246     		mov	r2, r0
 287 0070 3B69     		ldr	r3, [r7, #16]
 288 0072 5A60     		str	r2, [r3, #4]
  95:..\..\..\lvgl\version_6.1.2\lvgl\src\lv_objx/lv_mbox.c ****         lv_label_set_align(ext->text, LV_LABEL_ALIGN_CENTER);
 289              		.loc 4 95 0
 290 0074 3B69     		ldr	r3, [r7, #16]
 291 0076 5B68     		ldr	r3, [r3, #4]
 292 0078 0121     		movs	r1, #1
 293 007a 1846     		mov	r0, r3
 294 007c FFF7FEFF 		bl	lv_label_set_align
ARM GAS  C:\Users\tmj32\AppData\Local\Temp\ccSNdAsc.s 			page 14


  96:..\..\..\lvgl\version_6.1.2\lvgl\src\lv_objx/lv_mbox.c ****         lv_label_set_long_mode(ext->text, LV_LABEL_LONG_BREAK);
 295              		.loc 4 96 0
 296 0080 3B69     		ldr	r3, [r7, #16]
 297 0082 5B68     		ldr	r3, [r3, #4]
 298 0084 0121     		movs	r1, #1
 299 0086 1846     		mov	r0, r3
 300 0088 FFF7FEFF 		bl	lv_label_set_long_mode
  97:..\..\..\lvgl\version_6.1.2\lvgl\src\lv_objx/lv_mbox.c ****         lv_label_set_text(ext->text, "Message");
 301              		.loc 4 97 0
 302 008c 3B69     		ldr	r3, [r7, #16]
 303 008e 5B68     		ldr	r3, [r3, #4]
 304 0090 2C49     		ldr	r1, .L17+8
 305 0092 1846     		mov	r0, r3
 306 0094 FFF7FEFF 		bl	lv_label_set_text
  98:..\..\..\lvgl\version_6.1.2\lvgl\src\lv_objx/lv_mbox.c **** 
  99:..\..\..\lvgl\version_6.1.2\lvgl\src\lv_objx/lv_mbox.c ****         lv_cont_set_layout(new_mbox, LV_LAYOUT_COL_M);
 307              		.loc 4 99 0
 308 0098 0321     		movs	r1, #3
 309 009a 7869     		ldr	r0, [r7, #20]
 310 009c FFF7FEFF 		bl	lv_cont_set_layout
 100:..\..\..\lvgl\version_6.1.2\lvgl\src\lv_objx/lv_mbox.c ****         lv_cont_set_fit2(new_mbox, LV_FIT_NONE, LV_FIT_TIGHT);
 311              		.loc 4 100 0
 312 00a0 0122     		movs	r2, #1
 313 00a2 0021     		movs	r1, #0
 314 00a4 7869     		ldr	r0, [r7, #20]
 315 00a6 FFF7FEFF 		bl	lv_cont_set_fit2
 101:..\..\..\lvgl\version_6.1.2\lvgl\src\lv_objx/lv_mbox.c ****         lv_obj_set_width(new_mbox, LV_DPI * 2);
 316              		.loc 4 101 0
 317 00aa 4FF49671 		mov	r1, #300
 318 00ae 7869     		ldr	r0, [r7, #20]
 319 00b0 FFF7FEFF 		bl	lv_obj_set_width
 102:..\..\..\lvgl\version_6.1.2\lvgl\src\lv_objx/lv_mbox.c ****         lv_obj_align(new_mbox, NULL, LV_ALIGN_CENTER, 0, 0);
 320              		.loc 4 102 0
 321 00b4 0023     		movs	r3, #0
 322 00b6 0093     		str	r3, [sp]
 323 00b8 0023     		movs	r3, #0
 324 00ba 0022     		movs	r2, #0
 325 00bc 0021     		movs	r1, #0
 326 00be 7869     		ldr	r0, [r7, #20]
 327 00c0 FFF7FEFF 		bl	lv_obj_align
 103:..\..\..\lvgl\version_6.1.2\lvgl\src\lv_objx/lv_mbox.c ****         lv_obj_set_event_cb(new_mbox, lv_mbox_default_event_cb);
 328              		.loc 4 103 0
 329 00c4 2049     		ldr	r1, .L17+12
 330 00c6 7869     		ldr	r0, [r7, #20]
 331 00c8 FFF7FEFF 		bl	lv_obj_set_event_cb
 104:..\..\..\lvgl\version_6.1.2\lvgl\src\lv_objx/lv_mbox.c **** 
 105:..\..\..\lvgl\version_6.1.2\lvgl\src\lv_objx/lv_mbox.c ****         /*Set the default styles*/
 106:..\..\..\lvgl\version_6.1.2\lvgl\src\lv_objx/lv_mbox.c ****         lv_theme_t * th = lv_theme_get_current();
 332              		.loc 4 106 0
 333 00cc FFF7FEFF 		bl	lv_theme_get_current
 334 00d0 F860     		str	r0, [r7, #12]
 107:..\..\..\lvgl\version_6.1.2\lvgl\src\lv_objx/lv_mbox.c ****         if(th) {
 335              		.loc 4 107 0
 336 00d2 FB68     		ldr	r3, [r7, #12]
 337 00d4 002B     		cmp	r3, #0
 338 00d6 08D0     		beq	.L13
 108:..\..\..\lvgl\version_6.1.2\lvgl\src\lv_objx/lv_mbox.c ****             lv_mbox_set_style(new_mbox, LV_MBOX_STYLE_BG, th->style.mbox.bg);
ARM GAS  C:\Users\tmj32\AppData\Local\Temp\ccSNdAsc.s 			page 15


 339              		.loc 4 108 0
 340 00d8 FB68     		ldr	r3, [r7, #12]
 341 00da D3F8F430 		ldr	r3, [r3, #244]
 342 00de 1A46     		mov	r2, r3
 343 00e0 0021     		movs	r1, #0
 344 00e2 7869     		ldr	r0, [r7, #20]
 345 00e4 FFF7FEFF 		bl	lv_mbox_set_style
 346 00e8 22E0     		b	.L15
 347              	.L13:
 109:..\..\..\lvgl\version_6.1.2\lvgl\src\lv_objx/lv_mbox.c ****         } else {
 110:..\..\..\lvgl\version_6.1.2\lvgl\src\lv_objx/lv_mbox.c ****             lv_mbox_set_style(new_mbox, LV_MBOX_STYLE_BG, &lv_style_pretty);
 348              		.loc 4 110 0
 349 00ea 184A     		ldr	r2, .L17+16
 350 00ec 0021     		movs	r1, #0
 351 00ee 7869     		ldr	r0, [r7, #20]
 352 00f0 FFF7FEFF 		bl	lv_mbox_set_style
 353 00f4 1CE0     		b	.L15
 354              	.L12:
 355              	.LBE2:
 356              	.LBB3:
 111:..\..\..\lvgl\version_6.1.2\lvgl\src\lv_objx/lv_mbox.c ****         }
 112:..\..\..\lvgl\version_6.1.2\lvgl\src\lv_objx/lv_mbox.c **** 
 113:..\..\..\lvgl\version_6.1.2\lvgl\src\lv_objx/lv_mbox.c ****     }
 114:..\..\..\lvgl\version_6.1.2\lvgl\src\lv_objx/lv_mbox.c ****     /*Copy an existing message box*/
 115:..\..\..\lvgl\version_6.1.2\lvgl\src\lv_objx/lv_mbox.c ****     else {
 116:..\..\..\lvgl\version_6.1.2\lvgl\src\lv_objx/lv_mbox.c ****         lv_mbox_ext_t * copy_ext = lv_obj_get_ext_attr(copy);
 357              		.loc 4 116 0
 358 00f6 3868     		ldr	r0, [r7]
 359 00f8 FFF7FEFF 		bl	lv_obj_get_ext_attr
 360 00fc B860     		str	r0, [r7, #8]
 117:..\..\..\lvgl\version_6.1.2\lvgl\src\lv_objx/lv_mbox.c **** 
 118:..\..\..\lvgl\version_6.1.2\lvgl\src\lv_objx/lv_mbox.c ****         ext->text = lv_label_create(new_mbox, copy_ext->text);
 361              		.loc 4 118 0
 362 00fe BB68     		ldr	r3, [r7, #8]
 363 0100 5B68     		ldr	r3, [r3, #4]
 364 0102 1946     		mov	r1, r3
 365 0104 7869     		ldr	r0, [r7, #20]
 366 0106 FFF7FEFF 		bl	lv_label_create
 367 010a 0246     		mov	r2, r0
 368 010c 3B69     		ldr	r3, [r7, #16]
 369 010e 5A60     		str	r2, [r3, #4]
 119:..\..\..\lvgl\version_6.1.2\lvgl\src\lv_objx/lv_mbox.c **** 
 120:..\..\..\lvgl\version_6.1.2\lvgl\src\lv_objx/lv_mbox.c ****         /*Copy the buttons and the label on them*/
 121:..\..\..\lvgl\version_6.1.2\lvgl\src\lv_objx/lv_mbox.c ****         if(copy_ext->btnm) ext->btnm = lv_btnm_create(new_mbox, copy_ext->btnm);
 370              		.loc 4 121 0
 371 0110 BB68     		ldr	r3, [r7, #8]
 372 0112 9B68     		ldr	r3, [r3, #8]
 373 0114 002B     		cmp	r3, #0
 374 0116 08D0     		beq	.L16
 375              		.loc 4 121 0 is_stmt 0 discriminator 1
 376 0118 BB68     		ldr	r3, [r7, #8]
 377 011a 9B68     		ldr	r3, [r3, #8]
 378 011c 1946     		mov	r1, r3
 379 011e 7869     		ldr	r0, [r7, #20]
 380 0120 FFF7FEFF 		bl	lv_btnm_create
 381 0124 0246     		mov	r2, r0
 382 0126 3B69     		ldr	r3, [r7, #16]
ARM GAS  C:\Users\tmj32\AppData\Local\Temp\ccSNdAsc.s 			page 16


 383 0128 9A60     		str	r2, [r3, #8]
 384              	.L16:
 122:..\..\..\lvgl\version_6.1.2\lvgl\src\lv_objx/lv_mbox.c **** 
 123:..\..\..\lvgl\version_6.1.2\lvgl\src\lv_objx/lv_mbox.c ****         /*Refresh the style with new signal function*/
 124:..\..\..\lvgl\version_6.1.2\lvgl\src\lv_objx/lv_mbox.c ****         lv_obj_refresh_style(new_mbox);
 385              		.loc 4 124 0 is_stmt 1
 386 012a 7869     		ldr	r0, [r7, #20]
 387 012c FFF7FEFF 		bl	lv_obj_refresh_style
 388              	.L15:
 389              	.LBE3:
 125:..\..\..\lvgl\version_6.1.2\lvgl\src\lv_objx/lv_mbox.c ****     }
 126:..\..\..\lvgl\version_6.1.2\lvgl\src\lv_objx/lv_mbox.c **** 
 127:..\..\..\lvgl\version_6.1.2\lvgl\src\lv_objx/lv_mbox.c ****     LV_LOG_INFO("mesasge box created");
 128:..\..\..\lvgl\version_6.1.2\lvgl\src\lv_objx/lv_mbox.c **** 
 129:..\..\..\lvgl\version_6.1.2\lvgl\src\lv_objx/lv_mbox.c ****     return new_mbox;
 390              		.loc 4 129 0
 391 0130 7B69     		ldr	r3, [r7, #20]
 392              	.L9:
 130:..\..\..\lvgl\version_6.1.2\lvgl\src\lv_objx/lv_mbox.c **** }
 393              		.loc 4 130 0
 394 0132 1846     		mov	r0, r3
 395 0134 1837     		adds	r7, r7, #24
 396              		.cfi_def_cfa_offset 8
 397 0136 BD46     		mov	sp, r7
 398              		.cfi_def_cfa_register 13
 399              		@ sp needed
 400 0138 80BD     		pop	{r7, pc}
 401              	.L18:
 402 013a 00BF     		.align	2
 403              	.L17:
 404 013c 00000000 		.word	ancestor_signal
 405 0140 00000000 		.word	lv_mbox_signal
 406 0144 00000000 		.word	.LC0
 407 0148 00000000 		.word	lv_mbox_default_event_cb
 408 014c 00000000 		.word	lv_style_pretty
 409              		.cfi_endproc
 410              	.LFE46:
 411              		.size	lv_mbox_create, .-lv_mbox_create
 412              		.section	.text.lv_mbox_add_btns,"ax",%progbits
 413              		.align	2
 414              		.global	lv_mbox_add_btns
 415              		.thumb
 416              		.thumb_func
 417              		.type	lv_mbox_add_btns, %function
 418              	lv_mbox_add_btns:
 419              	.LFB47:
 131:..\..\..\lvgl\version_6.1.2\lvgl\src\lv_objx/lv_mbox.c **** 
 132:..\..\..\lvgl\version_6.1.2\lvgl\src\lv_objx/lv_mbox.c **** /*======================
 133:..\..\..\lvgl\version_6.1.2\lvgl\src\lv_objx/lv_mbox.c ****  * Add/remove functions
 134:..\..\..\lvgl\version_6.1.2\lvgl\src\lv_objx/lv_mbox.c ****  *=====================*/
 135:..\..\..\lvgl\version_6.1.2\lvgl\src\lv_objx/lv_mbox.c **** 
 136:..\..\..\lvgl\version_6.1.2\lvgl\src\lv_objx/lv_mbox.c **** /**
 137:..\..\..\lvgl\version_6.1.2\lvgl\src\lv_objx/lv_mbox.c ****  * Add button to the message box
 138:..\..\..\lvgl\version_6.1.2\lvgl\src\lv_objx/lv_mbox.c ****  * @param mbox pointer to message box object
 139:..\..\..\lvgl\version_6.1.2\lvgl\src\lv_objx/lv_mbox.c ****  * @param btn_map button descriptor (button matrix map).
 140:..\..\..\lvgl\version_6.1.2\lvgl\src\lv_objx/lv_mbox.c ****  *                E.g.  a const char *txt[] = {"ok", "close", ""} (Can not be local variable)
 141:..\..\..\lvgl\version_6.1.2\lvgl\src\lv_objx/lv_mbox.c ****  */
ARM GAS  C:\Users\tmj32\AppData\Local\Temp\ccSNdAsc.s 			page 17


 142:..\..\..\lvgl\version_6.1.2\lvgl\src\lv_objx/lv_mbox.c **** void lv_mbox_add_btns(lv_obj_t * mbox, const char * btn_map[])
 143:..\..\..\lvgl\version_6.1.2\lvgl\src\lv_objx/lv_mbox.c **** {
 420              		.loc 4 143 0
 421              		.cfi_startproc
 422              		@ args = 0, pretend = 0, frame = 16
 423              		@ frame_needed = 1, uses_anonymous_args = 0
 424 0000 80B5     		push	{r7, lr}
 425              		.cfi_def_cfa_offset 8
 426              		.cfi_offset 7, -8
 427              		.cfi_offset 14, -4
 428 0002 84B0     		sub	sp, sp, #16
 429              		.cfi_def_cfa_offset 24
 430 0004 00AF     		add	r7, sp, #0
 431              		.cfi_def_cfa_register 7
 432 0006 7860     		str	r0, [r7, #4]
 433 0008 3960     		str	r1, [r7]
 144:..\..\..\lvgl\version_6.1.2\lvgl\src\lv_objx/lv_mbox.c ****     LV_ASSERT_OBJ(mbox, LV_OBJX_NAME);
 145:..\..\..\lvgl\version_6.1.2\lvgl\src\lv_objx/lv_mbox.c ****     LV_ASSERT_NULL(btn_map);
 146:..\..\..\lvgl\version_6.1.2\lvgl\src\lv_objx/lv_mbox.c **** 
 147:..\..\..\lvgl\version_6.1.2\lvgl\src\lv_objx/lv_mbox.c ****     lv_mbox_ext_t * ext = lv_obj_get_ext_attr(mbox);
 434              		.loc 4 147 0
 435 000a 7868     		ldr	r0, [r7, #4]
 436 000c FFF7FEFF 		bl	lv_obj_get_ext_attr
 437 0010 F860     		str	r0, [r7, #12]
 148:..\..\..\lvgl\version_6.1.2\lvgl\src\lv_objx/lv_mbox.c **** 
 149:..\..\..\lvgl\version_6.1.2\lvgl\src\lv_objx/lv_mbox.c ****     /*Create a button matrix if not exists yet*/
 150:..\..\..\lvgl\version_6.1.2\lvgl\src\lv_objx/lv_mbox.c ****     if(ext->btnm == NULL) {
 438              		.loc 4 150 0
 439 0012 FB68     		ldr	r3, [r7, #12]
 440 0014 9B68     		ldr	r3, [r3, #8]
 441 0016 002B     		cmp	r3, #0
 442 0018 2CD1     		bne	.L20
 443              	.LBB4:
 151:..\..\..\lvgl\version_6.1.2\lvgl\src\lv_objx/lv_mbox.c ****         ext->btnm = lv_btnm_create(mbox, NULL);
 444              		.loc 4 151 0
 445 001a 0021     		movs	r1, #0
 446 001c 7868     		ldr	r0, [r7, #4]
 447 001e FFF7FEFF 		bl	lv_btnm_create
 448 0022 0246     		mov	r2, r0
 449 0024 FB68     		ldr	r3, [r7, #12]
 450 0026 9A60     		str	r2, [r3, #8]
 152:..\..\..\lvgl\version_6.1.2\lvgl\src\lv_objx/lv_mbox.c **** 
 153:..\..\..\lvgl\version_6.1.2\lvgl\src\lv_objx/lv_mbox.c ****         /*Set the default styles*/
 154:..\..\..\lvgl\version_6.1.2\lvgl\src\lv_objx/lv_mbox.c ****         lv_theme_t * th = lv_theme_get_current();
 451              		.loc 4 154 0
 452 0028 FFF7FEFF 		bl	lv_theme_get_current
 453 002c B860     		str	r0, [r7, #8]
 155:..\..\..\lvgl\version_6.1.2\lvgl\src\lv_objx/lv_mbox.c ****         if(th) {
 454              		.loc 4 155 0
 455 002e BB68     		ldr	r3, [r7, #8]
 456 0030 002B     		cmp	r3, #0
 457 0032 18D0     		beq	.L21
 156:..\..\..\lvgl\version_6.1.2\lvgl\src\lv_objx/lv_mbox.c ****             lv_mbox_set_style(mbox, LV_MBOX_STYLE_BTN_BG, th->style.mbox.btn.bg);
 458              		.loc 4 156 0
 459 0034 BB68     		ldr	r3, [r7, #8]
 460 0036 D3F8F830 		ldr	r3, [r3, #248]
 461 003a 1A46     		mov	r2, r3
ARM GAS  C:\Users\tmj32\AppData\Local\Temp\ccSNdAsc.s 			page 18


 462 003c 0121     		movs	r1, #1
 463 003e 7868     		ldr	r0, [r7, #4]
 464 0040 FFF7FEFF 		bl	lv_mbox_set_style
 157:..\..\..\lvgl\version_6.1.2\lvgl\src\lv_objx/lv_mbox.c ****             lv_mbox_set_style(mbox, LV_MBOX_STYLE_BTN_REL, th->style.mbox.btn.rel);
 465              		.loc 4 157 0
 466 0044 BB68     		ldr	r3, [r7, #8]
 467 0046 D3F8FC30 		ldr	r3, [r3, #252]
 468 004a 1A46     		mov	r2, r3
 469 004c 0221     		movs	r1, #2
 470 004e 7868     		ldr	r0, [r7, #4]
 471 0050 FFF7FEFF 		bl	lv_mbox_set_style
 158:..\..\..\lvgl\version_6.1.2\lvgl\src\lv_objx/lv_mbox.c ****             lv_mbox_set_style(mbox, LV_MBOX_STYLE_BTN_PR, th->style.mbox.btn.pr);
 472              		.loc 4 158 0
 473 0054 BB68     		ldr	r3, [r7, #8]
 474 0056 D3F80031 		ldr	r3, [r3, #256]
 475 005a 1A46     		mov	r2, r3
 476 005c 0321     		movs	r1, #3
 477 005e 7868     		ldr	r0, [r7, #4]
 478 0060 FFF7FEFF 		bl	lv_mbox_set_style
 479 0064 06E0     		b	.L20
 480              	.L21:
 159:..\..\..\lvgl\version_6.1.2\lvgl\src\lv_objx/lv_mbox.c ****         } else {
 160:..\..\..\lvgl\version_6.1.2\lvgl\src\lv_objx/lv_mbox.c ****             lv_btnm_set_style(ext->btnm, LV_BTNM_STYLE_BG, &lv_style_transp_fit);
 481              		.loc 4 160 0
 482 0066 FB68     		ldr	r3, [r7, #12]
 483 0068 9B68     		ldr	r3, [r3, #8]
 484 006a 0F4A     		ldr	r2, .L22
 485 006c 0021     		movs	r1, #0
 486 006e 1846     		mov	r0, r3
 487 0070 FFF7FEFF 		bl	lv_btnm_set_style
 488              	.L20:
 489              	.LBE4:
 161:..\..\..\lvgl\version_6.1.2\lvgl\src\lv_objx/lv_mbox.c ****         }
 162:..\..\..\lvgl\version_6.1.2\lvgl\src\lv_objx/lv_mbox.c ****     }
 163:..\..\..\lvgl\version_6.1.2\lvgl\src\lv_objx/lv_mbox.c **** 
 164:..\..\..\lvgl\version_6.1.2\lvgl\src\lv_objx/lv_mbox.c ****     lv_btnm_set_map(ext->btnm, btn_map);
 490              		.loc 4 164 0
 491 0074 FB68     		ldr	r3, [r7, #12]
 492 0076 9B68     		ldr	r3, [r3, #8]
 493 0078 3968     		ldr	r1, [r7]
 494 007a 1846     		mov	r0, r3
 495 007c FFF7FEFF 		bl	lv_btnm_set_map
 165:..\..\..\lvgl\version_6.1.2\lvgl\src\lv_objx/lv_mbox.c ****     lv_btnm_set_btn_ctrl_all(ext->btnm, LV_BTNM_CTRL_CLICK_TRIG | LV_BTNM_CTRL_NO_REPEAT);
 496              		.loc 4 165 0
 497 0080 FB68     		ldr	r3, [r7, #12]
 498 0082 9B68     		ldr	r3, [r3, #8]
 499 0084 4FF48871 		mov	r1, #272
 500 0088 1846     		mov	r0, r3
 501 008a FFF7FEFF 		bl	lv_btnm_set_btn_ctrl_all
 166:..\..\..\lvgl\version_6.1.2\lvgl\src\lv_objx/lv_mbox.c ****     lv_obj_set_event_cb(ext->btnm, lv_mbox_btnm_event_cb);
 502              		.loc 4 166 0
 503 008e FB68     		ldr	r3, [r7, #12]
 504 0090 9B68     		ldr	r3, [r3, #8]
 505 0092 0649     		ldr	r1, .L22+4
 506 0094 1846     		mov	r0, r3
 507 0096 FFF7FEFF 		bl	lv_obj_set_event_cb
 167:..\..\..\lvgl\version_6.1.2\lvgl\src\lv_objx/lv_mbox.c **** 
ARM GAS  C:\Users\tmj32\AppData\Local\Temp\ccSNdAsc.s 			page 19


 168:..\..\..\lvgl\version_6.1.2\lvgl\src\lv_objx/lv_mbox.c ****     mbox_realign(mbox);
 508              		.loc 4 168 0
 509 009a 7868     		ldr	r0, [r7, #4]
 510 009c FFF7FEFF 		bl	mbox_realign
 169:..\..\..\lvgl\version_6.1.2\lvgl\src\lv_objx/lv_mbox.c **** }
 511              		.loc 4 169 0
 512 00a0 00BF     		nop
 513 00a2 1037     		adds	r7, r7, #16
 514              		.cfi_def_cfa_offset 8
 515 00a4 BD46     		mov	sp, r7
 516              		.cfi_def_cfa_register 13
 517              		@ sp needed
 518 00a6 80BD     		pop	{r7, pc}
 519              	.L23:
 520              		.align	2
 521              	.L22:
 522 00a8 00000000 		.word	lv_style_transp_fit
 523 00ac 00000000 		.word	lv_mbox_btnm_event_cb
 524              		.cfi_endproc
 525              	.LFE47:
 526              		.size	lv_mbox_add_btns, .-lv_mbox_add_btns
 527              		.section	.text.lv_mbox_set_text,"ax",%progbits
 528              		.align	2
 529              		.global	lv_mbox_set_text
 530              		.thumb
 531              		.thumb_func
 532              		.type	lv_mbox_set_text, %function
 533              	lv_mbox_set_text:
 534              	.LFB48:
 170:..\..\..\lvgl\version_6.1.2\lvgl\src\lv_objx/lv_mbox.c **** 
 171:..\..\..\lvgl\version_6.1.2\lvgl\src\lv_objx/lv_mbox.c **** /*=====================
 172:..\..\..\lvgl\version_6.1.2\lvgl\src\lv_objx/lv_mbox.c ****  * Setter functions
 173:..\..\..\lvgl\version_6.1.2\lvgl\src\lv_objx/lv_mbox.c ****  *====================*/
 174:..\..\..\lvgl\version_6.1.2\lvgl\src\lv_objx/lv_mbox.c **** 
 175:..\..\..\lvgl\version_6.1.2\lvgl\src\lv_objx/lv_mbox.c **** /**
 176:..\..\..\lvgl\version_6.1.2\lvgl\src\lv_objx/lv_mbox.c ****  * Set the text of the message box
 177:..\..\..\lvgl\version_6.1.2\lvgl\src\lv_objx/lv_mbox.c ****  * @param mbox pointer to a message box
 178:..\..\..\lvgl\version_6.1.2\lvgl\src\lv_objx/lv_mbox.c ****  * @param txt a '\0' terminated character string which will be the message box text
 179:..\..\..\lvgl\version_6.1.2\lvgl\src\lv_objx/lv_mbox.c ****  */
 180:..\..\..\lvgl\version_6.1.2\lvgl\src\lv_objx/lv_mbox.c **** void lv_mbox_set_text(lv_obj_t * mbox, const char * txt)
 181:..\..\..\lvgl\version_6.1.2\lvgl\src\lv_objx/lv_mbox.c **** {
 535              		.loc 4 181 0
 536              		.cfi_startproc
 537              		@ args = 0, pretend = 0, frame = 16
 538              		@ frame_needed = 1, uses_anonymous_args = 0
 539 0000 80B5     		push	{r7, lr}
 540              		.cfi_def_cfa_offset 8
 541              		.cfi_offset 7, -8
 542              		.cfi_offset 14, -4
 543 0002 84B0     		sub	sp, sp, #16
 544              		.cfi_def_cfa_offset 24
 545 0004 00AF     		add	r7, sp, #0
 546              		.cfi_def_cfa_register 7
 547 0006 7860     		str	r0, [r7, #4]
 548 0008 3960     		str	r1, [r7]
 182:..\..\..\lvgl\version_6.1.2\lvgl\src\lv_objx/lv_mbox.c ****     LV_ASSERT_OBJ(mbox, LV_OBJX_NAME);
 183:..\..\..\lvgl\version_6.1.2\lvgl\src\lv_objx/lv_mbox.c ****     LV_ASSERT_STR(txt);
ARM GAS  C:\Users\tmj32\AppData\Local\Temp\ccSNdAsc.s 			page 20


 184:..\..\..\lvgl\version_6.1.2\lvgl\src\lv_objx/lv_mbox.c **** 
 185:..\..\..\lvgl\version_6.1.2\lvgl\src\lv_objx/lv_mbox.c ****     lv_mbox_ext_t * ext = lv_obj_get_ext_attr(mbox);
 549              		.loc 4 185 0
 550 000a 7868     		ldr	r0, [r7, #4]
 551 000c FFF7FEFF 		bl	lv_obj_get_ext_attr
 552 0010 F860     		str	r0, [r7, #12]
 186:..\..\..\lvgl\version_6.1.2\lvgl\src\lv_objx/lv_mbox.c ****     lv_label_set_text(ext->text, txt);
 553              		.loc 4 186 0
 554 0012 FB68     		ldr	r3, [r7, #12]
 555 0014 5B68     		ldr	r3, [r3, #4]
 556 0016 3968     		ldr	r1, [r7]
 557 0018 1846     		mov	r0, r3
 558 001a FFF7FEFF 		bl	lv_label_set_text
 187:..\..\..\lvgl\version_6.1.2\lvgl\src\lv_objx/lv_mbox.c **** 
 188:..\..\..\lvgl\version_6.1.2\lvgl\src\lv_objx/lv_mbox.c ****     mbox_realign(mbox);
 559              		.loc 4 188 0
 560 001e 7868     		ldr	r0, [r7, #4]
 561 0020 FFF7FEFF 		bl	mbox_realign
 189:..\..\..\lvgl\version_6.1.2\lvgl\src\lv_objx/lv_mbox.c **** }
 562              		.loc 4 189 0
 563 0024 00BF     		nop
 564 0026 1037     		adds	r7, r7, #16
 565              		.cfi_def_cfa_offset 8
 566 0028 BD46     		mov	sp, r7
 567              		.cfi_def_cfa_register 13
 568              		@ sp needed
 569 002a 80BD     		pop	{r7, pc}
 570              		.cfi_endproc
 571              	.LFE48:
 572              		.size	lv_mbox_set_text, .-lv_mbox_set_text
 573              		.section	.text.lv_mbox_set_anim_time,"ax",%progbits
 574              		.align	2
 575              		.global	lv_mbox_set_anim_time
 576              		.thumb
 577              		.thumb_func
 578              		.type	lv_mbox_set_anim_time, %function
 579              	lv_mbox_set_anim_time:
 580              	.LFB49:
 190:..\..\..\lvgl\version_6.1.2\lvgl\src\lv_objx/lv_mbox.c **** 
 191:..\..\..\lvgl\version_6.1.2\lvgl\src\lv_objx/lv_mbox.c **** /**
 192:..\..\..\lvgl\version_6.1.2\lvgl\src\lv_objx/lv_mbox.c ****  * Set animation duration
 193:..\..\..\lvgl\version_6.1.2\lvgl\src\lv_objx/lv_mbox.c ****  * @param mbox pointer to a message box object
 194:..\..\..\lvgl\version_6.1.2\lvgl\src\lv_objx/lv_mbox.c ****  * @param anim_time animation length in  milliseconds (0: no animation)
 195:..\..\..\lvgl\version_6.1.2\lvgl\src\lv_objx/lv_mbox.c ****  */
 196:..\..\..\lvgl\version_6.1.2\lvgl\src\lv_objx/lv_mbox.c **** void lv_mbox_set_anim_time(lv_obj_t * mbox, uint16_t anim_time)
 197:..\..\..\lvgl\version_6.1.2\lvgl\src\lv_objx/lv_mbox.c **** {
 581              		.loc 4 197 0
 582              		.cfi_startproc
 583              		@ args = 0, pretend = 0, frame = 16
 584              		@ frame_needed = 1, uses_anonymous_args = 0
 585 0000 80B5     		push	{r7, lr}
 586              		.cfi_def_cfa_offset 8
 587              		.cfi_offset 7, -8
 588              		.cfi_offset 14, -4
 589 0002 84B0     		sub	sp, sp, #16
 590              		.cfi_def_cfa_offset 24
 591 0004 00AF     		add	r7, sp, #0
ARM GAS  C:\Users\tmj32\AppData\Local\Temp\ccSNdAsc.s 			page 21


 592              		.cfi_def_cfa_register 7
 593 0006 7860     		str	r0, [r7, #4]
 594 0008 0B46     		mov	r3, r1
 595 000a 7B80     		strh	r3, [r7, #2]	@ movhi
 198:..\..\..\lvgl\version_6.1.2\lvgl\src\lv_objx/lv_mbox.c ****     LV_ASSERT_OBJ(mbox, LV_OBJX_NAME);
 199:..\..\..\lvgl\version_6.1.2\lvgl\src\lv_objx/lv_mbox.c **** 
 200:..\..\..\lvgl\version_6.1.2\lvgl\src\lv_objx/lv_mbox.c **** #if LV_USE_ANIMATION
 201:..\..\..\lvgl\version_6.1.2\lvgl\src\lv_objx/lv_mbox.c ****     lv_mbox_ext_t * ext = lv_obj_get_ext_attr(mbox);
 596              		.loc 4 201 0
 597 000c 7868     		ldr	r0, [r7, #4]
 598 000e FFF7FEFF 		bl	lv_obj_get_ext_attr
 599 0012 F860     		str	r0, [r7, #12]
 202:..\..\..\lvgl\version_6.1.2\lvgl\src\lv_objx/lv_mbox.c ****     anim_time           = 0;
 600              		.loc 4 202 0
 601 0014 0023     		movs	r3, #0
 602 0016 7B80     		strh	r3, [r7, #2]	@ movhi
 203:..\..\..\lvgl\version_6.1.2\lvgl\src\lv_objx/lv_mbox.c ****     ext->anim_time      = anim_time;
 603              		.loc 4 203 0
 604 0018 FB68     		ldr	r3, [r7, #12]
 605 001a 7A88     		ldrh	r2, [r7, #2]	@ movhi
 606 001c 9A81     		strh	r2, [r3, #12]	@ movhi
 204:..\..\..\lvgl\version_6.1.2\lvgl\src\lv_objx/lv_mbox.c **** #else
 205:..\..\..\lvgl\version_6.1.2\lvgl\src\lv_objx/lv_mbox.c ****     (void)mbox;
 206:..\..\..\lvgl\version_6.1.2\lvgl\src\lv_objx/lv_mbox.c ****     (void)anim_time;
 207:..\..\..\lvgl\version_6.1.2\lvgl\src\lv_objx/lv_mbox.c **** #endif
 208:..\..\..\lvgl\version_6.1.2\lvgl\src\lv_objx/lv_mbox.c **** }
 607              		.loc 4 208 0
 608 001e 00BF     		nop
 609 0020 1037     		adds	r7, r7, #16
 610              		.cfi_def_cfa_offset 8
 611 0022 BD46     		mov	sp, r7
 612              		.cfi_def_cfa_register 13
 613              		@ sp needed
 614 0024 80BD     		pop	{r7, pc}
 615              		.cfi_endproc
 616              	.LFE49:
 617              		.size	lv_mbox_set_anim_time, .-lv_mbox_set_anim_time
 618 0026 00BF     		.section	.text.lv_mbox_start_auto_close,"ax",%progbits
 619              		.align	2
 620              		.global	lv_mbox_start_auto_close
 621              		.thumb
 622              		.thumb_func
 623              		.type	lv_mbox_start_auto_close, %function
 624              	lv_mbox_start_auto_close:
 625              	.LFB50:
 209:..\..\..\lvgl\version_6.1.2\lvgl\src\lv_objx/lv_mbox.c **** 
 210:..\..\..\lvgl\version_6.1.2\lvgl\src\lv_objx/lv_mbox.c **** /**
 211:..\..\..\lvgl\version_6.1.2\lvgl\src\lv_objx/lv_mbox.c ****  * Automatically delete the message box after a given time
 212:..\..\..\lvgl\version_6.1.2\lvgl\src\lv_objx/lv_mbox.c ****  * @param mbox pointer to a message box object
 213:..\..\..\lvgl\version_6.1.2\lvgl\src\lv_objx/lv_mbox.c ****  * @param delay a time (in milliseconds) to wait before delete the message box
 214:..\..\..\lvgl\version_6.1.2\lvgl\src\lv_objx/lv_mbox.c ****  */
 215:..\..\..\lvgl\version_6.1.2\lvgl\src\lv_objx/lv_mbox.c **** void lv_mbox_start_auto_close(lv_obj_t * mbox, uint16_t delay)
 216:..\..\..\lvgl\version_6.1.2\lvgl\src\lv_objx/lv_mbox.c **** {
 626              		.loc 4 216 0
 627              		.cfi_startproc
 628              		@ args = 0, pretend = 0, frame = 48
 629              		@ frame_needed = 1, uses_anonymous_args = 0
ARM GAS  C:\Users\tmj32\AppData\Local\Temp\ccSNdAsc.s 			page 22


 630 0000 80B5     		push	{r7, lr}
 631              		.cfi_def_cfa_offset 8
 632              		.cfi_offset 7, -8
 633              		.cfi_offset 14, -4
 634 0002 8CB0     		sub	sp, sp, #48
 635              		.cfi_def_cfa_offset 56
 636 0004 00AF     		add	r7, sp, #0
 637              		.cfi_def_cfa_register 7
 638 0006 7860     		str	r0, [r7, #4]
 639 0008 0B46     		mov	r3, r1
 640 000a 7B80     		strh	r3, [r7, #2]	@ movhi
 217:..\..\..\lvgl\version_6.1.2\lvgl\src\lv_objx/lv_mbox.c ****     LV_ASSERT_OBJ(mbox, LV_OBJX_NAME);
 218:..\..\..\lvgl\version_6.1.2\lvgl\src\lv_objx/lv_mbox.c **** 
 219:..\..\..\lvgl\version_6.1.2\lvgl\src\lv_objx/lv_mbox.c **** #if LV_USE_ANIMATION
 220:..\..\..\lvgl\version_6.1.2\lvgl\src\lv_objx/lv_mbox.c ****     if(lv_mbox_get_anim_time(mbox) != 0) {
 641              		.loc 4 220 0
 642 000c 7868     		ldr	r0, [r7, #4]
 643 000e FFF7FEFF 		bl	lv_mbox_get_anim_time
 644 0012 0346     		mov	r3, r0
 645 0014 002B     		cmp	r3, #0
 646 0016 40D0     		beq	.L27
 647              	.LBB5:
 221:..\..\..\lvgl\version_6.1.2\lvgl\src\lv_objx/lv_mbox.c ****         /*Add shrinking animations*/
 222:..\..\..\lvgl\version_6.1.2\lvgl\src\lv_objx/lv_mbox.c ****         lv_anim_t a;
 223:..\..\..\lvgl\version_6.1.2\lvgl\src\lv_objx/lv_mbox.c ****         a.var            = mbox;
 648              		.loc 4 223 0
 649 0018 7B68     		ldr	r3, [r7, #4]
 650 001a FB60     		str	r3, [r7, #12]
 224:..\..\..\lvgl\version_6.1.2\lvgl\src\lv_objx/lv_mbox.c ****         a.start          = lv_obj_get_height(mbox);
 651              		.loc 4 224 0
 652 001c 7868     		ldr	r0, [r7, #4]
 653 001e FFF7FEFF 		bl	lv_obj_get_height
 654 0022 0346     		mov	r3, r0
 655 0024 FB61     		str	r3, [r7, #28]
 225:..\..\..\lvgl\version_6.1.2\lvgl\src\lv_objx/lv_mbox.c ****         a.end            = 0;
 656              		.loc 4 225 0
 657 0026 0023     		movs	r3, #0
 658 0028 3B62     		str	r3, [r7, #32]
 226:..\..\..\lvgl\version_6.1.2\lvgl\src\lv_objx/lv_mbox.c ****         a.exec_cb        = (lv_anim_exec_xcb_t)lv_obj_set_height;
 659              		.loc 4 226 0
 660 002a 324B     		ldr	r3, .L30
 661 002c 3B61     		str	r3, [r7, #16]
 227:..\..\..\lvgl\version_6.1.2\lvgl\src\lv_objx/lv_mbox.c ****         a.path_cb        = lv_anim_path_linear;
 662              		.loc 4 227 0
 663 002e 324B     		ldr	r3, .L30+4
 664 0030 7B61     		str	r3, [r7, #20]
 228:..\..\..\lvgl\version_6.1.2\lvgl\src\lv_objx/lv_mbox.c ****         a.ready_cb       = NULL;
 665              		.loc 4 228 0
 666 0032 0023     		movs	r3, #0
 667 0034 BB61     		str	r3, [r7, #24]
 229:..\..\..\lvgl\version_6.1.2\lvgl\src\lv_objx/lv_mbox.c ****         a.act_time       = -delay;
 668              		.loc 4 229 0
 669 0036 7B88     		ldrh	r3, [r7, #2]	@ movhi
 670 0038 5B42     		negs	r3, r3
 671 003a 9BB2     		uxth	r3, r3
 672 003c 1BB2     		sxth	r3, r3
 673 003e FB84     		strh	r3, [r7, #38]	@ movhi
ARM GAS  C:\Users\tmj32\AppData\Local\Temp\ccSNdAsc.s 			page 23


 230:..\..\..\lvgl\version_6.1.2\lvgl\src\lv_objx/lv_mbox.c ****         a.time           = lv_mbox_get_anim_time(mbox);
 674              		.loc 4 230 0
 675 0040 7868     		ldr	r0, [r7, #4]
 676 0042 FFF7FEFF 		bl	lv_mbox_get_anim_time
 677 0046 0346     		mov	r3, r0
 678 0048 BB84     		strh	r3, [r7, #36]	@ movhi
 231:..\..\..\lvgl\version_6.1.2\lvgl\src\lv_objx/lv_mbox.c ****         a.playback       = 0;
 679              		.loc 4 231 0
 680 004a 97F82C30 		ldrb	r3, [r7, #44]
 681 004e 6FF30003 		bfc	r3, #0, #1
 682 0052 87F82C30 		strb	r3, [r7, #44]
 232:..\..\..\lvgl\version_6.1.2\lvgl\src\lv_objx/lv_mbox.c ****         a.playback_pause = 0;
 683              		.loc 4 232 0
 684 0056 0023     		movs	r3, #0
 685 0058 3B85     		strh	r3, [r7, #40]	@ movhi
 233:..\..\..\lvgl\version_6.1.2\lvgl\src\lv_objx/lv_mbox.c ****         a.repeat         = 0;
 686              		.loc 4 233 0
 687 005a 97F82C30 		ldrb	r3, [r7, #44]
 688 005e 6FF34103 		bfc	r3, #1, #1
 689 0062 87F82C30 		strb	r3, [r7, #44]
 234:..\..\..\lvgl\version_6.1.2\lvgl\src\lv_objx/lv_mbox.c ****         a.repeat_pause   = 0;
 690              		.loc 4 234 0
 691 0066 0023     		movs	r3, #0
 692 0068 7B85     		strh	r3, [r7, #42]	@ movhi
 235:..\..\..\lvgl\version_6.1.2\lvgl\src\lv_objx/lv_mbox.c ****         lv_anim_create(&a);
 693              		.loc 4 235 0
 694 006a 07F10C03 		add	r3, r7, #12
 695 006e 1846     		mov	r0, r3
 696 0070 FFF7FEFF 		bl	lv_anim_create
 236:..\..\..\lvgl\version_6.1.2\lvgl\src\lv_objx/lv_mbox.c **** 
 237:..\..\..\lvgl\version_6.1.2\lvgl\src\lv_objx/lv_mbox.c ****         a.start    = lv_obj_get_width(mbox);
 697              		.loc 4 237 0
 698 0074 7868     		ldr	r0, [r7, #4]
 699 0076 FFF7FEFF 		bl	lv_obj_get_width
 700 007a 0346     		mov	r3, r0
 701 007c FB61     		str	r3, [r7, #28]
 238:..\..\..\lvgl\version_6.1.2\lvgl\src\lv_objx/lv_mbox.c ****         a.exec_cb  = (lv_anim_exec_xcb_t)lv_obj_set_width;
 702              		.loc 4 238 0
 703 007e 1F4B     		ldr	r3, .L30+8
 704 0080 3B61     		str	r3, [r7, #16]
 239:..\..\..\lvgl\version_6.1.2\lvgl\src\lv_objx/lv_mbox.c ****         a.ready_cb = lv_mbox_close_ready_cb;
 705              		.loc 4 239 0
 706 0082 1F4B     		ldr	r3, .L30+12
 707 0084 BB61     		str	r3, [r7, #24]
 240:..\..\..\lvgl\version_6.1.2\lvgl\src\lv_objx/lv_mbox.c ****         lv_anim_create(&a);
 708              		.loc 4 240 0
 709 0086 07F10C03 		add	r3, r7, #12
 710 008a 1846     		mov	r0, r3
 711 008c FFF7FEFF 		bl	lv_anim_create
 241:..\..\..\lvgl\version_6.1.2\lvgl\src\lv_objx/lv_mbox.c **** 
 242:..\..\..\lvgl\version_6.1.2\lvgl\src\lv_objx/lv_mbox.c ****         /*Disable fit to let shrinking work*/
 243:..\..\..\lvgl\version_6.1.2\lvgl\src\lv_objx/lv_mbox.c ****         lv_cont_set_fit(mbox, LV_FIT_NONE);
 712              		.loc 4 243 0
 713 0090 0021     		movs	r1, #0
 714 0092 7868     		ldr	r0, [r7, #4]
 715 0094 FFF7FEFF 		bl	lv_cont_set_fit
 716              	.LBE5:
ARM GAS  C:\Users\tmj32\AppData\Local\Temp\ccSNdAsc.s 			page 24


 244:..\..\..\lvgl\version_6.1.2\lvgl\src\lv_objx/lv_mbox.c ****     } else {
 245:..\..\..\lvgl\version_6.1.2\lvgl\src\lv_objx/lv_mbox.c ****         /*Create an animation to delete the mbox `delay` ms later*/
 246:..\..\..\lvgl\version_6.1.2\lvgl\src\lv_objx/lv_mbox.c ****         lv_anim_t a;
 247:..\..\..\lvgl\version_6.1.2\lvgl\src\lv_objx/lv_mbox.c ****         a.var            = mbox;
 248:..\..\..\lvgl\version_6.1.2\lvgl\src\lv_objx/lv_mbox.c ****         a.start          = 0;
 249:..\..\..\lvgl\version_6.1.2\lvgl\src\lv_objx/lv_mbox.c ****         a.end            = 1;
 250:..\..\..\lvgl\version_6.1.2\lvgl\src\lv_objx/lv_mbox.c ****         a.exec_cb        = (lv_anim_exec_xcb_t)NULL;
 251:..\..\..\lvgl\version_6.1.2\lvgl\src\lv_objx/lv_mbox.c ****         a.path_cb        = lv_anim_path_linear;
 252:..\..\..\lvgl\version_6.1.2\lvgl\src\lv_objx/lv_mbox.c ****         a.ready_cb       = lv_mbox_close_ready_cb;
 253:..\..\..\lvgl\version_6.1.2\lvgl\src\lv_objx/lv_mbox.c ****         a.act_time       = -delay;
 254:..\..\..\lvgl\version_6.1.2\lvgl\src\lv_objx/lv_mbox.c ****         a.time           = 0;
 255:..\..\..\lvgl\version_6.1.2\lvgl\src\lv_objx/lv_mbox.c ****         a.playback       = 0;
 256:..\..\..\lvgl\version_6.1.2\lvgl\src\lv_objx/lv_mbox.c ****         a.playback_pause = 0;
 257:..\..\..\lvgl\version_6.1.2\lvgl\src\lv_objx/lv_mbox.c ****         a.repeat         = 0;
 258:..\..\..\lvgl\version_6.1.2\lvgl\src\lv_objx/lv_mbox.c ****         a.repeat_pause   = 0;
 259:..\..\..\lvgl\version_6.1.2\lvgl\src\lv_objx/lv_mbox.c ****         lv_anim_create(&a);
 260:..\..\..\lvgl\version_6.1.2\lvgl\src\lv_objx/lv_mbox.c ****     }
 261:..\..\..\lvgl\version_6.1.2\lvgl\src\lv_objx/lv_mbox.c **** #else
 262:..\..\..\lvgl\version_6.1.2\lvgl\src\lv_objx/lv_mbox.c ****     (void)delay; /*Unused*/
 263:..\..\..\lvgl\version_6.1.2\lvgl\src\lv_objx/lv_mbox.c ****     lv_obj_del(mbox);
 264:..\..\..\lvgl\version_6.1.2\lvgl\src\lv_objx/lv_mbox.c **** #endif
 265:..\..\..\lvgl\version_6.1.2\lvgl\src\lv_objx/lv_mbox.c **** }
 717              		.loc 4 265 0
 718 0098 27E0     		b	.L29
 719              	.L27:
 720              	.LBB6:
 247:..\..\..\lvgl\version_6.1.2\lvgl\src\lv_objx/lv_mbox.c ****         a.start          = 0;
 721              		.loc 4 247 0
 722 009a 7B68     		ldr	r3, [r7, #4]
 723 009c FB60     		str	r3, [r7, #12]
 248:..\..\..\lvgl\version_6.1.2\lvgl\src\lv_objx/lv_mbox.c ****         a.end            = 1;
 724              		.loc 4 248 0
 725 009e 0023     		movs	r3, #0
 726 00a0 FB61     		str	r3, [r7, #28]
 249:..\..\..\lvgl\version_6.1.2\lvgl\src\lv_objx/lv_mbox.c ****         a.exec_cb        = (lv_anim_exec_xcb_t)NULL;
 727              		.loc 4 249 0
 728 00a2 0123     		movs	r3, #1
 729 00a4 3B62     		str	r3, [r7, #32]
 250:..\..\..\lvgl\version_6.1.2\lvgl\src\lv_objx/lv_mbox.c ****         a.path_cb        = lv_anim_path_linear;
 730              		.loc 4 250 0
 731 00a6 0023     		movs	r3, #0
 732 00a8 3B61     		str	r3, [r7, #16]
 251:..\..\..\lvgl\version_6.1.2\lvgl\src\lv_objx/lv_mbox.c ****         a.ready_cb       = lv_mbox_close_ready_cb;
 733              		.loc 4 251 0
 734 00aa 134B     		ldr	r3, .L30+4
 735 00ac 7B61     		str	r3, [r7, #20]
 252:..\..\..\lvgl\version_6.1.2\lvgl\src\lv_objx/lv_mbox.c ****         a.act_time       = -delay;
 736              		.loc 4 252 0
 737 00ae 144B     		ldr	r3, .L30+12
 738 00b0 BB61     		str	r3, [r7, #24]
 253:..\..\..\lvgl\version_6.1.2\lvgl\src\lv_objx/lv_mbox.c ****         a.time           = 0;
 739              		.loc 4 253 0
 740 00b2 7B88     		ldrh	r3, [r7, #2]	@ movhi
 741 00b4 5B42     		negs	r3, r3
 742 00b6 9BB2     		uxth	r3, r3
 743 00b8 1BB2     		sxth	r3, r3
 744 00ba FB84     		strh	r3, [r7, #38]	@ movhi
ARM GAS  C:\Users\tmj32\AppData\Local\Temp\ccSNdAsc.s 			page 25


 254:..\..\..\lvgl\version_6.1.2\lvgl\src\lv_objx/lv_mbox.c ****         a.playback       = 0;
 745              		.loc 4 254 0
 746 00bc 0023     		movs	r3, #0
 747 00be BB84     		strh	r3, [r7, #36]	@ movhi
 255:..\..\..\lvgl\version_6.1.2\lvgl\src\lv_objx/lv_mbox.c ****         a.playback_pause = 0;
 748              		.loc 4 255 0
 749 00c0 97F82C30 		ldrb	r3, [r7, #44]
 750 00c4 6FF30003 		bfc	r3, #0, #1
 751 00c8 87F82C30 		strb	r3, [r7, #44]
 256:..\..\..\lvgl\version_6.1.2\lvgl\src\lv_objx/lv_mbox.c ****         a.repeat         = 0;
 752              		.loc 4 256 0
 753 00cc 0023     		movs	r3, #0
 754 00ce 3B85     		strh	r3, [r7, #40]	@ movhi
 257:..\..\..\lvgl\version_6.1.2\lvgl\src\lv_objx/lv_mbox.c ****         a.repeat_pause   = 0;
 755              		.loc 4 257 0
 756 00d0 97F82C30 		ldrb	r3, [r7, #44]
 757 00d4 6FF34103 		bfc	r3, #1, #1
 758 00d8 87F82C30 		strb	r3, [r7, #44]
 258:..\..\..\lvgl\version_6.1.2\lvgl\src\lv_objx/lv_mbox.c ****         lv_anim_create(&a);
 759              		.loc 4 258 0
 760 00dc 0023     		movs	r3, #0
 761 00de 7B85     		strh	r3, [r7, #42]	@ movhi
 259:..\..\..\lvgl\version_6.1.2\lvgl\src\lv_objx/lv_mbox.c ****     }
 762              		.loc 4 259 0
 763 00e0 07F10C03 		add	r3, r7, #12
 764 00e4 1846     		mov	r0, r3
 765 00e6 FFF7FEFF 		bl	lv_anim_create
 766              	.L29:
 767              	.LBE6:
 768              		.loc 4 265 0
 769 00ea 00BF     		nop
 770 00ec 3037     		adds	r7, r7, #48
 771              		.cfi_def_cfa_offset 8
 772 00ee BD46     		mov	sp, r7
 773              		.cfi_def_cfa_register 13
 774              		@ sp needed
 775 00f0 80BD     		pop	{r7, pc}
 776              	.L31:
 777 00f2 00BF     		.align	2
 778              	.L30:
 779 00f4 00000000 		.word	lv_obj_set_height
 780 00f8 00000000 		.word	lv_anim_path_linear
 781 00fc 00000000 		.word	lv_obj_set_width
 782 0100 00000000 		.word	lv_mbox_close_ready_cb
 783              		.cfi_endproc
 784              	.LFE50:
 785              		.size	lv_mbox_start_auto_close, .-lv_mbox_start_auto_close
 786              		.section	.text.lv_mbox_stop_auto_close,"ax",%progbits
 787              		.align	2
 788              		.global	lv_mbox_stop_auto_close
 789              		.thumb
 790              		.thumb_func
 791              		.type	lv_mbox_stop_auto_close, %function
 792              	lv_mbox_stop_auto_close:
 793              	.LFB51:
 266:..\..\..\lvgl\version_6.1.2\lvgl\src\lv_objx/lv_mbox.c **** 
 267:..\..\..\lvgl\version_6.1.2\lvgl\src\lv_objx/lv_mbox.c **** /**
ARM GAS  C:\Users\tmj32\AppData\Local\Temp\ccSNdAsc.s 			page 26


 268:..\..\..\lvgl\version_6.1.2\lvgl\src\lv_objx/lv_mbox.c ****  * Stop the auto. closing of message box
 269:..\..\..\lvgl\version_6.1.2\lvgl\src\lv_objx/lv_mbox.c ****  * @param mbox pointer to a message box object
 270:..\..\..\lvgl\version_6.1.2\lvgl\src\lv_objx/lv_mbox.c ****  */
 271:..\..\..\lvgl\version_6.1.2\lvgl\src\lv_objx/lv_mbox.c **** void lv_mbox_stop_auto_close(lv_obj_t * mbox)
 272:..\..\..\lvgl\version_6.1.2\lvgl\src\lv_objx/lv_mbox.c **** {
 794              		.loc 4 272 0
 795              		.cfi_startproc
 796              		@ args = 0, pretend = 0, frame = 8
 797              		@ frame_needed = 1, uses_anonymous_args = 0
 798 0000 80B5     		push	{r7, lr}
 799              		.cfi_def_cfa_offset 8
 800              		.cfi_offset 7, -8
 801              		.cfi_offset 14, -4
 802 0002 82B0     		sub	sp, sp, #8
 803              		.cfi_def_cfa_offset 16
 804 0004 00AF     		add	r7, sp, #0
 805              		.cfi_def_cfa_register 7
 806 0006 7860     		str	r0, [r7, #4]
 273:..\..\..\lvgl\version_6.1.2\lvgl\src\lv_objx/lv_mbox.c ****     LV_ASSERT_OBJ(mbox, LV_OBJX_NAME);
 274:..\..\..\lvgl\version_6.1.2\lvgl\src\lv_objx/lv_mbox.c **** 
 275:..\..\..\lvgl\version_6.1.2\lvgl\src\lv_objx/lv_mbox.c **** #if LV_USE_ANIMATION
 276:..\..\..\lvgl\version_6.1.2\lvgl\src\lv_objx/lv_mbox.c ****     lv_anim_del(mbox, NULL);
 807              		.loc 4 276 0
 808 0008 0021     		movs	r1, #0
 809 000a 7868     		ldr	r0, [r7, #4]
 810 000c FFF7FEFF 		bl	lv_anim_del
 277:..\..\..\lvgl\version_6.1.2\lvgl\src\lv_objx/lv_mbox.c **** #else
 278:..\..\..\lvgl\version_6.1.2\lvgl\src\lv_objx/lv_mbox.c ****     (void)mbox; /*Unused*/
 279:..\..\..\lvgl\version_6.1.2\lvgl\src\lv_objx/lv_mbox.c **** #endif
 280:..\..\..\lvgl\version_6.1.2\lvgl\src\lv_objx/lv_mbox.c **** }
 811              		.loc 4 280 0
 812 0010 00BF     		nop
 813 0012 0837     		adds	r7, r7, #8
 814              		.cfi_def_cfa_offset 8
 815 0014 BD46     		mov	sp, r7
 816              		.cfi_def_cfa_register 13
 817              		@ sp needed
 818 0016 80BD     		pop	{r7, pc}
 819              		.cfi_endproc
 820              	.LFE51:
 821              		.size	lv_mbox_stop_auto_close, .-lv_mbox_stop_auto_close
 822              		.section	.text.lv_mbox_set_style,"ax",%progbits
 823              		.align	2
 824              		.global	lv_mbox_set_style
 825              		.thumb
 826              		.thumb_func
 827              		.type	lv_mbox_set_style, %function
 828              	lv_mbox_set_style:
 829              	.LFB52:
 281:..\..\..\lvgl\version_6.1.2\lvgl\src\lv_objx/lv_mbox.c **** 
 282:..\..\..\lvgl\version_6.1.2\lvgl\src\lv_objx/lv_mbox.c **** /**
 283:..\..\..\lvgl\version_6.1.2\lvgl\src\lv_objx/lv_mbox.c ****  * Set a style of a message box
 284:..\..\..\lvgl\version_6.1.2\lvgl\src\lv_objx/lv_mbox.c ****  * @param mbox pointer to a message box object
 285:..\..\..\lvgl\version_6.1.2\lvgl\src\lv_objx/lv_mbox.c ****  * @param type which style should be set
 286:..\..\..\lvgl\version_6.1.2\lvgl\src\lv_objx/lv_mbox.c ****  * @param style pointer to a style
 287:..\..\..\lvgl\version_6.1.2\lvgl\src\lv_objx/lv_mbox.c ****  */
 288:..\..\..\lvgl\version_6.1.2\lvgl\src\lv_objx/lv_mbox.c **** void lv_mbox_set_style(lv_obj_t * mbox, lv_mbox_style_t type, const lv_style_t * style)
ARM GAS  C:\Users\tmj32\AppData\Local\Temp\ccSNdAsc.s 			page 27


 289:..\..\..\lvgl\version_6.1.2\lvgl\src\lv_objx/lv_mbox.c **** {
 830              		.loc 4 289 0
 831              		.cfi_startproc
 832              		@ args = 0, pretend = 0, frame = 24
 833              		@ frame_needed = 1, uses_anonymous_args = 0
 834 0000 80B5     		push	{r7, lr}
 835              		.cfi_def_cfa_offset 8
 836              		.cfi_offset 7, -8
 837              		.cfi_offset 14, -4
 838 0002 86B0     		sub	sp, sp, #24
 839              		.cfi_def_cfa_offset 32
 840 0004 00AF     		add	r7, sp, #0
 841              		.cfi_def_cfa_register 7
 842 0006 F860     		str	r0, [r7, #12]
 843 0008 0B46     		mov	r3, r1
 844 000a 7A60     		str	r2, [r7, #4]
 845 000c FB72     		strb	r3, [r7, #11]
 290:..\..\..\lvgl\version_6.1.2\lvgl\src\lv_objx/lv_mbox.c ****     LV_ASSERT_OBJ(mbox, LV_OBJX_NAME);
 291:..\..\..\lvgl\version_6.1.2\lvgl\src\lv_objx/lv_mbox.c **** 
 292:..\..\..\lvgl\version_6.1.2\lvgl\src\lv_objx/lv_mbox.c ****     lv_mbox_ext_t * ext = lv_obj_get_ext_attr(mbox);
 846              		.loc 4 292 0
 847 000e F868     		ldr	r0, [r7, #12]
 848 0010 FFF7FEFF 		bl	lv_obj_get_ext_attr
 849 0014 7861     		str	r0, [r7, #20]
 293:..\..\..\lvgl\version_6.1.2\lvgl\src\lv_objx/lv_mbox.c **** 
 294:..\..\..\lvgl\version_6.1.2\lvgl\src\lv_objx/lv_mbox.c ****     switch(type) {
 850              		.loc 4 294 0
 851 0016 FB7A     		ldrb	r3, [r7, #11]	@ zero_extendqisi2
 852 0018 062B     		cmp	r3, #6
 853 001a 46D8     		bhi	.L34
 854 001c 01A2     		adr	r2, .L36
 855 001e 52F823F0 		ldr	pc, [r2, r3, lsl #2]
 856 0022 00BF     		.p2align 2
 857              	.L36:
 858 0024 41000000 		.word	.L35+1
 859 0028 4B000000 		.word	.L37+1
 860 002c 5B000000 		.word	.L38+1
 861 0030 6B000000 		.word	.L39+1
 862 0034 7B000000 		.word	.L40+1
 863 0038 8B000000 		.word	.L41+1
 864 003c 9B000000 		.word	.L42+1
 865              		.p2align 1
 866              	.L35:
 295:..\..\..\lvgl\version_6.1.2\lvgl\src\lv_objx/lv_mbox.c ****         case LV_MBOX_STYLE_BG: lv_obj_set_style(mbox, style); break;
 867              		.loc 4 295 0
 868 0040 7968     		ldr	r1, [r7, #4]
 869 0042 F868     		ldr	r0, [r7, #12]
 870 0044 FFF7FEFF 		bl	lv_obj_set_style
 871 0048 2FE0     		b	.L34
 872              	.L37:
 296:..\..\..\lvgl\version_6.1.2\lvgl\src\lv_objx/lv_mbox.c ****         case LV_MBOX_STYLE_BTN_BG: lv_btnm_set_style(ext->btnm, LV_BTNM_STYLE_BG, style); break;
 873              		.loc 4 296 0
 874 004a 7B69     		ldr	r3, [r7, #20]
 875 004c 9B68     		ldr	r3, [r3, #8]
 876 004e 7A68     		ldr	r2, [r7, #4]
 877 0050 0021     		movs	r1, #0
 878 0052 1846     		mov	r0, r3
ARM GAS  C:\Users\tmj32\AppData\Local\Temp\ccSNdAsc.s 			page 28


 879 0054 FFF7FEFF 		bl	lv_btnm_set_style
 880 0058 27E0     		b	.L34
 881              	.L38:
 297:..\..\..\lvgl\version_6.1.2\lvgl\src\lv_objx/lv_mbox.c ****         case LV_MBOX_STYLE_BTN_REL: lv_btnm_set_style(ext->btnm, LV_BTNM_STYLE_BTN_REL, style); bre
 882              		.loc 4 297 0
 883 005a 7B69     		ldr	r3, [r7, #20]
 884 005c 9B68     		ldr	r3, [r3, #8]
 885 005e 7A68     		ldr	r2, [r7, #4]
 886 0060 0121     		movs	r1, #1
 887 0062 1846     		mov	r0, r3
 888 0064 FFF7FEFF 		bl	lv_btnm_set_style
 889 0068 1FE0     		b	.L34
 890              	.L39:
 298:..\..\..\lvgl\version_6.1.2\lvgl\src\lv_objx/lv_mbox.c ****         case LV_MBOX_STYLE_BTN_PR: lv_btnm_set_style(ext->btnm, LV_BTNM_STYLE_BTN_PR, style); break
 891              		.loc 4 298 0
 892 006a 7B69     		ldr	r3, [r7, #20]
 893 006c 9B68     		ldr	r3, [r3, #8]
 894 006e 7A68     		ldr	r2, [r7, #4]
 895 0070 0221     		movs	r1, #2
 896 0072 1846     		mov	r0, r3
 897 0074 FFF7FEFF 		bl	lv_btnm_set_style
 898 0078 17E0     		b	.L34
 899              	.L40:
 299:..\..\..\lvgl\version_6.1.2\lvgl\src\lv_objx/lv_mbox.c ****         case LV_MBOX_STYLE_BTN_TGL_REL: lv_btnm_set_style(ext->btnm, LV_BTNM_STYLE_BTN_TGL_REL, sty
 900              		.loc 4 299 0
 901 007a 7B69     		ldr	r3, [r7, #20]
 902 007c 9B68     		ldr	r3, [r3, #8]
 903 007e 7A68     		ldr	r2, [r7, #4]
 904 0080 0321     		movs	r1, #3
 905 0082 1846     		mov	r0, r3
 906 0084 FFF7FEFF 		bl	lv_btnm_set_style
 907 0088 0FE0     		b	.L34
 908              	.L41:
 300:..\..\..\lvgl\version_6.1.2\lvgl\src\lv_objx/lv_mbox.c ****         case LV_MBOX_STYLE_BTN_TGL_PR: lv_btnm_set_style(ext->btnm, LV_BTNM_STYLE_BTN_TGL_PR, style
 909              		.loc 4 300 0
 910 008a 7B69     		ldr	r3, [r7, #20]
 911 008c 9B68     		ldr	r3, [r3, #8]
 912 008e 7A68     		ldr	r2, [r7, #4]
 913 0090 0421     		movs	r1, #4
 914 0092 1846     		mov	r0, r3
 915 0094 FFF7FEFF 		bl	lv_btnm_set_style
 916 0098 07E0     		b	.L34
 917              	.L42:
 301:..\..\..\lvgl\version_6.1.2\lvgl\src\lv_objx/lv_mbox.c ****         case LV_MBOX_STYLE_BTN_INA: lv_btnm_set_style(ext->btnm, LV_BTNM_STYLE_BTN_INA, style); bre
 918              		.loc 4 301 0
 919 009a 7B69     		ldr	r3, [r7, #20]
 920 009c 9B68     		ldr	r3, [r3, #8]
 921 009e 7A68     		ldr	r2, [r7, #4]
 922 00a0 0521     		movs	r1, #5
 923 00a2 1846     		mov	r0, r3
 924 00a4 FFF7FEFF 		bl	lv_btnm_set_style
 925 00a8 00BF     		nop
 926              	.L34:
 302:..\..\..\lvgl\version_6.1.2\lvgl\src\lv_objx/lv_mbox.c ****     }
 303:..\..\..\lvgl\version_6.1.2\lvgl\src\lv_objx/lv_mbox.c **** 
 304:..\..\..\lvgl\version_6.1.2\lvgl\src\lv_objx/lv_mbox.c ****     mbox_realign(mbox);
 927              		.loc 4 304 0
ARM GAS  C:\Users\tmj32\AppData\Local\Temp\ccSNdAsc.s 			page 29


 928 00aa F868     		ldr	r0, [r7, #12]
 929 00ac FFF7FEFF 		bl	mbox_realign
 305:..\..\..\lvgl\version_6.1.2\lvgl\src\lv_objx/lv_mbox.c **** }
 930              		.loc 4 305 0
 931 00b0 00BF     		nop
 932 00b2 1837     		adds	r7, r7, #24
 933              		.cfi_def_cfa_offset 8
 934 00b4 BD46     		mov	sp, r7
 935              		.cfi_def_cfa_register 13
 936              		@ sp needed
 937 00b6 80BD     		pop	{r7, pc}
 938              		.cfi_endproc
 939              	.LFE52:
 940              		.size	lv_mbox_set_style, .-lv_mbox_set_style
 941              		.section	.text.lv_mbox_set_recolor,"ax",%progbits
 942              		.align	2
 943              		.global	lv_mbox_set_recolor
 944              		.thumb
 945              		.thumb_func
 946              		.type	lv_mbox_set_recolor, %function
 947              	lv_mbox_set_recolor:
 948              	.LFB53:
 306:..\..\..\lvgl\version_6.1.2\lvgl\src\lv_objx/lv_mbox.c **** 
 307:..\..\..\lvgl\version_6.1.2\lvgl\src\lv_objx/lv_mbox.c **** /**
 308:..\..\..\lvgl\version_6.1.2\lvgl\src\lv_objx/lv_mbox.c ****  * Set whether recoloring is enabled
 309:..\..\..\lvgl\version_6.1.2\lvgl\src\lv_objx/lv_mbox.c ****  * @param btnm pointer to button matrix object
 310:..\..\..\lvgl\version_6.1.2\lvgl\src\lv_objx/lv_mbox.c ****  * @param en whether recoloring is enabled
 311:..\..\..\lvgl\version_6.1.2\lvgl\src\lv_objx/lv_mbox.c ****  */
 312:..\..\..\lvgl\version_6.1.2\lvgl\src\lv_objx/lv_mbox.c **** void lv_mbox_set_recolor(lv_obj_t * mbox, bool en)
 313:..\..\..\lvgl\version_6.1.2\lvgl\src\lv_objx/lv_mbox.c **** {
 949              		.loc 4 313 0
 950              		.cfi_startproc
 951              		@ args = 0, pretend = 0, frame = 16
 952              		@ frame_needed = 1, uses_anonymous_args = 0
 953 0000 80B5     		push	{r7, lr}
 954              		.cfi_def_cfa_offset 8
 955              		.cfi_offset 7, -8
 956              		.cfi_offset 14, -4
 957 0002 84B0     		sub	sp, sp, #16
 958              		.cfi_def_cfa_offset 24
 959 0004 00AF     		add	r7, sp, #0
 960              		.cfi_def_cfa_register 7
 961 0006 7860     		str	r0, [r7, #4]
 962 0008 0B46     		mov	r3, r1
 963 000a FB70     		strb	r3, [r7, #3]
 314:..\..\..\lvgl\version_6.1.2\lvgl\src\lv_objx/lv_mbox.c ****     LV_ASSERT_OBJ(mbox, LV_OBJX_NAME);
 315:..\..\..\lvgl\version_6.1.2\lvgl\src\lv_objx/lv_mbox.c **** 
 316:..\..\..\lvgl\version_6.1.2\lvgl\src\lv_objx/lv_mbox.c ****     lv_mbox_ext_t * ext = lv_obj_get_ext_attr(mbox);
 964              		.loc 4 316 0
 965 000c 7868     		ldr	r0, [r7, #4]
 966 000e FFF7FEFF 		bl	lv_obj_get_ext_attr
 967 0012 F860     		str	r0, [r7, #12]
 317:..\..\..\lvgl\version_6.1.2\lvgl\src\lv_objx/lv_mbox.c **** 
 318:..\..\..\lvgl\version_6.1.2\lvgl\src\lv_objx/lv_mbox.c ****     if(ext->btnm) lv_btnm_set_recolor(ext->btnm, en);
 968              		.loc 4 318 0
 969 0014 FB68     		ldr	r3, [r7, #12]
 970 0016 9B68     		ldr	r3, [r3, #8]
ARM GAS  C:\Users\tmj32\AppData\Local\Temp\ccSNdAsc.s 			page 30


 971 0018 002B     		cmp	r3, #0
 972 001a 06D0     		beq	.L45
 973              		.loc 4 318 0 is_stmt 0 discriminator 1
 974 001c FB68     		ldr	r3, [r7, #12]
 975 001e 9B68     		ldr	r3, [r3, #8]
 976 0020 FA78     		ldrb	r2, [r7, #3]	@ zero_extendqisi2
 977 0022 1146     		mov	r1, r2
 978 0024 1846     		mov	r0, r3
 979 0026 FFF7FEFF 		bl	lv_btnm_set_recolor
 980              	.L45:
 319:..\..\..\lvgl\version_6.1.2\lvgl\src\lv_objx/lv_mbox.c **** }
 981              		.loc 4 319 0 is_stmt 1
 982 002a 00BF     		nop
 983 002c 1037     		adds	r7, r7, #16
 984              		.cfi_def_cfa_offset 8
 985 002e BD46     		mov	sp, r7
 986              		.cfi_def_cfa_register 13
 987              		@ sp needed
 988 0030 80BD     		pop	{r7, pc}
 989              		.cfi_endproc
 990              	.LFE53:
 991              		.size	lv_mbox_set_recolor, .-lv_mbox_set_recolor
 992 0032 00BF     		.section	.text.lv_mbox_get_text,"ax",%progbits
 993              		.align	2
 994              		.global	lv_mbox_get_text
 995              		.thumb
 996              		.thumb_func
 997              		.type	lv_mbox_get_text, %function
 998              	lv_mbox_get_text:
 999              	.LFB54:
 320:..\..\..\lvgl\version_6.1.2\lvgl\src\lv_objx/lv_mbox.c **** 
 321:..\..\..\lvgl\version_6.1.2\lvgl\src\lv_objx/lv_mbox.c **** /*=====================
 322:..\..\..\lvgl\version_6.1.2\lvgl\src\lv_objx/lv_mbox.c ****  * Getter functions
 323:..\..\..\lvgl\version_6.1.2\lvgl\src\lv_objx/lv_mbox.c ****  *====================*/
 324:..\..\..\lvgl\version_6.1.2\lvgl\src\lv_objx/lv_mbox.c **** 
 325:..\..\..\lvgl\version_6.1.2\lvgl\src\lv_objx/lv_mbox.c **** /**
 326:..\..\..\lvgl\version_6.1.2\lvgl\src\lv_objx/lv_mbox.c ****  * Get the text of the message box
 327:..\..\..\lvgl\version_6.1.2\lvgl\src\lv_objx/lv_mbox.c ****  * @param mbox pointer to a message box object
 328:..\..\..\lvgl\version_6.1.2\lvgl\src\lv_objx/lv_mbox.c ****  * @return pointer to the text of the message box
 329:..\..\..\lvgl\version_6.1.2\lvgl\src\lv_objx/lv_mbox.c ****  */
 330:..\..\..\lvgl\version_6.1.2\lvgl\src\lv_objx/lv_mbox.c **** const char * lv_mbox_get_text(const lv_obj_t * mbox)
 331:..\..\..\lvgl\version_6.1.2\lvgl\src\lv_objx/lv_mbox.c **** {
 1000              		.loc 4 331 0
 1001              		.cfi_startproc
 1002              		@ args = 0, pretend = 0, frame = 16
 1003              		@ frame_needed = 1, uses_anonymous_args = 0
 1004 0000 80B5     		push	{r7, lr}
 1005              		.cfi_def_cfa_offset 8
 1006              		.cfi_offset 7, -8
 1007              		.cfi_offset 14, -4
 1008 0002 84B0     		sub	sp, sp, #16
 1009              		.cfi_def_cfa_offset 24
 1010 0004 00AF     		add	r7, sp, #0
 1011              		.cfi_def_cfa_register 7
 1012 0006 7860     		str	r0, [r7, #4]
 332:..\..\..\lvgl\version_6.1.2\lvgl\src\lv_objx/lv_mbox.c ****     LV_ASSERT_OBJ(mbox, LV_OBJX_NAME);
 333:..\..\..\lvgl\version_6.1.2\lvgl\src\lv_objx/lv_mbox.c **** 
ARM GAS  C:\Users\tmj32\AppData\Local\Temp\ccSNdAsc.s 			page 31


 334:..\..\..\lvgl\version_6.1.2\lvgl\src\lv_objx/lv_mbox.c ****     lv_mbox_ext_t * ext = lv_obj_get_ext_attr(mbox);
 1013              		.loc 4 334 0
 1014 0008 7868     		ldr	r0, [r7, #4]
 1015 000a FFF7FEFF 		bl	lv_obj_get_ext_attr
 1016 000e F860     		str	r0, [r7, #12]
 335:..\..\..\lvgl\version_6.1.2\lvgl\src\lv_objx/lv_mbox.c **** 
 336:..\..\..\lvgl\version_6.1.2\lvgl\src\lv_objx/lv_mbox.c ****     return lv_label_get_text(ext->text);
 1017              		.loc 4 336 0
 1018 0010 FB68     		ldr	r3, [r7, #12]
 1019 0012 5B68     		ldr	r3, [r3, #4]
 1020 0014 1846     		mov	r0, r3
 1021 0016 FFF7FEFF 		bl	lv_label_get_text
 1022 001a 0346     		mov	r3, r0
 337:..\..\..\lvgl\version_6.1.2\lvgl\src\lv_objx/lv_mbox.c **** }
 1023              		.loc 4 337 0
 1024 001c 1846     		mov	r0, r3
 1025 001e 1037     		adds	r7, r7, #16
 1026              		.cfi_def_cfa_offset 8
 1027 0020 BD46     		mov	sp, r7
 1028              		.cfi_def_cfa_register 13
 1029              		@ sp needed
 1030 0022 80BD     		pop	{r7, pc}
 1031              		.cfi_endproc
 1032              	.LFE54:
 1033              		.size	lv_mbox_get_text, .-lv_mbox_get_text
 1034              		.section	.text.lv_mbox_get_active_btn,"ax",%progbits
 1035              		.align	2
 1036              		.global	lv_mbox_get_active_btn
 1037              		.thumb
 1038              		.thumb_func
 1039              		.type	lv_mbox_get_active_btn, %function
 1040              	lv_mbox_get_active_btn:
 1041              	.LFB55:
 338:..\..\..\lvgl\version_6.1.2\lvgl\src\lv_objx/lv_mbox.c **** 
 339:..\..\..\lvgl\version_6.1.2\lvgl\src\lv_objx/lv_mbox.c **** /**
 340:..\..\..\lvgl\version_6.1.2\lvgl\src\lv_objx/lv_mbox.c ****  * Get the index of the lastly "activated" button by the user (pressed, released etc)
 341:..\..\..\lvgl\version_6.1.2\lvgl\src\lv_objx/lv_mbox.c ****  * Useful in the the `event_cb`.
 342:..\..\..\lvgl\version_6.1.2\lvgl\src\lv_objx/lv_mbox.c ****  * @param btnm pointer to button matrix object
 343:..\..\..\lvgl\version_6.1.2\lvgl\src\lv_objx/lv_mbox.c ****  * @return  index of the last released button (LV_BTNM_BTN_NONE: if unset)
 344:..\..\..\lvgl\version_6.1.2\lvgl\src\lv_objx/lv_mbox.c ****  */
 345:..\..\..\lvgl\version_6.1.2\lvgl\src\lv_objx/lv_mbox.c **** uint16_t lv_mbox_get_active_btn(lv_obj_t * mbox)
 346:..\..\..\lvgl\version_6.1.2\lvgl\src\lv_objx/lv_mbox.c **** {
 1042              		.loc 4 346 0
 1043              		.cfi_startproc
 1044              		@ args = 0, pretend = 0, frame = 16
 1045              		@ frame_needed = 1, uses_anonymous_args = 0
 1046 0000 80B5     		push	{r7, lr}
 1047              		.cfi_def_cfa_offset 8
 1048              		.cfi_offset 7, -8
 1049              		.cfi_offset 14, -4
 1050 0002 84B0     		sub	sp, sp, #16
 1051              		.cfi_def_cfa_offset 24
 1052 0004 00AF     		add	r7, sp, #0
 1053              		.cfi_def_cfa_register 7
 1054 0006 7860     		str	r0, [r7, #4]
 347:..\..\..\lvgl\version_6.1.2\lvgl\src\lv_objx/lv_mbox.c ****     LV_ASSERT_OBJ(mbox, LV_OBJX_NAME);
 348:..\..\..\lvgl\version_6.1.2\lvgl\src\lv_objx/lv_mbox.c **** 
ARM GAS  C:\Users\tmj32\AppData\Local\Temp\ccSNdAsc.s 			page 32


 349:..\..\..\lvgl\version_6.1.2\lvgl\src\lv_objx/lv_mbox.c ****     lv_mbox_ext_t * ext = lv_obj_get_ext_attr(mbox);
 1055              		.loc 4 349 0
 1056 0008 7868     		ldr	r0, [r7, #4]
 1057 000a FFF7FEFF 		bl	lv_obj_get_ext_attr
 1058 000e F860     		str	r0, [r7, #12]
 350:..\..\..\lvgl\version_6.1.2\lvgl\src\lv_objx/lv_mbox.c ****     if(ext->btnm)
 1059              		.loc 4 350 0
 1060 0010 FB68     		ldr	r3, [r7, #12]
 1061 0012 9B68     		ldr	r3, [r3, #8]
 1062 0014 002B     		cmp	r3, #0
 1063 0016 06D0     		beq	.L49
 351:..\..\..\lvgl\version_6.1.2\lvgl\src\lv_objx/lv_mbox.c ****         return lv_btnm_get_active_btn(ext->btnm);
 1064              		.loc 4 351 0
 1065 0018 FB68     		ldr	r3, [r7, #12]
 1066 001a 9B68     		ldr	r3, [r3, #8]
 1067 001c 1846     		mov	r0, r3
 1068 001e FFF7FEFF 		bl	lv_btnm_get_active_btn
 1069 0022 0346     		mov	r3, r0
 1070 0024 01E0     		b	.L50
 1071              	.L49:
 352:..\..\..\lvgl\version_6.1.2\lvgl\src\lv_objx/lv_mbox.c ****     else
 353:..\..\..\lvgl\version_6.1.2\lvgl\src\lv_objx/lv_mbox.c ****         return LV_BTNM_BTN_NONE;
 1072              		.loc 4 353 0
 1073 0026 4FF6FF73 		movw	r3, #65535
 1074              	.L50:
 354:..\..\..\lvgl\version_6.1.2\lvgl\src\lv_objx/lv_mbox.c **** }
 1075              		.loc 4 354 0
 1076 002a 1846     		mov	r0, r3
 1077 002c 1037     		adds	r7, r7, #16
 1078              		.cfi_def_cfa_offset 8
 1079 002e BD46     		mov	sp, r7
 1080              		.cfi_def_cfa_register 13
 1081              		@ sp needed
 1082 0030 80BD     		pop	{r7, pc}
 1083              		.cfi_endproc
 1084              	.LFE55:
 1085              		.size	lv_mbox_get_active_btn, .-lv_mbox_get_active_btn
 1086 0032 00BF     		.section	.text.lv_mbox_get_active_btn_text,"ax",%progbits
 1087              		.align	2
 1088              		.global	lv_mbox_get_active_btn_text
 1089              		.thumb
 1090              		.thumb_func
 1091              		.type	lv_mbox_get_active_btn_text, %function
 1092              	lv_mbox_get_active_btn_text:
 1093              	.LFB56:
 355:..\..\..\lvgl\version_6.1.2\lvgl\src\lv_objx/lv_mbox.c **** 
 356:..\..\..\lvgl\version_6.1.2\lvgl\src\lv_objx/lv_mbox.c **** /**
 357:..\..\..\lvgl\version_6.1.2\lvgl\src\lv_objx/lv_mbox.c ****  * Get the text of the lastly "activated" button by the user (pressed, released etc)
 358:..\..\..\lvgl\version_6.1.2\lvgl\src\lv_objx/lv_mbox.c ****  * Useful in the the `event_cb`.
 359:..\..\..\lvgl\version_6.1.2\lvgl\src\lv_objx/lv_mbox.c ****  * @param btnm pointer to button matrix object
 360:..\..\..\lvgl\version_6.1.2\lvgl\src\lv_objx/lv_mbox.c ****  * @return text of the last released button (NULL: if unset)
 361:..\..\..\lvgl\version_6.1.2\lvgl\src\lv_objx/lv_mbox.c ****  */
 362:..\..\..\lvgl\version_6.1.2\lvgl\src\lv_objx/lv_mbox.c **** const char * lv_mbox_get_active_btn_text(lv_obj_t * mbox)
 363:..\..\..\lvgl\version_6.1.2\lvgl\src\lv_objx/lv_mbox.c **** {
 1094              		.loc 4 363 0
 1095              		.cfi_startproc
 1096              		@ args = 0, pretend = 0, frame = 16
ARM GAS  C:\Users\tmj32\AppData\Local\Temp\ccSNdAsc.s 			page 33


 1097              		@ frame_needed = 1, uses_anonymous_args = 0
 1098 0000 80B5     		push	{r7, lr}
 1099              		.cfi_def_cfa_offset 8
 1100              		.cfi_offset 7, -8
 1101              		.cfi_offset 14, -4
 1102 0002 84B0     		sub	sp, sp, #16
 1103              		.cfi_def_cfa_offset 24
 1104 0004 00AF     		add	r7, sp, #0
 1105              		.cfi_def_cfa_register 7
 1106 0006 7860     		str	r0, [r7, #4]
 364:..\..\..\lvgl\version_6.1.2\lvgl\src\lv_objx/lv_mbox.c ****     LV_ASSERT_OBJ(mbox, LV_OBJX_NAME);
 365:..\..\..\lvgl\version_6.1.2\lvgl\src\lv_objx/lv_mbox.c **** 
 366:..\..\..\lvgl\version_6.1.2\lvgl\src\lv_objx/lv_mbox.c ****     lv_mbox_ext_t * ext = lv_obj_get_ext_attr(mbox);
 1107              		.loc 4 366 0
 1108 0008 7868     		ldr	r0, [r7, #4]
 1109 000a FFF7FEFF 		bl	lv_obj_get_ext_attr
 1110 000e F860     		str	r0, [r7, #12]
 367:..\..\..\lvgl\version_6.1.2\lvgl\src\lv_objx/lv_mbox.c ****     if(ext->btnm)
 1111              		.loc 4 367 0
 1112 0010 FB68     		ldr	r3, [r7, #12]
 1113 0012 9B68     		ldr	r3, [r3, #8]
 1114 0014 002B     		cmp	r3, #0
 1115 0016 06D0     		beq	.L52
 368:..\..\..\lvgl\version_6.1.2\lvgl\src\lv_objx/lv_mbox.c ****         return lv_btnm_get_active_btn_text(ext->btnm);
 1116              		.loc 4 368 0
 1117 0018 FB68     		ldr	r3, [r7, #12]
 1118 001a 9B68     		ldr	r3, [r3, #8]
 1119 001c 1846     		mov	r0, r3
 1120 001e FFF7FEFF 		bl	lv_btnm_get_active_btn_text
 1121 0022 0346     		mov	r3, r0
 1122 0024 00E0     		b	.L53
 1123              	.L52:
 369:..\..\..\lvgl\version_6.1.2\lvgl\src\lv_objx/lv_mbox.c ****     else
 370:..\..\..\lvgl\version_6.1.2\lvgl\src\lv_objx/lv_mbox.c ****         return NULL;
 1124              		.loc 4 370 0
 1125 0026 0023     		movs	r3, #0
 1126              	.L53:
 371:..\..\..\lvgl\version_6.1.2\lvgl\src\lv_objx/lv_mbox.c **** }
 1127              		.loc 4 371 0
 1128 0028 1846     		mov	r0, r3
 1129 002a 1037     		adds	r7, r7, #16
 1130              		.cfi_def_cfa_offset 8
 1131 002c BD46     		mov	sp, r7
 1132              		.cfi_def_cfa_register 13
 1133              		@ sp needed
 1134 002e 80BD     		pop	{r7, pc}
 1135              		.cfi_endproc
 1136              	.LFE56:
 1137              		.size	lv_mbox_get_active_btn_text, .-lv_mbox_get_active_btn_text
 1138              		.section	.text.lv_mbox_get_anim_time,"ax",%progbits
 1139              		.align	2
 1140              		.global	lv_mbox_get_anim_time
 1141              		.thumb
 1142              		.thumb_func
 1143              		.type	lv_mbox_get_anim_time, %function
 1144              	lv_mbox_get_anim_time:
 1145              	.LFB57:
ARM GAS  C:\Users\tmj32\AppData\Local\Temp\ccSNdAsc.s 			page 34


 372:..\..\..\lvgl\version_6.1.2\lvgl\src\lv_objx/lv_mbox.c **** 
 373:..\..\..\lvgl\version_6.1.2\lvgl\src\lv_objx/lv_mbox.c **** /**
 374:..\..\..\lvgl\version_6.1.2\lvgl\src\lv_objx/lv_mbox.c ****  * Get the animation duration (close animation time)
 375:..\..\..\lvgl\version_6.1.2\lvgl\src\lv_objx/lv_mbox.c ****  * @param mbox pointer to a message box object
 376:..\..\..\lvgl\version_6.1.2\lvgl\src\lv_objx/lv_mbox.c ****  * @return animation length in  milliseconds (0: no animation)
 377:..\..\..\lvgl\version_6.1.2\lvgl\src\lv_objx/lv_mbox.c ****  */
 378:..\..\..\lvgl\version_6.1.2\lvgl\src\lv_objx/lv_mbox.c **** uint16_t lv_mbox_get_anim_time(const lv_obj_t * mbox)
 379:..\..\..\lvgl\version_6.1.2\lvgl\src\lv_objx/lv_mbox.c **** {
 1146              		.loc 4 379 0
 1147              		.cfi_startproc
 1148              		@ args = 0, pretend = 0, frame = 16
 1149              		@ frame_needed = 1, uses_anonymous_args = 0
 1150 0000 80B5     		push	{r7, lr}
 1151              		.cfi_def_cfa_offset 8
 1152              		.cfi_offset 7, -8
 1153              		.cfi_offset 14, -4
 1154 0002 84B0     		sub	sp, sp, #16
 1155              		.cfi_def_cfa_offset 24
 1156 0004 00AF     		add	r7, sp, #0
 1157              		.cfi_def_cfa_register 7
 1158 0006 7860     		str	r0, [r7, #4]
 380:..\..\..\lvgl\version_6.1.2\lvgl\src\lv_objx/lv_mbox.c ****     LV_ASSERT_OBJ(mbox, LV_OBJX_NAME);
 381:..\..\..\lvgl\version_6.1.2\lvgl\src\lv_objx/lv_mbox.c **** 
 382:..\..\..\lvgl\version_6.1.2\lvgl\src\lv_objx/lv_mbox.c **** #if LV_USE_ANIMATION
 383:..\..\..\lvgl\version_6.1.2\lvgl\src\lv_objx/lv_mbox.c ****     lv_mbox_ext_t * ext = lv_obj_get_ext_attr(mbox);
 1159              		.loc 4 383 0
 1160 0008 7868     		ldr	r0, [r7, #4]
 1161 000a FFF7FEFF 		bl	lv_obj_get_ext_attr
 1162 000e F860     		str	r0, [r7, #12]
 384:..\..\..\lvgl\version_6.1.2\lvgl\src\lv_objx/lv_mbox.c ****     return ext->anim_time;
 1163              		.loc 4 384 0
 1164 0010 FB68     		ldr	r3, [r7, #12]
 1165 0012 9B89     		ldrh	r3, [r3, #12]
 385:..\..\..\lvgl\version_6.1.2\lvgl\src\lv_objx/lv_mbox.c **** #else
 386:..\..\..\lvgl\version_6.1.2\lvgl\src\lv_objx/lv_mbox.c ****     (void)mbox;
 387:..\..\..\lvgl\version_6.1.2\lvgl\src\lv_objx/lv_mbox.c ****     return 0;
 388:..\..\..\lvgl\version_6.1.2\lvgl\src\lv_objx/lv_mbox.c **** #endif
 389:..\..\..\lvgl\version_6.1.2\lvgl\src\lv_objx/lv_mbox.c **** }
 1166              		.loc 4 389 0
 1167 0014 1846     		mov	r0, r3
 1168 0016 1037     		adds	r7, r7, #16
 1169              		.cfi_def_cfa_offset 8
 1170 0018 BD46     		mov	sp, r7
 1171              		.cfi_def_cfa_register 13
 1172              		@ sp needed
 1173 001a 80BD     		pop	{r7, pc}
 1174              		.cfi_endproc
 1175              	.LFE57:
 1176              		.size	lv_mbox_get_anim_time, .-lv_mbox_get_anim_time
 1177              		.section	.text.lv_mbox_get_style,"ax",%progbits
 1178              		.align	2
 1179              		.global	lv_mbox_get_style
 1180              		.thumb
 1181              		.thumb_func
 1182              		.type	lv_mbox_get_style, %function
 1183              	lv_mbox_get_style:
 1184              	.LFB58:
ARM GAS  C:\Users\tmj32\AppData\Local\Temp\ccSNdAsc.s 			page 35


 390:..\..\..\lvgl\version_6.1.2\lvgl\src\lv_objx/lv_mbox.c **** 
 391:..\..\..\lvgl\version_6.1.2\lvgl\src\lv_objx/lv_mbox.c **** /**
 392:..\..\..\lvgl\version_6.1.2\lvgl\src\lv_objx/lv_mbox.c ****  * Get a style of a message box
 393:..\..\..\lvgl\version_6.1.2\lvgl\src\lv_objx/lv_mbox.c ****  * @param mbox pointer to a message box object
 394:..\..\..\lvgl\version_6.1.2\lvgl\src\lv_objx/lv_mbox.c ****  * @param type which style should be get
 395:..\..\..\lvgl\version_6.1.2\lvgl\src\lv_objx/lv_mbox.c ****  * @return style pointer to a style
 396:..\..\..\lvgl\version_6.1.2\lvgl\src\lv_objx/lv_mbox.c ****  */
 397:..\..\..\lvgl\version_6.1.2\lvgl\src\lv_objx/lv_mbox.c **** const lv_style_t * lv_mbox_get_style(const lv_obj_t * mbox, lv_mbox_style_t type)
 398:..\..\..\lvgl\version_6.1.2\lvgl\src\lv_objx/lv_mbox.c **** {
 1185              		.loc 4 398 0
 1186              		.cfi_startproc
 1187              		@ args = 0, pretend = 0, frame = 16
 1188              		@ frame_needed = 1, uses_anonymous_args = 0
 1189 0000 80B5     		push	{r7, lr}
 1190              		.cfi_def_cfa_offset 8
 1191              		.cfi_offset 7, -8
 1192              		.cfi_offset 14, -4
 1193 0002 84B0     		sub	sp, sp, #16
 1194              		.cfi_def_cfa_offset 24
 1195 0004 00AF     		add	r7, sp, #0
 1196              		.cfi_def_cfa_register 7
 1197 0006 7860     		str	r0, [r7, #4]
 1198 0008 0B46     		mov	r3, r1
 1199 000a FB70     		strb	r3, [r7, #3]
 399:..\..\..\lvgl\version_6.1.2\lvgl\src\lv_objx/lv_mbox.c ****     LV_ASSERT_OBJ(mbox, LV_OBJX_NAME);
 400:..\..\..\lvgl\version_6.1.2\lvgl\src\lv_objx/lv_mbox.c **** 
 401:..\..\..\lvgl\version_6.1.2\lvgl\src\lv_objx/lv_mbox.c ****     const lv_style_t * style = NULL;
 1200              		.loc 4 401 0
 1201 000c 0023     		movs	r3, #0
 1202 000e FB60     		str	r3, [r7, #12]
 402:..\..\..\lvgl\version_6.1.2\lvgl\src\lv_objx/lv_mbox.c ****     lv_mbox_ext_t * ext      = lv_obj_get_ext_attr(mbox);
 1203              		.loc 4 402 0
 1204 0010 7868     		ldr	r0, [r7, #4]
 1205 0012 FFF7FEFF 		bl	lv_obj_get_ext_attr
 1206 0016 B860     		str	r0, [r7, #8]
 403:..\..\..\lvgl\version_6.1.2\lvgl\src\lv_objx/lv_mbox.c **** 
 404:..\..\..\lvgl\version_6.1.2\lvgl\src\lv_objx/lv_mbox.c ****     switch(type) {
 1207              		.loc 4 404 0
 1208 0018 FB78     		ldrb	r3, [r7, #3]	@ zero_extendqisi2
 1209 001a 062B     		cmp	r3, #6
 1210 001c 45D8     		bhi	.L57
 1211 001e 01A2     		adr	r2, .L59
 1212 0020 52F823F0 		ldr	pc, [r2, r3, lsl #2]
 1213              		.p2align 2
 1214              	.L59:
 1215 0024 41000000 		.word	.L58+1
 1216 0028 4B000000 		.word	.L60+1
 1217 002c 5B000000 		.word	.L61+1
 1218 0030 6B000000 		.word	.L62+1
 1219 0034 7B000000 		.word	.L63+1
 1220 0038 8B000000 		.word	.L64+1
 1221 003c 9B000000 		.word	.L65+1
 1222              		.p2align 1
 1223              	.L58:
 405:..\..\..\lvgl\version_6.1.2\lvgl\src\lv_objx/lv_mbox.c ****         case LV_MBOX_STYLE_BG: style = lv_obj_get_style(mbox); break;
 1224              		.loc 4 405 0
 1225 0040 7868     		ldr	r0, [r7, #4]
ARM GAS  C:\Users\tmj32\AppData\Local\Temp\ccSNdAsc.s 			page 36


 1226 0042 FFF7FEFF 		bl	lv_obj_get_style
 1227 0046 F860     		str	r0, [r7, #12]
 1228 0048 32E0     		b	.L66
 1229              	.L60:
 406:..\..\..\lvgl\version_6.1.2\lvgl\src\lv_objx/lv_mbox.c ****         case LV_MBOX_STYLE_BTN_BG: style = lv_btnm_get_style(ext->btnm, LV_BTNM_STYLE_BG); break;
 1230              		.loc 4 406 0
 1231 004a BB68     		ldr	r3, [r7, #8]
 1232 004c 9B68     		ldr	r3, [r3, #8]
 1233 004e 0021     		movs	r1, #0
 1234 0050 1846     		mov	r0, r3
 1235 0052 FFF7FEFF 		bl	lv_btnm_get_style
 1236 0056 F860     		str	r0, [r7, #12]
 1237 0058 2AE0     		b	.L66
 1238              	.L61:
 407:..\..\..\lvgl\version_6.1.2\lvgl\src\lv_objx/lv_mbox.c ****         case LV_MBOX_STYLE_BTN_REL: style = lv_btnm_get_style(ext->btnm, LV_BTNM_STYLE_BTN_REL); br
 1239              		.loc 4 407 0
 1240 005a BB68     		ldr	r3, [r7, #8]
 1241 005c 9B68     		ldr	r3, [r3, #8]
 1242 005e 0121     		movs	r1, #1
 1243 0060 1846     		mov	r0, r3
 1244 0062 FFF7FEFF 		bl	lv_btnm_get_style
 1245 0066 F860     		str	r0, [r7, #12]
 1246 0068 22E0     		b	.L66
 1247              	.L62:
 408:..\..\..\lvgl\version_6.1.2\lvgl\src\lv_objx/lv_mbox.c ****         case LV_MBOX_STYLE_BTN_PR: style = lv_btnm_get_style(ext->btnm, LV_BTNM_STYLE_BTN_PR); brea
 1248              		.loc 4 408 0
 1249 006a BB68     		ldr	r3, [r7, #8]
 1250 006c 9B68     		ldr	r3, [r3, #8]
 1251 006e 0221     		movs	r1, #2
 1252 0070 1846     		mov	r0, r3
 1253 0072 FFF7FEFF 		bl	lv_btnm_get_style
 1254 0076 F860     		str	r0, [r7, #12]
 1255 0078 1AE0     		b	.L66
 1256              	.L63:
 409:..\..\..\lvgl\version_6.1.2\lvgl\src\lv_objx/lv_mbox.c ****         case LV_MBOX_STYLE_BTN_TGL_REL: style = lv_btnm_get_style(ext->btnm, LV_BTNM_STYLE_BTN_TGL_
 1257              		.loc 4 409 0
 1258 007a BB68     		ldr	r3, [r7, #8]
 1259 007c 9B68     		ldr	r3, [r3, #8]
 1260 007e 0321     		movs	r1, #3
 1261 0080 1846     		mov	r0, r3
 1262 0082 FFF7FEFF 		bl	lv_btnm_get_style
 1263 0086 F860     		str	r0, [r7, #12]
 1264 0088 12E0     		b	.L66
 1265              	.L64:
 410:..\..\..\lvgl\version_6.1.2\lvgl\src\lv_objx/lv_mbox.c ****         case LV_MBOX_STYLE_BTN_TGL_PR: style = lv_btnm_get_style(ext->btnm, LV_BTNM_STYLE_BTN_TGL_P
 1266              		.loc 4 410 0
 1267 008a BB68     		ldr	r3, [r7, #8]
 1268 008c 9B68     		ldr	r3, [r3, #8]
 1269 008e 0421     		movs	r1, #4
 1270 0090 1846     		mov	r0, r3
 1271 0092 FFF7FEFF 		bl	lv_btnm_get_style
 1272 0096 F860     		str	r0, [r7, #12]
 1273 0098 0AE0     		b	.L66
 1274              	.L65:
 411:..\..\..\lvgl\version_6.1.2\lvgl\src\lv_objx/lv_mbox.c ****         case LV_MBOX_STYLE_BTN_INA: style = lv_btnm_get_style(ext->btnm, LV_BTNM_STYLE_BTN_INA); br
 1275              		.loc 4 411 0
 1276 009a BB68     		ldr	r3, [r7, #8]
ARM GAS  C:\Users\tmj32\AppData\Local\Temp\ccSNdAsc.s 			page 37


 1277 009c 9B68     		ldr	r3, [r3, #8]
 1278 009e 0521     		movs	r1, #5
 1279 00a0 1846     		mov	r0, r3
 1280 00a2 FFF7FEFF 		bl	lv_btnm_get_style
 1281 00a6 F860     		str	r0, [r7, #12]
 1282 00a8 02E0     		b	.L66
 1283              	.L57:
 412:..\..\..\lvgl\version_6.1.2\lvgl\src\lv_objx/lv_mbox.c ****         default: style = NULL; break;
 1284              		.loc 4 412 0
 1285 00aa 0023     		movs	r3, #0
 1286 00ac FB60     		str	r3, [r7, #12]
 1287 00ae 00BF     		nop
 1288              	.L66:
 413:..\..\..\lvgl\version_6.1.2\lvgl\src\lv_objx/lv_mbox.c ****     }
 414:..\..\..\lvgl\version_6.1.2\lvgl\src\lv_objx/lv_mbox.c **** 
 415:..\..\..\lvgl\version_6.1.2\lvgl\src\lv_objx/lv_mbox.c ****     return style;
 1289              		.loc 4 415 0
 1290 00b0 FB68     		ldr	r3, [r7, #12]
 416:..\..\..\lvgl\version_6.1.2\lvgl\src\lv_objx/lv_mbox.c **** }
 1291              		.loc 4 416 0
 1292 00b2 1846     		mov	r0, r3
 1293 00b4 1037     		adds	r7, r7, #16
 1294              		.cfi_def_cfa_offset 8
 1295 00b6 BD46     		mov	sp, r7
 1296              		.cfi_def_cfa_register 13
 1297              		@ sp needed
 1298 00b8 80BD     		pop	{r7, pc}
 1299              		.cfi_endproc
 1300              	.LFE58:
 1301              		.size	lv_mbox_get_style, .-lv_mbox_get_style
 1302 00ba 00BF     		.section	.text.lv_mbox_get_recolor,"ax",%progbits
 1303              		.align	2
 1304              		.global	lv_mbox_get_recolor
 1305              		.thumb
 1306              		.thumb_func
 1307              		.type	lv_mbox_get_recolor, %function
 1308              	lv_mbox_get_recolor:
 1309              	.LFB59:
 417:..\..\..\lvgl\version_6.1.2\lvgl\src\lv_objx/lv_mbox.c **** 
 418:..\..\..\lvgl\version_6.1.2\lvgl\src\lv_objx/lv_mbox.c **** /**
 419:..\..\..\lvgl\version_6.1.2\lvgl\src\lv_objx/lv_mbox.c ****  * Get whether recoloring is enabled
 420:..\..\..\lvgl\version_6.1.2\lvgl\src\lv_objx/lv_mbox.c ****  * @param mbox pointer to a message box object
 421:..\..\..\lvgl\version_6.1.2\lvgl\src\lv_objx/lv_mbox.c ****  * @return whether recoloring is enabled
 422:..\..\..\lvgl\version_6.1.2\lvgl\src\lv_objx/lv_mbox.c ****  */
 423:..\..\..\lvgl\version_6.1.2\lvgl\src\lv_objx/lv_mbox.c **** bool lv_mbox_get_recolor(const lv_obj_t * mbox)
 424:..\..\..\lvgl\version_6.1.2\lvgl\src\lv_objx/lv_mbox.c **** {
 1310              		.loc 4 424 0
 1311              		.cfi_startproc
 1312              		@ args = 0, pretend = 0, frame = 16
 1313              		@ frame_needed = 1, uses_anonymous_args = 0
 1314 0000 80B5     		push	{r7, lr}
 1315              		.cfi_def_cfa_offset 8
 1316              		.cfi_offset 7, -8
 1317              		.cfi_offset 14, -4
 1318 0002 84B0     		sub	sp, sp, #16
 1319              		.cfi_def_cfa_offset 24
 1320 0004 00AF     		add	r7, sp, #0
ARM GAS  C:\Users\tmj32\AppData\Local\Temp\ccSNdAsc.s 			page 38


 1321              		.cfi_def_cfa_register 7
 1322 0006 7860     		str	r0, [r7, #4]
 425:..\..\..\lvgl\version_6.1.2\lvgl\src\lv_objx/lv_mbox.c ****     LV_ASSERT_OBJ(mbox, LV_OBJX_NAME);
 426:..\..\..\lvgl\version_6.1.2\lvgl\src\lv_objx/lv_mbox.c **** 
 427:..\..\..\lvgl\version_6.1.2\lvgl\src\lv_objx/lv_mbox.c ****     lv_mbox_ext_t * ext = lv_obj_get_ext_attr(mbox);
 1323              		.loc 4 427 0
 1324 0008 7868     		ldr	r0, [r7, #4]
 1325 000a FFF7FEFF 		bl	lv_obj_get_ext_attr
 1326 000e F860     		str	r0, [r7, #12]
 428:..\..\..\lvgl\version_6.1.2\lvgl\src\lv_objx/lv_mbox.c **** 
 429:..\..\..\lvgl\version_6.1.2\lvgl\src\lv_objx/lv_mbox.c ****     if(!ext->btnm) return false;
 1327              		.loc 4 429 0
 1328 0010 FB68     		ldr	r3, [r7, #12]
 1329 0012 9B68     		ldr	r3, [r3, #8]
 1330 0014 002B     		cmp	r3, #0
 1331 0016 01D1     		bne	.L69
 1332              		.loc 4 429 0 is_stmt 0 discriminator 1
 1333 0018 0023     		movs	r3, #0
 1334 001a 05E0     		b	.L70
 1335              	.L69:
 430:..\..\..\lvgl\version_6.1.2\lvgl\src\lv_objx/lv_mbox.c **** 
 431:..\..\..\lvgl\version_6.1.2\lvgl\src\lv_objx/lv_mbox.c ****     return lv_btnm_get_recolor(ext->btnm);
 1336              		.loc 4 431 0 is_stmt 1
 1337 001c FB68     		ldr	r3, [r7, #12]
 1338 001e 9B68     		ldr	r3, [r3, #8]
 1339 0020 1846     		mov	r0, r3
 1340 0022 FFF7FEFF 		bl	lv_btnm_get_recolor
 1341 0026 0346     		mov	r3, r0
 1342              	.L70:
 432:..\..\..\lvgl\version_6.1.2\lvgl\src\lv_objx/lv_mbox.c **** }
 1343              		.loc 4 432 0
 1344 0028 1846     		mov	r0, r3
 1345 002a 1037     		adds	r7, r7, #16
 1346              		.cfi_def_cfa_offset 8
 1347 002c BD46     		mov	sp, r7
 1348              		.cfi_def_cfa_register 13
 1349              		@ sp needed
 1350 002e 80BD     		pop	{r7, pc}
 1351              		.cfi_endproc
 1352              	.LFE59:
 1353              		.size	lv_mbox_get_recolor, .-lv_mbox_get_recolor
 1354              		.section	.text.lv_mbox_get_btnm,"ax",%progbits
 1355              		.align	2
 1356              		.global	lv_mbox_get_btnm
 1357              		.thumb
 1358              		.thumb_func
 1359              		.type	lv_mbox_get_btnm, %function
 1360              	lv_mbox_get_btnm:
 1361              	.LFB60:
 433:..\..\..\lvgl\version_6.1.2\lvgl\src\lv_objx/lv_mbox.c **** 
 434:..\..\..\lvgl\version_6.1.2\lvgl\src\lv_objx/lv_mbox.c **** /**
 435:..\..\..\lvgl\version_6.1.2\lvgl\src\lv_objx/lv_mbox.c ****  * Get message box button matrix
 436:..\..\..\lvgl\version_6.1.2\lvgl\src\lv_objx/lv_mbox.c ****  * @param mbox pointer to a message box object
 437:..\..\..\lvgl\version_6.1.2\lvgl\src\lv_objx/lv_mbox.c ****  * @return pointer to button matrix object
 438:..\..\..\lvgl\version_6.1.2\lvgl\src\lv_objx/lv_mbox.c ****  * @remarks return value will be NULL unless `lv_mbox_add_btns` has been already called
 439:..\..\..\lvgl\version_6.1.2\lvgl\src\lv_objx/lv_mbox.c ****  */
 440:..\..\..\lvgl\version_6.1.2\lvgl\src\lv_objx/lv_mbox.c **** lv_obj_t * lv_mbox_get_btnm(lv_obj_t * mbox)
ARM GAS  C:\Users\tmj32\AppData\Local\Temp\ccSNdAsc.s 			page 39


 441:..\..\..\lvgl\version_6.1.2\lvgl\src\lv_objx/lv_mbox.c **** {
 1362              		.loc 4 441 0
 1363              		.cfi_startproc
 1364              		@ args = 0, pretend = 0, frame = 16
 1365              		@ frame_needed = 1, uses_anonymous_args = 0
 1366 0000 80B5     		push	{r7, lr}
 1367              		.cfi_def_cfa_offset 8
 1368              		.cfi_offset 7, -8
 1369              		.cfi_offset 14, -4
 1370 0002 84B0     		sub	sp, sp, #16
 1371              		.cfi_def_cfa_offset 24
 1372 0004 00AF     		add	r7, sp, #0
 1373              		.cfi_def_cfa_register 7
 1374 0006 7860     		str	r0, [r7, #4]
 442:..\..\..\lvgl\version_6.1.2\lvgl\src\lv_objx/lv_mbox.c ****     LV_ASSERT_OBJ(mbox, LV_OBJX_NAME);
 443:..\..\..\lvgl\version_6.1.2\lvgl\src\lv_objx/lv_mbox.c **** 
 444:..\..\..\lvgl\version_6.1.2\lvgl\src\lv_objx/lv_mbox.c ****     lv_mbox_ext_t * ext = lv_obj_get_ext_attr(mbox);
 1375              		.loc 4 444 0
 1376 0008 7868     		ldr	r0, [r7, #4]
 1377 000a FFF7FEFF 		bl	lv_obj_get_ext_attr
 1378 000e F860     		str	r0, [r7, #12]
 445:..\..\..\lvgl\version_6.1.2\lvgl\src\lv_objx/lv_mbox.c ****     return ext->btnm;
 1379              		.loc 4 445 0
 1380 0010 FB68     		ldr	r3, [r7, #12]
 1381 0012 9B68     		ldr	r3, [r3, #8]
 446:..\..\..\lvgl\version_6.1.2\lvgl\src\lv_objx/lv_mbox.c **** }
 1382              		.loc 4 446 0
 1383 0014 1846     		mov	r0, r3
 1384 0016 1037     		adds	r7, r7, #16
 1385              		.cfi_def_cfa_offset 8
 1386 0018 BD46     		mov	sp, r7
 1387              		.cfi_def_cfa_register 13
 1388              		@ sp needed
 1389 001a 80BD     		pop	{r7, pc}
 1390              		.cfi_endproc
 1391              	.LFE60:
 1392              		.size	lv_mbox_get_btnm, .-lv_mbox_get_btnm
 1393              		.section	.rodata
 1394              		.align	2
 1395              	.LC1:
 1396 0008 6C765F6D 		.ascii	"lv_mbos\000"
 1396      626F7300 
 1397              		.section	.text.lv_mbox_signal,"ax",%progbits
 1398              		.align	2
 1399              		.thumb
 1400              		.thumb_func
 1401              		.type	lv_mbox_signal, %function
 1402              	lv_mbox_signal:
 1403              	.LFB61:
 447:..\..\..\lvgl\version_6.1.2\lvgl\src\lv_objx/lv_mbox.c **** 
 448:..\..\..\lvgl\version_6.1.2\lvgl\src\lv_objx/lv_mbox.c **** /**********************
 449:..\..\..\lvgl\version_6.1.2\lvgl\src\lv_objx/lv_mbox.c ****  *   STATIC FUNCTIONS
 450:..\..\..\lvgl\version_6.1.2\lvgl\src\lv_objx/lv_mbox.c ****  **********************/
 451:..\..\..\lvgl\version_6.1.2\lvgl\src\lv_objx/lv_mbox.c **** 
 452:..\..\..\lvgl\version_6.1.2\lvgl\src\lv_objx/lv_mbox.c **** /**
 453:..\..\..\lvgl\version_6.1.2\lvgl\src\lv_objx/lv_mbox.c ****  * Signal function of the message box
 454:..\..\..\lvgl\version_6.1.2\lvgl\src\lv_objx/lv_mbox.c ****  * @param mbox pointer to a message box object
ARM GAS  C:\Users\tmj32\AppData\Local\Temp\ccSNdAsc.s 			page 40


 455:..\..\..\lvgl\version_6.1.2\lvgl\src\lv_objx/lv_mbox.c ****  * @param sign a signal type from lv_signal_t enum
 456:..\..\..\lvgl\version_6.1.2\lvgl\src\lv_objx/lv_mbox.c ****  * @param param pointer to a signal specific variable
 457:..\..\..\lvgl\version_6.1.2\lvgl\src\lv_objx/lv_mbox.c ****  * @return LV_RES_OK: the object is not deleted in the function; LV_RES_INV: the object is deleted
 458:..\..\..\lvgl\version_6.1.2\lvgl\src\lv_objx/lv_mbox.c ****  */
 459:..\..\..\lvgl\version_6.1.2\lvgl\src\lv_objx/lv_mbox.c **** static lv_res_t lv_mbox_signal(lv_obj_t * mbox, lv_signal_t sign, void * param)
 460:..\..\..\lvgl\version_6.1.2\lvgl\src\lv_objx/lv_mbox.c **** {
 1404              		.loc 4 460 0
 1405              		.cfi_startproc
 1406              		@ args = 0, pretend = 0, frame = 32
 1407              		@ frame_needed = 1, uses_anonymous_args = 0
 1408 0000 90B5     		push	{r4, r7, lr}
 1409              		.cfi_def_cfa_offset 12
 1410              		.cfi_offset 4, -12
 1411              		.cfi_offset 7, -8
 1412              		.cfi_offset 14, -4
 1413 0002 89B0     		sub	sp, sp, #36
 1414              		.cfi_def_cfa_offset 48
 1415 0004 00AF     		add	r7, sp, #0
 1416              		.cfi_def_cfa_register 7
 1417 0006 F860     		str	r0, [r7, #12]
 1418 0008 0B46     		mov	r3, r1
 1419 000a 7A60     		str	r2, [r7, #4]
 1420 000c FB72     		strb	r3, [r7, #11]
 461:..\..\..\lvgl\version_6.1.2\lvgl\src\lv_objx/lv_mbox.c ****     lv_res_t res;
 462:..\..\..\lvgl\version_6.1.2\lvgl\src\lv_objx/lv_mbox.c **** 
 463:..\..\..\lvgl\version_6.1.2\lvgl\src\lv_objx/lv_mbox.c ****     /*Translate LV_KEY_UP/DOWN to LV_KEY_LEFT/RIGHT */
 464:..\..\..\lvgl\version_6.1.2\lvgl\src\lv_objx/lv_mbox.c ****     char c_trans = 0;
 1421              		.loc 4 464 0
 1422 000e 0023     		movs	r3, #0
 1423 0010 FB75     		strb	r3, [r7, #23]
 465:..\..\..\lvgl\version_6.1.2\lvgl\src\lv_objx/lv_mbox.c ****     if(sign == LV_SIGNAL_CONTROL) {
 1424              		.loc 4 465 0
 1425 0012 FB7A     		ldrb	r3, [r7, #11]	@ zero_extendqisi2
 1426 0014 122B     		cmp	r3, #18
 1427 0016 0FD1     		bne	.L74
 466:..\..\..\lvgl\version_6.1.2\lvgl\src\lv_objx/lv_mbox.c ****         c_trans = *((char *)param);
 1428              		.loc 4 466 0
 1429 0018 7B68     		ldr	r3, [r7, #4]
 1430 001a 1B78     		ldrb	r3, [r3]	@ zero_extendqisi2
 1431 001c FB75     		strb	r3, [r7, #23]
 467:..\..\..\lvgl\version_6.1.2\lvgl\src\lv_objx/lv_mbox.c ****         if(c_trans == LV_KEY_DOWN) c_trans = LV_KEY_LEFT;
 1432              		.loc 4 467 0
 1433 001e FB7D     		ldrb	r3, [r7, #23]	@ zero_extendqisi2
 1434 0020 122B     		cmp	r3, #18
 1435 0022 01D1     		bne	.L75
 1436              		.loc 4 467 0 is_stmt 0 discriminator 1
 1437 0024 1423     		movs	r3, #20
 1438 0026 FB75     		strb	r3, [r7, #23]
 1439              	.L75:
 468:..\..\..\lvgl\version_6.1.2\lvgl\src\lv_objx/lv_mbox.c ****         if(c_trans == LV_KEY_UP) c_trans = LV_KEY_RIGHT;
 1440              		.loc 4 468 0 is_stmt 1
 1441 0028 FB7D     		ldrb	r3, [r7, #23]	@ zero_extendqisi2
 1442 002a 112B     		cmp	r3, #17
 1443 002c 01D1     		bne	.L76
 1444              		.loc 4 468 0 is_stmt 0 discriminator 1
 1445 002e 1323     		movs	r3, #19
 1446 0030 FB75     		strb	r3, [r7, #23]
ARM GAS  C:\Users\tmj32\AppData\Local\Temp\ccSNdAsc.s 			page 41


 1447              	.L76:
 469:..\..\..\lvgl\version_6.1.2\lvgl\src\lv_objx/lv_mbox.c **** 
 470:..\..\..\lvgl\version_6.1.2\lvgl\src\lv_objx/lv_mbox.c ****         param = &c_trans;
 1448              		.loc 4 470 0 is_stmt 1
 1449 0032 07F11703 		add	r3, r7, #23
 1450 0036 7B60     		str	r3, [r7, #4]
 1451              	.L74:
 471:..\..\..\lvgl\version_6.1.2\lvgl\src\lv_objx/lv_mbox.c ****     }
 472:..\..\..\lvgl\version_6.1.2\lvgl\src\lv_objx/lv_mbox.c **** 
 473:..\..\..\lvgl\version_6.1.2\lvgl\src\lv_objx/lv_mbox.c ****     /* Include the ancient signal function */
 474:..\..\..\lvgl\version_6.1.2\lvgl\src\lv_objx/lv_mbox.c ****     res = ancestor_signal(mbox, sign, param);
 1452              		.loc 4 474 0
 1453 0038 354B     		ldr	r3, .L90
 1454 003a 1B68     		ldr	r3, [r3]
 1455 003c F97A     		ldrb	r1, [r7, #11]	@ zero_extendqisi2
 1456 003e 7A68     		ldr	r2, [r7, #4]
 1457 0040 F868     		ldr	r0, [r7, #12]
 1458 0042 9847     		blx	r3
 1459 0044 0346     		mov	r3, r0
 1460 0046 FB77     		strb	r3, [r7, #31]
 475:..\..\..\lvgl\version_6.1.2\lvgl\src\lv_objx/lv_mbox.c ****     if(res != LV_RES_OK) return res;
 1461              		.loc 4 475 0
 1462 0048 FB7F     		ldrb	r3, [r7, #31]	@ zero_extendqisi2
 1463 004a 012B     		cmp	r3, #1
 1464 004c 01D0     		beq	.L77
 1465              		.loc 4 475 0 is_stmt 0 discriminator 1
 1466 004e FB7F     		ldrb	r3, [r7, #31]	@ zero_extendqisi2
 1467 0050 59E0     		b	.L89
 1468              	.L77:
 476:..\..\..\lvgl\version_6.1.2\lvgl\src\lv_objx/lv_mbox.c ****     if(sign == LV_SIGNAL_GET_TYPE) return lv_obj_handle_get_type_signal(param, LV_OBJX_NAME);
 1469              		.loc 4 476 0 is_stmt 1
 1470 0052 FB7A     		ldrb	r3, [r7, #11]	@ zero_extendqisi2
 1471 0054 072B     		cmp	r3, #7
 1472 0056 05D1     		bne	.L79
 1473              		.loc 4 476 0 is_stmt 0 discriminator 1
 1474 0058 2E49     		ldr	r1, .L90+4
 1475 005a 7868     		ldr	r0, [r7, #4]
 1476 005c FFF7FEFF 		bl	lv_obj_handle_get_type_signal
 1477 0060 0346     		mov	r3, r0
 1478 0062 50E0     		b	.L89
 1479              	.L79:
 477:..\..\..\lvgl\version_6.1.2\lvgl\src\lv_objx/lv_mbox.c **** 
 478:..\..\..\lvgl\version_6.1.2\lvgl\src\lv_objx/lv_mbox.c ****     lv_mbox_ext_t * ext = lv_obj_get_ext_attr(mbox);
 1480              		.loc 4 478 0 is_stmt 1
 1481 0064 F868     		ldr	r0, [r7, #12]
 1482 0066 FFF7FEFF 		bl	lv_obj_get_ext_attr
 1483 006a B861     		str	r0, [r7, #24]
 479:..\..\..\lvgl\version_6.1.2\lvgl\src\lv_objx/lv_mbox.c ****     if(sign == LV_SIGNAL_CORD_CHG) {
 1484              		.loc 4 479 0
 1485 006c FB7A     		ldrb	r3, [r7, #11]	@ zero_extendqisi2
 1486 006e 022B     		cmp	r3, #2
 1487 0070 0ED1     		bne	.L80
 480:..\..\..\lvgl\version_6.1.2\lvgl\src\lv_objx/lv_mbox.c ****         if(lv_obj_get_width(mbox) != lv_area_get_width(param)) {
 1488              		.loc 4 480 0
 1489 0072 F868     		ldr	r0, [r7, #12]
 1490 0074 FFF7FEFF 		bl	lv_obj_get_width
 1491 0078 0346     		mov	r3, r0
ARM GAS  C:\Users\tmj32\AppData\Local\Temp\ccSNdAsc.s 			page 42


 1492 007a 1C46     		mov	r4, r3
 1493 007c 7868     		ldr	r0, [r7, #4]
 1494 007e FFF7FEFF 		bl	lv_area_get_width
 1495 0082 0346     		mov	r3, r0
 1496 0084 9C42     		cmp	r4, r3
 1497 0086 3DD0     		beq	.L82
 481:..\..\..\lvgl\version_6.1.2\lvgl\src\lv_objx/lv_mbox.c ****             mbox_realign(mbox);
 1498              		.loc 4 481 0
 1499 0088 F868     		ldr	r0, [r7, #12]
 1500 008a FFF7FEFF 		bl	mbox_realign
 1501 008e 39E0     		b	.L82
 1502              	.L80:
 482:..\..\..\lvgl\version_6.1.2\lvgl\src\lv_objx/lv_mbox.c ****         }
 483:..\..\..\lvgl\version_6.1.2\lvgl\src\lv_objx/lv_mbox.c ****     } else if(sign == LV_SIGNAL_STYLE_CHG) {
 1503              		.loc 4 483 0
 1504 0090 FB7A     		ldrb	r3, [r7, #11]	@ zero_extendqisi2
 1505 0092 042B     		cmp	r3, #4
 1506 0094 03D1     		bne	.L83
 484:..\..\..\lvgl\version_6.1.2\lvgl\src\lv_objx/lv_mbox.c ****         mbox_realign(mbox);
 1507              		.loc 4 484 0
 1508 0096 F868     		ldr	r0, [r7, #12]
 1509 0098 FFF7FEFF 		bl	mbox_realign
 1510 009c 32E0     		b	.L82
 1511              	.L83:
 485:..\..\..\lvgl\version_6.1.2\lvgl\src\lv_objx/lv_mbox.c ****     } else if(sign == LV_SIGNAL_RELEASED) {
 1512              		.loc 4 485 0
 1513 009e FB7A     		ldrb	r3, [r7, #11]	@ zero_extendqisi2
 1514 00a0 0B2B     		cmp	r3, #11
 1515 00a2 17D1     		bne	.L84
 486:..\..\..\lvgl\version_6.1.2\lvgl\src\lv_objx/lv_mbox.c ****         if(ext->btnm) {
 1516              		.loc 4 486 0
 1517 00a4 BB69     		ldr	r3, [r7, #24]
 1518 00a6 9B68     		ldr	r3, [r3, #8]
 1519 00a8 002B     		cmp	r3, #0
 1520 00aa 2BD0     		beq	.L82
 1521              	.LBB7:
 487:..\..\..\lvgl\version_6.1.2\lvgl\src\lv_objx/lv_mbox.c ****             uint32_t btn_id = lv_btnm_get_active_btn(ext->btnm);
 1522              		.loc 4 487 0
 1523 00ac BB69     		ldr	r3, [r7, #24]
 1524 00ae 9B68     		ldr	r3, [r3, #8]
 1525 00b0 1846     		mov	r0, r3
 1526 00b2 FFF7FEFF 		bl	lv_btnm_get_active_btn
 1527 00b6 0346     		mov	r3, r0
 1528 00b8 3B61     		str	r3, [r7, #16]
 488:..\..\..\lvgl\version_6.1.2\lvgl\src\lv_objx/lv_mbox.c ****             if(btn_id != LV_BTNM_BTN_NONE) lv_event_send(mbox, LV_EVENT_VALUE_CHANGED, &btn_id);
 1529              		.loc 4 488 0
 1530 00ba 3B69     		ldr	r3, [r7, #16]
 1531 00bc 4FF6FF72 		movw	r2, #65535
 1532 00c0 9342     		cmp	r3, r2
 1533 00c2 1FD0     		beq	.L82
 1534              		.loc 4 488 0 is_stmt 0 discriminator 1
 1535 00c4 07F11003 		add	r3, r7, #16
 1536 00c8 1A46     		mov	r2, r3
 1537 00ca 0E21     		movs	r1, #14
 1538 00cc F868     		ldr	r0, [r7, #12]
 1539 00ce FFF7FEFF 		bl	lv_event_send
 1540 00d2 17E0     		b	.L82
ARM GAS  C:\Users\tmj32\AppData\Local\Temp\ccSNdAsc.s 			page 43


 1541              	.L84:
 1542              	.LBE7:
 489:..\..\..\lvgl\version_6.1.2\lvgl\src\lv_objx/lv_mbox.c ****         }
 490:..\..\..\lvgl\version_6.1.2\lvgl\src\lv_objx/lv_mbox.c ****     } else if(sign == LV_SIGNAL_FOCUS || sign == LV_SIGNAL_DEFOCUS || sign == LV_SIGNAL_CONTROL ||
 1543              		.loc 4 490 0 is_stmt 1
 1544 00d4 FB7A     		ldrb	r3, [r7, #11]	@ zero_extendqisi2
 1545 00d6 102B     		cmp	r3, #16
 1546 00d8 08D0     		beq	.L87
 1547              		.loc 4 490 0 is_stmt 0 discriminator 1
 1548 00da FB7A     		ldrb	r3, [r7, #11]	@ zero_extendqisi2
 1549 00dc 112B     		cmp	r3, #17
 1550 00de 05D0     		beq	.L87
 1551              		.loc 4 490 0 discriminator 2
 1552 00e0 FB7A     		ldrb	r3, [r7, #11]	@ zero_extendqisi2
 1553 00e2 122B     		cmp	r3, #18
 1554 00e4 02D0     		beq	.L87
 1555              		.loc 4 490 0 discriminator 3
 1556 00e6 FB7A     		ldrb	r3, [r7, #11]	@ zero_extendqisi2
 1557 00e8 132B     		cmp	r3, #19
 1558 00ea 0BD1     		bne	.L82
 1559              	.L87:
 491:..\..\..\lvgl\version_6.1.2\lvgl\src\lv_objx/lv_mbox.c ****               sign == LV_SIGNAL_GET_EDITABLE) {
 492:..\..\..\lvgl\version_6.1.2\lvgl\src\lv_objx/lv_mbox.c ****         if(ext->btnm) {
 1560              		.loc 4 492 0 is_stmt 1
 1561 00ec BB69     		ldr	r3, [r7, #24]
 1562 00ee 9B68     		ldr	r3, [r3, #8]
 1563 00f0 002B     		cmp	r3, #0
 1564 00f2 07D0     		beq	.L82
 493:..\..\..\lvgl\version_6.1.2\lvgl\src\lv_objx/lv_mbox.c ****             ext->btnm->signal_cb(ext->btnm, sign, param);
 1565              		.loc 4 493 0
 1566 00f4 BB69     		ldr	r3, [r7, #24]
 1567 00f6 9B68     		ldr	r3, [r3, #8]
 1568 00f8 DB69     		ldr	r3, [r3, #28]
 1569 00fa BA69     		ldr	r2, [r7, #24]
 1570 00fc 9068     		ldr	r0, [r2, #8]
 1571 00fe F97A     		ldrb	r1, [r7, #11]	@ zero_extendqisi2
 1572 0100 7A68     		ldr	r2, [r7, #4]
 1573 0102 9847     		blx	r3
 1574              	.L82:
 494:..\..\..\lvgl\version_6.1.2\lvgl\src\lv_objx/lv_mbox.c ****         }
 495:..\..\..\lvgl\version_6.1.2\lvgl\src\lv_objx/lv_mbox.c **** 
 496:..\..\..\lvgl\version_6.1.2\lvgl\src\lv_objx/lv_mbox.c ****         /* The button matrix with ENCODER input supposes it's in a group but in this case it isn't
 497:..\..\..\lvgl\version_6.1.2\lvgl\src\lv_objx/lv_mbox.c ****          * (Only the message box's container) So so some actions here instead*/
 498:..\..\..\lvgl\version_6.1.2\lvgl\src\lv_objx/lv_mbox.c ****         if(sign == LV_SIGNAL_FOCUS) {
 499:..\..\..\lvgl\version_6.1.2\lvgl\src\lv_objx/lv_mbox.c **** #if LV_USE_GROUP
 500:..\..\..\lvgl\version_6.1.2\lvgl\src\lv_objx/lv_mbox.c ****             lv_indev_t * indev         = lv_indev_get_act();
 501:..\..\..\lvgl\version_6.1.2\lvgl\src\lv_objx/lv_mbox.c ****             lv_indev_type_t indev_type = lv_indev_get_type(indev);
 502:..\..\..\lvgl\version_6.1.2\lvgl\src\lv_objx/lv_mbox.c ****             if(indev_type == LV_INDEV_TYPE_ENCODER) {
 503:..\..\..\lvgl\version_6.1.2\lvgl\src\lv_objx/lv_mbox.c ****                 /*In navigation mode don't select any button but in edit mode select the fist*/
 504:..\..\..\lvgl\version_6.1.2\lvgl\src\lv_objx/lv_mbox.c ****                 lv_btnm_ext_t * btnm_ext = lv_obj_get_ext_attr(ext->btnm);
 505:..\..\..\lvgl\version_6.1.2\lvgl\src\lv_objx/lv_mbox.c ****                 if(lv_group_get_editing(lv_obj_get_group(mbox)))
 506:..\..\..\lvgl\version_6.1.2\lvgl\src\lv_objx/lv_mbox.c ****                     btnm_ext->btn_id_pr = 0;
 507:..\..\..\lvgl\version_6.1.2\lvgl\src\lv_objx/lv_mbox.c ****                 else
 508:..\..\..\lvgl\version_6.1.2\lvgl\src\lv_objx/lv_mbox.c ****                     btnm_ext->btn_id_pr = LV_BTNM_BTN_NONE;
 509:..\..\..\lvgl\version_6.1.2\lvgl\src\lv_objx/lv_mbox.c ****             }
 510:..\..\..\lvgl\version_6.1.2\lvgl\src\lv_objx/lv_mbox.c **** #endif
 511:..\..\..\lvgl\version_6.1.2\lvgl\src\lv_objx/lv_mbox.c ****         }
ARM GAS  C:\Users\tmj32\AppData\Local\Temp\ccSNdAsc.s 			page 44


 512:..\..\..\lvgl\version_6.1.2\lvgl\src\lv_objx/lv_mbox.c ****     }
 513:..\..\..\lvgl\version_6.1.2\lvgl\src\lv_objx/lv_mbox.c **** 
 514:..\..\..\lvgl\version_6.1.2\lvgl\src\lv_objx/lv_mbox.c ****     return res;
 1575              		.loc 4 514 0
 1576 0104 FB7F     		ldrb	r3, [r7, #31]	@ zero_extendqisi2
 1577              	.L89:
 515:..\..\..\lvgl\version_6.1.2\lvgl\src\lv_objx/lv_mbox.c **** }
 1578              		.loc 4 515 0 discriminator 2
 1579 0106 1846     		mov	r0, r3
 1580 0108 2437     		adds	r7, r7, #36
 1581              		.cfi_def_cfa_offset 12
 1582 010a BD46     		mov	sp, r7
 1583              		.cfi_def_cfa_register 13
 1584              		@ sp needed
 1585 010c 90BD     		pop	{r4, r7, pc}
 1586              	.L91:
 1587 010e 00BF     		.align	2
 1588              	.L90:
 1589 0110 00000000 		.word	ancestor_signal
 1590 0114 08000000 		.word	.LC1
 1591              		.cfi_endproc
 1592              	.LFE61:
 1593              		.size	lv_mbox_signal, .-lv_mbox_signal
 1594              		.section	.text.mbox_realign,"ax",%progbits
 1595              		.align	2
 1596              		.thumb
 1597              		.thumb_func
 1598              		.type	mbox_realign, %function
 1599              	mbox_realign:
 1600              	.LFB62:
 516:..\..\..\lvgl\version_6.1.2\lvgl\src\lv_objx/lv_mbox.c **** 
 517:..\..\..\lvgl\version_6.1.2\lvgl\src\lv_objx/lv_mbox.c **** /**
 518:..\..\..\lvgl\version_6.1.2\lvgl\src\lv_objx/lv_mbox.c ****  * Resize the button holder to fit
 519:..\..\..\lvgl\version_6.1.2\lvgl\src\lv_objx/lv_mbox.c ****  * @param mbox pointer to message box object
 520:..\..\..\lvgl\version_6.1.2\lvgl\src\lv_objx/lv_mbox.c ****  */
 521:..\..\..\lvgl\version_6.1.2\lvgl\src\lv_objx/lv_mbox.c **** static void mbox_realign(lv_obj_t * mbox)
 522:..\..\..\lvgl\version_6.1.2\lvgl\src\lv_objx/lv_mbox.c **** {
 1601              		.loc 4 522 0
 1602              		.cfi_startproc
 1603              		@ args = 0, pretend = 0, frame = 32
 1604              		@ frame_needed = 1, uses_anonymous_args = 0
 1605 0000 80B5     		push	{r7, lr}
 1606              		.cfi_def_cfa_offset 8
 1607              		.cfi_offset 7, -8
 1608              		.cfi_offset 14, -4
 1609 0002 88B0     		sub	sp, sp, #32
 1610              		.cfi_def_cfa_offset 40
 1611 0004 00AF     		add	r7, sp, #0
 1612              		.cfi_def_cfa_register 7
 1613 0006 7860     		str	r0, [r7, #4]
 523:..\..\..\lvgl\version_6.1.2\lvgl\src\lv_objx/lv_mbox.c ****     lv_mbox_ext_t * ext = lv_obj_get_ext_attr(mbox);
 1614              		.loc 4 523 0
 1615 0008 7868     		ldr	r0, [r7, #4]
 1616 000a FFF7FEFF 		bl	lv_obj_get_ext_attr
 1617 000e F861     		str	r0, [r7, #28]
 524:..\..\..\lvgl\version_6.1.2\lvgl\src\lv_objx/lv_mbox.c **** 
 525:..\..\..\lvgl\version_6.1.2\lvgl\src\lv_objx/lv_mbox.c ****     const lv_style_t * style = lv_mbox_get_style(mbox, LV_MBOX_STYLE_BG);
ARM GAS  C:\Users\tmj32\AppData\Local\Temp\ccSNdAsc.s 			page 45


 1618              		.loc 4 525 0
 1619 0010 0021     		movs	r1, #0
 1620 0012 7868     		ldr	r0, [r7, #4]
 1621 0014 FFF7FEFF 		bl	lv_mbox_get_style
 1622 0018 B861     		str	r0, [r7, #24]
 526:..\..\..\lvgl\version_6.1.2\lvgl\src\lv_objx/lv_mbox.c ****     lv_coord_t w             = lv_obj_get_width(mbox) - style->body.padding.left - style->body.padd
 1623              		.loc 4 526 0
 1624 001a 7868     		ldr	r0, [r7, #4]
 1625 001c FFF7FEFF 		bl	lv_obj_get_width
 1626 0020 0346     		mov	r3, r0
 1627 0022 9AB2     		uxth	r2, r3
 1628 0024 BB69     		ldr	r3, [r7, #24]
 1629 0026 B3F92430 		ldrsh	r3, [r3, #36]
 1630 002a 9BB2     		uxth	r3, r3
 1631 002c D31A     		subs	r3, r2, r3
 1632 002e 9AB2     		uxth	r2, r3
 1633 0030 BB69     		ldr	r3, [r7, #24]
 1634 0032 B3F92630 		ldrsh	r3, [r3, #38]
 1635 0036 9BB2     		uxth	r3, r3
 1636 0038 D31A     		subs	r3, r2, r3
 1637 003a 9BB2     		uxth	r3, r3
 1638 003c FB82     		strh	r3, [r7, #22]	@ movhi
 527:..\..\..\lvgl\version_6.1.2\lvgl\src\lv_objx/lv_mbox.c **** 
 528:..\..\..\lvgl\version_6.1.2\lvgl\src\lv_objx/lv_mbox.c ****     if(ext->text) {
 1639              		.loc 4 528 0
 1640 003e FB69     		ldr	r3, [r7, #28]
 1641 0040 5B68     		ldr	r3, [r3, #4]
 1642 0042 002B     		cmp	r3, #0
 1643 0044 07D0     		beq	.L93
 529:..\..\..\lvgl\version_6.1.2\lvgl\src\lv_objx/lv_mbox.c ****         lv_obj_set_width(ext->text, w);
 1644              		.loc 4 529 0
 1645 0046 FB69     		ldr	r3, [r7, #28]
 1646 0048 5B68     		ldr	r3, [r3, #4]
 1647 004a B7F91620 		ldrsh	r2, [r7, #22]
 1648 004e 1146     		mov	r1, r2
 1649 0050 1846     		mov	r0, r3
 1650 0052 FFF7FEFF 		bl	lv_obj_set_width
 1651              	.L93:
 530:..\..\..\lvgl\version_6.1.2\lvgl\src\lv_objx/lv_mbox.c ****     }
 531:..\..\..\lvgl\version_6.1.2\lvgl\src\lv_objx/lv_mbox.c **** 
 532:..\..\..\lvgl\version_6.1.2\lvgl\src\lv_objx/lv_mbox.c ****     if(ext->btnm) {
 1652              		.loc 4 532 0
 1653 0056 FB69     		ldr	r3, [r7, #28]
 1654 0058 9B68     		ldr	r3, [r3, #8]
 1655 005a 002B     		cmp	r3, #0
 1656 005c 31D0     		beq	.L95
 1657              	.LBB8:
 533:..\..\..\lvgl\version_6.1.2\lvgl\src\lv_objx/lv_mbox.c ****         const lv_style_t * btn_bg_style  = lv_mbox_get_style(mbox, LV_MBOX_STYLE_BTN_BG);
 1658              		.loc 4 533 0
 1659 005e 0121     		movs	r1, #1
 1660 0060 7868     		ldr	r0, [r7, #4]
 1661 0062 FFF7FEFF 		bl	lv_mbox_get_style
 1662 0066 3861     		str	r0, [r7, #16]
 534:..\..\..\lvgl\version_6.1.2\lvgl\src\lv_objx/lv_mbox.c ****         const lv_style_t * btn_rel_style = lv_mbox_get_style(mbox, LV_MBOX_STYLE_BTN_REL);
 1663              		.loc 4 534 0
 1664 0068 0221     		movs	r1, #2
 1665 006a 7868     		ldr	r0, [r7, #4]
ARM GAS  C:\Users\tmj32\AppData\Local\Temp\ccSNdAsc.s 			page 46


 1666 006c FFF7FEFF 		bl	lv_mbox_get_style
 1667 0070 F860     		str	r0, [r7, #12]
 535:..\..\..\lvgl\version_6.1.2\lvgl\src\lv_objx/lv_mbox.c ****         lv_coord_t font_h                = lv_font_get_line_height(btn_rel_style->text.font);
 1668              		.loc 4 535 0
 1669 0072 FB68     		ldr	r3, [r7, #12]
 1670 0074 5B6B     		ldr	r3, [r3, #52]
 1671 0076 1846     		mov	r0, r3
 1672 0078 FFF7FEFF 		bl	lv_font_get_line_height
 1673 007c 0346     		mov	r3, r0
 1674 007e 7B81     		strh	r3, [r7, #10]	@ movhi
 536:..\..\..\lvgl\version_6.1.2\lvgl\src\lv_objx/lv_mbox.c ****         lv_obj_set_size(ext->btnm, w,
 1675              		.loc 4 536 0
 1676 0080 FB69     		ldr	r3, [r7, #28]
 1677 0082 9868     		ldr	r0, [r3, #8]
 537:..\..\..\lvgl\version_6.1.2\lvgl\src\lv_objx/lv_mbox.c ****                         font_h + btn_rel_style->body.padding.top + btn_rel_style->body.padding.bott
 1678              		.loc 4 537 0
 1679 0084 FB68     		ldr	r3, [r7, #12]
 1680 0086 B3F92030 		ldrsh	r3, [r3, #32]
 536:..\..\..\lvgl\version_6.1.2\lvgl\src\lv_objx/lv_mbox.c ****         lv_obj_set_size(ext->btnm, w,
 1681              		.loc 4 536 0
 1682 008a 9AB2     		uxth	r2, r3
 1683 008c 7B89     		ldrh	r3, [r7, #10]
 1684 008e 1344     		add	r3, r3, r2
 1685 0090 9AB2     		uxth	r2, r3
 1686              		.loc 4 537 0
 1687 0092 FB68     		ldr	r3, [r7, #12]
 1688 0094 B3F92230 		ldrsh	r3, [r3, #34]
 536:..\..\..\lvgl\version_6.1.2\lvgl\src\lv_objx/lv_mbox.c ****         lv_obj_set_size(ext->btnm, w,
 1689              		.loc 4 536 0
 1690 0098 9BB2     		uxth	r3, r3
 1691 009a 1344     		add	r3, r3, r2
 1692 009c 9AB2     		uxth	r2, r3
 538:..\..\..\lvgl\version_6.1.2\lvgl\src\lv_objx/lv_mbox.c ****                             btn_bg_style->body.padding.top + btn_bg_style->body.padding.bottom);
 1693              		.loc 4 538 0
 1694 009e 3B69     		ldr	r3, [r7, #16]
 1695 00a0 B3F92030 		ldrsh	r3, [r3, #32]
 536:..\..\..\lvgl\version_6.1.2\lvgl\src\lv_objx/lv_mbox.c ****         lv_obj_set_size(ext->btnm, w,
 1696              		.loc 4 536 0
 1697 00a4 9BB2     		uxth	r3, r3
 1698 00a6 1344     		add	r3, r3, r2
 1699 00a8 9AB2     		uxth	r2, r3
 1700              		.loc 4 538 0
 1701 00aa 3B69     		ldr	r3, [r7, #16]
 1702 00ac B3F92230 		ldrsh	r3, [r3, #34]
 536:..\..\..\lvgl\version_6.1.2\lvgl\src\lv_objx/lv_mbox.c ****         lv_obj_set_size(ext->btnm, w,
 1703              		.loc 4 536 0
 1704 00b0 9BB2     		uxth	r3, r3
 1705 00b2 1344     		add	r3, r3, r2
 1706 00b4 9BB2     		uxth	r3, r3
 1707 00b6 1AB2     		sxth	r2, r3
 1708 00b8 B7F91630 		ldrsh	r3, [r7, #22]
 1709 00bc 1946     		mov	r1, r3
 1710 00be FFF7FEFF 		bl	lv_obj_set_size
 1711              	.L95:
 1712              	.LBE8:
 539:..\..\..\lvgl\version_6.1.2\lvgl\src\lv_objx/lv_mbox.c ****     }
 540:..\..\..\lvgl\version_6.1.2\lvgl\src\lv_objx/lv_mbox.c **** }
ARM GAS  C:\Users\tmj32\AppData\Local\Temp\ccSNdAsc.s 			page 47


 1713              		.loc 4 540 0
 1714 00c2 00BF     		nop
 1715 00c4 2037     		adds	r7, r7, #32
 1716              		.cfi_def_cfa_offset 8
 1717 00c6 BD46     		mov	sp, r7
 1718              		.cfi_def_cfa_register 13
 1719              		@ sp needed
 1720 00c8 80BD     		pop	{r7, pc}
 1721              		.cfi_endproc
 1722              	.LFE62:
 1723              		.size	mbox_realign, .-mbox_realign
 1724 00ca 00BF     		.section	.text.lv_mbox_close_ready_cb,"ax",%progbits
 1725              		.align	2
 1726              		.thumb
 1727              		.thumb_func
 1728              		.type	lv_mbox_close_ready_cb, %function
 1729              	lv_mbox_close_ready_cb:
 1730              	.LFB63:
 541:..\..\..\lvgl\version_6.1.2\lvgl\src\lv_objx/lv_mbox.c **** 
 542:..\..\..\lvgl\version_6.1.2\lvgl\src\lv_objx/lv_mbox.c **** #if LV_USE_ANIMATION
 543:..\..\..\lvgl\version_6.1.2\lvgl\src\lv_objx/lv_mbox.c **** static void lv_mbox_close_ready_cb(lv_anim_t * a)
 544:..\..\..\lvgl\version_6.1.2\lvgl\src\lv_objx/lv_mbox.c **** {
 1731              		.loc 4 544 0
 1732              		.cfi_startproc
 1733              		@ args = 0, pretend = 0, frame = 8
 1734              		@ frame_needed = 1, uses_anonymous_args = 0
 1735 0000 80B5     		push	{r7, lr}
 1736              		.cfi_def_cfa_offset 8
 1737              		.cfi_offset 7, -8
 1738              		.cfi_offset 14, -4
 1739 0002 82B0     		sub	sp, sp, #8
 1740              		.cfi_def_cfa_offset 16
 1741 0004 00AF     		add	r7, sp, #0
 1742              		.cfi_def_cfa_register 7
 1743 0006 7860     		str	r0, [r7, #4]
 545:..\..\..\lvgl\version_6.1.2\lvgl\src\lv_objx/lv_mbox.c ****     lv_obj_del(a->var);
 1744              		.loc 4 545 0
 1745 0008 7B68     		ldr	r3, [r7, #4]
 1746 000a 1B68     		ldr	r3, [r3]
 1747 000c 1846     		mov	r0, r3
 1748 000e FFF7FEFF 		bl	lv_obj_del
 546:..\..\..\lvgl\version_6.1.2\lvgl\src\lv_objx/lv_mbox.c **** }
 1749              		.loc 4 546 0
 1750 0012 00BF     		nop
 1751 0014 0837     		adds	r7, r7, #8
 1752              		.cfi_def_cfa_offset 8
 1753 0016 BD46     		mov	sp, r7
 1754              		.cfi_def_cfa_register 13
 1755              		@ sp needed
 1756 0018 80BD     		pop	{r7, pc}
 1757              		.cfi_endproc
 1758              	.LFE63:
 1759              		.size	lv_mbox_close_ready_cb, .-lv_mbox_close_ready_cb
 1760 001a 00BF     		.section	.text.lv_mbox_default_event_cb,"ax",%progbits
 1761              		.align	2
 1762              		.thumb
 1763              		.thumb_func
ARM GAS  C:\Users\tmj32\AppData\Local\Temp\ccSNdAsc.s 			page 48


 1764              		.type	lv_mbox_default_event_cb, %function
 1765              	lv_mbox_default_event_cb:
 1766              	.LFB64:
 547:..\..\..\lvgl\version_6.1.2\lvgl\src\lv_objx/lv_mbox.c **** #endif
 548:..\..\..\lvgl\version_6.1.2\lvgl\src\lv_objx/lv_mbox.c **** 
 549:..\..\..\lvgl\version_6.1.2\lvgl\src\lv_objx/lv_mbox.c **** static void lv_mbox_default_event_cb(lv_obj_t * mbox, lv_event_t event)
 550:..\..\..\lvgl\version_6.1.2\lvgl\src\lv_objx/lv_mbox.c **** {
 1767              		.loc 4 550 0
 1768              		.cfi_startproc
 1769              		@ args = 0, pretend = 0, frame = 16
 1770              		@ frame_needed = 1, uses_anonymous_args = 0
 1771 0000 80B5     		push	{r7, lr}
 1772              		.cfi_def_cfa_offset 8
 1773              		.cfi_offset 7, -8
 1774              		.cfi_offset 14, -4
 1775 0002 84B0     		sub	sp, sp, #16
 1776              		.cfi_def_cfa_offset 24
 1777 0004 00AF     		add	r7, sp, #0
 1778              		.cfi_def_cfa_register 7
 1779 0006 7860     		str	r0, [r7, #4]
 1780 0008 0B46     		mov	r3, r1
 1781 000a FB70     		strb	r3, [r7, #3]
 551:..\..\..\lvgl\version_6.1.2\lvgl\src\lv_objx/lv_mbox.c ****     if(event != LV_EVENT_VALUE_CHANGED) return;
 1782              		.loc 4 551 0
 1783 000c FB78     		ldrb	r3, [r7, #3]	@ zero_extendqisi2
 1784 000e 0E2B     		cmp	r3, #14
 1785 0010 0ED1     		bne	.L101
 552:..\..\..\lvgl\version_6.1.2\lvgl\src\lv_objx/lv_mbox.c **** 
 553:..\..\..\lvgl\version_6.1.2\lvgl\src\lv_objx/lv_mbox.c ****     uint32_t btn_id = lv_mbox_get_active_btn(mbox);
 1786              		.loc 4 553 0
 1787 0012 7868     		ldr	r0, [r7, #4]
 1788 0014 FFF7FEFF 		bl	lv_mbox_get_active_btn
 1789 0018 0346     		mov	r3, r0
 1790 001a FB60     		str	r3, [r7, #12]
 554:..\..\..\lvgl\version_6.1.2\lvgl\src\lv_objx/lv_mbox.c ****     if(btn_id == LV_BTNM_BTN_NONE) return;
 1791              		.loc 4 554 0
 1792 001c FB68     		ldr	r3, [r7, #12]
 1793 001e 4FF6FF72 		movw	r2, #65535
 1794 0022 9342     		cmp	r3, r2
 1795 0024 06D0     		beq	.L102
 555:..\..\..\lvgl\version_6.1.2\lvgl\src\lv_objx/lv_mbox.c **** 
 556:..\..\..\lvgl\version_6.1.2\lvgl\src\lv_objx/lv_mbox.c ****     lv_mbox_start_auto_close(mbox, 0);
 1796              		.loc 4 556 0
 1797 0026 0021     		movs	r1, #0
 1798 0028 7868     		ldr	r0, [r7, #4]
 1799 002a FFF7FEFF 		bl	lv_mbox_start_auto_close
 1800 002e 02E0     		b	.L97
 1801              	.L101:
 551:..\..\..\lvgl\version_6.1.2\lvgl\src\lv_objx/lv_mbox.c **** 
 1802              		.loc 4 551 0
 1803 0030 00BF     		nop
 1804 0032 00E0     		b	.L97
 1805              	.L102:
 554:..\..\..\lvgl\version_6.1.2\lvgl\src\lv_objx/lv_mbox.c ****     if(btn_id == LV_BTNM_BTN_NONE) return;
 1806              		.loc 4 554 0
 1807 0034 00BF     		nop
 1808              	.L97:
ARM GAS  C:\Users\tmj32\AppData\Local\Temp\ccSNdAsc.s 			page 49


 557:..\..\..\lvgl\version_6.1.2\lvgl\src\lv_objx/lv_mbox.c **** }
 1809              		.loc 4 557 0
 1810 0036 1037     		adds	r7, r7, #16
 1811              		.cfi_def_cfa_offset 8
 1812 0038 BD46     		mov	sp, r7
 1813              		.cfi_def_cfa_register 13
 1814              		@ sp needed
 1815 003a 80BD     		pop	{r7, pc}
 1816              		.cfi_endproc
 1817              	.LFE64:
 1818              		.size	lv_mbox_default_event_cb, .-lv_mbox_default_event_cb
 1819              		.section	.text.lv_mbox_btnm_event_cb,"ax",%progbits
 1820              		.align	2
 1821              		.thumb
 1822              		.thumb_func
 1823              		.type	lv_mbox_btnm_event_cb, %function
 1824              	lv_mbox_btnm_event_cb:
 1825              	.LFB65:
 558:..\..\..\lvgl\version_6.1.2\lvgl\src\lv_objx/lv_mbox.c **** 
 559:..\..\..\lvgl\version_6.1.2\lvgl\src\lv_objx/lv_mbox.c **** static void lv_mbox_btnm_event_cb(lv_obj_t * btnm, lv_event_t event)
 560:..\..\..\lvgl\version_6.1.2\lvgl\src\lv_objx/lv_mbox.c **** {
 1826              		.loc 4 560 0
 1827              		.cfi_startproc
 1828              		@ args = 0, pretend = 0, frame = 16
 1829              		@ frame_needed = 1, uses_anonymous_args = 0
 1830 0000 80B5     		push	{r7, lr}
 1831              		.cfi_def_cfa_offset 8
 1832              		.cfi_offset 7, -8
 1833              		.cfi_offset 14, -4
 1834 0002 84B0     		sub	sp, sp, #16
 1835              		.cfi_def_cfa_offset 24
 1836 0004 00AF     		add	r7, sp, #0
 1837              		.cfi_def_cfa_register 7
 1838 0006 7860     		str	r0, [r7, #4]
 1839 0008 0B46     		mov	r3, r1
 1840 000a FB70     		strb	r3, [r7, #3]
 561:..\..\..\lvgl\version_6.1.2\lvgl\src\lv_objx/lv_mbox.c ****     lv_obj_t * mbox = lv_obj_get_parent(btnm);
 1841              		.loc 4 561 0
 1842 000c 7868     		ldr	r0, [r7, #4]
 1843 000e FFF7FEFF 		bl	lv_obj_get_parent
 1844 0012 F860     		str	r0, [r7, #12]
 562:..\..\..\lvgl\version_6.1.2\lvgl\src\lv_objx/lv_mbox.c **** 
 563:..\..\..\lvgl\version_6.1.2\lvgl\src\lv_objx/lv_mbox.c ****     /*clang-format off*/
 564:..\..\..\lvgl\version_6.1.2\lvgl\src\lv_objx/lv_mbox.c ****     if(event == LV_EVENT_PRESSED || event == LV_EVENT_PRESSING || event == LV_EVENT_PRESS_LOST ||
 1845              		.loc 4 564 0
 1846 0014 FB78     		ldrb	r3, [r7, #3]	@ zero_extendqisi2
 1847 0016 002B     		cmp	r3, #0
 1848 0018 17D0     		beq	.L104
 1849              		.loc 4 564 0 is_stmt 0 discriminator 1
 1850 001a FB78     		ldrb	r3, [r7, #3]	@ zero_extendqisi2
 1851 001c 012B     		cmp	r3, #1
 1852 001e 14D0     		beq	.L104
 1853              		.loc 4 564 0 discriminator 2
 1854 0020 FB78     		ldrb	r3, [r7, #3]	@ zero_extendqisi2
 1855 0022 022B     		cmp	r3, #2
 1856 0024 11D0     		beq	.L104
 1857              		.loc 4 564 0 discriminator 3
ARM GAS  C:\Users\tmj32\AppData\Local\Temp\ccSNdAsc.s 			page 50


 1858 0026 FB78     		ldrb	r3, [r7, #3]	@ zero_extendqisi2
 1859 0028 072B     		cmp	r3, #7
 1860 002a 0ED0     		beq	.L104
 565:..\..\..\lvgl\version_6.1.2\lvgl\src\lv_objx/lv_mbox.c ****        event == LV_EVENT_RELEASED || event == LV_EVENT_SHORT_CLICKED || event == LV_EVENT_CLICKED |
 1861              		.loc 4 565 0 is_stmt 1
 1862 002c FB78     		ldrb	r3, [r7, #3]	@ zero_extendqisi2
 1863 002e 032B     		cmp	r3, #3
 1864 0030 0BD0     		beq	.L104
 1865              		.loc 4 565 0 is_stmt 0 discriminator 1
 1866 0032 FB78     		ldrb	r3, [r7, #3]	@ zero_extendqisi2
 1867 0034 062B     		cmp	r3, #6
 1868 0036 08D0     		beq	.L104
 1869              		.loc 4 565 0 discriminator 2
 1870 0038 FB78     		ldrb	r3, [r7, #3]	@ zero_extendqisi2
 1871 003a 042B     		cmp	r3, #4
 1872 003c 05D0     		beq	.L104
 566:..\..\..\lvgl\version_6.1.2\lvgl\src\lv_objx/lv_mbox.c ****        event == LV_EVENT_LONG_PRESSED || event == LV_EVENT_LONG_PRESSED_REPEAT ||
 1873              		.loc 4 566 0 is_stmt 1
 1874 003e FB78     		ldrb	r3, [r7, #3]	@ zero_extendqisi2
 1875 0040 052B     		cmp	r3, #5
 1876 0042 02D0     		beq	.L104
 1877              		.loc 4 566 0 is_stmt 0 discriminator 1
 1878 0044 FB78     		ldrb	r3, [r7, #3]	@ zero_extendqisi2
 1879 0046 0E2B     		cmp	r3, #14
 1880 0048 07D1     		bne	.L106
 1881              	.L104:
 567:..\..\..\lvgl\version_6.1.2\lvgl\src\lv_objx/lv_mbox.c ****        event == LV_EVENT_VALUE_CHANGED) {
 568:..\..\..\lvgl\version_6.1.2\lvgl\src\lv_objx/lv_mbox.c ****         lv_event_send(mbox, event, lv_event_get_data());
 1882              		.loc 4 568 0 is_stmt 1
 1883 004a FFF7FEFF 		bl	lv_event_get_data
 1884 004e 0246     		mov	r2, r0
 1885 0050 FB78     		ldrb	r3, [r7, #3]	@ zero_extendqisi2
 1886 0052 1946     		mov	r1, r3
 1887 0054 F868     		ldr	r0, [r7, #12]
 1888 0056 FFF7FEFF 		bl	lv_event_send
 1889              	.L106:
 569:..\..\..\lvgl\version_6.1.2\lvgl\src\lv_objx/lv_mbox.c ****     }
 570:..\..\..\lvgl\version_6.1.2\lvgl\src\lv_objx/lv_mbox.c ****     /*clang-format on*/
 571:..\..\..\lvgl\version_6.1.2\lvgl\src\lv_objx/lv_mbox.c **** }
 1890              		.loc 4 571 0
 1891 005a 00BF     		nop
 1892 005c 1037     		adds	r7, r7, #16
 1893              		.cfi_def_cfa_offset 8
 1894 005e BD46     		mov	sp, r7
 1895              		.cfi_def_cfa_register 13
 1896              		@ sp needed
 1897 0060 80BD     		pop	{r7, pc}
 1898              		.cfi_endproc
 1899              	.LFE65:
 1900              		.size	lv_mbox_btnm_event_cb, .-lv_mbox_btnm_event_cb
 1901 0062 00BF     		.text
 1902              	.Letext0:
 1903              		.file 5 "c:\\program files (x86)\\cypress\\psoc creator\\4.3\\psoc creator\\import\\gnu\\arm\\5.4.
 1904              		.file 6 "c:\\program files (x86)\\cypress\\psoc creator\\4.3\\psoc creator\\import\\gnu\\arm\\5.4.
 1905              		.file 7 "..\\..\\..\\lvgl\\version_6.1.2\\lvgl\\src\\lv_objx\\../../../lv_conf.h"
 1906              		.file 8 "..\\..\\..\\lvgl\\version_6.1.2\\lvgl\\src\\lv_objx\\../lv_core/../lv_misc/lv_color.h"
 1907              		.file 9 "..\\..\\..\\lvgl\\version_6.1.2\\lvgl\\src\\lv_objx\\../lv_core/../lv_misc/lv_anim.h"
ARM GAS  C:\Users\tmj32\AppData\Local\Temp\ccSNdAsc.s 			page 51


 1908              		.file 10 "..\\..\\..\\lvgl\\version_6.1.2\\lvgl\\src\\lv_objx\\../lv_core/lv_style.h"
 1909              		.file 11 "..\\..\\..\\lvgl\\version_6.1.2\\lvgl\\src\\lv_objx\\../lv_core/../lv_misc/lv_types.h"
 1910              		.file 12 "..\\..\\..\\lvgl\\version_6.1.2\\lvgl\\src\\lv_objx\\../lv_core/../lv_misc/lv_ll.h"
 1911              		.file 13 "..\\..\\..\\lvgl\\version_6.1.2\\lvgl\\src\\lv_objx\\../lv_core/../lv_misc/lv_bidi.h"
 1912              		.file 14 "..\\..\\..\\lvgl\\version_6.1.2\\lvgl\\src\\lv_objx\\../lv_core/lv_obj.h"
 1913              		.file 15 "..\\..\\..\\lvgl\\version_6.1.2\\lvgl\\src\\lv_objx\\lv_label.h"
 1914              		.file 16 "..\\..\\..\\lvgl\\version_6.1.2\\lvgl\\src\\lv_objx\\../lv_core/../lv_core/lv_group.h"
 1915              		.file 17 "..\\..\\..\\lvgl\\version_6.1.2\\lvgl\\src\\lv_objx\\lv_btn.h"
 1916              		.file 18 "..\\..\\..\\lvgl\\version_6.1.2\\lvgl\\src\\lv_objx\\lv_btnm.h"
 1917              		.file 19 "..\\..\\..\\lvgl\\version_6.1.2\\lvgl\\src\\lv_objx\\lv_mbox.h"
 1918              		.file 20 "..\\..\\..\\lvgl\\version_6.1.2\\lvgl\\src\\lv_objx\\../lv_themes/lv_theme.h"