ARM GAS  C:\Users\tmj32\AppData\Local\Temp\ccxLNxq9.s 			page 1


   1              		.syntax unified
   2              		.cpu cortex-m4
   3              		.eabi_attribute 27, 1
   4              		.fpu fpv4-sp-d16
   5              		.eabi_attribute 20, 1
   6              		.eabi_attribute 21, 1
   7              		.eabi_attribute 23, 3
   8              		.eabi_attribute 24, 1
   9              		.eabi_attribute 25, 1
  10              		.eabi_attribute 26, 1
  11              		.eabi_attribute 30, 6
  12              		.eabi_attribute 34, 1
  13              		.eabi_attribute 18, 4
  14              		.thumb
  15              		.syntax unified
  16              		.file	"lv_obj.c"
  17              		.text
  18              	.Ltext0:
  19              		.cfi_sections	.debug_frame
  20              		.section	.text.lv_area_copy,"ax",%progbits
  21              		.align	2
  22              		.thumb
  23              		.thumb_func
  24              		.type	lv_area_copy, %function
  25              	lv_area_copy:
  26              	.LFB10:
  27              		.file 1 "..\\..\\..\\lvgl\\version_6.1.2\\lvgl\\src\\lv_core\\../lv_misc/lv_area.h"
   1:..\..\..\lvgl\version_6.1.2\lvgl\src\lv_core\../lv_misc/lv_area.h **** /**
   2:..\..\..\lvgl\version_6.1.2\lvgl\src\lv_core\../lv_misc/lv_area.h ****  * @file lv_area.h
   3:..\..\..\lvgl\version_6.1.2\lvgl\src\lv_core\../lv_misc/lv_area.h ****  *
   4:..\..\..\lvgl\version_6.1.2\lvgl\src\lv_core\../lv_misc/lv_area.h ****  */
   5:..\..\..\lvgl\version_6.1.2\lvgl\src\lv_core\../lv_misc/lv_area.h **** 
   6:..\..\..\lvgl\version_6.1.2\lvgl\src\lv_core\../lv_misc/lv_area.h **** #ifndef LV_AREA_H
   7:..\..\..\lvgl\version_6.1.2\lvgl\src\lv_core\../lv_misc/lv_area.h **** #define LV_AREA_H
   8:..\..\..\lvgl\version_6.1.2\lvgl\src\lv_core\../lv_misc/lv_area.h **** 
   9:..\..\..\lvgl\version_6.1.2\lvgl\src\lv_core\../lv_misc/lv_area.h **** #ifdef __cplusplus
  10:..\..\..\lvgl\version_6.1.2\lvgl\src\lv_core\../lv_misc/lv_area.h **** extern "C" {
  11:..\..\..\lvgl\version_6.1.2\lvgl\src\lv_core\../lv_misc/lv_area.h **** #endif
  12:..\..\..\lvgl\version_6.1.2\lvgl\src\lv_core\../lv_misc/lv_area.h **** 
  13:..\..\..\lvgl\version_6.1.2\lvgl\src\lv_core\../lv_misc/lv_area.h **** /*********************
  14:..\..\..\lvgl\version_6.1.2\lvgl\src\lv_core\../lv_misc/lv_area.h ****  *      INCLUDES
  15:..\..\..\lvgl\version_6.1.2\lvgl\src\lv_core\../lv_misc/lv_area.h ****  *********************/
  16:..\..\..\lvgl\version_6.1.2\lvgl\src\lv_core\../lv_misc/lv_area.h **** #include <string.h>
  17:..\..\..\lvgl\version_6.1.2\lvgl\src\lv_core\../lv_misc/lv_area.h **** #include <stdbool.h>
  18:..\..\..\lvgl\version_6.1.2\lvgl\src\lv_core\../lv_misc/lv_area.h **** #include <stdint.h>
  19:..\..\..\lvgl\version_6.1.2\lvgl\src\lv_core\../lv_misc/lv_area.h **** #ifdef LV_CONF_INCLUDE_SIMPLE
  20:..\..\..\lvgl\version_6.1.2\lvgl\src\lv_core\../lv_misc/lv_area.h **** #include "lv_conf.h"
  21:..\..\..\lvgl\version_6.1.2\lvgl\src\lv_core\../lv_misc/lv_area.h **** #else
  22:..\..\..\lvgl\version_6.1.2\lvgl\src\lv_core\../lv_misc/lv_area.h **** #include "../../../lv_conf.h"
  23:..\..\..\lvgl\version_6.1.2\lvgl\src\lv_core\../lv_misc/lv_area.h **** #endif
  24:..\..\..\lvgl\version_6.1.2\lvgl\src\lv_core\../lv_misc/lv_area.h **** 
  25:..\..\..\lvgl\version_6.1.2\lvgl\src\lv_core\../lv_misc/lv_area.h **** /*********************
  26:..\..\..\lvgl\version_6.1.2\lvgl\src\lv_core\../lv_misc/lv_area.h ****  *      DEFINES
  27:..\..\..\lvgl\version_6.1.2\lvgl\src\lv_core\../lv_misc/lv_area.h ****  *********************/
  28:..\..\..\lvgl\version_6.1.2\lvgl\src\lv_core\../lv_misc/lv_area.h **** /*To avoid overflow don't let the max ranges (reduce with 1000) */
  29:..\..\..\lvgl\version_6.1.2\lvgl\src\lv_core\../lv_misc/lv_area.h **** #define LV_COORD_MAX ((lv_coord_t)((uint32_t)((uint32_t)1 << (8 * sizeof(lv_coord_t) - 1)) - 1000))
  30:..\..\..\lvgl\version_6.1.2\lvgl\src\lv_core\../lv_misc/lv_area.h **** #define LV_COORD_MIN (-LV_COORD_MAX)
ARM GAS  C:\Users\tmj32\AppData\Local\Temp\ccxLNxq9.s 			page 2


  31:..\..\..\lvgl\version_6.1.2\lvgl\src\lv_core\../lv_misc/lv_area.h **** 
  32:..\..\..\lvgl\version_6.1.2\lvgl\src\lv_core\../lv_misc/lv_area.h **** LV_EXPORT_CONST_INT(LV_COORD_MAX);
  33:..\..\..\lvgl\version_6.1.2\lvgl\src\lv_core\../lv_misc/lv_area.h **** LV_EXPORT_CONST_INT(LV_COORD_MIN);
  34:..\..\..\lvgl\version_6.1.2\lvgl\src\lv_core\../lv_misc/lv_area.h **** 
  35:..\..\..\lvgl\version_6.1.2\lvgl\src\lv_core\../lv_misc/lv_area.h **** /**********************
  36:..\..\..\lvgl\version_6.1.2\lvgl\src\lv_core\../lv_misc/lv_area.h ****  *      TYPEDEFS
  37:..\..\..\lvgl\version_6.1.2\lvgl\src\lv_core\../lv_misc/lv_area.h ****  **********************/
  38:..\..\..\lvgl\version_6.1.2\lvgl\src\lv_core\../lv_misc/lv_area.h **** 
  39:..\..\..\lvgl\version_6.1.2\lvgl\src\lv_core\../lv_misc/lv_area.h **** /**
  40:..\..\..\lvgl\version_6.1.2\lvgl\src\lv_core\../lv_misc/lv_area.h ****  * Represents a point on the screen.
  41:..\..\..\lvgl\version_6.1.2\lvgl\src\lv_core\../lv_misc/lv_area.h ****  */
  42:..\..\..\lvgl\version_6.1.2\lvgl\src\lv_core\../lv_misc/lv_area.h **** typedef struct
  43:..\..\..\lvgl\version_6.1.2\lvgl\src\lv_core\../lv_misc/lv_area.h **** {
  44:..\..\..\lvgl\version_6.1.2\lvgl\src\lv_core\../lv_misc/lv_area.h ****     lv_coord_t x;
  45:..\..\..\lvgl\version_6.1.2\lvgl\src\lv_core\../lv_misc/lv_area.h ****     lv_coord_t y;
  46:..\..\..\lvgl\version_6.1.2\lvgl\src\lv_core\../lv_misc/lv_area.h **** } lv_point_t;
  47:..\..\..\lvgl\version_6.1.2\lvgl\src\lv_core\../lv_misc/lv_area.h **** 
  48:..\..\..\lvgl\version_6.1.2\lvgl\src\lv_core\../lv_misc/lv_area.h **** /** Represents an area of the screen. */
  49:..\..\..\lvgl\version_6.1.2\lvgl\src\lv_core\../lv_misc/lv_area.h **** typedef struct
  50:..\..\..\lvgl\version_6.1.2\lvgl\src\lv_core\../lv_misc/lv_area.h **** {
  51:..\..\..\lvgl\version_6.1.2\lvgl\src\lv_core\../lv_misc/lv_area.h ****     lv_coord_t x1;
  52:..\..\..\lvgl\version_6.1.2\lvgl\src\lv_core\../lv_misc/lv_area.h ****     lv_coord_t y1;
  53:..\..\..\lvgl\version_6.1.2\lvgl\src\lv_core\../lv_misc/lv_area.h ****     lv_coord_t x2;
  54:..\..\..\lvgl\version_6.1.2\lvgl\src\lv_core\../lv_misc/lv_area.h ****     lv_coord_t y2;
  55:..\..\..\lvgl\version_6.1.2\lvgl\src\lv_core\../lv_misc/lv_area.h **** } lv_area_t;
  56:..\..\..\lvgl\version_6.1.2\lvgl\src\lv_core\../lv_misc/lv_area.h **** 
  57:..\..\..\lvgl\version_6.1.2\lvgl\src\lv_core\../lv_misc/lv_area.h **** /**********************
  58:..\..\..\lvgl\version_6.1.2\lvgl\src\lv_core\../lv_misc/lv_area.h ****  * GLOBAL PROTOTYPES
  59:..\..\..\lvgl\version_6.1.2\lvgl\src\lv_core\../lv_misc/lv_area.h ****  **********************/
  60:..\..\..\lvgl\version_6.1.2\lvgl\src\lv_core\../lv_misc/lv_area.h **** 
  61:..\..\..\lvgl\version_6.1.2\lvgl\src\lv_core\../lv_misc/lv_area.h **** /**
  62:..\..\..\lvgl\version_6.1.2\lvgl\src\lv_core\../lv_misc/lv_area.h ****  * Initialize an area
  63:..\..\..\lvgl\version_6.1.2\lvgl\src\lv_core\../lv_misc/lv_area.h ****  * @param area_p pointer to an area
  64:..\..\..\lvgl\version_6.1.2\lvgl\src\lv_core\../lv_misc/lv_area.h ****  * @param x1 left coordinate of the area
  65:..\..\..\lvgl\version_6.1.2\lvgl\src\lv_core\../lv_misc/lv_area.h ****  * @param y1 top coordinate of the area
  66:..\..\..\lvgl\version_6.1.2\lvgl\src\lv_core\../lv_misc/lv_area.h ****  * @param x2 right coordinate of the area
  67:..\..\..\lvgl\version_6.1.2\lvgl\src\lv_core\../lv_misc/lv_area.h ****  * @param y2 bottom coordinate of the area
  68:..\..\..\lvgl\version_6.1.2\lvgl\src\lv_core\../lv_misc/lv_area.h ****  */
  69:..\..\..\lvgl\version_6.1.2\lvgl\src\lv_core\../lv_misc/lv_area.h **** void lv_area_set(lv_area_t * area_p, lv_coord_t x1, lv_coord_t y1, lv_coord_t x2, lv_coord_t y2);
  70:..\..\..\lvgl\version_6.1.2\lvgl\src\lv_core\../lv_misc/lv_area.h **** 
  71:..\..\..\lvgl\version_6.1.2\lvgl\src\lv_core\../lv_misc/lv_area.h **** /**
  72:..\..\..\lvgl\version_6.1.2\lvgl\src\lv_core\../lv_misc/lv_area.h ****  * Copy an area
  73:..\..\..\lvgl\version_6.1.2\lvgl\src\lv_core\../lv_misc/lv_area.h ****  * @param dest pointer to the destination area
  74:..\..\..\lvgl\version_6.1.2\lvgl\src\lv_core\../lv_misc/lv_area.h ****  * @param src pointer to the source area
  75:..\..\..\lvgl\version_6.1.2\lvgl\src\lv_core\../lv_misc/lv_area.h ****  */
  76:..\..\..\lvgl\version_6.1.2\lvgl\src\lv_core\../lv_misc/lv_area.h **** inline static void lv_area_copy(lv_area_t * dest, const lv_area_t * src)
  77:..\..\..\lvgl\version_6.1.2\lvgl\src\lv_core\../lv_misc/lv_area.h **** {
  28              		.loc 1 77 0
  29              		.cfi_startproc
  30              		@ args = 0, pretend = 0, frame = 8
  31              		@ frame_needed = 1, uses_anonymous_args = 0
  32 0000 80B5     		push	{r7, lr}
  33              		.cfi_def_cfa_offset 8
  34              		.cfi_offset 7, -8
  35              		.cfi_offset 14, -4
  36 0002 82B0     		sub	sp, sp, #8
  37              		.cfi_def_cfa_offset 16
ARM GAS  C:\Users\tmj32\AppData\Local\Temp\ccxLNxq9.s 			page 3


  38 0004 00AF     		add	r7, sp, #0
  39              		.cfi_def_cfa_register 7
  40 0006 7860     		str	r0, [r7, #4]
  41 0008 3960     		str	r1, [r7]
  78:..\..\..\lvgl\version_6.1.2\lvgl\src\lv_core\../lv_misc/lv_area.h ****     memcpy(dest, src, sizeof(lv_area_t));
  42              		.loc 1 78 0
  43 000a 0822     		movs	r2, #8
  44 000c 3968     		ldr	r1, [r7]
  45 000e 7868     		ldr	r0, [r7, #4]
  46 0010 FFF7FEFF 		bl	memcpy
  79:..\..\..\lvgl\version_6.1.2\lvgl\src\lv_core\../lv_misc/lv_area.h **** }
  47              		.loc 1 79 0
  48 0014 00BF     		nop
  49 0016 0837     		adds	r7, r7, #8
  50              		.cfi_def_cfa_offset 8
  51 0018 BD46     		mov	sp, r7
  52              		.cfi_def_cfa_register 13
  53              		@ sp needed
  54 001a 80BD     		pop	{r7, pc}
  55              		.cfi_endproc
  56              	.LFE10:
  57              		.size	lv_area_copy, .-lv_area_copy
  58              		.section	.text.lv_area_get_width,"ax",%progbits
  59              		.align	2
  60              		.thumb
  61              		.thumb_func
  62              		.type	lv_area_get_width, %function
  63              	lv_area_get_width:
  64              	.LFB11:
  80:..\..\..\lvgl\version_6.1.2\lvgl\src\lv_core\../lv_misc/lv_area.h **** 
  81:..\..\..\lvgl\version_6.1.2\lvgl\src\lv_core\../lv_misc/lv_area.h **** /**
  82:..\..\..\lvgl\version_6.1.2\lvgl\src\lv_core\../lv_misc/lv_area.h ****  * Get the width of an area
  83:..\..\..\lvgl\version_6.1.2\lvgl\src\lv_core\../lv_misc/lv_area.h ****  * @param area_p pointer to an area
  84:..\..\..\lvgl\version_6.1.2\lvgl\src\lv_core\../lv_misc/lv_area.h ****  * @return the width of the area (if x1 == x2 -> width = 1)
  85:..\..\..\lvgl\version_6.1.2\lvgl\src\lv_core\../lv_misc/lv_area.h ****  */
  86:..\..\..\lvgl\version_6.1.2\lvgl\src\lv_core\../lv_misc/lv_area.h **** static inline lv_coord_t lv_area_get_width(const lv_area_t * area_p)
  87:..\..\..\lvgl\version_6.1.2\lvgl\src\lv_core\../lv_misc/lv_area.h **** {
  65              		.loc 1 87 0
  66              		.cfi_startproc
  67              		@ args = 0, pretend = 0, frame = 8
  68              		@ frame_needed = 1, uses_anonymous_args = 0
  69              		@ link register save eliminated.
  70 0000 80B4     		push	{r7}
  71              		.cfi_def_cfa_offset 4
  72              		.cfi_offset 7, -4
  73 0002 83B0     		sub	sp, sp, #12
  74              		.cfi_def_cfa_offset 16
  75 0004 00AF     		add	r7, sp, #0
  76              		.cfi_def_cfa_register 7
  77 0006 7860     		str	r0, [r7, #4]
  88:..\..\..\lvgl\version_6.1.2\lvgl\src\lv_core\../lv_misc/lv_area.h ****     return (lv_coord_t)(area_p->x2 - area_p->x1 + 1);
  78              		.loc 1 88 0
  79 0008 7B68     		ldr	r3, [r7, #4]
  80 000a B3F90430 		ldrsh	r3, [r3, #4]
  81 000e 9AB2     		uxth	r2, r3
  82 0010 7B68     		ldr	r3, [r7, #4]
  83 0012 B3F90030 		ldrsh	r3, [r3]
ARM GAS  C:\Users\tmj32\AppData\Local\Temp\ccxLNxq9.s 			page 4


  84 0016 9BB2     		uxth	r3, r3
  85 0018 D31A     		subs	r3, r2, r3
  86 001a 9BB2     		uxth	r3, r3
  87 001c 0133     		adds	r3, r3, #1
  88 001e 9BB2     		uxth	r3, r3
  89 0020 1BB2     		sxth	r3, r3
  89:..\..\..\lvgl\version_6.1.2\lvgl\src\lv_core\../lv_misc/lv_area.h **** }
  90              		.loc 1 89 0
  91 0022 1846     		mov	r0, r3
  92 0024 0C37     		adds	r7, r7, #12
  93              		.cfi_def_cfa_offset 4
  94 0026 BD46     		mov	sp, r7
  95              		.cfi_def_cfa_register 13
  96              		@ sp needed
  97 0028 5DF8047B 		ldr	r7, [sp], #4
  98              		.cfi_restore 7
  99              		.cfi_def_cfa_offset 0
 100 002c 7047     		bx	lr
 101              		.cfi_endproc
 102              	.LFE11:
 103              		.size	lv_area_get_width, .-lv_area_get_width
 104 002e 00BF     		.section	.text.lv_area_get_height,"ax",%progbits
 105              		.align	2
 106              		.thumb
 107              		.thumb_func
 108              		.type	lv_area_get_height, %function
 109              	lv_area_get_height:
 110              	.LFB12:
  90:..\..\..\lvgl\version_6.1.2\lvgl\src\lv_core\../lv_misc/lv_area.h **** 
  91:..\..\..\lvgl\version_6.1.2\lvgl\src\lv_core\../lv_misc/lv_area.h **** /**
  92:..\..\..\lvgl\version_6.1.2\lvgl\src\lv_core\../lv_misc/lv_area.h ****  * Get the height of an area
  93:..\..\..\lvgl\version_6.1.2\lvgl\src\lv_core\../lv_misc/lv_area.h ****  * @param area_p pointer to an area
  94:..\..\..\lvgl\version_6.1.2\lvgl\src\lv_core\../lv_misc/lv_area.h ****  * @return the height of the area (if y1 == y2 -> height = 1)
  95:..\..\..\lvgl\version_6.1.2\lvgl\src\lv_core\../lv_misc/lv_area.h ****  */
  96:..\..\..\lvgl\version_6.1.2\lvgl\src\lv_core\../lv_misc/lv_area.h **** static inline lv_coord_t lv_area_get_height(const lv_area_t * area_p)
  97:..\..\..\lvgl\version_6.1.2\lvgl\src\lv_core\../lv_misc/lv_area.h **** {
 111              		.loc 1 97 0
 112              		.cfi_startproc
 113              		@ args = 0, pretend = 0, frame = 8
 114              		@ frame_needed = 1, uses_anonymous_args = 0
 115              		@ link register save eliminated.
 116 0000 80B4     		push	{r7}
 117              		.cfi_def_cfa_offset 4
 118              		.cfi_offset 7, -4
 119 0002 83B0     		sub	sp, sp, #12
 120              		.cfi_def_cfa_offset 16
 121 0004 00AF     		add	r7, sp, #0
 122              		.cfi_def_cfa_register 7
 123 0006 7860     		str	r0, [r7, #4]
  98:..\..\..\lvgl\version_6.1.2\lvgl\src\lv_core\../lv_misc/lv_area.h ****     return (lv_coord_t)(area_p->y2 - area_p->y1 + 1);
 124              		.loc 1 98 0
 125 0008 7B68     		ldr	r3, [r7, #4]
 126 000a B3F90630 		ldrsh	r3, [r3, #6]
 127 000e 9AB2     		uxth	r2, r3
 128 0010 7B68     		ldr	r3, [r7, #4]
 129 0012 B3F90230 		ldrsh	r3, [r3, #2]
 130 0016 9BB2     		uxth	r3, r3
ARM GAS  C:\Users\tmj32\AppData\Local\Temp\ccxLNxq9.s 			page 5


 131 0018 D31A     		subs	r3, r2, r3
 132 001a 9BB2     		uxth	r3, r3
 133 001c 0133     		adds	r3, r3, #1
 134 001e 9BB2     		uxth	r3, r3
 135 0020 1BB2     		sxth	r3, r3
  99:..\..\..\lvgl\version_6.1.2\lvgl\src\lv_core\../lv_misc/lv_area.h **** }
 136              		.loc 1 99 0
 137 0022 1846     		mov	r0, r3
 138 0024 0C37     		adds	r7, r7, #12
 139              		.cfi_def_cfa_offset 4
 140 0026 BD46     		mov	sp, r7
 141              		.cfi_def_cfa_register 13
 142              		@ sp needed
 143 0028 5DF8047B 		ldr	r7, [sp], #4
 144              		.cfi_restore 7
 145              		.cfi_def_cfa_offset 0
 146 002c 7047     		bx	lr
 147              		.cfi_endproc
 148              	.LFE12:
 149              		.size	lv_area_get_height, .-lv_area_get_height
 150 002e 00BF     		.bss
 151              	lv_initialized:
 152 0000 00       		.space	1
 153 0001 000000   		.align	2
 154              	event_temp_data_head:
 155 0004 00000000 		.space	4
 156              		.align	2
 157              	event_act_data:
 158 0008 00000000 		.space	4
 159              		.section	.text.lv_init,"ax",%progbits
 160              		.align	2
 161              		.global	lv_init
 162              		.thumb
 163              		.thumb_func
 164              		.type	lv_init, %function
 165              	lv_init:
 166              	.LFB35:
 167              		.file 2 "..\\..\\..\\lvgl\\version_6.1.2\\lvgl\\src\\lv_core\\lv_obj.c"
   1:..\..\..\lvgl\version_6.1.2\lvgl\src\lv_core/lv_obj.c **** /**
   2:..\..\..\lvgl\version_6.1.2\lvgl\src\lv_core/lv_obj.c ****  * @file lv_base_obj.c
   3:..\..\..\lvgl\version_6.1.2\lvgl\src\lv_core/lv_obj.c ****  *
   4:..\..\..\lvgl\version_6.1.2\lvgl\src\lv_core/lv_obj.c ****  */
   5:..\..\..\lvgl\version_6.1.2\lvgl\src\lv_core/lv_obj.c **** 
   6:..\..\..\lvgl\version_6.1.2\lvgl\src\lv_core/lv_obj.c **** /*********************
   7:..\..\..\lvgl\version_6.1.2\lvgl\src\lv_core/lv_obj.c ****  *      INCLUDES
   8:..\..\..\lvgl\version_6.1.2\lvgl\src\lv_core/lv_obj.c ****  *********************/
   9:..\..\..\lvgl\version_6.1.2\lvgl\src\lv_core/lv_obj.c **** #include "lv_obj.h"
  10:..\..\..\lvgl\version_6.1.2\lvgl\src\lv_core/lv_obj.c **** #include "lv_indev.h"
  11:..\..\..\lvgl\version_6.1.2\lvgl\src\lv_core/lv_obj.c **** #include "lv_refr.h"
  12:..\..\..\lvgl\version_6.1.2\lvgl\src\lv_core/lv_obj.c **** #include "lv_group.h"
  13:..\..\..\lvgl\version_6.1.2\lvgl\src\lv_core/lv_obj.c **** #include "lv_disp.h"
  14:..\..\..\lvgl\version_6.1.2\lvgl\src\lv_core/lv_obj.c **** #include "../lv_core/lv_debug.h"
  15:..\..\..\lvgl\version_6.1.2\lvgl\src\lv_core/lv_obj.c **** #include "../lv_themes/lv_theme.h"
  16:..\..\..\lvgl\version_6.1.2\lvgl\src\lv_core/lv_obj.c **** #include "../lv_draw/lv_draw.h"
  17:..\..\..\lvgl\version_6.1.2\lvgl\src\lv_core/lv_obj.c **** #include "../lv_misc/lv_anim.h"
  18:..\..\..\lvgl\version_6.1.2\lvgl\src\lv_core/lv_obj.c **** #include "../lv_misc/lv_task.h"
  19:..\..\..\lvgl\version_6.1.2\lvgl\src\lv_core/lv_obj.c **** #include "../lv_misc/lv_async.h"
ARM GAS  C:\Users\tmj32\AppData\Local\Temp\ccxLNxq9.s 			page 6


  20:..\..\..\lvgl\version_6.1.2\lvgl\src\lv_core/lv_obj.c **** #include "../lv_misc/lv_fs.h"
  21:..\..\..\lvgl\version_6.1.2\lvgl\src\lv_core/lv_obj.c **** #include "../lv_hal/lv_hal.h"
  22:..\..\..\lvgl\version_6.1.2\lvgl\src\lv_core/lv_obj.c **** #include <stdint.h>
  23:..\..\..\lvgl\version_6.1.2\lvgl\src\lv_core/lv_obj.c **** #include <string.h>
  24:..\..\..\lvgl\version_6.1.2\lvgl\src\lv_core/lv_obj.c **** #include "../lv_misc/lv_gc.h"
  25:..\..\..\lvgl\version_6.1.2\lvgl\src\lv_core/lv_obj.c **** #include "../lv_misc/lv_math.h"
  26:..\..\..\lvgl\version_6.1.2\lvgl\src\lv_core/lv_obj.c **** 
  27:..\..\..\lvgl\version_6.1.2\lvgl\src\lv_core/lv_obj.c **** #if defined(LV_GC_INCLUDE)
  28:..\..\..\lvgl\version_6.1.2\lvgl\src\lv_core/lv_obj.c **** #include LV_GC_INCLUDE
  29:..\..\..\lvgl\version_6.1.2\lvgl\src\lv_core/lv_obj.c **** #endif /* LV_ENABLE_GC */
  30:..\..\..\lvgl\version_6.1.2\lvgl\src\lv_core/lv_obj.c **** 
  31:..\..\..\lvgl\version_6.1.2\lvgl\src\lv_core/lv_obj.c **** /*********************
  32:..\..\..\lvgl\version_6.1.2\lvgl\src\lv_core/lv_obj.c ****  *      DEFINES
  33:..\..\..\lvgl\version_6.1.2\lvgl\src\lv_core/lv_obj.c ****  *********************/
  34:..\..\..\lvgl\version_6.1.2\lvgl\src\lv_core/lv_obj.c **** #define LV_OBJX_NAME "lv_obj"
  35:..\..\..\lvgl\version_6.1.2\lvgl\src\lv_core/lv_obj.c **** #define LV_OBJ_DEF_WIDTH (LV_DPI)
  36:..\..\..\lvgl\version_6.1.2\lvgl\src\lv_core/lv_obj.c **** #define LV_OBJ_DEF_HEIGHT (2 * LV_DPI / 3)
  37:..\..\..\lvgl\version_6.1.2\lvgl\src\lv_core/lv_obj.c **** 
  38:..\..\..\lvgl\version_6.1.2\lvgl\src\lv_core/lv_obj.c **** /**********************
  39:..\..\..\lvgl\version_6.1.2\lvgl\src\lv_core/lv_obj.c ****  *      TYPEDEFS
  40:..\..\..\lvgl\version_6.1.2\lvgl\src\lv_core/lv_obj.c ****  **********************/
  41:..\..\..\lvgl\version_6.1.2\lvgl\src\lv_core/lv_obj.c **** typedef struct _lv_event_temp_data
  42:..\..\..\lvgl\version_6.1.2\lvgl\src\lv_core/lv_obj.c **** {
  43:..\..\..\lvgl\version_6.1.2\lvgl\src\lv_core/lv_obj.c ****     lv_obj_t * obj;
  44:..\..\..\lvgl\version_6.1.2\lvgl\src\lv_core/lv_obj.c ****     bool deleted;
  45:..\..\..\lvgl\version_6.1.2\lvgl\src\lv_core/lv_obj.c ****     struct _lv_event_temp_data * prev;
  46:..\..\..\lvgl\version_6.1.2\lvgl\src\lv_core/lv_obj.c **** } lv_event_temp_data_t;
  47:..\..\..\lvgl\version_6.1.2\lvgl\src\lv_core/lv_obj.c **** 
  48:..\..\..\lvgl\version_6.1.2\lvgl\src\lv_core/lv_obj.c **** /**********************
  49:..\..\..\lvgl\version_6.1.2\lvgl\src\lv_core/lv_obj.c ****  *  STATIC PROTOTYPES
  50:..\..\..\lvgl\version_6.1.2\lvgl\src\lv_core/lv_obj.c ****  **********************/
  51:..\..\..\lvgl\version_6.1.2\lvgl\src\lv_core/lv_obj.c **** static void refresh_children_position(lv_obj_t * obj, lv_coord_t x_diff, lv_coord_t y_diff);
  52:..\..\..\lvgl\version_6.1.2\lvgl\src\lv_core/lv_obj.c **** static void report_style_mod_core(void * style_p, lv_obj_t * obj);
  53:..\..\..\lvgl\version_6.1.2\lvgl\src\lv_core/lv_obj.c **** static void refresh_children_style(lv_obj_t * obj);
  54:..\..\..\lvgl\version_6.1.2\lvgl\src\lv_core/lv_obj.c **** static void delete_children(lv_obj_t * obj);
  55:..\..\..\lvgl\version_6.1.2\lvgl\src\lv_core/lv_obj.c **** static void base_dir_refr_children(lv_obj_t * obj);
  56:..\..\..\lvgl\version_6.1.2\lvgl\src\lv_core/lv_obj.c **** static void lv_event_mark_deleted(lv_obj_t * obj);
  57:..\..\..\lvgl\version_6.1.2\lvgl\src\lv_core/lv_obj.c **** static void lv_obj_del_async_cb(void * obj);
  58:..\..\..\lvgl\version_6.1.2\lvgl\src\lv_core/lv_obj.c **** static bool lv_obj_design(lv_obj_t * obj, const lv_area_t * mask_p, lv_design_mode_t mode);
  59:..\..\..\lvgl\version_6.1.2\lvgl\src\lv_core/lv_obj.c **** static lv_res_t lv_obj_signal(lv_obj_t * obj, lv_signal_t sign, void * param);
  60:..\..\..\lvgl\version_6.1.2\lvgl\src\lv_core/lv_obj.c **** 
  61:..\..\..\lvgl\version_6.1.2\lvgl\src\lv_core/lv_obj.c **** /**********************
  62:..\..\..\lvgl\version_6.1.2\lvgl\src\lv_core/lv_obj.c ****  *  STATIC VARIABLES
  63:..\..\..\lvgl\version_6.1.2\lvgl\src\lv_core/lv_obj.c ****  **********************/
  64:..\..\..\lvgl\version_6.1.2\lvgl\src\lv_core/lv_obj.c **** static bool lv_initialized = false;
  65:..\..\..\lvgl\version_6.1.2\lvgl\src\lv_core/lv_obj.c **** static lv_event_temp_data_t * event_temp_data_head;
  66:..\..\..\lvgl\version_6.1.2\lvgl\src\lv_core/lv_obj.c **** static const void * event_act_data;
  67:..\..\..\lvgl\version_6.1.2\lvgl\src\lv_core/lv_obj.c **** 
  68:..\..\..\lvgl\version_6.1.2\lvgl\src\lv_core/lv_obj.c **** /**********************
  69:..\..\..\lvgl\version_6.1.2\lvgl\src\lv_core/lv_obj.c ****  *      MACROS
  70:..\..\..\lvgl\version_6.1.2\lvgl\src\lv_core/lv_obj.c ****  **********************/
  71:..\..\..\lvgl\version_6.1.2\lvgl\src\lv_core/lv_obj.c **** 
  72:..\..\..\lvgl\version_6.1.2\lvgl\src\lv_core/lv_obj.c **** /**********************
  73:..\..\..\lvgl\version_6.1.2\lvgl\src\lv_core/lv_obj.c ****  *   GLOBAL FUNCTIONS
  74:..\..\..\lvgl\version_6.1.2\lvgl\src\lv_core/lv_obj.c ****  **********************/
  75:..\..\..\lvgl\version_6.1.2\lvgl\src\lv_core/lv_obj.c **** 
  76:..\..\..\lvgl\version_6.1.2\lvgl\src\lv_core/lv_obj.c **** /**
ARM GAS  C:\Users\tmj32\AppData\Local\Temp\ccxLNxq9.s 			page 7


  77:..\..\..\lvgl\version_6.1.2\lvgl\src\lv_core/lv_obj.c ****  * Init. the 'lv' library.
  78:..\..\..\lvgl\version_6.1.2\lvgl\src\lv_core/lv_obj.c ****  */
  79:..\..\..\lvgl\version_6.1.2\lvgl\src\lv_core/lv_obj.c **** void lv_init(void)
  80:..\..\..\lvgl\version_6.1.2\lvgl\src\lv_core/lv_obj.c **** {
 168              		.loc 2 80 0
 169              		.cfi_startproc
 170              		@ args = 0, pretend = 0, frame = 0
 171              		@ frame_needed = 1, uses_anonymous_args = 0
 172 0000 80B5     		push	{r7, lr}
 173              		.cfi_def_cfa_offset 8
 174              		.cfi_offset 7, -8
 175              		.cfi_offset 14, -4
 176 0002 00AF     		add	r7, sp, #0
 177              		.cfi_def_cfa_register 7
  81:..\..\..\lvgl\version_6.1.2\lvgl\src\lv_core/lv_obj.c ****     /* Do nothing if already initialized */
  82:..\..\..\lvgl\version_6.1.2\lvgl\src\lv_core/lv_obj.c ****     if(lv_initialized) {
 178              		.loc 2 82 0
 179 0004 114B     		ldr	r3, .L10
 180 0006 1B78     		ldrb	r3, [r3]	@ zero_extendqisi2
 181 0008 002B     		cmp	r3, #0
 182 000a 1DD1     		bne	.L9
  83:..\..\..\lvgl\version_6.1.2\lvgl\src\lv_core/lv_obj.c ****         LV_LOG_WARN("lv_init: already inited");
  84:..\..\..\lvgl\version_6.1.2\lvgl\src\lv_core/lv_obj.c ****         return;
  85:..\..\..\lvgl\version_6.1.2\lvgl\src\lv_core/lv_obj.c ****     }
  86:..\..\..\lvgl\version_6.1.2\lvgl\src\lv_core/lv_obj.c **** 
  87:..\..\..\lvgl\version_6.1.2\lvgl\src\lv_core/lv_obj.c ****     LV_LOG_TRACE("lv_init started");
  88:..\..\..\lvgl\version_6.1.2\lvgl\src\lv_core/lv_obj.c **** 
  89:..\..\..\lvgl\version_6.1.2\lvgl\src\lv_core/lv_obj.c ****     /*Initialize the lv_misc modules*/
  90:..\..\..\lvgl\version_6.1.2\lvgl\src\lv_core/lv_obj.c ****     lv_mem_init();
 183              		.loc 2 90 0
 184 000c FFF7FEFF 		bl	lv_mem_init
  91:..\..\..\lvgl\version_6.1.2\lvgl\src\lv_core/lv_obj.c ****     lv_task_core_init();
 185              		.loc 2 91 0
 186 0010 FFF7FEFF 		bl	lv_task_core_init
  92:..\..\..\lvgl\version_6.1.2\lvgl\src\lv_core/lv_obj.c **** 
  93:..\..\..\lvgl\version_6.1.2\lvgl\src\lv_core/lv_obj.c **** #if LV_USE_FILESYSTEM
  94:..\..\..\lvgl\version_6.1.2\lvgl\src\lv_core/lv_obj.c ****     lv_fs_init();
  95:..\..\..\lvgl\version_6.1.2\lvgl\src\lv_core/lv_obj.c **** #endif
  96:..\..\..\lvgl\version_6.1.2\lvgl\src\lv_core/lv_obj.c **** 
  97:..\..\..\lvgl\version_6.1.2\lvgl\src\lv_core/lv_obj.c **** #if LV_USE_ANIMATION
  98:..\..\..\lvgl\version_6.1.2\lvgl\src\lv_core/lv_obj.c ****     lv_anim_core_init();
 187              		.loc 2 98 0
 188 0014 FFF7FEFF 		bl	lv_anim_core_init
  99:..\..\..\lvgl\version_6.1.2\lvgl\src\lv_core/lv_obj.c **** #endif
 100:..\..\..\lvgl\version_6.1.2\lvgl\src\lv_core/lv_obj.c **** 
 101:..\..\..\lvgl\version_6.1.2\lvgl\src\lv_core/lv_obj.c **** #if LV_USE_GROUP
 102:..\..\..\lvgl\version_6.1.2\lvgl\src\lv_core/lv_obj.c ****     lv_group_init();
 103:..\..\..\lvgl\version_6.1.2\lvgl\src\lv_core/lv_obj.c **** #endif
 104:..\..\..\lvgl\version_6.1.2\lvgl\src\lv_core/lv_obj.c **** 
 105:..\..\..\lvgl\version_6.1.2\lvgl\src\lv_core/lv_obj.c ****     /*Init. the sstyles*/
 106:..\..\..\lvgl\version_6.1.2\lvgl\src\lv_core/lv_obj.c ****     lv_style_init();
 189              		.loc 2 106 0
 190 0018 FFF7FEFF 		bl	lv_style_init
 107:..\..\..\lvgl\version_6.1.2\lvgl\src\lv_core/lv_obj.c **** 
 108:..\..\..\lvgl\version_6.1.2\lvgl\src\lv_core/lv_obj.c ****     /*Initialize the screen refresh system*/
 109:..\..\..\lvgl\version_6.1.2\lvgl\src\lv_core/lv_obj.c ****     lv_refr_init();
 191              		.loc 2 109 0
ARM GAS  C:\Users\tmj32\AppData\Local\Temp\ccxLNxq9.s 			page 8


 192 001c FFF7FEFF 		bl	lv_refr_init
 110:..\..\..\lvgl\version_6.1.2\lvgl\src\lv_core/lv_obj.c **** 
 111:..\..\..\lvgl\version_6.1.2\lvgl\src\lv_core/lv_obj.c ****     lv_ll_init(&LV_GC_ROOT(_lv_disp_ll), sizeof(lv_disp_t));
 193              		.loc 2 111 0
 194 0020 4FF4B271 		mov	r1, #356
 195 0024 0A48     		ldr	r0, .L10+4
 196 0026 FFF7FEFF 		bl	lv_ll_init
 112:..\..\..\lvgl\version_6.1.2\lvgl\src\lv_core/lv_obj.c ****     lv_ll_init(&LV_GC_ROOT(_lv_indev_ll), sizeof(lv_indev_t));
 197              		.loc 2 112 0
 198 002a 5C21     		movs	r1, #92
 199 002c 0948     		ldr	r0, .L10+8
 200 002e FFF7FEFF 		bl	lv_ll_init
 113:..\..\..\lvgl\version_6.1.2\lvgl\src\lv_core/lv_obj.c **** 
 114:..\..\..\lvgl\version_6.1.2\lvgl\src\lv_core/lv_obj.c ****     /*Init the input device handling*/
 115:..\..\..\lvgl\version_6.1.2\lvgl\src\lv_core/lv_obj.c ****     lv_indev_init();
 201              		.loc 2 115 0
 202 0032 FFF7FEFF 		bl	lv_indev_init
 116:..\..\..\lvgl\version_6.1.2\lvgl\src\lv_core/lv_obj.c **** 
 117:..\..\..\lvgl\version_6.1.2\lvgl\src\lv_core/lv_obj.c ****     lv_img_decoder_init();
 203              		.loc 2 117 0
 204 0036 FFF7FEFF 		bl	lv_img_decoder_init
 118:..\..\..\lvgl\version_6.1.2\lvgl\src\lv_core/lv_obj.c ****     lv_img_cache_set_size(LV_IMG_CACHE_DEF_SIZE);
 205              		.loc 2 118 0
 206 003a 0120     		movs	r0, #1
 207 003c FFF7FEFF 		bl	lv_img_cache_set_size
 119:..\..\..\lvgl\version_6.1.2\lvgl\src\lv_core/lv_obj.c **** 
 120:..\..\..\lvgl\version_6.1.2\lvgl\src\lv_core/lv_obj.c ****     lv_initialized = true;
 208              		.loc 2 120 0
 209 0040 024B     		ldr	r3, .L10
 210 0042 0122     		movs	r2, #1
 211 0044 1A70     		strb	r2, [r3]
 212 0046 00E0     		b	.L6
 213              	.L9:
  84:..\..\..\lvgl\version_6.1.2\lvgl\src\lv_core/lv_obj.c ****     }
 214              		.loc 2 84 0
 215 0048 00BF     		nop
 216              	.L6:
 121:..\..\..\lvgl\version_6.1.2\lvgl\src\lv_core/lv_obj.c ****     LV_LOG_INFO("lv_init ready");
 122:..\..\..\lvgl\version_6.1.2\lvgl\src\lv_core/lv_obj.c **** }
 217              		.loc 2 122 0
 218 004a 80BD     		pop	{r7, pc}
 219              	.L11:
 220              		.align	2
 221              	.L10:
 222 004c 00000000 		.word	lv_initialized
 223 0050 00000000 		.word	_lv_disp_ll
 224 0054 00000000 		.word	_lv_indev_ll
 225              		.cfi_endproc
 226              	.LFE35:
 227              		.size	lv_init, .-lv_init
 228              		.section	.text.lv_deinit,"ax",%progbits
 229              		.align	2
 230              		.global	lv_deinit
 231              		.thumb
 232              		.thumb_func
 233              		.type	lv_deinit, %function
 234              	lv_deinit:
ARM GAS  C:\Users\tmj32\AppData\Local\Temp\ccxLNxq9.s 			page 9


 235              	.LFB36:
 123:..\..\..\lvgl\version_6.1.2\lvgl\src\lv_core/lv_obj.c **** 
 124:..\..\..\lvgl\version_6.1.2\lvgl\src\lv_core/lv_obj.c **** #if LV_ENABLE_GC || !LV_MEM_CUSTOM
 125:..\..\..\lvgl\version_6.1.2\lvgl\src\lv_core/lv_obj.c **** void lv_deinit(void)
 126:..\..\..\lvgl\version_6.1.2\lvgl\src\lv_core/lv_obj.c **** {
 236              		.loc 2 126 0
 237              		.cfi_startproc
 238              		@ args = 0, pretend = 0, frame = 0
 239              		@ frame_needed = 1, uses_anonymous_args = 0
 240 0000 80B5     		push	{r7, lr}
 241              		.cfi_def_cfa_offset 8
 242              		.cfi_offset 7, -8
 243              		.cfi_offset 14, -4
 244 0002 00AF     		add	r7, sp, #0
 245              		.cfi_def_cfa_register 7
 127:..\..\..\lvgl\version_6.1.2\lvgl\src\lv_core/lv_obj.c ****     lv_gc_clear_roots();
 246              		.loc 2 127 0
 247 0004 FFF7FEFF 		bl	lv_gc_clear_roots
 128:..\..\..\lvgl\version_6.1.2\lvgl\src\lv_core/lv_obj.c **** #if LV_USE_LOG
 129:..\..\..\lvgl\version_6.1.2\lvgl\src\lv_core/lv_obj.c ****     lv_log_register_print_cb(NULL);
 130:..\..\..\lvgl\version_6.1.2\lvgl\src\lv_core/lv_obj.c **** #endif
 131:..\..\..\lvgl\version_6.1.2\lvgl\src\lv_core/lv_obj.c ****     lv_disp_set_default(NULL);
 248              		.loc 2 131 0
 249 0008 0020     		movs	r0, #0
 250 000a FFF7FEFF 		bl	lv_disp_set_default
 132:..\..\..\lvgl\version_6.1.2\lvgl\src\lv_core/lv_obj.c ****     lv_mem_deinit();
 251              		.loc 2 132 0
 252 000e FFF7FEFF 		bl	lv_mem_deinit
 133:..\..\..\lvgl\version_6.1.2\lvgl\src\lv_core/lv_obj.c ****     lv_initialized = false;
 253              		.loc 2 133 0
 254 0012 024B     		ldr	r3, .L13
 255 0014 0022     		movs	r2, #0
 256 0016 1A70     		strb	r2, [r3]
 134:..\..\..\lvgl\version_6.1.2\lvgl\src\lv_core/lv_obj.c ****     LV_LOG_INFO("lv_deinit done");
 135:..\..\..\lvgl\version_6.1.2\lvgl\src\lv_core/lv_obj.c **** }
 257              		.loc 2 135 0
 258 0018 00BF     		nop
 259 001a 80BD     		pop	{r7, pc}
 260              	.L14:
 261              		.align	2
 262              	.L13:
 263 001c 00000000 		.word	lv_initialized
 264              		.cfi_endproc
 265              	.LFE36:
 266              		.size	lv_deinit, .-lv_deinit
 267              		.section	.text.lv_obj_create,"ax",%progbits
 268              		.align	2
 269              		.global	lv_obj_create
 270              		.thumb
 271              		.thumb_func
 272              		.type	lv_obj_create, %function
 273              	lv_obj_create:
 274              	.LFB37:
 136:..\..\..\lvgl\version_6.1.2\lvgl\src\lv_core/lv_obj.c **** #endif
 137:..\..\..\lvgl\version_6.1.2\lvgl\src\lv_core/lv_obj.c **** 
 138:..\..\..\lvgl\version_6.1.2\lvgl\src\lv_core/lv_obj.c **** /*--------------------
 139:..\..\..\lvgl\version_6.1.2\lvgl\src\lv_core/lv_obj.c ****  * Create and delete
ARM GAS  C:\Users\tmj32\AppData\Local\Temp\ccxLNxq9.s 			page 10


 140:..\..\..\lvgl\version_6.1.2\lvgl\src\lv_core/lv_obj.c ****  *-------------------*/
 141:..\..\..\lvgl\version_6.1.2\lvgl\src\lv_core/lv_obj.c **** 
 142:..\..\..\lvgl\version_6.1.2\lvgl\src\lv_core/lv_obj.c **** /**
 143:..\..\..\lvgl\version_6.1.2\lvgl\src\lv_core/lv_obj.c ****  * Create a basic object
 144:..\..\..\lvgl\version_6.1.2\lvgl\src\lv_core/lv_obj.c ****  * @param parent pointer to a parent object.
 145:..\..\..\lvgl\version_6.1.2\lvgl\src\lv_core/lv_obj.c ****  *                  If NULL then a screen will be created
 146:..\..\..\lvgl\version_6.1.2\lvgl\src\lv_core/lv_obj.c ****  * @param copy pointer to a base object, if not NULL then the new object will be copied from it
 147:..\..\..\lvgl\version_6.1.2\lvgl\src\lv_core/lv_obj.c ****  * @return pointer to the new object
 148:..\..\..\lvgl\version_6.1.2\lvgl\src\lv_core/lv_obj.c ****  */
 149:..\..\..\lvgl\version_6.1.2\lvgl\src\lv_core/lv_obj.c **** lv_obj_t * lv_obj_create(lv_obj_t * parent, const lv_obj_t * copy)
 150:..\..\..\lvgl\version_6.1.2\lvgl\src\lv_core/lv_obj.c **** {
 275              		.loc 2 150 0
 276              		.cfi_startproc
 277              		@ args = 0, pretend = 0, frame = 24
 278              		@ frame_needed = 1, uses_anonymous_args = 0
 279 0000 90B5     		push	{r4, r7, lr}
 280              		.cfi_def_cfa_offset 12
 281              		.cfi_offset 4, -12
 282              		.cfi_offset 7, -8
 283              		.cfi_offset 14, -4
 284 0002 87B0     		sub	sp, sp, #28
 285              		.cfi_def_cfa_offset 40
 286 0004 00AF     		add	r7, sp, #0
 287              		.cfi_def_cfa_register 7
 288 0006 7860     		str	r0, [r7, #4]
 289 0008 3960     		str	r1, [r7]
 151:..\..\..\lvgl\version_6.1.2\lvgl\src\lv_core/lv_obj.c **** 
 152:..\..\..\lvgl\version_6.1.2\lvgl\src\lv_core/lv_obj.c ****     lv_obj_t * new_obj = NULL;
 290              		.loc 2 152 0
 291 000a 0023     		movs	r3, #0
 292 000c 7B61     		str	r3, [r7, #20]
 153:..\..\..\lvgl\version_6.1.2\lvgl\src\lv_core/lv_obj.c ****     /*Create a screen if the parent is NULL*/
 154:..\..\..\lvgl\version_6.1.2\lvgl\src\lv_core/lv_obj.c ****     if(parent == NULL) {
 293              		.loc 2 154 0
 294 000e 7B68     		ldr	r3, [r7, #4]
 295 0010 002B     		cmp	r3, #0
 296 0012 40F0B680 		bne	.L16
 297              	.LBB2:
 155:..\..\..\lvgl\version_6.1.2\lvgl\src\lv_core/lv_obj.c ****         LV_LOG_TRACE("Screen create started");
 156:..\..\..\lvgl\version_6.1.2\lvgl\src\lv_core/lv_obj.c ****         lv_disp_t * disp = lv_disp_get_default();
 298              		.loc 2 156 0
 299 0016 FFF7FEFF 		bl	lv_disp_get_default
 300 001a 3861     		str	r0, [r7, #16]
 157:..\..\..\lvgl\version_6.1.2\lvgl\src\lv_core/lv_obj.c ****         if(!disp) {
 301              		.loc 2 157 0
 302 001c 3B69     		ldr	r3, [r7, #16]
 303 001e 002B     		cmp	r3, #0
 304 0020 01D1     		bne	.L17
 158:..\..\..\lvgl\version_6.1.2\lvgl\src\lv_core/lv_obj.c ****             LV_LOG_WARN("lv_obj_create: not display created to so far. No place to assign the new s
 159:..\..\..\lvgl\version_6.1.2\lvgl\src\lv_core/lv_obj.c ****             return NULL;
 305              		.loc 2 159 0
 306 0022 0023     		movs	r3, #0
 307 0024 64E2     		b	.L18
 308              	.L17:
 160:..\..\..\lvgl\version_6.1.2\lvgl\src\lv_core/lv_obj.c ****         }
 161:..\..\..\lvgl\version_6.1.2\lvgl\src\lv_core/lv_obj.c **** 
 162:..\..\..\lvgl\version_6.1.2\lvgl\src\lv_core/lv_obj.c ****         new_obj = lv_ll_ins_head(&disp->scr_ll);
ARM GAS  C:\Users\tmj32\AppData\Local\Temp\ccxLNxq9.s 			page 11


 309              		.loc 2 162 0
 310 0026 3B69     		ldr	r3, [r7, #16]
 311 0028 2433     		adds	r3, r3, #36
 312 002a 1846     		mov	r0, r3
 313 002c FFF7FEFF 		bl	lv_ll_ins_head
 314 0030 7861     		str	r0, [r7, #20]
 163:..\..\..\lvgl\version_6.1.2\lvgl\src\lv_core/lv_obj.c ****         LV_ASSERT_MEM(new_obj);
 164:..\..\..\lvgl\version_6.1.2\lvgl\src\lv_core/lv_obj.c ****         if(new_obj == NULL) return NULL;
 315              		.loc 2 164 0
 316 0032 7B69     		ldr	r3, [r7, #20]
 317 0034 002B     		cmp	r3, #0
 318 0036 01D1     		bne	.L19
 319              		.loc 2 164 0 is_stmt 0 discriminator 1
 320 0038 0023     		movs	r3, #0
 321 003a 59E2     		b	.L18
 322              	.L19:
 165:..\..\..\lvgl\version_6.1.2\lvgl\src\lv_core/lv_obj.c **** 
 166:..\..\..\lvgl\version_6.1.2\lvgl\src\lv_core/lv_obj.c ****         new_obj->par = NULL; /*Screens has no a parent*/
 323              		.loc 2 166 0 is_stmt 1
 324 003c 7B69     		ldr	r3, [r7, #20]
 325 003e 0022     		movs	r2, #0
 326 0040 1A60     		str	r2, [r3]
 167:..\..\..\lvgl\version_6.1.2\lvgl\src\lv_core/lv_obj.c ****         lv_ll_init(&(new_obj->child_ll), sizeof(lv_obj_t));
 327              		.loc 2 167 0
 328 0042 7B69     		ldr	r3, [r7, #20]
 329 0044 0433     		adds	r3, r3, #4
 330 0046 4021     		movs	r1, #64
 331 0048 1846     		mov	r0, r3
 332 004a FFF7FEFF 		bl	lv_ll_init
 168:..\..\..\lvgl\version_6.1.2\lvgl\src\lv_core/lv_obj.c **** 
 169:..\..\..\lvgl\version_6.1.2\lvgl\src\lv_core/lv_obj.c ****         /*Set the callbacks*/
 170:..\..\..\lvgl\version_6.1.2\lvgl\src\lv_core/lv_obj.c ****         new_obj->signal_cb = lv_obj_signal;
 333              		.loc 2 170 0
 334 004e 7B69     		ldr	r3, [r7, #20]
 335 0050 874A     		ldr	r2, .L31
 336 0052 DA61     		str	r2, [r3, #28]
 171:..\..\..\lvgl\version_6.1.2\lvgl\src\lv_core/lv_obj.c ****         new_obj->design_cb = lv_obj_design;
 337              		.loc 2 171 0
 338 0054 7B69     		ldr	r3, [r7, #20]
 339 0056 874A     		ldr	r2, .L31+4
 340 0058 1A62     		str	r2, [r3, #32]
 172:..\..\..\lvgl\version_6.1.2\lvgl\src\lv_core/lv_obj.c ****         new_obj->event_cb = NULL;
 341              		.loc 2 172 0
 342 005a 7B69     		ldr	r3, [r7, #20]
 343 005c 0022     		movs	r2, #0
 344 005e 9A61     		str	r2, [r3, #24]
 173:..\..\..\lvgl\version_6.1.2\lvgl\src\lv_core/lv_obj.c **** 
 174:..\..\..\lvgl\version_6.1.2\lvgl\src\lv_core/lv_obj.c ****         /*Set coordinates to full screen size*/
 175:..\..\..\lvgl\version_6.1.2\lvgl\src\lv_core/lv_obj.c ****         new_obj->coords.x1    = 0;
 345              		.loc 2 175 0
 346 0060 7B69     		ldr	r3, [r7, #20]
 347 0062 0022     		movs	r2, #0
 348 0064 1A82     		strh	r2, [r3, #16]	@ movhi
 176:..\..\..\lvgl\version_6.1.2\lvgl\src\lv_core/lv_obj.c ****         new_obj->coords.y1    = 0;
 349              		.loc 2 176 0
 350 0066 7B69     		ldr	r3, [r7, #20]
 351 0068 0022     		movs	r2, #0
ARM GAS  C:\Users\tmj32\AppData\Local\Temp\ccxLNxq9.s 			page 12


 352 006a 5A82     		strh	r2, [r3, #18]	@ movhi
 177:..\..\..\lvgl\version_6.1.2\lvgl\src\lv_core/lv_obj.c ****         new_obj->coords.x2    = lv_disp_get_hor_res(NULL) - 1;
 353              		.loc 2 177 0
 354 006c 0020     		movs	r0, #0
 355 006e FFF7FEFF 		bl	lv_disp_get_hor_res
 356 0072 0346     		mov	r3, r0
 357 0074 9BB2     		uxth	r3, r3
 358 0076 013B     		subs	r3, r3, #1
 359 0078 9BB2     		uxth	r3, r3
 360 007a 1AB2     		sxth	r2, r3
 361 007c 7B69     		ldr	r3, [r7, #20]
 362 007e 9A82     		strh	r2, [r3, #20]	@ movhi
 178:..\..\..\lvgl\version_6.1.2\lvgl\src\lv_core/lv_obj.c ****         new_obj->coords.y2    = lv_disp_get_ver_res(NULL) - 1;
 363              		.loc 2 178 0
 364 0080 0020     		movs	r0, #0
 365 0082 FFF7FEFF 		bl	lv_disp_get_ver_res
 366 0086 0346     		mov	r3, r0
 367 0088 9BB2     		uxth	r3, r3
 368 008a 013B     		subs	r3, r3, #1
 369 008c 9BB2     		uxth	r3, r3
 370 008e 1AB2     		sxth	r2, r3
 371 0090 7B69     		ldr	r3, [r7, #20]
 372 0092 DA82     		strh	r2, [r3, #22]	@ movhi
 179:..\..\..\lvgl\version_6.1.2\lvgl\src\lv_core/lv_obj.c ****         new_obj->ext_draw_pad = 0;
 373              		.loc 2 179 0
 374 0094 7B69     		ldr	r3, [r7, #20]
 375 0096 0022     		movs	r2, #0
 376 0098 1A86     		strh	r2, [r3, #48]	@ movhi
 180:..\..\..\lvgl\version_6.1.2\lvgl\src\lv_core/lv_obj.c **** 
 181:..\..\..\lvgl\version_6.1.2\lvgl\src\lv_core/lv_obj.c **** #if LV_USE_EXT_CLICK_AREA == LV_EXT_CLICK_AREA_FULL
 182:..\..\..\lvgl\version_6.1.2\lvgl\src\lv_core/lv_obj.c ****         memset(&new_obj->ext_click_pad, 0, sizeof(new_obj->ext_click_pad));
 183:..\..\..\lvgl\version_6.1.2\lvgl\src\lv_core/lv_obj.c **** #endif
 184:..\..\..\lvgl\version_6.1.2\lvgl\src\lv_core/lv_obj.c **** 
 185:..\..\..\lvgl\version_6.1.2\lvgl\src\lv_core/lv_obj.c **** #if LV_USE_EXT_CLICK_AREA == LV_EXT_CLICK_AREA_TINY
 186:..\..\..\lvgl\version_6.1.2\lvgl\src\lv_core/lv_obj.c ****         new_obj->ext_click_pad_hor = 0;
 187:..\..\..\lvgl\version_6.1.2\lvgl\src\lv_core/lv_obj.c ****         new_obj->ext_click_pad_ver = 0;
 188:..\..\..\lvgl\version_6.1.2\lvgl\src\lv_core/lv_obj.c **** #endif
 189:..\..\..\lvgl\version_6.1.2\lvgl\src\lv_core/lv_obj.c **** 
 190:..\..\..\lvgl\version_6.1.2\lvgl\src\lv_core/lv_obj.c ****         /*Init realign*/
 191:..\..\..\lvgl\version_6.1.2\lvgl\src\lv_core/lv_obj.c **** #if LV_USE_OBJ_REALIGN
 192:..\..\..\lvgl\version_6.1.2\lvgl\src\lv_core/lv_obj.c ****         new_obj->realign.align        = LV_ALIGN_CENTER;
 377              		.loc 2 192 0
 378 009a 7B69     		ldr	r3, [r7, #20]
 379 009c 0022     		movs	r2, #0
 380 009e 83F83C20 		strb	r2, [r3, #60]
 193:..\..\..\lvgl\version_6.1.2\lvgl\src\lv_core/lv_obj.c ****         new_obj->realign.xofs         = 0;
 381              		.loc 2 193 0
 382 00a2 7B69     		ldr	r3, [r7, #20]
 383 00a4 0022     		movs	r2, #0
 384 00a6 1A87     		strh	r2, [r3, #56]	@ movhi
 194:..\..\..\lvgl\version_6.1.2\lvgl\src\lv_core/lv_obj.c ****         new_obj->realign.yofs         = 0;
 385              		.loc 2 194 0
 386 00a8 7B69     		ldr	r3, [r7, #20]
 387 00aa 0022     		movs	r2, #0
 388 00ac 5A87     		strh	r2, [r3, #58]	@ movhi
 195:..\..\..\lvgl\version_6.1.2\lvgl\src\lv_core/lv_obj.c ****         new_obj->realign.base         = NULL;
 389              		.loc 2 195 0
ARM GAS  C:\Users\tmj32\AppData\Local\Temp\ccxLNxq9.s 			page 13


 390 00ae 7B69     		ldr	r3, [r7, #20]
 391 00b0 0022     		movs	r2, #0
 392 00b2 5A63     		str	r2, [r3, #52]
 196:..\..\..\lvgl\version_6.1.2\lvgl\src\lv_core/lv_obj.c ****         new_obj->realign.auto_realign = 0;
 393              		.loc 2 196 0
 394 00b4 7A69     		ldr	r2, [r7, #20]
 395 00b6 92F83D30 		ldrb	r3, [r2, #61]
 396 00ba 6FF30003 		bfc	r3, #0, #1
 397 00be 82F83D30 		strb	r3, [r2, #61]
 197:..\..\..\lvgl\version_6.1.2\lvgl\src\lv_core/lv_obj.c **** #endif
 198:..\..\..\lvgl\version_6.1.2\lvgl\src\lv_core/lv_obj.c **** 
 199:..\..\..\lvgl\version_6.1.2\lvgl\src\lv_core/lv_obj.c ****         /*Set the default styles*/
 200:..\..\..\lvgl\version_6.1.2\lvgl\src\lv_core/lv_obj.c ****         lv_theme_t * th = lv_theme_get_current();
 398              		.loc 2 200 0
 399 00c2 FFF7FEFF 		bl	lv_theme_get_current
 400 00c6 F860     		str	r0, [r7, #12]
 201:..\..\..\lvgl\version_6.1.2\lvgl\src\lv_core/lv_obj.c ****         if(th) {
 401              		.loc 2 201 0
 402 00c8 FB68     		ldr	r3, [r7, #12]
 403 00ca 002B     		cmp	r3, #0
 404 00cc 04D0     		beq	.L20
 202:..\..\..\lvgl\version_6.1.2\lvgl\src\lv_core/lv_obj.c ****             new_obj->style_p = th->style.scr;
 405              		.loc 2 202 0
 406 00ce FB68     		ldr	r3, [r7, #12]
 407 00d0 1A68     		ldr	r2, [r3]
 408 00d2 7B69     		ldr	r3, [r7, #20]
 409 00d4 9A62     		str	r2, [r3, #40]
 410 00d6 02E0     		b	.L21
 411              	.L20:
 203:..\..\..\lvgl\version_6.1.2\lvgl\src\lv_core/lv_obj.c ****         } else {
 204:..\..\..\lvgl\version_6.1.2\lvgl\src\lv_core/lv_obj.c ****             new_obj->style_p = &lv_style_scr;
 412              		.loc 2 204 0
 413 00d8 7B69     		ldr	r3, [r7, #20]
 414 00da 674A     		ldr	r2, .L31+8
 415 00dc 9A62     		str	r2, [r3, #40]
 416              	.L21:
 205:..\..\..\lvgl\version_6.1.2\lvgl\src\lv_core/lv_obj.c ****         }
 206:..\..\..\lvgl\version_6.1.2\lvgl\src\lv_core/lv_obj.c **** 
 207:..\..\..\lvgl\version_6.1.2\lvgl\src\lv_core/lv_obj.c ****         /*Init. user date*/
 208:..\..\..\lvgl\version_6.1.2\lvgl\src\lv_core/lv_obj.c **** #if LV_USE_USER_DATA
 209:..\..\..\lvgl\version_6.1.2\lvgl\src\lv_core/lv_obj.c ****         memset(&new_obj->user_data, 0, sizeof(lv_obj_user_data_t));
 210:..\..\..\lvgl\version_6.1.2\lvgl\src\lv_core/lv_obj.c **** #endif
 211:..\..\..\lvgl\version_6.1.2\lvgl\src\lv_core/lv_obj.c **** 
 212:..\..\..\lvgl\version_6.1.2\lvgl\src\lv_core/lv_obj.c **** #if LV_USE_GROUP
 213:..\..\..\lvgl\version_6.1.2\lvgl\src\lv_core/lv_obj.c ****         new_obj->group_p = NULL;
 214:..\..\..\lvgl\version_6.1.2\lvgl\src\lv_core/lv_obj.c **** #endif
 215:..\..\..\lvgl\version_6.1.2\lvgl\src\lv_core/lv_obj.c ****         /*Set attributes*/
 216:..\..\..\lvgl\version_6.1.2\lvgl\src\lv_core/lv_obj.c ****         new_obj->click        = 0;
 417              		.loc 2 216 0
 418 00de 7A69     		ldr	r2, [r7, #20]
 419 00e0 92F82C30 		ldrb	r3, [r2, #44]
 420 00e4 6FF30003 		bfc	r3, #0, #1
 421 00e8 82F82C30 		strb	r3, [r2, #44]
 217:..\..\..\lvgl\version_6.1.2\lvgl\src\lv_core/lv_obj.c ****         new_obj->drag         = 0;
 422              		.loc 2 217 0
 423 00ec 7A69     		ldr	r2, [r7, #20]
 424 00ee 92F82C30 		ldrb	r3, [r2, #44]
ARM GAS  C:\Users\tmj32\AppData\Local\Temp\ccxLNxq9.s 			page 14


 425 00f2 6FF34103 		bfc	r3, #1, #1
 426 00f6 82F82C30 		strb	r3, [r2, #44]
 218:..\..\..\lvgl\version_6.1.2\lvgl\src\lv_core/lv_obj.c ****         new_obj->drag_throw   = 0;
 427              		.loc 2 218 0
 428 00fa 7A69     		ldr	r2, [r7, #20]
 429 00fc 92F82C30 		ldrb	r3, [r2, #44]
 430 0100 6FF38203 		bfc	r3, #2, #1
 431 0104 82F82C30 		strb	r3, [r2, #44]
 219:..\..\..\lvgl\version_6.1.2\lvgl\src\lv_core/lv_obj.c ****         new_obj->drag_parent  = 0;
 432              		.loc 2 219 0
 433 0108 7A69     		ldr	r2, [r7, #20]
 434 010a 92F82C30 		ldrb	r3, [r2, #44]
 435 010e 6FF3C303 		bfc	r3, #3, #1
 436 0112 82F82C30 		strb	r3, [r2, #44]
 220:..\..\..\lvgl\version_6.1.2\lvgl\src\lv_core/lv_obj.c ****         new_obj->hidden       = 0;
 437              		.loc 2 220 0
 438 0116 7A69     		ldr	r2, [r7, #20]
 439 0118 92F82C30 		ldrb	r3, [r2, #44]
 440 011c 6FF30413 		bfc	r3, #4, #1
 441 0120 82F82C30 		strb	r3, [r2, #44]
 221:..\..\..\lvgl\version_6.1.2\lvgl\src\lv_core/lv_obj.c ****         new_obj->top          = 0;
 442              		.loc 2 221 0
 443 0124 7A69     		ldr	r2, [r7, #20]
 444 0126 92F82C30 		ldrb	r3, [r2, #44]
 445 012a 6FF34513 		bfc	r3, #5, #1
 446 012e 82F82C30 		strb	r3, [r2, #44]
 222:..\..\..\lvgl\version_6.1.2\lvgl\src\lv_core/lv_obj.c ****         new_obj->protect      = LV_PROTECT_NONE;
 447              		.loc 2 222 0
 448 0132 7B69     		ldr	r3, [r7, #20]
 449 0134 0022     		movs	r2, #0
 450 0136 83F82E20 		strb	r2, [r3, #46]
 223:..\..\..\lvgl\version_6.1.2\lvgl\src\lv_core/lv_obj.c ****         new_obj->opa_scale_en = 0;
 451              		.loc 2 223 0
 452 013a 7A69     		ldr	r2, [r7, #20]
 453 013c 92F82C30 		ldrb	r3, [r2, #44]
 454 0140 6FF38613 		bfc	r3, #6, #1
 455 0144 82F82C30 		strb	r3, [r2, #44]
 224:..\..\..\lvgl\version_6.1.2\lvgl\src\lv_core/lv_obj.c ****         new_obj->opa_scale    = LV_OPA_COVER;
 456              		.loc 2 224 0
 457 0148 7B69     		ldr	r3, [r7, #20]
 458 014a FF22     		movs	r2, #255
 459 014c 83F82F20 		strb	r2, [r3, #47]
 225:..\..\..\lvgl\version_6.1.2\lvgl\src\lv_core/lv_obj.c ****         new_obj->parent_event = 0;
 460              		.loc 2 225 0
 461 0150 7A69     		ldr	r2, [r7, #20]
 462 0152 92F82C30 		ldrb	r3, [r2, #44]
 463 0156 6FF3C713 		bfc	r3, #7, #1
 464 015a 82F82C30 		strb	r3, [r2, #44]
 226:..\..\..\lvgl\version_6.1.2\lvgl\src\lv_core/lv_obj.c **** #if LV_USE_BIDI
 227:..\..\..\lvgl\version_6.1.2\lvgl\src\lv_core/lv_obj.c ****         new_obj->base_dir     = LV_BIDI_BASE_DIR_DEF;
 228:..\..\..\lvgl\version_6.1.2\lvgl\src\lv_core/lv_obj.c **** #else
 229:..\..\..\lvgl\version_6.1.2\lvgl\src\lv_core/lv_obj.c ****         new_obj->base_dir     = LV_BIDI_DIR_LTR;
 465              		.loc 2 229 0
 466 015e 7A69     		ldr	r2, [r7, #20]
 467 0160 92F82D30 		ldrb	r3, [r2, #45]
 468 0164 6FF38303 		bfc	r3, #2, #2
 469 0168 82F82D30 		strb	r3, [r2, #45]
ARM GAS  C:\Users\tmj32\AppData\Local\Temp\ccxLNxq9.s 			page 15


 230:..\..\..\lvgl\version_6.1.2\lvgl\src\lv_core/lv_obj.c **** #endif
 231:..\..\..\lvgl\version_6.1.2\lvgl\src\lv_core/lv_obj.c **** 
 232:..\..\..\lvgl\version_6.1.2\lvgl\src\lv_core/lv_obj.c ****         new_obj->reserved     = 0;
 470              		.loc 2 232 0
 471 016c 7A69     		ldr	r2, [r7, #20]
 472 016e 92F82D30 		ldrb	r3, [r2, #45]
 473 0172 6FF30613 		bfc	r3, #4, #3
 474 0176 82F82D30 		strb	r3, [r2, #45]
 233:..\..\..\lvgl\version_6.1.2\lvgl\src\lv_core/lv_obj.c **** 
 234:..\..\..\lvgl\version_6.1.2\lvgl\src\lv_core/lv_obj.c ****         new_obj->ext_attr = NULL;
 475              		.loc 2 234 0
 476 017a 7B69     		ldr	r3, [r7, #20]
 477 017c 0022     		movs	r2, #0
 478 017e 5A62     		str	r2, [r3, #36]
 479              	.LBE2:
 480 0180 D0E0     		b	.L22
 481              	.L16:
 482              	.LBB3:
 235:..\..\..\lvgl\version_6.1.2\lvgl\src\lv_core/lv_obj.c **** 
 236:..\..\..\lvgl\version_6.1.2\lvgl\src\lv_core/lv_obj.c ****         LV_LOG_INFO("Screen create ready");
 237:..\..\..\lvgl\version_6.1.2\lvgl\src\lv_core/lv_obj.c ****     }
 238:..\..\..\lvgl\version_6.1.2\lvgl\src\lv_core/lv_obj.c ****     /*parent != NULL create normal obj. on a parent*/
 239:..\..\..\lvgl\version_6.1.2\lvgl\src\lv_core/lv_obj.c ****     else {
 240:..\..\..\lvgl\version_6.1.2\lvgl\src\lv_core/lv_obj.c ****         LV_LOG_TRACE("Object create started");
 241:..\..\..\lvgl\version_6.1.2\lvgl\src\lv_core/lv_obj.c ****         LV_ASSERT_OBJ(parent, LV_OBJX_NAME);
 242:..\..\..\lvgl\version_6.1.2\lvgl\src\lv_core/lv_obj.c **** 
 243:..\..\..\lvgl\version_6.1.2\lvgl\src\lv_core/lv_obj.c ****         new_obj = lv_ll_ins_head(&parent->child_ll);
 483              		.loc 2 243 0
 484 0182 7B68     		ldr	r3, [r7, #4]
 485 0184 0433     		adds	r3, r3, #4
 486 0186 1846     		mov	r0, r3
 487 0188 FFF7FEFF 		bl	lv_ll_ins_head
 488 018c 7861     		str	r0, [r7, #20]
 244:..\..\..\lvgl\version_6.1.2\lvgl\src\lv_core/lv_obj.c ****         LV_ASSERT_MEM(new_obj);
 245:..\..\..\lvgl\version_6.1.2\lvgl\src\lv_core/lv_obj.c ****         if(new_obj == NULL) return NULL;
 489              		.loc 2 245 0
 490 018e 7B69     		ldr	r3, [r7, #20]
 491 0190 002B     		cmp	r3, #0
 492 0192 01D1     		bne	.L23
 493              		.loc 2 245 0 is_stmt 0 discriminator 1
 494 0194 0023     		movs	r3, #0
 495 0196 ABE1     		b	.L18
 496              	.L23:
 246:..\..\..\lvgl\version_6.1.2\lvgl\src\lv_core/lv_obj.c **** 
 247:..\..\..\lvgl\version_6.1.2\lvgl\src\lv_core/lv_obj.c ****         new_obj->par = parent; /*Set the parent*/
 497              		.loc 2 247 0 is_stmt 1
 498 0198 7B69     		ldr	r3, [r7, #20]
 499 019a 7A68     		ldr	r2, [r7, #4]
 500 019c 1A60     		str	r2, [r3]
 248:..\..\..\lvgl\version_6.1.2\lvgl\src\lv_core/lv_obj.c ****         lv_ll_init(&(new_obj->child_ll), sizeof(lv_obj_t));
 501              		.loc 2 248 0
 502 019e 7B69     		ldr	r3, [r7, #20]
 503 01a0 0433     		adds	r3, r3, #4
 504 01a2 4021     		movs	r1, #64
 505 01a4 1846     		mov	r0, r3
 506 01a6 FFF7FEFF 		bl	lv_ll_init
 249:..\..\..\lvgl\version_6.1.2\lvgl\src\lv_core/lv_obj.c **** 
ARM GAS  C:\Users\tmj32\AppData\Local\Temp\ccxLNxq9.s 			page 16


 250:..\..\..\lvgl\version_6.1.2\lvgl\src\lv_core/lv_obj.c ****         /*Set the callbacks*/
 251:..\..\..\lvgl\version_6.1.2\lvgl\src\lv_core/lv_obj.c ****         new_obj->signal_cb = lv_obj_signal;
 507              		.loc 2 251 0
 508 01aa 7B69     		ldr	r3, [r7, #20]
 509 01ac 304A     		ldr	r2, .L31
 510 01ae DA61     		str	r2, [r3, #28]
 252:..\..\..\lvgl\version_6.1.2\lvgl\src\lv_core/lv_obj.c ****         new_obj->design_cb = lv_obj_design;
 511              		.loc 2 252 0
 512 01b0 7B69     		ldr	r3, [r7, #20]
 513 01b2 304A     		ldr	r2, .L31+4
 514 01b4 1A62     		str	r2, [r3, #32]
 253:..\..\..\lvgl\version_6.1.2\lvgl\src\lv_core/lv_obj.c ****         new_obj->event_cb = NULL;
 515              		.loc 2 253 0
 516 01b6 7B69     		ldr	r3, [r7, #20]
 517 01b8 0022     		movs	r2, #0
 518 01ba 9A61     		str	r2, [r3, #24]
 254:..\..\..\lvgl\version_6.1.2\lvgl\src\lv_core/lv_obj.c **** 
 255:..\..\..\lvgl\version_6.1.2\lvgl\src\lv_core/lv_obj.c **** #if LV_USE_BIDI
 256:..\..\..\lvgl\version_6.1.2\lvgl\src\lv_core/lv_obj.c ****         new_obj->base_dir     = LV_BIDI_DIR_INHERIT;
 257:..\..\..\lvgl\version_6.1.2\lvgl\src\lv_core/lv_obj.c **** #else
 258:..\..\..\lvgl\version_6.1.2\lvgl\src\lv_core/lv_obj.c ****         new_obj->base_dir     = LV_BIDI_DIR_LTR;
 519              		.loc 2 258 0
 520 01bc 7A69     		ldr	r2, [r7, #20]
 521 01be 92F82D30 		ldrb	r3, [r2, #45]
 522 01c2 6FF38303 		bfc	r3, #2, #2
 523 01c6 82F82D30 		strb	r3, [r2, #45]
 259:..\..\..\lvgl\version_6.1.2\lvgl\src\lv_core/lv_obj.c **** #endif
 260:..\..\..\lvgl\version_6.1.2\lvgl\src\lv_core/lv_obj.c **** 
 261:..\..\..\lvgl\version_6.1.2\lvgl\src\lv_core/lv_obj.c ****         /*Set coordinates left top corner of parent*/
 262:..\..\..\lvgl\version_6.1.2\lvgl\src\lv_core/lv_obj.c ****         new_obj->coords.y1    = parent->coords.y1;
 524              		.loc 2 262 0
 525 01ca 7B68     		ldr	r3, [r7, #4]
 526 01cc B3F91220 		ldrsh	r2, [r3, #18]
 527 01d0 7B69     		ldr	r3, [r7, #20]
 528 01d2 5A82     		strh	r2, [r3, #18]	@ movhi
 263:..\..\..\lvgl\version_6.1.2\lvgl\src\lv_core/lv_obj.c ****         new_obj->coords.y2    = parent->coords.y1 + LV_OBJ_DEF_HEIGHT;
 529              		.loc 2 263 0
 530 01d4 7B68     		ldr	r3, [r7, #4]
 531 01d6 B3F91230 		ldrsh	r3, [r3, #18]
 532 01da 9BB2     		uxth	r3, r3
 533 01dc 6433     		adds	r3, r3, #100
 534 01de 9BB2     		uxth	r3, r3
 535 01e0 1AB2     		sxth	r2, r3
 536 01e2 7B69     		ldr	r3, [r7, #20]
 537 01e4 DA82     		strh	r2, [r3, #22]	@ movhi
 264:..\..\..\lvgl\version_6.1.2\lvgl\src\lv_core/lv_obj.c ****         if(lv_obj_get_base_dir(new_obj) == LV_BIDI_DIR_RTL) {
 538              		.loc 2 264 0
 539 01e6 7869     		ldr	r0, [r7, #20]
 540 01e8 FFF7FEFF 		bl	lv_obj_get_base_dir
 541 01ec 0346     		mov	r3, r0
 542 01ee 012B     		cmp	r3, #1
 543 01f0 0ED1     		bne	.L24
 265:..\..\..\lvgl\version_6.1.2\lvgl\src\lv_core/lv_obj.c ****             new_obj->coords.x2    = parent->coords.x2;
 544              		.loc 2 265 0
 545 01f2 7B68     		ldr	r3, [r7, #4]
 546 01f4 B3F91420 		ldrsh	r2, [r3, #20]
 547 01f8 7B69     		ldr	r3, [r7, #20]
ARM GAS  C:\Users\tmj32\AppData\Local\Temp\ccxLNxq9.s 			page 17


 548 01fa 9A82     		strh	r2, [r3, #20]	@ movhi
 266:..\..\..\lvgl\version_6.1.2\lvgl\src\lv_core/lv_obj.c ****             new_obj->coords.x1    = parent->coords.x2 - LV_OBJ_DEF_WIDTH;
 549              		.loc 2 266 0
 550 01fc 7B68     		ldr	r3, [r7, #4]
 551 01fe B3F91430 		ldrsh	r3, [r3, #20]
 552 0202 9BB2     		uxth	r3, r3
 553 0204 963B     		subs	r3, r3, #150
 554 0206 9BB2     		uxth	r3, r3
 555 0208 1AB2     		sxth	r2, r3
 556 020a 7B69     		ldr	r3, [r7, #20]
 557 020c 1A82     		strh	r2, [r3, #16]	@ movhi
 558 020e 0DE0     		b	.L25
 559              	.L24:
 267:..\..\..\lvgl\version_6.1.2\lvgl\src\lv_core/lv_obj.c ****         } else {
 268:..\..\..\lvgl\version_6.1.2\lvgl\src\lv_core/lv_obj.c ****             new_obj->coords.x1    = parent->coords.x1;
 560              		.loc 2 268 0
 561 0210 7B68     		ldr	r3, [r7, #4]
 562 0212 B3F91020 		ldrsh	r2, [r3, #16]
 563 0216 7B69     		ldr	r3, [r7, #20]
 564 0218 1A82     		strh	r2, [r3, #16]	@ movhi
 269:..\..\..\lvgl\version_6.1.2\lvgl\src\lv_core/lv_obj.c ****             new_obj->coords.x2    = parent->coords.x1 + LV_OBJ_DEF_WIDTH;
 565              		.loc 2 269 0
 566 021a 7B68     		ldr	r3, [r7, #4]
 567 021c B3F91030 		ldrsh	r3, [r3, #16]
 568 0220 9BB2     		uxth	r3, r3
 569 0222 9633     		adds	r3, r3, #150
 570 0224 9BB2     		uxth	r3, r3
 571 0226 1AB2     		sxth	r2, r3
 572 0228 7B69     		ldr	r3, [r7, #20]
 573 022a 9A82     		strh	r2, [r3, #20]	@ movhi
 574              	.L25:
 270:..\..\..\lvgl\version_6.1.2\lvgl\src\lv_core/lv_obj.c ****         }
 271:..\..\..\lvgl\version_6.1.2\lvgl\src\lv_core/lv_obj.c ****         new_obj->ext_draw_pad = 0;
 575              		.loc 2 271 0
 576 022c 7B69     		ldr	r3, [r7, #20]
 577 022e 0022     		movs	r2, #0
 578 0230 1A86     		strh	r2, [r3, #48]	@ movhi
 272:..\..\..\lvgl\version_6.1.2\lvgl\src\lv_core/lv_obj.c **** 
 273:..\..\..\lvgl\version_6.1.2\lvgl\src\lv_core/lv_obj.c **** #if LV_USE_EXT_CLICK_AREA == LV_EXT_CLICK_AREA_FULL
 274:..\..\..\lvgl\version_6.1.2\lvgl\src\lv_core/lv_obj.c ****         memset(&new_obj->ext_click_pad, 0, sizeof(new_obj->ext_click_pad));
 275:..\..\..\lvgl\version_6.1.2\lvgl\src\lv_core/lv_obj.c **** #endif
 276:..\..\..\lvgl\version_6.1.2\lvgl\src\lv_core/lv_obj.c **** 
 277:..\..\..\lvgl\version_6.1.2\lvgl\src\lv_core/lv_obj.c **** #if LV_USE_EXT_CLICK_AREA == LV_EXT_CLICK_AREA_TINY
 278:..\..\..\lvgl\version_6.1.2\lvgl\src\lv_core/lv_obj.c ****         new_obj->ext_click_pad_hor = 0;
 279:..\..\..\lvgl\version_6.1.2\lvgl\src\lv_core/lv_obj.c ****         new_obj->ext_click_pad_ver = 0;
 280:..\..\..\lvgl\version_6.1.2\lvgl\src\lv_core/lv_obj.c **** #endif
 281:..\..\..\lvgl\version_6.1.2\lvgl\src\lv_core/lv_obj.c **** 
 282:..\..\..\lvgl\version_6.1.2\lvgl\src\lv_core/lv_obj.c ****         /*Init realign*/
 283:..\..\..\lvgl\version_6.1.2\lvgl\src\lv_core/lv_obj.c **** #if LV_USE_OBJ_REALIGN
 284:..\..\..\lvgl\version_6.1.2\lvgl\src\lv_core/lv_obj.c ****         new_obj->realign.align        = LV_ALIGN_CENTER;
 579              		.loc 2 284 0
 580 0232 7B69     		ldr	r3, [r7, #20]
 581 0234 0022     		movs	r2, #0
 582 0236 83F83C20 		strb	r2, [r3, #60]
 285:..\..\..\lvgl\version_6.1.2\lvgl\src\lv_core/lv_obj.c ****         new_obj->realign.xofs         = 0;
 583              		.loc 2 285 0
 584 023a 7B69     		ldr	r3, [r7, #20]
ARM GAS  C:\Users\tmj32\AppData\Local\Temp\ccxLNxq9.s 			page 18


 585 023c 0022     		movs	r2, #0
 586 023e 1A87     		strh	r2, [r3, #56]	@ movhi
 286:..\..\..\lvgl\version_6.1.2\lvgl\src\lv_core/lv_obj.c ****         new_obj->realign.yofs         = 0;
 587              		.loc 2 286 0
 588 0240 7B69     		ldr	r3, [r7, #20]
 589 0242 0022     		movs	r2, #0
 590 0244 5A87     		strh	r2, [r3, #58]	@ movhi
 287:..\..\..\lvgl\version_6.1.2\lvgl\src\lv_core/lv_obj.c ****         new_obj->realign.base         = NULL;
 591              		.loc 2 287 0
 592 0246 7B69     		ldr	r3, [r7, #20]
 593 0248 0022     		movs	r2, #0
 594 024a 5A63     		str	r2, [r3, #52]
 288:..\..\..\lvgl\version_6.1.2\lvgl\src\lv_core/lv_obj.c ****         new_obj->realign.auto_realign = 0;
 595              		.loc 2 288 0
 596 024c 7A69     		ldr	r2, [r7, #20]
 597 024e 92F83D30 		ldrb	r3, [r2, #61]
 598 0252 6FF30003 		bfc	r3, #0, #1
 599 0256 82F83D30 		strb	r3, [r2, #61]
 289:..\..\..\lvgl\version_6.1.2\lvgl\src\lv_core/lv_obj.c **** #endif
 290:..\..\..\lvgl\version_6.1.2\lvgl\src\lv_core/lv_obj.c ****         /*Set appearance*/
 291:..\..\..\lvgl\version_6.1.2\lvgl\src\lv_core/lv_obj.c ****         lv_theme_t * th = lv_theme_get_current();
 600              		.loc 2 291 0
 601 025a FFF7FEFF 		bl	lv_theme_get_current
 602 025e B860     		str	r0, [r7, #8]
 292:..\..\..\lvgl\version_6.1.2\lvgl\src\lv_core/lv_obj.c ****         if(th) {
 603              		.loc 2 292 0
 604 0260 BB68     		ldr	r3, [r7, #8]
 605 0262 002B     		cmp	r3, #0
 606 0264 0AD0     		beq	.L26
 293:..\..\..\lvgl\version_6.1.2\lvgl\src\lv_core/lv_obj.c ****             new_obj->style_p = th->style.panel;
 607              		.loc 2 293 0
 608 0266 BB68     		ldr	r3, [r7, #8]
 609 0268 9A68     		ldr	r2, [r3, #8]
 610 026a 7B69     		ldr	r3, [r7, #20]
 611 026c 9A62     		str	r2, [r3, #40]
 612 026e 08E0     		b	.L27
 613              	.L32:
 614              		.align	2
 615              	.L31:
 616 0270 00000000 		.word	lv_obj_signal
 617 0274 00000000 		.word	lv_obj_design
 618 0278 00000000 		.word	lv_style_scr
 619              	.L26:
 294:..\..\..\lvgl\version_6.1.2\lvgl\src\lv_core/lv_obj.c ****         } else {
 295:..\..\..\lvgl\version_6.1.2\lvgl\src\lv_core/lv_obj.c ****             new_obj->style_p = &lv_style_plain_color;
 620              		.loc 2 295 0
 621 027c 7B69     		ldr	r3, [r7, #20]
 622 027e 9E4A     		ldr	r2, .L33
 623 0280 9A62     		str	r2, [r3, #40]
 624              	.L27:
 296:..\..\..\lvgl\version_6.1.2\lvgl\src\lv_core/lv_obj.c ****         }
 297:..\..\..\lvgl\version_6.1.2\lvgl\src\lv_core/lv_obj.c **** 
 298:..\..\..\lvgl\version_6.1.2\lvgl\src\lv_core/lv_obj.c **** #if LV_USE_EXT_CLICK_AREA == LV_EXT_CLICK_AREA_FULL
 299:..\..\..\lvgl\version_6.1.2\lvgl\src\lv_core/lv_obj.c ****         memset(&new_obj->ext_click_pad, 0, sizeof(new_obj->ext_click_pad));
 300:..\..\..\lvgl\version_6.1.2\lvgl\src\lv_core/lv_obj.c **** #endif
 301:..\..\..\lvgl\version_6.1.2\lvgl\src\lv_core/lv_obj.c **** 
 302:..\..\..\lvgl\version_6.1.2\lvgl\src\lv_core/lv_obj.c **** #if LV_USE_EXT_CLICK_AREA == LV_EXT_CLICK_AREA_TINY
ARM GAS  C:\Users\tmj32\AppData\Local\Temp\ccxLNxq9.s 			page 19


 303:..\..\..\lvgl\version_6.1.2\lvgl\src\lv_core/lv_obj.c ****         new_obj->ext_click_pad_hor = 0;
 304:..\..\..\lvgl\version_6.1.2\lvgl\src\lv_core/lv_obj.c ****         new_obj->ext_click_pad_ver = 0;
 305:..\..\..\lvgl\version_6.1.2\lvgl\src\lv_core/lv_obj.c **** #endif
 306:..\..\..\lvgl\version_6.1.2\lvgl\src\lv_core/lv_obj.c **** 
 307:..\..\..\lvgl\version_6.1.2\lvgl\src\lv_core/lv_obj.c ****         /*Init. user date*/
 308:..\..\..\lvgl\version_6.1.2\lvgl\src\lv_core/lv_obj.c **** #if LV_USE_USER_DATA
 309:..\..\..\lvgl\version_6.1.2\lvgl\src\lv_core/lv_obj.c ****         memset(&new_obj->user_data, 0, sizeof(lv_obj_user_data_t));
 310:..\..\..\lvgl\version_6.1.2\lvgl\src\lv_core/lv_obj.c **** #endif
 311:..\..\..\lvgl\version_6.1.2\lvgl\src\lv_core/lv_obj.c **** 
 312:..\..\..\lvgl\version_6.1.2\lvgl\src\lv_core/lv_obj.c **** #if LV_USE_GROUP
 313:..\..\..\lvgl\version_6.1.2\lvgl\src\lv_core/lv_obj.c ****         new_obj->group_p = NULL;
 314:..\..\..\lvgl\version_6.1.2\lvgl\src\lv_core/lv_obj.c **** #endif
 315:..\..\..\lvgl\version_6.1.2\lvgl\src\lv_core/lv_obj.c **** 
 316:..\..\..\lvgl\version_6.1.2\lvgl\src\lv_core/lv_obj.c ****         /*Set attributes*/
 317:..\..\..\lvgl\version_6.1.2\lvgl\src\lv_core/lv_obj.c ****         new_obj->click        = 1;
 625              		.loc 2 317 0
 626 0282 7A69     		ldr	r2, [r7, #20]
 627 0284 92F82C30 		ldrb	r3, [r2, #44]
 628 0288 43F00103 		orr	r3, r3, #1
 629 028c 82F82C30 		strb	r3, [r2, #44]
 318:..\..\..\lvgl\version_6.1.2\lvgl\src\lv_core/lv_obj.c ****         new_obj->drag         = 0;
 630              		.loc 2 318 0
 631 0290 7A69     		ldr	r2, [r7, #20]
 632 0292 92F82C30 		ldrb	r3, [r2, #44]
 633 0296 6FF34103 		bfc	r3, #1, #1
 634 029a 82F82C30 		strb	r3, [r2, #44]
 319:..\..\..\lvgl\version_6.1.2\lvgl\src\lv_core/lv_obj.c ****         new_obj->drag_dir     = LV_DRAG_DIR_ALL;
 635              		.loc 2 319 0
 636 029e 7A69     		ldr	r2, [r7, #20]
 637 02a0 92F82D30 		ldrb	r3, [r2, #45]
 638 02a4 43F00303 		orr	r3, r3, #3
 639 02a8 82F82D30 		strb	r3, [r2, #45]
 320:..\..\..\lvgl\version_6.1.2\lvgl\src\lv_core/lv_obj.c ****         new_obj->drag_throw   = 0;
 640              		.loc 2 320 0
 641 02ac 7A69     		ldr	r2, [r7, #20]
 642 02ae 92F82C30 		ldrb	r3, [r2, #44]
 643 02b2 6FF38203 		bfc	r3, #2, #1
 644 02b6 82F82C30 		strb	r3, [r2, #44]
 321:..\..\..\lvgl\version_6.1.2\lvgl\src\lv_core/lv_obj.c ****         new_obj->drag_parent  = 0;
 645              		.loc 2 321 0
 646 02ba 7A69     		ldr	r2, [r7, #20]
 647 02bc 92F82C30 		ldrb	r3, [r2, #44]
 648 02c0 6FF3C303 		bfc	r3, #3, #1
 649 02c4 82F82C30 		strb	r3, [r2, #44]
 322:..\..\..\lvgl\version_6.1.2\lvgl\src\lv_core/lv_obj.c ****         new_obj->hidden       = 0;
 650              		.loc 2 322 0
 651 02c8 7A69     		ldr	r2, [r7, #20]
 652 02ca 92F82C30 		ldrb	r3, [r2, #44]
 653 02ce 6FF30413 		bfc	r3, #4, #1
 654 02d2 82F82C30 		strb	r3, [r2, #44]
 323:..\..\..\lvgl\version_6.1.2\lvgl\src\lv_core/lv_obj.c ****         new_obj->top          = 0;
 655              		.loc 2 323 0
 656 02d6 7A69     		ldr	r2, [r7, #20]
 657 02d8 92F82C30 		ldrb	r3, [r2, #44]
 658 02dc 6FF34513 		bfc	r3, #5, #1
 659 02e0 82F82C30 		strb	r3, [r2, #44]
 324:..\..\..\lvgl\version_6.1.2\lvgl\src\lv_core/lv_obj.c ****         new_obj->protect      = LV_PROTECT_NONE;
ARM GAS  C:\Users\tmj32\AppData\Local\Temp\ccxLNxq9.s 			page 20


 660              		.loc 2 324 0
 661 02e4 7B69     		ldr	r3, [r7, #20]
 662 02e6 0022     		movs	r2, #0
 663 02e8 83F82E20 		strb	r2, [r3, #46]
 325:..\..\..\lvgl\version_6.1.2\lvgl\src\lv_core/lv_obj.c ****         new_obj->opa_scale    = LV_OPA_COVER;
 664              		.loc 2 325 0
 665 02ec 7B69     		ldr	r3, [r7, #20]
 666 02ee FF22     		movs	r2, #255
 667 02f0 83F82F20 		strb	r2, [r3, #47]
 326:..\..\..\lvgl\version_6.1.2\lvgl\src\lv_core/lv_obj.c ****         new_obj->opa_scale_en = 0;
 668              		.loc 2 326 0
 669 02f4 7A69     		ldr	r2, [r7, #20]
 670 02f6 92F82C30 		ldrb	r3, [r2, #44]
 671 02fa 6FF38613 		bfc	r3, #6, #1
 672 02fe 82F82C30 		strb	r3, [r2, #44]
 327:..\..\..\lvgl\version_6.1.2\lvgl\src\lv_core/lv_obj.c ****         new_obj->parent_event = 0;
 673              		.loc 2 327 0
 674 0302 7A69     		ldr	r2, [r7, #20]
 675 0304 92F82C30 		ldrb	r3, [r2, #44]
 676 0308 6FF3C713 		bfc	r3, #7, #1
 677 030c 82F82C30 		strb	r3, [r2, #44]
 328:..\..\..\lvgl\version_6.1.2\lvgl\src\lv_core/lv_obj.c ****         new_obj->reserved     = 0;
 678              		.loc 2 328 0
 679 0310 7A69     		ldr	r2, [r7, #20]
 680 0312 92F82D30 		ldrb	r3, [r2, #45]
 681 0316 6FF30613 		bfc	r3, #4, #3
 682 031a 82F82D30 		strb	r3, [r2, #45]
 329:..\..\..\lvgl\version_6.1.2\lvgl\src\lv_core/lv_obj.c **** 
 330:..\..\..\lvgl\version_6.1.2\lvgl\src\lv_core/lv_obj.c ****         new_obj->ext_attr = NULL;
 683              		.loc 2 330 0
 684 031e 7B69     		ldr	r3, [r7, #20]
 685 0320 0022     		movs	r2, #0
 686 0322 5A62     		str	r2, [r3, #36]
 687              	.L22:
 688              	.LBE3:
 331:..\..\..\lvgl\version_6.1.2\lvgl\src\lv_core/lv_obj.c ****     }
 332:..\..\..\lvgl\version_6.1.2\lvgl\src\lv_core/lv_obj.c **** 
 333:..\..\..\lvgl\version_6.1.2\lvgl\src\lv_core/lv_obj.c ****     /*Copy the attributes if required*/
 334:..\..\..\lvgl\version_6.1.2\lvgl\src\lv_core/lv_obj.c ****     if(copy != NULL) {
 689              		.loc 2 334 0
 690 0324 3B68     		ldr	r3, [r7]
 691 0326 002B     		cmp	r3, #0
 692 0328 00F0D580 		beq	.L28
 335:..\..\..\lvgl\version_6.1.2\lvgl\src\lv_core/lv_obj.c ****         LV_ASSERT_OBJ(copy, LV_OBJX_NAME);
 336:..\..\..\lvgl\version_6.1.2\lvgl\src\lv_core/lv_obj.c ****         lv_area_copy(&new_obj->coords, &copy->coords);
 693              		.loc 2 336 0
 694 032c 7B69     		ldr	r3, [r7, #20]
 695 032e 03F11002 		add	r2, r3, #16
 696 0332 3B68     		ldr	r3, [r7]
 697 0334 1033     		adds	r3, r3, #16
 698 0336 1946     		mov	r1, r3
 699 0338 1046     		mov	r0, r2
 700 033a FFF7FEFF 		bl	lv_area_copy
 337:..\..\..\lvgl\version_6.1.2\lvgl\src\lv_core/lv_obj.c ****         new_obj->ext_draw_pad = copy->ext_draw_pad;
 701              		.loc 2 337 0
 702 033e 3B68     		ldr	r3, [r7]
 703 0340 B3F93020 		ldrsh	r2, [r3, #48]
ARM GAS  C:\Users\tmj32\AppData\Local\Temp\ccxLNxq9.s 			page 21


 704 0344 7B69     		ldr	r3, [r7, #20]
 705 0346 1A86     		strh	r2, [r3, #48]	@ movhi
 338:..\..\..\lvgl\version_6.1.2\lvgl\src\lv_core/lv_obj.c **** 
 339:..\..\..\lvgl\version_6.1.2\lvgl\src\lv_core/lv_obj.c **** #if LV_USE_EXT_CLICK_AREA == LV_EXT_CLICK_AREA_FULL
 340:..\..\..\lvgl\version_6.1.2\lvgl\src\lv_core/lv_obj.c ****         lv_area_copy(&new_obj->ext_click_pad, &copy->ext_click_pad);
 341:..\..\..\lvgl\version_6.1.2\lvgl\src\lv_core/lv_obj.c **** #endif
 342:..\..\..\lvgl\version_6.1.2\lvgl\src\lv_core/lv_obj.c **** 
 343:..\..\..\lvgl\version_6.1.2\lvgl\src\lv_core/lv_obj.c **** #if LV_USE_EXT_CLICK_AREA == LV_EXT_CLICK_AREA_TINY
 344:..\..\..\lvgl\version_6.1.2\lvgl\src\lv_core/lv_obj.c ****         new_obj->ext_click_pad_hor = copy->ext_click_pad_hor;
 345:..\..\..\lvgl\version_6.1.2\lvgl\src\lv_core/lv_obj.c ****         new_obj->ext_click_pad_ver = copy->ext_click_pad_ver;
 346:..\..\..\lvgl\version_6.1.2\lvgl\src\lv_core/lv_obj.c **** #endif
 347:..\..\..\lvgl\version_6.1.2\lvgl\src\lv_core/lv_obj.c **** 
 348:..\..\..\lvgl\version_6.1.2\lvgl\src\lv_core/lv_obj.c ****         /*Set free data*/
 349:..\..\..\lvgl\version_6.1.2\lvgl\src\lv_core/lv_obj.c **** #if LV_USE_USER_DATA
 350:..\..\..\lvgl\version_6.1.2\lvgl\src\lv_core/lv_obj.c ****         memcpy(&new_obj->user_data, &copy->user_data, sizeof(lv_obj_user_data_t));
 351:..\..\..\lvgl\version_6.1.2\lvgl\src\lv_core/lv_obj.c **** #endif
 352:..\..\..\lvgl\version_6.1.2\lvgl\src\lv_core/lv_obj.c ****         /*Copy realign*/
 353:..\..\..\lvgl\version_6.1.2\lvgl\src\lv_core/lv_obj.c **** #if LV_USE_OBJ_REALIGN
 354:..\..\..\lvgl\version_6.1.2\lvgl\src\lv_core/lv_obj.c ****         new_obj->realign.align        = copy->realign.align;
 706              		.loc 2 354 0
 707 0348 3B68     		ldr	r3, [r7]
 708 034a 93F83C20 		ldrb	r2, [r3, #60]	@ zero_extendqisi2
 709 034e 7B69     		ldr	r3, [r7, #20]
 710 0350 83F83C20 		strb	r2, [r3, #60]
 355:..\..\..\lvgl\version_6.1.2\lvgl\src\lv_core/lv_obj.c ****         new_obj->realign.xofs         = copy->realign.xofs;
 711              		.loc 2 355 0
 712 0354 3B68     		ldr	r3, [r7]
 713 0356 B3F93820 		ldrsh	r2, [r3, #56]
 714 035a 7B69     		ldr	r3, [r7, #20]
 715 035c 1A87     		strh	r2, [r3, #56]	@ movhi
 356:..\..\..\lvgl\version_6.1.2\lvgl\src\lv_core/lv_obj.c ****         new_obj->realign.yofs         = copy->realign.yofs;
 716              		.loc 2 356 0
 717 035e 3B68     		ldr	r3, [r7]
 718 0360 B3F93A20 		ldrsh	r2, [r3, #58]
 719 0364 7B69     		ldr	r3, [r7, #20]
 720 0366 5A87     		strh	r2, [r3, #58]	@ movhi
 357:..\..\..\lvgl\version_6.1.2\lvgl\src\lv_core/lv_obj.c ****         new_obj->realign.base         = copy->realign.base;
 721              		.loc 2 357 0
 722 0368 3B68     		ldr	r3, [r7]
 723 036a 5A6B     		ldr	r2, [r3, #52]
 724 036c 7B69     		ldr	r3, [r7, #20]
 725 036e 5A63     		str	r2, [r3, #52]
 358:..\..\..\lvgl\version_6.1.2\lvgl\src\lv_core/lv_obj.c ****         new_obj->realign.auto_realign = copy->realign.auto_realign;
 726              		.loc 2 358 0
 727 0370 3B68     		ldr	r3, [r7]
 728 0372 93F83D30 		ldrb	r3, [r3, #61]
 729 0376 C3F30003 		ubfx	r3, r3, #0, #1
 730 037a D9B2     		uxtb	r1, r3
 731 037c 7A69     		ldr	r2, [r7, #20]
 732 037e 92F83D30 		ldrb	r3, [r2, #61]
 733 0382 61F30003 		bfi	r3, r1, #0, #1
 734 0386 82F83D30 		strb	r3, [r2, #61]
 359:..\..\..\lvgl\version_6.1.2\lvgl\src\lv_core/lv_obj.c **** #endif
 360:..\..\..\lvgl\version_6.1.2\lvgl\src\lv_core/lv_obj.c **** 
 361:..\..\..\lvgl\version_6.1.2\lvgl\src\lv_core/lv_obj.c ****         /*Only copy the `event_cb`. `signal_cb` and `design_cb` will be copied in the derived
 362:..\..\..\lvgl\version_6.1.2\lvgl\src\lv_core/lv_obj.c ****          * object type (e.g. `lv_btn`)*/
 363:..\..\..\lvgl\version_6.1.2\lvgl\src\lv_core/lv_obj.c ****         new_obj->event_cb = copy->event_cb;
ARM GAS  C:\Users\tmj32\AppData\Local\Temp\ccxLNxq9.s 			page 22


 735              		.loc 2 363 0
 736 038a 3B68     		ldr	r3, [r7]
 737 038c 9A69     		ldr	r2, [r3, #24]
 738 038e 7B69     		ldr	r3, [r7, #20]
 739 0390 9A61     		str	r2, [r3, #24]
 364:..\..\..\lvgl\version_6.1.2\lvgl\src\lv_core/lv_obj.c **** 
 365:..\..\..\lvgl\version_6.1.2\lvgl\src\lv_core/lv_obj.c ****         /*Copy attributes*/
 366:..\..\..\lvgl\version_6.1.2\lvgl\src\lv_core/lv_obj.c ****         new_obj->click        = copy->click;
 740              		.loc 2 366 0
 741 0392 3B68     		ldr	r3, [r7]
 742 0394 93F82C30 		ldrb	r3, [r3, #44]
 743 0398 C3F30003 		ubfx	r3, r3, #0, #1
 744 039c D9B2     		uxtb	r1, r3
 745 039e 7A69     		ldr	r2, [r7, #20]
 746 03a0 92F82C30 		ldrb	r3, [r2, #44]
 747 03a4 61F30003 		bfi	r3, r1, #0, #1
 748 03a8 82F82C30 		strb	r3, [r2, #44]
 367:..\..\..\lvgl\version_6.1.2\lvgl\src\lv_core/lv_obj.c ****         new_obj->drag         = copy->drag;
 749              		.loc 2 367 0
 750 03ac 3B68     		ldr	r3, [r7]
 751 03ae 93F82C30 		ldrb	r3, [r3, #44]
 752 03b2 C3F34003 		ubfx	r3, r3, #1, #1
 753 03b6 D9B2     		uxtb	r1, r3
 754 03b8 7A69     		ldr	r2, [r7, #20]
 755 03ba 92F82C30 		ldrb	r3, [r2, #44]
 756 03be 61F34103 		bfi	r3, r1, #1, #1
 757 03c2 82F82C30 		strb	r3, [r2, #44]
 368:..\..\..\lvgl\version_6.1.2\lvgl\src\lv_core/lv_obj.c ****         new_obj->drag_dir     = copy->drag_dir;
 758              		.loc 2 368 0
 759 03c6 3B68     		ldr	r3, [r7]
 760 03c8 93F82D30 		ldrb	r3, [r3, #45]
 761 03cc C3F30103 		ubfx	r3, r3, #0, #2
 762 03d0 D9B2     		uxtb	r1, r3
 763 03d2 7A69     		ldr	r2, [r7, #20]
 764 03d4 92F82D30 		ldrb	r3, [r2, #45]
 765 03d8 61F30103 		bfi	r3, r1, #0, #2
 766 03dc 82F82D30 		strb	r3, [r2, #45]
 369:..\..\..\lvgl\version_6.1.2\lvgl\src\lv_core/lv_obj.c ****         new_obj->drag_throw   = copy->drag_throw;
 767              		.loc 2 369 0
 768 03e0 3B68     		ldr	r3, [r7]
 769 03e2 93F82C30 		ldrb	r3, [r3, #44]
 770 03e6 C3F38003 		ubfx	r3, r3, #2, #1
 771 03ea D9B2     		uxtb	r1, r3
 772 03ec 7A69     		ldr	r2, [r7, #20]
 773 03ee 92F82C30 		ldrb	r3, [r2, #44]
 774 03f2 61F38203 		bfi	r3, r1, #2, #1
 775 03f6 82F82C30 		strb	r3, [r2, #44]
 370:..\..\..\lvgl\version_6.1.2\lvgl\src\lv_core/lv_obj.c ****         new_obj->drag_parent  = copy->drag_parent;
 776              		.loc 2 370 0
 777 03fa 3B68     		ldr	r3, [r7]
 778 03fc 93F82C30 		ldrb	r3, [r3, #44]
 779 0400 C3F3C003 		ubfx	r3, r3, #3, #1
 780 0404 D9B2     		uxtb	r1, r3
 781 0406 7A69     		ldr	r2, [r7, #20]
 782 0408 92F82C30 		ldrb	r3, [r2, #44]
 783 040c 61F3C303 		bfi	r3, r1, #3, #1
 784 0410 82F82C30 		strb	r3, [r2, #44]
ARM GAS  C:\Users\tmj32\AppData\Local\Temp\ccxLNxq9.s 			page 23


 371:..\..\..\lvgl\version_6.1.2\lvgl\src\lv_core/lv_obj.c ****         new_obj->hidden       = copy->hidden;
 785              		.loc 2 371 0
 786 0414 3B68     		ldr	r3, [r7]
 787 0416 93F82C30 		ldrb	r3, [r3, #44]
 788 041a C3F30013 		ubfx	r3, r3, #4, #1
 789 041e D9B2     		uxtb	r1, r3
 790 0420 7A69     		ldr	r2, [r7, #20]
 791 0422 92F82C30 		ldrb	r3, [r2, #44]
 792 0426 61F30413 		bfi	r3, r1, #4, #1
 793 042a 82F82C30 		strb	r3, [r2, #44]
 372:..\..\..\lvgl\version_6.1.2\lvgl\src\lv_core/lv_obj.c ****         new_obj->top          = copy->top;
 794              		.loc 2 372 0
 795 042e 3B68     		ldr	r3, [r7]
 796 0430 93F82C30 		ldrb	r3, [r3, #44]
 797 0434 C3F34013 		ubfx	r3, r3, #5, #1
 798 0438 D9B2     		uxtb	r1, r3
 799 043a 7A69     		ldr	r2, [r7, #20]
 800 043c 92F82C30 		ldrb	r3, [r2, #44]
 801 0440 61F34513 		bfi	r3, r1, #5, #1
 802 0444 82F82C30 		strb	r3, [r2, #44]
 373:..\..\..\lvgl\version_6.1.2\lvgl\src\lv_core/lv_obj.c ****         new_obj->parent_event = copy->parent_event;
 803              		.loc 2 373 0
 804 0448 3B68     		ldr	r3, [r7]
 805 044a 93F82C30 		ldrb	r3, [r3, #44]
 806 044e C3F3C013 		ubfx	r3, r3, #7, #1
 807 0452 D9B2     		uxtb	r1, r3
 808 0454 7A69     		ldr	r2, [r7, #20]
 809 0456 92F82C30 		ldrb	r3, [r2, #44]
 810 045a 61F3C713 		bfi	r3, r1, #7, #1
 811 045e 82F82C30 		strb	r3, [r2, #44]
 374:..\..\..\lvgl\version_6.1.2\lvgl\src\lv_core/lv_obj.c **** 
 375:..\..\..\lvgl\version_6.1.2\lvgl\src\lv_core/lv_obj.c ****         new_obj->opa_scale_en = copy->opa_scale_en;
 812              		.loc 2 375 0
 813 0462 3B68     		ldr	r3, [r7]
 814 0464 93F82C30 		ldrb	r3, [r3, #44]
 815 0468 C3F38013 		ubfx	r3, r3, #6, #1
 816 046c D9B2     		uxtb	r1, r3
 817 046e 7A69     		ldr	r2, [r7, #20]
 818 0470 92F82C30 		ldrb	r3, [r2, #44]
 819 0474 61F38613 		bfi	r3, r1, #6, #1
 820 0478 82F82C30 		strb	r3, [r2, #44]
 376:..\..\..\lvgl\version_6.1.2\lvgl\src\lv_core/lv_obj.c ****         new_obj->protect      = copy->protect;
 821              		.loc 2 376 0
 822 047c 3B68     		ldr	r3, [r7]
 823 047e 93F82E20 		ldrb	r2, [r3, #46]	@ zero_extendqisi2
 824 0482 7B69     		ldr	r3, [r7, #20]
 825 0484 83F82E20 		strb	r2, [r3, #46]
 377:..\..\..\lvgl\version_6.1.2\lvgl\src\lv_core/lv_obj.c ****         new_obj->opa_scale    = copy->opa_scale;
 826              		.loc 2 377 0
 827 0488 3B68     		ldr	r3, [r7]
 828 048a 93F82F20 		ldrb	r2, [r3, #47]	@ zero_extendqisi2
 829 048e 7B69     		ldr	r3, [r7, #20]
 830 0490 83F82F20 		strb	r2, [r3, #47]
 378:..\..\..\lvgl\version_6.1.2\lvgl\src\lv_core/lv_obj.c **** 
 379:..\..\..\lvgl\version_6.1.2\lvgl\src\lv_core/lv_obj.c ****         new_obj->style_p = copy->style_p;
 831              		.loc 2 379 0
 832 0494 3B68     		ldr	r3, [r7]
ARM GAS  C:\Users\tmj32\AppData\Local\Temp\ccxLNxq9.s 			page 24


 833 0496 9A6A     		ldr	r2, [r3, #40]
 834 0498 7B69     		ldr	r3, [r7, #20]
 835 049a 9A62     		str	r2, [r3, #40]
 380:..\..\..\lvgl\version_6.1.2\lvgl\src\lv_core/lv_obj.c **** 
 381:..\..\..\lvgl\version_6.1.2\lvgl\src\lv_core/lv_obj.c **** #if LV_USE_GROUP
 382:..\..\..\lvgl\version_6.1.2\lvgl\src\lv_core/lv_obj.c ****         /*Add to the same group*/
 383:..\..\..\lvgl\version_6.1.2\lvgl\src\lv_core/lv_obj.c ****         if(copy->group_p != NULL) {
 384:..\..\..\lvgl\version_6.1.2\lvgl\src\lv_core/lv_obj.c ****             lv_group_add_obj(copy->group_p, new_obj);
 385:..\..\..\lvgl\version_6.1.2\lvgl\src\lv_core/lv_obj.c ****         }
 386:..\..\..\lvgl\version_6.1.2\lvgl\src\lv_core/lv_obj.c **** #endif
 387:..\..\..\lvgl\version_6.1.2\lvgl\src\lv_core/lv_obj.c **** 
 388:..\..\..\lvgl\version_6.1.2\lvgl\src\lv_core/lv_obj.c ****         /*Set the same coordinates for non screen objects*/
 389:..\..\..\lvgl\version_6.1.2\lvgl\src\lv_core/lv_obj.c ****         if(lv_obj_get_parent(copy) != NULL && parent != NULL) {
 836              		.loc 2 389 0
 837 049c 3868     		ldr	r0, [r7]
 838 049e FFF7FEFF 		bl	lv_obj_get_parent
 839 04a2 0346     		mov	r3, r0
 840 04a4 002B     		cmp	r3, #0
 841 04a6 11D0     		beq	.L29
 842              		.loc 2 389 0 is_stmt 0 discriminator 1
 843 04a8 7B68     		ldr	r3, [r7, #4]
 844 04aa 002B     		cmp	r3, #0
 845 04ac 0ED0     		beq	.L29
 390:..\..\..\lvgl\version_6.1.2\lvgl\src\lv_core/lv_obj.c ****             lv_obj_set_pos(new_obj, lv_obj_get_x(copy), lv_obj_get_y(copy));
 846              		.loc 2 390 0 is_stmt 1
 847 04ae 3868     		ldr	r0, [r7]
 848 04b0 FFF7FEFF 		bl	lv_obj_get_x
 849 04b4 0346     		mov	r3, r0
 850 04b6 1C46     		mov	r4, r3
 851 04b8 3868     		ldr	r0, [r7]
 852 04ba FFF7FEFF 		bl	lv_obj_get_y
 853 04be 0346     		mov	r3, r0
 854 04c0 1A46     		mov	r2, r3
 855 04c2 2146     		mov	r1, r4
 856 04c4 7869     		ldr	r0, [r7, #20]
 857 04c6 FFF7FEFF 		bl	lv_obj_set_pos
 858 04ca 04E0     		b	.L28
 859              	.L29:
 391:..\..\..\lvgl\version_6.1.2\lvgl\src\lv_core/lv_obj.c ****         } else {
 392:..\..\..\lvgl\version_6.1.2\lvgl\src\lv_core/lv_obj.c ****             lv_obj_set_pos(new_obj, 0, 0);
 860              		.loc 2 392 0
 861 04cc 0022     		movs	r2, #0
 862 04ce 0021     		movs	r1, #0
 863 04d0 7869     		ldr	r0, [r7, #20]
 864 04d2 FFF7FEFF 		bl	lv_obj_set_pos
 865              	.L28:
 393:..\..\..\lvgl\version_6.1.2\lvgl\src\lv_core/lv_obj.c ****         }
 394:..\..\..\lvgl\version_6.1.2\lvgl\src\lv_core/lv_obj.c **** 
 395:..\..\..\lvgl\version_6.1.2\lvgl\src\lv_core/lv_obj.c ****         LV_LOG_INFO("Object create ready");
 396:..\..\..\lvgl\version_6.1.2\lvgl\src\lv_core/lv_obj.c ****     }
 397:..\..\..\lvgl\version_6.1.2\lvgl\src\lv_core/lv_obj.c **** 
 398:..\..\..\lvgl\version_6.1.2\lvgl\src\lv_core/lv_obj.c ****     /*Send a signal to the parent to notify it about the new child*/
 399:..\..\..\lvgl\version_6.1.2\lvgl\src\lv_core/lv_obj.c ****     if(parent != NULL) {
 866              		.loc 2 399 0
 867 04d6 7B68     		ldr	r3, [r7, #4]
 868 04d8 002B     		cmp	r3, #0
 869 04da 08D0     		beq	.L30
ARM GAS  C:\Users\tmj32\AppData\Local\Temp\ccxLNxq9.s 			page 25


 400:..\..\..\lvgl\version_6.1.2\lvgl\src\lv_core/lv_obj.c ****         parent->signal_cb(parent, LV_SIGNAL_CHILD_CHG, new_obj);
 870              		.loc 2 400 0
 871 04dc 7B68     		ldr	r3, [r7, #4]
 872 04de DB69     		ldr	r3, [r3, #28]
 873 04e0 7A69     		ldr	r2, [r7, #20]
 874 04e2 0121     		movs	r1, #1
 875 04e4 7868     		ldr	r0, [r7, #4]
 876 04e6 9847     		blx	r3
 401:..\..\..\lvgl\version_6.1.2\lvgl\src\lv_core/lv_obj.c **** 
 402:..\..\..\lvgl\version_6.1.2\lvgl\src\lv_core/lv_obj.c ****         /*Invalidate the area if not screen created*/
 403:..\..\..\lvgl\version_6.1.2\lvgl\src\lv_core/lv_obj.c ****         lv_obj_invalidate(new_obj);
 877              		.loc 2 403 0
 878 04e8 7869     		ldr	r0, [r7, #20]
 879 04ea FFF7FEFF 		bl	lv_obj_invalidate
 880              	.L30:
 404:..\..\..\lvgl\version_6.1.2\lvgl\src\lv_core/lv_obj.c ****     }
 405:..\..\..\lvgl\version_6.1.2\lvgl\src\lv_core/lv_obj.c **** 
 406:..\..\..\lvgl\version_6.1.2\lvgl\src\lv_core/lv_obj.c ****     return new_obj;
 881              		.loc 2 406 0
 882 04ee 7B69     		ldr	r3, [r7, #20]
 883              	.L18:
 407:..\..\..\lvgl\version_6.1.2\lvgl\src\lv_core/lv_obj.c **** }
 884              		.loc 2 407 0
 885 04f0 1846     		mov	r0, r3
 886 04f2 1C37     		adds	r7, r7, #28
 887              		.cfi_def_cfa_offset 12
 888 04f4 BD46     		mov	sp, r7
 889              		.cfi_def_cfa_register 13
 890              		@ sp needed
 891 04f6 90BD     		pop	{r4, r7, pc}
 892              	.L34:
 893              		.align	2
 894              	.L33:
 895 04f8 00000000 		.word	lv_style_plain_color
 896              		.cfi_endproc
 897              	.LFE37:
 898              		.size	lv_obj_create, .-lv_obj_create
 899              		.section	.text.lv_obj_del,"ax",%progbits
 900              		.align	2
 901              		.global	lv_obj_del
 902              		.thumb
 903              		.thumb_func
 904              		.type	lv_obj_del, %function
 905              	lv_obj_del:
 906              	.LFB38:
 408:..\..\..\lvgl\version_6.1.2\lvgl\src\lv_core/lv_obj.c **** 
 409:..\..\..\lvgl\version_6.1.2\lvgl\src\lv_core/lv_obj.c **** /**
 410:..\..\..\lvgl\version_6.1.2\lvgl\src\lv_core/lv_obj.c ****  * Delete 'obj' and all of its children
 411:..\..\..\lvgl\version_6.1.2\lvgl\src\lv_core/lv_obj.c ****  * @param obj pointer to an object to delete
 412:..\..\..\lvgl\version_6.1.2\lvgl\src\lv_core/lv_obj.c ****  * @return LV_RES_INV because the object is deleted
 413:..\..\..\lvgl\version_6.1.2\lvgl\src\lv_core/lv_obj.c ****  */
 414:..\..\..\lvgl\version_6.1.2\lvgl\src\lv_core/lv_obj.c **** lv_res_t lv_obj_del(lv_obj_t * obj)
 415:..\..\..\lvgl\version_6.1.2\lvgl\src\lv_core/lv_obj.c **** {
 907              		.loc 2 415 0
 908              		.cfi_startproc
 909              		@ args = 0, pretend = 0, frame = 32
 910              		@ frame_needed = 1, uses_anonymous_args = 0
ARM GAS  C:\Users\tmj32\AppData\Local\Temp\ccxLNxq9.s 			page 26


 911 0000 80B5     		push	{r7, lr}
 912              		.cfi_def_cfa_offset 8
 913              		.cfi_offset 7, -8
 914              		.cfi_offset 14, -4
 915 0002 88B0     		sub	sp, sp, #32
 916              		.cfi_def_cfa_offset 40
 917 0004 00AF     		add	r7, sp, #0
 918              		.cfi_def_cfa_register 7
 919 0006 7860     		str	r0, [r7, #4]
 416:..\..\..\lvgl\version_6.1.2\lvgl\src\lv_core/lv_obj.c ****     LV_ASSERT_OBJ(obj, LV_OBJX_NAME);
 417:..\..\..\lvgl\version_6.1.2\lvgl\src\lv_core/lv_obj.c ****     lv_obj_invalidate(obj);
 920              		.loc 2 417 0
 921 0008 7868     		ldr	r0, [r7, #4]
 922 000a FFF7FEFF 		bl	lv_obj_invalidate
 418:..\..\..\lvgl\version_6.1.2\lvgl\src\lv_core/lv_obj.c **** 
 419:..\..\..\lvgl\version_6.1.2\lvgl\src\lv_core/lv_obj.c ****     /*Delete from the group*/
 420:..\..\..\lvgl\version_6.1.2\lvgl\src\lv_core/lv_obj.c **** #if LV_USE_GROUP
 421:..\..\..\lvgl\version_6.1.2\lvgl\src\lv_core/lv_obj.c ****     lv_group_t * group = lv_obj_get_group(obj);
 422:..\..\..\lvgl\version_6.1.2\lvgl\src\lv_core/lv_obj.c ****     if(group) lv_group_remove_obj(obj);
 423:..\..\..\lvgl\version_6.1.2\lvgl\src\lv_core/lv_obj.c **** #endif
 424:..\..\..\lvgl\version_6.1.2\lvgl\src\lv_core/lv_obj.c **** 
 425:..\..\..\lvgl\version_6.1.2\lvgl\src\lv_core/lv_obj.c ****         /*Remove the animations from this object*/
 426:..\..\..\lvgl\version_6.1.2\lvgl\src\lv_core/lv_obj.c **** #if LV_USE_ANIMATION
 427:..\..\..\lvgl\version_6.1.2\lvgl\src\lv_core/lv_obj.c ****     lv_anim_del(obj, NULL);
 923              		.loc 2 427 0
 924 000e 0021     		movs	r1, #0
 925 0010 7868     		ldr	r0, [r7, #4]
 926 0012 FFF7FEFF 		bl	lv_anim_del
 428:..\..\..\lvgl\version_6.1.2\lvgl\src\lv_core/lv_obj.c **** #endif
 429:..\..\..\lvgl\version_6.1.2\lvgl\src\lv_core/lv_obj.c **** 
 430:..\..\..\lvgl\version_6.1.2\lvgl\src\lv_core/lv_obj.c ****     /*Recursively delete the children*/
 431:..\..\..\lvgl\version_6.1.2\lvgl\src\lv_core/lv_obj.c ****     lv_obj_t * i;
 432:..\..\..\lvgl\version_6.1.2\lvgl\src\lv_core/lv_obj.c ****     lv_obj_t * i_next;
 433:..\..\..\lvgl\version_6.1.2\lvgl\src\lv_core/lv_obj.c ****     i = lv_ll_get_head(&(obj->child_ll));
 927              		.loc 2 433 0
 928 0016 7B68     		ldr	r3, [r7, #4]
 929 0018 0433     		adds	r3, r3, #4
 930 001a 1846     		mov	r0, r3
 931 001c FFF7FEFF 		bl	lv_ll_get_head
 932 0020 F861     		str	r0, [r7, #28]
 434:..\..\..\lvgl\version_6.1.2\lvgl\src\lv_core/lv_obj.c ****     while(i != NULL) {
 933              		.loc 2 434 0
 934 0022 0BE0     		b	.L36
 935              	.L37:
 435:..\..\..\lvgl\version_6.1.2\lvgl\src\lv_core/lv_obj.c ****         /*Get the next object before delete this*/
 436:..\..\..\lvgl\version_6.1.2\lvgl\src\lv_core/lv_obj.c ****         i_next = lv_ll_get_next(&(obj->child_ll), i);
 936              		.loc 2 436 0
 937 0024 7B68     		ldr	r3, [r7, #4]
 938 0026 0433     		adds	r3, r3, #4
 939 0028 F969     		ldr	r1, [r7, #28]
 940 002a 1846     		mov	r0, r3
 941 002c FFF7FEFF 		bl	lv_ll_get_next
 942 0030 7861     		str	r0, [r7, #20]
 437:..\..\..\lvgl\version_6.1.2\lvgl\src\lv_core/lv_obj.c **** 
 438:..\..\..\lvgl\version_6.1.2\lvgl\src\lv_core/lv_obj.c ****         /*Call the recursive del to the child too*/
 439:..\..\..\lvgl\version_6.1.2\lvgl\src\lv_core/lv_obj.c ****         delete_children(i);
 943              		.loc 2 439 0
ARM GAS  C:\Users\tmj32\AppData\Local\Temp\ccxLNxq9.s 			page 27


 944 0032 F869     		ldr	r0, [r7, #28]
 945 0034 FFF7FEFF 		bl	delete_children
 440:..\..\..\lvgl\version_6.1.2\lvgl\src\lv_core/lv_obj.c **** 
 441:..\..\..\lvgl\version_6.1.2\lvgl\src\lv_core/lv_obj.c ****         /*Set i to the next node*/
 442:..\..\..\lvgl\version_6.1.2\lvgl\src\lv_core/lv_obj.c ****         i = i_next;
 946              		.loc 2 442 0
 947 0038 7B69     		ldr	r3, [r7, #20]
 948 003a FB61     		str	r3, [r7, #28]
 949              	.L36:
 434:..\..\..\lvgl\version_6.1.2\lvgl\src\lv_core/lv_obj.c ****         /*Get the next object before delete this*/
 950              		.loc 2 434 0
 951 003c FB69     		ldr	r3, [r7, #28]
 952 003e 002B     		cmp	r3, #0
 953 0040 F0D1     		bne	.L37
 443:..\..\..\lvgl\version_6.1.2\lvgl\src\lv_core/lv_obj.c ****     }
 444:..\..\..\lvgl\version_6.1.2\lvgl\src\lv_core/lv_obj.c **** 
 445:..\..\..\lvgl\version_6.1.2\lvgl\src\lv_core/lv_obj.c ****     /*Let the user free the resources used in `LV_EVENT_DELETE`*/
 446:..\..\..\lvgl\version_6.1.2\lvgl\src\lv_core/lv_obj.c ****     lv_event_send(obj, LV_EVENT_DELETE, NULL);
 954              		.loc 2 446 0
 955 0042 0022     		movs	r2, #0
 956 0044 1321     		movs	r1, #19
 957 0046 7868     		ldr	r0, [r7, #4]
 958 0048 FFF7FEFF 		bl	lv_event_send
 447:..\..\..\lvgl\version_6.1.2\lvgl\src\lv_core/lv_obj.c **** 
 448:..\..\..\lvgl\version_6.1.2\lvgl\src\lv_core/lv_obj.c ****     lv_event_mark_deleted(obj);
 959              		.loc 2 448 0
 960 004c 7868     		ldr	r0, [r7, #4]
 961 004e FFF7FEFF 		bl	lv_event_mark_deleted
 449:..\..\..\lvgl\version_6.1.2\lvgl\src\lv_core/lv_obj.c **** 
 450:..\..\..\lvgl\version_6.1.2\lvgl\src\lv_core/lv_obj.c ****     /* Reset all input devices if the object to delete is used*/
 451:..\..\..\lvgl\version_6.1.2\lvgl\src\lv_core/lv_obj.c ****     lv_indev_t * indev = lv_indev_get_next(NULL);
 962              		.loc 2 451 0
 963 0052 0020     		movs	r0, #0
 964 0054 FFF7FEFF 		bl	lv_indev_get_next
 965 0058 B861     		str	r0, [r7, #24]
 452:..\..\..\lvgl\version_6.1.2\lvgl\src\lv_core/lv_obj.c ****     while(indev) {
 966              		.loc 2 452 0
 967 005a 18E0     		b	.L38
 968              	.L42:
 453:..\..\..\lvgl\version_6.1.2\lvgl\src\lv_core/lv_obj.c ****         if(indev->proc.types.pointer.act_obj == obj || indev->proc.types.pointer.last_obj == obj) {
 969              		.loc 2 453 0
 970 005c BB69     		ldr	r3, [r7, #24]
 971 005e 5A6B     		ldr	r2, [r3, #52]
 972 0060 7B68     		ldr	r3, [r7, #4]
 973 0062 9A42     		cmp	r2, r3
 974 0064 04D0     		beq	.L39
 975              		.loc 2 453 0 is_stmt 0 discriminator 1
 976 0066 BB69     		ldr	r3, [r7, #24]
 977 0068 9A6B     		ldr	r2, [r3, #56]
 978 006a 7B68     		ldr	r3, [r7, #4]
 979 006c 9A42     		cmp	r2, r3
 980 006e 02D1     		bne	.L40
 981              	.L39:
 454:..\..\..\lvgl\version_6.1.2\lvgl\src\lv_core/lv_obj.c ****             lv_indev_reset(indev);
 982              		.loc 2 454 0 is_stmt 1
 983 0070 B869     		ldr	r0, [r7, #24]
 984 0072 FFF7FEFF 		bl	lv_indev_reset
ARM GAS  C:\Users\tmj32\AppData\Local\Temp\ccxLNxq9.s 			page 28


 985              	.L40:
 455:..\..\..\lvgl\version_6.1.2\lvgl\src\lv_core/lv_obj.c ****         }
 456:..\..\..\lvgl\version_6.1.2\lvgl\src\lv_core/lv_obj.c ****         if(indev->proc.types.pointer.last_pressed == obj) {
 986              		.loc 2 456 0
 987 0076 BB69     		ldr	r3, [r7, #24]
 988 0078 DA6B     		ldr	r2, [r3, #60]
 989 007a 7B68     		ldr	r3, [r7, #4]
 990 007c 9A42     		cmp	r2, r3
 991 007e 02D1     		bne	.L41
 457:..\..\..\lvgl\version_6.1.2\lvgl\src\lv_core/lv_obj.c ****             indev->proc.types.pointer.last_pressed = NULL;
 992              		.loc 2 457 0
 993 0080 BB69     		ldr	r3, [r7, #24]
 994 0082 0022     		movs	r2, #0
 995 0084 DA63     		str	r2, [r3, #60]
 996              	.L41:
 458:..\..\..\lvgl\version_6.1.2\lvgl\src\lv_core/lv_obj.c ****         }
 459:..\..\..\lvgl\version_6.1.2\lvgl\src\lv_core/lv_obj.c **** 
 460:..\..\..\lvgl\version_6.1.2\lvgl\src\lv_core/lv_obj.c **** #if LV_USE_GROUP
 461:..\..\..\lvgl\version_6.1.2\lvgl\src\lv_core/lv_obj.c ****         if(indev->group == group && obj == lv_indev_get_obj_act()) {
 462:..\..\..\lvgl\version_6.1.2\lvgl\src\lv_core/lv_obj.c ****             lv_indev_reset(indev);
 463:..\..\..\lvgl\version_6.1.2\lvgl\src\lv_core/lv_obj.c ****         }
 464:..\..\..\lvgl\version_6.1.2\lvgl\src\lv_core/lv_obj.c **** #endif
 465:..\..\..\lvgl\version_6.1.2\lvgl\src\lv_core/lv_obj.c ****         indev = lv_indev_get_next(indev);
 997              		.loc 2 465 0
 998 0086 B869     		ldr	r0, [r7, #24]
 999 0088 FFF7FEFF 		bl	lv_indev_get_next
 1000 008c B861     		str	r0, [r7, #24]
 1001              	.L38:
 452:..\..\..\lvgl\version_6.1.2\lvgl\src\lv_core/lv_obj.c ****         if(indev->proc.types.pointer.act_obj == obj || indev->proc.types.pointer.last_obj == obj) {
 1002              		.loc 2 452 0
 1003 008e BB69     		ldr	r3, [r7, #24]
 1004 0090 002B     		cmp	r3, #0
 1005 0092 E3D1     		bne	.L42
 466:..\..\..\lvgl\version_6.1.2\lvgl\src\lv_core/lv_obj.c ****     }
 467:..\..\..\lvgl\version_6.1.2\lvgl\src\lv_core/lv_obj.c **** 
 468:..\..\..\lvgl\version_6.1.2\lvgl\src\lv_core/lv_obj.c ****     /* All children deleted.
 469:..\..\..\lvgl\version_6.1.2\lvgl\src\lv_core/lv_obj.c ****      * Now clean up the object specific data*/
 470:..\..\..\lvgl\version_6.1.2\lvgl\src\lv_core/lv_obj.c ****     obj->signal_cb(obj, LV_SIGNAL_CLEANUP, NULL);
 1006              		.loc 2 470 0
 1007 0094 7B68     		ldr	r3, [r7, #4]
 1008 0096 DB69     		ldr	r3, [r3, #28]
 1009 0098 0022     		movs	r2, #0
 1010 009a 0021     		movs	r1, #0
 1011 009c 7868     		ldr	r0, [r7, #4]
 1012 009e 9847     		blx	r3
 471:..\..\..\lvgl\version_6.1.2\lvgl\src\lv_core/lv_obj.c **** 
 472:..\..\..\lvgl\version_6.1.2\lvgl\src\lv_core/lv_obj.c ****     /*Remove the object from parent's children list*/
 473:..\..\..\lvgl\version_6.1.2\lvgl\src\lv_core/lv_obj.c ****     lv_obj_t * par = lv_obj_get_parent(obj);
 1013              		.loc 2 473 0
 1014 00a0 7868     		ldr	r0, [r7, #4]
 1015 00a2 FFF7FEFF 		bl	lv_obj_get_parent
 1016 00a6 3861     		str	r0, [r7, #16]
 474:..\..\..\lvgl\version_6.1.2\lvgl\src\lv_core/lv_obj.c ****     if(par == NULL) { /*It is a screen*/
 1017              		.loc 2 474 0
 1018 00a8 3B69     		ldr	r3, [r7, #16]
 1019 00aa 002B     		cmp	r3, #0
 1020 00ac 0AD1     		bne	.L43
ARM GAS  C:\Users\tmj32\AppData\Local\Temp\ccxLNxq9.s 			page 29


 1021              	.LBB4:
 475:..\..\..\lvgl\version_6.1.2\lvgl\src\lv_core/lv_obj.c ****         lv_disp_t * d = lv_obj_get_disp(obj);
 1022              		.loc 2 475 0
 1023 00ae 7868     		ldr	r0, [r7, #4]
 1024 00b0 FFF7FEFF 		bl	lv_obj_get_disp
 1025 00b4 F860     		str	r0, [r7, #12]
 476:..\..\..\lvgl\version_6.1.2\lvgl\src\lv_core/lv_obj.c ****         lv_ll_rem(&d->scr_ll, obj);
 1026              		.loc 2 476 0
 1027 00b6 FB68     		ldr	r3, [r7, #12]
 1028 00b8 2433     		adds	r3, r3, #36
 1029 00ba 7968     		ldr	r1, [r7, #4]
 1030 00bc 1846     		mov	r0, r3
 1031 00be FFF7FEFF 		bl	lv_ll_rem
 1032              	.LBE4:
 1033 00c2 05E0     		b	.L44
 1034              	.L43:
 477:..\..\..\lvgl\version_6.1.2\lvgl\src\lv_core/lv_obj.c ****     } else {
 478:..\..\..\lvgl\version_6.1.2\lvgl\src\lv_core/lv_obj.c ****         lv_ll_rem(&(par->child_ll), obj);
 1035              		.loc 2 478 0
 1036 00c4 3B69     		ldr	r3, [r7, #16]
 1037 00c6 0433     		adds	r3, r3, #4
 1038 00c8 7968     		ldr	r1, [r7, #4]
 1039 00ca 1846     		mov	r0, r3
 1040 00cc FFF7FEFF 		bl	lv_ll_rem
 1041              	.L44:
 479:..\..\..\lvgl\version_6.1.2\lvgl\src\lv_core/lv_obj.c ****     }
 480:..\..\..\lvgl\version_6.1.2\lvgl\src\lv_core/lv_obj.c **** 
 481:..\..\..\lvgl\version_6.1.2\lvgl\src\lv_core/lv_obj.c ****     /*Delete the base objects*/
 482:..\..\..\lvgl\version_6.1.2\lvgl\src\lv_core/lv_obj.c ****     if(obj->ext_attr != NULL) lv_mem_free(obj->ext_attr);
 1042              		.loc 2 482 0
 1043 00d0 7B68     		ldr	r3, [r7, #4]
 1044 00d2 5B6A     		ldr	r3, [r3, #36]
 1045 00d4 002B     		cmp	r3, #0
 1046 00d6 04D0     		beq	.L45
 1047              		.loc 2 482 0 is_stmt 0 discriminator 1
 1048 00d8 7B68     		ldr	r3, [r7, #4]
 1049 00da 5B6A     		ldr	r3, [r3, #36]
 1050 00dc 1846     		mov	r0, r3
 1051 00de FFF7FEFF 		bl	lv_mem_free
 1052              	.L45:
 483:..\..\..\lvgl\version_6.1.2\lvgl\src\lv_core/lv_obj.c ****     lv_mem_free(obj); /*Free the object itself*/
 1053              		.loc 2 483 0 is_stmt 1
 1054 00e2 7868     		ldr	r0, [r7, #4]
 1055 00e4 FFF7FEFF 		bl	lv_mem_free
 484:..\..\..\lvgl\version_6.1.2\lvgl\src\lv_core/lv_obj.c **** 
 485:..\..\..\lvgl\version_6.1.2\lvgl\src\lv_core/lv_obj.c ****     /*Send a signal to the parent to notify it about the child delete*/
 486:..\..\..\lvgl\version_6.1.2\lvgl\src\lv_core/lv_obj.c ****     if(par != NULL) {
 1056              		.loc 2 486 0
 1057 00e8 3B69     		ldr	r3, [r7, #16]
 1058 00ea 002B     		cmp	r3, #0
 1059 00ec 05D0     		beq	.L46
 487:..\..\..\lvgl\version_6.1.2\lvgl\src\lv_core/lv_obj.c ****         par->signal_cb(par, LV_SIGNAL_CHILD_CHG, NULL);
 1060              		.loc 2 487 0
 1061 00ee 3B69     		ldr	r3, [r7, #16]
 1062 00f0 DB69     		ldr	r3, [r3, #28]
 1063 00f2 0022     		movs	r2, #0
 1064 00f4 0121     		movs	r1, #1
ARM GAS  C:\Users\tmj32\AppData\Local\Temp\ccxLNxq9.s 			page 30


 1065 00f6 3869     		ldr	r0, [r7, #16]
 1066 00f8 9847     		blx	r3
 1067              	.L46:
 488:..\..\..\lvgl\version_6.1.2\lvgl\src\lv_core/lv_obj.c ****     }
 489:..\..\..\lvgl\version_6.1.2\lvgl\src\lv_core/lv_obj.c **** 
 490:..\..\..\lvgl\version_6.1.2\lvgl\src\lv_core/lv_obj.c ****     return LV_RES_INV;
 1068              		.loc 2 490 0
 1069 00fa 0023     		movs	r3, #0
 491:..\..\..\lvgl\version_6.1.2\lvgl\src\lv_core/lv_obj.c **** }
 1070              		.loc 2 491 0
 1071 00fc 1846     		mov	r0, r3
 1072 00fe 2037     		adds	r7, r7, #32
 1073              		.cfi_def_cfa_offset 8
 1074 0100 BD46     		mov	sp, r7
 1075              		.cfi_def_cfa_register 13
 1076              		@ sp needed
 1077 0102 80BD     		pop	{r7, pc}
 1078              		.cfi_endproc
 1079              	.LFE38:
 1080              		.size	lv_obj_del, .-lv_obj_del
 1081              		.section	.text.lv_obj_del_async,"ax",%progbits
 1082              		.align	2
 1083              		.global	lv_obj_del_async
 1084              		.thumb
 1085              		.thumb_func
 1086              		.type	lv_obj_del_async, %function
 1087              	lv_obj_del_async:
 1088              	.LFB39:
 492:..\..\..\lvgl\version_6.1.2\lvgl\src\lv_core/lv_obj.c **** 
 493:..\..\..\lvgl\version_6.1.2\lvgl\src\lv_core/lv_obj.c **** /**
 494:..\..\..\lvgl\version_6.1.2\lvgl\src\lv_core/lv_obj.c ****  * Helper function for asynchronously deleting objects.
 495:..\..\..\lvgl\version_6.1.2\lvgl\src\lv_core/lv_obj.c ****  * Useful for cases where you can't delete an object directly in an `LV_EVENT_DELETE` handler (i.e.
 496:..\..\..\lvgl\version_6.1.2\lvgl\src\lv_core/lv_obj.c ****  * @param obj object to delete
 497:..\..\..\lvgl\version_6.1.2\lvgl\src\lv_core/lv_obj.c ****  * @see lv_async_call
 498:..\..\..\lvgl\version_6.1.2\lvgl\src\lv_core/lv_obj.c ****  */
 499:..\..\..\lvgl\version_6.1.2\lvgl\src\lv_core/lv_obj.c **** void lv_obj_del_async(lv_obj_t * obj)
 500:..\..\..\lvgl\version_6.1.2\lvgl\src\lv_core/lv_obj.c **** {
 1089              		.loc 2 500 0
 1090              		.cfi_startproc
 1091              		@ args = 0, pretend = 0, frame = 8
 1092              		@ frame_needed = 1, uses_anonymous_args = 0
 1093 0000 80B5     		push	{r7, lr}
 1094              		.cfi_def_cfa_offset 8
 1095              		.cfi_offset 7, -8
 1096              		.cfi_offset 14, -4
 1097 0002 82B0     		sub	sp, sp, #8
 1098              		.cfi_def_cfa_offset 16
 1099 0004 00AF     		add	r7, sp, #0
 1100              		.cfi_def_cfa_register 7
 1101 0006 7860     		str	r0, [r7, #4]
 501:..\..\..\lvgl\version_6.1.2\lvgl\src\lv_core/lv_obj.c ****     LV_ASSERT_OBJ(obj, LV_OBJX_NAME);
 502:..\..\..\lvgl\version_6.1.2\lvgl\src\lv_core/lv_obj.c ****     lv_async_call(lv_obj_del_async_cb, obj);
 1102              		.loc 2 502 0
 1103 0008 7968     		ldr	r1, [r7, #4]
 1104 000a 0348     		ldr	r0, .L49
 1105 000c FFF7FEFF 		bl	lv_async_call
 503:..\..\..\lvgl\version_6.1.2\lvgl\src\lv_core/lv_obj.c **** }
ARM GAS  C:\Users\tmj32\AppData\Local\Temp\ccxLNxq9.s 			page 31


 1106              		.loc 2 503 0
 1107 0010 00BF     		nop
 1108 0012 0837     		adds	r7, r7, #8
 1109              		.cfi_def_cfa_offset 8
 1110 0014 BD46     		mov	sp, r7
 1111              		.cfi_def_cfa_register 13
 1112              		@ sp needed
 1113 0016 80BD     		pop	{r7, pc}
 1114              	.L50:
 1115              		.align	2
 1116              	.L49:
 1117 0018 00000000 		.word	lv_obj_del_async_cb
 1118              		.cfi_endproc
 1119              	.LFE39:
 1120              		.size	lv_obj_del_async, .-lv_obj_del_async
 1121              		.section	.text.lv_obj_clean,"ax",%progbits
 1122              		.align	2
 1123              		.global	lv_obj_clean
 1124              		.thumb
 1125              		.thumb_func
 1126              		.type	lv_obj_clean, %function
 1127              	lv_obj_clean:
 1128              	.LFB40:
 504:..\..\..\lvgl\version_6.1.2\lvgl\src\lv_core/lv_obj.c **** 
 505:..\..\..\lvgl\version_6.1.2\lvgl\src\lv_core/lv_obj.c **** /**
 506:..\..\..\lvgl\version_6.1.2\lvgl\src\lv_core/lv_obj.c ****  * Delete all children of an object
 507:..\..\..\lvgl\version_6.1.2\lvgl\src\lv_core/lv_obj.c ****  * @param obj pointer to an object
 508:..\..\..\lvgl\version_6.1.2\lvgl\src\lv_core/lv_obj.c ****  */
 509:..\..\..\lvgl\version_6.1.2\lvgl\src\lv_core/lv_obj.c **** void lv_obj_clean(lv_obj_t * obj)
 510:..\..\..\lvgl\version_6.1.2\lvgl\src\lv_core/lv_obj.c **** {
 1129              		.loc 2 510 0
 1130              		.cfi_startproc
 1131              		@ args = 0, pretend = 0, frame = 16
 1132              		@ frame_needed = 1, uses_anonymous_args = 0
 1133 0000 80B5     		push	{r7, lr}
 1134              		.cfi_def_cfa_offset 8
 1135              		.cfi_offset 7, -8
 1136              		.cfi_offset 14, -4
 1137 0002 84B0     		sub	sp, sp, #16
 1138              		.cfi_def_cfa_offset 24
 1139 0004 00AF     		add	r7, sp, #0
 1140              		.cfi_def_cfa_register 7
 1141 0006 7860     		str	r0, [r7, #4]
 511:..\..\..\lvgl\version_6.1.2\lvgl\src\lv_core/lv_obj.c ****     LV_ASSERT_OBJ(obj, LV_OBJX_NAME);
 512:..\..\..\lvgl\version_6.1.2\lvgl\src\lv_core/lv_obj.c ****     lv_obj_t * child = lv_obj_get_child(obj, NULL);
 1142              		.loc 2 512 0
 1143 0008 0021     		movs	r1, #0
 1144 000a 7868     		ldr	r0, [r7, #4]
 1145 000c FFF7FEFF 		bl	lv_obj_get_child
 1146 0010 F860     		str	r0, [r7, #12]
 513:..\..\..\lvgl\version_6.1.2\lvgl\src\lv_core/lv_obj.c ****     lv_obj_t * child_next;
 514:..\..\..\lvgl\version_6.1.2\lvgl\src\lv_core/lv_obj.c ****     while(child) {
 1147              		.loc 2 514 0
 1148 0012 09E0     		b	.L52
 1149              	.L53:
 515:..\..\..\lvgl\version_6.1.2\lvgl\src\lv_core/lv_obj.c ****         /* Read the next child before deleting the current
 516:..\..\..\lvgl\version_6.1.2\lvgl\src\lv_core/lv_obj.c ****          * because the next couldn't be read from a deleted (invalid) node*/
ARM GAS  C:\Users\tmj32\AppData\Local\Temp\ccxLNxq9.s 			page 32


 517:..\..\..\lvgl\version_6.1.2\lvgl\src\lv_core/lv_obj.c ****         child_next = lv_obj_get_child(obj, child);
 1150              		.loc 2 517 0
 1151 0014 F968     		ldr	r1, [r7, #12]
 1152 0016 7868     		ldr	r0, [r7, #4]
 1153 0018 FFF7FEFF 		bl	lv_obj_get_child
 1154 001c B860     		str	r0, [r7, #8]
 518:..\..\..\lvgl\version_6.1.2\lvgl\src\lv_core/lv_obj.c ****         lv_obj_del(child);
 1155              		.loc 2 518 0
 1156 001e F868     		ldr	r0, [r7, #12]
 1157 0020 FFF7FEFF 		bl	lv_obj_del
 519:..\..\..\lvgl\version_6.1.2\lvgl\src\lv_core/lv_obj.c ****         child = child_next;
 1158              		.loc 2 519 0
 1159 0024 BB68     		ldr	r3, [r7, #8]
 1160 0026 FB60     		str	r3, [r7, #12]
 1161              	.L52:
 514:..\..\..\lvgl\version_6.1.2\lvgl\src\lv_core/lv_obj.c ****         /* Read the next child before deleting the current
 1162              		.loc 2 514 0
 1163 0028 FB68     		ldr	r3, [r7, #12]
 1164 002a 002B     		cmp	r3, #0
 1165 002c F2D1     		bne	.L53
 520:..\..\..\lvgl\version_6.1.2\lvgl\src\lv_core/lv_obj.c ****     }
 521:..\..\..\lvgl\version_6.1.2\lvgl\src\lv_core/lv_obj.c **** }
 1166              		.loc 2 521 0
 1167 002e 00BF     		nop
 1168 0030 1037     		adds	r7, r7, #16
 1169              		.cfi_def_cfa_offset 8
 1170 0032 BD46     		mov	sp, r7
 1171              		.cfi_def_cfa_register 13
 1172              		@ sp needed
 1173 0034 80BD     		pop	{r7, pc}
 1174              		.cfi_endproc
 1175              	.LFE40:
 1176              		.size	lv_obj_clean, .-lv_obj_clean
 1177 0036 00BF     		.section	.text.lv_obj_invalidate_area,"ax",%progbits
 1178              		.align	2
 1179              		.global	lv_obj_invalidate_area
 1180              		.thumb
 1181              		.thumb_func
 1182              		.type	lv_obj_invalidate_area, %function
 1183              	lv_obj_invalidate_area:
 1184              	.LFB41:
 522:..\..\..\lvgl\version_6.1.2\lvgl\src\lv_core/lv_obj.c **** 
 523:..\..\..\lvgl\version_6.1.2\lvgl\src\lv_core/lv_obj.c **** /**
 524:..\..\..\lvgl\version_6.1.2\lvgl\src\lv_core/lv_obj.c ****  * Mark an area of an object as invalid.
 525:..\..\..\lvgl\version_6.1.2\lvgl\src\lv_core/lv_obj.c ****  * This area will be redrawn by 'lv_refr_task'
 526:..\..\..\lvgl\version_6.1.2\lvgl\src\lv_core/lv_obj.c ****  * @param obj pointer to an object
 527:..\..\..\lvgl\version_6.1.2\lvgl\src\lv_core/lv_obj.c ****  * @param area the area to redraw
 528:..\..\..\lvgl\version_6.1.2\lvgl\src\lv_core/lv_obj.c ****  */
 529:..\..\..\lvgl\version_6.1.2\lvgl\src\lv_core/lv_obj.c **** void lv_obj_invalidate_area(const lv_obj_t * obj, const lv_area_t * area)
 530:..\..\..\lvgl\version_6.1.2\lvgl\src\lv_core/lv_obj.c **** {
 1185              		.loc 2 530 0
 1186              		.cfi_startproc
 1187              		@ args = 0, pretend = 0, frame = 48
 1188              		@ frame_needed = 1, uses_anonymous_args = 0
 1189 0000 80B5     		push	{r7, lr}
 1190              		.cfi_def_cfa_offset 8
 1191              		.cfi_offset 7, -8
ARM GAS  C:\Users\tmj32\AppData\Local\Temp\ccxLNxq9.s 			page 33


 1192              		.cfi_offset 14, -4
 1193 0002 8CB0     		sub	sp, sp, #48
 1194              		.cfi_def_cfa_offset 56
 1195 0004 00AF     		add	r7, sp, #0
 1196              		.cfi_def_cfa_register 7
 1197 0006 7860     		str	r0, [r7, #4]
 1198 0008 3960     		str	r1, [r7]
 531:..\..\..\lvgl\version_6.1.2\lvgl\src\lv_core/lv_obj.c ****     LV_ASSERT_OBJ(obj, LV_OBJX_NAME);
 532:..\..\..\lvgl\version_6.1.2\lvgl\src\lv_core/lv_obj.c **** 
 533:..\..\..\lvgl\version_6.1.2\lvgl\src\lv_core/lv_obj.c ****     if(lv_obj_get_hidden(obj)) return;
 1199              		.loc 2 533 0
 1200 000a 7868     		ldr	r0, [r7, #4]
 1201 000c FFF7FEFF 		bl	lv_obj_get_hidden
 1202 0010 0346     		mov	r3, r0
 1203 0012 002B     		cmp	r3, #0
 1204 0014 40F08E80 		bne	.L66
 534:..\..\..\lvgl\version_6.1.2\lvgl\src\lv_core/lv_obj.c **** 
 535:..\..\..\lvgl\version_6.1.2\lvgl\src\lv_core/lv_obj.c ****     /*Invalidate the object only if it belongs to the 'LV_GC_ROOT(_lv_act_scr)'*/
 536:..\..\..\lvgl\version_6.1.2\lvgl\src\lv_core/lv_obj.c ****     lv_obj_t * obj_scr = lv_obj_get_screen(obj);
 1205              		.loc 2 536 0
 1206 0018 7868     		ldr	r0, [r7, #4]
 1207 001a FFF7FEFF 		bl	lv_obj_get_screen
 1208 001e 7862     		str	r0, [r7, #36]
 537:..\..\..\lvgl\version_6.1.2\lvgl\src\lv_core/lv_obj.c ****     lv_disp_t * disp   = lv_obj_get_disp(obj_scr);
 1209              		.loc 2 537 0
 1210 0020 786A     		ldr	r0, [r7, #36]
 1211 0022 FFF7FEFF 		bl	lv_obj_get_disp
 1212 0026 3862     		str	r0, [r7, #32]
 538:..\..\..\lvgl\version_6.1.2\lvgl\src\lv_core/lv_obj.c ****     if(obj_scr == lv_disp_get_scr_act(disp) || obj_scr == lv_disp_get_layer_top(disp) ||
 1213              		.loc 2 538 0
 1214 0028 386A     		ldr	r0, [r7, #32]
 1215 002a FFF7FEFF 		bl	lv_disp_get_scr_act
 1216 002e 0246     		mov	r2, r0
 1217 0030 7B6A     		ldr	r3, [r7, #36]
 1218 0032 9A42     		cmp	r2, r3
 1219 0034 0DD0     		beq	.L57
 1220              		.loc 2 538 0 is_stmt 0 discriminator 1
 1221 0036 386A     		ldr	r0, [r7, #32]
 1222 0038 FFF7FEFF 		bl	lv_disp_get_layer_top
 1223 003c 0246     		mov	r2, r0
 1224 003e 7B6A     		ldr	r3, [r7, #36]
 1225 0040 9A42     		cmp	r2, r3
 1226 0042 06D0     		beq	.L57
 539:..\..\..\lvgl\version_6.1.2\lvgl\src\lv_core/lv_obj.c ****        obj_scr == lv_disp_get_layer_sys(disp)) {
 1227              		.loc 2 539 0 is_stmt 1 discriminator 2
 1228 0044 386A     		ldr	r0, [r7, #32]
 1229 0046 FFF7FEFF 		bl	lv_disp_get_layer_sys
 1230 004a 0246     		mov	r2, r0
 538:..\..\..\lvgl\version_6.1.2\lvgl\src\lv_core/lv_obj.c ****     if(obj_scr == lv_disp_get_scr_act(disp) || obj_scr == lv_disp_get_layer_top(disp) ||
 1231              		.loc 2 538 0 discriminator 2
 1232 004c 7B6A     		ldr	r3, [r7, #36]
 1233 004e 9A42     		cmp	r2, r3
 1234 0050 75D1     		bne	.L54
 1235              	.L57:
 1236              	.LBB5:
 540:..\..\..\lvgl\version_6.1.2\lvgl\src\lv_core/lv_obj.c **** 
 541:..\..\..\lvgl\version_6.1.2\lvgl\src\lv_core/lv_obj.c ****         /*Truncate the area to the object*/
ARM GAS  C:\Users\tmj32\AppData\Local\Temp\ccxLNxq9.s 			page 34


 542:..\..\..\lvgl\version_6.1.2\lvgl\src\lv_core/lv_obj.c ****         lv_area_t obj_coords;
 543:..\..\..\lvgl\version_6.1.2\lvgl\src\lv_core/lv_obj.c ****         lv_coord_t ext_size = obj->ext_draw_pad;
 1237              		.loc 2 543 0
 1238 0052 7B68     		ldr	r3, [r7, #4]
 1239 0054 1B8E     		ldrh	r3, [r3, #48]	@ movhi
 1240 0056 FB83     		strh	r3, [r7, #30]	@ movhi
 544:..\..\..\lvgl\version_6.1.2\lvgl\src\lv_core/lv_obj.c ****         lv_area_copy(&obj_coords, &obj->coords);
 1241              		.loc 2 544 0
 1242 0058 7B68     		ldr	r3, [r7, #4]
 1243 005a 03F11002 		add	r2, r3, #16
 1244 005e 07F11403 		add	r3, r7, #20
 1245 0062 1146     		mov	r1, r2
 1246 0064 1846     		mov	r0, r3
 1247 0066 FFF7FEFF 		bl	lv_area_copy
 545:..\..\..\lvgl\version_6.1.2\lvgl\src\lv_core/lv_obj.c ****         obj_coords.x1 -= ext_size;
 1248              		.loc 2 545 0
 1249 006a B7F91430 		ldrsh	r3, [r7, #20]
 1250 006e 9AB2     		uxth	r2, r3
 1251 0070 FB8B     		ldrh	r3, [r7, #30]
 1252 0072 D31A     		subs	r3, r2, r3
 1253 0074 9BB2     		uxth	r3, r3
 1254 0076 1BB2     		sxth	r3, r3
 1255 0078 BB82     		strh	r3, [r7, #20]	@ movhi
 546:..\..\..\lvgl\version_6.1.2\lvgl\src\lv_core/lv_obj.c ****         obj_coords.y1 -= ext_size;
 1256              		.loc 2 546 0
 1257 007a B7F91630 		ldrsh	r3, [r7, #22]
 1258 007e 9AB2     		uxth	r2, r3
 1259 0080 FB8B     		ldrh	r3, [r7, #30]
 1260 0082 D31A     		subs	r3, r2, r3
 1261 0084 9BB2     		uxth	r3, r3
 1262 0086 1BB2     		sxth	r3, r3
 1263 0088 FB82     		strh	r3, [r7, #22]	@ movhi
 547:..\..\..\lvgl\version_6.1.2\lvgl\src\lv_core/lv_obj.c ****         obj_coords.x2 += ext_size;
 1264              		.loc 2 547 0
 1265 008a B7F91830 		ldrsh	r3, [r7, #24]
 1266 008e 9AB2     		uxth	r2, r3
 1267 0090 FB8B     		ldrh	r3, [r7, #30]
 1268 0092 1344     		add	r3, r3, r2
 1269 0094 9BB2     		uxth	r3, r3
 1270 0096 1BB2     		sxth	r3, r3
 1271 0098 3B83     		strh	r3, [r7, #24]	@ movhi
 548:..\..\..\lvgl\version_6.1.2\lvgl\src\lv_core/lv_obj.c ****         obj_coords.y2 += ext_size;
 1272              		.loc 2 548 0
 1273 009a B7F91A30 		ldrsh	r3, [r7, #26]
 1274 009e 9AB2     		uxth	r2, r3
 1275 00a0 FB8B     		ldrh	r3, [r7, #30]
 1276 00a2 1344     		add	r3, r3, r2
 1277 00a4 9BB2     		uxth	r3, r3
 1278 00a6 1BB2     		sxth	r3, r3
 1279 00a8 7B83     		strh	r3, [r7, #26]	@ movhi
 549:..\..\..\lvgl\version_6.1.2\lvgl\src\lv_core/lv_obj.c **** 
 550:..\..\..\lvgl\version_6.1.2\lvgl\src\lv_core/lv_obj.c ****         bool is_common;
 551:..\..\..\lvgl\version_6.1.2\lvgl\src\lv_core/lv_obj.c ****         lv_area_t area_trunc;
 552:..\..\..\lvgl\version_6.1.2\lvgl\src\lv_core/lv_obj.c **** 
 553:..\..\..\lvgl\version_6.1.2\lvgl\src\lv_core/lv_obj.c ****         is_common = lv_area_intersect(&area_trunc, area, &obj_coords);
 1280              		.loc 2 553 0
 1281 00aa 07F11402 		add	r2, r7, #20
ARM GAS  C:\Users\tmj32\AppData\Local\Temp\ccxLNxq9.s 			page 35


 1282 00ae 07F10C03 		add	r3, r7, #12
 1283 00b2 3968     		ldr	r1, [r7]
 1284 00b4 1846     		mov	r0, r3
 1285 00b6 FFF7FEFF 		bl	lv_area_intersect
 1286 00ba 0346     		mov	r3, r0
 1287 00bc 87F82F30 		strb	r3, [r7, #47]
 554:..\..\..\lvgl\version_6.1.2\lvgl\src\lv_core/lv_obj.c ****         if(is_common == false) return;  /*The area is not on the object*/
 1288              		.loc 2 554 0
 1289 00c0 97F82F30 		ldrb	r3, [r7, #47]
 1290 00c4 83F00103 		eor	r3, r3, #1
 1291 00c8 DBB2     		uxtb	r3, r3
 1292 00ca 002B     		cmp	r3, #0
 1293 00cc 34D1     		bne	.L67
 555:..\..\..\lvgl\version_6.1.2\lvgl\src\lv_core/lv_obj.c **** 
 556:..\..\..\lvgl\version_6.1.2\lvgl\src\lv_core/lv_obj.c ****         /*Truncate recursively to the parents*/
 557:..\..\..\lvgl\version_6.1.2\lvgl\src\lv_core/lv_obj.c ****         lv_obj_t * par = lv_obj_get_parent(obj);
 1294              		.loc 2 557 0
 1295 00ce 7868     		ldr	r0, [r7, #4]
 1296 00d0 FFF7FEFF 		bl	lv_obj_get_parent
 1297 00d4 B862     		str	r0, [r7, #40]
 558:..\..\..\lvgl\version_6.1.2\lvgl\src\lv_core/lv_obj.c ****         while(par != NULL) {
 1298              		.loc 2 558 0
 1299 00d6 1DE0     		b	.L60
 1300              	.L64:
 559:..\..\..\lvgl\version_6.1.2\lvgl\src\lv_core/lv_obj.c ****             is_common = lv_area_intersect(&area_trunc, &area_trunc, &par->coords);
 1301              		.loc 2 559 0
 1302 00d8 BB6A     		ldr	r3, [r7, #40]
 1303 00da 03F11002 		add	r2, r3, #16
 1304 00de 07F10C01 		add	r1, r7, #12
 1305 00e2 07F10C03 		add	r3, r7, #12
 1306 00e6 1846     		mov	r0, r3
 1307 00e8 FFF7FEFF 		bl	lv_area_intersect
 1308 00ec 0346     		mov	r3, r0
 1309 00ee 87F82F30 		strb	r3, [r7, #47]
 560:..\..\..\lvgl\version_6.1.2\lvgl\src\lv_core/lv_obj.c ****             if(is_common == false) break;       /*If no common parts with parent break;*/
 1310              		.loc 2 560 0
 1311 00f2 97F82F30 		ldrb	r3, [r7, #47]
 1312 00f6 83F00103 		eor	r3, r3, #1
 1313 00fa DBB2     		uxtb	r3, r3
 1314 00fc 002B     		cmp	r3, #0
 1315 00fe 0DD1     		bne	.L68
 561:..\..\..\lvgl\version_6.1.2\lvgl\src\lv_core/lv_obj.c ****             if(lv_obj_get_hidden(par)) return; /*If the parent is hidden then the child is hidden a
 1316              		.loc 2 561 0
 1317 0100 B86A     		ldr	r0, [r7, #40]
 1318 0102 FFF7FEFF 		bl	lv_obj_get_hidden
 1319 0106 0346     		mov	r3, r0
 1320 0108 002B     		cmp	r3, #0
 1321 010a 17D1     		bne	.L69
 562:..\..\..\lvgl\version_6.1.2\lvgl\src\lv_core/lv_obj.c **** 
 563:..\..\..\lvgl\version_6.1.2\lvgl\src\lv_core/lv_obj.c ****             par = lv_obj_get_parent(par);
 1322              		.loc 2 563 0
 1323 010c B86A     		ldr	r0, [r7, #40]
 1324 010e FFF7FEFF 		bl	lv_obj_get_parent
 1325 0112 B862     		str	r0, [r7, #40]
 1326              	.L60:
 558:..\..\..\lvgl\version_6.1.2\lvgl\src\lv_core/lv_obj.c ****             is_common = lv_area_intersect(&area_trunc, &area_trunc, &par->coords);
 1327              		.loc 2 558 0
ARM GAS  C:\Users\tmj32\AppData\Local\Temp\ccxLNxq9.s 			page 36


 1328 0114 BB6A     		ldr	r3, [r7, #40]
 1329 0116 002B     		cmp	r3, #0
 1330 0118 DED1     		bne	.L64
 1331 011a 00E0     		b	.L62
 1332              	.L68:
 560:..\..\..\lvgl\version_6.1.2\lvgl\src\lv_core/lv_obj.c ****             if(lv_obj_get_hidden(par)) return; /*If the parent is hidden then the child is hidden a
 1333              		.loc 2 560 0
 1334 011c 00BF     		nop
 1335              	.L62:
 564:..\..\..\lvgl\version_6.1.2\lvgl\src\lv_core/lv_obj.c ****         }
 565:..\..\..\lvgl\version_6.1.2\lvgl\src\lv_core/lv_obj.c **** 
 566:..\..\..\lvgl\version_6.1.2\lvgl\src\lv_core/lv_obj.c ****         if(is_common) lv_inv_area(disp, &area_trunc);
 1336              		.loc 2 566 0
 1337 011e 97F82F30 		ldrb	r3, [r7, #47]	@ zero_extendqisi2
 1338 0122 002B     		cmp	r3, #0
 1339 0124 0BD0     		beq	.L54
 1340              		.loc 2 566 0 is_stmt 0 discriminator 1
 1341 0126 07F10C03 		add	r3, r7, #12
 1342 012a 1946     		mov	r1, r3
 1343 012c 386A     		ldr	r0, [r7, #32]
 1344 012e FFF7FEFF 		bl	lv_inv_area
 1345 0132 04E0     		b	.L54
 1346              	.L66:
 1347              	.LBE5:
 533:..\..\..\lvgl\version_6.1.2\lvgl\src\lv_core/lv_obj.c **** 
 1348              		.loc 2 533 0 is_stmt 1
 1349 0134 00BF     		nop
 1350 0136 02E0     		b	.L54
 1351              	.L67:
 1352              	.LBB6:
 554:..\..\..\lvgl\version_6.1.2\lvgl\src\lv_core/lv_obj.c **** 
 1353              		.loc 2 554 0
 1354 0138 00BF     		nop
 1355 013a 00E0     		b	.L54
 1356              	.L69:
 561:..\..\..\lvgl\version_6.1.2\lvgl\src\lv_core/lv_obj.c **** 
 1357              		.loc 2 561 0
 1358 013c 00BF     		nop
 1359              	.L54:
 1360              	.LBE6:
 567:..\..\..\lvgl\version_6.1.2\lvgl\src\lv_core/lv_obj.c ****     }
 568:..\..\..\lvgl\version_6.1.2\lvgl\src\lv_core/lv_obj.c **** }
 1361              		.loc 2 568 0
 1362 013e 3037     		adds	r7, r7, #48
 1363              		.cfi_def_cfa_offset 8
 1364 0140 BD46     		mov	sp, r7
 1365              		.cfi_def_cfa_register 13
 1366              		@ sp needed
 1367 0142 80BD     		pop	{r7, pc}
 1368              		.cfi_endproc
 1369              	.LFE41:
 1370              		.size	lv_obj_invalidate_area, .-lv_obj_invalidate_area
 1371              		.section	.text.lv_obj_invalidate,"ax",%progbits
 1372              		.align	2
 1373              		.global	lv_obj_invalidate
 1374              		.thumb
 1375              		.thumb_func
ARM GAS  C:\Users\tmj32\AppData\Local\Temp\ccxLNxq9.s 			page 37


 1376              		.type	lv_obj_invalidate, %function
 1377              	lv_obj_invalidate:
 1378              	.LFB42:
 569:..\..\..\lvgl\version_6.1.2\lvgl\src\lv_core/lv_obj.c **** 
 570:..\..\..\lvgl\version_6.1.2\lvgl\src\lv_core/lv_obj.c **** /**
 571:..\..\..\lvgl\version_6.1.2\lvgl\src\lv_core/lv_obj.c ****  * Mark the object as invalid therefore its current position will be redrawn by 'lv_refr_task'
 572:..\..\..\lvgl\version_6.1.2\lvgl\src\lv_core/lv_obj.c ****  * @param obj pointer to an object
 573:..\..\..\lvgl\version_6.1.2\lvgl\src\lv_core/lv_obj.c ****  */
 574:..\..\..\lvgl\version_6.1.2\lvgl\src\lv_core/lv_obj.c **** void lv_obj_invalidate(const lv_obj_t * obj)
 575:..\..\..\lvgl\version_6.1.2\lvgl\src\lv_core/lv_obj.c **** {
 1379              		.loc 2 575 0
 1380              		.cfi_startproc
 1381              		@ args = 0, pretend = 0, frame = 24
 1382              		@ frame_needed = 1, uses_anonymous_args = 0
 1383 0000 80B5     		push	{r7, lr}
 1384              		.cfi_def_cfa_offset 8
 1385              		.cfi_offset 7, -8
 1386              		.cfi_offset 14, -4
 1387 0002 86B0     		sub	sp, sp, #24
 1388              		.cfi_def_cfa_offset 32
 1389 0004 00AF     		add	r7, sp, #0
 1390              		.cfi_def_cfa_register 7
 1391 0006 7860     		str	r0, [r7, #4]
 576:..\..\..\lvgl\version_6.1.2\lvgl\src\lv_core/lv_obj.c ****     LV_ASSERT_OBJ(obj, LV_OBJX_NAME);
 577:..\..\..\lvgl\version_6.1.2\lvgl\src\lv_core/lv_obj.c **** 
 578:..\..\..\lvgl\version_6.1.2\lvgl\src\lv_core/lv_obj.c ****     /*Truncate the area to the object*/
 579:..\..\..\lvgl\version_6.1.2\lvgl\src\lv_core/lv_obj.c ****     lv_area_t obj_coords;
 580:..\..\..\lvgl\version_6.1.2\lvgl\src\lv_core/lv_obj.c ****     lv_coord_t ext_size = obj->ext_draw_pad;
 1392              		.loc 2 580 0
 1393 0008 7B68     		ldr	r3, [r7, #4]
 1394 000a 1B8E     		ldrh	r3, [r3, #48]	@ movhi
 1395 000c FB82     		strh	r3, [r7, #22]	@ movhi
 581:..\..\..\lvgl\version_6.1.2\lvgl\src\lv_core/lv_obj.c ****     lv_area_copy(&obj_coords, &obj->coords);
 1396              		.loc 2 581 0
 1397 000e 7B68     		ldr	r3, [r7, #4]
 1398 0010 03F11002 		add	r2, r3, #16
 1399 0014 07F10C03 		add	r3, r7, #12
 1400 0018 1146     		mov	r1, r2
 1401 001a 1846     		mov	r0, r3
 1402 001c FFF7FEFF 		bl	lv_area_copy
 582:..\..\..\lvgl\version_6.1.2\lvgl\src\lv_core/lv_obj.c ****     obj_coords.x1 -= ext_size;
 1403              		.loc 2 582 0
 1404 0020 B7F90C30 		ldrsh	r3, [r7, #12]
 1405 0024 9AB2     		uxth	r2, r3
 1406 0026 FB8A     		ldrh	r3, [r7, #22]
 1407 0028 D31A     		subs	r3, r2, r3
 1408 002a 9BB2     		uxth	r3, r3
 1409 002c 1BB2     		sxth	r3, r3
 1410 002e BB81     		strh	r3, [r7, #12]	@ movhi
 583:..\..\..\lvgl\version_6.1.2\lvgl\src\lv_core/lv_obj.c ****     obj_coords.y1 -= ext_size;
 1411              		.loc 2 583 0
 1412 0030 B7F90E30 		ldrsh	r3, [r7, #14]
 1413 0034 9AB2     		uxth	r2, r3
 1414 0036 FB8A     		ldrh	r3, [r7, #22]
 1415 0038 D31A     		subs	r3, r2, r3
 1416 003a 9BB2     		uxth	r3, r3
 1417 003c 1BB2     		sxth	r3, r3
ARM GAS  C:\Users\tmj32\AppData\Local\Temp\ccxLNxq9.s 			page 38


 1418 003e FB81     		strh	r3, [r7, #14]	@ movhi
 584:..\..\..\lvgl\version_6.1.2\lvgl\src\lv_core/lv_obj.c ****     obj_coords.x2 += ext_size;
 1419              		.loc 2 584 0
 1420 0040 B7F91030 		ldrsh	r3, [r7, #16]
 1421 0044 9AB2     		uxth	r2, r3
 1422 0046 FB8A     		ldrh	r3, [r7, #22]
 1423 0048 1344     		add	r3, r3, r2
 1424 004a 9BB2     		uxth	r3, r3
 1425 004c 1BB2     		sxth	r3, r3
 1426 004e 3B82     		strh	r3, [r7, #16]	@ movhi
 585:..\..\..\lvgl\version_6.1.2\lvgl\src\lv_core/lv_obj.c ****     obj_coords.y2 += ext_size;
 1427              		.loc 2 585 0
 1428 0050 B7F91230 		ldrsh	r3, [r7, #18]
 1429 0054 9AB2     		uxth	r2, r3
 1430 0056 FB8A     		ldrh	r3, [r7, #22]
 1431 0058 1344     		add	r3, r3, r2
 1432 005a 9BB2     		uxth	r3, r3
 1433 005c 1BB2     		sxth	r3, r3
 1434 005e 7B82     		strh	r3, [r7, #18]	@ movhi
 586:..\..\..\lvgl\version_6.1.2\lvgl\src\lv_core/lv_obj.c **** 
 587:..\..\..\lvgl\version_6.1.2\lvgl\src\lv_core/lv_obj.c ****     lv_obj_invalidate_area(obj, &obj_coords);
 1435              		.loc 2 587 0
 1436 0060 07F10C03 		add	r3, r7, #12
 1437 0064 1946     		mov	r1, r3
 1438 0066 7868     		ldr	r0, [r7, #4]
 1439 0068 FFF7FEFF 		bl	lv_obj_invalidate_area
 588:..\..\..\lvgl\version_6.1.2\lvgl\src\lv_core/lv_obj.c **** 
 589:..\..\..\lvgl\version_6.1.2\lvgl\src\lv_core/lv_obj.c **** }
 1440              		.loc 2 589 0
 1441 006c 00BF     		nop
 1442 006e 1837     		adds	r7, r7, #24
 1443              		.cfi_def_cfa_offset 8
 1444 0070 BD46     		mov	sp, r7
 1445              		.cfi_def_cfa_register 13
 1446              		@ sp needed
 1447 0072 80BD     		pop	{r7, pc}
 1448              		.cfi_endproc
 1449              	.LFE42:
 1450              		.size	lv_obj_invalidate, .-lv_obj_invalidate
 1451              		.section	.text.lv_obj_set_parent,"ax",%progbits
 1452              		.align	2
 1453              		.global	lv_obj_set_parent
 1454              		.thumb
 1455              		.thumb_func
 1456              		.type	lv_obj_set_parent, %function
 1457              	lv_obj_set_parent:
 1458              	.LFB43:
 590:..\..\..\lvgl\version_6.1.2\lvgl\src\lv_core/lv_obj.c **** /*=====================
 591:..\..\..\lvgl\version_6.1.2\lvgl\src\lv_core/lv_obj.c ****  * Setter functions
 592:..\..\..\lvgl\version_6.1.2\lvgl\src\lv_core/lv_obj.c ****  *====================*/
 593:..\..\..\lvgl\version_6.1.2\lvgl\src\lv_core/lv_obj.c **** 
 594:..\..\..\lvgl\version_6.1.2\lvgl\src\lv_core/lv_obj.c **** /*--------------------
 595:..\..\..\lvgl\version_6.1.2\lvgl\src\lv_core/lv_obj.c ****  * Parent/children set
 596:..\..\..\lvgl\version_6.1.2\lvgl\src\lv_core/lv_obj.c ****  *--------------------*/
 597:..\..\..\lvgl\version_6.1.2\lvgl\src\lv_core/lv_obj.c **** 
 598:..\..\..\lvgl\version_6.1.2\lvgl\src\lv_core/lv_obj.c **** /**
 599:..\..\..\lvgl\version_6.1.2\lvgl\src\lv_core/lv_obj.c ****  * Set a new parent for an object. Its relative position will be the same.
ARM GAS  C:\Users\tmj32\AppData\Local\Temp\ccxLNxq9.s 			page 39


 600:..\..\..\lvgl\version_6.1.2\lvgl\src\lv_core/lv_obj.c ****  * @param obj pointer to an object. Can't be a screen.
 601:..\..\..\lvgl\version_6.1.2\lvgl\src\lv_core/lv_obj.c ****  * @param parent pointer to the new parent object. (Can't be NULL)
 602:..\..\..\lvgl\version_6.1.2\lvgl\src\lv_core/lv_obj.c ****  */
 603:..\..\..\lvgl\version_6.1.2\lvgl\src\lv_core/lv_obj.c **** void lv_obj_set_parent(lv_obj_t * obj, lv_obj_t * parent)
 604:..\..\..\lvgl\version_6.1.2\lvgl\src\lv_core/lv_obj.c **** {
 1459              		.loc 2 604 0
 1460              		.cfi_startproc
 1461              		@ args = 0, pretend = 0, frame = 16
 1462              		@ frame_needed = 1, uses_anonymous_args = 0
 1463 0000 80B5     		push	{r7, lr}
 1464              		.cfi_def_cfa_offset 8
 1465              		.cfi_offset 7, -8
 1466              		.cfi_offset 14, -4
 1467 0002 84B0     		sub	sp, sp, #16
 1468              		.cfi_def_cfa_offset 24
 1469 0004 00AF     		add	r7, sp, #0
 1470              		.cfi_def_cfa_register 7
 1471 0006 7860     		str	r0, [r7, #4]
 1472 0008 3960     		str	r1, [r7]
 605:..\..\..\lvgl\version_6.1.2\lvgl\src\lv_core/lv_obj.c ****     LV_ASSERT_OBJ(obj, LV_OBJX_NAME);
 606:..\..\..\lvgl\version_6.1.2\lvgl\src\lv_core/lv_obj.c ****     LV_ASSERT_OBJ(parent, LV_OBJX_NAME);
 607:..\..\..\lvgl\version_6.1.2\lvgl\src\lv_core/lv_obj.c **** 
 608:..\..\..\lvgl\version_6.1.2\lvgl\src\lv_core/lv_obj.c ****     if(obj->par == NULL) {
 1473              		.loc 2 608 0
 1474 000a 7B68     		ldr	r3, [r7, #4]
 1475 000c 1B68     		ldr	r3, [r3]
 1476 000e 002B     		cmp	r3, #0
 1477 0010 36D0     		beq	.L76
 609:..\..\..\lvgl\version_6.1.2\lvgl\src\lv_core/lv_obj.c ****         LV_LOG_WARN("Can't set the parent of a screen");
 610:..\..\..\lvgl\version_6.1.2\lvgl\src\lv_core/lv_obj.c ****         return;
 611:..\..\..\lvgl\version_6.1.2\lvgl\src\lv_core/lv_obj.c ****     }
 612:..\..\..\lvgl\version_6.1.2\lvgl\src\lv_core/lv_obj.c **** 
 613:..\..\..\lvgl\version_6.1.2\lvgl\src\lv_core/lv_obj.c ****     if(parent == NULL) {
 1478              		.loc 2 613 0
 1479 0012 3B68     		ldr	r3, [r7]
 1480 0014 002B     		cmp	r3, #0
 1481 0016 35D0     		beq	.L77
 614:..\..\..\lvgl\version_6.1.2\lvgl\src\lv_core/lv_obj.c ****         LV_LOG_WARN("Can't set parent == NULL to an object");
 615:..\..\..\lvgl\version_6.1.2\lvgl\src\lv_core/lv_obj.c ****         return;
 616:..\..\..\lvgl\version_6.1.2\lvgl\src\lv_core/lv_obj.c ****     }
 617:..\..\..\lvgl\version_6.1.2\lvgl\src\lv_core/lv_obj.c **** 
 618:..\..\..\lvgl\version_6.1.2\lvgl\src\lv_core/lv_obj.c ****     lv_obj_invalidate(obj);
 1482              		.loc 2 618 0
 1483 0018 7868     		ldr	r0, [r7, #4]
 1484 001a FFF7FEFF 		bl	lv_obj_invalidate
 619:..\..\..\lvgl\version_6.1.2\lvgl\src\lv_core/lv_obj.c **** 
 620:..\..\..\lvgl\version_6.1.2\lvgl\src\lv_core/lv_obj.c ****     lv_point_t old_pos;
 621:..\..\..\lvgl\version_6.1.2\lvgl\src\lv_core/lv_obj.c ****     old_pos.x = lv_obj_get_x(obj);
 1485              		.loc 2 621 0
 1486 001e 7868     		ldr	r0, [r7, #4]
 1487 0020 FFF7FEFF 		bl	lv_obj_get_x
 1488 0024 0346     		mov	r3, r0
 1489 0026 3B81     		strh	r3, [r7, #8]	@ movhi
 622:..\..\..\lvgl\version_6.1.2\lvgl\src\lv_core/lv_obj.c ****     old_pos.y = lv_obj_get_y(obj);
 1490              		.loc 2 622 0
 1491 0028 7868     		ldr	r0, [r7, #4]
 1492 002a FFF7FEFF 		bl	lv_obj_get_y
ARM GAS  C:\Users\tmj32\AppData\Local\Temp\ccxLNxq9.s 			page 40


 1493 002e 0346     		mov	r3, r0
 1494 0030 7B81     		strh	r3, [r7, #10]	@ movhi
 623:..\..\..\lvgl\version_6.1.2\lvgl\src\lv_core/lv_obj.c **** 
 624:..\..\..\lvgl\version_6.1.2\lvgl\src\lv_core/lv_obj.c ****     lv_obj_t * old_par = obj->par;
 1495              		.loc 2 624 0
 1496 0032 7B68     		ldr	r3, [r7, #4]
 1497 0034 1B68     		ldr	r3, [r3]
 1498 0036 FB60     		str	r3, [r7, #12]
 625:..\..\..\lvgl\version_6.1.2\lvgl\src\lv_core/lv_obj.c **** 
 626:..\..\..\lvgl\version_6.1.2\lvgl\src\lv_core/lv_obj.c ****     lv_ll_chg_list(&obj->par->child_ll, &parent->child_ll, obj, true);
 1499              		.loc 2 626 0
 1500 0038 7B68     		ldr	r3, [r7, #4]
 1501 003a 1B68     		ldr	r3, [r3]
 1502 003c 181D     		adds	r0, r3, #4
 1503 003e 3B68     		ldr	r3, [r7]
 1504 0040 191D     		adds	r1, r3, #4
 1505 0042 0123     		movs	r3, #1
 1506 0044 7A68     		ldr	r2, [r7, #4]
 1507 0046 FFF7FEFF 		bl	lv_ll_chg_list
 627:..\..\..\lvgl\version_6.1.2\lvgl\src\lv_core/lv_obj.c ****     obj->par = parent;
 1508              		.loc 2 627 0
 1509 004a 7B68     		ldr	r3, [r7, #4]
 1510 004c 3A68     		ldr	r2, [r7]
 1511 004e 1A60     		str	r2, [r3]
 628:..\..\..\lvgl\version_6.1.2\lvgl\src\lv_core/lv_obj.c ****     lv_obj_set_pos(obj, old_pos.x, old_pos.y);
 1512              		.loc 2 628 0
 1513 0050 B7F90830 		ldrsh	r3, [r7, #8]
 1514 0054 B7F90A20 		ldrsh	r2, [r7, #10]
 1515 0058 1946     		mov	r1, r3
 1516 005a 7868     		ldr	r0, [r7, #4]
 1517 005c FFF7FEFF 		bl	lv_obj_set_pos
 629:..\..\..\lvgl\version_6.1.2\lvgl\src\lv_core/lv_obj.c **** 
 630:..\..\..\lvgl\version_6.1.2\lvgl\src\lv_core/lv_obj.c ****     /*Notify the original parent because one of its children is lost*/
 631:..\..\..\lvgl\version_6.1.2\lvgl\src\lv_core/lv_obj.c ****     old_par->signal_cb(old_par, LV_SIGNAL_CHILD_CHG, NULL);
 1518              		.loc 2 631 0
 1519 0060 FB68     		ldr	r3, [r7, #12]
 1520 0062 DB69     		ldr	r3, [r3, #28]
 1521 0064 0022     		movs	r2, #0
 1522 0066 0121     		movs	r1, #1
 1523 0068 F868     		ldr	r0, [r7, #12]
 1524 006a 9847     		blx	r3
 632:..\..\..\lvgl\version_6.1.2\lvgl\src\lv_core/lv_obj.c **** 
 633:..\..\..\lvgl\version_6.1.2\lvgl\src\lv_core/lv_obj.c ****     /*Notify the new parent about the child*/
 634:..\..\..\lvgl\version_6.1.2\lvgl\src\lv_core/lv_obj.c ****     parent->signal_cb(parent, LV_SIGNAL_CHILD_CHG, obj);
 1525              		.loc 2 634 0
 1526 006c 3B68     		ldr	r3, [r7]
 1527 006e DB69     		ldr	r3, [r3, #28]
 1528 0070 7A68     		ldr	r2, [r7, #4]
 1529 0072 0121     		movs	r1, #1
 1530 0074 3868     		ldr	r0, [r7]
 1531 0076 9847     		blx	r3
 635:..\..\..\lvgl\version_6.1.2\lvgl\src\lv_core/lv_obj.c **** 
 636:..\..\..\lvgl\version_6.1.2\lvgl\src\lv_core/lv_obj.c ****     lv_obj_invalidate(obj);
 1532              		.loc 2 636 0
 1533 0078 7868     		ldr	r0, [r7, #4]
 1534 007a FFF7FEFF 		bl	lv_obj_invalidate
 1535 007e 02E0     		b	.L71
ARM GAS  C:\Users\tmj32\AppData\Local\Temp\ccxLNxq9.s 			page 41


 1536              	.L76:
 610:..\..\..\lvgl\version_6.1.2\lvgl\src\lv_core/lv_obj.c ****     }
 1537              		.loc 2 610 0
 1538 0080 00BF     		nop
 1539 0082 00E0     		b	.L71
 1540              	.L77:
 615:..\..\..\lvgl\version_6.1.2\lvgl\src\lv_core/lv_obj.c ****     }
 1541              		.loc 2 615 0
 1542 0084 00BF     		nop
 1543              	.L71:
 637:..\..\..\lvgl\version_6.1.2\lvgl\src\lv_core/lv_obj.c **** }
 1544              		.loc 2 637 0
 1545 0086 1037     		adds	r7, r7, #16
 1546              		.cfi_def_cfa_offset 8
 1547 0088 BD46     		mov	sp, r7
 1548              		.cfi_def_cfa_register 13
 1549              		@ sp needed
 1550 008a 80BD     		pop	{r7, pc}
 1551              		.cfi_endproc
 1552              	.LFE43:
 1553              		.size	lv_obj_set_parent, .-lv_obj_set_parent
 1554              		.section	.text.lv_obj_move_foreground,"ax",%progbits
 1555              		.align	2
 1556              		.global	lv_obj_move_foreground
 1557              		.thumb
 1558              		.thumb_func
 1559              		.type	lv_obj_move_foreground, %function
 1560              	lv_obj_move_foreground:
 1561              	.LFB44:
 638:..\..\..\lvgl\version_6.1.2\lvgl\src\lv_core/lv_obj.c **** 
 639:..\..\..\lvgl\version_6.1.2\lvgl\src\lv_core/lv_obj.c **** /**
 640:..\..\..\lvgl\version_6.1.2\lvgl\src\lv_core/lv_obj.c ****  * Move and object to the foreground
 641:..\..\..\lvgl\version_6.1.2\lvgl\src\lv_core/lv_obj.c ****  * @param obj pointer to an object
 642:..\..\..\lvgl\version_6.1.2\lvgl\src\lv_core/lv_obj.c ****  */
 643:..\..\..\lvgl\version_6.1.2\lvgl\src\lv_core/lv_obj.c **** void lv_obj_move_foreground(lv_obj_t * obj)
 644:..\..\..\lvgl\version_6.1.2\lvgl\src\lv_core/lv_obj.c **** {
 1562              		.loc 2 644 0
 1563              		.cfi_startproc
 1564              		@ args = 0, pretend = 0, frame = 16
 1565              		@ frame_needed = 1, uses_anonymous_args = 0
 1566 0000 80B5     		push	{r7, lr}
 1567              		.cfi_def_cfa_offset 8
 1568              		.cfi_offset 7, -8
 1569              		.cfi_offset 14, -4
 1570 0002 84B0     		sub	sp, sp, #16
 1571              		.cfi_def_cfa_offset 24
 1572 0004 00AF     		add	r7, sp, #0
 1573              		.cfi_def_cfa_register 7
 1574 0006 7860     		str	r0, [r7, #4]
 645:..\..\..\lvgl\version_6.1.2\lvgl\src\lv_core/lv_obj.c ****     LV_ASSERT_OBJ(obj, LV_OBJX_NAME);
 646:..\..\..\lvgl\version_6.1.2\lvgl\src\lv_core/lv_obj.c **** 
 647:..\..\..\lvgl\version_6.1.2\lvgl\src\lv_core/lv_obj.c ****     lv_obj_t * parent = lv_obj_get_parent(obj);
 1575              		.loc 2 647 0
 1576 0008 7868     		ldr	r0, [r7, #4]
 1577 000a FFF7FEFF 		bl	lv_obj_get_parent
 1578 000e F860     		str	r0, [r7, #12]
 648:..\..\..\lvgl\version_6.1.2\lvgl\src\lv_core/lv_obj.c **** 
ARM GAS  C:\Users\tmj32\AppData\Local\Temp\ccxLNxq9.s 			page 42


 649:..\..\..\lvgl\version_6.1.2\lvgl\src\lv_core/lv_obj.c ****     /*Do nothing of already in the foreground*/
 650:..\..\..\lvgl\version_6.1.2\lvgl\src\lv_core/lv_obj.c ****     if(lv_ll_get_head(&parent->child_ll) == obj) return;
 1579              		.loc 2 650 0
 1580 0010 FB68     		ldr	r3, [r7, #12]
 1581 0012 0433     		adds	r3, r3, #4
 1582 0014 1846     		mov	r0, r3
 1583 0016 FFF7FEFF 		bl	lv_ll_get_head
 1584 001a 0246     		mov	r2, r0
 1585 001c 7B68     		ldr	r3, [r7, #4]
 1586 001e 9A42     		cmp	r2, r3
 1587 0020 14D0     		beq	.L81
 651:..\..\..\lvgl\version_6.1.2\lvgl\src\lv_core/lv_obj.c **** 
 652:..\..\..\lvgl\version_6.1.2\lvgl\src\lv_core/lv_obj.c ****     lv_obj_invalidate(parent);
 1588              		.loc 2 652 0
 1589 0022 F868     		ldr	r0, [r7, #12]
 1590 0024 FFF7FEFF 		bl	lv_obj_invalidate
 653:..\..\..\lvgl\version_6.1.2\lvgl\src\lv_core/lv_obj.c **** 
 654:..\..\..\lvgl\version_6.1.2\lvgl\src\lv_core/lv_obj.c ****     lv_ll_chg_list(&parent->child_ll, &parent->child_ll, obj, true);
 1591              		.loc 2 654 0
 1592 0028 FB68     		ldr	r3, [r7, #12]
 1593 002a 181D     		adds	r0, r3, #4
 1594 002c FB68     		ldr	r3, [r7, #12]
 1595 002e 191D     		adds	r1, r3, #4
 1596 0030 0123     		movs	r3, #1
 1597 0032 7A68     		ldr	r2, [r7, #4]
 1598 0034 FFF7FEFF 		bl	lv_ll_chg_list
 655:..\..\..\lvgl\version_6.1.2\lvgl\src\lv_core/lv_obj.c **** 
 656:..\..\..\lvgl\version_6.1.2\lvgl\src\lv_core/lv_obj.c ****     /*Notify the new parent about the child*/
 657:..\..\..\lvgl\version_6.1.2\lvgl\src\lv_core/lv_obj.c ****     parent->signal_cb(parent, LV_SIGNAL_CHILD_CHG, obj);
 1599              		.loc 2 657 0
 1600 0038 FB68     		ldr	r3, [r7, #12]
 1601 003a DB69     		ldr	r3, [r3, #28]
 1602 003c 7A68     		ldr	r2, [r7, #4]
 1603 003e 0121     		movs	r1, #1
 1604 0040 F868     		ldr	r0, [r7, #12]
 1605 0042 9847     		blx	r3
 658:..\..\..\lvgl\version_6.1.2\lvgl\src\lv_core/lv_obj.c **** 
 659:..\..\..\lvgl\version_6.1.2\lvgl\src\lv_core/lv_obj.c ****     lv_obj_invalidate(parent);
 1606              		.loc 2 659 0
 1607 0044 F868     		ldr	r0, [r7, #12]
 1608 0046 FFF7FEFF 		bl	lv_obj_invalidate
 1609 004a 00E0     		b	.L78
 1610              	.L81:
 650:..\..\..\lvgl\version_6.1.2\lvgl\src\lv_core/lv_obj.c **** 
 1611              		.loc 2 650 0
 1612 004c 00BF     		nop
 1613              	.L78:
 660:..\..\..\lvgl\version_6.1.2\lvgl\src\lv_core/lv_obj.c **** }
 1614              		.loc 2 660 0
 1615 004e 1037     		adds	r7, r7, #16
 1616              		.cfi_def_cfa_offset 8
 1617 0050 BD46     		mov	sp, r7
 1618              		.cfi_def_cfa_register 13
 1619              		@ sp needed
 1620 0052 80BD     		pop	{r7, pc}
 1621              		.cfi_endproc
 1622              	.LFE44:
ARM GAS  C:\Users\tmj32\AppData\Local\Temp\ccxLNxq9.s 			page 43


 1623              		.size	lv_obj_move_foreground, .-lv_obj_move_foreground
 1624              		.section	.text.lv_obj_move_background,"ax",%progbits
 1625              		.align	2
 1626              		.global	lv_obj_move_background
 1627              		.thumb
 1628              		.thumb_func
 1629              		.type	lv_obj_move_background, %function
 1630              	lv_obj_move_background:
 1631              	.LFB45:
 661:..\..\..\lvgl\version_6.1.2\lvgl\src\lv_core/lv_obj.c **** 
 662:..\..\..\lvgl\version_6.1.2\lvgl\src\lv_core/lv_obj.c **** /**
 663:..\..\..\lvgl\version_6.1.2\lvgl\src\lv_core/lv_obj.c ****  * Move and object to the background
 664:..\..\..\lvgl\version_6.1.2\lvgl\src\lv_core/lv_obj.c ****  * @param obj pointer to an object
 665:..\..\..\lvgl\version_6.1.2\lvgl\src\lv_core/lv_obj.c ****  */
 666:..\..\..\lvgl\version_6.1.2\lvgl\src\lv_core/lv_obj.c **** void lv_obj_move_background(lv_obj_t * obj)
 667:..\..\..\lvgl\version_6.1.2\lvgl\src\lv_core/lv_obj.c **** {
 1632              		.loc 2 667 0
 1633              		.cfi_startproc
 1634              		@ args = 0, pretend = 0, frame = 16
 1635              		@ frame_needed = 1, uses_anonymous_args = 0
 1636 0000 80B5     		push	{r7, lr}
 1637              		.cfi_def_cfa_offset 8
 1638              		.cfi_offset 7, -8
 1639              		.cfi_offset 14, -4
 1640 0002 84B0     		sub	sp, sp, #16
 1641              		.cfi_def_cfa_offset 24
 1642 0004 00AF     		add	r7, sp, #0
 1643              		.cfi_def_cfa_register 7
 1644 0006 7860     		str	r0, [r7, #4]
 668:..\..\..\lvgl\version_6.1.2\lvgl\src\lv_core/lv_obj.c ****     LV_ASSERT_OBJ(obj, LV_OBJX_NAME);
 669:..\..\..\lvgl\version_6.1.2\lvgl\src\lv_core/lv_obj.c **** 
 670:..\..\..\lvgl\version_6.1.2\lvgl\src\lv_core/lv_obj.c ****     lv_obj_t * parent = lv_obj_get_parent(obj);
 1645              		.loc 2 670 0
 1646 0008 7868     		ldr	r0, [r7, #4]
 1647 000a FFF7FEFF 		bl	lv_obj_get_parent
 1648 000e F860     		str	r0, [r7, #12]
 671:..\..\..\lvgl\version_6.1.2\lvgl\src\lv_core/lv_obj.c **** 
 672:..\..\..\lvgl\version_6.1.2\lvgl\src\lv_core/lv_obj.c ****     /*Do nothing of already in the background*/
 673:..\..\..\lvgl\version_6.1.2\lvgl\src\lv_core/lv_obj.c ****     if(lv_ll_get_tail(&parent->child_ll) == obj) return;
 1649              		.loc 2 673 0
 1650 0010 FB68     		ldr	r3, [r7, #12]
 1651 0012 0433     		adds	r3, r3, #4
 1652 0014 1846     		mov	r0, r3
 1653 0016 FFF7FEFF 		bl	lv_ll_get_tail
 1654 001a 0246     		mov	r2, r0
 1655 001c 7B68     		ldr	r3, [r7, #4]
 1656 001e 9A42     		cmp	r2, r3
 1657 0020 14D0     		beq	.L85
 674:..\..\..\lvgl\version_6.1.2\lvgl\src\lv_core/lv_obj.c **** 
 675:..\..\..\lvgl\version_6.1.2\lvgl\src\lv_core/lv_obj.c ****     lv_obj_invalidate(parent);
 1658              		.loc 2 675 0
 1659 0022 F868     		ldr	r0, [r7, #12]
 1660 0024 FFF7FEFF 		bl	lv_obj_invalidate
 676:..\..\..\lvgl\version_6.1.2\lvgl\src\lv_core/lv_obj.c **** 
 677:..\..\..\lvgl\version_6.1.2\lvgl\src\lv_core/lv_obj.c ****     lv_ll_chg_list(&parent->child_ll, &parent->child_ll, obj, false);
 1661              		.loc 2 677 0
 1662 0028 FB68     		ldr	r3, [r7, #12]
ARM GAS  C:\Users\tmj32\AppData\Local\Temp\ccxLNxq9.s 			page 44


 1663 002a 181D     		adds	r0, r3, #4
 1664 002c FB68     		ldr	r3, [r7, #12]
 1665 002e 191D     		adds	r1, r3, #4
 1666 0030 0023     		movs	r3, #0
 1667 0032 7A68     		ldr	r2, [r7, #4]
 1668 0034 FFF7FEFF 		bl	lv_ll_chg_list
 678:..\..\..\lvgl\version_6.1.2\lvgl\src\lv_core/lv_obj.c **** 
 679:..\..\..\lvgl\version_6.1.2\lvgl\src\lv_core/lv_obj.c ****     /*Notify the new parent about the child*/
 680:..\..\..\lvgl\version_6.1.2\lvgl\src\lv_core/lv_obj.c ****     parent->signal_cb(parent, LV_SIGNAL_CHILD_CHG, obj);
 1669              		.loc 2 680 0
 1670 0038 FB68     		ldr	r3, [r7, #12]
 1671 003a DB69     		ldr	r3, [r3, #28]
 1672 003c 7A68     		ldr	r2, [r7, #4]
 1673 003e 0121     		movs	r1, #1
 1674 0040 F868     		ldr	r0, [r7, #12]
 1675 0042 9847     		blx	r3
 681:..\..\..\lvgl\version_6.1.2\lvgl\src\lv_core/lv_obj.c **** 
 682:..\..\..\lvgl\version_6.1.2\lvgl\src\lv_core/lv_obj.c ****     lv_obj_invalidate(parent);
 1676              		.loc 2 682 0
 1677 0044 F868     		ldr	r0, [r7, #12]
 1678 0046 FFF7FEFF 		bl	lv_obj_invalidate
 1679 004a 00E0     		b	.L82
 1680              	.L85:
 673:..\..\..\lvgl\version_6.1.2\lvgl\src\lv_core/lv_obj.c **** 
 1681              		.loc 2 673 0
 1682 004c 00BF     		nop
 1683              	.L82:
 683:..\..\..\lvgl\version_6.1.2\lvgl\src\lv_core/lv_obj.c **** }
 1684              		.loc 2 683 0
 1685 004e 1037     		adds	r7, r7, #16
 1686              		.cfi_def_cfa_offset 8
 1687 0050 BD46     		mov	sp, r7
 1688              		.cfi_def_cfa_register 13
 1689              		@ sp needed
 1690 0052 80BD     		pop	{r7, pc}
 1691              		.cfi_endproc
 1692              	.LFE45:
 1693              		.size	lv_obj_move_background, .-lv_obj_move_background
 1694              		.section	.text.lv_obj_set_pos,"ax",%progbits
 1695              		.align	2
 1696              		.global	lv_obj_set_pos
 1697              		.thumb
 1698              		.thumb_func
 1699              		.type	lv_obj_set_pos, %function
 1700              	lv_obj_set_pos:
 1701              	.LFB46:
 684:..\..\..\lvgl\version_6.1.2\lvgl\src\lv_core/lv_obj.c **** 
 685:..\..\..\lvgl\version_6.1.2\lvgl\src\lv_core/lv_obj.c **** /*--------------------
 686:..\..\..\lvgl\version_6.1.2\lvgl\src\lv_core/lv_obj.c ****  * Coordinate set
 687:..\..\..\lvgl\version_6.1.2\lvgl\src\lv_core/lv_obj.c ****  * ------------------*/
 688:..\..\..\lvgl\version_6.1.2\lvgl\src\lv_core/lv_obj.c **** 
 689:..\..\..\lvgl\version_6.1.2\lvgl\src\lv_core/lv_obj.c **** /**
 690:..\..\..\lvgl\version_6.1.2\lvgl\src\lv_core/lv_obj.c ****  * Set relative the position of an object (relative to the parent)
 691:..\..\..\lvgl\version_6.1.2\lvgl\src\lv_core/lv_obj.c ****  * @param obj pointer to an object
 692:..\..\..\lvgl\version_6.1.2\lvgl\src\lv_core/lv_obj.c ****  * @param x new distance from the left side of the parent
 693:..\..\..\lvgl\version_6.1.2\lvgl\src\lv_core/lv_obj.c ****  * @param y new distance from the top of the parent
 694:..\..\..\lvgl\version_6.1.2\lvgl\src\lv_core/lv_obj.c ****  */
ARM GAS  C:\Users\tmj32\AppData\Local\Temp\ccxLNxq9.s 			page 45


 695:..\..\..\lvgl\version_6.1.2\lvgl\src\lv_core/lv_obj.c **** void lv_obj_set_pos(lv_obj_t * obj, lv_coord_t x, lv_coord_t y)
 696:..\..\..\lvgl\version_6.1.2\lvgl\src\lv_core/lv_obj.c **** {
 1702              		.loc 2 696 0
 1703              		.cfi_startproc
 1704              		@ args = 0, pretend = 0, frame = 24
 1705              		@ frame_needed = 1, uses_anonymous_args = 0
 1706 0000 80B5     		push	{r7, lr}
 1707              		.cfi_def_cfa_offset 8
 1708              		.cfi_offset 7, -8
 1709              		.cfi_offset 14, -4
 1710 0002 86B0     		sub	sp, sp, #24
 1711              		.cfi_def_cfa_offset 32
 1712 0004 00AF     		add	r7, sp, #0
 1713              		.cfi_def_cfa_register 7
 1714 0006 7860     		str	r0, [r7, #4]
 1715 0008 0B46     		mov	r3, r1
 1716 000a 7B80     		strh	r3, [r7, #2]	@ movhi
 1717 000c 1346     		mov	r3, r2	@ movhi
 1718 000e 3B80     		strh	r3, [r7]	@ movhi
 697:..\..\..\lvgl\version_6.1.2\lvgl\src\lv_core/lv_obj.c ****     LV_ASSERT_OBJ(obj, LV_OBJX_NAME);
 698:..\..\..\lvgl\version_6.1.2\lvgl\src\lv_core/lv_obj.c **** 
 699:..\..\..\lvgl\version_6.1.2\lvgl\src\lv_core/lv_obj.c ****     /*Convert x and y to absolute coordinates*/
 700:..\..\..\lvgl\version_6.1.2\lvgl\src\lv_core/lv_obj.c ****     lv_obj_t * par = obj->par;
 1719              		.loc 2 700 0
 1720 0010 7B68     		ldr	r3, [r7, #4]
 1721 0012 1B68     		ldr	r3, [r3]
 1722 0014 7B61     		str	r3, [r7, #20]
 701:..\..\..\lvgl\version_6.1.2\lvgl\src\lv_core/lv_obj.c **** 
 702:..\..\..\lvgl\version_6.1.2\lvgl\src\lv_core/lv_obj.c ****     x = x + par->coords.x1;
 1723              		.loc 2 702 0
 1724 0016 7B69     		ldr	r3, [r7, #20]
 1725 0018 B3F91030 		ldrsh	r3, [r3, #16]
 1726 001c 9AB2     		uxth	r2, r3
 1727 001e 7B88     		ldrh	r3, [r7, #2]
 1728 0020 1344     		add	r3, r3, r2
 1729 0022 9BB2     		uxth	r3, r3
 1730 0024 7B80     		strh	r3, [r7, #2]	@ movhi
 703:..\..\..\lvgl\version_6.1.2\lvgl\src\lv_core/lv_obj.c ****     y = y + par->coords.y1;
 1731              		.loc 2 703 0
 1732 0026 7B69     		ldr	r3, [r7, #20]
 1733 0028 B3F91230 		ldrsh	r3, [r3, #18]
 1734 002c 9AB2     		uxth	r2, r3
 1735 002e 3B88     		ldrh	r3, [r7]
 1736 0030 1344     		add	r3, r3, r2
 1737 0032 9BB2     		uxth	r3, r3
 1738 0034 3B80     		strh	r3, [r7]	@ movhi
 704:..\..\..\lvgl\version_6.1.2\lvgl\src\lv_core/lv_obj.c **** 
 705:..\..\..\lvgl\version_6.1.2\lvgl\src\lv_core/lv_obj.c ****     /*Calculate and set the movement*/
 706:..\..\..\lvgl\version_6.1.2\lvgl\src\lv_core/lv_obj.c ****     lv_point_t diff;
 707:..\..\..\lvgl\version_6.1.2\lvgl\src\lv_core/lv_obj.c ****     diff.x = x - obj->coords.x1;
 1739              		.loc 2 707 0
 1740 0036 7A88     		ldrh	r2, [r7, #2]
 1741 0038 7B68     		ldr	r3, [r7, #4]
 1742 003a B3F91030 		ldrsh	r3, [r3, #16]
 1743 003e 9BB2     		uxth	r3, r3
 1744 0040 D31A     		subs	r3, r2, r3
 1745 0042 9BB2     		uxth	r3, r3
ARM GAS  C:\Users\tmj32\AppData\Local\Temp\ccxLNxq9.s 			page 46


 1746 0044 1BB2     		sxth	r3, r3
 1747 0046 3B82     		strh	r3, [r7, #16]	@ movhi
 708:..\..\..\lvgl\version_6.1.2\lvgl\src\lv_core/lv_obj.c ****     diff.y = y - obj->coords.y1;
 1748              		.loc 2 708 0
 1749 0048 3A88     		ldrh	r2, [r7]
 1750 004a 7B68     		ldr	r3, [r7, #4]
 1751 004c B3F91230 		ldrsh	r3, [r3, #18]
 1752 0050 9BB2     		uxth	r3, r3
 1753 0052 D31A     		subs	r3, r2, r3
 1754 0054 9BB2     		uxth	r3, r3
 1755 0056 1BB2     		sxth	r3, r3
 1756 0058 7B82     		strh	r3, [r7, #18]	@ movhi
 709:..\..\..\lvgl\version_6.1.2\lvgl\src\lv_core/lv_obj.c **** 
 710:..\..\..\lvgl\version_6.1.2\lvgl\src\lv_core/lv_obj.c ****     /* Do nothing if the position is not changed */
 711:..\..\..\lvgl\version_6.1.2\lvgl\src\lv_core/lv_obj.c ****     /* It is very important else recursive positioning can
 712:..\..\..\lvgl\version_6.1.2\lvgl\src\lv_core/lv_obj.c ****      * occur without position change*/
 713:..\..\..\lvgl\version_6.1.2\lvgl\src\lv_core/lv_obj.c ****     if(diff.x == 0 && diff.y == 0) return;
 1757              		.loc 2 713 0
 1758 005a B7F91030 		ldrsh	r3, [r7, #16]
 1759 005e 002B     		cmp	r3, #0
 1760 0060 03D1     		bne	.L87
 1761              		.loc 2 713 0 is_stmt 0 discriminator 1
 1762 0062 B7F91230 		ldrsh	r3, [r7, #18]
 1763 0066 002B     		cmp	r3, #0
 1764 0068 51D0     		beq	.L89
 1765              	.L87:
 714:..\..\..\lvgl\version_6.1.2\lvgl\src\lv_core/lv_obj.c **** 
 715:..\..\..\lvgl\version_6.1.2\lvgl\src\lv_core/lv_obj.c ****     /*Invalidate the original area*/
 716:..\..\..\lvgl\version_6.1.2\lvgl\src\lv_core/lv_obj.c ****     lv_obj_invalidate(obj);
 1766              		.loc 2 716 0 is_stmt 1
 1767 006a 7868     		ldr	r0, [r7, #4]
 1768 006c FFF7FEFF 		bl	lv_obj_invalidate
 717:..\..\..\lvgl\version_6.1.2\lvgl\src\lv_core/lv_obj.c **** 
 718:..\..\..\lvgl\version_6.1.2\lvgl\src\lv_core/lv_obj.c ****     /*Save the original coordinates*/
 719:..\..\..\lvgl\version_6.1.2\lvgl\src\lv_core/lv_obj.c ****     lv_area_t ori;
 720:..\..\..\lvgl\version_6.1.2\lvgl\src\lv_core/lv_obj.c ****     lv_obj_get_coords(obj, &ori);
 1769              		.loc 2 720 0
 1770 0070 07F10803 		add	r3, r7, #8
 1771 0074 1946     		mov	r1, r3
 1772 0076 7868     		ldr	r0, [r7, #4]
 1773 0078 FFF7FEFF 		bl	lv_obj_get_coords
 721:..\..\..\lvgl\version_6.1.2\lvgl\src\lv_core/lv_obj.c **** 
 722:..\..\..\lvgl\version_6.1.2\lvgl\src\lv_core/lv_obj.c ****     obj->coords.x1 += diff.x;
 1774              		.loc 2 722 0
 1775 007c 7B68     		ldr	r3, [r7, #4]
 1776 007e B3F91030 		ldrsh	r3, [r3, #16]
 1777 0082 9AB2     		uxth	r2, r3
 1778 0084 B7F91030 		ldrsh	r3, [r7, #16]
 1779 0088 9BB2     		uxth	r3, r3
 1780 008a 1344     		add	r3, r3, r2
 1781 008c 9BB2     		uxth	r3, r3
 1782 008e 1AB2     		sxth	r2, r3
 1783 0090 7B68     		ldr	r3, [r7, #4]
 1784 0092 1A82     		strh	r2, [r3, #16]	@ movhi
 723:..\..\..\lvgl\version_6.1.2\lvgl\src\lv_core/lv_obj.c ****     obj->coords.y1 += diff.y;
 1785              		.loc 2 723 0
 1786 0094 7B68     		ldr	r3, [r7, #4]
ARM GAS  C:\Users\tmj32\AppData\Local\Temp\ccxLNxq9.s 			page 47


 1787 0096 B3F91230 		ldrsh	r3, [r3, #18]
 1788 009a 9AB2     		uxth	r2, r3
 1789 009c B7F91230 		ldrsh	r3, [r7, #18]
 1790 00a0 9BB2     		uxth	r3, r3
 1791 00a2 1344     		add	r3, r3, r2
 1792 00a4 9BB2     		uxth	r3, r3
 1793 00a6 1AB2     		sxth	r2, r3
 1794 00a8 7B68     		ldr	r3, [r7, #4]
 1795 00aa 5A82     		strh	r2, [r3, #18]	@ movhi
 724:..\..\..\lvgl\version_6.1.2\lvgl\src\lv_core/lv_obj.c ****     obj->coords.x2 += diff.x;
 1796              		.loc 2 724 0
 1797 00ac 7B68     		ldr	r3, [r7, #4]
 1798 00ae B3F91430 		ldrsh	r3, [r3, #20]
 1799 00b2 9AB2     		uxth	r2, r3
 1800 00b4 B7F91030 		ldrsh	r3, [r7, #16]
 1801 00b8 9BB2     		uxth	r3, r3
 1802 00ba 1344     		add	r3, r3, r2
 1803 00bc 9BB2     		uxth	r3, r3
 1804 00be 1AB2     		sxth	r2, r3
 1805 00c0 7B68     		ldr	r3, [r7, #4]
 1806 00c2 9A82     		strh	r2, [r3, #20]	@ movhi
 725:..\..\..\lvgl\version_6.1.2\lvgl\src\lv_core/lv_obj.c ****     obj->coords.y2 += diff.y;
 1807              		.loc 2 725 0
 1808 00c4 7B68     		ldr	r3, [r7, #4]
 1809 00c6 B3F91630 		ldrsh	r3, [r3, #22]
 1810 00ca 9AB2     		uxth	r2, r3
 1811 00cc B7F91230 		ldrsh	r3, [r7, #18]
 1812 00d0 9BB2     		uxth	r3, r3
 1813 00d2 1344     		add	r3, r3, r2
 1814 00d4 9BB2     		uxth	r3, r3
 1815 00d6 1AB2     		sxth	r2, r3
 1816 00d8 7B68     		ldr	r3, [r7, #4]
 1817 00da DA82     		strh	r2, [r3, #22]	@ movhi
 726:..\..\..\lvgl\version_6.1.2\lvgl\src\lv_core/lv_obj.c **** 
 727:..\..\..\lvgl\version_6.1.2\lvgl\src\lv_core/lv_obj.c ****     refresh_children_position(obj, diff.x, diff.y);
 1818              		.loc 2 727 0
 1819 00dc B7F91030 		ldrsh	r3, [r7, #16]
 1820 00e0 B7F91220 		ldrsh	r2, [r7, #18]
 1821 00e4 1946     		mov	r1, r3
 1822 00e6 7868     		ldr	r0, [r7, #4]
 1823 00e8 FFF7FEFF 		bl	refresh_children_position
 728:..\..\..\lvgl\version_6.1.2\lvgl\src\lv_core/lv_obj.c **** 
 729:..\..\..\lvgl\version_6.1.2\lvgl\src\lv_core/lv_obj.c ****     /*Inform the object about its new coordinates*/
 730:..\..\..\lvgl\version_6.1.2\lvgl\src\lv_core/lv_obj.c ****     obj->signal_cb(obj, LV_SIGNAL_CORD_CHG, &ori);
 1824              		.loc 2 730 0
 1825 00ec 7B68     		ldr	r3, [r7, #4]
 1826 00ee DB69     		ldr	r3, [r3, #28]
 1827 00f0 07F10802 		add	r2, r7, #8
 1828 00f4 0221     		movs	r1, #2
 1829 00f6 7868     		ldr	r0, [r7, #4]
 1830 00f8 9847     		blx	r3
 731:..\..\..\lvgl\version_6.1.2\lvgl\src\lv_core/lv_obj.c **** 
 732:..\..\..\lvgl\version_6.1.2\lvgl\src\lv_core/lv_obj.c ****     /*Send a signal to the parent too*/
 733:..\..\..\lvgl\version_6.1.2\lvgl\src\lv_core/lv_obj.c ****     par->signal_cb(par, LV_SIGNAL_CHILD_CHG, obj);
 1831              		.loc 2 733 0
 1832 00fa 7B69     		ldr	r3, [r7, #20]
 1833 00fc DB69     		ldr	r3, [r3, #28]
ARM GAS  C:\Users\tmj32\AppData\Local\Temp\ccxLNxq9.s 			page 48


 1834 00fe 7A68     		ldr	r2, [r7, #4]
 1835 0100 0121     		movs	r1, #1
 1836 0102 7869     		ldr	r0, [r7, #20]
 1837 0104 9847     		blx	r3
 734:..\..\..\lvgl\version_6.1.2\lvgl\src\lv_core/lv_obj.c **** 
 735:..\..\..\lvgl\version_6.1.2\lvgl\src\lv_core/lv_obj.c ****     /*Invalidate the new area*/
 736:..\..\..\lvgl\version_6.1.2\lvgl\src\lv_core/lv_obj.c ****     lv_obj_invalidate(obj);
 1838              		.loc 2 736 0
 1839 0106 7868     		ldr	r0, [r7, #4]
 1840 0108 FFF7FEFF 		bl	lv_obj_invalidate
 1841 010c 00E0     		b	.L86
 1842              	.L89:
 713:..\..\..\lvgl\version_6.1.2\lvgl\src\lv_core/lv_obj.c **** 
 1843              		.loc 2 713 0
 1844 010e 00BF     		nop
 1845              	.L86:
 737:..\..\..\lvgl\version_6.1.2\lvgl\src\lv_core/lv_obj.c **** }
 1846              		.loc 2 737 0
 1847 0110 1837     		adds	r7, r7, #24
 1848              		.cfi_def_cfa_offset 8
 1849 0112 BD46     		mov	sp, r7
 1850              		.cfi_def_cfa_register 13
 1851              		@ sp needed
 1852 0114 80BD     		pop	{r7, pc}
 1853              		.cfi_endproc
 1854              	.LFE46:
 1855              		.size	lv_obj_set_pos, .-lv_obj_set_pos
 1856 0116 00BF     		.section	.text.lv_obj_set_x,"ax",%progbits
 1857              		.align	2
 1858              		.global	lv_obj_set_x
 1859              		.thumb
 1860              		.thumb_func
 1861              		.type	lv_obj_set_x, %function
 1862              	lv_obj_set_x:
 1863              	.LFB47:
 738:..\..\..\lvgl\version_6.1.2\lvgl\src\lv_core/lv_obj.c **** 
 739:..\..\..\lvgl\version_6.1.2\lvgl\src\lv_core/lv_obj.c **** /**
 740:..\..\..\lvgl\version_6.1.2\lvgl\src\lv_core/lv_obj.c ****  * Set the x coordinate of a object
 741:..\..\..\lvgl\version_6.1.2\lvgl\src\lv_core/lv_obj.c ****  * @param obj pointer to an object
 742:..\..\..\lvgl\version_6.1.2\lvgl\src\lv_core/lv_obj.c ****  * @param x new distance from the left side from the parent
 743:..\..\..\lvgl\version_6.1.2\lvgl\src\lv_core/lv_obj.c ****  */
 744:..\..\..\lvgl\version_6.1.2\lvgl\src\lv_core/lv_obj.c **** void lv_obj_set_x(lv_obj_t * obj, lv_coord_t x)
 745:..\..\..\lvgl\version_6.1.2\lvgl\src\lv_core/lv_obj.c **** {
 1864              		.loc 2 745 0
 1865              		.cfi_startproc
 1866              		@ args = 0, pretend = 0, frame = 8
 1867              		@ frame_needed = 1, uses_anonymous_args = 0
 1868 0000 80B5     		push	{r7, lr}
 1869              		.cfi_def_cfa_offset 8
 1870              		.cfi_offset 7, -8
 1871              		.cfi_offset 14, -4
 1872 0002 82B0     		sub	sp, sp, #8
 1873              		.cfi_def_cfa_offset 16
 1874 0004 00AF     		add	r7, sp, #0
 1875              		.cfi_def_cfa_register 7
 1876 0006 7860     		str	r0, [r7, #4]
 1877 0008 0B46     		mov	r3, r1
ARM GAS  C:\Users\tmj32\AppData\Local\Temp\ccxLNxq9.s 			page 49


 1878 000a 7B80     		strh	r3, [r7, #2]	@ movhi
 746:..\..\..\lvgl\version_6.1.2\lvgl\src\lv_core/lv_obj.c ****     LV_ASSERT_OBJ(obj, LV_OBJX_NAME);
 747:..\..\..\lvgl\version_6.1.2\lvgl\src\lv_core/lv_obj.c **** 
 748:..\..\..\lvgl\version_6.1.2\lvgl\src\lv_core/lv_obj.c ****     lv_obj_set_pos(obj, x, lv_obj_get_y(obj));
 1879              		.loc 2 748 0
 1880 000c 7868     		ldr	r0, [r7, #4]
 1881 000e FFF7FEFF 		bl	lv_obj_get_y
 1882 0012 0346     		mov	r3, r0
 1883 0014 1A46     		mov	r2, r3
 1884 0016 B7F90230 		ldrsh	r3, [r7, #2]
 1885 001a 1946     		mov	r1, r3
 1886 001c 7868     		ldr	r0, [r7, #4]
 1887 001e FFF7FEFF 		bl	lv_obj_set_pos
 749:..\..\..\lvgl\version_6.1.2\lvgl\src\lv_core/lv_obj.c **** }
 1888              		.loc 2 749 0
 1889 0022 00BF     		nop
 1890 0024 0837     		adds	r7, r7, #8
 1891              		.cfi_def_cfa_offset 8
 1892 0026 BD46     		mov	sp, r7
 1893              		.cfi_def_cfa_register 13
 1894              		@ sp needed
 1895 0028 80BD     		pop	{r7, pc}
 1896              		.cfi_endproc
 1897              	.LFE47:
 1898              		.size	lv_obj_set_x, .-lv_obj_set_x
 1899 002a 00BF     		.section	.text.lv_obj_set_y,"ax",%progbits
 1900              		.align	2
 1901              		.global	lv_obj_set_y
 1902              		.thumb
 1903              		.thumb_func
 1904              		.type	lv_obj_set_y, %function
 1905              	lv_obj_set_y:
 1906              	.LFB48:
 750:..\..\..\lvgl\version_6.1.2\lvgl\src\lv_core/lv_obj.c **** 
 751:..\..\..\lvgl\version_6.1.2\lvgl\src\lv_core/lv_obj.c **** /**
 752:..\..\..\lvgl\version_6.1.2\lvgl\src\lv_core/lv_obj.c ****  * Set the y coordinate of a object
 753:..\..\..\lvgl\version_6.1.2\lvgl\src\lv_core/lv_obj.c ****  * @param obj pointer to an object
 754:..\..\..\lvgl\version_6.1.2\lvgl\src\lv_core/lv_obj.c ****  * @param y new distance from the top of the parent
 755:..\..\..\lvgl\version_6.1.2\lvgl\src\lv_core/lv_obj.c ****  */
 756:..\..\..\lvgl\version_6.1.2\lvgl\src\lv_core/lv_obj.c **** void lv_obj_set_y(lv_obj_t * obj, lv_coord_t y)
 757:..\..\..\lvgl\version_6.1.2\lvgl\src\lv_core/lv_obj.c **** {
 1907              		.loc 2 757 0
 1908              		.cfi_startproc
 1909              		@ args = 0, pretend = 0, frame = 8
 1910              		@ frame_needed = 1, uses_anonymous_args = 0
 1911 0000 80B5     		push	{r7, lr}
 1912              		.cfi_def_cfa_offset 8
 1913              		.cfi_offset 7, -8
 1914              		.cfi_offset 14, -4
 1915 0002 82B0     		sub	sp, sp, #8
 1916              		.cfi_def_cfa_offset 16
 1917 0004 00AF     		add	r7, sp, #0
 1918              		.cfi_def_cfa_register 7
 1919 0006 7860     		str	r0, [r7, #4]
 1920 0008 0B46     		mov	r3, r1
 1921 000a 7B80     		strh	r3, [r7, #2]	@ movhi
 758:..\..\..\lvgl\version_6.1.2\lvgl\src\lv_core/lv_obj.c ****     LV_ASSERT_OBJ(obj, LV_OBJX_NAME);
ARM GAS  C:\Users\tmj32\AppData\Local\Temp\ccxLNxq9.s 			page 50


 759:..\..\..\lvgl\version_6.1.2\lvgl\src\lv_core/lv_obj.c **** 
 760:..\..\..\lvgl\version_6.1.2\lvgl\src\lv_core/lv_obj.c ****     lv_obj_set_pos(obj, lv_obj_get_x(obj), y);
 1922              		.loc 2 760 0
 1923 000c 7868     		ldr	r0, [r7, #4]
 1924 000e FFF7FEFF 		bl	lv_obj_get_x
 1925 0012 0346     		mov	r3, r0
 1926 0014 1946     		mov	r1, r3
 1927 0016 B7F90230 		ldrsh	r3, [r7, #2]
 1928 001a 1A46     		mov	r2, r3
 1929 001c 7868     		ldr	r0, [r7, #4]
 1930 001e FFF7FEFF 		bl	lv_obj_set_pos
 761:..\..\..\lvgl\version_6.1.2\lvgl\src\lv_core/lv_obj.c **** }
 1931              		.loc 2 761 0
 1932 0022 00BF     		nop
 1933 0024 0837     		adds	r7, r7, #8
 1934              		.cfi_def_cfa_offset 8
 1935 0026 BD46     		mov	sp, r7
 1936              		.cfi_def_cfa_register 13
 1937              		@ sp needed
 1938 0028 80BD     		pop	{r7, pc}
 1939              		.cfi_endproc
 1940              	.LFE48:
 1941              		.size	lv_obj_set_y, .-lv_obj_set_y
 1942 002a 00BF     		.section	.text.lv_obj_set_size,"ax",%progbits
 1943              		.align	2
 1944              		.global	lv_obj_set_size
 1945              		.thumb
 1946              		.thumb_func
 1947              		.type	lv_obj_set_size, %function
 1948              	lv_obj_set_size:
 1949              	.LFB49:
 762:..\..\..\lvgl\version_6.1.2\lvgl\src\lv_core/lv_obj.c **** 
 763:..\..\..\lvgl\version_6.1.2\lvgl\src\lv_core/lv_obj.c **** /**
 764:..\..\..\lvgl\version_6.1.2\lvgl\src\lv_core/lv_obj.c ****  * Set the size of an object
 765:..\..\..\lvgl\version_6.1.2\lvgl\src\lv_core/lv_obj.c ****  * @param obj pointer to an object
 766:..\..\..\lvgl\version_6.1.2\lvgl\src\lv_core/lv_obj.c ****  * @param w new width
 767:..\..\..\lvgl\version_6.1.2\lvgl\src\lv_core/lv_obj.c ****  * @param h new height
 768:..\..\..\lvgl\version_6.1.2\lvgl\src\lv_core/lv_obj.c ****  */
 769:..\..\..\lvgl\version_6.1.2\lvgl\src\lv_core/lv_obj.c **** void lv_obj_set_size(lv_obj_t * obj, lv_coord_t w, lv_coord_t h)
 770:..\..\..\lvgl\version_6.1.2\lvgl\src\lv_core/lv_obj.c **** {
 1950              		.loc 2 770 0
 1951              		.cfi_startproc
 1952              		@ args = 0, pretend = 0, frame = 24
 1953              		@ frame_needed = 1, uses_anonymous_args = 0
 1954 0000 80B5     		push	{r7, lr}
 1955              		.cfi_def_cfa_offset 8
 1956              		.cfi_offset 7, -8
 1957              		.cfi_offset 14, -4
 1958 0002 86B0     		sub	sp, sp, #24
 1959              		.cfi_def_cfa_offset 32
 1960 0004 00AF     		add	r7, sp, #0
 1961              		.cfi_def_cfa_register 7
 1962 0006 7860     		str	r0, [r7, #4]
 1963 0008 0B46     		mov	r3, r1
 1964 000a 7B80     		strh	r3, [r7, #2]	@ movhi
 1965 000c 1346     		mov	r3, r2	@ movhi
 1966 000e 3B80     		strh	r3, [r7]	@ movhi
ARM GAS  C:\Users\tmj32\AppData\Local\Temp\ccxLNxq9.s 			page 51


 771:..\..\..\lvgl\version_6.1.2\lvgl\src\lv_core/lv_obj.c ****     LV_ASSERT_OBJ(obj, LV_OBJX_NAME);
 772:..\..\..\lvgl\version_6.1.2\lvgl\src\lv_core/lv_obj.c **** 
 773:..\..\..\lvgl\version_6.1.2\lvgl\src\lv_core/lv_obj.c **** 
 774:..\..\..\lvgl\version_6.1.2\lvgl\src\lv_core/lv_obj.c ****     /* Do nothing if the size is not changed */
 775:..\..\..\lvgl\version_6.1.2\lvgl\src\lv_core/lv_obj.c ****     /* It is very important else recursive resizing can
 776:..\..\..\lvgl\version_6.1.2\lvgl\src\lv_core/lv_obj.c ****      * occur without size change*/
 777:..\..\..\lvgl\version_6.1.2\lvgl\src\lv_core/lv_obj.c ****     if(lv_obj_get_width(obj) == w && lv_obj_get_height(obj) == h) {
 1967              		.loc 2 777 0
 1968 0010 7868     		ldr	r0, [r7, #4]
 1969 0012 FFF7FEFF 		bl	lv_obj_get_width
 1970 0016 0346     		mov	r3, r0
 1971 0018 1A46     		mov	r2, r3
 1972 001a B7F90230 		ldrsh	r3, [r7, #2]
 1973 001e 9342     		cmp	r3, r2
 1974 0020 08D1     		bne	.L93
 1975              		.loc 2 777 0 is_stmt 0 discriminator 1
 1976 0022 7868     		ldr	r0, [r7, #4]
 1977 0024 FFF7FEFF 		bl	lv_obj_get_height
 1978 0028 0346     		mov	r3, r0
 1979 002a 1A46     		mov	r2, r3
 1980 002c B7F90030 		ldrsh	r3, [r7]
 1981 0030 9342     		cmp	r3, r2
 1982 0032 6DD0     		beq	.L101
 1983              	.L93:
 778:..\..\..\lvgl\version_6.1.2\lvgl\src\lv_core/lv_obj.c ****         return;
 779:..\..\..\lvgl\version_6.1.2\lvgl\src\lv_core/lv_obj.c ****     }
 780:..\..\..\lvgl\version_6.1.2\lvgl\src\lv_core/lv_obj.c **** 
 781:..\..\..\lvgl\version_6.1.2\lvgl\src\lv_core/lv_obj.c ****     /*Invalidate the original area*/
 782:..\..\..\lvgl\version_6.1.2\lvgl\src\lv_core/lv_obj.c ****     lv_obj_invalidate(obj);
 1984              		.loc 2 782 0 is_stmt 1
 1985 0034 7868     		ldr	r0, [r7, #4]
 1986 0036 FFF7FEFF 		bl	lv_obj_invalidate
 783:..\..\..\lvgl\version_6.1.2\lvgl\src\lv_core/lv_obj.c **** 
 784:..\..\..\lvgl\version_6.1.2\lvgl\src\lv_core/lv_obj.c ****     /*Save the original coordinates*/
 785:..\..\..\lvgl\version_6.1.2\lvgl\src\lv_core/lv_obj.c ****     lv_area_t ori;
 786:..\..\..\lvgl\version_6.1.2\lvgl\src\lv_core/lv_obj.c ****     lv_obj_get_coords(obj, &ori);
 1987              		.loc 2 786 0
 1988 003a 07F10803 		add	r3, r7, #8
 1989 003e 1946     		mov	r1, r3
 1990 0040 7868     		ldr	r0, [r7, #4]
 1991 0042 FFF7FEFF 		bl	lv_obj_get_coords
 787:..\..\..\lvgl\version_6.1.2\lvgl\src\lv_core/lv_obj.c **** 
 788:..\..\..\lvgl\version_6.1.2\lvgl\src\lv_core/lv_obj.c ****     /*Set the length and height*/
 789:..\..\..\lvgl\version_6.1.2\lvgl\src\lv_core/lv_obj.c ****     obj->coords.y2 = obj->coords.y1 + h - 1;
 1992              		.loc 2 789 0
 1993 0046 7B68     		ldr	r3, [r7, #4]
 1994 0048 B3F91230 		ldrsh	r3, [r3, #18]
 1995 004c 9AB2     		uxth	r2, r3
 1996 004e 3B88     		ldrh	r3, [r7]
 1997 0050 1344     		add	r3, r3, r2
 1998 0052 9BB2     		uxth	r3, r3
 1999 0054 013B     		subs	r3, r3, #1
 2000 0056 9BB2     		uxth	r3, r3
 2001 0058 1AB2     		sxth	r2, r3
 2002 005a 7B68     		ldr	r3, [r7, #4]
 2003 005c DA82     		strh	r2, [r3, #22]	@ movhi
 790:..\..\..\lvgl\version_6.1.2\lvgl\src\lv_core/lv_obj.c ****     if(lv_obj_get_base_dir(obj) == LV_BIDI_DIR_RTL) {
ARM GAS  C:\Users\tmj32\AppData\Local\Temp\ccxLNxq9.s 			page 52


 2004              		.loc 2 790 0
 2005 005e 7868     		ldr	r0, [r7, #4]
 2006 0060 FFF7FEFF 		bl	lv_obj_get_base_dir
 2007 0064 0346     		mov	r3, r0
 2008 0066 012B     		cmp	r3, #1
 2009 0068 0CD1     		bne	.L95
 791:..\..\..\lvgl\version_6.1.2\lvgl\src\lv_core/lv_obj.c ****         obj->coords.x1 = obj->coords.x2 - w + 1;
 2010              		.loc 2 791 0
 2011 006a 7B68     		ldr	r3, [r7, #4]
 2012 006c B3F91430 		ldrsh	r3, [r3, #20]
 2013 0070 9AB2     		uxth	r2, r3
 2014 0072 7B88     		ldrh	r3, [r7, #2]
 2015 0074 D31A     		subs	r3, r2, r3
 2016 0076 9BB2     		uxth	r3, r3
 2017 0078 0133     		adds	r3, r3, #1
 2018 007a 9BB2     		uxth	r3, r3
 2019 007c 1AB2     		sxth	r2, r3
 2020 007e 7B68     		ldr	r3, [r7, #4]
 2021 0080 1A82     		strh	r2, [r3, #16]	@ movhi
 2022 0082 0BE0     		b	.L96
 2023              	.L95:
 792:..\..\..\lvgl\version_6.1.2\lvgl\src\lv_core/lv_obj.c ****     } else {
 793:..\..\..\lvgl\version_6.1.2\lvgl\src\lv_core/lv_obj.c ****         obj->coords.x2 = obj->coords.x1 + w - 1;
 2024              		.loc 2 793 0
 2025 0084 7B68     		ldr	r3, [r7, #4]
 2026 0086 B3F91030 		ldrsh	r3, [r3, #16]
 2027 008a 9AB2     		uxth	r2, r3
 2028 008c 7B88     		ldrh	r3, [r7, #2]
 2029 008e 1344     		add	r3, r3, r2
 2030 0090 9BB2     		uxth	r3, r3
 2031 0092 013B     		subs	r3, r3, #1
 2032 0094 9BB2     		uxth	r3, r3
 2033 0096 1AB2     		sxth	r2, r3
 2034 0098 7B68     		ldr	r3, [r7, #4]
 2035 009a 9A82     		strh	r2, [r3, #20]	@ movhi
 2036              	.L96:
 794:..\..\..\lvgl\version_6.1.2\lvgl\src\lv_core/lv_obj.c ****     }
 795:..\..\..\lvgl\version_6.1.2\lvgl\src\lv_core/lv_obj.c **** 
 796:..\..\..\lvgl\version_6.1.2\lvgl\src\lv_core/lv_obj.c ****     /*Send a signal to the object with its new coordinates*/
 797:..\..\..\lvgl\version_6.1.2\lvgl\src\lv_core/lv_obj.c ****     obj->signal_cb(obj, LV_SIGNAL_CORD_CHG, &ori);
 2037              		.loc 2 797 0
 2038 009c 7B68     		ldr	r3, [r7, #4]
 2039 009e DB69     		ldr	r3, [r3, #28]
 2040 00a0 07F10802 		add	r2, r7, #8
 2041 00a4 0221     		movs	r1, #2
 2042 00a6 7868     		ldr	r0, [r7, #4]
 2043 00a8 9847     		blx	r3
 798:..\..\..\lvgl\version_6.1.2\lvgl\src\lv_core/lv_obj.c **** 
 799:..\..\..\lvgl\version_6.1.2\lvgl\src\lv_core/lv_obj.c ****     /*Send a signal to the parent too*/
 800:..\..\..\lvgl\version_6.1.2\lvgl\src\lv_core/lv_obj.c ****     lv_obj_t * par = lv_obj_get_parent(obj);
 2044              		.loc 2 800 0
 2045 00aa 7868     		ldr	r0, [r7, #4]
 2046 00ac FFF7FEFF 		bl	lv_obj_get_parent
 2047 00b0 3861     		str	r0, [r7, #16]
 801:..\..\..\lvgl\version_6.1.2\lvgl\src\lv_core/lv_obj.c ****     if(par != NULL) par->signal_cb(par, LV_SIGNAL_CHILD_CHG, obj);
 2048              		.loc 2 801 0
 2049 00b2 3B69     		ldr	r3, [r7, #16]
ARM GAS  C:\Users\tmj32\AppData\Local\Temp\ccxLNxq9.s 			page 53


 2050 00b4 002B     		cmp	r3, #0
 2051 00b6 05D0     		beq	.L97
 2052              		.loc 2 801 0 is_stmt 0 discriminator 1
 2053 00b8 3B69     		ldr	r3, [r7, #16]
 2054 00ba DB69     		ldr	r3, [r3, #28]
 2055 00bc 7A68     		ldr	r2, [r7, #4]
 2056 00be 0121     		movs	r1, #1
 2057 00c0 3869     		ldr	r0, [r7, #16]
 2058 00c2 9847     		blx	r3
 2059              	.L97:
 802:..\..\..\lvgl\version_6.1.2\lvgl\src\lv_core/lv_obj.c **** 
 803:..\..\..\lvgl\version_6.1.2\lvgl\src\lv_core/lv_obj.c ****     /*Tell the children the parent's size has changed*/
 804:..\..\..\lvgl\version_6.1.2\lvgl\src\lv_core/lv_obj.c ****     lv_obj_t * i;
 805:..\..\..\lvgl\version_6.1.2\lvgl\src\lv_core/lv_obj.c ****     LV_LL_READ(obj->child_ll, i)
 2060              		.loc 2 805 0 is_stmt 1
 2061 00c4 7B68     		ldr	r3, [r7, #4]
 2062 00c6 0433     		adds	r3, r3, #4
 2063 00c8 1846     		mov	r0, r3
 2064 00ca FFF7FEFF 		bl	lv_ll_get_head
 2065 00ce 7861     		str	r0, [r7, #20]
 2066 00d0 0CE0     		b	.L98
 2067              	.L99:
 806:..\..\..\lvgl\version_6.1.2\lvgl\src\lv_core/lv_obj.c ****     {
 807:..\..\..\lvgl\version_6.1.2\lvgl\src\lv_core/lv_obj.c ****         i->signal_cb(i, LV_SIGNAL_PARENT_SIZE_CHG, NULL);
 2068              		.loc 2 807 0 discriminator 3
 2069 00d2 7B69     		ldr	r3, [r7, #20]
 2070 00d4 DB69     		ldr	r3, [r3, #28]
 2071 00d6 0022     		movs	r2, #0
 2072 00d8 0321     		movs	r1, #3
 2073 00da 7869     		ldr	r0, [r7, #20]
 2074 00dc 9847     		blx	r3
 805:..\..\..\lvgl\version_6.1.2\lvgl\src\lv_core/lv_obj.c ****     {
 2075              		.loc 2 805 0 discriminator 3
 2076 00de 7B68     		ldr	r3, [r7, #4]
 2077 00e0 0433     		adds	r3, r3, #4
 2078 00e2 7969     		ldr	r1, [r7, #20]
 2079 00e4 1846     		mov	r0, r3
 2080 00e6 FFF7FEFF 		bl	lv_ll_get_next
 2081 00ea 7861     		str	r0, [r7, #20]
 2082              	.L98:
 805:..\..\..\lvgl\version_6.1.2\lvgl\src\lv_core/lv_obj.c ****     {
 2083              		.loc 2 805 0 is_stmt 0 discriminator 1
 2084 00ec 7B69     		ldr	r3, [r7, #20]
 2085 00ee 002B     		cmp	r3, #0
 2086 00f0 EFD1     		bne	.L99
 808:..\..\..\lvgl\version_6.1.2\lvgl\src\lv_core/lv_obj.c ****     }
 809:..\..\..\lvgl\version_6.1.2\lvgl\src\lv_core/lv_obj.c **** 
 810:..\..\..\lvgl\version_6.1.2\lvgl\src\lv_core/lv_obj.c ****     /*Invalidate the new area*/
 811:..\..\..\lvgl\version_6.1.2\lvgl\src\lv_core/lv_obj.c ****     lv_obj_invalidate(obj);
 2087              		.loc 2 811 0 is_stmt 1
 2088 00f2 7868     		ldr	r0, [r7, #4]
 2089 00f4 FFF7FEFF 		bl	lv_obj_invalidate
 812:..\..\..\lvgl\version_6.1.2\lvgl\src\lv_core/lv_obj.c **** 
 813:..\..\..\lvgl\version_6.1.2\lvgl\src\lv_core/lv_obj.c ****     /*Automatically realign the object if required*/
 814:..\..\..\lvgl\version_6.1.2\lvgl\src\lv_core/lv_obj.c **** #if LV_USE_OBJ_REALIGN
 815:..\..\..\lvgl\version_6.1.2\lvgl\src\lv_core/lv_obj.c ****     if(obj->realign.auto_realign) lv_obj_realign(obj);
 2090              		.loc 2 815 0
ARM GAS  C:\Users\tmj32\AppData\Local\Temp\ccxLNxq9.s 			page 54


 2091 00f8 7B68     		ldr	r3, [r7, #4]
 2092 00fa 93F83D30 		ldrb	r3, [r3, #61]	@ zero_extendqisi2
 2093 00fe 03F00103 		and	r3, r3, #1
 2094 0102 DBB2     		uxtb	r3, r3
 2095 0104 002B     		cmp	r3, #0
 2096 0106 04D0     		beq	.L92
 2097              		.loc 2 815 0 is_stmt 0 discriminator 1
 2098 0108 7868     		ldr	r0, [r7, #4]
 2099 010a FFF7FEFF 		bl	lv_obj_realign
 2100 010e 00E0     		b	.L92
 2101              	.L101:
 778:..\..\..\lvgl\version_6.1.2\lvgl\src\lv_core/lv_obj.c ****     }
 2102              		.loc 2 778 0 is_stmt 1
 2103 0110 00BF     		nop
 2104              	.L92:
 816:..\..\..\lvgl\version_6.1.2\lvgl\src\lv_core/lv_obj.c **** #endif
 817:..\..\..\lvgl\version_6.1.2\lvgl\src\lv_core/lv_obj.c **** }
 2105              		.loc 2 817 0
 2106 0112 1837     		adds	r7, r7, #24
 2107              		.cfi_def_cfa_offset 8
 2108 0114 BD46     		mov	sp, r7
 2109              		.cfi_def_cfa_register 13
 2110              		@ sp needed
 2111 0116 80BD     		pop	{r7, pc}
 2112              		.cfi_endproc
 2113              	.LFE49:
 2114              		.size	lv_obj_set_size, .-lv_obj_set_size
 2115              		.section	.text.lv_obj_set_width,"ax",%progbits
 2116              		.align	2
 2117              		.global	lv_obj_set_width
 2118              		.thumb
 2119              		.thumb_func
 2120              		.type	lv_obj_set_width, %function
 2121              	lv_obj_set_width:
 2122              	.LFB50:
 818:..\..\..\lvgl\version_6.1.2\lvgl\src\lv_core/lv_obj.c **** 
 819:..\..\..\lvgl\version_6.1.2\lvgl\src\lv_core/lv_obj.c **** /**
 820:..\..\..\lvgl\version_6.1.2\lvgl\src\lv_core/lv_obj.c ****  * Set the width of an object
 821:..\..\..\lvgl\version_6.1.2\lvgl\src\lv_core/lv_obj.c ****  * @param obj pointer to an object
 822:..\..\..\lvgl\version_6.1.2\lvgl\src\lv_core/lv_obj.c ****  * @param w new width
 823:..\..\..\lvgl\version_6.1.2\lvgl\src\lv_core/lv_obj.c ****  */
 824:..\..\..\lvgl\version_6.1.2\lvgl\src\lv_core/lv_obj.c **** void lv_obj_set_width(lv_obj_t * obj, lv_coord_t w)
 825:..\..\..\lvgl\version_6.1.2\lvgl\src\lv_core/lv_obj.c **** {
 2123              		.loc 2 825 0
 2124              		.cfi_startproc
 2125              		@ args = 0, pretend = 0, frame = 8
 2126              		@ frame_needed = 1, uses_anonymous_args = 0
 2127 0000 80B5     		push	{r7, lr}
 2128              		.cfi_def_cfa_offset 8
 2129              		.cfi_offset 7, -8
 2130              		.cfi_offset 14, -4
 2131 0002 82B0     		sub	sp, sp, #8
 2132              		.cfi_def_cfa_offset 16
 2133 0004 00AF     		add	r7, sp, #0
 2134              		.cfi_def_cfa_register 7
 2135 0006 7860     		str	r0, [r7, #4]
 2136 0008 0B46     		mov	r3, r1
ARM GAS  C:\Users\tmj32\AppData\Local\Temp\ccxLNxq9.s 			page 55


 2137 000a 7B80     		strh	r3, [r7, #2]	@ movhi
 826:..\..\..\lvgl\version_6.1.2\lvgl\src\lv_core/lv_obj.c ****     LV_ASSERT_OBJ(obj, LV_OBJX_NAME);
 827:..\..\..\lvgl\version_6.1.2\lvgl\src\lv_core/lv_obj.c **** 
 828:..\..\..\lvgl\version_6.1.2\lvgl\src\lv_core/lv_obj.c ****     lv_obj_set_size(obj, w, lv_obj_get_height(obj));
 2138              		.loc 2 828 0
 2139 000c 7868     		ldr	r0, [r7, #4]
 2140 000e FFF7FEFF 		bl	lv_obj_get_height
 2141 0012 0346     		mov	r3, r0
 2142 0014 1A46     		mov	r2, r3
 2143 0016 B7F90230 		ldrsh	r3, [r7, #2]
 2144 001a 1946     		mov	r1, r3
 2145 001c 7868     		ldr	r0, [r7, #4]
 2146 001e FFF7FEFF 		bl	lv_obj_set_size
 829:..\..\..\lvgl\version_6.1.2\lvgl\src\lv_core/lv_obj.c **** }
 2147              		.loc 2 829 0
 2148 0022 00BF     		nop
 2149 0024 0837     		adds	r7, r7, #8
 2150              		.cfi_def_cfa_offset 8
 2151 0026 BD46     		mov	sp, r7
 2152              		.cfi_def_cfa_register 13
 2153              		@ sp needed
 2154 0028 80BD     		pop	{r7, pc}
 2155              		.cfi_endproc
 2156              	.LFE50:
 2157              		.size	lv_obj_set_width, .-lv_obj_set_width
 2158 002a 00BF     		.section	.text.lv_obj_set_height,"ax",%progbits
 2159              		.align	2
 2160              		.global	lv_obj_set_height
 2161              		.thumb
 2162              		.thumb_func
 2163              		.type	lv_obj_set_height, %function
 2164              	lv_obj_set_height:
 2165              	.LFB51:
 830:..\..\..\lvgl\version_6.1.2\lvgl\src\lv_core/lv_obj.c **** 
 831:..\..\..\lvgl\version_6.1.2\lvgl\src\lv_core/lv_obj.c **** /**
 832:..\..\..\lvgl\version_6.1.2\lvgl\src\lv_core/lv_obj.c ****  * Set the height of an object
 833:..\..\..\lvgl\version_6.1.2\lvgl\src\lv_core/lv_obj.c ****  * @param obj pointer to an object
 834:..\..\..\lvgl\version_6.1.2\lvgl\src\lv_core/lv_obj.c ****  * @param h new height
 835:..\..\..\lvgl\version_6.1.2\lvgl\src\lv_core/lv_obj.c ****  */
 836:..\..\..\lvgl\version_6.1.2\lvgl\src\lv_core/lv_obj.c **** void lv_obj_set_height(lv_obj_t * obj, lv_coord_t h)
 837:..\..\..\lvgl\version_6.1.2\lvgl\src\lv_core/lv_obj.c **** {
 2166              		.loc 2 837 0
 2167              		.cfi_startproc
 2168              		@ args = 0, pretend = 0, frame = 8
 2169              		@ frame_needed = 1, uses_anonymous_args = 0
 2170 0000 80B5     		push	{r7, lr}
 2171              		.cfi_def_cfa_offset 8
 2172              		.cfi_offset 7, -8
 2173              		.cfi_offset 14, -4
 2174 0002 82B0     		sub	sp, sp, #8
 2175              		.cfi_def_cfa_offset 16
 2176 0004 00AF     		add	r7, sp, #0
 2177              		.cfi_def_cfa_register 7
 2178 0006 7860     		str	r0, [r7, #4]
 2179 0008 0B46     		mov	r3, r1
 2180 000a 7B80     		strh	r3, [r7, #2]	@ movhi
 838:..\..\..\lvgl\version_6.1.2\lvgl\src\lv_core/lv_obj.c ****     LV_ASSERT_OBJ(obj, LV_OBJX_NAME);
ARM GAS  C:\Users\tmj32\AppData\Local\Temp\ccxLNxq9.s 			page 56


 839:..\..\..\lvgl\version_6.1.2\lvgl\src\lv_core/lv_obj.c **** 
 840:..\..\..\lvgl\version_6.1.2\lvgl\src\lv_core/lv_obj.c ****     lv_obj_set_size(obj, lv_obj_get_width(obj), h);
 2181              		.loc 2 840 0
 2182 000c 7868     		ldr	r0, [r7, #4]
 2183 000e FFF7FEFF 		bl	lv_obj_get_width
 2184 0012 0346     		mov	r3, r0
 2185 0014 1946     		mov	r1, r3
 2186 0016 B7F90230 		ldrsh	r3, [r7, #2]
 2187 001a 1A46     		mov	r2, r3
 2188 001c 7868     		ldr	r0, [r7, #4]
 2189 001e FFF7FEFF 		bl	lv_obj_set_size
 841:..\..\..\lvgl\version_6.1.2\lvgl\src\lv_core/lv_obj.c **** }
 2190              		.loc 2 841 0
 2191 0022 00BF     		nop
 2192 0024 0837     		adds	r7, r7, #8
 2193              		.cfi_def_cfa_offset 8
 2194 0026 BD46     		mov	sp, r7
 2195              		.cfi_def_cfa_register 13
 2196              		@ sp needed
 2197 0028 80BD     		pop	{r7, pc}
 2198              		.cfi_endproc
 2199              	.LFE51:
 2200              		.size	lv_obj_set_height, .-lv_obj_set_height
 2201 002a 00BF     		.section	.text.lv_obj_align,"ax",%progbits
 2202              		.align	2
 2203              		.global	lv_obj_align
 2204              		.thumb
 2205              		.thumb_func
 2206              		.type	lv_obj_align, %function
 2207              	lv_obj_align:
 2208              	.LFB52:
 842:..\..\..\lvgl\version_6.1.2\lvgl\src\lv_core/lv_obj.c **** 
 843:..\..\..\lvgl\version_6.1.2\lvgl\src\lv_core/lv_obj.c **** /**
 844:..\..\..\lvgl\version_6.1.2\lvgl\src\lv_core/lv_obj.c ****  * Align an object to an other object.
 845:..\..\..\lvgl\version_6.1.2\lvgl\src\lv_core/lv_obj.c ****  * @param obj pointer to an object to align
 846:..\..\..\lvgl\version_6.1.2\lvgl\src\lv_core/lv_obj.c ****  * @param base pointer to an object (if NULL the parent is used). 'obj' will be aligned to it.
 847:..\..\..\lvgl\version_6.1.2\lvgl\src\lv_core/lv_obj.c ****  * @param align type of alignment (see 'lv_align_t' enum)
 848:..\..\..\lvgl\version_6.1.2\lvgl\src\lv_core/lv_obj.c ****  * @param x_mod x coordinate shift after alignment
 849:..\..\..\lvgl\version_6.1.2\lvgl\src\lv_core/lv_obj.c ****  * @param y_mod y coordinate shift after alignment
 850:..\..\..\lvgl\version_6.1.2\lvgl\src\lv_core/lv_obj.c ****  */
 851:..\..\..\lvgl\version_6.1.2\lvgl\src\lv_core/lv_obj.c **** void lv_obj_align(lv_obj_t * obj, const lv_obj_t * base, lv_align_t align, lv_coord_t x_mod, lv_coo
 852:..\..\..\lvgl\version_6.1.2\lvgl\src\lv_core/lv_obj.c **** {
 2209              		.loc 2 852 0
 2210              		.cfi_startproc
 2211              		@ args = 4, pretend = 0, frame = 32
 2212              		@ frame_needed = 1, uses_anonymous_args = 0
 2213 0000 90B5     		push	{r4, r7, lr}
 2214              		.cfi_def_cfa_offset 12
 2215              		.cfi_offset 4, -12
 2216              		.cfi_offset 7, -8
 2217              		.cfi_offset 14, -4
 2218 0002 89B0     		sub	sp, sp, #36
 2219              		.cfi_def_cfa_offset 48
 2220 0004 00AF     		add	r7, sp, #0
 2221              		.cfi_def_cfa_register 7
 2222 0006 F860     		str	r0, [r7, #12]
 2223 0008 B960     		str	r1, [r7, #8]
ARM GAS  C:\Users\tmj32\AppData\Local\Temp\ccxLNxq9.s 			page 57


 2224 000a 1146     		mov	r1, r2
 2225 000c 1A46     		mov	r2, r3
 2226 000e 0B46     		mov	r3, r1
 2227 0010 FB71     		strb	r3, [r7, #7]
 2228 0012 1346     		mov	r3, r2	@ movhi
 2229 0014 BB80     		strh	r3, [r7, #4]	@ movhi
 853:..\..\..\lvgl\version_6.1.2\lvgl\src\lv_core/lv_obj.c ****     LV_ASSERT_OBJ(obj, LV_OBJX_NAME);
 854:..\..\..\lvgl\version_6.1.2\lvgl\src\lv_core/lv_obj.c **** 
 855:..\..\..\lvgl\version_6.1.2\lvgl\src\lv_core/lv_obj.c ****     lv_coord_t new_x = lv_obj_get_x(obj);
 2230              		.loc 2 855 0
 2231 0016 F868     		ldr	r0, [r7, #12]
 2232 0018 FFF7FEFF 		bl	lv_obj_get_x
 2233 001c 0346     		mov	r3, r0
 2234 001e FB83     		strh	r3, [r7, #30]	@ movhi
 856:..\..\..\lvgl\version_6.1.2\lvgl\src\lv_core/lv_obj.c ****     lv_coord_t new_y = lv_obj_get_y(obj);
 2235              		.loc 2 856 0
 2236 0020 F868     		ldr	r0, [r7, #12]
 2237 0022 FFF7FEFF 		bl	lv_obj_get_y
 2238 0026 0346     		mov	r3, r0
 2239 0028 BB83     		strh	r3, [r7, #28]	@ movhi
 857:..\..\..\lvgl\version_6.1.2\lvgl\src\lv_core/lv_obj.c **** 
 858:..\..\..\lvgl\version_6.1.2\lvgl\src\lv_core/lv_obj.c ****     if(base == NULL) {
 2240              		.loc 2 858 0
 2241 002a BB68     		ldr	r3, [r7, #8]
 2242 002c 002B     		cmp	r3, #0
 2243 002e 03D1     		bne	.L105
 859:..\..\..\lvgl\version_6.1.2\lvgl\src\lv_core/lv_obj.c ****         base = lv_obj_get_parent(obj);
 2244              		.loc 2 859 0
 2245 0030 F868     		ldr	r0, [r7, #12]
 2246 0032 FFF7FEFF 		bl	lv_obj_get_parent
 2247 0036 B860     		str	r0, [r7, #8]
 2248              	.L105:
 860:..\..\..\lvgl\version_6.1.2\lvgl\src\lv_core/lv_obj.c ****     }
 861:..\..\..\lvgl\version_6.1.2\lvgl\src\lv_core/lv_obj.c **** 
 862:..\..\..\lvgl\version_6.1.2\lvgl\src\lv_core/lv_obj.c ****     LV_ASSERT_OBJ(base, LV_OBJX_NAME);
 863:..\..\..\lvgl\version_6.1.2\lvgl\src\lv_core/lv_obj.c **** 
 864:..\..\..\lvgl\version_6.1.2\lvgl\src\lv_core/lv_obj.c **** 
 865:..\..\..\lvgl\version_6.1.2\lvgl\src\lv_core/lv_obj.c ****     switch(align) {
 2249              		.loc 2 865 0
 2250 0038 FB79     		ldrb	r3, [r7, #7]	@ zero_extendqisi2
 2251 003a 142B     		cmp	r3, #20
 2252 003c 00F2F981 		bhi	.L106
 2253 0040 01A2     		adr	r2, .L108
 2254 0042 52F823F0 		ldr	pc, [r2, r3, lsl #2]
 2255 0046 00BF     		.p2align 2
 2256              	.L108:
 2257 0048 9D000000 		.word	.L107+1
 2258 004c F3000000 		.word	.L109+1
 2259 0050 FD000000 		.word	.L110+1
 2260 0054 2D010000 		.word	.L111+1
 2261 0058 4D010000 		.word	.L112+1
 2262 005c 6D010000 		.word	.L113+1
 2263 0060 B3010000 		.word	.L114+1
 2264 0064 E9010000 		.word	.L115+1
 2265 0068 19020000 		.word	.L116+1
 2266 006c 5F020000 		.word	.L117+1
 2267 0070 75020000 		.word	.L118+1
ARM GAS  C:\Users\tmj32\AppData\Local\Temp\ccxLNxq9.s 			page 58


 2268 0074 B1020000 		.word	.L119+1
 2269 0078 DD020000 		.word	.L120+1
 2270 007c ED020000 		.word	.L121+1
 2271 0080 23030000 		.word	.L122+1
 2272 0084 49030000 		.word	.L123+1
 2273 0088 5F030000 		.word	.L124+1
 2274 008c 9B030000 		.word	.L125+1
 2275 0090 C7030000 		.word	.L126+1
 2276 0094 D7030000 		.word	.L127+1
 2277 0098 0D040000 		.word	.L128+1
 2278              		.p2align 1
 2279              	.L107:
 866:..\..\..\lvgl\version_6.1.2\lvgl\src\lv_core/lv_obj.c ****         case LV_ALIGN_CENTER:
 867:..\..\..\lvgl\version_6.1.2\lvgl\src\lv_core/lv_obj.c ****             new_x = lv_obj_get_width(base) / 2 - lv_obj_get_width(obj) / 2;
 2280              		.loc 2 867 0
 2281 009c B868     		ldr	r0, [r7, #8]
 2282 009e FFF7FEFF 		bl	lv_obj_get_width
 2283 00a2 0346     		mov	r3, r0
 2284 00a4 DA0F     		lsrs	r2, r3, #31
 2285 00a6 1344     		add	r3, r3, r2
 2286 00a8 5B10     		asrs	r3, r3, #1
 2287 00aa 1BB2     		sxth	r3, r3
 2288 00ac 9CB2     		uxth	r4, r3
 2289 00ae F868     		ldr	r0, [r7, #12]
 2290 00b0 FFF7FEFF 		bl	lv_obj_get_width
 2291 00b4 0346     		mov	r3, r0
 2292 00b6 DA0F     		lsrs	r2, r3, #31
 2293 00b8 1344     		add	r3, r3, r2
 2294 00ba 5B10     		asrs	r3, r3, #1
 2295 00bc 1BB2     		sxth	r3, r3
 2296 00be 9BB2     		uxth	r3, r3
 2297 00c0 E31A     		subs	r3, r4, r3
 2298 00c2 9BB2     		uxth	r3, r3
 2299 00c4 FB83     		strh	r3, [r7, #30]	@ movhi
 868:..\..\..\lvgl\version_6.1.2\lvgl\src\lv_core/lv_obj.c ****             new_y = lv_obj_get_height(base) / 2 - lv_obj_get_height(obj) / 2;
 2300              		.loc 2 868 0
 2301 00c6 B868     		ldr	r0, [r7, #8]
 2302 00c8 FFF7FEFF 		bl	lv_obj_get_height
 2303 00cc 0346     		mov	r3, r0
 2304 00ce DA0F     		lsrs	r2, r3, #31
 2305 00d0 1344     		add	r3, r3, r2
 2306 00d2 5B10     		asrs	r3, r3, #1
 2307 00d4 1BB2     		sxth	r3, r3
 2308 00d6 9CB2     		uxth	r4, r3
 2309 00d8 F868     		ldr	r0, [r7, #12]
 2310 00da FFF7FEFF 		bl	lv_obj_get_height
 2311 00de 0346     		mov	r3, r0
 2312 00e0 DA0F     		lsrs	r2, r3, #31
 2313 00e2 1344     		add	r3, r3, r2
 2314 00e4 5B10     		asrs	r3, r3, #1
 2315 00e6 1BB2     		sxth	r3, r3
 2316 00e8 9BB2     		uxth	r3, r3
 2317 00ea E31A     		subs	r3, r4, r3
 2318 00ec 9BB2     		uxth	r3, r3
 2319 00ee BB83     		strh	r3, [r7, #28]	@ movhi
 869:..\..\..\lvgl\version_6.1.2\lvgl\src\lv_core/lv_obj.c ****             break;
 2320              		.loc 2 869 0
ARM GAS  C:\Users\tmj32\AppData\Local\Temp\ccxLNxq9.s 			page 59


 2321 00f0 9FE1     		b	.L106
 2322              	.L109:
 870:..\..\..\lvgl\version_6.1.2\lvgl\src\lv_core/lv_obj.c **** 
 871:..\..\..\lvgl\version_6.1.2\lvgl\src\lv_core/lv_obj.c ****         case LV_ALIGN_IN_TOP_LEFT:
 872:..\..\..\lvgl\version_6.1.2\lvgl\src\lv_core/lv_obj.c ****             new_x = 0;
 2323              		.loc 2 872 0
 2324 00f2 0023     		movs	r3, #0
 2325 00f4 FB83     		strh	r3, [r7, #30]	@ movhi
 873:..\..\..\lvgl\version_6.1.2\lvgl\src\lv_core/lv_obj.c ****             new_y = 0;
 2326              		.loc 2 873 0
 2327 00f6 0023     		movs	r3, #0
 2328 00f8 BB83     		strh	r3, [r7, #28]	@ movhi
 874:..\..\..\lvgl\version_6.1.2\lvgl\src\lv_core/lv_obj.c ****             break;
 2329              		.loc 2 874 0
 2330 00fa 9AE1     		b	.L106
 2331              	.L110:
 875:..\..\..\lvgl\version_6.1.2\lvgl\src\lv_core/lv_obj.c ****         case LV_ALIGN_IN_TOP_MID:
 876:..\..\..\lvgl\version_6.1.2\lvgl\src\lv_core/lv_obj.c ****             new_x = lv_obj_get_width(base) / 2 - lv_obj_get_width(obj) / 2;
 2332              		.loc 2 876 0
 2333 00fc B868     		ldr	r0, [r7, #8]
 2334 00fe FFF7FEFF 		bl	lv_obj_get_width
 2335 0102 0346     		mov	r3, r0
 2336 0104 DA0F     		lsrs	r2, r3, #31
 2337 0106 1344     		add	r3, r3, r2
 2338 0108 5B10     		asrs	r3, r3, #1
 2339 010a 1BB2     		sxth	r3, r3
 2340 010c 9CB2     		uxth	r4, r3
 2341 010e F868     		ldr	r0, [r7, #12]
 2342 0110 FFF7FEFF 		bl	lv_obj_get_width
 2343 0114 0346     		mov	r3, r0
 2344 0116 DA0F     		lsrs	r2, r3, #31
 2345 0118 1344     		add	r3, r3, r2
 2346 011a 5B10     		asrs	r3, r3, #1
 2347 011c 1BB2     		sxth	r3, r3
 2348 011e 9BB2     		uxth	r3, r3
 2349 0120 E31A     		subs	r3, r4, r3
 2350 0122 9BB2     		uxth	r3, r3
 2351 0124 FB83     		strh	r3, [r7, #30]	@ movhi
 877:..\..\..\lvgl\version_6.1.2\lvgl\src\lv_core/lv_obj.c ****             new_y = 0;
 2352              		.loc 2 877 0
 2353 0126 0023     		movs	r3, #0
 2354 0128 BB83     		strh	r3, [r7, #28]	@ movhi
 878:..\..\..\lvgl\version_6.1.2\lvgl\src\lv_core/lv_obj.c ****             break;
 2355              		.loc 2 878 0
 2356 012a 82E1     		b	.L106
 2357              	.L111:
 879:..\..\..\lvgl\version_6.1.2\lvgl\src\lv_core/lv_obj.c **** 
 880:..\..\..\lvgl\version_6.1.2\lvgl\src\lv_core/lv_obj.c ****         case LV_ALIGN_IN_TOP_RIGHT:
 881:..\..\..\lvgl\version_6.1.2\lvgl\src\lv_core/lv_obj.c ****             new_x = lv_obj_get_width(base) - lv_obj_get_width(obj);
 2358              		.loc 2 881 0
 2359 012c B868     		ldr	r0, [r7, #8]
 2360 012e FFF7FEFF 		bl	lv_obj_get_width
 2361 0132 0346     		mov	r3, r0
 2362 0134 9CB2     		uxth	r4, r3
 2363 0136 F868     		ldr	r0, [r7, #12]
 2364 0138 FFF7FEFF 		bl	lv_obj_get_width
 2365 013c 0346     		mov	r3, r0
ARM GAS  C:\Users\tmj32\AppData\Local\Temp\ccxLNxq9.s 			page 60


 2366 013e 9BB2     		uxth	r3, r3
 2367 0140 E31A     		subs	r3, r4, r3
 2368 0142 9BB2     		uxth	r3, r3
 2369 0144 FB83     		strh	r3, [r7, #30]	@ movhi
 882:..\..\..\lvgl\version_6.1.2\lvgl\src\lv_core/lv_obj.c ****             new_y = 0;
 2370              		.loc 2 882 0
 2371 0146 0023     		movs	r3, #0
 2372 0148 BB83     		strh	r3, [r7, #28]	@ movhi
 883:..\..\..\lvgl\version_6.1.2\lvgl\src\lv_core/lv_obj.c ****             break;
 2373              		.loc 2 883 0
 2374 014a 72E1     		b	.L106
 2375              	.L112:
 884:..\..\..\lvgl\version_6.1.2\lvgl\src\lv_core/lv_obj.c **** 
 885:..\..\..\lvgl\version_6.1.2\lvgl\src\lv_core/lv_obj.c ****         case LV_ALIGN_IN_BOTTOM_LEFT:
 886:..\..\..\lvgl\version_6.1.2\lvgl\src\lv_core/lv_obj.c ****             new_x = 0;
 2376              		.loc 2 886 0
 2377 014c 0023     		movs	r3, #0
 2378 014e FB83     		strh	r3, [r7, #30]	@ movhi
 887:..\..\..\lvgl\version_6.1.2\lvgl\src\lv_core/lv_obj.c ****             new_y = lv_obj_get_height(base) - lv_obj_get_height(obj);
 2379              		.loc 2 887 0
 2380 0150 B868     		ldr	r0, [r7, #8]
 2381 0152 FFF7FEFF 		bl	lv_obj_get_height
 2382 0156 0346     		mov	r3, r0
 2383 0158 9CB2     		uxth	r4, r3
 2384 015a F868     		ldr	r0, [r7, #12]
 2385 015c FFF7FEFF 		bl	lv_obj_get_height
 2386 0160 0346     		mov	r3, r0
 2387 0162 9BB2     		uxth	r3, r3
 2388 0164 E31A     		subs	r3, r4, r3
 2389 0166 9BB2     		uxth	r3, r3
 2390 0168 BB83     		strh	r3, [r7, #28]	@ movhi
 888:..\..\..\lvgl\version_6.1.2\lvgl\src\lv_core/lv_obj.c ****             break;
 2391              		.loc 2 888 0
 2392 016a 62E1     		b	.L106
 2393              	.L113:
 889:..\..\..\lvgl\version_6.1.2\lvgl\src\lv_core/lv_obj.c ****         case LV_ALIGN_IN_BOTTOM_MID:
 890:..\..\..\lvgl\version_6.1.2\lvgl\src\lv_core/lv_obj.c ****             new_x = lv_obj_get_width(base) / 2 - lv_obj_get_width(obj) / 2;
 2394              		.loc 2 890 0
 2395 016c B868     		ldr	r0, [r7, #8]
 2396 016e FFF7FEFF 		bl	lv_obj_get_width
 2397 0172 0346     		mov	r3, r0
 2398 0174 DA0F     		lsrs	r2, r3, #31
 2399 0176 1344     		add	r3, r3, r2
 2400 0178 5B10     		asrs	r3, r3, #1
 2401 017a 1BB2     		sxth	r3, r3
 2402 017c 9CB2     		uxth	r4, r3
 2403 017e F868     		ldr	r0, [r7, #12]
 2404 0180 FFF7FEFF 		bl	lv_obj_get_width
 2405 0184 0346     		mov	r3, r0
 2406 0186 DA0F     		lsrs	r2, r3, #31
 2407 0188 1344     		add	r3, r3, r2
 2408 018a 5B10     		asrs	r3, r3, #1
 2409 018c 1BB2     		sxth	r3, r3
 2410 018e 9BB2     		uxth	r3, r3
 2411 0190 E31A     		subs	r3, r4, r3
 2412 0192 9BB2     		uxth	r3, r3
 2413 0194 FB83     		strh	r3, [r7, #30]	@ movhi
ARM GAS  C:\Users\tmj32\AppData\Local\Temp\ccxLNxq9.s 			page 61


 891:..\..\..\lvgl\version_6.1.2\lvgl\src\lv_core/lv_obj.c ****             new_y = lv_obj_get_height(base) - lv_obj_get_height(obj);
 2414              		.loc 2 891 0
 2415 0196 B868     		ldr	r0, [r7, #8]
 2416 0198 FFF7FEFF 		bl	lv_obj_get_height
 2417 019c 0346     		mov	r3, r0
 2418 019e 9CB2     		uxth	r4, r3
 2419 01a0 F868     		ldr	r0, [r7, #12]
 2420 01a2 FFF7FEFF 		bl	lv_obj_get_height
 2421 01a6 0346     		mov	r3, r0
 2422 01a8 9BB2     		uxth	r3, r3
 2423 01aa E31A     		subs	r3, r4, r3
 2424 01ac 9BB2     		uxth	r3, r3
 2425 01ae BB83     		strh	r3, [r7, #28]	@ movhi
 892:..\..\..\lvgl\version_6.1.2\lvgl\src\lv_core/lv_obj.c ****             break;
 2426              		.loc 2 892 0
 2427 01b0 3FE1     		b	.L106
 2428              	.L114:
 893:..\..\..\lvgl\version_6.1.2\lvgl\src\lv_core/lv_obj.c **** 
 894:..\..\..\lvgl\version_6.1.2\lvgl\src\lv_core/lv_obj.c ****         case LV_ALIGN_IN_BOTTOM_RIGHT:
 895:..\..\..\lvgl\version_6.1.2\lvgl\src\lv_core/lv_obj.c ****             new_x = lv_obj_get_width(base) - lv_obj_get_width(obj);
 2429              		.loc 2 895 0
 2430 01b2 B868     		ldr	r0, [r7, #8]
 2431 01b4 FFF7FEFF 		bl	lv_obj_get_width
 2432 01b8 0346     		mov	r3, r0
 2433 01ba 9CB2     		uxth	r4, r3
 2434 01bc F868     		ldr	r0, [r7, #12]
 2435 01be FFF7FEFF 		bl	lv_obj_get_width
 2436 01c2 0346     		mov	r3, r0
 2437 01c4 9BB2     		uxth	r3, r3
 2438 01c6 E31A     		subs	r3, r4, r3
 2439 01c8 9BB2     		uxth	r3, r3
 2440 01ca FB83     		strh	r3, [r7, #30]	@ movhi
 896:..\..\..\lvgl\version_6.1.2\lvgl\src\lv_core/lv_obj.c ****             new_y = lv_obj_get_height(base) - lv_obj_get_height(obj);
 2441              		.loc 2 896 0
 2442 01cc B868     		ldr	r0, [r7, #8]
 2443 01ce FFF7FEFF 		bl	lv_obj_get_height
 2444 01d2 0346     		mov	r3, r0
 2445 01d4 9CB2     		uxth	r4, r3
 2446 01d6 F868     		ldr	r0, [r7, #12]
 2447 01d8 FFF7FEFF 		bl	lv_obj_get_height
 2448 01dc 0346     		mov	r3, r0
 2449 01de 9BB2     		uxth	r3, r3
 2450 01e0 E31A     		subs	r3, r4, r3
 2451 01e2 9BB2     		uxth	r3, r3
 2452 01e4 BB83     		strh	r3, [r7, #28]	@ movhi
 897:..\..\..\lvgl\version_6.1.2\lvgl\src\lv_core/lv_obj.c ****             break;
 2453              		.loc 2 897 0
 2454 01e6 24E1     		b	.L106
 2455              	.L115:
 898:..\..\..\lvgl\version_6.1.2\lvgl\src\lv_core/lv_obj.c **** 
 899:..\..\..\lvgl\version_6.1.2\lvgl\src\lv_core/lv_obj.c ****         case LV_ALIGN_IN_LEFT_MID:
 900:..\..\..\lvgl\version_6.1.2\lvgl\src\lv_core/lv_obj.c ****             new_x = 0;
 2456              		.loc 2 900 0
 2457 01e8 0023     		movs	r3, #0
 2458 01ea FB83     		strh	r3, [r7, #30]	@ movhi
 901:..\..\..\lvgl\version_6.1.2\lvgl\src\lv_core/lv_obj.c ****             new_y = lv_obj_get_height(base) / 2 - lv_obj_get_height(obj) / 2;
 2459              		.loc 2 901 0
ARM GAS  C:\Users\tmj32\AppData\Local\Temp\ccxLNxq9.s 			page 62


 2460 01ec B868     		ldr	r0, [r7, #8]
 2461 01ee FFF7FEFF 		bl	lv_obj_get_height
 2462 01f2 0346     		mov	r3, r0
 2463 01f4 DA0F     		lsrs	r2, r3, #31
 2464 01f6 1344     		add	r3, r3, r2
 2465 01f8 5B10     		asrs	r3, r3, #1
 2466 01fa 1BB2     		sxth	r3, r3
 2467 01fc 9CB2     		uxth	r4, r3
 2468 01fe F868     		ldr	r0, [r7, #12]
 2469 0200 FFF7FEFF 		bl	lv_obj_get_height
 2470 0204 0346     		mov	r3, r0
 2471 0206 DA0F     		lsrs	r2, r3, #31
 2472 0208 1344     		add	r3, r3, r2
 2473 020a 5B10     		asrs	r3, r3, #1
 2474 020c 1BB2     		sxth	r3, r3
 2475 020e 9BB2     		uxth	r3, r3
 2476 0210 E31A     		subs	r3, r4, r3
 2477 0212 9BB2     		uxth	r3, r3
 2478 0214 BB83     		strh	r3, [r7, #28]	@ movhi
 902:..\..\..\lvgl\version_6.1.2\lvgl\src\lv_core/lv_obj.c ****             break;
 2479              		.loc 2 902 0
 2480 0216 0CE1     		b	.L106
 2481              	.L116:
 903:..\..\..\lvgl\version_6.1.2\lvgl\src\lv_core/lv_obj.c **** 
 904:..\..\..\lvgl\version_6.1.2\lvgl\src\lv_core/lv_obj.c ****         case LV_ALIGN_IN_RIGHT_MID:
 905:..\..\..\lvgl\version_6.1.2\lvgl\src\lv_core/lv_obj.c ****             new_x = lv_obj_get_width(base) - lv_obj_get_width(obj);
 2482              		.loc 2 905 0
 2483 0218 B868     		ldr	r0, [r7, #8]
 2484 021a FFF7FEFF 		bl	lv_obj_get_width
 2485 021e 0346     		mov	r3, r0
 2486 0220 9CB2     		uxth	r4, r3
 2487 0222 F868     		ldr	r0, [r7, #12]
 2488 0224 FFF7FEFF 		bl	lv_obj_get_width
 2489 0228 0346     		mov	r3, r0
 2490 022a 9BB2     		uxth	r3, r3
 2491 022c E31A     		subs	r3, r4, r3
 2492 022e 9BB2     		uxth	r3, r3
 2493 0230 FB83     		strh	r3, [r7, #30]	@ movhi
 906:..\..\..\lvgl\version_6.1.2\lvgl\src\lv_core/lv_obj.c ****             new_y = lv_obj_get_height(base) / 2 - lv_obj_get_height(obj) / 2;
 2494              		.loc 2 906 0
 2495 0232 B868     		ldr	r0, [r7, #8]
 2496 0234 FFF7FEFF 		bl	lv_obj_get_height
 2497 0238 0346     		mov	r3, r0
 2498 023a DA0F     		lsrs	r2, r3, #31
 2499 023c 1344     		add	r3, r3, r2
 2500 023e 5B10     		asrs	r3, r3, #1
 2501 0240 1BB2     		sxth	r3, r3
 2502 0242 9CB2     		uxth	r4, r3
 2503 0244 F868     		ldr	r0, [r7, #12]
 2504 0246 FFF7FEFF 		bl	lv_obj_get_height
 2505 024a 0346     		mov	r3, r0
 2506 024c DA0F     		lsrs	r2, r3, #31
 2507 024e 1344     		add	r3, r3, r2
 2508 0250 5B10     		asrs	r3, r3, #1
 2509 0252 1BB2     		sxth	r3, r3
 2510 0254 9BB2     		uxth	r3, r3
 2511 0256 E31A     		subs	r3, r4, r3
ARM GAS  C:\Users\tmj32\AppData\Local\Temp\ccxLNxq9.s 			page 63


 2512 0258 9BB2     		uxth	r3, r3
 2513 025a BB83     		strh	r3, [r7, #28]	@ movhi
 907:..\..\..\lvgl\version_6.1.2\lvgl\src\lv_core/lv_obj.c ****             break;
 2514              		.loc 2 907 0
 2515 025c E9E0     		b	.L106
 2516              	.L117:
 908:..\..\..\lvgl\version_6.1.2\lvgl\src\lv_core/lv_obj.c **** 
 909:..\..\..\lvgl\version_6.1.2\lvgl\src\lv_core/lv_obj.c ****         case LV_ALIGN_OUT_TOP_LEFT:
 910:..\..\..\lvgl\version_6.1.2\lvgl\src\lv_core/lv_obj.c ****             new_x = 0;
 2517              		.loc 2 910 0
 2518 025e 0023     		movs	r3, #0
 2519 0260 FB83     		strh	r3, [r7, #30]	@ movhi
 911:..\..\..\lvgl\version_6.1.2\lvgl\src\lv_core/lv_obj.c ****             new_y = -lv_obj_get_height(obj);
 2520              		.loc 2 911 0
 2521 0262 F868     		ldr	r0, [r7, #12]
 2522 0264 FFF7FEFF 		bl	lv_obj_get_height
 2523 0268 0346     		mov	r3, r0
 2524 026a 9BB2     		uxth	r3, r3
 2525 026c 5B42     		negs	r3, r3
 2526 026e 9BB2     		uxth	r3, r3
 2527 0270 BB83     		strh	r3, [r7, #28]	@ movhi
 912:..\..\..\lvgl\version_6.1.2\lvgl\src\lv_core/lv_obj.c ****             break;
 2528              		.loc 2 912 0
 2529 0272 DEE0     		b	.L106
 2530              	.L118:
 913:..\..\..\lvgl\version_6.1.2\lvgl\src\lv_core/lv_obj.c **** 
 914:..\..\..\lvgl\version_6.1.2\lvgl\src\lv_core/lv_obj.c ****         case LV_ALIGN_OUT_TOP_MID:
 915:..\..\..\lvgl\version_6.1.2\lvgl\src\lv_core/lv_obj.c ****             new_x = lv_obj_get_width(base) / 2 - lv_obj_get_width(obj) / 2;
 2531              		.loc 2 915 0
 2532 0274 B868     		ldr	r0, [r7, #8]
 2533 0276 FFF7FEFF 		bl	lv_obj_get_width
 2534 027a 0346     		mov	r3, r0
 2535 027c DA0F     		lsrs	r2, r3, #31
 2536 027e 1344     		add	r3, r3, r2
 2537 0280 5B10     		asrs	r3, r3, #1
 2538 0282 1BB2     		sxth	r3, r3
 2539 0284 9CB2     		uxth	r4, r3
 2540 0286 F868     		ldr	r0, [r7, #12]
 2541 0288 FFF7FEFF 		bl	lv_obj_get_width
 2542 028c 0346     		mov	r3, r0
 2543 028e DA0F     		lsrs	r2, r3, #31
 2544 0290 1344     		add	r3, r3, r2
 2545 0292 5B10     		asrs	r3, r3, #1
 2546 0294 1BB2     		sxth	r3, r3
 2547 0296 9BB2     		uxth	r3, r3
 2548 0298 E31A     		subs	r3, r4, r3
 2549 029a 9BB2     		uxth	r3, r3
 2550 029c FB83     		strh	r3, [r7, #30]	@ movhi
 916:..\..\..\lvgl\version_6.1.2\lvgl\src\lv_core/lv_obj.c ****             new_y = -lv_obj_get_height(obj);
 2551              		.loc 2 916 0
 2552 029e F868     		ldr	r0, [r7, #12]
 2553 02a0 FFF7FEFF 		bl	lv_obj_get_height
 2554 02a4 0346     		mov	r3, r0
 2555 02a6 9BB2     		uxth	r3, r3
 2556 02a8 5B42     		negs	r3, r3
 2557 02aa 9BB2     		uxth	r3, r3
 2558 02ac BB83     		strh	r3, [r7, #28]	@ movhi
ARM GAS  C:\Users\tmj32\AppData\Local\Temp\ccxLNxq9.s 			page 64


 917:..\..\..\lvgl\version_6.1.2\lvgl\src\lv_core/lv_obj.c ****             break;
 2559              		.loc 2 917 0
 2560 02ae C0E0     		b	.L106
 2561              	.L119:
 918:..\..\..\lvgl\version_6.1.2\lvgl\src\lv_core/lv_obj.c **** 
 919:..\..\..\lvgl\version_6.1.2\lvgl\src\lv_core/lv_obj.c ****         case LV_ALIGN_OUT_TOP_RIGHT:
 920:..\..\..\lvgl\version_6.1.2\lvgl\src\lv_core/lv_obj.c ****             new_x = lv_obj_get_width(base) - lv_obj_get_width(obj);
 2562              		.loc 2 920 0
 2563 02b0 B868     		ldr	r0, [r7, #8]
 2564 02b2 FFF7FEFF 		bl	lv_obj_get_width
 2565 02b6 0346     		mov	r3, r0
 2566 02b8 9CB2     		uxth	r4, r3
 2567 02ba F868     		ldr	r0, [r7, #12]
 2568 02bc FFF7FEFF 		bl	lv_obj_get_width
 2569 02c0 0346     		mov	r3, r0
 2570 02c2 9BB2     		uxth	r3, r3
 2571 02c4 E31A     		subs	r3, r4, r3
 2572 02c6 9BB2     		uxth	r3, r3
 2573 02c8 FB83     		strh	r3, [r7, #30]	@ movhi
 921:..\..\..\lvgl\version_6.1.2\lvgl\src\lv_core/lv_obj.c ****             new_y = -lv_obj_get_height(obj);
 2574              		.loc 2 921 0
 2575 02ca F868     		ldr	r0, [r7, #12]
 2576 02cc FFF7FEFF 		bl	lv_obj_get_height
 2577 02d0 0346     		mov	r3, r0
 2578 02d2 9BB2     		uxth	r3, r3
 2579 02d4 5B42     		negs	r3, r3
 2580 02d6 9BB2     		uxth	r3, r3
 2581 02d8 BB83     		strh	r3, [r7, #28]	@ movhi
 922:..\..\..\lvgl\version_6.1.2\lvgl\src\lv_core/lv_obj.c ****             break;
 2582              		.loc 2 922 0
 2583 02da AAE0     		b	.L106
 2584              	.L120:
 923:..\..\..\lvgl\version_6.1.2\lvgl\src\lv_core/lv_obj.c **** 
 924:..\..\..\lvgl\version_6.1.2\lvgl\src\lv_core/lv_obj.c ****         case LV_ALIGN_OUT_BOTTOM_LEFT:
 925:..\..\..\lvgl\version_6.1.2\lvgl\src\lv_core/lv_obj.c ****             new_x = 0;
 2585              		.loc 2 925 0
 2586 02dc 0023     		movs	r3, #0
 2587 02de FB83     		strh	r3, [r7, #30]	@ movhi
 926:..\..\..\lvgl\version_6.1.2\lvgl\src\lv_core/lv_obj.c ****             new_y = lv_obj_get_height(base);
 2588              		.loc 2 926 0
 2589 02e0 B868     		ldr	r0, [r7, #8]
 2590 02e2 FFF7FEFF 		bl	lv_obj_get_height
 2591 02e6 0346     		mov	r3, r0
 2592 02e8 BB83     		strh	r3, [r7, #28]	@ movhi
 927:..\..\..\lvgl\version_6.1.2\lvgl\src\lv_core/lv_obj.c ****             break;
 2593              		.loc 2 927 0
 2594 02ea A2E0     		b	.L106
 2595              	.L121:
 928:..\..\..\lvgl\version_6.1.2\lvgl\src\lv_core/lv_obj.c **** 
 929:..\..\..\lvgl\version_6.1.2\lvgl\src\lv_core/lv_obj.c ****         case LV_ALIGN_OUT_BOTTOM_MID:
 930:..\..\..\lvgl\version_6.1.2\lvgl\src\lv_core/lv_obj.c ****             new_x = lv_obj_get_width(base) / 2 - lv_obj_get_width(obj) / 2;
 2596              		.loc 2 930 0
 2597 02ec B868     		ldr	r0, [r7, #8]
 2598 02ee FFF7FEFF 		bl	lv_obj_get_width
 2599 02f2 0346     		mov	r3, r0
 2600 02f4 DA0F     		lsrs	r2, r3, #31
 2601 02f6 1344     		add	r3, r3, r2
ARM GAS  C:\Users\tmj32\AppData\Local\Temp\ccxLNxq9.s 			page 65


 2602 02f8 5B10     		asrs	r3, r3, #1
 2603 02fa 1BB2     		sxth	r3, r3
 2604 02fc 9CB2     		uxth	r4, r3
 2605 02fe F868     		ldr	r0, [r7, #12]
 2606 0300 FFF7FEFF 		bl	lv_obj_get_width
 2607 0304 0346     		mov	r3, r0
 2608 0306 DA0F     		lsrs	r2, r3, #31
 2609 0308 1344     		add	r3, r3, r2
 2610 030a 5B10     		asrs	r3, r3, #1
 2611 030c 1BB2     		sxth	r3, r3
 2612 030e 9BB2     		uxth	r3, r3
 2613 0310 E31A     		subs	r3, r4, r3
 2614 0312 9BB2     		uxth	r3, r3
 2615 0314 FB83     		strh	r3, [r7, #30]	@ movhi
 931:..\..\..\lvgl\version_6.1.2\lvgl\src\lv_core/lv_obj.c ****             new_y = lv_obj_get_height(base);
 2616              		.loc 2 931 0
 2617 0316 B868     		ldr	r0, [r7, #8]
 2618 0318 FFF7FEFF 		bl	lv_obj_get_height
 2619 031c 0346     		mov	r3, r0
 2620 031e BB83     		strh	r3, [r7, #28]	@ movhi
 932:..\..\..\lvgl\version_6.1.2\lvgl\src\lv_core/lv_obj.c ****             break;
 2621              		.loc 2 932 0
 2622 0320 87E0     		b	.L106
 2623              	.L122:
 933:..\..\..\lvgl\version_6.1.2\lvgl\src\lv_core/lv_obj.c **** 
 934:..\..\..\lvgl\version_6.1.2\lvgl\src\lv_core/lv_obj.c ****         case LV_ALIGN_OUT_BOTTOM_RIGHT:
 935:..\..\..\lvgl\version_6.1.2\lvgl\src\lv_core/lv_obj.c ****             new_x = lv_obj_get_width(base) - lv_obj_get_width(obj);
 2624              		.loc 2 935 0
 2625 0322 B868     		ldr	r0, [r7, #8]
 2626 0324 FFF7FEFF 		bl	lv_obj_get_width
 2627 0328 0346     		mov	r3, r0
 2628 032a 9CB2     		uxth	r4, r3
 2629 032c F868     		ldr	r0, [r7, #12]
 2630 032e FFF7FEFF 		bl	lv_obj_get_width
 2631 0332 0346     		mov	r3, r0
 2632 0334 9BB2     		uxth	r3, r3
 2633 0336 E31A     		subs	r3, r4, r3
 2634 0338 9BB2     		uxth	r3, r3
 2635 033a FB83     		strh	r3, [r7, #30]	@ movhi
 936:..\..\..\lvgl\version_6.1.2\lvgl\src\lv_core/lv_obj.c ****             new_y = lv_obj_get_height(base);
 2636              		.loc 2 936 0
 2637 033c B868     		ldr	r0, [r7, #8]
 2638 033e FFF7FEFF 		bl	lv_obj_get_height
 2639 0342 0346     		mov	r3, r0
 2640 0344 BB83     		strh	r3, [r7, #28]	@ movhi
 937:..\..\..\lvgl\version_6.1.2\lvgl\src\lv_core/lv_obj.c ****             break;
 2641              		.loc 2 937 0
 2642 0346 74E0     		b	.L106
 2643              	.L123:
 938:..\..\..\lvgl\version_6.1.2\lvgl\src\lv_core/lv_obj.c **** 
 939:..\..\..\lvgl\version_6.1.2\lvgl\src\lv_core/lv_obj.c ****         case LV_ALIGN_OUT_LEFT_TOP:
 940:..\..\..\lvgl\version_6.1.2\lvgl\src\lv_core/lv_obj.c ****             new_x = -lv_obj_get_width(obj);
 2644              		.loc 2 940 0
 2645 0348 F868     		ldr	r0, [r7, #12]
 2646 034a FFF7FEFF 		bl	lv_obj_get_width
 2647 034e 0346     		mov	r3, r0
 2648 0350 9BB2     		uxth	r3, r3
ARM GAS  C:\Users\tmj32\AppData\Local\Temp\ccxLNxq9.s 			page 66


 2649 0352 5B42     		negs	r3, r3
 2650 0354 9BB2     		uxth	r3, r3
 2651 0356 FB83     		strh	r3, [r7, #30]	@ movhi
 941:..\..\..\lvgl\version_6.1.2\lvgl\src\lv_core/lv_obj.c ****             new_y = 0;
 2652              		.loc 2 941 0
 2653 0358 0023     		movs	r3, #0
 2654 035a BB83     		strh	r3, [r7, #28]	@ movhi
 942:..\..\..\lvgl\version_6.1.2\lvgl\src\lv_core/lv_obj.c ****             break;
 2655              		.loc 2 942 0
 2656 035c 69E0     		b	.L106
 2657              	.L124:
 943:..\..\..\lvgl\version_6.1.2\lvgl\src\lv_core/lv_obj.c **** 
 944:..\..\..\lvgl\version_6.1.2\lvgl\src\lv_core/lv_obj.c ****         case LV_ALIGN_OUT_LEFT_MID:
 945:..\..\..\lvgl\version_6.1.2\lvgl\src\lv_core/lv_obj.c ****             new_x = -lv_obj_get_width(obj);
 2658              		.loc 2 945 0
 2659 035e F868     		ldr	r0, [r7, #12]
 2660 0360 FFF7FEFF 		bl	lv_obj_get_width
 2661 0364 0346     		mov	r3, r0
 2662 0366 9BB2     		uxth	r3, r3
 2663 0368 5B42     		negs	r3, r3
 2664 036a 9BB2     		uxth	r3, r3
 2665 036c FB83     		strh	r3, [r7, #30]	@ movhi
 946:..\..\..\lvgl\version_6.1.2\lvgl\src\lv_core/lv_obj.c ****             new_y = lv_obj_get_height(base) / 2 - lv_obj_get_height(obj) / 2;
 2666              		.loc 2 946 0
 2667 036e B868     		ldr	r0, [r7, #8]
 2668 0370 FFF7FEFF 		bl	lv_obj_get_height
 2669 0374 0346     		mov	r3, r0
 2670 0376 DA0F     		lsrs	r2, r3, #31
 2671 0378 1344     		add	r3, r3, r2
 2672 037a 5B10     		asrs	r3, r3, #1
 2673 037c 1BB2     		sxth	r3, r3
 2674 037e 9CB2     		uxth	r4, r3
 2675 0380 F868     		ldr	r0, [r7, #12]
 2676 0382 FFF7FEFF 		bl	lv_obj_get_height
 2677 0386 0346     		mov	r3, r0
 2678 0388 DA0F     		lsrs	r2, r3, #31
 2679 038a 1344     		add	r3, r3, r2
 2680 038c 5B10     		asrs	r3, r3, #1
 2681 038e 1BB2     		sxth	r3, r3
 2682 0390 9BB2     		uxth	r3, r3
 2683 0392 E31A     		subs	r3, r4, r3
 2684 0394 9BB2     		uxth	r3, r3
 2685 0396 BB83     		strh	r3, [r7, #28]	@ movhi
 947:..\..\..\lvgl\version_6.1.2\lvgl\src\lv_core/lv_obj.c ****             break;
 2686              		.loc 2 947 0
 2687 0398 4BE0     		b	.L106
 2688              	.L125:
 948:..\..\..\lvgl\version_6.1.2\lvgl\src\lv_core/lv_obj.c **** 
 949:..\..\..\lvgl\version_6.1.2\lvgl\src\lv_core/lv_obj.c ****         case LV_ALIGN_OUT_LEFT_BOTTOM:
 950:..\..\..\lvgl\version_6.1.2\lvgl\src\lv_core/lv_obj.c ****             new_x = -lv_obj_get_width(obj);
 2689              		.loc 2 950 0
 2690 039a F868     		ldr	r0, [r7, #12]
 2691 039c FFF7FEFF 		bl	lv_obj_get_width
 2692 03a0 0346     		mov	r3, r0
 2693 03a2 9BB2     		uxth	r3, r3
 2694 03a4 5B42     		negs	r3, r3
 2695 03a6 9BB2     		uxth	r3, r3
ARM GAS  C:\Users\tmj32\AppData\Local\Temp\ccxLNxq9.s 			page 67


 2696 03a8 FB83     		strh	r3, [r7, #30]	@ movhi
 951:..\..\..\lvgl\version_6.1.2\lvgl\src\lv_core/lv_obj.c ****             new_y = lv_obj_get_height(base) - lv_obj_get_height(obj);
 2697              		.loc 2 951 0
 2698 03aa B868     		ldr	r0, [r7, #8]
 2699 03ac FFF7FEFF 		bl	lv_obj_get_height
 2700 03b0 0346     		mov	r3, r0
 2701 03b2 9CB2     		uxth	r4, r3
 2702 03b4 F868     		ldr	r0, [r7, #12]
 2703 03b6 FFF7FEFF 		bl	lv_obj_get_height
 2704 03ba 0346     		mov	r3, r0
 2705 03bc 9BB2     		uxth	r3, r3
 2706 03be E31A     		subs	r3, r4, r3
 2707 03c0 9BB2     		uxth	r3, r3
 2708 03c2 BB83     		strh	r3, [r7, #28]	@ movhi
 952:..\..\..\lvgl\version_6.1.2\lvgl\src\lv_core/lv_obj.c ****             break;
 2709              		.loc 2 952 0
 2710 03c4 35E0     		b	.L106
 2711              	.L126:
 953:..\..\..\lvgl\version_6.1.2\lvgl\src\lv_core/lv_obj.c **** 
 954:..\..\..\lvgl\version_6.1.2\lvgl\src\lv_core/lv_obj.c ****         case LV_ALIGN_OUT_RIGHT_TOP:
 955:..\..\..\lvgl\version_6.1.2\lvgl\src\lv_core/lv_obj.c ****             new_x = lv_obj_get_width(base);
 2712              		.loc 2 955 0
 2713 03c6 B868     		ldr	r0, [r7, #8]
 2714 03c8 FFF7FEFF 		bl	lv_obj_get_width
 2715 03cc 0346     		mov	r3, r0
 2716 03ce FB83     		strh	r3, [r7, #30]	@ movhi
 956:..\..\..\lvgl\version_6.1.2\lvgl\src\lv_core/lv_obj.c ****             new_y = 0;
 2717              		.loc 2 956 0
 2718 03d0 0023     		movs	r3, #0
 2719 03d2 BB83     		strh	r3, [r7, #28]	@ movhi
 957:..\..\..\lvgl\version_6.1.2\lvgl\src\lv_core/lv_obj.c ****             break;
 2720              		.loc 2 957 0
 2721 03d4 2DE0     		b	.L106
 2722              	.L127:
 958:..\..\..\lvgl\version_6.1.2\lvgl\src\lv_core/lv_obj.c **** 
 959:..\..\..\lvgl\version_6.1.2\lvgl\src\lv_core/lv_obj.c ****         case LV_ALIGN_OUT_RIGHT_MID:
 960:..\..\..\lvgl\version_6.1.2\lvgl\src\lv_core/lv_obj.c ****             new_x = lv_obj_get_width(base);
 2723              		.loc 2 960 0
 2724 03d6 B868     		ldr	r0, [r7, #8]
 2725 03d8 FFF7FEFF 		bl	lv_obj_get_width
 2726 03dc 0346     		mov	r3, r0
 2727 03de FB83     		strh	r3, [r7, #30]	@ movhi
 961:..\..\..\lvgl\version_6.1.2\lvgl\src\lv_core/lv_obj.c ****             new_y = lv_obj_get_height(base) / 2 - lv_obj_get_height(obj) / 2;
 2728              		.loc 2 961 0
 2729 03e0 B868     		ldr	r0, [r7, #8]
 2730 03e2 FFF7FEFF 		bl	lv_obj_get_height
 2731 03e6 0346     		mov	r3, r0
 2732 03e8 DA0F     		lsrs	r2, r3, #31
 2733 03ea 1344     		add	r3, r3, r2
 2734 03ec 5B10     		asrs	r3, r3, #1
 2735 03ee 1BB2     		sxth	r3, r3
 2736 03f0 9CB2     		uxth	r4, r3
 2737 03f2 F868     		ldr	r0, [r7, #12]
 2738 03f4 FFF7FEFF 		bl	lv_obj_get_height
 2739 03f8 0346     		mov	r3, r0
 2740 03fa DA0F     		lsrs	r2, r3, #31
 2741 03fc 1344     		add	r3, r3, r2
ARM GAS  C:\Users\tmj32\AppData\Local\Temp\ccxLNxq9.s 			page 68


 2742 03fe 5B10     		asrs	r3, r3, #1
 2743 0400 1BB2     		sxth	r3, r3
 2744 0402 9BB2     		uxth	r3, r3
 2745 0404 E31A     		subs	r3, r4, r3
 2746 0406 9BB2     		uxth	r3, r3
 2747 0408 BB83     		strh	r3, [r7, #28]	@ movhi
 962:..\..\..\lvgl\version_6.1.2\lvgl\src\lv_core/lv_obj.c ****             break;
 2748              		.loc 2 962 0
 2749 040a 12E0     		b	.L106
 2750              	.L128:
 963:..\..\..\lvgl\version_6.1.2\lvgl\src\lv_core/lv_obj.c **** 
 964:..\..\..\lvgl\version_6.1.2\lvgl\src\lv_core/lv_obj.c ****         case LV_ALIGN_OUT_RIGHT_BOTTOM:
 965:..\..\..\lvgl\version_6.1.2\lvgl\src\lv_core/lv_obj.c ****             new_x = lv_obj_get_width(base);
 2751              		.loc 2 965 0
 2752 040c B868     		ldr	r0, [r7, #8]
 2753 040e FFF7FEFF 		bl	lv_obj_get_width
 2754 0412 0346     		mov	r3, r0
 2755 0414 FB83     		strh	r3, [r7, #30]	@ movhi
 966:..\..\..\lvgl\version_6.1.2\lvgl\src\lv_core/lv_obj.c ****             new_y = lv_obj_get_height(base) - lv_obj_get_height(obj);
 2756              		.loc 2 966 0
 2757 0416 B868     		ldr	r0, [r7, #8]
 2758 0418 FFF7FEFF 		bl	lv_obj_get_height
 2759 041c 0346     		mov	r3, r0
 2760 041e 9CB2     		uxth	r4, r3
 2761 0420 F868     		ldr	r0, [r7, #12]
 2762 0422 FFF7FEFF 		bl	lv_obj_get_height
 2763 0426 0346     		mov	r3, r0
 2764 0428 9BB2     		uxth	r3, r3
 2765 042a E31A     		subs	r3, r4, r3
 2766 042c 9BB2     		uxth	r3, r3
 2767 042e BB83     		strh	r3, [r7, #28]	@ movhi
 967:..\..\..\lvgl\version_6.1.2\lvgl\src\lv_core/lv_obj.c ****             break;
 2768              		.loc 2 967 0
 2769 0430 00BF     		nop
 2770              	.L106:
 968:..\..\..\lvgl\version_6.1.2\lvgl\src\lv_core/lv_obj.c ****     }
 969:..\..\..\lvgl\version_6.1.2\lvgl\src\lv_core/lv_obj.c **** 
 970:..\..\..\lvgl\version_6.1.2\lvgl\src\lv_core/lv_obj.c ****     /*Bring together the coordination system of base and obj*/
 971:..\..\..\lvgl\version_6.1.2\lvgl\src\lv_core/lv_obj.c ****     lv_obj_t * par        = lv_obj_get_parent(obj);
 2771              		.loc 2 971 0
 2772 0432 F868     		ldr	r0, [r7, #12]
 2773 0434 FFF7FEFF 		bl	lv_obj_get_parent
 2774 0438 B861     		str	r0, [r7, #24]
 972:..\..\..\lvgl\version_6.1.2\lvgl\src\lv_core/lv_obj.c ****     lv_coord_t base_abs_x = base->coords.x1;
 2775              		.loc 2 972 0
 2776 043a BB68     		ldr	r3, [r7, #8]
 2777 043c 1B8A     		ldrh	r3, [r3, #16]	@ movhi
 2778 043e FB82     		strh	r3, [r7, #22]	@ movhi
 973:..\..\..\lvgl\version_6.1.2\lvgl\src\lv_core/lv_obj.c ****     lv_coord_t base_abs_y = base->coords.y1;
 2779              		.loc 2 973 0
 2780 0440 BB68     		ldr	r3, [r7, #8]
 2781 0442 5B8A     		ldrh	r3, [r3, #18]	@ movhi
 2782 0444 BB82     		strh	r3, [r7, #20]	@ movhi
 974:..\..\..\lvgl\version_6.1.2\lvgl\src\lv_core/lv_obj.c ****     lv_coord_t par_abs_x  = par->coords.x1;
 2783              		.loc 2 974 0
 2784 0446 BB69     		ldr	r3, [r7, #24]
 2785 0448 1B8A     		ldrh	r3, [r3, #16]	@ movhi
ARM GAS  C:\Users\tmj32\AppData\Local\Temp\ccxLNxq9.s 			page 69


 2786 044a 7B82     		strh	r3, [r7, #18]	@ movhi
 975:..\..\..\lvgl\version_6.1.2\lvgl\src\lv_core/lv_obj.c ****     lv_coord_t par_abs_y  = par->coords.y1;
 2787              		.loc 2 975 0
 2788 044c BB69     		ldr	r3, [r7, #24]
 2789 044e 5B8A     		ldrh	r3, [r3, #18]	@ movhi
 2790 0450 3B82     		strh	r3, [r7, #16]	@ movhi
 976:..\..\..\lvgl\version_6.1.2\lvgl\src\lv_core/lv_obj.c ****     new_x += x_mod + base_abs_x;
 2791              		.loc 2 976 0
 2792 0452 BA88     		ldrh	r2, [r7, #4]
 2793 0454 FB8A     		ldrh	r3, [r7, #22]
 2794 0456 1344     		add	r3, r3, r2
 2795 0458 9AB2     		uxth	r2, r3
 2796 045a FB8B     		ldrh	r3, [r7, #30]
 2797 045c 1344     		add	r3, r3, r2
 2798 045e 9BB2     		uxth	r3, r3
 2799 0460 FB83     		strh	r3, [r7, #30]	@ movhi
 977:..\..\..\lvgl\version_6.1.2\lvgl\src\lv_core/lv_obj.c ****     new_y += y_mod + base_abs_y;
 2800              		.loc 2 977 0
 2801 0462 3A8E     		ldrh	r2, [r7, #48]
 2802 0464 BB8A     		ldrh	r3, [r7, #20]
 2803 0466 1344     		add	r3, r3, r2
 2804 0468 9AB2     		uxth	r2, r3
 2805 046a BB8B     		ldrh	r3, [r7, #28]
 2806 046c 1344     		add	r3, r3, r2
 2807 046e 9BB2     		uxth	r3, r3
 2808 0470 BB83     		strh	r3, [r7, #28]	@ movhi
 978:..\..\..\lvgl\version_6.1.2\lvgl\src\lv_core/lv_obj.c ****     new_x -= par_abs_x;
 2809              		.loc 2 978 0
 2810 0472 FA8B     		ldrh	r2, [r7, #30]
 2811 0474 7B8A     		ldrh	r3, [r7, #18]
 2812 0476 D31A     		subs	r3, r2, r3
 2813 0478 9BB2     		uxth	r3, r3
 2814 047a FB83     		strh	r3, [r7, #30]	@ movhi
 979:..\..\..\lvgl\version_6.1.2\lvgl\src\lv_core/lv_obj.c ****     new_y -= par_abs_y;
 2815              		.loc 2 979 0
 2816 047c BA8B     		ldrh	r2, [r7, #28]
 2817 047e 3B8A     		ldrh	r3, [r7, #16]
 2818 0480 D31A     		subs	r3, r2, r3
 2819 0482 9BB2     		uxth	r3, r3
 2820 0484 BB83     		strh	r3, [r7, #28]	@ movhi
 980:..\..\..\lvgl\version_6.1.2\lvgl\src\lv_core/lv_obj.c **** 
 981:..\..\..\lvgl\version_6.1.2\lvgl\src\lv_core/lv_obj.c ****     lv_obj_set_pos(obj, new_x, new_y);
 2821              		.loc 2 981 0
 2822 0486 B7F91C20 		ldrsh	r2, [r7, #28]
 2823 048a B7F91E30 		ldrsh	r3, [r7, #30]
 2824 048e 1946     		mov	r1, r3
 2825 0490 F868     		ldr	r0, [r7, #12]
 2826 0492 FFF7FEFF 		bl	lv_obj_set_pos
 982:..\..\..\lvgl\version_6.1.2\lvgl\src\lv_core/lv_obj.c **** 
 983:..\..\..\lvgl\version_6.1.2\lvgl\src\lv_core/lv_obj.c **** #if LV_USE_OBJ_REALIGN
 984:..\..\..\lvgl\version_6.1.2\lvgl\src\lv_core/lv_obj.c ****     /*Save the last align parameters to use them in `lv_obj_realign`*/
 985:..\..\..\lvgl\version_6.1.2\lvgl\src\lv_core/lv_obj.c ****     obj->realign.align       = align;
 2827              		.loc 2 985 0
 2828 0496 FB68     		ldr	r3, [r7, #12]
 2829 0498 FA79     		ldrb	r2, [r7, #7]
 2830 049a 83F83C20 		strb	r2, [r3, #60]
 986:..\..\..\lvgl\version_6.1.2\lvgl\src\lv_core/lv_obj.c ****     obj->realign.xofs        = x_mod;
ARM GAS  C:\Users\tmj32\AppData\Local\Temp\ccxLNxq9.s 			page 70


 2831              		.loc 2 986 0
 2832 049e FB68     		ldr	r3, [r7, #12]
 2833 04a0 BA88     		ldrh	r2, [r7, #4]	@ movhi
 2834 04a2 1A87     		strh	r2, [r3, #56]	@ movhi
 987:..\..\..\lvgl\version_6.1.2\lvgl\src\lv_core/lv_obj.c ****     obj->realign.yofs        = y_mod;
 2835              		.loc 2 987 0
 2836 04a4 FB68     		ldr	r3, [r7, #12]
 2837 04a6 3A8E     		ldrh	r2, [r7, #48]	@ movhi
 2838 04a8 5A87     		strh	r2, [r3, #58]	@ movhi
 988:..\..\..\lvgl\version_6.1.2\lvgl\src\lv_core/lv_obj.c ****     obj->realign.base        = base;
 2839              		.loc 2 988 0
 2840 04aa FB68     		ldr	r3, [r7, #12]
 2841 04ac BA68     		ldr	r2, [r7, #8]
 2842 04ae 5A63     		str	r2, [r3, #52]
 989:..\..\..\lvgl\version_6.1.2\lvgl\src\lv_core/lv_obj.c ****     obj->realign.origo_align = 0;
 2843              		.loc 2 989 0
 2844 04b0 FA68     		ldr	r2, [r7, #12]
 2845 04b2 92F83D30 		ldrb	r3, [r2, #61]
 2846 04b6 6FF34103 		bfc	r3, #1, #1
 2847 04ba 82F83D30 		strb	r3, [r2, #61]
 990:..\..\..\lvgl\version_6.1.2\lvgl\src\lv_core/lv_obj.c **** #endif
 991:..\..\..\lvgl\version_6.1.2\lvgl\src\lv_core/lv_obj.c **** }
 2848              		.loc 2 991 0
 2849 04be 00BF     		nop
 2850 04c0 2437     		adds	r7, r7, #36
 2851              		.cfi_def_cfa_offset 12
 2852 04c2 BD46     		mov	sp, r7
 2853              		.cfi_def_cfa_register 13
 2854              		@ sp needed
 2855 04c4 90BD     		pop	{r4, r7, pc}
 2856              		.cfi_endproc
 2857              	.LFE52:
 2858              		.size	lv_obj_align, .-lv_obj_align
 2859 04c6 00BF     		.section	.text.lv_obj_align_origo,"ax",%progbits
 2860              		.align	2
 2861              		.global	lv_obj_align_origo
 2862              		.thumb
 2863              		.thumb_func
 2864              		.type	lv_obj_align_origo, %function
 2865              	lv_obj_align_origo:
 2866              	.LFB53:
 992:..\..\..\lvgl\version_6.1.2\lvgl\src\lv_core/lv_obj.c **** 
 993:..\..\..\lvgl\version_6.1.2\lvgl\src\lv_core/lv_obj.c **** /**
 994:..\..\..\lvgl\version_6.1.2\lvgl\src\lv_core/lv_obj.c ****  * Align an object's middle point to an other object.
 995:..\..\..\lvgl\version_6.1.2\lvgl\src\lv_core/lv_obj.c ****  * @param obj pointer to an object to align
 996:..\..\..\lvgl\version_6.1.2\lvgl\src\lv_core/lv_obj.c ****  * @param base pointer to an object (if NULL the parent is used). 'obj' will be aligned to it.
 997:..\..\..\lvgl\version_6.1.2\lvgl\src\lv_core/lv_obj.c ****  * @param align type of alignment (see 'lv_align_t' enum)
 998:..\..\..\lvgl\version_6.1.2\lvgl\src\lv_core/lv_obj.c ****  * @param x_mod x coordinate shift after alignment
 999:..\..\..\lvgl\version_6.1.2\lvgl\src\lv_core/lv_obj.c ****  * @param y_mod y coordinate shift after alignment
1000:..\..\..\lvgl\version_6.1.2\lvgl\src\lv_core/lv_obj.c ****  */
1001:..\..\..\lvgl\version_6.1.2\lvgl\src\lv_core/lv_obj.c **** void lv_obj_align_origo(lv_obj_t * obj, const lv_obj_t * base, lv_align_t align, lv_coord_t x_mod, 
1002:..\..\..\lvgl\version_6.1.2\lvgl\src\lv_core/lv_obj.c **** {
 2867              		.loc 2 1002 0
 2868              		.cfi_startproc
 2869              		@ args = 4, pretend = 0, frame = 40
 2870              		@ frame_needed = 1, uses_anonymous_args = 0
 2871 0000 80B5     		push	{r7, lr}
ARM GAS  C:\Users\tmj32\AppData\Local\Temp\ccxLNxq9.s 			page 71


 2872              		.cfi_def_cfa_offset 8
 2873              		.cfi_offset 7, -8
 2874              		.cfi_offset 14, -4
 2875 0002 8AB0     		sub	sp, sp, #40
 2876              		.cfi_def_cfa_offset 48
 2877 0004 00AF     		add	r7, sp, #0
 2878              		.cfi_def_cfa_register 7
 2879 0006 F860     		str	r0, [r7, #12]
 2880 0008 B960     		str	r1, [r7, #8]
 2881 000a 1146     		mov	r1, r2
 2882 000c 1A46     		mov	r2, r3
 2883 000e 0B46     		mov	r3, r1
 2884 0010 FB71     		strb	r3, [r7, #7]
 2885 0012 1346     		mov	r3, r2	@ movhi
 2886 0014 BB80     		strh	r3, [r7, #4]	@ movhi
1003:..\..\..\lvgl\version_6.1.2\lvgl\src\lv_core/lv_obj.c ****     LV_ASSERT_OBJ(obj, LV_OBJX_NAME);
1004:..\..\..\lvgl\version_6.1.2\lvgl\src\lv_core/lv_obj.c **** 
1005:..\..\..\lvgl\version_6.1.2\lvgl\src\lv_core/lv_obj.c ****     lv_coord_t new_x = lv_obj_get_x(obj);
 2887              		.loc 2 1005 0
 2888 0016 F868     		ldr	r0, [r7, #12]
 2889 0018 FFF7FEFF 		bl	lv_obj_get_x
 2890 001c 0346     		mov	r3, r0
 2891 001e FB84     		strh	r3, [r7, #38]	@ movhi
1006:..\..\..\lvgl\version_6.1.2\lvgl\src\lv_core/lv_obj.c ****     lv_coord_t new_y = lv_obj_get_y(obj);
 2892              		.loc 2 1006 0
 2893 0020 F868     		ldr	r0, [r7, #12]
 2894 0022 FFF7FEFF 		bl	lv_obj_get_y
 2895 0026 0346     		mov	r3, r0
 2896 0028 BB84     		strh	r3, [r7, #36]	@ movhi
1007:..\..\..\lvgl\version_6.1.2\lvgl\src\lv_core/lv_obj.c **** 
1008:..\..\..\lvgl\version_6.1.2\lvgl\src\lv_core/lv_obj.c ****     lv_coord_t obj_w_half = lv_obj_get_width(obj) / 2;
 2897              		.loc 2 1008 0
 2898 002a F868     		ldr	r0, [r7, #12]
 2899 002c FFF7FEFF 		bl	lv_obj_get_width
 2900 0030 0346     		mov	r3, r0
 2901 0032 DA0F     		lsrs	r2, r3, #31
 2902 0034 1344     		add	r3, r3, r2
 2903 0036 5B10     		asrs	r3, r3, #1
 2904 0038 7B84     		strh	r3, [r7, #34]	@ movhi
1009:..\..\..\lvgl\version_6.1.2\lvgl\src\lv_core/lv_obj.c ****     lv_coord_t obj_h_half = lv_obj_get_height(obj) / 2;
 2905              		.loc 2 1009 0
 2906 003a F868     		ldr	r0, [r7, #12]
 2907 003c FFF7FEFF 		bl	lv_obj_get_height
 2908 0040 0346     		mov	r3, r0
 2909 0042 DA0F     		lsrs	r2, r3, #31
 2910 0044 1344     		add	r3, r3, r2
 2911 0046 5B10     		asrs	r3, r3, #1
 2912 0048 3B84     		strh	r3, [r7, #32]	@ movhi
1010:..\..\..\lvgl\version_6.1.2\lvgl\src\lv_core/lv_obj.c **** 
1011:..\..\..\lvgl\version_6.1.2\lvgl\src\lv_core/lv_obj.c ****     if(base == NULL) {
 2913              		.loc 2 1011 0
 2914 004a BB68     		ldr	r3, [r7, #8]
 2915 004c 002B     		cmp	r3, #0
 2916 004e 03D1     		bne	.L130
1012:..\..\..\lvgl\version_6.1.2\lvgl\src\lv_core/lv_obj.c ****         base = lv_obj_get_parent(obj);
 2917              		.loc 2 1012 0
 2918 0050 F868     		ldr	r0, [r7, #12]
ARM GAS  C:\Users\tmj32\AppData\Local\Temp\ccxLNxq9.s 			page 72


 2919 0052 FFF7FEFF 		bl	lv_obj_get_parent
 2920 0056 B860     		str	r0, [r7, #8]
 2921              	.L130:
1013:..\..\..\lvgl\version_6.1.2\lvgl\src\lv_core/lv_obj.c ****     }
1014:..\..\..\lvgl\version_6.1.2\lvgl\src\lv_core/lv_obj.c **** 
1015:..\..\..\lvgl\version_6.1.2\lvgl\src\lv_core/lv_obj.c ****     LV_ASSERT_OBJ(base, LV_OBJX_NAME);
1016:..\..\..\lvgl\version_6.1.2\lvgl\src\lv_core/lv_obj.c **** 
1017:..\..\..\lvgl\version_6.1.2\lvgl\src\lv_core/lv_obj.c **** 
1018:..\..\..\lvgl\version_6.1.2\lvgl\src\lv_core/lv_obj.c ****     switch(align) {
 2922              		.loc 2 1018 0
 2923 0058 FB79     		ldrb	r3, [r7, #7]	@ zero_extendqisi2
 2924 005a 142B     		cmp	r3, #20
 2925 005c 00F29581 		bhi	.L131
 2926 0060 01A2     		adr	r2, .L133
 2927 0062 52F823F0 		ldr	pc, [r2, r3, lsl #2]
 2928 0066 00BF     		.p2align 2
 2929              	.L133:
 2930 0068 BD000000 		.word	.L132+1
 2931 006c F3000000 		.word	.L134+1
 2932 0070 05010000 		.word	.L135+1
 2933 0074 29010000 		.word	.L136+1
 2934 0078 45010000 		.word	.L137+1
 2935 007c 61010000 		.word	.L138+1
 2936 0080 8F010000 		.word	.L139+1
 2937 0084 B5010000 		.word	.L140+1
 2938 0088 D9010000 		.word	.L141+1
 2939 008c 07020000 		.word	.L142+1
 2940 0090 19020000 		.word	.L143+1
 2941 0094 3D020000 		.word	.L144+1
 2942 0098 59020000 		.word	.L145+1
 2943 009c 75020000 		.word	.L146+1
 2944 00a0 A3020000 		.word	.L147+1
 2945 00a4 C9020000 		.word	.L148+1
 2946 00a8 DB020000 		.word	.L149+1
 2947 00ac FF020000 		.word	.L150+1
 2948 00b0 1B030000 		.word	.L151+1
 2949 00b4 37030000 		.word	.L152+1
 2950 00b8 65030000 		.word	.L153+1
 2951              		.p2align 1
 2952              	.L132:
1019:..\..\..\lvgl\version_6.1.2\lvgl\src\lv_core/lv_obj.c ****         case LV_ALIGN_CENTER:
1020:..\..\..\lvgl\version_6.1.2\lvgl\src\lv_core/lv_obj.c ****             new_x = lv_obj_get_width(base) / 2 - obj_w_half;
 2953              		.loc 2 1020 0
 2954 00bc B868     		ldr	r0, [r7, #8]
 2955 00be FFF7FEFF 		bl	lv_obj_get_width
 2956 00c2 0346     		mov	r3, r0
 2957 00c4 DA0F     		lsrs	r2, r3, #31
 2958 00c6 1344     		add	r3, r3, r2
 2959 00c8 5B10     		asrs	r3, r3, #1
 2960 00ca 1BB2     		sxth	r3, r3
 2961 00cc 9AB2     		uxth	r2, r3
 2962 00ce 7B8C     		ldrh	r3, [r7, #34]
 2963 00d0 D31A     		subs	r3, r2, r3
 2964 00d2 9BB2     		uxth	r3, r3
 2965 00d4 FB84     		strh	r3, [r7, #38]	@ movhi
1021:..\..\..\lvgl\version_6.1.2\lvgl\src\lv_core/lv_obj.c ****             new_y = lv_obj_get_height(base) / 2 - obj_h_half;
 2966              		.loc 2 1021 0
ARM GAS  C:\Users\tmj32\AppData\Local\Temp\ccxLNxq9.s 			page 73


 2967 00d6 B868     		ldr	r0, [r7, #8]
 2968 00d8 FFF7FEFF 		bl	lv_obj_get_height
 2969 00dc 0346     		mov	r3, r0
 2970 00de DA0F     		lsrs	r2, r3, #31
 2971 00e0 1344     		add	r3, r3, r2
 2972 00e2 5B10     		asrs	r3, r3, #1
 2973 00e4 1BB2     		sxth	r3, r3
 2974 00e6 9AB2     		uxth	r2, r3
 2975 00e8 3B8C     		ldrh	r3, [r7, #32]
 2976 00ea D31A     		subs	r3, r2, r3
 2977 00ec 9BB2     		uxth	r3, r3
 2978 00ee BB84     		strh	r3, [r7, #36]	@ movhi
1022:..\..\..\lvgl\version_6.1.2\lvgl\src\lv_core/lv_obj.c ****             break;
 2979              		.loc 2 1022 0
 2980 00f0 4BE1     		b	.L131
 2981              	.L134:
1023:..\..\..\lvgl\version_6.1.2\lvgl\src\lv_core/lv_obj.c **** 
1024:..\..\..\lvgl\version_6.1.2\lvgl\src\lv_core/lv_obj.c ****         case LV_ALIGN_IN_TOP_LEFT:
1025:..\..\..\lvgl\version_6.1.2\lvgl\src\lv_core/lv_obj.c ****             new_x = -obj_w_half;
 2982              		.loc 2 1025 0
 2983 00f2 7B8C     		ldrh	r3, [r7, #34]
 2984 00f4 5B42     		negs	r3, r3
 2985 00f6 9BB2     		uxth	r3, r3
 2986 00f8 FB84     		strh	r3, [r7, #38]	@ movhi
1026:..\..\..\lvgl\version_6.1.2\lvgl\src\lv_core/lv_obj.c ****             new_y = -obj_h_half;
 2987              		.loc 2 1026 0
 2988 00fa 3B8C     		ldrh	r3, [r7, #32]
 2989 00fc 5B42     		negs	r3, r3
 2990 00fe 9BB2     		uxth	r3, r3
 2991 0100 BB84     		strh	r3, [r7, #36]	@ movhi
1027:..\..\..\lvgl\version_6.1.2\lvgl\src\lv_core/lv_obj.c ****             break;
 2992              		.loc 2 1027 0
 2993 0102 42E1     		b	.L131
 2994              	.L135:
1028:..\..\..\lvgl\version_6.1.2\lvgl\src\lv_core/lv_obj.c ****         case LV_ALIGN_IN_TOP_MID:
1029:..\..\..\lvgl\version_6.1.2\lvgl\src\lv_core/lv_obj.c ****             new_x = lv_obj_get_width(base) / 2 - obj_w_half;
 2995              		.loc 2 1029 0
 2996 0104 B868     		ldr	r0, [r7, #8]
 2997 0106 FFF7FEFF 		bl	lv_obj_get_width
 2998 010a 0346     		mov	r3, r0
 2999 010c DA0F     		lsrs	r2, r3, #31
 3000 010e 1344     		add	r3, r3, r2
 3001 0110 5B10     		asrs	r3, r3, #1
 3002 0112 1BB2     		sxth	r3, r3
 3003 0114 9AB2     		uxth	r2, r3
 3004 0116 7B8C     		ldrh	r3, [r7, #34]
 3005 0118 D31A     		subs	r3, r2, r3
 3006 011a 9BB2     		uxth	r3, r3
 3007 011c FB84     		strh	r3, [r7, #38]	@ movhi
1030:..\..\..\lvgl\version_6.1.2\lvgl\src\lv_core/lv_obj.c ****             new_y = -obj_h_half;
 3008              		.loc 2 1030 0
 3009 011e 3B8C     		ldrh	r3, [r7, #32]
 3010 0120 5B42     		negs	r3, r3
 3011 0122 9BB2     		uxth	r3, r3
 3012 0124 BB84     		strh	r3, [r7, #36]	@ movhi
1031:..\..\..\lvgl\version_6.1.2\lvgl\src\lv_core/lv_obj.c ****             break;
 3013              		.loc 2 1031 0
ARM GAS  C:\Users\tmj32\AppData\Local\Temp\ccxLNxq9.s 			page 74


 3014 0126 30E1     		b	.L131
 3015              	.L136:
1032:..\..\..\lvgl\version_6.1.2\lvgl\src\lv_core/lv_obj.c **** 
1033:..\..\..\lvgl\version_6.1.2\lvgl\src\lv_core/lv_obj.c ****         case LV_ALIGN_IN_TOP_RIGHT:
1034:..\..\..\lvgl\version_6.1.2\lvgl\src\lv_core/lv_obj.c ****             new_x = lv_obj_get_width(base) - obj_w_half;
 3016              		.loc 2 1034 0
 3017 0128 B868     		ldr	r0, [r7, #8]
 3018 012a FFF7FEFF 		bl	lv_obj_get_width
 3019 012e 0346     		mov	r3, r0
 3020 0130 9AB2     		uxth	r2, r3
 3021 0132 7B8C     		ldrh	r3, [r7, #34]
 3022 0134 D31A     		subs	r3, r2, r3
 3023 0136 9BB2     		uxth	r3, r3
 3024 0138 FB84     		strh	r3, [r7, #38]	@ movhi
1035:..\..\..\lvgl\version_6.1.2\lvgl\src\lv_core/lv_obj.c ****             new_y = -obj_h_half;
 3025              		.loc 2 1035 0
 3026 013a 3B8C     		ldrh	r3, [r7, #32]
 3027 013c 5B42     		negs	r3, r3
 3028 013e 9BB2     		uxth	r3, r3
 3029 0140 BB84     		strh	r3, [r7, #36]	@ movhi
1036:..\..\..\lvgl\version_6.1.2\lvgl\src\lv_core/lv_obj.c ****             break;
 3030              		.loc 2 1036 0
 3031 0142 22E1     		b	.L131
 3032              	.L137:
1037:..\..\..\lvgl\version_6.1.2\lvgl\src\lv_core/lv_obj.c **** 
1038:..\..\..\lvgl\version_6.1.2\lvgl\src\lv_core/lv_obj.c ****         case LV_ALIGN_IN_BOTTOM_LEFT:
1039:..\..\..\lvgl\version_6.1.2\lvgl\src\lv_core/lv_obj.c ****             new_x = -obj_w_half;
 3033              		.loc 2 1039 0
 3034 0144 7B8C     		ldrh	r3, [r7, #34]
 3035 0146 5B42     		negs	r3, r3
 3036 0148 9BB2     		uxth	r3, r3
 3037 014a FB84     		strh	r3, [r7, #38]	@ movhi
1040:..\..\..\lvgl\version_6.1.2\lvgl\src\lv_core/lv_obj.c ****             new_y = lv_obj_get_height(base) - obj_h_half;
 3038              		.loc 2 1040 0
 3039 014c B868     		ldr	r0, [r7, #8]
 3040 014e FFF7FEFF 		bl	lv_obj_get_height
 3041 0152 0346     		mov	r3, r0
 3042 0154 9AB2     		uxth	r2, r3
 3043 0156 3B8C     		ldrh	r3, [r7, #32]
 3044 0158 D31A     		subs	r3, r2, r3
 3045 015a 9BB2     		uxth	r3, r3
 3046 015c BB84     		strh	r3, [r7, #36]	@ movhi
1041:..\..\..\lvgl\version_6.1.2\lvgl\src\lv_core/lv_obj.c ****             break;
 3047              		.loc 2 1041 0
 3048 015e 14E1     		b	.L131
 3049              	.L138:
1042:..\..\..\lvgl\version_6.1.2\lvgl\src\lv_core/lv_obj.c ****         case LV_ALIGN_IN_BOTTOM_MID:
1043:..\..\..\lvgl\version_6.1.2\lvgl\src\lv_core/lv_obj.c ****             new_x = lv_obj_get_width(base) / 2 - obj_w_half;
 3050              		.loc 2 1043 0
 3051 0160 B868     		ldr	r0, [r7, #8]
 3052 0162 FFF7FEFF 		bl	lv_obj_get_width
 3053 0166 0346     		mov	r3, r0
 3054 0168 DA0F     		lsrs	r2, r3, #31
 3055 016a 1344     		add	r3, r3, r2
 3056 016c 5B10     		asrs	r3, r3, #1
 3057 016e 1BB2     		sxth	r3, r3
 3058 0170 9AB2     		uxth	r2, r3
ARM GAS  C:\Users\tmj32\AppData\Local\Temp\ccxLNxq9.s 			page 75


 3059 0172 7B8C     		ldrh	r3, [r7, #34]
 3060 0174 D31A     		subs	r3, r2, r3
 3061 0176 9BB2     		uxth	r3, r3
 3062 0178 FB84     		strh	r3, [r7, #38]	@ movhi
1044:..\..\..\lvgl\version_6.1.2\lvgl\src\lv_core/lv_obj.c ****             new_y = lv_obj_get_height(base) - obj_h_half;
 3063              		.loc 2 1044 0
 3064 017a B868     		ldr	r0, [r7, #8]
 3065 017c FFF7FEFF 		bl	lv_obj_get_height
 3066 0180 0346     		mov	r3, r0
 3067 0182 9AB2     		uxth	r2, r3
 3068 0184 3B8C     		ldrh	r3, [r7, #32]
 3069 0186 D31A     		subs	r3, r2, r3
 3070 0188 9BB2     		uxth	r3, r3
 3071 018a BB84     		strh	r3, [r7, #36]	@ movhi
1045:..\..\..\lvgl\version_6.1.2\lvgl\src\lv_core/lv_obj.c ****             break;
 3072              		.loc 2 1045 0
 3073 018c FDE0     		b	.L131
 3074              	.L139:
1046:..\..\..\lvgl\version_6.1.2\lvgl\src\lv_core/lv_obj.c **** 
1047:..\..\..\lvgl\version_6.1.2\lvgl\src\lv_core/lv_obj.c ****         case LV_ALIGN_IN_BOTTOM_RIGHT:
1048:..\..\..\lvgl\version_6.1.2\lvgl\src\lv_core/lv_obj.c ****             new_x = lv_obj_get_width(base) - obj_w_half;
 3075              		.loc 2 1048 0
 3076 018e B868     		ldr	r0, [r7, #8]
 3077 0190 FFF7FEFF 		bl	lv_obj_get_width
 3078 0194 0346     		mov	r3, r0
 3079 0196 9AB2     		uxth	r2, r3
 3080 0198 7B8C     		ldrh	r3, [r7, #34]
 3081 019a D31A     		subs	r3, r2, r3
 3082 019c 9BB2     		uxth	r3, r3
 3083 019e FB84     		strh	r3, [r7, #38]	@ movhi
1049:..\..\..\lvgl\version_6.1.2\lvgl\src\lv_core/lv_obj.c ****             new_y = lv_obj_get_height(base) - obj_h_half;
 3084              		.loc 2 1049 0
 3085 01a0 B868     		ldr	r0, [r7, #8]
 3086 01a2 FFF7FEFF 		bl	lv_obj_get_height
 3087 01a6 0346     		mov	r3, r0
 3088 01a8 9AB2     		uxth	r2, r3
 3089 01aa 3B8C     		ldrh	r3, [r7, #32]
 3090 01ac D31A     		subs	r3, r2, r3
 3091 01ae 9BB2     		uxth	r3, r3
 3092 01b0 BB84     		strh	r3, [r7, #36]	@ movhi
1050:..\..\..\lvgl\version_6.1.2\lvgl\src\lv_core/lv_obj.c ****             break;
 3093              		.loc 2 1050 0
 3094 01b2 EAE0     		b	.L131
 3095              	.L140:
1051:..\..\..\lvgl\version_6.1.2\lvgl\src\lv_core/lv_obj.c **** 
1052:..\..\..\lvgl\version_6.1.2\lvgl\src\lv_core/lv_obj.c ****         case LV_ALIGN_IN_LEFT_MID:
1053:..\..\..\lvgl\version_6.1.2\lvgl\src\lv_core/lv_obj.c ****             new_x = -obj_w_half;
 3096              		.loc 2 1053 0
 3097 01b4 7B8C     		ldrh	r3, [r7, #34]
 3098 01b6 5B42     		negs	r3, r3
 3099 01b8 9BB2     		uxth	r3, r3
 3100 01ba FB84     		strh	r3, [r7, #38]	@ movhi
1054:..\..\..\lvgl\version_6.1.2\lvgl\src\lv_core/lv_obj.c ****             new_y = lv_obj_get_height(base) / 2 - obj_h_half;
 3101              		.loc 2 1054 0
 3102 01bc B868     		ldr	r0, [r7, #8]
 3103 01be FFF7FEFF 		bl	lv_obj_get_height
 3104 01c2 0346     		mov	r3, r0
ARM GAS  C:\Users\tmj32\AppData\Local\Temp\ccxLNxq9.s 			page 76


 3105 01c4 DA0F     		lsrs	r2, r3, #31
 3106 01c6 1344     		add	r3, r3, r2
 3107 01c8 5B10     		asrs	r3, r3, #1
 3108 01ca 1BB2     		sxth	r3, r3
 3109 01cc 9AB2     		uxth	r2, r3
 3110 01ce 3B8C     		ldrh	r3, [r7, #32]
 3111 01d0 D31A     		subs	r3, r2, r3
 3112 01d2 9BB2     		uxth	r3, r3
 3113 01d4 BB84     		strh	r3, [r7, #36]	@ movhi
1055:..\..\..\lvgl\version_6.1.2\lvgl\src\lv_core/lv_obj.c ****             break;
 3114              		.loc 2 1055 0
 3115 01d6 D8E0     		b	.L131
 3116              	.L141:
1056:..\..\..\lvgl\version_6.1.2\lvgl\src\lv_core/lv_obj.c **** 
1057:..\..\..\lvgl\version_6.1.2\lvgl\src\lv_core/lv_obj.c ****         case LV_ALIGN_IN_RIGHT_MID:
1058:..\..\..\lvgl\version_6.1.2\lvgl\src\lv_core/lv_obj.c ****             new_x = lv_obj_get_width(base) - obj_w_half;
 3117              		.loc 2 1058 0
 3118 01d8 B868     		ldr	r0, [r7, #8]
 3119 01da FFF7FEFF 		bl	lv_obj_get_width
 3120 01de 0346     		mov	r3, r0
 3121 01e0 9AB2     		uxth	r2, r3
 3122 01e2 7B8C     		ldrh	r3, [r7, #34]
 3123 01e4 D31A     		subs	r3, r2, r3
 3124 01e6 9BB2     		uxth	r3, r3
 3125 01e8 FB84     		strh	r3, [r7, #38]	@ movhi
1059:..\..\..\lvgl\version_6.1.2\lvgl\src\lv_core/lv_obj.c ****             new_y = lv_obj_get_height(base) / 2 - obj_h_half;
 3126              		.loc 2 1059 0
 3127 01ea B868     		ldr	r0, [r7, #8]
 3128 01ec FFF7FEFF 		bl	lv_obj_get_height
 3129 01f0 0346     		mov	r3, r0
 3130 01f2 DA0F     		lsrs	r2, r3, #31
 3131 01f4 1344     		add	r3, r3, r2
 3132 01f6 5B10     		asrs	r3, r3, #1
 3133 01f8 1BB2     		sxth	r3, r3
 3134 01fa 9AB2     		uxth	r2, r3
 3135 01fc 3B8C     		ldrh	r3, [r7, #32]
 3136 01fe D31A     		subs	r3, r2, r3
 3137 0200 9BB2     		uxth	r3, r3
 3138 0202 BB84     		strh	r3, [r7, #36]	@ movhi
1060:..\..\..\lvgl\version_6.1.2\lvgl\src\lv_core/lv_obj.c ****             break;
 3139              		.loc 2 1060 0
 3140 0204 C1E0     		b	.L131
 3141              	.L142:
1061:..\..\..\lvgl\version_6.1.2\lvgl\src\lv_core/lv_obj.c **** 
1062:..\..\..\lvgl\version_6.1.2\lvgl\src\lv_core/lv_obj.c ****         case LV_ALIGN_OUT_TOP_LEFT:
1063:..\..\..\lvgl\version_6.1.2\lvgl\src\lv_core/lv_obj.c ****             new_x = -obj_w_half;
 3142              		.loc 2 1063 0
 3143 0206 7B8C     		ldrh	r3, [r7, #34]
 3144 0208 5B42     		negs	r3, r3
 3145 020a 9BB2     		uxth	r3, r3
 3146 020c FB84     		strh	r3, [r7, #38]	@ movhi
1064:..\..\..\lvgl\version_6.1.2\lvgl\src\lv_core/lv_obj.c ****             new_y = -obj_h_half;
 3147              		.loc 2 1064 0
 3148 020e 3B8C     		ldrh	r3, [r7, #32]
 3149 0210 5B42     		negs	r3, r3
 3150 0212 9BB2     		uxth	r3, r3
 3151 0214 BB84     		strh	r3, [r7, #36]	@ movhi
ARM GAS  C:\Users\tmj32\AppData\Local\Temp\ccxLNxq9.s 			page 77


1065:..\..\..\lvgl\version_6.1.2\lvgl\src\lv_core/lv_obj.c ****             break;
 3152              		.loc 2 1065 0
 3153 0216 B8E0     		b	.L131
 3154              	.L143:
1066:..\..\..\lvgl\version_6.1.2\lvgl\src\lv_core/lv_obj.c **** 
1067:..\..\..\lvgl\version_6.1.2\lvgl\src\lv_core/lv_obj.c ****         case LV_ALIGN_OUT_TOP_MID:
1068:..\..\..\lvgl\version_6.1.2\lvgl\src\lv_core/lv_obj.c ****             new_x = lv_obj_get_width(base) / 2 - obj_w_half;
 3155              		.loc 2 1068 0
 3156 0218 B868     		ldr	r0, [r7, #8]
 3157 021a FFF7FEFF 		bl	lv_obj_get_width
 3158 021e 0346     		mov	r3, r0
 3159 0220 DA0F     		lsrs	r2, r3, #31
 3160 0222 1344     		add	r3, r3, r2
 3161 0224 5B10     		asrs	r3, r3, #1
 3162 0226 1BB2     		sxth	r3, r3
 3163 0228 9AB2     		uxth	r2, r3
 3164 022a 7B8C     		ldrh	r3, [r7, #34]
 3165 022c D31A     		subs	r3, r2, r3
 3166 022e 9BB2     		uxth	r3, r3
 3167 0230 FB84     		strh	r3, [r7, #38]	@ movhi
1069:..\..\..\lvgl\version_6.1.2\lvgl\src\lv_core/lv_obj.c ****             new_y = -obj_h_half;
 3168              		.loc 2 1069 0
 3169 0232 3B8C     		ldrh	r3, [r7, #32]
 3170 0234 5B42     		negs	r3, r3
 3171 0236 9BB2     		uxth	r3, r3
 3172 0238 BB84     		strh	r3, [r7, #36]	@ movhi
1070:..\..\..\lvgl\version_6.1.2\lvgl\src\lv_core/lv_obj.c ****             break;
 3173              		.loc 2 1070 0
 3174 023a A6E0     		b	.L131
 3175              	.L144:
1071:..\..\..\lvgl\version_6.1.2\lvgl\src\lv_core/lv_obj.c **** 
1072:..\..\..\lvgl\version_6.1.2\lvgl\src\lv_core/lv_obj.c ****         case LV_ALIGN_OUT_TOP_RIGHT:
1073:..\..\..\lvgl\version_6.1.2\lvgl\src\lv_core/lv_obj.c ****             new_x = lv_obj_get_width(base) - obj_w_half;
 3176              		.loc 2 1073 0
 3177 023c B868     		ldr	r0, [r7, #8]
 3178 023e FFF7FEFF 		bl	lv_obj_get_width
 3179 0242 0346     		mov	r3, r0
 3180 0244 9AB2     		uxth	r2, r3
 3181 0246 7B8C     		ldrh	r3, [r7, #34]
 3182 0248 D31A     		subs	r3, r2, r3
 3183 024a 9BB2     		uxth	r3, r3
 3184 024c FB84     		strh	r3, [r7, #38]	@ movhi
1074:..\..\..\lvgl\version_6.1.2\lvgl\src\lv_core/lv_obj.c ****             new_y = -obj_h_half;
 3185              		.loc 2 1074 0
 3186 024e 3B8C     		ldrh	r3, [r7, #32]
 3187 0250 5B42     		negs	r3, r3
 3188 0252 9BB2     		uxth	r3, r3
 3189 0254 BB84     		strh	r3, [r7, #36]	@ movhi
1075:..\..\..\lvgl\version_6.1.2\lvgl\src\lv_core/lv_obj.c ****             break;
 3190              		.loc 2 1075 0
 3191 0256 98E0     		b	.L131
 3192              	.L145:
1076:..\..\..\lvgl\version_6.1.2\lvgl\src\lv_core/lv_obj.c **** 
1077:..\..\..\lvgl\version_6.1.2\lvgl\src\lv_core/lv_obj.c ****         case LV_ALIGN_OUT_BOTTOM_LEFT:
1078:..\..\..\lvgl\version_6.1.2\lvgl\src\lv_core/lv_obj.c ****             new_x = -obj_w_half;
 3193              		.loc 2 1078 0
 3194 0258 7B8C     		ldrh	r3, [r7, #34]
ARM GAS  C:\Users\tmj32\AppData\Local\Temp\ccxLNxq9.s 			page 78


 3195 025a 5B42     		negs	r3, r3
 3196 025c 9BB2     		uxth	r3, r3
 3197 025e FB84     		strh	r3, [r7, #38]	@ movhi
1079:..\..\..\lvgl\version_6.1.2\lvgl\src\lv_core/lv_obj.c ****             new_y = lv_obj_get_height(base) - obj_h_half;
 3198              		.loc 2 1079 0
 3199 0260 B868     		ldr	r0, [r7, #8]
 3200 0262 FFF7FEFF 		bl	lv_obj_get_height
 3201 0266 0346     		mov	r3, r0
 3202 0268 9AB2     		uxth	r2, r3
 3203 026a 3B8C     		ldrh	r3, [r7, #32]
 3204 026c D31A     		subs	r3, r2, r3
 3205 026e 9BB2     		uxth	r3, r3
 3206 0270 BB84     		strh	r3, [r7, #36]	@ movhi
1080:..\..\..\lvgl\version_6.1.2\lvgl\src\lv_core/lv_obj.c ****             break;
 3207              		.loc 2 1080 0
 3208 0272 8AE0     		b	.L131
 3209              	.L146:
1081:..\..\..\lvgl\version_6.1.2\lvgl\src\lv_core/lv_obj.c **** 
1082:..\..\..\lvgl\version_6.1.2\lvgl\src\lv_core/lv_obj.c ****         case LV_ALIGN_OUT_BOTTOM_MID:
1083:..\..\..\lvgl\version_6.1.2\lvgl\src\lv_core/lv_obj.c ****             new_x = lv_obj_get_width(base) / 2 - obj_w_half;
 3210              		.loc 2 1083 0
 3211 0274 B868     		ldr	r0, [r7, #8]
 3212 0276 FFF7FEFF 		bl	lv_obj_get_width
 3213 027a 0346     		mov	r3, r0
 3214 027c DA0F     		lsrs	r2, r3, #31
 3215 027e 1344     		add	r3, r3, r2
 3216 0280 5B10     		asrs	r3, r3, #1
 3217 0282 1BB2     		sxth	r3, r3
 3218 0284 9AB2     		uxth	r2, r3
 3219 0286 7B8C     		ldrh	r3, [r7, #34]
 3220 0288 D31A     		subs	r3, r2, r3
 3221 028a 9BB2     		uxth	r3, r3
 3222 028c FB84     		strh	r3, [r7, #38]	@ movhi
1084:..\..\..\lvgl\version_6.1.2\lvgl\src\lv_core/lv_obj.c ****             new_y = lv_obj_get_height(base) - obj_h_half;
 3223              		.loc 2 1084 0
 3224 028e B868     		ldr	r0, [r7, #8]
 3225 0290 FFF7FEFF 		bl	lv_obj_get_height
 3226 0294 0346     		mov	r3, r0
 3227 0296 9AB2     		uxth	r2, r3
 3228 0298 3B8C     		ldrh	r3, [r7, #32]
 3229 029a D31A     		subs	r3, r2, r3
 3230 029c 9BB2     		uxth	r3, r3
 3231 029e BB84     		strh	r3, [r7, #36]	@ movhi
1085:..\..\..\lvgl\version_6.1.2\lvgl\src\lv_core/lv_obj.c ****             break;
 3232              		.loc 2 1085 0
 3233 02a0 73E0     		b	.L131
 3234              	.L147:
1086:..\..\..\lvgl\version_6.1.2\lvgl\src\lv_core/lv_obj.c **** 
1087:..\..\..\lvgl\version_6.1.2\lvgl\src\lv_core/lv_obj.c ****         case LV_ALIGN_OUT_BOTTOM_RIGHT:
1088:..\..\..\lvgl\version_6.1.2\lvgl\src\lv_core/lv_obj.c ****             new_x = lv_obj_get_width(base) - obj_w_half;
 3235              		.loc 2 1088 0
 3236 02a2 B868     		ldr	r0, [r7, #8]
 3237 02a4 FFF7FEFF 		bl	lv_obj_get_width
 3238 02a8 0346     		mov	r3, r0
 3239 02aa 9AB2     		uxth	r2, r3
 3240 02ac 7B8C     		ldrh	r3, [r7, #34]
 3241 02ae D31A     		subs	r3, r2, r3
ARM GAS  C:\Users\tmj32\AppData\Local\Temp\ccxLNxq9.s 			page 79


 3242 02b0 9BB2     		uxth	r3, r3
 3243 02b2 FB84     		strh	r3, [r7, #38]	@ movhi
1089:..\..\..\lvgl\version_6.1.2\lvgl\src\lv_core/lv_obj.c ****             new_y = lv_obj_get_height(base) - obj_h_half;
 3244              		.loc 2 1089 0
 3245 02b4 B868     		ldr	r0, [r7, #8]
 3246 02b6 FFF7FEFF 		bl	lv_obj_get_height
 3247 02ba 0346     		mov	r3, r0
 3248 02bc 9AB2     		uxth	r2, r3
 3249 02be 3B8C     		ldrh	r3, [r7, #32]
 3250 02c0 D31A     		subs	r3, r2, r3
 3251 02c2 9BB2     		uxth	r3, r3
 3252 02c4 BB84     		strh	r3, [r7, #36]	@ movhi
1090:..\..\..\lvgl\version_6.1.2\lvgl\src\lv_core/lv_obj.c ****             break;
 3253              		.loc 2 1090 0
 3254 02c6 60E0     		b	.L131
 3255              	.L148:
1091:..\..\..\lvgl\version_6.1.2\lvgl\src\lv_core/lv_obj.c **** 
1092:..\..\..\lvgl\version_6.1.2\lvgl\src\lv_core/lv_obj.c ****         case LV_ALIGN_OUT_LEFT_TOP:
1093:..\..\..\lvgl\version_6.1.2\lvgl\src\lv_core/lv_obj.c ****             new_x = -obj_w_half;
 3256              		.loc 2 1093 0
 3257 02c8 7B8C     		ldrh	r3, [r7, #34]
 3258 02ca 5B42     		negs	r3, r3
 3259 02cc 9BB2     		uxth	r3, r3
 3260 02ce FB84     		strh	r3, [r7, #38]	@ movhi
1094:..\..\..\lvgl\version_6.1.2\lvgl\src\lv_core/lv_obj.c ****             new_y = -obj_h_half;
 3261              		.loc 2 1094 0
 3262 02d0 3B8C     		ldrh	r3, [r7, #32]
 3263 02d2 5B42     		negs	r3, r3
 3264 02d4 9BB2     		uxth	r3, r3
 3265 02d6 BB84     		strh	r3, [r7, #36]	@ movhi
1095:..\..\..\lvgl\version_6.1.2\lvgl\src\lv_core/lv_obj.c ****             break;
 3266              		.loc 2 1095 0
 3267 02d8 57E0     		b	.L131
 3268              	.L149:
1096:..\..\..\lvgl\version_6.1.2\lvgl\src\lv_core/lv_obj.c **** 
1097:..\..\..\lvgl\version_6.1.2\lvgl\src\lv_core/lv_obj.c ****         case LV_ALIGN_OUT_LEFT_MID:
1098:..\..\..\lvgl\version_6.1.2\lvgl\src\lv_core/lv_obj.c ****             new_x = -obj_w_half;
 3269              		.loc 2 1098 0
 3270 02da 7B8C     		ldrh	r3, [r7, #34]
 3271 02dc 5B42     		negs	r3, r3
 3272 02de 9BB2     		uxth	r3, r3
 3273 02e0 FB84     		strh	r3, [r7, #38]	@ movhi
1099:..\..\..\lvgl\version_6.1.2\lvgl\src\lv_core/lv_obj.c ****             new_y = lv_obj_get_height(base) / 2 - obj_h_half;
 3274              		.loc 2 1099 0
 3275 02e2 B868     		ldr	r0, [r7, #8]
 3276 02e4 FFF7FEFF 		bl	lv_obj_get_height
 3277 02e8 0346     		mov	r3, r0
 3278 02ea DA0F     		lsrs	r2, r3, #31
 3279 02ec 1344     		add	r3, r3, r2
 3280 02ee 5B10     		asrs	r3, r3, #1
 3281 02f0 1BB2     		sxth	r3, r3
 3282 02f2 9AB2     		uxth	r2, r3
 3283 02f4 3B8C     		ldrh	r3, [r7, #32]
 3284 02f6 D31A     		subs	r3, r2, r3
 3285 02f8 9BB2     		uxth	r3, r3
 3286 02fa BB84     		strh	r3, [r7, #36]	@ movhi
1100:..\..\..\lvgl\version_6.1.2\lvgl\src\lv_core/lv_obj.c ****             break;
ARM GAS  C:\Users\tmj32\AppData\Local\Temp\ccxLNxq9.s 			page 80


 3287              		.loc 2 1100 0
 3288 02fc 45E0     		b	.L131
 3289              	.L150:
1101:..\..\..\lvgl\version_6.1.2\lvgl\src\lv_core/lv_obj.c **** 
1102:..\..\..\lvgl\version_6.1.2\lvgl\src\lv_core/lv_obj.c ****         case LV_ALIGN_OUT_LEFT_BOTTOM:
1103:..\..\..\lvgl\version_6.1.2\lvgl\src\lv_core/lv_obj.c ****             new_x = -obj_w_half;
 3290              		.loc 2 1103 0
 3291 02fe 7B8C     		ldrh	r3, [r7, #34]
 3292 0300 5B42     		negs	r3, r3
 3293 0302 9BB2     		uxth	r3, r3
 3294 0304 FB84     		strh	r3, [r7, #38]	@ movhi
1104:..\..\..\lvgl\version_6.1.2\lvgl\src\lv_core/lv_obj.c ****             new_y = lv_obj_get_height(base) - obj_h_half;
 3295              		.loc 2 1104 0
 3296 0306 B868     		ldr	r0, [r7, #8]
 3297 0308 FFF7FEFF 		bl	lv_obj_get_height
 3298 030c 0346     		mov	r3, r0
 3299 030e 9AB2     		uxth	r2, r3
 3300 0310 3B8C     		ldrh	r3, [r7, #32]
 3301 0312 D31A     		subs	r3, r2, r3
 3302 0314 9BB2     		uxth	r3, r3
 3303 0316 BB84     		strh	r3, [r7, #36]	@ movhi
1105:..\..\..\lvgl\version_6.1.2\lvgl\src\lv_core/lv_obj.c ****             break;
 3304              		.loc 2 1105 0
 3305 0318 37E0     		b	.L131
 3306              	.L151:
1106:..\..\..\lvgl\version_6.1.2\lvgl\src\lv_core/lv_obj.c **** 
1107:..\..\..\lvgl\version_6.1.2\lvgl\src\lv_core/lv_obj.c ****         case LV_ALIGN_OUT_RIGHT_TOP:
1108:..\..\..\lvgl\version_6.1.2\lvgl\src\lv_core/lv_obj.c ****             new_x = lv_obj_get_width(base) - obj_w_half;
 3307              		.loc 2 1108 0
 3308 031a B868     		ldr	r0, [r7, #8]
 3309 031c FFF7FEFF 		bl	lv_obj_get_width
 3310 0320 0346     		mov	r3, r0
 3311 0322 9AB2     		uxth	r2, r3
 3312 0324 7B8C     		ldrh	r3, [r7, #34]
 3313 0326 D31A     		subs	r3, r2, r3
 3314 0328 9BB2     		uxth	r3, r3
 3315 032a FB84     		strh	r3, [r7, #38]	@ movhi
1109:..\..\..\lvgl\version_6.1.2\lvgl\src\lv_core/lv_obj.c ****             new_y = -obj_h_half;
 3316              		.loc 2 1109 0
 3317 032c 3B8C     		ldrh	r3, [r7, #32]
 3318 032e 5B42     		negs	r3, r3
 3319 0330 9BB2     		uxth	r3, r3
 3320 0332 BB84     		strh	r3, [r7, #36]	@ movhi
1110:..\..\..\lvgl\version_6.1.2\lvgl\src\lv_core/lv_obj.c ****             break;
 3321              		.loc 2 1110 0
 3322 0334 29E0     		b	.L131
 3323              	.L152:
1111:..\..\..\lvgl\version_6.1.2\lvgl\src\lv_core/lv_obj.c **** 
1112:..\..\..\lvgl\version_6.1.2\lvgl\src\lv_core/lv_obj.c ****         case LV_ALIGN_OUT_RIGHT_MID:
1113:..\..\..\lvgl\version_6.1.2\lvgl\src\lv_core/lv_obj.c ****             new_x = lv_obj_get_width(base) - obj_w_half;
 3324              		.loc 2 1113 0
 3325 0336 B868     		ldr	r0, [r7, #8]
 3326 0338 FFF7FEFF 		bl	lv_obj_get_width
 3327 033c 0346     		mov	r3, r0
 3328 033e 9AB2     		uxth	r2, r3
 3329 0340 7B8C     		ldrh	r3, [r7, #34]
 3330 0342 D31A     		subs	r3, r2, r3
ARM GAS  C:\Users\tmj32\AppData\Local\Temp\ccxLNxq9.s 			page 81


 3331 0344 9BB2     		uxth	r3, r3
 3332 0346 FB84     		strh	r3, [r7, #38]	@ movhi
1114:..\..\..\lvgl\version_6.1.2\lvgl\src\lv_core/lv_obj.c ****             new_y = lv_obj_get_height(base) / 2 - obj_h_half;
 3333              		.loc 2 1114 0
 3334 0348 B868     		ldr	r0, [r7, #8]
 3335 034a FFF7FEFF 		bl	lv_obj_get_height
 3336 034e 0346     		mov	r3, r0
 3337 0350 DA0F     		lsrs	r2, r3, #31
 3338 0352 1344     		add	r3, r3, r2
 3339 0354 5B10     		asrs	r3, r3, #1
 3340 0356 1BB2     		sxth	r3, r3
 3341 0358 9AB2     		uxth	r2, r3
 3342 035a 3B8C     		ldrh	r3, [r7, #32]
 3343 035c D31A     		subs	r3, r2, r3
 3344 035e 9BB2     		uxth	r3, r3
 3345 0360 BB84     		strh	r3, [r7, #36]	@ movhi
1115:..\..\..\lvgl\version_6.1.2\lvgl\src\lv_core/lv_obj.c ****             break;
 3346              		.loc 2 1115 0
 3347 0362 12E0     		b	.L131
 3348              	.L153:
1116:..\..\..\lvgl\version_6.1.2\lvgl\src\lv_core/lv_obj.c **** 
1117:..\..\..\lvgl\version_6.1.2\lvgl\src\lv_core/lv_obj.c ****         case LV_ALIGN_OUT_RIGHT_BOTTOM:
1118:..\..\..\lvgl\version_6.1.2\lvgl\src\lv_core/lv_obj.c ****             new_x = lv_obj_get_width(base) - obj_w_half;
 3349              		.loc 2 1118 0
 3350 0364 B868     		ldr	r0, [r7, #8]
 3351 0366 FFF7FEFF 		bl	lv_obj_get_width
 3352 036a 0346     		mov	r3, r0
 3353 036c 9AB2     		uxth	r2, r3
 3354 036e 7B8C     		ldrh	r3, [r7, #34]
 3355 0370 D31A     		subs	r3, r2, r3
 3356 0372 9BB2     		uxth	r3, r3
 3357 0374 FB84     		strh	r3, [r7, #38]	@ movhi
1119:..\..\..\lvgl\version_6.1.2\lvgl\src\lv_core/lv_obj.c ****             new_y = lv_obj_get_height(base) - obj_h_half;
 3358              		.loc 2 1119 0
 3359 0376 B868     		ldr	r0, [r7, #8]
 3360 0378 FFF7FEFF 		bl	lv_obj_get_height
 3361 037c 0346     		mov	r3, r0
 3362 037e 9AB2     		uxth	r2, r3
 3363 0380 3B8C     		ldrh	r3, [r7, #32]
 3364 0382 D31A     		subs	r3, r2, r3
 3365 0384 9BB2     		uxth	r3, r3
 3366 0386 BB84     		strh	r3, [r7, #36]	@ movhi
1120:..\..\..\lvgl\version_6.1.2\lvgl\src\lv_core/lv_obj.c ****             break;
 3367              		.loc 2 1120 0
 3368 0388 00BF     		nop
 3369              	.L131:
1121:..\..\..\lvgl\version_6.1.2\lvgl\src\lv_core/lv_obj.c ****     }
1122:..\..\..\lvgl\version_6.1.2\lvgl\src\lv_core/lv_obj.c **** 
1123:..\..\..\lvgl\version_6.1.2\lvgl\src\lv_core/lv_obj.c ****     /*Bring together the coordination system of base and obj*/
1124:..\..\..\lvgl\version_6.1.2\lvgl\src\lv_core/lv_obj.c ****     lv_obj_t * par        = lv_obj_get_parent(obj);
 3370              		.loc 2 1124 0
 3371 038a F868     		ldr	r0, [r7, #12]
 3372 038c FFF7FEFF 		bl	lv_obj_get_parent
 3373 0390 F861     		str	r0, [r7, #28]
1125:..\..\..\lvgl\version_6.1.2\lvgl\src\lv_core/lv_obj.c ****     lv_coord_t base_abs_x = base->coords.x1;
 3374              		.loc 2 1125 0
 3375 0392 BB68     		ldr	r3, [r7, #8]
ARM GAS  C:\Users\tmj32\AppData\Local\Temp\ccxLNxq9.s 			page 82


 3376 0394 1B8A     		ldrh	r3, [r3, #16]	@ movhi
 3377 0396 7B83     		strh	r3, [r7, #26]	@ movhi
1126:..\..\..\lvgl\version_6.1.2\lvgl\src\lv_core/lv_obj.c ****     lv_coord_t base_abs_y = base->coords.y1;
 3378              		.loc 2 1126 0
 3379 0398 BB68     		ldr	r3, [r7, #8]
 3380 039a 5B8A     		ldrh	r3, [r3, #18]	@ movhi
 3381 039c 3B83     		strh	r3, [r7, #24]	@ movhi
1127:..\..\..\lvgl\version_6.1.2\lvgl\src\lv_core/lv_obj.c ****     lv_coord_t par_abs_x  = par->coords.x1;
 3382              		.loc 2 1127 0
 3383 039e FB69     		ldr	r3, [r7, #28]
 3384 03a0 1B8A     		ldrh	r3, [r3, #16]	@ movhi
 3385 03a2 FB82     		strh	r3, [r7, #22]	@ movhi
1128:..\..\..\lvgl\version_6.1.2\lvgl\src\lv_core/lv_obj.c ****     lv_coord_t par_abs_y  = par->coords.y1;
 3386              		.loc 2 1128 0
 3387 03a4 FB69     		ldr	r3, [r7, #28]
 3388 03a6 5B8A     		ldrh	r3, [r3, #18]	@ movhi
 3389 03a8 BB82     		strh	r3, [r7, #20]	@ movhi
1129:..\..\..\lvgl\version_6.1.2\lvgl\src\lv_core/lv_obj.c ****     new_x += x_mod + base_abs_x;
 3390              		.loc 2 1129 0
 3391 03aa BA88     		ldrh	r2, [r7, #4]
 3392 03ac 7B8B     		ldrh	r3, [r7, #26]
 3393 03ae 1344     		add	r3, r3, r2
 3394 03b0 9AB2     		uxth	r2, r3
 3395 03b2 FB8C     		ldrh	r3, [r7, #38]
 3396 03b4 1344     		add	r3, r3, r2
 3397 03b6 9BB2     		uxth	r3, r3
 3398 03b8 FB84     		strh	r3, [r7, #38]	@ movhi
1130:..\..\..\lvgl\version_6.1.2\lvgl\src\lv_core/lv_obj.c ****     new_y += y_mod + base_abs_y;
 3399              		.loc 2 1130 0
 3400 03ba 3A8E     		ldrh	r2, [r7, #48]
 3401 03bc 3B8B     		ldrh	r3, [r7, #24]
 3402 03be 1344     		add	r3, r3, r2
 3403 03c0 9AB2     		uxth	r2, r3
 3404 03c2 BB8C     		ldrh	r3, [r7, #36]
 3405 03c4 1344     		add	r3, r3, r2
