ARM GAS  C:\Users\tmj32\AppData\Local\Temp\ccxLNxq9.s 			page 1


   1              		.syntax unified
   2              		.cpu cortex-m4
   3              		.eabi_attribute 27, 1
   4              		.fpu fpv4-sp-d16
   5              		.eabi_attribute 20, 1
   6              		.eabi_attribute 21, 1
   7              		.eabi_attribute 23, 3
   8              		.eabi_attribute 24, 1
   9              		.eabi_attribute 25, 1
  10              		.eabi_attribute 26, 1
  11              		.eabi_attribute 30, 6
  12              		.eabi_attribute 34, 1
  13              		.eabi_attribute 18, 4
  14              		.thumb
  15              		.syntax unified
  16              		.file	"lv_obj.c"
  17              		.text
  18              	.Ltext0:
  19              		.cfi_sections	.debug_frame
  20              		.section	.text.lv_area_copy,"ax",%progbits
  21              		.align	2
  22              		.thumb
  23              		.thumb_func
  24              		.type	lv_area_copy, %function
  25              	lv_area_copy:
  26              	.LFB10:
  27              		.file 1 "..\\..\\..\\lvgl\\version_6.1.2\\lvgl\\src\\lv_core\\../lv_misc/lv_area.h"
   1:..\..\..\lvgl\version_6.1.2\lvgl\src\lv_core\../lv_misc/lv_area.h **** /**
   2:..\..\..\lvgl\version_6.1.2\lvgl\src\lv_core\../lv_misc/lv_area.h ****  * @file lv_area.h
   3:..\..\..\lvgl\version_6.1.2\lvgl\src\lv_core\../lv_misc/lv_area.h ****  *
   4:..\..\..\lvgl\version_6.1.2\lvgl\src\lv_core\../lv_misc/lv_area.h ****  */
   5:..\..\..\lvgl\version_6.1.2\lvgl\src\lv_core\../lv_misc/lv_area.h **** 
   6:..\..\..\lvgl\version_6.1.2\lvgl\src\lv_core\../lv_misc/lv_area.h **** #ifndef LV_AREA_H
   7:..\..\..\lvgl\version_6.1.2\lvgl\src\lv_core\../lv_misc/lv_area.h **** #define LV_AREA_H
   8:..\..\..\lvgl\version_6.1.2\lvgl\src\lv_core\../lv_misc/lv_area.h **** 
   9:..\..\..\lvgl\version_6.1.2\lvgl\src\lv_core\../lv_misc/lv_area.h **** #ifdef __cplusplus
  10:..\..\..\lvgl\version_6.1.2\lvgl\src\lv_core\../lv_misc/lv_area.h **** extern "C" {
  11:..\..\..\lvgl\version_6.1.2\lvgl\src\lv_core\../lv_misc/lv_area.h **** #endif
  12:..\..\..\lvgl\version_6.1.2\lvgl\src\lv_core\../lv_misc/lv_area.h **** 
  13:..\..\..\lvgl\version_6.1.2\lvgl\src\lv_core\../lv_misc/lv_area.h **** /*********************
  14:..\..\..\lvgl\version_6.1.2\lvgl\src\lv_core\../lv_misc/lv_area.h ****  *      INCLUDES
  15:..\..\..\lvgl\version_6.1.2\lvgl\src\lv_core\../lv_misc/lv_area.h ****  *********************/
  16:..\..\..\lvgl\version_6.1.2\lvgl\src\lv_core\../lv_misc/lv_area.h **** #include <string.h>
  17:..\..\..\lvgl\version_6.1.2\lvgl\src\lv_core\../lv_misc/lv_area.h **** #include <stdbool.h>
  18:..\..\..\lvgl\version_6.1.2\lvgl\src\lv_core\../lv_misc/lv_area.h **** #include <stdint.h>
  19:..\..\..\lvgl\version_6.1.2\lvgl\src\lv_core\../lv_misc/lv_area.h **** #ifdef LV_CONF_INCLUDE_SIMPLE
  20:..\..\..\lvgl\version_6.1.2\lvgl\src\lv_core\../lv_misc/lv_area.h **** #include "lv_conf.h"
  21:..\..\..\lvgl\version_6.1.2\lvgl\src\lv_core\../lv_misc/lv_area.h **** #else
  22:..\..\..\lvgl\version_6.1.2\lvgl\src\lv_core\../lv_misc/lv_area.h **** #include "../../../lv_conf.h"
  23:..\..\..\lvgl\version_6.1.2\lvgl\src\lv_core\../lv_misc/lv_area.h **** #endif
  24:..\..\..\lvgl\version_6.1.2\lvgl\src\lv_core\../lv_misc/lv_area.h **** 
  25:..\..\..\lvgl\version_6.1.2\lvgl\src\lv_core\../lv_misc/lv_area.h **** /*********************
  26:..\..\..\lvgl\version_6.1.2\lvgl\src\lv_core\../lv_misc/lv_area.h ****  *      DEFINES
  27:..\..\..\lvgl\version_6.1.2\lvgl\src\lv_core\../lv_misc/lv_area.h ****  *********************/
  28:..\..\..\lvgl\version_6.1.2\lvgl\src\lv_core\../lv_misc/lv_area.h **** /*To avoid overflow don't let the max ranges (reduce with 1000) */
  29:..\..\..\lvgl\version_6.1.2\lvgl\src\lv_core\../lv_misc/lv_area.h **** #define LV_COORD_MAX ((lv_coord_t)((uint32_t)((uint32_t)1 << (8 * sizeof(lv_coord_t) - 1)) - 1000))
  30:..\..\..\lvgl\version_6.1.2\lvgl\src\lv_core\../lv_misc/lv_area.h **** #define LV_COORD_MIN (-LV_COORD_MAX)
ARM GAS  C:\Users\tmj32\AppData\Local\Temp\ccxLNxq9.s 			page 2


  31:..\..\..\lvgl\version_6.1.2\lvgl\src\lv_core\../lv_misc/lv_area.h **** 
  32:..\..\..\lvgl\version_6.1.2\lvgl\src\lv_core\../lv_misc/lv_area.h **** LV_EXPORT_CONST_INT(LV_COORD_MAX);
  33:..\..\..\lvgl\version_6.1.2\lvgl\src\lv_core\../lv_misc/lv_area.h **** LV_EXPORT_CONST_INT(LV_COORD_MIN);
  34:..\..\..\lvgl\version_6.1.2\lvgl\src\lv_core\../lv_misc/lv_area.h **** 
  35:..\..\..\lvgl\version_6.1.2\lvgl\src\lv_core\../lv_misc/lv_area.h **** /**********************
  36:..\..\..\lvgl\version_6.1.2\lvgl\src\lv_core\../lv_misc/lv_area.h ****  *      TYPEDEFS
  37:..\..\..\lvgl\version_6.1.2\lvgl\src\lv_core\../lv_misc/lv_area.h ****  **********************/
  38:..\..\..\lvgl\version_6.1.2\lvgl\src\lv_core\../lv_misc/lv_area.h **** 
  39:..\..\..\lvgl\version_6.1.2\lvgl\src\lv_core\../lv_misc/lv_area.h **** /**
  40:..\..\..\lvgl\version_6.1.2\lvgl\src\lv_core\../lv_misc/lv_area.h ****  * Represents a point on the screen.
  41:..\..\..\lvgl\version_6.1.2\lvgl\src\lv_core\../lv_misc/lv_area.h ****  */
  42:..\..\..\lvgl\version_6.1.2\lvgl\src\lv_core\../lv_misc/lv_area.h **** typedef struct
  43:..\..\..\lvgl\version_6.1.2\lvgl\src\lv_core\../lv_misc/lv_area.h **** {
  44:..\..\..\lvgl\version_6.1.2\lvgl\src\lv_core\../lv_misc/lv_area.h ****     lv_coord_t x;
  45:..\..\..\lvgl\version_6.1.2\lvgl\src\lv_core\../lv_misc/lv_area.h ****     lv_coord_t y;
  46:..\..\..\lvgl\version_6.1.2\lvgl\src\lv_core\../lv_misc/lv_area.h **** } lv_point_t;
  47:..\..\..\lvgl\version_6.1.2\lvgl\src\lv_core\../lv_misc/lv_area.h **** 
  48:..\..\..\lvgl\version_6.1.2\lvgl\src\lv_core\../lv_misc/lv_area.h **** /** Represents an area of the screen. */
  49:..\..\..\lvgl\version_6.1.2\lvgl\src\lv_core\../lv_misc/lv_area.h **** typedef struct
  50:..\..\..\lvgl\version_6.1.2\lvgl\src\lv_core\../lv_misc/lv_area.h **** {
  51:..\..\..\lvgl\version_6.1.2\lvgl\src\lv_core\../lv_misc/lv_area.h ****     lv_coord_t x1;
  52:..\..\..\lvgl\version_6.1.2\lvgl\src\lv_core\../lv_misc/lv_area.h ****     lv_coord_t y1;
  53:..\..\..\lvgl\version_6.1.2\lvgl\src\lv_core\../lv_misc/lv_area.h ****     lv_coord_t x2;
  54:..\..\..\lvgl\version_6.1.2\lvgl\src\lv_core\../lv_misc/lv_area.h ****     lv_coord_t y2;
  55:..\..\..\lvgl\version_6.1.2\lvgl\src\lv_core\../lv_misc/lv_area.h **** } lv_area_t;
  56:..\..\..\lvgl\version_6.1.2\lvgl\src\lv_core\../lv_misc/lv_area.h **** 
  57:..\..\..\lvgl\version_6.1.2\lvgl\src\lv_core\../lv_misc/lv_area.h **** /**********************
  58:..\..\..\lvgl\version_6.1.2\lvgl\src\lv_core\../lv_misc/lv_area.h ****  * GLOBAL PROTOTYPES
  59:..\..\..\lvgl\version_6.1.2\lvgl\src\lv_core\../lv_misc/lv_area.h ****  **********************/
  60:..\..\..\lvgl\version_6.1.2\lvgl\src\lv_core\../lv_misc/lv_area.h **** 
  61:..\..\..\lvgl\version_6.1.2\lvgl\src\lv_core\../lv_misc/lv_area.h **** /**
  62:..\..\..\lvgl\version_6.1.2\lvgl\src\lv_core\../lv_misc/lv_area.h ****  * Initialize an area
  63:..\..\..\lvgl\version_6.1.2\lvgl\src\lv_core\../lv_misc/lv_area.h ****  * @param area_p pointer to an area
  64:..\..\..\lvgl\version_6.1.2\lvgl\src\lv_core\../lv_misc/lv_area.h ****  * @param x1 left coordinate of the area
  65:..\..\..\lvgl\version_6.1.2\lvgl\src\lv_core\../lv_misc/lv_area.h ****  * @param y1 top coordinate of the area
  66:..\..\..\lvgl\version_6.1.2\lvgl\src\lv_core\../lv_misc/lv_area.h ****  * @param x2 right coordinate of the area
  67:..\..\..\lvgl\version_6.1.2\lvgl\src\lv_core\../lv_misc/lv_area.h ****  * @param y2 bottom coordinate of the area
  68:..\..\..\lvgl\version_6.1.2\lvgl\src\lv_core\../lv_misc/lv_area.h ****  */
  69:..\..\..\lvgl\version_6.1.2\lvgl\src\lv_core\../lv_misc/lv_area.h **** void lv_area_set(lv_area_t * area_p, lv_coord_t x1, lv_coord_t y1, lv_coord_t x2, lv_coord_t y2);
  70:..\..\..\lvgl\version_6.1.2\lvgl\src\lv_core\../lv_misc/lv_area.h **** 
  71:..\..\..\lvgl\version_6.1.2\lvgl\src\lv_core\../lv_misc/lv_area.h **** /**
  72:..\..\..\lvgl\version_6.1.2\lvgl\src\lv_core\../lv_misc/lv_area.h ****  * Copy an area
  73:..\..\..\lvgl\version_6.1.2\lvgl\src\lv_core\../lv_misc/lv_area.h ****  * @param dest pointer to the destination area
  74:..\..\..\lvgl\version_6.1.2\lvgl\src\lv_core\../lv_misc/lv_area.h ****  * @param src pointer to the source area
  75:..\..\..\lvgl\version_6.1.2\lvgl\src\lv_core\../lv_misc/lv_area.h ****  */
  76:..\..\..\lvgl\version_6.1.2\lvgl\src\lv_core\../lv_misc/lv_area.h **** inline static void lv_area_copy(lv_area_t * dest, const lv_area_t * src)
  77:..\..\..\lvgl\version_6.1.2\lvgl\src\lv_core\../lv_misc/lv_area.h **** {
  28              		.loc 1 77 0
  29              		.cfi_startproc
  30              		@ args = 0, pretend = 0, frame = 8
  31              		@ frame_needed = 1, uses_anonymous_args = 0
  32 0000 80B5     		push	{r7, lr}
  33              		.cfi_def_cfa_offset 8
  34              		.cfi_offset 7, -8
  35              		.cfi_offset 14, -4
  36 0002 82B0     		sub	sp, sp, #8
  37              		.cfi_def_cfa_offset 16
ARM GAS  C:\Users\tmj32\AppData\Local\Temp\ccxLNxq9.s 			page 3


  38 0004 00AF     		add	r7, sp, #0
  39              		.cfi_def_cfa_register 7
  40 0006 7860     		str	r0, [r7, #4]
  41 0008 3960     		str	r1, [r7]
  78:..\..\..\lvgl\version_6.1.2\lvgl\src\lv_core\../lv_misc/lv_area.h ****     memcpy(dest, src, sizeof(lv_area_t));
  42              		.loc 1 78 0
  43 000a 0822     		movs	r2, #8
  44 000c 3968     		ldr	r1, [r7]
  45 000e 7868     		ldr	r0, [r7, #4]
  46 0010 FFF7FEFF 		bl	memcpy
  79:..\..\..\lvgl\version_6.1.2\lvgl\src\lv_core\../lv_misc/lv_area.h **** }
  47              		.loc 1 79 0
  48 0014 00BF     		nop
  49 0016 0837     		adds	r7, r7, #8
  50              		.cfi_def_cfa_offset 8
  51 0018 BD46     		mov	sp, r7
  52              		.cfi_def_cfa_register 13
  53              		@ sp needed
  54 001a 80BD     		pop	{r7, pc}
  55              		.cfi_endproc
  56              	.LFE10:
  57              		.size	lv_area_copy, .-lv_area_copy
  58              		.section	.text.lv_area_get_width,"ax",%progbits
  59              		.align	2
  60              		.thumb
  61              		.thumb_func
  62              		.type	lv_area_get_width, %function
  63              	lv_area_get_width:
  64              	.LFB11:
  80:..\..\..\lvgl\version_6.1.2\lvgl\src\lv_core\../lv_misc/lv_area.h **** 
  81:..\..\..\lvgl\version_6.1.2\lvgl\src\lv_core\../lv_misc/lv_area.h **** /**
  82:..\..\..\lvgl\version_6.1.2\lvgl\src\lv_core\../lv_misc/lv_area.h ****  * Get the width of an area
  83:..\..\..\lvgl\version_6.1.2\lvgl\src\lv_core\../lv_misc/lv_area.h ****  * @param area_p pointer to an area
  84:..\..\..\lvgl\version_6.1.2\lvgl\src\lv_core\../lv_misc/lv_area.h ****  * @return the width of the area (if x1 == x2 -> width = 1)
  85:..\..\..\lvgl\version_6.1.2\lvgl\src\lv_core\../lv_misc/lv_area.h ****  */
  86:..\..\..\lvgl\version_6.1.2\lvgl\src\lv_core\../lv_misc/lv_area.h **** static inline lv_coord_t lv_area_get_width(const lv_area_t * area_p)
  87:..\..\..\lvgl\version_6.1.2\lvgl\src\lv_core\../lv_misc/lv_area.h **** {
  65              		.loc 1 87 0
  66              		.cfi_startproc
  67              		@ args = 0, pretend = 0, frame = 8
  68              		@ frame_needed = 1, uses_anonymous_args = 0
  69              		@ link register save eliminated.
  70 0000 80B4     		push	{r7}
  71              		.cfi_def_cfa_offset 4
  72              		.cfi_offset 7, -4
  73 0002 83B0     		sub	sp, sp, #12
  74              		.cfi_def_cfa_offset 16
  75 0004 00AF     		add	r7, sp, #0
  76              		.cfi_def_cfa_register 7
  77 0006 7860     		str	r0, [r7, #4]
  88:..\..\..\lvgl\version_6.1.2\lvgl\src\lv_core\../lv_misc/lv_area.h ****     return (lv_coord_t)(area_p->x2 - area_p->x1 + 1);
  78              		.loc 1 88 0
  79 0008 7B68     		ldr	r3, [r7, #4]
  80 000a B3F90430 		ldrsh	r3, [r3, #4]
  81 000e 9AB2     		uxth	r2, r3
  82 0010 7B68     		ldr	r3, [r7, #4]
  83 0012 B3F90030 		ldrsh	r3, [r3]
ARM GAS  C:\Users\tmj32\AppData\Local\Temp\ccxLNxq9.s 			page 4


  84 0016 9BB2     		uxth	r3, r3
  85 0018 D31A     		subs	r3, r2, r3
  86 001a 9BB2     		uxth	r3, r3
  87 001c 0133     		adds	r3, r3, #1
  88 001e 9BB2     		uxth	r3, r3
  89 0020 1BB2     		sxth	r3, r3
  89:..\..\..\lvgl\version_6.1.2\lvgl\src\lv_core\../lv_misc/lv_area.h **** }
  90              		.loc 1 89 0
  91 0022 1846     		mov	r0, r3
  92 0024 0C37     		adds	r7, r7, #12
  93              		.cfi_def_cfa_offset 4
  94 0026 BD46     		mov	sp, r7
  95              		.cfi_def_cfa_register 13
  96              		@ sp needed
  97 0028 5DF8047B 		ldr	r7, [sp], #4
  98              		.cfi_restore 7
  99              		.cfi_def_cfa_offset 0
 100 002c 7047     		bx	lr
 101              		.cfi_endproc
 102              	.LFE11:
 103              		.size	lv_area_get_width, .-lv_area_get_width
 104 002e 00BF     		.section	.text.lv_area_get_height,"ax",%progbits
 105              		.align	2
 106              		.thumb
 107              		.thumb_func
 108              		.type	lv_area_get_height, %function
 109              	lv_area_get_height:
 110              	.LFB12:
  90:..\..\..\lvgl\version_6.1.2\lvgl\src\lv_core\../lv_misc/lv_area.h **** 
  91:..\..\..\lvgl\version_6.1.2\lvgl\src\lv_core\../lv_misc/lv_area.h **** /**
  92:..\..\..\lvgl\version_6.1.2\lvgl\src\lv_core\../lv_misc/lv_area.h ****  * Get the height of an area
  93:..\..\..\lvgl\version_6.1.2\lvgl\src\lv_core\../lv_misc/lv_area.h ****  * @param area_p pointer to an area
  94:..\..\..\lvgl\version_6.1.2\lvgl\src\lv_core\../lv_misc/lv_area.h ****  * @return the height of the area (if y1 == y2 -> height = 1)
  95:..\..\..\lvgl\version_6.1.2\lvgl\src\lv_core\../lv_misc/lv_area.h ****  */
  96:..\..\..\lvgl\version_6.1.2\lvgl\src\lv_core\../lv_misc/lv_area.h **** static inline lv_coord_t lv_area_get_height(const lv_area_t * area_p)
  97:..\..\..\lvgl\version_6.1.2\lvgl\src\lv_core\../lv_misc/lv_area.h **** {
 111              		.loc 1 97 0
 112              		.cfi_startproc
 113              		@ args = 0, pretend = 0, frame = 8
 114              		@ frame_needed = 1, uses_anonymous_args = 0
 115              		@ link register save eliminated.
 116 0000 80B4     		push	{r7}
 117              		.cfi_def_cfa_offset 4
 118              		.cfi_offset 7, -4
 119 0002 83B0     		sub	sp, sp, #12
 120              		.cfi_def_cfa_offset 16
 121 0004 00AF     		add	r7, sp, #0
 122              		.cfi_def_cfa_register 7
 123 0006 7860     		str	r0, [r7, #4]
  98:..\..\..\lvgl\version_6.1.2\lvgl\src\lv_core\../lv_misc/lv_area.h ****     return (lv_coord_t)(area_p->y2 - area_p->y1 + 1);
 124              		.loc 1 98 0
 125 0008 7B68     		ldr	r3, [r7, #4]
 126 000a B3F90630 		ldrsh	r3, [r3, #6]
 127 000e 9AB2     		uxth	r2, r3
 128 0010 7B68     		ldr	r3, [r7, #4]
 129 0012 B3F90230 		ldrsh	r3, [r3, #2]
 130 0016 9BB2     		uxth	r3, r3
ARM GAS  C:\Users\tmj32\AppData\Local\Temp\ccxLNxq9.s 			page 5


 131 0018 D31A     		subs	r3, r2, r3
 132 001a 9BB2     		uxth	r3, r3
 133 001c 0133     		adds	r3, r3, #1
 134 001e 9BB2     		uxth	r3, r3
 135 0020 1BB2     		sxth	r3, r3
  99:..\..\..\lvgl\version_6.1.2\lvgl\src\lv_core\../lv_misc/lv_area.h **** }
 136              		.loc 1 99 0
 137 0022 1846     		mov	r0, r3
 138 0024 0C37     		adds	r7, r7, #12
 139              		.cfi_def_cfa_offset 4
 140 0026 BD46     		mov	sp, r7
 141              		.cfi_def_cfa_register 13
 142              		@ sp needed
 143 0028 5DF8047B 		ldr	r7, [sp], #4
 144              		.cfi_restore 7
 145              		.cfi_def_cfa_offset 0
 146 002c 7047     		bx	lr
 147              		.cfi_endproc
 148              	.LFE12:
 149              		.size	lv_area_get_height, .-lv_area_get_height
 150 002e 00BF     		.bss
 151              	lv_initialized:
 152 0000 00       		.space	1
 153 0001 000000   		.align	2
 154              	event_temp_data_head:
 155 0004 00000000 		.space	4
 156              		.align	2
 157              	event_act_data:
 158 0008 00000000 		.space	4
 159              		.section	.text.lv_init,"ax",%progbits
 160              		.align	2
 161              		.global	lv_init
 162              		.thumb
 163              		.thumb_func
 164              		.type	lv_init, %function
 165              	lv_init:
 166              	.LFB35:
 167              		.file 2 "..\\..\\..\\lvgl\\version_6.1.2\\lvgl\\src\\lv_core\\lv_obj.c"
   1:..\..\..\lvgl\version_6.1.2\lvgl\src\lv_core/lv_obj.c **** /**
   2:..\..\..\lvgl\version_6.1.2\lvgl\src\lv_core/lv_obj.c ****  * @file lv_base_obj.c
   3:..\..\..\lvgl\version_6.1.2\lvgl\src\lv_core/lv_obj.c ****  *
   4:..\..\..\lvgl\version_6.1.2\lvgl\src\lv_core/lv_obj.c ****  */
   5:..\..\..\lvgl\version_6.1.2\lvgl\src\lv_core/lv_obj.c **** 
   6:..\..\..\lvgl\version_6.1.2\lvgl\src\lv_core/lv_obj.c **** /*********************
   7:..\..\..\lvgl\version_6.1.2\lvgl\src\lv_core/lv_obj.c ****  *      INCLUDES
   8:..\..\..\lvgl\version_6.1.2\lvgl\src\lv_core/lv_obj.c ****  *********************/
   9:..\..\..\lvgl\version_6.1.2\lvgl\src\lv_core/lv_obj.c **** #include "lv_obj.h"
  10:..\..\..\lvgl\version_6.1.2\lvgl\src\lv_core/lv_obj.c **** #include "lv_indev.h"
  11:..\..\..\lvgl\version_6.1.2\lvgl\src\lv_core/lv_obj.c **** #include "lv_refr.h"
  12:..\..\..\lvgl\version_6.1.2\lvgl\src\lv_core/lv_obj.c **** #include "lv_group.h"
  13:..\..\..\lvgl\version_6.1.2\lvgl\src\lv_core/lv_obj.c **** #include "lv_disp.h"
  14:..\..\..\lvgl\version_6.1.2\lvgl\src\lv_core/lv_obj.c **** #include "../lv_core/lv_debug.h"
  15:..\..\..\lvgl\version_6.1.2\lvgl\src\lv_core/lv_obj.c **** #include "../lv_themes/lv_theme.h"
  16:..\..\..\lvgl\version_6.1.2\lvgl\src\lv_core/lv_obj.c **** #include "../lv_draw/lv_draw.h"
  17:..\..\..\lvgl\version_6.1.2\lvgl\src\lv_core/lv_obj.c **** #include "../lv_misc/lv_anim.h"
  18:..\..\..\lvgl\version_6.1.2\lvgl\src\lv_core/lv_obj.c **** #include "../lv_misc/lv_task.h"
  19:..\..\..\lvgl\version_6.1.2\lvgl\src\lv_core/lv_obj.c **** #include "../lv_misc/lv_async.h"
ARM GAS  C:\Users\tmj32\AppData\Local\Temp\ccxLNxq9.s 			page 6


  20:..\..\..\lvgl\version_6.1.2\lvgl\src\lv_core/lv_obj.c **** #include "../lv_misc/lv_fs.h"
  21:..\..\..\lvgl\version_6.1.2\lvgl\src\lv_core/lv_obj.c **** #include "../lv_hal/lv_hal.h"
  22:..\..\..\lvgl\version_6.1.2\lvgl\src\lv_core/lv_obj.c **** #include <stdint.h>
  23:..\..\..\lvgl\version_6.1.2\lvgl\src\lv_core/lv_obj.c **** #include <string.h>
  24:..\..\..\lvgl\version_6.1.2\lvgl\src\lv_core/lv_obj.c **** #include "../lv_misc/lv_gc.h"
  25:..\..\..\lvgl\version_6.1.2\lvgl\src\lv_core/lv_obj.c **** #include "../lv_misc/lv_math.h"
  26:..\..\..\lvgl\version_6.1.2\lvgl\src\lv_core/lv_obj.c **** 
  27:..\..\..\lvgl\version_6.1.2\lvgl\src\lv_core/lv_obj.c **** #if defined(LV_GC_INCLUDE)
  28:..\..\..\lvgl\version_6.1.2\lvgl\src\lv_core/lv_obj.c **** #include LV_GC_INCLUDE
  29:..\..\..\lvgl\version_6.1.2\lvgl\src\lv_core/lv_obj.c **** #endif /* LV_ENABLE_GC */
  30:..\..\..\lvgl\version_6.1.2\lvgl\src\lv_core/lv_obj.c **** 
  31:..\..\..\lvgl\version_6.1.2\lvgl\src\lv_core/lv_obj.c **** /*********************
  32:..\..\..\lvgl\version_6.1.2\lvgl\src\lv_core/lv_obj.c ****  *      DEFINES
  33:..\..\..\lvgl\version_6.1.2\lvgl\src\lv_core/lv_obj.c ****  *********************/
  34:..\..\..\lvgl\version_6.1.2\lvgl\src\lv_core/lv_obj.c **** #define LV_OBJX_NAME "lv_obj"
  35:..\..\..\lvgl\version_6.1.2\lvgl\src\lv_core/lv_obj.c **** #define LV_OBJ_DEF_WIDTH (LV_DPI)
  36:..\..\..\lvgl\version_6.1.2\lvgl\src\lv_core/lv_obj.c **** #define LV_OBJ_DEF_HEIGHT (2 * LV_DPI / 3)
  37:..\..\..\lvgl\version_6.1.2\lvgl\src\lv_core/lv_obj.c **** 
  38:..\..\..\lvgl\version_6.1.2\lvgl\src\lv_core/lv_obj.c **** /**********************
  39:..\..\..\lvgl\version_6.1.2\lvgl\src\lv_core/lv_obj.c ****  *      TYPEDEFS
  40:..\..\..\lvgl\version_6.1.2\lvgl\src\lv_core/lv_obj.c ****  **********************/
  41:..\..\..\lvgl\version_6.1.2\lvgl\src\lv_core/lv_obj.c **** typedef struct _lv_event_temp_data
  42:..\..\..\lvgl\version_6.1.2\lvgl\src\lv_core/lv_obj.c **** {
  43:..\..\..\lvgl\version_6.1.2\lvgl\src\lv_core/lv_obj.c ****     lv_obj_t * obj;
  44:..\..\..\lvgl\version_6.1.2\lvgl\src\lv_core/lv_obj.c ****     bool deleted;
  45:..\..\..\lvgl\version_6.1.2\lvgl\src\lv_core/lv_obj.c ****     struct _lv_event_temp_data * prev;
  46:..\..\..\lvgl\version_6.1.2\lvgl\src\lv_core/lv_obj.c **** } lv_event_temp_data_t;
  47:..\..\..\lvgl\version_6.1.2\lvgl\src\lv_core/lv_obj.c **** 
  48:..\..\..\lvgl\version_6.1.2\lvgl\src\lv_core/lv_obj.c **** /**********************
  49:..\..\..\lvgl\version_6.1.2\lvgl\src\lv_core/lv_obj.c ****  *  STATIC PROTOTYPES
  50:..\..\..\lvgl\version_6.1.2\lvgl\src\lv_core/lv_obj.c ****  **********************/
  51:..\..\..\lvgl\version_6.1.2\lvgl\src\lv_core/lv_obj.c **** static void refresh_children_position(lv_obj_t * obj, lv_coord_t x_diff, lv_coord_t y_diff);
  52:..\..\..\lvgl\version_6.1.2\lvgl\src\lv_core/lv_obj.c **** static void report_style_mod_core(void * style_p, lv_obj_t * obj);
  53:..\..\..\lvgl\version_6.1.2\lvgl\src\lv_core/lv_obj.c **** static void refresh_children_style(lv_obj_t * obj);
  54:..\..\..\lvgl\version_6.1.2\lvgl\src\lv_core/lv_obj.c **** static void delete_children(lv_obj_t * obj);
  55:..\..\..\lvgl\version_6.1.2\lvgl\src\lv_core/lv_obj.c **** static void base_dir_refr_children(lv_obj_t * obj);
  56:..\..\..\lvgl\version_6.1.2\lvgl\src\lv_core/lv_obj.c **** static void lv_event_mark_deleted(lv_obj_t * obj);
  57:..\..\..\lvgl\version_6.1.2\lvgl\src\lv_core/lv_obj.c **** static void lv_obj_del_async_cb(void * obj);
  58:..\..\..\lvgl\version_6.1.2\lvgl\src\lv_core/lv_obj.c **** static bool lv_obj_design(lv_obj_t * obj, const lv_area_t * mask_p, lv_design_mode_t mode);
  59:..\..\..\lvgl\version_6.1.2\lvgl\src\lv_core/lv_obj.c **** static lv_res_t lv_obj_signal(lv_obj_t * obj, lv_signal_t sign, void * param);
  60:..\..\..\lvgl\version_6.1.2\lvgl\src\lv_core/lv_obj.c **** 
  61:..\..\..\lvgl\version_6.1.2\lvgl\src\lv_core/lv_obj.c **** /**********************
  62:..\..\..\lvgl\version_6.1.2\lvgl\src\lv_core/lv_obj.c ****  *  STATIC VARIABLES
  63:..\..\..\lvgl\version_6.1.2\lvgl\src\lv_core/lv_obj.c ****  **********************/
  64:..\..\..\lvgl\version_6.1.2\lvgl\src\lv_core/lv_obj.c **** static bool lv_initialized = false;
  65:..\..\..\lvgl\version_6.1.2\lvgl\src\lv_core/lv_obj.c **** static lv_event_temp_data_t * event_temp_data_head;
  66:..\..\..\lvgl\version_6.1.2\lvgl\src\lv_core/lv_obj.c **** static const void * event_act_data;
  67:..\..\..\lvgl\version_6.1.2\lvgl\src\lv_core/lv_obj.c **** 
  68:..\..\..\lvgl\version_6.1.2\lvgl\src\lv_core/lv_obj.c **** /**********************
  69:..\..\..\lvgl\version_6.1.2\lvgl\src\lv_core/lv_obj.c ****  *      MACROS
  70:..\..\..\lvgl\version_6.1.2\lvgl\src\lv_core/lv_obj.c ****  **********************/
  71:..\..\..\lvgl\version_6.1.2\lvgl\src\lv_core/lv_obj.c **** 
  72:..\..\..\lvgl\version_6.1.2\lvgl\src\lv_core/lv_obj.c **** /**********************
  73:..\..\..\lvgl\version_6.1.2\lvgl\src\lv_core/lv_obj.c ****  *   GLOBAL FUNCTIONS
  74:..\..\..\lvgl\version_6.1.2\lvgl\src\lv_core/lv_obj.c ****  **********************/
  75:..\..\..\lvgl\version_6.1.2\lvgl\src\lv_core/lv_obj.c **** 
  76:..\..\..\lvgl\version_6.1.2\lvgl\src\lv_core/lv_obj.c **** /**
ARM GAS  C:\Users\tmj32\AppData\Local\Temp\ccxLNxq9.s 			page 7


  77:..\..\..\lvgl\version_6.1.2\lvgl\src\lv_core/lv_obj.c ****  * Init. the 'lv' library.
  78:..\..\..\lvgl\version_6.1.2\lvgl\src\lv_core/lv_obj.c ****  */
  79:..\..\..\lvgl\version_6.1.2\lvgl\src\lv_core/lv_obj.c **** void lv_init(void)
  80:..\..\..\lvgl\version_6.1.2\lvgl\src\lv_core/lv_obj.c **** {
 168              		.loc 2 80 0
 169              		.cfi_startproc
 170              		@ args = 0, pretend = 0, frame = 0
 171              		@ frame_needed = 1, uses_anonymous_args = 0
 172 0000 80B5     		push	{r7, lr}
 173              		.cfi_def_cfa_offset 8
 174              		.cfi_offset 7, -8
 175              		.cfi_offset 14, -4
 176 0002 00AF     		add	r7, sp, #0
 177              		.cfi_def_cfa_register 7
  81:..\..\..\lvgl\version_6.1.2\lvgl\src\lv_core/lv_obj.c ****     /* Do nothing if already initialized */
  82:..\..\..\lvgl\version_6.1.2\lvgl\src\lv_core/lv_obj.c ****     if(lv_initialized) {
 178              		.loc 2 82 0
 179 0004 114B     		ldr	r3, .L10
 180 0006 1B78     		ldrb	r3, [r3]	@ zero_extendqisi2
 181 0008 002B     		cmp	r3, #0
 182 000a 1DD1     		bne	.L9
  83:..\..\..\lvgl\version_6.1.2\lvgl\src\lv_core/lv_obj.c ****         LV_LOG_WARN("lv_init: already inited");
  84:..\..\..\lvgl\version_6.1.2\lvgl\src\lv_core/lv_obj.c ****         return;
  85:..\..\..\lvgl\version_6.1.2\lvgl\src\lv_core/lv_obj.c ****     }
  86:..\..\..\lvgl\version_6.1.2\lvgl\src\lv_core/lv_obj.c **** 
  87:..\..\..\lvgl\version_6.1.2\lvgl\src\lv_core/lv_obj.c ****     LV_LOG_TRACE("lv_init started");
  88:..\..\..\lvgl\version_6.1.2\lvgl\src\lv_core/lv_obj.c **** 
  89:..\..\..\lvgl\version_6.1.2\lvgl\src\lv_core/lv_obj.c ****     /*Initialize the lv_misc modules*/
  90:..\..\..\lvgl\version_6.1.2\lvgl\src\lv_core/lv_obj.c ****     lv_mem_init();
 183              		.loc 2 90 0
 184 000c FFF7FEFF 		bl	lv_mem_init
  91:..\..\..\lvgl\version_6.1.2\lvgl\src\lv_core/lv_obj.c ****     lv_task_core_init();
 185              		.loc 2 91 0
 186 0010 FFF7FEFF 		bl	lv_task_core_init
  92:..\..\..\lvgl\version_6.1.2\lvgl\src\lv_core/lv_obj.c **** 
  93:..\..\..\lvgl\version_6.1.2\lvgl\src\lv_core/lv_obj.c **** #if LV_USE_FILESYSTEM
  94:..\..\..\lvgl\version_6.1.2\lvgl\src\lv_core/lv_obj.c ****     lv_fs_init();
  95:..\..\..\lvgl\version_6.1.2\lvgl\src\lv_core/lv_obj.c **** #endif
  96:..\..\..\lvgl\version_6.1.2\lvgl\src\lv_core/lv_obj.c **** 
  97:..\..\..\lvgl\version_6.1.2\lvgl\src\lv_core/lv_obj.c **** #if LV_USE_ANIMATION
  98:..\..\..\lvgl\version_6.1.2\lvgl\src\lv_core/lv_obj.c ****     lv_anim_core_init();
 187              		.loc 2 98 0
 188 0014 FFF7FEFF 		bl	lv_anim_core_init
  99:..\..\..\lvgl\version_6.1.2\lvgl\src\lv_core/lv_obj.c **** #endif
 100:..\..\..\lvgl\version_6.1.2\lvgl\src\lv_core/lv_obj.c **** 
 101:..\..\..\lvgl\version_6.1.2\lvgl\src\lv_core/lv_obj.c **** #if LV_USE_GROUP
 102:..\..\..\lvgl\version_6.1.2\lvgl\src\lv_core/lv_obj.c ****     lv_group_init();
 103:..\..\..\lvgl\version_6.1.2\lvgl\src\lv_core/lv_obj.c **** #endif
 104:..\..\..\lvgl\version_6.1.2\lvgl\src\lv_core/lv_obj.c **** 
 105:..\..\..\lvgl\version_6.1.2\lvgl\src\lv_core/lv_obj.c ****     /*Init. the sstyles*/
 106:..\..\..\lvgl\version_6.1.2\lvgl\src\lv_core/lv_obj.c ****     lv_style_init();
 189              		.loc 2 106 0
 190 0018 FFF7FEFF 		bl	lv_style_init
 107:..\..\..\lvgl\version_6.1.2\lvgl\src\lv_core/lv_obj.c **** 
 108:..\..\..\lvgl\version_6.1.2\lvgl\src\lv_core/lv_obj.c ****     /*Initialize the screen refresh system*/
 109:..\..\..\lvgl\version_6.1.2\lvgl\src\lv_core/lv_obj.c ****     lv_refr_init();
 191              		.loc 2 109 0
ARM GAS  C:\Users\tmj32\AppData\Local\Temp\ccxLNxq9.s 			page 8


 192 001c FFF7FEFF 		bl	lv_refr_init
 110:..\..\..\lvgl\version_6.1.2\lvgl\src\lv_core/lv_obj.c **** 
 111:..\..\..\lvgl\version_6.1.2\lvgl\src\lv_core/lv_obj.c ****     lv_ll_init(&LV_GC_ROOT(_lv_disp_ll), sizeof(lv_disp_t));
 193              		.loc 2 111 0
 194 0020 4FF4B271 		mov	r1, #356
 195 0024 0A48     		ldr	r0, .L10+4
 196 0026 FFF7FEFF 		bl	lv_ll_init
 112:..\..\..\lvgl\version_6.1.2\lvgl\src\lv_core/lv_obj.c ****     lv_ll_init(&LV_GC_ROOT(_lv_indev_ll), sizeof(lv_indev_t));
 197              		.loc 2 112 0
 198 002a 5C21     		movs	r1, #92
 199 002c 0948     		ldr	r0, .L10+8
 200 002e FFF7FEFF 		bl	lv_ll_init
 113:..\..\..\lvgl\version_6.1.2\lvgl\src\lv_core/lv_obj.c **** 
 114:..\..\..\lvgl\version_6.1.2\lvgl\src\lv_core/lv_obj.c ****     /*Init the input device handling*/
 115:..\..\..\lvgl\version_6.1.2\lvgl\src\lv_core/lv_obj.c ****     lv_indev_init();
 201              		.loc 2 115 0
 202 0032 FFF7FEFF 		bl	lv_indev_init
 116:..\..\..\lvgl\version_6.1.2\lvgl\src\lv_core/lv_obj.c **** 
 117:..\..\..\lvgl\version_6.1.2\lvgl\src\lv_core/lv_obj.c ****     lv_img_decoder_init();
 203              		.loc 2 117 0
 204 0036 FFF7FEFF 		bl	lv_img_decoder_init
 118:..\..\..\lvgl\version_6.1.2\lvgl\src\lv_core/lv_obj.c ****     lv_img_cache_set_size(LV_IMG_CACHE_DEF_SIZE);
 205              		.loc 2 118 0
 206 003a 0120     		movs	r0, #1
 207 003c FFF7FEFF 		bl	lv_img_cache_set_size
 119:..\..\..\lvgl\version_6.1.2\lvgl\src\lv_core/lv_obj.c **** 
 120:..\..\..\lvgl\version_6.1.2\lvgl\src\lv_core/lv_obj.c ****     lv_initialized = true;
 208              		.loc 2 120 0
 209 0040 024B     		ldr	r3, .L10
 210 0042 0122     		movs	r2, #1
 211 0044 1A70     		strb	r2, [r3]
 212 0046 00E0     		b	.L6
 213              	.L9:
  84:..\..\..\lvgl\version_6.1.2\lvgl\src\lv_core/lv_obj.c ****     }
 214              		.loc 2 84 0
 215 0048 00BF     		nop
 216              	.L6:
 121:..\..\..\lvgl\version_6.1.2\lvgl\src\lv_core/lv_obj.c ****     LV_LOG_INFO("lv_init ready");
 122:..\..\..\lvgl\version_6.1.2\lvgl\src\lv_core/lv_obj.c **** }
 217              		.loc 2 122 0
 218 004a 80BD     		pop	{r7, pc}
 219              	.L11:
 220              		.align	2
 221              	.L10:
 222 004c 00000000 		.word	lv_initialized
 223 0050 00000000 		.word	_lv_disp_ll
 224 0054 00000000 		.word	_lv_indev_ll
 225              		.cfi_endproc
 226              	.LFE35:
 227              		.size	lv_init, .-lv_init
 228              		.section	.text.lv_deinit,"ax",%progbits
 229              		.align	2
 230              		.global	lv_deinit
 231              		.thumb
 232              		.thumb_func
 233              		.type	lv_deinit, %function
 234              	lv_deinit:
ARM GAS  C:\Users\tmj32\AppData\Local\Temp\ccxLNxq9.s 			page 9


 235              	.LFB36:
 123:..\..\..\lvgl\version_6.1.2\lvgl\src\lv_core/lv_obj.c **** 
 124:..\..\..\lvgl\version_6.1.2\lvgl\src\lv_core/lv_obj.c **** #if LV_ENABLE_GC || !LV_MEM_CUSTOM
 125:..\..\..\lvgl\version_6.1.2\lvgl\src\lv_core/lv_obj.c **** void lv_deinit(void)
 126:..\..\..\lvgl\version_6.1.2\lvgl\src\lv_core/lv_obj.c **** {
 236              		.loc 2 126 0
 237              		.cfi_startproc
 238              		@ args = 0, pretend = 0, frame = 0
 239              		@ frame_needed = 1, uses_anonymous_args = 0
 240 0000 80B5     		push	{r7, lr}
 241              		.cfi_def_cfa_offset 8
 242              		.cfi_offset 7, -8
 243              		.cfi_offset 14, -4
 244 0002 00AF     		add	r7, sp, #0
 245              		.cfi_def_cfa_register 7
 127:..\..\..\lvgl\version_6.1.2\lvgl\src\lv_core/lv_obj.c ****     lv_gc_clear_roots();
 246              		.loc 2 127 0
 247 0004 FFF7FEFF 		bl	lv_gc_clear_roots
 128:..\..\..\lvgl\version_6.1.2\lvgl\src\lv_core/lv_obj.c **** #if LV_USE_LOG
 129:..\..\..\lvgl\version_6.1.2\lvgl\src\lv_core/lv_obj.c ****     lv_log_register_print_cb(NULL);
 130:..\..\..\lvgl\version_6.1.2\lvgl\src\lv_core/lv_obj.c **** #endif
 131:..\..\..\lvgl\version_6.1.2\lvgl\src\lv_core/lv_obj.c ****     lv_disp_set_default(NULL);
 248              		.loc 2 131 0
 249 0008 0020     		movs	r0, #0
 250 000a FFF7FEFF 		bl	lv_disp_set_default
 132:..\..\..\lvgl\version_6.1.2\lvgl\src\lv_core/lv_obj.c ****     lv_mem_deinit();
 251              		.loc 2 132 0
 252 000e FFF7FEFF 		bl	lv_mem_deinit
 133:..\..\..\lvgl\version_6.1.2\lvgl\src\lv_core/lv_obj.c ****     lv_initialized = false;
 253              		.loc 2 133 0
 254 0012 024B     		ldr	r3, .L13
 255 0014 0022     		movs	r2, #0
 256 0016 1A70     		strb	r2, [r3]
 134:..\..\..\lvgl\version_6.1.2\lvgl\src\lv_core/lv_obj.c ****     LV_LOG_INFO("lv_deinit done");
 135:..\..\..\lvgl\version_6.1.2\lvgl\src\lv_core/lv_obj.c **** }
 257              		.loc 2 135 0
 258 0018 00BF     		nop
 259 001a 80BD     		pop	{r7, pc}
 260              	.L14:
 261              		.align	2
 262              	.L13:
 263 001c 00000000 		.word	lv_initialized
 264              		.cfi_endproc
 265              	.LFE36:
 266              		.size	lv_deinit, .-lv_deinit
 267              		.section	.text.lv_obj_create,"ax",%progbits
 268              		.align	2
 269              		.global	lv_obj_create
 270              		.thumb
 271              		.thumb_func
 272              		.type	lv_obj_create, %function
 273              	lv_obj_create:
 274              	.LFB37:
 136:..\..\..\lvgl\version_6.1.2\lvgl\src\lv_core/lv_obj.c **** #endif
 137:..\..\..\lvgl\version_6.1.2\lvgl\src\lv_core/lv_obj.c **** 
 138:..\..\..\lvgl\version_6.1.2\lvgl\src\lv_core/lv_obj.c **** /*--------------------
 139:..\..\..\lvgl\version_6.1.2\lvgl\src\lv_core/lv_obj.c ****  * Create and delete
ARM GAS  C:\Users\tmj32\AppData\Local\Temp\ccxLNxq9.s 			page 10


 140:..\..\..\lvgl\version_6.1.2\lvgl\src\lv_core/lv_obj.c ****  *-------------------*/
 141:..\..\..\lvgl\version_6.1.2\lvgl\src\lv_core/lv_obj.c **** 
 142:..\..\..\lvgl\version_6.1.2\lvgl\src\lv_core/lv_obj.c **** /**
 143:..\..\..\lvgl\version_6.1.2\lvgl\src\lv_core/lv_obj.c ****  * Create a basic object
 144:..\..\..\lvgl\version_6.1.2\lvgl\src\lv_core/lv_obj.c ****  * @param parent pointer to a parent object.
 145:..\..\..\lvgl\version_6.1.2\lvgl\src\lv_core/lv_obj.c ****  *                  If NULL then a screen will be created
 146:..\..\..\lvgl\version_6.1.2\lvgl\src\lv_core/lv_obj.c ****  * @param copy pointer to a base object, if not NULL then the new object will be copied from it
 147:..\..\..\lvgl\version_6.1.2\lvgl\src\lv_core/lv_obj.c ****  * @return pointer to the new object
 148:..\..\..\lvgl\version_6.1.2\lvgl\src\lv_core/lv_obj.c ****  */
 149:..\..\..\lvgl\version_6.1.2\lvgl\src\lv_core/lv_obj.c **** lv_obj_t * lv_obj_create(lv_obj_t * parent, const lv_obj_t * copy)
 150:..\..\..\lvgl\version_6.1.2\lvgl\src\lv_core/lv_obj.c **** {
 275              		.loc 2 150 0
 276              		.cfi_startproc
 277              		@ args = 0, pretend = 0, frame = 24
 278              		@ frame_needed = 1, uses_anonymous_args = 0
 279 0000 90B5     		push	{r4, r7, lr}
 280              		.cfi_def_cfa_offset 12
 281              		.cfi_offset 4, -12
 282              		.cfi_offset 7, -8
 283              		.cfi_offset 14, -4
 284 0002 87B0     		sub	sp, sp, #28
 285              		.cfi_def_cfa_offset 40
 286 0004 00AF     		add	r7, sp, #0
 287              		.cfi_def_cfa_register 7
 288 0006 7860     		str	r0, [r7, #4]
 289 0008 3960     		str	r1, [r7]
 151:..\..\..\lvgl\version_6.1.2\lvgl\src\lv_core/lv_obj.c **** 
 152:..\..\..\lvgl\version_6.1.2\lvgl\src\lv_core/lv_obj.c ****     lv_obj_t * new_obj = NULL;
 290              		.loc 2 152 0
 291 000a 0023     		movs	r3, #0
 292 000c 7B61     		str	r3, [r7, #20]
 153:..\..\..\lvgl\version_6.1.2\lvgl\src\lv_core/lv_obj.c ****     /*Create a screen if the parent is NULL*/
 154:..\..\..\lvgl\version_6.1.2\lvgl\src\lv_core/lv_obj.c ****     if(parent == NULL) {
 293              		.loc 2 154 0
 294 000e 7B68     		ldr	r3, [r7, #4]
 295 0010 002B     		cmp	r3, #0
 296 0012 40F0B680 		bne	.L16
 297              	.LBB2:
 155:..\..\..\lvgl\version_6.1.2\lvgl\src\lv_core/lv_obj.c ****         LV_LOG_TRACE("Screen create started");
 156:..\..\..\lvgl\version_6.1.2\lvgl\src\lv_core/lv_obj.c ****         lv_disp_t * disp = lv_disp_get_default();
 298              		.loc 2 156 0
 299 0016 FFF7FEFF 		bl	lv_disp_get_default
 300 001a 3861     		str	r0, [r7, #16]
 157:..\..\..\lvgl\version_6.1.2\lvgl\src\lv_core/lv_obj.c ****         if(!disp) {
 301              		.loc 2 157 0
 302 001c 3B69     		ldr	r3, [r7, #16]
 303 001e 002B     		cmp	r3, #0
 304 0020 01D1     		bne	.L17
 158:..\..\..\lvgl\version_6.1.2\lvgl\src\lv_core/lv_obj.c ****             LV_LOG_WARN("lv_obj_create: not display created to so far. No place to assign the new s
 159:..\..\..\lvgl\version_6.1.2\lvgl\src\lv_core/lv_obj.c ****             return NULL;
 305              		.loc 2 159 0
 306 0022 0023     		movs	r3, #0
 307 0024 64E2     		b	.L18
 308              	.L17:
 160:..\..\..\lvgl\version_6.1.2\lvgl\src\lv_core/lv_obj.c ****         }
 161:..\..\..\lvgl\version_6.1.2\lvgl\src\lv_core/lv_obj.c **** 
 162:..\..\..\lvgl\version_6.1.2\lvgl\src\lv_core/lv_obj.c ****         new_obj = lv_ll_ins_head(&disp->scr_ll);
ARM GAS  C:\Users\tmj32\AppData\Local\Temp\ccxLNxq9.s 			page 11


 309              		.loc 2 162 0
 310 0026 3B69     		ldr	r3, [r7, #16]
 311 0028 2433     		adds	r3, r3, #36
 312 002a 1846     		mov	r0, r3
 313 002c FFF7FEFF 		bl	lv_ll_ins_head
 314 0030 7861     		str	r0, [r7, #20]
 163:..\..\..\lvgl\version_6.1.2\lvgl\src\lv_core/lv_obj.c ****         LV_ASSERT_MEM(new_obj);
 164:..\..\..\lvgl\version_6.1.2\lvgl\src\lv_core/lv_obj.c ****         if(new_obj == NULL) return NULL;
 315              		.loc 2 164 0
 316 0032 7B69     		ldr	r3, [r7, #20]
 317 0034 002B     		cmp	r3, #0
 318 0036 01D1     		bne	.L19
 319              		.loc 2 164 0 is_stmt 0 discriminator 1
 320 0038 0023     		movs	r3, #0
 321 003a 59E2     		b	.L18
 322              	.L19:
 165:..\..\..\lvgl\version_6.1.2\lvgl\src\lv_core/lv_obj.c **** 
 166:..\..\..\lvgl\version_6.1.2\lvgl\src\lv_core/lv_obj.c ****         new_obj->par = NULL; /*Screens has no a parent*/
 323              		.loc 2 166 0 is_stmt 1
 324 003c 7B69     		ldr	r3, [r7, #20]
 325 003e 0022     		movs	r2, #0
 326 0040 1A60     		str	r2, [r3]
 167:..\..\..\lvgl\version_6.1.2\lvgl\src\lv_core/lv_obj.c ****         lv_ll_init(&(new_obj->child_ll), sizeof(lv_obj_t));
 327              		.loc 2 167 0
 328 0042 7B69     		ldr	r3, [r7, #20]
 329 0044 0433     		adds	r3, r3, #4
 330 0046 4021     		movs	r1, #64
 331 0048 1846     		mov	r0, r3
 332 004a FFF7FEFF 		bl	lv_ll_init
 168:..\..\..\lvgl\version_6.1.2\lvgl\src\lv_core/lv_obj.c **** 
 169:..\..\..\lvgl\version_6.1.2\lvgl\src\lv_core/lv_obj.c ****         /*Set the callbacks*/
 170:..\..\..\lvgl\version_6.1.2\lvgl\src\lv_core/lv_obj.c ****         new_obj->signal_cb = lv_obj_signal;
 333              		.loc 2 170 0
 334 004e 7B69     		ldr	r3, [r7, #20]
 335 0050 874A     		ldr	r2, .L31
 336 0052 DA61     		str	r2, [r3, #28]
 171:..\..\..\lvgl\version_6.1.2\lvgl\src\lv_core/lv_obj.c ****         new_obj->design_cb = lv_obj_design;
 337              		.loc 2 171 0
 338 0054 7B69     		ldr	r3, [r7, #20]
 339 0056 874A     		ldr	r2, .L31+4
 340 0058 1A62     		str	r2, [r3, #32]
 172:..\..\..\lvgl\version_6.1.2\lvgl\src\lv_core/lv_obj.c ****         new_obj->event_cb = NULL;
 341              		.loc 2 172 0
 342 005a 7B69     		ldr	r3, [r7, #20]
 343 005c 0022     		movs	r2, #0
 344 005e 9A61     		str	r2, [r3, #24]
 173:..\..\..\lvgl\version_6.1.2\lvgl\src\lv_core/lv_obj.c **** 
 174:..\..\..\lvgl\version_6.1.2\lvgl\src\lv_core/lv_obj.c ****         /*Set coordinates to full screen size*/
 175:..\..\..\lvgl\version_6.1.2\lvgl\src\lv_core/lv_obj.c ****         new_obj->coords.x1    = 0;
 345              		.loc 2 175 0
 346 0060 7B69     		ldr	r3, [r7, #20]
 347 0062 0022     		movs	r2, #0
 348 0064 1A82     		strh	r2, [r3, #16]	@ movhi
 176:..\..\..\lvgl\version_6.1.2\lvgl\src\lv_core/lv_obj.c ****         new_obj->coords.y1    = 0;
 349              		.loc 2 176 0
 350 0066 7B69     		ldr	r3, [r7, #20]
 351 0068 0022     		movs	r2, #0
ARM GAS  C:\Users\tmj32\AppData\Local\Temp\ccxLNxq9.s 			page 12


 352 006a 5A82     		strh	r2, [r3, #18]	@ movhi
 177:..\..\..\lvgl\version_6.1.2\lvgl\src\lv_core/lv_obj.c ****         new_obj->coords.x2    = lv_disp_get_hor_res(NULL) - 1;
 353              		.loc 2 177 0
 354 006c 0020     		movs	r0, #0
 355 006e FFF7FEFF 		bl	lv_disp_get_hor_res
 356 0072 0346     		mov	r3, r0
 357 0074 9BB2     		uxth	r3, r3
 358 0076 013B     		subs	r3, r3, #1
 359 0078 9BB2     		uxth	r3, r3
 360 007a 1AB2     		sxth	r2, r3
 361 007c 7B69     		ldr	r3, [r7, #20]
 362 007e 9A82     		strh	r2, [r3, #20]	@ movhi
 178:..\..\..\lvgl\version_6.1.2\lvgl\src\lv_core/lv_obj.c ****         new_obj->coords.y2    = lv_disp_get_ver_res(NULL) - 1;
 363              		.loc 2 178 0
 364 0080 0020     		movs	r0, #0
 365 0082 FFF7FEFF 		bl	lv_disp_get_ver_res
 366 0086 0346     		mov	r3, r0
 367 0088 9BB2     		uxth	r3, r3
 368 008a 013B     		subs	r3, r3, #1
 369 008c 9BB2     		uxth	r3, r3
 370 008e 1AB2     		sxth	r2, r3
 371 0090 7B69     		ldr	r3, [r7, #20]
 372 0092 DA82     		strh	r2, [r3, #22]	@ movhi
 179:..\..\..\lvgl\version_6.1.2\lvgl\src\lv_core/lv_obj.c ****         new_obj->ext_draw_pad = 0;
 373              		.loc 2 179 0
 374 0094 7B69     		ldr	r3, [r7, #20]
 375 0096 0022     		movs	r2, #0
 376 0098 1A86     		strh	r2, [r3, #48]	@ movhi
 180:..\..\..\lvgl\version_6.1.2\lvgl\src\lv_core/lv_obj.c **** 
 181:..\..\..\lvgl\version_6.1.2\lvgl\src\lv_core/lv_obj.c **** #if LV_USE_EXT_CLICK_AREA == LV_EXT_CLICK_AREA_FULL
 182:..\..\..\lvgl\version_6.1.2\lvgl\src\lv_core/lv_obj.c ****         memset(&new_obj->ext_click_pad, 0, sizeof(new_obj->ext_click_pad));
 183:..\..\..\lvgl\version_6.1.2\lvgl\src\lv_core/lv_obj.c **** #endif
 184:..\..\..\lvgl\version_6.1.2\lvgl\src\lv_core/lv_obj.c **** 
 185:..\..\..\lvgl\version_6.1.2\lvgl\src\lv_core/lv_obj.c **** #if LV_USE_EXT_CLICK_AREA == LV_EXT_CLICK_AREA_TINY
 186:..\..\..\lvgl\version_6.1.2\lvgl\src\lv_core/lv_obj.c ****         new_obj->ext_click_pad_hor = 0;
 187:..\..\..\lvgl\version_6.1.2\lvgl\src\lv_core/lv_obj.c ****         new_obj->ext_click_pad_ver = 0;
 188:..\..\..\lvgl\version_6.1.2\lvgl\src\lv_core/lv_obj.c **** #endif
 189:..\..\..\lvgl\version_6.1.2\lvgl\src\lv_core/lv_obj.c **** 
 190:..\..\..\lvgl\version_6.1.2\lvgl\src\lv_core/lv_obj.c ****         /*Init realign*/
 191:..\..\..\lvgl\version_6.1.2\lvgl\src\lv_core/lv_obj.c **** #if LV_USE_OBJ_REALIGN
 192:..\..\..\lvgl\version_6.1.2\lvgl\src\lv_core/lv_obj.c ****         new_obj->realign.align        = LV_ALIGN_CENTER;
 377              		.loc 2 192 0
 378 009a 7B69     		ldr	r3, [r7, #20]
 379 009c 0022     		movs	r2, #0
 380 009e 83F83C20 		strb	r2, [r3, #60]
 193:..\..\..\lvgl\version_6.1.2\lvgl\src\lv_core/lv_obj.c ****         new_obj->realign.xofs         = 0;
 381              		.loc 2 193 0
 382 00a2 7B69     		ldr	r3, [r7, #20]
 383 00a4 0022     		movs	r2, #0
 384 00a6 1A87     		strh	r2, [r3, #56]	@ movhi
 194:..\..\..\lvgl\version_6.1.2\lvgl\src\lv_core/lv_obj.c ****         new_obj->realign.yofs         = 0;
 385              		.loc 2 194 0
 386 00a8 7B69     		ldr	r3, [r7, #20]
 387 00aa 0022     		movs	r2, #0
 388 00ac 5A87     		strh	r2, [r3, #58]	@ movhi
 195:..\..\..\lvgl\version_6.1.2\lvgl\src\lv_core/lv_obj.c ****         new_obj->realign.base         = NULL;
 389              		.loc 2 195 0
ARM GAS  C:\Users\tmj32\AppData\Local\Temp\ccxLNxq9.s 			page 13


 390 00ae 7B69     		ldr	r3, [r7, #20]
 391 00b0 0022     		movs	r2, #0
 392 00b2 5A63     		str	r2, [r3, #52]
 196:..\..\..\lvgl\version_6.1.2\lvgl\src\lv_core/lv_obj.c ****         new_obj->realign.auto_realign = 0;
 393              		.loc 2 196 0
 394 00b4 7A69     		ldr	r2, [r7, #20]
 395 00b6 92F83D30 		ldrb	r3, [r2, #61]
 396 00ba 6FF30003 		bfc	r3, #0, #1
 397 00be 82F83D30 		strb	r3, [r2, #61]
 197:..\..\..\lvgl\version_6.1.2\lvgl\src\lv_core/lv_obj.c **** #endif
 198:..\..\..\lvgl\version_6.1.2\lvgl\src\lv_core/lv_obj.c **** 
 199:..\..\..\lvgl\version_6.1.2\lvgl\src\lv_core/lv_obj.c ****         /*Set the default styles*/
 200:..\..\..\lvgl\version_6.1.2\lvgl\src\lv_core/lv_obj.c ****         lv_theme_t * th = lv_theme_get_current();
 398              		.loc 2 200 0
 399 00c2 FFF7FEFF 		bl	lv_theme_get_current
 400 00c6 F860     		str	r0, [r7, #12]
 201:..\..\..\lvgl\version_6.1.2\lvgl\src\lv_core/lv_obj.c ****         if(th) {
 401              		.loc 2 201 0
 402 00c8 FB68     		ldr	r3, [r7, #12]
 403 00ca 002B     		cmp	r3, #0
 404 00cc 04D0     		beq	.L20
 202:..\..\..\lvgl\version_6.1.2\lvgl\src\lv_core/lv_obj.c ****             new_obj->style_p = th->style.scr;
 405              		.loc 2 202 0
 406 00ce FB68     		ldr	r3, [r7, #12]
 407 00d0 1A68     		ldr	r2, [r3]
 408 00d2 7B69     		ldr	r3, [r7, #20]
 409 00d4 9A62     		str	r2, [r3, #40]
 410 00d6 02E0     		b	.L21
 411              	.L20:
 203:..\..\..\lvgl\version_6.1.2\lvgl\src\lv_core/lv_obj.c ****         } else {
 204:..\..\..\lvgl\version_6.1.2\lvgl\src\lv_core/lv_obj.c ****             new_obj->style_p = &lv_style_scr;
 412              		.loc 2 204 0
 413 00d8 7B69     		ldr	r3, [r7, #20]
 414 00da 674A     		ldr	r2, .L31+8
 415 00dc 9A62     		str	r2, [r3, #40]
 416              	.L21:
 205:..\..\..\lvgl\version_6.1.2\lvgl\src\lv_core/lv_obj.c ****         }
 206:..\..\..\lvgl\version_6.1.2\lvgl\src\lv_core/lv_obj.c **** 
 207:..\..\..\lvgl\version_6.1.2\lvgl\src\lv_core/lv_obj.c ****         /*Init. user date*/
 208:..\..\..\lvgl\version_6.1.2\lvgl\src\lv_core/lv_obj.c **** #if LV_USE_USER_DATA
 209:..\..\..\lvgl\version_6.1.2\lvgl\src\lv_core/lv_obj.c ****         memset(&new_obj->user_data, 0, sizeof(lv_obj_user_data_t));
 210:..\..\..\lvgl\version_6.1.2\lvgl\src\lv_core/lv_obj.c **** #endif
 211:..\..\..\lvgl\version_6.1.2\lvgl\src\lv_core/lv_obj.c **** 
 212:..\..\..\lvgl\version_6.1.2\lvgl\src\lv_core/lv_obj.c **** #if LV_USE_GROUP
 213:..\..\..\lvgl\version_6.1.2\lvgl\src\lv_core/lv_obj.c ****         new_obj->group_p = NULL;
 214:..\..\..\lvgl\version_6.1.2\lvgl\src\lv_core/lv_obj.c **** #endif
 215:..\..\..\lvgl\version_6.1.2\lvgl\src\lv_core/lv_obj.c ****         /*Set attributes*/
 216:..\..\..\lvgl\version_6.1.2\lvgl\src\lv_core/lv_obj.c ****         new_obj->click        = 0;
 417              		.loc 2 216 0
 418 00de 7A69     		ldr	r2, [r7, #20]
 419 00e0 92F82C30 		ldrb	r3, [r2, #44]
 420 00e4 6FF30003 		bfc	r3, #0, #1
 421 00e8 82F82C30 		strb	r3, [r2, #44]
 217:..\..\..\lvgl\version_6.1.2\lvgl\src\lv_core/lv_obj.c ****         new_obj->drag         = 0;
 422              		.loc 2 217 0
 423 00ec 7A69     		ldr	r2, [r7, #20]
 424 00ee 92F82C30 		ldrb	r3, [r2, #44]
ARM GAS  C:\Users\tmj32\AppData\Local\Temp\ccxLNxq9.s 			page 14


 425 00f2 6FF34103 		bfc	r3, #1, #1
 426 00f6 82F82C30 		strb	r3, [r2, #44]
 218:..\..\..\lvgl\version_6.1.2\lvgl\src\lv_core/lv_obj.c ****         new_obj->drag_throw   = 0;
 427              		.loc 2 218 0
 428 00fa 7A69     		ldr	r2, [r7, #20]
 429 00fc 92F82C30 		ldrb	r3, [r2, #44]
 430 0100 6FF38203 		bfc	r3, #2, #1
 431 0104 82F82C30 		strb	r3, [r2, #44]
 219:..\..\..\lvgl\version_6.1.2\lvgl\src\lv_core/lv_obj.c ****         new_obj->drag_parent  = 0;
 432              		.loc 2 219 0
 433 0108 7A69     		ldr	r2, [r7, #20]
 434 010a 92F82C30 		ldrb	r3, [r2, #44]
 435 010e 6FF3C303 		bfc	r3, #3, #1
 436 0112 82F82C30 		strb	r3, [r2, #44]
 220:..\..\..\lvgl\version_6.1.2\lvgl\src\lv_core/lv_obj.c ****         new_obj->hidden       = 0;
 437              		.loc 2 220 0
 438 0116 7A69     		ldr	r2, [r7, #20]
 439 0118 92F82C30 		ldrb	r3, [r2, #44]
 440 011c 6FF30413 		bfc	r3, #4, #1
 441 0120 82F82C30 		strb	r3, [r2, #44]
 221:..\..\..\lvgl\version_6.1.2\lvgl\src\lv_core/lv_obj.c ****         new_obj->top          = 0;
 442              		.loc 2 221 0
 443 0124 7A69     		ldr	r2, [r7, #20]
 444 0126 92F82C30 		ldrb	r3, [r2, #44]
 445 012a 6FF34513 		bfc	r3, #5, #1
 446 012e 82F82C30 		strb	r3, [r2, #44]
 222:..\..\..\lvgl\version_6.1.2\lvgl\src\lv_core/lv_obj.c ****         new_obj->protect      = LV_PROTECT_NONE;
 447              		.loc 2 222 0
 448 0132 7B69     		ldr	r3, [r7, #20]
 449 0134 0022     		movs	r2, #0
 450 0136 83F82E20 		strb	r2, [r3, #46]
 223:..\..\..\lvgl\version_6.1.2\lvgl\src\lv_core/lv_obj.c ****         new_obj->opa_scale_en = 0;
 451              		.loc 2 223 0
 452 013a 7A69     		ldr	r2, [r7, #20]
 453 013c 92F82C30 		ldrb	r3, [r2, #44]
 454 0140 6FF38613 		bfc	r3, #6, #1
 455 0144 82F82C30 		strb	r3, [r2, #44]
 224:..\..\..\lvgl\version_6.1.2\lvgl\src\lv_core/lv_obj.c ****         new_obj->opa_scale    = LV_OPA_COVER;
 456              		.loc 2 224 0
 457 0148 7B69     		ldr	r3, [r7, #20]
 458 014a FF22     		movs	r2, #255
 459 014c 83F82F20 		strb	r2, [r3, #47]
 225:..\..\..\lvgl\version_6.1.2\lvgl\src\lv_core/lv_obj.c ****         new_obj->parent_event = 0;
 460              		.loc 2 225 0
 461 0150 7A69     		ldr	r2, [r7, #20]
 462 0152 92F82C30 		ldrb	r3, [r2, #44]
 463 0156 6FF3C713 		bfc	r3, #7, #1
 464 015a 82F82C30 		strb	r3, [r2, #44]
 226:..\..\..\lvgl\version_6.1.2\lvgl\src\lv_core/lv_obj.c **** #if LV_USE_BIDI
 227:..\..\..\lvgl\version_6.1.2\lvgl\src\lv_core/lv_obj.c ****         new_obj->base_dir     = LV_BIDI_BASE_DIR_DEF;
 228:..\..\..\lvgl\version_6.1.2\lvgl\src\lv_core/lv_obj.c **** #else
 229:..\..\..\lvgl\version_6.1.2\lvgl\src\lv_core/lv_obj.c ****         new_obj->base_dir     = LV_BIDI_DIR_LTR;
 465              		.loc 2 229 0
 466 015e 7A69     		ldr	r2, [r7, #20]
 467 0160 92F82D30 		ldrb	r3, [r2, #45]
 468 0164 6FF38303 		bfc	r3, #2, #2
 469 0168 82F82D30 		strb	r3, [r2, #45]
ARM GAS  C:\Users\tmj32\AppData\Local\Temp\ccxLNxq9.s 			page 15


 230:..\..\..\lvgl\version_6.1.2\lvgl\src\lv_core/lv_obj.c **** #endif
 231:..\..\..\lvgl\version_6.1.2\lvgl\src\lv_core/lv_obj.c **** 
 232:..\..\..\lvgl\version_6.1.2\lvgl\src\lv_core/lv_obj.c ****         new_obj->reserved     = 0;
 470              		.loc 2 232 0
 471 016c 7A69     		ldr	r2, [r7, #20]
 472 016e 92F82D30 		ldrb	r3, [r2, #45]
 473 0172 6FF30613 		bfc	r3, #4, #3
 474 0176 82F82D30 		strb	r3, [r2, #45]
 233:..\..\..\lvgl\version_6.1.2\lvgl\src\lv_core/lv_obj.c **** 
 234:..\..\..\lvgl\version_6.1.2\lvgl\src\lv_core/lv_obj.c ****         new_obj->ext_attr = NULL;
 475              		.loc 2 234 0
 476 017a 7B69     		ldr	r3, [r7, #20]
 477 017c 0022     		movs	r2, #0
 478 017e 5A62     		str	r2, [r3, #36]
 479              	.LBE2:
 480 0180 D0E0     		b	.L22
 481              	.L16:
 482              	.LBB3:
 235:..\..\..\lvgl\version_6.1.2\lvgl\src\lv_core/lv_obj.c **** 
 236:..\..\..\lvgl\version_6.1.2\lvgl\src\lv_core/lv_obj.c ****         LV_LOG_INFO("Screen create ready");
 237:..\..\..\lvgl\version_6.1.2\lvgl\src\lv_core/lv_obj.c ****     }
 238:..\..\..\lvgl\version_6.1.2\lvgl\src\lv_core/lv_obj.c ****     /*parent != NULL create normal obj. on a parent*/
 239:..\..\..\lvgl\version_6.1.2\lvgl\src\lv_core/lv_obj.c ****     else {
 240:..\..\..\lvgl\version_6.1.2\lvgl\src\lv_core/lv_obj.c ****         LV_LOG_TRACE("Object create started");
 241:..\..\..\lvgl\version_6.1.2\lvgl\src\lv_core/lv_obj.c ****         LV_ASSERT_OBJ(parent, LV_OBJX_NAME);
 242:..\..\..\lvgl\version_6.1.2\lvgl\src\lv_core/lv_obj.c **** 
 243:..\..\..\lvgl\version_6.1.2\lvgl\src\lv_core/lv_obj.c ****         new_obj = lv_ll_ins_head(&parent->child_ll);
 483              		.loc 2 243 0
 484 0182 7B68     		ldr	r3, [r7, #4]
 485 0184 0433     		adds	r3, r3, #4
 486 0186 1846     		mov	r0, r3
 487 0188 FFF7FEFF 		bl	lv_ll_ins_head
 488 018c 7861     		str	r0, [r7, #20]
 244:..\..\..\lvgl\version_6.1.2\lvgl\src\lv_core/lv_obj.c ****         LV_ASSERT_MEM(new_obj);
 245:..\..\..\lvgl\version_6.1.2\lvgl\src\lv_core/lv_obj.c ****         if(new_obj == NULL) return NULL;
 489              		.loc 2 245 0
 490 018e 7B69     		ldr	r3, [r7, #20]
 491 0190 002B     		cmp	r3, #0
 492 0192 01D1     		bne	.L23
 493              		.loc 2 245 0 is_stmt 0 discriminator 1
 494 0194 0023     		movs	r3, #0
 495 0196 ABE1     		b	.L18
 496              	.L23:
 246:..\..\..\lvgl\version_6.1.2\lvgl\src\lv_core/lv_obj.c **** 
 247:..\..\..\lvgl\version_6.1.2\lvgl\src\lv_core/lv_obj.c ****         new_obj->par = parent; /*Set the parent*/
 497              		.loc 2 247 0 is_stmt 1
 498 0198 7B69     		ldr	r3, [r7, #20]
 499 019a 7A68     		ldr	r2, [r7, #4]
 500 019c 1A60     		str	r2, [r3]
 248:..\..\..\lvgl\version_6.1.2\lvgl\src\lv_core/lv_obj.c ****         lv_ll_init(&(new_obj->child_ll), sizeof(lv_obj_t));
 501              		.loc 2 248 0
 502 019e 7B69     		ldr	r3, [r7, #20]
 503 01a0 0433     		adds	r3, r3, #4
 504 01a2 4021     		movs	r1, #64
 505 01a4 1846     		mov	r0, r3
 506 01a6 FFF7FEFF 		bl	lv_ll_init
 249:..\..\..\lvgl\version_6.1.2\lvgl\src\lv_core/lv_obj.c **** 
ARM GAS  C:\Users\tmj32\AppData\Local\Temp\ccxLNxq9.s 			page 16


 250:..\..\..\lvgl\version_6.1.2\lvgl\src\lv_core/lv_obj.c ****         /*Set the callbacks*/
 251:..\..\..\lvgl\version_6.1.2\lvgl\src\lv_core/lv_obj.c ****         new_obj->signal_cb = lv_obj_signal;
 507              		.loc 2 251 0
 508 01aa 7B69     		ldr	r3, [r7, #20]
 509 01ac 304A     		ldr	r2, .L31
 510 01ae DA61     		str	r2, [r3, #28]
 252:..\..\..\lvgl\version_6.1.2\lvgl\src\lv_core/lv_obj.c ****         new_obj->design_cb = lv_obj_design;
 511              		.loc 2 252 0
 512 01b0 7B69     		ldr	r3, [r7, #20]
 513 01b2 304A     		ldr	r2, .L31+4
 514 01b4 1A62     		str	r2, [r3, #32]
 253:..\..\..\lvgl\version_6.1.2\lvgl\src\lv_core/lv_obj.c ****         new_obj->event_cb = NULL;
 515              		.loc 2 253 0
 516 01b6 7B69     		ldr	r3, [r7, #20]
 517 01b8 0022     		movs	r2, #0
 518 01ba 9A61     		str	r2, [r3, #24]
 254:..\..\..\lvgl\version_6.1.2\lvgl\src\lv_core/lv_obj.c **** 
 255:..\..\..\lvgl\version_6.1.2\lvgl\src\lv_core/lv_obj.c **** #if LV_USE_BIDI
 256:..\..\..\lvgl\version_6.1.2\lvgl\src\lv_core/lv_obj.c ****         new_obj->base_dir     = LV_BIDI_DIR_INHERIT;
 257:..\..\..\lvgl\version_6.1.2\lvgl\src\lv_core/lv_obj.c **** #else
 258:..\..\..\lvgl\version_6.1.2\lvgl\src\lv_core/lv_obj.c ****         new_obj->base_dir     = LV_BIDI_DIR_LTR;
 519              		.loc 2 258 0
 520 01bc 7A69     		ldr	r2, [r7, #20]
 521 01be 92F82D30 		ldrb	r3, [r2, #45]
 522 01c2 6FF38303 		bfc	r3, #2, #2
 523 01c6 82F82D30 		strb	r3, [r2, #45]
 259:..\..\..\lvgl\version_6.1.2\lvgl\src\lv_core/lv_obj.c **** #endif
 260:..\..\..\lvgl\version_6.1.2\lvgl\src\lv_core/lv_obj.c **** 
 261:..\..\..\lvgl\version_6.1.2\lvgl\src\lv_core/lv_obj.c ****         /*Set coordinates left top corner of parent*/
 262:..\..\..\lvgl\version_6.1.2\lvgl\src\lv_core/lv_obj.c ****         new_obj->coords.y1    = parent->coords.y1;
 524              		.loc 2 262 0
 525 01ca 7B68     		ldr	r3, [r7, #4]
 526 01cc B3F91220 		ldrsh	r2, [r3, #18]
 527 01d0 7B69     		ldr	r3, [r7, #20]
 528 01d2 5A82     		strh	r2, [r3, #18]	@ movhi
 263:..\..\..\lvgl\version_6.1.2\lvgl\src\lv_core/lv_obj.c ****         new_obj->coords.y2    = parent->coords.y1 + LV_OBJ_DEF_HEIGHT;
 529              		.loc 2 263 0
 530 01d4 7B68     		ldr	r3, [r7, #4]
 531 01d6 B3F91230 		ldrsh	r3, [r3, #18]
 532 01da 9BB2     		uxth	r3, r3
 533 01dc 6433     		adds	r3, r3, #100
 534 01de 9BB2     		uxth	r3, r3
 535 01e0 1AB2     		sxth	r2, r3
 536 01e2 7B69     		ldr	r3, [r7, #20]
 537 01e4 DA82     		strh	r2, [r3, #22]	@ movhi
 264:..\..\..\lvgl\version_6.1.2\lvgl\src\lv_core/lv_obj.c ****         if(lv_obj_get_base_dir(new_obj) == LV_BIDI_DIR_RTL) {
 538              		.loc 2 264 0
 539 01e6 7869     		ldr	r0, [r7, #20]
 540 01e8 FFF7FEFF 		bl	lv_obj_get_base_dir
 541 01ec 0346     		mov	r3, r0
 542 01ee 012B     		cmp	r3, #1
 543 01f0 0ED1     		bne	.L24
 265:..\..\..\lvgl\version_6.1.2\lvgl\src\lv_core/lv_obj.c ****             new_obj->coords.x2    = parent->coords.x2;
 544              		.loc 2 265 0
 545 01f2 7B68     		ldr	r3, [r7, #4]
 546 01f4 B3F91420 		ldrsh	r2, [r3, #20]
 547 01f8 7B69     		ldr	r3, [r7, #20]
ARM GAS  C:\Users\tmj32\AppData\Local\Temp\ccxLNxq9.s 			page 17


 548 01fa 9A82     		strh	r2, [r3, #20]	@ movhi
 266:..\..\..\lvgl\version_6.1.2\lvgl\src\lv_core/lv_obj.c ****             new_obj->coords.x1    = parent->coords.x2 - LV_OBJ_DEF_WIDTH;
 549              		.loc 2 266 0
 550 01fc 7B68     		ldr	r3, [r7, #4]
 551 01fe B3F91430 		ldrsh	r3, [r3, #20]
 552 0202 9BB2     		uxth	r3, r3
 553 0204 963B     		subs	r3, r3, #150
 554 0206 9BB2     		uxth	r3, r3
 555 0208 1AB2     		sxth	r2, r3
 556 020a 7B69     		ldr	r3, [r7, #20]
 557 020c 1A82     		strh	r2, [r3, #16]	@ movhi
 558 020e 0DE0     		b	.L25
 559              	.L24:
 267:..\..\..\lvgl\version_6.1.2\lvgl\src\lv_core/lv_obj.c ****         } else {
 268:..\..\..\lvgl\version_6.1.2\lvgl\src\lv_core/lv_obj.c ****             new_obj->coords.x1    = parent->coords.x1;
 560              		.loc 2 268 0
 561 0210 7B68     		ldr	r3, [r7, #4]
 562 0212 B3F91020 		ldrsh	r2, [r3, #16]
 563 0216 7B69     		ldr	r3, [r7, #20]
 564 0218 1A82     		strh	r2, [r3, #16]	@ movhi
 269:..\..\..\lvgl\version_6.1.2\lvgl\src\lv_core/lv_obj.c ****             new_obj->coords.x2    = parent->coords.x1 + LV_OBJ_DEF_WIDTH;
 565              		.loc 2 269 0
 566 021a 7B68     		ldr	r3, [r7, #4]
 567 021c B3F91030 		ldrsh	r3, [r3, #16]
 568 0220 9BB2     		uxth	r3, r3
 569 0222 9633     		adds	r3, r3, #150
 570 0224 9BB2     		uxth	r3, r3
 571 0226 1AB2     		sxth	r2, r3
 572 0228 7B69     		ldr	r3, [r7, #20]
 573 022a 9A82     		strh	r2, [r3, #20]	@ movhi
 574              	.L25:
 270:..\..\..\lvgl\version_6.1.2\lvgl\src\lv_core/lv_obj.c ****         }
 271:..\..\..\lvgl\version_6.1.2\lvgl\src\lv_core/lv_obj.c ****         new_obj->ext_draw_pad = 0;
 575              		.loc 2 271 0
 576 022c 7B69     		ldr	r3, [r7, #20]
 577 022e 0022     		movs	r2, #0
 578 0230 1A86     		strh	r2, [r3, #48]	@ movhi
 272:..\..\..\lvgl\version_6.1.2\lvgl\src\lv_core/lv_obj.c **** 
 273:..\..\..\lvgl\version_6.1.2\lvgl\src\lv_core/lv_obj.c **** #if LV_USE_EXT_CLICK_AREA == LV_EXT_CLICK_AREA_FULL
 274:..\..\..\lvgl\version_6.1.2\lvgl\src\lv_core/lv_obj.c ****         memset(&new_obj->ext_click_pad, 0, sizeof(new_obj->ext_click_pad));
 275:..\..\..\lvgl\version_6.1.2\lvgl\src\lv_core/lv_obj.c **** #endif
 276:..\..\..\lvgl\version_6.1.2\lvgl\src\lv_core/lv_obj.c **** 
 277:..\..\..\lvgl\version_6.1.2\lvgl\src\lv_core/lv_obj.c **** #if LV_USE_EXT_CLICK_AREA == LV_EXT_CLICK_AREA_TINY
 278:..\..\..\lvgl\version_6.1.2\lvgl\src\lv_core/lv_obj.c ****         new_obj->ext_click_pad_hor = 0;
 279:..\..\..\lvgl\version_6.1.2\lvgl\src\lv_core/lv_obj.c ****         new_obj->ext_click_pad_ver = 0;
 280:..\..\..\lvgl\version_6.1.2\lvgl\src\lv_core/lv_obj.c **** #endif
 281:..\..\..\lvgl\version_6.1.2\lvgl\src\lv_core/lv_obj.c **** 
 282:..\..\..\lvgl\version_6.1.2\lvgl\src\lv_core/lv_obj.c ****         /*Init realign*/
 283:..\..\..\lvgl\version_6.1.2\lvgl\src\lv_core/lv_obj.c **** #if LV_USE_OBJ_REALIGN
 284:..\..\..\lvgl\version_6.1.2\lvgl\src\lv_core/lv_obj.c ****         new_obj->realign.align        = LV_ALIGN_CENTER;
 579              		.loc 2 284 0
 580 0232 7B69     		ldr	r3, [r7, #20]
 581 0234 0022     		movs	r2, #0
 582 0236 83F83C20 		strb	r2, [r3, #60]
 285:..\..\..\lvgl\version_6.1.2\lvgl\src\lv_core/lv_obj.c ****         new_obj->realign.xofs         = 0;
 583              		.loc 2 285 0
 584 023a 7B69     		ldr	r3, [r7, #20]
ARM GAS  C:\Users\tmj32\AppData\Local\Temp\ccxLNxq9.s 			page 18


 585 023c 0022     		movs	r2, #0
 586 023e 1A87     		strh	r2, [r3, #56]	@ movhi
 286:..\..\..\lvgl\version_6.1.2\lvgl\src\lv_core/lv_obj.c ****         new_obj->realign.yofs         = 0;
 587              		.loc 2 286 0
 588 0240 7B69     		ldr	r3, [r7, #20]
 589 0242 0022     		movs	r2, #0
 590 0244 5A87     		strh	r2, [r3, #58]	@ movhi
 287:..\..\..\lvgl\version_6.1.2\lvgl\src\lv_core/lv_obj.c ****         new_obj->realign.base         = NULL;
 591              		.loc 2 287 0
 592 0246 7B69     		ldr	r3, [r7, #20]
 593 0248 0022     		movs	r2, #0
 594 024a 5A63     		str	r2, [r3, #52]
 288:..\..\..\lvgl\version_6.1.2\lvgl\src\lv_core/lv_obj.c ****         new_obj->realign.auto_realign = 0;
 595              		.loc 2 288 0
 596 024c 7A69     		ldr	r2, [r7, #20]
 597 024e 92F83D30 		ldrb	r3, [r2, #61]
 598 0252 6FF30003 		bfc	r3, #0, #1
 599 0256 82F83D30 		strb	r3, [r2, #61]
 289:..\..\..\lvgl\version_6.1.2\lvgl\src\lv_core/lv_obj.c **** #endif
 290:..\..\..\lvgl\version_6.1.2\lvgl\src\lv_core/lv_obj.c ****         /*Set appearance*/
 291:..\..\..\lvgl\version_6.1.2\lvgl\src\lv_core/lv_obj.c ****         lv_theme_t * th = lv_theme_get_current();
 600              		.loc 2 291 0
 601 025a FFF7FEFF 		bl	lv_theme_get_current
 602 025e B860     		str	r0, [r7, #8]
 292:..\..\..\lvgl\version_6.1.2\lvgl\src\lv_core/lv_obj.c ****         if(th) {
 603              		.loc 2 292 0
 604 0260 BB68     		ldr	r3, [r7, #8]
 605 0262 002B     		cmp	r3, #0
 606 0264 0AD0     		beq	.L26
 293:..\..\..\lvgl\version_6.1.2\lvgl\src\lv_core/lv_obj.c ****             new_obj->style_p = th->style.panel;
 607              		.loc 2 293 0
 608 0266 BB68     		ldr	r3, [r7, #8]
 609 0268 9A68     		ldr	r2, [r3, #8]
 610 026a 7B69     		ldr	r3, [r7, #20]
 611 026c 9A62     		str	r2, [r3, #40]
 612 026e 08E0     		b	.L27
 613              	.L32:
 614              		.align	2
 615              	.L31:
 616 0270 00000000 		.word	lv_obj_signal
 617 0274 00000000 		.word	lv_obj_design
 618 0278 00000000 		.word	lv_style_scr
 619              	.L26:
 294:..\..\..\lvgl\version_6.1.2\lvgl\src\lv_core/lv_obj.c ****         } else {
 295:..\..\..\lvgl\version_6.1.2\lvgl\src\lv_core/lv_obj.c ****             new_obj->style_p = &lv_style_plain_color;
 620              		.loc 2 295 0
 621 027c 7B69     		ldr	r3, [r7, #20]
 622 027e 9E4A     		ldr	r2, .L33
 623 0280 9A62     		str	r2, [r3, #40]
 624              	.L27:
 296:..\..\..\lvgl\version_6.1.2\lvgl\src\lv_core/lv_obj.c ****         }
 297:..\..\..\lvgl\version_6.1.2\lvgl\src\lv_core/lv_obj.c **** 
 298:..\..\..\lvgl\version_6.1.2\lvgl\src\lv_core/lv_obj.c **** #if LV_USE_EXT_CLICK_AREA == LV_EXT_CLICK_AREA_FULL
 299:..\..\..\lvgl\version_6.1.2\lvgl\src\lv_core/lv_obj.c ****         memset(&new_obj->ext_click_pad, 0, sizeof(new_obj->ext_click_pad));
 300:..\..\..\lvgl\version_6.1.2\lvgl\src\lv_core/lv_obj.c **** #endif
 301:..\..\..\lvgl\version_6.1.2\lvgl\src\lv_core/lv_obj.c **** 
 302:..\..\..\lvgl\version_6.1.2\lvgl\src\lv_core/lv_obj.c **** #if LV_USE_EXT_CLICK_AREA == LV_EXT_CLICK_AREA_TINY
ARM GAS  C:\Users\tmj32\AppData\Local\Temp\ccxLNxq9.s 			page 19


 303:..\..\..\lvgl\version_6.1.2\lvgl\src\lv_core/lv_obj.c ****         new_obj->ext_click_pad_hor = 0;
 304:..\..\..\lvgl\version_6.1.2\lvgl\src\lv_core/lv_obj.c ****         new_obj->ext_click_pad_ver = 0;
 305:..\..\..\lvgl\version_6.1.2\lvgl\src\lv_core/lv_obj.c **** #endif
 306:..\..\..\lvgl\version_6.1.2\lvgl\src\lv_core/lv_obj.c **** 
 307:..\..\..\lvgl\version_6.1.2\lvgl\src\lv_core/lv_obj.c ****         /*Init. user date*/
 308:..\..\..\lvgl\version_6.1.2\lvgl\src\lv_core/lv_obj.c **** #if LV_USE_USER_DATA
 309:..\..\..\lvgl\version_6.1.2\lvgl\src\lv_core/lv_obj.c ****         memset(&new_obj->user_data, 0, sizeof(lv_obj_user_data_t));
 310:..\..\..\lvgl\version_6.1.2\lvgl\src\lv_core/lv_obj.c **** #endif
 311:..\..\..\lvgl\version_6.1.2\lvgl\src\lv_core/lv_obj.c **** 
 312:..\..\..\lvgl\version_6.1.2\lvgl\src\lv_core/lv_obj.c **** #if LV_USE_GROUP
 313:..\..\..\lvgl\version_6.1.2\lvgl\src\lv_core/lv_obj.c ****         new_obj->group_p = NULL;
 314:..\..\..\lvgl\version_6.1.2\lvgl\src\lv_core/lv_obj.c **** #endif
 315:..\..\..\lvgl\version_6.1.2\lvgl\src\lv_core/lv_obj.c **** 
 316:..\..\..\lvgl\version_6.1.2\lvgl\src\lv_core/lv_obj.c ****         /*Set attributes*/
 317:..\..\..\lvgl\version_6.1.2\lvgl\src\lv_core/lv_obj.c ****         new_obj->click        = 1;
 625              		.loc 2 317 0
 626 0282 7A69     		ldr	r2, [r7, #20]
 627 0284 92F82C30 		ldrb	r3, [r2, #44]
 628 0288 43F00103 		orr	r3, r3, #1
 629 028c 82F82C30 		strb	r3, [r2, #44]
 318:..\..\..\lvgl\version_6.1.2\lvgl\src\lv_core/lv_obj.c ****         new_obj->drag         = 0;
 630              		.loc 2 318 0
 631 0290 7A69     		ldr	r2, [r7, #20]
 632 0292 92F82C30 		ldrb	r3, [r2, #44]
 633 0296 6FF34103 		bfc	r3, #1, #1
 634 029a 82F82C30 		strb	r3, [r2, #44]
 319:..\..\..\lvgl\version_6.1.2\lvgl\src\lv_core/lv_obj.c ****         new_obj->drag_dir     = LV_DRAG_DIR_ALL;
 635              		.loc 2 319 0
 636 029e 7A69     		ldr	r2, [r7, #20]
 637 02a0 92F82D30 		ldrb	r3, [r2, #45]
 638 02a4 43F00303 		orr	r3, r3, #3
 639 02a8 82F82D30 		strb	r3, [r2, #45]
 320:..\..\..\lvgl\version_6.1.2\lvgl\src\lv_core/lv_obj.c ****         new_obj->drag_throw   = 0;
 640              		.loc 2 320 0
 641 02ac 7A69     		ldr	r2, [r7, #20]
 642 02ae 92F82C30 		ldrb	r3, [r2, #44]
 643 02b2 6FF38203 		bfc	r3, #2, #1
 644 02b6 82F82C30 		strb	r3, [r2, #44]
 321:..\..\..\lvgl\version_6.1.2\lvgl\src\lv_core/lv_obj.c ****         new_obj->drag_parent  = 0;
 645              		.loc 2 321 0
 646 02ba 7A69     		ldr	r2, [r7, #20]
 647 02bc 92F82C30 		ldrb	r3, [r2, #44]
 648 02c0 6FF3C303 		bfc	r3, #3, #1
 649 02c4 82F82C30 		strb	r3, [r2, #44]
 322:..\..\..\lvgl\version_6.1.2\lvgl\src\lv_core/lv_obj.c ****         new_obj->hidden       = 0;
 650              		.loc 2 322 0
 651 02c8 7A69     		ldr	r2, [r7, #20]
 652 02ca 92F82C30 		ldrb	r3, [r2, #44]
 653 02ce 6FF30413 		bfc	r3, #4, #1
 654 02d2 82F82C30 		strb	r3, [r2, #44]
 323:..\..\..\lvgl\version_6.1.2\lvgl\src\lv_core/lv_obj.c ****         new_obj->top          = 0;
 655              		.loc 2 323 0
 656 02d6 7A69     		ldr	r2, [r7, #20]
 657 02d8 92F82C30 		ldrb	r3, [r2, #44]
 658 02dc 6FF34513 		bfc	r3, #5, #1
 659 02e0 82F82C30 		strb	r3, [r2, #44]
 324:..\..\..\lvgl\version_6.1.2\lvgl\src\lv_core/lv_obj.c ****         new_obj->protect      = LV_PROTECT_NONE;
ARM GAS  C:\Users\tmj32\AppData\Local\Temp\ccxLNxq9.s 			page 20


 660              		.loc 2 324 0
 661 02e4 7B69     		ldr	r3, [r7, #20]
 662 02e6 0022     		movs	r2, #0
 663 02e8 83F82E20 		strb	r2, [r3, #46]
 325:..\..\..\lvgl\version_6.1.2\lvgl\src\lv_core/lv_obj.c ****         new_obj->opa_scale    = LV_OPA_COVER;
 664              		.loc 2 325 0
 665 02ec 7B69     		ldr	r3, [r7, #20]
 666 02ee FF22     		movs	r2, #255
 667 02f0 83F82F20 		strb	r2, [r3, #47]
 326:..\..\..\lvgl\version_6.1.2\lvgl\src\lv_core/lv_obj.c ****         new_obj->opa_scale_en = 0;
 668              		.loc 2 326 0
 669 02f4 7A69     		ldr	r2, [r7, #20]
 670 02f6 92F82C30 		ldrb	r3, [r2, #44]
 671 02fa 6FF38613 		bfc	r3, #6, #1
 672 02fe 82F82C30 		strb	r3, [r2, #44]
 327:..\..\..\lvgl\version_6.1.2\lvgl\src\lv_core/lv_obj.c ****         new_obj->parent_event = 0;
 673              		.loc 2 327 0
 674 0302 7A69     		ldr	r2, [r7, #20]
 675 0304 92F82C30 		ldrb	r3, [r2, #44]
 676 0308 6FF3C713 		bfc	r3, #7, #1
 677 030c 82F82C30 		strb	r3, [r2, #44]
 328:..\..\..\lvgl\version_6.1.2\lvgl\src\lv_core/lv_obj.c ****         new_obj->reserved     = 0;
 678              		.loc 2 328 0
 679 0310 7A69     		ldr	r2, [r7, #20]
 680 0312 92F82D30 		ldrb	r3, [r2, #45]
 681 0316 6FF30613 		bfc	r3, #4, #3
 682 031a 82F82D30 		strb	r3, [r2, #45]
 329:..\..\..\lvgl\version_6.1.2\lvgl\src\lv_core/lv_obj.c **** 
 330:..\..\..\lvgl\version_6.1.2\lvgl\src\lv_core/lv_obj.c ****         new_obj->ext_attr = NULL;
 683              		.loc 2 330 0
 684 031e 7B69     		ldr	r3, [r7, #20]
 685 0320 0022     		movs	r2, #0
 686 0322 5A62     		str	r2, [r3, #36]
 687              	.L22:
 688              	.LBE3:
 331:..\..\..\lvgl\version_6.1.2\lvgl\src\lv_core/lv_obj.c ****     }
 332:..\..\..\lvgl\version_6.1.2\lvgl\src\lv_core/lv_obj.c **** 
 333:..\..\..\lvgl\version_6.1.2\lvgl\src\lv_core/lv_obj.c ****     /*Copy the attributes if required*/
 334:..\..\..\lvgl\version_6.1.2\lvgl\src\lv_core/lv_obj.c ****     if(copy != NULL) {
 689              		.loc 2 334 0
 690 0324 3B68     		ldr	r3, [r7]
 691 0326 002B     		cmp	r3, #0
 692 0328 00F0D580 		beq	.L28
 335:..\..\..\lvgl\version_6.1.2\lvgl\src\lv_core/lv_obj.c ****         LV_ASSERT_OBJ(copy, LV_OBJX_NAME);
 336:..\..\..\lvgl\version_6.1.2\lvgl\src\lv_core/lv_obj.c ****         lv_area_copy(&new_obj->coords, &copy->coords);
 693              		.loc 2 336 0
 694 032c 7B69     		ldr	r3, [r7, #20]
 695 032e 03F11002 		add	r2, r3, #16
 696 0332 3B68     		ldr	r3, [r7]
 697 0334 1033     		adds	r3, r3, #16
 698 0336 1946     		mov	r1, r3
 699 0338 1046     		mov	r0, r2
 700 033a FFF7FEFF 		bl	lv_area_copy
 337:..\..\..\lvgl\version_6.1.2\lvgl\src\lv_core/lv_obj.c ****         new_obj->ext_draw_pad = copy->ext_draw_pad;
 701              		.loc 2 337 0
 702 033e 3B68     		ldr	r3, [r7]
 703 0340 B3F93020 		ldrsh	r2, [r3, #48]
ARM GAS  C:\Users\tmj32\AppData\Local\Temp\ccxLNxq9.s 			page 21


 704 0344 7B69     		ldr	r3, [r7, #20]
 705 0346 1A86     		strh	r2, [r3, #48]	@ movhi
 338:..\..\..\lvgl\version_6.1.2\lvgl\src\lv_core/lv_obj.c **** 
 339:..\..\..\lvgl\version_6.1.2\lvgl\src\lv_core/lv_obj.c **** #if LV_USE_EXT_CLICK_AREA == LV_EXT_CLICK_AREA_FULL
 340:..\..\..\lvgl\version_6.1.2\lvgl\src\lv_core/lv_obj.c ****         lv_area_copy(&new_obj->ext_click_pad, &copy->ext_click_pad);
 341:..\..\..\lvgl\version_6.1.2\lvgl\src\lv_core/lv_obj.c **** #endif
 342:..\..\..\lvgl\version_6.1.2\lvgl\src\lv_core/lv_obj.c **** 
 343:..\..\..\lvgl\version_6.1.2\lvgl\src\lv_core/lv_obj.c **** #if LV_USE_EXT_CLICK_AREA == LV_EXT_CLICK_AREA_TINY
 344:..\..\..\lvgl\version_6.1.2\lvgl\src\lv_core/lv_obj.c ****         new_obj->ext_click_pad_hor = copy->ext_click_pad_hor;
 345:..\..\..\lvgl\version_6.1.2\lvgl\src\lv_core/lv_obj.c ****         new_obj->ext_click_pad_ver = copy->ext_click_pad_ver;
 346:..\..\..\lvgl\version_6.1.2\lvgl\src\lv_core/lv_obj.c **** #endif
 347:..\..\..\lvgl\version_6.1.2\lvgl\src\lv_core/lv_obj.c **** 
 348:..\..\..\lvgl\version_6.1.2\lvgl\src\lv_core/lv_obj.c ****         /*Set free data*/
 349:..\..\..\lvgl\version_6.1.2\lvgl\src\lv_core/lv_obj.c **** #if LV_USE_USER_DATA
 350:..\..\..\lvgl\version_6.1.2\lvgl\src\lv_core/lv_obj.c ****         memcpy(&new_obj->user_data, &copy->user_data, sizeof(lv_obj_user_data_t));
 351:..\..\..\lvgl\version_6.1.2\lvgl\src\lv_core/lv_obj.c **** #endif
 352:..\..\..\lvgl\version_6.1.2\lvgl\src\lv_core/lv_obj.c ****         /*Copy realign*/
 353:..\..\..\lvgl\version_6.1.2\lvgl\src\lv_core/lv_obj.c **** #if LV_USE_OBJ_REALIGN
 354:..\..\..\lvgl\version_6.1.2\lvgl\src\lv_core/lv_obj.c ****         new_obj->realign.align        = copy->realign.align;
 706              		.loc 2 354 0
 707 0348 3B68     		ldr	r3, [r7]
 708 034a 93F83C20 		ldrb	r2, [r3, #60]	@ zero_extendqisi2
 709 034e 7B69     		ldr	r3, [r7, #20]
 710 0350 83F83C20 		strb	r2, [r3, #60]
 355:..\..\..\lvgl\version_6.1.2\lvgl\src\lv_core/lv_obj.c ****         new_obj->realign.xofs         = copy->realign.xofs;
 711              		.loc 2 355 0
 712 0354 3B68     		ldr	r3, [r7]
 713 0356 B3F93820 		ldrsh	r2, [r3, #56]
 714 035a 7B69     		ldr	r3, [r7, #20]
 715 035c 1A87     		strh	r2, [r3, #56]	@ movhi
 356:..\..\..\lvgl\version_6.1.2\lvgl\src\lv_core/lv_obj.c ****         new_obj->realign.yofs         = copy->realign.yofs;
 716              		.loc 2 356 0
 717 035e 3B68     		ldr	r3, [r7]
 718 0360 B3F93A20 		ldrsh	r2, [r3, #58]
 719 0364 7B69     		ldr	r3, [r7, #20]
 720 0366 5A87     		strh	r2, [r3, #58]	@ movhi
 357:..\..\..\lvgl\version_6.1.2\lvgl\src\lv_core/lv_obj.c ****         new_obj->realign.base         = copy->realign.base;
 721              		.loc 2 357 0
 722 0368 3B68     		ldr	r3, [r7]
 723 036a 5A6B     		ldr	r2, [r3, #52]
 724 036c 7B69     		ldr	r3, [r7, #20]
 725 036e 5A63     		str	r2, [r3, #52]
 358:..\..\..\lvgl\version_6.1.2\lvgl\src\lv_core/lv_obj.c ****         new_obj->realign.auto_realign = copy->realign.auto_realign;
 726              		.loc 2 358 0
 727 0370 3B68     		ldr	r3, [r7]
 728 0372 93F83D30 		ldrb	r3, [r3, #61]
 729 0376 C3F30003 		ubfx	r3, r3, #0, #1
 730 037a D9B2     		uxtb	r1, r3
 731 037c 7A69     		ldr	r2, [r7, #20]
 732 037e 92F83D30 		ldrb	r3, [r2, #61]
 733 0382 61F30003 		bfi	r3, r1, #0, #1
 734 0386 82F83D30 		strb	r3, [r2, #61]
 359:..\..\..\lvgl\version_6.1.2\lvgl\src\lv_core/lv_obj.c **** #endif
 360:..\..\..\lvgl\version_6.1.2\lvgl\src\lv_core/lv_obj.c **** 
 361:..\..\..\lvgl\version_6.1.2\lvgl\src\lv_core/lv_obj.c ****         /*Only copy the `event_cb`. `signal_cb` and `design_cb` will be copied in the derived
 362:..\..\..\lvgl\version_6.1.2\lvgl\src\lv_core/lv_obj.c ****          * object type (e.g. `lv_btn`)*/
 363:..\..\..\lvgl\version_6.1.2\lvgl\src\lv_core/lv_obj.c ****         new_obj->event_cb = copy->event_cb;
ARM GAS  C:\Users\tmj32\AppData\Local\Temp\ccxLNxq9.s 			page 22


 735              		.loc 2 363 0
 736 038a 3B68     		ldr	r3, [r7]
 737 038c 9A69     		ldr	r2, [r3, #24]
 738 038e 7B69     		ldr	r3, [r7, #20]
 739 0390 9A61     		str	r2, [r3, #24]
 364:..\..\..\lvgl\version_6.1.2\lvgl\src\lv_core/lv_obj.c **** 
 365:..\..\..\lvgl\version_6.1.2\lvgl\src\lv_core/lv_obj.c ****         /*Copy attributes*/
 366:..\..\..\lvgl\version_6.1.2\lvgl\src\lv_core/lv_obj.c ****         new_obj->click        = copy->click;
 740              		.loc 2 366 0
 741 0392 3B68     		ldr	r3, [r7]
 742 0394 93F82C30 		ldrb	r3, [r3, #44]
 743 0398 C3F30003 		ubfx	r3, r3, #0, #1
 744 039c D9B2     		uxtb	r1, r3
 745 039e 7A69     		ldr	r2, [r7, #20]
 746 03a0 92F82C30 		ldrb	r3, [r2, #44]
 747 03a4 61F30003 		bfi	r3, r1, #0, #1
 748 03a8 82F82C30 		strb	r3, [r2, #44]
 367:..\..\..\lvgl\version_6.1.2\lvgl\src\lv_core/lv_obj.c ****         new_obj->drag         = copy->drag;
 749              		.loc 2 367 0
 750 03ac 3B68     		ldr	r3, [r7]
 751 03ae 93F82C30 		ldrb	r3, [r3, #44]
 752 03b2 C3F34003 		ubfx	r3, r3, #1, #1
 753 03b6 D9B2     		uxtb	r1, r3
 754 03b8 7A69     		ldr	r2, [r7, #20]
 755 03ba 92F82C30 		ldrb	r3, [r2, #44]
 756 03be 61F34103 		bfi	r3, r1, #1, #1
 757 03c2 82F82C30 		strb	r3, [r2, #44]
 368:..\..\..\lvgl\version_6.1.2\lvgl\src\lv_core/lv_obj.c ****         new_obj->drag_dir     = copy->drag_dir;
 758              		.loc 2 368 0
 759 03c6 3B68     		ldr	r3, [r7]
 760 03c8 93F82D30 		ldrb	r3, [r3, #45]
 761 03cc C3F30103 		ubfx	r3, r3, #0, #2
 762 03d0 D9B2     		uxtb	r1, r3
 763 03d2 7A69     		ldr	r2, [r7, #20]
 764 03d4 92F82D30 		ldrb	r3, [r2, #45]
 765 03d8 61F30103 		bfi	r3, r1, #0, #2
 766 03dc 82F82D30 		strb	r3, [r2, #45]
 369:..\..\..\lvgl\version_6.1.2\lvgl\src\lv_core/lv_obj.c ****         new_obj->drag_throw   = copy->drag_throw;
 767              		.loc 2 369 0
 768 03e0 3B68     		ldr	r3, [r7]
 769 03e2 93F82C30 		ldrb	r3, [r3, #44]
 770 03e6 C3F38003 		ubfx	r3, r3, #2, #1
 771 03ea D9B2     		uxtb	r1, r3
 772 03ec 7A69     		ldr	r2, [r7, #20]
 773 03ee 92F82C30 		ldrb	r3, [r2, #44]
 774 03f2 61F38203 		bfi	r3, r1, #2, #1
 775 03f6 82F82C30 		strb	r3, [r2, #44]
 370:..\..\..\lvgl\version_6.1.2\lvgl\src\lv_core/lv_obj.c ****         new_obj->drag_parent  = copy->drag_parent;
 776              		.loc 2 370 0
 777 03fa 3B68     		ldr	r3, [r7]
 778 03fc 93F82C30 		ldrb	r3, [r3, #44]
 779 0400 C3F3C003 		ubfx	r3, r3, #3, #1
 780 0404 D9B2     		uxtb	r1, r3
 781 0406 7A69     		ldr	r2, [r7, #20]
 782 0408 92F82C30 		ldrb	r3, [r2, #44]
 783 040c 61F3C303 		bfi	r3, r1, #3, #1
 784 0410 82F82C30 		strb	r3, [r2, #44]
ARM GAS  C:\Users\tmj32\AppData\Local\Temp\ccxLNxq9.s 			page 23


 371:..\..\..\lvgl\version_6.1.2\lvgl\src\lv_core/lv_obj.c ****         new_obj->hidden       = copy->hidden;
 785              		.loc 2 371 0
 786 0414 3B68     		ldr	r3, [r7]
 787 0416 93F82C30 		ldrb	r3, [r3, #44]
 788 041a C3F30013 		ubfx	r3, r3, #4, #1
 789 041e D9B2     		uxtb	r1, r3
 790 0420 7A69     		ldr	r2, [r7, #20]
 791 0422 92F82C30 		ldrb	r3, [r2, #44]
 792 0426 61F30413 		bfi	r3, r1, #4, #1
 793 042a 82F82C30 		strb	r3, [r2, #44]
 372:..\..\..\lvgl\version_6.1.2\lvgl\src\lv_core/lv_obj.c ****         new_obj->top          = copy->top;
 794              		.loc 2 372 0
 795 042e 3B68     		ldr	r3, [r7]
 796 0430 93F82C30 		ldrb	r3, [r3, #44]
 797 0434 C3F34013 		ubfx	r3, r3, #5, #1
 798 0438 D9B2     		uxtb	r1, r3
 799 043a 7A69     		ldr	r2, [r7, #20]
 800 043c 92F82C30 		ldrb	r3, [r2, #44]
 801 0440 61F34513 		bfi	r3, r1, #5, #1
 802 0444 82F82C30 		strb	r3, [r2, #44]
 373:..\..\..\lvgl\version_6.1.2\lvgl\src\lv_core/lv_obj.c ****         new_obj->parent_event = copy->parent_event;
 803              		.loc 2 373 0
 804 0448 3B68     		ldr	r3, [r7]
 805 044a 93F82C30 		ldrb	r3, [r3, #44]
 806 044e C3F3C013 		ubfx	r3, r3, #7, #1
 807 0452 D9B2     		uxtb	r1, r3
 808 0454 7A69     		ldr	r2, [r7, #20]
 809 0456 92F82C30 		ldrb	r3, [r2, #44]
 810 045a 61F3C713 		bfi	r3, r1, #7, #1
 811 045e 82F82C30 		strb	r3, [r2, #44]
 374:..\..\..\lvgl\version_6.1.2\lvgl\src\lv_core/lv_obj.c **** 
 375:..\..\..\lvgl\version_6.1.2\lvgl\src\lv_core/lv_obj.c ****         new_obj->opa_scale_en = copy->opa_scale_en;
 812              		.loc 2 375 0
 813 0462 3B68     		ldr	r3, [r7]
 814 0464 93F82C30 		ldrb	r3, [r3, #44]
 815 0468 C3F38013 		ubfx	r3, r3, #6, #1
 816 046c D9B2     		uxtb	r1, r3
 817 046e 7A69     		ldr	r2, [r7, #20]
 818 0470 92F82C30 		ldrb	r3, [r2, #44]
 819 0474 61F38613 		bfi	r3, r1, #6, #1
 820 0478 82F82C30 		strb	r3, [r2, #44]
 376:..\..\..\lvgl\version_6.1.2\lvgl\src\lv_core/lv_obj.c ****         new_obj->protect      = copy->protect;
 821              		.loc 2 376 0
 822 047c 3B68     		ldr	r3, [r7]
 823 047e 93F82E20 		ldrb	r2, [r3, #46]	@ zero_extendqisi2
 824 0482 7B69     		ldr	r3, [r7, #20]
 825 0484 83F82E20 		strb	r2, [r3, #46]
 377:..\..\..\lvgl\version_6.1.2\lvgl\src\lv_core/lv_obj.c ****         new_obj->opa_scale    = copy->opa_scale;
 826              		.loc 2 377 0
 827 0488 3B68     		ldr	r3, [r7]
 828 048a 93F82F20 		ldrb	r2, [r3, #47]	@ zero_extendqisi2
 829 048e 7B69     		ldr	r3, [r7, #20]
 830 0490 83F82F20 		strb	r2, [r3, #47]
 378:..\..\..\lvgl\version_6.1.2\lvgl\src\lv_core/lv_obj.c **** 
 379:..\..\..\lvgl\version_6.1.2\lvgl\src\lv_core/lv_obj.c ****         new_obj->style_p = copy->style_p;
 831              		.loc 2 379 0
 832 0494 3B68     		ldr	r3, [r7]
ARM GAS  C:\Users\tmj32\AppData\Local\Temp\ccxLNxq9.s 			page 24


 833 0496 9A6A     		ldr	r2, [r3, #40]
 834 0498 7B69     		ldr	r3, [r7, #20]
 835 049a 9A62     		str	r2, [r3, #40]
 380:..\..\..\lvgl\version_6.1.2\lvgl\src\lv_core/lv_obj.c **** 
 381:..\..\..\lvgl\version_6.1.2\lvgl\src\lv_core/lv_obj.c **** #if LV_USE_GROUP
 382:..\..\..\lvgl\version_6.1.2\lvgl\src\lv_core/lv_obj.c ****         /*Add to the same group*/
 383:..\..\..\lvgl\version_6.1.2\lvgl\src\lv_core/lv_obj.c ****         if(copy->group_p != NULL) {
 384:..\..\..\lvgl\version_6.1.2\lvgl\src\lv_core/lv_obj.c ****             lv_group_add_obj(copy->group_p, new_obj);
 385:..\..\..\lvgl\version_6.1.2\lvgl\src\lv_core/lv_obj.c ****         }
 386:..\..\..\lvgl\version_6.1.2\lvgl\src\lv_core/lv_obj.c **** #endif
 387:..\..\..\lvgl\version_6.1.2\lvgl\src\lv_core/lv_obj.c **** 
 388:..\..\..\lvgl\version_6.1.2\lvgl\src\lv_core/lv_obj.c ****         /*Set the same coordinates for non screen objects*/
 389:..\..\..\lvgl\version_6.1.2\lvgl\src\lv_core/lv_obj.c ****         if(lv_obj_get_parent(copy) != NULL && parent != NULL) {
 836              		.loc 2 389 0
 837 049c 3868     		ldr	r0, [r7]
 838 049e FFF7FEFF 		bl	lv_obj_get_parent
 839 04a2 0346     		mov	r3, r0
 840 04a4 002B     		cmp	r3, #0
 841 04a6 11D0     		beq	.L29
 842              		.loc 2 389 0 is_stmt 0 discriminator 1
 843 04a8 7B68     		ldr	r3, [r7, #4]
 844 04aa 002B     		cmp	r3, #0
 845 04ac 0ED0     		beq	.L29
 390:..\..\..\lvgl\version_6.1.2\lvgl\src\lv_core/lv_obj.c ****             lv_obj_set_pos(new_obj, lv_obj_get_x(copy), lv_obj_get_y(copy));
 846              		.loc 2 390 0 is_stmt 1
 847 04ae 3868     		ldr	r0, [r7]
 848 04b0 FFF7FEFF 		bl	lv_obj_get_x
 849 04b4 0346     		mov	r3, r0
 850 04b6 1C46     		mov	r4, r3
 851 04b8 3868     		ldr	r0, [r7]
 852 04ba FFF7FEFF 		bl	lv_obj_get_y
 853 04be 0346     		mov	r3, r0
 854 04c0 1A46     		mov	r2, r3
 855 04c2 2146     		mov	r1, r4
 856 04c4 7869     		ldr	r0, [r7, #20]
 857 04c6 FFF7FEFF 		bl	lv_obj_set_pos
 858 04ca 04E0     		b	.L28
 859              	.L29:
 391:..\..\..\lvgl\version_6.1.2\lvgl\src\lv_core/lv_obj.c ****         } else {
 392:..\..\..\lvgl\version_6.1.2\lvgl\src\lv_core/lv_obj.c ****             lv_obj_set_pos(new_obj, 0, 0);
 860              		.loc 2 392 0
 861 04cc 0022     		movs	r2, #0
 862 04ce 0021     		movs	r1, #0
 863 04d0 7869     		ldr	r0, [r7, #20]
 864 04d2 FFF7FEFF 		bl	lv_obj_set_pos
 865              	.L28:
 393:..\..\..\lvgl\version_6.1.2\lvgl\src\lv_core/lv_obj.c ****         }
 394:..\..\..\lvgl\version_6.1.2\lvgl\src\lv_core/lv_obj.c **** 
 395:..\..\..\lvgl\version_6.1.2\lvgl\src\lv_core/lv_obj.c ****         LV_LOG_INFO("Object create ready");
 396:..\..\..\lvgl\version_6.1.2\lvgl\src\lv_core/lv_obj.c ****     }
 397:..\..\..\lvgl\version_6.1.2\lvgl\src\lv_core/lv_obj.c **** 
 398:..\..\..\lvgl\version_6.1.2\lvgl\src\lv_core/lv_obj.c ****     /*Send a signal to the parent to notify it about the new child*/
 399:..\..\..\lvgl\version_6.1.2\lvgl\src\lv_core/lv_obj.c ****     if(parent != NULL) {
 866              		.loc 2 399 0
 867 04d6 7B68     		ldr	r3, [r7, #4]
 868 04d8 002B     		cmp	r3, #0
 869 04da 08D0     		beq	.L30
ARM GAS  C:\Users\tmj32\AppData\Local\Temp\ccxLNxq9.s 			page 25


 400:..\..\..\lvgl\version_6.1.2\lvgl\src\lv_core/lv_obj.c ****         parent->signal_cb(parent, LV_SIGNAL_CHILD_CHG, new_obj);
 870              		.loc 2 400 0
 871 04dc 7B68     		ldr	r3, [r7, #4]
 872 04de DB69     		ldr	r3, [r3, #28]
 873 04e0 7A69     		ldr	r2, [r7, #20]
 874 04e2 0121     		movs	r1, #1
 875 04e4 7868     		ldr	r0, [r7, #4]
 876 04e6 9847     		blx	r3
 401:..\..\..\lvgl\version_6.1.2\lvgl\src\lv_core/lv_obj.c **** 
 402:..\..\..\lvgl\version_6.1.2\lvgl\src\lv_core/lv_obj.c ****         /*Invalidate the area if not screen created*/
 403:..\..\..\lvgl\version_6.1.2\lvgl\src\lv_core/lv_obj.c ****         lv_obj_invalidate(new_obj);
 877              		.loc 2 403 0
 878 04e8 7869     		ldr	r0, [r7, #20]
 879 04ea FFF7FEFF 		bl	lv_obj_invalidate
 880              	.L30:
 404:..\..\..\lvgl\version_6.1.2\lvgl\src\lv_core/lv_obj.c ****     }
 405:..\..\..\lvgl\version_6.1.2\lvgl\src\lv_core/lv_obj.c **** 
 406:..\..\..\lvgl\version_6.1.2\lvgl\src\lv_core/lv_obj.c ****     return new_obj;
 881              		.loc 2 406 0
 882 04ee 7B69     		ldr	r3, [r7, #20]
 883              	.L18:
 407:..\..\..\lvgl\version_6.1.2\lvgl\src\lv_core/lv_obj.c **** }
 884              		.loc 2 407 0
 885 04f0 1846     		mov	r0, r3
 886 04f2 1C37     		adds	r7, r7, #28
 887              		.cfi_def_cfa_offset 12
 888 04f4 BD46     		mov	sp, r7
 889              		.cfi_def_cfa_register 13
 890              		@ sp needed
 891 04f6 90BD     		pop	{r4, r7, pc}
 892              	.L34:
 893              		.align	2
 894              	.L33:
 895 04f8 00000000 		.word	lv_style_plain_color
 896              		.cfi_endproc
 897              	.LFE37:
 898              		.size	lv_obj_create, .-lv_obj_create
 899              		.section	.text.lv_obj_del,"ax",%progbits
 900              		.align	2
 901              		.global	lv_obj_del
 902              		.thumb
 903              		.thumb_func
 904              		.type	lv_obj_del, %function
 905              	lv_obj_del:
 906              	.LFB38:
 408:..\..\..\lvgl\version_6.1.2\lvgl\src\lv_core/lv_obj.c **** 
 409:..\..\..\lvgl\version_6.1.2\lvgl\src\lv_core/lv_obj.c **** /**
 410:..\..\..\lvgl\version_6.1.2\lvgl\src\lv_core/lv_obj.c ****  * Delete 'obj' and all of its children
 411:..\..\..\lvgl\version_6.1.2\lvgl\src\lv_core/lv_obj.c ****  * @param obj pointer to an object to delete
 412:..\..\..\lvgl\version_6.1.2\lvgl\src\lv_core/lv_obj.c ****  * @return LV_RES_INV because the object is deleted
 413:..\..\..\lvgl\version_6.1.2\lvgl\src\lv_core/lv_obj.c ****  */
 414:..\..\..\lvgl\version_6.1.2\lvgl\src\lv_core/lv_obj.c **** lv_res_t lv_obj_del(lv_obj_t * obj)
 415:..\..\..\lvgl\version_6.1.2\lvgl\src\lv_core/lv_obj.c **** {
 907              		.loc 2 415 0
 908              		.cfi_startproc
 909              		@ args = 0, pretend = 0, frame = 32
 910              		@ frame_needed = 1, uses_anonymous_args = 0
ARM GAS  C:\Users\tmj32\AppData\Local\Temp\ccxLNxq9.s 			page 26


 911 0000 80B5     		push	{r7, lr}
 912              		.cfi_def_cfa_offset 8
 913              		.cfi_offset 7, -8
 914              		.cfi_offset 14, -4
 915 0002 88B0     		sub	sp, sp, #32
 916              		.cfi_def_cfa_offset 40
 917 0004 00AF     		add	r7, sp, #0
 918              		.cfi_def_cfa_register 7
 919 0006 7860     		str	r0, [r7, #4]
 416:..\..\..\lvgl\version_6.1.2\lvgl\src\lv_core/lv_obj.c ****     LV_ASSERT_OBJ(obj, LV_OBJX_NAME);
 417:..\..\..\lvgl\version_6.1.2\lvgl\src\lv_core/lv_obj.c ****     lv_obj_invalidate(obj);
 920              		.loc 2 417 0
 921 0008 7868     		ldr	r0, [r7, #4]
 922 000a FFF7FEFF 		bl	lv_obj_invalidate
 418:..\..\..\lvgl\version_6.1.2\lvgl\src\lv_core/lv_obj.c **** 
 419:..\..\..\lvgl\version_6.1.2\lvgl\src\lv_core/lv_obj.c ****     /*Delete from the group*/
 420:..\..\..\lvgl\version_6.1.2\lvgl\src\lv_core/lv_obj.c **** #if LV_USE_GROUP
 421:..\..\..\lvgl\version_6.1.2\lvgl\src\lv_core/lv_obj.c ****     lv_group_t * group = lv_obj_get_group(obj);
 422:..\..\..\lvgl\version_6.1.2\lvgl\src\lv_core/lv_obj.c ****     if(group) lv_group_remove_obj(obj);
 423:..\..\..\lvgl\version_6.1.2\lvgl\src\lv_core/lv_obj.c **** #endif
 424:..\..\..\lvgl\version_6.1.2\lvgl\src\lv_core/lv_obj.c **** 
 425:..\..\..\lvgl\version_6.1.2\lvgl\src\lv_core/lv_obj.c ****         /*Remove the animations from this object*/
 426:..\..\..\lvgl\version_6.1.2\lvgl\src\lv_core/lv_obj.c **** #if LV_USE_ANIMATION
 427:..\..\..\lvgl\version_6.1.2\lvgl\src\lv_core/lv_obj.c ****     lv_anim_del(obj, NULL);
 923              		.loc 2 427 0
 924 000e 0021     		movs	r1, #0
 925 0010 7868     		ldr	r0, [r7, #4]
 926 0012 FFF7FEFF 		bl	lv_anim_del
 428:..\..\..\lvgl\version_6.1.2\lvgl\src\lv_core/lv_obj.c **** #endif
 429:..\..\..\lvgl\version_6.1.2\lvgl\src\lv_core/lv_obj.c **** 
 430:..\..\..\lvgl\version_6.1.2\lvgl\src\lv_core/lv_obj.c ****     /*Recursively delete the children*/
 431:..\..\..\lvgl\version_6.1.2\lvgl\src\lv_core/lv_obj.c ****     lv_obj_t * i;
 432:..\..\..\lvgl\version_6.1.2\lvgl\src\lv_core/lv_obj.c ****     lv_obj_t * i_next;
 433:..\..\..\lvgl\version_6.1.2\lvgl\src\lv_core/lv_obj.c ****     i = lv_ll_get_head(&(obj->child_ll));
 927              		.loc 2 433 0
 928 0016 7B68     		ldr	r3, [r7, #4]
 929 0018 0433     		adds	r3, r3, #4
 930 001a 1846     		mov	r0, r3
 931 001c FFF7FEFF 		bl	lv_ll_get_head
 932 0020 F861     		str	r0, [r7, #28]
 434:..\..\..\lvgl\version_6.1.2\lvgl\src\lv_core/lv_obj.c ****     while(i != NULL) {
 933              		.loc 2 434 0
 934 0022 0BE0     		b	.L36
 935              	.L37:
 435:..\..\..\lvgl\version_6.1.2\lvgl\src\lv_core/lv_obj.c ****         /*Get the next object before delete this*/
 436:..\..\..\lvgl\version_6.1.2\lvgl\src\lv_core/lv_obj.c ****         i_next = lv_ll_get_next(&(obj->child_ll), i);
 936              		.loc 2 436 0
 937 0024 7B68     		ldr	r3, [r7, #4]
 938 0026 0433     		adds	r3, r3, #4
 939 0028 F969     		ldr	r1, [r7, #28]
 940 002a 1846     		mov	r0, r3
 941 002c FFF7FEFF 		bl	lv_ll_get_next
 942 0030 7861     		str	r0, [r7, #20]
 437:..\..\..\lvgl\version_6.1.2\lvgl\src\lv_core/lv_obj.c **** 
 438:..\..\..\lvgl\version_6.1.2\lvgl\src\lv_core/lv_obj.c ****         /*Call the recursive del to the child too*/
 439:..\..\..\lvgl\version_6.1.2\lvgl\src\lv_core/lv_obj.c ****         delete_children(i);
 943              		.loc 2 439 0
ARM GAS  C:\Users\tmj32\AppData\Local\Temp\ccxLNxq9.s 			page 27


 944 0032 F869     		ldr	r0, [r7, #28]
 945 0034 FFF7FEFF 		bl	delete_children
 440:..\..\..\lvgl\version_6.1.2\lvgl\src\lv_core/lv_obj.c **** 
 441:..\..\..\lvgl\version_6.1.2\lvgl\src\lv_core/lv_obj.c ****         /*Set i to the next node*/
 442:..\..\..\lvgl\version_6.1.2\lvgl\src\lv_core/lv_obj.c ****         i = i_next;
 946              		.loc 2 442 0
 947 0038 7B69     		ldr	r3, [r7, #20]
 948 003a FB61     		str	r3, [r7, #28]
 949              	.L36:
 434:..\..\..\lvgl\version_6.1.2\lvgl\src\lv_core/lv_obj.c ****         /*Get the next object before delete this*/
 950              		.loc 2 434 0
 951 003c FB69     		ldr	r3, [r7, #28]
 952 003e 002B     		cmp	r3, #0
 953 0040 F0D1     		bne	.L37
 443:..\..\..\lvgl\version_6.1.2\lvgl\src\lv_core/lv_obj.c ****     }
 444:..\..\..\lvgl\version_6.1.2\lvgl\src\lv_core/lv_obj.c **** 
 445:..\..\..\lvgl\version_6.1.2\lvgl\src\lv_core/lv_obj.c ****     /*Let the user free the resources used in `LV_EVENT_DELETE`*/
 446:..\..\..\lvgl\version_6.1.2\lvgl\src\lv_core/lv_obj.c ****     lv_event_send(obj, LV_EVENT_DELETE, NULL);
 954              		.loc 2 446 0
 955 0042 0022     		movs	r2, #0
 956 0044 1321     		movs	r1, #19
 957 0046 7868     		ldr	r0, [r7, #4]
 958 0048 FFF7FEFF 		bl	lv_event_send
 447:..\..\..\lvgl\version_6.1.2\lvgl\src\lv_core/lv_obj.c **** 
 448:..\..\..\lvgl\version_6.1.2\lvgl\src\lv_core/lv_obj.c ****     lv_event_mark_deleted(obj);
 959              		.loc 2 448 0
 960 004c 7868     		ldr	r0, [r7, #4]
 961 004e FFF7FEFF 		bl	lv_event_mark_deleted
 449:..\..\..\lvgl\version_6.1.2\lvgl\src\lv_core/lv_obj.c **** 
 450:..\..\..\lvgl\version_6.1.2\lvgl\src\lv_core/lv_obj.c ****     /* Reset all input devices if the object to delete is used*/
 451:..\..\..\lvgl\version_6.1.2\lvgl\src\lv_core/lv_obj.c ****     lv_indev_t * indev = lv_indev_get_next(NULL);
 962              		.loc 2 451 0
 963 0052 0020     		movs	r0, #0
 964 0054 FFF7FEFF 		bl	lv_indev_get_next
 965 0058 B861     		str	r0, [r7, #24]
 452:..\..\..\lvgl\version_6.1.2\lvgl\src\lv_core/lv_obj.c ****     while(indev) {
 966              		.loc 2 452 0
 967 005a 18E0     		b	.L38
 968              	.L42:
 453:..\..\..\lvgl\version_6.1.2\lvgl\src\lv_core/lv_obj.c ****         if(indev->proc.types.pointer.act_obj == obj || indev->proc.types.pointer.last_obj == obj) {
 969              		.loc 2 453 0
 970 005c BB69     		ldr	r3, [r7, #24]
 971 005e 5A6B     		ldr	r2, [r3, #52]
 972 0060 7B68     		ldr	r3, [r7, #4]
 973 0062 9A42     		cmp	r2, r3
 974 0064 04D0     		beq	.L39
 975              		.loc 2 453 0 is_stmt 0 discriminator 1
 976 0066 BB69     		ldr	r3, [r7, #24]
 977 0068 9A6B     		ldr	r2, [r3, #56]
 978 006a 7B68     		ldr	r3, [r7, #4]
 979 006c 9A42     		cmp	r2, r3
 980 006e 02D1     		bne	.L40
 981              	.L39:
 454:..\..\..\lvgl\version_6.1.2\lvgl\src\lv_core/lv_obj.c ****             lv_indev_reset(indev);
 982              		.loc 2 454 0 is_stmt 1
 983 0070 B869     		ldr	r0, [r7, #24]
 984 0072 FFF7FEFF 		bl	lv_indev_reset
ARM GAS  C:\Users\tmj32\AppData\Local\Temp\ccxLNxq9.s 			page 28


 985              	.L40:
 455:..\..\..\lvgl\version_6.1.2\lvgl\src\lv_core/lv_obj.c ****         }
 456:..\..\..\lvgl\version_6.1.2\lvgl\src\lv_core/lv_obj.c ****         if(indev->proc.types.pointer.last_pressed == obj) {
 986              		.loc 2 456 0
 987 0076 BB69     		ldr	r3, [r7, #24]
 988 0078 DA6B     		ldr	r2, [r3, #60]
 989 007a 7B68     		ldr	r3, [r7, #4]
 990 007c 9A42     		cmp	r2, r3
 991 007e 02D1     		bne	.L41
 457:..\..\..\lvgl\version_6.1.2\lvgl\src\lv_core/lv_obj.c ****             indev->proc.types.pointer.last_pressed = NULL;
 992              		.loc 2 457 0
 993 0080 BB69     		ldr	r3, [r7, #24]
 994 0082 0022     		movs	r2, #0
 995 0084 DA63     		str	r2, [r3, #60]
 996              	.L41:
 458:..\..\..\lvgl\version_6.1.2\lvgl\src\lv_core/lv_obj.c ****         }
 459:..\..\..\lvgl\version_6.1.2\lvgl\src\lv_core/lv_obj.c **** 
 460:..\..\..\lvgl\version_6.1.2\lvgl\src\lv_core/lv_obj.c **** #if LV_USE_GROUP
 461:..\..\..\lvgl\version_6.1.2\lvgl\src\lv_core/lv_obj.c ****         if(indev->group == group && obj == lv_indev_get_obj_act()) {
 462:..\..\..\lvgl\version_6.1.2\lvgl\src\lv_core/lv_obj.c ****             lv_indev_reset(indev);
 463:..\..\..\lvgl\version_6.1.2\lvgl\src\lv_core/lv_obj.c ****         }
 464:..\..\..\lvgl\version_6.1.2\lvgl\src\lv_core/lv_obj.c **** #endif
 465:..\..\..\lvgl\version_6.1.2\lvgl\src\lv_core/lv_obj.c ****         indev = lv_indev_get_next(indev);
 997              		.loc 2 465 0
 998 0086 B869     		ldr	r0, [r7, #24]
 999 0088 FFF7FEFF 		bl	lv_indev_get_next
 1000 008c B861     		str	r0, [r7, #24]
 1001              	.L38:
 452:..\..\..\lvgl\version_6.1.2\lvgl\src\lv_core/lv_obj.c ****         if(indev->proc.types.pointer.act_obj == obj || indev->proc.types.pointer.last_obj == obj) {
 1002              		.loc 2 452 0
 1003 008e BB69     		ldr	r3, [r7, #24]
 1004 0090 002B     		cmp	r3, #0
 1005 0092 E3D1     		bne	.L42
 466:..\..\..\lvgl\version_6.1.2\lvgl\src\lv_core/lv_obj.c ****     }
 467:..\..\..\lvgl\version_6.1.2\lvgl\src\lv_core/lv_obj.c **** 
 468:..\..\..\lvgl\version_6.1.2\lvgl\src\lv_core/lv_obj.c ****     /* All children deleted.
 469:..\..\..\lvgl\version_6.1.2\lvgl\src\lv_core/lv_obj.c ****      * Now clean up the object specific data*/
 470:..\..\..\lvgl\version_6.1.2\lvgl\src\lv_core/lv_obj.c ****     obj->signal_cb(obj, LV_SIGNAL_CLEANUP, NULL);
 1006              		.loc 2 470 0
 1007 0094 7B68     		ldr	r3, [r7, #4]
 1008 0096 DB69     		ldr	r3, [r3, #28]
 1009 0098 0022     		movs	r2, #0
 1010 009a 0021     		movs	r1, #0
 1011 009c 7868     		ldr	r0, [r7, #4]
 1012 009e 9847     		blx	r3
 471:..\..\..\lvgl\version_6.1.2\lvgl\src\lv_core/lv_obj.c **** 
 472:..\..\..\lvgl\version_6.1.2\lvgl\src\lv_core/lv_obj.c ****     /*Remove the object from parent's children list*/
 473:..\..\..\lvgl\version_6.1.2\lvgl\src\lv_core/lv_obj.c ****     lv_obj_t * par = lv_obj_get_parent(obj);
 1013              		.loc 2 473 0
 1014 00a0 7868     		ldr	r0, [r7, #4]
 1015 00a2 FFF7FEFF 		bl	lv_obj_get_parent
 1016 00a6 3861     		str	r0, [r7, #16]
 474:..\..\..\lvgl\version_6.1.2\lvgl\src\lv_core/lv_obj.c ****     if(par == NULL) { /*It is a screen*/
 1017              		.loc 2 474 0
 1018 00a8 3B69     		ldr	r3, [r7, #16]
 1019 00aa 002B     		cmp	r3, #0
 1020 00ac 0AD1     		bne	.L43
ARM GAS  C:\Users\tmj32\AppData\Local\Temp\ccxLNxq9.s 			page 29


 1021              	.LBB4:
 475:..\..\..\lvgl\version_6.1.2\lvgl\src\lv_core/lv_obj.c ****         lv_disp_t * d = lv_obj_get_disp(obj);
 1022              		.loc 2 475 0
 1023 00ae 7868     		ldr	r0, [r7, #4]
 1024 00b0 FFF7FEFF 		bl	lv_obj_get_disp
 1025 00b4 F860     		str	r0, [r7, #12]
 476:..\..\..\lvgl\version_6.1.2\lvgl\src\lv_core/lv_obj.c ****         lv_ll_rem(&d->scr_ll, obj);
 1026              		.loc 2 476 0
 1027 00b6 FB68     		ldr	r3, [r7, #12]
 1028 00b8 2433     		adds	r3, r3, #36
 1029 00ba 7968     		ldr	r1, [r7, #4]
 1030 00bc 1846     		mov	r0, r3
 1031 00be FFF7FEFF 		bl	lv_ll_rem
 1032              	.LBE4:
 1033 00c2 05E0     		b	.L44
 1034              	.L43:
 477:..\..\..\lvgl\version_6.1.2\lvgl\src\lv_core/lv_obj.c ****     } else {
 478:..\..\..\lvgl\version_6.1.2\lvgl\src\lv_core/lv_obj.c ****         lv_ll_rem(&(par->child_ll), obj);
 1035              		.loc 2 478 0
 1036 00c4 3B69     		ldr	r3, [r7, #16]
 1037 00c6 0433     		adds	r3, r3, #4
 1038 00c8 7968     		ldr	r1, [r7, #4]
 1039 00ca 1846     		mov	r0, r3
 1040 00cc FFF7FEFF 		bl	lv_ll_rem
 1041              	.L44:
 479:..\..\..\lvgl\version_6.1.2\lvgl\src\lv_core/lv_obj.c ****     }
 480:..\..\..\lvgl\version_6.1.2\lvgl\src\lv_core/lv_obj.c **** 
 481:..\..\..\lvgl\version_6.1.2\lvgl\src\lv_core/lv_obj.c ****     /*Delete the base objects*/
 482:..\..\..\lvgl\version_6.1.2\lvgl\src\lv_core/lv_obj.c ****     if(obj->ext_attr != NULL) lv_mem_free(obj->ext_attr);
 1042              		.loc 2 482 0
 1043 00d0 7B68     		ldr	r3, [r7, #4]
 1044 00d2 5B6A     		ldr	r3, [r3, #36]
 1045 00d4 002B     		cmp	r3, #0
 1046 00d6 04D0     		beq	.L45
 1047              		.loc 2 482 0 is_stmt 0 discriminator 1
 1048 00d8 7B68     		ldr	r3, [r7, #4]
 1049 00da 5B6A     		ldr	r3, [r3, #36]
 1050 00dc 1846     		mov	r0, r3
 1051 00de FFF7FEFF 		bl	lv_mem_free
 1052              	.L45:
 483:..\..\..\lvgl\version_6.1.2\lvgl\src\lv_core/lv_obj.c ****     lv_mem_free(obj); /*Free the object itself*/
 1053              		.loc 2 483 0 is_stmt 1
 1054 00e2 7868     		ldr	r0, [r7, #4]
 1055 00e4 FFF7FEFF 		bl	lv_mem_free
 484:..\..\..\lvgl\version_6.1.2\lvgl\src\lv_core/lv_obj.c **** 
 485:..\..\..\lvgl\version_6.1.2\lvgl\src\lv_core/lv_obj.c ****     /*Send a signal to the parent to notify it about the child delete*/
 486:..\..\..\lvgl\version_6.1.2\lvgl\src\lv_core/lv_obj.c ****     if(par != NULL) {
 1056              		.loc 2 486 0
 1057 00e8 3B69     		ldr	r3, [r7, #16]
 1058 00ea 002B     		cmp	r3, #0
 1059 00ec 05D0     		beq	.L46
 487:..\..\..\lvgl\version_6.1.2\lvgl\src\lv_core/lv_obj.c ****         par->signal_cb(par, LV_SIGNAL_CHILD_CHG, NULL);
 1060              		.loc 2 487 0
 1061 00ee 3B69     		ldr	r3, [r7, #16]
 1062 00f0 DB69     		ldr	r3, [r3, #28]
 1063 00f2 0022     		movs	r2, #0
 1064 00f4 0121     		movs	r1, #1
ARM GAS  C:\Users\tmj32\AppData\Local\Temp\ccxLNxq9.s 			page 30


 1065 00f6 3869     		ldr	r0, [r7, #16]
 1066 00f8 9847     		blx	r3
 1067              	.L46:
 488:..\..\..\lvgl\version_6.1.2\lvgl\src\lv_core/lv_obj.c ****     }
 489:..\..\..\lvgl\version_6.1.2\lvgl\src\lv_core/lv_obj.c **** 
 490:..\..\..\lvgl\version_6.1.2\lvgl\src\lv_core/lv_obj.c ****     return LV_RES_INV;
 1068              		.loc 2 490 0
 1069 00fa 0023     		movs	r3, #0
 491:..\..\..\lvgl\version_6.1.2\lvgl\src\lv_core/lv_obj.c **** }
 1070              		.loc 2 491 0
 1071 00fc 1846     		mov	r0, r3
 1072 00fe 2037     		adds	r7, r7, #32
 1073              		.cfi_def_cfa_offset 8
 1074 0100 BD46     		mov	sp, r7
 1075              		.cfi_def_cfa_register 13
 1076              		@ sp needed
 1077 0102 80BD     		pop	{r7, pc}
 1078              		.cfi_endproc
 1079              	.LFE38:
 1080              		.size	lv_obj_del, .-lv_obj_del
 1081              		.section	.text.lv_obj_del_async,"ax",%progbits
 1082              		.align	2
 1083              		.global	lv_obj_del_async
 1084              		.thumb
 1085              		.thumb_func
 1086              		.type	lv_obj_del_async, %function
 1087              	lv_obj_del_async:
 1088              	.LFB39:
 492:..\..\..\lvgl\version_6.1.2\lvgl\src\lv_core/lv_obj.c **** 
 493:..\..\..\lvgl\version_6.1.2\lvgl\src\lv_core/lv_obj.c **** /**
 494:..\..\..\lvgl\version_6.1.2\lvgl\src\lv_core/lv_obj.c ****  * Helper function for asynchronously deleting objects.
 495:..\..\..\lvgl\version_6.1.2\lvgl\src\lv_core/lv_obj.c ****  * Useful for cases where you can't delete an object directly in an `LV_EVENT_DELETE` handler (i.e.
 496:..\..\..\lvgl\version_6.1.2\lvgl\src\lv_core/lv_obj.c ****  * @param obj object to delete
 497:..\..\..\lvgl\version_6.1.2\lvgl\src\lv_core/lv_obj.c ****  * @see lv_async_call
 498:..\..\..\lvgl\version_6.1.2\lvgl\src\lv_core/lv_obj.c ****  */
 499:..\..\..\lvgl\version_6.1.2\lvgl\src\lv_core/lv_obj.c **** void lv_obj_del_async(lv_obj_t * obj)
 500:..\..\..\lvgl\version_6.1.2\lvgl\src\lv_core/lv_obj.c **** {
 1089              		.loc 2 500 0
 1090              		.cfi_startproc
 1091              		@ args = 0, pretend = 0, frame = 8
 1092              		@ frame_needed = 1, uses_anonymous_args = 0
 1093 0000 80B5     		push	{r7, lr}
 1094              		.cfi_def_cfa_offset 8
 1095              		.cfi_offset 7, -8
 1096              		.cfi_offset 14, -4
 1097 0002 82B0     		sub	sp, sp, #8
 1098              		.cfi_def_cfa_offset 16
 1099 0004 00AF     		add	r7, sp, #0
 1100              		.cfi_def_cfa_register 7
 1101 0006 7860     		str	r0, [r7, #4]
 501:..\..\..\lvgl\version_6.1.2\lvgl\src\lv_core/lv_obj.c ****     LV_ASSERT_OBJ(obj, LV_OBJX_NAME);
 502:..\..\..\lvgl\version_6.1.2\lvgl\src\lv_core/lv_obj.c ****     lv_async_call(lv_obj_del_async_cb, obj);
 1102              		.loc 2 502 0
 1103 0008 7968     		ldr	r1, [r7, #4]
 1104 000a 0348     		ldr	r0, .L49
 1105 000c FFF7FEFF 		bl	lv_async_call
 503:..\..\..\lvgl\version_6.1.2\lvgl\src\lv_core/lv_obj.c **** }
ARM GAS  C:\Users\tmj32\AppData\Local\Temp\ccxLNxq9.s 			page 31


 1106              		.loc 2 503 0
 1107 0010 00BF     		nop
 1108 0012 0837     		adds	r7, r7, #8
 1109              		.cfi_def_cfa_offset 8
 1110 0014 BD46     		mov	sp, r7
 1111              		.cfi_def_cfa_register 13
 1112              		@ sp needed
 1113 0016 80BD     		pop	{r7, pc}
 1114              	.L50:
 1115              		.align	2
 1116              	.L49:
 1117 0018 00000000 		.word	lv_obj_del_async_cb
 1118              		.cfi_endproc
 1119              	.LFE39:
 1120              		.size	lv_obj_del_async, .-lv_obj_del_async
 1121              		.section	.text.lv_obj_clean,"ax",%progbits
 1122              		.align	2
 1123              		.global	lv_obj_clean
 1124              		.thumb
 1125              		.thumb_func
 1126              		.type	lv_obj_clean, %function
 1127              	lv_obj_clean:
 1128              	.LFB40:
 504:..\..\..\lvgl\version_6.1.2\lvgl\src\lv_core/lv_obj.c **** 
 505:..\..\..\lvgl\version_6.1.2\lvgl\src\lv_core/lv_obj.c **** /**
 506:..\..\..\lvgl\version_6.1.2\lvgl\src\lv_core/lv_obj.c ****  * Delete all children of an object
 507:..\..\..\lvgl\version_6.1.2\lvgl\src\lv_core/lv_obj.c ****  * @param obj pointer to an object
 508:..\..\..\lvgl\version_6.1.2\lvgl\src\lv_core/lv_obj.c ****  */
 509:..\..\..\lvgl\version_6.1.2\lvgl\src\lv_core/lv_obj.c **** void lv_obj_clean(lv_obj_t * obj)
 510:..\..\..\lvgl\version_6.1.2\lvgl\src\lv_core/lv_obj.c **** {
 1129              		.loc 2 510 0
 1130              		.cfi_startproc
 1131              		@ args = 0, pretend = 0, frame = 16
 1132              		@ frame_needed = 1, uses_anonymous_args = 0
 1133 0000 80B5     		push	{r7, lr}
 1134              		.cfi_def_cfa_offset 8
 1135              		.cfi_offset 7, -8
 1136              		.cfi_offset 14, -4
 1137 0002 84B0     		sub	sp, sp, #16
 1138              		.cfi_def_cfa_offset 24
 1139 0004 00AF     		add	r7, sp, #0
 1140              		.cfi_def_cfa_register 7
 1141 0006 7860     		str	r0, [r7, #4]
 511:..\..\..\lvgl\version_6.1.2\lvgl\src\lv_core/lv_obj.c ****     LV_ASSERT_OBJ(obj, LV_OBJX_NAME);
 512:..\..\..\lvgl\version_6.1.2\lvgl\src\lv_core/lv_obj.c ****     lv_obj_t * child = lv_obj_get_child(obj, NULL);
 1142              		.loc 2 512 0
 1143 0008 0021     		movs	r1, #0
 1144 000a 7868     		ldr	r0, [r7, #4]
 1145 000c FFF7FEFF 		bl	lv_obj_get_child
 1146 0010 F860     		str	r0, [r7, #12]
 513:..\..\..\lvgl\version_6.1.2\lvgl\src\lv_core/lv_obj.c ****     lv_obj_t * child_next;
 514:..\..\..\lvgl\version_6.1.2\lvgl\src\lv_core/lv_obj.c ****     while(child) {
 1147              		.loc 2 514 0
 1148 0012 09E0     		b	.L52
 1149              	.L53:
 515:..\..\..\lvgl\version_6.1.2\lvgl\src\lv_core/lv_obj.c ****         /* Read the next child before deleting the current
 516:..\..\..\lvgl\version_6.1.2\lvgl\src\lv_core/lv_obj.c ****          * because the next couldn't be read from a deleted (invalid) node*/
ARM GAS  C:\Users\tmj32\AppData\Local\Temp\ccxLNxq9.s 			page 32


 517:..\..\..\lvgl\version_6.1.2\lvgl\src\lv_core/lv_obj.c ****         child_next = lv_obj_get_child(obj, child);
 1150              		.loc 2 517 0
 1151 0014 F968     		ldr	r1, [r7, #12]
 1152 0016 7868     		ldr	r0, [r7, #4]
 1153 0018 FFF7FEFF 		bl	lv_obj_get_child
 1154 001c B860     		str	r0, [r7, #8]
 518:..\..\..\lvgl\version_6.1.2\lvgl\src\lv_core/lv_obj.c ****         lv_obj_del(child);
 1155              		.loc 2 518 0
 1156 001e F868     		ldr	r0, [r7, #12]
 1157 0020 FFF7FEFF 		bl	lv_obj_del
 519:..\..\..\lvgl\version_6.1.2\lvgl\src\lv_core/lv_obj.c ****         child = child_next;
 1158              		.loc 2 519 0
 1159 0024 BB68     		ldr	r3, [r7, #8]
 1160 0026 FB60     		str	r3, [r7, #12]
 1161              	.L52:
 514:..\..\..\lvgl\version_6.1.2\lvgl\src\lv_core/lv_obj.c ****         /* Read the next child before deleting the current
 1162              		.loc 2 514 0
 1163 0028 FB68     		ldr	r3, [r7, #12]
 1164 002a 002B     		cmp	r3, #0
 1165 002c F2D1     		bne	.L53
 520:..\..\..\lvgl\version_6.1.2\lvgl\src\lv_core/lv_obj.c ****     }
 521:..\..\..\lvgl\version_6.1.2\lvgl\src\lv_core/lv_obj.c **** }
 1166              		.loc 2 521 0
 1167 002e 00BF     		nop
 1168 0030 1037     		adds	r7, r7, #16
 1169              		.cfi_def_cfa_offset 8
 1170 0032 BD46     		mov	sp, r7
 1171              		.cfi_def_cfa_register 13
 1172              		@ sp needed
 1173 0034 80BD     		pop	{r7, pc}
 1174              		.cfi_endproc
 1175              	.LFE40:
 1176              		.size	lv_obj_clean, .-lv_obj_clean
 1177 0036 00BF     		.section	.text.lv_obj_invalidate_area,"ax",%progbits
 1178              		.align	2
 1179              		.global	lv_obj_invalidate_area
 1180              		.thumb
 1181              		.thumb_func
 1182              		.type	lv_obj_invalidate_area, %function
 1183              	lv_obj_invalidate_area:
 1184              	.LFB41:
 522:..\..\..\lvgl\version_6.1.2\lvgl\src\lv_core/lv_obj.c **** 
 523:..\..\..\lvgl\version_6.1.2\lvgl\src\lv_core/lv_obj.c **** /**
 524:..\..\..\lvgl\version_6.1.2\lvgl\src\lv_core/lv_obj.c ****  * Mark an area of an object as invalid.
 525:..\..\..\lvgl\version_6.1.2\lvgl\src\lv_core/lv_obj.c ****  * This area will be redrawn by 'lv_refr_task'
 526:..\..\..\lvgl\version_6.1.2\lvgl\src\lv_core/lv_obj.c ****  * @param obj pointer to an object
 527:..\..\..\lvgl\version_6.1.2\lvgl\src\lv_core/lv_obj.c ****  * @param area the area to redraw
 528:..\..\..\lvgl\version_6.1.2\lvgl\src\lv_core/lv_obj.c ****  */
 529:..\..\..\lvgl\version_6.1.2\lvgl\src\lv_core/lv_obj.c **** void lv_obj_invalidate_area(const lv_obj_t * obj, const lv_area_t * area)
 530:..\..\..\lvgl\version_6.1.2\lvgl\src\lv_core/lv_obj.c **** {
 1185              		.loc 2 530 0
 1186              		.cfi_startproc
 1187              		@ args = 0, pretend = 0, frame = 48
 1188              		@ frame_needed = 1, uses_anonymous_args = 0
 1189 0000 80B5     		push	{r7, lr}
 1190              		.cfi_def_cfa_offset 8
 1191              		.cfi_offset 7, -8
ARM GAS  C:\Users\tmj32\AppData\Local\Temp\ccxLNxq9.s 			page 33


 1192              		.cfi_offset 14, -4
 1193 0002 8CB0     		sub	sp, sp, #48
 1194              		.cfi_def_cfa_offset 56
 1195 0004 00AF     		add	r7, sp, #0
 1196              		.cfi_def_cfa_register 7
 1197 0006 7860     		str	r0, [r7, #4]
 1198 0008 3960     		str	r1, [r7]
 531:..\..\..\lvgl\version_6.1.2\lvgl\src\lv_core/lv_obj.c ****     LV_ASSERT_OBJ(obj, LV_OBJX_NAME);
 532:..\..\..\lvgl\version_6.1.2\lvgl\src\lv_core/lv_obj.c **** 
 533:..\..\..\lvgl\version_6.1.2\lvgl\src\lv_core/lv_obj.c ****     if(lv_obj_get_hidden(obj)) return;
 1199              		.loc 2 533 0
 1200 000a 7868     		ldr	r0, [r7, #4]
 1201 000c FFF7FEFF 		bl	lv_obj_get_hidden
 1202 0010 0346     		mov	r3, r0
 1203 0012 002B     		cmp	r3, #0
 1204 0014 40F08E80 		bne	.L66
 534:..\..\..\lvgl\version_6.1.2\lvgl\src\lv_core/lv_obj.c **** 
 535:..\..\..\lvgl\version_6.1.2\lvgl\src\lv_core/lv_obj.c ****     /*Invalidate the object only if it belongs to the 'LV_GC_ROOT(_lv_act_scr)'*/
 536:..\..\..\lvgl\version_6.1.2\lvgl\src\lv_core/lv_obj.c ****     lv_obj_t * obj_scr = lv_obj_get_screen(obj);
 1205              		.loc 2 536 0
 1206 0018 7868     		ldr	r0, [r7, #4]
 1207 001a FFF7FEFF 		bl	lv_obj_get_screen
 1208 001e 7862     		str	r0, [r7, #36]
 537:..\..\..\lvgl\version_6.1.2\lvgl\src\lv_core/lv_obj.c ****     lv_disp_t * disp   = lv_obj_get_disp(obj_scr);
 1209              		.loc 2 537 0
 1210 0020 786A     		ldr	r0, [r7, #36]
 1211 0022 FFF7FEFF 		bl	lv_obj_get_disp
 1212 0026 3862     		str	r0, [r7, #32]
 538:..\..\..\lvgl\version_6.1.2\lvgl\src\lv_core/lv_obj.c ****     if(obj_scr == lv_disp_get_scr_act(disp) || obj_scr == lv_disp_get_layer_top(disp) ||
 1213              		.loc 2 538 0
 1214 0028 386A     		ldr	r0, [r7, #32]
 1215 002a FFF7FEFF 		bl	lv_disp_get_scr_act
 1216 002e 0246     		mov	r2, r0
 1217 0030 7B6A     		ldr	r3, [r7, #36]
 1218 0032 9A42     		cmp	r2, r3
 1219 0034 0DD0     		beq	.L57
 1220              		.loc 2 538 0 is_stmt 0 discriminator 1
 1221 0036 386A     		ldr	r0, [r7, #32]
 1222 0038 FFF7FEFF 		bl	lv_disp_get_layer_top
 1223 003c 0246     		mov	r2, r0
 1224 003e 7B6A     		ldr	r3, [r7, #36]
 1225 0040 9A42     		cmp	r2, r3
 1226 0042 06D0     		beq	.L57
 539:..\..\..\lvgl\version_6.1.2\lvgl\src\lv_core/lv_obj.c ****        obj_scr == lv_disp_get_layer_sys(disp)) {
 1227              		.loc 2 539 0 is_stmt 1 discriminator 2
 1228 0044 386A     		ldr	r0, [r7, #32]
 1229 0046 FFF7FEFF 		bl	lv_disp_get_layer_sys
 1230 004a 0246     		mov	r2, r0
 538:..\..\..\lvgl\version_6.1.2\lvgl\src\lv_core/lv_obj.c ****     if(obj_scr == lv_disp_get_scr_act(disp) || obj_scr == lv_disp_get_layer_top(disp) ||
 1231              		.loc 2 538 0 discriminator 2
 1232 004c 7B6A     		ldr	r3, [r7, #36]
 1233 004e 9A42     		cmp	r2, r3
 1234 0050 75D1     		bne	.L54
 1235              	.L57:
 1236              	.LBB5:
 540:..\..\..\lvgl\version_6.1.2\lvgl\src\lv_core/lv_obj.c **** 
 541:..\..\..\lvgl\version_6.1.2\lvgl\src\lv_core/lv_obj.c ****         /*Truncate the area to the object*/
ARM GAS  C:\Users\tmj32\AppData\Local\Temp\ccxLNxq9.s 			page 34


 542:..\..\..\lvgl\version_6.1.2\lvgl\src\lv_core/lv_obj.c ****         lv_area_t obj_coords;
 543:..\..\..\lvgl\version_6.1.2\lvgl\src\lv_core/lv_obj.c ****         lv_coord_t ext_size = obj->ext_draw_pad;
 1237              		.loc 2 543 0
 1238 0052 7B68     		ldr	r3, [r7, #4]
 1239 0054 1B8E     		ldrh	r3, [r3, #48]	@ movhi
 1240 0056 FB83     		strh	r3, [r7, #30]	@ movhi
 544:..\..\..\lvgl\version_6.1.2\lvgl\src\lv_core/lv_obj.c ****         lv_area_copy(&obj_coords, &obj->coords);
 1241              		.loc 2 544 0
 1242 0058 7B68     		ldr	r3, [r7, #4]
 1243 005a 03F11002 		add	r2, r3, #16
 1244 005e 07F11403 		add	r3, r7, #20
 1245 0062 1146     		mov	r1, r2
 1246 0064 1846     		mov	r0, r3
 1247 0066 FFF7FEFF 		bl	lv_area_copy
 545:..\..\..\lvgl\version_6.1.2\lvgl\src\lv_core/lv_obj.c ****         obj_coords.x1 -= ext_size;
 1248              		.loc 2 545 0
 1249 006a B7F91430 		ldrsh	r3, [r7, #20]
 1250 006e 9AB2     		uxth	r2, r3
 1251 0070 FB8B     		ldrh	r3, [r7, #30]
 1252 0072 D31A     		subs	r3, r2, r3
 1253 0074 9BB2     		uxth	r3, r3
 1254 0076 1BB2     		sxth	r3, r3
 1255 0078 BB82     		strh	r3, [r7, #20]	@ movhi
 546:..\..\..\lvgl\version_6.1.2\lvgl\src\lv_core/lv_obj.c ****         obj_coords.y1 -= ext_size;
 1256              		.loc 2 546 0
 1257 007a B7F91630 		ldrsh	r3, [r7, #22]
 1258 007e 9AB2     		uxth	r2, r3
 1259 0080 FB8B     		ldrh	r3, [r7, #30]
 1260 0082 D31A     		subs	r3, r2, r3
 1261 0084 9BB2     		uxth	r3, r3
 1262 0086 1BB2     		sxth	r3, r3
 1263 0088 FB82     		strh	r3, [r7, #22]	@ movhi
 547:..\..\..\lvgl\version_6.1.2\lvgl\src\lv_core/lv_obj.c ****         obj_coords.x2 += ext_size;
 1264              		.loc 2 547 0
 1265 008a B7F91830 		ldrsh	r3, [r7, #24]
 1266 008e 9AB2     		uxth	r2, r3
 1267 0090 FB8B     		ldrh	r3, [r7, #30]
 1268 0092 1344     		add	r3, r3, r2
 1269 0094 9BB2     		uxth	r3, r3
 1270 0096 1BB2     		sxth	r3, r3
 1271 0098 3B83     		strh	r3, [r7, #24]	@ movhi
 548:..\..\..\lvgl\version_6.1.2\lvgl\src\lv_core/lv_obj.c ****         obj_coords.y2 += ext_size;
 1272              		.loc 2 548 0
 1273 009a B7F91A30 		ldrsh	r3, [r7, #26]
 1274 009e 9AB2     		uxth	r2, r3
 1275 00a0 FB8B     		ldrh	r3, [r7, #30]
 1276 00a2 1344     		add	r3, r3, r2
 1277 00a4 9BB2     		uxth	r3, r3
 1278 00a6 1BB2     		sxth	r3, r3
 1279 00a8 7B83     		strh	r3, [r7, #26]	@ movhi
 549:..\..\..\lvgl\version_6.1.2\lvgl\src\lv_core/lv_obj.c **** 
 550:..\..\..\lvgl\version_6.1.2\lvgl\src\lv_core/lv_obj.c ****         bool is_common;
 551:..\..\..\lvgl\version_6.1.2\lvgl\src\lv_core/lv_obj.c ****         lv_area_t area_trunc;
 552:..\..\..\lvgl\version_6.1.2\lvgl\src\lv_core/lv_obj.c **** 
 553:..\..\..\lvgl\version_6.1.2\lvgl\src\lv_core/lv_obj.c ****         is_common = lv_area_intersect(&area_trunc, area, &obj_coords);
 1280              		.loc 2 553 0
 1281 00aa 07F11402 		add	r2, r7, #20
ARM GAS  C:\Users\tmj32\AppData\Local\Temp\ccxLNxq9.s 			page 35


 1282 00ae 07F10C03 		add	r3, r7, #12
 1283 00b2 3968     		ldr	r1, [r7]
 1284 00b4 1846     		mov	r0, r3
 1285 00b6 FFF7FEFF 		bl	lv_area_intersect
 1286 00ba 0346     		mov	r3, r0
 1287 00bc 87F82F30 		strb	r3, [r7, #47]
 554:..\..\..\lvgl\version_6.1.2\lvgl\src\lv_core/lv_obj.c ****         if(is_common == false) return;  /*The area is not on the object*/
 1288              		.loc 2 554 0
 1289 00c0 97F82F30 		ldrb	r3, [r7, #47]
 1290 00c4 83F00103 		eor	r3, r3, #1
 1291 00c8 DBB2     		uxtb	r3, r3
 1292 00ca 002B     		cmp	r3, #0
 1293 00cc 34D1     		bne	.L67
 555:..\..\..\lvgl\version_6.1.2\lvgl\src\lv_core/lv_obj.c **** 
 556:..\..\..\lvgl\version_6.1.2\lvgl\src\lv_core/lv_obj.c ****         /*Truncate recursively to the parents*/
 557:..\..\..\lvgl\version_6.1.2\lvgl\src\lv_core/lv_obj.c ****         lv_obj_t * par = lv_obj_get_parent(obj);
 1294              		.loc 2 557 0
 1295 00ce 7868     		ldr	r0, [r7, #4]
 1296 00d0 FFF7FEFF 		bl	lv_obj_get_parent
 1297 00d4 B862     		str	r0, [r7, #40]
 558:..\..\..\lvgl\version_6.1.2\lvgl\src\lv_core/lv_obj.c ****         while(par != NULL) {
 1298              		.loc 2 558 0
 1299 00d6 1DE0     		b	.L60
 1300              	.L64:
 559:..\..\..\lvgl\version_6.1.2\lvgl\src\lv_core/lv_obj.c ****             is_common = lv_area_intersect(&area_trunc, &area_trunc, &par->coords);
 1301              		.loc 2 559 0
 1302 00d8 BB6A     		ldr	r3, [r7, #40]
 1303 00da 03F11002 		add	r2, r3, #16
 1304 00de 07F10C01 		add	r1, r7, #12
 1305 00e2 07F10C03 		add	r3, r7, #12
 1306 00e6 1846     		mov	r0, r3
 1307 00e8 FFF7FEFF 		bl	lv_area_intersect
 1308 00ec 0346     		mov	r3, r0
 1309 00ee 87F82F30 		strb	r3, [r7, #47]
 560:..\..\..\lvgl\version_6.1.2\lvgl\src\lv_core/lv_obj.c ****             if(is_common == false) break;       /*If no common parts with parent break;*/
 1310              		.loc 2 560 0
 1311 00f2 97F82F30 		ldrb	r3, [r7, #47]
 1312 00f6 83F00103 		eor	r3, r3, #1
 1313 00fa DBB2     		uxtb	r3, r3
 1314 00fc 002B     		cmp	r3, #0
 1315 00fe 0DD1     		bne	.L68
 561:..\..\..\lvgl\version_6.1.2\lvgl\src\lv_core/lv_obj.c ****             if(lv_obj_get_hidden(par)) return; /*If the parent is hidden then the child is hidden a
 1316              		.loc 2 561 0
 1317 0100 B86A     		ldr	r0, [r7, #40]
 1318 0102 FFF7FEFF 		bl	lv_obj_get_hidden
 1319 0106 0346     		mov	r3, r0
 1320 0108 002B     		cmp	r3, #0
 1321 010a 17D1     		bne	.L69
 562:..\..\..\lvgl\version_6.1.2\lvgl\src\lv_core/lv_obj.c **** 
 563:..\..\..\lvgl\version_6.1.2\lvgl\src\lv_core/lv_obj.c ****             par = lv_obj_get_parent(par);
 1322              		.loc 2 563 0
 1323 010c B86A     		ldr	r0, [r7, #40]
 1324 010e FFF7FEFF 		bl	lv_obj_get_parent
 1325 0112 B862     		str	r0, [r7, #40]
 1326              	.L60:
 558:..\..\..\lvgl\version_6.1.2\lvgl\src\lv_core/lv_obj.c ****             is_common = lv_area_intersect(&area_trunc, &area_trunc, &par->coords);
 1327              		.loc 2 558 0
ARM GAS  C:\Users\tmj32\AppData\Local\Temp\ccxLNxq9.s 			page 36


 1328 0114 BB6A     		ldr	r3, [r7, #40]
 1329 0116 002B     		cmp	r3, #0
 1330 0118 DED1     		bne	.L64
 1331 011a 00E0     		b	.L62
 1332              	.L68:
 560:..\..\..\lvgl\version_6.1.2\lvgl\src\lv_core/lv_obj.c ****             if(lv_obj_get_hidden(par)) return; /*If the parent is hidden then the child is hidden a
 1333              		.loc 2 560 0
 1334 011c 00BF     		nop
 1335              	.L62:
 564:..\..\..\lvgl\version_6.1.2\lvgl\src\lv_core/lv_obj.c ****         }
 565:..\..\..\lvgl\version_6.1.2\lvgl\src\lv_core/lv_obj.c **** 
 566:..\..\..\lvgl\version_6.1.2\lvgl\src\lv_core/lv_obj.c ****         if(is_common) lv_inv_area(disp, &area_trunc);
 1336              		.loc 2 566 0
 1337 011e 97F82F30 		ldrb	r3, [r7, #47]	@ zero_extendqisi2
 1338 0122 002B     		cmp	r3, #0
 1339 0124 0BD0     		beq	.L54
 1340              		.loc 2 566 0 is_stmt 0 discriminator 1
 1341 0126 07F10C03 		add	r3, r7, #12
 1342 012a 1946     		mov	r1, r3
 1343 012c 386A     		ldr	r0, [r7, #32]
 1344 012e FFF7FEFF 		bl	lv_inv_area
 1345 0132 04E0     		b	.L54
 1346              	.L66:
 1347              	.LBE5:
 533:..\..\..\lvgl\version_6.1.2\lvgl\src\lv_core/lv_obj.c **** 
 1348              		.loc 2 533 0 is_stmt 1
 1349 0134 00BF     		nop
 1350 0136 02E0     		b	.L54
 1351              	.L67:
 1352              	.LBB6:
 554:..\..\..\lvgl\version_6.1.2\lvgl\src\lv_core/lv_obj.c **** 
 1353              		.loc 2 554 0
 1354 0138 00BF     		nop
 1355 013a 00E0     		b	.L54
 1356              	.L69:
 561:..\..\..\lvgl\version_6.1.2\lvgl\src\lv_core/lv_obj.c **** 
 1357              		.loc 2 561 0
 1358 013c 00BF     		nop
 1359              	.L54:
 1360              	.LBE6:
 567:..\..\..\lvgl\version_6.1.2\lvgl\src\lv_core/lv_obj.c ****     }
 568:..\..\..\lvgl\version_6.1.2\lvgl\src\lv_core/lv_obj.c **** }
 1361              		.loc 2 568 0
 1362 013e 3037     		adds	r7, r7, #48
 1363              		.cfi_def_cfa_offset 8
 1364 0140 BD46     		mov	sp, r7
 1365              		.cfi_def_cfa_register 13
 1366              		@ sp needed
 1367 0142 80BD     		pop	{r7, pc}
 1368              		.cfi_endproc
 1369              	.LFE41:
 1370              		.size	lv_obj_invalidate_area, .-lv_obj_invalidate_area
 1371              		.section	.text.lv_obj_invalidate,"ax",%progbits
 1372              		.align	2
 1373              		.global	lv_obj_invalidate
 1374              		.thumb
 1375              		.thumb_func
ARM GAS  C:\Users\tmj32\AppData\Local\Temp\ccxLNxq9.s 			page 37


 1376              		.type	lv_obj_invalidate, %function
 1377              	lv_obj_invalidate:
 1378              	.LFB42:
 569:..\..\..\lvgl\version_6.1.2\lvgl\src\lv_core/lv_obj.c **** 
 570:..\..\..\lvgl\version_6.1.2\lvgl\src\lv_core/lv_obj.c **** /**
 571:..\..\..\lvgl\version_6.1.2\lvgl\src\lv_core/lv_obj.c ****  * Mark the object as invalid therefore its current position will be redrawn by 'lv_refr_task'
 572:..\..\..\lvgl\version_6.1.2\lvgl\src\lv_core/lv_obj.c ****  * @param obj pointer to an object
 573:..\..\..\lvgl\version_6.1.2\lvgl\src\lv_core/lv_obj.c ****  */
 574:..\..\..\lvgl\version_6.1.2\lvgl\src\lv_core/lv_obj.c **** void lv_obj_invalidate(const lv_obj_t * obj)
 575:..\..\..\lvgl\version_6.1.2\lvgl\src\lv_core/lv_obj.c **** {
 1379              		.loc 2 575 0
 1380              		.cfi_startproc
 1381              		@ args = 0, pretend = 0, frame = 24
 1382              		@ frame_needed = 1, uses_anonymous_args = 0
 1383 0000 80B5     		push	{r7, lr}
 1384              		.cfi_def_cfa_offset 8
 1385              		.cfi_offset 7, -8
 1386              		.cfi_offset 14, -4
 1387 0002 86B0     		sub	sp, sp, #24
 1388              		.cfi_def_cfa_offset 32
 1389 0004 00AF     		add	r7, sp, #0
 1390              		.cfi_def_cfa_register 7
 1391 0006 7860     		str	r0, [r7, #4]
 576:..\..\..\lvgl\version_6.1.2\lvgl\src\lv_core/lv_obj.c ****     LV_ASSERT_OBJ(obj, LV_OBJX_NAME);
 577:..\..\..\lvgl\version_6.1.2\lvgl\src\lv_core/lv_obj.c **** 
 578:..\..\..\lvgl\version_6.1.2\lvgl\src\lv_core/lv_obj.c ****     /*Truncate the area to the object*/
 579:..\..\..\lvgl\version_6.1.2\lvgl\src\lv_core/lv_obj.c ****     lv_area_t obj_coords;
 580:..\..\..\lvgl\version_6.1.2\lvgl\src\lv_core/lv_obj.c ****     lv_coord_t ext_size = obj->ext_draw_pad;
 1392              		.loc 2 580 0
 1393 0008 7B68     		ldr	r3, [r7, #4]
 1394 000a 1B8E     		ldrh	r3, [r3, #48]	@ movhi
 1395 000c FB82     		strh	r3, [r7, #22]	@ movhi
 581:..\..\..\lvgl\version_6.1.2\lvgl\src\lv_core/lv_obj.c ****     lv_area_copy(&obj_coords, &obj->coords);
 1396              		.loc 2 581 0
 1397 000e 7B68     		ldr	r3, [r7, #4]
 1398 0010 03F11002 		add	r2, r3, #16
 1399 0014 07F10C03 		add	r3, r7, #12
 1400 0018 1146     		mov	r1, r2
 1401 001a 1846     		mov	r0, r3
 1402 001c FFF7FEFF 		bl	lv_area_copy
 582:..\..\..\lvgl\version_6.1.2\lvgl\src\lv_core/lv_obj.c ****     obj_coords.x1 -= ext_size;
 1403              		.loc 2 582 0
 1404 0020 B7F90C30 		ldrsh	r3, [r7, #12]
 1405 0024 9AB2     		uxth	r2, r3
 1406 0026 FB8A     		ldrh	r3, [r7, #22]
 1407 0028 D31A     		subs	r3, r2, r3
 1408 002a 9BB2     		uxth	r3, r3
 1409 002c 1BB2     		sxth	r3, r3
 1410 002e BB81     		strh	r3, [r7, #12]	@ movhi
 583:..\..\..\lvgl\version_6.1.2\lvgl\src\lv_core/lv_obj.c ****     obj_coords.y1 -= ext_size;
 1411              		.loc 2 583 0
 1412 0030 B7F90E30 		ldrsh	r3, [r7, #14]
 1413 0034 9AB2     		uxth	r2, r3
 1414 0036 FB8A     		ldrh	r3, [r7, #22]
 1415 0038 D31A     		subs	r3, r2, r3
 1416 003a 9BB2     		uxth	r3, r3
 1417 003c 1BB2     		sxth	r3, r3
ARM GAS  C:\Users\tmj32\AppData\Local\Temp\ccxLNxq9.s 			page 38


 1418 003e FB81     		strh	r3, [r7, #14]	@ movhi
 584:..\..\..\lvgl\version_6.1.2\lvgl\src\lv_core/lv_obj.c ****     obj_coords.x2 += ext_size;
 1419              		.loc 2 584 0
 1420 0040 B7F91030 		ldrsh	r3, [r7, #16]
 1421 0044 9AB2     		uxth	r2, r3
 1422 0046 FB8A     		ldrh	r3, [r7, #22]
 1423 0048 1344     		add	r3, r3, r2
 1424 004a 9BB2     		uxth	r3, r3
 1425 004c 1BB2     		sxth	r3, r3
 1426 004e 3B82     		strh	r3, [r7, #16]	@ movhi
 585:..\..\..\lvgl\version_6.1.2\lvgl\src\lv_core/lv_obj.c ****     obj_coords.y2 += ext_size;
 1427              		.loc 2 585 0
 1428 0050 B7F91230 		ldrsh	r3, [r7, #18]
 1429 0054 9AB2     		uxth	r2, r3
 1430 0056 FB8A     		ldrh	r3, [r7, #22]
 1431 0058 1344     		add	r3, r3, r2
 1432 005a 9BB2     		uxth	r3, r3
 1433 005c 1BB2     		sxth	r3, r3
 1434 005e 7B82     		strh	r3, [r7, #18]	@ movhi
 586:..\..\..\lvgl\version_6.1.2\lvgl\src\lv_core/lv_obj.c **** 
 587:..\..\..\lvgl\version_6.1.2\lvgl\src\lv_core/lv_obj.c ****     lv_obj_invalidate_area(obj, &obj_coords);
 1435              		.loc 2 587 0
 1436 0060 07F10C03 		add	r3, r7, #12
 1437 0064 1946     		mov	r1, r3
 1438 0066 7868     		ldr	r0, [r7, #4]
 1439 0068 FFF7FEFF 		bl	lv_obj_invalidate_area
 588:..\..\..\lvgl\version_6.1.2\lvgl\src\lv_core/lv_obj.c **** 
 589:..\..\..\lvgl\version_6.1.2\lvgl\src\lv_core/lv_obj.c **** }
 1440              		.loc 2 589 0
 1441 006c 00BF     		nop
 1442 006e 1837     		adds	r7, r7, #24
 1443              		.cfi_def_cfa_offset 8
 1444 0070 BD46     		mov	sp, r7
 1445              		.cfi_def_cfa_register 13
 1446              		@ sp needed
 1447 0072 80BD     		pop	{r7, pc}
 1448              		.cfi_endproc
 1449              	.LFE42:
 1450              		.size	lv_obj_invalidate, .-lv_obj_invalidate
 1451              		.section	.text.lv_obj_set_parent,"ax",%progbits
 1452              		.align	2
 1453              		.global	lv_obj_set_parent
 1454              		.thumb
 1455              		.thumb_func
 1456              		.type	lv_obj_set_parent, %function
 1457              	lv_obj_set_parent:
 1458              	.LFB43:
 590:..\..\..\lvgl\version_6.1.2\lvgl\src\lv_core/lv_obj.c **** /*=====================
 591:..\..\..\lvgl\version_6.1.2\lvgl\src\lv_core/lv_obj.c ****  * Setter functions
 592:..\..\..\lvgl\version_6.1.2\lvgl\src\lv_core/lv_obj.c ****  *====================*/
 593:..\..\..\lvgl\version_6.1.2\lvgl\src\lv_core/lv_obj.c **** 
 594:..\..\..\lvgl\version_6.1.2\lvgl\src\lv_core/lv_obj.c **** /*--------------------
 595:..\..\..\lvgl\version_6.1.2\lvgl\src\lv_core/lv_obj.c ****  * Parent/children set
 596:..\..\..\lvgl\version_6.1.2\lvgl\src\lv_core/lv_obj.c ****  *--------------------*/
 597:..\..\..\lvgl\version_6.1.2\lvgl\src\lv_core/lv_obj.c **** 
 598:..\..\..\lvgl\version_6.1.2\lvgl\src\lv_core/lv_obj.c **** /**
 599:..\..\..\lvgl\version_6.1.2\lvgl\src\lv_core/lv_obj.c ****  * Set a new parent for an object. Its relative position will be the same.
ARM GAS  C:\Users\tmj32\AppData\Local\Temp\ccxLNxq9.s 			page 39


 600:..\..\..\lvgl\version_6.1.2\lvgl\src\lv_core/lv_obj.c ****  * @param obj pointer to an object. Can't be a screen.
 601:..\..\..\lvgl\version_6.1.2\lvgl\src\lv_core/lv_obj.c ****  * @param parent pointer to the new parent object. (Can't be NULL)
 602:..\..\..\lvgl\version_6.1.2\lvgl\src\lv_core/lv_obj.c ****  */
 603:..\..\..\lvgl\version_6.1.2\lvgl\src\lv_core/lv_obj.c **** void lv_obj_set_parent(lv_obj_t * obj, lv_obj_t * parent)
 604:..\..\..\lvgl\version_6.1.2\lvgl\src\lv_core/lv_obj.c **** {
 1459              		.loc 2 604 0
 1460              		.cfi_startproc
 1461              		@ args = 0, pretend = 0, frame = 16
 1462              		@ frame_needed = 1, uses_anonymous_args = 0
 1463 0000 80B5     		push	{r7, lr}
 1464              		.cfi_def_cfa_offset 8
 1465              		.cfi_offset 7, -8
 1466              		.cfi_offset 14, -4
 1467 0002 84B0     		sub	sp, sp, #16
 1468              		.cfi_def_cfa_offset 24
 1469 0004 00AF     		add	r7, sp, #0
 1470              		.cfi_def_cfa_register 7
 1471 0006 7860     		str	r0, [r7, #4]
 1472 0008 3960     		str	r1, [r7]
 605:..\..\..\lvgl\version_6.1.2\lvgl\src\lv_core/lv_obj.c ****     LV_ASSERT_OBJ(obj, LV_OBJX_NAME);
 606:..\..\..\lvgl\version_6.1.2\lvgl\src\lv_core/lv_obj.c ****     LV_ASSERT_OBJ(parent, LV_OBJX_NAME);
 607:..\..\..\lvgl\version_6.1.2\lvgl\src\lv_core/lv_obj.c **** 
 608:..\..\..\lvgl\version_6.1.2\lvgl\src\lv_core/lv_obj.c ****     if(obj->par == NULL) {
 1473              		.loc 2 608 0
 1474 000a 7B68     		ldr	r3, [r7, #4]
 1475 000c 1B68     		ldr	r3, [r3]
 1476 000e 002B     		cmp	r3, #0
 1477 0010 36D0     		beq	.L76
 609:..\..\..\lvgl\version_6.1.2\lvgl\src\lv_core/lv_obj.c ****         LV_LOG_WARN("Can't set the parent of a screen");
 610:..\..\..\lvgl\version_6.1.2\lvgl\src\lv_core/lv_obj.c ****         return;
 611:..\..\..\lvgl\version_6.1.2\lvgl\src\lv_core/lv_obj.c ****     }
 612:..\..\..\lvgl\version_6.1.2\lvgl\src\lv_core/lv_obj.c **** 
 613:..\..\..\lvgl\version_6.1.2\lvgl\src\lv_core/lv_obj.c ****     if(parent == NULL) {
 1478              		.loc 2 613 0
 1479 0012 3B68     		ldr	r3, [r7]
 1480 0014 002B     		cmp	r3, #0
 1481 0016 35D0     		beq	.L77
 614:..\..\..\lvgl\version_6.1.2\lvgl\src\lv_core/lv_obj.c ****         LV_LOG_WARN("Can't set parent == NULL to an object");
 615:..\..\..\lvgl\version_6.1.2\lvgl\src\lv_core/lv_obj.c ****         return;
 616:..\..\..\lvgl\version_6.1.2\lvgl\src\lv_core/lv_obj.c ****     }
 617:..\..\..\lvgl\version_6.1.2\lvgl\src\lv_core/lv_obj.c **** 
 618:..\..\..\lvgl\version_6.1.2\lvgl\src\lv_core/lv_obj.c ****     lv_obj_invalidate(obj);
 1482              		.loc 2 618 0
 1483 0018 7868     		ldr	r0, [r7, #4]
 1484 001a FFF7FEFF 		bl	lv_obj_invalidate
 619:..\..\..\lvgl\version_6.1.2\lvgl\src\lv_core/lv_obj.c **** 
 620:..\..\..\lvgl\version_6.1.2\lvgl\src\lv_core/lv_obj.c ****     lv_point_t old_pos;
 621:..\..\..\lvgl\version_6.1.2\lvgl\src\lv_core/lv_obj.c ****     old_pos.x = lv_obj_get_x(obj);
 1485              		.loc 2 621 0
 1486 001e 7868     		ldr	r0, [r7, #4]
 1487 0020 FFF7FEFF 		bl	lv_obj_get_x
 1488 0024 0346     		mov	r3, r0
 1489 0026 3B81     		strh	r3, [r7, #8]	@ movhi
 622:..\..\..\lvgl\version_6.1.2\lvgl\src\lv_core/lv_obj.c ****     old_pos.y = lv_obj_get_y(obj);
 1490              		.loc 2 622 0
 1491 0028 7868     		ldr	r0, [r7, #4]
 1492 002a FFF7FEFF 		bl	lv_obj_get_y
ARM GAS  C:\Users\tmj32\AppData\Local\Temp\ccxLNxq9.s 			page 40


 1493 002e 0346     		mov	r3, r0
 1494 0030 7B81     		strh	r3, [r7, #10]	@ movhi
 623:..\..\..\lvgl\version_6.1.2\lvgl\src\lv_core/lv_obj.c **** 
 624:..\..\..\lvgl\version_6.1.2\lvgl\src\lv_core/lv_obj.c ****     lv_obj_t * old_par = obj->par;
 1495              		.loc 2 624 0
 1496 0032 7B68     		ldr	r3, [r7, #4]
 1497 0034 1B68     		ldr	r3, [r3]
 1498 0036 FB60     		str	r3, [r7, #12]
 625:..\..\..\lvgl\version_6.1.2\lvgl\src\lv_core/lv_obj.c **** 
 626:..\..\..\lvgl\version_6.1.2\lvgl\src\lv_core/lv_obj.c ****     lv_ll_chg_list(&obj->par->child_ll, &parent->child_ll, obj, true);
 1499              		.loc 2 626 0
 1500 0038 7B68     		ldr	r3, [r7, #4]
 1501 003a 1B68     		ldr	r3, [r3]
 1502 003c 181D     		adds	r0, r3, #4
 1503 003e 3B68     		ldr	r3, [r7]
 1504 0040 191D     		adds	r1, r3, #4
 1505 0042 0123     		movs	r3, #1
 1506 0044 7A68     		ldr	r2, [r7, #4]
 1507 0046 FFF7FEFF 		bl	lv_ll_chg_list
 627:..\..\..\lvgl\version_6.1.2\lvgl\src\lv_core/lv_obj.c ****     obj->par = parent;
 1508              		.loc 2 627 0
 1509 004a 7B68     		ldr	r3, [r7, #4]
 1510 004c 3A68     		ldr	r2, [r7]
 1511 004e 1A60     		str	r2, [r3]
 628:..\..\..\lvgl\version_6.1.2\lvgl\src\lv_core/lv_obj.c ****     lv_obj_set_pos(obj, old_pos.x, old_pos.y);
 1512              		.loc 2 628 0
 1513 0050 B7F90830 		ldrsh	r3, [r7, #8]
 1514 0054 B7F90A20 		ldrsh	r2, [r7, #10]
 1515 0058 1946     		mov	r1, r3
 1516 005a 7868     		ldr	r0, [r7, #4]
 1517 005c FFF7FEFF 		bl	lv_obj_set_pos
 629:..\..\..\lvgl\version_6.1.2\lvgl\src\lv_core/lv_obj.c **** 
 630:..\..\..\lvgl\version_6.1.2\lvgl\src\lv_core/lv_obj.c ****     /*Notify the original parent because one of its children is lost*/
 631:..\..\..\lvgl\version_6.1.2\lvgl\src\lv_core/lv_obj.c ****     old_par->signal_cb(old_par, LV_SIGNAL_CHILD_CHG, NULL);
 1518              		.loc 2 631 0
 1519 0060 FB68     		ldr	r3, [r7, #12]
 1520 0062 DB69     		ldr	r3, [r3, #28]
 1521 0064 0022     		movs	r2, #0
 1522 0066 0121     		movs	r1, #1
 1523 0068 F868     		ldr	r0, [r7, #12]
 1524 006a 9847     		blx	r3
 632:..\..\..\lvgl\version_6.1.2\lvgl\src\lv_core/lv_obj.c **** 
 633:..\..\..\lvgl\version_6.1.2\lvgl\src\lv_core/lv_obj.c ****     /*Notify the new parent about the child*/
 634:..\..\..\lvgl\version_6.1.2\lvgl\src\lv_core/lv_obj.c ****     parent->signal_cb(parent, LV_SIGNAL_CHILD_CHG, obj);
 1525              		.loc 2 634 0
 1526 006c 3B68     		ldr	r3, [r7]
 1527 006e DB69     		ldr	r3, [r3, #28]
 1528 0070 7A68     		ldr	r2, [r7, #4]
 1529 0072 0121     		movs	r1, #1
 1530 0074 3868     		ldr	r0, [r7]
 1531 0076 9847     		blx	r3
 635:..\..\..\lvgl\version_6.1.2\lvgl\src\lv_core/lv_obj.c **** 
 636:..\..\..\lvgl\version_6.1.2\lvgl\src\lv_core/lv_obj.c ****     lv_obj_invalidate(obj);
 1532              		.loc 2 636 0
 1533 0078 7868     		ldr	r0, [r7, #4]
 1534 007a FFF7FEFF 		bl	lv_obj_invalidate
 1535 007e 02E0     		b	.L71
ARM GAS  C:\Users\tmj32\AppData\Local\Temp\ccxLNxq9.s 			page 41


 1536              	.L76:
 610:..\..\..\lvgl\version_6.1.2\lvgl\src\lv_core/lv_obj.c ****     }
 1537              		.loc 2 610 0
 1538 0080 00BF     		nop
 1539 0082 00E0     		b	.L71
 1540              	.L77:
 615:..\..\..\lvgl\version_6.1.2\lvgl\src\lv_core/lv_obj.c ****     }
 1541              		.loc 2 615 0
 1542 0084 00BF     		nop
 1543              	.L71:
 637:..\..\..\lvgl\version_6.1.2\lvgl\src\lv_core/lv_obj.c **** }
 1544              		.loc 2 637 0
 1545 0086 1037     		adds	r7, r7, #16
 1546              		.cfi_def_cfa_offset 8
 1547 0088 BD46     		mov	sp, r7
 1548              		.cfi_def_cfa_register 13
 1549              		@ sp needed
 1550 008a 80BD     		pop	{r7, pc}
 1551              		.cfi_endproc
 1552              	.LFE43:
 1553              		.size	lv_obj_set_parent, .-lv_obj_set_parent
 1554              		.section	.text.lv_obj_move_foreground,"ax",%progbits
 1555              		.align	2
 1556              		.global	lv_obj_move_foreground
 1557              		.thumb
 1558              		.thumb_func
 1559              		.type	lv_obj_move_foreground, %function
 1560              	lv_obj_move_foreground:
 1561              	.LFB44:
 638:..\..\..\lvgl\version_6.1.2\lvgl\src\lv_core/lv_obj.c **** 
 639:..\..\..\lvgl\version_6.1.2\lvgl\src\lv_core/lv_obj.c **** /**
 640:..\..\..\lvgl\version_6.1.2\lvgl\src\lv_core/lv_obj.c ****  * Move and object to the foreground
 641:..\..\..\lvgl\version_6.1.2\lvgl\src\lv_core/lv_obj.c ****  * @param obj pointer to an object
 642:..\..\..\lvgl\version_6.1.2\lvgl\src\lv_core/lv_obj.c ****  */
 643:..\..\..\lvgl\version_6.1.2\lvgl\src\lv_core/lv_obj.c **** void lv_obj_move_foreground(lv_obj_t * obj)
 644:..\..\..\lvgl\version_6.1.2\lvgl\src\lv_core/lv_obj.c **** {
 1562              		.loc 2 644 0
 1563              		.cfi_startproc
 1564              		@ args = 0, pretend = 0, frame = 16
 1565              		@ frame_needed = 1, uses_anonymous_args = 0
 1566 0000 80B5     		push	{r7, lr}
 1567              		.cfi_def_cfa_offset 8
 1568              		.cfi_offset 7, -8
 1569              		.cfi_offset 14, -4
 1570 0002 84B0     		sub	sp, sp, #16
 1571              		.cfi_def_cfa_offset 24
 1572 0004 00AF     		add	r7, sp, #0
 1573              		.cfi_def_cfa_register 7
 1574 0006 7860     		str	r0, [r7, #4]
 645:..\..\..\lvgl\version_6.1.2\lvgl\src\lv_core/lv_obj.c ****     LV_ASSERT_OBJ(obj, LV_OBJX_NAME);
 646:..\..\..\lvgl\version_6.1.2\lvgl\src\lv_core/lv_obj.c **** 
 647:..\..\..\lvgl\version_6.1.2\lvgl\src\lv_core/lv_obj.c ****     lv_obj_t * parent = lv_obj_get_parent(obj);
 1575              		.loc 2 647 0
 1576 0008 7868     		ldr	r0, [r7, #4]
 1577 000a FFF7FEFF 		bl	lv_obj_get_parent
 1578 000e F860     		str	r0, [r7, #12]
 648:..\..\..\lvgl\version_6.1.2\lvgl\src\lv_core/lv_obj.c **** 
ARM GAS  C:\Users\tmj32\AppData\Local\Temp\ccxLNxq9.s 			page 42


 649:..\..\..\lvgl\version_6.1.2\lvgl\src\lv_core/lv_obj.c ****     /*Do nothing of already in the foreground*/
 650:..\..\..\lvgl\version_6.1.2\lvgl\src\lv_core/lv_obj.c ****     if(lv_ll_get_head(&parent->child_ll) == obj) return;
 1579              		.loc 2 650 0
 1580 0010 FB68     		ldr	r3, [r7, #12]
 1581 0012 0433     		adds	r3, r3, #4
 1582 0014 1846     		mov	r0, r3
 1583 0016 FFF7FEFF 		bl	lv_ll_get_head
 1584 001a 0246     		mov	r2, r0
 1585 001c 7B68     		ldr	r3, [r7, #4]
 1586 001e 9A42     		cmp	r2, r3
 1587 0020 14D0     		beq	.L81
 651:..\..\..\lvgl\version_6.1.2\lvgl\src\lv_core/lv_obj.c **** 
 652:..\..\..\lvgl\version_6.1.2\lvgl\src\lv_core/lv_obj.c ****     lv_obj_invalidate(parent);
 1588              		.loc 2 652 0
 1589 0022 F868     		ldr	r0, [r7, #12]
 1590 0024 FFF7FEFF 		bl	lv_obj_invalidate
 653:..\..\..\lvgl\version_6.1.2\lvgl\src\lv_core/lv_obj.c **** 
 654:..\..\..\lvgl\version_6.1.2\lvgl\src\lv_core/lv_obj.c ****     lv_ll_chg_list(&parent->child_ll, &parent->child_ll, obj, true);
 1591              		.loc 2 654 0
 1592 0028 FB68     		ldr	r3, [r7, #12]
 1593 002a 181D     		adds	r0, r3, #4
 1594 002c FB68     		ldr	r3, [r7, #12]
 1595 002e 191D     		adds	r1, r3, #4
 1596 0030 0123     		movs	r3, #1
 1597 0032 7A68     		ldr	r2, [r7, #4]
 1598 0034 FFF7FEFF 		bl	lv_ll_chg_list
 655:..\..\..\lvgl\version_6.1.2\lvgl\src\lv_core/lv_obj.c **** 
 656:..\..\..\lvgl\version_6.1.2\lvgl\src\lv_core/lv_obj.c ****     /*Notify the new parent about the child*/
 657:..\..\..\lvgl\version_6.1.2\lvgl\src\lv_core/lv_obj.c ****     parent->signal_cb(parent, LV_SIGNAL_CHILD_CHG, obj);
 1599              		.loc 2 657 0
 1600 0038 FB68     		ldr	r3, [r7, #12]
 1601 003a DB69     		ldr	r3, [r3, #28]
 1602 003c 7A68     		ldr	r2, [r7, #4]
 1603 003e 0121     		movs	r1, #1
 1604 0040 F868     		ldr	r0, [r7, #12]
 1605 0042 9847     		blx	r3
 658:..\..\..\lvgl\version_6.1.2\lvgl\src\lv_core/lv_obj.c **** 
 659:..\..\..\lvgl\version_6.1.2\lvgl\src\lv_core/lv_obj.c ****     lv_obj_invalidate(parent);
 1606              		.loc 2 659 0
 1607 0044 F868     		ldr	r0, [r7, #12]
 1608 0046 FFF7FEFF 		bl	lv_obj_invalidate
 1609 004a 00E0     		b	.L78
 1610              	.L81:
 650:..\..\..\lvgl\version_6.1.2\lvgl\src\lv_core/lv_obj.c **** 
 1611              		.loc 2 650 0
 1612 004c 00BF     		nop
 1613              	.L78:
 660:..\..\..\lvgl\version_6.1.2\lvgl\src\lv_core/lv_obj.c **** }
 1614              		.loc 2 660 0
 1615 004e 1037     		adds	r7, r7, #16
 1616              		.cfi_def_cfa_offset 8
 1617 0050 BD46     		mov	sp, r7
 1618              		.cfi_def_cfa_register 13
 1619              		@ sp needed
 1620 0052 80BD     		pop	{r7, pc}
 1621              		.cfi_endproc
 1622              	.LFE44:
ARM GAS  C:\Users\tmj32\AppData\Local\Temp\ccxLNxq9.s 			page 43


 1623              		.size	lv_obj_move_foreground, .-lv_obj_move_foreground
 1624              		.section	.text.lv_obj_move_background,"ax",%progbits
 1625              		.align	2
 1626              		.global	lv_obj_move_background
 1627              		.thumb
 1628              		.thumb_func
 1629              		.type	lv_obj_move_background, %function
 1630              	lv_obj_move_background:
 1631              	.LFB45:
 661:..\..\..\lvgl\version_6.1.2\lvgl\src\lv_core/lv_obj.c **** 
 662:..\..\..\lvgl\version_6.1.2\lvgl\src\lv_core/lv_obj.c **** /**
 663:..\..\..\lvgl\version_6.1.2\lvgl\src\lv_core/lv_obj.c ****  * Move and object to the background
 664:..\..\..\lvgl\version_6.1.2\lvgl\src\lv_core/lv_obj.c ****  * @param obj pointer to an object
 665:..\..\..\lvgl\version_6.1.2\lvgl\src\lv_core/lv_obj.c ****  */
 666:..\..\..\lvgl\version_6.1.2\lvgl\src\lv_core/lv_obj.c **** void lv_obj_move_background(lv_obj_t * obj)
 667:..\..\..\lvgl\version_6.1.2\lvgl\src\lv_core/lv_obj.c **** {
 1632              		.loc 2 667 0
 1633              		.cfi_startproc
 1634              		@ args = 0, pretend = 0, frame = 16
 1635              		@ frame_needed = 1, uses_anonymous_args = 0
 1636 0000 80B5     		push	{r7, lr}
 1637              		.cfi_def_cfa_offset 8
 1638              		.cfi_offset 7, -8
 1639              		.cfi_offset 14, -4
 1640 0002 84B0     		sub	sp, sp, #16
 1641              		.cfi_def_cfa_offset 24
 1642 0004 00AF     		add	r7, sp, #0
 1643              		.cfi_def_cfa_register 7
 1644 0006 7860     		str	r0, [r7, #4]
 668:..\..\..\lvgl\version_6.1.2\lvgl\src\lv_core/lv_obj.c ****     LV_ASSERT_OBJ(obj, LV_OBJX_NAME);
 669:..\..\..\lvgl\version_6.1.2\lvgl\src\lv_core/lv_obj.c **** 
 670:..\..\..\lvgl\version_6.1.2\lvgl\src\lv_core/lv_obj.c ****     lv_obj_t * parent = lv_obj_get_parent(obj);
 1645              		.loc 2 670 0
 1646 0008 7868     		ldr	r0, [r7, #4]
 1647 000a FFF7FEFF 		bl	lv_obj_get_parent
 1648 000e F860     		str	r0, [r7, #12]
 671:..\..\..\lvgl\version_6.1.2\lvgl\src\lv_core/lv_obj.c **** 
 672:..\..\..\lvgl\version_6.1.2\lvgl\src\lv_core/lv_obj.c ****     /*Do nothing of already in the background*/
 673:..\..\..\lvgl\version_6.1.2\lvgl\src\lv_core/lv_obj.c ****     if(lv_ll_get_tail(&parent->child_ll) == obj) return;
 1649              		.loc 2 673 0
 1650 0010 FB68     		ldr	r3, [r7, #12]
 1651 0012 0433     		adds	r3, r3, #4
 1652 0014 1846     		mov	r0, r3
 1653 0016 FFF7FEFF 		bl	lv_ll_get_tail
 1654 001a 0246     		mov	r2, r0
 1655 001c 7B68     		ldr	r3, [r7, #4]
 1656 001e 9A42     		cmp	r2, r3
 1657 0020 14D0     		beq	.L85
 674:..\..\..\lvgl\version_6.1.2\lvgl\src\lv_core/lv_obj.c **** 
 675:..\..\..\lvgl\version_6.1.2\lvgl\src\lv_core/lv_obj.c ****     lv_obj_invalidate(parent);
 1658              		.loc 2 675 0
 1659 0022 F868     		ldr	r0, [r7, #12]
 1660 0024 FFF7FEFF 		bl	lv_obj_invalidate
 676:..\..\..\lvgl\version_6.1.2\lvgl\src\lv_core/lv_obj.c **** 
 677:..\..\..\lvgl\version_6.1.2\lvgl\src\lv_core/lv_obj.c ****     lv_ll_chg_list(&parent->child_ll, &parent->child_ll, obj, false);
 1661              		.loc 2 677 0
 1662 0028 FB68     		ldr	r3, [r7, #12]
ARM GAS  C:\Users\tmj32\AppData\Local\Temp\ccxLNxq9.s 			page 44


 1663 002a 181D     		adds	r0, r3, #4
 1664 002c FB68     		ldr	r3, [r7, #12]
 1665 002e 191D     		adds	r1, r3, #4
 1666 0030 0023     		movs	r3, #0
 1667 0032 7A68     		ldr	r2, [r7, #4]
 1668 0034 FFF7FEFF 		bl	lv_ll_chg_list
 678:..\..\..\lvgl\version_6.1.2\lvgl\src\lv_core/lv_obj.c **** 
 679:..\..\..\lvgl\version_6.1.2\lvgl\src\lv_core/lv_obj.c ****     /*Notify the new parent about the child*/
 680:..\..\..\lvgl\version_6.1.2\lvgl\src\lv_core/lv_obj.c ****     parent->signal_cb(parent, LV_SIGNAL_CHILD_CHG, obj);
 1669              		.loc 2 680 0
 1670 0038 FB68     		ldr	r3, [r7, #12]
 1671 003a DB69     		ldr	r3, [r3, #28]
 1672 003c 7A68     		ldr	r2, [r7, #4]
 1673 003e 0121     		movs	r1, #1
 1674 0040 F868     		ldr	r0, [r7, #12]
 1675 0042 9847     		blx	r3
 681:..\..\..\lvgl\version_6.1.2\lvgl\src\lv_core/lv_obj.c **** 
 682:..\..\..\lvgl\version_6.1.2\lvgl\src\lv_core/lv_obj.c ****     lv_obj_invalidate(parent);
 1676              		.loc 2 682 0
 1677 0044 F868     		ldr	r0, [r7, #12]
 1678 0046 FFF7FEFF 		bl	lv_obj_invalidate
 1679 004a 00E0     		b	.L82
 1680              	.L85:
 673:..\..\..\lvgl\version_6.1.2\lvgl\src\lv_core/lv_obj.c **** 
 1681              		.loc 2 673 0
 1682 004c 00BF     		nop
 1683              	.L82:
 683:..\..\..\lvgl\version_6.1.2\lvgl\src\lv_core/lv_obj.c **** }
 1684              		.loc 2 683 0
 1685 004e 1037     		adds	r7, r7, #16
 1686              		.cfi_def_cfa_offset 8
 1687 0050 BD46     		mov	sp, r7
 1688              		.cfi_def_cfa_register 13
 1689              		@ sp needed
 1690 0052 80BD     		pop	{r7, pc}
 1691              		.cfi_endproc
 1692              	.LFE45:
 1693              		.size	lv_obj_move_background, .-lv_obj_move_background
 1694              		.section	.text.lv_obj_set_pos,"ax",%progbits
 1695              		.align	2
 1696              		.global	lv_obj_set_pos
 1697              		.thumb
 1698              		.thumb_func
 1699              		.type	lv_obj_set_pos, %function
 1700              	lv_obj_set_pos:
 1701              	.LFB46:
 684:..\..\..\lvgl\version_6.1.2\lvgl\src\lv_core/lv_obj.c **** 
 685:..\..\..\lvgl\version_6.1.2\lvgl\src\lv_core/lv_obj.c **** /*--------------------
 686:..\..\..\lvgl\version_6.1.2\lvgl\src\lv_core/lv_obj.c ****  * Coordinate set
 687:..\..\..\lvgl\version_6.1.2\lvgl\src\lv_core/lv_obj.c ****  * ------------------*/
 688:..\..\..\lvgl\version_6.1.2\lvgl\src\lv_core/lv_obj.c **** 
 689:..\..\..\lvgl\version_6.1.2\lvgl\src\lv_core/lv_obj.c **** /**
 690:..\..\..\lvgl\version_6.1.2\lvgl\src\lv_core/lv_obj.c ****  * Set relative the position of an object (relative to the parent)
 691:..\..\..\lvgl\version_6.1.2\lvgl\src\lv_core/lv_obj.c ****  * @param obj pointer to an object
 692:..\..\..\lvgl\version_6.1.2\lvgl\src\lv_core/lv_obj.c ****  * @param x new distance from the left side of the parent
 693:..\..\..\lvgl\version_6.1.2\lvgl\src\lv_core/lv_obj.c ****  * @param y new distance from the top of the parent
 694:..\..\..\lvgl\version_6.1.2\lvgl\src\lv_core/lv_obj.c ****  */
ARM GAS  C:\Users\tmj32\AppData\Local\Temp\ccxLNxq9.s 			page 45


 695:..\..\..\lvgl\version_6.1.2\lvgl\src\lv_core/lv_obj.c **** void lv_obj_set_pos(lv_obj_t * obj, lv_coord_t x, lv_coord_t y)
 696:..\..\..\lvgl\version_6.1.2\lvgl\src\lv_core/lv_obj.c **** {
 1702              		.loc 2 696 0
 1703              		.cfi_startproc
 1704              		@ args = 0, pretend = 0, frame = 24
 1705              		@ frame_needed = 1, uses_anonymous_args = 0
 1706 0000 80B5     		push	{r7, lr}
 1707              		.cfi_def_cfa_offset 8
 1708              		.cfi_offset 7, -8
 1709              		.cfi_offset 14, -4
 1710 0002 86B0     		sub	sp, sp, #24
 1711              		.cfi_def_cfa_offset 32
 1712 0004 00AF     		add	r7, sp, #0
 1713              		.cfi_def_cfa_register 7
 1714 0006 7860     		str	r0, [r7, #4]
 1715 0008 0B46     		mov	r3, r1
 1716 000a 7B80     		strh	r3, [r7, #2]	@ movhi
 1717 000c 1346     		mov	r3, r2	@ movhi
 1718 000e 3B80     		strh	r3, [r7]	@ movhi
 697:..\..\..\lvgl\version_6.1.2\lvgl\src\lv_core/lv_obj.c ****     LV_ASSERT_OBJ(obj, LV_OBJX_NAME);
 698:..\..\..\lvgl\version_6.1.2\lvgl\src\lv_core/lv_obj.c **** 
 699:..\..\..\lvgl\version_6.1.2\lvgl\src\lv_core/lv_obj.c ****     /*Convert x and y to absolute coordinates*/
 700:..\..\..\lvgl\version_6.1.2\lvgl\src\lv_core/lv_obj.c ****     lv_obj_t * par = obj->par;
 1719              		.loc 2 700 0
 1720 0010 7B68     		ldr	r3, [r7, #4]
 1721 0012 1B68     		ldr	r3, [r3]
 1722 0014 7B61     		str	r3, [r7, #20]
 701:..\..\..\lvgl\version_6.1.2\lvgl\src\lv_core/lv_obj.c **** 
 702:..\..\..\lvgl\version_6.1.2\lvgl\src\lv_core/lv_obj.c ****     x = x + par->coords.x1;
 1723              		.loc 2 702 0
 1724 0016 7B69     		ldr	r3, [r7, #20]
 1725 0018 B3F91030 		ldrsh	r3, [r3, #16]
 1726 001c 9AB2     		uxth	r2, r3
 1727 001e 7B88     		ldrh	r3, [r7, #2]
 1728 0020 1344     		add	r3, r3, r2
 1729 0022 9BB2     		uxth	r3, r3
 1730 0024 7B80     		strh	r3, [r7, #2]	@ movhi
 703:..\..\..\lvgl\version_6.1.2\lvgl\src\lv_core/lv_obj.c ****     y = y + par->coords.y1;
 1731              		.loc 2 703 0
 1732 0026 7B69     		ldr	r3, [r7, #20]
 1733 0028 B3F91230 		ldrsh	r3, [r3, #18]
 1734 002c 9AB2     		uxth	r2, r3
 1735 002e 3B88     		ldrh	r3, [r7]
 1736 0030 1344     		add	r3, r3, r2
 1737 0032 9BB2     		uxth	r3, r3
 1738 0034 3B80     		strh	r3, [r7]	@ movhi
 704:..\..\..\lvgl\version_6.1.2\lvgl\src\lv_core/lv_obj.c **** 
 705:..\..\..\lvgl\version_6.1.2\lvgl\src\lv_core/lv_obj.c ****     /*Calculate and set the movement*/
 706:..\..\..\lvgl\version_6.1.2\lvgl\src\lv_core/lv_obj.c ****     lv_point_t diff;
 707:..\..\..\lvgl\version_6.1.2\lvgl\src\lv_core/lv_obj.c ****     diff.x = x - obj->coords.x1;
 1739              		.loc 2 707 0
 1740 0036 7A88     		ldrh	r2, [r7, #2]
 1741 0038 7B68     		ldr	r3, [r7, #4]
 1742 003a B3F91030 		ldrsh	r3, [r3, #16]
 1743 003e 9BB2     		uxth	r3, r3
 1744 0040 D31A     		subs	r3, r2, r3
 1745 0042 9BB2     		uxth	r3, r3
ARM GAS  C:\Users\tmj32\AppData\Local\Temp\ccxLNxq9.s 			page 46


 1746 0044 1BB2     		sxth	r3, r3
 1747 0046 3B82     		strh	r3, [r7, #16]	@ movhi
 708:..\..\..\lvgl\version_6.1.2\lvgl\src\lv_core/lv_obj.c ****     diff.y = y - obj->coords.y1;
 1748              		.loc 2 708 0
 1749 0048 3A88     		ldrh	r2, [r7]
 1750 004a 7B68     		ldr	r3, [r7, #4]
 1751 004c B3F91230 		ldrsh	r3, [r3, #18]
 1752 0050 9BB2     		uxth	r3, r3
 1753 0052 D31A     		subs	r3, r2, r3
 1754 0054 9BB2     		uxth	r3, r3
 1755 0056 1BB2     		sxth	r3, r3
 1756 0058 7B82     		strh	r3, [r7, #18]	@ movhi
 709:..\..\..\lvgl\version_6.1.2\lvgl\src\lv_core/lv_obj.c **** 
 710:..\..\..\lvgl\version_6.1.2\lvgl\src\lv_core/lv_obj.c ****     /* Do nothing if the position is not changed */
 711:..\..\..\lvgl\version_6.1.2\lvgl\src\lv_core/lv_obj.c ****     /* It is very important else recursive positioning can
 712:..\..\..\lvgl\version_6.1.2\lvgl\src\lv_core/lv_obj.c ****      * occur without position change*/
 713:..\..\..\lvgl\version_6.1.2\lvgl\src\lv_core/lv_obj.c ****     if(diff.x == 0 && diff.y == 0) return;
 1757              		.loc 2 713 0
 1758 005a B7F91030 		ldrsh	r3, [r7, #16]
 1759 005e 002B     		cmp	r3, #0
 1760 0060 03D1     		bne	.L87
 1761              		.loc 2 713 0 is_stmt 0 discriminator 1
 1762 0062 B7F91230 		ldrsh	r3, [r7, #18]
 1763 0066 002B     		cmp	r3, #0
 1764 0068 51D0     		beq	.L89
 1765              	.L87:
 714:..\..\..\lvgl\version_6.1.2\lvgl\src\lv_core/lv_obj.c **** 
 715:..\..\..\lvgl\version_6.1.2\lvgl\src\lv_core/lv_obj.c ****     /*Invalidate the original area*/
 716:..\..\..\lvgl\version_6.1.2\lvgl\src\lv_core/lv_obj.c ****     lv_obj_invalidate(obj);
 1766              		.loc 2 716 0 is_stmt 1
 1767 006a 7868     		ldr	r0, [r7, #4]
 1768 006c FFF7FEFF 		bl	lv_obj_invalidate
 717:..\..\..\lvgl\version_6.1.2\lvgl\src\lv_core/lv_obj.c **** 
 718:..\..\..\lvgl\version_6.1.2\lvgl\src\lv_core/lv_obj.c ****     /*Save the original coordinates*/
 719:..\..\..\lvgl\version_6.1.2\lvgl\src\lv_core/lv_obj.c ****     lv_area_t ori;
 720:..\..\..\lvgl\version_6.1.2\lvgl\src\lv_core/lv_obj.c ****     lv_obj_get_coords(obj, &ori);
 1769              		.loc 2 720 0
 1770 0070 07F10803 		add	r3, r7, #8
 1771 0074 1946     		mov	r1, r3
 1772 0076 7868     		ldr	r0, [r7, #4]
 1773 0078 FFF7FEFF 		bl	lv_obj_get_coords
 721:..\..\..\lvgl\version_6.1.2\lvgl\src\lv_core/lv_obj.c **** 
 722:..\..\..\lvgl\version_6.1.2\lvgl\src\lv_core/lv_obj.c ****     obj->coords.x1 += diff.x;
 1774              		.loc 2 722 0
 1775 007c 7B68     		ldr	r3, [r7, #4]
 1776 007e B3F91030 		ldrsh	r3, [r3, #16]
 1777 0082 9AB2     		uxth	r2, r3
 1778 0084 B7F91030 		ldrsh	r3, [r7, #16]
 1779 0088 9BB2     		uxth	r3, r3
 1780 008a 1344     		add	r3, r3, r2
 1781 008c 9BB2     		uxth	r3, r3
 1782 008e 1AB2     		sxth	r2, r3
 1783 0090 7B68     		ldr	r3, [r7, #4]
 1784 0092 1A82     		strh	r2, [r3, #16]	@ movhi
 723:..\..\..\lvgl\version_6.1.2\lvgl\src\lv_core/lv_obj.c ****     obj->coords.y1 += diff.y;
 1785              		.loc 2 723 0
 1786 0094 7B68     		ldr	r3, [r7, #4]
ARM GAS  C:\Users\tmj32\AppData\Local\Temp\ccxLNxq9.s 			page 47


 1787 0096 B3F91230 		ldrsh	r3, [r3, #18]
 1788 009a 9AB2     		uxth	r2, r3
 1789 009c B7F91230 		ldrsh	r3, [r7, #18]
 1790 00a0 9BB2     		uxth	r3, r3
 1791 00a2 1344     		add	r3, r3, r2
 1792 00a4 9BB2     		uxth	r3, r3
 1793 00a6 1AB2     		sxth	r2, r3
 1794 00a8 7B68     		ldr	r3, [r7, #4]
 1795 00aa 5A82     		strh	r2, [r3, #18]	@ movhi
 724:..\..\..\lvgl\version_6.1.2\lvgl\src\lv_core/lv_obj.c ****     obj->coords.x2 += diff.x;
 1796              		.loc 2 724 0
 1797 00ac 7B68     		ldr	r3, [r7, #4]
 1798 00ae B3F91430 		ldrsh	r3, [r3, #20]
 1799 00b2 9AB2     		uxth	r2, r3
 1800 00b4 B7F91030 		ldrsh	r3, [r7, #16]
 1801 00b8 9BB2     		uxth	r3, r3
 1802 00ba 1344     		add	r3, r3, r2
 1803 00bc 9BB2     		uxth	r3, r3
 1804 00be 1AB2     		sxth	r2, r3
 1805 00c0 7B68     		ldr	r3, [r7, #4]
 1806 00c2 9A82     		strh	r2, [r3, #20]	@ movhi
 725:..\..\..\lvgl\version_6.1.2\lvgl\src\lv_core/lv_obj.c ****     obj->coords.y2 += diff.y;
 1807              		.loc 2 725 0
 1808 00c4 7B68     		ldr	r3, [r7, #4]
 1809 00c6 B3F91630 		ldrsh	r3, [r3, #22]
 1810 00ca 9AB2     		uxth	r2, r3
 1811 00cc B7F91230 		ldrsh	r3, [r7, #18]
 1812 00d0 9BB2     		uxth	r3, r3
 1813 00d2 1344     		add	r3, r3, r2
 1814 00d4 9BB2     		uxth	r3, r3
 1815 00d6 1AB2     		sxth	r2, r3
 1816 00d8 7B68     		ldr	r3, [r7, #4]
 1817 00da DA82     		strh	r2, [r3, #22]	@ movhi
 726:..\..\..\lvgl\version_6.1.2\lvgl\src\lv_core/lv_obj.c **** 
 727:..\..\..\lvgl\version_6.1.2\lvgl\src\lv_core/lv_obj.c ****     refresh_children_position(obj, diff.x, diff.y);
 1818              		.loc 2 727 0
 1819 00dc B7F91030 		ldrsh	r3, [r7, #16]
 1820 00e0 B7F91220 		ldrsh	r2, [r7, #18]
 1821 00e4 1946     		mov	r1, r3
 1822 00e6 7868     		ldr	r0, [r7, #4]
 1823 00e8 FFF7FEFF 		bl	refresh_children_position
 728:..\..\..\lvgl\version_6.1.2\lvgl\src\lv_core/lv_obj.c **** 
 729:..\..\..\lvgl\version_6.1.2\lvgl\src\lv_core/lv_obj.c ****     /*Inform the object about its new coordinates*/
 730:..\..\..\lvgl\version_6.1.2\lvgl\src\lv_core/lv_obj.c ****     obj->signal_cb(obj, LV_SIGNAL_CORD_CHG, &ori);
 1824              		.loc 2 730 0
 1825 00ec 7B68     		ldr	r3, [r7, #4]
 1826 00ee DB69     		ldr	r3, [r3, #28]
 1827 00f0 07F10802 		add	r2, r7, #8
 1828 00f4 0221     		movs	r1, #2
 1829 00f6 7868     		ldr	r0, [r7, #4]
 1830 00f8 9847     		blx	r3
 731:..\..\..\lvgl\version_6.1.2\lvgl\src\lv_core/lv_obj.c **** 
 732:..\..\..\lvgl\version_6.1.2\lvgl\src\lv_core/lv_obj.c ****     /*Send a signal to the parent too*/
 733:..\..\..\lvgl\version_6.1.2\lvgl\src\lv_core/lv_obj.c ****     par->signal_cb(par, LV_SIGNAL_CHILD_CHG, obj);
 1831              		.loc 2 733 0
 1832 00fa 7B69     		ldr	r3, [r7, #20]
 1833 00fc DB69     		ldr	r3, [r3, #28]
ARM GAS  C:\Users\tmj32\AppData\Local\Temp\ccxLNxq9.s 			page 48


 1834 00fe 7A68     		ldr	r2, [r7, #4]
 1835 0100 0121     		movs	r1, #1
 1836 0102 7869     		ldr	r0, [r7, #20]
 1837 0104 9847     		blx	r3
 734:..\..\..\lvgl\version_6.1.2\lvgl\src\lv_core/lv_obj.c **** 
 735:..\..\..\lvgl\version_6.1.2\lvgl\src\lv_core/lv_obj.c ****     /*Invalidate the new area*/
 736:..\..\..\lvgl\version_6.1.2\lvgl\src\lv_core/lv_obj.c ****     lv_obj_invalidate(obj);
 1838              		.loc 2 736 0
 1839 0106 7868     		ldr	r0, [r7, #4]
 1840 0108 FFF7FEFF 		bl	lv_obj_invalidate
 1841 010c 00E0     		b	.L86
 1842              	.L89:
 713:..\..\..\lvgl\version_6.1.2\lvgl\src\lv_core/lv_obj.c **** 
 1843              		.loc 2 713 0
 1844 010e 00BF     		nop
 1845              	.L86:
 737:..\..\..\lvgl\version_6.1.2\lvgl\src\lv_core/lv_obj.c **** }
 1846              		.loc 2 737 0
 1847 0110 1837     		adds	r7, r7, #24
 1848              		.cfi_def_cfa_offset 8
 1849 0112 BD46     		mov	sp, r7
 1850              		.cfi_def_cfa_register 13
 1851              		@ sp needed
 1852 0114 80BD     		pop	{r7, pc}
 1853              		.cfi_endproc
 1854              	.LFE46:
 1855              		.size	lv_obj_set_pos, .-lv_obj_set_pos
 1856 0116 00BF     		.section	.text.lv_obj_set_x,"ax",%progbits
 1857              		.align	2
 1858              		.global	lv_obj_set_x
 1859              		.thumb
 1860              		.thumb_func
 1861              		.type	lv_obj_set_x, %function
 1862              	lv_obj_set_x:
 1863              	.LFB47:
 738:..\..\..\lvgl\version_6.1.2\lvgl\src\lv_core/lv_obj.c **** 
 739:..\..\..\lvgl\version_6.1.2\lvgl\src\lv_core/lv_obj.c **** /**
 740:..\..\..\lvgl\version_6.1.2\lvgl\src\lv_core/lv_obj.c ****  * Set the x coordinate of a object
 741:..\..\..\lvgl\version_6.1.2\lvgl\src\lv_core/lv_obj.c ****  * @param obj pointer to an object
 742:..\..\..\lvgl\version_6.1.2\lvgl\src\lv_core/lv_obj.c ****  * @param x new distance from the left side from the parent
 743:..\..\..\lvgl\version_6.1.2\lvgl\src\lv_core/lv_obj.c ****  */
 744:..\..\..\lvgl\version_6.1.2\lvgl\src\lv_core/lv_obj.c **** void lv_obj_set_x(lv_obj_t * obj, lv_coord_t x)
 745:..\..\..\lvgl\version_6.1.2\lvgl\src\lv_core/lv_obj.c **** {
 1864              		.loc 2 745 0
 1865              		.cfi_startproc
 1866              		@ args = 0, pretend = 0, frame = 8
 1867              		@ frame_needed = 1, uses_anonymous_args = 0
 1868 0000 80B5     		push	{r7, lr}
 1869              		.cfi_def_cfa_offset 8
 1870              		.cfi_offset 7, -8
 1871              		.cfi_offset 14, -4
 1872 0002 82B0     		sub	sp, sp, #8
 1873              		.cfi_def_cfa_offset 16
 1874 0004 00AF     		add	r7, sp, #0
 1875              		.cfi_def_cfa_register 7
 1876 0006 7860     		str	r0, [r7, #4]
 1877 0008 0B46     		mov	r3, r1
ARM GAS  C:\Users\tmj32\AppData\Local\Temp\ccxLNxq9.s 			page 49


 1878 000a 7B80     		strh	r3, [r7, #2]	@ movhi
 746:..\..\..\lvgl\version_6.1.2\lvgl\src\lv_core/lv_obj.c ****     LV_ASSERT_OBJ(obj, LV_OBJX_NAME);
 747:..\..\..\lvgl\version_6.1.2\lvgl\src\lv_core/lv_obj.c **** 
 748:..\..\..\lvgl\version_6.1.2\lvgl\src\lv_core/lv_obj.c ****     lv_obj_set_pos(obj, x, lv_obj_get_y(obj));
 1879              		.loc 2 748 0
 1880 000c 7868     		ldr	r0, [r7, #4]
 1881 000e FFF7FEFF 		bl	lv_obj_get_y
 1882 0012 0346     		mov	r3, r0
 1883 0014 1A46     		mov	r2, r3
 1884 0016 B7F90230 		ldrsh	r3, [r7, #2]
 1885 001a 1946     		mov	r1, r3
 1886 001c 7868     		ldr	r0, [r7, #4]
 1887 001e FFF7FEFF 		bl	lv_obj_set_pos
 749:..\..\..\lvgl\version_6.1.2\lvgl\src\lv_core/lv_obj.c **** }
 1888              		.loc 2 749 0
 1889 0022 00BF     		nop
 1890 0024 0837     		adds	r7, r7, #8
 1891              		.cfi_def_cfa_offset 8
 1892 0026 BD46     		mov	sp, r7
 1893              		.cfi_def_cfa_register 13
 1894              		@ sp needed
 1895 0028 80BD     		pop	{r7, pc}
 1896              		.cfi_endproc
 1897              	.LFE47:
 1898              		.size	lv_obj_set_x, .-lv_obj_set_x
 1899 002a 00BF     		.section	.text.lv_obj_set_y,"ax",%progbits
 1900              		.align	2
 1901              		.global	lv_obj_set_y
 1902              		.thumb
 1903              		.thumb_func
 1904              		.type	lv_obj_set_y, %function
 1905              	lv_obj_set_y:
 1906              	.LFB48:
 750:..\..\..\lvgl\version_6.1.2\lvgl\src\lv_core/lv_obj.c **** 
 751:..\..\..\lvgl\version_6.1.2\lvgl\src\lv_core/lv_obj.c **** /**
 752:..\..\..\lvgl\version_6.1.2\lvgl\src\lv_core/lv_obj.c ****  * Set the y coordinate of a object
 753:..\..\..\lvgl\version_6.1.2\lvgl\src\lv_core/lv_obj.c ****  * @param obj pointer to an object
 754:..\..\..\lvgl\version_6.1.2\lvgl\src\lv_core/lv_obj.c ****  * @param y new distance from the top of the parent
 755:..\..\..\lvgl\version_6.1.2\lvgl\src\lv_core/lv_obj.c ****  */
 756:..\..\..\lvgl\version_6.1.2\lvgl\src\lv_core/lv_obj.c **** void lv_obj_set_y(lv_obj_t * obj, lv_coord_t y)
 757:..\..\..\lvgl\version_6.1.2\lvgl\src\lv_core/lv_obj.c **** {
 1907              		.loc 2 757 0
 1908              		.cfi_startproc
 1909              		@ args = 0, pretend = 0, frame = 8
 1910              		@ frame_needed = 1, uses_anonymous_args = 0
 1911 0000 80B5     		push	{r7, lr}
 1912              		.cfi_def_cfa_offset 8
 1913              		.cfi_offset 7, -8
 1914              		.cfi_offset 14, -4
 1915 0002 82B0     		sub	sp, sp, #8
 1916              		.cfi_def_cfa_offset 16
 1917 0004 00AF     		add	r7, sp, #0
 1918              		.cfi_def_cfa_register 7
 1919 0006 7860     		str	r0, [r7, #4]
 1920 0008 0B46     		mov	r3, r1
 1921 000a 7B80     		strh	r3, [r7, #2]	@ movhi
 758:..\..\..\lvgl\version_6.1.2\lvgl\src\lv_core/lv_obj.c ****     LV_ASSERT_OBJ(obj, LV_OBJX_NAME);
ARM GAS  C:\Users\tmj32\AppData\Local\Temp\ccxLNxq9.s 			page 50


 759:..\..\..\lvgl\version_6.1.2\lvgl\src\lv_core/lv_obj.c **** 
 760:..\..\..\lvgl\version_6.1.2\lvgl\src\lv_core/lv_obj.c ****     lv_obj_set_pos(obj, lv_obj_get_x(obj), y);
 1922              		.loc 2 760 0
 1923 000c 7868     		ldr	r0, [r7, #4]
 1924 000e FFF7FEFF 		bl	lv_obj_get_x
 1925 0012 0346     		mov	r3, r0
 1926 0014 1946     		mov	r1, r3
 1927 0016 B7F90230 		ldrsh	r3, [r7, #2]
 1928 001a 1A46     		mov	r2, r3
 1929 001c 7868     		ldr	r0, [r7, #4]
 1930 001e FFF7FEFF 		bl	lv_obj_set_pos
 761:..\..\..\lvgl\version_6.1.2\lvgl\src\lv_core/lv_obj.c **** }
 1931              		.loc 2 761 0
 1932 0022 00BF     		nop
 1933 0024 0837     		adds	r7, r7, #8
 1934              		.cfi_def_cfa_offset 8
 1935 0026 BD46     		mov	sp, r7
 1936              		.cfi_def_cfa_register 13
 1937              		@ sp needed
 1938 0028 80BD     		pop	{r7, pc}
 1939              		.cfi_endproc
 1940              	.LFE48:
 1941              		.size	lv_obj_set_y, .-lv_obj_set_y
 1942 002a 00BF     		.section	.text.lv_obj_set_size,"ax",%progbits
 1943              		.align	2
 1944              		.global	lv_obj_set_size
 1945              		.thumb
 1946              		.thumb_func
 1947              		.type	lv_obj_set_size, %function
 1948              	lv_obj_set_size:
 1949              	.LFB49:
 762:..\..\..\lvgl\version_6.1.2\lvgl\src\lv_core/lv_obj.c **** 
 763:..\..\..\lvgl\version_6.1.2\lvgl\src\lv_core/lv_obj.c **** /**
 764:..\..\..\lvgl\version_6.1.2\lvgl\src\lv_core/lv_obj.c ****  * Set the size of an object
 765:..\..\..\lvgl\version_6.1.2\lvgl\src\lv_core/lv_obj.c ****  * @param obj pointer to an object
 766:..\..\..\lvgl\version_6.1.2\lvgl\src\lv_core/lv_obj.c ****  * @param w new width
 767:..\..\..\lvgl\version_6.1.2\lvgl\src\lv_core/lv_obj.c ****  * @param h new height
 768:..\..\..\lvgl\version_6.1.2\lvgl\src\lv_core/lv_obj.c ****  */
 769:..\..\..\lvgl\version_6.1.2\lvgl\src\lv_core/lv_obj.c **** void lv_obj_set_size(lv_obj_t * obj, lv_coord_t w, lv_coord_t h)
 770:..\..\..\lvgl\version_6.1.2\lvgl\src\lv_core/lv_obj.c **** {
 1950              		.loc 2 770 0
 1951              		.cfi_startproc
 1952              		@ args = 0, pretend = 0, frame = 24
 1953              		@ frame_needed = 1, uses_anonymous_args = 0
 1954 0000 80B5     		push	{r7, lr}
 1955              		.cfi_def_cfa_offset 8
 1956              		.cfi_offset 7, -8
 1957              		.cfi_offset 14, -4
 1958 0002 86B0     		sub	sp, sp, #24
 1959              		.cfi_def_cfa_offset 32
 1960 0004 00AF     		add	r7, sp, #0
 1961              		.cfi_def_cfa_register 7
 1962 0006 7860     		str	r0, [r7, #4]
 1963 0008 0B46     		mov	r3, r1
 1964 000a 7B80     		strh	r3, [r7, #2]	@ movhi
 1965 000c 1346     		mov	r3, r2	@ movhi
 1966 000e 3B80     		strh	r3, [r7]	@ movhi
ARM GAS  C:\Users\tmj32\AppData\Local\Temp\ccxLNxq9.s 			page 51


 771:..\..\..\lvgl\version_6.1.2\lvgl\src\lv_core/lv_obj.c ****     LV_ASSERT_OBJ(obj, LV_OBJX_NAME);
 772:..\..\..\lvgl\version_6.1.2\lvgl\src\lv_core/lv_obj.c **** 
 773:..\..\..\lvgl\version_6.1.2\lvgl\src\lv_core/lv_obj.c **** 
 774:..\..\..\lvgl\version_6.1.2\lvgl\src\lv_core/lv_obj.c ****     /* Do nothing if the size is not changed */
 775:..\..\..\lvgl\version_6.1.2\lvgl\src\lv_core/lv_obj.c ****     /* It is very important else recursive resizing can
 776:..\..\..\lvgl\version_6.1.2\lvgl\src\lv_core/lv_obj.c ****      * occur without size change*/
 777:..\..\..\lvgl\version_6.1.2\lvgl\src\lv_core/lv_obj.c ****     if(lv_obj_get_width(obj) == w && lv_obj_get_height(obj) == h) {
 1967              		.loc 2 777 0
 1968 0010 7868     		ldr	r0, [r7, #4]
 1969 0012 FFF7FEFF 		bl	lv_obj_get_width
 1970 0016 0346     		mov	r3, r0
 1971 0018 1A46     		mov	r2, r3
 1972 001a B7F90230 		ldrsh	r3, [r7, #2]
 1973 001e 9342     		cmp	r3, r2
 1974 0020 08D1     		bne	.L93
 1975              		.loc 2 777 0 is_stmt 0 discriminator 1
 1976 0022 7868     		ldr	r0, [r7, #4]
 1977 0024 FFF7FEFF 		bl	lv_obj_get_height
 1978 0028 0346     		mov	r3, r0
 1979 002a 1A46     		mov	r2, r3
 1980 002c B7F90030 		ldrsh	r3, [r7]
 1981 0030 9342     		cmp	r3, r2
 1982 0032 6DD0     		beq	.L101
 1983              	.L93:
 778:..\..\..\lvgl\version_6.1.2\lvgl\src\lv_core/lv_obj.c ****         return;
 779:..\..\..\lvgl\version_6.1.2\lvgl\src\lv_core/lv_obj.c ****     }
 780:..\..\..\lvgl\version_6.1.2\lvgl\src\lv_core/lv_obj.c **** 
 781:..\..\..\lvgl\version_6.1.2\lvgl\src\lv_core/lv_obj.c ****     /*Invalidate the original area*/
 782:..\..\..\lvgl\version_6.1.2\lvgl\src\lv_core/lv_obj.c ****     lv_obj_invalidate(obj);
 1984              		.loc 2 782 0 is_stmt 1
 1985 0034 7868     		ldr	r0, [r7, #4]
 1986 0036 FFF7FEFF 		bl	lv_obj_invalidate
 783:..\..\..\lvgl\version_6.1.2\lvgl\src\lv_core/lv_obj.c **** 
 784:..\..\..\lvgl\version_6.1.2\lvgl\src\lv_core/lv_obj.c ****     /*Save the original coordinates*/
 785:..\..\..\lvgl\version_6.1.2\lvgl\src\lv_core/lv_obj.c ****     lv_area_t ori;
 786:..\..\..\lvgl\version_6.1.2\lvgl\src\lv_core/lv_obj.c ****     lv_obj_get_coords(obj, &ori);
 1987              		.loc 2 786 0
 1988 003a 07F10803 		add	r3, r7, #8
 1989 003e 1946     		mov	r1, r3
 1990 0040 7868     		ldr	r0, [r7, #4]
 1991 0042 FFF7FEFF 		bl	lv_obj_get_coords
 787:..\..\..\lvgl\version_6.1.2\lvgl\src\lv_core/lv_obj.c **** 
 788:..\..\..\lvgl\version_6.1.2\lvgl\src\lv_core/lv_obj.c ****     /*Set the length and height*/
 789:..\..\..\lvgl\version_6.1.2\lvgl\src\lv_core/lv_obj.c ****     obj->coords.y2 = obj->coords.y1 + h - 1;
 1992              		.loc 2 789 0
 1993 0046 7B68     		ldr	r3, [r7, #4]
 1994 0048 B3F91230 		ldrsh	r3, [r3, #18]
 1995 004c 9AB2     		uxth	r2, r3
 1996 004e 3B88     		ldrh	r3, [r7]
 1997 0050 1344     		add	r3, r3, r2
 1998 0052 9BB2     		uxth	r3, r3
 1999 0054 013B     		subs	r3, r3, #1
 2000 0056 9BB2     		uxth	r3, r3
 2001 0058 1AB2     		sxth	r2, r3
 2002 005a 7B68     		ldr	r3, [r7, #4]
 2003 005c DA82     		strh	r2, [r3, #22]	@ movhi
 790:..\..\..\lvgl\version_6.1.2\lvgl\src\lv_core/lv_obj.c ****     if(lv_obj_get_base_dir(obj) == LV_BIDI_DIR_RTL) {
ARM GAS  C:\Users\tmj32\AppData\Local\Temp\ccxLNxq9.s 			page 52


 2004              		.loc 2 790 0
 2005 005e 7868     		ldr	r0, [r7, #4]
 2006 0060 FFF7FEFF 		bl	lv_obj_get_base_dir
 2007 0064 0346     		mov	r3, r0
 2008 0066 012B     		cmp	r3, #1
 2009 0068 0CD1     		bne	.L95
 791:..\..\..\lvgl\version_6.1.2\lvgl\src\lv_core/lv_obj.c ****         obj->coords.x1 = obj->coords.x2 - w + 1;
 2010              		.loc 2 791 0
 2011 006a 7B68     		ldr	r3, [r7, #4]
 2012 006c B3F91430 		ldrsh	r3, [r3, #20]
 2013 0070 9AB2     		uxth	r2, r3
 2014 0072 7B88     		ldrh	r3, [r7, #2]
 2015 0074 D31A     		subs	r3, r2, r3
 2016 0076 9BB2     		uxth	r3, r3
 2017 0078 0133     		adds	r3, r3, #1
 2018 007a 9BB2     		uxth	r3, r3
 2019 007c 1AB2     		sxth	r2, r3
 2020 007e 7B68     		ldr	r3, [r7, #4]
 2021 0080 1A82     		strh	r2, [r3, #16]	@ movhi
 2022 0082 0BE0     		b	.L96
 2023              	.L95:
 792:..\..\..\lvgl\version_6.1.2\lvgl\src\lv_core/lv_obj.c ****     } else {
 793:..\..\..\lvgl\version_6.1.2\lvgl\src\lv_core/lv_obj.c ****         obj->coords.x2 = obj->coords.x1 + w - 1;
 2024              		.loc 2 793 0
 2025 0084 7B68     		ldr	r3, [r7, #4]
 2026 0086 B3F91030 		ldrsh	r3, [r3, #16]
 2027 008a 9AB2     		uxth	r2, r3
 2028 008c 7B88     		ldrh	r3, [r7, #2]
 2029 008e 1344     		add	r3, r3, r2
 2030 0090 9BB2     		uxth	r3, r3
 2031 0092 013B     		subs	r3, r3, #1
 2032 0094 9BB2     		uxth	r3, r3
 2033 0096 1AB2     		sxth	r2, r3
 2034 0098 7B68     		ldr	r3, [r7, #4]
 2035 009a 9A82     		strh	r2, [r3, #20]	@ movhi
 2036              	.L96:
 794:..\..\..\lvgl\version_6.1.2\lvgl\src\lv_core/lv_obj.c ****     }
 795:..\..\..\lvgl\version_6.1.2\lvgl\src\lv_core/lv_obj.c **** 
 796:..\..\..\lvgl\version_6.1.2\lvgl\src\lv_core/lv_obj.c ****     /*Send a signal to the object with its new coordinates*/
 797:..\..\..\lvgl\version_6.1.2\lvgl\src\lv_core/lv_obj.c ****     obj->signal_cb(obj, LV_SIGNAL_CORD_CHG, &ori);
 2037              		.loc 2 797 0
 2038 009c 7B68     		ldr	r3, [r7, #4]
 2039 009e DB69     		ldr	r3, [r3, #28]
 2040 00a0 07F10802 		add	r2, r7, #8
 2041 00a4 0221     		movs	r1, #2
 2042 00a6 7868     		ldr	r0, [r7, #4]
 2043 00a8 9847     		blx	r3
 798:..\..\..\lvgl\version_6.1.2\lvgl\src\lv_core/lv_obj.c **** 
 799:..\..\..\lvgl\version_6.1.2\lvgl\src\lv_core/lv_obj.c ****     /*Send a signal to the parent too*/
 800:..\..\..\lvgl\version_6.1.2\lvgl\src\lv_core/lv_obj.c ****     lv_obj_t * par = lv_obj_get_parent(obj);
 2044              		.loc 2 800 0
 2045 00aa 7868     		ldr	r0, [r7, #4]
 2046 00ac FFF7FEFF 		bl	lv_obj_get_parent
 2047 00b0 3861     		str	r0, [r7, #16]
 801:..\..\..\lvgl\version_6.1.2\lvgl\src\lv_core/lv_obj.c ****     if(par != NULL) par->signal_cb(par, LV_SIGNAL_CHILD_CHG, obj);
 2048              		.loc 2 801 0
 2049 00b2 3B69     		ldr	r3, [r7, #16]
ARM GAS  C:\Users\tmj32\AppData\Local\Temp\ccxLNxq9.s 			page 53


 2050 00b4 002B     		cmp	r3, #0
 2051 00b6 05D0     		beq	.L97
 2052              		.loc 2 801 0 is_stmt 0 discriminator 1
 2053 00b8 3B69     		ldr	r3, [r7, #16]
 2054 00ba DB69     		ldr	r3, [r3, #28]
 2055 00bc 7A68     		ldr	r2, [r7, #4]
 2056 00be 0121     		movs	r1, #1
 2057 00c0 3869     		ldr	r0, [r7, #16]
 2058 00c2 9847     		blx	r3
 2059              	.L97:
 802:..\..\..\lvgl\version_6.1.2\lvgl\src\lv_core/lv_obj.c **** 
 803:..\..\..\lvgl\version_6.1.2\lvgl\src\lv_core/lv_obj.c ****     /*Tell the children the parent's size has changed*/
 804:..\..\..\lvgl\version_6.1.2\lvgl\src\lv_core/lv_obj.c ****     lv_obj_t * i;
 805:..\..\..\lvgl\version_6.1.2\lvgl\src\lv_core/lv_obj.c ****     LV_LL_READ(obj->child_ll, i)
 2060              		.loc 2 805 0 is_stmt 1
 2061 00c4 7B68     		ldr	r3, [r7, #4]
 2062 00c6 0433     		adds	r3, r3, #4
 2063 00c8 1846     		mov	r0, r3
 2064 00ca FFF7FEFF 		bl	lv_ll_get_head
 2065 00ce 7861     		str	r0, [r7, #20]
 2066 00d0 0CE0     		b	.L98
 2067              	.L99:
 806:..\..\..\lvgl\version_6.1.2\lvgl\src\lv_core/lv_obj.c ****     {
 807:..\..\..\lvgl\version_6.1.2\lvgl\src\lv_core/lv_obj.c ****         i->signal_cb(i, LV_SIGNAL_PARENT_SIZE_CHG, NULL);
 2068              		.loc 2 807 0 discriminator 3
 2069 00d2 7B69     		ldr	r3, [r7, #20]
 2070 00d4 DB69     		ldr	r3, [r3, #28]
 2071 00d6 0022     		movs	r2, #0
 2072 00d8 0321     		movs	r1, #3
 2073 00da 7869     		ldr	r0, [r7, #20]
 2074 00dc 9847     		blx	r3
 805:..\..\..\lvgl\version_6.1.2\lvgl\src\lv_core/lv_obj.c ****     {
 2075              		.loc 2 805 0 discriminator 3
 2076 00de 7B68     		ldr	r3, [r7, #4]
 2077 00e0 0433     		adds	r3, r3, #4
 2078 00e2 7969     		ldr	r1, [r7, #20]
 2079 00e4 1846     		mov	r0, r3
 2080 00e6 FFF7FEFF 		bl	lv_ll_get_next
 2081 00ea 7861     		str	r0, [r7, #20]
 2082              	.L98:
 805:..\..\..\lvgl\version_6.1.2\lvgl\src\lv_core/lv_obj.c ****     {
 2083              		.loc 2 805 0 is_stmt 0 discriminator 1
 2084 00ec 7B69     		ldr	r3, [r7, #20]
 2085 00ee 002B     		cmp	r3, #0
 2086 00f0 EFD1     		bne	.L99
 808:..\..\..\lvgl\version_6.1.2\lvgl\src\lv_core/lv_obj.c ****     }
 809:..\..\..\lvgl\version_6.1.2\lvgl\src\lv_core/lv_obj.c **** 
 810:..\..\..\lvgl\version_6.1.2\lvgl\src\lv_core/lv_obj.c ****     /*Invalidate the new area*/
 811:..\..\..\lvgl\version_6.1.2\lvgl\src\lv_core/lv_obj.c ****     lv_obj_invalidate(obj);
 2087              		.loc 2 811 0 is_stmt 1
 2088 00f2 7868     		ldr	r0, [r7, #4]
 2089 00f4 FFF7FEFF 		bl	lv_obj_invalidate
 812:..\..\..\lvgl\version_6.1.2\lvgl\src\lv_core/lv_obj.c **** 
 813:..\..\..\lvgl\version_6.1.2\lvgl\src\lv_core/lv_obj.c ****     /*Automatically realign the object if required*/
 814:..\..\..\lvgl\version_6.1.2\lvgl\src\lv_core/lv_obj.c **** #if LV_USE_OBJ_REALIGN
 815:..\..\..\lvgl\version_6.1.2\lvgl\src\lv_core/lv_obj.c ****     if(obj->realign.auto_realign) lv_obj_realign(obj);
 2090              		.loc 2 815 0
ARM GAS  C:\Users\tmj32\AppData\Local\Temp\ccxLNxq9.s 			page 54


 2091 00f8 7B68     		ldr	r3, [r7, #4]
 2092 00fa 93F83D30 		ldrb	r3, [r3, #61]	@ zero_extendqisi2
 2093 00fe 03F00103 		and	r3, r3, #1
 2094 0102 DBB2     		uxtb	r3, r3
 2095 0104 002B     		cmp	r3, #0
 2096 0106 04D0     		beq	.L92
 2097              		.loc 2 815 0 is_stmt 0 discriminator 1
 2098 0108 7868     		ldr	r0, [r7, #4]
 2099 010a FFF7FEFF 		bl	lv_obj_realign
 2100 010e 00E0     		b	.L92
 2101              	.L101:
 778:..\..\..\lvgl\version_6.1.2\lvgl\src\lv_core/lv_obj.c ****     }
 2102              		.loc 2 778 0 is_stmt 1
 2103 0110 00BF     		nop
 2104              	.L92:
 816:..\..\..\lvgl\version_6.1.2\lvgl\src\lv_core/lv_obj.c **** #endif
 817:..\..\..\lvgl\version_6.1.2\lvgl\src\lv_core/lv_obj.c **** }
 2105              		.loc 2 817 0
 2106 0112 1837     		adds	r7, r7, #24
 2107              		.cfi_def_cfa_offset 8
 2108 0114 BD46     		mov	sp, r7
 2109              		.cfi_def_cfa_register 13
 2110              		@ sp needed
 2111 0116 80BD     		pop	{r7, pc}
 2112              		.cfi_endproc
 2113              	.LFE49:
 2114              		.size	lv_obj_set_size, .-lv_obj_set_size
 2115              		.section	.text.lv_obj_set_width,"ax",%progbits
 2116              		.align	2
 2117              		.global	lv_obj_set_width
 2118              		.thumb
 2119              		.thumb_func
 2120              		.type	lv_obj_set_width, %function
 2121              	lv_obj_set_width:
 2122              	.LFB50:
 818:..\..\..\lvgl\version_6.1.2\lvgl\src\lv_core/lv_obj.c **** 
 819:..\..\..\lvgl\version_6.1.2\lvgl\src\lv_core/lv_obj.c **** /**
 820:..\..\..\lvgl\version_6.1.2\lvgl\src\lv_core/lv_obj.c ****  * Set the width of an object
 821:..\..\..\lvgl\version_6.1.2\lvgl\src\lv_core/lv_obj.c ****  * @param obj pointer to an object
 822:..\..\..\lvgl\version_6.1.2\lvgl\src\lv_core/lv_obj.c ****  * @param w new width
 823:..\..\..\lvgl\version_6.1.2\lvgl\src\lv_core/lv_obj.c ****  */
 824:..\..\..\lvgl\version_6.1.2\lvgl\src\lv_core/lv_obj.c **** void lv_obj_set_width(lv_obj_t * obj, lv_coord_t w)
 825:..\..\..\lvgl\version_6.1.2\lvgl\src\lv_core/lv_obj.c **** {
 2123              		.loc 2 825 0
 2124              		.cfi_startproc
 2125              		@ args = 0, pretend = 0, frame = 8
 2126              		@ frame_needed = 1, uses_anonymous_args = 0
 2127 0000 80B5     		push	{r7, lr}
 2128              		.cfi_def_cfa_offset 8
 2129              		.cfi_offset 7, -8
 2130              		.cfi_offset 14, -4
 2131 0002 82B0     		sub	sp, sp, #8
 2132              		.cfi_def_cfa_offset 16
 2133 0004 00AF     		add	r7, sp, #0
 2134              		.cfi_def_cfa_register 7
 2135 0006 7860     		str	r0, [r7, #4]
 2136 0008 0B46     		mov	r3, r1
ARM GAS  C:\Users\tmj32\AppData\Local\Temp\ccxLNxq9.s 			page 55


 2137 000a 7B80     		strh	r3, [r7, #2]	@ movhi
 826:..\..\..\lvgl\version_6.1.2\lvgl\src\lv_core/lv_obj.c ****     LV_ASSERT_OBJ(obj, LV_OBJX_NAME);
 827:..\..\..\lvgl\version_6.1.2\lvgl\src\lv_core/lv_obj.c **** 
 828:..\..\..\lvgl\version_6.1.2\lvgl\src\lv_core/lv_obj.c ****     lv_obj_set_size(obj, w, lv_obj_get_height(obj));
 2138              		.loc 2 828 0
 2139 000c 7868     		ldr	r0, [r7, #4]
 2140 000e FFF7FEFF 		bl	lv_obj_get_height
 2141 0012 0346     		mov	r3, r0
 2142 0014 1A46     		mov	r2, r3
 2143 0016 B7F90230 		ldrsh	r3, [r7, #2]
 2144 001a 1946     		mov	r1, r3
 2145 001c 7868     		ldr	r0, [r7, #4]
 2146 001e FFF7FEFF 		bl	lv_obj_set_size
 829:..\..\..\lvgl\version_6.1.2\lvgl\src\lv_core/lv_obj.c **** }
 2147              		.loc 2 829 0
 2148 0022 00BF     		nop
 2149 0024 0837     		adds	r7, r7, #8
 2150              		.cfi_def_cfa_offset 8
 2151 0026 BD46     		mov	sp, r7
 2152              		.cfi_def_cfa_register 13
 2153              		@ sp needed
 2154 0028 80BD     		pop	{r7, pc}
 2155              		.cfi_endproc
 2156              	.LFE50:
 2157              		.size	lv_obj_set_width, .-lv_obj_set_width
 2158 002a 00BF     		.section	.text.lv_obj_set_height,"ax",%progbits
 2159              		.align	2
 2160              		.global	lv_obj_set_height
 2161              		.thumb
 2162              		.thumb_func
 2163              		.type	lv_obj_set_height, %function
 2164              	lv_obj_set_height:
 2165              	.LFB51:
 830:..\..\..\lvgl\version_6.1.2\lvgl\src\lv_core/lv_obj.c **** 
 831:..\..\..\lvgl\version_6.1.2\lvgl\src\lv_core/lv_obj.c **** /**
 832:..\..\..\lvgl\version_6.1.2\lvgl\src\lv_core/lv_obj.c ****  * Set the height of an object
 833:..\..\..\lvgl\version_6.1.2\lvgl\src\lv_core/lv_obj.c ****  * @param obj pointer to an object
 834:..\..\..\lvgl\version_6.1.2\lvgl\src\lv_core/lv_obj.c ****  * @param h new height
 835:..\..\..\lvgl\version_6.1.2\lvgl\src\lv_core/lv_obj.c ****  */
 836:..\..\..\lvgl\version_6.1.2\lvgl\src\lv_core/lv_obj.c **** void lv_obj_set_height(lv_obj_t * obj, lv_coord_t h)
 837:..\..\..\lvgl\version_6.1.2\lvgl\src\lv_core/lv_obj.c **** {
 2166              		.loc 2 837 0
 2167              		.cfi_startproc
 2168              		@ args = 0, pretend = 0, frame = 8
 2169              		@ frame_needed = 1, uses_anonymous_args = 0
 2170 0000 80B5     		push	{r7, lr}
 2171              		.cfi_def_cfa_offset 8
 2172              		.cfi_offset 7, -8
 2173              		.cfi_offset 14, -4
 2174 0002 82B0     		sub	sp, sp, #8
 2175              		.cfi_def_cfa_offset 16
 2176 0004 00AF     		add	r7, sp, #0
 2177              		.cfi_def_cfa_register 7
 2178 0006 7860     		str	r0, [r7, #4]
 2179 0008 0B46     		mov	r3, r1
 2180 000a 7B80     		strh	r3, [r7, #2]	@ movhi
 838:..\..\..\lvgl\version_6.1.2\lvgl\src\lv_core/lv_obj.c ****     LV_ASSERT_OBJ(obj, LV_OBJX_NAME);
ARM GAS  C:\Users\tmj32\AppData\Local\Temp\ccxLNxq9.s 			page 56


 839:..\..\..\lvgl\version_6.1.2\lvgl\src\lv_core/lv_obj.c **** 
 840:..\..\..\lvgl\version_6.1.2\lvgl\src\lv_core/lv_obj.c ****     lv_obj_set_size(obj, lv_obj_get_width(obj), h);
 2181              		.loc 2 840 0
 2182 000c 7868     		ldr	r0, [r7, #4]
 2183 000e FFF7FEFF 		bl	lv_obj_get_width
 2184 0012 0346     		mov	r3, r0
 2185 0014 1946     		mov	r1, r3
 2186 0016 B7F90230 		ldrsh	r3, [r7, #2]
 2187 001a 1A46     		mov	r2, r3
 2188 001c 7868     		ldr	r0, [r7, #4]
 2189 001e FFF7FEFF 		bl	lv_obj_set_size
 841:..\..\..\lvgl\version_6.1.2\lvgl\src\lv_core/lv_obj.c **** }
 2190              		.loc 2 841 0
 2191 0022 00BF     		nop
 2192 0024 0837     		adds	r7, r7, #8
 2193              		.cfi_def_cfa_offset 8
 2194 0026 BD46     		mov	sp, r7
 2195              		.cfi_def_cfa_register 13
 2196              		@ sp needed
 2197 0028 80BD     		pop	{r7, pc}
 2198              		.cfi_endproc
 2199              	.LFE51:
 2200              		.size	lv_obj_set_height, .-lv_obj_set_height
 2201 002a 00BF     		.section	.text.lv_obj_align,"ax",%progbits
 2202              		.align	2
 2203              		.global	lv_obj_align
 2204              		.thumb
 2205              		.thumb_func
 2206              		.type	lv_obj_align, %function
 2207              	lv_obj_align:
 2208              	.LFB52:
 842:..\..\..\lvgl\version_6.1.2\lvgl\src\lv_core/lv_obj.c **** 
 843:..\..\..\lvgl\version_6.1.2\lvgl\src\lv_core/lv_obj.c **** /**
 844:..\..\..\lvgl\version_6.1.2\lvgl\src\lv_core/lv_obj.c ****  * Align an object to an other object.
 845:..\..\..\lvgl\version_6.1.2\lvgl\src\lv_core/lv_obj.c ****  * @param obj pointer to an object to align
 846:..\..\..\lvgl\version_6.1.2\lvgl\src\lv_core/lv_obj.c ****  * @param base pointer to an object (if NULL the parent is used). 'obj' will be aligned to it.
 847:..\..\..\lvgl\version_6.1.2\lvgl\src\lv_core/lv_obj.c ****  * @param align type of alignment (see 'lv_align_t' enum)
 848:..\..\..\lvgl\version_6.1.2\lvgl\src\lv_core/lv_obj.c ****  * @param x_mod x coordinate shift after alignment
 849:..\..\..\lvgl\version_6.1.2\lvgl\src\lv_core/lv_obj.c ****  * @param y_mod y coordinate shift after alignment
 850:..\..\..\lvgl\version_6.1.2\lvgl\src\lv_core/lv_obj.c ****  */
 851:..\..\..\lvgl\version_6.1.2\lvgl\src\lv_core/lv_obj.c **** void lv_obj_align(lv_obj_t * obj, const lv_obj_t * base, lv_align_t align, lv_coord_t x_mod, lv_coo
 852:..\..\..\lvgl\version_6.1.2\lvgl\src\lv_core/lv_obj.c **** {
 2209              		.loc 2 852 0
 2210              		.cfi_startproc
 2211              		@ args = 4, pretend = 0, frame = 32
 2212              		@ frame_needed = 1, uses_anonymous_args = 0
 2213 0000 90B5     		push	{r4, r7, lr}
 2214              		.cfi_def_cfa_offset 12
 2215              		.cfi_offset 4, -12
 2216              		.cfi_offset 7, -8
 2217              		.cfi_offset 14, -4
 2218 0002 89B0     		sub	sp, sp, #36
 2219              		.cfi_def_cfa_offset 48
 2220 0004 00AF     		add	r7, sp, #0
 2221              		.cfi_def_cfa_register 7
 2222 0006 F860     		str	r0, [r7, #12]
 2223 0008 B960     		str	r1, [r7, #8]
ARM GAS  C:\Users\tmj32\AppData\Local\Temp\ccxLNxq9.s 			page 57


 2224 000a 1146     		mov	r1, r2
 2225 000c 1A46     		mov	r2, r3
 2226 000e 0B46     		mov	r3, r1
 2227 0010 FB71     		strb	r3, [r7, #7]
 2228 0012 1346     		mov	r3, r2	@ movhi
 2229 0014 BB80     		strh	r3, [r7, #4]	@ movhi
 853:..\..\..\lvgl\version_6.1.2\lvgl\src\lv_core/lv_obj.c ****     LV_ASSERT_OBJ(obj, LV_OBJX_NAME);
 854:..\..\..\lvgl\version_6.1.2\lvgl\src\lv_core/lv_obj.c **** 
 855:..\..\..\lvgl\version_6.1.2\lvgl\src\lv_core/lv_obj.c ****     lv_coord_t new_x = lv_obj_get_x(obj);
 2230              		.loc 2 855 0
 2231 0016 F868     		ldr	r0, [r7, #12]
 2232 0018 FFF7FEFF 		bl	lv_obj_get_x
 2233 001c 0346     		mov	r3, r0
 2234 001e FB83     		strh	r3, [r7, #30]	@ movhi
 856:..\..\..\lvgl\version_6.1.2\lvgl\src\lv_core/lv_obj.c ****     lv_coord_t new_y = lv_obj_get_y(obj);
 2235              		.loc 2 856 0
 2236 0020 F868     		ldr	r0, [r7, #12]
 2237 0022 FFF7FEFF 		bl	lv_obj_get_y
 2238 0026 0346     		mov	r3, r0
 2239 0028 BB83     		strh	r3, [r7, #28]	@ movhi
 857:..\..\..\lvgl\version_6.1.2\lvgl\src\lv_core/lv_obj.c **** 
 858:..\..\..\lvgl\version_6.1.2\lvgl\src\lv_core/lv_obj.c ****     if(base == NULL) {
 2240              		.loc 2 858 0
 2241 002a BB68     		ldr	r3, [r7, #8]
 2242 002c 002B     		cmp	r3, #0
 2243 002e 03D1     		bne	.L105
 859:..\..\..\lvgl\version_6.1.2\lvgl\src\lv_core/lv_obj.c ****         base = lv_obj_get_parent(obj);
 2244              		.loc 2 859 0
 2245 0030 F868     		ldr	r0, [r7, #12]
 2246 0032 FFF7FEFF 		bl	lv_obj_get_parent
 2247 0036 B860     		str	r0, [r7, #8]
 2248              	.L105:
 860:..\..\..\lvgl\version_6.1.2\lvgl\src\lv_core/lv_obj.c ****     }
 861:..\..\..\lvgl\version_6.1.2\lvgl\src\lv_core/lv_obj.c **** 
 862:..\..\..\lvgl\version_6.1.2\lvgl\src\lv_core/lv_obj.c ****     LV_ASSERT_OBJ(base, LV_OBJX_NAME);
 863:..\..\..\lvgl\version_6.1.2\lvgl\src\lv_core/lv_obj.c **** 
 864:..\..\..\lvgl\version_6.1.2\lvgl\src\lv_core/lv_obj.c **** 
 865:..\..\..\lvgl\version_6.1.2\lvgl\src\lv_core/lv_obj.c ****     switch(align) {
 2249              		.loc 2 865 0
 2250 0038 FB79     		ldrb	r3, [r7, #7]	@ zero_extendqisi2
 2251 003a 142B     		cmp	r3, #20
 2252 003c 00F2F981 		bhi	.L106
 2253 0040 01A2     		adr	r2, .L108
 2254 0042 52F823F0 		ldr	pc, [r2, r3, lsl #2]
 2255 0046 00BF     		.p2align 2
 2256              	.L108:
 2257 0048 9D000000 		.word	.L107+1
 2258 004c F3000000 		.word	.L109+1
 2259 0050 FD000000 		.word	.L110+1
 2260 0054 2D010000 		.word	.L111+1
 2261 0058 4D010000 		.word	.L112+1
 2262 005c 6D010000 		.word	.L113+1
 2263 0060 B3010000 		.word	.L114+1
 2264 0064 E9010000 		.word	.L115+1
 2265 0068 19020000 		.word	.L116+1
 2266 006c 5F020000 		.word	.L117+1
 2267 0070 75020000 		.word	.L118+1
ARM GAS  C:\Users\tmj32\AppData\Local\Temp\ccxLNxq9.s 			page 58


 2268 0074 B1020000 		.word	.L119+1
 2269 0078 DD020000 		.word	.L120+1
 2270 007c ED020000 		.word	.L121+1
 2271 0080 23030000 		.word	.L122+1
 2272 0084 49030000 		.word	.L123+1
 2273 0088 5F030000 		.word	.L124+1
 2274 008c 9B030000 		.word	.L125+1
 2275 0090 C7030000 		.word	.L126+1
 2276 0094 D7030000 		.word	.L127+1
 2277 0098 0D040000 		.word	.L128+1
 2278              		.p2align 1
 2279              	.L107:
 866:..\..\..\lvgl\version_6.1.2\lvgl\src\lv_core/lv_obj.c ****         case LV_ALIGN_CENTER:
 867:..\..\..\lvgl\version_6.1.2\lvgl\src\lv_core/lv_obj.c ****             new_x = lv_obj_get_width(base) / 2 - lv_obj_get_width(obj) / 2;
 2280              		.loc 2 867 0
 2281 009c B868     		ldr	r0, [r7, #8]
 2282 009e FFF7FEFF 		bl	lv_obj_get_width
 2283 00a2 0346     		mov	r3, r0
 2284 00a4 DA0F     		lsrs	r2, r3, #31
 2285 00a6 1344     		add	r3, r3, r2
 2286 00a8 5B10     		asrs	r3, r3, #1
 2287 00aa 1BB2     		sxth	r3, r3
 2288 00ac 9CB2     		uxth	r4, r3
 2289 00ae F868     		ldr	r0, [r7, #12]
 2290 00b0 FFF7FEFF 		bl	lv_obj_get_width
 2291 00b4 0346     		mov	r3, r0
 2292 00b6 DA0F     		lsrs	r2, r3, #31
 2293 00b8 1344     		add	r3, r3, r2
 2294 00ba 5B10     		asrs	r3, r3, #1
 2295 00bc 1BB2     		sxth	r3, r3
 2296 00be 9BB2     		uxth	r3, r3
 2297 00c0 E31A     		subs	r3, r4, r3
 2298 00c2 9BB2     		uxth	r3, r3
 2299 00c4 FB83     		strh	r3, [r7, #30]	@ movhi
 868:..\..\..\lvgl\version_6.1.2\lvgl\src\lv_core/lv_obj.c ****             new_y = lv_obj_get_height(base) / 2 - lv_obj_get_height(obj) / 2;
 2300              		.loc 2 868 0
 2301 00c6 B868     		ldr	r0, [r7, #8]
 2302 00c8 FFF7FEFF 		bl	lv_obj_get_height
 2303 00cc 0346     		mov	r3, r0
 2304 00ce DA0F     		lsrs	r2, r3, #31
 2305 00d0 1344     		add	r3, r3, r2
 2306 00d2 5B10     		asrs	r3, r3, #1
 2307 00d4 1BB2     		sxth	r3, r3
 2308 00d6 9CB2     		uxth	r4, r3
 2309 00d8 F868     		ldr	r0, [r7, #12]
 2310 00da FFF7FEFF 		bl	lv_obj_get_height
 2311 00de 0346     		mov	r3, r0
 2312 00e0 DA0F     		lsrs	r2, r3, #31
 2313 00e2 1344     		add	r3, r3, r2
 2314 00e4 5B10     		asrs	r3, r3, #1
 2315 00e6 1BB2     		sxth	r3, r3
 2316 00e8 9BB2     		uxth	r3, r3
 2317 00ea E31A     		subs	r3, r4, r3
 2318 00ec 9BB2     		uxth	r3, r3
 2319 00ee BB83     		strh	r3, [r7, #28]	@ movhi
 869:..\..\..\lvgl\version_6.1.2\lvgl\src\lv_core/lv_obj.c ****             break;
 2320              		.loc 2 869 0
ARM GAS  C:\Users\tmj32\AppData\Local\Temp\ccxLNxq9.s 			page 59


 2321 00f0 9FE1     		b	.L106
 2322              	.L109:
 870:..\..\..\lvgl\version_6.1.2\lvgl\src\lv_core/lv_obj.c **** 
 871:..\..\..\lvgl\version_6.1.2\lvgl\src\lv_core/lv_obj.c ****         case LV_ALIGN_IN_TOP_LEFT:
 872:..\..\..\lvgl\version_6.1.2\lvgl\src\lv_core/lv_obj.c ****             new_x = 0;
 2323              		.loc 2 872 0
 2324 00f2 0023     		movs	r3, #0
 2325 00f4 FB83     		strh	r3, [r7, #30]	@ movhi
 873:..\..\..\lvgl\version_6.1.2\lvgl\src\lv_core/lv_obj.c ****             new_y = 0;
 2326              		.loc 2 873 0
 2327 00f6 0023     		movs	r3, #0
 2328 00f8 BB83     		strh	r3, [r7, #28]	@ movhi
 874:..\..\..\lvgl\version_6.1.2\lvgl\src\lv_core/lv_obj.c ****             break;
 2329              		.loc 2 874 0
 2330 00fa 9AE1     		b	.L106
 2331              	.L110:
 875:..\..\..\lvgl\version_6.1.2\lvgl\src\lv_core/lv_obj.c ****         case LV_ALIGN_IN_TOP_MID:
 876:..\..\..\lvgl\version_6.1.2\lvgl\src\lv_core/lv_obj.c ****             new_x = lv_obj_get_width(base) / 2 - lv_obj_get_width(obj) / 2;
 2332              		.loc 2 876 0
 2333 00fc B868     		ldr	r0, [r7, #8]
 2334 00fe FFF7FEFF 		bl	lv_obj_get_width
 2335 0102 0346     		mov	r3, r0
 2336 0104 DA0F     		lsrs	r2, r3, #31
 2337 0106 1344     		add	r3, r3, r2
 2338 0108 5B10     		asrs	r3, r3, #1
 2339 010a 1BB2     		sxth	r3, r3
 2340 010c 9CB2     		uxth	r4, r3
 2341 010e F868     		ldr	r0, [r7, #12]
 2342 0110 FFF7FEFF 		bl	lv_obj_get_width
 2343 0114 0346     		mov	r3, r0
 2344 0116 DA0F     		lsrs	r2, r3, #31
 2345 0118 1344     		add	r3, r3, r2
 2346 011a 5B10     		asrs	r3, r3, #1
 2347 011c 1BB2     		sxth	r3, r3
 2348 011e 9BB2     		uxth	r3, r3
 2349 0120 E31A     		subs	r3, r4, r3
 2350 0122 9BB2     		uxth	r3, r3
 2351 0124 FB83     		strh	r3, [r7, #30]	@ movhi
 877:..\..\..\lvgl\version_6.1.2\lvgl\src\lv_core/lv_obj.c ****             new_y = 0;
 2352              		.loc 2 877 0
 2353 0126 0023     		movs	r3, #0
 2354 0128 BB83     		strh	r3, [r7, #28]	@ movhi
 878:..\..\..\lvgl\version_6.1.2\lvgl\src\lv_core/lv_obj.c ****             break;
 2355              		.loc 2 878 0
 2356 012a 82E1     		b	.L106
 2357              	.L111:
 879:..\..\..\lvgl\version_6.1.2\lvgl\src\lv_core/lv_obj.c **** 
 880:..\..\..\lvgl\version_6.1.2\lvgl\src\lv_core/lv_obj.c ****         case LV_ALIGN_IN_TOP_RIGHT:
 881:..\..\..\lvgl\version_6.1.2\lvgl\src\lv_core/lv_obj.c ****             new_x = lv_obj_get_width(base) - lv_obj_get_width(obj);
 2358              		.loc 2 881 0
 2359 012c B868     		ldr	r0, [r7, #8]
 2360 012e FFF7FEFF 		bl	lv_obj_get_width
 2361 0132 0346     		mov	r3, r0
 2362 0134 9CB2     		uxth	r4, r3
 2363 0136 F868     		ldr	r0, [r7, #12]
 2364 0138 FFF7FEFF 		bl	lv_obj_get_width
 2365 013c 0346     		mov	r3, r0
ARM GAS  C:\Users\tmj32\AppData\Local\Temp\ccxLNxq9.s 			page 60


 2366 013e 9BB2     		uxth	r3, r3
 2367 0140 E31A     		subs	r3, r4, r3
 2368 0142 9BB2     		uxth	r3, r3
 2369 0144 FB83     		strh	r3, [r7, #30]	@ movhi
 882:..\..\..\lvgl\version_6.1.2\lvgl\src\lv_core/lv_obj.c ****             new_y = 0;
 2370              		.loc 2 882 0
 2371 0146 0023     		movs	r3, #0
 2372 0148 BB83     		strh	r3, [r7, #28]	@ movhi
 883:..\..\..\lvgl\version_6.1.2\lvgl\src\lv_core/lv_obj.c ****             break;
 2373              		.loc 2 883 0
 2374 014a 72E1     		b	.L106
 2375              	.L112:
 884:..\..\..\lvgl\version_6.1.2\lvgl\src\lv_core/lv_obj.c **** 
 885:..\..\..\lvgl\version_6.1.2\lvgl\src\lv_core/lv_obj.c ****         case LV_ALIGN_IN_BOTTOM_LEFT:
 886:..\..\..\lvgl\version_6.1.2\lvgl\src\lv_core/lv_obj.c ****             new_x = 0;
 2376              		.loc 2 886 0
 2377 014c 0023     		movs	r3, #0
 2378 014e FB83     		strh	r3, [r7, #30]	@ movhi
 887:..\..\..\lvgl\version_6.1.2\lvgl\src\lv_core/lv_obj.c ****             new_y = lv_obj_get_height(base) - lv_obj_get_height(obj);
 2379              		.loc 2 887 0
 2380 0150 B868     		ldr	r0, [r7, #8]
 2381 0152 FFF7FEFF 		bl	lv_obj_get_height
 2382 0156 0346     		mov	r3, r0
 2383 0158 9CB2     		uxth	r4, r3
 2384 015a F868     		ldr	r0, [r7, #12]
 2385 015c FFF7FEFF 		bl	lv_obj_get_height
 2386 0160 0346     		mov	r3, r0
 2387 0162 9BB2     		uxth	r3, r3
 2388 0164 E31A     		subs	r3, r4, r3
 2389 0166 9BB2     		uxth	r3, r3
 2390 0168 BB83     		strh	r3, [r7, #28]	@ movhi
 888:..\..\..\lvgl\version_6.1.2\lvgl\src\lv_core/lv_obj.c ****             break;
 2391              		.loc 2 888 0
 2392 016a 62E1     		b	.L106
 2393              	.L113:
 889:..\..\..\lvgl\version_6.1.2\lvgl\src\lv_core/lv_obj.c ****         case LV_ALIGN_IN_BOTTOM_MID:
 890:..\..\..\lvgl\version_6.1.2\lvgl\src\lv_core/lv_obj.c ****             new_x = lv_obj_get_width(base) / 2 - lv_obj_get_width(obj) / 2;
 2394              		.loc 2 890 0
 2395 016c B868     		ldr	r0, [r7, #8]
 2396 016e FFF7FEFF 		bl	lv_obj_get_width
 2397 0172 0346     		mov	r3, r0
 2398 0174 DA0F     		lsrs	r2, r3, #31
 2399 0176 1344     		add	r3, r3, r2
 2400 0178 5B10     		asrs	r3, r3, #1
 2401 017a 1BB2     		sxth	r3, r3
 2402 017c 9CB2     		uxth	r4, r3
 2403 017e F868     		ldr	r0, [r7, #12]
 2404 0180 FFF7FEFF 		bl	lv_obj_get_width
 2405 0184 0346     		mov	r3, r0
 2406 0186 DA0F     		lsrs	r2, r3, #31
 2407 0188 1344     		add	r3, r3, r2
 2408 018a 5B10     		asrs	r3, r3, #1
 2409 018c 1BB2     		sxth	r3, r3
 2410 018e 9BB2     		uxth	r3, r3
 2411 0190 E31A     		subs	r3, r4, r3
 2412 0192 9BB2     		uxth	r3, r3
 2413 0194 FB83     		strh	r3, [r7, #30]	@ movhi
ARM GAS  C:\Users\tmj32\AppData\Local\Temp\ccxLNxq9.s 			page 61


 891:..\..\..\lvgl\version_6.1.2\lvgl\src\lv_core/lv_obj.c ****             new_y = lv_obj_get_height(base) - lv_obj_get_height(obj);
 2414              		.loc 2 891 0
 2415 0196 B868     		ldr	r0, [r7, #8]
 2416 0198 FFF7FEFF 		bl	lv_obj_get_height
 2417 019c 0346     		mov	r3, r0
 2418 019e 9CB2     		uxth	r4, r3
 2419 01a0 F868     		ldr	r0, [r7, #12]
 2420 01a2 FFF7FEFF 		bl	lv_obj_get_height
 2421 01a6 0346     		mov	r3, r0
 2422 01a8 9BB2     		uxth	r3, r3
 2423 01aa E31A     		subs	r3, r4, r3
 2424 01ac 9BB2     		uxth	r3, r3
 2425 01ae BB83     		strh	r3, [r7, #28]	@ movhi
 892:..\..\..\lvgl\version_6.1.2\lvgl\src\lv_core/lv_obj.c ****             break;
 2426              		.loc 2 892 0
 2427 01b0 3FE1     		b	.L106
 2428              	.L114:
 893:..\..\..\lvgl\version_6.1.2\lvgl\src\lv_core/lv_obj.c **** 
 894:..\..\..\lvgl\version_6.1.2\lvgl\src\lv_core/lv_obj.c ****         case LV_ALIGN_IN_BOTTOM_RIGHT:
 895:..\..\..\lvgl\version_6.1.2\lvgl\src\lv_core/lv_obj.c ****             new_x = lv_obj_get_width(base) - lv_obj_get_width(obj);
 2429              		.loc 2 895 0
 2430 01b2 B868     		ldr	r0, [r7, #8]
 2431 01b4 FFF7FEFF 		bl	lv_obj_get_width
 2432 01b8 0346     		mov	r3, r0
 2433 01ba 9CB2     		uxth	r4, r3
 2434 01bc F868     		ldr	r0, [r7, #12]
 2435 01be FFF7FEFF 		bl	lv_obj_get_width
 2436 01c2 0346     		mov	r3, r0
 2437 01c4 9BB2     		uxth	r3, r3
 2438 01c6 E31A     		subs	r3, r4, r3
 2439 01c8 9BB2     		uxth	r3, r3
 2440 01ca FB83     		strh	r3, [r7, #30]	@ movhi
 896:..\..\..\lvgl\version_6.1.2\lvgl\src\lv_core/lv_obj.c ****             new_y = lv_obj_get_height(base) - lv_obj_get_height(obj);
 2441              		.loc 2 896 0
 2442 01cc B868     		ldr	r0, [r7, #8]
 2443 01ce FFF7FEFF 		bl	lv_obj_get_height
 2444 01d2 0346     		mov	r3, r0
 2445 01d4 9CB2     		uxth	r4, r3
 2446 01d6 F868     		ldr	r0, [r7, #12]
 2447 01d8 FFF7FEFF 		bl	lv_obj_get_height
 2448 01dc 0346     		mov	r3, r0
 2449 01de 9BB2     		uxth	r3, r3
 2450 01e0 E31A     		subs	r3, r4, r3
 2451 01e2 9BB2     		uxth	r3, r3
 2452 01e4 BB83     		strh	r3, [r7, #28]	@ movhi
 897:..\..\..\lvgl\version_6.1.2\lvgl\src\lv_core/lv_obj.c ****             break;
 2453              		.loc 2 897 0
 2454 01e6 24E1     		b	.L106
 2455              	.L115:
 898:..\..\..\lvgl\version_6.1.2\lvgl\src\lv_core/lv_obj.c **** 
 899:..\..\..\lvgl\version_6.1.2\lvgl\src\lv_core/lv_obj.c ****         case LV_ALIGN_IN_LEFT_MID:
 900:..\..\..\lvgl\version_6.1.2\lvgl\src\lv_core/lv_obj.c ****             new_x = 0;
 2456              		.loc 2 900 0
 2457 01e8 0023     		movs	r3, #0
 2458 01ea FB83     		strh	r3, [r7, #30]	@ movhi
 901:..\..\..\lvgl\version_6.1.2\lvgl\src\lv_core/lv_obj.c ****             new_y = lv_obj_get_height(base) / 2 - lv_obj_get_height(obj) / 2;
 2459              		.loc 2 901 0
ARM GAS  C:\Users\tmj32\AppData\Local\Temp\ccxLNxq9.s 			page 62


 2460 01ec B868     		ldr	r0, [r7, #8]
 2461 01ee FFF7FEFF 		bl	lv_obj_get_height
 2462 01f2 0346     		mov	r3, r0
 2463 01f4 DA0F     		lsrs	r2, r3, #31
 2464 01f6 1344     		add	r3, r3, r2
 2465 01f8 5B10     		asrs	r3, r3, #1
 2466 01fa 1BB2     		sxth	r3, r3
 2467 01fc 9CB2     		uxth	r4, r3
 2468 01fe F868     		ldr	r0, [r7, #12]
 2469 0200 FFF7FEFF 		bl	lv_obj_get_height
 2470 0204 0346     		mov	r3, r0
 2471 0206 DA0F     		lsrs	r2, r3, #31
 2472 0208 1344     		add	r3, r3, r2
 2473 020a 5B10     		asrs	r3, r3, #1
 2474 020c 1BB2     		sxth	r3, r3
 2475 020e 9BB2     		uxth	r3, r3
 2476 0210 E31A     		subs	r3, r4, r3
 2477 0212 9BB2     		uxth	r3, r3
 2478 0214 BB83     		strh	r3, [r7, #28]	@ movhi
 902:..\..\..\lvgl\version_6.1.2\lvgl\src\lv_core/lv_obj.c ****             break;
 2479              		.loc 2 902 0
 2480 0216 0CE1     		b	.L106
 2481              	.L116:
 903:..\..\..\lvgl\version_6.1.2\lvgl\src\lv_core/lv_obj.c **** 
 904:..\..\..\lvgl\version_6.1.2\lvgl\src\lv_core/lv_obj.c ****         case LV_ALIGN_IN_RIGHT_MID:
 905:..\..\..\lvgl\version_6.1.2\lvgl\src\lv_core/lv_obj.c ****             new_x = lv_obj_get_width(base) - lv_obj_get_width(obj);
 2482              		.loc 2 905 0
 2483 0218 B868     		ldr	r0, [r7, #8]
 2484 021a FFF7FEFF 		bl	lv_obj_get_width
 2485 021e 0346     		mov	r3, r0
 2486 0220 9CB2     		uxth	r4, r3
 2487 0222 F868     		ldr	r0, [r7, #12]
 2488 0224 FFF7FEFF 		bl	lv_obj_get_width
 2489 0228 0346     		mov	r3, r0
 2490 022a 9BB2     		uxth	r3, r3
 2491 022c E31A     		subs	r3, r4, r3
 2492 022e 9BB2     		uxth	r3, r3
 2493 0230 FB83     		strh	r3, [r7, #30]	@ movhi
 906:..\..\..\lvgl\version_6.1.2\lvgl\src\lv_core/lv_obj.c ****             new_y = lv_obj_get_height(base) / 2 - lv_obj_get_height(obj) / 2;
 2494              		.loc 2 906 0
 2495 0232 B868     		ldr	r0, [r7, #8]
 2496 0234 FFF7FEFF 		bl	lv_obj_get_height
 2497 0238 0346     		mov	r3, r0
 2498 023a DA0F     		lsrs	r2, r3, #31
 2499 023c 1344     		add	r3, r3, r2
 2500 023e 5B10     		asrs	r3, r3, #1
 2501 0240 1BB2     		sxth	r3, r3
 2502 0242 9CB2     		uxth	r4, r3
 2503 0244 F868     		ldr	r0, [r7, #12]
 2504 0246 FFF7FEFF 		bl	lv_obj_get_height
 2505 024a 0346     		mov	r3, r0
 2506 024c DA0F     		lsrs	r2, r3, #31
 2507 024e 1344     		add	r3, r3, r2
 2508 0250 5B10     		asrs	r3, r3, #1
 2509 0252 1BB2     		sxth	r3, r3
 2510 0254 9BB2     		uxth	r3, r3
 2511 0256 E31A     		subs	r3, r4, r3
ARM GAS  C:\Users\tmj32\AppData\Local\Temp\ccxLNxq9.s 			page 63


 2512 0258 9BB2     		uxth	r3, r3
 2513 025a BB83     		strh	r3, [r7, #28]	@ movhi
 907:..\..\..\lvgl\version_6.1.2\lvgl\src\lv_core/lv_obj.c ****             break;
 2514              		.loc 2 907 0
 2515 025c E9E0     		b	.L106
 2516              	.L117:
 908:..\..\..\lvgl\version_6.1.2\lvgl\src\lv_core/lv_obj.c **** 
 909:..\..\..\lvgl\version_6.1.2\lvgl\src\lv_core/lv_obj.c ****         case LV_ALIGN_OUT_TOP_LEFT:
 910:..\..\..\lvgl\version_6.1.2\lvgl\src\lv_core/lv_obj.c ****             new_x = 0;
 2517              		.loc 2 910 0
 2518 025e 0023     		movs	r3, #0
 2519 0260 FB83     		strh	r3, [r7, #30]	@ movhi
 911:..\..\..\lvgl\version_6.1.2\lvgl\src\lv_core/lv_obj.c ****             new_y = -lv_obj_get_height(obj);
 2520              		.loc 2 911 0
 2521 0262 F868     		ldr	r0, [r7, #12]
 2522 0264 FFF7FEFF 		bl	lv_obj_get_height
 2523 0268 0346     		mov	r3, r0
 2524 026a 9BB2     		uxth	r3, r3
 2525 026c 5B42     		negs	r3, r3
 2526 026e 9BB2     		uxth	r3, r3
 2527 0270 BB83     		strh	r3, [r7, #28]	@ movhi
 912:..\..\..\lvgl\version_6.1.2\lvgl\src\lv_core/lv_obj.c ****             break;
 2528              		.loc 2 912 0
 2529 0272 DEE0     		b	.L106
 2530              	.L118:
 913:..\..\..\lvgl\version_6.1.2\lvgl\src\lv_core/lv_obj.c **** 
 914:..\..\..\lvgl\version_6.1.2\lvgl\src\lv_core/lv_obj.c ****         case LV_ALIGN_OUT_TOP_MID:
 915:..\..\..\lvgl\version_6.1.2\lvgl\src\lv_core/lv_obj.c ****             new_x = lv_obj_get_width(base) / 2 - lv_obj_get_width(obj) / 2;
 2531              		.loc 2 915 0
 2532 0274 B868     		ldr	r0, [r7, #8]
 2533 0276 FFF7FEFF 		bl	lv_obj_get_width
 2534 027a 0346     		mov	r3, r0
 2535 027c DA0F     		lsrs	r2, r3, #31
 2536 027e 1344     		add	r3, r3, r2
 2537 0280 5B10     		asrs	r3, r3, #1
 2538 0282 1BB2     		sxth	r3, r3
 2539 0284 9CB2     		uxth	r4, r3
 2540 0286 F868     		ldr	r0, [r7, #12]
 2541 0288 FFF7FEFF 		bl	lv_obj_get_width
 2542 028c 0346     		mov	r3, r0
 2543 028e DA0F     		lsrs	r2, r3, #31
 2544 0290 1344     		add	r3, r3, r2
 2545 0292 5B10     		asrs	r3, r3, #1
 2546 0294 1BB2     		sxth	r3, r3
 2547 0296 9BB2     		uxth	r3, r3
 2548 0298 E31A     		subs	r3, r4, r3
 2549 029a 9BB2     		uxth	r3, r3
 2550 029c FB83     		strh	r3, [r7, #30]	@ movhi
 916:..\..\..\lvgl\version_6.1.2\lvgl\src\lv_core/lv_obj.c ****             new_y = -lv_obj_get_height(obj);
 2551              		.loc 2 916 0
 2552 029e F868     		ldr	r0, [r7, #12]
 2553 02a0 FFF7FEFF 		bl	lv_obj_get_height
 2554 02a4 0346     		mov	r3, r0
 2555 02a6 9BB2     		uxth	r3, r3
 2556 02a8 5B42     		negs	r3, r3
 2557 02aa 9BB2     		uxth	r3, r3
 2558 02ac BB83     		strh	r3, [r7, #28]	@ movhi
ARM GAS  C:\Users\tmj32\AppData\Local\Temp\ccxLNxq9.s 			page 64


 917:..\..\..\lvgl\version_6.1.2\lvgl\src\lv_core/lv_obj.c ****             break;
 2559              		.loc 2 917 0
 2560 02ae C0E0     		b	.L106
 2561              	.L119:
 918:..\..\..\lvgl\version_6.1.2\lvgl\src\lv_core/lv_obj.c **** 
 919:..\..\..\lvgl\version_6.1.2\lvgl\src\lv_core/lv_obj.c ****         case LV_ALIGN_OUT_TOP_RIGHT:
 920:..\..\..\lvgl\version_6.1.2\lvgl\src\lv_core/lv_obj.c ****             new_x = lv_obj_get_width(base) - lv_obj_get_width(obj);
 2562              		.loc 2 920 0
 2563 02b0 B868     		ldr	r0, [r7, #8]
 2564 02b2 FFF7FEFF 		bl	lv_obj_get_width
 2565 02b6 0346     		mov	r3, r0
 2566 02b8 9CB2     		uxth	r4, r3
 2567 02ba F868     		ldr	r0, [r7, #12]
 2568 02bc FFF7FEFF 		bl	lv_obj_get_width
 2569 02c0 0346     		mov	r3, r0
 2570 02c2 9BB2     		uxth	r3, r3
 2571 02c4 E31A     		subs	r3, r4, r3
 2572 02c6 9BB2     		uxth	r3, r3
 2573 02c8 FB83     		strh	r3, [r7, #30]	@ movhi
 921:..\..\..\lvgl\version_6.1.2\lvgl\src\lv_core/lv_obj.c ****             new_y = -lv_obj_get_height(obj);
 2574              		.loc 2 921 0
 2575 02ca F868     		ldr	r0, [r7, #12]
 2576 02cc FFF7FEFF 		bl	lv_obj_get_height
 2577 02d0 0346     		mov	r3, r0
 2578 02d2 9BB2     		uxth	r3, r3
 2579 02d4 5B42     		negs	r3, r3
 2580 02d6 9BB2     		uxth	r3, r3
 2581 02d8 BB83     		strh	r3, [r7, #28]	@ movhi
 922:..\..\..\lvgl\version_6.1.2\lvgl\src\lv_core/lv_obj.c ****             break;
 2582              		.loc 2 922 0
 2583 02da AAE0     		b	.L106
 2584              	.L120:
 923:..\..\..\lvgl\version_6.1.2\lvgl\src\lv_core/lv_obj.c **** 
 924:..\..\..\lvgl\version_6.1.2\lvgl\src\lv_core/lv_obj.c ****         case LV_ALIGN_OUT_BOTTOM_LEFT:
 925:..\..\..\lvgl\version_6.1.2\lvgl\src\lv_core/lv_obj.c ****             new_x = 0;
 2585              		.loc 2 925 0
 2586 02dc 0023     		movs	r3, #0
 2587 02de FB83     		strh	r3, [r7, #30]	@ movhi
 926:..\..\..\lvgl\version_6.1.2\lvgl\src\lv_core/lv_obj.c ****             new_y = lv_obj_get_height(base);
 2588              		.loc 2 926 0
 2589 02e0 B868     		ldr	r0, [r7, #8]
 2590 02e2 FFF7FEFF 		bl	lv_obj_get_height
 2591 02e6 0346     		mov	r3, r0
 2592 02e8 BB83     		strh	r3, [r7, #28]	@ movhi
 927:..\..\..\lvgl\version_6.1.2\lvgl\src\lv_core/lv_obj.c ****             break;
 2593              		.loc 2 927 0
 2594 02ea A2E0     		b	.L106
 2595              	.L121:
 928:..\..\..\lvgl\version_6.1.2\lvgl\src\lv_core/lv_obj.c **** 
 929:..\..\..\lvgl\version_6.1.2\lvgl\src\lv_core/lv_obj.c ****         case LV_ALIGN_OUT_BOTTOM_MID:
 930:..\..\..\lvgl\version_6.1.2\lvgl\src\lv_core/lv_obj.c ****             new_x = lv_obj_get_width(base) / 2 - lv_obj_get_width(obj) / 2;
 2596              		.loc 2 930 0
 2597 02ec B868     		ldr	r0, [r7, #8]
 2598 02ee FFF7FEFF 		bl	lv_obj_get_width
 2599 02f2 0346     		mov	r3, r0
 2600 02f4 DA0F     		lsrs	r2, r3, #31
 2601 02f6 1344     		add	r3, r3, r2
ARM GAS  C:\Users\tmj32\AppData\Local\Temp\ccxLNxq9.s 			page 65


 2602 02f8 5B10     		asrs	r3, r3, #1
 2603 02fa 1BB2     		sxth	r3, r3
 2604 02fc 9CB2     		uxth	r4, r3
 2605 02fe F868     		ldr	r0, [r7, #12]
 2606 0300 FFF7FEFF 		bl	lv_obj_get_width
 2607 0304 0346     		mov	r3, r0
 2608 0306 DA0F     		lsrs	r2, r3, #31
 2609 0308 1344     		add	r3, r3, r2
 2610 030a 5B10     		asrs	r3, r3, #1
 2611 030c 1BB2     		sxth	r3, r3
 2612 030e 9BB2     		uxth	r3, r3
 2613 0310 E31A     		subs	r3, r4, r3
 2614 0312 9BB2     		uxth	r3, r3
 2615 0314 FB83     		strh	r3, [r7, #30]	@ movhi
 931:..\..\..\lvgl\version_6.1.2\lvgl\src\lv_core/lv_obj.c ****             new_y = lv_obj_get_height(base);
 2616              		.loc 2 931 0
 2617 0316 B868     		ldr	r0, [r7, #8]
 2618 0318 FFF7FEFF 		bl	lv_obj_get_height
 2619 031c 0346     		mov	r3, r0
 2620 031e BB83     		strh	r3, [r7, #28]	@ movhi
 932:..\..\..\lvgl\version_6.1.2\lvgl\src\lv_core/lv_obj.c ****             break;
 2621              		.loc 2 932 0
 2622 0320 87E0     		b	.L106
 2623              	.L122:
 933:..\..\..\lvgl\version_6.1.2\lvgl\src\lv_core/lv_obj.c **** 
 934:..\..\..\lvgl\version_6.1.2\lvgl\src\lv_core/lv_obj.c ****         case LV_ALIGN_OUT_BOTTOM_RIGHT:
 935:..\..\..\lvgl\version_6.1.2\lvgl\src\lv_core/lv_obj.c ****             new_x = lv_obj_get_width(base) - lv_obj_get_width(obj);
 2624              		.loc 2 935 0
 2625 0322 B868     		ldr	r0, [r7, #8]
 2626 0324 FFF7FEFF 		bl	lv_obj_get_width
 2627 0328 0346     		mov	r3, r0
 2628 032a 9CB2     		uxth	r4, r3
 2629 032c F868     		ldr	r0, [r7, #12]
 2630 032e FFF7FEFF 		bl	lv_obj_get_width
 2631 0332 0346     		mov	r3, r0
 2632 0334 9BB2     		uxth	r3, r3
 2633 0336 E31A     		subs	r3, r4, r3
 2634 0338 9BB2     		uxth	r3, r3
 2635 033a FB83     		strh	r3, [r7, #30]	@ movhi
 936:..\..\..\lvgl\version_6.1.2\lvgl\src\lv_core/lv_obj.c ****             new_y = lv_obj_get_height(base);
 2636              		.loc 2 936 0
 2637 033c B868     		ldr	r0, [r7, #8]
 2638 033e FFF7FEFF 		bl	lv_obj_get_height
 2639 0342 0346     		mov	r3, r0
 2640 0344 BB83     		strh	r3, [r7, #28]	@ movhi
 937:..\..\..\lvgl\version_6.1.2\lvgl\src\lv_core/lv_obj.c ****             break;
 2641              		.loc 2 937 0
 2642 0346 74E0     		b	.L106
 2643              	.L123:
 938:..\..\..\lvgl\version_6.1.2\lvgl\src\lv_core/lv_obj.c **** 
 939:..\..\..\lvgl\version_6.1.2\lvgl\src\lv_core/lv_obj.c ****         case LV_ALIGN_OUT_LEFT_TOP:
 940:..\..\..\lvgl\version_6.1.2\lvgl\src\lv_core/lv_obj.c ****             new_x = -lv_obj_get_width(obj);
 2644              		.loc 2 940 0
 2645 0348 F868     		ldr	r0, [r7, #12]
 2646 034a FFF7FEFF 		bl	lv_obj_get_width
 2647 034e 0346     		mov	r3, r0
 2648 0350 9BB2     		uxth	r3, r3
ARM GAS  C:\Users\tmj32\AppData\Local\Temp\ccxLNxq9.s 			page 66


 2649 0352 5B42     		negs	r3, r3
 2650 0354 9BB2     		uxth	r3, r3
 2651 0356 FB83     		strh	r3, [r7, #30]	@ movhi
 941:..\..\..\lvgl\version_6.1.2\lvgl\src\lv_core/lv_obj.c ****             new_y = 0;
 2652              		.loc 2 941 0
 2653 0358 0023     		movs	r3, #0
 2654 035a BB83     		strh	r3, [r7, #28]	@ movhi
 942:..\..\..\lvgl\version_6.1.2\lvgl\src\lv_core/lv_obj.c ****             break;
 2655              		.loc 2 942 0
 2656 035c 69E0     		b	.L106
 2657              	.L124:
 943:..\..\..\lvgl\version_6.1.2\lvgl\src\lv_core/lv_obj.c **** 
 944:..\..\..\lvgl\version_6.1.2\lvgl\src\lv_core/lv_obj.c ****         case LV_ALIGN_OUT_LEFT_MID:
 945:..\..\..\lvgl\version_6.1.2\lvgl\src\lv_core/lv_obj.c ****             new_x = -lv_obj_get_width(obj);
 2658              		.loc 2 945 0
 2659 035e F868     		ldr	r0, [r7, #12]
 2660 0360 FFF7FEFF 		bl	lv_obj_get_width
 2661 0364 0346     		mov	r3, r0
 2662 0366 9BB2     		uxth	r3, r3
 2663 0368 5B42     		negs	r3, r3
 2664 036a 9BB2     		uxth	r3, r3
 2665 036c FB83     		strh	r3, [r7, #30]	@ movhi
 946:..\..\..\lvgl\version_6.1.2\lvgl\src\lv_core/lv_obj.c ****             new_y = lv_obj_get_height(base) / 2 - lv_obj_get_height(obj) / 2;
 2666              		.loc 2 946 0
 2667 036e B868     		ldr	r0, [r7, #8]
 2668 0370 FFF7FEFF 		bl	lv_obj_get_height
 2669 0374 0346     		mov	r3, r0
 2670 0376 DA0F     		lsrs	r2, r3, #31
 2671 0378 1344     		add	r3, r3, r2
 2672 037a 5B10     		asrs	r3, r3, #1
 2673 037c 1BB2     		sxth	r3, r3
 2674 037e 9CB2     		uxth	r4, r3
 2675 0380 F868     		ldr	r0, [r7, #12]
 2676 0382 FFF7FEFF 		bl	lv_obj_get_height
 2677 0386 0346     		mov	r3, r0
 2678 0388 DA0F     		lsrs	r2, r3, #31
 2679 038a 1344     		add	r3, r3, r2
 2680 038c 5B10     		asrs	r3, r3, #1
 2681 038e 1BB2     		sxth	r3, r3
 2682 0390 9BB2     		uxth	r3, r3
 2683 0392 E31A     		subs	r3, r4, r3
 2684 0394 9BB2     		uxth	r3, r3
 2685 0396 BB83     		strh	r3, [r7, #28]	@ movhi
 947:..\..\..\lvgl\version_6.1.2\lvgl\src\lv_core/lv_obj.c ****             break;
 2686              		.loc 2 947 0
 2687 0398 4BE0     		b	.L106
 2688              	.L125:
 948:..\..\..\lvgl\version_6.1.2\lvgl\src\lv_core/lv_obj.c **** 
 949:..\..\..\lvgl\version_6.1.2\lvgl\src\lv_core/lv_obj.c ****         case LV_ALIGN_OUT_LEFT_BOTTOM:
 950:..\..\..\lvgl\version_6.1.2\lvgl\src\lv_core/lv_obj.c ****             new_x = -lv_obj_get_width(obj);
 2689              		.loc 2 950 0
 2690 039a F868     		ldr	r0, [r7, #12]
 2691 039c FFF7FEFF 		bl	lv_obj_get_width
 2692 03a0 0346     		mov	r3, r0
 2693 03a2 9BB2     		uxth	r3, r3
 2694 03a4 5B42     		negs	r3, r3
 2695 03a6 9BB2     		uxth	r3, r3
ARM GAS  C:\Users\tmj32\AppData\Local\Temp\ccxLNxq9.s 			page 67


 2696 03a8 FB83     		strh	r3, [r7, #30]	@ movhi
 951:..\..\..\lvgl\version_6.1.2\lvgl\src\lv_core/lv_obj.c ****             new_y = lv_obj_get_height(base) - lv_obj_get_height(obj);
 2697              		.loc 2 951 0
 2698 03aa B868     		ldr	r0, [r7, #8]
 2699 03ac FFF7FEFF 		bl	lv_obj_get_height
 2700 03b0 0346     		mov	r3, r0
 2701 03b2 9CB2     		uxth	r4, r3
 2702 03b4 F868     		ldr	r0, [r7, #12]
 2703 03b6 FFF7FEFF 		bl	lv_obj_get_height
 2704 03ba 0346     		mov	r3, r0
 2705 03bc 9BB2     		uxth	r3, r3
 2706 03be E31A     		subs	r3, r4, r3
 2707 03c0 9BB2     		uxth	r3, r3
 2708 03c2 BB83     		strh	r3, [r7, #28]	@ movhi
 952:..\..\..\lvgl\version_6.1.2\lvgl\src\lv_core/lv_obj.c ****             break;
 2709              		.loc 2 952 0
 2710 03c4 35E0     		b	.L106
 2711              	.L126:
 953:..\..\..\lvgl\version_6.1.2\lvgl\src\lv_core/lv_obj.c **** 
 954:..\..\..\lvgl\version_6.1.2\lvgl\src\lv_core/lv_obj.c ****         case LV_ALIGN_OUT_RIGHT_TOP:
 955:..\..\..\lvgl\version_6.1.2\lvgl\src\lv_core/lv_obj.c ****             new_x = lv_obj_get_width(base);
 2712              		.loc 2 955 0
 2713 03c6 B868     		ldr	r0, [r7, #8]
 2714 03c8 FFF7FEFF 		bl	lv_obj_get_width
 2715 03cc 0346     		mov	r3, r0
 2716 03ce FB83     		strh	r3, [r7, #30]	@ movhi
 956:..\..\..\lvgl\version_6.1.2\lvgl\src\lv_core/lv_obj.c ****             new_y = 0;
 2717              		.loc 2 956 0
 2718 03d0 0023     		movs	r3, #0
 2719 03d2 BB83     		strh	r3, [r7, #28]	@ movhi
 957:..\..\..\lvgl\version_6.1.2\lvgl\src\lv_core/lv_obj.c ****             break;
 2720              		.loc 2 957 0
 2721 03d4 2DE0     		b	.L106
 2722              	.L127:
 958:..\..\..\lvgl\version_6.1.2\lvgl\src\lv_core/lv_obj.c **** 
 959:..\..\..\lvgl\version_6.1.2\lvgl\src\lv_core/lv_obj.c ****         case LV_ALIGN_OUT_RIGHT_MID:
 960:..\..\..\lvgl\version_6.1.2\lvgl\src\lv_core/lv_obj.c ****             new_x = lv_obj_get_width(base);
 2723              		.loc 2 960 0
 2724 03d6 B868     		ldr	r0, [r7, #8]
 2725 03d8 FFF7FEFF 		bl	lv_obj_get_width
 2726 03dc 0346     		mov	r3, r0
 2727 03de FB83     		strh	r3, [r7, #30]	@ movhi
 961:..\..\..\lvgl\version_6.1.2\lvgl\src\lv_core/lv_obj.c ****             new_y = lv_obj_get_height(base) / 2 - lv_obj_get_height(obj) / 2;
 2728              		.loc 2 961 0
 2729 03e0 B868     		ldr	r0, [r7, #8]
 2730 03e2 FFF7FEFF 		bl	lv_obj_get_height
 2731 03e6 0346     		mov	r3, r0
 2732 03e8 DA0F     		lsrs	r2, r3, #31
 2733 03ea 1344     		add	r3, r3, r2
 2734 03ec 5B10     		asrs	r3, r3, #1
 2735 03ee 1BB2     		sxth	r3, r3
 2736 03f0 9CB2     		uxth	r4, r3
 2737 03f2 F868     		ldr	r0, [r7, #12]
 2738 03f4 FFF7FEFF 		bl	lv_obj_get_height
 2739 03f8 0346     		mov	r3, r0
 2740 03fa DA0F     		lsrs	r2, r3, #31
 2741 03fc 1344     		add	r3, r3, r2
ARM GAS  C:\Users\tmj32\AppData\Local\Temp\ccxLNxq9.s 			page 68


 2742 03fe 5B10     		asrs	r3, r3, #1
 2743 0400 1BB2     		sxth	r3, r3
 2744 0402 9BB2     		uxth	r3, r3
 2745 0404 E31A     		subs	r3, r4, r3
 2746 0406 9BB2     		uxth	r3, r3
 2747 0408 BB83     		strh	r3, [r7, #28]	@ movhi
 962:..\..\..\lvgl\version_6.1.2\lvgl\src\lv_core/lv_obj.c ****             break;
 2748              		.loc 2 962 0
 2749 040a 12E0     		b	.L106
 2750              	.L128:
 963:..\..\..\lvgl\version_6.1.2\lvgl\src\lv_core/lv_obj.c **** 
 964:..\..\..\lvgl\version_6.1.2\lvgl\src\lv_core/lv_obj.c ****         case LV_ALIGN_OUT_RIGHT_BOTTOM:
 965:..\..\..\lvgl\version_6.1.2\lvgl\src\lv_core/lv_obj.c ****             new_x = lv_obj_get_width(base);
 2751              		.loc 2 965 0
 2752 040c B868     		ldr	r0, [r7, #8]
 2753 040e FFF7FEFF 		bl	lv_obj_get_width
 2754 0412 0346     		mov	r3, r0
 2755 0414 FB83     		strh	r3, [r7, #30]	@ movhi
 966:..\..\..\lvgl\version_6.1.2\lvgl\src\lv_core/lv_obj.c ****             new_y = lv_obj_get_height(base) - lv_obj_get_height(obj);
 2756              		.loc 2 966 0
 2757 0416 B868     		ldr	r0, [r7, #8]
 2758 0418 FFF7FEFF 		bl	lv_obj_get_height
 2759 041c 0346     		mov	r3, r0
 2760 041e 9CB2     		uxth	r4, r3
 2761 0420 F868     		ldr	r0, [r7, #12]
 2762 0422 FFF7FEFF 		bl	lv_obj_get_height
 2763 0426 0346     		mov	r3, r0
 2764 0428 9BB2     		uxth	r3, r3
 2765 042a E31A     		subs	r3, r4, r3
 2766 042c 9BB2     		uxth	r3, r3
 2767 042e BB83     		strh	r3, [r7, #28]	@ movhi
 967:..\..\..\lvgl\version_6.1.2\lvgl\src\lv_core/lv_obj.c ****             break;
 2768              		.loc 2 967 0
 2769 0430 00BF     		nop
 2770              	.L106:
 968:..\..\..\lvgl\version_6.1.2\lvgl\src\lv_core/lv_obj.c ****     }
 969:..\..\..\lvgl\version_6.1.2\lvgl\src\lv_core/lv_obj.c **** 
 970:..\..\..\lvgl\version_6.1.2\lvgl\src\lv_core/lv_obj.c ****     /*Bring together the coordination system of base and obj*/
 971:..\..\..\lvgl\version_6.1.2\lvgl\src\lv_core/lv_obj.c ****     lv_obj_t * par        = lv_obj_get_parent(obj);
 2771              		.loc 2 971 0
 2772 0432 F868     		ldr	r0, [r7, #12]
 2773 0434 FFF7FEFF 		bl	lv_obj_get_parent
 2774 0438 B861     		str	r0, [r7, #24]
 972:..\..\..\lvgl\version_6.1.2\lvgl\src\lv_core/lv_obj.c ****     lv_coord_t base_abs_x = base->coords.x1;
 2775              		.loc 2 972 0
 2776 043a BB68     		ldr	r3, [r7, #8]
 2777 043c 1B8A     		ldrh	r3, [r3, #16]	@ movhi
 2778 043e FB82     		strh	r3, [r7, #22]	@ movhi
 973:..\..\..\lvgl\version_6.1.2\lvgl\src\lv_core/lv_obj.c ****     lv_coord_t base_abs_y = base->coords.y1;
 2779              		.loc 2 973 0
 2780 0440 BB68     		ldr	r3, [r7, #8]
 2781 0442 5B8A     		ldrh	r3, [r3, #18]	@ movhi
 2782 0444 BB82     		strh	r3, [r7, #20]	@ movhi
 974:..\..\..\lvgl\version_6.1.2\lvgl\src\lv_core/lv_obj.c ****     lv_coord_t par_abs_x  = par->coords.x1;
 2783              		.loc 2 974 0
 2784 0446 BB69     		ldr	r3, [r7, #24]
 2785 0448 1B8A     		ldrh	r3, [r3, #16]	@ movhi
ARM GAS  C:\Users\tmj32\AppData\Local\Temp\ccxLNxq9.s 			page 69


 2786 044a 7B82     		strh	r3, [r7, #18]	@ movhi
 975:..\..\..\lvgl\version_6.1.2\lvgl\src\lv_core/lv_obj.c ****     lv_coord_t par_abs_y  = par->coords.y1;
 2787              		.loc 2 975 0
 2788 044c BB69     		ldr	r3, [r7, #24]
 2789 044e 5B8A     		ldrh	r3, [r3, #18]	@ movhi
 2790 0450 3B82     		strh	r3, [r7, #16]	@ movhi
 976:..\..\..\lvgl\version_6.1.2\lvgl\src\lv_core/lv_obj.c ****     new_x += x_mod + base_abs_x;
 2791              		.loc 2 976 0
 2792 0452 BA88     		ldrh	r2, [r7, #4]
 2793 0454 FB8A     		ldrh	r3, [r7, #22]
 2794 0456 1344     		add	r3, r3, r2
 2795 0458 9AB2     		uxth	r2, r3
 2796 045a FB8B     		ldrh	r3, [r7, #30]
 2797 045c 1344     		add	r3, r3, r2
 2798 045e 9BB2     		uxth	r3, r3
 2799 0460 FB83     		strh	r3, [r7, #30]	@ movhi
 977:..\..\..\lvgl\version_6.1.2\lvgl\src\lv_core/lv_obj.c ****     new_y += y_mod + base_abs_y;
 2800              		.loc 2 977 0
 2801 0462 3A8E     		ldrh	r2, [r7, #48]
 2802 0464 BB8A     		ldrh	r3, [r7, #20]
 2803 0466 1344     		add	r3, r3, r2
 2804 0468 9AB2     		uxth	r2, r3
 2805 046a BB8B     		ldrh	r3, [r7, #28]
 2806 046c 1344     		add	r3, r3, r2
 2807 046e 9BB2     		uxth	r3, r3
 2808 0470 BB83     		strh	r3, [r7, #28]	@ movhi
 978:..\..\..\lvgl\version_6.1.2\lvgl\src\lv_core/lv_obj.c ****     new_x -= par_abs_x;
 2809              		.loc 2 978 0
 2810 0472 FA8B     		ldrh	r2, [r7, #30]
 2811 0474 7B8A     		ldrh	r3, [r7, #18]
 2812 0476 D31A     		subs	r3, r2, r3
 2813 0478 9BB2     		uxth	r3, r3
 2814 047a FB83     		strh	r3, [r7, #30]	@ movhi
 979:..\..\..\lvgl\version_6.1.2\lvgl\src\lv_core/lv_obj.c ****     new_y -= par_abs_y;
 2815              		.loc 2 979 0
 2816 047c BA8B     		ldrh	r2, [r7, #28]
 2817 047e 3B8A     		ldrh	r3, [r7, #16]
 2818 0480 D31A     		subs	r3, r2, r3
 2819 0482 9BB2     		uxth	r3, r3
 2820 0484 BB83     		strh	r3, [r7, #28]	@ movhi
 980:..\..\..\lvgl\version_6.1.2\lvgl\src\lv_core/lv_obj.c **** 
 981:..\..\..\lvgl\version_6.1.2\lvgl\src\lv_core/lv_obj.c ****     lv_obj_set_pos(obj, new_x, new_y);
 2821              		.loc 2 981 0
 2822 0486 B7F91C20 		ldrsh	r2, [r7, #28]
 2823 048a B7F91E30 		ldrsh	r3, [r7, #30]
 2824 048e 1946     		mov	r1, r3
 2825 0490 F868     		ldr	r0, [r7, #12]
 2826 0492 FFF7FEFF 		bl	lv_obj_set_pos
 982:..\..\..\lvgl\version_6.1.2\lvgl\src\lv_core/lv_obj.c **** 
 983:..\..\..\lvgl\version_6.1.2\lvgl\src\lv_core/lv_obj.c **** #if LV_USE_OBJ_REALIGN
 984:..\..\..\lvgl\version_6.1.2\lvgl\src\lv_core/lv_obj.c ****     /*Save the last align parameters to use them in `lv_obj_realign`*/
 985:..\..\..\lvgl\version_6.1.2\lvgl\src\lv_core/lv_obj.c ****     obj->realign.align       = align;
 2827              		.loc 2 985 0
 2828 0496 FB68     		ldr	r3, [r7, #12]
 2829 0498 FA79     		ldrb	r2, [r7, #7]
 2830 049a 83F83C20 		strb	r2, [r3, #60]
 986:..\..\..\lvgl\version_6.1.2\lvgl\src\lv_core/lv_obj.c ****     obj->realign.xofs        = x_mod;
ARM GAS  C:\Users\tmj32\AppData\Local\Temp\ccxLNxq9.s 			page 70


 2831              		.loc 2 986 0
 2832 049e FB68     		ldr	r3, [r7, #12]
 2833 04a0 BA88     		ldrh	r2, [r7, #4]	@ movhi
 2834 04a2 1A87     		strh	r2, [r3, #56]	@ movhi
 987:..\..\..\lvgl\version_6.1.2\lvgl\src\lv_core/lv_obj.c ****     obj->realign.yofs        = y_mod;
 2835              		.loc 2 987 0
 2836 04a4 FB68     		ldr	r3, [r7, #12]
 2837 04a6 3A8E     		ldrh	r2, [r7, #48]	@ movhi
 2838 04a8 5A87     		strh	r2, [r3, #58]	@ movhi
 988:..\..\..\lvgl\version_6.1.2\lvgl\src\lv_core/lv_obj.c ****     obj->realign.base        = base;
 2839              		.loc 2 988 0
 2840 04aa FB68     		ldr	r3, [r7, #12]
 2841 04ac BA68     		ldr	r2, [r7, #8]
 2842 04ae 5A63     		str	r2, [r3, #52]
 989:..\..\..\lvgl\version_6.1.2\lvgl\src\lv_core/lv_obj.c ****     obj->realign.origo_align = 0;
 2843              		.loc 2 989 0
 2844 04b0 FA68     		ldr	r2, [r7, #12]
 2845 04b2 92F83D30 		ldrb	r3, [r2, #61]
 2846 04b6 6FF34103 		bfc	r3, #1, #1
 2847 04ba 82F83D30 		strb	r3, [r2, #61]
 990:..\..\..\lvgl\version_6.1.2\lvgl\src\lv_core/lv_obj.c **** #endif
 991:..\..\..\lvgl\version_6.1.2\lvgl\src\lv_core/lv_obj.c **** }
 2848              		.loc 2 991 0
 2849 04be 00BF     		nop
 2850 04c0 2437     		adds	r7, r7, #36
 2851              		.cfi_def_cfa_offset 12
 2852 04c2 BD46     		mov	sp, r7
 2853              		.cfi_def_cfa_register 13
 2854              		@ sp needed
 2855 04c4 90BD     		pop	{r4, r7, pc}
 2856              		.cfi_endproc
 2857              	.LFE52:
 2858              		.size	lv_obj_align, .-lv_obj_align
 2859 04c6 00BF     		.section	.text.lv_obj_align_origo,"ax",%progbits
 2860              		.align	2
 2861              		.global	lv_obj_align_origo
 2862              		.thumb
 2863              		.thumb_func
 2864              		.type	lv_obj_align_origo, %function
 2865              	lv_obj_align_origo:
 2866              	.LFB53:
 992:..\..\..\lvgl\version_6.1.2\lvgl\src\lv_core/lv_obj.c **** 
 993:..\..\..\lvgl\version_6.1.2\lvgl\src\lv_core/lv_obj.c **** /**
 994:..\..\..\lvgl\version_6.1.2\lvgl\src\lv_core/lv_obj.c ****  * Align an object's middle point to an other object.
 995:..\..\..\lvgl\version_6.1.2\lvgl\src\lv_core/lv_obj.c ****  * @param obj pointer to an object to align
 996:..\..\..\lvgl\version_6.1.2\lvgl\src\lv_core/lv_obj.c ****  * @param base pointer to an object (if NULL the parent is used). 'obj' will be aligned to it.
 997:..\..\..\lvgl\version_6.1.2\lvgl\src\lv_core/lv_obj.c ****  * @param align type of alignment (see 'lv_align_t' enum)
 998:..\..\..\lvgl\version_6.1.2\lvgl\src\lv_core/lv_obj.c ****  * @param x_mod x coordinate shift after alignment
 999:..\..\..\lvgl\version_6.1.2\lvgl\src\lv_core/lv_obj.c ****  * @param y_mod y coordinate shift after alignment
1000:..\..\..\lvgl\version_6.1.2\lvgl\src\lv_core/lv_obj.c ****  */
1001:..\..\..\lvgl\version_6.1.2\lvgl\src\lv_core/lv_obj.c **** void lv_obj_align_origo(lv_obj_t * obj, const lv_obj_t * base, lv_align_t align, lv_coord_t x_mod, 
1002:..\..\..\lvgl\version_6.1.2\lvgl\src\lv_core/lv_obj.c **** {
 2867              		.loc 2 1002 0
 2868              		.cfi_startproc
 2869              		@ args = 4, pretend = 0, frame = 40
 2870              		@ frame_needed = 1, uses_anonymous_args = 0
 2871 0000 80B5     		push	{r7, lr}
ARM GAS  C:\Users\tmj32\AppData\Local\Temp\ccxLNxq9.s 			page 71


 2872              		.cfi_def_cfa_offset 8
 2873              		.cfi_offset 7, -8
 2874              		.cfi_offset 14, -4
 2875 0002 8AB0     		sub	sp, sp, #40
 2876              		.cfi_def_cfa_offset 48
 2877 0004 00AF     		add	r7, sp, #0
 2878              		.cfi_def_cfa_register 7
 2879 0006 F860     		str	r0, [r7, #12]
 2880 0008 B960     		str	r1, [r7, #8]
 2881 000a 1146     		mov	r1, r2
 2882 000c 1A46     		mov	r2, r3
 2883 000e 0B46     		mov	r3, r1
 2884 0010 FB71     		strb	r3, [r7, #7]
 2885 0012 1346     		mov	r3, r2	@ movhi
 2886 0014 BB80     		strh	r3, [r7, #4]	@ movhi
1003:..\..\..\lvgl\version_6.1.2\lvgl\src\lv_core/lv_obj.c ****     LV_ASSERT_OBJ(obj, LV_OBJX_NAME);
1004:..\..\..\lvgl\version_6.1.2\lvgl\src\lv_core/lv_obj.c **** 
1005:..\..\..\lvgl\version_6.1.2\lvgl\src\lv_core/lv_obj.c ****     lv_coord_t new_x = lv_obj_get_x(obj);
 2887              		.loc 2 1005 0
 2888 0016 F868     		ldr	r0, [r7, #12]
 2889 0018 FFF7FEFF 		bl	lv_obj_get_x
 2890 001c 0346     		mov	r3, r0
 2891 001e FB84     		strh	r3, [r7, #38]	@ movhi
1006:..\..\..\lvgl\version_6.1.2\lvgl\src\lv_core/lv_obj.c ****     lv_coord_t new_y = lv_obj_get_y(obj);
 2892              		.loc 2 1006 0
 2893 0020 F868     		ldr	r0, [r7, #12]
 2894 0022 FFF7FEFF 		bl	lv_obj_get_y
 2895 0026 0346     		mov	r3, r0
 2896 0028 BB84     		strh	r3, [r7, #36]	@ movhi
1007:..\..\..\lvgl\version_6.1.2\lvgl\src\lv_core/lv_obj.c **** 
1008:..\..\..\lvgl\version_6.1.2\lvgl\src\lv_core/lv_obj.c ****     lv_coord_t obj_w_half = lv_obj_get_width(obj) / 2;
 2897              		.loc 2 1008 0
 2898 002a F868     		ldr	r0, [r7, #12]
 2899 002c FFF7FEFF 		bl	lv_obj_get_width
 2900 0030 0346     		mov	r3, r0
 2901 0032 DA0F     		lsrs	r2, r3, #31
 2902 0034 1344     		add	r3, r3, r2
 2903 0036 5B10     		asrs	r3, r3, #1
 2904 0038 7B84     		strh	r3, [r7, #34]	@ movhi
1009:..\..\..\lvgl\version_6.1.2\lvgl\src\lv_core/lv_obj.c ****     lv_coord_t obj_h_half = lv_obj_get_height(obj) / 2;
 2905              		.loc 2 1009 0
 2906 003a F868     		ldr	r0, [r7, #12]
 2907 003c FFF7FEFF 		bl	lv_obj_get_height
 2908 0040 0346     		mov	r3, r0
 2909 0042 DA0F     		lsrs	r2, r3, #31
 2910 0044 1344     		add	r3, r3, r2
 2911 0046 5B10     		asrs	r3, r3, #1
 2912 0048 3B84     		strh	r3, [r7, #32]	@ movhi
1010:..\..\..\lvgl\version_6.1.2\lvgl\src\lv_core/lv_obj.c **** 
1011:..\..\..\lvgl\version_6.1.2\lvgl\src\lv_core/lv_obj.c ****     if(base == NULL) {
 2913              		.loc 2 1011 0
 2914 004a BB68     		ldr	r3, [r7, #8]
 2915 004c 002B     		cmp	r3, #0
 2916 004e 03D1     		bne	.L130
1012:..\..\..\lvgl\version_6.1.2\lvgl\src\lv_core/lv_obj.c ****         base = lv_obj_get_parent(obj);
 2917              		.loc 2 1012 0
 2918 0050 F868     		ldr	r0, [r7, #12]
ARM GAS  C:\Users\tmj32\AppData\Local\Temp\ccxLNxq9.s 			page 72


 2919 0052 FFF7FEFF 		bl	lv_obj_get_parent
 2920 0056 B860     		str	r0, [r7, #8]
 2921              	.L130:
1013:..\..\..\lvgl\version_6.1.2\lvgl\src\lv_core/lv_obj.c ****     }
1014:..\..\..\lvgl\version_6.1.2\lvgl\src\lv_core/lv_obj.c **** 
1015:..\..\..\lvgl\version_6.1.2\lvgl\src\lv_core/lv_obj.c ****     LV_ASSERT_OBJ(base, LV_OBJX_NAME);
1016:..\..\..\lvgl\version_6.1.2\lvgl\src\lv_core/lv_obj.c **** 
1017:..\..\..\lvgl\version_6.1.2\lvgl\src\lv_core/lv_obj.c **** 
1018:..\..\..\lvgl\version_6.1.2\lvgl\src\lv_core/lv_obj.c ****     switch(align) {
 2922              		.loc 2 1018 0
 2923 0058 FB79     		ldrb	r3, [r7, #7]	@ zero_extendqisi2
 2924 005a 142B     		cmp	r3, #20
 2925 005c 00F29581 		bhi	.L131
 2926 0060 01A2     		adr	r2, .L133
 2927 0062 52F823F0 		ldr	pc, [r2, r3, lsl #2]
 2928 0066 00BF     		.p2align 2
 2929              	.L133:
 2930 0068 BD000000 		.word	.L132+1
 2931 006c F3000000 		.word	.L134+1
 2932 0070 05010000 		.word	.L135+1
 2933 0074 29010000 		.word	.L136+1
 2934 0078 45010000 		.word	.L137+1
 2935 007c 61010000 		.word	.L138+1
 2936 0080 8F010000 		.word	.L139+1
 2937 0084 B5010000 		.word	.L140+1
 2938 0088 D9010000 		.word	.L141+1
 2939 008c 07020000 		.word	.L142+1
 2940 0090 19020000 		.word	.L143+1
 2941 0094 3D020000 		.word	.L144+1
 2942 0098 59020000 		.word	.L145+1
 2943 009c 75020000 		.word	.L146+1
 2944 00a0 A3020000 		.word	.L147+1
 2945 00a4 C9020000 		.word	.L148+1
 2946 00a8 DB020000 		.word	.L149+1
 2947 00ac FF020000 		.word	.L150+1
 2948 00b0 1B030000 		.word	.L151+1
 2949 00b4 37030000 		.word	.L152+1
 2950 00b8 65030000 		.word	.L153+1
 2951              		.p2align 1
 2952              	.L132:
1019:..\..\..\lvgl\version_6.1.2\lvgl\src\lv_core/lv_obj.c ****         case LV_ALIGN_CENTER:
1020:..\..\..\lvgl\version_6.1.2\lvgl\src\lv_core/lv_obj.c ****             new_x = lv_obj_get_width(base) / 2 - obj_w_half;
 2953              		.loc 2 1020 0
 2954 00bc B868     		ldr	r0, [r7, #8]
 2955 00be FFF7FEFF 		bl	lv_obj_get_width
 2956 00c2 0346     		mov	r3, r0
 2957 00c4 DA0F     		lsrs	r2, r3, #31
 2958 00c6 1344     		add	r3, r3, r2
 2959 00c8 5B10     		asrs	r3, r3, #1
 2960 00ca 1BB2     		sxth	r3, r3
 2961 00cc 9AB2     		uxth	r2, r3
 2962 00ce 7B8C     		ldrh	r3, [r7, #34]
 2963 00d0 D31A     		subs	r3, r2, r3
 2964 00d2 9BB2     		uxth	r3, r3
 2965 00d4 FB84     		strh	r3, [r7, #38]	@ movhi
1021:..\..\..\lvgl\version_6.1.2\lvgl\src\lv_core/lv_obj.c ****             new_y = lv_obj_get_height(base) / 2 - obj_h_half;
 2966              		.loc 2 1021 0
ARM GAS  C:\Users\tmj32\AppData\Local\Temp\ccxLNxq9.s 			page 73


 2967 00d6 B868     		ldr	r0, [r7, #8]
 2968 00d8 FFF7FEFF 		bl	lv_obj_get_height
 2969 00dc 0346     		mov	r3, r0
 2970 00de DA0F     		lsrs	r2, r3, #31
 2971 00e0 1344     		add	r3, r3, r2
 2972 00e2 5B10     		asrs	r3, r3, #1
 2973 00e4 1BB2     		sxth	r3, r3
 2974 00e6 9AB2     		uxth	r2, r3
 2975 00e8 3B8C     		ldrh	r3, [r7, #32]
 2976 00ea D31A     		subs	r3, r2, r3
 2977 00ec 9BB2     		uxth	r3, r3
 2978 00ee BB84     		strh	r3, [r7, #36]	@ movhi
1022:..\..\..\lvgl\version_6.1.2\lvgl\src\lv_core/lv_obj.c ****             break;
 2979              		.loc 2 1022 0
 2980 00f0 4BE1     		b	.L131
 2981              	.L134:
1023:..\..\..\lvgl\version_6.1.2\lvgl\src\lv_core/lv_obj.c **** 
1024:..\..\..\lvgl\version_6.1.2\lvgl\src\lv_core/lv_obj.c ****         case LV_ALIGN_IN_TOP_LEFT:
1025:..\..\..\lvgl\version_6.1.2\lvgl\src\lv_core/lv_obj.c ****             new_x = -obj_w_half;
 2982              		.loc 2 1025 0
 2983 00f2 7B8C     		ldrh	r3, [r7, #34]
 2984 00f4 5B42     		negs	r3, r3
 2985 00f6 9BB2     		uxth	r3, r3
 2986 00f8 FB84     		strh	r3, [r7, #38]	@ movhi
1026:..\..\..\lvgl\version_6.1.2\lvgl\src\lv_core/lv_obj.c ****             new_y = -obj_h_half;
 2987              		.loc 2 1026 0
 2988 00fa 3B8C     		ldrh	r3, [r7, #32]
 2989 00fc 5B42     		negs	r3, r3
 2990 00fe 9BB2     		uxth	r3, r3
 2991 0100 BB84     		strh	r3, [r7, #36]	@ movhi
1027:..\..\..\lvgl\version_6.1.2\lvgl\src\lv_core/lv_obj.c ****             break;
 2992              		.loc 2 1027 0
 2993 0102 42E1     		b	.L131
 2994              	.L135:
1028:..\..\..\lvgl\version_6.1.2\lvgl\src\lv_core/lv_obj.c ****         case LV_ALIGN_IN_TOP_MID:
1029:..\..\..\lvgl\version_6.1.2\lvgl\src\lv_core/lv_obj.c ****             new_x = lv_obj_get_width(base) / 2 - obj_w_half;
 2995              		.loc 2 1029 0
 2996 0104 B868     		ldr	r0, [r7, #8]
 2997 0106 FFF7FEFF 		bl	lv_obj_get_width
 2998 010a 0346     		mov	r3, r0
 2999 010c DA0F     		lsrs	r2, r3, #31
 3000 010e 1344     		add	r3, r3, r2
 3001 0110 5B10     		asrs	r3, r3, #1
 3002 0112 1BB2     		sxth	r3, r3
 3003 0114 9AB2     		uxth	r2, r3
 3004 0116 7B8C     		ldrh	r3, [r7, #34]
 3005 0118 D31A     		subs	r3, r2, r3
 3006 011a 9BB2     		uxth	r3, r3
 3007 011c FB84     		strh	r3, [r7, #38]	@ movhi
1030:..\..\..\lvgl\version_6.1.2\lvgl\src\lv_core/lv_obj.c ****             new_y = -obj_h_half;
 3008              		.loc 2 1030 0
 3009 011e 3B8C     		ldrh	r3, [r7, #32]
 3010 0120 5B42     		negs	r3, r3
 3011 0122 9BB2     		uxth	r3, r3
 3012 0124 BB84     		strh	r3, [r7, #36]	@ movhi
1031:..\..\..\lvgl\version_6.1.2\lvgl\src\lv_core/lv_obj.c ****             break;
 3013              		.loc 2 1031 0
ARM GAS  C:\Users\tmj32\AppData\Local\Temp\ccxLNxq9.s 			page 74


 3014 0126 30E1     		b	.L131
 3015              	.L136:
1032:..\..\..\lvgl\version_6.1.2\lvgl\src\lv_core/lv_obj.c **** 
1033:..\..\..\lvgl\version_6.1.2\lvgl\src\lv_core/lv_obj.c ****         case LV_ALIGN_IN_TOP_RIGHT:
1034:..\..\..\lvgl\version_6.1.2\lvgl\src\lv_core/lv_obj.c ****             new_x = lv_obj_get_width(base) - obj_w_half;
 3016              		.loc 2 1034 0
 3017 0128 B868     		ldr	r0, [r7, #8]
 3018 012a FFF7FEFF 		bl	lv_obj_get_width
 3019 012e 0346     		mov	r3, r0
 3020 0130 9AB2     		uxth	r2, r3
 3021 0132 7B8C     		ldrh	r3, [r7, #34]
 3022 0134 D31A     		subs	r3, r2, r3
 3023 0136 9BB2     		uxth	r3, r3
 3024 0138 FB84     		strh	r3, [r7, #38]	@ movhi
1035:..\..\..\lvgl\version_6.1.2\lvgl\src\lv_core/lv_obj.c ****             new_y = -obj_h_half;
 3025              		.loc 2 1035 0
 3026 013a 3B8C     		ldrh	r3, [r7, #32]
 3027 013c 5B42     		negs	r3, r3
 3028 013e 9BB2     		uxth	r3, r3
 3029 0140 BB84     		strh	r3, [r7, #36]	@ movhi
1036:..\..\..\lvgl\version_6.1.2\lvgl\src\lv_core/lv_obj.c ****             break;
 3030              		.loc 2 1036 0
 3031 0142 22E1     		b	.L131
 3032              	.L137:
1037:..\..\..\lvgl\version_6.1.2\lvgl\src\lv_core/lv_obj.c **** 
1038:..\..\..\lvgl\version_6.1.2\lvgl\src\lv_core/lv_obj.c ****         case LV_ALIGN_IN_BOTTOM_LEFT:
1039:..\..\..\lvgl\version_6.1.2\lvgl\src\lv_core/lv_obj.c ****             new_x = -obj_w_half;
 3033              		.loc 2 1039 0
 3034 0144 7B8C     		ldrh	r3, [r7, #34]
 3035 0146 5B42     		negs	r3, r3
 3036 0148 9BB2     		uxth	r3, r3
 3037 014a FB84     		strh	r3, [r7, #38]	@ movhi
1040:..\..\..\lvgl\version_6.1.2\lvgl\src\lv_core/lv_obj.c ****             new_y = lv_obj_get_height(base) - obj_h_half;
 3038              		.loc 2 1040 0
 3039 014c B868     		ldr	r0, [r7, #8]
 3040 014e FFF7FEFF 		bl	lv_obj_get_height
 3041 0152 0346     		mov	r3, r0
 3042 0154 9AB2     		uxth	r2, r3
 3043 0156 3B8C     		ldrh	r3, [r7, #32]
 3044 0158 D31A     		subs	r3, r2, r3
 3045 015a 9BB2     		uxth	r3, r3
 3046 015c BB84     		strh	r3, [r7, #36]	@ movhi
1041:..\..\..\lvgl\version_6.1.2\lvgl\src\lv_core/lv_obj.c ****             break;
 3047              		.loc 2 1041 0
 3048 015e 14E1     		b	.L131
 3049              	.L138:
1042:..\..\..\lvgl\version_6.1.2\lvgl\src\lv_core/lv_obj.c ****         case LV_ALIGN_IN_BOTTOM_MID:
1043:..\..\..\lvgl\version_6.1.2\lvgl\src\lv_core/lv_obj.c ****             new_x = lv_obj_get_width(base) / 2 - obj_w_half;
 3050              		.loc 2 1043 0
 3051 0160 B868     		ldr	r0, [r7, #8]
 3052 0162 FFF7FEFF 		bl	lv_obj_get_width
 3053 0166 0346     		mov	r3, r0
 3054 0168 DA0F     		lsrs	r2, r3, #31
 3055 016a 1344     		add	r3, r3, r2
 3056 016c 5B10     		asrs	r3, r3, #1
 3057 016e 1BB2     		sxth	r3, r3
 3058 0170 9AB2     		uxth	r2, r3
ARM GAS  C:\Users\tmj32\AppData\Local\Temp\ccxLNxq9.s 			page 75


 3059 0172 7B8C     		ldrh	r3, [r7, #34]
 3060 0174 D31A     		subs	r3, r2, r3
 3061 0176 9BB2     		uxth	r3, r3
 3062 0178 FB84     		strh	r3, [r7, #38]	@ movhi
1044:..\..\..\lvgl\version_6.1.2\lvgl\src\lv_core/lv_obj.c ****             new_y = lv_obj_get_height(base) - obj_h_half;
 3063              		.loc 2 1044 0
 3064 017a B868     		ldr	r0, [r7, #8]
 3065 017c FFF7FEFF 		bl	lv_obj_get_height
 3066 0180 0346     		mov	r3, r0
 3067 0182 9AB2     		uxth	r2, r3
 3068 0184 3B8C     		ldrh	r3, [r7, #32]
 3069 0186 D31A     		subs	r3, r2, r3
 3070 0188 9BB2     		uxth	r3, r3
 3071 018a BB84     		strh	r3, [r7, #36]	@ movhi
1045:..\..\..\lvgl\version_6.1.2\lvgl\src\lv_core/lv_obj.c ****             break;
 3072              		.loc 2 1045 0
 3073 018c FDE0     		b	.L131
 3074              	.L139:
1046:..\..\..\lvgl\version_6.1.2\lvgl\src\lv_core/lv_obj.c **** 
1047:..\..\..\lvgl\version_6.1.2\lvgl\src\lv_core/lv_obj.c ****         case LV_ALIGN_IN_BOTTOM_RIGHT:
1048:..\..\..\lvgl\version_6.1.2\lvgl\src\lv_core/lv_obj.c ****             new_x = lv_obj_get_width(base) - obj_w_half;
 3075              		.loc 2 1048 0
 3076 018e B868     		ldr	r0, [r7, #8]
 3077 0190 FFF7FEFF 		bl	lv_obj_get_width
 3078 0194 0346     		mov	r3, r0
 3079 0196 9AB2     		uxth	r2, r3
 3080 0198 7B8C     		ldrh	r3, [r7, #34]
 3081 019a D31A     		subs	r3, r2, r3
 3082 019c 9BB2     		uxth	r3, r3
 3083 019e FB84     		strh	r3, [r7, #38]	@ movhi
1049:..\..\..\lvgl\version_6.1.2\lvgl\src\lv_core/lv_obj.c ****             new_y = lv_obj_get_height(base) - obj_h_half;
 3084              		.loc 2 1049 0
 3085 01a0 B868     		ldr	r0, [r7, #8]
 3086 01a2 FFF7FEFF 		bl	lv_obj_get_height
 3087 01a6 0346     		mov	r3, r0
 3088 01a8 9AB2     		uxth	r2, r3
 3089 01aa 3B8C     		ldrh	r3, [r7, #32]
 3090 01ac D31A     		subs	r3, r2, r3
 3091 01ae 9BB2     		uxth	r3, r3
 3092 01b0 BB84     		strh	r3, [r7, #36]	@ movhi
1050:..\..\..\lvgl\version_6.1.2\lvgl\src\lv_core/lv_obj.c ****             break;
 3093              		.loc 2 1050 0
 3094 01b2 EAE0     		b	.L131
 3095              	.L140:
1051:..\..\..\lvgl\version_6.1.2\lvgl\src\lv_core/lv_obj.c **** 
1052:..\..\..\lvgl\version_6.1.2\lvgl\src\lv_core/lv_obj.c ****         case LV_ALIGN_IN_LEFT_MID:
1053:..\..\..\lvgl\version_6.1.2\lvgl\src\lv_core/lv_obj.c ****             new_x = -obj_w_half;
 3096              		.loc 2 1053 0
 3097 01b4 7B8C     		ldrh	r3, [r7, #34]
 3098 01b6 5B42     		negs	r3, r3
 3099 01b8 9BB2     		uxth	r3, r3
 3100 01ba FB84     		strh	r3, [r7, #38]	@ movhi
1054:..\..\..\lvgl\version_6.1.2\lvgl\src\lv_core/lv_obj.c ****             new_y = lv_obj_get_height(base) / 2 - obj_h_half;
 3101              		.loc 2 1054 0
 3102 01bc B868     		ldr	r0, [r7, #8]
 3103 01be FFF7FEFF 		bl	lv_obj_get_height
 3104 01c2 0346     		mov	r3, r0
ARM GAS  C:\Users\tmj32\AppData\Local\Temp\ccxLNxq9.s 			page 76


 3105 01c4 DA0F     		lsrs	r2, r3, #31
 3106 01c6 1344     		add	r3, r3, r2
 3107 01c8 5B10     		asrs	r3, r3, #1
 3108 01ca 1BB2     		sxth	r3, r3
 3109 01cc 9AB2     		uxth	r2, r3
 3110 01ce 3B8C     		ldrh	r3, [r7, #32]
 3111 01d0 D31A     		subs	r3, r2, r3
 3112 01d2 9BB2     		uxth	r3, r3
 3113 01d4 BB84     		strh	r3, [r7, #36]	@ movhi
1055:..\..\..\lvgl\version_6.1.2\lvgl\src\lv_core/lv_obj.c ****             break;
 3114              		.loc 2 1055 0
 3115 01d6 D8E0     		b	.L131
 3116              	.L141:
1056:..\..\..\lvgl\version_6.1.2\lvgl\src\lv_core/lv_obj.c **** 
1057:..\..\..\lvgl\version_6.1.2\lvgl\src\lv_core/lv_obj.c ****         case LV_ALIGN_IN_RIGHT_MID:
1058:..\..\..\lvgl\version_6.1.2\lvgl\src\lv_core/lv_obj.c ****             new_x = lv_obj_get_width(base) - obj_w_half;
 3117              		.loc 2 1058 0
 3118 01d8 B868     		ldr	r0, [r7, #8]
 3119 01da FFF7FEFF 		bl	lv_obj_get_width
 3120 01de 0346     		mov	r3, r0
 3121 01e0 9AB2     		uxth	r2, r3
 3122 01e2 7B8C     		ldrh	r3, [r7, #34]
 3123 01e4 D31A     		subs	r3, r2, r3
 3124 01e6 9BB2     		uxth	r3, r3
 3125 01e8 FB84     		strh	r3, [r7, #38]	@ movhi
1059:..\..\..\lvgl\version_6.1.2\lvgl\src\lv_core/lv_obj.c ****             new_y = lv_obj_get_height(base) / 2 - obj_h_half;
 3126              		.loc 2 1059 0
 3127 01ea B868     		ldr	r0, [r7, #8]
 3128 01ec FFF7FEFF 		bl	lv_obj_get_height
 3129 01f0 0346     		mov	r3, r0
 3130 01f2 DA0F     		lsrs	r2, r3, #31
 3131 01f4 1344     		add	r3, r3, r2
 3132 01f6 5B10     		asrs	r3, r3, #1
 3133 01f8 1BB2     		sxth	r3, r3
 3134 01fa 9AB2     		uxth	r2, r3
 3135 01fc 3B8C     		ldrh	r3, [r7, #32]
 3136 01fe D31A     		subs	r3, r2, r3
 3137 0200 9BB2     		uxth	r3, r3
 3138 0202 BB84     		strh	r3, [r7, #36]	@ movhi
1060:..\..\..\lvgl\version_6.1.2\lvgl\src\lv_core/lv_obj.c ****             break;
 3139              		.loc 2 1060 0
 3140 0204 C1E0     		b	.L131
 3141              	.L142:
1061:..\..\..\lvgl\version_6.1.2\lvgl\src\lv_core/lv_obj.c **** 
1062:..\..\..\lvgl\version_6.1.2\lvgl\src\lv_core/lv_obj.c ****         case LV_ALIGN_OUT_TOP_LEFT:
1063:..\..\..\lvgl\version_6.1.2\lvgl\src\lv_core/lv_obj.c ****             new_x = -obj_w_half;
 3142              		.loc 2 1063 0
 3143 0206 7B8C     		ldrh	r3, [r7, #34]
 3144 0208 5B42     		negs	r3, r3
 3145 020a 9BB2     		uxth	r3, r3
 3146 020c FB84     		strh	r3, [r7, #38]	@ movhi
1064:..\..\..\lvgl\version_6.1.2\lvgl\src\lv_core/lv_obj.c ****             new_y = -obj_h_half;
 3147              		.loc 2 1064 0
 3148 020e 3B8C     		ldrh	r3, [r7, #32]
 3149 0210 5B42     		negs	r3, r3
 3150 0212 9BB2     		uxth	r3, r3
 3151 0214 BB84     		strh	r3, [r7, #36]	@ movhi
ARM GAS  C:\Users\tmj32\AppData\Local\Temp\ccxLNxq9.s 			page 77


1065:..\..\..\lvgl\version_6.1.2\lvgl\src\lv_core/lv_obj.c ****             break;
 3152              		.loc 2 1065 0
 3153 0216 B8E0     		b	.L131
 3154              	.L143:
1066:..\..\..\lvgl\version_6.1.2\lvgl\src\lv_core/lv_obj.c **** 
1067:..\..\..\lvgl\version_6.1.2\lvgl\src\lv_core/lv_obj.c ****         case LV_ALIGN_OUT_TOP_MID:
1068:..\..\..\lvgl\version_6.1.2\lvgl\src\lv_core/lv_obj.c ****             new_x = lv_obj_get_width(base) / 2 - obj_w_half;
 3155              		.loc 2 1068 0
 3156 0218 B868     		ldr	r0, [r7, #8]
 3157 021a FFF7FEFF 		bl	lv_obj_get_width
 3158 021e 0346     		mov	r3, r0
 3159 0220 DA0F     		lsrs	r2, r3, #31
 3160 0222 1344     		add	r3, r3, r2
 3161 0224 5B10     		asrs	r3, r3, #1
 3162 0226 1BB2     		sxth	r3, r3
 3163 0228 9AB2     		uxth	r2, r3
 3164 022a 7B8C     		ldrh	r3, [r7, #34]
 3165 022c D31A     		subs	r3, r2, r3
 3166 022e 9BB2     		uxth	r3, r3
 3167 0230 FB84     		strh	r3, [r7, #38]	@ movhi
1069:..\..\..\lvgl\version_6.1.2\lvgl\src\lv_core/lv_obj.c ****             new_y = -obj_h_half;
 3168              		.loc 2 1069 0
 3169 0232 3B8C     		ldrh	r3, [r7, #32]
 3170 0234 5B42     		negs	r3, r3
 3171 0236 9BB2     		uxth	r3, r3
 3172 0238 BB84     		strh	r3, [r7, #36]	@ movhi
1070:..\..\..\lvgl\version_6.1.2\lvgl\src\lv_core/lv_obj.c ****             break;
 3173              		.loc 2 1070 0
 3174 023a A6E0     		b	.L131
 3175              	.L144:
1071:..\..\..\lvgl\version_6.1.2\lvgl\src\lv_core/lv_obj.c **** 
1072:..\..\..\lvgl\version_6.1.2\lvgl\src\lv_core/lv_obj.c ****         case LV_ALIGN_OUT_TOP_RIGHT:
1073:..\..\..\lvgl\version_6.1.2\lvgl\src\lv_core/lv_obj.c ****             new_x = lv_obj_get_width(base) - obj_w_half;
 3176              		.loc 2 1073 0
 3177 023c B868     		ldr	r0, [r7, #8]
 3178 023e FFF7FEFF 		bl	lv_obj_get_width
 3179 0242 0346     		mov	r3, r0
 3180 0244 9AB2     		uxth	r2, r3
 3181 0246 7B8C     		ldrh	r3, [r7, #34]
 3182 0248 D31A     		subs	r3, r2, r3
 3183 024a 9BB2     		uxth	r3, r3
 3184 024c FB84     		strh	r3, [r7, #38]	@ movhi
1074:..\..\..\lvgl\version_6.1.2\lvgl\src\lv_core/lv_obj.c ****             new_y = -obj_h_half;
 3185              		.loc 2 1074 0
 3186 024e 3B8C     		ldrh	r3, [r7, #32]
 3187 0250 5B42     		negs	r3, r3
 3188 0252 9BB2     		uxth	r3, r3
 3189 0254 BB84     		strh	r3, [r7, #36]	@ movhi
1075:..\..\..\lvgl\version_6.1.2\lvgl\src\lv_core/lv_obj.c ****             break;
 3190              		.loc 2 1075 0
 3191 0256 98E0     		b	.L131
 3192              	.L145:
1076:..\..\..\lvgl\version_6.1.2\lvgl\src\lv_core/lv_obj.c **** 
1077:..\..\..\lvgl\version_6.1.2\lvgl\src\lv_core/lv_obj.c ****         case LV_ALIGN_OUT_BOTTOM_LEFT:
1078:..\..\..\lvgl\version_6.1.2\lvgl\src\lv_core/lv_obj.c ****             new_x = -obj_w_half;
 3193              		.loc 2 1078 0
 3194 0258 7B8C     		ldrh	r3, [r7, #34]
ARM GAS  C:\Users\tmj32\AppData\Local\Temp\ccxLNxq9.s 			page 78


 3195 025a 5B42     		negs	r3, r3
 3196 025c 9BB2     		uxth	r3, r3
 3197 025e FB84     		strh	r3, [r7, #38]	@ movhi
1079:..\..\..\lvgl\version_6.1.2\lvgl\src\lv_core/lv_obj.c ****             new_y = lv_obj_get_height(base) - obj_h_half;
 3198              		.loc 2 1079 0
 3199 0260 B868     		ldr	r0, [r7, #8]
 3200 0262 FFF7FEFF 		bl	lv_obj_get_height
 3201 0266 0346     		mov	r3, r0
 3202 0268 9AB2     		uxth	r2, r3
 3203 026a 3B8C     		ldrh	r3, [r7, #32]
 3204 026c D31A     		subs	r3, r2, r3
 3205 026e 9BB2     		uxth	r3, r3
 3206 0270 BB84     		strh	r3, [r7, #36]	@ movhi
1080:..\..\..\lvgl\version_6.1.2\lvgl\src\lv_core/lv_obj.c ****             break;
 3207              		.loc 2 1080 0
 3208 0272 8AE0     		b	.L131
 3209              	.L146:
1081:..\..\..\lvgl\version_6.1.2\lvgl\src\lv_core/lv_obj.c **** 
1082:..\..\..\lvgl\version_6.1.2\lvgl\src\lv_core/lv_obj.c ****         case LV_ALIGN_OUT_BOTTOM_MID:
1083:..\..\..\lvgl\version_6.1.2\lvgl\src\lv_core/lv_obj.c ****             new_x = lv_obj_get_width(base) / 2 - obj_w_half;
 3210              		.loc 2 1083 0
 3211 0274 B868     		ldr	r0, [r7, #8]
 3212 0276 FFF7FEFF 		bl	lv_obj_get_width
 3213 027a 0346     		mov	r3, r0
 3214 027c DA0F     		lsrs	r2, r3, #31
 3215 027e 1344     		add	r3, r3, r2
 3216 0280 5B10     		asrs	r3, r3, #1
 3217 0282 1BB2     		sxth	r3, r3
 3218 0284 9AB2     		uxth	r2, r3
 3219 0286 7B8C     		ldrh	r3, [r7, #34]
 3220 0288 D31A     		subs	r3, r2, r3
 3221 028a 9BB2     		uxth	r3, r3
 3222 028c FB84     		strh	r3, [r7, #38]	@ movhi
1084:..\..\..\lvgl\version_6.1.2\lvgl\src\lv_core/lv_obj.c ****             new_y = lv_obj_get_height(base) - obj_h_half;
 3223              		.loc 2 1084 0
 3224 028e B868     		ldr	r0, [r7, #8]
 3225 0290 FFF7FEFF 		bl	lv_obj_get_height
 3226 0294 0346     		mov	r3, r0
 3227 0296 9AB2     		uxth	r2, r3
 3228 0298 3B8C     		ldrh	r3, [r7, #32]
 3229 029a D31A     		subs	r3, r2, r3
 3230 029c 9BB2     		uxth	r3, r3
 3231 029e BB84     		strh	r3, [r7, #36]	@ movhi
1085:..\..\..\lvgl\version_6.1.2\lvgl\src\lv_core/lv_obj.c ****             break;
 3232              		.loc 2 1085 0
 3233 02a0 73E0     		b	.L131
 3234              	.L147:
1086:..\..\..\lvgl\version_6.1.2\lvgl\src\lv_core/lv_obj.c **** 
1087:..\..\..\lvgl\version_6.1.2\lvgl\src\lv_core/lv_obj.c ****         case LV_ALIGN_OUT_BOTTOM_RIGHT:
1088:..\..\..\lvgl\version_6.1.2\lvgl\src\lv_core/lv_obj.c ****             new_x = lv_obj_get_width(base) - obj_w_half;
 3235              		.loc 2 1088 0
 3236 02a2 B868     		ldr	r0, [r7, #8]
 3237 02a4 FFF7FEFF 		bl	lv_obj_get_width
 3238 02a8 0346     		mov	r3, r0
 3239 02aa 9AB2     		uxth	r2, r3
 3240 02ac 7B8C     		ldrh	r3, [r7, #34]
 3241 02ae D31A     		subs	r3, r2, r3
ARM GAS  C:\Users\tmj32\AppData\Local\Temp\ccxLNxq9.s 			page 79


 3242 02b0 9BB2     		uxth	r3, r3
 3243 02b2 FB84     		strh	r3, [r7, #38]	@ movhi
1089:..\..\..\lvgl\version_6.1.2\lvgl\src\lv_core/lv_obj.c ****             new_y = lv_obj_get_height(base) - obj_h_half;
 3244              		.loc 2 1089 0
 3245 02b4 B868     		ldr	r0, [r7, #8]
 3246 02b6 FFF7FEFF 		bl	lv_obj_get_height
 3247 02ba 0346     		mov	r3, r0
 3248 02bc 9AB2     		uxth	r2, r3
 3249 02be 3B8C     		ldrh	r3, [r7, #32]
 3250 02c0 D31A     		subs	r3, r2, r3
 3251 02c2 9BB2     		uxth	r3, r3
 3252 02c4 BB84     		strh	r3, [r7, #36]	@ movhi
1090:..\..\..\lvgl\version_6.1.2\lvgl\src\lv_core/lv_obj.c ****             break;
 3253              		.loc 2 1090 0
 3254 02c6 60E0     		b	.L131
 3255              	.L148:
1091:..\..\..\lvgl\version_6.1.2\lvgl\src\lv_core/lv_obj.c **** 
1092:..\..\..\lvgl\version_6.1.2\lvgl\src\lv_core/lv_obj.c ****         case LV_ALIGN_OUT_LEFT_TOP:
1093:..\..\..\lvgl\version_6.1.2\lvgl\src\lv_core/lv_obj.c ****             new_x = -obj_w_half;
 3256              		.loc 2 1093 0
 3257 02c8 7B8C     		ldrh	r3, [r7, #34]
 3258 02ca 5B42     		negs	r3, r3
 3259 02cc 9BB2     		uxth	r3, r3
 3260 02ce FB84     		strh	r3, [r7, #38]	@ movhi
1094:..\..\..\lvgl\version_6.1.2\lvgl\src\lv_core/lv_obj.c ****             new_y = -obj_h_half;
 3261              		.loc 2 1094 0
 3262 02d0 3B8C     		ldrh	r3, [r7, #32]
 3263 02d2 5B42     		negs	r3, r3
 3264 02d4 9BB2     		uxth	r3, r3
 3265 02d6 BB84     		strh	r3, [r7, #36]	@ movhi
1095:..\..\..\lvgl\version_6.1.2\lvgl\src\lv_core/lv_obj.c ****             break;
 3266              		.loc 2 1095 0
 3267 02d8 57E0     		b	.L131
 3268              	.L149:
1096:..\..\..\lvgl\version_6.1.2\lvgl\src\lv_core/lv_obj.c **** 
1097:..\..\..\lvgl\version_6.1.2\lvgl\src\lv_core/lv_obj.c ****         case LV_ALIGN_OUT_LEFT_MID:
1098:..\..\..\lvgl\version_6.1.2\lvgl\src\lv_core/lv_obj.c ****             new_x = -obj_w_half;
 3269              		.loc 2 1098 0
 3270 02da 7B8C     		ldrh	r3, [r7, #34]
 3271 02dc 5B42     		negs	r3, r3
 3272 02de 9BB2     		uxth	r3, r3
 3273 02e0 FB84     		strh	r3, [r7, #38]	@ movhi
1099:..\..\..\lvgl\version_6.1.2\lvgl\src\lv_core/lv_obj.c ****             new_y = lv_obj_get_height(base) / 2 - obj_h_half;
 3274              		.loc 2 1099 0
 3275 02e2 B868     		ldr	r0, [r7, #8]
 3276 02e4 FFF7FEFF 		bl	lv_obj_get_height
 3277 02e8 0346     		mov	r3, r0
 3278 02ea DA0F     		lsrs	r2, r3, #31
 3279 02ec 1344     		add	r3, r3, r2
 3280 02ee 5B10     		asrs	r3, r3, #1
 3281 02f0 1BB2     		sxth	r3, r3
 3282 02f2 9AB2     		uxth	r2, r3
 3283 02f4 3B8C     		ldrh	r3, [r7, #32]
 3284 02f6 D31A     		subs	r3, r2, r3
 3285 02f8 9BB2     		uxth	r3, r3
 3286 02fa BB84     		strh	r3, [r7, #36]	@ movhi
1100:..\..\..\lvgl\version_6.1.2\lvgl\src\lv_core/lv_obj.c ****             break;
ARM GAS  C:\Users\tmj32\AppData\Local\Temp\ccxLNxq9.s 			page 80


 3287              		.loc 2 1100 0
 3288 02fc 45E0     		b	.L131
 3289              	.L150:
1101:..\..\..\lvgl\version_6.1.2\lvgl\src\lv_core/lv_obj.c **** 
1102:..\..\..\lvgl\version_6.1.2\lvgl\src\lv_core/lv_obj.c ****         case LV_ALIGN_OUT_LEFT_BOTTOM:
1103:..\..\..\lvgl\version_6.1.2\lvgl\src\lv_core/lv_obj.c ****             new_x = -obj_w_half;
 3290              		.loc 2 1103 0
 3291 02fe 7B8C     		ldrh	r3, [r7, #34]
 3292 0300 5B42     		negs	r3, r3
 3293 0302 9BB2     		uxth	r3, r3
 3294 0304 FB84     		strh	r3, [r7, #38]	@ movhi
1104:..\..\..\lvgl\version_6.1.2\lvgl\src\lv_core/lv_obj.c ****             new_y = lv_obj_get_height(base) - obj_h_half;
 3295              		.loc 2 1104 0
 3296 0306 B868     		ldr	r0, [r7, #8]
 3297 0308 FFF7FEFF 		bl	lv_obj_get_height
 3298 030c 0346     		mov	r3, r0
 3299 030e 9AB2     		uxth	r2, r3
 3300 0310 3B8C     		ldrh	r3, [r7, #32]
 3301 0312 D31A     		subs	r3, r2, r3
 3302 0314 9BB2     		uxth	r3, r3
 3303 0316 BB84     		strh	r3, [r7, #36]	@ movhi
1105:..\..\..\lvgl\version_6.1.2\lvgl\src\lv_core/lv_obj.c ****             break;
 3304              		.loc 2 1105 0
 3305 0318 37E0     		b	.L131
 3306              	.L151:
1106:..\..\..\lvgl\version_6.1.2\lvgl\src\lv_core/lv_obj.c **** 
1107:..\..\..\lvgl\version_6.1.2\lvgl\src\lv_core/lv_obj.c ****         case LV_ALIGN_OUT_RIGHT_TOP:
1108:..\..\..\lvgl\version_6.1.2\lvgl\src\lv_core/lv_obj.c ****             new_x = lv_obj_get_width(base) - obj_w_half;
 3307              		.loc 2 1108 0
 3308 031a B868     		ldr	r0, [r7, #8]
 3309 031c FFF7FEFF 		bl	lv_obj_get_width
 3310 0320 0346     		mov	r3, r0
 3311 0322 9AB2     		uxth	r2, r3
 3312 0324 7B8C     		ldrh	r3, [r7, #34]
 3313 0326 D31A     		subs	r3, r2, r3
 3314 0328 9BB2     		uxth	r3, r3
 3315 032a FB84     		strh	r3, [r7, #38]	@ movhi
1109:..\..\..\lvgl\version_6.1.2\lvgl\src\lv_core/lv_obj.c ****             new_y = -obj_h_half;
 3316              		.loc 2 1109 0
 3317 032c 3B8C     		ldrh	r3, [r7, #32]
 3318 032e 5B42     		negs	r3, r3
 3319 0330 9BB2     		uxth	r3, r3
 3320 0332 BB84     		strh	r3, [r7, #36]	@ movhi
1110:..\..\..\lvgl\version_6.1.2\lvgl\src\lv_core/lv_obj.c ****             break;
 3321              		.loc 2 1110 0
 3322 0334 29E0     		b	.L131
 3323              	.L152:
1111:..\..\..\lvgl\version_6.1.2\lvgl\src\lv_core/lv_obj.c **** 
1112:..\..\..\lvgl\version_6.1.2\lvgl\src\lv_core/lv_obj.c ****         case LV_ALIGN_OUT_RIGHT_MID:
1113:..\..\..\lvgl\version_6.1.2\lvgl\src\lv_core/lv_obj.c ****             new_x = lv_obj_get_width(base) - obj_w_half;
 3324              		.loc 2 1113 0
 3325 0336 B868     		ldr	r0, [r7, #8]
 3326 0338 FFF7FEFF 		bl	lv_obj_get_width
 3327 033c 0346     		mov	r3, r0
 3328 033e 9AB2     		uxth	r2, r3
 3329 0340 7B8C     		ldrh	r3, [r7, #34]
 3330 0342 D31A     		subs	r3, r2, r3
ARM GAS  C:\Users\tmj32\AppData\Local\Temp\ccxLNxq9.s 			page 81


 3331 0344 9BB2     		uxth	r3, r3
 3332 0346 FB84     		strh	r3, [r7, #38]	@ movhi
1114:..\..\..\lvgl\version_6.1.2\lvgl\src\lv_core/lv_obj.c ****             new_y = lv_obj_get_height(base) / 2 - obj_h_half;
 3333              		.loc 2 1114 0
 3334 0348 B868     		ldr	r0, [r7, #8]
 3335 034a FFF7FEFF 		bl	lv_obj_get_height
 3336 034e 0346     		mov	r3, r0
 3337 0350 DA0F     		lsrs	r2, r3, #31
 3338 0352 1344     		add	r3, r3, r2
 3339 0354 5B10     		asrs	r3, r3, #1
 3340 0356 1BB2     		sxth	r3, r3
 3341 0358 9AB2     		uxth	r2, r3
 3342 035a 3B8C     		ldrh	r3, [r7, #32]
 3343 035c D31A     		subs	r3, r2, r3
 3344 035e 9BB2     		uxth	r3, r3
 3345 0360 BB84     		strh	r3, [r7, #36]	@ movhi
1115:..\..\..\lvgl\version_6.1.2\lvgl\src\lv_core/lv_obj.c ****             break;
 3346              		.loc 2 1115 0
 3347 0362 12E0     		b	.L131
 3348              	.L153:
1116:..\..\..\lvgl\version_6.1.2\lvgl\src\lv_core/lv_obj.c **** 
1117:..\..\..\lvgl\version_6.1.2\lvgl\src\lv_core/lv_obj.c ****         case LV_ALIGN_OUT_RIGHT_BOTTOM:
1118:..\..\..\lvgl\version_6.1.2\lvgl\src\lv_core/lv_obj.c ****             new_x = lv_obj_get_width(base) - obj_w_half;
 3349              		.loc 2 1118 0
 3350 0364 B868     		ldr	r0, [r7, #8]
 3351 0366 FFF7FEFF 		bl	lv_obj_get_width
 3352 036a 0346     		mov	r3, r0
 3353 036c 9AB2     		uxth	r2, r3
 3354 036e 7B8C     		ldrh	r3, [r7, #34]
 3355 0370 D31A     		subs	r3, r2, r3
 3356 0372 9BB2     		uxth	r3, r3
 3357 0374 FB84     		strh	r3, [r7, #38]	@ movhi
1119:..\..\..\lvgl\version_6.1.2\lvgl\src\lv_core/lv_obj.c ****             new_y = lv_obj_get_height(base) - obj_h_half;
 3358              		.loc 2 1119 0
 3359 0376 B868     		ldr	r0, [r7, #8]
 3360 0378 FFF7FEFF 		bl	lv_obj_get_height
 3361 037c 0346     		mov	r3, r0
 3362 037e 9AB2     		uxth	r2, r3
 3363 0380 3B8C     		ldrh	r3, [r7, #32]
 3364 0382 D31A     		subs	r3, r2, r3
 3365 0384 9BB2     		uxth	r3, r3
 3366 0386 BB84     		strh	r3, [r7, #36]	@ movhi
1120:..\..\..\lvgl\version_6.1.2\lvgl\src\lv_core/lv_obj.c ****             break;
 3367              		.loc 2 1120 0
 3368 0388 00BF     		nop
 3369              	.L131:
1121:..\..\..\lvgl\version_6.1.2\lvgl\src\lv_core/lv_obj.c ****     }
1122:..\..\..\lvgl\version_6.1.2\lvgl\src\lv_core/lv_obj.c **** 
1123:..\..\..\lvgl\version_6.1.2\lvgl\src\lv_core/lv_obj.c ****     /*Bring together the coordination system of base and obj*/
1124:..\..\..\lvgl\version_6.1.2\lvgl\src\lv_core/lv_obj.c ****     lv_obj_t * par        = lv_obj_get_parent(obj);
 3370              		.loc 2 1124 0
 3371 038a F868     		ldr	r0, [r7, #12]
 3372 038c FFF7FEFF 		bl	lv_obj_get_parent
 3373 0390 F861     		str	r0, [r7, #28]
1125:..\..\..\lvgl\version_6.1.2\lvgl\src\lv_core/lv_obj.c ****     lv_coord_t base_abs_x = base->coords.x1;
 3374              		.loc 2 1125 0
 3375 0392 BB68     		ldr	r3, [r7, #8]
ARM GAS  C:\Users\tmj32\AppData\Local\Temp\ccxLNxq9.s 			page 82


 3376 0394 1B8A     		ldrh	r3, [r3, #16]	@ movhi
 3377 0396 7B83     		strh	r3, [r7, #26]	@ movhi
1126:..\..\..\lvgl\version_6.1.2\lvgl\src\lv_core/lv_obj.c ****     lv_coord_t base_abs_y = base->coords.y1;
 3378              		.loc 2 1126 0
 3379 0398 BB68     		ldr	r3, [r7, #8]
 3380 039a 5B8A     		ldrh	r3, [r3, #18]	@ movhi
 3381 039c 3B83     		strh	r3, [r7, #24]	@ movhi
1127:..\..\..\lvgl\version_6.1.2\lvgl\src\lv_core/lv_obj.c ****     lv_coord_t par_abs_x  = par->coords.x1;
 3382              		.loc 2 1127 0
 3383 039e FB69     		ldr	r3, [r7, #28]
 3384 03a0 1B8A     		ldrh	r3, [r3, #16]	@ movhi
 3385 03a2 FB82     		strh	r3, [r7, #22]	@ movhi
1128:..\..\..\lvgl\version_6.1.2\lvgl\src\lv_core/lv_obj.c ****     lv_coord_t par_abs_y  = par->coords.y1;
 3386              		.loc 2 1128 0
 3387 03a4 FB69     		ldr	r3, [r7, #28]
 3388 03a6 5B8A     		ldrh	r3, [r3, #18]	@ movhi
 3389 03a8 BB82     		strh	r3, [r7, #20]	@ movhi
1129:..\..\..\lvgl\version_6.1.2\lvgl\src\lv_core/lv_obj.c ****     new_x += x_mod + base_abs_x;
 3390              		.loc 2 1129 0
 3391 03aa BA88     		ldrh	r2, [r7, #4]
 3392 03ac 7B8B     		ldrh	r3, [r7, #26]
 3393 03ae 1344     		add	r3, r3, r2
 3394 03b0 9AB2     		uxth	r2, r3
 3395 03b2 FB8C     		ldrh	r3, [r7, #38]
 3396 03b4 1344     		add	r3, r3, r2
 3397 03b6 9BB2     		uxth	r3, r3
 3398 03b8 FB84     		strh	r3, [r7, #38]	@ movhi
1130:..\..\..\lvgl\version_6.1.2\lvgl\src\lv_core/lv_obj.c ****     new_y += y_mod + base_abs_y;
 3399              		.loc 2 1130 0
 3400 03ba 3A8E     		ldrh	r2, [r7, #48]
 3401 03bc 3B8B     		ldrh	r3, [r7, #24]
 3402 03be 1344     		add	r3, r3, r2
 3403 03c0 9AB2     		uxth	r2, r3
 3404 03c2 BB8C     		ldrh	r3, [r7, #36]
 3405 03c4 1344     		add	r3, r3, r2
 3406 03c6 9BB2     		uxth	r3, r3
 3407 03c8 BB84     		strh	r3, [r7, #36]	@ movhi
1131:..\..\..\lvgl\version_6.1.2\lvgl\src\lv_core/lv_obj.c ****     new_x -= par_abs_x;
 3408              		.loc 2 1131 0
 3409 03ca FA8C     		ldrh	r2, [r7, #38]
 3410 03cc FB8A     		ldrh	r3, [r7, #22]
 3411 03ce D31A     		subs	r3, r2, r3
 3412 03d0 9BB2     		uxth	r3, r3
 3413 03d2 FB84     		strh	r3, [r7, #38]	@ movhi
1132:..\..\..\lvgl\version_6.1.2\lvgl\src\lv_core/lv_obj.c ****     new_y -= par_abs_y;
 3414              		.loc 2 1132 0
 3415 03d4 BA8C     		ldrh	r2, [r7, #36]
 3416 03d6 BB8A     		ldrh	r3, [r7, #20]
 3417 03d8 D31A     		subs	r3, r2, r3
 3418 03da 9BB2     		uxth	r3, r3
 3419 03dc BB84     		strh	r3, [r7, #36]	@ movhi
1133:..\..\..\lvgl\version_6.1.2\lvgl\src\lv_core/lv_obj.c **** 
1134:..\..\..\lvgl\version_6.1.2\lvgl\src\lv_core/lv_obj.c ****     lv_obj_set_pos(obj, new_x, new_y);
 3420              		.loc 2 1134 0
 3421 03de B7F92420 		ldrsh	r2, [r7, #36]
 3422 03e2 B7F92630 		ldrsh	r3, [r7, #38]
 3423 03e6 1946     		mov	r1, r3
ARM GAS  C:\Users\tmj32\AppData\Local\Temp\ccxLNxq9.s 			page 83


 3424 03e8 F868     		ldr	r0, [r7, #12]
 3425 03ea FFF7FEFF 		bl	lv_obj_set_pos
1135:..\..\..\lvgl\version_6.1.2\lvgl\src\lv_core/lv_obj.c **** 
1136:..\..\..\lvgl\version_6.1.2\lvgl\src\lv_core/lv_obj.c **** #if LV_USE_OBJ_REALIGN
1137:..\..\..\lvgl\version_6.1.2\lvgl\src\lv_core/lv_obj.c ****     /*Save the last align parameters to use them in `lv_obj_realign`*/
1138:..\..\..\lvgl\version_6.1.2\lvgl\src\lv_core/lv_obj.c ****     obj->realign.align       = align;
 3426              		.loc 2 1138 0
 3427 03ee FB68     		ldr	r3, [r7, #12]
 3428 03f0 FA79     		ldrb	r2, [r7, #7]
 3429 03f2 83F83C20 		strb	r2, [r3, #60]
1139:..\..\..\lvgl\version_6.1.2\lvgl\src\lv_core/lv_obj.c ****     obj->realign.xofs        = x_mod;
 3430              		.loc 2 1139 0
 3431 03f6 FB68     		ldr	r3, [r7, #12]
 3432 03f8 BA88     		ldrh	r2, [r7, #4]	@ movhi
 3433 03fa 1A87     		strh	r2, [r3, #56]	@ movhi
1140:..\..\..\lvgl\version_6.1.2\lvgl\src\lv_core/lv_obj.c ****     obj->realign.yofs        = y_mod;
 3434              		.loc 2 1140 0
 3435 03fc FB68     		ldr	r3, [r7, #12]
 3436 03fe 3A8E     		ldrh	r2, [r7, #48]	@ movhi
 3437 0400 5A87     		strh	r2, [r3, #58]	@ movhi
1141:..\..\..\lvgl\version_6.1.2\lvgl\src\lv_core/lv_obj.c ****     obj->realign.base        = base;
 3438              		.loc 2 1141 0
 3439 0402 FB68     		ldr	r3, [r7, #12]
 3440 0404 BA68     		ldr	r2, [r7, #8]
 3441 0406 5A63     		str	r2, [r3, #52]
1142:..\..\..\lvgl\version_6.1.2\lvgl\src\lv_core/lv_obj.c ****     obj->realign.origo_align = 1;
 3442              		.loc 2 1142 0
 3443 0408 FA68     		ldr	r2, [r7, #12]
 3444 040a 92F83D30 		ldrb	r3, [r2, #61]
 3445 040e 43F00203 		orr	r3, r3, #2
 3446 0412 82F83D30 		strb	r3, [r2, #61]
1143:..\..\..\lvgl\version_6.1.2\lvgl\src\lv_core/lv_obj.c **** #endif
1144:..\..\..\lvgl\version_6.1.2\lvgl\src\lv_core/lv_obj.c **** }
 3447              		.loc 2 1144 0
 3448 0416 00BF     		nop
 3449 0418 2837     		adds	r7, r7, #40
 3450              		.cfi_def_cfa_offset 8
 3451 041a BD46     		mov	sp, r7
 3452              		.cfi_def_cfa_register 13
 3453              		@ sp needed
 3454 041c 80BD     		pop	{r7, pc}
 3455              		.cfi_endproc
 3456              	.LFE53:
 3457              		.size	lv_obj_align_origo, .-lv_obj_align_origo
 3458 041e 00BF     		.section	.text.lv_obj_realign,"ax",%progbits
 3459              		.align	2
 3460              		.global	lv_obj_realign
 3461              		.thumb
 3462              		.thumb_func
 3463              		.type	lv_obj_realign, %function
 3464              	lv_obj_realign:
 3465              	.LFB54:
1145:..\..\..\lvgl\version_6.1.2\lvgl\src\lv_core/lv_obj.c **** 
1146:..\..\..\lvgl\version_6.1.2\lvgl\src\lv_core/lv_obj.c **** /**
1147:..\..\..\lvgl\version_6.1.2\lvgl\src\lv_core/lv_obj.c ****  * Realign the object based on the last `lv_obj_align` parameters.
1148:..\..\..\lvgl\version_6.1.2\lvgl\src\lv_core/lv_obj.c ****  * @param obj pointer to an object
1149:..\..\..\lvgl\version_6.1.2\lvgl\src\lv_core/lv_obj.c ****  */
ARM GAS  C:\Users\tmj32\AppData\Local\Temp\ccxLNxq9.s 			page 84


1150:..\..\..\lvgl\version_6.1.2\lvgl\src\lv_core/lv_obj.c **** void lv_obj_realign(lv_obj_t * obj)
1151:..\..\..\lvgl\version_6.1.2\lvgl\src\lv_core/lv_obj.c **** {
 3466              		.loc 2 1151 0
 3467              		.cfi_startproc
 3468              		@ args = 0, pretend = 0, frame = 8
 3469              		@ frame_needed = 1, uses_anonymous_args = 0
 3470 0000 80B5     		push	{r7, lr}
 3471              		.cfi_def_cfa_offset 8
 3472              		.cfi_offset 7, -8
 3473              		.cfi_offset 14, -4
 3474 0002 84B0     		sub	sp, sp, #16
 3475              		.cfi_def_cfa_offset 24
 3476 0004 02AF     		add	r7, sp, #8
 3477              		.cfi_def_cfa 7, 16
 3478 0006 7860     		str	r0, [r7, #4]
1152:..\..\..\lvgl\version_6.1.2\lvgl\src\lv_core/lv_obj.c ****     LV_ASSERT_OBJ(obj, LV_OBJX_NAME);
1153:..\..\..\lvgl\version_6.1.2\lvgl\src\lv_core/lv_obj.c **** 
1154:..\..\..\lvgl\version_6.1.2\lvgl\src\lv_core/lv_obj.c **** #if LV_USE_OBJ_REALIGN
1155:..\..\..\lvgl\version_6.1.2\lvgl\src\lv_core/lv_obj.c ****     if(obj->realign.origo_align)
 3479              		.loc 2 1155 0
 3480 0008 7B68     		ldr	r3, [r7, #4]
 3481 000a 93F83D30 		ldrb	r3, [r3, #61]	@ zero_extendqisi2
 3482 000e 03F00203 		and	r3, r3, #2
 3483 0012 DBB2     		uxtb	r3, r3
 3484 0014 002B     		cmp	r3, #0
 3485 0016 10D0     		beq	.L155
1156:..\..\..\lvgl\version_6.1.2\lvgl\src\lv_core/lv_obj.c ****         lv_obj_align_origo(obj, obj->realign.base, obj->realign.align, obj->realign.xofs, obj->real
 3486              		.loc 2 1156 0
 3487 0018 7B68     		ldr	r3, [r7, #4]
 3488 001a 596B     		ldr	r1, [r3, #52]
 3489 001c 7B68     		ldr	r3, [r7, #4]
 3490 001e 93F83C20 		ldrb	r2, [r3, #60]	@ zero_extendqisi2
 3491 0022 7B68     		ldr	r3, [r7, #4]
 3492 0024 B3F93800 		ldrsh	r0, [r3, #56]
 3493 0028 7B68     		ldr	r3, [r7, #4]
 3494 002a B3F93A30 		ldrsh	r3, [r3, #58]
 3495 002e 0093     		str	r3, [sp]
 3496 0030 0346     		mov	r3, r0
 3497 0032 7868     		ldr	r0, [r7, #4]
 3498 0034 FFF7FEFF 		bl	lv_obj_align_origo
1157:..\..\..\lvgl\version_6.1.2\lvgl\src\lv_core/lv_obj.c ****     else
1158:..\..\..\lvgl\version_6.1.2\lvgl\src\lv_core/lv_obj.c ****         lv_obj_align(obj, obj->realign.base, obj->realign.align, obj->realign.xofs, obj->realign.yo
1159:..\..\..\lvgl\version_6.1.2\lvgl\src\lv_core/lv_obj.c **** #else
1160:..\..\..\lvgl\version_6.1.2\lvgl\src\lv_core/lv_obj.c ****     (void)obj;
1161:..\..\..\lvgl\version_6.1.2\lvgl\src\lv_core/lv_obj.c ****     LV_LOG_WARN("lv_obj_realaign: no effect because LV_USE_OBJ_REALIGN = 0");
1162:..\..\..\lvgl\version_6.1.2\lvgl\src\lv_core/lv_obj.c **** #endif
1163:..\..\..\lvgl\version_6.1.2\lvgl\src\lv_core/lv_obj.c **** }
 3499              		.loc 2 1163 0
 3500 0038 0FE0     		b	.L157
 3501              	.L155:
1158:..\..\..\lvgl\version_6.1.2\lvgl\src\lv_core/lv_obj.c **** #else
 3502              		.loc 2 1158 0
 3503 003a 7B68     		ldr	r3, [r7, #4]
 3504 003c 596B     		ldr	r1, [r3, #52]
 3505 003e 7B68     		ldr	r3, [r7, #4]
 3506 0040 93F83C20 		ldrb	r2, [r3, #60]	@ zero_extendqisi2
 3507 0044 7B68     		ldr	r3, [r7, #4]
ARM GAS  C:\Users\tmj32\AppData\Local\Temp\ccxLNxq9.s 			page 85


 3508 0046 B3F93800 		ldrsh	r0, [r3, #56]
 3509 004a 7B68     		ldr	r3, [r7, #4]
 3510 004c B3F93A30 		ldrsh	r3, [r3, #58]
 3511 0050 0093     		str	r3, [sp]
 3512 0052 0346     		mov	r3, r0
 3513 0054 7868     		ldr	r0, [r7, #4]
 3514 0056 FFF7FEFF 		bl	lv_obj_align
 3515              	.L157:
 3516              		.loc 2 1163 0
 3517 005a 00BF     		nop
 3518 005c 0837     		adds	r7, r7, #8
 3519              		.cfi_def_cfa_offset 8
 3520 005e BD46     		mov	sp, r7
 3521              		.cfi_def_cfa_register 13
 3522              		@ sp needed
 3523 0060 80BD     		pop	{r7, pc}
 3524              		.cfi_endproc
 3525              	.LFE54:
 3526              		.size	lv_obj_realign, .-lv_obj_realign
 3527 0062 00BF     		.section	.text.lv_obj_set_auto_realign,"ax",%progbits
 3528              		.align	2
 3529              		.global	lv_obj_set_auto_realign
 3530              		.thumb
 3531              		.thumb_func
 3532              		.type	lv_obj_set_auto_realign, %function
 3533              	lv_obj_set_auto_realign:
 3534              	.LFB55:
1164:..\..\..\lvgl\version_6.1.2\lvgl\src\lv_core/lv_obj.c **** 
1165:..\..\..\lvgl\version_6.1.2\lvgl\src\lv_core/lv_obj.c **** /**
1166:..\..\..\lvgl\version_6.1.2\lvgl\src\lv_core/lv_obj.c ****  * Enable the automatic realign of the object when its size has changed based on the last
1167:..\..\..\lvgl\version_6.1.2\lvgl\src\lv_core/lv_obj.c ****  * `lv_obj_align` parameters.
1168:..\..\..\lvgl\version_6.1.2\lvgl\src\lv_core/lv_obj.c ****  * @param obj pointer to an object
1169:..\..\..\lvgl\version_6.1.2\lvgl\src\lv_core/lv_obj.c ****  * @param en true: enable auto realign; false: disable auto realign
1170:..\..\..\lvgl\version_6.1.2\lvgl\src\lv_core/lv_obj.c ****  */
1171:..\..\..\lvgl\version_6.1.2\lvgl\src\lv_core/lv_obj.c **** void lv_obj_set_auto_realign(lv_obj_t * obj, bool en)
1172:..\..\..\lvgl\version_6.1.2\lvgl\src\lv_core/lv_obj.c **** {
 3535              		.loc 2 1172 0
 3536              		.cfi_startproc
 3537              		@ args = 0, pretend = 0, frame = 8
 3538              		@ frame_needed = 1, uses_anonymous_args = 0
 3539              		@ link register save eliminated.
 3540 0000 80B4     		push	{r7}
 3541              		.cfi_def_cfa_offset 4
 3542              		.cfi_offset 7, -4
 3543 0002 83B0     		sub	sp, sp, #12
 3544              		.cfi_def_cfa_offset 16
 3545 0004 00AF     		add	r7, sp, #0
 3546              		.cfi_def_cfa_register 7
 3547 0006 7860     		str	r0, [r7, #4]
 3548 0008 0B46     		mov	r3, r1
 3549 000a FB70     		strb	r3, [r7, #3]
1173:..\..\..\lvgl\version_6.1.2\lvgl\src\lv_core/lv_obj.c ****     LV_ASSERT_OBJ(obj, LV_OBJX_NAME);
1174:..\..\..\lvgl\version_6.1.2\lvgl\src\lv_core/lv_obj.c **** 
1175:..\..\..\lvgl\version_6.1.2\lvgl\src\lv_core/lv_obj.c **** #if LV_USE_OBJ_REALIGN
1176:..\..\..\lvgl\version_6.1.2\lvgl\src\lv_core/lv_obj.c ****     obj->realign.auto_realign = en ? 1 : 0;
 3550              		.loc 2 1176 0
 3551 000c FB78     		ldrb	r3, [r7, #3]	@ zero_extendqisi2
ARM GAS  C:\Users\tmj32\AppData\Local\Temp\ccxLNxq9.s 			page 86


 3552 000e 03F00103 		and	r3, r3, #1
 3553 0012 D9B2     		uxtb	r1, r3
 3554 0014 7A68     		ldr	r2, [r7, #4]
 3555 0016 92F83D30 		ldrb	r3, [r2, #61]
 3556 001a 61F30003 		bfi	r3, r1, #0, #1
 3557 001e 82F83D30 		strb	r3, [r2, #61]
1177:..\..\..\lvgl\version_6.1.2\lvgl\src\lv_core/lv_obj.c **** #else
1178:..\..\..\lvgl\version_6.1.2\lvgl\src\lv_core/lv_obj.c ****     (void)obj;
1179:..\..\..\lvgl\version_6.1.2\lvgl\src\lv_core/lv_obj.c ****     (void)en;
1180:..\..\..\lvgl\version_6.1.2\lvgl\src\lv_core/lv_obj.c ****     LV_LOG_WARN("lv_obj_set_auto_realign: no effect because LV_USE_OBJ_REALIGN = 0");
1181:..\..\..\lvgl\version_6.1.2\lvgl\src\lv_core/lv_obj.c **** #endif
1182:..\..\..\lvgl\version_6.1.2\lvgl\src\lv_core/lv_obj.c **** }
 3558              		.loc 2 1182 0
 3559 0022 00BF     		nop
 3560 0024 0C37     		adds	r7, r7, #12
 3561              		.cfi_def_cfa_offset 4
 3562 0026 BD46     		mov	sp, r7
 3563              		.cfi_def_cfa_register 13
 3564              		@ sp needed
 3565 0028 5DF8047B 		ldr	r7, [sp], #4
 3566              		.cfi_restore 7
 3567              		.cfi_def_cfa_offset 0
 3568 002c 7047     		bx	lr
 3569              		.cfi_endproc
 3570              	.LFE55:
 3571              		.size	lv_obj_set_auto_realign, .-lv_obj_set_auto_realign
 3572 002e 00BF     		.section	.text.lv_obj_set_ext_click_area,"ax",%progbits
 3573              		.align	2
 3574              		.global	lv_obj_set_ext_click_area
 3575              		.thumb
 3576              		.thumb_func
 3577              		.type	lv_obj_set_ext_click_area, %function
 3578              	lv_obj_set_ext_click_area:
 3579              	.LFB56:
1183:..\..\..\lvgl\version_6.1.2\lvgl\src\lv_core/lv_obj.c **** 
1184:..\..\..\lvgl\version_6.1.2\lvgl\src\lv_core/lv_obj.c **** 
1185:..\..\..\lvgl\version_6.1.2\lvgl\src\lv_core/lv_obj.c **** /**
1186:..\..\..\lvgl\version_6.1.2\lvgl\src\lv_core/lv_obj.c ****  * Set the size of an extended clickable area
1187:..\..\..\lvgl\version_6.1.2\lvgl\src\lv_core/lv_obj.c ****  * If TINY mode is used, only the largest of the horizontal and vertical padding
1188:..\..\..\lvgl\version_6.1.2\lvgl\src\lv_core/lv_obj.c ****  * values are considered.
1189:..\..\..\lvgl\version_6.1.2\lvgl\src\lv_core/lv_obj.c ****  * @param obj pointer to an object
1190:..\..\..\lvgl\version_6.1.2\lvgl\src\lv_core/lv_obj.c ****  * @param left extended clickable are on the left [px]
1191:..\..\..\lvgl\version_6.1.2\lvgl\src\lv_core/lv_obj.c ****  * @param right extended clickable are on the right [px]
1192:..\..\..\lvgl\version_6.1.2\lvgl\src\lv_core/lv_obj.c ****  * @param top extended clickable are on the top [px]
1193:..\..\..\lvgl\version_6.1.2\lvgl\src\lv_core/lv_obj.c ****  * @param bottom extended clickable are on the bottom [px]
1194:..\..\..\lvgl\version_6.1.2\lvgl\src\lv_core/lv_obj.c ****  */
1195:..\..\..\lvgl\version_6.1.2\lvgl\src\lv_core/lv_obj.c **** void lv_obj_set_ext_click_area(lv_obj_t * obj, lv_coord_t left, lv_coord_t right, lv_coord_t top, l
1196:..\..\..\lvgl\version_6.1.2\lvgl\src\lv_core/lv_obj.c **** {
 3580              		.loc 2 1196 0
 3581              		.cfi_startproc
 3582              		@ args = 4, pretend = 0, frame = 16
 3583              		@ frame_needed = 1, uses_anonymous_args = 0
 3584              		@ link register save eliminated.
 3585 0000 80B4     		push	{r7}
 3586              		.cfi_def_cfa_offset 4
 3587              		.cfi_offset 7, -4
 3588 0002 85B0     		sub	sp, sp, #20
ARM GAS  C:\Users\tmj32\AppData\Local\Temp\ccxLNxq9.s 			page 87


 3589              		.cfi_def_cfa_offset 24
 3590 0004 00AF     		add	r7, sp, #0
 3591              		.cfi_def_cfa_register 7
 3592 0006 F860     		str	r0, [r7, #12]
 3593 0008 0846     		mov	r0, r1
 3594 000a 1146     		mov	r1, r2
 3595 000c 1A46     		mov	r2, r3
 3596 000e 0346     		mov	r3, r0	@ movhi
 3597 0010 7B81     		strh	r3, [r7, #10]	@ movhi
 3598 0012 0B46     		mov	r3, r1	@ movhi
 3599 0014 3B81     		strh	r3, [r7, #8]	@ movhi
 3600 0016 1346     		mov	r3, r2	@ movhi
 3601 0018 FB80     		strh	r3, [r7, #6]	@ movhi
1197:..\..\..\lvgl\version_6.1.2\lvgl\src\lv_core/lv_obj.c ****     LV_ASSERT_OBJ(obj, LV_OBJX_NAME);
1198:..\..\..\lvgl\version_6.1.2\lvgl\src\lv_core/lv_obj.c **** 
1199:..\..\..\lvgl\version_6.1.2\lvgl\src\lv_core/lv_obj.c **** #if LV_USE_EXT_CLICK_AREA == LV_EXT_CLICK_AREA_FULL
1200:..\..\..\lvgl\version_6.1.2\lvgl\src\lv_core/lv_obj.c ****     obj->ext_click_pad.x1 = left;
1201:..\..\..\lvgl\version_6.1.2\lvgl\src\lv_core/lv_obj.c ****     obj->ext_click_pad.x2 = right;
1202:..\..\..\lvgl\version_6.1.2\lvgl\src\lv_core/lv_obj.c ****     obj->ext_click_pad.y1 = top;
1203:..\..\..\lvgl\version_6.1.2\lvgl\src\lv_core/lv_obj.c ****     obj->ext_click_pad.y2 = bottom;
1204:..\..\..\lvgl\version_6.1.2\lvgl\src\lv_core/lv_obj.c **** #elif LV_USE_EXT_CLICK_AREA == LV_EXT_CLICK_AREA_TINY
1205:..\..\..\lvgl\version_6.1.2\lvgl\src\lv_core/lv_obj.c ****     obj->ext_click_pad_hor = LV_MATH_MAX(left, right);
1206:..\..\..\lvgl\version_6.1.2\lvgl\src\lv_core/lv_obj.c ****     obj->ext_click_pad_ver = LV_MATH_MAX(top, bottom);
1207:..\..\..\lvgl\version_6.1.2\lvgl\src\lv_core/lv_obj.c **** #else
1208:..\..\..\lvgl\version_6.1.2\lvgl\src\lv_core/lv_obj.c ****     (void)obj;    /*Unused*/
1209:..\..\..\lvgl\version_6.1.2\lvgl\src\lv_core/lv_obj.c ****     (void)left;   /*Unused*/
1210:..\..\..\lvgl\version_6.1.2\lvgl\src\lv_core/lv_obj.c ****     (void)right;  /*Unused*/
1211:..\..\..\lvgl\version_6.1.2\lvgl\src\lv_core/lv_obj.c ****     (void)top;    /*Unused*/
1212:..\..\..\lvgl\version_6.1.2\lvgl\src\lv_core/lv_obj.c ****     (void)bottom; /*Unused*/
1213:..\..\..\lvgl\version_6.1.2\lvgl\src\lv_core/lv_obj.c **** #endif
1214:..\..\..\lvgl\version_6.1.2\lvgl\src\lv_core/lv_obj.c **** }
 3602              		.loc 2 1214 0
 3603 001a 00BF     		nop
 3604 001c 1437     		adds	r7, r7, #20
 3605              		.cfi_def_cfa_offset 4
 3606 001e BD46     		mov	sp, r7
 3607              		.cfi_def_cfa_register 13
 3608              		@ sp needed
 3609 0020 5DF8047B 		ldr	r7, [sp], #4
 3610              		.cfi_restore 7
 3611              		.cfi_def_cfa_offset 0
 3612 0024 7047     		bx	lr
 3613              		.cfi_endproc
 3614              	.LFE56:
 3615              		.size	lv_obj_set_ext_click_area, .-lv_obj_set_ext_click_area
 3616 0026 00BF     		.section	.text.lv_obj_set_style,"ax",%progbits
 3617              		.align	2
 3618              		.global	lv_obj_set_style
 3619              		.thumb
 3620              		.thumb_func
 3621              		.type	lv_obj_set_style, %function
 3622              	lv_obj_set_style:
 3623              	.LFB57:
1215:..\..\..\lvgl\version_6.1.2\lvgl\src\lv_core/lv_obj.c **** 
1216:..\..\..\lvgl\version_6.1.2\lvgl\src\lv_core/lv_obj.c **** /*---------------------
1217:..\..\..\lvgl\version_6.1.2\lvgl\src\lv_core/lv_obj.c ****  * Appearance set
1218:..\..\..\lvgl\version_6.1.2\lvgl\src\lv_core/lv_obj.c ****  *--------------------*/
ARM GAS  C:\Users\tmj32\AppData\Local\Temp\ccxLNxq9.s 			page 88


1219:..\..\..\lvgl\version_6.1.2\lvgl\src\lv_core/lv_obj.c **** 
1220:..\..\..\lvgl\version_6.1.2\lvgl\src\lv_core/lv_obj.c **** /**
1221:..\..\..\lvgl\version_6.1.2\lvgl\src\lv_core/lv_obj.c ****  * Set a new style for an object
1222:..\..\..\lvgl\version_6.1.2\lvgl\src\lv_core/lv_obj.c ****  * @param obj pointer to an object
1223:..\..\..\lvgl\version_6.1.2\lvgl\src\lv_core/lv_obj.c ****  * @param style_p pointer to the new style
1224:..\..\..\lvgl\version_6.1.2\lvgl\src\lv_core/lv_obj.c ****  */
1225:..\..\..\lvgl\version_6.1.2\lvgl\src\lv_core/lv_obj.c **** void lv_obj_set_style(lv_obj_t * obj, const lv_style_t * style)
1226:..\..\..\lvgl\version_6.1.2\lvgl\src\lv_core/lv_obj.c **** {
 3624              		.loc 2 1226 0
 3625              		.cfi_startproc
 3626              		@ args = 0, pretend = 0, frame = 8
 3627              		@ frame_needed = 1, uses_anonymous_args = 0
 3628 0000 80B5     		push	{r7, lr}
 3629              		.cfi_def_cfa_offset 8
 3630              		.cfi_offset 7, -8
 3631              		.cfi_offset 14, -4
 3632 0002 82B0     		sub	sp, sp, #8
 3633              		.cfi_def_cfa_offset 16
 3634 0004 00AF     		add	r7, sp, #0
 3635              		.cfi_def_cfa_register 7
 3636 0006 7860     		str	r0, [r7, #4]
 3637 0008 3960     		str	r1, [r7]
1227:..\..\..\lvgl\version_6.1.2\lvgl\src\lv_core/lv_obj.c ****     LV_ASSERT_OBJ(obj, LV_OBJX_NAME);
1228:..\..\..\lvgl\version_6.1.2\lvgl\src\lv_core/lv_obj.c ****     LV_ASSERT_STYLE(style);
1229:..\..\..\lvgl\version_6.1.2\lvgl\src\lv_core/lv_obj.c **** 
1230:..\..\..\lvgl\version_6.1.2\lvgl\src\lv_core/lv_obj.c ****     obj->style_p = style;
 3638              		.loc 2 1230 0
 3639 000a 7B68     		ldr	r3, [r7, #4]
 3640 000c 3A68     		ldr	r2, [r7]
 3641 000e 9A62     		str	r2, [r3, #40]
1231:..\..\..\lvgl\version_6.1.2\lvgl\src\lv_core/lv_obj.c **** 
1232:..\..\..\lvgl\version_6.1.2\lvgl\src\lv_core/lv_obj.c ****     /*Send a signal about style change to every children with NULL style*/
1233:..\..\..\lvgl\version_6.1.2\lvgl\src\lv_core/lv_obj.c ****     refresh_children_style(obj);
 3642              		.loc 2 1233 0
 3643 0010 7868     		ldr	r0, [r7, #4]
 3644 0012 FFF7FEFF 		bl	refresh_children_style
1234:..\..\..\lvgl\version_6.1.2\lvgl\src\lv_core/lv_obj.c **** 
1235:..\..\..\lvgl\version_6.1.2\lvgl\src\lv_core/lv_obj.c ****     /*Notify the object about the style change too*/
1236:..\..\..\lvgl\version_6.1.2\lvgl\src\lv_core/lv_obj.c ****     lv_obj_refresh_style(obj);
 3645              		.loc 2 1236 0
 3646 0016 7868     		ldr	r0, [r7, #4]
 3647 0018 FFF7FEFF 		bl	lv_obj_refresh_style
1237:..\..\..\lvgl\version_6.1.2\lvgl\src\lv_core/lv_obj.c **** }
 3648              		.loc 2 1237 0
 3649 001c 00BF     		nop
 3650 001e 0837     		adds	r7, r7, #8
 3651              		.cfi_def_cfa_offset 8
 3652 0020 BD46     		mov	sp, r7
 3653              		.cfi_def_cfa_register 13
 3654              		@ sp needed
 3655 0022 80BD     		pop	{r7, pc}
 3656              		.cfi_endproc
 3657              	.LFE57:
 3658              		.size	lv_obj_set_style, .-lv_obj_set_style
 3659              		.section	.text.lv_obj_refresh_style,"ax",%progbits
 3660              		.align	2
 3661              		.global	lv_obj_refresh_style
ARM GAS  C:\Users\tmj32\AppData\Local\Temp\ccxLNxq9.s 			page 89


 3662              		.thumb
 3663              		.thumb_func
 3664              		.type	lv_obj_refresh_style, %function
 3665              	lv_obj_refresh_style:
 3666              	.LFB58:
1238:..\..\..\lvgl\version_6.1.2\lvgl\src\lv_core/lv_obj.c **** 
1239:..\..\..\lvgl\version_6.1.2\lvgl\src\lv_core/lv_obj.c **** /**
1240:..\..\..\lvgl\version_6.1.2\lvgl\src\lv_core/lv_obj.c ****  * Notify an object about its style is modified
1241:..\..\..\lvgl\version_6.1.2\lvgl\src\lv_core/lv_obj.c ****  * @param obj pointer to an object
1242:..\..\..\lvgl\version_6.1.2\lvgl\src\lv_core/lv_obj.c ****  */
1243:..\..\..\lvgl\version_6.1.2\lvgl\src\lv_core/lv_obj.c **** void lv_obj_refresh_style(lv_obj_t * obj)
1244:..\..\..\lvgl\version_6.1.2\lvgl\src\lv_core/lv_obj.c **** {
 3667              		.loc 2 1244 0
 3668              		.cfi_startproc
 3669              		@ args = 0, pretend = 0, frame = 8
 3670              		@ frame_needed = 1, uses_anonymous_args = 0
 3671 0000 80B5     		push	{r7, lr}
 3672              		.cfi_def_cfa_offset 8
 3673              		.cfi_offset 7, -8
 3674              		.cfi_offset 14, -4
 3675 0002 82B0     		sub	sp, sp, #8
 3676              		.cfi_def_cfa_offset 16
 3677 0004 00AF     		add	r7, sp, #0
 3678              		.cfi_def_cfa_register 7
 3679 0006 7860     		str	r0, [r7, #4]
1245:..\..\..\lvgl\version_6.1.2\lvgl\src\lv_core/lv_obj.c ****     LV_ASSERT_OBJ(obj, LV_OBJX_NAME);
1246:..\..\..\lvgl\version_6.1.2\lvgl\src\lv_core/lv_obj.c **** 
1247:..\..\..\lvgl\version_6.1.2\lvgl\src\lv_core/lv_obj.c ****     lv_obj_invalidate(obj);
 3680              		.loc 2 1247 0
 3681 0008 7868     		ldr	r0, [r7, #4]
 3682 000a FFF7FEFF 		bl	lv_obj_invalidate
1248:..\..\..\lvgl\version_6.1.2\lvgl\src\lv_core/lv_obj.c ****     obj->signal_cb(obj, LV_SIGNAL_STYLE_CHG, NULL);
 3683              		.loc 2 1248 0
 3684 000e 7B68     		ldr	r3, [r7, #4]
 3685 0010 DB69     		ldr	r3, [r3, #28]
 3686 0012 0022     		movs	r2, #0
 3687 0014 0421     		movs	r1, #4
 3688 0016 7868     		ldr	r0, [r7, #4]
 3689 0018 9847     		blx	r3
1249:..\..\..\lvgl\version_6.1.2\lvgl\src\lv_core/lv_obj.c ****     lv_obj_invalidate(obj);
 3690              		.loc 2 1249 0
 3691 001a 7868     		ldr	r0, [r7, #4]
 3692 001c FFF7FEFF 		bl	lv_obj_invalidate
1250:..\..\..\lvgl\version_6.1.2\lvgl\src\lv_core/lv_obj.c **** }
 3693              		.loc 2 1250 0
 3694 0020 00BF     		nop
 3695 0022 0837     		adds	r7, r7, #8
 3696              		.cfi_def_cfa_offset 8
 3697 0024 BD46     		mov	sp, r7
 3698              		.cfi_def_cfa_register 13
 3699              		@ sp needed
 3700 0026 80BD     		pop	{r7, pc}
 3701              		.cfi_endproc
 3702              	.LFE58:
 3703              		.size	lv_obj_refresh_style, .-lv_obj_refresh_style
 3704              		.section	.text.lv_obj_report_style_mod,"ax",%progbits
 3705              		.align	2
ARM GAS  C:\Users\tmj32\AppData\Local\Temp\ccxLNxq9.s 			page 90


 3706              		.global	lv_obj_report_style_mod
 3707              		.thumb
 3708              		.thumb_func
 3709              		.type	lv_obj_report_style_mod, %function
 3710              	lv_obj_report_style_mod:
 3711              	.LFB59:
1251:..\..\..\lvgl\version_6.1.2\lvgl\src\lv_core/lv_obj.c **** 
1252:..\..\..\lvgl\version_6.1.2\lvgl\src\lv_core/lv_obj.c **** /**
1253:..\..\..\lvgl\version_6.1.2\lvgl\src\lv_core/lv_obj.c ****  * Notify all object if a style is modified
1254:..\..\..\lvgl\version_6.1.2\lvgl\src\lv_core/lv_obj.c ****  * @param style pointer to a style. Only the objects with this style will be notified
1255:..\..\..\lvgl\version_6.1.2\lvgl\src\lv_core/lv_obj.c ****  *               (NULL to notify all objects)
1256:..\..\..\lvgl\version_6.1.2\lvgl\src\lv_core/lv_obj.c ****  */
1257:..\..\..\lvgl\version_6.1.2\lvgl\src\lv_core/lv_obj.c **** void lv_obj_report_style_mod(lv_style_t * style)
1258:..\..\..\lvgl\version_6.1.2\lvgl\src\lv_core/lv_obj.c **** {
 3712              		.loc 2 1258 0
 3713              		.cfi_startproc
 3714              		@ args = 0, pretend = 0, frame = 16
 3715              		@ frame_needed = 1, uses_anonymous_args = 0
 3716 0000 80B5     		push	{r7, lr}
 3717              		.cfi_def_cfa_offset 8
 3718              		.cfi_offset 7, -8
 3719              		.cfi_offset 14, -4
 3720 0002 84B0     		sub	sp, sp, #16
 3721              		.cfi_def_cfa_offset 24
 3722 0004 00AF     		add	r7, sp, #0
 3723              		.cfi_def_cfa_register 7
 3724 0006 7860     		str	r0, [r7, #4]
1259:..\..\..\lvgl\version_6.1.2\lvgl\src\lv_core/lv_obj.c ****     LV_ASSERT_STYLE(style);
1260:..\..\..\lvgl\version_6.1.2\lvgl\src\lv_core/lv_obj.c **** 
1261:..\..\..\lvgl\version_6.1.2\lvgl\src\lv_core/lv_obj.c ****     lv_disp_t * d = lv_disp_get_next(NULL);
 3725              		.loc 2 1261 0
 3726 0008 0020     		movs	r0, #0
 3727 000a FFF7FEFF 		bl	lv_disp_get_next
 3728 000e F860     		str	r0, [r7, #12]
1262:..\..\..\lvgl\version_6.1.2\lvgl\src\lv_core/lv_obj.c **** 
1263:..\..\..\lvgl\version_6.1.2\lvgl\src\lv_core/lv_obj.c ****     while(d) {
 3729              		.loc 2 1263 0
 3730 0010 23E0     		b	.L163
 3731              	.L168:
 3732              	.LBB7:
1264:..\..\..\lvgl\version_6.1.2\lvgl\src\lv_core/lv_obj.c ****         lv_obj_t * i;
1265:..\..\..\lvgl\version_6.1.2\lvgl\src\lv_core/lv_obj.c ****         LV_LL_READ(d->scr_ll, i)
 3733              		.loc 2 1265 0
 3734 0012 FB68     		ldr	r3, [r7, #12]
 3735 0014 2433     		adds	r3, r3, #36
 3736 0016 1846     		mov	r0, r3
 3737 0018 FFF7FEFF 		bl	lv_ll_get_head
 3738 001c B860     		str	r0, [r7, #8]
 3739 001e 15E0     		b	.L164
 3740              	.L167:
1266:..\..\..\lvgl\version_6.1.2\lvgl\src\lv_core/lv_obj.c ****         {
1267:..\..\..\lvgl\version_6.1.2\lvgl\src\lv_core/lv_obj.c ****             if(i->style_p == style || style == NULL) {
 3741              		.loc 2 1267 0
 3742 0020 BB68     		ldr	r3, [r7, #8]
 3743 0022 9A6A     		ldr	r2, [r3, #40]
 3744 0024 7B68     		ldr	r3, [r7, #4]
 3745 0026 9A42     		cmp	r2, r3
ARM GAS  C:\Users\tmj32\AppData\Local\Temp\ccxLNxq9.s 			page 91


 3746 0028 02D0     		beq	.L165
 3747              		.loc 2 1267 0 is_stmt 0 discriminator 1
 3748 002a 7B68     		ldr	r3, [r7, #4]
 3749 002c 002B     		cmp	r3, #0
 3750 002e 02D1     		bne	.L166
 3751              	.L165:
1268:..\..\..\lvgl\version_6.1.2\lvgl\src\lv_core/lv_obj.c ****                 lv_obj_refresh_style(i);
 3752              		.loc 2 1268 0 is_stmt 1
 3753 0030 B868     		ldr	r0, [r7, #8]
 3754 0032 FFF7FEFF 		bl	lv_obj_refresh_style
 3755              	.L166:
1269:..\..\..\lvgl\version_6.1.2\lvgl\src\lv_core/lv_obj.c ****             }
1270:..\..\..\lvgl\version_6.1.2\lvgl\src\lv_core/lv_obj.c **** 
1271:..\..\..\lvgl\version_6.1.2\lvgl\src\lv_core/lv_obj.c ****             report_style_mod_core(style, i);
 3756              		.loc 2 1271 0 discriminator 2
 3757 0036 B968     		ldr	r1, [r7, #8]
 3758 0038 7868     		ldr	r0, [r7, #4]
 3759 003a FFF7FEFF 		bl	report_style_mod_core
1265:..\..\..\lvgl\version_6.1.2\lvgl\src\lv_core/lv_obj.c ****         {
 3760              		.loc 2 1265 0 discriminator 2
 3761 003e FB68     		ldr	r3, [r7, #12]
 3762 0040 2433     		adds	r3, r3, #36
 3763 0042 B968     		ldr	r1, [r7, #8]
 3764 0044 1846     		mov	r0, r3
 3765 0046 FFF7FEFF 		bl	lv_ll_get_next
 3766 004a B860     		str	r0, [r7, #8]
 3767              	.L164:
1265:..\..\..\lvgl\version_6.1.2\lvgl\src\lv_core/lv_obj.c ****         {
 3768              		.loc 2 1265 0 is_stmt 0 discriminator 1
 3769 004c BB68     		ldr	r3, [r7, #8]
 3770 004e 002B     		cmp	r3, #0
 3771 0050 E6D1     		bne	.L167
1272:..\..\..\lvgl\version_6.1.2\lvgl\src\lv_core/lv_obj.c ****         }
1273:..\..\..\lvgl\version_6.1.2\lvgl\src\lv_core/lv_obj.c ****         d = lv_disp_get_next(d);
 3772              		.loc 2 1273 0 is_stmt 1
 3773 0052 F868     		ldr	r0, [r7, #12]
 3774 0054 FFF7FEFF 		bl	lv_disp_get_next
 3775 0058 F860     		str	r0, [r7, #12]
 3776              	.L163:
 3777              	.LBE7:
1263:..\..\..\lvgl\version_6.1.2\lvgl\src\lv_core/lv_obj.c ****         lv_obj_t * i;
 3778              		.loc 2 1263 0
 3779 005a FB68     		ldr	r3, [r7, #12]
 3780 005c 002B     		cmp	r3, #0
 3781 005e D8D1     		bne	.L168
1274:..\..\..\lvgl\version_6.1.2\lvgl\src\lv_core/lv_obj.c ****     }
1275:..\..\..\lvgl\version_6.1.2\lvgl\src\lv_core/lv_obj.c **** }
 3782              		.loc 2 1275 0
 3783 0060 00BF     		nop
 3784 0062 1037     		adds	r7, r7, #16
 3785              		.cfi_def_cfa_offset 8
 3786 0064 BD46     		mov	sp, r7
 3787              		.cfi_def_cfa_register 13
 3788              		@ sp needed
 3789 0066 80BD     		pop	{r7, pc}
 3790              		.cfi_endproc
 3791              	.LFE59:
ARM GAS  C:\Users\tmj32\AppData\Local\Temp\ccxLNxq9.s 			page 92


 3792              		.size	lv_obj_report_style_mod, .-lv_obj_report_style_mod
 3793              		.section	.text.lv_obj_set_hidden,"ax",%progbits
 3794              		.align	2
 3795              		.global	lv_obj_set_hidden
 3796              		.thumb
 3797              		.thumb_func
 3798              		.type	lv_obj_set_hidden, %function
 3799              	lv_obj_set_hidden:
 3800              	.LFB60:
1276:..\..\..\lvgl\version_6.1.2\lvgl\src\lv_core/lv_obj.c **** 
1277:..\..\..\lvgl\version_6.1.2\lvgl\src\lv_core/lv_obj.c **** /*-----------------
1278:..\..\..\lvgl\version_6.1.2\lvgl\src\lv_core/lv_obj.c ****  * Attribute set
1279:..\..\..\lvgl\version_6.1.2\lvgl\src\lv_core/lv_obj.c ****  *----------------*/
1280:..\..\..\lvgl\version_6.1.2\lvgl\src\lv_core/lv_obj.c **** 
1281:..\..\..\lvgl\version_6.1.2\lvgl\src\lv_core/lv_obj.c **** /**
1282:..\..\..\lvgl\version_6.1.2\lvgl\src\lv_core/lv_obj.c ****  * Hide an object. It won't be visible and clickable.
1283:..\..\..\lvgl\version_6.1.2\lvgl\src\lv_core/lv_obj.c ****  * @param obj pointer to an object
1284:..\..\..\lvgl\version_6.1.2\lvgl\src\lv_core/lv_obj.c ****  * @param en true: hide the object
1285:..\..\..\lvgl\version_6.1.2\lvgl\src\lv_core/lv_obj.c ****  */
1286:..\..\..\lvgl\version_6.1.2\lvgl\src\lv_core/lv_obj.c **** void lv_obj_set_hidden(lv_obj_t * obj, bool en)
1287:..\..\..\lvgl\version_6.1.2\lvgl\src\lv_core/lv_obj.c **** {
 3801              		.loc 2 1287 0
 3802              		.cfi_startproc
 3803              		@ args = 0, pretend = 0, frame = 16
 3804              		@ frame_needed = 1, uses_anonymous_args = 0
 3805 0000 80B5     		push	{r7, lr}
 3806              		.cfi_def_cfa_offset 8
 3807              		.cfi_offset 7, -8
 3808              		.cfi_offset 14, -4
 3809 0002 84B0     		sub	sp, sp, #16
 3810              		.cfi_def_cfa_offset 24
 3811 0004 00AF     		add	r7, sp, #0
 3812              		.cfi_def_cfa_register 7
 3813 0006 7860     		str	r0, [r7, #4]
 3814 0008 0B46     		mov	r3, r1
 3815 000a FB70     		strb	r3, [r7, #3]
1288:..\..\..\lvgl\version_6.1.2\lvgl\src\lv_core/lv_obj.c ****     LV_ASSERT_OBJ(obj, LV_OBJX_NAME);
1289:..\..\..\lvgl\version_6.1.2\lvgl\src\lv_core/lv_obj.c **** 
1290:..\..\..\lvgl\version_6.1.2\lvgl\src\lv_core/lv_obj.c ****     if(!obj->hidden) lv_obj_invalidate(obj); /*Invalidate when not hidden (hidden objects are ignor
 3816              		.loc 2 1290 0
 3817 000c 7B68     		ldr	r3, [r7, #4]
 3818 000e 93F82C30 		ldrb	r3, [r3, #44]	@ zero_extendqisi2
 3819 0012 03F01003 		and	r3, r3, #16
 3820 0016 DBB2     		uxtb	r3, r3
 3821 0018 002B     		cmp	r3, #0
 3822 001a 02D1     		bne	.L170
 3823              		.loc 2 1290 0 is_stmt 0 discriminator 1
 3824 001c 7868     		ldr	r0, [r7, #4]
 3825 001e FFF7FEFF 		bl	lv_obj_invalidate
 3826              	.L170:
1291:..\..\..\lvgl\version_6.1.2\lvgl\src\lv_core/lv_obj.c **** 
1292:..\..\..\lvgl\version_6.1.2\lvgl\src\lv_core/lv_obj.c ****     obj->hidden = en == false ? 0 : 1;
 3827              		.loc 2 1292 0 is_stmt 1
 3828 0022 FB78     		ldrb	r3, [r7, #3]
 3829 0024 83F00103 		eor	r3, r3, #1
 3830 0028 DBB2     		uxtb	r3, r3
 3831 002a 002B     		cmp	r3, #0
ARM GAS  C:\Users\tmj32\AppData\Local\Temp\ccxLNxq9.s 			page 93


 3832 002c 01D0     		beq	.L171
 3833              		.loc 2 1292 0 is_stmt 0 discriminator 1
 3834 002e 0021     		movs	r1, #0
 3835 0030 00E0     		b	.L172
 3836              	.L171:
 3837              		.loc 2 1292 0 discriminator 2
 3838 0032 0121     		movs	r1, #1
 3839              	.L172:
 3840              		.loc 2 1292 0 discriminator 4
 3841 0034 7A68     		ldr	r2, [r7, #4]
 3842 0036 92F82C30 		ldrb	r3, [r2, #44]
 3843 003a 61F30413 		bfi	r3, r1, #4, #1
 3844 003e 82F82C30 		strb	r3, [r2, #44]
1293:..\..\..\lvgl\version_6.1.2\lvgl\src\lv_core/lv_obj.c **** 
1294:..\..\..\lvgl\version_6.1.2\lvgl\src\lv_core/lv_obj.c ****     if(!obj->hidden) lv_obj_invalidate(obj); /*Invalidate when not hidden (hidden objects are ignor
 3845              		.loc 2 1294 0 is_stmt 1 discriminator 4
 3846 0042 7B68     		ldr	r3, [r7, #4]
 3847 0044 93F82C30 		ldrb	r3, [r3, #44]	@ zero_extendqisi2
 3848 0048 03F01003 		and	r3, r3, #16
 3849 004c DBB2     		uxtb	r3, r3
 3850 004e 002B     		cmp	r3, #0
 3851 0050 02D1     		bne	.L173
 3852              		.loc 2 1294 0 is_stmt 0 discriminator 1
 3853 0052 7868     		ldr	r0, [r7, #4]
 3854 0054 FFF7FEFF 		bl	lv_obj_invalidate
 3855              	.L173:
1295:..\..\..\lvgl\version_6.1.2\lvgl\src\lv_core/lv_obj.c **** 
1296:..\..\..\lvgl\version_6.1.2\lvgl\src\lv_core/lv_obj.c ****     lv_obj_t * par = lv_obj_get_parent(obj);
 3856              		.loc 2 1296 0 is_stmt 1
 3857 0058 7868     		ldr	r0, [r7, #4]
 3858 005a FFF7FEFF 		bl	lv_obj_get_parent
 3859 005e F860     		str	r0, [r7, #12]
1297:..\..\..\lvgl\version_6.1.2\lvgl\src\lv_core/lv_obj.c ****     par->signal_cb(par, LV_SIGNAL_CHILD_CHG, obj);
 3860              		.loc 2 1297 0
 3861 0060 FB68     		ldr	r3, [r7, #12]
 3862 0062 DB69     		ldr	r3, [r3, #28]
 3863 0064 7A68     		ldr	r2, [r7, #4]
 3864 0066 0121     		movs	r1, #1
 3865 0068 F868     		ldr	r0, [r7, #12]
 3866 006a 9847     		blx	r3
1298:..\..\..\lvgl\version_6.1.2\lvgl\src\lv_core/lv_obj.c **** }
 3867              		.loc 2 1298 0
 3868 006c 00BF     		nop
 3869 006e 1037     		adds	r7, r7, #16
 3870              		.cfi_def_cfa_offset 8
 3871 0070 BD46     		mov	sp, r7
 3872              		.cfi_def_cfa_register 13
 3873              		@ sp needed
 3874 0072 80BD     		pop	{r7, pc}
 3875              		.cfi_endproc
 3876              	.LFE60:
 3877              		.size	lv_obj_set_hidden, .-lv_obj_set_hidden
 3878              		.section	.text.lv_obj_set_click,"ax",%progbits
 3879              		.align	2
 3880              		.global	lv_obj_set_click
 3881              		.thumb
 3882              		.thumb_func
ARM GAS  C:\Users\tmj32\AppData\Local\Temp\ccxLNxq9.s 			page 94


 3883              		.type	lv_obj_set_click, %function
 3884              	lv_obj_set_click:
 3885              	.LFB61:
1299:..\..\..\lvgl\version_6.1.2\lvgl\src\lv_core/lv_obj.c **** 
1300:..\..\..\lvgl\version_6.1.2\lvgl\src\lv_core/lv_obj.c **** /**
1301:..\..\..\lvgl\version_6.1.2\lvgl\src\lv_core/lv_obj.c ****  * Enable or disable the clicking of an object
1302:..\..\..\lvgl\version_6.1.2\lvgl\src\lv_core/lv_obj.c ****  * @param obj pointer to an object
1303:..\..\..\lvgl\version_6.1.2\lvgl\src\lv_core/lv_obj.c ****  * @param en true: make the object clickable
1304:..\..\..\lvgl\version_6.1.2\lvgl\src\lv_core/lv_obj.c ****  */
1305:..\..\..\lvgl\version_6.1.2\lvgl\src\lv_core/lv_obj.c **** void lv_obj_set_click(lv_obj_t * obj, bool en)
1306:..\..\..\lvgl\version_6.1.2\lvgl\src\lv_core/lv_obj.c **** {
 3886              		.loc 2 1306 0
 3887              		.cfi_startproc
 3888              		@ args = 0, pretend = 0, frame = 8
 3889              		@ frame_needed = 1, uses_anonymous_args = 0
 3890              		@ link register save eliminated.
 3891 0000 80B4     		push	{r7}
 3892              		.cfi_def_cfa_offset 4
 3893              		.cfi_offset 7, -4
 3894 0002 83B0     		sub	sp, sp, #12
 3895              		.cfi_def_cfa_offset 16
 3896 0004 00AF     		add	r7, sp, #0
 3897              		.cfi_def_cfa_register 7
 3898 0006 7860     		str	r0, [r7, #4]
 3899 0008 0B46     		mov	r3, r1
 3900 000a FB70     		strb	r3, [r7, #3]
1307:..\..\..\lvgl\version_6.1.2\lvgl\src\lv_core/lv_obj.c ****     LV_ASSERT_OBJ(obj, LV_OBJX_NAME);
1308:..\..\..\lvgl\version_6.1.2\lvgl\src\lv_core/lv_obj.c **** 
1309:..\..\..\lvgl\version_6.1.2\lvgl\src\lv_core/lv_obj.c ****     obj->click = (en == true ? 1 : 0);
 3901              		.loc 2 1309 0
 3902 000c FB78     		ldrb	r3, [r7, #3]	@ zero_extendqisi2
 3903 000e 03F00103 		and	r3, r3, #1
 3904 0012 D9B2     		uxtb	r1, r3
 3905 0014 7A68     		ldr	r2, [r7, #4]
 3906 0016 92F82C30 		ldrb	r3, [r2, #44]
 3907 001a 61F30003 		bfi	r3, r1, #0, #1
 3908 001e 82F82C30 		strb	r3, [r2, #44]
1310:..\..\..\lvgl\version_6.1.2\lvgl\src\lv_core/lv_obj.c **** }
 3909              		.loc 2 1310 0
 3910 0022 00BF     		nop
 3911 0024 0C37     		adds	r7, r7, #12
 3912              		.cfi_def_cfa_offset 4
 3913 0026 BD46     		mov	sp, r7
 3914              		.cfi_def_cfa_register 13
 3915              		@ sp needed
 3916 0028 5DF8047B 		ldr	r7, [sp], #4
 3917              		.cfi_restore 7
 3918              		.cfi_def_cfa_offset 0
 3919 002c 7047     		bx	lr
 3920              		.cfi_endproc
 3921              	.LFE61:
 3922              		.size	lv_obj_set_click, .-lv_obj_set_click
 3923 002e 00BF     		.section	.text.lv_obj_set_top,"ax",%progbits
 3924              		.align	2
 3925              		.global	lv_obj_set_top
 3926              		.thumb
 3927              		.thumb_func
ARM GAS  C:\Users\tmj32\AppData\Local\Temp\ccxLNxq9.s 			page 95


 3928              		.type	lv_obj_set_top, %function
 3929              	lv_obj_set_top:
 3930              	.LFB62:
1311:..\..\..\lvgl\version_6.1.2\lvgl\src\lv_core/lv_obj.c **** 
1312:..\..\..\lvgl\version_6.1.2\lvgl\src\lv_core/lv_obj.c **** /**
1313:..\..\..\lvgl\version_6.1.2\lvgl\src\lv_core/lv_obj.c ****  * Enable to bring this object to the foreground if it
1314:..\..\..\lvgl\version_6.1.2\lvgl\src\lv_core/lv_obj.c ****  * or any of its children is clicked
1315:..\..\..\lvgl\version_6.1.2\lvgl\src\lv_core/lv_obj.c ****  * @param obj pointer to an object
1316:..\..\..\lvgl\version_6.1.2\lvgl\src\lv_core/lv_obj.c ****  * @param en true: enable the auto top feature
1317:..\..\..\lvgl\version_6.1.2\lvgl\src\lv_core/lv_obj.c ****  */
1318:..\..\..\lvgl\version_6.1.2\lvgl\src\lv_core/lv_obj.c **** void lv_obj_set_top(lv_obj_t * obj, bool en)
1319:..\..\..\lvgl\version_6.1.2\lvgl\src\lv_core/lv_obj.c **** {
 3931              		.loc 2 1319 0
 3932              		.cfi_startproc
 3933              		@ args = 0, pretend = 0, frame = 8
 3934              		@ frame_needed = 1, uses_anonymous_args = 0
 3935              		@ link register save eliminated.
 3936 0000 80B4     		push	{r7}
 3937              		.cfi_def_cfa_offset 4
 3938              		.cfi_offset 7, -4
 3939 0002 83B0     		sub	sp, sp, #12
 3940              		.cfi_def_cfa_offset 16
 3941 0004 00AF     		add	r7, sp, #0
 3942              		.cfi_def_cfa_register 7
 3943 0006 7860     		str	r0, [r7, #4]
 3944 0008 0B46     		mov	r3, r1
 3945 000a FB70     		strb	r3, [r7, #3]
1320:..\..\..\lvgl\version_6.1.2\lvgl\src\lv_core/lv_obj.c ****     LV_ASSERT_OBJ(obj, LV_OBJX_NAME);
1321:..\..\..\lvgl\version_6.1.2\lvgl\src\lv_core/lv_obj.c **** 
1322:..\..\..\lvgl\version_6.1.2\lvgl\src\lv_core/lv_obj.c ****     obj->top = (en == true ? 1 : 0);
 3946              		.loc 2 1322 0
 3947 000c FB78     		ldrb	r3, [r7, #3]	@ zero_extendqisi2
 3948 000e 03F00103 		and	r3, r3, #1
 3949 0012 D9B2     		uxtb	r1, r3
 3950 0014 7A68     		ldr	r2, [r7, #4]
 3951 0016 92F82C30 		ldrb	r3, [r2, #44]
 3952 001a 61F34513 		bfi	r3, r1, #5, #1
 3953 001e 82F82C30 		strb	r3, [r2, #44]
1323:..\..\..\lvgl\version_6.1.2\lvgl\src\lv_core/lv_obj.c **** }
 3954              		.loc 2 1323 0
 3955 0022 00BF     		nop
 3956 0024 0C37     		adds	r7, r7, #12
 3957              		.cfi_def_cfa_offset 4
 3958 0026 BD46     		mov	sp, r7
 3959              		.cfi_def_cfa_register 13
 3960              		@ sp needed
 3961 0028 5DF8047B 		ldr	r7, [sp], #4
 3962              		.cfi_restore 7
 3963              		.cfi_def_cfa_offset 0
 3964 002c 7047     		bx	lr
 3965              		.cfi_endproc
 3966              	.LFE62:
 3967              		.size	lv_obj_set_top, .-lv_obj_set_top
 3968 002e 00BF     		.section	.text.lv_obj_set_drag,"ax",%progbits
 3969              		.align	2
 3970              		.global	lv_obj_set_drag
 3971              		.thumb
ARM GAS  C:\Users\tmj32\AppData\Local\Temp\ccxLNxq9.s 			page 96


 3972              		.thumb_func
 3973              		.type	lv_obj_set_drag, %function
 3974              	lv_obj_set_drag:
 3975              	.LFB63:
1324:..\..\..\lvgl\version_6.1.2\lvgl\src\lv_core/lv_obj.c **** 
1325:..\..\..\lvgl\version_6.1.2\lvgl\src\lv_core/lv_obj.c **** /**
1326:..\..\..\lvgl\version_6.1.2\lvgl\src\lv_core/lv_obj.c ****  * Enable the dragging of an object
1327:..\..\..\lvgl\version_6.1.2\lvgl\src\lv_core/lv_obj.c ****  * @param obj pointer to an object
1328:..\..\..\lvgl\version_6.1.2\lvgl\src\lv_core/lv_obj.c ****  * @param en true: make the object dragable
1329:..\..\..\lvgl\version_6.1.2\lvgl\src\lv_core/lv_obj.c ****  */
1330:..\..\..\lvgl\version_6.1.2\lvgl\src\lv_core/lv_obj.c **** void lv_obj_set_drag(lv_obj_t * obj, bool en)
1331:..\..\..\lvgl\version_6.1.2\lvgl\src\lv_core/lv_obj.c **** {
 3976              		.loc 2 1331 0
 3977              		.cfi_startproc
 3978              		@ args = 0, pretend = 0, frame = 8
 3979              		@ frame_needed = 1, uses_anonymous_args = 0
 3980 0000 80B5     		push	{r7, lr}
 3981              		.cfi_def_cfa_offset 8
 3982              		.cfi_offset 7, -8
 3983              		.cfi_offset 14, -4
 3984 0002 82B0     		sub	sp, sp, #8
 3985              		.cfi_def_cfa_offset 16
 3986 0004 00AF     		add	r7, sp, #0
 3987              		.cfi_def_cfa_register 7
 3988 0006 7860     		str	r0, [r7, #4]
 3989 0008 0B46     		mov	r3, r1
 3990 000a FB70     		strb	r3, [r7, #3]
1332:..\..\..\lvgl\version_6.1.2\lvgl\src\lv_core/lv_obj.c ****     LV_ASSERT_OBJ(obj, LV_OBJX_NAME);
1333:..\..\..\lvgl\version_6.1.2\lvgl\src\lv_core/lv_obj.c **** 
1334:..\..\..\lvgl\version_6.1.2\lvgl\src\lv_core/lv_obj.c ****     if(en == true) lv_obj_set_click(obj, true); /*Drag is useless without enabled clicking*/
 3991              		.loc 2 1334 0
 3992 000c FB78     		ldrb	r3, [r7, #3]	@ zero_extendqisi2
 3993 000e 002B     		cmp	r3, #0
 3994 0010 03D0     		beq	.L177
 3995              		.loc 2 1334 0 is_stmt 0 discriminator 1
 3996 0012 0121     		movs	r1, #1
 3997 0014 7868     		ldr	r0, [r7, #4]
 3998 0016 FFF7FEFF 		bl	lv_obj_set_click
 3999              	.L177:
1335:..\..\..\lvgl\version_6.1.2\lvgl\src\lv_core/lv_obj.c ****     obj->drag = (en == true ? 1 : 0);
 4000              		.loc 2 1335 0 is_stmt 1
 4001 001a FB78     		ldrb	r3, [r7, #3]	@ zero_extendqisi2
 4002 001c 03F00103 		and	r3, r3, #1
 4003 0020 D9B2     		uxtb	r1, r3
 4004 0022 7A68     		ldr	r2, [r7, #4]
 4005 0024 92F82C30 		ldrb	r3, [r2, #44]
 4006 0028 61F34103 		bfi	r3, r1, #1, #1
 4007 002c 82F82C30 		strb	r3, [r2, #44]
1336:..\..\..\lvgl\version_6.1.2\lvgl\src\lv_core/lv_obj.c **** }
 4008              		.loc 2 1336 0
 4009 0030 00BF     		nop
 4010 0032 0837     		adds	r7, r7, #8
 4011              		.cfi_def_cfa_offset 8
 4012 0034 BD46     		mov	sp, r7
 4013              		.cfi_def_cfa_register 13
 4014              		@ sp needed
 4015 0036 80BD     		pop	{r7, pc}
ARM GAS  C:\Users\tmj32\AppData\Local\Temp\ccxLNxq9.s 			page 97


 4016              		.cfi_endproc
 4017              	.LFE63:
 4018              		.size	lv_obj_set_drag, .-lv_obj_set_drag
 4019              		.section	.text.lv_obj_set_drag_dir,"ax",%progbits
 4020              		.align	2
 4021              		.global	lv_obj_set_drag_dir
 4022              		.thumb
 4023              		.thumb_func
 4024              		.type	lv_obj_set_drag_dir, %function
 4025              	lv_obj_set_drag_dir:
 4026              	.LFB64:
1337:..\..\..\lvgl\version_6.1.2\lvgl\src\lv_core/lv_obj.c **** 
1338:..\..\..\lvgl\version_6.1.2\lvgl\src\lv_core/lv_obj.c **** /**
1339:..\..\..\lvgl\version_6.1.2\lvgl\src\lv_core/lv_obj.c ****  * Set the directions an object can be dragged in
1340:..\..\..\lvgl\version_6.1.2\lvgl\src\lv_core/lv_obj.c ****  * @param obj pointer to an object
1341:..\..\..\lvgl\version_6.1.2\lvgl\src\lv_core/lv_obj.c ****  * @param drag_dir bitwise OR of allowed directions an object can be dragged in
1342:..\..\..\lvgl\version_6.1.2\lvgl\src\lv_core/lv_obj.c ****  */
1343:..\..\..\lvgl\version_6.1.2\lvgl\src\lv_core/lv_obj.c **** void lv_obj_set_drag_dir(lv_obj_t * obj, lv_drag_dir_t drag_dir)
1344:..\..\..\lvgl\version_6.1.2\lvgl\src\lv_core/lv_obj.c **** {
 4027              		.loc 2 1344 0
 4028              		.cfi_startproc
 4029              		@ args = 0, pretend = 0, frame = 8
 4030              		@ frame_needed = 1, uses_anonymous_args = 0
 4031 0000 80B5     		push	{r7, lr}
 4032              		.cfi_def_cfa_offset 8
 4033              		.cfi_offset 7, -8
 4034              		.cfi_offset 14, -4
 4035 0002 82B0     		sub	sp, sp, #8
 4036              		.cfi_def_cfa_offset 16
 4037 0004 00AF     		add	r7, sp, #0
 4038              		.cfi_def_cfa_register 7
 4039 0006 7860     		str	r0, [r7, #4]
 4040 0008 0B46     		mov	r3, r1
 4041 000a FB70     		strb	r3, [r7, #3]
1345:..\..\..\lvgl\version_6.1.2\lvgl\src\lv_core/lv_obj.c ****     LV_ASSERT_OBJ(obj, LV_OBJX_NAME);
1346:..\..\..\lvgl\version_6.1.2\lvgl\src\lv_core/lv_obj.c **** 
1347:..\..\..\lvgl\version_6.1.2\lvgl\src\lv_core/lv_obj.c ****     obj->drag_dir = drag_dir;
 4042              		.loc 2 1347 0
 4043 000c FB78     		ldrb	r3, [r7, #3]
 4044 000e 03F00303 		and	r3, r3, #3
 4045 0012 D9B2     		uxtb	r1, r3
 4046 0014 7A68     		ldr	r2, [r7, #4]
 4047 0016 92F82D30 		ldrb	r3, [r2, #45]
 4048 001a 61F30103 		bfi	r3, r1, #0, #2
 4049 001e 82F82D30 		strb	r3, [r2, #45]
1348:..\..\..\lvgl\version_6.1.2\lvgl\src\lv_core/lv_obj.c **** 
1349:..\..\..\lvgl\version_6.1.2\lvgl\src\lv_core/lv_obj.c ****     if(obj->drag_dir != 0) lv_obj_set_drag(obj, true); /*Drag direction requires drag*/
 4050              		.loc 2 1349 0
 4051 0022 7B68     		ldr	r3, [r7, #4]
 4052 0024 93F82D30 		ldrb	r3, [r3, #45]	@ zero_extendqisi2
 4053 0028 03F00303 		and	r3, r3, #3
 4054 002c DBB2     		uxtb	r3, r3
 4055 002e 002B     		cmp	r3, #0
 4056 0030 03D0     		beq	.L180
 4057              		.loc 2 1349 0 is_stmt 0 discriminator 1
 4058 0032 0121     		movs	r1, #1
 4059 0034 7868     		ldr	r0, [r7, #4]
ARM GAS  C:\Users\tmj32\AppData\Local\Temp\ccxLNxq9.s 			page 98


 4060 0036 FFF7FEFF 		bl	lv_obj_set_drag
 4061              	.L180:
1350:..\..\..\lvgl\version_6.1.2\lvgl\src\lv_core/lv_obj.c **** }
 4062              		.loc 2 1350 0 is_stmt 1
 4063 003a 00BF     		nop
 4064 003c 0837     		adds	r7, r7, #8
 4065              		.cfi_def_cfa_offset 8
 4066 003e BD46     		mov	sp, r7
 4067              		.cfi_def_cfa_register 13
 4068              		@ sp needed
 4069 0040 80BD     		pop	{r7, pc}
 4070              		.cfi_endproc
 4071              	.LFE64:
 4072              		.size	lv_obj_set_drag_dir, .-lv_obj_set_drag_dir
 4073 0042 00BF     		.section	.text.lv_obj_set_drag_throw,"ax",%progbits
 4074              		.align	2
 4075              		.global	lv_obj_set_drag_throw
 4076              		.thumb
 4077              		.thumb_func
 4078              		.type	lv_obj_set_drag_throw, %function
 4079              	lv_obj_set_drag_throw:
 4080              	.LFB65:
1351:..\..\..\lvgl\version_6.1.2\lvgl\src\lv_core/lv_obj.c **** 
1352:..\..\..\lvgl\version_6.1.2\lvgl\src\lv_core/lv_obj.c **** /**
1353:..\..\..\lvgl\version_6.1.2\lvgl\src\lv_core/lv_obj.c ****  * Enable the throwing of an object after is is dragged
1354:..\..\..\lvgl\version_6.1.2\lvgl\src\lv_core/lv_obj.c ****  * @param obj pointer to an object
1355:..\..\..\lvgl\version_6.1.2\lvgl\src\lv_core/lv_obj.c ****  * @param en true: enable the drag throw
1356:..\..\..\lvgl\version_6.1.2\lvgl\src\lv_core/lv_obj.c ****  */
1357:..\..\..\lvgl\version_6.1.2\lvgl\src\lv_core/lv_obj.c **** void lv_obj_set_drag_throw(lv_obj_t * obj, bool en)
1358:..\..\..\lvgl\version_6.1.2\lvgl\src\lv_core/lv_obj.c **** {
 4081              		.loc 2 1358 0
 4082              		.cfi_startproc
 4083              		@ args = 0, pretend = 0, frame = 8
 4084              		@ frame_needed = 1, uses_anonymous_args = 0
 4085              		@ link register save eliminated.
 4086 0000 80B4     		push	{r7}
 4087              		.cfi_def_cfa_offset 4
 4088              		.cfi_offset 7, -4
 4089 0002 83B0     		sub	sp, sp, #12
 4090              		.cfi_def_cfa_offset 16
 4091 0004 00AF     		add	r7, sp, #0
 4092              		.cfi_def_cfa_register 7
 4093 0006 7860     		str	r0, [r7, #4]
 4094 0008 0B46     		mov	r3, r1
 4095 000a FB70     		strb	r3, [r7, #3]
1359:..\..\..\lvgl\version_6.1.2\lvgl\src\lv_core/lv_obj.c ****     LV_ASSERT_OBJ(obj, LV_OBJX_NAME);
1360:..\..\..\lvgl\version_6.1.2\lvgl\src\lv_core/lv_obj.c **** 
1361:..\..\..\lvgl\version_6.1.2\lvgl\src\lv_core/lv_obj.c ****     obj->drag_throw = (en == true ? 1 : 0);
 4096              		.loc 2 1361 0
 4097 000c FB78     		ldrb	r3, [r7, #3]	@ zero_extendqisi2
 4098 000e 03F00103 		and	r3, r3, #1
 4099 0012 D9B2     		uxtb	r1, r3
 4100 0014 7A68     		ldr	r2, [r7, #4]
 4101 0016 92F82C30 		ldrb	r3, [r2, #44]
 4102 001a 61F38203 		bfi	r3, r1, #2, #1
 4103 001e 82F82C30 		strb	r3, [r2, #44]
1362:..\..\..\lvgl\version_6.1.2\lvgl\src\lv_core/lv_obj.c **** }
ARM GAS  C:\Users\tmj32\AppData\Local\Temp\ccxLNxq9.s 			page 99


 4104              		.loc 2 1362 0
 4105 0022 00BF     		nop
 4106 0024 0C37     		adds	r7, r7, #12
 4107              		.cfi_def_cfa_offset 4
 4108 0026 BD46     		mov	sp, r7
 4109              		.cfi_def_cfa_register 13
 4110              		@ sp needed
 4111 0028 5DF8047B 		ldr	r7, [sp], #4
 4112              		.cfi_restore 7
 4113              		.cfi_def_cfa_offset 0
 4114 002c 7047     		bx	lr
 4115              		.cfi_endproc
 4116              	.LFE65:
 4117              		.size	lv_obj_set_drag_throw, .-lv_obj_set_drag_throw
 4118 002e 00BF     		.section	.text.lv_obj_set_drag_parent,"ax",%progbits
 4119              		.align	2
 4120              		.global	lv_obj_set_drag_parent
 4121              		.thumb
 4122              		.thumb_func
 4123              		.type	lv_obj_set_drag_parent, %function
 4124              	lv_obj_set_drag_parent:
 4125              	.LFB66:
1363:..\..\..\lvgl\version_6.1.2\lvgl\src\lv_core/lv_obj.c **** 
1364:..\..\..\lvgl\version_6.1.2\lvgl\src\lv_core/lv_obj.c **** /**
1365:..\..\..\lvgl\version_6.1.2\lvgl\src\lv_core/lv_obj.c ****  * Enable to use parent for drag related operations.
1366:..\..\..\lvgl\version_6.1.2\lvgl\src\lv_core/lv_obj.c ****  * If trying to drag the object the parent will be moved instead
1367:..\..\..\lvgl\version_6.1.2\lvgl\src\lv_core/lv_obj.c ****  * @param obj pointer to an object
1368:..\..\..\lvgl\version_6.1.2\lvgl\src\lv_core/lv_obj.c ****  * @param en true: enable the 'drag parent' for the object
1369:..\..\..\lvgl\version_6.1.2\lvgl\src\lv_core/lv_obj.c ****  */
1370:..\..\..\lvgl\version_6.1.2\lvgl\src\lv_core/lv_obj.c **** void lv_obj_set_drag_parent(lv_obj_t * obj, bool en)
1371:..\..\..\lvgl\version_6.1.2\lvgl\src\lv_core/lv_obj.c **** {
 4126              		.loc 2 1371 0
 4127              		.cfi_startproc
 4128              		@ args = 0, pretend = 0, frame = 8
 4129              		@ frame_needed = 1, uses_anonymous_args = 0
 4130              		@ link register save eliminated.
 4131 0000 80B4     		push	{r7}
 4132              		.cfi_def_cfa_offset 4
 4133              		.cfi_offset 7, -4
 4134 0002 83B0     		sub	sp, sp, #12
 4135              		.cfi_def_cfa_offset 16
 4136 0004 00AF     		add	r7, sp, #0
 4137              		.cfi_def_cfa_register 7
 4138 0006 7860     		str	r0, [r7, #4]
 4139 0008 0B46     		mov	r3, r1
 4140 000a FB70     		strb	r3, [r7, #3]
1372:..\..\..\lvgl\version_6.1.2\lvgl\src\lv_core/lv_obj.c ****     LV_ASSERT_OBJ(obj, LV_OBJX_NAME);
1373:..\..\..\lvgl\version_6.1.2\lvgl\src\lv_core/lv_obj.c **** 
1374:..\..\..\lvgl\version_6.1.2\lvgl\src\lv_core/lv_obj.c ****     obj->drag_parent = (en == true ? 1 : 0);
 4141              		.loc 2 1374 0
 4142 000c FB78     		ldrb	r3, [r7, #3]	@ zero_extendqisi2
 4143 000e 03F00103 		and	r3, r3, #1
 4144 0012 D9B2     		uxtb	r1, r3
 4145 0014 7A68     		ldr	r2, [r7, #4]
 4146 0016 92F82C30 		ldrb	r3, [r2, #44]
 4147 001a 61F3C303 		bfi	r3, r1, #3, #1
 4148 001e 82F82C30 		strb	r3, [r2, #44]
ARM GAS  C:\Users\tmj32\AppData\Local\Temp\ccxLNxq9.s 			page 100


1375:..\..\..\lvgl\version_6.1.2\lvgl\src\lv_core/lv_obj.c **** }
 4149              		.loc 2 1375 0
 4150 0022 00BF     		nop
 4151 0024 0C37     		adds	r7, r7, #12
 4152              		.cfi_def_cfa_offset 4
 4153 0026 BD46     		mov	sp, r7
 4154              		.cfi_def_cfa_register 13
 4155              		@ sp needed
 4156 0028 5DF8047B 		ldr	r7, [sp], #4
 4157              		.cfi_restore 7
 4158              		.cfi_def_cfa_offset 0
 4159 002c 7047     		bx	lr
 4160              		.cfi_endproc
 4161              	.LFE66:
 4162              		.size	lv_obj_set_drag_parent, .-lv_obj_set_drag_parent
 4163 002e 00BF     		.section	.text.lv_obj_set_parent_event,"ax",%progbits
 4164              		.align	2
 4165              		.global	lv_obj_set_parent_event
 4166              		.thumb
 4167              		.thumb_func
 4168              		.type	lv_obj_set_parent_event, %function
 4169              	lv_obj_set_parent_event:
 4170              	.LFB67:
1376:..\..\..\lvgl\version_6.1.2\lvgl\src\lv_core/lv_obj.c **** 
1377:..\..\..\lvgl\version_6.1.2\lvgl\src\lv_core/lv_obj.c **** /**
1378:..\..\..\lvgl\version_6.1.2\lvgl\src\lv_core/lv_obj.c ****  * Propagate the events to the parent too
1379:..\..\..\lvgl\version_6.1.2\lvgl\src\lv_core/lv_obj.c ****  * @param obj pointer to an object
1380:..\..\..\lvgl\version_6.1.2\lvgl\src\lv_core/lv_obj.c ****  * @param en true: enable the event propagation
1381:..\..\..\lvgl\version_6.1.2\lvgl\src\lv_core/lv_obj.c ****  */
1382:..\..\..\lvgl\version_6.1.2\lvgl\src\lv_core/lv_obj.c **** void lv_obj_set_parent_event(lv_obj_t * obj, bool en)
1383:..\..\..\lvgl\version_6.1.2\lvgl\src\lv_core/lv_obj.c **** {
 4171              		.loc 2 1383 0
 4172              		.cfi_startproc
 4173              		@ args = 0, pretend = 0, frame = 8
 4174              		@ frame_needed = 1, uses_anonymous_args = 0
 4175              		@ link register save eliminated.
 4176 0000 80B4     		push	{r7}
 4177              		.cfi_def_cfa_offset 4
 4178              		.cfi_offset 7, -4
 4179 0002 83B0     		sub	sp, sp, #12
 4180              		.cfi_def_cfa_offset 16
 4181 0004 00AF     		add	r7, sp, #0
 4182              		.cfi_def_cfa_register 7
 4183 0006 7860     		str	r0, [r7, #4]
 4184 0008 0B46     		mov	r3, r1
 4185 000a FB70     		strb	r3, [r7, #3]
1384:..\..\..\lvgl\version_6.1.2\lvgl\src\lv_core/lv_obj.c ****     LV_ASSERT_OBJ(obj, LV_OBJX_NAME);
1385:..\..\..\lvgl\version_6.1.2\lvgl\src\lv_core/lv_obj.c **** 
1386:..\..\..\lvgl\version_6.1.2\lvgl\src\lv_core/lv_obj.c ****     obj->parent_event = (en == true ? 1 : 0);
 4186              		.loc 2 1386 0
 4187 000c FB78     		ldrb	r3, [r7, #3]	@ zero_extendqisi2
 4188 000e 03F00103 		and	r3, r3, #1
 4189 0012 D9B2     		uxtb	r1, r3
 4190 0014 7A68     		ldr	r2, [r7, #4]
 4191 0016 92F82C30 		ldrb	r3, [r2, #44]
 4192 001a 61F3C713 		bfi	r3, r1, #7, #1
 4193 001e 82F82C30 		strb	r3, [r2, #44]
ARM GAS  C:\Users\tmj32\AppData\Local\Temp\ccxLNxq9.s 			page 101


1387:..\..\..\lvgl\version_6.1.2\lvgl\src\lv_core/lv_obj.c **** }
 4194              		.loc 2 1387 0
 4195 0022 00BF     		nop
 4196 0024 0C37     		adds	r7, r7, #12
 4197              		.cfi_def_cfa_offset 4
 4198 0026 BD46     		mov	sp, r7
 4199              		.cfi_def_cfa_register 13
 4200              		@ sp needed
 4201 0028 5DF8047B 		ldr	r7, [sp], #4
 4202              		.cfi_restore 7
 4203              		.cfi_def_cfa_offset 0
 4204 002c 7047     		bx	lr
 4205              		.cfi_endproc
 4206              	.LFE67:
 4207              		.size	lv_obj_set_parent_event, .-lv_obj_set_parent_event
 4208 002e 00BF     		.section	.text.lv_obj_set_base_dir,"ax",%progbits
 4209              		.align	2
 4210              		.global	lv_obj_set_base_dir
 4211              		.thumb
 4212              		.thumb_func
 4213              		.type	lv_obj_set_base_dir, %function
 4214              	lv_obj_set_base_dir:
 4215              	.LFB68:
1388:..\..\..\lvgl\version_6.1.2\lvgl\src\lv_core/lv_obj.c **** 
1389:..\..\..\lvgl\version_6.1.2\lvgl\src\lv_core/lv_obj.c **** void lv_obj_set_base_dir(lv_obj_t * obj, lv_bidi_dir_t dir)
1390:..\..\..\lvgl\version_6.1.2\lvgl\src\lv_core/lv_obj.c **** {
 4216              		.loc 2 1390 0
 4217              		.cfi_startproc
 4218              		@ args = 0, pretend = 0, frame = 8
 4219              		@ frame_needed = 1, uses_anonymous_args = 0
 4220 0000 80B5     		push	{r7, lr}
 4221              		.cfi_def_cfa_offset 8
 4222              		.cfi_offset 7, -8
 4223              		.cfi_offset 14, -4
 4224 0002 82B0     		sub	sp, sp, #8
 4225              		.cfi_def_cfa_offset 16
 4226 0004 00AF     		add	r7, sp, #0
 4227              		.cfi_def_cfa_register 7
 4228 0006 7860     		str	r0, [r7, #4]
 4229 0008 0B46     		mov	r3, r1
 4230 000a FB70     		strb	r3, [r7, #3]
1391:..\..\..\lvgl\version_6.1.2\lvgl\src\lv_core/lv_obj.c ****     if(dir != LV_BIDI_DIR_LTR && dir != LV_BIDI_DIR_RTL &&
 4231              		.loc 2 1391 0
 4232 000c FB78     		ldrb	r3, [r7, #3]	@ zero_extendqisi2
 4233 000e 002B     		cmp	r3, #0
 4234 0010 08D0     		beq	.L185
 4235              		.loc 2 1391 0 is_stmt 0 discriminator 1
 4236 0012 FB78     		ldrb	r3, [r7, #3]	@ zero_extendqisi2
 4237 0014 012B     		cmp	r3, #1
 4238 0016 05D0     		beq	.L185
 4239              		.loc 2 1391 0 discriminator 2
 4240 0018 FB78     		ldrb	r3, [r7, #3]	@ zero_extendqisi2
 4241 001a 022B     		cmp	r3, #2
 4242 001c 02D0     		beq	.L185
1392:..\..\..\lvgl\version_6.1.2\lvgl\src\lv_core/lv_obj.c ****        dir != LV_BIDI_DIR_AUTO && dir != LV_BIDI_DIR_INHERIT) {
 4243              		.loc 2 1392 0 is_stmt 1
 4244 001e FB78     		ldrb	r3, [r7, #3]	@ zero_extendqisi2
ARM GAS  C:\Users\tmj32\AppData\Local\Temp\ccxLNxq9.s 			page 102


 4245 0020 032B     		cmp	r3, #3
 4246 0022 13D1     		bne	.L187
 4247              	.L185:
1393:..\..\..\lvgl\version_6.1.2\lvgl\src\lv_core/lv_obj.c **** 
1394:..\..\..\lvgl\version_6.1.2\lvgl\src\lv_core/lv_obj.c ****         LV_LOG_WARN("lv_obj_set_base_dir: invalid base dir");
1395:..\..\..\lvgl\version_6.1.2\lvgl\src\lv_core/lv_obj.c ****         return;
1396:..\..\..\lvgl\version_6.1.2\lvgl\src\lv_core/lv_obj.c ****     }
1397:..\..\..\lvgl\version_6.1.2\lvgl\src\lv_core/lv_obj.c **** 
1398:..\..\..\lvgl\version_6.1.2\lvgl\src\lv_core/lv_obj.c ****     obj->base_dir = dir;
 4248              		.loc 2 1398 0
 4249 0024 FB78     		ldrb	r3, [r7, #3]
 4250 0026 03F00303 		and	r3, r3, #3
 4251 002a D9B2     		uxtb	r1, r3
 4252 002c 7A68     		ldr	r2, [r7, #4]
 4253 002e 92F82D30 		ldrb	r3, [r2, #45]
 4254 0032 61F38303 		bfi	r3, r1, #2, #2
 4255 0036 82F82D30 		strb	r3, [r2, #45]
1399:..\..\..\lvgl\version_6.1.2\lvgl\src\lv_core/lv_obj.c ****     lv_signal_send(obj, LV_SIGNAL_BASE_DIR_CHG, NULL);
 4256              		.loc 2 1399 0
 4257 003a 0022     		movs	r2, #0
 4258 003c 0521     		movs	r1, #5
 4259 003e 7868     		ldr	r0, [r7, #4]
 4260 0040 FFF7FEFF 		bl	lv_signal_send
1400:..\..\..\lvgl\version_6.1.2\lvgl\src\lv_core/lv_obj.c **** 
1401:..\..\..\lvgl\version_6.1.2\lvgl\src\lv_core/lv_obj.c ****     /* Notify the children about the parent base dir has changed.
1402:..\..\..\lvgl\version_6.1.2\lvgl\src\lv_core/lv_obj.c ****      * (The children might have `LV_BIDI_DIR_INHERIT`)*/
1403:..\..\..\lvgl\version_6.1.2\lvgl\src\lv_core/lv_obj.c ****     base_dir_refr_children(obj);
 4261              		.loc 2 1403 0
 4262 0044 7868     		ldr	r0, [r7, #4]
 4263 0046 FFF7FEFF 		bl	base_dir_refr_children
 4264 004a 00E0     		b	.L184
 4265              	.L187:
1395:..\..\..\lvgl\version_6.1.2\lvgl\src\lv_core/lv_obj.c ****     }
 4266              		.loc 2 1395 0
 4267 004c 00BF     		nop
 4268              	.L184:
1404:..\..\..\lvgl\version_6.1.2\lvgl\src\lv_core/lv_obj.c **** }
 4269              		.loc 2 1404 0
 4270 004e 0837     		adds	r7, r7, #8
 4271              		.cfi_def_cfa_offset 8
 4272 0050 BD46     		mov	sp, r7
 4273              		.cfi_def_cfa_register 13
 4274              		@ sp needed
 4275 0052 80BD     		pop	{r7, pc}
 4276              		.cfi_endproc
 4277              	.LFE68:
 4278              		.size	lv_obj_set_base_dir, .-lv_obj_set_base_dir
 4279              		.section	.text.lv_obj_set_opa_scale_enable,"ax",%progbits
 4280              		.align	2
 4281              		.global	lv_obj_set_opa_scale_enable
 4282              		.thumb
 4283              		.thumb_func
 4284              		.type	lv_obj_set_opa_scale_enable, %function
 4285              	lv_obj_set_opa_scale_enable:
 4286              	.LFB69:
1405:..\..\..\lvgl\version_6.1.2\lvgl\src\lv_core/lv_obj.c **** 
1406:..\..\..\lvgl\version_6.1.2\lvgl\src\lv_core/lv_obj.c **** /**
ARM GAS  C:\Users\tmj32\AppData\Local\Temp\ccxLNxq9.s 			page 103


1407:..\..\..\lvgl\version_6.1.2\lvgl\src\lv_core/lv_obj.c ****  * Set the opa scale enable parameter (required to set opa_scale with `lv_obj_set_opa_scale()`)
1408:..\..\..\lvgl\version_6.1.2\lvgl\src\lv_core/lv_obj.c ****  * @param obj pointer to an object
1409:..\..\..\lvgl\version_6.1.2\lvgl\src\lv_core/lv_obj.c ****  * @param en true: opa scaling is enabled for this object and all children; false: no opa scaling
1410:..\..\..\lvgl\version_6.1.2\lvgl\src\lv_core/lv_obj.c ****  */
1411:..\..\..\lvgl\version_6.1.2\lvgl\src\lv_core/lv_obj.c **** void lv_obj_set_opa_scale_enable(lv_obj_t * obj, bool en)
1412:..\..\..\lvgl\version_6.1.2\lvgl\src\lv_core/lv_obj.c **** {
 4287              		.loc 2 1412 0
 4288              		.cfi_startproc
 4289              		@ args = 0, pretend = 0, frame = 8
 4290              		@ frame_needed = 1, uses_anonymous_args = 0
 4291              		@ link register save eliminated.
 4292 0000 80B4     		push	{r7}
 4293              		.cfi_def_cfa_offset 4
 4294              		.cfi_offset 7, -4
 4295 0002 83B0     		sub	sp, sp, #12
 4296              		.cfi_def_cfa_offset 16
 4297 0004 00AF     		add	r7, sp, #0
 4298              		.cfi_def_cfa_register 7
 4299 0006 7860     		str	r0, [r7, #4]
 4300 0008 0B46     		mov	r3, r1
 4301 000a FB70     		strb	r3, [r7, #3]
1413:..\..\..\lvgl\version_6.1.2\lvgl\src\lv_core/lv_obj.c ****     LV_ASSERT_OBJ(obj, LV_OBJX_NAME);
1414:..\..\..\lvgl\version_6.1.2\lvgl\src\lv_core/lv_obj.c **** 
1415:..\..\..\lvgl\version_6.1.2\lvgl\src\lv_core/lv_obj.c ****     obj->opa_scale_en = en ? 1 : 0;
 4302              		.loc 2 1415 0
 4303 000c FB78     		ldrb	r3, [r7, #3]	@ zero_extendqisi2
 4304 000e 03F00103 		and	r3, r3, #1
 4305 0012 D9B2     		uxtb	r1, r3
 4306 0014 7A68     		ldr	r2, [r7, #4]
 4307 0016 92F82C30 		ldrb	r3, [r2, #44]
 4308 001a 61F38613 		bfi	r3, r1, #6, #1
 4309 001e 82F82C30 		strb	r3, [r2, #44]
1416:..\..\..\lvgl\version_6.1.2\lvgl\src\lv_core/lv_obj.c **** }
 4310              		.loc 2 1416 0
 4311 0022 00BF     		nop
 4312 0024 0C37     		adds	r7, r7, #12
 4313              		.cfi_def_cfa_offset 4
 4314 0026 BD46     		mov	sp, r7
 4315              		.cfi_def_cfa_register 13
 4316              		@ sp needed
 4317 0028 5DF8047B 		ldr	r7, [sp], #4
 4318              		.cfi_restore 7
 4319              		.cfi_def_cfa_offset 0
 4320 002c 7047     		bx	lr
 4321              		.cfi_endproc
 4322              	.LFE69:
 4323              		.size	lv_obj_set_opa_scale_enable, .-lv_obj_set_opa_scale_enable
 4324 002e 00BF     		.section	.text.lv_obj_set_opa_scale,"ax",%progbits
 4325              		.align	2
 4326              		.global	lv_obj_set_opa_scale
 4327              		.thumb
 4328              		.thumb_func
 4329              		.type	lv_obj_set_opa_scale, %function
 4330              	lv_obj_set_opa_scale:
 4331              	.LFB70:
1417:..\..\..\lvgl\version_6.1.2\lvgl\src\lv_core/lv_obj.c **** 
1418:..\..\..\lvgl\version_6.1.2\lvgl\src\lv_core/lv_obj.c **** /**
ARM GAS  C:\Users\tmj32\AppData\Local\Temp\ccxLNxq9.s 			page 104


1419:..\..\..\lvgl\version_6.1.2\lvgl\src\lv_core/lv_obj.c ****  * Set the opa scale of an object.
1420:..\..\..\lvgl\version_6.1.2\lvgl\src\lv_core/lv_obj.c ****  * The opacity of this object and all it's children will be scaled down with this factor.
1421:..\..\..\lvgl\version_6.1.2\lvgl\src\lv_core/lv_obj.c ****  * `lv_obj_set_opa_scale_enable(obj, true)` needs to be called to enable it.
1422:..\..\..\lvgl\version_6.1.2\lvgl\src\lv_core/lv_obj.c ****  * (not for all children just for the parent where to start the opa scaling)
1423:..\..\..\lvgl\version_6.1.2\lvgl\src\lv_core/lv_obj.c ****  * @param obj pointer to an object
1424:..\..\..\lvgl\version_6.1.2\lvgl\src\lv_core/lv_obj.c ****  * @param opa_scale a factor to scale down opacity [0..255]
1425:..\..\..\lvgl\version_6.1.2\lvgl\src\lv_core/lv_obj.c ****  */
1426:..\..\..\lvgl\version_6.1.2\lvgl\src\lv_core/lv_obj.c **** void lv_obj_set_opa_scale(lv_obj_t * obj, lv_opa_t opa_scale)
1427:..\..\..\lvgl\version_6.1.2\lvgl\src\lv_core/lv_obj.c **** {
 4332              		.loc 2 1427 0
 4333              		.cfi_startproc
 4334              		@ args = 0, pretend = 0, frame = 8
 4335              		@ frame_needed = 1, uses_anonymous_args = 0
 4336 0000 80B5     		push	{r7, lr}
 4337              		.cfi_def_cfa_offset 8
 4338              		.cfi_offset 7, -8
 4339              		.cfi_offset 14, -4
 4340 0002 82B0     		sub	sp, sp, #8
 4341              		.cfi_def_cfa_offset 16
 4342 0004 00AF     		add	r7, sp, #0
 4343              		.cfi_def_cfa_register 7
 4344 0006 7860     		str	r0, [r7, #4]
 4345 0008 0B46     		mov	r3, r1
 4346 000a FB70     		strb	r3, [r7, #3]
1428:..\..\..\lvgl\version_6.1.2\lvgl\src\lv_core/lv_obj.c ****     LV_ASSERT_OBJ(obj, LV_OBJX_NAME);
1429:..\..\..\lvgl\version_6.1.2\lvgl\src\lv_core/lv_obj.c **** 
1430:..\..\..\lvgl\version_6.1.2\lvgl\src\lv_core/lv_obj.c ****     obj->opa_scale = opa_scale;
 4347              		.loc 2 1430 0
 4348 000c 7B68     		ldr	r3, [r7, #4]
 4349 000e FA78     		ldrb	r2, [r7, #3]
 4350 0010 83F82F20 		strb	r2, [r3, #47]
1431:..\..\..\lvgl\version_6.1.2\lvgl\src\lv_core/lv_obj.c ****     lv_obj_invalidate(obj);
 4351              		.loc 2 1431 0
 4352 0014 7868     		ldr	r0, [r7, #4]
 4353 0016 FFF7FEFF 		bl	lv_obj_invalidate
1432:..\..\..\lvgl\version_6.1.2\lvgl\src\lv_core/lv_obj.c **** }
 4354              		.loc 2 1432 0
 4355 001a 00BF     		nop
 4356 001c 0837     		adds	r7, r7, #8
 4357              		.cfi_def_cfa_offset 8
 4358 001e BD46     		mov	sp, r7
 4359              		.cfi_def_cfa_register 13
 4360              		@ sp needed
 4361 0020 80BD     		pop	{r7, pc}
 4362              		.cfi_endproc
 4363              	.LFE70:
 4364              		.size	lv_obj_set_opa_scale, .-lv_obj_set_opa_scale
 4365 0022 00BF     		.section	.text.lv_obj_set_protect,"ax",%progbits
 4366              		.align	2
 4367              		.global	lv_obj_set_protect
 4368              		.thumb
 4369              		.thumb_func
 4370              		.type	lv_obj_set_protect, %function
 4371              	lv_obj_set_protect:
 4372              	.LFB71:
1433:..\..\..\lvgl\version_6.1.2\lvgl\src\lv_core/lv_obj.c **** 
1434:..\..\..\lvgl\version_6.1.2\lvgl\src\lv_core/lv_obj.c **** /**
ARM GAS  C:\Users\tmj32\AppData\Local\Temp\ccxLNxq9.s 			page 105


1435:..\..\..\lvgl\version_6.1.2\lvgl\src\lv_core/lv_obj.c ****  * Set a bit or bits in the protect filed
1436:..\..\..\lvgl\version_6.1.2\lvgl\src\lv_core/lv_obj.c ****  * @param obj pointer to an object
1437:..\..\..\lvgl\version_6.1.2\lvgl\src\lv_core/lv_obj.c ****  * @param prot 'OR'-ed values from `lv_protect_t`
1438:..\..\..\lvgl\version_6.1.2\lvgl\src\lv_core/lv_obj.c ****  */
1439:..\..\..\lvgl\version_6.1.2\lvgl\src\lv_core/lv_obj.c **** void lv_obj_set_protect(lv_obj_t * obj, uint8_t prot)
1440:..\..\..\lvgl\version_6.1.2\lvgl\src\lv_core/lv_obj.c **** {
 4373              		.loc 2 1440 0
 4374              		.cfi_startproc
 4375              		@ args = 0, pretend = 0, frame = 8
 4376              		@ frame_needed = 1, uses_anonymous_args = 0
 4377              		@ link register save eliminated.
 4378 0000 80B4     		push	{r7}
 4379              		.cfi_def_cfa_offset 4
 4380              		.cfi_offset 7, -4
 4381 0002 83B0     		sub	sp, sp, #12
 4382              		.cfi_def_cfa_offset 16
 4383 0004 00AF     		add	r7, sp, #0
 4384              		.cfi_def_cfa_register 7
 4385 0006 7860     		str	r0, [r7, #4]
 4386 0008 0B46     		mov	r3, r1
 4387 000a FB70     		strb	r3, [r7, #3]
1441:..\..\..\lvgl\version_6.1.2\lvgl\src\lv_core/lv_obj.c ****     LV_ASSERT_OBJ(obj, LV_OBJX_NAME);
1442:..\..\..\lvgl\version_6.1.2\lvgl\src\lv_core/lv_obj.c **** 
1443:..\..\..\lvgl\version_6.1.2\lvgl\src\lv_core/lv_obj.c ****     obj->protect |= prot;
 4388              		.loc 2 1443 0
 4389 000c 7B68     		ldr	r3, [r7, #4]
 4390 000e 93F82E20 		ldrb	r2, [r3, #46]	@ zero_extendqisi2
 4391 0012 FB78     		ldrb	r3, [r7, #3]
 4392 0014 1343     		orrs	r3, r3, r2
 4393 0016 DAB2     		uxtb	r2, r3
 4394 0018 7B68     		ldr	r3, [r7, #4]
 4395 001a 83F82E20 		strb	r2, [r3, #46]
1444:..\..\..\lvgl\version_6.1.2\lvgl\src\lv_core/lv_obj.c **** }
 4396              		.loc 2 1444 0
 4397 001e 00BF     		nop
 4398 0020 0C37     		adds	r7, r7, #12
 4399              		.cfi_def_cfa_offset 4
 4400 0022 BD46     		mov	sp, r7
 4401              		.cfi_def_cfa_register 13
 4402              		@ sp needed
 4403 0024 5DF8047B 		ldr	r7, [sp], #4
 4404              		.cfi_restore 7
 4405              		.cfi_def_cfa_offset 0
 4406 0028 7047     		bx	lr
 4407              		.cfi_endproc
 4408              	.LFE71:
 4409              		.size	lv_obj_set_protect, .-lv_obj_set_protect
 4410 002a 00BF     		.section	.text.lv_obj_clear_protect,"ax",%progbits
 4411              		.align	2
 4412              		.global	lv_obj_clear_protect
 4413              		.thumb
 4414              		.thumb_func
 4415              		.type	lv_obj_clear_protect, %function
 4416              	lv_obj_clear_protect:
 4417              	.LFB72:
1445:..\..\..\lvgl\version_6.1.2\lvgl\src\lv_core/lv_obj.c **** 
1446:..\..\..\lvgl\version_6.1.2\lvgl\src\lv_core/lv_obj.c **** /**
ARM GAS  C:\Users\tmj32\AppData\Local\Temp\ccxLNxq9.s 			page 106


1447:..\..\..\lvgl\version_6.1.2\lvgl\src\lv_core/lv_obj.c ****  * Clear a bit or bits in the protect filed
1448:..\..\..\lvgl\version_6.1.2\lvgl\src\lv_core/lv_obj.c ****  * @param obj pointer to an object
1449:..\..\..\lvgl\version_6.1.2\lvgl\src\lv_core/lv_obj.c ****  * @param prot 'OR'-ed values from `lv_protect_t`
1450:..\..\..\lvgl\version_6.1.2\lvgl\src\lv_core/lv_obj.c ****  */
1451:..\..\..\lvgl\version_6.1.2\lvgl\src\lv_core/lv_obj.c **** void lv_obj_clear_protect(lv_obj_t * obj, uint8_t prot)
1452:..\..\..\lvgl\version_6.1.2\lvgl\src\lv_core/lv_obj.c **** {
 4418              		.loc 2 1452 0
 4419              		.cfi_startproc
 4420              		@ args = 0, pretend = 0, frame = 8
 4421              		@ frame_needed = 1, uses_anonymous_args = 0
 4422              		@ link register save eliminated.
 4423 0000 80B4     		push	{r7}
 4424              		.cfi_def_cfa_offset 4
 4425              		.cfi_offset 7, -4
 4426 0002 83B0     		sub	sp, sp, #12
 4427              		.cfi_def_cfa_offset 16
 4428 0004 00AF     		add	r7, sp, #0
 4429              		.cfi_def_cfa_register 7
 4430 0006 7860     		str	r0, [r7, #4]
 4431 0008 0B46     		mov	r3, r1
 4432 000a FB70     		strb	r3, [r7, #3]
1453:..\..\..\lvgl\version_6.1.2\lvgl\src\lv_core/lv_obj.c ****     LV_ASSERT_OBJ(obj, LV_OBJX_NAME);
1454:..\..\..\lvgl\version_6.1.2\lvgl\src\lv_core/lv_obj.c **** 
1455:..\..\..\lvgl\version_6.1.2\lvgl\src\lv_core/lv_obj.c ****     prot = (~prot) & 0xFF;
 4433              		.loc 2 1455 0
 4434 000c FB78     		ldrb	r3, [r7, #3]
 4435 000e DB43     		mvns	r3, r3
 4436 0010 FB70     		strb	r3, [r7, #3]
1456:..\..\..\lvgl\version_6.1.2\lvgl\src\lv_core/lv_obj.c ****     obj->protect &= prot;
 4437              		.loc 2 1456 0
 4438 0012 7B68     		ldr	r3, [r7, #4]
 4439 0014 93F82E20 		ldrb	r2, [r3, #46]	@ zero_extendqisi2
 4440 0018 FB78     		ldrb	r3, [r7, #3]
 4441 001a 1340     		ands	r3, r3, r2
 4442 001c DAB2     		uxtb	r2, r3
 4443 001e 7B68     		ldr	r3, [r7, #4]
 4444 0020 83F82E20 		strb	r2, [r3, #46]
1457:..\..\..\lvgl\version_6.1.2\lvgl\src\lv_core/lv_obj.c **** }
 4445              		.loc 2 1457 0
 4446 0024 00BF     		nop
 4447 0026 0C37     		adds	r7, r7, #12
 4448              		.cfi_def_cfa_offset 4
 4449 0028 BD46     		mov	sp, r7
 4450              		.cfi_def_cfa_register 13
 4451              		@ sp needed
 4452 002a 5DF8047B 		ldr	r7, [sp], #4
 4453              		.cfi_restore 7
 4454              		.cfi_def_cfa_offset 0
 4455 002e 7047     		bx	lr
 4456              		.cfi_endproc
 4457              	.LFE72:
 4458              		.size	lv_obj_clear_protect, .-lv_obj_clear_protect
 4459              		.section	.text.lv_obj_set_event_cb,"ax",%progbits
 4460              		.align	2
 4461              		.global	lv_obj_set_event_cb
 4462              		.thumb
 4463              		.thumb_func
ARM GAS  C:\Users\tmj32\AppData\Local\Temp\ccxLNxq9.s 			page 107


 4464              		.type	lv_obj_set_event_cb, %function
 4465              	lv_obj_set_event_cb:
 4466              	.LFB73:
1458:..\..\..\lvgl\version_6.1.2\lvgl\src\lv_core/lv_obj.c **** 
1459:..\..\..\lvgl\version_6.1.2\lvgl\src\lv_core/lv_obj.c **** /**
1460:..\..\..\lvgl\version_6.1.2\lvgl\src\lv_core/lv_obj.c ****  * Set a an event handler function for an object.
1461:..\..\..\lvgl\version_6.1.2\lvgl\src\lv_core/lv_obj.c ****  * Used by the user to react on event which happens with the object.
1462:..\..\..\lvgl\version_6.1.2\lvgl\src\lv_core/lv_obj.c ****  * @param obj pointer to an object
1463:..\..\..\lvgl\version_6.1.2\lvgl\src\lv_core/lv_obj.c ****  * @param event_cb the new event function
1464:..\..\..\lvgl\version_6.1.2\lvgl\src\lv_core/lv_obj.c ****  */
1465:..\..\..\lvgl\version_6.1.2\lvgl\src\lv_core/lv_obj.c **** void lv_obj_set_event_cb(lv_obj_t * obj, lv_event_cb_t event_cb)
1466:..\..\..\lvgl\version_6.1.2\lvgl\src\lv_core/lv_obj.c **** {
 4467              		.loc 2 1466 0
 4468              		.cfi_startproc
 4469              		@ args = 0, pretend = 0, frame = 8
 4470              		@ frame_needed = 1, uses_anonymous_args = 0
 4471              		@ link register save eliminated.
 4472 0000 80B4     		push	{r7}
 4473              		.cfi_def_cfa_offset 4
 4474              		.cfi_offset 7, -4
 4475 0002 83B0     		sub	sp, sp, #12
 4476              		.cfi_def_cfa_offset 16
 4477 0004 00AF     		add	r7, sp, #0
 4478              		.cfi_def_cfa_register 7
 4479 0006 7860     		str	r0, [r7, #4]
 4480 0008 3960     		str	r1, [r7]
1467:..\..\..\lvgl\version_6.1.2\lvgl\src\lv_core/lv_obj.c ****     LV_ASSERT_OBJ(obj, LV_OBJX_NAME);
1468:..\..\..\lvgl\version_6.1.2\lvgl\src\lv_core/lv_obj.c **** 
1469:..\..\..\lvgl\version_6.1.2\lvgl\src\lv_core/lv_obj.c ****     obj->event_cb = event_cb;
 4481              		.loc 2 1469 0
 4482 000a 7B68     		ldr	r3, [r7, #4]
 4483 000c 3A68     		ldr	r2, [r7]
 4484 000e 9A61     		str	r2, [r3, #24]
1470:..\..\..\lvgl\version_6.1.2\lvgl\src\lv_core/lv_obj.c **** }
 4485              		.loc 2 1470 0
 4486 0010 00BF     		nop
 4487 0012 0C37     		adds	r7, r7, #12
 4488              		.cfi_def_cfa_offset 4
 4489 0014 BD46     		mov	sp, r7
 4490              		.cfi_def_cfa_register 13
 4491              		@ sp needed
 4492 0016 5DF8047B 		ldr	r7, [sp], #4
 4493              		.cfi_restore 7
 4494              		.cfi_def_cfa_offset 0
 4495 001a 7047     		bx	lr
 4496              		.cfi_endproc
 4497              	.LFE73:
 4498              		.size	lv_obj_set_event_cb, .-lv_obj_set_event_cb
 4499              		.section	.text.lv_event_send,"ax",%progbits
 4500              		.align	2
 4501              		.global	lv_event_send
 4502              		.thumb
 4503              		.thumb_func
 4504              		.type	lv_event_send, %function
 4505              	lv_event_send:
 4506              	.LFB74:
1471:..\..\..\lvgl\version_6.1.2\lvgl\src\lv_core/lv_obj.c **** 
ARM GAS  C:\Users\tmj32\AppData\Local\Temp\ccxLNxq9.s 			page 108


1472:..\..\..\lvgl\version_6.1.2\lvgl\src\lv_core/lv_obj.c **** /**
1473:..\..\..\lvgl\version_6.1.2\lvgl\src\lv_core/lv_obj.c ****  * Send an event to the object
1474:..\..\..\lvgl\version_6.1.2\lvgl\src\lv_core/lv_obj.c ****  * @param obj pointer to an object
1475:..\..\..\lvgl\version_6.1.2\lvgl\src\lv_core/lv_obj.c ****  * @param event the type of the event from `lv_event_t`
1476:..\..\..\lvgl\version_6.1.2\lvgl\src\lv_core/lv_obj.c ****  * @param data arbitrary data depending on the object type and the event. (Usually `NULL`)
1477:..\..\..\lvgl\version_6.1.2\lvgl\src\lv_core/lv_obj.c ****  * @return LV_RES_OK: `obj` was not deleted in the event; LV_RES_INV: `obj` was deleted in the even
1478:..\..\..\lvgl\version_6.1.2\lvgl\src\lv_core/lv_obj.c ****  */
1479:..\..\..\lvgl\version_6.1.2\lvgl\src\lv_core/lv_obj.c **** lv_res_t lv_event_send(lv_obj_t * obj, lv_event_t event, const void * data)
1480:..\..\..\lvgl\version_6.1.2\lvgl\src\lv_core/lv_obj.c **** {
 4507              		.loc 2 1480 0
 4508              		.cfi_startproc
 4509              		@ args = 0, pretend = 0, frame = 24
 4510              		@ frame_needed = 1, uses_anonymous_args = 0
 4511 0000 80B5     		push	{r7, lr}
 4512              		.cfi_def_cfa_offset 8
 4513              		.cfi_offset 7, -8
 4514              		.cfi_offset 14, -4
 4515 0002 86B0     		sub	sp, sp, #24
 4516              		.cfi_def_cfa_offset 32
 4517 0004 00AF     		add	r7, sp, #0
 4518              		.cfi_def_cfa_register 7
 4519 0006 F860     		str	r0, [r7, #12]
 4520 0008 0B46     		mov	r3, r1
 4521 000a 7A60     		str	r2, [r7, #4]
 4522 000c FB72     		strb	r3, [r7, #11]
1481:..\..\..\lvgl\version_6.1.2\lvgl\src\lv_core/lv_obj.c ****     if(obj == NULL) return LV_RES_OK;
 4523              		.loc 2 1481 0
 4524 000e FB68     		ldr	r3, [r7, #12]
 4525 0010 002B     		cmp	r3, #0
 4526 0012 01D1     		bne	.L194
 4527              		.loc 2 1481 0 is_stmt 0 discriminator 1
 4528 0014 0123     		movs	r3, #1
 4529 0016 09E0     		b	.L195
 4530              	.L194:
1482:..\..\..\lvgl\version_6.1.2\lvgl\src\lv_core/lv_obj.c **** 
1483:..\..\..\lvgl\version_6.1.2\lvgl\src\lv_core/lv_obj.c ****     LV_ASSERT_OBJ(obj, LV_OBJX_NAME);
1484:..\..\..\lvgl\version_6.1.2\lvgl\src\lv_core/lv_obj.c **** 
1485:..\..\..\lvgl\version_6.1.2\lvgl\src\lv_core/lv_obj.c ****     lv_res_t res;
1486:..\..\..\lvgl\version_6.1.2\lvgl\src\lv_core/lv_obj.c ****     res = lv_event_send_func(obj->event_cb, obj, event, data);
 4531              		.loc 2 1486 0 is_stmt 1
 4532 0018 FB68     		ldr	r3, [r7, #12]
 4533 001a 9869     		ldr	r0, [r3, #24]
 4534 001c FA7A     		ldrb	r2, [r7, #11]	@ zero_extendqisi2
 4535 001e 7B68     		ldr	r3, [r7, #4]
 4536 0020 F968     		ldr	r1, [r7, #12]
 4537 0022 FFF7FEFF 		bl	lv_event_send_func
 4538 0026 0346     		mov	r3, r0
 4539 0028 FB75     		strb	r3, [r7, #23]
1487:..\..\..\lvgl\version_6.1.2\lvgl\src\lv_core/lv_obj.c ****     return res;
 4540              		.loc 2 1487 0
 4541 002a FB7D     		ldrb	r3, [r7, #23]	@ zero_extendqisi2
 4542              	.L195:
1488:..\..\..\lvgl\version_6.1.2\lvgl\src\lv_core/lv_obj.c **** }
 4543              		.loc 2 1488 0
 4544 002c 1846     		mov	r0, r3
 4545 002e 1837     		adds	r7, r7, #24
 4546              		.cfi_def_cfa_offset 8
ARM GAS  C:\Users\tmj32\AppData\Local\Temp\ccxLNxq9.s 			page 109


 4547 0030 BD46     		mov	sp, r7
 4548              		.cfi_def_cfa_register 13
 4549              		@ sp needed
 4550 0032 80BD     		pop	{r7, pc}
 4551              		.cfi_endproc
 4552              	.LFE74:
 4553              		.size	lv_event_send, .-lv_event_send
 4554              		.section	.text.lv_event_send_func,"ax",%progbits
 4555              		.align	2
 4556              		.global	lv_event_send_func
 4557              		.thumb
 4558              		.thumb_func
 4559              		.type	lv_event_send_func, %function
 4560              	lv_event_send_func:
 4561              	.LFB75:
1489:..\..\..\lvgl\version_6.1.2\lvgl\src\lv_core/lv_obj.c **** 
1490:..\..\..\lvgl\version_6.1.2\lvgl\src\lv_core/lv_obj.c **** /**
1491:..\..\..\lvgl\version_6.1.2\lvgl\src\lv_core/lv_obj.c ****  * Call an event function with an object, event, and data.
1492:..\..\..\lvgl\version_6.1.2\lvgl\src\lv_core/lv_obj.c ****  * @param event_xcb an event callback function. If `NULL` `LV_RES_OK` will return without any actio
1493:..\..\..\lvgl\version_6.1.2\lvgl\src\lv_core/lv_obj.c ****  *        (the 'x' in the argument name indicates that its not a fully generic function because it 
1494:..\..\..\lvgl\version_6.1.2\lvgl\src\lv_core/lv_obj.c ****  *         the `func_name(object, callback, ...)` convention)
1495:..\..\..\lvgl\version_6.1.2\lvgl\src\lv_core/lv_obj.c ****  * @param obj pointer to an object to associate with the event (can be `NULL` to simply call the `e
1496:..\..\..\lvgl\version_6.1.2\lvgl\src\lv_core/lv_obj.c ****  * @param event an event
1497:..\..\..\lvgl\version_6.1.2\lvgl\src\lv_core/lv_obj.c ****  * @param data pointer to a custom data
1498:..\..\..\lvgl\version_6.1.2\lvgl\src\lv_core/lv_obj.c ****  * @return LV_RES_OK: `obj` was not deleted in the event; LV_RES_INV: `obj` was deleted in the even
1499:..\..\..\lvgl\version_6.1.2\lvgl\src\lv_core/lv_obj.c ****  */
1500:..\..\..\lvgl\version_6.1.2\lvgl\src\lv_core/lv_obj.c **** lv_res_t lv_event_send_func(lv_event_cb_t event_xcb, lv_obj_t * obj, lv_event_t event, const void *
1501:..\..\..\lvgl\version_6.1.2\lvgl\src\lv_core/lv_obj.c **** {
 4562              		.loc 2 1501 0
 4563              		.cfi_startproc
 4564              		@ args = 0, pretend = 0, frame = 40
 4565              		@ frame_needed = 1, uses_anonymous_args = 0
 4566 0000 80B5     		push	{r7, lr}
 4567              		.cfi_def_cfa_offset 8
 4568              		.cfi_offset 7, -8
 4569              		.cfi_offset 14, -4
 4570 0002 8AB0     		sub	sp, sp, #40
 4571              		.cfi_def_cfa_offset 48
 4572 0004 00AF     		add	r7, sp, #0
 4573              		.cfi_def_cfa_register 7
 4574 0006 F860     		str	r0, [r7, #12]
 4575 0008 B960     		str	r1, [r7, #8]
 4576 000a 3B60     		str	r3, [r7]
 4577 000c 1346     		mov	r3, r2
 4578 000e FB71     		strb	r3, [r7, #7]
1502:..\..\..\lvgl\version_6.1.2\lvgl\src\lv_core/lv_obj.c ****     if(obj != NULL) {
1503:..\..\..\lvgl\version_6.1.2\lvgl\src\lv_core/lv_obj.c ****         LV_ASSERT_OBJ(obj, LV_OBJX_NAME);
1504:..\..\..\lvgl\version_6.1.2\lvgl\src\lv_core/lv_obj.c ****     }
1505:..\..\..\lvgl\version_6.1.2\lvgl\src\lv_core/lv_obj.c **** 
1506:..\..\..\lvgl\version_6.1.2\lvgl\src\lv_core/lv_obj.c ****     /* Build a simple linked list from the objects used in the events
1507:..\..\..\lvgl\version_6.1.2\lvgl\src\lv_core/lv_obj.c ****      * It's important to know if an this object was deleted by a nested event
1508:..\..\..\lvgl\version_6.1.2\lvgl\src\lv_core/lv_obj.c ****      * called from this `even_cb`. */
1509:..\..\..\lvgl\version_6.1.2\lvgl\src\lv_core/lv_obj.c ****     lv_event_temp_data_t event_temp_data;
1510:..\..\..\lvgl\version_6.1.2\lvgl\src\lv_core/lv_obj.c ****     event_temp_data.obj     = obj;
 4579              		.loc 2 1510 0
 4580 0010 BB68     		ldr	r3, [r7, #8]
 4581 0012 3B61     		str	r3, [r7, #16]
ARM GAS  C:\Users\tmj32\AppData\Local\Temp\ccxLNxq9.s 			page 110


1511:..\..\..\lvgl\version_6.1.2\lvgl\src\lv_core/lv_obj.c ****     event_temp_data.deleted = false;
 4582              		.loc 2 1511 0
 4583 0014 0023     		movs	r3, #0
 4584 0016 3B75     		strb	r3, [r7, #20]
1512:..\..\..\lvgl\version_6.1.2\lvgl\src\lv_core/lv_obj.c ****     event_temp_data.prev    = NULL;
 4585              		.loc 2 1512 0
 4586 0018 0023     		movs	r3, #0
 4587 001a BB61     		str	r3, [r7, #24]
1513:..\..\..\lvgl\version_6.1.2\lvgl\src\lv_core/lv_obj.c **** 
1514:..\..\..\lvgl\version_6.1.2\lvgl\src\lv_core/lv_obj.c ****     if(event_temp_data_head) {
 4588              		.loc 2 1514 0
 4589 001c 2B4B     		ldr	r3, .L204
 4590 001e 1B68     		ldr	r3, [r3]
 4591 0020 002B     		cmp	r3, #0
 4592 0022 02D0     		beq	.L197
1515:..\..\..\lvgl\version_6.1.2\lvgl\src\lv_core/lv_obj.c ****         event_temp_data.prev = event_temp_data_head;
 4593              		.loc 2 1515 0
 4594 0024 294B     		ldr	r3, .L204
 4595 0026 1B68     		ldr	r3, [r3]
 4596 0028 BB61     		str	r3, [r7, #24]
 4597              	.L197:
1516:..\..\..\lvgl\version_6.1.2\lvgl\src\lv_core/lv_obj.c ****     }
1517:..\..\..\lvgl\version_6.1.2\lvgl\src\lv_core/lv_obj.c ****     event_temp_data_head = &event_temp_data;
 4598              		.loc 2 1517 0
 4599 002a 284A     		ldr	r2, .L204
 4600 002c 07F11003 		add	r3, r7, #16
 4601 0030 1360     		str	r3, [r2]
1518:..\..\..\lvgl\version_6.1.2\lvgl\src\lv_core/lv_obj.c **** 
1519:..\..\..\lvgl\version_6.1.2\lvgl\src\lv_core/lv_obj.c ****     const void * event_act_data_save = event_act_data;
 4602              		.loc 2 1519 0
 4603 0032 274B     		ldr	r3, .L204+4
 4604 0034 1B68     		ldr	r3, [r3]
 4605 0036 7B62     		str	r3, [r7, #36]
1520:..\..\..\lvgl\version_6.1.2\lvgl\src\lv_core/lv_obj.c ****     event_act_data                   = data;
 4606              		.loc 2 1520 0
 4607 0038 254A     		ldr	r2, .L204+4
 4608 003a 3B68     		ldr	r3, [r7]
 4609 003c 1360     		str	r3, [r2]
1521:..\..\..\lvgl\version_6.1.2\lvgl\src\lv_core/lv_obj.c **** 
1522:..\..\..\lvgl\version_6.1.2\lvgl\src\lv_core/lv_obj.c ****     /*Call the input device's feedback callback if set*/
1523:..\..\..\lvgl\version_6.1.2\lvgl\src\lv_core/lv_obj.c ****     lv_indev_t * indev_act = lv_indev_get_act();
 4610              		.loc 2 1523 0
 4611 003e FFF7FEFF 		bl	lv_indev_get_act
 4612 0042 3862     		str	r0, [r7, #32]
1524:..\..\..\lvgl\version_6.1.2\lvgl\src\lv_core/lv_obj.c ****     if(indev_act) {
 4613              		.loc 2 1524 0
 4614 0044 3B6A     		ldr	r3, [r7, #32]
 4615 0046 002B     		cmp	r3, #0
 4616 0048 09D0     		beq	.L198
1525:..\..\..\lvgl\version_6.1.2\lvgl\src\lv_core/lv_obj.c ****         if(indev_act->driver.feedback_cb) indev_act->driver.feedback_cb(&indev_act->driver, event);
 4617              		.loc 2 1525 0
 4618 004a 3B6A     		ldr	r3, [r7, #32]
 4619 004c 9B68     		ldr	r3, [r3, #8]
 4620 004e 002B     		cmp	r3, #0
 4621 0050 05D0     		beq	.L198
 4622              		.loc 2 1525 0 is_stmt 0 discriminator 1
 4623 0052 3B6A     		ldr	r3, [r7, #32]
ARM GAS  C:\Users\tmj32\AppData\Local\Temp\ccxLNxq9.s 			page 111


 4624 0054 9B68     		ldr	r3, [r3, #8]
 4625 0056 3A6A     		ldr	r2, [r7, #32]
 4626 0058 F979     		ldrb	r1, [r7, #7]	@ zero_extendqisi2
 4627 005a 1046     		mov	r0, r2
 4628 005c 9847     		blx	r3
 4629              	.L198:
1526:..\..\..\lvgl\version_6.1.2\lvgl\src\lv_core/lv_obj.c ****     }
1527:..\..\..\lvgl\version_6.1.2\lvgl\src\lv_core/lv_obj.c **** 
1528:..\..\..\lvgl\version_6.1.2\lvgl\src\lv_core/lv_obj.c ****     /*Call the event callback itself*/
1529:..\..\..\lvgl\version_6.1.2\lvgl\src\lv_core/lv_obj.c ****     if(event_xcb) event_xcb(obj, event);
 4630              		.loc 2 1529 0 is_stmt 1
 4631 005e FB68     		ldr	r3, [r7, #12]
 4632 0060 002B     		cmp	r3, #0
 4633 0062 04D0     		beq	.L199
 4634              		.loc 2 1529 0 is_stmt 0 discriminator 1
 4635 0064 FA79     		ldrb	r2, [r7, #7]	@ zero_extendqisi2
 4636 0066 FB68     		ldr	r3, [r7, #12]
 4637 0068 1146     		mov	r1, r2
 4638 006a B868     		ldr	r0, [r7, #8]
 4639 006c 9847     		blx	r3
 4640              	.L199:
1530:..\..\..\lvgl\version_6.1.2\lvgl\src\lv_core/lv_obj.c **** 
1531:..\..\..\lvgl\version_6.1.2\lvgl\src\lv_core/lv_obj.c ****     /*Restore the event data*/
1532:..\..\..\lvgl\version_6.1.2\lvgl\src\lv_core/lv_obj.c ****     event_act_data = event_act_data_save;
 4641              		.loc 2 1532 0 is_stmt 1
 4642 006e 184A     		ldr	r2, .L204+4
 4643 0070 7B6A     		ldr	r3, [r7, #36]
 4644 0072 1360     		str	r3, [r2]
1533:..\..\..\lvgl\version_6.1.2\lvgl\src\lv_core/lv_obj.c **** 
1534:..\..\..\lvgl\version_6.1.2\lvgl\src\lv_core/lv_obj.c ****     /*Remove this element from the list*/
1535:..\..\..\lvgl\version_6.1.2\lvgl\src\lv_core/lv_obj.c ****     event_temp_data_head = event_temp_data_head->prev;
 4645              		.loc 2 1535 0
 4646 0074 154B     		ldr	r3, .L204
 4647 0076 1B68     		ldr	r3, [r3]
 4648 0078 9B68     		ldr	r3, [r3, #8]
 4649 007a 144A     		ldr	r2, .L204
 4650 007c 1360     		str	r3, [r2]
1536:..\..\..\lvgl\version_6.1.2\lvgl\src\lv_core/lv_obj.c **** 
1537:..\..\..\lvgl\version_6.1.2\lvgl\src\lv_core/lv_obj.c ****     if(event_temp_data.deleted) {
 4651              		.loc 2 1537 0
 4652 007e 3B7D     		ldrb	r3, [r7, #20]	@ zero_extendqisi2
 4653 0080 002B     		cmp	r3, #0
 4654 0082 01D0     		beq	.L200
1538:..\..\..\lvgl\version_6.1.2\lvgl\src\lv_core/lv_obj.c ****         return LV_RES_INV;
 4655              		.loc 2 1538 0
 4656 0084 0023     		movs	r3, #0
 4657 0086 1DE0     		b	.L203
 4658              	.L200:
1539:..\..\..\lvgl\version_6.1.2\lvgl\src\lv_core/lv_obj.c ****     }
1540:..\..\..\lvgl\version_6.1.2\lvgl\src\lv_core/lv_obj.c **** 
1541:..\..\..\lvgl\version_6.1.2\lvgl\src\lv_core/lv_obj.c ****     if(obj) {
 4659              		.loc 2 1541 0
 4660 0088 BB68     		ldr	r3, [r7, #8]
 4661 008a 002B     		cmp	r3, #0
 4662 008c 19D0     		beq	.L202
1542:..\..\..\lvgl\version_6.1.2\lvgl\src\lv_core/lv_obj.c ****         if(obj->parent_event && obj->par) {
 4663              		.loc 2 1542 0
ARM GAS  C:\Users\tmj32\AppData\Local\Temp\ccxLNxq9.s 			page 112


 4664 008e BB68     		ldr	r3, [r7, #8]
 4665 0090 93F82C30 		ldrb	r3, [r3, #44]	@ zero_extendqisi2
 4666 0094 23F07F03 		bic	r3, r3, #127
 4667 0098 DBB2     		uxtb	r3, r3
 4668 009a 002B     		cmp	r3, #0
 4669 009c 11D0     		beq	.L202
 4670              		.loc 2 1542 0 is_stmt 0 discriminator 1
 4671 009e BB68     		ldr	r3, [r7, #8]
 4672 00a0 1B68     		ldr	r3, [r3]
 4673 00a2 002B     		cmp	r3, #0
 4674 00a4 0DD0     		beq	.L202
 4675              	.LBB8:
1543:..\..\..\lvgl\version_6.1.2\lvgl\src\lv_core/lv_obj.c ****             lv_res_t res = lv_event_send(obj->par, event, data);
 4676              		.loc 2 1543 0 is_stmt 1
 4677 00a6 BB68     		ldr	r3, [r7, #8]
 4678 00a8 1B68     		ldr	r3, [r3]
 4679 00aa F979     		ldrb	r1, [r7, #7]	@ zero_extendqisi2
 4680 00ac 3A68     		ldr	r2, [r7]
 4681 00ae 1846     		mov	r0, r3
 4682 00b0 FFF7FEFF 		bl	lv_event_send
 4683 00b4 0346     		mov	r3, r0
 4684 00b6 FB77     		strb	r3, [r7, #31]
1544:..\..\..\lvgl\version_6.1.2\lvgl\src\lv_core/lv_obj.c ****             if(res != LV_RES_OK) {
 4685              		.loc 2 1544 0
 4686 00b8 FB7F     		ldrb	r3, [r7, #31]	@ zero_extendqisi2
 4687 00ba 012B     		cmp	r3, #1
 4688 00bc 01D0     		beq	.L202
1545:..\..\..\lvgl\version_6.1.2\lvgl\src\lv_core/lv_obj.c ****                 return LV_RES_INV;
 4689              		.loc 2 1545 0
 4690 00be 0023     		movs	r3, #0
 4691 00c0 00E0     		b	.L203
 4692              	.L202:
 4693              	.LBE8:
1546:..\..\..\lvgl\version_6.1.2\lvgl\src\lv_core/lv_obj.c ****             }
1547:..\..\..\lvgl\version_6.1.2\lvgl\src\lv_core/lv_obj.c ****         }
1548:..\..\..\lvgl\version_6.1.2\lvgl\src\lv_core/lv_obj.c ****     }
1549:..\..\..\lvgl\version_6.1.2\lvgl\src\lv_core/lv_obj.c **** 
1550:..\..\..\lvgl\version_6.1.2\lvgl\src\lv_core/lv_obj.c ****     return LV_RES_OK;
 4694              		.loc 2 1550 0
 4695 00c2 0123     		movs	r3, #1
 4696              	.L203:
1551:..\..\..\lvgl\version_6.1.2\lvgl\src\lv_core/lv_obj.c **** }
 4697              		.loc 2 1551 0 discriminator 1
 4698 00c4 1846     		mov	r0, r3
 4699 00c6 2837     		adds	r7, r7, #40
 4700              		.cfi_def_cfa_offset 8
 4701 00c8 BD46     		mov	sp, r7
 4702              		.cfi_def_cfa_register 13
 4703              		@ sp needed
 4704 00ca 80BD     		pop	{r7, pc}
 4705              	.L205:
 4706              		.align	2
 4707              	.L204:
 4708 00cc 04000000 		.word	event_temp_data_head
 4709 00d0 08000000 		.word	event_act_data
 4710              		.cfi_endproc
 4711              	.LFE75:
ARM GAS  C:\Users\tmj32\AppData\Local\Temp\ccxLNxq9.s 			page 113


 4712              		.size	lv_event_send_func, .-lv_event_send_func
 4713              		.section	.text.lv_event_get_data,"ax",%progbits
 4714              		.align	2
 4715              		.global	lv_event_get_data
 4716              		.thumb
 4717              		.thumb_func
 4718              		.type	lv_event_get_data, %function
 4719              	lv_event_get_data:
 4720              	.LFB76:
1552:..\..\..\lvgl\version_6.1.2\lvgl\src\lv_core/lv_obj.c **** 
1553:..\..\..\lvgl\version_6.1.2\lvgl\src\lv_core/lv_obj.c **** /**
1554:..\..\..\lvgl\version_6.1.2\lvgl\src\lv_core/lv_obj.c ****  * Get the `data` parameter of the current event
1555:..\..\..\lvgl\version_6.1.2\lvgl\src\lv_core/lv_obj.c ****  * @return the `data` parameter
1556:..\..\..\lvgl\version_6.1.2\lvgl\src\lv_core/lv_obj.c ****  */
1557:..\..\..\lvgl\version_6.1.2\lvgl\src\lv_core/lv_obj.c **** const void * lv_event_get_data(void)
1558:..\..\..\lvgl\version_6.1.2\lvgl\src\lv_core/lv_obj.c **** {
 4721              		.loc 2 1558 0
 4722              		.cfi_startproc
 4723              		@ args = 0, pretend = 0, frame = 0
 4724              		@ frame_needed = 1, uses_anonymous_args = 0
 4725              		@ link register save eliminated.
 4726 0000 80B4     		push	{r7}
 4727              		.cfi_def_cfa_offset 4
 4728              		.cfi_offset 7, -4
 4729 0002 00AF     		add	r7, sp, #0
 4730              		.cfi_def_cfa_register 7
1559:..\..\..\lvgl\version_6.1.2\lvgl\src\lv_core/lv_obj.c ****     return event_act_data;
 4731              		.loc 2 1559 0
 4732 0004 034B     		ldr	r3, .L208
 4733 0006 1B68     		ldr	r3, [r3]
1560:..\..\..\lvgl\version_6.1.2\lvgl\src\lv_core/lv_obj.c **** }
 4734              		.loc 2 1560 0
 4735 0008 1846     		mov	r0, r3
 4736 000a BD46     		mov	sp, r7
 4737              		.cfi_def_cfa_register 13
 4738              		@ sp needed
 4739 000c 5DF8047B 		ldr	r7, [sp], #4
 4740              		.cfi_restore 7
 4741              		.cfi_def_cfa_offset 0
 4742 0010 7047     		bx	lr
 4743              	.L209:
 4744 0012 00BF     		.align	2
 4745              	.L208:
 4746 0014 08000000 		.word	event_act_data
 4747              		.cfi_endproc
 4748              	.LFE76:
 4749              		.size	lv_event_get_data, .-lv_event_get_data
 4750              		.section	.text.lv_obj_set_signal_cb,"ax",%progbits
 4751              		.align	2
 4752              		.global	lv_obj_set_signal_cb
 4753              		.thumb
 4754              		.thumb_func
 4755              		.type	lv_obj_set_signal_cb, %function
 4756              	lv_obj_set_signal_cb:
 4757              	.LFB77:
1561:..\..\..\lvgl\version_6.1.2\lvgl\src\lv_core/lv_obj.c **** 
1562:..\..\..\lvgl\version_6.1.2\lvgl\src\lv_core/lv_obj.c **** /**
ARM GAS  C:\Users\tmj32\AppData\Local\Temp\ccxLNxq9.s 			page 114


1563:..\..\..\lvgl\version_6.1.2\lvgl\src\lv_core/lv_obj.c ****  * Set the a signal function of an object. Used internally by the library.
1564:..\..\..\lvgl\version_6.1.2\lvgl\src\lv_core/lv_obj.c ****  * Always call the previous signal function in the new.
1565:..\..\..\lvgl\version_6.1.2\lvgl\src\lv_core/lv_obj.c ****  * @param obj pointer to an object
1566:..\..\..\lvgl\version_6.1.2\lvgl\src\lv_core/lv_obj.c ****  * @param cb the new signal function
1567:..\..\..\lvgl\version_6.1.2\lvgl\src\lv_core/lv_obj.c ****  */
1568:..\..\..\lvgl\version_6.1.2\lvgl\src\lv_core/lv_obj.c **** void lv_obj_set_signal_cb(lv_obj_t * obj, lv_signal_cb_t signal_cb)
1569:..\..\..\lvgl\version_6.1.2\lvgl\src\lv_core/lv_obj.c **** {
 4758              		.loc 2 1569 0
 4759              		.cfi_startproc
 4760              		@ args = 0, pretend = 0, frame = 8
 4761              		@ frame_needed = 1, uses_anonymous_args = 0
 4762              		@ link register save eliminated.
 4763 0000 80B4     		push	{r7}
 4764              		.cfi_def_cfa_offset 4
 4765              		.cfi_offset 7, -4
 4766 0002 83B0     		sub	sp, sp, #12
 4767              		.cfi_def_cfa_offset 16
 4768 0004 00AF     		add	r7, sp, #0
 4769              		.cfi_def_cfa_register 7
 4770 0006 7860     		str	r0, [r7, #4]
 4771 0008 3960     		str	r1, [r7]
1570:..\..\..\lvgl\version_6.1.2\lvgl\src\lv_core/lv_obj.c ****     LV_ASSERT_OBJ(obj, LV_OBJX_NAME);
1571:..\..\..\lvgl\version_6.1.2\lvgl\src\lv_core/lv_obj.c **** 
1572:..\..\..\lvgl\version_6.1.2\lvgl\src\lv_core/lv_obj.c ****     obj->signal_cb = signal_cb;
 4772              		.loc 2 1572 0
 4773 000a 7B68     		ldr	r3, [r7, #4]
 4774 000c 3A68     		ldr	r2, [r7]
 4775 000e DA61     		str	r2, [r3, #28]
1573:..\..\..\lvgl\version_6.1.2\lvgl\src\lv_core/lv_obj.c **** }
 4776              		.loc 2 1573 0
 4777 0010 00BF     		nop
 4778 0012 0C37     		adds	r7, r7, #12
 4779              		.cfi_def_cfa_offset 4
 4780 0014 BD46     		mov	sp, r7
 4781              		.cfi_def_cfa_register 13
 4782              		@ sp needed
 4783 0016 5DF8047B 		ldr	r7, [sp], #4
 4784              		.cfi_restore 7
 4785              		.cfi_def_cfa_offset 0
 4786 001a 7047     		bx	lr
 4787              		.cfi_endproc
 4788              	.LFE77:
 4789              		.size	lv_obj_set_signal_cb, .-lv_obj_set_signal_cb
 4790              		.section	.text.lv_signal_send,"ax",%progbits
 4791              		.align	2
 4792              		.global	lv_signal_send
 4793              		.thumb
 4794              		.thumb_func
 4795              		.type	lv_signal_send, %function
 4796              	lv_signal_send:
 4797              	.LFB78:
1574:..\..\..\lvgl\version_6.1.2\lvgl\src\lv_core/lv_obj.c **** 
1575:..\..\..\lvgl\version_6.1.2\lvgl\src\lv_core/lv_obj.c **** /**
1576:..\..\..\lvgl\version_6.1.2\lvgl\src\lv_core/lv_obj.c ****  * Send an event to the object
1577:..\..\..\lvgl\version_6.1.2\lvgl\src\lv_core/lv_obj.c ****  * @param obj pointer to an object
1578:..\..\..\lvgl\version_6.1.2\lvgl\src\lv_core/lv_obj.c ****  * @param event the type of the event from `lv_event_t`.
1579:..\..\..\lvgl\version_6.1.2\lvgl\src\lv_core/lv_obj.c ****  */
ARM GAS  C:\Users\tmj32\AppData\Local\Temp\ccxLNxq9.s 			page 115


1580:..\..\..\lvgl\version_6.1.2\lvgl\src\lv_core/lv_obj.c **** void lv_signal_send(lv_obj_t * obj, lv_signal_t signal, void * param)
1581:..\..\..\lvgl\version_6.1.2\lvgl\src\lv_core/lv_obj.c **** {
 4798              		.loc 2 1581 0
 4799              		.cfi_startproc
 4800              		@ args = 0, pretend = 0, frame = 16
 4801              		@ frame_needed = 1, uses_anonymous_args = 0
 4802 0000 80B5     		push	{r7, lr}
 4803              		.cfi_def_cfa_offset 8
 4804              		.cfi_offset 7, -8
 4805              		.cfi_offset 14, -4
 4806 0002 84B0     		sub	sp, sp, #16
 4807              		.cfi_def_cfa_offset 24
 4808 0004 00AF     		add	r7, sp, #0
 4809              		.cfi_def_cfa_register 7
 4810 0006 F860     		str	r0, [r7, #12]
 4811 0008 0B46     		mov	r3, r1
 4812 000a 7A60     		str	r2, [r7, #4]
 4813 000c FB72     		strb	r3, [r7, #11]
1582:..\..\..\lvgl\version_6.1.2\lvgl\src\lv_core/lv_obj.c ****     LV_ASSERT_OBJ(obj, LV_OBJX_NAME);
1583:..\..\..\lvgl\version_6.1.2\lvgl\src\lv_core/lv_obj.c **** 
1584:..\..\..\lvgl\version_6.1.2\lvgl\src\lv_core/lv_obj.c ****     if(obj->signal_cb) obj->signal_cb(obj, signal, param);
 4814              		.loc 2 1584 0
 4815 000e FB68     		ldr	r3, [r7, #12]
 4816 0010 DB69     		ldr	r3, [r3, #28]
 4817 0012 002B     		cmp	r3, #0
 4818 0014 05D0     		beq	.L213
 4819              		.loc 2 1584 0 is_stmt 0 discriminator 1
 4820 0016 FB68     		ldr	r3, [r7, #12]
 4821 0018 DB69     		ldr	r3, [r3, #28]
 4822 001a F97A     		ldrb	r1, [r7, #11]	@ zero_extendqisi2
 4823 001c 7A68     		ldr	r2, [r7, #4]
 4824 001e F868     		ldr	r0, [r7, #12]
 4825 0020 9847     		blx	r3
 4826              	.L213:
1585:..\..\..\lvgl\version_6.1.2\lvgl\src\lv_core/lv_obj.c **** }
 4827              		.loc 2 1585 0 is_stmt 1
 4828 0022 00BF     		nop
 4829 0024 1037     		adds	r7, r7, #16
 4830              		.cfi_def_cfa_offset 8
 4831 0026 BD46     		mov	sp, r7
 4832              		.cfi_def_cfa_register 13
 4833              		@ sp needed
 4834 0028 80BD     		pop	{r7, pc}
 4835              		.cfi_endproc
 4836              	.LFE78:
 4837              		.size	lv_signal_send, .-lv_signal_send
 4838 002a 00BF     		.section	.text.lv_obj_set_design_cb,"ax",%progbits
 4839              		.align	2
 4840              		.global	lv_obj_set_design_cb
 4841              		.thumb
 4842              		.thumb_func
 4843              		.type	lv_obj_set_design_cb, %function
 4844              	lv_obj_set_design_cb:
 4845              	.LFB79:
1586:..\..\..\lvgl\version_6.1.2\lvgl\src\lv_core/lv_obj.c **** 
1587:..\..\..\lvgl\version_6.1.2\lvgl\src\lv_core/lv_obj.c **** /**
1588:..\..\..\lvgl\version_6.1.2\lvgl\src\lv_core/lv_obj.c ****  * Set a new design function for an object
ARM GAS  C:\Users\tmj32\AppData\Local\Temp\ccxLNxq9.s 			page 116


1589:..\..\..\lvgl\version_6.1.2\lvgl\src\lv_core/lv_obj.c ****  * @param obj pointer to an object
1590:..\..\..\lvgl\version_6.1.2\lvgl\src\lv_core/lv_obj.c ****  * @param design_cb the new design function
1591:..\..\..\lvgl\version_6.1.2\lvgl\src\lv_core/lv_obj.c ****  */
1592:..\..\..\lvgl\version_6.1.2\lvgl\src\lv_core/lv_obj.c **** void lv_obj_set_design_cb(lv_obj_t * obj, lv_design_cb_t design_cb)
1593:..\..\..\lvgl\version_6.1.2\lvgl\src\lv_core/lv_obj.c **** {
 4846              		.loc 2 1593 0
 4847              		.cfi_startproc
 4848              		@ args = 0, pretend = 0, frame = 8
 4849              		@ frame_needed = 1, uses_anonymous_args = 0
 4850              		@ link register save eliminated.
 4851 0000 80B4     		push	{r7}
 4852              		.cfi_def_cfa_offset 4
 4853              		.cfi_offset 7, -4
 4854 0002 83B0     		sub	sp, sp, #12
 4855              		.cfi_def_cfa_offset 16
 4856 0004 00AF     		add	r7, sp, #0
 4857              		.cfi_def_cfa_register 7
 4858 0006 7860     		str	r0, [r7, #4]
 4859 0008 3960     		str	r1, [r7]
1594:..\..\..\lvgl\version_6.1.2\lvgl\src\lv_core/lv_obj.c ****     LV_ASSERT_OBJ(obj, LV_OBJX_NAME);
1595:..\..\..\lvgl\version_6.1.2\lvgl\src\lv_core/lv_obj.c **** 
1596:..\..\..\lvgl\version_6.1.2\lvgl\src\lv_core/lv_obj.c ****     obj->design_cb = design_cb;
 4860              		.loc 2 1596 0
 4861 000a 7B68     		ldr	r3, [r7, #4]
 4862 000c 3A68     		ldr	r2, [r7]
 4863 000e 1A62     		str	r2, [r3, #32]
1597:..\..\..\lvgl\version_6.1.2\lvgl\src\lv_core/lv_obj.c **** }
 4864              		.loc 2 1597 0
 4865 0010 00BF     		nop
 4866 0012 0C37     		adds	r7, r7, #12
 4867              		.cfi_def_cfa_offset 4
 4868 0014 BD46     		mov	sp, r7
 4869              		.cfi_def_cfa_register 13
 4870              		@ sp needed
 4871 0016 5DF8047B 		ldr	r7, [sp], #4
 4872              		.cfi_restore 7
 4873              		.cfi_def_cfa_offset 0
 4874 001a 7047     		bx	lr
 4875              		.cfi_endproc
 4876              	.LFE79:
 4877              		.size	lv_obj_set_design_cb, .-lv_obj_set_design_cb
 4878              		.section	.text.lv_obj_allocate_ext_attr,"ax",%progbits
 4879              		.align	2
 4880              		.global	lv_obj_allocate_ext_attr
 4881              		.thumb
 4882              		.thumb_func
 4883              		.type	lv_obj_allocate_ext_attr, %function
 4884              	lv_obj_allocate_ext_attr:
 4885              	.LFB80:
1598:..\..\..\lvgl\version_6.1.2\lvgl\src\lv_core/lv_obj.c **** 
1599:..\..\..\lvgl\version_6.1.2\lvgl\src\lv_core/lv_obj.c **** /*----------------
1600:..\..\..\lvgl\version_6.1.2\lvgl\src\lv_core/lv_obj.c ****  * Other set
1601:..\..\..\lvgl\version_6.1.2\lvgl\src\lv_core/lv_obj.c ****  *--------------*/
1602:..\..\..\lvgl\version_6.1.2\lvgl\src\lv_core/lv_obj.c **** 
1603:..\..\..\lvgl\version_6.1.2\lvgl\src\lv_core/lv_obj.c **** /**
1604:..\..\..\lvgl\version_6.1.2\lvgl\src\lv_core/lv_obj.c ****  * Allocate a new ext. data for an object
1605:..\..\..\lvgl\version_6.1.2\lvgl\src\lv_core/lv_obj.c ****  * @param obj pointer to an object
ARM GAS  C:\Users\tmj32\AppData\Local\Temp\ccxLNxq9.s 			page 117


1606:..\..\..\lvgl\version_6.1.2\lvgl\src\lv_core/lv_obj.c ****  * @param ext_size the size of the new ext. data
1607:..\..\..\lvgl\version_6.1.2\lvgl\src\lv_core/lv_obj.c ****  * @return Normal pointer to the allocated ext
1608:..\..\..\lvgl\version_6.1.2\lvgl\src\lv_core/lv_obj.c ****  */
1609:..\..\..\lvgl\version_6.1.2\lvgl\src\lv_core/lv_obj.c **** void * lv_obj_allocate_ext_attr(lv_obj_t * obj, uint16_t ext_size)
1610:..\..\..\lvgl\version_6.1.2\lvgl\src\lv_core/lv_obj.c **** {
 4886              		.loc 2 1610 0
 4887              		.cfi_startproc
 4888              		@ args = 0, pretend = 0, frame = 8
 4889              		@ frame_needed = 1, uses_anonymous_args = 0
 4890 0000 80B5     		push	{r7, lr}
 4891              		.cfi_def_cfa_offset 8
 4892              		.cfi_offset 7, -8
 4893              		.cfi_offset 14, -4
 4894 0002 82B0     		sub	sp, sp, #8
 4895              		.cfi_def_cfa_offset 16
 4896 0004 00AF     		add	r7, sp, #0
 4897              		.cfi_def_cfa_register 7
 4898 0006 7860     		str	r0, [r7, #4]
 4899 0008 0B46     		mov	r3, r1
 4900 000a 7B80     		strh	r3, [r7, #2]	@ movhi
1611:..\..\..\lvgl\version_6.1.2\lvgl\src\lv_core/lv_obj.c ****     LV_ASSERT_OBJ(obj, LV_OBJX_NAME);
1612:..\..\..\lvgl\version_6.1.2\lvgl\src\lv_core/lv_obj.c **** 
1613:..\..\..\lvgl\version_6.1.2\lvgl\src\lv_core/lv_obj.c ****     obj->ext_attr = lv_mem_realloc(obj->ext_attr, ext_size);
 4901              		.loc 2 1613 0
 4902 000c 7B68     		ldr	r3, [r7, #4]
 4903 000e 5B6A     		ldr	r3, [r3, #36]
 4904 0010 7A88     		ldrh	r2, [r7, #2]
 4905 0012 1146     		mov	r1, r2
 4906 0014 1846     		mov	r0, r3
 4907 0016 FFF7FEFF 		bl	lv_mem_realloc
 4908 001a 0246     		mov	r2, r0
 4909 001c 7B68     		ldr	r3, [r7, #4]
 4910 001e 5A62     		str	r2, [r3, #36]
1614:..\..\..\lvgl\version_6.1.2\lvgl\src\lv_core/lv_obj.c **** 
1615:..\..\..\lvgl\version_6.1.2\lvgl\src\lv_core/lv_obj.c ****     return (void *)obj->ext_attr;
 4911              		.loc 2 1615 0
 4912 0020 7B68     		ldr	r3, [r7, #4]
 4913 0022 5B6A     		ldr	r3, [r3, #36]
1616:..\..\..\lvgl\version_6.1.2\lvgl\src\lv_core/lv_obj.c **** }
 4914              		.loc 2 1616 0
 4915 0024 1846     		mov	r0, r3
 4916 0026 0837     		adds	r7, r7, #8
 4917              		.cfi_def_cfa_offset 8
 4918 0028 BD46     		mov	sp, r7
 4919              		.cfi_def_cfa_register 13
 4920              		@ sp needed
 4921 002a 80BD     		pop	{r7, pc}
 4922              		.cfi_endproc
 4923              	.LFE80:
 4924              		.size	lv_obj_allocate_ext_attr, .-lv_obj_allocate_ext_attr
 4925              		.section	.text.lv_obj_refresh_ext_draw_pad,"ax",%progbits
 4926              		.align	2
 4927              		.global	lv_obj_refresh_ext_draw_pad
 4928              		.thumb
 4929              		.thumb_func
 4930              		.type	lv_obj_refresh_ext_draw_pad, %function
 4931              	lv_obj_refresh_ext_draw_pad:
ARM GAS  C:\Users\tmj32\AppData\Local\Temp\ccxLNxq9.s 			page 118


 4932              	.LFB81:
1617:..\..\..\lvgl\version_6.1.2\lvgl\src\lv_core/lv_obj.c **** 
1618:..\..\..\lvgl\version_6.1.2\lvgl\src\lv_core/lv_obj.c **** /**
1619:..\..\..\lvgl\version_6.1.2\lvgl\src\lv_core/lv_obj.c ****  * Send a 'LV_SIGNAL_REFR_EXT_SIZE' signal to the object
1620:..\..\..\lvgl\version_6.1.2\lvgl\src\lv_core/lv_obj.c ****  * @param obj pointer to an object
1621:..\..\..\lvgl\version_6.1.2\lvgl\src\lv_core/lv_obj.c ****  */
1622:..\..\..\lvgl\version_6.1.2\lvgl\src\lv_core/lv_obj.c **** void lv_obj_refresh_ext_draw_pad(lv_obj_t * obj)
1623:..\..\..\lvgl\version_6.1.2\lvgl\src\lv_core/lv_obj.c **** {
 4933              		.loc 2 1623 0
 4934              		.cfi_startproc
 4935              		@ args = 0, pretend = 0, frame = 8
 4936              		@ frame_needed = 1, uses_anonymous_args = 0
 4937 0000 80B5     		push	{r7, lr}
 4938              		.cfi_def_cfa_offset 8
 4939              		.cfi_offset 7, -8
 4940              		.cfi_offset 14, -4
 4941 0002 82B0     		sub	sp, sp, #8
 4942              		.cfi_def_cfa_offset 16
 4943 0004 00AF     		add	r7, sp, #0
 4944              		.cfi_def_cfa_register 7
 4945 0006 7860     		str	r0, [r7, #4]
1624:..\..\..\lvgl\version_6.1.2\lvgl\src\lv_core/lv_obj.c ****     LV_ASSERT_OBJ(obj, LV_OBJX_NAME);
1625:..\..\..\lvgl\version_6.1.2\lvgl\src\lv_core/lv_obj.c **** 
1626:..\..\..\lvgl\version_6.1.2\lvgl\src\lv_core/lv_obj.c ****     obj->ext_draw_pad = 0;
 4946              		.loc 2 1626 0
 4947 0008 7B68     		ldr	r3, [r7, #4]
 4948 000a 0022     		movs	r2, #0
 4949 000c 1A86     		strh	r2, [r3, #48]	@ movhi
1627:..\..\..\lvgl\version_6.1.2\lvgl\src\lv_core/lv_obj.c ****     obj->signal_cb(obj, LV_SIGNAL_REFR_EXT_DRAW_PAD, NULL);
 4950              		.loc 2 1627 0
 4951 000e 7B68     		ldr	r3, [r7, #4]
 4952 0010 DB69     		ldr	r3, [r3, #28]
 4953 0012 0022     		movs	r2, #0
 4954 0014 0621     		movs	r1, #6
 4955 0016 7868     		ldr	r0, [r7, #4]
 4956 0018 9847     		blx	r3
1628:..\..\..\lvgl\version_6.1.2\lvgl\src\lv_core/lv_obj.c **** 
1629:..\..\..\lvgl\version_6.1.2\lvgl\src\lv_core/lv_obj.c ****     lv_obj_invalidate(obj);
 4957              		.loc 2 1629 0
 4958 001a 7868     		ldr	r0, [r7, #4]
 4959 001c FFF7FEFF 		bl	lv_obj_invalidate
1630:..\..\..\lvgl\version_6.1.2\lvgl\src\lv_core/lv_obj.c **** }
 4960              		.loc 2 1630 0
 4961 0020 00BF     		nop
 4962 0022 0837     		adds	r7, r7, #8
 4963              		.cfi_def_cfa_offset 8
 4964 0024 BD46     		mov	sp, r7
 4965              		.cfi_def_cfa_register 13
 4966              		@ sp needed
 4967 0026 80BD     		pop	{r7, pc}
 4968              		.cfi_endproc
 4969              	.LFE81:
 4970              		.size	lv_obj_refresh_ext_draw_pad, .-lv_obj_refresh_ext_draw_pad
 4971              		.section	.text.lv_obj_get_screen,"ax",%progbits
 4972              		.align	2
 4973              		.global	lv_obj_get_screen
 4974              		.thumb
ARM GAS  C:\Users\tmj32\AppData\Local\Temp\ccxLNxq9.s 			page 119


 4975              		.thumb_func
 4976              		.type	lv_obj_get_screen, %function
 4977              	lv_obj_get_screen:
 4978              	.LFB82:
1631:..\..\..\lvgl\version_6.1.2\lvgl\src\lv_core/lv_obj.c **** 
1632:..\..\..\lvgl\version_6.1.2\lvgl\src\lv_core/lv_obj.c **** /*=======================
1633:..\..\..\lvgl\version_6.1.2\lvgl\src\lv_core/lv_obj.c ****  * Getter functions
1634:..\..\..\lvgl\version_6.1.2\lvgl\src\lv_core/lv_obj.c ****  *======================*/
1635:..\..\..\lvgl\version_6.1.2\lvgl\src\lv_core/lv_obj.c **** 
1636:..\..\..\lvgl\version_6.1.2\lvgl\src\lv_core/lv_obj.c **** /**
1637:..\..\..\lvgl\version_6.1.2\lvgl\src\lv_core/lv_obj.c ****  * Return with the screen of an object
1638:..\..\..\lvgl\version_6.1.2\lvgl\src\lv_core/lv_obj.c ****  * @param obj pointer to an object
1639:..\..\..\lvgl\version_6.1.2\lvgl\src\lv_core/lv_obj.c ****  * @return pointer to a screen
1640:..\..\..\lvgl\version_6.1.2\lvgl\src\lv_core/lv_obj.c ****  */
1641:..\..\..\lvgl\version_6.1.2\lvgl\src\lv_core/lv_obj.c **** lv_obj_t * lv_obj_get_screen(const lv_obj_t * obj)
1642:..\..\..\lvgl\version_6.1.2\lvgl\src\lv_core/lv_obj.c **** {
 4979              		.loc 2 1642 0
 4980              		.cfi_startproc
 4981              		@ args = 0, pretend = 0, frame = 16
 4982              		@ frame_needed = 1, uses_anonymous_args = 0
 4983 0000 80B5     		push	{r7, lr}
 4984              		.cfi_def_cfa_offset 8
 4985              		.cfi_offset 7, -8
 4986              		.cfi_offset 14, -4
 4987 0002 84B0     		sub	sp, sp, #16
 4988              		.cfi_def_cfa_offset 24
 4989 0004 00AF     		add	r7, sp, #0
 4990              		.cfi_def_cfa_register 7
 4991 0006 7860     		str	r0, [r7, #4]
1643:..\..\..\lvgl\version_6.1.2\lvgl\src\lv_core/lv_obj.c ****     LV_ASSERT_OBJ(obj, LV_OBJX_NAME);
1644:..\..\..\lvgl\version_6.1.2\lvgl\src\lv_core/lv_obj.c **** 
1645:..\..\..\lvgl\version_6.1.2\lvgl\src\lv_core/lv_obj.c ****     const lv_obj_t * par = obj;
 4992              		.loc 2 1645 0
 4993 0008 7B68     		ldr	r3, [r7, #4]
 4994 000a FB60     		str	r3, [r7, #12]
 4995              	.L219:
1646:..\..\..\lvgl\version_6.1.2\lvgl\src\lv_core/lv_obj.c ****     const lv_obj_t * act_p;
1647:..\..\..\lvgl\version_6.1.2\lvgl\src\lv_core/lv_obj.c **** 
1648:..\..\..\lvgl\version_6.1.2\lvgl\src\lv_core/lv_obj.c ****     do {
1649:..\..\..\lvgl\version_6.1.2\lvgl\src\lv_core/lv_obj.c ****         act_p = par;
 4996              		.loc 2 1649 0 discriminator 1
 4997 000c FB68     		ldr	r3, [r7, #12]
 4998 000e BB60     		str	r3, [r7, #8]
1650:..\..\..\lvgl\version_6.1.2\lvgl\src\lv_core/lv_obj.c ****         par   = lv_obj_get_parent(act_p);
 4999              		.loc 2 1650 0 discriminator 1
 5000 0010 B868     		ldr	r0, [r7, #8]
 5001 0012 FFF7FEFF 		bl	lv_obj_get_parent
 5002 0016 F860     		str	r0, [r7, #12]
1651:..\..\..\lvgl\version_6.1.2\lvgl\src\lv_core/lv_obj.c ****     } while(par != NULL);
 5003              		.loc 2 1651 0 discriminator 1
 5004 0018 FB68     		ldr	r3, [r7, #12]
 5005 001a 002B     		cmp	r3, #0
 5006 001c F6D1     		bne	.L219
1652:..\..\..\lvgl\version_6.1.2\lvgl\src\lv_core/lv_obj.c **** 
1653:..\..\..\lvgl\version_6.1.2\lvgl\src\lv_core/lv_obj.c ****     return (lv_obj_t *)act_p;
 5007              		.loc 2 1653 0
 5008 001e BB68     		ldr	r3, [r7, #8]
ARM GAS  C:\Users\tmj32\AppData\Local\Temp\ccxLNxq9.s 			page 120


1654:..\..\..\lvgl\version_6.1.2\lvgl\src\lv_core/lv_obj.c **** }
 5009              		.loc 2 1654 0
 5010 0020 1846     		mov	r0, r3
 5011 0022 1037     		adds	r7, r7, #16
 5012              		.cfi_def_cfa_offset 8
 5013 0024 BD46     		mov	sp, r7
 5014              		.cfi_def_cfa_register 13
 5015              		@ sp needed
 5016 0026 80BD     		pop	{r7, pc}
 5017              		.cfi_endproc
 5018              	.LFE82:
 5019              		.size	lv_obj_get_screen, .-lv_obj_get_screen
 5020              		.section	.text.lv_obj_get_disp,"ax",%progbits
 5021              		.align	2
 5022              		.global	lv_obj_get_disp
 5023              		.thumb
 5024              		.thumb_func
 5025              		.type	lv_obj_get_disp, %function
 5026              	lv_obj_get_disp:
 5027              	.LFB83:
1655:..\..\..\lvgl\version_6.1.2\lvgl\src\lv_core/lv_obj.c **** 
1656:..\..\..\lvgl\version_6.1.2\lvgl\src\lv_core/lv_obj.c **** /**
1657:..\..\..\lvgl\version_6.1.2\lvgl\src\lv_core/lv_obj.c ****  * Get the display of an object
1658:..\..\..\lvgl\version_6.1.2\lvgl\src\lv_core/lv_obj.c ****  * @param scr pointer to an object
1659:..\..\..\lvgl\version_6.1.2\lvgl\src\lv_core/lv_obj.c ****  * @return pointer the object's display
1660:..\..\..\lvgl\version_6.1.2\lvgl\src\lv_core/lv_obj.c ****  */
1661:..\..\..\lvgl\version_6.1.2\lvgl\src\lv_core/lv_obj.c **** lv_disp_t * lv_obj_get_disp(const lv_obj_t * obj)
1662:..\..\..\lvgl\version_6.1.2\lvgl\src\lv_core/lv_obj.c **** {
 5028              		.loc 2 1662 0
 5029              		.cfi_startproc
 5030              		@ args = 0, pretend = 0, frame = 24
 5031              		@ frame_needed = 1, uses_anonymous_args = 0
 5032 0000 80B5     		push	{r7, lr}
 5033              		.cfi_def_cfa_offset 8
 5034              		.cfi_offset 7, -8
 5035              		.cfi_offset 14, -4
 5036 0002 86B0     		sub	sp, sp, #24
 5037              		.cfi_def_cfa_offset 32
 5038 0004 00AF     		add	r7, sp, #0
 5039              		.cfi_def_cfa_register 7
 5040 0006 7860     		str	r0, [r7, #4]
1663:..\..\..\lvgl\version_6.1.2\lvgl\src\lv_core/lv_obj.c ****     LV_ASSERT_OBJ(obj, LV_OBJX_NAME);
1664:..\..\..\lvgl\version_6.1.2\lvgl\src\lv_core/lv_obj.c **** 
1665:..\..\..\lvgl\version_6.1.2\lvgl\src\lv_core/lv_obj.c ****     const lv_obj_t * scr;
1666:..\..\..\lvgl\version_6.1.2\lvgl\src\lv_core/lv_obj.c **** 
1667:..\..\..\lvgl\version_6.1.2\lvgl\src\lv_core/lv_obj.c ****     if(obj->par == NULL)
 5041              		.loc 2 1667 0
 5042 0008 7B68     		ldr	r3, [r7, #4]
 5043 000a 1B68     		ldr	r3, [r3]
 5044 000c 002B     		cmp	r3, #0
 5045 000e 02D1     		bne	.L222
1668:..\..\..\lvgl\version_6.1.2\lvgl\src\lv_core/lv_obj.c ****         scr = obj; /*`obj` is a screen*/
 5046              		.loc 2 1668 0
 5047 0010 7B68     		ldr	r3, [r7, #4]
 5048 0012 7B61     		str	r3, [r7, #20]
 5049 0014 03E0     		b	.L223
 5050              	.L222:
ARM GAS  C:\Users\tmj32\AppData\Local\Temp\ccxLNxq9.s 			page 121


1669:..\..\..\lvgl\version_6.1.2\lvgl\src\lv_core/lv_obj.c ****     else
1670:..\..\..\lvgl\version_6.1.2\lvgl\src\lv_core/lv_obj.c ****         scr = lv_obj_get_screen(obj); /*get the screen of `obj`*/
 5051              		.loc 2 1670 0
 5052 0016 7868     		ldr	r0, [r7, #4]
 5053 0018 FFF7FEFF 		bl	lv_obj_get_screen
 5054 001c 7861     		str	r0, [r7, #20]
 5055              	.L223:
1671:..\..\..\lvgl\version_6.1.2\lvgl\src\lv_core/lv_obj.c **** 
1672:..\..\..\lvgl\version_6.1.2\lvgl\src\lv_core/lv_obj.c ****     lv_disp_t * d;
1673:..\..\..\lvgl\version_6.1.2\lvgl\src\lv_core/lv_obj.c ****     LV_LL_READ(LV_GC_ROOT(_lv_disp_ll), d)
 5056              		.loc 2 1673 0
 5057 001e 1448     		ldr	r0, .L230
 5058 0020 FFF7FEFF 		bl	lv_ll_get_head
 5059 0024 3861     		str	r0, [r7, #16]
 5060 0026 1BE0     		b	.L224
 5061              	.L229:
 5062              	.LBB9:
1674:..\..\..\lvgl\version_6.1.2\lvgl\src\lv_core/lv_obj.c ****     {
1675:..\..\..\lvgl\version_6.1.2\lvgl\src\lv_core/lv_obj.c ****         lv_obj_t * s;
1676:..\..\..\lvgl\version_6.1.2\lvgl\src\lv_core/lv_obj.c ****         LV_LL_READ(d->scr_ll, s)
 5063              		.loc 2 1676 0
 5064 0028 3B69     		ldr	r3, [r7, #16]
 5065 002a 2433     		adds	r3, r3, #36
 5066 002c 1846     		mov	r0, r3
 5067 002e FFF7FEFF 		bl	lv_ll_get_head
 5068 0032 F860     		str	r0, [r7, #12]
 5069 0034 0CE0     		b	.L225
 5070              	.L228:
1677:..\..\..\lvgl\version_6.1.2\lvgl\src\lv_core/lv_obj.c ****         {
1678:..\..\..\lvgl\version_6.1.2\lvgl\src\lv_core/lv_obj.c ****             if(s == scr) return d;
 5071              		.loc 2 1678 0
 5072 0036 FA68     		ldr	r2, [r7, #12]
 5073 0038 7B69     		ldr	r3, [r7, #20]
 5074 003a 9A42     		cmp	r2, r3
 5075 003c 01D1     		bne	.L226
 5076              		.loc 2 1678 0 is_stmt 0 discriminator 1
 5077 003e 3B69     		ldr	r3, [r7, #16]
 5078 0040 12E0     		b	.L227
 5079              	.L226:
1676:..\..\..\lvgl\version_6.1.2\lvgl\src\lv_core/lv_obj.c ****         {
 5080              		.loc 2 1676 0 is_stmt 1 discriminator 2
 5081 0042 3B69     		ldr	r3, [r7, #16]
 5082 0044 2433     		adds	r3, r3, #36
 5083 0046 F968     		ldr	r1, [r7, #12]
 5084 0048 1846     		mov	r0, r3
 5085 004a FFF7FEFF 		bl	lv_ll_get_next
 5086 004e F860     		str	r0, [r7, #12]
 5087              	.L225:
1676:..\..\..\lvgl\version_6.1.2\lvgl\src\lv_core/lv_obj.c ****         {
 5088              		.loc 2 1676 0 is_stmt 0 discriminator 1
 5089 0050 FB68     		ldr	r3, [r7, #12]
 5090 0052 002B     		cmp	r3, #0
 5091 0054 EFD1     		bne	.L228
 5092              	.LBE9:
1673:..\..\..\lvgl\version_6.1.2\lvgl\src\lv_core/lv_obj.c ****     {
 5093              		.loc 2 1673 0 is_stmt 1 discriminator 2
 5094 0056 3969     		ldr	r1, [r7, #16]
ARM GAS  C:\Users\tmj32\AppData\Local\Temp\ccxLNxq9.s 			page 122


 5095 0058 0548     		ldr	r0, .L230
 5096 005a FFF7FEFF 		bl	lv_ll_get_next
 5097 005e 3861     		str	r0, [r7, #16]
 5098              	.L224:
1673:..\..\..\lvgl\version_6.1.2\lvgl\src\lv_core/lv_obj.c ****     {
 5099              		.loc 2 1673 0 is_stmt 0 discriminator 1
 5100 0060 3B69     		ldr	r3, [r7, #16]
 5101 0062 002B     		cmp	r3, #0
 5102 0064 E0D1     		bne	.L229
1679:..\..\..\lvgl\version_6.1.2\lvgl\src\lv_core/lv_obj.c ****         }
1680:..\..\..\lvgl\version_6.1.2\lvgl\src\lv_core/lv_obj.c ****     }
1681:..\..\..\lvgl\version_6.1.2\lvgl\src\lv_core/lv_obj.c **** 
1682:..\..\..\lvgl\version_6.1.2\lvgl\src\lv_core/lv_obj.c ****     LV_LOG_WARN("lv_scr_get_disp: screen not found")
1683:..\..\..\lvgl\version_6.1.2\lvgl\src\lv_core/lv_obj.c ****     return NULL;
 5103              		.loc 2 1683 0 is_stmt 1
 5104 0066 0023     		movs	r3, #0
 5105              	.L227:
1684:..\..\..\lvgl\version_6.1.2\lvgl\src\lv_core/lv_obj.c **** }
 5106              		.loc 2 1684 0
 5107 0068 1846     		mov	r0, r3
 5108 006a 1837     		adds	r7, r7, #24
 5109              		.cfi_def_cfa_offset 8
 5110 006c BD46     		mov	sp, r7
 5111              		.cfi_def_cfa_register 13
 5112              		@ sp needed
 5113 006e 80BD     		pop	{r7, pc}
 5114              	.L231:
 5115              		.align	2
 5116              	.L230:
 5117 0070 00000000 		.word	_lv_disp_ll
 5118              		.cfi_endproc
 5119              	.LFE83:
 5120              		.size	lv_obj_get_disp, .-lv_obj_get_disp
 5121              		.section	.text.lv_obj_get_parent,"ax",%progbits
 5122              		.align	2
 5123              		.global	lv_obj_get_parent
 5124              		.thumb
 5125              		.thumb_func
 5126              		.type	lv_obj_get_parent, %function
 5127              	lv_obj_get_parent:
 5128              	.LFB84:
1685:..\..\..\lvgl\version_6.1.2\lvgl\src\lv_core/lv_obj.c **** 
1686:..\..\..\lvgl\version_6.1.2\lvgl\src\lv_core/lv_obj.c **** /*---------------------
1687:..\..\..\lvgl\version_6.1.2\lvgl\src\lv_core/lv_obj.c ****  * Parent/children get
1688:..\..\..\lvgl\version_6.1.2\lvgl\src\lv_core/lv_obj.c ****  *--------------------*/
1689:..\..\..\lvgl\version_6.1.2\lvgl\src\lv_core/lv_obj.c **** 
1690:..\..\..\lvgl\version_6.1.2\lvgl\src\lv_core/lv_obj.c **** /**
1691:..\..\..\lvgl\version_6.1.2\lvgl\src\lv_core/lv_obj.c ****  * Returns with the parent of an object
1692:..\..\..\lvgl\version_6.1.2\lvgl\src\lv_core/lv_obj.c ****  * @param obj pointer to an object
1693:..\..\..\lvgl\version_6.1.2\lvgl\src\lv_core/lv_obj.c ****  * @return pointer to the parent of  'obj'
1694:..\..\..\lvgl\version_6.1.2\lvgl\src\lv_core/lv_obj.c ****  */
1695:..\..\..\lvgl\version_6.1.2\lvgl\src\lv_core/lv_obj.c **** lv_obj_t * lv_obj_get_parent(const lv_obj_t * obj)
1696:..\..\..\lvgl\version_6.1.2\lvgl\src\lv_core/lv_obj.c **** {
 5129              		.loc 2 1696 0
 5130              		.cfi_startproc
 5131              		@ args = 0, pretend = 0, frame = 8
 5132              		@ frame_needed = 1, uses_anonymous_args = 0
ARM GAS  C:\Users\tmj32\AppData\Local\Temp\ccxLNxq9.s 			page 123


 5133              		@ link register save eliminated.
 5134 0000 80B4     		push	{r7}
 5135              		.cfi_def_cfa_offset 4
 5136              		.cfi_offset 7, -4
 5137 0002 83B0     		sub	sp, sp, #12
 5138              		.cfi_def_cfa_offset 16
 5139 0004 00AF     		add	r7, sp, #0
 5140              		.cfi_def_cfa_register 7
 5141 0006 7860     		str	r0, [r7, #4]
1697:..\..\..\lvgl\version_6.1.2\lvgl\src\lv_core/lv_obj.c ****     LV_ASSERT_OBJ(obj, LV_OBJX_NAME);
1698:..\..\..\lvgl\version_6.1.2\lvgl\src\lv_core/lv_obj.c **** 
1699:..\..\..\lvgl\version_6.1.2\lvgl\src\lv_core/lv_obj.c ****     return obj->par;
 5142              		.loc 2 1699 0
 5143 0008 7B68     		ldr	r3, [r7, #4]
 5144 000a 1B68     		ldr	r3, [r3]
1700:..\..\..\lvgl\version_6.1.2\lvgl\src\lv_core/lv_obj.c **** }
 5145              		.loc 2 1700 0
 5146 000c 1846     		mov	r0, r3
 5147 000e 0C37     		adds	r7, r7, #12
 5148              		.cfi_def_cfa_offset 4
 5149 0010 BD46     		mov	sp, r7
 5150              		.cfi_def_cfa_register 13
 5151              		@ sp needed
 5152 0012 5DF8047B 		ldr	r7, [sp], #4
 5153              		.cfi_restore 7
 5154              		.cfi_def_cfa_offset 0
 5155 0016 7047     		bx	lr
 5156              		.cfi_endproc
 5157              	.LFE84:
 5158              		.size	lv_obj_get_parent, .-lv_obj_get_parent
 5159              		.section	.text.lv_obj_get_child,"ax",%progbits
 5160              		.align	2
 5161              		.global	lv_obj_get_child
 5162              		.thumb
 5163              		.thumb_func
 5164              		.type	lv_obj_get_child, %function
 5165              	lv_obj_get_child:
 5166              	.LFB85:
1701:..\..\..\lvgl\version_6.1.2\lvgl\src\lv_core/lv_obj.c **** 
1702:..\..\..\lvgl\version_6.1.2\lvgl\src\lv_core/lv_obj.c **** /**
1703:..\..\..\lvgl\version_6.1.2\lvgl\src\lv_core/lv_obj.c ****  * Iterate through the children of an object (start from the "youngest")
1704:..\..\..\lvgl\version_6.1.2\lvgl\src\lv_core/lv_obj.c ****  * @param obj pointer to an object
1705:..\..\..\lvgl\version_6.1.2\lvgl\src\lv_core/lv_obj.c ****  * @param child NULL at first call to get the next children
1706:..\..\..\lvgl\version_6.1.2\lvgl\src\lv_core/lv_obj.c ****  *                  and the previous return value later
1707:..\..\..\lvgl\version_6.1.2\lvgl\src\lv_core/lv_obj.c ****  * @return the child after 'act_child' or NULL if no more child
1708:..\..\..\lvgl\version_6.1.2\lvgl\src\lv_core/lv_obj.c ****  */
1709:..\..\..\lvgl\version_6.1.2\lvgl\src\lv_core/lv_obj.c **** lv_obj_t * lv_obj_get_child(const lv_obj_t * obj, const lv_obj_t * child)
1710:..\..\..\lvgl\version_6.1.2\lvgl\src\lv_core/lv_obj.c **** {
 5167              		.loc 2 1710 0
 5168              		.cfi_startproc
 5169              		@ args = 0, pretend = 0, frame = 16
 5170              		@ frame_needed = 1, uses_anonymous_args = 0
 5171 0000 80B5     		push	{r7, lr}
 5172              		.cfi_def_cfa_offset 8
 5173              		.cfi_offset 7, -8
 5174              		.cfi_offset 14, -4
 5175 0002 84B0     		sub	sp, sp, #16
ARM GAS  C:\Users\tmj32\AppData\Local\Temp\ccxLNxq9.s 			page 124


 5176              		.cfi_def_cfa_offset 24
 5177 0004 00AF     		add	r7, sp, #0
 5178              		.cfi_def_cfa_register 7
 5179 0006 7860     		str	r0, [r7, #4]
 5180 0008 3960     		str	r1, [r7]
1711:..\..\..\lvgl\version_6.1.2\lvgl\src\lv_core/lv_obj.c ****     LV_ASSERT_OBJ(obj, LV_OBJX_NAME);
1712:..\..\..\lvgl\version_6.1.2\lvgl\src\lv_core/lv_obj.c **** 
1713:..\..\..\lvgl\version_6.1.2\lvgl\src\lv_core/lv_obj.c ****     lv_obj_t * result = NULL;
 5181              		.loc 2 1713 0
 5182 000a 0023     		movs	r3, #0
 5183 000c FB60     		str	r3, [r7, #12]
1714:..\..\..\lvgl\version_6.1.2\lvgl\src\lv_core/lv_obj.c **** 
1715:..\..\..\lvgl\version_6.1.2\lvgl\src\lv_core/lv_obj.c ****     if(child == NULL) {
 5184              		.loc 2 1715 0
 5185 000e 3B68     		ldr	r3, [r7]
 5186 0010 002B     		cmp	r3, #0
 5187 0012 06D1     		bne	.L235
1716:..\..\..\lvgl\version_6.1.2\lvgl\src\lv_core/lv_obj.c ****         result = lv_ll_get_head(&obj->child_ll);
 5188              		.loc 2 1716 0
 5189 0014 7B68     		ldr	r3, [r7, #4]
 5190 0016 0433     		adds	r3, r3, #4
 5191 0018 1846     		mov	r0, r3
 5192 001a FFF7FEFF 		bl	lv_ll_get_head
 5193 001e F860     		str	r0, [r7, #12]
 5194 0020 06E0     		b	.L236
 5195              	.L235:
1717:..\..\..\lvgl\version_6.1.2\lvgl\src\lv_core/lv_obj.c ****     } else {
1718:..\..\..\lvgl\version_6.1.2\lvgl\src\lv_core/lv_obj.c ****         result = lv_ll_get_next(&obj->child_ll, child);
 5196              		.loc 2 1718 0
 5197 0022 7B68     		ldr	r3, [r7, #4]
 5198 0024 0433     		adds	r3, r3, #4
 5199 0026 3968     		ldr	r1, [r7]
 5200 0028 1846     		mov	r0, r3
 5201 002a FFF7FEFF 		bl	lv_ll_get_next
 5202 002e F860     		str	r0, [r7, #12]
 5203              	.L236:
1719:..\..\..\lvgl\version_6.1.2\lvgl\src\lv_core/lv_obj.c ****     }
1720:..\..\..\lvgl\version_6.1.2\lvgl\src\lv_core/lv_obj.c **** 
1721:..\..\..\lvgl\version_6.1.2\lvgl\src\lv_core/lv_obj.c ****     return result;
 5204              		.loc 2 1721 0
 5205 0030 FB68     		ldr	r3, [r7, #12]
1722:..\..\..\lvgl\version_6.1.2\lvgl\src\lv_core/lv_obj.c **** }
 5206              		.loc 2 1722 0
 5207 0032 1846     		mov	r0, r3
 5208 0034 1037     		adds	r7, r7, #16
 5209              		.cfi_def_cfa_offset 8
 5210 0036 BD46     		mov	sp, r7
 5211              		.cfi_def_cfa_register 13
 5212              		@ sp needed
 5213 0038 80BD     		pop	{r7, pc}
 5214              		.cfi_endproc
 5215              	.LFE85:
 5216              		.size	lv_obj_get_child, .-lv_obj_get_child
 5217 003a 00BF     		.section	.text.lv_obj_get_child_back,"ax",%progbits
 5218              		.align	2
 5219              		.global	lv_obj_get_child_back
 5220              		.thumb
ARM GAS  C:\Users\tmj32\AppData\Local\Temp\ccxLNxq9.s 			page 125


 5221              		.thumb_func
 5222              		.type	lv_obj_get_child_back, %function
 5223              	lv_obj_get_child_back:
 5224              	.LFB86:
1723:..\..\..\lvgl\version_6.1.2\lvgl\src\lv_core/lv_obj.c **** 
1724:..\..\..\lvgl\version_6.1.2\lvgl\src\lv_core/lv_obj.c **** /**
1725:..\..\..\lvgl\version_6.1.2\lvgl\src\lv_core/lv_obj.c ****  * Iterate through the children of an object (start from the "oldest")
1726:..\..\..\lvgl\version_6.1.2\lvgl\src\lv_core/lv_obj.c ****  * @param obj pointer to an object
1727:..\..\..\lvgl\version_6.1.2\lvgl\src\lv_core/lv_obj.c ****  * @param child NULL at first call to get the next children
1728:..\..\..\lvgl\version_6.1.2\lvgl\src\lv_core/lv_obj.c ****  *                  and the previous return value later
1729:..\..\..\lvgl\version_6.1.2\lvgl\src\lv_core/lv_obj.c ****  * @return the child after 'act_child' or NULL if no more child
1730:..\..\..\lvgl\version_6.1.2\lvgl\src\lv_core/lv_obj.c ****  */
1731:..\..\..\lvgl\version_6.1.2\lvgl\src\lv_core/lv_obj.c **** lv_obj_t * lv_obj_get_child_back(const lv_obj_t * obj, const lv_obj_t * child)
1732:..\..\..\lvgl\version_6.1.2\lvgl\src\lv_core/lv_obj.c **** {
 5225              		.loc 2 1732 0
 5226              		.cfi_startproc
 5227              		@ args = 0, pretend = 0, frame = 16
 5228              		@ frame_needed = 1, uses_anonymous_args = 0
 5229 0000 80B5     		push	{r7, lr}
 5230              		.cfi_def_cfa_offset 8
 5231              		.cfi_offset 7, -8
 5232              		.cfi_offset 14, -4
 5233 0002 84B0     		sub	sp, sp, #16
 5234              		.cfi_def_cfa_offset 24
 5235 0004 00AF     		add	r7, sp, #0
 5236              		.cfi_def_cfa_register 7
 5237 0006 7860     		str	r0, [r7, #4]
 5238 0008 3960     		str	r1, [r7]
1733:..\..\..\lvgl\version_6.1.2\lvgl\src\lv_core/lv_obj.c ****     LV_ASSERT_OBJ(obj, LV_OBJX_NAME);
1734:..\..\..\lvgl\version_6.1.2\lvgl\src\lv_core/lv_obj.c **** 
1735:..\..\..\lvgl\version_6.1.2\lvgl\src\lv_core/lv_obj.c ****     lv_obj_t * result = NULL;
 5239              		.loc 2 1735 0
 5240 000a 0023     		movs	r3, #0
 5241 000c FB60     		str	r3, [r7, #12]
1736:..\..\..\lvgl\version_6.1.2\lvgl\src\lv_core/lv_obj.c **** 
1737:..\..\..\lvgl\version_6.1.2\lvgl\src\lv_core/lv_obj.c ****     if(child == NULL) {
 5242              		.loc 2 1737 0
 5243 000e 3B68     		ldr	r3, [r7]
 5244 0010 002B     		cmp	r3, #0
 5245 0012 06D1     		bne	.L239
1738:..\..\..\lvgl\version_6.1.2\lvgl\src\lv_core/lv_obj.c ****         result = lv_ll_get_tail(&obj->child_ll);
 5246              		.loc 2 1738 0
 5247 0014 7B68     		ldr	r3, [r7, #4]
 5248 0016 0433     		adds	r3, r3, #4
 5249 0018 1846     		mov	r0, r3
 5250 001a FFF7FEFF 		bl	lv_ll_get_tail
 5251 001e F860     		str	r0, [r7, #12]
 5252 0020 06E0     		b	.L240
 5253              	.L239:
1739:..\..\..\lvgl\version_6.1.2\lvgl\src\lv_core/lv_obj.c ****     } else {
1740:..\..\..\lvgl\version_6.1.2\lvgl\src\lv_core/lv_obj.c ****         result = lv_ll_get_prev(&obj->child_ll, child);
 5254              		.loc 2 1740 0
 5255 0022 7B68     		ldr	r3, [r7, #4]
 5256 0024 0433     		adds	r3, r3, #4
 5257 0026 3968     		ldr	r1, [r7]
 5258 0028 1846     		mov	r0, r3
 5259 002a FFF7FEFF 		bl	lv_ll_get_prev
ARM GAS  C:\Users\tmj32\AppData\Local\Temp\ccxLNxq9.s 			page 126


 5260 002e F860     		str	r0, [r7, #12]
 5261              	.L240:
1741:..\..\..\lvgl\version_6.1.2\lvgl\src\lv_core/lv_obj.c ****     }
1742:..\..\..\lvgl\version_6.1.2\lvgl\src\lv_core/lv_obj.c **** 
1743:..\..\..\lvgl\version_6.1.2\lvgl\src\lv_core/lv_obj.c ****     return result;
 5262              		.loc 2 1743 0
 5263 0030 FB68     		ldr	r3, [r7, #12]
1744:..\..\..\lvgl\version_6.1.2\lvgl\src\lv_core/lv_obj.c **** }
 5264              		.loc 2 1744 0
 5265 0032 1846     		mov	r0, r3
 5266 0034 1037     		adds	r7, r7, #16
 5267              		.cfi_def_cfa_offset 8
 5268 0036 BD46     		mov	sp, r7
 5269              		.cfi_def_cfa_register 13
 5270              		@ sp needed
 5271 0038 80BD     		pop	{r7, pc}
 5272              		.cfi_endproc
 5273              	.LFE86:
 5274              		.size	lv_obj_get_child_back, .-lv_obj_get_child_back
 5275 003a 00BF     		.section	.text.lv_obj_count_children,"ax",%progbits
 5276              		.align	2
 5277              		.global	lv_obj_count_children
 5278              		.thumb
 5279              		.thumb_func
 5280              		.type	lv_obj_count_children, %function
 5281              	lv_obj_count_children:
 5282              	.LFB87:
1745:..\..\..\lvgl\version_6.1.2\lvgl\src\lv_core/lv_obj.c **** 
1746:..\..\..\lvgl\version_6.1.2\lvgl\src\lv_core/lv_obj.c **** /**
1747:..\..\..\lvgl\version_6.1.2\lvgl\src\lv_core/lv_obj.c ****  * Count the children of an object (only children directly on 'obj')
1748:..\..\..\lvgl\version_6.1.2\lvgl\src\lv_core/lv_obj.c ****  * @param obj pointer to an object
1749:..\..\..\lvgl\version_6.1.2\lvgl\src\lv_core/lv_obj.c ****  * @return children number of 'obj'
1750:..\..\..\lvgl\version_6.1.2\lvgl\src\lv_core/lv_obj.c ****  */
1751:..\..\..\lvgl\version_6.1.2\lvgl\src\lv_core/lv_obj.c **** uint16_t lv_obj_count_children(const lv_obj_t * obj)
1752:..\..\..\lvgl\version_6.1.2\lvgl\src\lv_core/lv_obj.c **** {
 5283              		.loc 2 1752 0
 5284              		.cfi_startproc
 5285              		@ args = 0, pretend = 0, frame = 16
 5286              		@ frame_needed = 1, uses_anonymous_args = 0
 5287 0000 80B5     		push	{r7, lr}
 5288              		.cfi_def_cfa_offset 8
 5289              		.cfi_offset 7, -8
 5290              		.cfi_offset 14, -4
 5291 0002 84B0     		sub	sp, sp, #16
 5292              		.cfi_def_cfa_offset 24
 5293 0004 00AF     		add	r7, sp, #0
 5294              		.cfi_def_cfa_register 7
 5295 0006 7860     		str	r0, [r7, #4]
1753:..\..\..\lvgl\version_6.1.2\lvgl\src\lv_core/lv_obj.c ****     LV_ASSERT_OBJ(obj, LV_OBJX_NAME);
1754:..\..\..\lvgl\version_6.1.2\lvgl\src\lv_core/lv_obj.c **** 
1755:..\..\..\lvgl\version_6.1.2\lvgl\src\lv_core/lv_obj.c ****     lv_obj_t * i;
1756:..\..\..\lvgl\version_6.1.2\lvgl\src\lv_core/lv_obj.c ****     uint16_t cnt = 0;
 5296              		.loc 2 1756 0
 5297 0008 0023     		movs	r3, #0
 5298 000a 7B81     		strh	r3, [r7, #10]	@ movhi
1757:..\..\..\lvgl\version_6.1.2\lvgl\src\lv_core/lv_obj.c **** 
1758:..\..\..\lvgl\version_6.1.2\lvgl\src\lv_core/lv_obj.c ****     LV_LL_READ(obj->child_ll, i) cnt++;
ARM GAS  C:\Users\tmj32\AppData\Local\Temp\ccxLNxq9.s 			page 127


 5299              		.loc 2 1758 0
 5300 000c 7B68     		ldr	r3, [r7, #4]
 5301 000e 0433     		adds	r3, r3, #4
 5302 0010 1846     		mov	r0, r3
 5303 0012 FFF7FEFF 		bl	lv_ll_get_head
 5304 0016 F860     		str	r0, [r7, #12]
 5305 0018 09E0     		b	.L243
 5306              	.L244:
 5307              		.loc 2 1758 0 is_stmt 0 discriminator 3
 5308 001a 7B89     		ldrh	r3, [r7, #10]
 5309 001c 0133     		adds	r3, r3, #1
 5310 001e 7B81     		strh	r3, [r7, #10]	@ movhi
 5311 0020 7B68     		ldr	r3, [r7, #4]
 5312 0022 0433     		adds	r3, r3, #4
 5313 0024 F968     		ldr	r1, [r7, #12]
 5314 0026 1846     		mov	r0, r3
 5315 0028 FFF7FEFF 		bl	lv_ll_get_next
 5316 002c F860     		str	r0, [r7, #12]
 5317              	.L243:
 5318              		.loc 2 1758 0 discriminator 1
 5319 002e FB68     		ldr	r3, [r7, #12]
 5320 0030 002B     		cmp	r3, #0
 5321 0032 F2D1     		bne	.L244
1759:..\..\..\lvgl\version_6.1.2\lvgl\src\lv_core/lv_obj.c **** 
1760:..\..\..\lvgl\version_6.1.2\lvgl\src\lv_core/lv_obj.c ****     return cnt;
 5322              		.loc 2 1760 0 is_stmt 1
 5323 0034 7B89     		ldrh	r3, [r7, #10]
1761:..\..\..\lvgl\version_6.1.2\lvgl\src\lv_core/lv_obj.c **** }
 5324              		.loc 2 1761 0
 5325 0036 1846     		mov	r0, r3
 5326 0038 1037     		adds	r7, r7, #16
 5327              		.cfi_def_cfa_offset 8
 5328 003a BD46     		mov	sp, r7
 5329              		.cfi_def_cfa_register 13
 5330              		@ sp needed
 5331 003c 80BD     		pop	{r7, pc}
 5332              		.cfi_endproc
 5333              	.LFE87:
 5334              		.size	lv_obj_count_children, .-lv_obj_count_children
 5335 003e 00BF     		.section	.text.lv_obj_count_children_recursive,"ax",%progbits
 5336              		.align	2
 5337              		.global	lv_obj_count_children_recursive
 5338              		.thumb
 5339              		.thumb_func
 5340              		.type	lv_obj_count_children_recursive, %function
 5341              	lv_obj_count_children_recursive:
 5342              	.LFB88:
1762:..\..\..\lvgl\version_6.1.2\lvgl\src\lv_core/lv_obj.c **** 
1763:..\..\..\lvgl\version_6.1.2\lvgl\src\lv_core/lv_obj.c **** /** Recursively count the children of an object
1764:..\..\..\lvgl\version_6.1.2\lvgl\src\lv_core/lv_obj.c ****  * @param obj pointer to an object
1765:..\..\..\lvgl\version_6.1.2\lvgl\src\lv_core/lv_obj.c ****  * @return children number of 'obj'
1766:..\..\..\lvgl\version_6.1.2\lvgl\src\lv_core/lv_obj.c ****  */
1767:..\..\..\lvgl\version_6.1.2\lvgl\src\lv_core/lv_obj.c **** uint16_t lv_obj_count_children_recursive(const lv_obj_t * obj)
1768:..\..\..\lvgl\version_6.1.2\lvgl\src\lv_core/lv_obj.c **** {
 5343              		.loc 2 1768 0
 5344              		.cfi_startproc
 5345              		@ args = 0, pretend = 0, frame = 16
ARM GAS  C:\Users\tmj32\AppData\Local\Temp\ccxLNxq9.s 			page 128


 5346              		@ frame_needed = 1, uses_anonymous_args = 0
 5347 0000 80B5     		push	{r7, lr}
 5348              		.cfi_def_cfa_offset 8
 5349              		.cfi_offset 7, -8
 5350              		.cfi_offset 14, -4
 5351 0002 84B0     		sub	sp, sp, #16
 5352              		.cfi_def_cfa_offset 24
 5353 0004 00AF     		add	r7, sp, #0
 5354              		.cfi_def_cfa_register 7
 5355 0006 7860     		str	r0, [r7, #4]
1769:..\..\..\lvgl\version_6.1.2\lvgl\src\lv_core/lv_obj.c ****     LV_ASSERT_OBJ(obj, LV_OBJX_NAME);
1770:..\..\..\lvgl\version_6.1.2\lvgl\src\lv_core/lv_obj.c **** 
1771:..\..\..\lvgl\version_6.1.2\lvgl\src\lv_core/lv_obj.c ****     lv_obj_t * i;
1772:..\..\..\lvgl\version_6.1.2\lvgl\src\lv_core/lv_obj.c ****     uint16_t cnt = 0;
 5356              		.loc 2 1772 0
 5357 0008 0023     		movs	r3, #0
 5358 000a 7B81     		strh	r3, [r7, #10]	@ movhi
1773:..\..\..\lvgl\version_6.1.2\lvgl\src\lv_core/lv_obj.c **** 
1774:..\..\..\lvgl\version_6.1.2\lvgl\src\lv_core/lv_obj.c ****     LV_LL_READ(obj->child_ll, i)
 5359              		.loc 2 1774 0
 5360 000c 7B68     		ldr	r3, [r7, #4]
 5361 000e 0433     		adds	r3, r3, #4
 5362 0010 1846     		mov	r0, r3
 5363 0012 FFF7FEFF 		bl	lv_ll_get_head
 5364 0016 F860     		str	r0, [r7, #12]
 5365 0018 11E0     		b	.L247
 5366              	.L248:
1775:..\..\..\lvgl\version_6.1.2\lvgl\src\lv_core/lv_obj.c ****     {
1776:..\..\..\lvgl\version_6.1.2\lvgl\src\lv_core/lv_obj.c ****         cnt++;                                     /*Count the child*/
 5367              		.loc 2 1776 0 discriminator 3
 5368 001a 7B89     		ldrh	r3, [r7, #10]
 5369 001c 0133     		adds	r3, r3, #1
 5370 001e 7B81     		strh	r3, [r7, #10]	@ movhi
1777:..\..\..\lvgl\version_6.1.2\lvgl\src\lv_core/lv_obj.c ****         cnt += lv_obj_count_children_recursive(i); /*recursively count children's children*/
 5371              		.loc 2 1777 0 discriminator 3
 5372 0020 F868     		ldr	r0, [r7, #12]
 5373 0022 FFF7FEFF 		bl	lv_obj_count_children_recursive
 5374 0026 0346     		mov	r3, r0
 5375 0028 1A46     		mov	r2, r3
 5376 002a 7B89     		ldrh	r3, [r7, #10]	@ movhi
 5377 002c 1344     		add	r3, r3, r2
 5378 002e 7B81     		strh	r3, [r7, #10]	@ movhi
1774:..\..\..\lvgl\version_6.1.2\lvgl\src\lv_core/lv_obj.c ****     {
 5379              		.loc 2 1774 0 discriminator 3
 5380 0030 7B68     		ldr	r3, [r7, #4]
 5381 0032 0433     		adds	r3, r3, #4
 5382 0034 F968     		ldr	r1, [r7, #12]
 5383 0036 1846     		mov	r0, r3
 5384 0038 FFF7FEFF 		bl	lv_ll_get_next
 5385 003c F860     		str	r0, [r7, #12]
 5386              	.L247:
1774:..\..\..\lvgl\version_6.1.2\lvgl\src\lv_core/lv_obj.c ****     {
 5387              		.loc 2 1774 0 is_stmt 0 discriminator 1
 5388 003e FB68     		ldr	r3, [r7, #12]
 5389 0040 002B     		cmp	r3, #0
 5390 0042 EAD1     		bne	.L248
1778:..\..\..\lvgl\version_6.1.2\lvgl\src\lv_core/lv_obj.c ****     }
ARM GAS  C:\Users\tmj32\AppData\Local\Temp\ccxLNxq9.s 			page 129


1779:..\..\..\lvgl\version_6.1.2\lvgl\src\lv_core/lv_obj.c **** 
1780:..\..\..\lvgl\version_6.1.2\lvgl\src\lv_core/lv_obj.c ****     return cnt;
 5391              		.loc 2 1780 0 is_stmt 1
 5392 0044 7B89     		ldrh	r3, [r7, #10]
1781:..\..\..\lvgl\version_6.1.2\lvgl\src\lv_core/lv_obj.c **** }
 5393              		.loc 2 1781 0
 5394 0046 1846     		mov	r0, r3
 5395 0048 1037     		adds	r7, r7, #16
 5396              		.cfi_def_cfa_offset 8
 5397 004a BD46     		mov	sp, r7
 5398              		.cfi_def_cfa_register 13
 5399              		@ sp needed
 5400 004c 80BD     		pop	{r7, pc}
 5401              		.cfi_endproc
 5402              	.LFE88:
 5403              		.size	lv_obj_count_children_recursive, .-lv_obj_count_children_recursive
 5404 004e 00BF     		.section	.text.lv_obj_get_coords,"ax",%progbits
 5405              		.align	2
 5406              		.global	lv_obj_get_coords
 5407              		.thumb
 5408              		.thumb_func
 5409              		.type	lv_obj_get_coords, %function
 5410              	lv_obj_get_coords:
 5411              	.LFB89:
1782:..\..\..\lvgl\version_6.1.2\lvgl\src\lv_core/lv_obj.c **** 
1783:..\..\..\lvgl\version_6.1.2\lvgl\src\lv_core/lv_obj.c **** /*---------------------
1784:..\..\..\lvgl\version_6.1.2\lvgl\src\lv_core/lv_obj.c ****  * Coordinate get
1785:..\..\..\lvgl\version_6.1.2\lvgl\src\lv_core/lv_obj.c ****  *--------------------*/
1786:..\..\..\lvgl\version_6.1.2\lvgl\src\lv_core/lv_obj.c **** 
1787:..\..\..\lvgl\version_6.1.2\lvgl\src\lv_core/lv_obj.c **** /**
1788:..\..\..\lvgl\version_6.1.2\lvgl\src\lv_core/lv_obj.c ****  * Copy the coordinates of an object to an area
1789:..\..\..\lvgl\version_6.1.2\lvgl\src\lv_core/lv_obj.c ****  * @param obj pointer to an object
1790:..\..\..\lvgl\version_6.1.2\lvgl\src\lv_core/lv_obj.c ****  * @param cords_p pointer to an area to store the coordinates
1791:..\..\..\lvgl\version_6.1.2\lvgl\src\lv_core/lv_obj.c ****  */
1792:..\..\..\lvgl\version_6.1.2\lvgl\src\lv_core/lv_obj.c **** void lv_obj_get_coords(const lv_obj_t * obj, lv_area_t * cords_p)
1793:..\..\..\lvgl\version_6.1.2\lvgl\src\lv_core/lv_obj.c **** {
 5412              		.loc 2 1793 0
 5413              		.cfi_startproc
 5414              		@ args = 0, pretend = 0, frame = 8
 5415              		@ frame_needed = 1, uses_anonymous_args = 0
 5416 0000 80B5     		push	{r7, lr}
 5417              		.cfi_def_cfa_offset 8
 5418              		.cfi_offset 7, -8
 5419              		.cfi_offset 14, -4
 5420 0002 82B0     		sub	sp, sp, #8
 5421              		.cfi_def_cfa_offset 16
 5422 0004 00AF     		add	r7, sp, #0
 5423              		.cfi_def_cfa_register 7
 5424 0006 7860     		str	r0, [r7, #4]
 5425 0008 3960     		str	r1, [r7]
1794:..\..\..\lvgl\version_6.1.2\lvgl\src\lv_core/lv_obj.c ****     LV_ASSERT_OBJ(obj, LV_OBJX_NAME);
1795:..\..\..\lvgl\version_6.1.2\lvgl\src\lv_core/lv_obj.c **** 
1796:..\..\..\lvgl\version_6.1.2\lvgl\src\lv_core/lv_obj.c ****     lv_area_copy(cords_p, &obj->coords);
 5426              		.loc 2 1796 0
 5427 000a 7B68     		ldr	r3, [r7, #4]
 5428 000c 1033     		adds	r3, r3, #16
 5429 000e 1946     		mov	r1, r3
ARM GAS  C:\Users\tmj32\AppData\Local\Temp\ccxLNxq9.s 			page 130


 5430 0010 3868     		ldr	r0, [r7]
 5431 0012 FFF7FEFF 		bl	lv_area_copy
1797:..\..\..\lvgl\version_6.1.2\lvgl\src\lv_core/lv_obj.c **** }
 5432              		.loc 2 1797 0
 5433 0016 00BF     		nop
 5434 0018 0837     		adds	r7, r7, #8
 5435              		.cfi_def_cfa_offset 8
 5436 001a BD46     		mov	sp, r7
 5437              		.cfi_def_cfa_register 13
 5438              		@ sp needed
 5439 001c 80BD     		pop	{r7, pc}
 5440              		.cfi_endproc
 5441              	.LFE89:
 5442              		.size	lv_obj_get_coords, .-lv_obj_get_coords
 5443 001e 00BF     		.section	.text.lv_obj_get_inner_coords,"ax",%progbits
 5444              		.align	2
 5445              		.global	lv_obj_get_inner_coords
 5446              		.thumb
 5447              		.thumb_func
 5448              		.type	lv_obj_get_inner_coords, %function
 5449              	lv_obj_get_inner_coords:
 5450              	.LFB90:
1798:..\..\..\lvgl\version_6.1.2\lvgl\src\lv_core/lv_obj.c **** 
1799:..\..\..\lvgl\version_6.1.2\lvgl\src\lv_core/lv_obj.c **** /**
1800:..\..\..\lvgl\version_6.1.2\lvgl\src\lv_core/lv_obj.c ****  * Reduce area retried by `lv_obj_get_coords()` the get graphically usable area of an object.
1801:..\..\..\lvgl\version_6.1.2\lvgl\src\lv_core/lv_obj.c ****  * (Without the size of the border or other extra graphical elements)
1802:..\..\..\lvgl\version_6.1.2\lvgl\src\lv_core/lv_obj.c ****  * @param coords_p store the result area here
1803:..\..\..\lvgl\version_6.1.2\lvgl\src\lv_core/lv_obj.c ****  */
1804:..\..\..\lvgl\version_6.1.2\lvgl\src\lv_core/lv_obj.c **** void lv_obj_get_inner_coords(const lv_obj_t * obj, lv_area_t * coords_p)
1805:..\..\..\lvgl\version_6.1.2\lvgl\src\lv_core/lv_obj.c **** {
 5451              		.loc 2 1805 0
 5452              		.cfi_startproc
 5453              		@ args = 0, pretend = 0, frame = 16
 5454              		@ frame_needed = 1, uses_anonymous_args = 0
 5455 0000 80B5     		push	{r7, lr}
 5456              		.cfi_def_cfa_offset 8
 5457              		.cfi_offset 7, -8
 5458              		.cfi_offset 14, -4
 5459 0002 84B0     		sub	sp, sp, #16
 5460              		.cfi_def_cfa_offset 24
 5461 0004 00AF     		add	r7, sp, #0
 5462              		.cfi_def_cfa_register 7
 5463 0006 7860     		str	r0, [r7, #4]
 5464 0008 3960     		str	r1, [r7]
1806:..\..\..\lvgl\version_6.1.2\lvgl\src\lv_core/lv_obj.c ****     LV_ASSERT_OBJ(obj, LV_OBJX_NAME);
1807:..\..\..\lvgl\version_6.1.2\lvgl\src\lv_core/lv_obj.c **** 
1808:..\..\..\lvgl\version_6.1.2\lvgl\src\lv_core/lv_obj.c ****     const lv_style_t * style = lv_obj_get_style(obj);
 5465              		.loc 2 1808 0
 5466 000a 7868     		ldr	r0, [r7, #4]
 5467 000c FFF7FEFF 		bl	lv_obj_get_style
 5468 0010 F860     		str	r0, [r7, #12]
1809:..\..\..\lvgl\version_6.1.2\lvgl\src\lv_core/lv_obj.c ****     if(style->body.border.part & LV_BORDER_LEFT) coords_p->x1 += style->body.border.width;
 5469              		.loc 2 1809 0
 5470 0012 FB68     		ldr	r3, [r7, #12]
 5471 0014 9B7D     		ldrb	r3, [r3, #22]	@ zero_extendqisi2
 5472 0016 03F00403 		and	r3, r3, #4
 5473 001a 002B     		cmp	r3, #0
ARM GAS  C:\Users\tmj32\AppData\Local\Temp\ccxLNxq9.s 			page 131


 5474 001c 0CD0     		beq	.L252
 5475              		.loc 2 1809 0 is_stmt 0 discriminator 1
 5476 001e 3B68     		ldr	r3, [r7]
 5477 0020 B3F90030 		ldrsh	r3, [r3]
 5478 0024 9AB2     		uxth	r2, r3
 5479 0026 FB68     		ldr	r3, [r7, #12]
 5480 0028 B3F91430 		ldrsh	r3, [r3, #20]
 5481 002c 9BB2     		uxth	r3, r3
 5482 002e 1344     		add	r3, r3, r2
 5483 0030 9BB2     		uxth	r3, r3
 5484 0032 1AB2     		sxth	r2, r3
 5485 0034 3B68     		ldr	r3, [r7]
 5486 0036 1A80     		strh	r2, [r3]	@ movhi
 5487              	.L252:
1810:..\..\..\lvgl\version_6.1.2\lvgl\src\lv_core/lv_obj.c **** 
1811:..\..\..\lvgl\version_6.1.2\lvgl\src\lv_core/lv_obj.c ****     if(style->body.border.part & LV_BORDER_RIGHT) coords_p->x2 -= style->body.border.width;
 5488              		.loc 2 1811 0 is_stmt 1
 5489 0038 FB68     		ldr	r3, [r7, #12]
 5490 003a 9B7D     		ldrb	r3, [r3, #22]	@ zero_extendqisi2
 5491 003c 03F00803 		and	r3, r3, #8
 5492 0040 002B     		cmp	r3, #0
 5493 0042 0CD0     		beq	.L253
 5494              		.loc 2 1811 0 is_stmt 0 discriminator 1
 5495 0044 3B68     		ldr	r3, [r7]
 5496 0046 B3F90430 		ldrsh	r3, [r3, #4]
 5497 004a 9AB2     		uxth	r2, r3
 5498 004c FB68     		ldr	r3, [r7, #12]
 5499 004e B3F91430 		ldrsh	r3, [r3, #20]
 5500 0052 9BB2     		uxth	r3, r3
 5501 0054 D31A     		subs	r3, r2, r3
 5502 0056 9BB2     		uxth	r3, r3
 5503 0058 1AB2     		sxth	r2, r3
 5504 005a 3B68     		ldr	r3, [r7]
 5505 005c 9A80     		strh	r2, [r3, #4]	@ movhi
 5506              	.L253:
1812:..\..\..\lvgl\version_6.1.2\lvgl\src\lv_core/lv_obj.c **** 
1813:..\..\..\lvgl\version_6.1.2\lvgl\src\lv_core/lv_obj.c ****     if(style->body.border.part & LV_BORDER_TOP) coords_p->y1 += style->body.border.width;
 5507              		.loc 2 1813 0 is_stmt 1
 5508 005e FB68     		ldr	r3, [r7, #12]
 5509 0060 9B7D     		ldrb	r3, [r3, #22]	@ zero_extendqisi2
 5510 0062 03F00203 		and	r3, r3, #2
 5511 0066 002B     		cmp	r3, #0
 5512 0068 0CD0     		beq	.L254
 5513              		.loc 2 1813 0 is_stmt 0 discriminator 1
 5514 006a 3B68     		ldr	r3, [r7]
 5515 006c B3F90230 		ldrsh	r3, [r3, #2]
 5516 0070 9AB2     		uxth	r2, r3
 5517 0072 FB68     		ldr	r3, [r7, #12]
 5518 0074 B3F91430 		ldrsh	r3, [r3, #20]
 5519 0078 9BB2     		uxth	r3, r3
 5520 007a 1344     		add	r3, r3, r2
 5521 007c 9BB2     		uxth	r3, r3
 5522 007e 1AB2     		sxth	r2, r3
 5523 0080 3B68     		ldr	r3, [r7]
 5524 0082 5A80     		strh	r2, [r3, #2]	@ movhi
 5525              	.L254:
1814:..\..\..\lvgl\version_6.1.2\lvgl\src\lv_core/lv_obj.c **** 
ARM GAS  C:\Users\tmj32\AppData\Local\Temp\ccxLNxq9.s 			page 132


1815:..\..\..\lvgl\version_6.1.2\lvgl\src\lv_core/lv_obj.c ****     if(style->body.border.part & LV_BORDER_BOTTOM) coords_p->y2 -= style->body.border.width;
 5526              		.loc 2 1815 0 is_stmt 1
 5527 0084 FB68     		ldr	r3, [r7, #12]
 5528 0086 9B7D     		ldrb	r3, [r3, #22]	@ zero_extendqisi2
 5529 0088 03F00103 		and	r3, r3, #1
 5530 008c 002B     		cmp	r3, #0
 5531 008e 0CD0     		beq	.L256
 5532              		.loc 2 1815 0 is_stmt 0 discriminator 1
 5533 0090 3B68     		ldr	r3, [r7]
 5534 0092 B3F90630 		ldrsh	r3, [r3, #6]
 5535 0096 9AB2     		uxth	r2, r3
 5536 0098 FB68     		ldr	r3, [r7, #12]
 5537 009a B3F91430 		ldrsh	r3, [r3, #20]
 5538 009e 9BB2     		uxth	r3, r3
 5539 00a0 D31A     		subs	r3, r2, r3
 5540 00a2 9BB2     		uxth	r3, r3
 5541 00a4 1AB2     		sxth	r2, r3
 5542 00a6 3B68     		ldr	r3, [r7]
 5543 00a8 DA80     		strh	r2, [r3, #6]	@ movhi
 5544              	.L256:
1816:..\..\..\lvgl\version_6.1.2\lvgl\src\lv_core/lv_obj.c **** }
 5545              		.loc 2 1816 0 is_stmt 1
 5546 00aa 00BF     		nop
 5547 00ac 1037     		adds	r7, r7, #16
 5548              		.cfi_def_cfa_offset 8
 5549 00ae BD46     		mov	sp, r7
 5550              		.cfi_def_cfa_register 13
 5551              		@ sp needed
 5552 00b0 80BD     		pop	{r7, pc}
 5553              		.cfi_endproc
 5554              	.LFE90:
 5555              		.size	lv_obj_get_inner_coords, .-lv_obj_get_inner_coords
 5556 00b2 00BF     		.section	.text.lv_obj_get_x,"ax",%progbits
 5557              		.align	2
 5558              		.global	lv_obj_get_x
 5559              		.thumb
 5560              		.thumb_func
 5561              		.type	lv_obj_get_x, %function
 5562              	lv_obj_get_x:
 5563              	.LFB91:
1817:..\..\..\lvgl\version_6.1.2\lvgl\src\lv_core/lv_obj.c **** 
1818:..\..\..\lvgl\version_6.1.2\lvgl\src\lv_core/lv_obj.c **** /**
1819:..\..\..\lvgl\version_6.1.2\lvgl\src\lv_core/lv_obj.c ****  * Get the x coordinate of object
1820:..\..\..\lvgl\version_6.1.2\lvgl\src\lv_core/lv_obj.c ****  * @param obj pointer to an object
1821:..\..\..\lvgl\version_6.1.2\lvgl\src\lv_core/lv_obj.c ****  * @return distance of 'obj' from the left side of its parent
1822:..\..\..\lvgl\version_6.1.2\lvgl\src\lv_core/lv_obj.c ****  */
1823:..\..\..\lvgl\version_6.1.2\lvgl\src\lv_core/lv_obj.c **** lv_coord_t lv_obj_get_x(const lv_obj_t * obj)
1824:..\..\..\lvgl\version_6.1.2\lvgl\src\lv_core/lv_obj.c **** {
 5564              		.loc 2 1824 0
 5565              		.cfi_startproc
 5566              		@ args = 0, pretend = 0, frame = 16
 5567              		@ frame_needed = 1, uses_anonymous_args = 0
 5568 0000 80B5     		push	{r7, lr}
 5569              		.cfi_def_cfa_offset 8
 5570              		.cfi_offset 7, -8
 5571              		.cfi_offset 14, -4
 5572 0002 84B0     		sub	sp, sp, #16
ARM GAS  C:\Users\tmj32\AppData\Local\Temp\ccxLNxq9.s 			page 133


 5573              		.cfi_def_cfa_offset 24
 5574 0004 00AF     		add	r7, sp, #0
 5575              		.cfi_def_cfa_register 7
 5576 0006 7860     		str	r0, [r7, #4]
1825:..\..\..\lvgl\version_6.1.2\lvgl\src\lv_core/lv_obj.c ****     LV_ASSERT_OBJ(obj, LV_OBJX_NAME);
1826:..\..\..\lvgl\version_6.1.2\lvgl\src\lv_core/lv_obj.c **** 
1827:..\..\..\lvgl\version_6.1.2\lvgl\src\lv_core/lv_obj.c ****     lv_coord_t rel_x;
1828:..\..\..\lvgl\version_6.1.2\lvgl\src\lv_core/lv_obj.c ****     lv_obj_t * parent = lv_obj_get_parent(obj);
 5577              		.loc 2 1828 0
 5578 0008 7868     		ldr	r0, [r7, #4]
 5579 000a FFF7FEFF 		bl	lv_obj_get_parent
 5580 000e B860     		str	r0, [r7, #8]
1829:..\..\..\lvgl\version_6.1.2\lvgl\src\lv_core/lv_obj.c ****     if(parent) {
 5581              		.loc 2 1829 0
 5582 0010 BB68     		ldr	r3, [r7, #8]
 5583 0012 002B     		cmp	r3, #0
 5584 0014 0BD0     		beq	.L258
1830:..\..\..\lvgl\version_6.1.2\lvgl\src\lv_core/lv_obj.c ****         rel_x             = obj->coords.x1 - parent->coords.x1;
 5585              		.loc 2 1830 0
 5586 0016 7B68     		ldr	r3, [r7, #4]
 5587 0018 B3F91030 		ldrsh	r3, [r3, #16]
 5588 001c 9AB2     		uxth	r2, r3
 5589 001e BB68     		ldr	r3, [r7, #8]
 5590 0020 B3F91030 		ldrsh	r3, [r3, #16]
 5591 0024 9BB2     		uxth	r3, r3
 5592 0026 D31A     		subs	r3, r2, r3
 5593 0028 9BB2     		uxth	r3, r3
 5594 002a FB81     		strh	r3, [r7, #14]	@ movhi
 5595 002c 02E0     		b	.L259
 5596              	.L258:
1831:..\..\..\lvgl\version_6.1.2\lvgl\src\lv_core/lv_obj.c ****     } else {
1832:..\..\..\lvgl\version_6.1.2\lvgl\src\lv_core/lv_obj.c ****         rel_x = obj->coords.x1;
 5597              		.loc 2 1832 0
 5598 002e 7B68     		ldr	r3, [r7, #4]
 5599 0030 1B8A     		ldrh	r3, [r3, #16]	@ movhi
 5600 0032 FB81     		strh	r3, [r7, #14]	@ movhi
 5601              	.L259:
1833:..\..\..\lvgl\version_6.1.2\lvgl\src\lv_core/lv_obj.c ****     }
1834:..\..\..\lvgl\version_6.1.2\lvgl\src\lv_core/lv_obj.c ****     return rel_x;
 5602              		.loc 2 1834 0
 5603 0034 B7F90E30 		ldrsh	r3, [r7, #14]
1835:..\..\..\lvgl\version_6.1.2\lvgl\src\lv_core/lv_obj.c **** }
 5604              		.loc 2 1835 0
 5605 0038 1846     		mov	r0, r3
 5606 003a 1037     		adds	r7, r7, #16
 5607              		.cfi_def_cfa_offset 8
 5608 003c BD46     		mov	sp, r7
 5609              		.cfi_def_cfa_register 13
 5610              		@ sp needed
 5611 003e 80BD     		pop	{r7, pc}
 5612              		.cfi_endproc
 5613              	.LFE91:
 5614              		.size	lv_obj_get_x, .-lv_obj_get_x
 5615              		.section	.text.lv_obj_get_y,"ax",%progbits
 5616              		.align	2
 5617              		.global	lv_obj_get_y
 5618              		.thumb
ARM GAS  C:\Users\tmj32\AppData\Local\Temp\ccxLNxq9.s 			page 134


 5619              		.thumb_func
 5620              		.type	lv_obj_get_y, %function
 5621              	lv_obj_get_y:
 5622              	.LFB92:
1836:..\..\..\lvgl\version_6.1.2\lvgl\src\lv_core/lv_obj.c **** 
1837:..\..\..\lvgl\version_6.1.2\lvgl\src\lv_core/lv_obj.c **** /**
1838:..\..\..\lvgl\version_6.1.2\lvgl\src\lv_core/lv_obj.c ****  * Get the y coordinate of object
1839:..\..\..\lvgl\version_6.1.2\lvgl\src\lv_core/lv_obj.c ****  * @param obj pointer to an object
1840:..\..\..\lvgl\version_6.1.2\lvgl\src\lv_core/lv_obj.c ****  * @return distance of 'obj' from the top of its parent
1841:..\..\..\lvgl\version_6.1.2\lvgl\src\lv_core/lv_obj.c ****  */
1842:..\..\..\lvgl\version_6.1.2\lvgl\src\lv_core/lv_obj.c **** lv_coord_t lv_obj_get_y(const lv_obj_t * obj)
1843:..\..\..\lvgl\version_6.1.2\lvgl\src\lv_core/lv_obj.c **** {
 5623              		.loc 2 1843 0
 5624              		.cfi_startproc
 5625              		@ args = 0, pretend = 0, frame = 16
 5626              		@ frame_needed = 1, uses_anonymous_args = 0
 5627 0000 80B5     		push	{r7, lr}
 5628              		.cfi_def_cfa_offset 8
 5629              		.cfi_offset 7, -8
 5630              		.cfi_offset 14, -4
 5631 0002 84B0     		sub	sp, sp, #16
 5632              		.cfi_def_cfa_offset 24
 5633 0004 00AF     		add	r7, sp, #0
 5634              		.cfi_def_cfa_register 7
 5635 0006 7860     		str	r0, [r7, #4]
1844:..\..\..\lvgl\version_6.1.2\lvgl\src\lv_core/lv_obj.c ****     LV_ASSERT_OBJ(obj, LV_OBJX_NAME);
1845:..\..\..\lvgl\version_6.1.2\lvgl\src\lv_core/lv_obj.c **** 
1846:..\..\..\lvgl\version_6.1.2\lvgl\src\lv_core/lv_obj.c ****     lv_coord_t rel_y;
1847:..\..\..\lvgl\version_6.1.2\lvgl\src\lv_core/lv_obj.c ****     lv_obj_t * parent = lv_obj_get_parent(obj);
 5636              		.loc 2 1847 0
 5637 0008 7868     		ldr	r0, [r7, #4]
 5638 000a FFF7FEFF 		bl	lv_obj_get_parent
 5639 000e B860     		str	r0, [r7, #8]
1848:..\..\..\lvgl\version_6.1.2\lvgl\src\lv_core/lv_obj.c ****    if(parent) {
 5640              		.loc 2 1848 0
 5641 0010 BB68     		ldr	r3, [r7, #8]
 5642 0012 002B     		cmp	r3, #0
 5643 0014 0BD0     		beq	.L262
1849:..\..\..\lvgl\version_6.1.2\lvgl\src\lv_core/lv_obj.c ****        rel_y             = obj->coords.y1 - parent->coords.y1;
 5644              		.loc 2 1849 0
 5645 0016 7B68     		ldr	r3, [r7, #4]
 5646 0018 B3F91230 		ldrsh	r3, [r3, #18]
 5647 001c 9AB2     		uxth	r2, r3
 5648 001e BB68     		ldr	r3, [r7, #8]
 5649 0020 B3F91230 		ldrsh	r3, [r3, #18]
 5650 0024 9BB2     		uxth	r3, r3
 5651 0026 D31A     		subs	r3, r2, r3
 5652 0028 9BB2     		uxth	r3, r3
 5653 002a FB81     		strh	r3, [r7, #14]	@ movhi
 5654 002c 02E0     		b	.L263
 5655              	.L262:
1850:..\..\..\lvgl\version_6.1.2\lvgl\src\lv_core/lv_obj.c ****    } else {
1851:..\..\..\lvgl\version_6.1.2\lvgl\src\lv_core/lv_obj.c ****        rel_y = obj->coords.y1;
 5656              		.loc 2 1851 0
 5657 002e 7B68     		ldr	r3, [r7, #4]
 5658 0030 5B8A     		ldrh	r3, [r3, #18]	@ movhi
 5659 0032 FB81     		strh	r3, [r7, #14]	@ movhi
ARM GAS  C:\Users\tmj32\AppData\Local\Temp\ccxLNxq9.s 			page 135


 5660              	.L263:
1852:..\..\..\lvgl\version_6.1.2\lvgl\src\lv_core/lv_obj.c ****    }
1853:..\..\..\lvgl\version_6.1.2\lvgl\src\lv_core/lv_obj.c ****     return rel_y;
 5661              		.loc 2 1853 0
 5662 0034 B7F90E30 		ldrsh	r3, [r7, #14]
1854:..\..\..\lvgl\version_6.1.2\lvgl\src\lv_core/lv_obj.c **** }
 5663              		.loc 2 1854 0
 5664 0038 1846     		mov	r0, r3
 5665 003a 1037     		adds	r7, r7, #16
 5666              		.cfi_def_cfa_offset 8
 5667 003c BD46     		mov	sp, r7
 5668              		.cfi_def_cfa_register 13
 5669              		@ sp needed
 5670 003e 80BD     		pop	{r7, pc}
 5671              		.cfi_endproc
 5672              	.LFE92:
 5673              		.size	lv_obj_get_y, .-lv_obj_get_y
 5674              		.section	.text.lv_obj_get_width,"ax",%progbits
 5675              		.align	2
 5676              		.global	lv_obj_get_width
 5677              		.thumb
 5678              		.thumb_func
 5679              		.type	lv_obj_get_width, %function
 5680              	lv_obj_get_width:
 5681              	.LFB93:
1855:..\..\..\lvgl\version_6.1.2\lvgl\src\lv_core/lv_obj.c **** 
1856:..\..\..\lvgl\version_6.1.2\lvgl\src\lv_core/lv_obj.c **** /**
1857:..\..\..\lvgl\version_6.1.2\lvgl\src\lv_core/lv_obj.c ****  * Get the width of an object
1858:..\..\..\lvgl\version_6.1.2\lvgl\src\lv_core/lv_obj.c ****  * @param obj pointer to an object
1859:..\..\..\lvgl\version_6.1.2\lvgl\src\lv_core/lv_obj.c ****  * @return the width
1860:..\..\..\lvgl\version_6.1.2\lvgl\src\lv_core/lv_obj.c ****  */
1861:..\..\..\lvgl\version_6.1.2\lvgl\src\lv_core/lv_obj.c **** lv_coord_t lv_obj_get_width(const lv_obj_t * obj)
1862:..\..\..\lvgl\version_6.1.2\lvgl\src\lv_core/lv_obj.c **** {
 5682              		.loc 2 1862 0
 5683              		.cfi_startproc
 5684              		@ args = 0, pretend = 0, frame = 8
 5685              		@ frame_needed = 1, uses_anonymous_args = 0
 5686 0000 80B5     		push	{r7, lr}
 5687              		.cfi_def_cfa_offset 8
 5688              		.cfi_offset 7, -8
 5689              		.cfi_offset 14, -4
 5690 0002 82B0     		sub	sp, sp, #8
 5691              		.cfi_def_cfa_offset 16
 5692 0004 00AF     		add	r7, sp, #0
 5693              		.cfi_def_cfa_register 7
 5694 0006 7860     		str	r0, [r7, #4]
1863:..\..\..\lvgl\version_6.1.2\lvgl\src\lv_core/lv_obj.c ****     LV_ASSERT_OBJ(obj, LV_OBJX_NAME);
1864:..\..\..\lvgl\version_6.1.2\lvgl\src\lv_core/lv_obj.c **** 
1865:..\..\..\lvgl\version_6.1.2\lvgl\src\lv_core/lv_obj.c ****     return lv_area_get_width(&obj->coords);
 5695              		.loc 2 1865 0
 5696 0008 7B68     		ldr	r3, [r7, #4]
 5697 000a 1033     		adds	r3, r3, #16
 5698 000c 1846     		mov	r0, r3
 5699 000e FFF7FEFF 		bl	lv_area_get_width
 5700 0012 0346     		mov	r3, r0
1866:..\..\..\lvgl\version_6.1.2\lvgl\src\lv_core/lv_obj.c **** }
 5701              		.loc 2 1866 0
ARM GAS  C:\Users\tmj32\AppData\Local\Temp\ccxLNxq9.s 			page 136


 5702 0014 1846     		mov	r0, r3
 5703 0016 0837     		adds	r7, r7, #8
 5704              		.cfi_def_cfa_offset 8
 5705 0018 BD46     		mov	sp, r7
 5706              		.cfi_def_cfa_register 13
 5707              		@ sp needed
 5708 001a 80BD     		pop	{r7, pc}
 5709              		.cfi_endproc
 5710              	.LFE93:
 5711              		.size	lv_obj_get_width, .-lv_obj_get_width
 5712              		.section	.text.lv_obj_get_height,"ax",%progbits
 5713              		.align	2
 5714              		.global	lv_obj_get_height
 5715              		.thumb
 5716              		.thumb_func
 5717              		.type	lv_obj_get_height, %function
 5718              	lv_obj_get_height:
 5719              	.LFB94:
1867:..\..\..\lvgl\version_6.1.2\lvgl\src\lv_core/lv_obj.c **** 
1868:..\..\..\lvgl\version_6.1.2\lvgl\src\lv_core/lv_obj.c **** /**
1869:..\..\..\lvgl\version_6.1.2\lvgl\src\lv_core/lv_obj.c ****  * Get the height of an object
1870:..\..\..\lvgl\version_6.1.2\lvgl\src\lv_core/lv_obj.c ****  * @param obj pointer to an object
1871:..\..\..\lvgl\version_6.1.2\lvgl\src\lv_core/lv_obj.c ****  * @return the height
1872:..\..\..\lvgl\version_6.1.2\lvgl\src\lv_core/lv_obj.c ****  */
1873:..\..\..\lvgl\version_6.1.2\lvgl\src\lv_core/lv_obj.c **** lv_coord_t lv_obj_get_height(const lv_obj_t * obj)
1874:..\..\..\lvgl\version_6.1.2\lvgl\src\lv_core/lv_obj.c **** {
 5720              		.loc 2 1874 0
 5721              		.cfi_startproc
 5722              		@ args = 0, pretend = 0, frame = 8
 5723              		@ frame_needed = 1, uses_anonymous_args = 0
 5724 0000 80B5     		push	{r7, lr}
 5725              		.cfi_def_cfa_offset 8
 5726              		.cfi_offset 7, -8
 5727              		.cfi_offset 14, -4
 5728 0002 82B0     		sub	sp, sp, #8
 5729              		.cfi_def_cfa_offset 16
 5730 0004 00AF     		add	r7, sp, #0
 5731              		.cfi_def_cfa_register 7
 5732 0006 7860     		str	r0, [r7, #4]
1875:..\..\..\lvgl\version_6.1.2\lvgl\src\lv_core/lv_obj.c ****     LV_ASSERT_OBJ(obj, LV_OBJX_NAME);
1876:..\..\..\lvgl\version_6.1.2\lvgl\src\lv_core/lv_obj.c **** 
1877:..\..\..\lvgl\version_6.1.2\lvgl\src\lv_core/lv_obj.c ****     return lv_area_get_height(&obj->coords);
 5733              		.loc 2 1877 0
 5734 0008 7B68     		ldr	r3, [r7, #4]
 5735 000a 1033     		adds	r3, r3, #16
 5736 000c 1846     		mov	r0, r3
 5737 000e FFF7FEFF 		bl	lv_area_get_height
 5738 0012 0346     		mov	r3, r0
1878:..\..\..\lvgl\version_6.1.2\lvgl\src\lv_core/lv_obj.c **** }
 5739              		.loc 2 1878 0
 5740 0014 1846     		mov	r0, r3
 5741 0016 0837     		adds	r7, r7, #8
 5742              		.cfi_def_cfa_offset 8
 5743 0018 BD46     		mov	sp, r7
 5744              		.cfi_def_cfa_register 13
 5745              		@ sp needed
 5746 001a 80BD     		pop	{r7, pc}
ARM GAS  C:\Users\tmj32\AppData\Local\Temp\ccxLNxq9.s 			page 137


 5747              		.cfi_endproc
 5748              	.LFE94:
 5749              		.size	lv_obj_get_height, .-lv_obj_get_height
 5750              		.section	.text.lv_obj_get_width_fit,"ax",%progbits
 5751              		.align	2
 5752              		.global	lv_obj_get_width_fit
 5753              		.thumb
 5754              		.thumb_func
 5755              		.type	lv_obj_get_width_fit, %function
 5756              	lv_obj_get_width_fit:
 5757              	.LFB95:
1879:..\..\..\lvgl\version_6.1.2\lvgl\src\lv_core/lv_obj.c **** 
1880:..\..\..\lvgl\version_6.1.2\lvgl\src\lv_core/lv_obj.c **** /**
1881:..\..\..\lvgl\version_6.1.2\lvgl\src\lv_core/lv_obj.c ****  * Get that width reduced by the left and right padding.
1882:..\..\..\lvgl\version_6.1.2\lvgl\src\lv_core/lv_obj.c ****  * @param obj pointer to an object
1883:..\..\..\lvgl\version_6.1.2\lvgl\src\lv_core/lv_obj.c ****  * @return the width which still fits into the container
1884:..\..\..\lvgl\version_6.1.2\lvgl\src\lv_core/lv_obj.c ****  */
1885:..\..\..\lvgl\version_6.1.2\lvgl\src\lv_core/lv_obj.c **** lv_coord_t lv_obj_get_width_fit(const lv_obj_t * obj)
1886:..\..\..\lvgl\version_6.1.2\lvgl\src\lv_core/lv_obj.c **** {
 5758              		.loc 2 1886 0
 5759              		.cfi_startproc
 5760              		@ args = 0, pretend = 0, frame = 16
 5761              		@ frame_needed = 1, uses_anonymous_args = 0
 5762 0000 80B5     		push	{r7, lr}
 5763              		.cfi_def_cfa_offset 8
 5764              		.cfi_offset 7, -8
 5765              		.cfi_offset 14, -4
 5766 0002 84B0     		sub	sp, sp, #16
 5767              		.cfi_def_cfa_offset 24
 5768 0004 00AF     		add	r7, sp, #0
 5769              		.cfi_def_cfa_register 7
 5770 0006 7860     		str	r0, [r7, #4]
1887:..\..\..\lvgl\version_6.1.2\lvgl\src\lv_core/lv_obj.c ****     LV_ASSERT_OBJ(obj, LV_OBJX_NAME);
1888:..\..\..\lvgl\version_6.1.2\lvgl\src\lv_core/lv_obj.c **** 
1889:..\..\..\lvgl\version_6.1.2\lvgl\src\lv_core/lv_obj.c ****     const lv_style_t * style = lv_obj_get_style(obj);
 5771              		.loc 2 1889 0
 5772 0008 7868     		ldr	r0, [r7, #4]
 5773 000a FFF7FEFF 		bl	lv_obj_get_style
 5774 000e F860     		str	r0, [r7, #12]
1890:..\..\..\lvgl\version_6.1.2\lvgl\src\lv_core/lv_obj.c **** 
1891:..\..\..\lvgl\version_6.1.2\lvgl\src\lv_core/lv_obj.c ****     return lv_obj_get_width(obj) - style->body.padding.left - style->body.padding.right;
 5775              		.loc 2 1891 0
 5776 0010 7868     		ldr	r0, [r7, #4]
 5777 0012 FFF7FEFF 		bl	lv_obj_get_width
 5778 0016 0346     		mov	r3, r0
 5779 0018 9AB2     		uxth	r2, r3
 5780 001a FB68     		ldr	r3, [r7, #12]
 5781 001c B3F92430 		ldrsh	r3, [r3, #36]
 5782 0020 9BB2     		uxth	r3, r3
 5783 0022 D31A     		subs	r3, r2, r3
 5784 0024 9AB2     		uxth	r2, r3
 5785 0026 FB68     		ldr	r3, [r7, #12]
 5786 0028 B3F92630 		ldrsh	r3, [r3, #38]
 5787 002c 9BB2     		uxth	r3, r3
 5788 002e D31A     		subs	r3, r2, r3
 5789 0030 9BB2     		uxth	r3, r3
 5790 0032 1BB2     		sxth	r3, r3
ARM GAS  C:\Users\tmj32\AppData\Local\Temp\ccxLNxq9.s 			page 138


1892:..\..\..\lvgl\version_6.1.2\lvgl\src\lv_core/lv_obj.c **** }
 5791              		.loc 2 1892 0
 5792 0034 1846     		mov	r0, r3
 5793 0036 1037     		adds	r7, r7, #16
 5794              		.cfi_def_cfa_offset 8
 5795 0038 BD46     		mov	sp, r7
 5796              		.cfi_def_cfa_register 13
 5797              		@ sp needed
 5798 003a 80BD     		pop	{r7, pc}
 5799              		.cfi_endproc
 5800              	.LFE95:
 5801              		.size	lv_obj_get_width_fit, .-lv_obj_get_width_fit
 5802              		.section	.text.lv_obj_get_height_fit,"ax",%progbits
 5803              		.align	2
 5804              		.global	lv_obj_get_height_fit
 5805              		.thumb
 5806              		.thumb_func
 5807              		.type	lv_obj_get_height_fit, %function
 5808              	lv_obj_get_height_fit:
 5809              	.LFB96:
1893:..\..\..\lvgl\version_6.1.2\lvgl\src\lv_core/lv_obj.c **** 
1894:..\..\..\lvgl\version_6.1.2\lvgl\src\lv_core/lv_obj.c **** /**
1895:..\..\..\lvgl\version_6.1.2\lvgl\src\lv_core/lv_obj.c ****  * Get that height reduced by the top an bottom padding.
1896:..\..\..\lvgl\version_6.1.2\lvgl\src\lv_core/lv_obj.c ****  * @param obj pointer to an object
1897:..\..\..\lvgl\version_6.1.2\lvgl\src\lv_core/lv_obj.c ****  * @return the height which still fits into the container
1898:..\..\..\lvgl\version_6.1.2\lvgl\src\lv_core/lv_obj.c ****  */
1899:..\..\..\lvgl\version_6.1.2\lvgl\src\lv_core/lv_obj.c **** lv_coord_t lv_obj_get_height_fit(const lv_obj_t * obj)
1900:..\..\..\lvgl\version_6.1.2\lvgl\src\lv_core/lv_obj.c **** {
 5810              		.loc 2 1900 0
 5811              		.cfi_startproc
 5812              		@ args = 0, pretend = 0, frame = 16
 5813              		@ frame_needed = 1, uses_anonymous_args = 0
 5814 0000 80B5     		push	{r7, lr}
 5815              		.cfi_def_cfa_offset 8
 5816              		.cfi_offset 7, -8
 5817              		.cfi_offset 14, -4
 5818 0002 84B0     		sub	sp, sp, #16
 5819              		.cfi_def_cfa_offset 24
 5820 0004 00AF     		add	r7, sp, #0
 5821              		.cfi_def_cfa_register 7
 5822 0006 7860     		str	r0, [r7, #4]
1901:..\..\..\lvgl\version_6.1.2\lvgl\src\lv_core/lv_obj.c ****     LV_ASSERT_OBJ(obj, LV_OBJX_NAME);
1902:..\..\..\lvgl\version_6.1.2\lvgl\src\lv_core/lv_obj.c **** 
1903:..\..\..\lvgl\version_6.1.2\lvgl\src\lv_core/lv_obj.c ****     const lv_style_t * style = lv_obj_get_style(obj);
 5823              		.loc 2 1903 0
 5824 0008 7868     		ldr	r0, [r7, #4]
 5825 000a FFF7FEFF 		bl	lv_obj_get_style
 5826 000e F860     		str	r0, [r7, #12]
1904:..\..\..\lvgl\version_6.1.2\lvgl\src\lv_core/lv_obj.c **** 
1905:..\..\..\lvgl\version_6.1.2\lvgl\src\lv_core/lv_obj.c ****     return lv_obj_get_height(obj) - style->body.padding.top - style->body.padding.bottom;
 5827              		.loc 2 1905 0
 5828 0010 7868     		ldr	r0, [r7, #4]
 5829 0012 FFF7FEFF 		bl	lv_obj_get_height
 5830 0016 0346     		mov	r3, r0
 5831 0018 9AB2     		uxth	r2, r3
 5832 001a FB68     		ldr	r3, [r7, #12]
 5833 001c B3F92030 		ldrsh	r3, [r3, #32]
ARM GAS  C:\Users\tmj32\AppData\Local\Temp\ccxLNxq9.s 			page 139


 5834 0020 9BB2     		uxth	r3, r3
 5835 0022 D31A     		subs	r3, r2, r3
 5836 0024 9AB2     		uxth	r2, r3
 5837 0026 FB68     		ldr	r3, [r7, #12]
 5838 0028 B3F92230 		ldrsh	r3, [r3, #34]
 5839 002c 9BB2     		uxth	r3, r3
 5840 002e D31A     		subs	r3, r2, r3
 5841 0030 9BB2     		uxth	r3, r3
 5842 0032 1BB2     		sxth	r3, r3
1906:..\..\..\lvgl\version_6.1.2\lvgl\src\lv_core/lv_obj.c **** }
 5843              		.loc 2 1906 0
 5844 0034 1846     		mov	r0, r3
 5845 0036 1037     		adds	r7, r7, #16
 5846              		.cfi_def_cfa_offset 8
 5847 0038 BD46     		mov	sp, r7
 5848              		.cfi_def_cfa_register 13
 5849              		@ sp needed
 5850 003a 80BD     		pop	{r7, pc}
 5851              		.cfi_endproc
 5852              	.LFE96:
 5853              		.size	lv_obj_get_height_fit, .-lv_obj_get_height_fit
 5854              		.section	.text.lv_obj_get_auto_realign,"ax",%progbits
 5855              		.align	2
 5856              		.global	lv_obj_get_auto_realign
 5857              		.thumb
 5858              		.thumb_func
 5859              		.type	lv_obj_get_auto_realign, %function
 5860              	lv_obj_get_auto_realign:
 5861              	.LFB97:
1907:..\..\..\lvgl\version_6.1.2\lvgl\src\lv_core/lv_obj.c **** 
1908:..\..\..\lvgl\version_6.1.2\lvgl\src\lv_core/lv_obj.c **** /**
1909:..\..\..\lvgl\version_6.1.2\lvgl\src\lv_core/lv_obj.c ****  * Get the automatic realign property of the object.
1910:..\..\..\lvgl\version_6.1.2\lvgl\src\lv_core/lv_obj.c ****  * @param obj pointer to an object
1911:..\..\..\lvgl\version_6.1.2\lvgl\src\lv_core/lv_obj.c ****  * @return  true: auto realign is enabled; false: auto realign is disabled
1912:..\..\..\lvgl\version_6.1.2\lvgl\src\lv_core/lv_obj.c ****  */
1913:..\..\..\lvgl\version_6.1.2\lvgl\src\lv_core/lv_obj.c **** bool lv_obj_get_auto_realign(const lv_obj_t * obj)
1914:..\..\..\lvgl\version_6.1.2\lvgl\src\lv_core/lv_obj.c **** {
 5862              		.loc 2 1914 0
 5863              		.cfi_startproc
 5864              		@ args = 0, pretend = 0, frame = 8
 5865              		@ frame_needed = 1, uses_anonymous_args = 0
 5866              		@ link register save eliminated.
 5867 0000 80B4     		push	{r7}
 5868              		.cfi_def_cfa_offset 4
 5869              		.cfi_offset 7, -4
 5870 0002 83B0     		sub	sp, sp, #12
 5871              		.cfi_def_cfa_offset 16
 5872 0004 00AF     		add	r7, sp, #0
 5873              		.cfi_def_cfa_register 7
 5874 0006 7860     		str	r0, [r7, #4]
1915:..\..\..\lvgl\version_6.1.2\lvgl\src\lv_core/lv_obj.c ****     LV_ASSERT_OBJ(obj, LV_OBJX_NAME);
1916:..\..\..\lvgl\version_6.1.2\lvgl\src\lv_core/lv_obj.c **** 
1917:..\..\..\lvgl\version_6.1.2\lvgl\src\lv_core/lv_obj.c **** #if LV_USE_OBJ_REALIGN
1918:..\..\..\lvgl\version_6.1.2\lvgl\src\lv_core/lv_obj.c ****     return obj->realign.auto_realign ? true : false;
 5875              		.loc 2 1918 0
 5876 0008 7B68     		ldr	r3, [r7, #4]
 5877 000a 93F83D30 		ldrb	r3, [r3, #61]	@ zero_extendqisi2
ARM GAS  C:\Users\tmj32\AppData\Local\Temp\ccxLNxq9.s 			page 140


 5878 000e 03F00103 		and	r3, r3, #1
 5879 0012 DBB2     		uxtb	r3, r3
 5880 0014 002B     		cmp	r3, #0
 5881 0016 14BF     		ite	ne
 5882 0018 0123     		movne	r3, #1
 5883 001a 0023     		moveq	r3, #0
 5884 001c DBB2     		uxtb	r3, r3
1919:..\..\..\lvgl\version_6.1.2\lvgl\src\lv_core/lv_obj.c **** #else
1920:..\..\..\lvgl\version_6.1.2\lvgl\src\lv_core/lv_obj.c ****     (void)obj;
1921:..\..\..\lvgl\version_6.1.2\lvgl\src\lv_core/lv_obj.c ****     return false;
1922:..\..\..\lvgl\version_6.1.2\lvgl\src\lv_core/lv_obj.c **** #endif
1923:..\..\..\lvgl\version_6.1.2\lvgl\src\lv_core/lv_obj.c **** }
 5885              		.loc 2 1923 0
 5886 001e 1846     		mov	r0, r3
 5887 0020 0C37     		adds	r7, r7, #12
 5888              		.cfi_def_cfa_offset 4
 5889 0022 BD46     		mov	sp, r7
 5890              		.cfi_def_cfa_register 13
 5891              		@ sp needed
 5892 0024 5DF8047B 		ldr	r7, [sp], #4
 5893              		.cfi_restore 7
 5894              		.cfi_def_cfa_offset 0
 5895 0028 7047     		bx	lr
 5896              		.cfi_endproc
 5897              	.LFE97:
 5898              		.size	lv_obj_get_auto_realign, .-lv_obj_get_auto_realign
 5899 002a 00BF     		.section	.text.lv_obj_get_ext_click_pad_left,"ax",%progbits
 5900              		.align	2
 5901              		.global	lv_obj_get_ext_click_pad_left
 5902              		.thumb
 5903              		.thumb_func
 5904              		.type	lv_obj_get_ext_click_pad_left, %function
 5905              	lv_obj_get_ext_click_pad_left:
 5906              	.LFB98:
1924:..\..\..\lvgl\version_6.1.2\lvgl\src\lv_core/lv_obj.c **** 
1925:..\..\..\lvgl\version_6.1.2\lvgl\src\lv_core/lv_obj.c **** /**
1926:..\..\..\lvgl\version_6.1.2\lvgl\src\lv_core/lv_obj.c ****  * Get the left padding of extended clickable area
1927:..\..\..\lvgl\version_6.1.2\lvgl\src\lv_core/lv_obj.c ****  * @param obj pointer to an object
1928:..\..\..\lvgl\version_6.1.2\lvgl\src\lv_core/lv_obj.c ****  * @return the extended left padding
1929:..\..\..\lvgl\version_6.1.2\lvgl\src\lv_core/lv_obj.c ****  */
1930:..\..\..\lvgl\version_6.1.2\lvgl\src\lv_core/lv_obj.c **** lv_coord_t lv_obj_get_ext_click_pad_left(const lv_obj_t * obj)
1931:..\..\..\lvgl\version_6.1.2\lvgl\src\lv_core/lv_obj.c **** {
 5907              		.loc 2 1931 0
 5908              		.cfi_startproc
 5909              		@ args = 0, pretend = 0, frame = 8
 5910              		@ frame_needed = 1, uses_anonymous_args = 0
 5911              		@ link register save eliminated.
 5912 0000 80B4     		push	{r7}
 5913              		.cfi_def_cfa_offset 4
 5914              		.cfi_offset 7, -4
 5915 0002 83B0     		sub	sp, sp, #12
 5916              		.cfi_def_cfa_offset 16
 5917 0004 00AF     		add	r7, sp, #0
 5918              		.cfi_def_cfa_register 7
 5919 0006 7860     		str	r0, [r7, #4]
1932:..\..\..\lvgl\version_6.1.2\lvgl\src\lv_core/lv_obj.c ****     LV_ASSERT_OBJ(obj, LV_OBJX_NAME);
1933:..\..\..\lvgl\version_6.1.2\lvgl\src\lv_core/lv_obj.c **** 
ARM GAS  C:\Users\tmj32\AppData\Local\Temp\ccxLNxq9.s 			page 141


1934:..\..\..\lvgl\version_6.1.2\lvgl\src\lv_core/lv_obj.c **** #if LV_USE_EXT_CLICK_AREA == LV_EXT_CLICK_AREA_TINY
1935:..\..\..\lvgl\version_6.1.2\lvgl\src\lv_core/lv_obj.c ****     return obj->ext_click_pad_hor;
1936:..\..\..\lvgl\version_6.1.2\lvgl\src\lv_core/lv_obj.c **** #elif LV_USE_EXT_CLICK_AREA == LV_EXT_CLICK_AREA_FULL
1937:..\..\..\lvgl\version_6.1.2\lvgl\src\lv_core/lv_obj.c ****     return obj->ext_click_pad.x1;
1938:..\..\..\lvgl\version_6.1.2\lvgl\src\lv_core/lv_obj.c **** #else
1939:..\..\..\lvgl\version_6.1.2\lvgl\src\lv_core/lv_obj.c ****     (void)obj;    /*Unused*/
1940:..\..\..\lvgl\version_6.1.2\lvgl\src\lv_core/lv_obj.c ****     return 0;
 5920              		.loc 2 1940 0
 5921 0008 0023     		movs	r3, #0
1941:..\..\..\lvgl\version_6.1.2\lvgl\src\lv_core/lv_obj.c **** #endif
1942:..\..\..\lvgl\version_6.1.2\lvgl\src\lv_core/lv_obj.c **** }
 5922              		.loc 2 1942 0
 5923 000a 1846     		mov	r0, r3
 5924 000c 0C37     		adds	r7, r7, #12
 5925              		.cfi_def_cfa_offset 4
 5926 000e BD46     		mov	sp, r7
 5927              		.cfi_def_cfa_register 13
 5928              		@ sp needed
 5929 0010 5DF8047B 		ldr	r7, [sp], #4
 5930              		.cfi_restore 7
 5931              		.cfi_def_cfa_offset 0
 5932 0014 7047     		bx	lr
 5933              		.cfi_endproc
 5934              	.LFE98:
 5935              		.size	lv_obj_get_ext_click_pad_left, .-lv_obj_get_ext_click_pad_left
 5936 0016 00BF     		.section	.text.lv_obj_get_ext_click_pad_right,"ax",%progbits
 5937              		.align	2
 5938              		.global	lv_obj_get_ext_click_pad_right
 5939              		.thumb
 5940              		.thumb_func
 5941              		.type	lv_obj_get_ext_click_pad_right, %function
 5942              	lv_obj_get_ext_click_pad_right:
 5943              	.LFB99:
1943:..\..\..\lvgl\version_6.1.2\lvgl\src\lv_core/lv_obj.c **** 
1944:..\..\..\lvgl\version_6.1.2\lvgl\src\lv_core/lv_obj.c **** /**
1945:..\..\..\lvgl\version_6.1.2\lvgl\src\lv_core/lv_obj.c ****  * Get the right padding of extended clickable area
1946:..\..\..\lvgl\version_6.1.2\lvgl\src\lv_core/lv_obj.c ****  * @param obj pointer to an object
1947:..\..\..\lvgl\version_6.1.2\lvgl\src\lv_core/lv_obj.c ****  * @return the extended right padding
1948:..\..\..\lvgl\version_6.1.2\lvgl\src\lv_core/lv_obj.c ****  */
1949:..\..\..\lvgl\version_6.1.2\lvgl\src\lv_core/lv_obj.c **** lv_coord_t lv_obj_get_ext_click_pad_right(const lv_obj_t * obj)
1950:..\..\..\lvgl\version_6.1.2\lvgl\src\lv_core/lv_obj.c **** {
 5944              		.loc 2 1950 0
 5945              		.cfi_startproc
 5946              		@ args = 0, pretend = 0, frame = 8
 5947              		@ frame_needed = 1, uses_anonymous_args = 0
 5948              		@ link register save eliminated.
 5949 0000 80B4     		push	{r7}
 5950              		.cfi_def_cfa_offset 4
 5951              		.cfi_offset 7, -4
 5952 0002 83B0     		sub	sp, sp, #12
 5953              		.cfi_def_cfa_offset 16
 5954 0004 00AF     		add	r7, sp, #0
 5955              		.cfi_def_cfa_register 7
 5956 0006 7860     		str	r0, [r7, #4]
1951:..\..\..\lvgl\version_6.1.2\lvgl\src\lv_core/lv_obj.c ****     LV_ASSERT_OBJ(obj, LV_OBJX_NAME);
1952:..\..\..\lvgl\version_6.1.2\lvgl\src\lv_core/lv_obj.c **** 
1953:..\..\..\lvgl\version_6.1.2\lvgl\src\lv_core/lv_obj.c **** #if LV_USE_EXT_CLICK_AREA == LV_EXT_CLICK_AREA_TINY
ARM GAS  C:\Users\tmj32\AppData\Local\Temp\ccxLNxq9.s 			page 142


1954:..\..\..\lvgl\version_6.1.2\lvgl\src\lv_core/lv_obj.c ****     return obj->ext_click_pad_hor;
1955:..\..\..\lvgl\version_6.1.2\lvgl\src\lv_core/lv_obj.c **** #elif LV_USE_EXT_CLICK_AREA == LV_EXT_CLICK_AREA_FULL
1956:..\..\..\lvgl\version_6.1.2\lvgl\src\lv_core/lv_obj.c ****     return obj->ext_click_pad.x2;
1957:..\..\..\lvgl\version_6.1.2\lvgl\src\lv_core/lv_obj.c **** #else
1958:..\..\..\lvgl\version_6.1.2\lvgl\src\lv_core/lv_obj.c ****     (void)obj; /*Unused*/
1959:..\..\..\lvgl\version_6.1.2\lvgl\src\lv_core/lv_obj.c ****     return 0;
 5957              		.loc 2 1959 0
 5958 0008 0023     		movs	r3, #0
1960:..\..\..\lvgl\version_6.1.2\lvgl\src\lv_core/lv_obj.c **** #endif
1961:..\..\..\lvgl\version_6.1.2\lvgl\src\lv_core/lv_obj.c **** }
 5959              		.loc 2 1961 0
 5960 000a 1846     		mov	r0, r3
 5961 000c 0C37     		adds	r7, r7, #12
 5962              		.cfi_def_cfa_offset 4
 5963 000e BD46     		mov	sp, r7
 5964              		.cfi_def_cfa_register 13
 5965              		@ sp needed
 5966 0010 5DF8047B 		ldr	r7, [sp], #4
 5967              		.cfi_restore 7
 5968              		.cfi_def_cfa_offset 0
 5969 0014 7047     		bx	lr
 5970              		.cfi_endproc
 5971              	.LFE99:
 5972              		.size	lv_obj_get_ext_click_pad_right, .-lv_obj_get_ext_click_pad_right
 5973 0016 00BF     		.section	.text.lv_obj_get_ext_click_pad_top,"ax",%progbits
 5974              		.align	2
 5975              		.global	lv_obj_get_ext_click_pad_top
 5976              		.thumb
 5977              		.thumb_func
 5978              		.type	lv_obj_get_ext_click_pad_top, %function
 5979              	lv_obj_get_ext_click_pad_top:
 5980              	.LFB100:
1962:..\..\..\lvgl\version_6.1.2\lvgl\src\lv_core/lv_obj.c **** 
1963:..\..\..\lvgl\version_6.1.2\lvgl\src\lv_core/lv_obj.c **** /**
1964:..\..\..\lvgl\version_6.1.2\lvgl\src\lv_core/lv_obj.c ****  * Get the top padding of extended clickable area
1965:..\..\..\lvgl\version_6.1.2\lvgl\src\lv_core/lv_obj.c ****  * @param obj pointer to an object
1966:..\..\..\lvgl\version_6.1.2\lvgl\src\lv_core/lv_obj.c ****  * @return the extended top padding
1967:..\..\..\lvgl\version_6.1.2\lvgl\src\lv_core/lv_obj.c ****  */
1968:..\..\..\lvgl\version_6.1.2\lvgl\src\lv_core/lv_obj.c **** lv_coord_t lv_obj_get_ext_click_pad_top(const lv_obj_t * obj)
1969:..\..\..\lvgl\version_6.1.2\lvgl\src\lv_core/lv_obj.c **** {
 5981              		.loc 2 1969 0
 5982              		.cfi_startproc
 5983              		@ args = 0, pretend = 0, frame = 8
 5984              		@ frame_needed = 1, uses_anonymous_args = 0
 5985              		@ link register save eliminated.
 5986 0000 80B4     		push	{r7}
 5987              		.cfi_def_cfa_offset 4
 5988              		.cfi_offset 7, -4
 5989 0002 83B0     		sub	sp, sp, #12
 5990              		.cfi_def_cfa_offset 16
 5991 0004 00AF     		add	r7, sp, #0
 5992              		.cfi_def_cfa_register 7
 5993 0006 7860     		str	r0, [r7, #4]
1970:..\..\..\lvgl\version_6.1.2\lvgl\src\lv_core/lv_obj.c ****     LV_ASSERT_OBJ(obj, LV_OBJX_NAME);
1971:..\..\..\lvgl\version_6.1.2\lvgl\src\lv_core/lv_obj.c **** 
1972:..\..\..\lvgl\version_6.1.2\lvgl\src\lv_core/lv_obj.c **** #if LV_USE_EXT_CLICK_AREA == LV_EXT_CLICK_AREA_TINY
1973:..\..\..\lvgl\version_6.1.2\lvgl\src\lv_core/lv_obj.c ****     return obj->ext_click_pad_ver;
ARM GAS  C:\Users\tmj32\AppData\Local\Temp\ccxLNxq9.s 			page 143


1974:..\..\..\lvgl\version_6.1.2\lvgl\src\lv_core/lv_obj.c **** #elif LV_USE_EXT_CLICK_AREA == LV_EXT_CLICK_AREA_FULL
1975:..\..\..\lvgl\version_6.1.2\lvgl\src\lv_core/lv_obj.c ****     return obj->ext_click_pad.y1;
1976:..\..\..\lvgl\version_6.1.2\lvgl\src\lv_core/lv_obj.c **** #else
1977:..\..\..\lvgl\version_6.1.2\lvgl\src\lv_core/lv_obj.c ****     (void)obj; /*Unused*/
1978:..\..\..\lvgl\version_6.1.2\lvgl\src\lv_core/lv_obj.c ****     return 0;
 5994              		.loc 2 1978 0
 5995 0008 0023     		movs	r3, #0
1979:..\..\..\lvgl\version_6.1.2\lvgl\src\lv_core/lv_obj.c **** #endif
1980:..\..\..\lvgl\version_6.1.2\lvgl\src\lv_core/lv_obj.c **** }
 5996              		.loc 2 1980 0
 5997 000a 1846     		mov	r0, r3
 5998 000c 0C37     		adds	r7, r7, #12
 5999              		.cfi_def_cfa_offset 4
 6000 000e BD46     		mov	sp, r7
 6001              		.cfi_def_cfa_register 13
 6002              		@ sp needed
 6003 0010 5DF8047B 		ldr	r7, [sp], #4
 6004              		.cfi_restore 7
 6005              		.cfi_def_cfa_offset 0
 6006 0014 7047     		bx	lr
 6007              		.cfi_endproc
 6008              	.LFE100:
 6009              		.size	lv_obj_get_ext_click_pad_top, .-lv_obj_get_ext_click_pad_top
 6010 0016 00BF     		.section	.text.lv_obj_get_ext_click_pad_bottom,"ax",%progbits
 6011              		.align	2
 6012              		.global	lv_obj_get_ext_click_pad_bottom
 6013              		.thumb
 6014              		.thumb_func
 6015              		.type	lv_obj_get_ext_click_pad_bottom, %function
 6016              	lv_obj_get_ext_click_pad_bottom:
 6017              	.LFB101:
1981:..\..\..\lvgl\version_6.1.2\lvgl\src\lv_core/lv_obj.c **** 
1982:..\..\..\lvgl\version_6.1.2\lvgl\src\lv_core/lv_obj.c **** /**
1983:..\..\..\lvgl\version_6.1.2\lvgl\src\lv_core/lv_obj.c ****  * Get the bottom padding of extended clickable area
1984:..\..\..\lvgl\version_6.1.2\lvgl\src\lv_core/lv_obj.c ****  * @param obj pointer to an object
1985:..\..\..\lvgl\version_6.1.2\lvgl\src\lv_core/lv_obj.c ****  * @return the extended bottom padding
1986:..\..\..\lvgl\version_6.1.2\lvgl\src\lv_core/lv_obj.c ****  */
1987:..\..\..\lvgl\version_6.1.2\lvgl\src\lv_core/lv_obj.c **** lv_coord_t lv_obj_get_ext_click_pad_bottom(const lv_obj_t * obj)
1988:..\..\..\lvgl\version_6.1.2\lvgl\src\lv_core/lv_obj.c **** {
 6018              		.loc 2 1988 0
 6019              		.cfi_startproc
 6020              		@ args = 0, pretend = 0, frame = 8
 6021              		@ frame_needed = 1, uses_anonymous_args = 0
 6022              		@ link register save eliminated.
 6023 0000 80B4     		push	{r7}
 6024              		.cfi_def_cfa_offset 4
 6025              		.cfi_offset 7, -4
 6026 0002 83B0     		sub	sp, sp, #12
 6027              		.cfi_def_cfa_offset 16
 6028 0004 00AF     		add	r7, sp, #0
 6029              		.cfi_def_cfa_register 7
 6030 0006 7860     		str	r0, [r7, #4]
1989:..\..\..\lvgl\version_6.1.2\lvgl\src\lv_core/lv_obj.c ****     LV_ASSERT_OBJ(obj, LV_OBJX_NAME);
1990:..\..\..\lvgl\version_6.1.2\lvgl\src\lv_core/lv_obj.c **** 
1991:..\..\..\lvgl\version_6.1.2\lvgl\src\lv_core/lv_obj.c **** #if LV_USE_EXT_CLICK_AREA == LV_EXT_CLICK_AREA_TINY
1992:..\..\..\lvgl\version_6.1.2\lvgl\src\lv_core/lv_obj.c ****     return obj->ext_click_pad_ver;
1993:..\..\..\lvgl\version_6.1.2\lvgl\src\lv_core/lv_obj.c **** #elif LV_USE_EXT_CLICK_AREA == LV_EXT_CLICK_AREA_FULL
ARM GAS  C:\Users\tmj32\AppData\Local\Temp\ccxLNxq9.s 			page 144


1994:..\..\..\lvgl\version_6.1.2\lvgl\src\lv_core/lv_obj.c ****     return obj->ext_click_pad.y2;
1995:..\..\..\lvgl\version_6.1.2\lvgl\src\lv_core/lv_obj.c **** #else
1996:..\..\..\lvgl\version_6.1.2\lvgl\src\lv_core/lv_obj.c ****     (void)obj; /*Unused*/
1997:..\..\..\lvgl\version_6.1.2\lvgl\src\lv_core/lv_obj.c ****     return 0;
 6031              		.loc 2 1997 0
 6032 0008 0023     		movs	r3, #0
1998:..\..\..\lvgl\version_6.1.2\lvgl\src\lv_core/lv_obj.c **** #endif
1999:..\..\..\lvgl\version_6.1.2\lvgl\src\lv_core/lv_obj.c **** }
 6033              		.loc 2 1999 0
 6034 000a 1846     		mov	r0, r3
 6035 000c 0C37     		adds	r7, r7, #12
 6036              		.cfi_def_cfa_offset 4
 6037 000e BD46     		mov	sp, r7
 6038              		.cfi_def_cfa_register 13
 6039              		@ sp needed
 6040 0010 5DF8047B 		ldr	r7, [sp], #4
 6041              		.cfi_restore 7
 6042              		.cfi_def_cfa_offset 0
 6043 0014 7047     		bx	lr
 6044              		.cfi_endproc
 6045              	.LFE101:
 6046              		.size	lv_obj_get_ext_click_pad_bottom, .-lv_obj_get_ext_click_pad_bottom
 6047 0016 00BF     		.section	.text.lv_obj_get_ext_draw_pad,"ax",%progbits
 6048              		.align	2
 6049              		.global	lv_obj_get_ext_draw_pad
 6050              		.thumb
 6051              		.thumb_func
 6052              		.type	lv_obj_get_ext_draw_pad, %function
 6053              	lv_obj_get_ext_draw_pad:
 6054              	.LFB102:
2000:..\..\..\lvgl\version_6.1.2\lvgl\src\lv_core/lv_obj.c **** 
2001:..\..\..\lvgl\version_6.1.2\lvgl\src\lv_core/lv_obj.c **** /**
2002:..\..\..\lvgl\version_6.1.2\lvgl\src\lv_core/lv_obj.c ****  * Get the extended size attribute of an object
2003:..\..\..\lvgl\version_6.1.2\lvgl\src\lv_core/lv_obj.c ****  * @param obj pointer to an object
2004:..\..\..\lvgl\version_6.1.2\lvgl\src\lv_core/lv_obj.c ****  * @return the extended size attribute
2005:..\..\..\lvgl\version_6.1.2\lvgl\src\lv_core/lv_obj.c ****  */
2006:..\..\..\lvgl\version_6.1.2\lvgl\src\lv_core/lv_obj.c **** lv_coord_t lv_obj_get_ext_draw_pad(const lv_obj_t * obj)
2007:..\..\..\lvgl\version_6.1.2\lvgl\src\lv_core/lv_obj.c **** {
 6055              		.loc 2 2007 0
 6056              		.cfi_startproc
 6057              		@ args = 0, pretend = 0, frame = 8
 6058              		@ frame_needed = 1, uses_anonymous_args = 0
 6059              		@ link register save eliminated.
 6060 0000 80B4     		push	{r7}
 6061              		.cfi_def_cfa_offset 4
 6062              		.cfi_offset 7, -4
 6063 0002 83B0     		sub	sp, sp, #12
 6064              		.cfi_def_cfa_offset 16
 6065 0004 00AF     		add	r7, sp, #0
 6066              		.cfi_def_cfa_register 7
 6067 0006 7860     		str	r0, [r7, #4]
2008:..\..\..\lvgl\version_6.1.2\lvgl\src\lv_core/lv_obj.c ****     LV_ASSERT_OBJ(obj, LV_OBJX_NAME);
2009:..\..\..\lvgl\version_6.1.2\lvgl\src\lv_core/lv_obj.c **** 
2010:..\..\..\lvgl\version_6.1.2\lvgl\src\lv_core/lv_obj.c ****     return obj->ext_draw_pad;
 6068              		.loc 2 2010 0
 6069 0008 7B68     		ldr	r3, [r7, #4]
 6070 000a B3F93030 		ldrsh	r3, [r3, #48]
ARM GAS  C:\Users\tmj32\AppData\Local\Temp\ccxLNxq9.s 			page 145


2011:..\..\..\lvgl\version_6.1.2\lvgl\src\lv_core/lv_obj.c **** }
 6071              		.loc 2 2011 0
 6072 000e 1846     		mov	r0, r3
 6073 0010 0C37     		adds	r7, r7, #12
 6074              		.cfi_def_cfa_offset 4
 6075 0012 BD46     		mov	sp, r7
 6076              		.cfi_def_cfa_register 13
 6077              		@ sp needed
 6078 0014 5DF8047B 		ldr	r7, [sp], #4
 6079              		.cfi_restore 7
 6080              		.cfi_def_cfa_offset 0
 6081 0018 7047     		bx	lr
 6082              		.cfi_endproc
 6083              	.LFE102:
 6084              		.size	lv_obj_get_ext_draw_pad, .-lv_obj_get_ext_draw_pad
 6085 001a 00BF     		.section	.text.lv_obj_get_style,"ax",%progbits
 6086              		.align	2
 6087              		.global	lv_obj_get_style
 6088              		.thumb
 6089              		.thumb_func
 6090              		.type	lv_obj_get_style, %function
 6091              	lv_obj_get_style:
 6092              	.LFB103:
2012:..\..\..\lvgl\version_6.1.2\lvgl\src\lv_core/lv_obj.c **** 
2013:..\..\..\lvgl\version_6.1.2\lvgl\src\lv_core/lv_obj.c **** /*-----------------
2014:..\..\..\lvgl\version_6.1.2\lvgl\src\lv_core/lv_obj.c ****  * Appearance get
2015:..\..\..\lvgl\version_6.1.2\lvgl\src\lv_core/lv_obj.c ****  *---------------*/
2016:..\..\..\lvgl\version_6.1.2\lvgl\src\lv_core/lv_obj.c **** 
2017:..\..\..\lvgl\version_6.1.2\lvgl\src\lv_core/lv_obj.c **** /**
2018:..\..\..\lvgl\version_6.1.2\lvgl\src\lv_core/lv_obj.c ****  * Get the style pointer of an object (if NULL get style of the parent)
2019:..\..\..\lvgl\version_6.1.2\lvgl\src\lv_core/lv_obj.c ****  * @param obj pointer to an object
2020:..\..\..\lvgl\version_6.1.2\lvgl\src\lv_core/lv_obj.c ****  * @return pointer to a style
2021:..\..\..\lvgl\version_6.1.2\lvgl\src\lv_core/lv_obj.c ****  */
2022:..\..\..\lvgl\version_6.1.2\lvgl\src\lv_core/lv_obj.c **** const lv_style_t * lv_obj_get_style(const lv_obj_t * obj)
2023:..\..\..\lvgl\version_6.1.2\lvgl\src\lv_core/lv_obj.c **** {
 6093              		.loc 2 2023 0
 6094              		.cfi_startproc
 6095              		@ args = 0, pretend = 0, frame = 16
 6096              		@ frame_needed = 1, uses_anonymous_args = 0
 6097              		@ link register save eliminated.
 6098 0000 80B4     		push	{r7}
 6099              		.cfi_def_cfa_offset 4
 6100              		.cfi_offset 7, -4
 6101 0002 85B0     		sub	sp, sp, #20
 6102              		.cfi_def_cfa_offset 24
 6103 0004 00AF     		add	r7, sp, #0
 6104              		.cfi_def_cfa_register 7
 6105 0006 7860     		str	r0, [r7, #4]
2024:..\..\..\lvgl\version_6.1.2\lvgl\src\lv_core/lv_obj.c ****     LV_ASSERT_OBJ(obj, LV_OBJX_NAME);
2025:..\..\..\lvgl\version_6.1.2\lvgl\src\lv_core/lv_obj.c **** 
2026:..\..\..\lvgl\version_6.1.2\lvgl\src\lv_core/lv_obj.c ****     const lv_style_t * style_act = obj->style_p;
 6106              		.loc 2 2026 0
 6107 0008 7B68     		ldr	r3, [r7, #4]
 6108 000a 9B6A     		ldr	r3, [r3, #40]
 6109 000c FB60     		str	r3, [r7, #12]
2027:..\..\..\lvgl\version_6.1.2\lvgl\src\lv_core/lv_obj.c ****     if(style_act == NULL) {
 6110              		.loc 2 2027 0
ARM GAS  C:\Users\tmj32\AppData\Local\Temp\ccxLNxq9.s 			page 146


 6111 000e FB68     		ldr	r3, [r7, #12]
 6112 0010 002B     		cmp	r3, #0
 6113 0012 19D1     		bne	.L286
 6114              	.LBB10:
2028:..\..\..\lvgl\version_6.1.2\lvgl\src\lv_core/lv_obj.c ****         lv_obj_t * par = obj->par;
 6115              		.loc 2 2028 0
 6116 0014 7B68     		ldr	r3, [r7, #4]
 6117 0016 1B68     		ldr	r3, [r3]
 6118 0018 BB60     		str	r3, [r7, #8]
2029:..\..\..\lvgl\version_6.1.2\lvgl\src\lv_core/lv_obj.c **** 
2030:..\..\..\lvgl\version_6.1.2\lvgl\src\lv_core/lv_obj.c ****         while(par) {
 6119              		.loc 2 2030 0
 6120 001a 12E0     		b	.L287
 6121              	.L289:
2031:..\..\..\lvgl\version_6.1.2\lvgl\src\lv_core/lv_obj.c ****             if(par->style_p) {
 6122              		.loc 2 2031 0
 6123 001c BB68     		ldr	r3, [r7, #8]
 6124 001e 9B6A     		ldr	r3, [r3, #40]
 6125 0020 002B     		cmp	r3, #0
 6126 0022 0BD0     		beq	.L288
2032:..\..\..\lvgl\version_6.1.2\lvgl\src\lv_core/lv_obj.c ****                 if(par->style_p->glass == 0) {
 6127              		.loc 2 2032 0
 6128 0024 BB68     		ldr	r3, [r7, #8]
 6129 0026 9B6A     		ldr	r3, [r3, #40]
 6130 0028 1B78     		ldrb	r3, [r3]	@ zero_extendqisi2
 6131 002a 03F00103 		and	r3, r3, #1
 6132 002e DBB2     		uxtb	r3, r3
 6133 0030 002B     		cmp	r3, #0
 6134 0032 03D1     		bne	.L288
2033:..\..\..\lvgl\version_6.1.2\lvgl\src\lv_core/lv_obj.c **** #if LV_USE_GROUP == 0
2034:..\..\..\lvgl\version_6.1.2\lvgl\src\lv_core/lv_obj.c ****                     style_act = par->style_p;
 6135              		.loc 2 2034 0
 6136 0034 BB68     		ldr	r3, [r7, #8]
 6137 0036 9B6A     		ldr	r3, [r3, #40]
 6138 0038 FB60     		str	r3, [r7, #12]
2035:..\..\..\lvgl\version_6.1.2\lvgl\src\lv_core/lv_obj.c **** #else
2036:..\..\..\lvgl\version_6.1.2\lvgl\src\lv_core/lv_obj.c ****                     /*If a parent is focused then use then focused style*/
2037:..\..\..\lvgl\version_6.1.2\lvgl\src\lv_core/lv_obj.c ****                     lv_group_t * g = lv_obj_get_group(par);
2038:..\..\..\lvgl\version_6.1.2\lvgl\src\lv_core/lv_obj.c ****                     if(lv_group_get_focused(g) == par) {
2039:..\..\..\lvgl\version_6.1.2\lvgl\src\lv_core/lv_obj.c ****                         style_act = lv_group_mod_style(g, par->style_p);
2040:..\..\..\lvgl\version_6.1.2\lvgl\src\lv_core/lv_obj.c ****                     } else {
2041:..\..\..\lvgl\version_6.1.2\lvgl\src\lv_core/lv_obj.c ****                         style_act = par->style_p;
2042:..\..\..\lvgl\version_6.1.2\lvgl\src\lv_core/lv_obj.c ****                     }
2043:..\..\..\lvgl\version_6.1.2\lvgl\src\lv_core/lv_obj.c **** #endif
2044:..\..\..\lvgl\version_6.1.2\lvgl\src\lv_core/lv_obj.c ****                     break;
 6139              		.loc 2 2044 0
 6140 003a 05E0     		b	.L286
 6141              	.L288:
2045:..\..\..\lvgl\version_6.1.2\lvgl\src\lv_core/lv_obj.c ****                 }
2046:..\..\..\lvgl\version_6.1.2\lvgl\src\lv_core/lv_obj.c ****             }
2047:..\..\..\lvgl\version_6.1.2\lvgl\src\lv_core/lv_obj.c ****             par = par->par;
 6142              		.loc 2 2047 0
 6143 003c BB68     		ldr	r3, [r7, #8]
 6144 003e 1B68     		ldr	r3, [r3]
 6145 0040 BB60     		str	r3, [r7, #8]
 6146              	.L287:
2030:..\..\..\lvgl\version_6.1.2\lvgl\src\lv_core/lv_obj.c ****             if(par->style_p) {
ARM GAS  C:\Users\tmj32\AppData\Local\Temp\ccxLNxq9.s 			page 147


 6147              		.loc 2 2030 0
 6148 0042 BB68     		ldr	r3, [r7, #8]
 6149 0044 002B     		cmp	r3, #0
 6150 0046 E9D1     		bne	.L289
 6151              	.L286:
 6152              	.LBE10:
2048:..\..\..\lvgl\version_6.1.2\lvgl\src\lv_core/lv_obj.c ****         }
2049:..\..\..\lvgl\version_6.1.2\lvgl\src\lv_core/lv_obj.c ****     }
2050:..\..\..\lvgl\version_6.1.2\lvgl\src\lv_core/lv_obj.c **** #if LV_USE_GROUP
2051:..\..\..\lvgl\version_6.1.2\lvgl\src\lv_core/lv_obj.c ****     if(obj->group_p) {
2052:..\..\..\lvgl\version_6.1.2\lvgl\src\lv_core/lv_obj.c ****         if(lv_group_get_focused(obj->group_p) == obj) {
2053:..\..\..\lvgl\version_6.1.2\lvgl\src\lv_core/lv_obj.c ****             style_act = lv_group_mod_style(obj->group_p, style_act);
2054:..\..\..\lvgl\version_6.1.2\lvgl\src\lv_core/lv_obj.c ****         }
2055:..\..\..\lvgl\version_6.1.2\lvgl\src\lv_core/lv_obj.c ****     }
2056:..\..\..\lvgl\version_6.1.2\lvgl\src\lv_core/lv_obj.c **** #endif
2057:..\..\..\lvgl\version_6.1.2\lvgl\src\lv_core/lv_obj.c **** 
2058:..\..\..\lvgl\version_6.1.2\lvgl\src\lv_core/lv_obj.c ****     if(style_act == NULL) style_act = &lv_style_plain;
 6153              		.loc 2 2058 0
 6154 0048 FB68     		ldr	r3, [r7, #12]
 6155 004a 002B     		cmp	r3, #0
 6156 004c 01D1     		bne	.L290
 6157              		.loc 2 2058 0 is_stmt 0 discriminator 1
 6158 004e 044B     		ldr	r3, .L292
 6159 0050 FB60     		str	r3, [r7, #12]
 6160              	.L290:
2059:..\..\..\lvgl\version_6.1.2\lvgl\src\lv_core/lv_obj.c **** 
2060:..\..\..\lvgl\version_6.1.2\lvgl\src\lv_core/lv_obj.c ****     return style_act;
 6161              		.loc 2 2060 0 is_stmt 1
 6162 0052 FB68     		ldr	r3, [r7, #12]
2061:..\..\..\lvgl\version_6.1.2\lvgl\src\lv_core/lv_obj.c **** }
 6163              		.loc 2 2061 0
 6164 0054 1846     		mov	r0, r3
 6165 0056 1437     		adds	r7, r7, #20
 6166              		.cfi_def_cfa_offset 4
 6167 0058 BD46     		mov	sp, r7
 6168              		.cfi_def_cfa_register 13
 6169              		@ sp needed
 6170 005a 5DF8047B 		ldr	r7, [sp], #4
 6171              		.cfi_restore 7
 6172              		.cfi_def_cfa_offset 0
 6173 005e 7047     		bx	lr
 6174              	.L293:
 6175              		.align	2
 6176              	.L292:
 6177 0060 00000000 		.word	lv_style_plain
 6178              		.cfi_endproc
 6179              	.LFE103:
 6180              		.size	lv_obj_get_style, .-lv_obj_get_style
 6181              		.section	.text.lv_obj_get_hidden,"ax",%progbits
 6182              		.align	2
 6183              		.global	lv_obj_get_hidden
 6184              		.thumb
 6185              		.thumb_func
 6186              		.type	lv_obj_get_hidden, %function
 6187              	lv_obj_get_hidden:
 6188              	.LFB104:
2062:..\..\..\lvgl\version_6.1.2\lvgl\src\lv_core/lv_obj.c **** 
ARM GAS  C:\Users\tmj32\AppData\Local\Temp\ccxLNxq9.s 			page 148


2063:..\..\..\lvgl\version_6.1.2\lvgl\src\lv_core/lv_obj.c **** /*-----------------
2064:..\..\..\lvgl\version_6.1.2\lvgl\src\lv_core/lv_obj.c ****  * Attribute get
2065:..\..\..\lvgl\version_6.1.2\lvgl\src\lv_core/lv_obj.c ****  *----------------*/
2066:..\..\..\lvgl\version_6.1.2\lvgl\src\lv_core/lv_obj.c **** 
2067:..\..\..\lvgl\version_6.1.2\lvgl\src\lv_core/lv_obj.c **** /**
2068:..\..\..\lvgl\version_6.1.2\lvgl\src\lv_core/lv_obj.c ****  * Get the hidden attribute of an object
2069:..\..\..\lvgl\version_6.1.2\lvgl\src\lv_core/lv_obj.c ****  * @param obj pointer to an object
2070:..\..\..\lvgl\version_6.1.2\lvgl\src\lv_core/lv_obj.c ****  * @return true: the object is hidden
2071:..\..\..\lvgl\version_6.1.2\lvgl\src\lv_core/lv_obj.c ****  */
2072:..\..\..\lvgl\version_6.1.2\lvgl\src\lv_core/lv_obj.c **** bool lv_obj_get_hidden(const lv_obj_t * obj)
2073:..\..\..\lvgl\version_6.1.2\lvgl\src\lv_core/lv_obj.c **** {
 6189              		.loc 2 2073 0
 6190              		.cfi_startproc
 6191              		@ args = 0, pretend = 0, frame = 8
 6192              		@ frame_needed = 1, uses_anonymous_args = 0
 6193              		@ link register save eliminated.
 6194 0000 80B4     		push	{r7}
 6195              		.cfi_def_cfa_offset 4
 6196              		.cfi_offset 7, -4
 6197 0002 83B0     		sub	sp, sp, #12
 6198              		.cfi_def_cfa_offset 16
 6199 0004 00AF     		add	r7, sp, #0
 6200              		.cfi_def_cfa_register 7
 6201 0006 7860     		str	r0, [r7, #4]
2074:..\..\..\lvgl\version_6.1.2\lvgl\src\lv_core/lv_obj.c ****     LV_ASSERT_OBJ(obj, LV_OBJX_NAME);
2075:..\..\..\lvgl\version_6.1.2\lvgl\src\lv_core/lv_obj.c **** 
2076:..\..\..\lvgl\version_6.1.2\lvgl\src\lv_core/lv_obj.c ****     return obj->hidden == 0 ? false : true;
 6202              		.loc 2 2076 0
 6203 0008 7B68     		ldr	r3, [r7, #4]
 6204 000a 93F82C30 		ldrb	r3, [r3, #44]	@ zero_extendqisi2
 6205 000e 03F01003 		and	r3, r3, #16
 6206 0012 DBB2     		uxtb	r3, r3
 6207 0014 002B     		cmp	r3, #0
 6208 0016 14BF     		ite	ne
 6209 0018 0123     		movne	r3, #1
 6210 001a 0023     		moveq	r3, #0
 6211 001c DBB2     		uxtb	r3, r3
2077:..\..\..\lvgl\version_6.1.2\lvgl\src\lv_core/lv_obj.c **** }
 6212              		.loc 2 2077 0
 6213 001e 1846     		mov	r0, r3
 6214 0020 0C37     		adds	r7, r7, #12
 6215              		.cfi_def_cfa_offset 4
 6216 0022 BD46     		mov	sp, r7
 6217              		.cfi_def_cfa_register 13
 6218              		@ sp needed
 6219 0024 5DF8047B 		ldr	r7, [sp], #4
 6220              		.cfi_restore 7
 6221              		.cfi_def_cfa_offset 0
 6222 0028 7047     		bx	lr
 6223              		.cfi_endproc
 6224              	.LFE104:
 6225              		.size	lv_obj_get_hidden, .-lv_obj_get_hidden
 6226 002a 00BF     		.section	.text.lv_obj_get_click,"ax",%progbits
 6227              		.align	2
 6228              		.global	lv_obj_get_click
 6229              		.thumb
 6230              		.thumb_func
ARM GAS  C:\Users\tmj32\AppData\Local\Temp\ccxLNxq9.s 			page 149


 6231              		.type	lv_obj_get_click, %function
 6232              	lv_obj_get_click:
 6233              	.LFB105:
2078:..\..\..\lvgl\version_6.1.2\lvgl\src\lv_core/lv_obj.c **** 
2079:..\..\..\lvgl\version_6.1.2\lvgl\src\lv_core/lv_obj.c **** /**
2080:..\..\..\lvgl\version_6.1.2\lvgl\src\lv_core/lv_obj.c ****  * Get the click enable attribute of an object
2081:..\..\..\lvgl\version_6.1.2\lvgl\src\lv_core/lv_obj.c ****  * @param obj pointer to an object
2082:..\..\..\lvgl\version_6.1.2\lvgl\src\lv_core/lv_obj.c ****  * @return true: the object is clickable
2083:..\..\..\lvgl\version_6.1.2\lvgl\src\lv_core/lv_obj.c ****  */
2084:..\..\..\lvgl\version_6.1.2\lvgl\src\lv_core/lv_obj.c **** bool lv_obj_get_click(const lv_obj_t * obj)
2085:..\..\..\lvgl\version_6.1.2\lvgl\src\lv_core/lv_obj.c **** {
 6234              		.loc 2 2085 0
 6235              		.cfi_startproc
 6236              		@ args = 0, pretend = 0, frame = 8
 6237              		@ frame_needed = 1, uses_anonymous_args = 0
 6238              		@ link register save eliminated.
 6239 0000 80B4     		push	{r7}
 6240              		.cfi_def_cfa_offset 4
 6241              		.cfi_offset 7, -4
 6242 0002 83B0     		sub	sp, sp, #12
 6243              		.cfi_def_cfa_offset 16
 6244 0004 00AF     		add	r7, sp, #0
 6245              		.cfi_def_cfa_register 7
 6246 0006 7860     		str	r0, [r7, #4]
2086:..\..\..\lvgl\version_6.1.2\lvgl\src\lv_core/lv_obj.c ****     LV_ASSERT_OBJ(obj, LV_OBJX_NAME);
2087:..\..\..\lvgl\version_6.1.2\lvgl\src\lv_core/lv_obj.c **** 
2088:..\..\..\lvgl\version_6.1.2\lvgl\src\lv_core/lv_obj.c ****     return obj->click == 0 ? false : true;
 6247              		.loc 2 2088 0
 6248 0008 7B68     		ldr	r3, [r7, #4]
 6249 000a 93F82C30 		ldrb	r3, [r3, #44]	@ zero_extendqisi2
 6250 000e 03F00103 		and	r3, r3, #1
 6251 0012 DBB2     		uxtb	r3, r3
 6252 0014 002B     		cmp	r3, #0
 6253 0016 14BF     		ite	ne
 6254 0018 0123     		movne	r3, #1
 6255 001a 0023     		moveq	r3, #0
 6256 001c DBB2     		uxtb	r3, r3
2089:..\..\..\lvgl\version_6.1.2\lvgl\src\lv_core/lv_obj.c **** }
 6257              		.loc 2 2089 0
 6258 001e 1846     		mov	r0, r3
 6259 0020 0C37     		adds	r7, r7, #12
 6260              		.cfi_def_cfa_offset 4
 6261 0022 BD46     		mov	sp, r7
 6262              		.cfi_def_cfa_register 13
 6263              		@ sp needed
 6264 0024 5DF8047B 		ldr	r7, [sp], #4
 6265              		.cfi_restore 7
 6266              		.cfi_def_cfa_offset 0
 6267 0028 7047     		bx	lr
 6268              		.cfi_endproc
 6269              	.LFE105:
 6270              		.size	lv_obj_get_click, .-lv_obj_get_click
 6271 002a 00BF     		.section	.text.lv_obj_get_top,"ax",%progbits
 6272              		.align	2
 6273              		.global	lv_obj_get_top
 6274              		.thumb
 6275              		.thumb_func
ARM GAS  C:\Users\tmj32\AppData\Local\Temp\ccxLNxq9.s 			page 150


 6276              		.type	lv_obj_get_top, %function
 6277              	lv_obj_get_top:
 6278              	.LFB106:
2090:..\..\..\lvgl\version_6.1.2\lvgl\src\lv_core/lv_obj.c **** 
2091:..\..\..\lvgl\version_6.1.2\lvgl\src\lv_core/lv_obj.c **** /**
2092:..\..\..\lvgl\version_6.1.2\lvgl\src\lv_core/lv_obj.c ****  * Get the top enable attribute of an object
2093:..\..\..\lvgl\version_6.1.2\lvgl\src\lv_core/lv_obj.c ****  * @param obj pointer to an object
2094:..\..\..\lvgl\version_6.1.2\lvgl\src\lv_core/lv_obj.c ****  * @return true: the auto top feture is enabled
2095:..\..\..\lvgl\version_6.1.2\lvgl\src\lv_core/lv_obj.c ****  */
2096:..\..\..\lvgl\version_6.1.2\lvgl\src\lv_core/lv_obj.c **** bool lv_obj_get_top(const lv_obj_t * obj)
2097:..\..\..\lvgl\version_6.1.2\lvgl\src\lv_core/lv_obj.c **** {
 6279              		.loc 2 2097 0
 6280              		.cfi_startproc
 6281              		@ args = 0, pretend = 0, frame = 8
 6282              		@ frame_needed = 1, uses_anonymous_args = 0
 6283              		@ link register save eliminated.
 6284 0000 80B4     		push	{r7}
 6285              		.cfi_def_cfa_offset 4
 6286              		.cfi_offset 7, -4
 6287 0002 83B0     		sub	sp, sp, #12
 6288              		.cfi_def_cfa_offset 16
 6289 0004 00AF     		add	r7, sp, #0
 6290              		.cfi_def_cfa_register 7
 6291 0006 7860     		str	r0, [r7, #4]
2098:..\..\..\lvgl\version_6.1.2\lvgl\src\lv_core/lv_obj.c ****     LV_ASSERT_OBJ(obj, LV_OBJX_NAME);
2099:..\..\..\lvgl\version_6.1.2\lvgl\src\lv_core/lv_obj.c **** 
2100:..\..\..\lvgl\version_6.1.2\lvgl\src\lv_core/lv_obj.c ****     return obj->top == 0 ? false : true;
 6292              		.loc 2 2100 0
 6293 0008 7B68     		ldr	r3, [r7, #4]
 6294 000a 93F82C30 		ldrb	r3, [r3, #44]	@ zero_extendqisi2
 6295 000e 03F02003 		and	r3, r3, #32
 6296 0012 DBB2     		uxtb	r3, r3
 6297 0014 002B     		cmp	r3, #0
 6298 0016 14BF     		ite	ne
 6299 0018 0123     		movne	r3, #1
 6300 001a 0023     		moveq	r3, #0
 6301 001c DBB2     		uxtb	r3, r3
2101:..\..\..\lvgl\version_6.1.2\lvgl\src\lv_core/lv_obj.c **** }
 6302              		.loc 2 2101 0
 6303 001e 1846     		mov	r0, r3
 6304 0020 0C37     		adds	r7, r7, #12
 6305              		.cfi_def_cfa_offset 4
 6306 0022 BD46     		mov	sp, r7
 6307              		.cfi_def_cfa_register 13
 6308              		@ sp needed
 6309 0024 5DF8047B 		ldr	r7, [sp], #4
 6310              		.cfi_restore 7
 6311              		.cfi_def_cfa_offset 0
 6312 0028 7047     		bx	lr
 6313              		.cfi_endproc
 6314              	.LFE106:
 6315              		.size	lv_obj_get_top, .-lv_obj_get_top
 6316 002a 00BF     		.section	.text.lv_obj_get_drag,"ax",%progbits
 6317              		.align	2
 6318              		.global	lv_obj_get_drag
 6319              		.thumb
 6320              		.thumb_func
ARM GAS  C:\Users\tmj32\AppData\Local\Temp\ccxLNxq9.s 			page 151


 6321              		.type	lv_obj_get_drag, %function
 6322              	lv_obj_get_drag:
 6323              	.LFB107:
2102:..\..\..\lvgl\version_6.1.2\lvgl\src\lv_core/lv_obj.c **** 
2103:..\..\..\lvgl\version_6.1.2\lvgl\src\lv_core/lv_obj.c **** /**
2104:..\..\..\lvgl\version_6.1.2\lvgl\src\lv_core/lv_obj.c ****  * Get the drag enable attribute of an object
2105:..\..\..\lvgl\version_6.1.2\lvgl\src\lv_core/lv_obj.c ****  * @param obj pointer to an object
2106:..\..\..\lvgl\version_6.1.2\lvgl\src\lv_core/lv_obj.c ****  * @return true: the object is dragable
2107:..\..\..\lvgl\version_6.1.2\lvgl\src\lv_core/lv_obj.c ****  */
2108:..\..\..\lvgl\version_6.1.2\lvgl\src\lv_core/lv_obj.c **** bool lv_obj_get_drag(const lv_obj_t * obj)
2109:..\..\..\lvgl\version_6.1.2\lvgl\src\lv_core/lv_obj.c **** {
 6324              		.loc 2 2109 0
 6325              		.cfi_startproc
 6326              		@ args = 0, pretend = 0, frame = 8
 6327              		@ frame_needed = 1, uses_anonymous_args = 0
 6328              		@ link register save eliminated.
 6329 0000 80B4     		push	{r7}
 6330              		.cfi_def_cfa_offset 4
 6331              		.cfi_offset 7, -4
 6332 0002 83B0     		sub	sp, sp, #12
 6333              		.cfi_def_cfa_offset 16
 6334 0004 00AF     		add	r7, sp, #0
 6335              		.cfi_def_cfa_register 7
 6336 0006 7860     		str	r0, [r7, #4]
2110:..\..\..\lvgl\version_6.1.2\lvgl\src\lv_core/lv_obj.c ****     LV_ASSERT_OBJ(obj, LV_OBJX_NAME);
2111:..\..\..\lvgl\version_6.1.2\lvgl\src\lv_core/lv_obj.c **** 
2112:..\..\..\lvgl\version_6.1.2\lvgl\src\lv_core/lv_obj.c ****     return obj->drag == 0 ? false : true;
 6337              		.loc 2 2112 0
 6338 0008 7B68     		ldr	r3, [r7, #4]
 6339 000a 93F82C30 		ldrb	r3, [r3, #44]	@ zero_extendqisi2
 6340 000e 03F00203 		and	r3, r3, #2
 6341 0012 DBB2     		uxtb	r3, r3
 6342 0014 002B     		cmp	r3, #0
 6343 0016 14BF     		ite	ne
 6344 0018 0123     		movne	r3, #1
 6345 001a 0023     		moveq	r3, #0
 6346 001c DBB2     		uxtb	r3, r3
2113:..\..\..\lvgl\version_6.1.2\lvgl\src\lv_core/lv_obj.c **** }
 6347              		.loc 2 2113 0
 6348 001e 1846     		mov	r0, r3
 6349 0020 0C37     		adds	r7, r7, #12
 6350              		.cfi_def_cfa_offset 4
 6351 0022 BD46     		mov	sp, r7
 6352              		.cfi_def_cfa_register 13
 6353              		@ sp needed
 6354 0024 5DF8047B 		ldr	r7, [sp], #4
 6355              		.cfi_restore 7
 6356              		.cfi_def_cfa_offset 0
 6357 0028 7047     		bx	lr
 6358              		.cfi_endproc
 6359              	.LFE107:
 6360              		.size	lv_obj_get_drag, .-lv_obj_get_drag
 6361 002a 00BF     		.section	.text.lv_obj_get_drag_dir,"ax",%progbits
 6362              		.align	2
 6363              		.global	lv_obj_get_drag_dir
 6364              		.thumb
 6365              		.thumb_func
ARM GAS  C:\Users\tmj32\AppData\Local\Temp\ccxLNxq9.s 			page 152


 6366              		.type	lv_obj_get_drag_dir, %function
 6367              	lv_obj_get_drag_dir:
 6368              	.LFB108:
2114:..\..\..\lvgl\version_6.1.2\lvgl\src\lv_core/lv_obj.c **** 
2115:..\..\..\lvgl\version_6.1.2\lvgl\src\lv_core/lv_obj.c **** /**
2116:..\..\..\lvgl\version_6.1.2\lvgl\src\lv_core/lv_obj.c ****  * Get the directions an object can be dragged
2117:..\..\..\lvgl\version_6.1.2\lvgl\src\lv_core/lv_obj.c ****  * @param obj pointer to an object
2118:..\..\..\lvgl\version_6.1.2\lvgl\src\lv_core/lv_obj.c ****  * @return bitwise OR of allowed directions an object can be dragged in
2119:..\..\..\lvgl\version_6.1.2\lvgl\src\lv_core/lv_obj.c ****  */
2120:..\..\..\lvgl\version_6.1.2\lvgl\src\lv_core/lv_obj.c **** lv_drag_dir_t lv_obj_get_drag_dir(const lv_obj_t * obj)
2121:..\..\..\lvgl\version_6.1.2\lvgl\src\lv_core/lv_obj.c **** {
 6369              		.loc 2 2121 0
 6370              		.cfi_startproc
 6371              		@ args = 0, pretend = 0, frame = 8
 6372              		@ frame_needed = 1, uses_anonymous_args = 0
 6373              		@ link register save eliminated.
 6374 0000 80B4     		push	{r7}
 6375              		.cfi_def_cfa_offset 4
 6376              		.cfi_offset 7, -4
 6377 0002 83B0     		sub	sp, sp, #12
 6378              		.cfi_def_cfa_offset 16
 6379 0004 00AF     		add	r7, sp, #0
 6380              		.cfi_def_cfa_register 7
 6381 0006 7860     		str	r0, [r7, #4]
2122:..\..\..\lvgl\version_6.1.2\lvgl\src\lv_core/lv_obj.c ****     LV_ASSERT_OBJ(obj, LV_OBJX_NAME);
2123:..\..\..\lvgl\version_6.1.2\lvgl\src\lv_core/lv_obj.c **** 
2124:..\..\..\lvgl\version_6.1.2\lvgl\src\lv_core/lv_obj.c ****     return obj->drag_dir;
 6382              		.loc 2 2124 0
 6383 0008 7B68     		ldr	r3, [r7, #4]
 6384 000a 93F82D30 		ldrb	r3, [r3, #45]
 6385 000e C3F30103 		ubfx	r3, r3, #0, #2
 6386 0012 DBB2     		uxtb	r3, r3
2125:..\..\..\lvgl\version_6.1.2\lvgl\src\lv_core/lv_obj.c **** }
 6387              		.loc 2 2125 0
 6388 0014 1846     		mov	r0, r3
 6389 0016 0C37     		adds	r7, r7, #12
 6390              		.cfi_def_cfa_offset 4
 6391 0018 BD46     		mov	sp, r7
 6392              		.cfi_def_cfa_register 13
 6393              		@ sp needed
 6394 001a 5DF8047B 		ldr	r7, [sp], #4
 6395              		.cfi_restore 7
 6396              		.cfi_def_cfa_offset 0
 6397 001e 7047     		bx	lr
 6398              		.cfi_endproc
 6399              	.LFE108:
 6400              		.size	lv_obj_get_drag_dir, .-lv_obj_get_drag_dir
 6401              		.section	.text.lv_obj_get_drag_throw,"ax",%progbits
 6402              		.align	2
 6403              		.global	lv_obj_get_drag_throw
 6404              		.thumb
 6405              		.thumb_func
 6406              		.type	lv_obj_get_drag_throw, %function
 6407              	lv_obj_get_drag_throw:
 6408              	.LFB109:
2126:..\..\..\lvgl\version_6.1.2\lvgl\src\lv_core/lv_obj.c **** 
2127:..\..\..\lvgl\version_6.1.2\lvgl\src\lv_core/lv_obj.c **** /**
ARM GAS  C:\Users\tmj32\AppData\Local\Temp\ccxLNxq9.s 			page 153


2128:..\..\..\lvgl\version_6.1.2\lvgl\src\lv_core/lv_obj.c ****  * Get the drag throw enable attribute of an object
2129:..\..\..\lvgl\version_6.1.2\lvgl\src\lv_core/lv_obj.c ****  * @param obj pointer to an object
2130:..\..\..\lvgl\version_6.1.2\lvgl\src\lv_core/lv_obj.c ****  * @return true: drag throw is enabled
2131:..\..\..\lvgl\version_6.1.2\lvgl\src\lv_core/lv_obj.c ****  */
2132:..\..\..\lvgl\version_6.1.2\lvgl\src\lv_core/lv_obj.c **** bool lv_obj_get_drag_throw(const lv_obj_t * obj)
2133:..\..\..\lvgl\version_6.1.2\lvgl\src\lv_core/lv_obj.c **** {
 6409              		.loc 2 2133 0
 6410              		.cfi_startproc
 6411              		@ args = 0, pretend = 0, frame = 8
 6412              		@ frame_needed = 1, uses_anonymous_args = 0
 6413              		@ link register save eliminated.
 6414 0000 80B4     		push	{r7}
 6415              		.cfi_def_cfa_offset 4
 6416              		.cfi_offset 7, -4
 6417 0002 83B0     		sub	sp, sp, #12
 6418              		.cfi_def_cfa_offset 16
 6419 0004 00AF     		add	r7, sp, #0
 6420              		.cfi_def_cfa_register 7
 6421 0006 7860     		str	r0, [r7, #4]
2134:..\..\..\lvgl\version_6.1.2\lvgl\src\lv_core/lv_obj.c ****     LV_ASSERT_OBJ(obj, LV_OBJX_NAME);
2135:..\..\..\lvgl\version_6.1.2\lvgl\src\lv_core/lv_obj.c **** 
2136:..\..\..\lvgl\version_6.1.2\lvgl\src\lv_core/lv_obj.c ****     return obj->drag_throw == 0 ? false : true;
 6422              		.loc 2 2136 0
 6423 0008 7B68     		ldr	r3, [r7, #4]
 6424 000a 93F82C30 		ldrb	r3, [r3, #44]	@ zero_extendqisi2
 6425 000e 03F00403 		and	r3, r3, #4
 6426 0012 DBB2     		uxtb	r3, r3
 6427 0014 002B     		cmp	r3, #0
 6428 0016 14BF     		ite	ne
 6429 0018 0123     		movne	r3, #1
 6430 001a 0023     		moveq	r3, #0
 6431 001c DBB2     		uxtb	r3, r3
2137:..\..\..\lvgl\version_6.1.2\lvgl\src\lv_core/lv_obj.c **** }
 6432              		.loc 2 2137 0
 6433 001e 1846     		mov	r0, r3
 6434 0020 0C37     		adds	r7, r7, #12
 6435              		.cfi_def_cfa_offset 4
 6436 0022 BD46     		mov	sp, r7
 6437              		.cfi_def_cfa_register 13
 6438              		@ sp needed
 6439 0024 5DF8047B 		ldr	r7, [sp], #4
 6440              		.cfi_restore 7
 6441              		.cfi_def_cfa_offset 0
 6442 0028 7047     		bx	lr
 6443              		.cfi_endproc
 6444              	.LFE109:
 6445              		.size	lv_obj_get_drag_throw, .-lv_obj_get_drag_throw
 6446 002a 00BF     		.section	.text.lv_obj_get_drag_parent,"ax",%progbits
 6447              		.align	2
 6448              		.global	lv_obj_get_drag_parent
 6449              		.thumb
 6450              		.thumb_func
 6451              		.type	lv_obj_get_drag_parent, %function
 6452              	lv_obj_get_drag_parent:
 6453              	.LFB110:
2138:..\..\..\lvgl\version_6.1.2\lvgl\src\lv_core/lv_obj.c **** 
2139:..\..\..\lvgl\version_6.1.2\lvgl\src\lv_core/lv_obj.c **** /**
ARM GAS  C:\Users\tmj32\AppData\Local\Temp\ccxLNxq9.s 			page 154


2140:..\..\..\lvgl\version_6.1.2\lvgl\src\lv_core/lv_obj.c ****  * Get the drag parent attribute of an object
2141:..\..\..\lvgl\version_6.1.2\lvgl\src\lv_core/lv_obj.c ****  * @param obj pointer to an object
2142:..\..\..\lvgl\version_6.1.2\lvgl\src\lv_core/lv_obj.c ****  * @return true: drag parent is enabled
2143:..\..\..\lvgl\version_6.1.2\lvgl\src\lv_core/lv_obj.c ****  */
2144:..\..\..\lvgl\version_6.1.2\lvgl\src\lv_core/lv_obj.c **** bool lv_obj_get_drag_parent(const lv_obj_t * obj)
2145:..\..\..\lvgl\version_6.1.2\lvgl\src\lv_core/lv_obj.c **** {
 6454              		.loc 2 2145 0
 6455              		.cfi_startproc
 6456              		@ args = 0, pretend = 0, frame = 8
 6457              		@ frame_needed = 1, uses_anonymous_args = 0
 6458              		@ link register save eliminated.
 6459 0000 80B4     		push	{r7}
 6460              		.cfi_def_cfa_offset 4
 6461              		.cfi_offset 7, -4
 6462 0002 83B0     		sub	sp, sp, #12
 6463              		.cfi_def_cfa_offset 16
 6464 0004 00AF     		add	r7, sp, #0
 6465              		.cfi_def_cfa_register 7
 6466 0006 7860     		str	r0, [r7, #4]
2146:..\..\..\lvgl\version_6.1.2\lvgl\src\lv_core/lv_obj.c ****     return obj->drag_parent == 0 ? false : true;
 6467              		.loc 2 2146 0
 6468 0008 7B68     		ldr	r3, [r7, #4]
 6469 000a 93F82C30 		ldrb	r3, [r3, #44]	@ zero_extendqisi2
 6470 000e 03F00803 		and	r3, r3, #8
 6471 0012 DBB2     		uxtb	r3, r3
 6472 0014 002B     		cmp	r3, #0
 6473 0016 14BF     		ite	ne
 6474 0018 0123     		movne	r3, #1
 6475 001a 0023     		moveq	r3, #0
 6476 001c DBB2     		uxtb	r3, r3
2147:..\..\..\lvgl\version_6.1.2\lvgl\src\lv_core/lv_obj.c **** }
 6477              		.loc 2 2147 0
 6478 001e 1846     		mov	r0, r3
 6479 0020 0C37     		adds	r7, r7, #12
 6480              		.cfi_def_cfa_offset 4
 6481 0022 BD46     		mov	sp, r7
 6482              		.cfi_def_cfa_register 13
 6483              		@ sp needed
 6484 0024 5DF8047B 		ldr	r7, [sp], #4
 6485              		.cfi_restore 7
 6486              		.cfi_def_cfa_offset 0
 6487 0028 7047     		bx	lr
 6488              		.cfi_endproc
 6489              	.LFE110:
 6490              		.size	lv_obj_get_drag_parent, .-lv_obj_get_drag_parent
 6491 002a 00BF     		.section	.text.lv_obj_get_parent_event,"ax",%progbits
 6492              		.align	2
 6493              		.global	lv_obj_get_parent_event
 6494              		.thumb
 6495              		.thumb_func
 6496              		.type	lv_obj_get_parent_event, %function
 6497              	lv_obj_get_parent_event:
 6498              	.LFB111:
2148:..\..\..\lvgl\version_6.1.2\lvgl\src\lv_core/lv_obj.c **** 
2149:..\..\..\lvgl\version_6.1.2\lvgl\src\lv_core/lv_obj.c **** /**
2150:..\..\..\lvgl\version_6.1.2\lvgl\src\lv_core/lv_obj.c ****  * Get the drag parent attribute of an object
2151:..\..\..\lvgl\version_6.1.2\lvgl\src\lv_core/lv_obj.c ****  * @param obj pointer to an object
ARM GAS  C:\Users\tmj32\AppData\Local\Temp\ccxLNxq9.s 			page 155


2152:..\..\..\lvgl\version_6.1.2\lvgl\src\lv_core/lv_obj.c ****  * @return true: drag parent is enabled
2153:..\..\..\lvgl\version_6.1.2\lvgl\src\lv_core/lv_obj.c ****  */
2154:..\..\..\lvgl\version_6.1.2\lvgl\src\lv_core/lv_obj.c **** bool lv_obj_get_parent_event(const lv_obj_t * obj)
2155:..\..\..\lvgl\version_6.1.2\lvgl\src\lv_core/lv_obj.c **** {
 6499              		.loc 2 2155 0
 6500              		.cfi_startproc
 6501              		@ args = 0, pretend = 0, frame = 8
 6502              		@ frame_needed = 1, uses_anonymous_args = 0
 6503              		@ link register save eliminated.
 6504 0000 80B4     		push	{r7}
 6505              		.cfi_def_cfa_offset 4
 6506              		.cfi_offset 7, -4
 6507 0002 83B0     		sub	sp, sp, #12
 6508              		.cfi_def_cfa_offset 16
 6509 0004 00AF     		add	r7, sp, #0
 6510              		.cfi_def_cfa_register 7
 6511 0006 7860     		str	r0, [r7, #4]
2156:..\..\..\lvgl\version_6.1.2\lvgl\src\lv_core/lv_obj.c ****     LV_ASSERT_OBJ(obj, LV_OBJX_NAME);
2157:..\..\..\lvgl\version_6.1.2\lvgl\src\lv_core/lv_obj.c **** 
2158:..\..\..\lvgl\version_6.1.2\lvgl\src\lv_core/lv_obj.c ****     return obj->parent_event == 0 ? false : true;
 6512              		.loc 2 2158 0
 6513 0008 7B68     		ldr	r3, [r7, #4]
 6514 000a 93F82C30 		ldrb	r3, [r3, #44]	@ zero_extendqisi2
 6515 000e 23F07F03 		bic	r3, r3, #127
 6516 0012 DBB2     		uxtb	r3, r3
 6517 0014 002B     		cmp	r3, #0
 6518 0016 14BF     		ite	ne
 6519 0018 0123     		movne	r3, #1
 6520 001a 0023     		moveq	r3, #0
 6521 001c DBB2     		uxtb	r3, r3
2159:..\..\..\lvgl\version_6.1.2\lvgl\src\lv_core/lv_obj.c **** }
 6522              		.loc 2 2159 0
 6523 001e 1846     		mov	r0, r3
 6524 0020 0C37     		adds	r7, r7, #12
 6525              		.cfi_def_cfa_offset 4
 6526 0022 BD46     		mov	sp, r7
 6527              		.cfi_def_cfa_register 13
 6528              		@ sp needed
 6529 0024 5DF8047B 		ldr	r7, [sp], #4
 6530              		.cfi_restore 7
 6531              		.cfi_def_cfa_offset 0
 6532 0028 7047     		bx	lr
 6533              		.cfi_endproc
 6534              	.LFE111:
 6535              		.size	lv_obj_get_parent_event, .-lv_obj_get_parent_event
 6536 002a 00BF     		.section	.text.lv_obj_get_base_dir,"ax",%progbits
 6537              		.align	2
 6538              		.global	lv_obj_get_base_dir
 6539              		.thumb
 6540              		.thumb_func
 6541              		.type	lv_obj_get_base_dir, %function
 6542              	lv_obj_get_base_dir:
 6543              	.LFB112:
2160:..\..\..\lvgl\version_6.1.2\lvgl\src\lv_core/lv_obj.c **** 
2161:..\..\..\lvgl\version_6.1.2\lvgl\src\lv_core/lv_obj.c **** 
2162:..\..\..\lvgl\version_6.1.2\lvgl\src\lv_core/lv_obj.c **** lv_bidi_dir_t lv_obj_get_base_dir(const lv_obj_t * obj)
2163:..\..\..\lvgl\version_6.1.2\lvgl\src\lv_core/lv_obj.c **** {
ARM GAS  C:\Users\tmj32\AppData\Local\Temp\ccxLNxq9.s 			page 156


 6544              		.loc 2 2163 0
 6545              		.cfi_startproc
 6546              		@ args = 0, pretend = 0, frame = 8
 6547              		@ frame_needed = 1, uses_anonymous_args = 0
 6548              		@ link register save eliminated.
 6549 0000 80B4     		push	{r7}
 6550              		.cfi_def_cfa_offset 4
 6551              		.cfi_offset 7, -4
 6552 0002 83B0     		sub	sp, sp, #12
 6553              		.cfi_def_cfa_offset 16
 6554 0004 00AF     		add	r7, sp, #0
 6555              		.cfi_def_cfa_register 7
 6556 0006 7860     		str	r0, [r7, #4]
2164:..\..\..\lvgl\version_6.1.2\lvgl\src\lv_core/lv_obj.c **** #if LV_USE_BIDI
2165:..\..\..\lvgl\version_6.1.2\lvgl\src\lv_core/lv_obj.c ****     const lv_obj_t * parent = obj;
2166:..\..\..\lvgl\version_6.1.2\lvgl\src\lv_core/lv_obj.c **** 
2167:..\..\..\lvgl\version_6.1.2\lvgl\src\lv_core/lv_obj.c ****     while(parent) {
2168:..\..\..\lvgl\version_6.1.2\lvgl\src\lv_core/lv_obj.c ****         if(parent->base_dir != LV_BIDI_DIR_INHERIT) return parent->base_dir;
2169:..\..\..\lvgl\version_6.1.2\lvgl\src\lv_core/lv_obj.c **** 
2170:..\..\..\lvgl\version_6.1.2\lvgl\src\lv_core/lv_obj.c ****         parent = lv_obj_get_parent(parent);
2171:..\..\..\lvgl\version_6.1.2\lvgl\src\lv_core/lv_obj.c ****     }
2172:..\..\..\lvgl\version_6.1.2\lvgl\src\lv_core/lv_obj.c **** 
2173:..\..\..\lvgl\version_6.1.2\lvgl\src\lv_core/lv_obj.c ****     return LV_BIDI_BASE_DIR_DEF;
2174:..\..\..\lvgl\version_6.1.2\lvgl\src\lv_core/lv_obj.c **** #else
2175:..\..\..\lvgl\version_6.1.2\lvgl\src\lv_core/lv_obj.c ****     (void) obj;  /*Unused*/
2176:..\..\..\lvgl\version_6.1.2\lvgl\src\lv_core/lv_obj.c ****     return LV_BIDI_DIR_LTR;
 6557              		.loc 2 2176 0
 6558 0008 0023     		movs	r3, #0
2177:..\..\..\lvgl\version_6.1.2\lvgl\src\lv_core/lv_obj.c **** #endif
2178:..\..\..\lvgl\version_6.1.2\lvgl\src\lv_core/lv_obj.c **** }
 6559              		.loc 2 2178 0
 6560 000a 1846     		mov	r0, r3
 6561 000c 0C37     		adds	r7, r7, #12
 6562              		.cfi_def_cfa_offset 4
 6563 000e BD46     		mov	sp, r7
 6564              		.cfi_def_cfa_register 13
 6565              		@ sp needed
 6566 0010 5DF8047B 		ldr	r7, [sp], #4
 6567              		.cfi_restore 7
 6568              		.cfi_def_cfa_offset 0
 6569 0014 7047     		bx	lr
 6570              		.cfi_endproc
 6571              	.LFE112:
 6572              		.size	lv_obj_get_base_dir, .-lv_obj_get_base_dir
 6573 0016 00BF     		.section	.text.lv_obj_get_opa_scale_enable,"ax",%progbits
 6574              		.align	2
 6575              		.global	lv_obj_get_opa_scale_enable
 6576              		.thumb
 6577              		.thumb_func
 6578              		.type	lv_obj_get_opa_scale_enable, %function
 6579              	lv_obj_get_opa_scale_enable:
 6580              	.LFB113:
2179:..\..\..\lvgl\version_6.1.2\lvgl\src\lv_core/lv_obj.c **** 
2180:..\..\..\lvgl\version_6.1.2\lvgl\src\lv_core/lv_obj.c **** 
2181:..\..\..\lvgl\version_6.1.2\lvgl\src\lv_core/lv_obj.c **** /**
2182:..\..\..\lvgl\version_6.1.2\lvgl\src\lv_core/lv_obj.c ****  * Get the opa scale enable parameter
2183:..\..\..\lvgl\version_6.1.2\lvgl\src\lv_core/lv_obj.c ****  * @param obj pointer to an object
ARM GAS  C:\Users\tmj32\AppData\Local\Temp\ccxLNxq9.s 			page 157


2184:..\..\..\lvgl\version_6.1.2\lvgl\src\lv_core/lv_obj.c ****  * @return true: opa scaling is enabled for this object and all children; false: no opa scaling
2185:..\..\..\lvgl\version_6.1.2\lvgl\src\lv_core/lv_obj.c ****  */
2186:..\..\..\lvgl\version_6.1.2\lvgl\src\lv_core/lv_obj.c **** lv_opa_t lv_obj_get_opa_scale_enable(const lv_obj_t * obj)
2187:..\..\..\lvgl\version_6.1.2\lvgl\src\lv_core/lv_obj.c **** {
 6581              		.loc 2 2187 0
 6582              		.cfi_startproc
 6583              		@ args = 0, pretend = 0, frame = 8
 6584              		@ frame_needed = 1, uses_anonymous_args = 0
 6585              		@ link register save eliminated.
 6586 0000 80B4     		push	{r7}
 6587              		.cfi_def_cfa_offset 4
 6588              		.cfi_offset 7, -4
 6589 0002 83B0     		sub	sp, sp, #12
 6590              		.cfi_def_cfa_offset 16
 6591 0004 00AF     		add	r7, sp, #0
 6592              		.cfi_def_cfa_register 7
 6593 0006 7860     		str	r0, [r7, #4]
2188:..\..\..\lvgl\version_6.1.2\lvgl\src\lv_core/lv_obj.c ****     LV_ASSERT_OBJ(obj, LV_OBJX_NAME);
2189:..\..\..\lvgl\version_6.1.2\lvgl\src\lv_core/lv_obj.c **** 
2190:..\..\..\lvgl\version_6.1.2\lvgl\src\lv_core/lv_obj.c ****     return obj->opa_scale_en == 0 ? false : true;
 6594              		.loc 2 2190 0
 6595 0008 7B68     		ldr	r3, [r7, #4]
 6596 000a 93F82C30 		ldrb	r3, [r3, #44]	@ zero_extendqisi2
 6597 000e 03F04003 		and	r3, r3, #64
 6598 0012 DBB2     		uxtb	r3, r3
 6599 0014 002B     		cmp	r3, #0
 6600 0016 14BF     		ite	ne
 6601 0018 0123     		movne	r3, #1
 6602 001a 0023     		moveq	r3, #0
 6603 001c DBB2     		uxtb	r3, r3
2191:..\..\..\lvgl\version_6.1.2\lvgl\src\lv_core/lv_obj.c **** }
 6604              		.loc 2 2191 0
 6605 001e 1846     		mov	r0, r3
 6606 0020 0C37     		adds	r7, r7, #12
 6607              		.cfi_def_cfa_offset 4
 6608 0022 BD46     		mov	sp, r7
 6609              		.cfi_def_cfa_register 13
 6610              		@ sp needed
 6611 0024 5DF8047B 		ldr	r7, [sp], #4
 6612              		.cfi_restore 7
 6613              		.cfi_def_cfa_offset 0
 6614 0028 7047     		bx	lr
 6615              		.cfi_endproc
 6616              	.LFE113:
 6617              		.size	lv_obj_get_opa_scale_enable, .-lv_obj_get_opa_scale_enable
 6618 002a 00BF     		.section	.text.lv_obj_get_opa_scale,"ax",%progbits
 6619              		.align	2
 6620              		.global	lv_obj_get_opa_scale
 6621              		.thumb
 6622              		.thumb_func
 6623              		.type	lv_obj_get_opa_scale, %function
 6624              	lv_obj_get_opa_scale:
 6625              	.LFB114:
2192:..\..\..\lvgl\version_6.1.2\lvgl\src\lv_core/lv_obj.c **** 
2193:..\..\..\lvgl\version_6.1.2\lvgl\src\lv_core/lv_obj.c **** /**
2194:..\..\..\lvgl\version_6.1.2\lvgl\src\lv_core/lv_obj.c ****  * Get the opa scale parameter of an object
2195:..\..\..\lvgl\version_6.1.2\lvgl\src\lv_core/lv_obj.c ****  * @param obj pointer to an object
ARM GAS  C:\Users\tmj32\AppData\Local\Temp\ccxLNxq9.s 			page 158


2196:..\..\..\lvgl\version_6.1.2\lvgl\src\lv_core/lv_obj.c ****  * @return opa scale [0..255]
2197:..\..\..\lvgl\version_6.1.2\lvgl\src\lv_core/lv_obj.c ****  */
2198:..\..\..\lvgl\version_6.1.2\lvgl\src\lv_core/lv_obj.c **** lv_opa_t lv_obj_get_opa_scale(const lv_obj_t * obj)
2199:..\..\..\lvgl\version_6.1.2\lvgl\src\lv_core/lv_obj.c **** {
 6626              		.loc 2 2199 0
 6627              		.cfi_startproc
 6628              		@ args = 0, pretend = 0, frame = 16
 6629              		@ frame_needed = 1, uses_anonymous_args = 0
 6630 0000 80B5     		push	{r7, lr}
 6631              		.cfi_def_cfa_offset 8
 6632              		.cfi_offset 7, -8
 6633              		.cfi_offset 14, -4
 6634 0002 84B0     		sub	sp, sp, #16
 6635              		.cfi_def_cfa_offset 24
 6636 0004 00AF     		add	r7, sp, #0
 6637              		.cfi_def_cfa_register 7
 6638 0006 7860     		str	r0, [r7, #4]
2200:..\..\..\lvgl\version_6.1.2\lvgl\src\lv_core/lv_obj.c ****     LV_ASSERT_OBJ(obj, LV_OBJX_NAME);
2201:..\..\..\lvgl\version_6.1.2\lvgl\src\lv_core/lv_obj.c **** 
2202:..\..\..\lvgl\version_6.1.2\lvgl\src\lv_core/lv_obj.c ****     const lv_obj_t * parent = obj;
 6639              		.loc 2 2202 0
 6640 0008 7B68     		ldr	r3, [r7, #4]
 6641 000a FB60     		str	r3, [r7, #12]
2203:..\..\..\lvgl\version_6.1.2\lvgl\src\lv_core/lv_obj.c **** 
2204:..\..\..\lvgl\version_6.1.2\lvgl\src\lv_core/lv_obj.c ****     while(parent) {
 6642              		.loc 2 2204 0
 6643 000c 0FE0     		b	.L315
 6644              	.L318:
2205:..\..\..\lvgl\version_6.1.2\lvgl\src\lv_core/lv_obj.c ****         if(parent->opa_scale_en) return parent->opa_scale;
 6645              		.loc 2 2205 0
 6646 000e FB68     		ldr	r3, [r7, #12]
 6647 0010 93F82C30 		ldrb	r3, [r3, #44]	@ zero_extendqisi2
 6648 0014 03F04003 		and	r3, r3, #64
 6649 0018 DBB2     		uxtb	r3, r3
 6650 001a 002B     		cmp	r3, #0
 6651 001c 03D0     		beq	.L316
 6652              		.loc 2 2205 0 is_stmt 0 discriminator 1
 6653 001e FB68     		ldr	r3, [r7, #12]
 6654 0020 93F82F30 		ldrb	r3, [r3, #47]	@ zero_extendqisi2
 6655 0024 07E0     		b	.L317
 6656              	.L316:
2206:..\..\..\lvgl\version_6.1.2\lvgl\src\lv_core/lv_obj.c ****         parent = lv_obj_get_parent(parent);
 6657              		.loc 2 2206 0 is_stmt 1
 6658 0026 F868     		ldr	r0, [r7, #12]
 6659 0028 FFF7FEFF 		bl	lv_obj_get_parent
 6660 002c F860     		str	r0, [r7, #12]
 6661              	.L315:
2204:..\..\..\lvgl\version_6.1.2\lvgl\src\lv_core/lv_obj.c ****         if(parent->opa_scale_en) return parent->opa_scale;
 6662              		.loc 2 2204 0
 6663 002e FB68     		ldr	r3, [r7, #12]
 6664 0030 002B     		cmp	r3, #0
 6665 0032 ECD1     		bne	.L318
2207:..\..\..\lvgl\version_6.1.2\lvgl\src\lv_core/lv_obj.c ****     }
2208:..\..\..\lvgl\version_6.1.2\lvgl\src\lv_core/lv_obj.c **** 
2209:..\..\..\lvgl\version_6.1.2\lvgl\src\lv_core/lv_obj.c ****     return LV_OPA_COVER;
 6666              		.loc 2 2209 0
 6667 0034 FF23     		movs	r3, #255
ARM GAS  C:\Users\tmj32\AppData\Local\Temp\ccxLNxq9.s 			page 159


 6668              	.L317:
2210:..\..\..\lvgl\version_6.1.2\lvgl\src\lv_core/lv_obj.c **** }
 6669              		.loc 2 2210 0
 6670 0036 1846     		mov	r0, r3
 6671 0038 1037     		adds	r7, r7, #16
 6672              		.cfi_def_cfa_offset 8
 6673 003a BD46     		mov	sp, r7
 6674              		.cfi_def_cfa_register 13
 6675              		@ sp needed
 6676 003c 80BD     		pop	{r7, pc}
 6677              		.cfi_endproc
 6678              	.LFE114:
 6679              		.size	lv_obj_get_opa_scale, .-lv_obj_get_opa_scale
 6680 003e 00BF     		.section	.text.lv_obj_get_protect,"ax",%progbits
 6681              		.align	2
 6682              		.global	lv_obj_get_protect
 6683              		.thumb
 6684              		.thumb_func
 6685              		.type	lv_obj_get_protect, %function
 6686              	lv_obj_get_protect:
 6687              	.LFB115:
2211:..\..\..\lvgl\version_6.1.2\lvgl\src\lv_core/lv_obj.c **** 
2212:..\..\..\lvgl\version_6.1.2\lvgl\src\lv_core/lv_obj.c **** /**
2213:..\..\..\lvgl\version_6.1.2\lvgl\src\lv_core/lv_obj.c ****  * Get the protect field of an object
2214:..\..\..\lvgl\version_6.1.2\lvgl\src\lv_core/lv_obj.c ****  * @param obj pointer to an object
2215:..\..\..\lvgl\version_6.1.2\lvgl\src\lv_core/lv_obj.c ****  * @return protect field ('OR'ed values of `lv_protect_t`)
2216:..\..\..\lvgl\version_6.1.2\lvgl\src\lv_core/lv_obj.c ****  */
2217:..\..\..\lvgl\version_6.1.2\lvgl\src\lv_core/lv_obj.c **** uint8_t lv_obj_get_protect(const lv_obj_t * obj)
2218:..\..\..\lvgl\version_6.1.2\lvgl\src\lv_core/lv_obj.c **** {
 6688              		.loc 2 2218 0
 6689              		.cfi_startproc
 6690              		@ args = 0, pretend = 0, frame = 8
 6691              		@ frame_needed = 1, uses_anonymous_args = 0
 6692              		@ link register save eliminated.
 6693 0000 80B4     		push	{r7}
 6694              		.cfi_def_cfa_offset 4
 6695              		.cfi_offset 7, -4
 6696 0002 83B0     		sub	sp, sp, #12
 6697              		.cfi_def_cfa_offset 16
 6698 0004 00AF     		add	r7, sp, #0
 6699              		.cfi_def_cfa_register 7
 6700 0006 7860     		str	r0, [r7, #4]
2219:..\..\..\lvgl\version_6.1.2\lvgl\src\lv_core/lv_obj.c ****     LV_ASSERT_OBJ(obj, LV_OBJX_NAME);
2220:..\..\..\lvgl\version_6.1.2\lvgl\src\lv_core/lv_obj.c **** 
2221:..\..\..\lvgl\version_6.1.2\lvgl\src\lv_core/lv_obj.c ****     return obj->protect;
 6701              		.loc 2 2221 0
 6702 0008 7B68     		ldr	r3, [r7, #4]
 6703 000a 93F82E30 		ldrb	r3, [r3, #46]	@ zero_extendqisi2
2222:..\..\..\lvgl\version_6.1.2\lvgl\src\lv_core/lv_obj.c **** }
 6704              		.loc 2 2222 0
 6705 000e 1846     		mov	r0, r3
 6706 0010 0C37     		adds	r7, r7, #12
 6707              		.cfi_def_cfa_offset 4
 6708 0012 BD46     		mov	sp, r7
 6709              		.cfi_def_cfa_register 13
 6710              		@ sp needed
 6711 0014 5DF8047B 		ldr	r7, [sp], #4
ARM GAS  C:\Users\tmj32\AppData\Local\Temp\ccxLNxq9.s 			page 160


 6712              		.cfi_restore 7
 6713              		.cfi_def_cfa_offset 0
 6714 0018 7047     		bx	lr
 6715              		.cfi_endproc
 6716              	.LFE115:
 6717              		.size	lv_obj_get_protect, .-lv_obj_get_protect
 6718 001a 00BF     		.section	.text.lv_obj_is_protected,"ax",%progbits
 6719              		.align	2
 6720              		.global	lv_obj_is_protected
 6721              		.thumb
 6722              		.thumb_func
 6723              		.type	lv_obj_is_protected, %function
 6724              	lv_obj_is_protected:
 6725              	.LFB116:
2223:..\..\..\lvgl\version_6.1.2\lvgl\src\lv_core/lv_obj.c **** 
2224:..\..\..\lvgl\version_6.1.2\lvgl\src\lv_core/lv_obj.c **** /**
2225:..\..\..\lvgl\version_6.1.2\lvgl\src\lv_core/lv_obj.c ****  * Check at least one bit of a given protect bitfield is set
2226:..\..\..\lvgl\version_6.1.2\lvgl\src\lv_core/lv_obj.c ****  * @param obj pointer to an object
2227:..\..\..\lvgl\version_6.1.2\lvgl\src\lv_core/lv_obj.c ****  * @param prot protect bits to test ('OR'ed values of `lv_protect_t`)
2228:..\..\..\lvgl\version_6.1.2\lvgl\src\lv_core/lv_obj.c ****  * @return false: none of the given bits are set, true: at least one bit is set
2229:..\..\..\lvgl\version_6.1.2\lvgl\src\lv_core/lv_obj.c ****  */
2230:..\..\..\lvgl\version_6.1.2\lvgl\src\lv_core/lv_obj.c **** bool lv_obj_is_protected(const lv_obj_t * obj, uint8_t prot)
2231:..\..\..\lvgl\version_6.1.2\lvgl\src\lv_core/lv_obj.c **** {
 6726              		.loc 2 2231 0
 6727              		.cfi_startproc
 6728              		@ args = 0, pretend = 0, frame = 8
 6729              		@ frame_needed = 1, uses_anonymous_args = 0
 6730              		@ link register save eliminated.
 6731 0000 80B4     		push	{r7}
 6732              		.cfi_def_cfa_offset 4
 6733              		.cfi_offset 7, -4
 6734 0002 83B0     		sub	sp, sp, #12
 6735              		.cfi_def_cfa_offset 16
 6736 0004 00AF     		add	r7, sp, #0
 6737              		.cfi_def_cfa_register 7
 6738 0006 7860     		str	r0, [r7, #4]
 6739 0008 0B46     		mov	r3, r1
 6740 000a FB70     		strb	r3, [r7, #3]
2232:..\..\..\lvgl\version_6.1.2\lvgl\src\lv_core/lv_obj.c ****     LV_ASSERT_OBJ(obj, LV_OBJX_NAME);
2233:..\..\..\lvgl\version_6.1.2\lvgl\src\lv_core/lv_obj.c **** 
2234:..\..\..\lvgl\version_6.1.2\lvgl\src\lv_core/lv_obj.c ****     return (obj->protect & prot) == 0 ? false : true;
 6741              		.loc 2 2234 0
 6742 000c 7B68     		ldr	r3, [r7, #4]
 6743 000e 93F82E20 		ldrb	r2, [r3, #46]	@ zero_extendqisi2
 6744 0012 FB78     		ldrb	r3, [r7, #3]
 6745 0014 1340     		ands	r3, r3, r2
 6746 0016 DBB2     		uxtb	r3, r3
 6747 0018 002B     		cmp	r3, #0
 6748 001a 14BF     		ite	ne
 6749 001c 0123     		movne	r3, #1
 6750 001e 0023     		moveq	r3, #0
 6751 0020 DBB2     		uxtb	r3, r3
2235:..\..\..\lvgl\version_6.1.2\lvgl\src\lv_core/lv_obj.c **** }
 6752              		.loc 2 2235 0
 6753 0022 1846     		mov	r0, r3
 6754 0024 0C37     		adds	r7, r7, #12
 6755              		.cfi_def_cfa_offset 4
ARM GAS  C:\Users\tmj32\AppData\Local\Temp\ccxLNxq9.s 			page 161


 6756 0026 BD46     		mov	sp, r7
 6757              		.cfi_def_cfa_register 13
 6758              		@ sp needed
 6759 0028 5DF8047B 		ldr	r7, [sp], #4
 6760              		.cfi_restore 7
 6761              		.cfi_def_cfa_offset 0
 6762 002c 7047     		bx	lr
 6763              		.cfi_endproc
 6764              	.LFE116:
 6765              		.size	lv_obj_is_protected, .-lv_obj_is_protected
 6766 002e 00BF     		.section	.text.lv_obj_get_signal_cb,"ax",%progbits
 6767              		.align	2
 6768              		.global	lv_obj_get_signal_cb
 6769              		.thumb
 6770              		.thumb_func
 6771              		.type	lv_obj_get_signal_cb, %function
 6772              	lv_obj_get_signal_cb:
 6773              	.LFB117:
2236:..\..\..\lvgl\version_6.1.2\lvgl\src\lv_core/lv_obj.c **** 
2237:..\..\..\lvgl\version_6.1.2\lvgl\src\lv_core/lv_obj.c **** /**
2238:..\..\..\lvgl\version_6.1.2\lvgl\src\lv_core/lv_obj.c ****  * Get the signal function of an object
2239:..\..\..\lvgl\version_6.1.2\lvgl\src\lv_core/lv_obj.c ****  * @param obj pointer to an object
2240:..\..\..\lvgl\version_6.1.2\lvgl\src\lv_core/lv_obj.c ****  * @return the signal function
2241:..\..\..\lvgl\version_6.1.2\lvgl\src\lv_core/lv_obj.c ****  */
2242:..\..\..\lvgl\version_6.1.2\lvgl\src\lv_core/lv_obj.c **** lv_signal_cb_t lv_obj_get_signal_cb(const lv_obj_t * obj)
2243:..\..\..\lvgl\version_6.1.2\lvgl\src\lv_core/lv_obj.c **** {
 6774              		.loc 2 2243 0
 6775              		.cfi_startproc
 6776              		@ args = 0, pretend = 0, frame = 8
 6777              		@ frame_needed = 1, uses_anonymous_args = 0
 6778              		@ link register save eliminated.
 6779 0000 80B4     		push	{r7}
 6780              		.cfi_def_cfa_offset 4
 6781              		.cfi_offset 7, -4
 6782 0002 83B0     		sub	sp, sp, #12
 6783              		.cfi_def_cfa_offset 16
 6784 0004 00AF     		add	r7, sp, #0
 6785              		.cfi_def_cfa_register 7
 6786 0006 7860     		str	r0, [r7, #4]
2244:..\..\..\lvgl\version_6.1.2\lvgl\src\lv_core/lv_obj.c ****     LV_ASSERT_OBJ(obj, LV_OBJX_NAME);
2245:..\..\..\lvgl\version_6.1.2\lvgl\src\lv_core/lv_obj.c **** 
2246:..\..\..\lvgl\version_6.1.2\lvgl\src\lv_core/lv_obj.c ****     return obj->signal_cb;
 6787              		.loc 2 2246 0
 6788 0008 7B68     		ldr	r3, [r7, #4]
 6789 000a DB69     		ldr	r3, [r3, #28]
2247:..\..\..\lvgl\version_6.1.2\lvgl\src\lv_core/lv_obj.c **** }
 6790              		.loc 2 2247 0
 6791 000c 1846     		mov	r0, r3
 6792 000e 0C37     		adds	r7, r7, #12
 6793              		.cfi_def_cfa_offset 4
 6794 0010 BD46     		mov	sp, r7
 6795              		.cfi_def_cfa_register 13
 6796              		@ sp needed
 6797 0012 5DF8047B 		ldr	r7, [sp], #4
 6798              		.cfi_restore 7
 6799              		.cfi_def_cfa_offset 0
 6800 0016 7047     		bx	lr
ARM GAS  C:\Users\tmj32\AppData\Local\Temp\ccxLNxq9.s 			page 162


 6801              		.cfi_endproc
 6802              	.LFE117:
 6803              		.size	lv_obj_get_signal_cb, .-lv_obj_get_signal_cb
 6804              		.section	.text.lv_obj_get_design_cb,"ax",%progbits
 6805              		.align	2
 6806              		.global	lv_obj_get_design_cb
 6807              		.thumb
 6808              		.thumb_func
 6809              		.type	lv_obj_get_design_cb, %function
 6810              	lv_obj_get_design_cb:
 6811              	.LFB118:
2248:..\..\..\lvgl\version_6.1.2\lvgl\src\lv_core/lv_obj.c **** 
2249:..\..\..\lvgl\version_6.1.2\lvgl\src\lv_core/lv_obj.c **** /**
2250:..\..\..\lvgl\version_6.1.2\lvgl\src\lv_core/lv_obj.c ****  * Get the design function of an object
2251:..\..\..\lvgl\version_6.1.2\lvgl\src\lv_core/lv_obj.c ****  * @param obj pointer to an object
2252:..\..\..\lvgl\version_6.1.2\lvgl\src\lv_core/lv_obj.c ****  * @return the design function
2253:..\..\..\lvgl\version_6.1.2\lvgl\src\lv_core/lv_obj.c ****  */
2254:..\..\..\lvgl\version_6.1.2\lvgl\src\lv_core/lv_obj.c **** lv_design_cb_t lv_obj_get_design_cb(const lv_obj_t * obj)
2255:..\..\..\lvgl\version_6.1.2\lvgl\src\lv_core/lv_obj.c **** {
 6812              		.loc 2 2255 0
 6813              		.cfi_startproc
 6814              		@ args = 0, pretend = 0, frame = 8
 6815              		@ frame_needed = 1, uses_anonymous_args = 0
 6816              		@ link register save eliminated.
 6817 0000 80B4     		push	{r7}
 6818              		.cfi_def_cfa_offset 4
 6819              		.cfi_offset 7, -4
 6820 0002 83B0     		sub	sp, sp, #12
 6821              		.cfi_def_cfa_offset 16
 6822 0004 00AF     		add	r7, sp, #0
 6823              		.cfi_def_cfa_register 7
 6824 0006 7860     		str	r0, [r7, #4]
2256:..\..\..\lvgl\version_6.1.2\lvgl\src\lv_core/lv_obj.c ****     LV_ASSERT_OBJ(obj, LV_OBJX_NAME);
2257:..\..\..\lvgl\version_6.1.2\lvgl\src\lv_core/lv_obj.c **** 
2258:..\..\..\lvgl\version_6.1.2\lvgl\src\lv_core/lv_obj.c ****     return obj->design_cb;
 6825              		.loc 2 2258 0
 6826 0008 7B68     		ldr	r3, [r7, #4]
 6827 000a 1B6A     		ldr	r3, [r3, #32]
2259:..\..\..\lvgl\version_6.1.2\lvgl\src\lv_core/lv_obj.c **** }
 6828              		.loc 2 2259 0
 6829 000c 1846     		mov	r0, r3
 6830 000e 0C37     		adds	r7, r7, #12
 6831              		.cfi_def_cfa_offset 4
 6832 0010 BD46     		mov	sp, r7
 6833              		.cfi_def_cfa_register 13
 6834              		@ sp needed
 6835 0012 5DF8047B 		ldr	r7, [sp], #4
 6836              		.cfi_restore 7
 6837              		.cfi_def_cfa_offset 0
 6838 0016 7047     		bx	lr
 6839              		.cfi_endproc
 6840              	.LFE118:
 6841              		.size	lv_obj_get_design_cb, .-lv_obj_get_design_cb
 6842              		.section	.text.lv_obj_get_event_cb,"ax",%progbits
 6843              		.align	2
 6844              		.global	lv_obj_get_event_cb
 6845              		.thumb
ARM GAS  C:\Users\tmj32\AppData\Local\Temp\ccxLNxq9.s 			page 163


 6846              		.thumb_func
 6847              		.type	lv_obj_get_event_cb, %function
 6848              	lv_obj_get_event_cb:
 6849              	.LFB119:
2260:..\..\..\lvgl\version_6.1.2\lvgl\src\lv_core/lv_obj.c **** 
2261:..\..\..\lvgl\version_6.1.2\lvgl\src\lv_core/lv_obj.c **** /**
2262:..\..\..\lvgl\version_6.1.2\lvgl\src\lv_core/lv_obj.c ****  * Get the event function of an object
2263:..\..\..\lvgl\version_6.1.2\lvgl\src\lv_core/lv_obj.c ****  * @param obj pointer to an object
2264:..\..\..\lvgl\version_6.1.2\lvgl\src\lv_core/lv_obj.c ****  * @return the event function
2265:..\..\..\lvgl\version_6.1.2\lvgl\src\lv_core/lv_obj.c ****  */
2266:..\..\..\lvgl\version_6.1.2\lvgl\src\lv_core/lv_obj.c **** lv_event_cb_t lv_obj_get_event_cb(const lv_obj_t * obj)
2267:..\..\..\lvgl\version_6.1.2\lvgl\src\lv_core/lv_obj.c **** {
 6850              		.loc 2 2267 0
 6851              		.cfi_startproc
 6852              		@ args = 0, pretend = 0, frame = 8
 6853              		@ frame_needed = 1, uses_anonymous_args = 0
 6854              		@ link register save eliminated.
 6855 0000 80B4     		push	{r7}
 6856              		.cfi_def_cfa_offset 4
 6857              		.cfi_offset 7, -4
 6858 0002 83B0     		sub	sp, sp, #12
 6859              		.cfi_def_cfa_offset 16
 6860 0004 00AF     		add	r7, sp, #0
 6861              		.cfi_def_cfa_register 7
 6862 0006 7860     		str	r0, [r7, #4]
2268:..\..\..\lvgl\version_6.1.2\lvgl\src\lv_core/lv_obj.c ****     LV_ASSERT_OBJ(obj, LV_OBJX_NAME);
2269:..\..\..\lvgl\version_6.1.2\lvgl\src\lv_core/lv_obj.c **** 
2270:..\..\..\lvgl\version_6.1.2\lvgl\src\lv_core/lv_obj.c ****     return obj->event_cb;
 6863              		.loc 2 2270 0
 6864 0008 7B68     		ldr	r3, [r7, #4]
 6865 000a 9B69     		ldr	r3, [r3, #24]
2271:..\..\..\lvgl\version_6.1.2\lvgl\src\lv_core/lv_obj.c **** }
 6866              		.loc 2 2271 0
 6867 000c 1846     		mov	r0, r3
 6868 000e 0C37     		adds	r7, r7, #12
 6869              		.cfi_def_cfa_offset 4
 6870 0010 BD46     		mov	sp, r7
 6871              		.cfi_def_cfa_register 13
 6872              		@ sp needed
 6873 0012 5DF8047B 		ldr	r7, [sp], #4
 6874              		.cfi_restore 7
 6875              		.cfi_def_cfa_offset 0
 6876 0016 7047     		bx	lr
 6877              		.cfi_endproc
 6878              	.LFE119:
 6879              		.size	lv_obj_get_event_cb, .-lv_obj_get_event_cb
 6880              		.section	.text.lv_obj_get_ext_attr,"ax",%progbits
 6881              		.align	2
 6882              		.global	lv_obj_get_ext_attr
 6883              		.thumb
 6884              		.thumb_func
 6885              		.type	lv_obj_get_ext_attr, %function
 6886              	lv_obj_get_ext_attr:
 6887              	.LFB120:
2272:..\..\..\lvgl\version_6.1.2\lvgl\src\lv_core/lv_obj.c **** 
2273:..\..\..\lvgl\version_6.1.2\lvgl\src\lv_core/lv_obj.c **** /*------------------
2274:..\..\..\lvgl\version_6.1.2\lvgl\src\lv_core/lv_obj.c ****  * Other get
ARM GAS  C:\Users\tmj32\AppData\Local\Temp\ccxLNxq9.s 			page 164


2275:..\..\..\lvgl\version_6.1.2\lvgl\src\lv_core/lv_obj.c ****  *-----------------*/
2276:..\..\..\lvgl\version_6.1.2\lvgl\src\lv_core/lv_obj.c **** 
2277:..\..\..\lvgl\version_6.1.2\lvgl\src\lv_core/lv_obj.c **** /**
2278:..\..\..\lvgl\version_6.1.2\lvgl\src\lv_core/lv_obj.c ****  * Get the ext pointer
2279:..\..\..\lvgl\version_6.1.2\lvgl\src\lv_core/lv_obj.c ****  * @param obj pointer to an object
2280:..\..\..\lvgl\version_6.1.2\lvgl\src\lv_core/lv_obj.c ****  * @return the ext pointer but not the dynamic version
2281:..\..\..\lvgl\version_6.1.2\lvgl\src\lv_core/lv_obj.c ****  *         Use it as ext->data1, and NOT da(ext)->data1
2282:..\..\..\lvgl\version_6.1.2\lvgl\src\lv_core/lv_obj.c ****  */
2283:..\..\..\lvgl\version_6.1.2\lvgl\src\lv_core/lv_obj.c **** void * lv_obj_get_ext_attr(const lv_obj_t * obj)
2284:..\..\..\lvgl\version_6.1.2\lvgl\src\lv_core/lv_obj.c **** {
 6888              		.loc 2 2284 0
 6889              		.cfi_startproc
 6890              		@ args = 0, pretend = 0, frame = 8
 6891              		@ frame_needed = 1, uses_anonymous_args = 0
 6892              		@ link register save eliminated.
 6893 0000 80B4     		push	{r7}
 6894              		.cfi_def_cfa_offset 4
 6895              		.cfi_offset 7, -4
 6896 0002 83B0     		sub	sp, sp, #12
 6897              		.cfi_def_cfa_offset 16
 6898 0004 00AF     		add	r7, sp, #0
 6899              		.cfi_def_cfa_register 7
 6900 0006 7860     		str	r0, [r7, #4]
2285:..\..\..\lvgl\version_6.1.2\lvgl\src\lv_core/lv_obj.c ****     LV_ASSERT_OBJ(obj, LV_OBJX_NAME);
2286:..\..\..\lvgl\version_6.1.2\lvgl\src\lv_core/lv_obj.c **** 
2287:..\..\..\lvgl\version_6.1.2\lvgl\src\lv_core/lv_obj.c ****     return obj->ext_attr;
 6901              		.loc 2 2287 0
 6902 0008 7B68     		ldr	r3, [r7, #4]
 6903 000a 5B6A     		ldr	r3, [r3, #36]
2288:..\..\..\lvgl\version_6.1.2\lvgl\src\lv_core/lv_obj.c **** }
 6904              		.loc 2 2288 0
 6905 000c 1846     		mov	r0, r3
 6906 000e 0C37     		adds	r7, r7, #12
 6907              		.cfi_def_cfa_offset 4
 6908 0010 BD46     		mov	sp, r7
 6909              		.cfi_def_cfa_register 13
 6910              		@ sp needed
 6911 0012 5DF8047B 		ldr	r7, [sp], #4
 6912              		.cfi_restore 7
 6913              		.cfi_def_cfa_offset 0
 6914 0016 7047     		bx	lr
 6915              		.cfi_endproc
 6916              	.LFE120:
 6917              		.size	lv_obj_get_ext_attr, .-lv_obj_get_ext_attr
 6918              		.section	.text.lv_obj_get_type,"ax",%progbits
 6919              		.align	2
 6920              		.global	lv_obj_get_type
 6921              		.thumb
 6922              		.thumb_func
 6923              		.type	lv_obj_get_type, %function
 6924              	lv_obj_get_type:
 6925              	.LFB121:
2289:..\..\..\lvgl\version_6.1.2\lvgl\src\lv_core/lv_obj.c **** 
2290:..\..\..\lvgl\version_6.1.2\lvgl\src\lv_core/lv_obj.c **** /**
2291:..\..\..\lvgl\version_6.1.2\lvgl\src\lv_core/lv_obj.c ****  * Get object's and its ancestors type. Put their name in `type_buf` starting with the current type
2292:..\..\..\lvgl\version_6.1.2\lvgl\src\lv_core/lv_obj.c ****  * E.g. buf.type[0]="lv_btn", buf.type[1]="lv_cont", buf.type[2]="lv_obj"
2293:..\..\..\lvgl\version_6.1.2\lvgl\src\lv_core/lv_obj.c ****  * @param obj pointer to an object which type should be get
ARM GAS  C:\Users\tmj32\AppData\Local\Temp\ccxLNxq9.s 			page 165


2294:..\..\..\lvgl\version_6.1.2\lvgl\src\lv_core/lv_obj.c ****  * @param buf pointer to an `lv_obj_type_t` buffer to store the types
2295:..\..\..\lvgl\version_6.1.2\lvgl\src\lv_core/lv_obj.c ****  */
2296:..\..\..\lvgl\version_6.1.2\lvgl\src\lv_core/lv_obj.c **** void lv_obj_get_type(const lv_obj_t * obj, lv_obj_type_t * buf)
2297:..\..\..\lvgl\version_6.1.2\lvgl\src\lv_core/lv_obj.c **** {
 6926              		.loc 2 2297 0
 6927              		.cfi_startproc
 6928              		@ args = 0, pretend = 0, frame = 48
 6929              		@ frame_needed = 1, uses_anonymous_args = 0
 6930 0000 80B5     		push	{r7, lr}
 6931              		.cfi_def_cfa_offset 8
 6932              		.cfi_offset 7, -8
 6933              		.cfi_offset 14, -4
 6934 0002 8CB0     		sub	sp, sp, #48
 6935              		.cfi_def_cfa_offset 56
 6936 0004 00AF     		add	r7, sp, #0
 6937              		.cfi_def_cfa_register 7
 6938 0006 7860     		str	r0, [r7, #4]
 6939 0008 3960     		str	r1, [r7]
2298:..\..\..\lvgl\version_6.1.2\lvgl\src\lv_core/lv_obj.c ****     LV_ASSERT_NULL(buf);
2299:..\..\..\lvgl\version_6.1.2\lvgl\src\lv_core/lv_obj.c ****     LV_ASSERT_NULL(obj);
2300:..\..\..\lvgl\version_6.1.2\lvgl\src\lv_core/lv_obj.c **** 
2301:..\..\..\lvgl\version_6.1.2\lvgl\src\lv_core/lv_obj.c ****     lv_obj_type_t tmp;
2302:..\..\..\lvgl\version_6.1.2\lvgl\src\lv_core/lv_obj.c **** 
2303:..\..\..\lvgl\version_6.1.2\lvgl\src\lv_core/lv_obj.c ****     memset(buf, 0, sizeof(lv_obj_type_t));
 6940              		.loc 2 2303 0
 6941 000a 2022     		movs	r2, #32
 6942 000c 0021     		movs	r1, #0
 6943 000e 3868     		ldr	r0, [r7]
 6944 0010 FFF7FEFF 		bl	memset
2304:..\..\..\lvgl\version_6.1.2\lvgl\src\lv_core/lv_obj.c ****     memset(&tmp, 0, sizeof(lv_obj_type_t));
 6945              		.loc 2 2304 0
 6946 0014 07F10C03 		add	r3, r7, #12
 6947 0018 2022     		movs	r2, #32
 6948 001a 0021     		movs	r1, #0
 6949 001c 1846     		mov	r0, r3
 6950 001e FFF7FEFF 		bl	memset
2305:..\..\..\lvgl\version_6.1.2\lvgl\src\lv_core/lv_obj.c **** 
2306:..\..\..\lvgl\version_6.1.2\lvgl\src\lv_core/lv_obj.c ****     obj->signal_cb((lv_obj_t *)obj, LV_SIGNAL_GET_TYPE, &tmp);
 6951              		.loc 2 2306 0
 6952 0022 7B68     		ldr	r3, [r7, #4]
 6953 0024 DB69     		ldr	r3, [r3, #28]
 6954 0026 07F10C02 		add	r2, r7, #12
 6955 002a 0721     		movs	r1, #7
 6956 002c 7868     		ldr	r0, [r7, #4]
 6957 002e 9847     		blx	r3
2307:..\..\..\lvgl\version_6.1.2\lvgl\src\lv_core/lv_obj.c **** 
2308:..\..\..\lvgl\version_6.1.2\lvgl\src\lv_core/lv_obj.c ****     uint8_t cnt;
2309:..\..\..\lvgl\version_6.1.2\lvgl\src\lv_core/lv_obj.c ****     for(cnt = 0; cnt < LV_MAX_ANCESTOR_NUM; cnt++) {
 6958              		.loc 2 2309 0
 6959 0030 0023     		movs	r3, #0
 6960 0032 87F82F30 		strb	r3, [r7, #47]
 6961 0036 0EE0     		b	.L332
 6962              	.L335:
2310:..\..\..\lvgl\version_6.1.2\lvgl\src\lv_core/lv_obj.c ****         if(tmp.type[cnt] == NULL) break;
 6963              		.loc 2 2310 0
 6964 0038 97F82F30 		ldrb	r3, [r7, #47]	@ zero_extendqisi2
 6965 003c 9B00     		lsls	r3, r3, #2
ARM GAS  C:\Users\tmj32\AppData\Local\Temp\ccxLNxq9.s 			page 166


 6966 003e 07F13002 		add	r2, r7, #48
 6967 0042 1344     		add	r3, r3, r2
 6968 0044 53F8243C 		ldr	r3, [r3, #-36]
 6969 0048 002B     		cmp	r3, #0
 6970 004a 09D0     		beq	.L338
2309:..\..\..\lvgl\version_6.1.2\lvgl\src\lv_core/lv_obj.c ****         if(tmp.type[cnt] == NULL) break;
 6971              		.loc 2 2309 0 discriminator 2
 6972 004c 97F82F30 		ldrb	r3, [r7, #47]	@ zero_extendqisi2
 6973 0050 0133     		adds	r3, r3, #1
 6974 0052 87F82F30 		strb	r3, [r7, #47]
 6975              	.L332:
2309:..\..\..\lvgl\version_6.1.2\lvgl\src\lv_core/lv_obj.c ****         if(tmp.type[cnt] == NULL) break;
 6976              		.loc 2 2309 0 is_stmt 0 discriminator 1
 6977 0056 97F82F30 		ldrb	r3, [r7, #47]	@ zero_extendqisi2
 6978 005a 072B     		cmp	r3, #7
 6979 005c ECD9     		bls	.L335
 6980 005e 00E0     		b	.L334
 6981              	.L338:
 6982              		.loc 2 2310 0 is_stmt 1
 6983 0060 00BF     		nop
 6984              	.L334:
2311:..\..\..\lvgl\version_6.1.2\lvgl\src\lv_core/lv_obj.c ****     }
2312:..\..\..\lvgl\version_6.1.2\lvgl\src\lv_core/lv_obj.c **** 
2313:..\..\..\lvgl\version_6.1.2\lvgl\src\lv_core/lv_obj.c ****     /*Swap the order. The real type comes first*/
2314:..\..\..\lvgl\version_6.1.2\lvgl\src\lv_core/lv_obj.c ****     uint8_t i;
2315:..\..\..\lvgl\version_6.1.2\lvgl\src\lv_core/lv_obj.c ****     for(i = 0; i < cnt; i++) {
 6985              		.loc 2 2315 0
 6986 0062 0023     		movs	r3, #0
 6987 0064 87F82E30 		strb	r3, [r7, #46]
 6988 0068 15E0     		b	.L336
 6989              	.L337:
2316:..\..\..\lvgl\version_6.1.2\lvgl\src\lv_core/lv_obj.c ****         buf->type[i] = tmp.type[cnt - 1 - i];
 6990              		.loc 2 2316 0 discriminator 3
 6991 006a 97F82E20 		ldrb	r2, [r7, #46]	@ zero_extendqisi2
 6992 006e 97F82F30 		ldrb	r3, [r7, #47]	@ zero_extendqisi2
 6993 0072 591E     		subs	r1, r3, #1
 6994 0074 97F82E30 		ldrb	r3, [r7, #46]	@ zero_extendqisi2
 6995 0078 CB1A     		subs	r3, r1, r3
 6996 007a 9B00     		lsls	r3, r3, #2
 6997 007c 07F13001 		add	r1, r7, #48
 6998 0080 0B44     		add	r3, r3, r1
 6999 0082 53F8241C 		ldr	r1, [r3, #-36]
 7000 0086 3B68     		ldr	r3, [r7]
 7001 0088 43F82210 		str	r1, [r3, r2, lsl #2]
2315:..\..\..\lvgl\version_6.1.2\lvgl\src\lv_core/lv_obj.c ****         buf->type[i] = tmp.type[cnt - 1 - i];
 7002              		.loc 2 2315 0 discriminator 3
 7003 008c 97F82E30 		ldrb	r3, [r7, #46]	@ zero_extendqisi2
 7004 0090 0133     		adds	r3, r3, #1
 7005 0092 87F82E30 		strb	r3, [r7, #46]
 7006              	.L336:
2315:..\..\..\lvgl\version_6.1.2\lvgl\src\lv_core/lv_obj.c ****         buf->type[i] = tmp.type[cnt - 1 - i];
 7007              		.loc 2 2315 0 is_stmt 0 discriminator 1
 7008 0096 97F82E20 		ldrb	r2, [r7, #46]	@ zero_extendqisi2
 7009 009a 97F82F30 		ldrb	r3, [r7, #47]	@ zero_extendqisi2
 7010 009e 9A42     		cmp	r2, r3
 7011 00a0 E3D3     		bcc	.L337
2317:..\..\..\lvgl\version_6.1.2\lvgl\src\lv_core/lv_obj.c ****     }
ARM GAS  C:\Users\tmj32\AppData\Local\Temp\ccxLNxq9.s 			page 167


2318:..\..\..\lvgl\version_6.1.2\lvgl\src\lv_core/lv_obj.c **** }
 7012              		.loc 2 2318 0 is_stmt 1
 7013 00a2 00BF     		nop
 7014 00a4 3037     		adds	r7, r7, #48
 7015              		.cfi_def_cfa_offset 8
 7016 00a6 BD46     		mov	sp, r7
 7017              		.cfi_def_cfa_register 13
 7018              		@ sp needed
 7019 00a8 80BD     		pop	{r7, pc}
 7020              		.cfi_endproc
 7021              	.LFE121:
 7022              		.size	lv_obj_get_type, .-lv_obj_get_type
 7023 00aa 00BF     		.section	.text.lv_obj_handle_get_type_signal,"ax",%progbits
 7024              		.align	2
 7025              		.global	lv_obj_handle_get_type_signal
 7026              		.thumb
 7027              		.thumb_func
 7028              		.type	lv_obj_handle_get_type_signal, %function
 7029              	lv_obj_handle_get_type_signal:
 7030              	.LFB122:
2319:..\..\..\lvgl\version_6.1.2\lvgl\src\lv_core/lv_obj.c **** 
2320:..\..\..\lvgl\version_6.1.2\lvgl\src\lv_core/lv_obj.c **** #if LV_USE_USER_DATA
2321:..\..\..\lvgl\version_6.1.2\lvgl\src\lv_core/lv_obj.c **** 
2322:..\..\..\lvgl\version_6.1.2\lvgl\src\lv_core/lv_obj.c **** /**
2323:..\..\..\lvgl\version_6.1.2\lvgl\src\lv_core/lv_obj.c ****  * Get the object's user data
2324:..\..\..\lvgl\version_6.1.2\lvgl\src\lv_core/lv_obj.c ****  * @param obj pointer to an object
2325:..\..\..\lvgl\version_6.1.2\lvgl\src\lv_core/lv_obj.c ****  * @return user data
2326:..\..\..\lvgl\version_6.1.2\lvgl\src\lv_core/lv_obj.c ****  */
2327:..\..\..\lvgl\version_6.1.2\lvgl\src\lv_core/lv_obj.c **** lv_obj_user_data_t lv_obj_get_user_data(const lv_obj_t * obj)
2328:..\..\..\lvgl\version_6.1.2\lvgl\src\lv_core/lv_obj.c **** {
2329:..\..\..\lvgl\version_6.1.2\lvgl\src\lv_core/lv_obj.c ****     LV_ASSERT_OBJ(obj, LV_OBJX_NAME);
2330:..\..\..\lvgl\version_6.1.2\lvgl\src\lv_core/lv_obj.c **** 
2331:..\..\..\lvgl\version_6.1.2\lvgl\src\lv_core/lv_obj.c ****     return obj->user_data;
2332:..\..\..\lvgl\version_6.1.2\lvgl\src\lv_core/lv_obj.c **** }
2333:..\..\..\lvgl\version_6.1.2\lvgl\src\lv_core/lv_obj.c **** 
2334:..\..\..\lvgl\version_6.1.2\lvgl\src\lv_core/lv_obj.c **** /**
2335:..\..\..\lvgl\version_6.1.2\lvgl\src\lv_core/lv_obj.c ****  * Get a pointer to the object's user data
2336:..\..\..\lvgl\version_6.1.2\lvgl\src\lv_core/lv_obj.c ****  * @param obj pointer to an object
2337:..\..\..\lvgl\version_6.1.2\lvgl\src\lv_core/lv_obj.c ****  * @return pointer to the user data
2338:..\..\..\lvgl\version_6.1.2\lvgl\src\lv_core/lv_obj.c ****  */
2339:..\..\..\lvgl\version_6.1.2\lvgl\src\lv_core/lv_obj.c **** lv_obj_user_data_t * lv_obj_get_user_data_ptr(const lv_obj_t * obj)
2340:..\..\..\lvgl\version_6.1.2\lvgl\src\lv_core/lv_obj.c **** {
2341:..\..\..\lvgl\version_6.1.2\lvgl\src\lv_core/lv_obj.c ****     LV_ASSERT_OBJ(obj, LV_OBJX_NAME);
2342:..\..\..\lvgl\version_6.1.2\lvgl\src\lv_core/lv_obj.c **** 
2343:..\..\..\lvgl\version_6.1.2\lvgl\src\lv_core/lv_obj.c ****     return (lv_obj_user_data_t *)&obj->user_data;
2344:..\..\..\lvgl\version_6.1.2\lvgl\src\lv_core/lv_obj.c **** }
2345:..\..\..\lvgl\version_6.1.2\lvgl\src\lv_core/lv_obj.c **** 
2346:..\..\..\lvgl\version_6.1.2\lvgl\src\lv_core/lv_obj.c **** /**
2347:..\..\..\lvgl\version_6.1.2\lvgl\src\lv_core/lv_obj.c ****  * Set the object's user data. The data will be copied.
2348:..\..\..\lvgl\version_6.1.2\lvgl\src\lv_core/lv_obj.c ****  * @param obj pointer to an object
2349:..\..\..\lvgl\version_6.1.2\lvgl\src\lv_core/lv_obj.c ****  * @param data user data
2350:..\..\..\lvgl\version_6.1.2\lvgl\src\lv_core/lv_obj.c ****  */
2351:..\..\..\lvgl\version_6.1.2\lvgl\src\lv_core/lv_obj.c **** void lv_obj_set_user_data(lv_obj_t * obj, lv_obj_user_data_t data)
2352:..\..\..\lvgl\version_6.1.2\lvgl\src\lv_core/lv_obj.c **** {
2353:..\..\..\lvgl\version_6.1.2\lvgl\src\lv_core/lv_obj.c ****     LV_ASSERT_OBJ(obj, LV_OBJX_NAME);
2354:..\..\..\lvgl\version_6.1.2\lvgl\src\lv_core/lv_obj.c **** 
2355:..\..\..\lvgl\version_6.1.2\lvgl\src\lv_core/lv_obj.c ****     memcpy(&obj->user_data, &data, sizeof(lv_obj_user_data_t));
ARM GAS  C:\Users\tmj32\AppData\Local\Temp\ccxLNxq9.s 			page 168


2356:..\..\..\lvgl\version_6.1.2\lvgl\src\lv_core/lv_obj.c **** }
2357:..\..\..\lvgl\version_6.1.2\lvgl\src\lv_core/lv_obj.c **** #endif
2358:..\..\..\lvgl\version_6.1.2\lvgl\src\lv_core/lv_obj.c **** 
2359:..\..\..\lvgl\version_6.1.2\lvgl\src\lv_core/lv_obj.c **** #if LV_USE_GROUP
2360:..\..\..\lvgl\version_6.1.2\lvgl\src\lv_core/lv_obj.c **** /**
2361:..\..\..\lvgl\version_6.1.2\lvgl\src\lv_core/lv_obj.c ****  * Get the group of the object
2362:..\..\..\lvgl\version_6.1.2\lvgl\src\lv_core/lv_obj.c ****  * @param obj pointer to an object
2363:..\..\..\lvgl\version_6.1.2\lvgl\src\lv_core/lv_obj.c ****  * @return the pointer to group of the object
2364:..\..\..\lvgl\version_6.1.2\lvgl\src\lv_core/lv_obj.c ****  */
2365:..\..\..\lvgl\version_6.1.2\lvgl\src\lv_core/lv_obj.c **** void * lv_obj_get_group(const lv_obj_t * obj)
2366:..\..\..\lvgl\version_6.1.2\lvgl\src\lv_core/lv_obj.c **** {
2367:..\..\..\lvgl\version_6.1.2\lvgl\src\lv_core/lv_obj.c ****     LV_ASSERT_OBJ(obj, LV_OBJX_NAME);
2368:..\..\..\lvgl\version_6.1.2\lvgl\src\lv_core/lv_obj.c **** 
2369:..\..\..\lvgl\version_6.1.2\lvgl\src\lv_core/lv_obj.c ****     return obj->group_p;
2370:..\..\..\lvgl\version_6.1.2\lvgl\src\lv_core/lv_obj.c **** }
2371:..\..\..\lvgl\version_6.1.2\lvgl\src\lv_core/lv_obj.c **** 
2372:..\..\..\lvgl\version_6.1.2\lvgl\src\lv_core/lv_obj.c **** /**
2373:..\..\..\lvgl\version_6.1.2\lvgl\src\lv_core/lv_obj.c ****  * Tell whether the object is the focused object of a group or not.
2374:..\..\..\lvgl\version_6.1.2\lvgl\src\lv_core/lv_obj.c ****  * @param obj pointer to an object
2375:..\..\..\lvgl\version_6.1.2\lvgl\src\lv_core/lv_obj.c ****  * @return true: the object is focused, false: the object is not focused or not in a group
2376:..\..\..\lvgl\version_6.1.2\lvgl\src\lv_core/lv_obj.c ****  */
2377:..\..\..\lvgl\version_6.1.2\lvgl\src\lv_core/lv_obj.c **** bool lv_obj_is_focused(const lv_obj_t * obj)
2378:..\..\..\lvgl\version_6.1.2\lvgl\src\lv_core/lv_obj.c **** {
2379:..\..\..\lvgl\version_6.1.2\lvgl\src\lv_core/lv_obj.c ****     LV_ASSERT_OBJ(obj, LV_OBJX_NAME);
2380:..\..\..\lvgl\version_6.1.2\lvgl\src\lv_core/lv_obj.c **** 
2381:..\..\..\lvgl\version_6.1.2\lvgl\src\lv_core/lv_obj.c ****     if(obj->group_p) {
2382:..\..\..\lvgl\version_6.1.2\lvgl\src\lv_core/lv_obj.c ****         if(lv_group_get_focused(obj->group_p) == obj) return true;
2383:..\..\..\lvgl\version_6.1.2\lvgl\src\lv_core/lv_obj.c ****     }
2384:..\..\..\lvgl\version_6.1.2\lvgl\src\lv_core/lv_obj.c **** 
2385:..\..\..\lvgl\version_6.1.2\lvgl\src\lv_core/lv_obj.c ****     return false;
2386:..\..\..\lvgl\version_6.1.2\lvgl\src\lv_core/lv_obj.c **** }
2387:..\..\..\lvgl\version_6.1.2\lvgl\src\lv_core/lv_obj.c **** #endif
2388:..\..\..\lvgl\version_6.1.2\lvgl\src\lv_core/lv_obj.c **** 
2389:..\..\..\lvgl\version_6.1.2\lvgl\src\lv_core/lv_obj.c **** 
2390:..\..\..\lvgl\version_6.1.2\lvgl\src\lv_core/lv_obj.c **** /*-------------------
2391:..\..\..\lvgl\version_6.1.2\lvgl\src\lv_core/lv_obj.c ****  * OTHER FUNCTIONS
2392:..\..\..\lvgl\version_6.1.2\lvgl\src\lv_core/lv_obj.c ****  *------------------*/
2393:..\..\..\lvgl\version_6.1.2\lvgl\src\lv_core/lv_obj.c **** 
2394:..\..\..\lvgl\version_6.1.2\lvgl\src\lv_core/lv_obj.c **** /**
2395:..\..\..\lvgl\version_6.1.2\lvgl\src\lv_core/lv_obj.c ****  * Used in the signal callback to handle `LV_SIGNAL_GET_TYPE` signal
2396:..\..\..\lvgl\version_6.1.2\lvgl\src\lv_core/lv_obj.c ****  * @param obj pointer to an object
2397:..\..\..\lvgl\version_6.1.2\lvgl\src\lv_core/lv_obj.c ****  * @param buf pointer to `lv_obj_type_t`. (`param` in the signal callback)
2398:..\..\..\lvgl\version_6.1.2\lvgl\src\lv_core/lv_obj.c ****  * @param name name of the object. E.g. "lv_btn". (Only the pointer is saved)
2399:..\..\..\lvgl\version_6.1.2\lvgl\src\lv_core/lv_obj.c ****  * @return LV_RES_OK
2400:..\..\..\lvgl\version_6.1.2\lvgl\src\lv_core/lv_obj.c ****  */
2401:..\..\..\lvgl\version_6.1.2\lvgl\src\lv_core/lv_obj.c **** lv_res_t lv_obj_handle_get_type_signal(lv_obj_type_t * buf, const char * name)
2402:..\..\..\lvgl\version_6.1.2\lvgl\src\lv_core/lv_obj.c **** {
 7031              		.loc 2 2402 0
 7032              		.cfi_startproc
 7033              		@ args = 0, pretend = 0, frame = 16
 7034              		@ frame_needed = 1, uses_anonymous_args = 0
 7035              		@ link register save eliminated.
 7036 0000 80B4     		push	{r7}
 7037              		.cfi_def_cfa_offset 4
 7038              		.cfi_offset 7, -4
 7039 0002 85B0     		sub	sp, sp, #20
 7040              		.cfi_def_cfa_offset 24
ARM GAS  C:\Users\tmj32\AppData\Local\Temp\ccxLNxq9.s 			page 169


 7041 0004 00AF     		add	r7, sp, #0
 7042              		.cfi_def_cfa_register 7
 7043 0006 7860     		str	r0, [r7, #4]
 7044 0008 3960     		str	r1, [r7]
2403:..\..\..\lvgl\version_6.1.2\lvgl\src\lv_core/lv_obj.c ****     uint8_t i;
2404:..\..\..\lvgl\version_6.1.2\lvgl\src\lv_core/lv_obj.c ****     for(i = 0; i < LV_MAX_ANCESTOR_NUM - 1; i++) { /*Find the last set data*/
 7045              		.loc 2 2404 0
 7046 000a 0023     		movs	r3, #0
 7047 000c FB73     		strb	r3, [r7, #15]
 7048 000e 08E0     		b	.L340
 7049              	.L343:
2405:..\..\..\lvgl\version_6.1.2\lvgl\src\lv_core/lv_obj.c ****         if(buf->type[i] == NULL) break;
 7050              		.loc 2 2405 0
 7051 0010 FA7B     		ldrb	r2, [r7, #15]	@ zero_extendqisi2
 7052 0012 7B68     		ldr	r3, [r7, #4]
 7053 0014 53F82230 		ldr	r3, [r3, r2, lsl #2]
 7054 0018 002B     		cmp	r3, #0
 7055 001a 06D0     		beq	.L345
2404:..\..\..\lvgl\version_6.1.2\lvgl\src\lv_core/lv_obj.c ****         if(buf->type[i] == NULL) break;
 7056              		.loc 2 2404 0 discriminator 2
 7057 001c FB7B     		ldrb	r3, [r7, #15]	@ zero_extendqisi2
 7058 001e 0133     		adds	r3, r3, #1
 7059 0020 FB73     		strb	r3, [r7, #15]
 7060              	.L340:
2404:..\..\..\lvgl\version_6.1.2\lvgl\src\lv_core/lv_obj.c ****         if(buf->type[i] == NULL) break;
 7061              		.loc 2 2404 0 is_stmt 0 discriminator 1
 7062 0022 FB7B     		ldrb	r3, [r7, #15]	@ zero_extendqisi2
 7063 0024 062B     		cmp	r3, #6
 7064 0026 F3D9     		bls	.L343
 7065 0028 00E0     		b	.L342
 7066              	.L345:
 7067              		.loc 2 2405 0 is_stmt 1
 7068 002a 00BF     		nop
 7069              	.L342:
2406:..\..\..\lvgl\version_6.1.2\lvgl\src\lv_core/lv_obj.c ****     }
2407:..\..\..\lvgl\version_6.1.2\lvgl\src\lv_core/lv_obj.c ****     buf->type[i] = name;
 7070              		.loc 2 2407 0
 7071 002c FA7B     		ldrb	r2, [r7, #15]	@ zero_extendqisi2
 7072 002e 7B68     		ldr	r3, [r7, #4]
 7073 0030 3968     		ldr	r1, [r7]
 7074 0032 43F82210 		str	r1, [r3, r2, lsl #2]
2408:..\..\..\lvgl\version_6.1.2\lvgl\src\lv_core/lv_obj.c **** 
2409:..\..\..\lvgl\version_6.1.2\lvgl\src\lv_core/lv_obj.c ****     return LV_RES_OK;
 7075              		.loc 2 2409 0
 7076 0036 0123     		movs	r3, #1
2410:..\..\..\lvgl\version_6.1.2\lvgl\src\lv_core/lv_obj.c **** }
 7077              		.loc 2 2410 0
 7078 0038 1846     		mov	r0, r3
 7079 003a 1437     		adds	r7, r7, #20
 7080              		.cfi_def_cfa_offset 4
 7081 003c BD46     		mov	sp, r7
 7082              		.cfi_def_cfa_register 13
 7083              		@ sp needed
 7084 003e 5DF8047B 		ldr	r7, [sp], #4
 7085              		.cfi_restore 7
 7086              		.cfi_def_cfa_offset 0
 7087 0042 7047     		bx	lr
ARM GAS  C:\Users\tmj32\AppData\Local\Temp\ccxLNxq9.s 			page 170


 7088              		.cfi_endproc
 7089              	.LFE122:
 7090              		.size	lv_obj_handle_get_type_signal, .-lv_obj_handle_get_type_signal
 7091              		.section	.text.lv_obj_del_async_cb,"ax",%progbits
 7092              		.align	2
 7093              		.thumb
 7094              		.thumb_func
 7095              		.type	lv_obj_del_async_cb, %function
 7096              	lv_obj_del_async_cb:
 7097              	.LFB123:
2411:..\..\..\lvgl\version_6.1.2\lvgl\src\lv_core/lv_obj.c **** 
2412:..\..\..\lvgl\version_6.1.2\lvgl\src\lv_core/lv_obj.c **** /**********************
2413:..\..\..\lvgl\version_6.1.2\lvgl\src\lv_core/lv_obj.c ****  *   STATIC FUNCTIONS
2414:..\..\..\lvgl\version_6.1.2\lvgl\src\lv_core/lv_obj.c ****  **********************/
2415:..\..\..\lvgl\version_6.1.2\lvgl\src\lv_core/lv_obj.c **** 
2416:..\..\..\lvgl\version_6.1.2\lvgl\src\lv_core/lv_obj.c **** static void lv_obj_del_async_cb(void * obj)
2417:..\..\..\lvgl\version_6.1.2\lvgl\src\lv_core/lv_obj.c **** {
 7098              		.loc 2 2417 0
 7099              		.cfi_startproc
 7100              		@ args = 0, pretend = 0, frame = 8
 7101              		@ frame_needed = 1, uses_anonymous_args = 0
 7102 0000 80B5     		push	{r7, lr}
 7103              		.cfi_def_cfa_offset 8
 7104              		.cfi_offset 7, -8
 7105              		.cfi_offset 14, -4
 7106 0002 82B0     		sub	sp, sp, #8
 7107              		.cfi_def_cfa_offset 16
 7108 0004 00AF     		add	r7, sp, #0
 7109              		.cfi_def_cfa_register 7
 7110 0006 7860     		str	r0, [r7, #4]
2418:..\..\..\lvgl\version_6.1.2\lvgl\src\lv_core/lv_obj.c ****     LV_ASSERT_OBJ(obj, LV_OBJX_NAME);
2419:..\..\..\lvgl\version_6.1.2\lvgl\src\lv_core/lv_obj.c **** 
2420:..\..\..\lvgl\version_6.1.2\lvgl\src\lv_core/lv_obj.c ****     lv_obj_del(obj);
 7111              		.loc 2 2420 0
 7112 0008 7868     		ldr	r0, [r7, #4]
 7113 000a FFF7FEFF 		bl	lv_obj_del
2421:..\..\..\lvgl\version_6.1.2\lvgl\src\lv_core/lv_obj.c **** }
 7114              		.loc 2 2421 0
 7115 000e 00BF     		nop
 7116 0010 0837     		adds	r7, r7, #8
 7117              		.cfi_def_cfa_offset 8
 7118 0012 BD46     		mov	sp, r7
 7119              		.cfi_def_cfa_register 13
 7120              		@ sp needed
 7121 0014 80BD     		pop	{r7, pc}
 7122              		.cfi_endproc
 7123              	.LFE123:
 7124              		.size	lv_obj_del_async_cb, .-lv_obj_del_async_cb
 7125 0016 00BF     		.section	.text.lv_obj_design,"ax",%progbits
 7126              		.align	2
 7127              		.thumb
 7128              		.thumb_func
 7129              		.type	lv_obj_design, %function
 7130              	lv_obj_design:
 7131              	.LFB124:
2422:..\..\..\lvgl\version_6.1.2\lvgl\src\lv_core/lv_obj.c **** 
2423:..\..\..\lvgl\version_6.1.2\lvgl\src\lv_core/lv_obj.c **** /**
ARM GAS  C:\Users\tmj32\AppData\Local\Temp\ccxLNxq9.s 			page 171


2424:..\..\..\lvgl\version_6.1.2\lvgl\src\lv_core/lv_obj.c ****  * Handle the drawing related tasks of the base objects.
2425:..\..\..\lvgl\version_6.1.2\lvgl\src\lv_core/lv_obj.c ****  * @param obj pointer to an object
2426:..\..\..\lvgl\version_6.1.2\lvgl\src\lv_core/lv_obj.c ****  * @param mask the object will be drawn only in this area
2427:..\..\..\lvgl\version_6.1.2\lvgl\src\lv_core/lv_obj.c ****  * @param mode LV_DESIGN_COVER_CHK: only check if the object fully covers the 'mask_p' area
2428:..\..\..\lvgl\version_6.1.2\lvgl\src\lv_core/lv_obj.c ****  *                                  (return 'true' if yes)
2429:..\..\..\lvgl\version_6.1.2\lvgl\src\lv_core/lv_obj.c ****  *             LV_DESIGN_DRAW: draw the object (always return 'true')
2430:..\..\..\lvgl\version_6.1.2\lvgl\src\lv_core/lv_obj.c ****  * @param return true/false, depends on 'mode'
2431:..\..\..\lvgl\version_6.1.2\lvgl\src\lv_core/lv_obj.c ****  */
2432:..\..\..\lvgl\version_6.1.2\lvgl\src\lv_core/lv_obj.c **** static bool lv_obj_design(lv_obj_t * obj, const lv_area_t * mask_p, lv_design_mode_t mode)
2433:..\..\..\lvgl\version_6.1.2\lvgl\src\lv_core/lv_obj.c **** {
 7132              		.loc 2 2433 0
 7133              		.cfi_startproc
 7134              		@ args = 0, pretend = 0, frame = 40
 7135              		@ frame_needed = 1, uses_anonymous_args = 0
 7136 0000 90B5     		push	{r4, r7, lr}
 7137              		.cfi_def_cfa_offset 12
 7138              		.cfi_offset 4, -12
 7139              		.cfi_offset 7, -8
 7140              		.cfi_offset 14, -4
 7141 0002 8BB0     		sub	sp, sp, #44
 7142              		.cfi_def_cfa_offset 56
 7143 0004 00AF     		add	r7, sp, #0
 7144              		.cfi_def_cfa_register 7
 7145 0006 F860     		str	r0, [r7, #12]
 7146 0008 B960     		str	r1, [r7, #8]
 7147 000a 1346     		mov	r3, r2
 7148 000c FB71     		strb	r3, [r7, #7]
2434:..\..\..\lvgl\version_6.1.2\lvgl\src\lv_core/lv_obj.c ****     if(mode == LV_DESIGN_COVER_CHK) {
 7149              		.loc 2 2434 0
 7150 000e FB79     		ldrb	r3, [r7, #7]	@ zero_extendqisi2
 7151 0010 022B     		cmp	r3, #2
 7152 0012 6AD1     		bne	.L348
 7153              	.LBB11:
2435:..\..\..\lvgl\version_6.1.2\lvgl\src\lv_core/lv_obj.c **** 
2436:..\..\..\lvgl\version_6.1.2\lvgl\src\lv_core/lv_obj.c ****         /*Most trivial test. Is the mask fully IN the object? If no it surely doesn't cover it*/
2437:..\..\..\lvgl\version_6.1.2\lvgl\src\lv_core/lv_obj.c ****         if(lv_area_is_in(mask_p, &obj->coords) == false) return false;
 7154              		.loc 2 2437 0
 7155 0014 FB68     		ldr	r3, [r7, #12]
 7156 0016 1033     		adds	r3, r3, #16
 7157 0018 1946     		mov	r1, r3
 7158 001a B868     		ldr	r0, [r7, #8]
 7159 001c FFF7FEFF 		bl	lv_area_is_in
 7160 0020 0346     		mov	r3, r0
 7161 0022 83F00103 		eor	r3, r3, #1
 7162 0026 DBB2     		uxtb	r3, r3
 7163 0028 002B     		cmp	r3, #0
 7164 002a 01D0     		beq	.L349
 7165              		.loc 2 2437 0 is_stmt 0 discriminator 1
 7166 002c 0023     		movs	r3, #0
 7167 002e 70E0     		b	.L356
 7168              	.L349:
2438:..\..\..\lvgl\version_6.1.2\lvgl\src\lv_core/lv_obj.c **** 
2439:..\..\..\lvgl\version_6.1.2\lvgl\src\lv_core/lv_obj.c ****         /*Can cover the area only if fully solid (no opacity)*/
2440:..\..\..\lvgl\version_6.1.2\lvgl\src\lv_core/lv_obj.c ****         const lv_style_t * style = lv_obj_get_style(obj);
 7169              		.loc 2 2440 0 is_stmt 1
 7170 0030 F868     		ldr	r0, [r7, #12]
 7171 0032 FFF7FEFF 		bl	lv_obj_get_style
ARM GAS  C:\Users\tmj32\AppData\Local\Temp\ccxLNxq9.s 			page 172


 7172 0036 7862     		str	r0, [r7, #36]
2441:..\..\..\lvgl\version_6.1.2\lvgl\src\lv_core/lv_obj.c ****         if(style->body.opa < LV_OPA_MAX) return false;
 7173              		.loc 2 2441 0
 7174 0038 7B6A     		ldr	r3, [r7, #36]
 7175 003a 9B7B     		ldrb	r3, [r3, #14]	@ zero_extendqisi2
 7176 003c FA2B     		cmp	r3, #250
 7177 003e 01D8     		bhi	.L351
 7178              		.loc 2 2441 0 is_stmt 0 discriminator 1
 7179 0040 0023     		movs	r3, #0
 7180 0042 66E0     		b	.L356
 7181              	.L351:
2442:..\..\..\lvgl\version_6.1.2\lvgl\src\lv_core/lv_obj.c **** 
2443:..\..\..\lvgl\version_6.1.2\lvgl\src\lv_core/lv_obj.c ****         /* Because of the radius it is not sure the area is covered
2444:..\..\..\lvgl\version_6.1.2\lvgl\src\lv_core/lv_obj.c ****          * Check the areas where there is no radius*/
2445:..\..\..\lvgl\version_6.1.2\lvgl\src\lv_core/lv_obj.c ****         lv_coord_t r = style->body.radius;
 7182              		.loc 2 2445 0 is_stmt 1
 7183 0044 7B6A     		ldr	r3, [r7, #36]
 7184 0046 9B89     		ldrh	r3, [r3, #12]	@ movhi
 7185 0048 7B84     		strh	r3, [r7, #34]	@ movhi
2446:..\..\..\lvgl\version_6.1.2\lvgl\src\lv_core/lv_obj.c **** 
2447:..\..\..\lvgl\version_6.1.2\lvgl\src\lv_core/lv_obj.c ****         if(r == LV_RADIUS_CIRCLE) return false;
 7186              		.loc 2 2447 0
 7187 004a B7F92230 		ldrsh	r3, [r7, #34]
 7188 004e 47F61842 		movw	r2, #31768
 7189 0052 9342     		cmp	r3, r2
 7190 0054 01D1     		bne	.L352
 7191              		.loc 2 2447 0 is_stmt 0 discriminator 1
 7192 0056 0023     		movs	r3, #0
 7193 0058 5BE0     		b	.L356
 7194              	.L352:
2448:..\..\..\lvgl\version_6.1.2\lvgl\src\lv_core/lv_obj.c **** 
2449:..\..\..\lvgl\version_6.1.2\lvgl\src\lv_core/lv_obj.c ****         lv_area_t area_tmp;
2450:..\..\..\lvgl\version_6.1.2\lvgl\src\lv_core/lv_obj.c **** 
2451:..\..\..\lvgl\version_6.1.2\lvgl\src\lv_core/lv_obj.c ****         /*Check horizontally without radius*/
2452:..\..\..\lvgl\version_6.1.2\lvgl\src\lv_core/lv_obj.c ****         lv_obj_get_coords(obj, &area_tmp);
 7195              		.loc 2 2452 0 is_stmt 1
 7196 005a 07F11403 		add	r3, r7, #20
 7197 005e 1946     		mov	r1, r3
 7198 0060 F868     		ldr	r0, [r7, #12]
 7199 0062 FFF7FEFF 		bl	lv_obj_get_coords
2453:..\..\..\lvgl\version_6.1.2\lvgl\src\lv_core/lv_obj.c ****         area_tmp.x1 += r;
 7200              		.loc 2 2453 0
 7201 0066 B7F91430 		ldrsh	r3, [r7, #20]
 7202 006a 9AB2     		uxth	r2, r3
 7203 006c 7B8C     		ldrh	r3, [r7, #34]
 7204 006e 1344     		add	r3, r3, r2
 7205 0070 9BB2     		uxth	r3, r3
 7206 0072 1BB2     		sxth	r3, r3
 7207 0074 BB82     		strh	r3, [r7, #20]	@ movhi
2454:..\..\..\lvgl\version_6.1.2\lvgl\src\lv_core/lv_obj.c ****         area_tmp.x2 -= r;
 7208              		.loc 2 2454 0
 7209 0076 B7F91830 		ldrsh	r3, [r7, #24]
 7210 007a 9AB2     		uxth	r2, r3
 7211 007c 7B8C     		ldrh	r3, [r7, #34]
 7212 007e D31A     		subs	r3, r2, r3
 7213 0080 9BB2     		uxth	r3, r3
 7214 0082 1BB2     		sxth	r3, r3
ARM GAS  C:\Users\tmj32\AppData\Local\Temp\ccxLNxq9.s 			page 173


 7215 0084 3B83     		strh	r3, [r7, #24]	@ movhi
2455:..\..\..\lvgl\version_6.1.2\lvgl\src\lv_core/lv_obj.c ****         if(lv_area_is_in(mask_p, &area_tmp) == false) return false;
 7216              		.loc 2 2455 0
 7217 0086 07F11403 		add	r3, r7, #20
 7218 008a 1946     		mov	r1, r3
 7219 008c B868     		ldr	r0, [r7, #8]
 7220 008e FFF7FEFF 		bl	lv_area_is_in
 7221 0092 0346     		mov	r3, r0
 7222 0094 83F00103 		eor	r3, r3, #1
 7223 0098 DBB2     		uxtb	r3, r3
 7224 009a 002B     		cmp	r3, #0
 7225 009c 01D0     		beq	.L353
 7226              		.loc 2 2455 0 is_stmt 0 discriminator 1
 7227 009e 0023     		movs	r3, #0
 7228 00a0 37E0     		b	.L356
 7229              	.L353:
2456:..\..\..\lvgl\version_6.1.2\lvgl\src\lv_core/lv_obj.c **** 
2457:..\..\..\lvgl\version_6.1.2\lvgl\src\lv_core/lv_obj.c ****         /*Check vertically without radius*/
2458:..\..\..\lvgl\version_6.1.2\lvgl\src\lv_core/lv_obj.c ****         lv_obj_get_coords(obj, &area_tmp);
 7230              		.loc 2 2458 0 is_stmt 1
 7231 00a2 07F11403 		add	r3, r7, #20
 7232 00a6 1946     		mov	r1, r3
 7233 00a8 F868     		ldr	r0, [r7, #12]
 7234 00aa FFF7FEFF 		bl	lv_obj_get_coords
2459:..\..\..\lvgl\version_6.1.2\lvgl\src\lv_core/lv_obj.c ****         area_tmp.y1 += r;
 7235              		.loc 2 2459 0
 7236 00ae B7F91630 		ldrsh	r3, [r7, #22]
 7237 00b2 9AB2     		uxth	r2, r3
 7238 00b4 7B8C     		ldrh	r3, [r7, #34]
 7239 00b6 1344     		add	r3, r3, r2
 7240 00b8 9BB2     		uxth	r3, r3
 7241 00ba 1BB2     		sxth	r3, r3
 7242 00bc FB82     		strh	r3, [r7, #22]	@ movhi
2460:..\..\..\lvgl\version_6.1.2\lvgl\src\lv_core/lv_obj.c ****         area_tmp.y2 -= r;
 7243              		.loc 2 2460 0
 7244 00be B7F91A30 		ldrsh	r3, [r7, #26]
 7245 00c2 9AB2     		uxth	r2, r3
 7246 00c4 7B8C     		ldrh	r3, [r7, #34]
 7247 00c6 D31A     		subs	r3, r2, r3
 7248 00c8 9BB2     		uxth	r3, r3
 7249 00ca 1BB2     		sxth	r3, r3
 7250 00cc 7B83     		strh	r3, [r7, #26]	@ movhi
2461:..\..\..\lvgl\version_6.1.2\lvgl\src\lv_core/lv_obj.c ****         if(lv_area_is_in(mask_p, &area_tmp) == false) return false;
 7251              		.loc 2 2461 0
 7252 00ce 07F11403 		add	r3, r7, #20
 7253 00d2 1946     		mov	r1, r3
 7254 00d4 B868     		ldr	r0, [r7, #8]
 7255 00d6 FFF7FEFF 		bl	lv_area_is_in
 7256 00da 0346     		mov	r3, r0
 7257 00dc 83F00103 		eor	r3, r3, #1
 7258 00e0 DBB2     		uxtb	r3, r3
 7259 00e2 002B     		cmp	r3, #0
 7260 00e4 14D0     		beq	.L355
 7261              		.loc 2 2461 0 is_stmt 0 discriminator 1
 7262 00e6 0023     		movs	r3, #0
 7263 00e8 13E0     		b	.L356
 7264              	.L348:
ARM GAS  C:\Users\tmj32\AppData\Local\Temp\ccxLNxq9.s 			page 174


 7265              	.LBE11:
2462:..\..\..\lvgl\version_6.1.2\lvgl\src\lv_core/lv_obj.c **** 
2463:..\..\..\lvgl\version_6.1.2\lvgl\src\lv_core/lv_obj.c ****     } else if(mode == LV_DESIGN_DRAW_MAIN) {
 7266              		.loc 2 2463 0 is_stmt 1
 7267 00ea FB79     		ldrb	r3, [r7, #7]	@ zero_extendqisi2
 7268 00ec 002B     		cmp	r3, #0
 7269 00ee 0FD1     		bne	.L355
 7270              	.LBB12:
2464:..\..\..\lvgl\version_6.1.2\lvgl\src\lv_core/lv_obj.c ****         const lv_style_t * style = lv_obj_get_style(obj);
 7271              		.loc 2 2464 0
 7272 00f0 F868     		ldr	r0, [r7, #12]
 7273 00f2 FFF7FEFF 		bl	lv_obj_get_style
 7274 00f6 F861     		str	r0, [r7, #28]
2465:..\..\..\lvgl\version_6.1.2\lvgl\src\lv_core/lv_obj.c ****         lv_draw_rect(&obj->coords, mask_p, style, lv_obj_get_opa_scale(obj));
 7275              		.loc 2 2465 0
 7276 00f8 FB68     		ldr	r3, [r7, #12]
 7277 00fa 03F11004 		add	r4, r3, #16
 7278 00fe F868     		ldr	r0, [r7, #12]
 7279 0100 FFF7FEFF 		bl	lv_obj_get_opa_scale
 7280 0104 0346     		mov	r3, r0
 7281 0106 FA69     		ldr	r2, [r7, #28]
 7282 0108 B968     		ldr	r1, [r7, #8]
 7283 010a 2046     		mov	r0, r4
 7284 010c FFF7FEFF 		bl	lv_draw_rect
 7285              	.L355:
 7286              	.LBE12:
2466:..\..\..\lvgl\version_6.1.2\lvgl\src\lv_core/lv_obj.c ****     }
2467:..\..\..\lvgl\version_6.1.2\lvgl\src\lv_core/lv_obj.c **** 
2468:..\..\..\lvgl\version_6.1.2\lvgl\src\lv_core/lv_obj.c ****     return true;
 7287              		.loc 2 2468 0
 7288 0110 0123     		movs	r3, #1
 7289              	.L356:
2469:..\..\..\lvgl\version_6.1.2\lvgl\src\lv_core/lv_obj.c **** }
 7290              		.loc 2 2469 0
 7291 0112 1846     		mov	r0, r3
 7292 0114 2C37     		adds	r7, r7, #44
 7293              		.cfi_def_cfa_offset 12
 7294 0116 BD46     		mov	sp, r7
 7295              		.cfi_def_cfa_register 13
 7296              		@ sp needed
 7297 0118 90BD     		pop	{r4, r7, pc}
 7298              		.cfi_endproc
 7299              	.LFE124:
 7300              		.size	lv_obj_design, .-lv_obj_design
 7301              		.section	.rodata
 7302              		.align	2
 7303              	.LC0:
 7304 0000 6C765F6F 		.ascii	"lv_obj\000"
 7304      626A00
 7305              		.section	.text.lv_obj_signal,"ax",%progbits
 7306              		.align	2
 7307              		.thumb
 7308              		.thumb_func
 7309              		.type	lv_obj_signal, %function
 7310              	lv_obj_signal:
 7311              	.LFB125:
2470:..\..\..\lvgl\version_6.1.2\lvgl\src\lv_core/lv_obj.c **** 
ARM GAS  C:\Users\tmj32\AppData\Local\Temp\ccxLNxq9.s 			page 175


2471:..\..\..\lvgl\version_6.1.2\lvgl\src\lv_core/lv_obj.c **** /**
2472:..\..\..\lvgl\version_6.1.2\lvgl\src\lv_core/lv_obj.c ****  * Signal function of the basic object
2473:..\..\..\lvgl\version_6.1.2\lvgl\src\lv_core/lv_obj.c ****  * @param obj pointer to an object
2474:..\..\..\lvgl\version_6.1.2\lvgl\src\lv_core/lv_obj.c ****  * @param sign signal type
2475:..\..\..\lvgl\version_6.1.2\lvgl\src\lv_core/lv_obj.c ****  * @param param parameter for the signal (depends on signal type)
2476:..\..\..\lvgl\version_6.1.2\lvgl\src\lv_core/lv_obj.c ****  * @return LV_RES_OK: the object is not deleted in the function; LV_RES_INV: the object is deleted
2477:..\..\..\lvgl\version_6.1.2\lvgl\src\lv_core/lv_obj.c ****  */
2478:..\..\..\lvgl\version_6.1.2\lvgl\src\lv_core/lv_obj.c **** static lv_res_t lv_obj_signal(lv_obj_t * obj, lv_signal_t sign, void * param)
2479:..\..\..\lvgl\version_6.1.2\lvgl\src\lv_core/lv_obj.c **** {
 7312              		.loc 2 2479 0
 7313              		.cfi_startproc
 7314              		@ args = 0, pretend = 0, frame = 24
 7315              		@ frame_needed = 1, uses_anonymous_args = 0
 7316 0000 80B5     		push	{r7, lr}
 7317              		.cfi_def_cfa_offset 8
 7318              		.cfi_offset 7, -8
 7319              		.cfi_offset 14, -4
 7320 0002 86B0     		sub	sp, sp, #24
 7321              		.cfi_def_cfa_offset 32
 7322 0004 00AF     		add	r7, sp, #0
 7323              		.cfi_def_cfa_register 7
 7324 0006 F860     		str	r0, [r7, #12]
 7325 0008 0B46     		mov	r3, r1
 7326 000a 7A60     		str	r2, [r7, #4]
 7327 000c FB72     		strb	r3, [r7, #11]
2480:..\..\..\lvgl\version_6.1.2\lvgl\src\lv_core/lv_obj.c ****     if(sign == LV_SIGNAL_GET_TYPE) return lv_obj_handle_get_type_signal(param, LV_OBJX_NAME);
 7328              		.loc 2 2480 0
 7329 000e FB7A     		ldrb	r3, [r7, #11]	@ zero_extendqisi2
 7330 0010 072B     		cmp	r3, #7
 7331 0012 05D1     		bne	.L358
 7332              		.loc 2 2480 0 is_stmt 0 discriminator 1
 7333 0014 1A49     		ldr	r1, .L365
 7334 0016 7868     		ldr	r0, [r7, #4]
 7335 0018 FFF7FEFF 		bl	lv_obj_handle_get_type_signal
 7336 001c 0346     		mov	r3, r0
 7337 001e 2AE0     		b	.L359
 7338              	.L358:
2481:..\..\..\lvgl\version_6.1.2\lvgl\src\lv_core/lv_obj.c **** 
2482:..\..\..\lvgl\version_6.1.2\lvgl\src\lv_core/lv_obj.c ****     lv_res_t res = LV_RES_OK;
 7339              		.loc 2 2482 0 is_stmt 1
 7340 0020 0123     		movs	r3, #1
 7341 0022 FB75     		strb	r3, [r7, #23]
2483:..\..\..\lvgl\version_6.1.2\lvgl\src\lv_core/lv_obj.c **** 
2484:..\..\..\lvgl\version_6.1.2\lvgl\src\lv_core/lv_obj.c ****     if(sign == LV_SIGNAL_CHILD_CHG) {
 7342              		.loc 2 2484 0
 7343 0024 FB7A     		ldrb	r3, [r7, #11]	@ zero_extendqisi2
 7344 0026 012B     		cmp	r3, #1
 7345 0028 09D1     		bne	.L360
2485:..\..\..\lvgl\version_6.1.2\lvgl\src\lv_core/lv_obj.c ****         /*Return 'invalid' if the child change signal is not enabled*/
2486:..\..\..\lvgl\version_6.1.2\lvgl\src\lv_core/lv_obj.c ****         if(lv_obj_is_protected(obj, LV_PROTECT_CHILD_CHG) != false) res = LV_RES_INV;
 7346              		.loc 2 2486 0
 7347 002a 0121     		movs	r1, #1
 7348 002c F868     		ldr	r0, [r7, #12]
 7349 002e FFF7FEFF 		bl	lv_obj_is_protected
 7350 0032 0346     		mov	r3, r0
 7351 0034 002B     		cmp	r3, #0
 7352 0036 1DD0     		beq	.L362
ARM GAS  C:\Users\tmj32\AppData\Local\Temp\ccxLNxq9.s 			page 176


 7353              		.loc 2 2486 0 is_stmt 0 discriminator 1
 7354 0038 0023     		movs	r3, #0
 7355 003a FB75     		strb	r3, [r7, #23]
 7356 003c 1AE0     		b	.L362
 7357              	.L360:
2487:..\..\..\lvgl\version_6.1.2\lvgl\src\lv_core/lv_obj.c ****     } else if(sign == LV_SIGNAL_REFR_EXT_DRAW_PAD) {
 7358              		.loc 2 2487 0 is_stmt 1
 7359 003e FB7A     		ldrb	r3, [r7, #11]	@ zero_extendqisi2
 7360 0040 062B     		cmp	r3, #6
 7361 0042 11D1     		bne	.L363
 7362              	.LBB13:
2488:..\..\..\lvgl\version_6.1.2\lvgl\src\lv_core/lv_obj.c ****         const lv_style_t * style = lv_obj_get_style(obj);
 7363              		.loc 2 2488 0
 7364 0044 F868     		ldr	r0, [r7, #12]
 7365 0046 FFF7FEFF 		bl	lv_obj_get_style
 7366 004a 3861     		str	r0, [r7, #16]
2489:..\..\..\lvgl\version_6.1.2\lvgl\src\lv_core/lv_obj.c ****         if(style->body.shadow.width > obj->ext_draw_pad) obj->ext_draw_pad = style->body.shadow.wid
 7367              		.loc 2 2489 0
 7368 004c 3B69     		ldr	r3, [r7, #16]
 7369 004e B3F91C20 		ldrsh	r2, [r3, #28]
 7370 0052 FB68     		ldr	r3, [r7, #12]
 7371 0054 B3F93030 		ldrsh	r3, [r3, #48]
 7372 0058 9A42     		cmp	r2, r3
 7373 005a 0BDD     		ble	.L362
 7374              		.loc 2 2489 0 is_stmt 0 discriminator 1
 7375 005c 3B69     		ldr	r3, [r7, #16]
 7376 005e B3F91C20 		ldrsh	r2, [r3, #28]
 7377 0062 FB68     		ldr	r3, [r7, #12]
 7378 0064 1A86     		strh	r2, [r3, #48]	@ movhi
 7379 0066 05E0     		b	.L362
 7380              	.L363:
 7381              	.LBE13:
2490:..\..\..\lvgl\version_6.1.2\lvgl\src\lv_core/lv_obj.c ****     } else if(sign == LV_SIGNAL_STYLE_CHG) {
 7382              		.loc 2 2490 0 is_stmt 1
 7383 0068 FB7A     		ldrb	r3, [r7, #11]	@ zero_extendqisi2
 7384 006a 042B     		cmp	r3, #4
 7385 006c 02D1     		bne	.L362
2491:..\..\..\lvgl\version_6.1.2\lvgl\src\lv_core/lv_obj.c ****         lv_obj_refresh_ext_draw_pad(obj);
 7386              		.loc 2 2491 0
 7387 006e F868     		ldr	r0, [r7, #12]
 7388 0070 FFF7FEFF 		bl	lv_obj_refresh_ext_draw_pad
 7389              	.L362:
2492:..\..\..\lvgl\version_6.1.2\lvgl\src\lv_core/lv_obj.c ****     }
2493:..\..\..\lvgl\version_6.1.2\lvgl\src\lv_core/lv_obj.c ****     return res;
 7390              		.loc 2 2493 0
 7391 0074 FB7D     		ldrb	r3, [r7, #23]	@ zero_extendqisi2
 7392              	.L359:
2494:..\..\..\lvgl\version_6.1.2\lvgl\src\lv_core/lv_obj.c **** }
 7393              		.loc 2 2494 0
 7394 0076 1846     		mov	r0, r3
 7395 0078 1837     		adds	r7, r7, #24
 7396              		.cfi_def_cfa_offset 8
 7397 007a BD46     		mov	sp, r7
 7398              		.cfi_def_cfa_register 13
 7399              		@ sp needed
 7400 007c 80BD     		pop	{r7, pc}
 7401              	.L366:
ARM GAS  C:\Users\tmj32\AppData\Local\Temp\ccxLNxq9.s 			page 177


 7402 007e 00BF     		.align	2
 7403              	.L365:
 7404 0080 00000000 		.word	.LC0
 7405              		.cfi_endproc
 7406              	.LFE125:
 7407              		.size	lv_obj_signal, .-lv_obj_signal
 7408              		.section	.text.refresh_children_position,"ax",%progbits
 7409              		.align	2
 7410              		.thumb
 7411              		.thumb_func
 7412              		.type	refresh_children_position, %function
 7413              	refresh_children_position:
 7414              	.LFB126:
2495:..\..\..\lvgl\version_6.1.2\lvgl\src\lv_core/lv_obj.c **** 
2496:..\..\..\lvgl\version_6.1.2\lvgl\src\lv_core/lv_obj.c **** /**
2497:..\..\..\lvgl\version_6.1.2\lvgl\src\lv_core/lv_obj.c ****  * Reposition the children of an object. (Called recursively)
2498:..\..\..\lvgl\version_6.1.2\lvgl\src\lv_core/lv_obj.c ****  * @param obj pointer to an object which children will be repositioned
2499:..\..\..\lvgl\version_6.1.2\lvgl\src\lv_core/lv_obj.c ****  * @param x_diff x coordinate shift
2500:..\..\..\lvgl\version_6.1.2\lvgl\src\lv_core/lv_obj.c ****  * @param y_diff y coordinate shift
2501:..\..\..\lvgl\version_6.1.2\lvgl\src\lv_core/lv_obj.c ****  */
2502:..\..\..\lvgl\version_6.1.2\lvgl\src\lv_core/lv_obj.c **** static void refresh_children_position(lv_obj_t * obj, lv_coord_t x_diff, lv_coord_t y_diff)
2503:..\..\..\lvgl\version_6.1.2\lvgl\src\lv_core/lv_obj.c **** {
 7415              		.loc 2 2503 0
 7416              		.cfi_startproc
 7417              		@ args = 0, pretend = 0, frame = 16
 7418              		@ frame_needed = 1, uses_anonymous_args = 0
 7419 0000 80B5     		push	{r7, lr}
 7420              		.cfi_def_cfa_offset 8
 7421              		.cfi_offset 7, -8
 7422              		.cfi_offset 14, -4
 7423 0002 84B0     		sub	sp, sp, #16
 7424              		.cfi_def_cfa_offset 24
 7425 0004 00AF     		add	r7, sp, #0
 7426              		.cfi_def_cfa_register 7
 7427 0006 7860     		str	r0, [r7, #4]
 7428 0008 0B46     		mov	r3, r1
 7429 000a 7B80     		strh	r3, [r7, #2]	@ movhi
 7430 000c 1346     		mov	r3, r2	@ movhi
 7431 000e 3B80     		strh	r3, [r7]	@ movhi
2504:..\..\..\lvgl\version_6.1.2\lvgl\src\lv_core/lv_obj.c ****     lv_obj_t * i;
2505:..\..\..\lvgl\version_6.1.2\lvgl\src\lv_core/lv_obj.c ****     LV_LL_READ(obj->child_ll, i)
 7432              		.loc 2 2505 0
 7433 0010 7B68     		ldr	r3, [r7, #4]
 7434 0012 0433     		adds	r3, r3, #4
 7435 0014 1846     		mov	r0, r3
 7436 0016 FFF7FEFF 		bl	lv_ll_get_head
 7437 001a F860     		str	r0, [r7, #12]
 7438 001c 36E0     		b	.L368
 7439              	.L369:
2506:..\..\..\lvgl\version_6.1.2\lvgl\src\lv_core/lv_obj.c ****     {
2507:..\..\..\lvgl\version_6.1.2\lvgl\src\lv_core/lv_obj.c ****         i->coords.x1 += x_diff;
 7440              		.loc 2 2507 0 discriminator 3
 7441 001e FB68     		ldr	r3, [r7, #12]
 7442 0020 B3F91030 		ldrsh	r3, [r3, #16]
 7443 0024 9AB2     		uxth	r2, r3
 7444 0026 7B88     		ldrh	r3, [r7, #2]
 7445 0028 1344     		add	r3, r3, r2
ARM GAS  C:\Users\tmj32\AppData\Local\Temp\ccxLNxq9.s 			page 178


 7446 002a 9BB2     		uxth	r3, r3
 7447 002c 1AB2     		sxth	r2, r3
 7448 002e FB68     		ldr	r3, [r7, #12]
 7449 0030 1A82     		strh	r2, [r3, #16]	@ movhi
2508:..\..\..\lvgl\version_6.1.2\lvgl\src\lv_core/lv_obj.c ****         i->coords.y1 += y_diff;
 7450              		.loc 2 2508 0 discriminator 3
 7451 0032 FB68     		ldr	r3, [r7, #12]
 7452 0034 B3F91230 		ldrsh	r3, [r3, #18]
 7453 0038 9AB2     		uxth	r2, r3
 7454 003a 3B88     		ldrh	r3, [r7]
 7455 003c 1344     		add	r3, r3, r2
 7456 003e 9BB2     		uxth	r3, r3
 7457 0040 1AB2     		sxth	r2, r3
 7458 0042 FB68     		ldr	r3, [r7, #12]
 7459 0044 5A82     		strh	r2, [r3, #18]	@ movhi
2509:..\..\..\lvgl\version_6.1.2\lvgl\src\lv_core/lv_obj.c ****         i->coords.x2 += x_diff;
 7460              		.loc 2 2509 0 discriminator 3
 7461 0046 FB68     		ldr	r3, [r7, #12]
 7462 0048 B3F91430 		ldrsh	r3, [r3, #20]
 7463 004c 9AB2     		uxth	r2, r3
 7464 004e 7B88     		ldrh	r3, [r7, #2]
 7465 0050 1344     		add	r3, r3, r2
 7466 0052 9BB2     		uxth	r3, r3
 7467 0054 1AB2     		sxth	r2, r3
 7468 0056 FB68     		ldr	r3, [r7, #12]
 7469 0058 9A82     		strh	r2, [r3, #20]	@ movhi
2510:..\..\..\lvgl\version_6.1.2\lvgl\src\lv_core/lv_obj.c ****         i->coords.y2 += y_diff;
 7470              		.loc 2 2510 0 discriminator 3
 7471 005a FB68     		ldr	r3, [r7, #12]
 7472 005c B3F91630 		ldrsh	r3, [r3, #22]
 7473 0060 9AB2     		uxth	r2, r3
 7474 0062 3B88     		ldrh	r3, [r7]
 7475 0064 1344     		add	r3, r3, r2
 7476 0066 9BB2     		uxth	r3, r3
 7477 0068 1AB2     		sxth	r2, r3
 7478 006a FB68     		ldr	r3, [r7, #12]
 7479 006c DA82     		strh	r2, [r3, #22]	@ movhi
2511:..\..\..\lvgl\version_6.1.2\lvgl\src\lv_core/lv_obj.c **** 
2512:..\..\..\lvgl\version_6.1.2\lvgl\src\lv_core/lv_obj.c ****         refresh_children_position(i, x_diff, y_diff);
 7480              		.loc 2 2512 0 discriminator 3
 7481 006e B7F90020 		ldrsh	r2, [r7]
 7482 0072 B7F90230 		ldrsh	r3, [r7, #2]
 7483 0076 1946     		mov	r1, r3
 7484 0078 F868     		ldr	r0, [r7, #12]
 7485 007a FFF7C1FF 		bl	refresh_children_position
2505:..\..\..\lvgl\version_6.1.2\lvgl\src\lv_core/lv_obj.c ****     {
 7486              		.loc 2 2505 0 discriminator 3
 7487 007e 7B68     		ldr	r3, [r7, #4]
 7488 0080 0433     		adds	r3, r3, #4
 7489 0082 F968     		ldr	r1, [r7, #12]
 7490 0084 1846     		mov	r0, r3
 7491 0086 FFF7FEFF 		bl	lv_ll_get_next
 7492 008a F860     		str	r0, [r7, #12]
 7493              	.L368:
2505:..\..\..\lvgl\version_6.1.2\lvgl\src\lv_core/lv_obj.c ****     {
 7494              		.loc 2 2505 0 is_stmt 0 discriminator 1
 7495 008c FB68     		ldr	r3, [r7, #12]
ARM GAS  C:\Users\tmj32\AppData\Local\Temp\ccxLNxq9.s 			page 179


 7496 008e 002B     		cmp	r3, #0
 7497 0090 C5D1     		bne	.L369
2513:..\..\..\lvgl\version_6.1.2\lvgl\src\lv_core/lv_obj.c ****     }
2514:..\..\..\lvgl\version_6.1.2\lvgl\src\lv_core/lv_obj.c **** }
 7498              		.loc 2 2514 0 is_stmt 1
 7499 0092 00BF     		nop
 7500 0094 1037     		adds	r7, r7, #16
 7501              		.cfi_def_cfa_offset 8
 7502 0096 BD46     		mov	sp, r7
 7503              		.cfi_def_cfa_register 13
 7504              		@ sp needed
 7505 0098 80BD     		pop	{r7, pc}
 7506              		.cfi_endproc
 7507              	.LFE126:
 7508              		.size	refresh_children_position, .-refresh_children_position
 7509 009a 00BF     		.section	.text.report_style_mod_core,"ax",%progbits
 7510              		.align	2
 7511              		.thumb
 7512              		.thumb_func
 7513              		.type	report_style_mod_core, %function
 7514              	report_style_mod_core:
 7515              	.LFB127:
2515:..\..\..\lvgl\version_6.1.2\lvgl\src\lv_core/lv_obj.c **** 
2516:..\..\..\lvgl\version_6.1.2\lvgl\src\lv_core/lv_obj.c **** /**
2517:..\..\..\lvgl\version_6.1.2\lvgl\src\lv_core/lv_obj.c ****  * Refresh the style of all children of an object. (Called recursively)
2518:..\..\..\lvgl\version_6.1.2\lvgl\src\lv_core/lv_obj.c ****  * @param style_p refresh objects only with this style.
2519:..\..\..\lvgl\version_6.1.2\lvgl\src\lv_core/lv_obj.c ****  * @param obj pointer to an object
2520:..\..\..\lvgl\version_6.1.2\lvgl\src\lv_core/lv_obj.c ****  */
2521:..\..\..\lvgl\version_6.1.2\lvgl\src\lv_core/lv_obj.c **** static void report_style_mod_core(void * style_p, lv_obj_t * obj)
2522:..\..\..\lvgl\version_6.1.2\lvgl\src\lv_core/lv_obj.c **** {
 7516              		.loc 2 2522 0
 7517              		.cfi_startproc
 7518              		@ args = 0, pretend = 0, frame = 16
 7519              		@ frame_needed = 1, uses_anonymous_args = 0
 7520 0000 80B5     		push	{r7, lr}
 7521              		.cfi_def_cfa_offset 8
 7522              		.cfi_offset 7, -8
 7523              		.cfi_offset 14, -4
 7524 0002 84B0     		sub	sp, sp, #16
 7525              		.cfi_def_cfa_offset 24
 7526 0004 00AF     		add	r7, sp, #0
 7527              		.cfi_def_cfa_register 7
 7528 0006 7860     		str	r0, [r7, #4]
 7529 0008 3960     		str	r1, [r7]
2523:..\..\..\lvgl\version_6.1.2\lvgl\src\lv_core/lv_obj.c ****     lv_obj_t * i;
2524:..\..\..\lvgl\version_6.1.2\lvgl\src\lv_core/lv_obj.c ****     LV_LL_READ(obj->child_ll, i)
 7530              		.loc 2 2524 0
 7531 000a 3B68     		ldr	r3, [r7]
 7532 000c 0433     		adds	r3, r3, #4
 7533 000e 1846     		mov	r0, r3
 7534 0010 FFF7FEFF 		bl	lv_ll_get_head
 7535 0014 F860     		str	r0, [r7, #12]
 7536 0016 18E0     		b	.L371
 7537              	.L374:
2525:..\..\..\lvgl\version_6.1.2\lvgl\src\lv_core/lv_obj.c ****     {
2526:..\..\..\lvgl\version_6.1.2\lvgl\src\lv_core/lv_obj.c ****         if(i->style_p == style_p || style_p == NULL) {
 7538              		.loc 2 2526 0
ARM GAS  C:\Users\tmj32\AppData\Local\Temp\ccxLNxq9.s 			page 180


 7539 0018 FB68     		ldr	r3, [r7, #12]
 7540 001a 9A6A     		ldr	r2, [r3, #40]
 7541 001c 7B68     		ldr	r3, [r7, #4]
 7542 001e 9A42     		cmp	r2, r3
 7543 0020 02D0     		beq	.L372
 7544              		.loc 2 2526 0 is_stmt 0 discriminator 1
 7545 0022 7B68     		ldr	r3, [r7, #4]
 7546 0024 002B     		cmp	r3, #0
 7547 0026 05D1     		bne	.L373
 7548              	.L372:
2527:..\..\..\lvgl\version_6.1.2\lvgl\src\lv_core/lv_obj.c ****             refresh_children_style(i);
 7549              		.loc 2 2527 0 is_stmt 1
 7550 0028 F868     		ldr	r0, [r7, #12]
 7551 002a FFF7FEFF 		bl	refresh_children_style
2528:..\..\..\lvgl\version_6.1.2\lvgl\src\lv_core/lv_obj.c ****             lv_obj_refresh_style(i);
 7552              		.loc 2 2528 0
 7553 002e F868     		ldr	r0, [r7, #12]
 7554 0030 FFF7FEFF 		bl	lv_obj_refresh_style
 7555              	.L373:
2529:..\..\..\lvgl\version_6.1.2\lvgl\src\lv_core/lv_obj.c ****         }
2530:..\..\..\lvgl\version_6.1.2\lvgl\src\lv_core/lv_obj.c **** 
2531:..\..\..\lvgl\version_6.1.2\lvgl\src\lv_core/lv_obj.c ****         report_style_mod_core(style_p, i);
 7556              		.loc 2 2531 0 discriminator 2
 7557 0034 F968     		ldr	r1, [r7, #12]
 7558 0036 7868     		ldr	r0, [r7, #4]
 7559 0038 FFF7E2FF 		bl	report_style_mod_core
2524:..\..\..\lvgl\version_6.1.2\lvgl\src\lv_core/lv_obj.c ****     {
 7560              		.loc 2 2524 0 discriminator 2
 7561 003c 3B68     		ldr	r3, [r7]
 7562 003e 0433     		adds	r3, r3, #4
 7563 0040 F968     		ldr	r1, [r7, #12]
 7564 0042 1846     		mov	r0, r3
 7565 0044 FFF7FEFF 		bl	lv_ll_get_next
 7566 0048 F860     		str	r0, [r7, #12]
 7567              	.L371:
2524:..\..\..\lvgl\version_6.1.2\lvgl\src\lv_core/lv_obj.c ****     {
 7568              		.loc 2 2524 0 is_stmt 0 discriminator 1
 7569 004a FB68     		ldr	r3, [r7, #12]
 7570 004c 002B     		cmp	r3, #0
 7571 004e E3D1     		bne	.L374
2532:..\..\..\lvgl\version_6.1.2\lvgl\src\lv_core/lv_obj.c ****     }
2533:..\..\..\lvgl\version_6.1.2\lvgl\src\lv_core/lv_obj.c **** }
 7572              		.loc 2 2533 0 is_stmt 1
 7573 0050 00BF     		nop
 7574 0052 1037     		adds	r7, r7, #16
 7575              		.cfi_def_cfa_offset 8
 7576 0054 BD46     		mov	sp, r7
 7577              		.cfi_def_cfa_register 13
 7578              		@ sp needed
 7579 0056 80BD     		pop	{r7, pc}
 7580              		.cfi_endproc
 7581              	.LFE127:
 7582              		.size	report_style_mod_core, .-report_style_mod_core
 7583              		.section	.text.refresh_children_style,"ax",%progbits
 7584              		.align	2
 7585              		.thumb
 7586              		.thumb_func
ARM GAS  C:\Users\tmj32\AppData\Local\Temp\ccxLNxq9.s 			page 181


 7587              		.type	refresh_children_style, %function
 7588              	refresh_children_style:
 7589              	.LFB128:
2534:..\..\..\lvgl\version_6.1.2\lvgl\src\lv_core/lv_obj.c **** 
2535:..\..\..\lvgl\version_6.1.2\lvgl\src\lv_core/lv_obj.c **** /**
2536:..\..\..\lvgl\version_6.1.2\lvgl\src\lv_core/lv_obj.c ****  * Recursively refresh the style of the children. Go deeper until a not NULL style is found
2537:..\..\..\lvgl\version_6.1.2\lvgl\src\lv_core/lv_obj.c ****  * because the NULL styles are inherited from the parent
2538:..\..\..\lvgl\version_6.1.2\lvgl\src\lv_core/lv_obj.c ****  * @param obj pointer to an object
2539:..\..\..\lvgl\version_6.1.2\lvgl\src\lv_core/lv_obj.c ****  */
2540:..\..\..\lvgl\version_6.1.2\lvgl\src\lv_core/lv_obj.c **** static void refresh_children_style(lv_obj_t * obj)
2541:..\..\..\lvgl\version_6.1.2\lvgl\src\lv_core/lv_obj.c **** {
 7590              		.loc 2 2541 0
 7591              		.cfi_startproc
 7592              		@ args = 0, pretend = 0, frame = 16
 7593              		@ frame_needed = 1, uses_anonymous_args = 0
 7594 0000 80B5     		push	{r7, lr}
 7595              		.cfi_def_cfa_offset 8
 7596              		.cfi_offset 7, -8
 7597              		.cfi_offset 14, -4
 7598 0002 84B0     		sub	sp, sp, #16
 7599              		.cfi_def_cfa_offset 24
 7600 0004 00AF     		add	r7, sp, #0
 7601              		.cfi_def_cfa_register 7
 7602 0006 7860     		str	r0, [r7, #4]
2542:..\..\..\lvgl\version_6.1.2\lvgl\src\lv_core/lv_obj.c ****     lv_obj_t * child = lv_obj_get_child(obj, NULL);
 7603              		.loc 2 2542 0
 7604 0008 0021     		movs	r1, #0
 7605 000a 7868     		ldr	r0, [r7, #4]
 7606 000c FFF7FEFF 		bl	lv_obj_get_child
 7607 0010 F860     		str	r0, [r7, #12]
2543:..\..\..\lvgl\version_6.1.2\lvgl\src\lv_core/lv_obj.c ****     while(child != NULL) {
 7608              		.loc 2 2543 0
 7609 0012 1AE0     		b	.L376
 7610              	.L379:
2544:..\..\..\lvgl\version_6.1.2\lvgl\src\lv_core/lv_obj.c ****         if(child->style_p == NULL) {
 7611              		.loc 2 2544 0
 7612 0014 FB68     		ldr	r3, [r7, #12]
 7613 0016 9B6A     		ldr	r3, [r3, #40]
 7614 0018 002B     		cmp	r3, #0
 7615 001a 06D1     		bne	.L377
2545:..\..\..\lvgl\version_6.1.2\lvgl\src\lv_core/lv_obj.c ****             refresh_children_style(child); /*Check children too*/
 7616              		.loc 2 2545 0
 7617 001c F868     		ldr	r0, [r7, #12]
 7618 001e FFF7EFFF 		bl	refresh_children_style
2546:..\..\..\lvgl\version_6.1.2\lvgl\src\lv_core/lv_obj.c ****             lv_obj_refresh_style(child);   /*Notify the child about the style change*/
 7619              		.loc 2 2546 0
 7620 0022 F868     		ldr	r0, [r7, #12]
 7621 0024 FFF7FEFF 		bl	lv_obj_refresh_style
 7622 0028 0AE0     		b	.L378
 7623              	.L377:
2547:..\..\..\lvgl\version_6.1.2\lvgl\src\lv_core/lv_obj.c ****         } else if(child->style_p->glass) {
 7624              		.loc 2 2547 0
 7625 002a FB68     		ldr	r3, [r7, #12]
 7626 002c 9B6A     		ldr	r3, [r3, #40]
 7627 002e 1B78     		ldrb	r3, [r3]	@ zero_extendqisi2
 7628 0030 03F00103 		and	r3, r3, #1
 7629 0034 DBB2     		uxtb	r3, r3
ARM GAS  C:\Users\tmj32\AppData\Local\Temp\ccxLNxq9.s 			page 182


 7630 0036 002B     		cmp	r3, #0
 7631 0038 02D0     		beq	.L378
2548:..\..\..\lvgl\version_6.1.2\lvgl\src\lv_core/lv_obj.c ****             /*Children with 'glass' parent might be effected if their style == NULL*/
2549:..\..\..\lvgl\version_6.1.2\lvgl\src\lv_core/lv_obj.c ****             refresh_children_style(child);
 7632              		.loc 2 2549 0
 7633 003a F868     		ldr	r0, [r7, #12]
 7634 003c FFF7E0FF 		bl	refresh_children_style
 7635              	.L378:
2550:..\..\..\lvgl\version_6.1.2\lvgl\src\lv_core/lv_obj.c ****         }
2551:..\..\..\lvgl\version_6.1.2\lvgl\src\lv_core/lv_obj.c ****         child = lv_obj_get_child(obj, child);
 7636              		.loc 2 2551 0
 7637 0040 F968     		ldr	r1, [r7, #12]
 7638 0042 7868     		ldr	r0, [r7, #4]
 7639 0044 FFF7FEFF 		bl	lv_obj_get_child
 7640 0048 F860     		str	r0, [r7, #12]
 7641              	.L376:
2543:..\..\..\lvgl\version_6.1.2\lvgl\src\lv_core/lv_obj.c ****         if(child->style_p == NULL) {
 7642              		.loc 2 2543 0
 7643 004a FB68     		ldr	r3, [r7, #12]
 7644 004c 002B     		cmp	r3, #0
 7645 004e E1D1     		bne	.L379
2552:..\..\..\lvgl\version_6.1.2\lvgl\src\lv_core/lv_obj.c ****     }
2553:..\..\..\lvgl\version_6.1.2\lvgl\src\lv_core/lv_obj.c **** }
 7646              		.loc 2 2553 0
 7647 0050 00BF     		nop
 7648 0052 1037     		adds	r7, r7, #16
 7649              		.cfi_def_cfa_offset 8
 7650 0054 BD46     		mov	sp, r7
 7651              		.cfi_def_cfa_register 13
 7652              		@ sp needed
 7653 0056 80BD     		pop	{r7, pc}
 7654              		.cfi_endproc
 7655              	.LFE128:
 7656              		.size	refresh_children_style, .-refresh_children_style
 7657              		.section	.text.delete_children,"ax",%progbits
 7658              		.align	2
 7659              		.thumb
 7660              		.thumb_func
 7661              		.type	delete_children, %function
 7662              	delete_children:
 7663              	.LFB129:
2554:..\..\..\lvgl\version_6.1.2\lvgl\src\lv_core/lv_obj.c **** 
2555:..\..\..\lvgl\version_6.1.2\lvgl\src\lv_core/lv_obj.c **** /**
2556:..\..\..\lvgl\version_6.1.2\lvgl\src\lv_core/lv_obj.c ****  * Called by 'lv_obj_del' to delete the children objects
2557:..\..\..\lvgl\version_6.1.2\lvgl\src\lv_core/lv_obj.c ****  * @param obj pointer to an object (all of its children will be deleted)
2558:..\..\..\lvgl\version_6.1.2\lvgl\src\lv_core/lv_obj.c ****  */
2559:..\..\..\lvgl\version_6.1.2\lvgl\src\lv_core/lv_obj.c **** static void delete_children(lv_obj_t * obj)
2560:..\..\..\lvgl\version_6.1.2\lvgl\src\lv_core/lv_obj.c **** {
 7664              		.loc 2 2560 0
 7665              		.cfi_startproc
 7666              		@ args = 0, pretend = 0, frame = 24
 7667              		@ frame_needed = 1, uses_anonymous_args = 0
 7668 0000 80B5     		push	{r7, lr}
 7669              		.cfi_def_cfa_offset 8
 7670              		.cfi_offset 7, -8
 7671              		.cfi_offset 14, -4
 7672 0002 86B0     		sub	sp, sp, #24
ARM GAS  C:\Users\tmj32\AppData\Local\Temp\ccxLNxq9.s 			page 183


 7673              		.cfi_def_cfa_offset 32
 7674 0004 00AF     		add	r7, sp, #0
 7675              		.cfi_def_cfa_register 7
 7676 0006 7860     		str	r0, [r7, #4]
2561:..\..\..\lvgl\version_6.1.2\lvgl\src\lv_core/lv_obj.c ****     lv_obj_t * i;
2562:..\..\..\lvgl\version_6.1.2\lvgl\src\lv_core/lv_obj.c ****     lv_obj_t * i_next;
2563:..\..\..\lvgl\version_6.1.2\lvgl\src\lv_core/lv_obj.c ****     i = lv_ll_get_head(&(obj->child_ll));
 7677              		.loc 2 2563 0
 7678 0008 7B68     		ldr	r3, [r7, #4]
 7679 000a 0433     		adds	r3, r3, #4
 7680 000c 1846     		mov	r0, r3
 7681 000e FFF7FEFF 		bl	lv_ll_get_head
 7682 0012 7861     		str	r0, [r7, #20]
2564:..\..\..\lvgl\version_6.1.2\lvgl\src\lv_core/lv_obj.c **** 
2565:..\..\..\lvgl\version_6.1.2\lvgl\src\lv_core/lv_obj.c ****     /*Remove from the group; remove before transversing children so that
2566:..\..\..\lvgl\version_6.1.2\lvgl\src\lv_core/lv_obj.c ****      * the object still has access to all children during the
2567:..\..\..\lvgl\version_6.1.2\lvgl\src\lv_core/lv_obj.c ****      * LV_SIGNAL_DEFOCUS call*/
2568:..\..\..\lvgl\version_6.1.2\lvgl\src\lv_core/lv_obj.c **** #if LV_USE_GROUP
2569:..\..\..\lvgl\version_6.1.2\lvgl\src\lv_core/lv_obj.c ****     lv_group_t * group = lv_obj_get_group(obj);
2570:..\..\..\lvgl\version_6.1.2\lvgl\src\lv_core/lv_obj.c ****     if(group) lv_group_remove_obj(obj);
2571:..\..\..\lvgl\version_6.1.2\lvgl\src\lv_core/lv_obj.c **** #endif
2572:..\..\..\lvgl\version_6.1.2\lvgl\src\lv_core/lv_obj.c **** 
2573:..\..\..\lvgl\version_6.1.2\lvgl\src\lv_core/lv_obj.c ****     while(i != NULL) {
 7683              		.loc 2 2573 0
 7684 0014 0BE0     		b	.L381
 7685              	.L382:
2574:..\..\..\lvgl\version_6.1.2\lvgl\src\lv_core/lv_obj.c ****         /*Get the next object before delete this*/
2575:..\..\..\lvgl\version_6.1.2\lvgl\src\lv_core/lv_obj.c ****         i_next = lv_ll_get_next(&(obj->child_ll), i);
 7686              		.loc 2 2575 0
 7687 0016 7B68     		ldr	r3, [r7, #4]
 7688 0018 0433     		adds	r3, r3, #4
 7689 001a 7969     		ldr	r1, [r7, #20]
 7690 001c 1846     		mov	r0, r3
 7691 001e FFF7FEFF 		bl	lv_ll_get_next
 7692 0022 F860     		str	r0, [r7, #12]
2576:..\..\..\lvgl\version_6.1.2\lvgl\src\lv_core/lv_obj.c **** 
2577:..\..\..\lvgl\version_6.1.2\lvgl\src\lv_core/lv_obj.c ****         /*Call the recursive del to the child too*/
2578:..\..\..\lvgl\version_6.1.2\lvgl\src\lv_core/lv_obj.c ****         delete_children(i);
 7693              		.loc 2 2578 0
 7694 0024 7869     		ldr	r0, [r7, #20]
 7695 0026 FFF7EBFF 		bl	delete_children
2579:..\..\..\lvgl\version_6.1.2\lvgl\src\lv_core/lv_obj.c **** 
2580:..\..\..\lvgl\version_6.1.2\lvgl\src\lv_core/lv_obj.c ****         /*Set i to the next node*/
2581:..\..\..\lvgl\version_6.1.2\lvgl\src\lv_core/lv_obj.c ****         i = i_next;
 7696              		.loc 2 2581 0
 7697 002a FB68     		ldr	r3, [r7, #12]
 7698 002c 7B61     		str	r3, [r7, #20]
 7699              	.L381:
2573:..\..\..\lvgl\version_6.1.2\lvgl\src\lv_core/lv_obj.c ****         /*Get the next object before delete this*/
 7700              		.loc 2 2573 0
 7701 002e 7B69     		ldr	r3, [r7, #20]
 7702 0030 002B     		cmp	r3, #0
 7703 0032 F0D1     		bne	.L382
2582:..\..\..\lvgl\version_6.1.2\lvgl\src\lv_core/lv_obj.c ****     }
2583:..\..\..\lvgl\version_6.1.2\lvgl\src\lv_core/lv_obj.c **** 
2584:..\..\..\lvgl\version_6.1.2\lvgl\src\lv_core/lv_obj.c ****     /*Let the suer free the resources used in `LV_EVENT_DELETE`*/
2585:..\..\..\lvgl\version_6.1.2\lvgl\src\lv_core/lv_obj.c ****     lv_event_send(obj, LV_EVENT_DELETE, NULL);
ARM GAS  C:\Users\tmj32\AppData\Local\Temp\ccxLNxq9.s 			page 184


 7704              		.loc 2 2585 0
 7705 0034 0022     		movs	r2, #0
 7706 0036 1321     		movs	r1, #19
 7707 0038 7868     		ldr	r0, [r7, #4]
 7708 003a FFF7FEFF 		bl	lv_event_send
2586:..\..\..\lvgl\version_6.1.2\lvgl\src\lv_core/lv_obj.c **** 
2587:..\..\..\lvgl\version_6.1.2\lvgl\src\lv_core/lv_obj.c ****     lv_event_mark_deleted(obj);
 7709              		.loc 2 2587 0
 7710 003e 7868     		ldr	r0, [r7, #4]
 7711 0040 FFF7FEFF 		bl	lv_event_mark_deleted
2588:..\..\..\lvgl\version_6.1.2\lvgl\src\lv_core/lv_obj.c **** 
2589:..\..\..\lvgl\version_6.1.2\lvgl\src\lv_core/lv_obj.c ****     /*Remove the animations from this object*/
2590:..\..\..\lvgl\version_6.1.2\lvgl\src\lv_core/lv_obj.c **** #if LV_USE_ANIMATION
2591:..\..\..\lvgl\version_6.1.2\lvgl\src\lv_core/lv_obj.c ****     lv_anim_del(obj, NULL);
 7712              		.loc 2 2591 0
 7713 0044 0021     		movs	r1, #0
 7714 0046 7868     		ldr	r0, [r7, #4]
 7715 0048 FFF7FEFF 		bl	lv_anim_del
2592:..\..\..\lvgl\version_6.1.2\lvgl\src\lv_core/lv_obj.c **** #endif
2593:..\..\..\lvgl\version_6.1.2\lvgl\src\lv_core/lv_obj.c **** 
2594:..\..\..\lvgl\version_6.1.2\lvgl\src\lv_core/lv_obj.c ****     /* Reset the input devices if
2595:..\..\..\lvgl\version_6.1.2\lvgl\src\lv_core/lv_obj.c ****      * the object to delete is used*/
2596:..\..\..\lvgl\version_6.1.2\lvgl\src\lv_core/lv_obj.c ****     lv_indev_t * indev = lv_indev_get_next(NULL);
 7716              		.loc 2 2596 0
 7717 004c 0020     		movs	r0, #0
 7718 004e FFF7FEFF 		bl	lv_indev_get_next
 7719 0052 3861     		str	r0, [r7, #16]
2597:..\..\..\lvgl\version_6.1.2\lvgl\src\lv_core/lv_obj.c ****     while(indev) {
 7720              		.loc 2 2597 0
 7721 0054 18E0     		b	.L383
 7722              	.L387:
2598:..\..\..\lvgl\version_6.1.2\lvgl\src\lv_core/lv_obj.c ****         if(indev->proc.types.pointer.act_obj == obj || indev->proc.types.pointer.last_obj == obj) {
 7723              		.loc 2 2598 0
 7724 0056 3B69     		ldr	r3, [r7, #16]
 7725 0058 5A6B     		ldr	r2, [r3, #52]
 7726 005a 7B68     		ldr	r3, [r7, #4]
 7727 005c 9A42     		cmp	r2, r3
 7728 005e 04D0     		beq	.L384
 7729              		.loc 2 2598 0 is_stmt 0 discriminator 1
 7730 0060 3B69     		ldr	r3, [r7, #16]
 7731 0062 9A6B     		ldr	r2, [r3, #56]
 7732 0064 7B68     		ldr	r3, [r7, #4]
 7733 0066 9A42     		cmp	r2, r3
 7734 0068 02D1     		bne	.L385
 7735              	.L384:
2599:..\..\..\lvgl\version_6.1.2\lvgl\src\lv_core/lv_obj.c ****             lv_indev_reset(indev);
 7736              		.loc 2 2599 0 is_stmt 1
 7737 006a 3869     		ldr	r0, [r7, #16]
 7738 006c FFF7FEFF 		bl	lv_indev_reset
 7739              	.L385:
2600:..\..\..\lvgl\version_6.1.2\lvgl\src\lv_core/lv_obj.c ****         }
2601:..\..\..\lvgl\version_6.1.2\lvgl\src\lv_core/lv_obj.c **** 
2602:..\..\..\lvgl\version_6.1.2\lvgl\src\lv_core/lv_obj.c ****         if(indev->proc.types.pointer.last_pressed == obj) {
 7740              		.loc 2 2602 0
 7741 0070 3B69     		ldr	r3, [r7, #16]
 7742 0072 DA6B     		ldr	r2, [r3, #60]
 7743 0074 7B68     		ldr	r3, [r7, #4]
ARM GAS  C:\Users\tmj32\AppData\Local\Temp\ccxLNxq9.s 			page 185


 7744 0076 9A42     		cmp	r2, r3
 7745 0078 02D1     		bne	.L386
2603:..\..\..\lvgl\version_6.1.2\lvgl\src\lv_core/lv_obj.c ****             indev->proc.types.pointer.last_pressed = NULL;
 7746              		.loc 2 2603 0
 7747 007a 3B69     		ldr	r3, [r7, #16]
 7748 007c 0022     		movs	r2, #0
 7749 007e DA63     		str	r2, [r3, #60]
 7750              	.L386:
2604:..\..\..\lvgl\version_6.1.2\lvgl\src\lv_core/lv_obj.c ****         }
2605:..\..\..\lvgl\version_6.1.2\lvgl\src\lv_core/lv_obj.c **** #if LV_USE_GROUP
2606:..\..\..\lvgl\version_6.1.2\lvgl\src\lv_core/lv_obj.c ****         if(indev->group == group && obj == lv_indev_get_obj_act()) {
2607:..\..\..\lvgl\version_6.1.2\lvgl\src\lv_core/lv_obj.c ****             lv_indev_reset(indev);
2608:..\..\..\lvgl\version_6.1.2\lvgl\src\lv_core/lv_obj.c ****         }
2609:..\..\..\lvgl\version_6.1.2\lvgl\src\lv_core/lv_obj.c **** #endif
2610:..\..\..\lvgl\version_6.1.2\lvgl\src\lv_core/lv_obj.c ****         indev = lv_indev_get_next(indev);
 7751              		.loc 2 2610 0
 7752 0080 3869     		ldr	r0, [r7, #16]
 7753 0082 FFF7FEFF 		bl	lv_indev_get_next
 7754 0086 3861     		str	r0, [r7, #16]
 7755              	.L383:
2597:..\..\..\lvgl\version_6.1.2\lvgl\src\lv_core/lv_obj.c ****         if(indev->proc.types.pointer.act_obj == obj || indev->proc.types.pointer.last_obj == obj) {
 7756              		.loc 2 2597 0
 7757 0088 3B69     		ldr	r3, [r7, #16]
 7758 008a 002B     		cmp	r3, #0
 7759 008c E3D1     		bne	.L387
2611:..\..\..\lvgl\version_6.1.2\lvgl\src\lv_core/lv_obj.c ****     }
2612:..\..\..\lvgl\version_6.1.2\lvgl\src\lv_core/lv_obj.c **** 
2613:..\..\..\lvgl\version_6.1.2\lvgl\src\lv_core/lv_obj.c ****     /* Clean up the object specific data*/
2614:..\..\..\lvgl\version_6.1.2\lvgl\src\lv_core/lv_obj.c ****     obj->signal_cb(obj, LV_SIGNAL_CLEANUP, NULL);
 7760              		.loc 2 2614 0
 7761 008e 7B68     		ldr	r3, [r7, #4]
 7762 0090 DB69     		ldr	r3, [r3, #28]
 7763 0092 0022     		movs	r2, #0
 7764 0094 0021     		movs	r1, #0
 7765 0096 7868     		ldr	r0, [r7, #4]
 7766 0098 9847     		blx	r3
2615:..\..\..\lvgl\version_6.1.2\lvgl\src\lv_core/lv_obj.c **** 
2616:..\..\..\lvgl\version_6.1.2\lvgl\src\lv_core/lv_obj.c ****     /*Remove the object from parent's children list*/
2617:..\..\..\lvgl\version_6.1.2\lvgl\src\lv_core/lv_obj.c ****     lv_obj_t * par = lv_obj_get_parent(obj);
 7767              		.loc 2 2617 0
 7768 009a 7868     		ldr	r0, [r7, #4]
 7769 009c FFF7FEFF 		bl	lv_obj_get_parent
 7770 00a0 B860     		str	r0, [r7, #8]
2618:..\..\..\lvgl\version_6.1.2\lvgl\src\lv_core/lv_obj.c ****     lv_ll_rem(&(par->child_ll), obj);
 7771              		.loc 2 2618 0
 7772 00a2 BB68     		ldr	r3, [r7, #8]
 7773 00a4 0433     		adds	r3, r3, #4
 7774 00a6 7968     		ldr	r1, [r7, #4]
 7775 00a8 1846     		mov	r0, r3
 7776 00aa FFF7FEFF 		bl	lv_ll_rem
2619:..\..\..\lvgl\version_6.1.2\lvgl\src\lv_core/lv_obj.c **** 
2620:..\..\..\lvgl\version_6.1.2\lvgl\src\lv_core/lv_obj.c ****     /*Delete the base objects*/
2621:..\..\..\lvgl\version_6.1.2\lvgl\src\lv_core/lv_obj.c ****     if(obj->ext_attr != NULL) lv_mem_free(obj->ext_attr);
 7777              		.loc 2 2621 0
 7778 00ae 7B68     		ldr	r3, [r7, #4]
 7779 00b0 5B6A     		ldr	r3, [r3, #36]
 7780 00b2 002B     		cmp	r3, #0
ARM GAS  C:\Users\tmj32\AppData\Local\Temp\ccxLNxq9.s 			page 186


 7781 00b4 04D0     		beq	.L388
 7782              		.loc 2 2621 0 is_stmt 0 discriminator 1
 7783 00b6 7B68     		ldr	r3, [r7, #4]
 7784 00b8 5B6A     		ldr	r3, [r3, #36]
 7785 00ba 1846     		mov	r0, r3
 7786 00bc FFF7FEFF 		bl	lv_mem_free
 7787              	.L388:
2622:..\..\..\lvgl\version_6.1.2\lvgl\src\lv_core/lv_obj.c ****     lv_mem_free(obj); /*Free the object itself*/
 7788              		.loc 2 2622 0 is_stmt 1
 7789 00c0 7868     		ldr	r0, [r7, #4]
 7790 00c2 FFF7FEFF 		bl	lv_mem_free
2623:..\..\..\lvgl\version_6.1.2\lvgl\src\lv_core/lv_obj.c **** }
 7791              		.loc 2 2623 0
 7792 00c6 00BF     		nop
 7793 00c8 1837     		adds	r7, r7, #24
 7794              		.cfi_def_cfa_offset 8
 7795 00ca BD46     		mov	sp, r7
 7796              		.cfi_def_cfa_register 13
 7797              		@ sp needed
 7798 00cc 80BD     		pop	{r7, pc}
 7799              		.cfi_endproc
 7800              	.LFE129:
 7801              		.size	delete_children, .-delete_children
 7802 00ce 00BF     		.section	.text.base_dir_refr_children,"ax",%progbits
 7803              		.align	2
 7804              		.thumb
 7805              		.thumb_func
 7806              		.type	base_dir_refr_children, %function
 7807              	base_dir_refr_children:
 7808              	.LFB130:
2624:..\..\..\lvgl\version_6.1.2\lvgl\src\lv_core/lv_obj.c **** 
2625:..\..\..\lvgl\version_6.1.2\lvgl\src\lv_core/lv_obj.c **** static void base_dir_refr_children(lv_obj_t * obj)
2626:..\..\..\lvgl\version_6.1.2\lvgl\src\lv_core/lv_obj.c **** {
 7809              		.loc 2 2626 0
 7810              		.cfi_startproc
 7811              		@ args = 0, pretend = 0, frame = 16
 7812              		@ frame_needed = 1, uses_anonymous_args = 0
 7813 0000 80B5     		push	{r7, lr}
 7814              		.cfi_def_cfa_offset 8
 7815              		.cfi_offset 7, -8
 7816              		.cfi_offset 14, -4
 7817 0002 84B0     		sub	sp, sp, #16
 7818              		.cfi_def_cfa_offset 24
 7819 0004 00AF     		add	r7, sp, #0
 7820              		.cfi_def_cfa_register 7
 7821 0006 7860     		str	r0, [r7, #4]
2627:..\..\..\lvgl\version_6.1.2\lvgl\src\lv_core/lv_obj.c ****     lv_obj_t * child;
2628:..\..\..\lvgl\version_6.1.2\lvgl\src\lv_core/lv_obj.c ****     child = lv_obj_get_child(obj, NULL);
 7822              		.loc 2 2628 0
 7823 0008 0021     		movs	r1, #0
 7824 000a 7868     		ldr	r0, [r7, #4]
 7825 000c FFF7FEFF 		bl	lv_obj_get_child
 7826 0010 F860     		str	r0, [r7, #12]
2629:..\..\..\lvgl\version_6.1.2\lvgl\src\lv_core/lv_obj.c **** 
2630:..\..\..\lvgl\version_6.1.2\lvgl\src\lv_core/lv_obj.c ****     while(child) {
 7827              		.loc 2 2630 0
 7828 0012 14E0     		b	.L390
ARM GAS  C:\Users\tmj32\AppData\Local\Temp\ccxLNxq9.s 			page 187


 7829              	.L392:
2631:..\..\..\lvgl\version_6.1.2\lvgl\src\lv_core/lv_obj.c ****         if(child->base_dir == LV_BIDI_DIR_INHERIT) {
 7830              		.loc 2 2631 0
 7831 0014 FB68     		ldr	r3, [r7, #12]
 7832 0016 93F82D30 		ldrb	r3, [r3, #45]	@ zero_extendqisi2
 7833 001a 03F00C03 		and	r3, r3, #12
 7834 001e DBB2     		uxtb	r3, r3
 7835 0020 0C2B     		cmp	r3, #12
 7836 0022 07D1     		bne	.L391
2632:..\..\..\lvgl\version_6.1.2\lvgl\src\lv_core/lv_obj.c ****             lv_signal_send(child, LV_SIGNAL_BASE_DIR_CHG, NULL);
 7837              		.loc 2 2632 0
 7838 0024 0022     		movs	r2, #0
 7839 0026 0521     		movs	r1, #5
 7840 0028 F868     		ldr	r0, [r7, #12]
 7841 002a FFF7FEFF 		bl	lv_signal_send
2633:..\..\..\lvgl\version_6.1.2\lvgl\src\lv_core/lv_obj.c ****             base_dir_refr_children(child);
 7842              		.loc 2 2633 0
 7843 002e F868     		ldr	r0, [r7, #12]
 7844 0030 FFF7E6FF 		bl	base_dir_refr_children
 7845              	.L391:
2634:..\..\..\lvgl\version_6.1.2\lvgl\src\lv_core/lv_obj.c ****         }
2635:..\..\..\lvgl\version_6.1.2\lvgl\src\lv_core/lv_obj.c **** 
2636:..\..\..\lvgl\version_6.1.2\lvgl\src\lv_core/lv_obj.c ****         child = lv_obj_get_child(obj, child);
 7846              		.loc 2 2636 0
 7847 0034 F968     		ldr	r1, [r7, #12]
 7848 0036 7868     		ldr	r0, [r7, #4]
 7849 0038 FFF7FEFF 		bl	lv_obj_get_child
 7850 003c F860     		str	r0, [r7, #12]
 7851              	.L390:
2630:..\..\..\lvgl\version_6.1.2\lvgl\src\lv_core/lv_obj.c ****         if(child->base_dir == LV_BIDI_DIR_INHERIT) {
 7852              		.loc 2 2630 0
 7853 003e FB68     		ldr	r3, [r7, #12]
 7854 0040 002B     		cmp	r3, #0
 7855 0042 E7D1     		bne	.L392
2637:..\..\..\lvgl\version_6.1.2\lvgl\src\lv_core/lv_obj.c ****     }
2638:..\..\..\lvgl\version_6.1.2\lvgl\src\lv_core/lv_obj.c **** }
 7856              		.loc 2 2638 0
 7857 0044 00BF     		nop
 7858 0046 1037     		adds	r7, r7, #16
 7859              		.cfi_def_cfa_offset 8
 7860 0048 BD46     		mov	sp, r7
 7861              		.cfi_def_cfa_register 13
 7862              		@ sp needed
 7863 004a 80BD     		pop	{r7, pc}
 7864              		.cfi_endproc
 7865              	.LFE130:
 7866              		.size	base_dir_refr_children, .-base_dir_refr_children
 7867              		.section	.text.lv_event_mark_deleted,"ax",%progbits
 7868              		.align	2
 7869              		.thumb
 7870              		.thumb_func
 7871              		.type	lv_event_mark_deleted, %function
 7872              	lv_event_mark_deleted:
 7873              	.LFB131:
2639:..\..\..\lvgl\version_6.1.2\lvgl\src\lv_core/lv_obj.c **** 
2640:..\..\..\lvgl\version_6.1.2\lvgl\src\lv_core/lv_obj.c **** 
2641:..\..\..\lvgl\version_6.1.2\lvgl\src\lv_core/lv_obj.c **** static void lv_event_mark_deleted(lv_obj_t * obj)
ARM GAS  C:\Users\tmj32\AppData\Local\Temp\ccxLNxq9.s 			page 188


2642:..\..\..\lvgl\version_6.1.2\lvgl\src\lv_core/lv_obj.c **** {
 7874              		.loc 2 2642 0
 7875              		.cfi_startproc
 7876              		@ args = 0, pretend = 0, frame = 16
 7877              		@ frame_needed = 1, uses_anonymous_args = 0
 7878              		@ link register save eliminated.
 7879 0000 80B4     		push	{r7}
 7880              		.cfi_def_cfa_offset 4
 7881              		.cfi_offset 7, -4
 7882 0002 85B0     		sub	sp, sp, #20
 7883              		.cfi_def_cfa_offset 24
 7884 0004 00AF     		add	r7, sp, #0
 7885              		.cfi_def_cfa_register 7
 7886 0006 7860     		str	r0, [r7, #4]
2643:..\..\..\lvgl\version_6.1.2\lvgl\src\lv_core/lv_obj.c ****     lv_event_temp_data_t * t = event_temp_data_head;
 7887              		.loc 2 2643 0
 7888 0008 0B4B     		ldr	r3, .L397
 7889 000a 1B68     		ldr	r3, [r3]
 7890 000c FB60     		str	r3, [r7, #12]
2644:..\..\..\lvgl\version_6.1.2\lvgl\src\lv_core/lv_obj.c **** 
2645:..\..\..\lvgl\version_6.1.2\lvgl\src\lv_core/lv_obj.c ****     while(t) {
 7891              		.loc 2 2645 0
 7892 000e 0AE0     		b	.L394
 7893              	.L396:
2646:..\..\..\lvgl\version_6.1.2\lvgl\src\lv_core/lv_obj.c ****         if(t->obj == obj) t->deleted = true;
 7894              		.loc 2 2646 0
 7895 0010 FB68     		ldr	r3, [r7, #12]
 7896 0012 1A68     		ldr	r2, [r3]
 7897 0014 7B68     		ldr	r3, [r7, #4]
 7898 0016 9A42     		cmp	r2, r3
 7899 0018 02D1     		bne	.L395
 7900              		.loc 2 2646 0 is_stmt 0 discriminator 1
 7901 001a FB68     		ldr	r3, [r7, #12]
 7902 001c 0122     		movs	r2, #1
 7903 001e 1A71     		strb	r2, [r3, #4]
 7904              	.L395:
2647:..\..\..\lvgl\version_6.1.2\lvgl\src\lv_core/lv_obj.c ****         t = t->prev;
 7905              		.loc 2 2647 0 is_stmt 1
 7906 0020 FB68     		ldr	r3, [r7, #12]
 7907 0022 9B68     		ldr	r3, [r3, #8]
 7908 0024 FB60     		str	r3, [r7, #12]
 7909              	.L394:
2645:..\..\..\lvgl\version_6.1.2\lvgl\src\lv_core/lv_obj.c ****         if(t->obj == obj) t->deleted = true;
 7910              		.loc 2 2645 0
 7911 0026 FB68     		ldr	r3, [r7, #12]
 7912 0028 002B     		cmp	r3, #0
 7913 002a F1D1     		bne	.L396
2648:..\..\..\lvgl\version_6.1.2\lvgl\src\lv_core/lv_obj.c ****     }
2649:..\..\..\lvgl\version_6.1.2\lvgl\src\lv_core/lv_obj.c **** }
 7914              		.loc 2 2649 0
 7915 002c 00BF     		nop
 7916 002e 1437     		adds	r7, r7, #20
 7917              		.cfi_def_cfa_offset 4
 7918 0030 BD46     		mov	sp, r7
 7919              		.cfi_def_cfa_register 13
 7920              		@ sp needed
 7921 0032 5DF8047B 		ldr	r7, [sp], #4
ARM GAS  C:\Users\tmj32\AppData\Local\Temp\ccxLNxq9.s 			page 189


 7922              		.cfi_restore 7
 7923              		.cfi_def_cfa_offset 0
 7924 0036 7047     		bx	lr
 7925              	.L398:
 7926              		.align	2
 7927              	.L397:
 7928 0038 04000000 		.word	event_temp_data_head
 7929              		.cfi_endproc
 7930              	.LFE131:
 7931              		.size	lv_event_mark_deleted, .-lv_event_mark_deleted
 7932              		.text
 7933              	.Letext0:
 7934              		.file 3 "c:\\program files (x86)\\cypress\\psoc creator\\4.3\\psoc creator\\import\\gnu\\arm\\5.4.
 7935              		.file 4 "c:\\program files (x86)\\cypress\\psoc creator\\4.3\\psoc creator\\import\\gnu\\arm\\5.4.
 7936              		.file 5 "..\\..\\..\\lvgl\\version_6.1.2\\lvgl\\src\\lv_core\\../../../lv_conf.h"
 7937              		.file 6 "..\\..\\..\\lvgl\\version_6.1.2\\lvgl\\src\\lv_core\\../lv_font/lv_font.h"
 7938              		.file 7 "..\\..\\..\\lvgl\\version_6.1.2\\lvgl\\src\\lv_core\\../lv_misc/lv_color.h"
 7939              		.file 8 "..\\..\\..\\lvgl\\version_6.1.2\\lvgl\\src\\lv_core\\lv_style.h"
 7940              		.file 9 "..\\..\\..\\lvgl\\version_6.1.2\\lvgl\\src\\lv_core\\../lv_misc/lv_types.h"
 7941              		.file 10 "..\\..\\..\\lvgl\\version_6.1.2\\lvgl\\src\\lv_core\\../lv_misc/lv_ll.h"
 7942              		.file 11 "..\\..\\..\\lvgl\\version_6.1.2\\lvgl\\src\\lv_core\\../lv_misc/lv_bidi.h"
 7943              		.file 12 "..\\..\\..\\lvgl\\version_6.1.2\\lvgl\\src\\lv_core\\../lv_hal/../lv_misc/lv_task.h"
 7944              		.file 13 "..\\..\\..\\lvgl\\version_6.1.2\\lvgl\\src\\lv_core\\../lv_hal/lv_hal_disp.h"
 7945              		.file 14 "..\\..\\..\\lvgl\\version_6.1.2\\lvgl\\src\\lv_core\\lv_obj.h"
 7946              		.file 15 "..\\..\\..\\lvgl\\version_6.1.2\\lvgl\\src\\lv_core\\../lv_hal/lv_hal_indev.h"
 7947              		.file 16 "..\\..\\..\\lvgl\\version_6.1.2\\lvgl\\src\\lv_core\\../lv_themes/lv_theme.h"
 7948              		.file 17 "..\\..\\..\\lvgl\\version_6.1.2\\lvgl\\src\\lv_core\\../lv_misc/lv_gc.h"
 7949              		.section	.debug_info,"",%progbits
 7950              	.Ldebug_info0:
 7951 0000 3B320000 		.4byte	0x323b
 7952 0004 0400     		.2byte	0x4
 7953 0006 00000000 		.4byte	.Ldebug_abbrev0
 7954 000a 04       		.byte	0x4
 7955 000b 01       		.uleb128 0x1
 7956 000c 37140000 		.4byte	.LASF511
 7957 0010 0C       		.byte	0xc
 7958 0011 06010000 		.4byte	.LASF512
 7959 0015 500C0000 		.4byte	.LASF513
 7960 0019 18000000 		.4byte	.Ldebug_ranges0+0x18
 7961 001d 00000000 		.4byte	0
 7962 0021 00000000 		.4byte	.Ldebug_line0
 7963 0025 02       		.uleb128 0x2
 7964 0026 2E120000 		.4byte	.LASF0
 7965 002a 03       		.byte	0x3
 7966 002b 1B       		.byte	0x1b
 7967 002c 30000000 		.4byte	0x30
 7968 0030 03       		.uleb128 0x3
 7969 0031 01       		.byte	0x1
 7970 0032 06       		.byte	0x6
 7971 0033 20050000 		.4byte	.LASF2
 7972 0037 02       		.uleb128 0x2
 7973 0038 32030000 		.4byte	.LASF1
 7974 003c 03       		.byte	0x3
 7975 003d 1D       		.byte	0x1d
 7976 003e 42000000 		.4byte	0x42
 7977 0042 03       		.uleb128 0x3
 7978 0043 01       		.byte	0x1
ARM GAS  C:\Users\tmj32\AppData\Local\Temp\ccxLNxq9.s 			page 190


 7979 0044 08       		.byte	0x8
 7980 0045 90050000 		.4byte	.LASF3
 7981 0049 02       		.uleb128 0x2
 7982 004a 2D150000 		.4byte	.LASF4
 7983 004e 03       		.byte	0x3
 7984 004f 29       		.byte	0x29
 7985 0050 54000000 		.4byte	0x54
 7986 0054 03       		.uleb128 0x3
 7987 0055 02       		.byte	0x2
 7988 0056 05       		.byte	0x5
 7989 0057 FA160000 		.4byte	.LASF5
 7990 005b 02       		.uleb128 0x2
 7991 005c 56070000 		.4byte	.LASF6
 7992 0060 03       		.byte	0x3
 7993 0061 2B       		.byte	0x2b
 7994 0062 66000000 		.4byte	0x66
 7995 0066 03       		.uleb128 0x3
 7996 0067 02       		.byte	0x2
 7997 0068 07       		.byte	0x7
 7998 0069 821A0000 		.4byte	.LASF7
 7999 006d 03       		.uleb128 0x3
 8000 006e 04       		.byte	0x4
 8001 006f 05       		.byte	0x5
 8002 0070 BC030000 		.4byte	.LASF8
 8003 0074 02       		.uleb128 0x2
 8004 0075 200C0000 		.4byte	.LASF9
 8005 0079 03       		.byte	0x3
 8006 007a 41       		.byte	0x41
 8007 007b 7F000000 		.4byte	0x7f
 8008 007f 03       		.uleb128 0x3
 8009 0080 04       		.byte	0x4
 8010 0081 07       		.byte	0x7
 8011 0082 4F0A0000 		.4byte	.LASF10
 8012 0086 03       		.uleb128 0x3
 8013 0087 08       		.byte	0x8
 8014 0088 05       		.byte	0x5
 8015 0089 420C0000 		.4byte	.LASF11
 8016 008d 03       		.uleb128 0x3
 8017 008e 08       		.byte	0x8
 8018 008f 07       		.byte	0x7
 8019 0090 B8120000 		.4byte	.LASF12
 8020 0094 04       		.uleb128 0x4
 8021 0095 04       		.byte	0x4
 8022 0096 05       		.byte	0x5
 8023 0097 696E7400 		.ascii	"int\000"
 8024 009b 03       		.uleb128 0x3
 8025 009c 04       		.byte	0x4
 8026 009d 07       		.byte	0x7
 8027 009e 6A0E0000 		.4byte	.LASF13
 8028 00a2 02       		.uleb128 0x2
 8029 00a3 00000000 		.4byte	.LASF14
 8030 00a7 04       		.byte	0x4
 8031 00a8 14       		.byte	0x14
 8032 00a9 25000000 		.4byte	0x25
 8033 00ad 02       		.uleb128 0x2
 8034 00ae 2C050000 		.4byte	.LASF15
 8035 00b2 04       		.byte	0x4
ARM GAS  C:\Users\tmj32\AppData\Local\Temp\ccxLNxq9.s 			page 191


 8036 00b3 18       		.byte	0x18
 8037 00b4 37000000 		.4byte	0x37
 8038 00b8 02       		.uleb128 0x2
 8039 00b9 84170000 		.4byte	.LASF16
 8040 00bd 04       		.byte	0x4
 8041 00be 20       		.byte	0x20
 8042 00bf 49000000 		.4byte	0x49
 8043 00c3 02       		.uleb128 0x2
 8044 00c4 11130000 		.4byte	.LASF17
 8045 00c8 04       		.byte	0x4
 8046 00c9 24       		.byte	0x24
 8047 00ca 5B000000 		.4byte	0x5b
 8048 00ce 02       		.uleb128 0x2
 8049 00cf B5190000 		.4byte	.LASF18
 8050 00d3 04       		.byte	0x4
 8051 00d4 30       		.byte	0x30
 8052 00d5 74000000 		.4byte	0x74
 8053 00d9 02       		.uleb128 0x2
 8054 00da A21A0000 		.4byte	.LASF19
 8055 00de 05       		.byte	0x5
 8056 00df 3C       		.byte	0x3c
 8057 00e0 B8000000 		.4byte	0xb8
 8058 00e4 05       		.uleb128 0x5
 8059 00e5 04       		.byte	0x4
 8060 00e6 03       		.uleb128 0x3
 8061 00e7 08       		.byte	0x8
 8062 00e8 04       		.byte	0x4
 8063 00e9 8A100000 		.4byte	.LASF20
 8064 00ed 06       		.uleb128 0x6
 8065 00ee 08       		.byte	0x8
 8066 00ef 06       		.byte	0x6
 8067 00f0 2E       		.byte	0x2e
 8068 00f1 3E010000 		.4byte	0x13e
 8069 00f5 07       		.uleb128 0x7
 8070 00f6 25000000 		.4byte	.LASF21
 8071 00fa 06       		.byte	0x6
 8072 00fb 30       		.byte	0x30
 8073 00fc C3000000 		.4byte	0xc3
 8074 0100 00       		.byte	0
 8075 0101 07       		.uleb128 0x7
 8076 0102 F4160000 		.4byte	.LASF22
 8077 0106 06       		.byte	0x6
 8078 0107 31       		.byte	0x31
 8079 0108 AD000000 		.4byte	0xad
 8080 010c 02       		.byte	0x2
 8081 010d 07       		.uleb128 0x7
 8082 010e B4160000 		.4byte	.LASF23
 8083 0112 06       		.byte	0x6
 8084 0113 32       		.byte	0x32
 8085 0114 AD000000 		.4byte	0xad
 8086 0118 03       		.byte	0x3
 8087 0119 07       		.uleb128 0x7
 8088 011a 37060000 		.4byte	.LASF24
 8089 011e 06       		.byte	0x6
 8090 011f 33       		.byte	0x33
 8091 0120 A2000000 		.4byte	0xa2
 8092 0124 04       		.byte	0x4
ARM GAS  C:\Users\tmj32\AppData\Local\Temp\ccxLNxq9.s 			page 192


 8093 0125 07       		.uleb128 0x7
 8094 0126 3D060000 		.4byte	.LASF25
 8095 012a 06       		.byte	0x6
 8096 012b 34       		.byte	0x34
 8097 012c A2000000 		.4byte	0xa2
 8098 0130 05       		.byte	0x5
 8099 0131 08       		.uleb128 0x8
 8100 0132 62707000 		.ascii	"bpp\000"
 8101 0136 06       		.byte	0x6
 8102 0137 35       		.byte	0x35
 8103 0138 AD000000 		.4byte	0xad
 8104 013c 06       		.byte	0x6
 8105 013d 00       		.byte	0
 8106 013e 02       		.uleb128 0x2
 8107 013f 940F0000 		.4byte	.LASF26
 8108 0143 06       		.byte	0x6
 8109 0144 36       		.byte	0x36
 8110 0145 ED000000 		.4byte	0xed
 8111 0149 09       		.uleb128 0x9
 8112 014a 8A1B0000 		.4byte	.LASF109
 8113 014e 10       		.byte	0x10
 8114 014f 06       		.byte	0x6
 8115 0150 44       		.byte	0x44
 8116 0151 A1010000 		.4byte	0x1a1
 8117 0155 07       		.uleb128 0x7
 8118 0156 F71A0000 		.4byte	.LASF27
 8119 015a 06       		.byte	0x6
 8120 015b 47       		.byte	0x47
 8121 015c D7010000 		.4byte	0x1d7
 8122 0160 00       		.byte	0
 8123 0161 07       		.uleb128 0x7
 8124 0162 5C050000 		.4byte	.LASF28
 8125 0166 06       		.byte	0x6
 8126 0167 4A       		.byte	0x4a
 8127 0168 FC010000 		.4byte	0x1fc
 8128 016c 04       		.byte	0x4
 8129 016d 07       		.uleb128 0x7
 8130 016e 88010000 		.4byte	.LASF29
 8131 0172 06       		.byte	0x6
 8132 0173 4D       		.byte	0x4d
 8133 0174 AD000000 		.4byte	0xad
 8134 0178 08       		.byte	0x8
 8135 0179 07       		.uleb128 0x7
 8136 017a 1A170000 		.4byte	.LASF30
 8137 017e 06       		.byte	0x6
 8138 017f 4E       		.byte	0x4e
 8139 0180 A2000000 		.4byte	0xa2
 8140 0184 09       		.byte	0x9
 8141 0185 0A       		.uleb128 0xa
 8142 0186 1E110000 		.4byte	.LASF85
 8143 018a 06       		.byte	0x6
 8144 018b 4F       		.byte	0x4f
 8145 018c AD000000 		.4byte	0xad
 8146 0190 01       		.byte	0x1
 8147 0191 02       		.byte	0x2
 8148 0192 06       		.byte	0x6
 8149 0193 0A       		.byte	0xa
ARM GAS  C:\Users\tmj32\AppData\Local\Temp\ccxLNxq9.s 			page 193


 8150 0194 08       		.uleb128 0x8
 8151 0195 64736300 		.ascii	"dsc\000"
 8152 0199 06       		.byte	0x6
 8153 019a 50       		.byte	0x50
 8154 019b E4000000 		.4byte	0xe4
 8155 019f 0C       		.byte	0xc
 8156 01a0 00       		.byte	0
 8157 01a1 0B       		.uleb128 0xb
 8158 01a2 BF010000 		.4byte	0x1bf
 8159 01a6 BF010000 		.4byte	0x1bf
 8160 01aa 0C       		.uleb128 0xc
 8161 01ab C6010000 		.4byte	0x1c6
 8162 01af 0C       		.uleb128 0xc
 8163 01b0 D1010000 		.4byte	0x1d1
 8164 01b4 0C       		.uleb128 0xc
 8165 01b5 CE000000 		.4byte	0xce
 8166 01b9 0C       		.uleb128 0xc
 8167 01ba CE000000 		.4byte	0xce
 8168 01be 00       		.byte	0
 8169 01bf 03       		.uleb128 0x3
 8170 01c0 01       		.byte	0x1
 8171 01c1 02       		.byte	0x2
 8172 01c2 77060000 		.4byte	.LASF31
 8173 01c6 0D       		.uleb128 0xd
 8174 01c7 04       		.byte	0x4
 8175 01c8 CC010000 		.4byte	0x1cc
 8176 01cc 0E       		.uleb128 0xe
 8177 01cd 49010000 		.4byte	0x149
 8178 01d1 0D       		.uleb128 0xd
 8179 01d2 04       		.byte	0x4
 8180 01d3 3E010000 		.4byte	0x13e
 8181 01d7 0D       		.uleb128 0xd
 8182 01d8 04       		.byte	0x4
 8183 01d9 A1010000 		.4byte	0x1a1
 8184 01dd 0B       		.uleb128 0xb
 8185 01de F1010000 		.4byte	0x1f1
 8186 01e2 F1010000 		.4byte	0x1f1
 8187 01e6 0C       		.uleb128 0xc
 8188 01e7 C6010000 		.4byte	0x1c6
 8189 01eb 0C       		.uleb128 0xc
 8190 01ec CE000000 		.4byte	0xce
 8191 01f0 00       		.byte	0
 8192 01f1 0D       		.uleb128 0xd
 8193 01f2 04       		.byte	0x4
 8194 01f3 F7010000 		.4byte	0x1f7
 8195 01f7 0E       		.uleb128 0xe
 8196 01f8 AD000000 		.4byte	0xad
 8197 01fc 0D       		.uleb128 0xd
 8198 01fd 04       		.byte	0x4
 8199 01fe DD010000 		.4byte	0x1dd
 8200 0202 02       		.uleb128 0x2
 8201 0203 3D1A0000 		.4byte	.LASF32
 8202 0207 06       		.byte	0x6
 8203 0208 56       		.byte	0x56
 8204 0209 49010000 		.4byte	0x149
 8205 020d 0F       		.uleb128 0xf
 8206 020e 01       		.byte	0x1
ARM GAS  C:\Users\tmj32\AppData\Local\Temp\ccxLNxq9.s 			page 194


 8207 020f 42000000 		.4byte	0x42
 8208 0213 07       		.byte	0x7
 8209 0214 3E       		.byte	0x3e
 8210 0215 68020000 		.4byte	0x268
 8211 0219 10       		.uleb128 0x10
 8212 021a FE0D0000 		.4byte	.LASF33
 8213 021e 00       		.byte	0
 8214 021f 10       		.uleb128 0x10
 8215 0220 0B0B0000 		.4byte	.LASF34
 8216 0224 00       		.byte	0
 8217 0225 10       		.uleb128 0x10
 8218 0226 15140000 		.4byte	.LASF35
 8219 022a 19       		.byte	0x19
 8220 022b 10       		.uleb128 0x10
 8221 022c DD150000 		.4byte	.LASF36
 8222 0230 33       		.byte	0x33
 8223 0231 10       		.uleb128 0x10
 8224 0232 76160000 		.4byte	.LASF37
 8225 0236 4C       		.byte	0x4c
 8226 0237 10       		.uleb128 0x10
 8227 0238 7A170000 		.4byte	.LASF38
 8228 023c 66       		.byte	0x66
 8229 023d 10       		.uleb128 0x10
 8230 023e 51180000 		.4byte	.LASF39
 8231 0242 7F       		.byte	0x7f
 8232 0243 10       		.uleb128 0x10
 8233 0244 AB190000 		.4byte	.LASF40
 8234 0248 99       		.byte	0x99
 8235 0249 10       		.uleb128 0x10
 8236 024a 781A0000 		.4byte	.LASF41
 8237 024e B2       		.byte	0xb2
 8238 024f 10       		.uleb128 0x10
 8239 0250 2A1B0000 		.4byte	.LASF42
 8240 0254 CC       		.byte	0xcc
 8241 0255 10       		.uleb128 0x10
 8242 0256 021C0000 		.4byte	.LASF43
 8243 025a E5       		.byte	0xe5
 8244 025b 10       		.uleb128 0x10
 8245 025c F90F0000 		.4byte	.LASF44
 8246 0260 FF       		.byte	0xff
 8247 0261 10       		.uleb128 0x10
 8248 0262 36110000 		.4byte	.LASF45
 8249 0266 FF       		.byte	0xff
 8250 0267 00       		.byte	0
 8251 0268 06       		.uleb128 0x6
 8252 0269 04       		.byte	0x4
 8253 026a 07       		.byte	0x7
 8254 026b F3       		.byte	0xf3
 8255 026c A1020000 		.4byte	0x2a1
 8256 0270 07       		.uleb128 0x7
 8257 0271 72050000 		.4byte	.LASF46
 8258 0275 07       		.byte	0x7
 8259 0276 F5       		.byte	0xf5
 8260 0277 AD000000 		.4byte	0xad
 8261 027b 00       		.byte	0
 8262 027c 07       		.uleb128 0x7
 8263 027d 371A0000 		.4byte	.LASF47
ARM GAS  C:\Users\tmj32\AppData\Local\Temp\ccxLNxq9.s 			page 195


 8264 0281 07       		.byte	0x7
 8265 0282 F6       		.byte	0xf6
 8266 0283 AD000000 		.4byte	0xad
 8267 0287 01       		.byte	0x1
 8268 0288 08       		.uleb128 0x8
 8269 0289 72656400 		.ascii	"red\000"
 8270 028d 07       		.byte	0x7
 8271 028e F7       		.byte	0xf7
 8272 028f AD000000 		.4byte	0xad
 8273 0293 02       		.byte	0x2
 8274 0294 07       		.uleb128 0x7
 8275 0295 3C030000 		.4byte	.LASF48
 8276 0299 07       		.byte	0x7
 8277 029a F8       		.byte	0xf8
 8278 029b AD000000 		.4byte	0xad
 8279 029f 03       		.byte	0x3
 8280 02a0 00       		.byte	0
 8281 02a1 11       		.uleb128 0x11
 8282 02a2 04       		.byte	0x4
 8283 02a3 07       		.byte	0x7
 8284 02a4 F1       		.byte	0xf1
 8285 02a5 BF020000 		.4byte	0x2bf
 8286 02a9 12       		.uleb128 0x12
 8287 02aa 636800   		.ascii	"ch\000"
 8288 02ad 07       		.byte	0x7
 8289 02ae F9       		.byte	0xf9
 8290 02af 68020000 		.4byte	0x268
 8291 02b3 13       		.uleb128 0x13
 8292 02b4 C2150000 		.4byte	.LASF49
 8293 02b8 07       		.byte	0x7
 8294 02b9 FA       		.byte	0xfa
 8295 02ba CE000000 		.4byte	0xce
 8296 02be 00       		.byte	0
 8297 02bf 02       		.uleb128 0x2
 8298 02c0 4E000000 		.4byte	.LASF50
 8299 02c4 07       		.byte	0x7
 8300 02c5 FB       		.byte	0xfb
 8301 02c6 A1020000 		.4byte	0x2a1
 8302 02ca 14       		.uleb128 0x14
 8303 02cb 47130000 		.4byte	.LASF51
 8304 02cf 07       		.byte	0x7
 8305 02d0 0801     		.2byte	0x108
 8306 02d2 BF020000 		.4byte	0x2bf
 8307 02d6 14       		.uleb128 0x14
 8308 02d7 CD000000 		.4byte	.LASF52
 8309 02db 07       		.byte	0x7
 8310 02dc 0D01     		.2byte	0x10d
 8311 02de AD000000 		.4byte	0xad
 8312 02e2 03       		.uleb128 0x3
 8313 02e3 04       		.byte	0x4
 8314 02e4 07       		.byte	0x7
 8315 02e5 35000000 		.4byte	.LASF53
 8316 02e9 03       		.uleb128 0x3
 8317 02ea 01       		.byte	0x1
 8318 02eb 08       		.byte	0x8
 8319 02ec C6060000 		.4byte	.LASF54
 8320 02f0 0D       		.uleb128 0xd
ARM GAS  C:\Users\tmj32\AppData\Local\Temp\ccxLNxq9.s 			page 196


 8321 02f1 04       		.byte	0x4
 8322 02f2 F6020000 		.4byte	0x2f6
 8323 02f6 0E       		.uleb128 0xe
 8324 02f7 E9020000 		.4byte	0x2e9
 8325 02fb 06       		.uleb128 0x6
 8326 02fc 04       		.byte	0x4
 8327 02fd 01       		.byte	0x1
 8328 02fe 2A       		.byte	0x2a
 8329 02ff 18030000 		.4byte	0x318
 8330 0303 08       		.uleb128 0x8
 8331 0304 7800     		.ascii	"x\000"
 8332 0306 01       		.byte	0x1
 8333 0307 2C       		.byte	0x2c
 8334 0308 D9000000 		.4byte	0xd9
 8335 030c 00       		.byte	0
 8336 030d 08       		.uleb128 0x8
 8337 030e 7900     		.ascii	"y\000"
 8338 0310 01       		.byte	0x1
 8339 0311 2D       		.byte	0x2d
 8340 0312 D9000000 		.4byte	0xd9
 8341 0316 02       		.byte	0x2
 8342 0317 00       		.byte	0
 8343 0318 02       		.uleb128 0x2
 8344 0319 51170000 		.4byte	.LASF55
 8345 031d 01       		.byte	0x1
 8346 031e 2E       		.byte	0x2e
 8347 031f FB020000 		.4byte	0x2fb
 8348 0323 06       		.uleb128 0x6
 8349 0324 08       		.byte	0x8
 8350 0325 01       		.byte	0x1
 8351 0326 31       		.byte	0x31
 8352 0327 58030000 		.4byte	0x358
 8353 032b 08       		.uleb128 0x8
 8354 032c 783100   		.ascii	"x1\000"
 8355 032f 01       		.byte	0x1
 8356 0330 33       		.byte	0x33
 8357 0331 D9000000 		.4byte	0xd9
 8358 0335 00       		.byte	0
 8359 0336 08       		.uleb128 0x8
 8360 0337 793100   		.ascii	"y1\000"
 8361 033a 01       		.byte	0x1
 8362 033b 34       		.byte	0x34
 8363 033c D9000000 		.4byte	0xd9
 8364 0340 02       		.byte	0x2
 8365 0341 08       		.uleb128 0x8
 8366 0342 783200   		.ascii	"x2\000"
 8367 0345 01       		.byte	0x1
 8368 0346 35       		.byte	0x35
 8369 0347 D9000000 		.4byte	0xd9
 8370 034b 04       		.byte	0x4
 8371 034c 08       		.uleb128 0x8
 8372 034d 793200   		.ascii	"y2\000"
 8373 0350 01       		.byte	0x1
 8374 0351 36       		.byte	0x36
 8375 0352 D9000000 		.4byte	0xd9
 8376 0356 06       		.byte	0x6
 8377 0357 00       		.byte	0
ARM GAS  C:\Users\tmj32\AppData\Local\Temp\ccxLNxq9.s 			page 197


 8378 0358 02       		.uleb128 0x2
 8379 0359 D8080000 		.4byte	.LASF56
 8380 035d 01       		.byte	0x1
 8381 035e 37       		.byte	0x37
 8382 035f 23030000 		.4byte	0x323
 8383 0363 0F       		.uleb128 0xf
 8384 0364 01       		.byte	0x1
 8385 0365 42000000 		.4byte	0x42
 8386 0369 08       		.byte	0x8
 8387 036a 23       		.byte	0x23
 8388 036b 9A030000 		.4byte	0x39a
 8389 036f 10       		.uleb128 0x10
 8390 0370 57130000 		.4byte	.LASF57
 8391 0374 00       		.byte	0
 8392 0375 10       		.uleb128 0x10
 8393 0376 04140000 		.4byte	.LASF58
 8394 037a 01       		.byte	0x1
 8395 037b 10       		.uleb128 0x10
 8396 037c CF030000 		.4byte	.LASF59
 8397 0380 02       		.byte	0x2
 8398 0381 10       		.uleb128 0x10
 8399 0382 B10A0000 		.4byte	.LASF60
 8400 0386 04       		.byte	0x4
 8401 0387 10       		.uleb128 0x10
 8402 0388 1F140000 		.4byte	.LASF61
 8403 038c 08       		.byte	0x8
 8404 038d 10       		.uleb128 0x10
 8405 038e 0B170000 		.4byte	.LASF62
 8406 0392 0F       		.byte	0xf
 8407 0393 10       		.uleb128 0x10
 8408 0394 14100000 		.4byte	.LASF63
 8409 0398 10       		.byte	0x10
 8410 0399 00       		.byte	0
 8411 039a 02       		.uleb128 0x2
 8412 039b 0C1B0000 		.4byte	.LASF64
 8413 039f 08       		.byte	0x8
 8414 03a0 2C       		.byte	0x2c
 8415 03a1 AD000000 		.4byte	0xad
 8416 03a5 02       		.uleb128 0x2
 8417 03a6 29160000 		.4byte	.LASF65
 8418 03aa 08       		.byte	0x8
 8419 03ab 33       		.byte	0x33
 8420 03ac AD000000 		.4byte	0xad
 8421 03b0 06       		.uleb128 0x6
 8422 03b1 08       		.byte	0x8
 8423 03b2 08       		.byte	0x8
 8424 03b3 48       		.byte	0x48
 8425 03b4 E9030000 		.4byte	0x3e9
 8426 03b8 07       		.uleb128 0x7
 8427 03b9 E7150000 		.4byte	.LASF66
 8428 03bd 08       		.byte	0x8
 8429 03be 4A       		.byte	0x4a
 8430 03bf CA020000 		.4byte	0x2ca
 8431 03c3 00       		.byte	0
 8432 03c4 07       		.uleb128 0x7
 8433 03c5 060D0000 		.4byte	.LASF67
 8434 03c9 08       		.byte	0x8
ARM GAS  C:\Users\tmj32\AppData\Local\Temp\ccxLNxq9.s 			page 198


 8435 03ca 4B       		.byte	0x4b
 8436 03cb D9000000 		.4byte	0xd9
 8437 03cf 04       		.byte	0x4
 8438 03d0 07       		.uleb128 0x7
 8439 03d1 A81B0000 		.4byte	.LASF68
 8440 03d5 08       		.byte	0x8
 8441 03d6 4C       		.byte	0x4c
 8442 03d7 9A030000 		.4byte	0x39a
 8443 03db 06       		.byte	0x6
 8444 03dc 08       		.uleb128 0x8
 8445 03dd 6F706100 		.ascii	"opa\000"
 8446 03e1 08       		.byte	0x8
 8447 03e2 4D       		.byte	0x4d
 8448 03e3 D6020000 		.4byte	0x2d6
 8449 03e7 07       		.byte	0x7
 8450 03e8 00       		.byte	0
 8451 03e9 06       		.uleb128 0x6
 8452 03ea 08       		.byte	0x8
 8453 03eb 08       		.byte	0x8
 8454 03ec 51       		.byte	0x51
 8455 03ed 16040000 		.4byte	0x416
 8456 03f1 07       		.uleb128 0x7
 8457 03f2 E7150000 		.4byte	.LASF66
 8458 03f6 08       		.byte	0x8
 8459 03f7 53       		.byte	0x53
 8460 03f8 CA020000 		.4byte	0x2ca
 8461 03fc 00       		.byte	0
 8462 03fd 07       		.uleb128 0x7
 8463 03fe 060D0000 		.4byte	.LASF67
 8464 0402 08       		.byte	0x8
 8465 0403 54       		.byte	0x54
 8466 0404 D9000000 		.4byte	0xd9
 8467 0408 04       		.byte	0x4
 8468 0409 07       		.uleb128 0x7
 8469 040a 94020000 		.4byte	.LASF69
 8470 040e 08       		.byte	0x8
 8471 040f 55       		.byte	0x55
 8472 0410 A5030000 		.4byte	0x3a5
 8473 0414 06       		.byte	0x6
 8474 0415 00       		.byte	0
 8475 0416 06       		.uleb128 0x6
 8476 0417 0A       		.byte	0xa
 8477 0418 08       		.byte	0x8
 8478 0419 58       		.byte	0x58
 8479 041a 5B040000 		.4byte	0x45b
 8480 041e 08       		.uleb128 0x8
 8481 041f 746F7000 		.ascii	"top\000"
 8482 0423 08       		.byte	0x8
 8483 0424 5A       		.byte	0x5a
 8484 0425 D9000000 		.4byte	0xd9
 8485 0429 00       		.byte	0
 8486 042a 07       		.uleb128 0x7
 8487 042b 340D0000 		.4byte	.LASF70
 8488 042f 08       		.byte	0x8
 8489 0430 5B       		.byte	0x5b
 8490 0431 D9000000 		.4byte	0xd9
 8491 0435 02       		.byte	0x2
ARM GAS  C:\Users\tmj32\AppData\Local\Temp\ccxLNxq9.s 			page 199


 8492 0436 07       		.uleb128 0x7
 8493 0437 3B090000 		.4byte	.LASF71
 8494 043b 08       		.byte	0x8
 8495 043c 5C       		.byte	0x5c
 8496 043d D9000000 		.4byte	0xd9
 8497 0441 04       		.byte	0x4
 8498 0442 07       		.uleb128 0x7
 8499 0443 340C0000 		.4byte	.LASF72
 8500 0447 08       		.byte	0x8
 8501 0448 5D       		.byte	0x5d
 8502 0449 D9000000 		.4byte	0xd9
 8503 044d 06       		.byte	0x6
 8504 044e 07       		.uleb128 0x7
 8505 044f 190A0000 		.4byte	.LASF73
 8506 0453 08       		.byte	0x8
 8507 0454 5E       		.byte	0x5e
 8508 0455 D9000000 		.4byte	0xd9
 8509 0459 08       		.byte	0x8
 8510 045a 00       		.byte	0
 8511 045b 06       		.uleb128 0x6
 8512 045c 28       		.byte	0x28
 8513 045d 08       		.byte	0x8
 8514 045e 41       		.byte	0x41
 8515 045f B8040000 		.4byte	0x4b8
 8516 0463 07       		.uleb128 0x7
 8517 0464 0F120000 		.4byte	.LASF74
 8518 0468 08       		.byte	0x8
 8519 0469 43       		.byte	0x43
 8520 046a CA020000 		.4byte	0x2ca
 8521 046e 00       		.byte	0
 8522 046f 07       		.uleb128 0x7
 8523 0470 AD0F0000 		.4byte	.LASF75
 8524 0474 08       		.byte	0x8
 8525 0475 44       		.byte	0x44
 8526 0476 CA020000 		.4byte	0x2ca
 8527 047a 04       		.byte	0x4
 8528 047b 07       		.uleb128 0x7
 8529 047c 74010000 		.4byte	.LASF76
 8530 0480 08       		.byte	0x8
 8531 0481 45       		.byte	0x45
 8532 0482 D9000000 		.4byte	0xd9
 8533 0486 08       		.byte	0x8
 8534 0487 08       		.uleb128 0x8
 8535 0488 6F706100 		.ascii	"opa\000"
 8536 048c 08       		.byte	0x8
 8537 048d 46       		.byte	0x46
 8538 048e D6020000 		.4byte	0x2d6
 8539 0492 0A       		.byte	0xa
 8540 0493 07       		.uleb128 0x7
 8541 0494 EA1A0000 		.4byte	.LASF77
 8542 0498 08       		.byte	0x8
 8543 0499 4E       		.byte	0x4e
 8544 049a B0030000 		.4byte	0x3b0
 8545 049e 0C       		.byte	0xc
 8546 049f 07       		.uleb128 0x7
 8547 04a0 3A180000 		.4byte	.LASF78
 8548 04a4 08       		.byte	0x8
ARM GAS  C:\Users\tmj32\AppData\Local\Temp\ccxLNxq9.s 			page 200


 8549 04a5 56       		.byte	0x56
 8550 04a6 E9030000 		.4byte	0x3e9
 8551 04aa 14       		.byte	0x14
 8552 04ab 07       		.uleb128 0x7
 8553 04ac 99190000 		.4byte	.LASF79
 8554 04b0 08       		.byte	0x8
 8555 04b1 5F       		.byte	0x5f
 8556 04b2 16040000 		.4byte	0x416
 8557 04b6 1C       		.byte	0x1c
 8558 04b7 00       		.byte	0
 8559 04b8 06       		.uleb128 0x6
 8560 04b9 14       		.byte	0x14
 8561 04ba 08       		.byte	0x8
 8562 04bb 63       		.byte	0x63
 8563 04bc 09050000 		.4byte	0x509
 8564 04c0 07       		.uleb128 0x7
 8565 04c1 E7150000 		.4byte	.LASF66
 8566 04c5 08       		.byte	0x8
 8567 04c6 65       		.byte	0x65
 8568 04c7 CA020000 		.4byte	0x2ca
 8569 04cb 00       		.byte	0
 8570 04cc 07       		.uleb128 0x7
 8571 04cd 5A1B0000 		.4byte	.LASF80
 8572 04d1 08       		.byte	0x8
 8573 04d2 66       		.byte	0x66
 8574 04d3 CA020000 		.4byte	0x2ca
 8575 04d7 04       		.byte	0x4
 8576 04d8 07       		.uleb128 0x7
 8577 04d9 64160000 		.4byte	.LASF81
 8578 04dd 08       		.byte	0x8
 8579 04de 67       		.byte	0x67
 8580 04df 09050000 		.4byte	0x509
 8581 04e3 08       		.byte	0x8
 8582 04e4 07       		.uleb128 0x7
 8583 04e5 69160000 		.4byte	.LASF82
 8584 04e9 08       		.byte	0x8
 8585 04ea 68       		.byte	0x68
 8586 04eb D9000000 		.4byte	0xd9
 8587 04ef 0C       		.byte	0xc
 8588 04f0 07       		.uleb128 0x7
 8589 04f1 FC150000 		.4byte	.LASF83
 8590 04f5 08       		.byte	0x8
 8591 04f6 69       		.byte	0x69
 8592 04f7 D9000000 		.4byte	0xd9
 8593 04fb 0E       		.byte	0xe
 8594 04fc 08       		.uleb128 0x8
 8595 04fd 6F706100 		.ascii	"opa\000"
 8596 0501 08       		.byte	0x8
 8597 0502 6A       		.byte	0x6a
 8598 0503 D6020000 		.4byte	0x2d6
 8599 0507 10       		.byte	0x10
 8600 0508 00       		.byte	0
 8601 0509 0D       		.uleb128 0xd
 8602 050a 04       		.byte	0x4
 8603 050b 0F050000 		.4byte	0x50f
 8604 050f 0E       		.uleb128 0xe
 8605 0510 02020000 		.4byte	0x202
ARM GAS  C:\Users\tmj32\AppData\Local\Temp\ccxLNxq9.s 			page 201


 8606 0514 06       		.uleb128 0x6
 8607 0515 08       		.byte	0x8
 8608 0516 08       		.byte	0x8
 8609 0517 6E       		.byte	0x6e
 8610 0518 41050000 		.4byte	0x541
 8611 051c 07       		.uleb128 0x7
 8612 051d E7150000 		.4byte	.LASF66
 8613 0521 08       		.byte	0x8
 8614 0522 70       		.byte	0x70
 8615 0523 CA020000 		.4byte	0x2ca
 8616 0527 00       		.byte	0
 8617 0528 07       		.uleb128 0x7
 8618 0529 DE000000 		.4byte	.LASF84
 8619 052d 08       		.byte	0x8
 8620 052e 71       		.byte	0x71
 8621 052f D6020000 		.4byte	0x2d6
 8622 0533 04       		.byte	0x4
 8623 0534 08       		.uleb128 0x8
 8624 0535 6F706100 		.ascii	"opa\000"
 8625 0539 08       		.byte	0x8
 8626 053a 72       		.byte	0x72
 8627 053b D6020000 		.4byte	0x2d6
 8628 053f 05       		.byte	0x5
 8629 0540 00       		.byte	0
 8630 0541 06       		.uleb128 0x6
 8631 0542 08       		.byte	0x8
 8632 0543 08       		.byte	0x8
 8633 0544 76       		.byte	0x76
 8634 0545 7D050000 		.4byte	0x57d
 8635 0549 07       		.uleb128 0x7
 8636 054a E7150000 		.4byte	.LASF66
 8637 054e 08       		.byte	0x8
 8638 054f 78       		.byte	0x78
 8639 0550 CA020000 		.4byte	0x2ca
 8640 0554 00       		.byte	0
 8641 0555 07       		.uleb128 0x7
 8642 0556 060D0000 		.4byte	.LASF67
 8643 055a 08       		.byte	0x8
 8644 055b 79       		.byte	0x79
 8645 055c D9000000 		.4byte	0xd9
 8646 0560 04       		.byte	0x4
 8647 0561 08       		.uleb128 0x8
 8648 0562 6F706100 		.ascii	"opa\000"
 8649 0566 08       		.byte	0x8
 8650 0567 7A       		.byte	0x7a
 8651 0568 D6020000 		.4byte	0x2d6
 8652 056c 06       		.byte	0x6
 8653 056d 0A       		.uleb128 0xa
 8654 056e 61080000 		.4byte	.LASF86
 8655 0572 08       		.byte	0x8
 8656 0573 7B       		.byte	0x7b
 8657 0574 AD000000 		.4byte	0xad
 8658 0578 01       		.byte	0x1
 8659 0579 01       		.byte	0x1
 8660 057a 07       		.byte	0x7
 8661 057b 07       		.byte	0x7
 8662 057c 00       		.byte	0
ARM GAS  C:\Users\tmj32\AppData\Local\Temp\ccxLNxq9.s 			page 202


 8663 057d 06       		.uleb128 0x6
 8664 057e 50       		.byte	0x50
 8665 057f 08       		.byte	0x8
 8666 0580 3C       		.byte	0x3c
 8667 0581 C5050000 		.4byte	0x5c5
 8668 0585 0A       		.uleb128 0xa
 8669 0586 3A0E0000 		.4byte	.LASF87
 8670 058a 08       		.byte	0x8
 8671 058b 3E       		.byte	0x3e
 8672 058c AD000000 		.4byte	0xad
 8673 0590 01       		.byte	0x1
 8674 0591 01       		.byte	0x1
 8675 0592 07       		.byte	0x7
 8676 0593 00       		.byte	0
 8677 0594 07       		.uleb128 0x7
 8678 0595 05070000 		.4byte	.LASF88
 8679 0599 08       		.byte	0x8
 8680 059a 60       		.byte	0x60
 8681 059b 5B040000 		.4byte	0x45b
 8682 059f 04       		.byte	0x4
 8683 05a0 07       		.uleb128 0x7
 8684 05a1 3A080000 		.4byte	.LASF89
 8685 05a5 08       		.byte	0x8
 8686 05a6 6B       		.byte	0x6b
 8687 05a7 B8040000 		.4byte	0x4b8
 8688 05ab 2C       		.byte	0x2c
 8689 05ac 07       		.uleb128 0x7
 8690 05ad 5B080000 		.4byte	.LASF90
 8691 05b1 08       		.byte	0x8
 8692 05b2 73       		.byte	0x73
 8693 05b3 14050000 		.4byte	0x514
 8694 05b7 40       		.byte	0x40
 8695 05b8 07       		.uleb128 0x7
 8696 05b9 E20A0000 		.4byte	.LASF91
 8697 05bd 08       		.byte	0x8
 8698 05be 7C       		.byte	0x7c
 8699 05bf 41050000 		.4byte	0x541
 8700 05c3 48       		.byte	0x48
 8701 05c4 00       		.byte	0
 8702 05c5 02       		.uleb128 0x2
 8703 05c6 0E0A0000 		.4byte	.LASF92
 8704 05ca 08       		.byte	0x8
 8705 05cb 84       		.byte	0x84
 8706 05cc 7D050000 		.4byte	0x57d
 8707 05d0 0D       		.uleb128 0xd
 8708 05d1 04       		.byte	0x4
 8709 05d2 C5050000 		.4byte	0x5c5
 8710 05d6 0F       		.uleb128 0xf
 8711 05d7 01       		.byte	0x1
 8712 05d8 42000000 		.4byte	0x42
 8713 05dc 09       		.byte	0x9
 8714 05dd 27       		.byte	0x27
 8715 05de EF050000 		.4byte	0x5ef
 8716 05e2 10       		.uleb128 0x10
 8717 05e3 4F020000 		.4byte	.LASF93
 8718 05e7 00       		.byte	0
 8719 05e8 10       		.uleb128 0x10
ARM GAS  C:\Users\tmj32\AppData\Local\Temp\ccxLNxq9.s 			page 203


 8720 05e9 1A130000 		.4byte	.LASF94
 8721 05ed 01       		.byte	0x1
 8722 05ee 00       		.byte	0
 8723 05ef 02       		.uleb128 0x2
 8724 05f0 6C100000 		.4byte	.LASF95
 8725 05f4 09       		.byte	0x9
 8726 05f5 2C       		.byte	0x2c
 8727 05f6 AD000000 		.4byte	0xad
 8728 05fa 02       		.uleb128 0x2
 8729 05fb 18000000 		.4byte	.LASF96
 8730 05ff 0A       		.byte	0xa
 8731 0600 1E       		.byte	0x1e
 8732 0601 AD000000 		.4byte	0xad
 8733 0605 06       		.uleb128 0x6
 8734 0606 0C       		.byte	0xc
 8735 0607 0A       		.byte	0xa
 8736 0608 21       		.byte	0x21
 8737 0609 32060000 		.4byte	0x632
 8738 060d 07       		.uleb128 0x7
 8739 060e B21B0000 		.4byte	.LASF97
 8740 0612 0A       		.byte	0xa
 8741 0613 23       		.byte	0x23
 8742 0614 CE000000 		.4byte	0xce
 8743 0618 00       		.byte	0
 8744 0619 07       		.uleb128 0x7
 8745 061a 7E040000 		.4byte	.LASF98
 8746 061e 0A       		.byte	0xa
 8747 061f 24       		.byte	0x24
 8748 0620 32060000 		.4byte	0x632
 8749 0624 04       		.byte	0x4
 8750 0625 07       		.uleb128 0x7
 8751 0626 9D000000 		.4byte	.LASF99
 8752 062a 0A       		.byte	0xa
 8753 062b 25       		.byte	0x25
 8754 062c 32060000 		.4byte	0x632
 8755 0630 08       		.byte	0x8
 8756 0631 00       		.byte	0
 8757 0632 0D       		.uleb128 0xd
 8758 0633 04       		.byte	0x4
 8759 0634 FA050000 		.4byte	0x5fa
 8760 0638 02       		.uleb128 0x2
 8761 0639 2A170000 		.4byte	.LASF100
 8762 063d 0A       		.byte	0xa
 8763 063e 26       		.byte	0x26
 8764 063f 05060000 		.4byte	0x605
 8765 0643 0F       		.uleb128 0xf
 8766 0644 01       		.byte	0x1
 8767 0645 42000000 		.4byte	0x42
 8768 0649 0B       		.byte	0xb
 8769 064a 25       		.byte	0x25
 8770 064b 74060000 		.4byte	0x674
 8771 064f 10       		.uleb128 0x10
 8772 0650 9A010000 		.4byte	.LASF101
 8773 0654 00       		.byte	0
 8774 0655 10       		.uleb128 0x10
 8775 0656 70190000 		.4byte	.LASF102
 8776 065a 01       		.byte	0x1
ARM GAS  C:\Users\tmj32\AppData\Local\Temp\ccxLNxq9.s 			page 204


 8777 065b 10       		.uleb128 0x10
 8778 065c 9F150000 		.4byte	.LASF103
 8779 0660 02       		.byte	0x2
 8780 0661 10       		.uleb128 0x10
 8781 0662 0E090000 		.4byte	.LASF104
 8782 0666 03       		.byte	0x3
 8783 0667 10       		.uleb128 0x10
 8784 0668 AF130000 		.4byte	.LASF105
 8785 066c 20       		.byte	0x20
 8786 066d 10       		.uleb128 0x10
 8787 066e 7C000000 		.4byte	.LASF106
 8788 0672 21       		.byte	0x21
 8789 0673 00       		.byte	0
 8790 0674 02       		.uleb128 0x2
 8791 0675 A9080000 		.4byte	.LASF107
 8792 0679 0B       		.byte	0xb
 8793 067a 30       		.byte	0x30
 8794 067b AD000000 		.4byte	0xad
 8795 067f 02       		.uleb128 0x2
 8796 0680 641B0000 		.4byte	.LASF108
 8797 0684 0C       		.byte	0xc
 8798 0685 2B       		.byte	0x2b
 8799 0686 8A060000 		.4byte	0x68a
 8800 068a 0D       		.uleb128 0xd
 8801 068b 04       		.byte	0x4
 8802 068c 90060000 		.4byte	0x690
 8803 0690 15       		.uleb128 0x15
 8804 0691 9B060000 		.4byte	0x69b
 8805 0695 0C       		.uleb128 0xc
 8806 0696 9B060000 		.4byte	0x69b
 8807 069a 00       		.byte	0
 8808 069b 0D       		.uleb128 0xd
 8809 069c 04       		.byte	0x4
 8810 069d A1060000 		.4byte	0x6a1
 8811 06a1 09       		.uleb128 0x9
 8812 06a2 4B070000 		.4byte	.LASF110
 8813 06a6 14       		.byte	0x14
 8814 06a7 0C       		.byte	0xc
 8815 06a8 3E       		.byte	0x3e
 8816 06a9 FC060000 		.4byte	0x6fc
 8817 06ad 07       		.uleb128 0x7
 8818 06ae EA140000 		.4byte	.LASF111
 8819 06b2 0C       		.byte	0xc
 8820 06b3 40       		.byte	0x40
 8821 06b4 CE000000 		.4byte	0xce
 8822 06b8 00       		.byte	0
 8823 06b9 07       		.uleb128 0x7
 8824 06ba 24130000 		.4byte	.LASF112
 8825 06be 0C       		.byte	0xc
 8826 06bf 41       		.byte	0x41
 8827 06c0 CE000000 		.4byte	0xce
 8828 06c4 04       		.byte	0x4
 8829 06c5 07       		.uleb128 0x7
 8830 06c6 14060000 		.4byte	.LASF113
 8831 06ca 0C       		.byte	0xc
 8832 06cb 42       		.byte	0x42
 8833 06cc 7F060000 		.4byte	0x67f
ARM GAS  C:\Users\tmj32\AppData\Local\Temp\ccxLNxq9.s 			page 205


 8834 06d0 08       		.byte	0x8
 8835 06d1 07       		.uleb128 0x7
 8836 06d2 C61A0000 		.4byte	.LASF114
 8837 06d6 0C       		.byte	0xc
 8838 06d7 44       		.byte	0x44
 8839 06d8 E4000000 		.4byte	0xe4
 8840 06dc 0C       		.byte	0xc
 8841 06dd 0A       		.uleb128 0xa
 8842 06de FF020000 		.4byte	.LASF115
 8843 06e2 0C       		.byte	0xc
 8844 06e3 46       		.byte	0x46
 8845 06e4 AD000000 		.4byte	0xad
 8846 06e8 01       		.byte	0x1
 8847 06e9 03       		.byte	0x3
 8848 06ea 05       		.byte	0x5
 8849 06eb 10       		.byte	0x10
 8850 06ec 0A       		.uleb128 0xa
 8851 06ed 7B0F0000 		.4byte	.LASF116
 8852 06f1 0C       		.byte	0xc
 8853 06f2 47       		.byte	0x47
 8854 06f3 AD000000 		.4byte	0xad
 8855 06f7 01       		.byte	0x1
 8856 06f8 01       		.byte	0x1
 8857 06f9 04       		.byte	0x4
 8858 06fa 10       		.byte	0x10
 8859 06fb 00       		.byte	0
 8860 06fc 02       		.uleb128 0x2
 8861 06fd 72130000 		.4byte	.LASF117
 8862 0701 0C       		.byte	0xc
 8863 0702 48       		.byte	0x48
 8864 0703 A1060000 		.4byte	0x6a1
 8865 0707 06       		.uleb128 0x6
 8866 0708 1C       		.byte	0x1c
 8867 0709 0D       		.byte	0xd
 8868 070a 2F       		.byte	0x2f
 8869 070b 5B070000 		.4byte	0x75b
 8870 070f 07       		.uleb128 0x7
 8871 0710 5A0D0000 		.4byte	.LASF118
 8872 0714 0D       		.byte	0xd
 8873 0715 31       		.byte	0x31
 8874 0716 E4000000 		.4byte	0xe4
 8875 071a 00       		.byte	0
 8876 071b 07       		.uleb128 0x7
 8877 071c 5F0D0000 		.4byte	.LASF119
 8878 0720 0D       		.byte	0xd
 8879 0721 32       		.byte	0x32
 8880 0722 E4000000 		.4byte	0xe4
 8881 0726 04       		.byte	0x4
 8882 0727 07       		.uleb128 0x7
 8883 0728 82100000 		.4byte	.LASF120
 8884 072c 0D       		.byte	0xd
 8885 072d 35       		.byte	0x35
 8886 072e E4000000 		.4byte	0xe4
 8887 0732 08       		.byte	0x8
 8888 0733 07       		.uleb128 0x7
 8889 0734 8C120000 		.4byte	.LASF121
 8890 0738 0D       		.byte	0xd
ARM GAS  C:\Users\tmj32\AppData\Local\Temp\ccxLNxq9.s 			page 206


 8891 0739 36       		.byte	0x36
 8892 073a CE000000 		.4byte	0xce
 8893 073e 0C       		.byte	0xc
 8894 073f 07       		.uleb128 0x7
 8895 0740 DD090000 		.4byte	.LASF122
 8896 0744 0D       		.byte	0xd
 8897 0745 37       		.byte	0x37
 8898 0746 58030000 		.4byte	0x358
 8899 074a 10       		.byte	0x10
 8900 074b 0A       		.uleb128 0xa
 8901 074c F1070000 		.4byte	.LASF123
 8902 0750 0D       		.byte	0xd
 8903 0751 38       		.byte	0x38
 8904 0752 5B070000 		.4byte	0x75b
 8905 0756 04       		.byte	0x4
 8906 0757 01       		.byte	0x1
 8907 0758 1F       		.byte	0x1f
 8908 0759 18       		.byte	0x18
 8909 075a 00       		.byte	0
 8910 075b 16       		.uleb128 0x16
 8911 075c CE000000 		.4byte	0xce
 8912 0760 02       		.uleb128 0x2
 8913 0761 E30B0000 		.4byte	.LASF124
 8914 0765 0D       		.byte	0xd
 8915 0766 39       		.byte	0x39
 8916 0767 07070000 		.4byte	0x707
 8917 076b 09       		.uleb128 0x9
 8918 076c 3F0B0000 		.4byte	.LASF125
 8919 0770 20       		.byte	0x20
 8920 0771 0D       		.byte	0xd
 8921 0772 3E       		.byte	0x3e
 8922 0773 E7070000 		.4byte	0x7e7
 8923 0777 07       		.uleb128 0x7
 8924 0778 34050000 		.4byte	.LASF126
 8925 077c 0D       		.byte	0xd
 8926 077d 41       		.byte	0x41
 8927 077e D9000000 		.4byte	0xd9
 8928 0782 00       		.byte	0
 8929 0783 07       		.uleb128 0x7
 8930 0784 42030000 		.4byte	.LASF127
 8931 0788 0D       		.byte	0xd
 8932 0789 42       		.byte	0x42
 8933 078a D9000000 		.4byte	0xd9
 8934 078e 02       		.byte	0x2
 8935 078f 07       		.uleb128 0x7
 8936 0790 FE080000 		.4byte	.LASF128
 8937 0794 0D       		.byte	0xd
 8938 0795 46       		.byte	0x46
 8939 0796 E7070000 		.4byte	0x7e7
 8940 079a 04       		.byte	0x4
 8941 079b 0A       		.uleb128 0xa
 8942 079c DD030000 		.4byte	.LASF129
 8943 07a0 0D       		.byte	0xd
 8944 07a1 4B       		.byte	0x4b
 8945 07a2 CE000000 		.4byte	0xce
 8946 07a6 04       		.byte	0x4
 8947 07a7 01       		.byte	0x1
ARM GAS  C:\Users\tmj32\AppData\Local\Temp\ccxLNxq9.s 			page 207


 8948 07a8 1F       		.byte	0x1f
 8949 07a9 08       		.byte	0x8
 8950 07aa 07       		.uleb128 0x7
 8951 07ab BD1A0000 		.4byte	.LASF130
 8952 07af 0D       		.byte	0xd
 8953 07b0 55       		.byte	0x55
 8954 07b1 19080000 		.4byte	0x819
 8955 07b5 0C       		.byte	0xc
 8956 07b6 07       		.uleb128 0x7
 8957 07b7 02150000 		.4byte	.LASF131
 8958 07bb 0D       		.byte	0xd
 8959 07bc 59       		.byte	0x59
 8960 07bd 35080000 		.4byte	0x835
 8961 07c1 10       		.byte	0x10
 8962 07c2 07       		.uleb128 0x7
 8963 07c3 16050000 		.4byte	.LASF132
 8964 07c7 0D       		.byte	0xd
 8965 07c8 5E       		.byte	0x5e
 8966 07c9 6A080000 		.4byte	0x86a
 8967 07cd 14       		.byte	0x14
 8968 07ce 07       		.uleb128 0x7
 8969 07cf 6D1A0000 		.4byte	.LASF133
 8970 07d3 0D       		.byte	0xd
 8971 07d4 63       		.byte	0x63
 8972 07d5 85080000 		.4byte	0x885
 8973 07d9 18       		.byte	0x18
 8974 07da 07       		.uleb128 0x7
 8975 07db 07000000 		.4byte	.LASF134
 8976 07df 0D       		.byte	0xd
 8977 07e0 71       		.byte	0x71
 8978 07e1 CA020000 		.4byte	0x2ca
 8979 07e5 1C       		.byte	0x1c
 8980 07e6 00       		.byte	0
 8981 07e7 0D       		.uleb128 0xd
 8982 07e8 04       		.byte	0x4
 8983 07e9 60070000 		.4byte	0x760
 8984 07ed 15       		.uleb128 0x15
 8985 07ee 02080000 		.4byte	0x802
 8986 07f2 0C       		.uleb128 0xc
 8987 07f3 02080000 		.4byte	0x802
 8988 07f7 0C       		.uleb128 0xc
 8989 07f8 08080000 		.4byte	0x808
 8990 07fc 0C       		.uleb128 0xc
 8991 07fd 13080000 		.4byte	0x813
 8992 0801 00       		.byte	0
 8993 0802 0D       		.uleb128 0xd
 8994 0803 04       		.byte	0x4
 8995 0804 6B070000 		.4byte	0x76b
 8996 0808 0D       		.uleb128 0xd
 8997 0809 04       		.byte	0x4
 8998 080a 0E080000 		.4byte	0x80e
 8999 080e 0E       		.uleb128 0xe
 9000 080f 58030000 		.4byte	0x358
 9001 0813 0D       		.uleb128 0xd
 9002 0814 04       		.byte	0x4
 9003 0815 CA020000 		.4byte	0x2ca
 9004 0819 0D       		.uleb128 0xd
ARM GAS  C:\Users\tmj32\AppData\Local\Temp\ccxLNxq9.s 			page 208


 9005 081a 04       		.byte	0x4
 9006 081b ED070000 		.4byte	0x7ed
 9007 081f 15       		.uleb128 0x15
 9008 0820 2F080000 		.4byte	0x82f
 9009 0824 0C       		.uleb128 0xc
 9010 0825 02080000 		.4byte	0x802
 9011 0829 0C       		.uleb128 0xc
 9012 082a 2F080000 		.4byte	0x82f
 9013 082e 00       		.byte	0
 9014 082f 0D       		.uleb128 0xd
 9015 0830 04       		.byte	0x4
 9016 0831 58030000 		.4byte	0x358
 9017 0835 0D       		.uleb128 0xd
 9018 0836 04       		.byte	0x4
 9019 0837 1F080000 		.4byte	0x81f
 9020 083b 15       		.uleb128 0x15
 9021 083c 64080000 		.4byte	0x864
 9022 0840 0C       		.uleb128 0xc
 9023 0841 02080000 		.4byte	0x802
 9024 0845 0C       		.uleb128 0xc
 9025 0846 64080000 		.4byte	0x864
 9026 084a 0C       		.uleb128 0xc
 9027 084b D9000000 		.4byte	0xd9
 9028 084f 0C       		.uleb128 0xc
 9029 0850 D9000000 		.4byte	0xd9
 9030 0854 0C       		.uleb128 0xc
 9031 0855 D9000000 		.4byte	0xd9
 9032 0859 0C       		.uleb128 0xc
 9033 085a CA020000 		.4byte	0x2ca
 9034 085e 0C       		.uleb128 0xc
 9035 085f D6020000 		.4byte	0x2d6
 9036 0863 00       		.byte	0
 9037 0864 0D       		.uleb128 0xd
 9038 0865 04       		.byte	0x4
 9039 0866 AD000000 		.4byte	0xad
 9040 086a 0D       		.uleb128 0xd
 9041 086b 04       		.byte	0x4
 9042 086c 3B080000 		.4byte	0x83b
 9043 0870 15       		.uleb128 0x15
 9044 0871 85080000 		.4byte	0x885
 9045 0875 0C       		.uleb128 0xc
 9046 0876 02080000 		.4byte	0x802
 9047 087a 0C       		.uleb128 0xc
 9048 087b CE000000 		.4byte	0xce
 9049 087f 0C       		.uleb128 0xc
 9050 0880 CE000000 		.4byte	0xce
 9051 0884 00       		.byte	0
 9052 0885 0D       		.uleb128 0xd
 9053 0886 04       		.byte	0x4
 9054 0887 70080000 		.4byte	0x870
 9055 088b 02       		.uleb128 0x2
 9056 088c 42190000 		.4byte	.LASF135
 9057 0890 0D       		.byte	0xd
 9058 0891 77       		.byte	0x77
 9059 0892 6B070000 		.4byte	0x76b
 9060 0896 17       		.uleb128 0x17
 9061 0897 CF0F0000 		.4byte	.LASF136
ARM GAS  C:\Users\tmj32\AppData\Local\Temp\ccxLNxq9.s 			page 209


 9062 089b 6401     		.2byte	0x164
 9063 089d 0D       		.byte	0xd
 9064 089e 7F       		.byte	0x7f
 9065 089f 22090000 		.4byte	0x922
 9066 08a3 07       		.uleb128 0x7
 9067 08a4 22160000 		.4byte	.LASF137
 9068 08a8 0D       		.byte	0xd
 9069 08a9 82       		.byte	0x82
 9070 08aa 8B080000 		.4byte	0x88b
 9071 08ae 00       		.byte	0
 9072 08af 07       		.uleb128 0x7
 9073 08b0 C5030000 		.4byte	.LASF138
 9074 08b4 0D       		.byte	0xd
 9075 08b5 85       		.byte	0x85
 9076 08b6 22090000 		.4byte	0x922
 9077 08ba 20       		.byte	0x20
 9078 08bb 07       		.uleb128 0x7
 9079 08bc 04030000 		.4byte	.LASF139
 9080 08c0 0D       		.byte	0xd
 9081 08c1 88       		.byte	0x88
 9082 08c2 38060000 		.4byte	0x638
 9083 08c6 24       		.byte	0x24
 9084 08c7 07       		.uleb128 0x7
 9085 08c8 C5000000 		.4byte	.LASF140
 9086 08cc 0D       		.byte	0xd
 9087 08cd 89       		.byte	0x89
 9088 08ce 6A0A0000 		.4byte	0xa6a
 9089 08d2 30       		.byte	0x30
 9090 08d3 07       		.uleb128 0x7
 9091 08d4 9E050000 		.4byte	.LASF141
 9092 08d8 0D       		.byte	0xd
 9093 08d9 8A       		.byte	0x8a
 9094 08da 6A0A0000 		.4byte	0xa6a
 9095 08de 34       		.byte	0x34
 9096 08df 07       		.uleb128 0x7
 9097 08e0 C1170000 		.4byte	.LASF142
 9098 08e4 0D       		.byte	0xd
 9099 08e5 8B       		.byte	0x8b
 9100 08e6 6A0A0000 		.4byte	0xa6a
 9101 08ea 38       		.byte	0x38
 9102 08eb 07       		.uleb128 0x7
 9103 08ec 470F0000 		.4byte	.LASF143
 9104 08f0 0D       		.byte	0xd
 9105 08f1 8E       		.byte	0x8e
 9106 08f2 700A0000 		.4byte	0xa70
 9107 08f6 3C       		.byte	0x3c
 9108 08f7 18       		.uleb128 0x18
 9109 08f8 AE060000 		.4byte	.LASF144
 9110 08fc 0D       		.byte	0xd
 9111 08fd 8F       		.byte	0x8f
 9112 08fe 800A0000 		.4byte	0xa80
 9113 0902 3C01     		.2byte	0x13c
 9114 0904 19       		.uleb128 0x19
 9115 0905 24170000 		.4byte	.LASF145
 9116 0909 0D       		.byte	0xd
 9117 090a 90       		.byte	0x90
 9118 090b CE000000 		.4byte	0xce
ARM GAS  C:\Users\tmj32\AppData\Local\Temp\ccxLNxq9.s 			page 210


 9119 090f 04       		.byte	0x4
 9120 0910 0A       		.byte	0xa
 9121 0911 16       		.byte	0x16
 9122 0912 5C01     		.2byte	0x15c
 9123 0914 18       		.uleb128 0x18
 9124 0915 A9030000 		.4byte	.LASF146
 9125 0919 0D       		.byte	0xd
 9126 091a 93       		.byte	0x93
 9127 091b CE000000 		.4byte	0xce
 9128 091f 6001     		.2byte	0x160
 9129 0921 00       		.byte	0
 9130 0922 0D       		.uleb128 0xd
 9131 0923 04       		.byte	0x4
 9132 0924 FC060000 		.4byte	0x6fc
 9133 0928 09       		.uleb128 0x9
 9134 0929 45160000 		.4byte	.LASF147
 9135 092d 40       		.byte	0x40
 9136 092e 0E       		.byte	0xe
 9137 092f BB       		.byte	0xbb
 9138 0930 6A0A0000 		.4byte	0xa6a
 9139 0934 08       		.uleb128 0x8
 9140 0935 70617200 		.ascii	"par\000"
 9141 0939 0E       		.byte	0xe
 9142 093a BD       		.byte	0xbd
 9143 093b 6A0A0000 		.4byte	0xa6a
 9144 093f 00       		.byte	0
 9145 0940 07       		.uleb128 0x7
 9146 0941 3B0D0000 		.4byte	.LASF148
 9147 0945 0E       		.byte	0xe
 9148 0946 BE       		.byte	0xbe
 9149 0947 38060000 		.4byte	0x638
 9150 094b 04       		.byte	0x4
 9151 094c 07       		.uleb128 0x7
 9152 094d 9F170000 		.4byte	.LASF149
 9153 0951 0E       		.byte	0xe
 9154 0952 C0       		.byte	0xc0
 9155 0953 58030000 		.4byte	0x358
 9156 0957 10       		.byte	0x10
 9157 0958 07       		.uleb128 0x7
 9158 0959 2B0C0000 		.4byte	.LASF150
 9159 095d 0E       		.byte	0xe
 9160 095e C2       		.byte	0xc2
 9161 095f 600E0000 		.4byte	0xe60
 9162 0963 18       		.byte	0x18
 9163 0964 07       		.uleb128 0x7
 9164 0965 A1190000 		.4byte	.LASF151
 9165 0969 0E       		.byte	0xe
 9166 096a C3       		.byte	0xc3
 9167 096b 110F0000 		.4byte	0xf11
 9168 096f 1C       		.byte	0x1c
 9169 0970 07       		.uleb128 0x7
 9170 0971 D4070000 		.4byte	.LASF152
 9171 0975 0E       		.byte	0xe
 9172 0976 C4       		.byte	0xc4
 9173 0977 A60D0000 		.4byte	0xda6
 9174 097b 20       		.byte	0x20
 9175 097c 07       		.uleb128 0x7
ARM GAS  C:\Users\tmj32\AppData\Local\Temp\ccxLNxq9.s 			page 211


 9176 097d C8100000 		.4byte	.LASF153
 9177 0981 0E       		.byte	0xe
 9178 0982 C6       		.byte	0xc6
 9179 0983 E4000000 		.4byte	0xe4
 9180 0987 24       		.byte	0x24
 9181 0988 07       		.uleb128 0x7
 9182 0989 3A0C0000 		.4byte	.LASF154
 9183 098d 0E       		.byte	0xe
 9184 098e C7       		.byte	0xc7
 9185 098f 68100000 		.4byte	0x1068
 9186 0993 28       		.byte	0x28
 9187 0994 0A       		.uleb128 0xa
 9188 0995 94010000 		.4byte	.LASF155
 9189 0999 0E       		.byte	0xe
 9190 099a D7       		.byte	0xd7
 9191 099b AD000000 		.4byte	0xad
 9192 099f 01       		.byte	0x1
 9193 09a0 01       		.byte	0x1
 9194 09a1 07       		.byte	0x7
 9195 09a2 2C       		.byte	0x2c
 9196 09a3 0A       		.uleb128 0xa
 9197 09a4 3A160000 		.4byte	.LASF156
 9198 09a8 0E       		.byte	0xe
 9199 09a9 D8       		.byte	0xd8
 9200 09aa AD000000 		.4byte	0xad
 9201 09ae 01       		.byte	0x1
 9202 09af 01       		.byte	0x1
 9203 09b0 06       		.byte	0x6
 9204 09b1 2C       		.byte	0x2c
 9205 09b2 0A       		.uleb128 0xa
 9206 09b3 69080000 		.4byte	.LASF157
 9207 09b7 0E       		.byte	0xe
 9208 09b8 D9       		.byte	0xd9
 9209 09b9 AD000000 		.4byte	0xad
 9210 09bd 01       		.byte	0x1
 9211 09be 01       		.byte	0x1
 9212 09bf 05       		.byte	0x5
 9213 09c0 2C       		.byte	0x2c
 9214 09c1 0A       		.uleb128 0xa
 9215 09c2 C3180000 		.4byte	.LASF158
 9216 09c6 0E       		.byte	0xe
 9217 09c7 DA       		.byte	0xda
 9218 09c8 AD000000 		.4byte	0xad
 9219 09cc 01       		.byte	0x1
 9220 09cd 01       		.byte	0x1
 9221 09ce 04       		.byte	0x4
 9222 09cf 2C       		.byte	0x2c
 9223 09d0 0A       		.uleb128 0xa
 9224 09d1 8B030000 		.4byte	.LASF159
 9225 09d5 0E       		.byte	0xe
 9226 09d6 DB       		.byte	0xdb
 9227 09d7 AD000000 		.4byte	0xad
 9228 09db 01       		.byte	0x1
 9229 09dc 01       		.byte	0x1
 9230 09dd 03       		.byte	0x3
 9231 09de 2C       		.byte	0x2c
 9232 09df 1A       		.uleb128 0x1a
ARM GAS  C:\Users\tmj32\AppData\Local\Temp\ccxLNxq9.s 			page 212


 9233 09e0 746F7000 		.ascii	"top\000"
 9234 09e4 0E       		.byte	0xe
 9235 09e5 DC       		.byte	0xdc
 9236 09e6 AD000000 		.4byte	0xad
 9237 09ea 01       		.byte	0x1
 9238 09eb 01       		.byte	0x1
 9239 09ec 02       		.byte	0x2
 9240 09ed 2C       		.byte	0x2c
 9241 09ee 0A       		.uleb128 0xa
 9242 09ef E5170000 		.4byte	.LASF160
 9243 09f3 0E       		.byte	0xe
 9244 09f4 DD       		.byte	0xdd
 9245 09f5 AD000000 		.4byte	0xad
 9246 09f9 01       		.byte	0x1
 9247 09fa 01       		.byte	0x1
 9248 09fb 01       		.byte	0x1
 9249 09fc 2C       		.byte	0x2c
 9250 09fd 0A       		.uleb128 0xa
 9251 09fe D20D0000 		.4byte	.LASF161
 9252 0a02 0E       		.byte	0xe
 9253 0a03 DE       		.byte	0xde
 9254 0a04 AD000000 		.4byte	0xad
 9255 0a08 01       		.byte	0x1
 9256 0a09 01       		.byte	0x1
 9257 0a0a 00       		.byte	0
 9258 0a0b 2C       		.byte	0x2c
 9259 0a0c 0A       		.uleb128 0xa
 9260 0a0d CF050000 		.4byte	.LASF162
 9261 0a11 0E       		.byte	0xe
 9262 0a12 DF       		.byte	0xdf
 9263 0a13 5D100000 		.4byte	0x105d
 9264 0a17 01       		.byte	0x1
 9265 0a18 02       		.byte	0x2
 9266 0a19 06       		.byte	0x6
 9267 0a1a 2D       		.byte	0x2d
 9268 0a1b 0A       		.uleb128 0xa
 9269 0a1c 80160000 		.4byte	.LASF163
 9270 0a20 0E       		.byte	0xe
 9271 0a21 E0       		.byte	0xe0
 9272 0a22 74060000 		.4byte	0x674
 9273 0a26 01       		.byte	0x1
 9274 0a27 02       		.byte	0x2
 9275 0a28 04       		.byte	0x4
 9276 0a29 2D       		.byte	0x2d
 9277 0a2a 0A       		.uleb128 0xa
 9278 0a2b 471A0000 		.4byte	.LASF164
 9279 0a2f 0E       		.byte	0xe
 9280 0a30 E1       		.byte	0xe1
 9281 0a31 AD000000 		.4byte	0xad
 9282 0a35 01       		.byte	0x1
 9283 0a36 03       		.byte	0x3
 9284 0a37 01       		.byte	0x1
 9285 0a38 2D       		.byte	0x2d
 9286 0a39 07       		.uleb128 0x7
 9287 0a3a 520D0000 		.4byte	.LASF165
 9288 0a3e 0E       		.byte	0xe
 9289 0a3f E2       		.byte	0xe2
ARM GAS  C:\Users\tmj32\AppData\Local\Temp\ccxLNxq9.s 			page 213


 9290 0a40 AD000000 		.4byte	0xad
 9291 0a44 2E       		.byte	0x2e
 9292 0a45 07       		.uleb128 0x7
 9293 0a46 0C1C0000 		.4byte	.LASF166
 9294 0a4a 0E       		.byte	0xe
 9295 0a4b E4       		.byte	0xe4
 9296 0a4c D6020000 		.4byte	0x2d6
 9297 0a50 2F       		.byte	0x2f
 9298 0a51 07       		.uleb128 0x7
 9299 0a52 B7080000 		.4byte	.LASF167
 9300 0a56 0E       		.byte	0xe
 9301 0a57 E6       		.byte	0xe6
 9302 0a58 D9000000 		.4byte	0xd9
 9303 0a5c 30       		.byte	0x30
 9304 0a5d 07       		.uleb128 0x7
 9305 0a5e 5A090000 		.4byte	.LASF168
 9306 0a62 0E       		.byte	0xe
 9307 0a63 E9       		.byte	0xe9
 9308 0a64 33100000 		.4byte	0x1033
 9309 0a68 34       		.byte	0x34
 9310 0a69 00       		.byte	0
 9311 0a6a 0D       		.uleb128 0xd
 9312 0a6b 04       		.byte	0x4
 9313 0a6c 28090000 		.4byte	0x928
 9314 0a70 1B       		.uleb128 0x1b
 9315 0a71 58030000 		.4byte	0x358
 9316 0a75 800A0000 		.4byte	0xa80
 9317 0a79 1C       		.uleb128 0x1c
 9318 0a7a E2020000 		.4byte	0x2e2
 9319 0a7e 1F       		.byte	0x1f
 9320 0a7f 00       		.byte	0
 9321 0a80 1B       		.uleb128 0x1b
 9322 0a81 AD000000 		.4byte	0xad
 9323 0a85 900A0000 		.4byte	0xa90
 9324 0a89 1C       		.uleb128 0x1c
 9325 0a8a E2020000 		.4byte	0x2e2
 9326 0a8e 1F       		.byte	0x1f
 9327 0a8f 00       		.byte	0
 9328 0a90 02       		.uleb128 0x2
 9329 0a91 3E000000 		.4byte	.LASF169
 9330 0a95 0D       		.byte	0xd
 9331 0a96 94       		.byte	0x94
 9332 0a97 96080000 		.4byte	0x896
 9333 0a9b 02       		.uleb128 0x2
 9334 0a9c 8E0B0000 		.4byte	.LASF170
 9335 0aa0 0F       		.byte	0xf
 9336 0aa1 33       		.byte	0x33
 9337 0aa2 AD000000 		.4byte	0xad
 9338 0aa6 02       		.uleb128 0x2
 9339 0aa7 88080000 		.4byte	.LASF171
 9340 0aab 0F       		.byte	0xf
 9341 0aac 37       		.byte	0x37
 9342 0aad AD000000 		.4byte	0xad
 9343 0ab1 06       		.uleb128 0x6
 9344 0ab2 10       		.byte	0x10
 9345 0ab3 0F       		.byte	0xf
 9346 0ab4 3A       		.byte	0x3a
ARM GAS  C:\Users\tmj32\AppData\Local\Temp\ccxLNxq9.s 			page 214


 9347 0ab5 F60A0000 		.4byte	0xaf6
 9348 0ab9 07       		.uleb128 0x7
 9349 0aba 0B030000 		.4byte	.LASF172
 9350 0abe 0F       		.byte	0xf
 9351 0abf 3C       		.byte	0x3c
 9352 0ac0 18030000 		.4byte	0x318
 9353 0ac4 00       		.byte	0
 9354 0ac5 08       		.uleb128 0x8
 9355 0ac6 6B657900 		.ascii	"key\000"
 9356 0aca 0F       		.byte	0xf
 9357 0acb 3D       		.byte	0x3d
 9358 0acc CE000000 		.4byte	0xce
 9359 0ad0 04       		.byte	0x4
 9360 0ad1 07       		.uleb128 0x7
 9361 0ad2 CB060000 		.4byte	.LASF173
 9362 0ad6 0F       		.byte	0xf
 9363 0ad7 3E       		.byte	0x3e
 9364 0ad8 CE000000 		.4byte	0xce
 9365 0adc 08       		.byte	0x8
 9366 0add 07       		.uleb128 0x7
 9367 0ade F00E0000 		.4byte	.LASF174
 9368 0ae2 0F       		.byte	0xf
 9369 0ae3 3F       		.byte	0x3f
 9370 0ae4 B8000000 		.4byte	0xb8
 9371 0ae8 0C       		.byte	0xc
 9372 0ae9 07       		.uleb128 0x7
 9373 0aea 22020000 		.4byte	.LASF175
 9374 0aee 0F       		.byte	0xf
 9375 0aef 41       		.byte	0x41
 9376 0af0 A60A0000 		.4byte	0xaa6
 9377 0af4 0E       		.byte	0xe
 9378 0af5 00       		.byte	0
 9379 0af6 02       		.uleb128 0x2
 9380 0af7 AD1A0000 		.4byte	.LASF176
 9381 0afb 0F       		.byte	0xf
 9382 0afc 42       		.byte	0x42
 9383 0afd B10A0000 		.4byte	0xab1
 9384 0b01 09       		.uleb128 0x9
 9385 0b02 E5020000 		.4byte	.LASF177
 9386 0b06 1C       		.byte	0x1c
 9387 0b07 0F       		.byte	0xf
 9388 0b08 45       		.byte	0x45
 9389 0b09 7A0B0000 		.4byte	0xb7a
 9390 0b0d 07       		.uleb128 0x7
 9391 0b0e 94020000 		.4byte	.LASF69
 9392 0b12 0F       		.byte	0xf
 9393 0b13 49       		.byte	0x49
 9394 0b14 9B0A0000 		.4byte	0xa9b
 9395 0b18 00       		.byte	0
 9396 0b19 07       		.uleb128 0x7
 9397 0b1a 83040000 		.4byte	.LASF178
 9398 0b1e 0F       		.byte	0xf
 9399 0b1f 4E       		.byte	0x4e
 9400 0b20 9A0B0000 		.4byte	0xb9a
 9401 0b24 04       		.byte	0x4
 9402 0b25 07       		.uleb128 0x7
 9403 0b26 85110000 		.4byte	.LASF179
ARM GAS  C:\Users\tmj32\AppData\Local\Temp\ccxLNxq9.s 			page 215


 9404 0b2a 0F       		.byte	0xf
 9405 0b2b 52       		.byte	0x52
 9406 0b2c B00B0000 		.4byte	0xbb0
 9407 0b30 08       		.byte	0x8
 9408 0b31 07       		.uleb128 0x7
 9409 0b32 A10E0000 		.4byte	.LASF180
 9410 0b36 0F       		.byte	0xf
 9411 0b37 59       		.byte	0x59
 9412 0b38 B60B0000 		.4byte	0xbb6
 9413 0b3c 0C       		.byte	0xc
 9414 0b3d 07       		.uleb128 0x7
 9415 0b3e 4E110000 		.4byte	.LASF181
 9416 0b42 0F       		.byte	0xf
 9417 0b43 5C       		.byte	0x5c
 9418 0b44 22090000 		.4byte	0x922
 9419 0b48 10       		.byte	0x10
 9420 0b49 07       		.uleb128 0x7
 9421 0b4a 37190000 		.4byte	.LASF182
 9422 0b4e 0F       		.byte	0xf
 9423 0b4f 5F       		.byte	0x5f
 9424 0b50 AD000000 		.4byte	0xad
 9425 0b54 14       		.byte	0x14
 9426 0b55 07       		.uleb128 0x7
 9427 0b56 69080000 		.4byte	.LASF157
 9428 0b5a 0F       		.byte	0xf
 9429 0b5b 62       		.byte	0x62
 9430 0b5c AD000000 		.4byte	0xad
 9431 0b60 15       		.byte	0x15
 9432 0b61 07       		.uleb128 0x7
 9433 0b62 A8120000 		.4byte	.LASF183
 9434 0b66 0F       		.byte	0xf
 9435 0b67 65       		.byte	0x65
 9436 0b68 C3000000 		.4byte	0xc3
 9437 0b6c 16       		.byte	0x16
 9438 0b6d 07       		.uleb128 0x7
 9439 0b6e C4080000 		.4byte	.LASF184
 9440 0b72 0F       		.byte	0xf
 9441 0b73 68       		.byte	0x68
 9442 0b74 C3000000 		.4byte	0xc3
 9443 0b78 18       		.byte	0x18
 9444 0b79 00       		.byte	0
 9445 0b7a 0B       		.uleb128 0xb
 9446 0b7b BF010000 		.4byte	0x1bf
 9447 0b7f 8E0B0000 		.4byte	0xb8e
 9448 0b83 0C       		.uleb128 0xc
 9449 0b84 8E0B0000 		.4byte	0xb8e
 9450 0b88 0C       		.uleb128 0xc
 9451 0b89 940B0000 		.4byte	0xb94
 9452 0b8d 00       		.byte	0
 9453 0b8e 0D       		.uleb128 0xd
 9454 0b8f 04       		.byte	0x4
 9455 0b90 010B0000 		.4byte	0xb01
 9456 0b94 0D       		.uleb128 0xd
 9457 0b95 04       		.byte	0x4
 9458 0b96 F60A0000 		.4byte	0xaf6
 9459 0b9a 0D       		.uleb128 0xd
 9460 0b9b 04       		.byte	0x4
ARM GAS  C:\Users\tmj32\AppData\Local\Temp\ccxLNxq9.s 			page 216


 9461 0b9c 7A0B0000 		.4byte	0xb7a
 9462 0ba0 15       		.uleb128 0x15
 9463 0ba1 B00B0000 		.4byte	0xbb0
 9464 0ba5 0C       		.uleb128 0xc
 9465 0ba6 8E0B0000 		.4byte	0xb8e
 9466 0baa 0C       		.uleb128 0xc
 9467 0bab AD000000 		.4byte	0xad
 9468 0baf 00       		.byte	0
 9469 0bb0 0D       		.uleb128 0xd
 9470 0bb1 04       		.byte	0x4
 9471 0bb2 A00B0000 		.4byte	0xba0
 9472 0bb6 0D       		.uleb128 0xd
 9473 0bb7 04       		.byte	0x4
 9474 0bb8 96080000 		.4byte	0x896
 9475 0bbc 02       		.uleb128 0x2
 9476 0bbd E3180000 		.4byte	.LASF185
 9477 0bc1 0F       		.byte	0xf
 9478 0bc2 69       		.byte	0x69
 9479 0bc3 010B0000 		.4byte	0xb01
 9480 0bc7 06       		.uleb128 0x6
 9481 0bc8 24       		.byte	0x24
 9482 0bc9 0F       		.byte	0xf
 9483 0bca 73       		.byte	0x73
 9484 0bcb 4E0C0000 		.4byte	0xc4e
 9485 0bcf 07       		.uleb128 0x7
 9486 0bd0 7B0B0000 		.4byte	.LASF186
 9487 0bd4 0F       		.byte	0xf
 9488 0bd5 75       		.byte	0x75
 9489 0bd6 18030000 		.4byte	0x318
 9490 0bda 00       		.byte	0
 9491 0bdb 07       		.uleb128 0x7
 9492 0bdc 640D0000 		.4byte	.LASF187
 9493 0be0 0F       		.byte	0xf
 9494 0be1 76       		.byte	0x76
 9495 0be2 18030000 		.4byte	0x318
 9496 0be6 04       		.byte	0x4
 9497 0be7 07       		.uleb128 0x7
 9498 0be8 AA100000 		.4byte	.LASF188
 9499 0bec 0F       		.byte	0xf
 9500 0bed 77       		.byte	0x77
 9501 0bee 18030000 		.4byte	0x318
 9502 0bf2 08       		.byte	0x8
 9503 0bf3 07       		.uleb128 0x7
 9504 0bf4 D1100000 		.4byte	.LASF189
 9505 0bf8 0F       		.byte	0xf
 9506 0bf9 78       		.byte	0x78
 9507 0bfa 18030000 		.4byte	0x318
 9508 0bfe 0C       		.byte	0xc
 9509 0bff 07       		.uleb128 0x7
 9510 0c00 0A070000 		.4byte	.LASF190
 9511 0c04 0F       		.byte	0xf
 9512 0c05 79       		.byte	0x79
 9513 0c06 18030000 		.4byte	0x318
 9514 0c0a 10       		.byte	0x10
 9515 0c0b 07       		.uleb128 0x7
 9516 0c0c 8D0D0000 		.4byte	.LASF191
 9517 0c10 0F       		.byte	0xf
ARM GAS  C:\Users\tmj32\AppData\Local\Temp\ccxLNxq9.s 			page 217


 9518 0c11 7A       		.byte	0x7a
 9519 0c12 6A0A0000 		.4byte	0xa6a
 9520 0c16 14       		.byte	0x14
 9521 0c17 07       		.uleb128 0x7
 9522 0c18 850B0000 		.4byte	.LASF192
 9523 0c1c 0F       		.byte	0xf
 9524 0c1d 7B       		.byte	0x7b
 9525 0c1e 6A0A0000 		.4byte	0xa6a
 9526 0c22 18       		.byte	0x18
 9527 0c23 07       		.uleb128 0x7
 9528 0c24 B4040000 		.4byte	.LASF193
 9529 0c28 0F       		.byte	0xf
 9530 0c29 7D       		.byte	0x7d
 9531 0c2a 6A0A0000 		.4byte	0xa6a
 9532 0c2e 1C       		.byte	0x1c
 9533 0c2f 0A       		.uleb128 0xa
 9534 0c30 ED150000 		.4byte	.LASF194
 9535 0c34 0F       		.byte	0xf
 9536 0c35 80       		.byte	0x80
 9537 0c36 AD000000 		.4byte	0xad
 9538 0c3a 01       		.byte	0x1
 9539 0c3b 01       		.byte	0x1
 9540 0c3c 07       		.byte	0x7
 9541 0c3d 20       		.byte	0x20
 9542 0c3e 0A       		.uleb128 0xa
 9543 0c3f 61150000 		.4byte	.LASF195
 9544 0c43 0F       		.byte	0xf
 9545 0c44 81       		.byte	0x81
 9546 0c45 AD000000 		.4byte	0xad
 9547 0c49 01       		.byte	0x1
 9548 0c4a 01       		.byte	0x1
 9549 0c4b 06       		.byte	0x6
 9550 0c4c 20       		.byte	0x20
 9551 0c4d 00       		.byte	0
 9552 0c4e 06       		.uleb128 0x6
 9553 0c4f 08       		.byte	0x8
 9554 0c50 0F       		.byte	0xf
 9555 0c51 83       		.byte	0x83
 9556 0c52 6F0C0000 		.4byte	0xc6f
 9557 0c56 07       		.uleb128 0x7
 9558 0c57 F6030000 		.4byte	.LASF196
 9559 0c5b 0F       		.byte	0xf
 9560 0c5c 85       		.byte	0x85
 9561 0c5d A60A0000 		.4byte	0xaa6
 9562 0c61 00       		.byte	0
 9563 0c62 07       		.uleb128 0x7
 9564 0c63 EB090000 		.4byte	.LASF197
 9565 0c67 0F       		.byte	0xf
 9566 0c68 86       		.byte	0x86
 9567 0c69 CE000000 		.4byte	0xce
 9568 0c6d 04       		.byte	0x4
 9569 0c6e 00       		.byte	0
 9570 0c6f 11       		.uleb128 0x11
 9571 0c70 24       		.byte	0x24
 9572 0c71 0F       		.byte	0xf
 9573 0c72 71       		.byte	0x71
 9574 0c73 8E0C0000 		.4byte	0xc8e
ARM GAS  C:\Users\tmj32\AppData\Local\Temp\ccxLNxq9.s 			page 218


 9575 0c77 13       		.uleb128 0x13
 9576 0c78 3F080000 		.4byte	.LASF198
 9577 0c7c 0F       		.byte	0xf
 9578 0c7d 82       		.byte	0x82
 9579 0c7e C70B0000 		.4byte	0xbc7
 9580 0c82 13       		.uleb128 0x13
 9581 0c83 5C170000 		.4byte	.LASF199
 9582 0c87 0F       		.byte	0xf
 9583 0c88 87       		.byte	0x87
 9584 0c89 4E0C0000 		.4byte	0xc4e
 9585 0c8d 00       		.byte	0
 9586 0c8e 09       		.uleb128 0x9
 9587 0c8f 37120000 		.4byte	.LASF200
 9588 0c93 34       		.byte	0x34
 9589 0c94 0F       		.byte	0xf
 9590 0c95 6E       		.byte	0x6e
 9591 0c96 070D0000 		.4byte	0xd07
 9592 0c9a 07       		.uleb128 0x7
 9593 0c9b 22020000 		.4byte	.LASF175
 9594 0c9f 0F       		.byte	0xf
 9595 0ca0 70       		.byte	0x70
 9596 0ca1 A60A0000 		.4byte	0xaa6
 9597 0ca5 00       		.byte	0
 9598 0ca6 07       		.uleb128 0x7
 9599 0ca7 9A1B0000 		.4byte	.LASF201
 9600 0cab 0F       		.byte	0xf
 9601 0cac 88       		.byte	0x88
 9602 0cad 6F0C0000 		.4byte	0xc6f
 9603 0cb1 04       		.byte	0x4
 9604 0cb2 07       		.uleb128 0x7
 9605 0cb3 00110000 		.4byte	.LASF202
 9606 0cb7 0F       		.byte	0xf
 9607 0cb8 8A       		.byte	0x8a
 9608 0cb9 CE000000 		.4byte	0xce
 9609 0cbd 28       		.byte	0x28
 9610 0cbe 07       		.uleb128 0x7
 9611 0cbf 37150000 		.4byte	.LASF203
 9612 0cc3 0F       		.byte	0xf
 9613 0cc4 8B       		.byte	0x8b
 9614 0cc5 CE000000 		.4byte	0xce
 9615 0cc9 2C       		.byte	0x2c
 9616 0cca 0A       		.uleb128 0xa
 9617 0ccb 1D1B0000 		.4byte	.LASF204
 9618 0ccf 0F       		.byte	0xf
 9619 0cd0 8E       		.byte	0x8e
 9620 0cd1 AD000000 		.4byte	0xad
 9621 0cd5 01       		.byte	0x1
 9622 0cd6 01       		.byte	0x1
 9623 0cd7 07       		.byte	0x7
 9624 0cd8 30       		.byte	0x30
 9625 0cd9 0A       		.uleb128 0xa
 9626 0cda 66130000 		.4byte	.LASF205
 9627 0cde 0F       		.byte	0xf
 9628 0cdf 8F       		.byte	0x8f
 9629 0ce0 AD000000 		.4byte	0xad
 9630 0ce4 01       		.byte	0x1
 9631 0ce5 01       		.byte	0x1
ARM GAS  C:\Users\tmj32\AppData\Local\Temp\ccxLNxq9.s 			page 219


 9632 0ce6 06       		.byte	0x6
 9633 0ce7 30       		.byte	0x30
 9634 0ce8 0A       		.uleb128 0xa
 9635 0ce9 2E0A0000 		.4byte	.LASF206
 9636 0ced 0F       		.byte	0xf
 9637 0cee 90       		.byte	0x90
 9638 0cef AD000000 		.4byte	0xad
 9639 0cf3 01       		.byte	0x1
 9640 0cf4 01       		.byte	0x1
 9641 0cf5 05       		.byte	0x5
 9642 0cf6 30       		.byte	0x30
 9643 0cf7 0A       		.uleb128 0xa
 9644 0cf8 CA090000 		.4byte	.LASF207
 9645 0cfc 0F       		.byte	0xf
 9646 0cfd 91       		.byte	0x91
 9647 0cfe AD000000 		.4byte	0xad
 9648 0d02 01       		.byte	0x1
 9649 0d03 01       		.byte	0x1
 9650 0d04 04       		.byte	0x4
 9651 0d05 30       		.byte	0x30
 9652 0d06 00       		.byte	0
 9653 0d07 02       		.uleb128 0x2
 9654 0d08 41180000 		.4byte	.LASF208
 9655 0d0c 0F       		.byte	0xf
 9656 0d0d 92       		.byte	0x92
 9657 0d0e 8E0C0000 		.4byte	0xc8e
 9658 0d12 09       		.uleb128 0x9
 9659 0d13 61030000 		.4byte	.LASF209
 9660 0d17 5C       		.byte	0x5c
 9661 0d18 0F       		.byte	0xf
 9662 0d19 99       		.byte	0x99
 9663 0d1a 5B0D0000 		.4byte	0xd5b
 9664 0d1e 07       		.uleb128 0x7
 9665 0d1f 22160000 		.4byte	.LASF137
 9666 0d23 0F       		.byte	0xf
 9667 0d24 9B       		.byte	0x9b
 9668 0d25 BC0B0000 		.4byte	0xbbc
 9669 0d29 00       		.byte	0
 9670 0d2a 07       		.uleb128 0x7
 9671 0d2b AA070000 		.4byte	.LASF210
 9672 0d2f 0F       		.byte	0xf
 9673 0d30 9C       		.byte	0x9c
 9674 0d31 070D0000 		.4byte	0xd07
 9675 0d35 1C       		.byte	0x1c
 9676 0d36 07       		.uleb128 0x7
 9677 0d37 C01B0000 		.4byte	.LASF211
 9678 0d3b 0F       		.byte	0xf
 9679 0d3c 9D       		.byte	0x9d
 9680 0d3d 6A0A0000 		.4byte	0xa6a
 9681 0d41 50       		.byte	0x50
 9682 0d42 07       		.uleb128 0x7
 9683 0d43 550B0000 		.4byte	.LASF212
 9684 0d47 0F       		.byte	0xf
 9685 0d48 9E       		.byte	0x9e
 9686 0d49 600D0000 		.4byte	0xd60
 9687 0d4d 54       		.byte	0x54
 9688 0d4e 07       		.uleb128 0x7
ARM GAS  C:\Users\tmj32\AppData\Local\Temp\ccxLNxq9.s 			page 220


 9689 0d4f 92090000 		.4byte	.LASF213
 9690 0d53 0F       		.byte	0xf
 9691 0d54 9F       		.byte	0x9f
 9692 0d55 660D0000 		.4byte	0xd66
 9693 0d59 58       		.byte	0x58
 9694 0d5a 00       		.byte	0
 9695 0d5b 1D       		.uleb128 0x1d
 9696 0d5c D51B0000 		.4byte	.LASF514
 9697 0d60 0D       		.uleb128 0xd
 9698 0d61 04       		.byte	0x4
 9699 0d62 5B0D0000 		.4byte	0xd5b
 9700 0d66 0D       		.uleb128 0xd
 9701 0d67 04       		.byte	0x4
 9702 0d68 6C0D0000 		.4byte	0xd6c
 9703 0d6c 0E       		.uleb128 0xe
 9704 0d6d 18030000 		.4byte	0x318
 9705 0d71 02       		.uleb128 0x2
 9706 0d72 87090000 		.4byte	.LASF214
 9707 0d76 0F       		.byte	0xf
 9708 0d77 A1       		.byte	0xa1
 9709 0d78 120D0000 		.4byte	0xd12
 9710 0d7c 0F       		.uleb128 0xf
 9711 0d7d 01       		.byte	0x1
 9712 0d7e 42000000 		.4byte	0x42
 9713 0d82 0E       		.byte	0xe
 9714 0d83 3D       		.byte	0x3d
 9715 0d84 9B0D0000 		.4byte	0xd9b
 9716 0d88 10       		.uleb128 0x10
 9717 0d89 800F0000 		.4byte	.LASF215
 9718 0d8d 00       		.byte	0
 9719 0d8e 10       		.uleb128 0x10
 9720 0d8f F1060000 		.4byte	.LASF216
 9721 0d93 01       		.byte	0x1
 9722 0d94 10       		.uleb128 0x10
 9723 0d95 96070000 		.4byte	.LASF217
 9724 0d99 02       		.byte	0x2
 9725 0d9a 00       		.byte	0
 9726 0d9b 02       		.uleb128 0x2
 9727 0d9c 0D110000 		.4byte	.LASF218
 9728 0da0 0E       		.byte	0xe
 9729 0da1 42       		.byte	0x42
 9730 0da2 AD000000 		.4byte	0xad
 9731 0da6 02       		.uleb128 0x2
 9732 0da7 F31B0000 		.4byte	.LASF219
 9733 0dab 0E       		.byte	0xe
 9734 0dac 48       		.byte	0x48
 9735 0dad B10D0000 		.4byte	0xdb1
 9736 0db1 0D       		.uleb128 0xd
 9737 0db2 04       		.byte	0x4
 9738 0db3 B70D0000 		.4byte	0xdb7
 9739 0db7 0B       		.uleb128 0xb
 9740 0db8 BF010000 		.4byte	0x1bf
 9741 0dbc D00D0000 		.4byte	0xdd0
 9742 0dc0 0C       		.uleb128 0xc
 9743 0dc1 6A0A0000 		.4byte	0xa6a
 9744 0dc5 0C       		.uleb128 0xc
 9745 0dc6 08080000 		.4byte	0x808
ARM GAS  C:\Users\tmj32\AppData\Local\Temp\ccxLNxq9.s 			page 221


 9746 0dca 0C       		.uleb128 0xc
 9747 0dcb 9B0D0000 		.4byte	0xd9b
 9748 0dcf 00       		.byte	0
 9749 0dd0 0F       		.uleb128 0xf
 9750 0dd1 01       		.byte	0x1
 9751 0dd2 42000000 		.4byte	0x42
 9752 0dd6 0E       		.byte	0xe
 9753 0dd7 4A       		.byte	0x4a
 9754 0dd8 550E0000 		.4byte	0xe55
 9755 0ddc 10       		.uleb128 0x10
 9756 0ddd A4110000 		.4byte	.LASF220
 9757 0de1 00       		.byte	0
 9758 0de2 10       		.uleb128 0x10
 9759 0de3 B80F0000 		.4byte	.LASF221
 9760 0de7 01       		.byte	0x1
 9761 0de8 10       		.uleb128 0x10
 9762 0de9 D01A0000 		.4byte	.LASF222
 9763 0ded 02       		.byte	0x2
 9764 0dee 10       		.uleb128 0x10
 9765 0def 11030000 		.4byte	.LASF223
 9766 0df3 03       		.byte	0x3
 9767 0df4 10       		.uleb128 0x10
 9768 0df5 AD020000 		.4byte	.LASF224
 9769 0df9 04       		.byte	0x4
 9770 0dfa 10       		.uleb128 0x10
 9771 0dfb 27100000 		.4byte	.LASF225
 9772 0dff 05       		.byte	0x5
 9773 0e00 10       		.uleb128 0x10
 9774 0e01 22090000 		.4byte	.LASF226
 9775 0e05 06       		.byte	0x6
 9776 0e06 10       		.uleb128 0x10
 9777 0e07 E11B0000 		.4byte	.LASF227
 9778 0e0b 07       		.byte	0x7
 9779 0e0c 10       		.uleb128 0x10
 9780 0e0d 47080000 		.4byte	.LASF228
 9781 0e11 08       		.byte	0x8
 9782 0e12 10       		.uleb128 0x10
 9783 0e13 24110000 		.4byte	.LASF229
 9784 0e17 09       		.byte	0x9
 9785 0e18 10       		.uleb128 0x10
 9786 0e19 6D090000 		.4byte	.LASF230
 9787 0e1d 0A       		.byte	0xa
 9788 0e1e 10       		.uleb128 0x10
 9789 0e1f 951A0000 		.4byte	.LASF231
 9790 0e23 0B       		.byte	0xb
 9791 0e24 10       		.uleb128 0x10
 9792 0e25 22080000 		.4byte	.LASF232
 9793 0e29 0C       		.byte	0xc
 9794 0e2a 10       		.uleb128 0x10
 9795 0e2b 1B190000 		.4byte	.LASF233
 9796 0e2f 0D       		.byte	0xd
 9797 0e30 10       		.uleb128 0x10
 9798 0e31 300F0000 		.4byte	.LASF234
 9799 0e35 0E       		.byte	0xe
 9800 0e36 10       		.uleb128 0x10
 9801 0e37 F6000000 		.4byte	.LASF235
 9802 0e3b 0F       		.byte	0xf
ARM GAS  C:\Users\tmj32\AppData\Local\Temp\ccxLNxq9.s 			page 222


 9803 0e3c 10       		.uleb128 0x10
 9804 0e3d 140B0000 		.4byte	.LASF236
 9805 0e41 10       		.byte	0x10
 9806 0e42 10       		.uleb128 0x10
 9807 0e43 4B090000 		.4byte	.LASF237
 9808 0e47 11       		.byte	0x11
 9809 0e48 10       		.uleb128 0x10
 9810 0e49 CF110000 		.4byte	.LASF238
 9811 0e4d 12       		.byte	0x12
 9812 0e4e 10       		.uleb128 0x10
 9813 0e4f 460E0000 		.4byte	.LASF239
 9814 0e53 13       		.byte	0x13
 9815 0e54 00       		.byte	0
 9816 0e55 02       		.uleb128 0x2
 9817 0e56 17020000 		.4byte	.LASF240
 9818 0e5a 0E       		.byte	0xe
 9819 0e5b 61       		.byte	0x61
 9820 0e5c AD000000 		.4byte	0xad
 9821 0e60 02       		.uleb128 0x2
 9822 0e61 E3070000 		.4byte	.LASF241
 9823 0e65 0E       		.byte	0xe
 9824 0e66 68       		.byte	0x68
 9825 0e67 6B0E0000 		.4byte	0xe6b
 9826 0e6b 0D       		.uleb128 0xd
 9827 0e6c 04       		.byte	0x4
 9828 0e6d 710E0000 		.4byte	0xe71
 9829 0e71 15       		.uleb128 0x15
 9830 0e72 810E0000 		.4byte	0xe81
 9831 0e76 0C       		.uleb128 0xc
 9832 0e77 6A0A0000 		.4byte	0xa6a
 9833 0e7b 0C       		.uleb128 0xc
 9834 0e7c 550E0000 		.4byte	0xe55
 9835 0e80 00       		.byte	0
 9836 0e81 0F       		.uleb128 0xf
 9837 0e82 01       		.byte	0x1
 9838 0e83 42000000 		.4byte	0x42
 9839 0e87 0E       		.byte	0xe
 9840 0e88 6D       		.byte	0x6d
 9841 0e89 060F0000 		.4byte	0xf06
 9842 0e8d 10       		.uleb128 0x10
 9843 0e8e DF0D0000 		.4byte	.LASF242
 9844 0e92 00       		.byte	0
 9845 0e93 10       		.uleb128 0x10
 9846 0e94 770E0000 		.4byte	.LASF243
 9847 0e98 01       		.byte	0x1
 9848 0e99 10       		.uleb128 0x10
 9849 0e9a 8C170000 		.4byte	.LASF244
 9850 0e9e 02       		.byte	0x2
 9851 0e9f 10       		.uleb128 0x10
 9852 0ea0 B5110000 		.4byte	.LASF245
 9853 0ea4 03       		.byte	0x3
 9854 0ea5 10       		.uleb128 0x10
 9855 0ea6 B1000000 		.4byte	.LASF246
 9856 0eaa 04       		.byte	0x4
 9857 0eab 10       		.uleb128 0x10
 9858 0eac F2180000 		.4byte	.LASF247
 9859 0eb0 05       		.byte	0x5
ARM GAS  C:\Users\tmj32\AppData\Local\Temp\ccxLNxq9.s 			page 223


 9860 0eb1 10       		.uleb128 0x10
 9861 0eb2 B3050000 		.4byte	.LASF248
 9862 0eb6 06       		.byte	0x6
 9863 0eb7 10       		.uleb128 0x10
 9864 0eb8 B7090000 		.4byte	.LASF249
 9865 0ebc 07       		.byte	0x7
 9866 0ebd 10       		.uleb128 0x10
 9867 0ebe 71020000 		.4byte	.LASF250
 9868 0ec2 08       		.byte	0x8
 9869 0ec3 10       		.uleb128 0x10
 9870 0ec4 E60F0000 		.4byte	.LASF251
 9871 0ec8 09       		.byte	0x9
 9872 0ec9 10       		.uleb128 0x10
 9873 0eca 58110000 		.4byte	.LASF252
 9874 0ece 0A       		.byte	0xa
 9875 0ecf 10       		.uleb128 0x10
 9876 0ed0 DF110000 		.4byte	.LASF253
 9877 0ed4 0B       		.byte	0xb
 9878 0ed5 10       		.uleb128 0x10
 9879 0ed6 5F010000 		.4byte	.LASF254
 9880 0eda 0C       		.byte	0xc
 9881 0edb 10       		.uleb128 0x10
 9882 0edc 77050000 		.4byte	.LASF255
 9883 0ee0 0D       		.byte	0xd
 9884 0ee1 10       		.uleb128 0x10
 9885 0ee2 CC010000 		.4byte	.LASF256
 9886 0ee6 0E       		.byte	0xe
 9887 0ee7 10       		.uleb128 0x10
 9888 0ee8 91110000 		.4byte	.LASF257
 9889 0eec 0F       		.byte	0xf
 9890 0eed 10       		.uleb128 0x10
 9891 0eee FB0A0000 		.4byte	.LASF258
 9892 0ef2 10       		.byte	0x10
 9893 0ef3 10       		.uleb128 0x10
 9894 0ef4 FA070000 		.4byte	.LASF259
 9895 0ef8 11       		.byte	0x11
 9896 0ef9 10       		.uleb128 0x10
 9897 0efa 220D0000 		.4byte	.LASF260
 9898 0efe 12       		.byte	0x12
 9899 0eff 10       		.uleb128 0x10
 9900 0f00 9E0B0000 		.4byte	.LASF261
 9901 0f04 13       		.byte	0x13
 9902 0f05 00       		.byte	0
 9903 0f06 02       		.uleb128 0x2
 9904 0f07 80120000 		.4byte	.LASF262
 9905 0f0b 0E       		.byte	0xe
 9906 0f0c 88       		.byte	0x88
 9907 0f0d AD000000 		.4byte	0xad
 9908 0f11 02       		.uleb128 0x2
 9909 0f12 7D060000 		.4byte	.LASF263
 9910 0f16 0E       		.byte	0xe
 9911 0f17 8A       		.byte	0x8a
 9912 0f18 1C0F0000 		.4byte	0xf1c
 9913 0f1c 0D       		.uleb128 0xd
 9914 0f1d 04       		.byte	0x4
 9915 0f1e 220F0000 		.4byte	0xf22
 9916 0f22 0B       		.uleb128 0xb
ARM GAS  C:\Users\tmj32\AppData\Local\Temp\ccxLNxq9.s 			page 224


 9917 0f23 EF050000 		.4byte	0x5ef
 9918 0f27 3B0F0000 		.4byte	0xf3b
 9919 0f2b 0C       		.uleb128 0xc
 9920 0f2c 6A0A0000 		.4byte	0xa6a
 9921 0f30 0C       		.uleb128 0xc
 9922 0f31 060F0000 		.4byte	0xf06
 9923 0f35 0C       		.uleb128 0xc
 9924 0f36 E4000000 		.4byte	0xe4
 9925 0f3a 00       		.byte	0
 9926 0f3b 0F       		.uleb128 0xf
 9927 0f3c 01       		.byte	0x1
 9928 0f3d 42000000 		.4byte	0x42
 9929 0f41 0E       		.byte	0xe
 9930 0f42 8D       		.byte	0x8d
 9931 0f43 C60F0000 		.4byte	0xfc6
 9932 0f47 10       		.uleb128 0x10
 9933 0f48 200F0000 		.4byte	.LASF264
 9934 0f4c 00       		.byte	0
 9935 0f4d 10       		.uleb128 0x10
 9936 0f4e 4F160000 		.4byte	.LASF265
 9937 0f52 01       		.byte	0x1
 9938 0f53 10       		.uleb128 0x10
 9939 0f54 1A120000 		.4byte	.LASF266
 9940 0f58 02       		.byte	0x2
 9941 0f59 10       		.uleb128 0x10
 9942 0f5a 0C0D0000 		.4byte	.LASF267
 9943 0f5e 03       		.byte	0x3
 9944 0f5f 10       		.uleb128 0x10
 9945 0f60 0C0E0000 		.4byte	.LASF268
 9946 0f64 04       		.byte	0x4
 9947 0f65 10       		.uleb128 0x10
 9948 0f66 1F040000 		.4byte	.LASF269
 9949 0f6a 05       		.byte	0x5
 9950 0f6b 10       		.uleb128 0x10
 9951 0f6c AF100000 		.4byte	.LASF270
 9952 0f70 06       		.byte	0x6
 9953 0f71 10       		.uleb128 0x10
 9954 0f72 99180000 		.4byte	.LASF271
 9955 0f76 07       		.byte	0x7
 9956 0f77 10       		.uleb128 0x10
 9957 0f78 C7150000 		.4byte	.LASF272
 9958 0f7c 08       		.byte	0x8
 9959 0f7d 10       		.uleb128 0x10
 9960 0f7e EA100000 		.4byte	.LASF273
 9961 0f82 09       		.byte	0x9
 9962 0f83 10       		.uleb128 0x10
 9963 0f84 5B190000 		.4byte	.LASF274
 9964 0f88 0A       		.byte	0xa
 9965 0f89 10       		.uleb128 0x10
 9966 0f8a 63170000 		.4byte	.LASF275
 9967 0f8e 0B       		.byte	0xb
 9968 0f8f 10       		.uleb128 0x10
 9969 0f90 070C0000 		.4byte	.LASF276
 9970 0f94 0C       		.byte	0xc
 9971 0f95 10       		.uleb128 0x10
 9972 0f96 370A0000 		.4byte	.LASF277
 9973 0f9a 0D       		.byte	0xd
ARM GAS  C:\Users\tmj32\AppData\Local\Temp\ccxLNxq9.s 			page 225


 9974 0f9b 10       		.uleb128 0x10
 9975 0f9c 9D090000 		.4byte	.LASF278
 9976 0fa0 0E       		.byte	0xe
 9977 0fa1 10       		.uleb128 0x10
 9978 0fa2 F2190000 		.4byte	.LASF279
 9979 0fa6 0F       		.byte	0xf
 9980 0fa7 10       		.uleb128 0x10
 9981 0fa8 80070000 		.4byte	.LASF280
 9982 0fac 10       		.byte	0x10
 9983 0fad 10       		.uleb128 0x10
 9984 0fae ED0C0000 		.4byte	.LASF281
 9985 0fb2 11       		.byte	0x11
 9986 0fb3 10       		.uleb128 0x10
 9987 0fb4 FA120000 		.4byte	.LASF282
 9988 0fb8 12       		.byte	0x12
 9989 0fb9 10       		.uleb128 0x10
 9990 0fba 5A020000 		.4byte	.LASF283
 9991 0fbe 13       		.byte	0x13
 9992 0fbf 10       		.uleb128 0x10
 9993 0fc0 F4090000 		.4byte	.LASF284
 9994 0fc4 14       		.byte	0x14
 9995 0fc5 00       		.byte	0
 9996 0fc6 02       		.uleb128 0x2
 9997 0fc7 AA010000 		.4byte	.LASF285
 9998 0fcb 0E       		.byte	0xe
 9999 0fcc A4       		.byte	0xa4
 10000 0fcd AD000000 		.4byte	0xad
 10001 0fd1 06       		.uleb128 0x6
 10002 0fd2 0C       		.byte	0xc
 10003 0fd3 0E       		.byte	0xe
 10004 0fd4 A7       		.byte	0xa7
 10005 0fd5 28100000 		.4byte	0x1028
 10006 0fd9 07       		.uleb128 0x7
 10007 0fda E6160000 		.4byte	.LASF286
 10008 0fde 0E       		.byte	0xe
 10009 0fdf A9       		.byte	0xa9
 10010 0fe0 28100000 		.4byte	0x1028
 10011 0fe4 00       		.byte	0
 10012 0fe5 07       		.uleb128 0x7
 10013 0fe6 07160000 		.4byte	.LASF287
 10014 0fea 0E       		.byte	0xe
 10015 0feb AA       		.byte	0xaa
 10016 0fec D9000000 		.4byte	0xd9
 10017 0ff0 04       		.byte	0x4
 10018 0ff1 07       		.uleb128 0x7
 10019 0ff2 52130000 		.4byte	.LASF288
 10020 0ff6 0E       		.byte	0xe
 10021 0ff7 AB       		.byte	0xab
 10022 0ff8 D9000000 		.4byte	0xd9
 10023 0ffc 06       		.byte	0x6
 10024 0ffd 07       		.uleb128 0x7
 10025 0ffe F80D0000 		.4byte	.LASF289
 10026 1002 0E       		.byte	0xe
 10027 1003 AC       		.byte	0xac
 10028 1004 C60F0000 		.4byte	0xfc6
 10029 1008 08       		.byte	0x8
 10030 1009 0A       		.uleb128 0xa
ARM GAS  C:\Users\tmj32\AppData\Local\Temp\ccxLNxq9.s 			page 226


 10031 100a 5F0F0000 		.4byte	.LASF290
 10032 100e 0E       		.byte	0xe
 10033 100f AD       		.byte	0xad
 10034 1010 AD000000 		.4byte	0xad
 10035 1014 01       		.byte	0x1
 10036 1015 01       		.byte	0x1
 10037 1016 07       		.byte	0x7
 10038 1017 09       		.byte	0x9
 10039 1018 0A       		.uleb128 0xa
 10040 1019 491B0000 		.4byte	.LASF291
 10041 101d 0E       		.byte	0xe
 10042 101e AE       		.byte	0xae
 10043 101f AD000000 		.4byte	0xad
 10044 1023 01       		.byte	0x1
 10045 1024 01       		.byte	0x1
 10046 1025 06       		.byte	0x6
 10047 1026 09       		.byte	0x9
 10048 1027 00       		.byte	0
 10049 1028 0D       		.uleb128 0xd
 10050 1029 04       		.byte	0x4
 10051 102a 2E100000 		.4byte	0x102e
 10052 102e 0E       		.uleb128 0xe
 10053 102f 28090000 		.4byte	0x928
 10054 1033 02       		.uleb128 0x2
 10055 1034 7B010000 		.4byte	.LASF292
 10056 1038 0E       		.byte	0xe
 10057 1039 B0       		.byte	0xb0
 10058 103a D10F0000 		.4byte	0xfd1
 10059 103e 0F       		.uleb128 0xf
 10060 103f 01       		.byte	0x1
 10061 1040 42000000 		.4byte	0x42
 10062 1044 0E       		.byte	0xe
 10063 1045 B3       		.byte	0xb3
 10064 1046 5D100000 		.4byte	0x105d
 10065 104a 10       		.uleb128 0x10
 10066 104b 7B030000 		.4byte	.LASF293
 10067 104f 01       		.byte	0x1
 10068 1050 10       		.uleb128 0x10
 10069 1051 44100000 		.4byte	.LASF294
 10070 1055 02       		.byte	0x2
 10071 1056 10       		.uleb128 0x10
 10072 1057 04100000 		.4byte	.LASF295
 10073 105b 03       		.byte	0x3
 10074 105c 00       		.byte	0
 10075 105d 02       		.uleb128 0x2
 10076 105e 96100000 		.4byte	.LASF296
 10077 1062 0E       		.byte	0xe
 10078 1063 B9       		.byte	0xb9
 10079 1064 AD000000 		.4byte	0xad
 10080 1068 0D       		.uleb128 0xd
 10081 1069 04       		.byte	0x4
 10082 106a 6E100000 		.4byte	0x106e
 10083 106e 0E       		.uleb128 0xe
 10084 106f C5050000 		.4byte	0x5c5
 10085 1073 02       		.uleb128 0x2
 10086 1074 19160000 		.4byte	.LASF297
 10087 1078 0E       		.byte	0xe
ARM GAS  C:\Users\tmj32\AppData\Local\Temp\ccxLNxq9.s 			page 227


 10088 1079 F0       		.byte	0xf0
 10089 107a 28090000 		.4byte	0x928
 10090 107e 0F       		.uleb128 0xf
 10091 107f 01       		.byte	0x1
 10092 1080 42000000 		.4byte	0x42
 10093 1084 0E       		.byte	0xe
 10094 1085 F3       		.byte	0xf3
 10095 1086 B5100000 		.4byte	0x10b5
 10096 108a 10       		.uleb128 0x10
 10097 108b DA100000 		.4byte	.LASF298
 10098 108f 00       		.byte	0
 10099 1090 10       		.uleb128 0x10
 10100 1091 89160000 		.4byte	.LASF299
 10101 1095 01       		.byte	0x1
 10102 1096 10       		.uleb128 0x10
 10103 1097 FB050000 		.4byte	.LASF300
 10104 109b 02       		.byte	0x2
 10105 109c 10       		.uleb128 0x10
 10106 109d A2000000 		.4byte	.LASF301
 10107 10a1 04       		.byte	0x4
 10108 10a2 10       		.uleb128 0x10
 10109 10a3 EC080000 		.4byte	.LASF302
 10110 10a7 08       		.byte	0x8
 10111 10a8 10       		.uleb128 0x10
 10112 10a9 9E160000 		.4byte	.LASF303
 10113 10ad 10       		.byte	0x10
 10114 10ae 10       		.uleb128 0x10
 10115 10af E3120000 		.4byte	.LASF304
 10116 10b3 20       		.byte	0x20
 10117 10b4 00       		.byte	0
 10118 10b5 1E       		.uleb128 0x1e
 10119 10b6 20       		.byte	0x20
 10120 10b7 0E       		.byte	0xe
 10121 10b8 0101     		.2byte	0x101
 10122 10ba CC100000 		.4byte	0x10cc
 10123 10be 1F       		.uleb128 0x1f
 10124 10bf 94020000 		.4byte	.LASF69
 10125 10c3 0E       		.byte	0xe
 10126 10c4 0301     		.2byte	0x103
 10127 10c6 CC100000 		.4byte	0x10cc
 10128 10ca 00       		.byte	0
 10129 10cb 00       		.byte	0
 10130 10cc 1B       		.uleb128 0x1b
 10131 10cd F0020000 		.4byte	0x2f0
 10132 10d1 DC100000 		.4byte	0x10dc
 10133 10d5 1C       		.uleb128 0x1c
 10134 10d6 E2020000 		.4byte	0x2e2
 10135 10da 07       		.byte	0x7
 10136 10db 00       		.byte	0
 10137 10dc 14       		.uleb128 0x14
 10138 10dd C71B0000 		.4byte	.LASF305
 10139 10e1 0E       		.byte	0xe
 10140 10e2 0501     		.2byte	0x105
 10141 10e4 B5100000 		.4byte	0x10b5
 10142 10e8 06       		.uleb128 0x6
 10143 10e9 14       		.byte	0x14
 10144 10ea 10       		.byte	0x10
ARM GAS  C:\Users\tmj32\AppData\Local\Temp\ccxLNxq9.s 			page 228


 10145 10eb 34       		.byte	0x34
 10146 10ec 2C110000 		.4byte	0x112c
 10147 10f0 08       		.uleb128 0x8
 10148 10f1 72656C00 		.ascii	"rel\000"
 10149 10f5 10       		.byte	0x10
 10150 10f6 36       		.byte	0x36
 10151 10f7 D0050000 		.4byte	0x5d0
 10152 10fb 00       		.byte	0
 10153 10fc 08       		.uleb128 0x8
 10154 10fd 707200   		.ascii	"pr\000"
 10155 1100 10       		.byte	0x10
 10156 1101 37       		.byte	0x37
 10157 1102 D0050000 		.4byte	0x5d0
 10158 1106 04       		.byte	0x4
 10159 1107 07       		.uleb128 0x7
 10160 1108 F90E0000 		.4byte	.LASF306
 10161 110c 10       		.byte	0x10
 10162 110d 38       		.byte	0x38
 10163 110e D0050000 		.4byte	0x5d0
 10164 1112 08       		.byte	0x8
 10165 1113 07       		.uleb128 0x7
 10166 1114 55050000 		.4byte	.LASF307
 10167 1118 10       		.byte	0x10
 10168 1119 39       		.byte	0x39
 10169 111a D0050000 		.4byte	0x5d0
 10170 111e 0C       		.byte	0xc
 10171 111f 08       		.uleb128 0x8
 10172 1120 696E6100 		.ascii	"ina\000"
 10173 1124 10       		.byte	0x10
 10174 1125 3A       		.byte	0x3a
 10175 1126 D0050000 		.4byte	0x5d0
 10176 112a 10       		.byte	0x10
 10177 112b 00       		.byte	0
 10178 112c 06       		.uleb128 0x6
 10179 112d 14       		.byte	0x14
 10180 112e 10       		.byte	0x10
 10181 112f 3F       		.byte	0x3f
 10182 1130 70110000 		.4byte	0x1170
 10183 1134 08       		.uleb128 0x8
 10184 1135 72656C00 		.ascii	"rel\000"
 10185 1139 10       		.byte	0x10
 10186 113a 41       		.byte	0x41
 10187 113b D0050000 		.4byte	0x5d0
 10188 113f 00       		.byte	0
 10189 1140 08       		.uleb128 0x8
 10190 1141 707200   		.ascii	"pr\000"
 10191 1144 10       		.byte	0x10
 10192 1145 42       		.byte	0x42
 10193 1146 D0050000 		.4byte	0x5d0
 10194 114a 04       		.byte	0x4
 10195 114b 07       		.uleb128 0x7
 10196 114c F90E0000 		.4byte	.LASF306
 10197 1150 10       		.byte	0x10
 10198 1151 43       		.byte	0x43
 10199 1152 D0050000 		.4byte	0x5d0
 10200 1156 08       		.byte	0x8
 10201 1157 07       		.uleb128 0x7
ARM GAS  C:\Users\tmj32\AppData\Local\Temp\ccxLNxq9.s 			page 229


 10202 1158 55050000 		.4byte	.LASF307
 10203 115c 10       		.byte	0x10
 10204 115d 44       		.byte	0x44
 10205 115e D0050000 		.4byte	0x5d0
 10206 1162 0C       		.byte	0xc
 10207 1163 08       		.uleb128 0x8
 10208 1164 696E6100 		.ascii	"ina\000"
 10209 1168 10       		.byte	0x10
 10210 1169 45       		.byte	0x45
 10211 116a D0050000 		.4byte	0x5d0
 10212 116e 10       		.byte	0x10
 10213 116f 00       		.byte	0
 10214 1170 06       		.uleb128 0x6
 10215 1171 0C       		.byte	0xc
 10216 1172 10       		.byte	0x10
 10217 1173 4A       		.byte	0x4a
 10218 1174 9D110000 		.4byte	0x119d
 10219 1178 07       		.uleb128 0x7
 10220 1179 FA020000 		.4byte	.LASF308
 10221 117d 10       		.byte	0x10
 10222 117e 4C       		.byte	0x4c
 10223 117f D0050000 		.4byte	0x5d0
 10224 1183 00       		.byte	0
 10225 1184 08       		.uleb128 0x8
 10226 1185 73656300 		.ascii	"sec\000"
 10227 1189 10       		.byte	0x10
 10228 118a 4D       		.byte	0x4d
 10229 118b D0050000 		.4byte	0x5d0
 10230 118f 04       		.byte	0x4
 10231 1190 07       		.uleb128 0x7
 10232 1191 860A0000 		.4byte	.LASF309
 10233 1195 10       		.byte	0x10
 10234 1196 4E       		.byte	0x4e
 10235 1197 D0050000 		.4byte	0x5d0
 10236 119b 08       		.byte	0x8
 10237 119c 00       		.byte	0
 10238 119d 06       		.uleb128 0x6
 10239 119e 08       		.byte	0x8
 10240 119f 10       		.byte	0x10
 10241 11a0 53       		.byte	0x53
 10242 11a1 BE110000 		.4byte	0x11be
 10243 11a5 07       		.uleb128 0x7
 10244 11a6 DF020000 		.4byte	.LASF310
 10245 11aa 10       		.byte	0x10
 10246 11ab 55       		.byte	0x55
 10247 11ac D0050000 		.4byte	0x5d0
 10248 11b0 00       		.byte	0
 10249 11b1 07       		.uleb128 0x7
 10250 11b2 321A0000 		.4byte	.LASF311
 10251 11b6 10       		.byte	0x10
 10252 11b7 56       		.byte	0x56
 10253 11b8 D0050000 		.4byte	0x5d0
 10254 11bc 04       		.byte	0x4
 10255 11bd 00       		.byte	0
 10256 11be 06       		.uleb128 0x6
 10257 11bf 04       		.byte	0x4
 10258 11c0 10       		.byte	0x10
ARM GAS  C:\Users\tmj32\AppData\Local\Temp\ccxLNxq9.s 			page 230


 10259 11c1 5B       		.byte	0x5b
 10260 11c2 D3110000 		.4byte	0x11d3
 10261 11c6 07       		.uleb128 0x7
 10262 11c7 0D150000 		.4byte	.LASF312
 10263 11cb 10       		.byte	0x10
 10264 11cc 5D       		.byte	0x5d
 10265 11cd D0050000 		.4byte	0x5d0
 10266 11d1 00       		.byte	0
 10267 11d2 00       		.byte	0
 10268 11d3 06       		.uleb128 0x6
 10269 11d4 08       		.byte	0x8
 10270 11d5 10       		.byte	0x10
 10271 11d6 66       		.byte	0x66
 10272 11d7 F3110000 		.4byte	0x11f3
 10273 11db 08       		.uleb128 0x8
 10274 11dc 626700   		.ascii	"bg\000"
 10275 11df 10       		.byte	0x10
 10276 11e0 68       		.byte	0x68
 10277 11e1 D0050000 		.4byte	0x5d0
 10278 11e5 00       		.byte	0
 10279 11e6 07       		.uleb128 0x7
 10280 11e7 440D0000 		.4byte	.LASF313
 10281 11eb 10       		.byte	0x10
 10282 11ec 69       		.byte	0x69
 10283 11ed D0050000 		.4byte	0x5d0
 10284 11f1 04       		.byte	0x4
 10285 11f2 00       		.byte	0
 10286 11f3 06       		.uleb128 0x6
 10287 11f4 0C       		.byte	0xc
 10288 11f5 10       		.byte	0x10
 10289 11f6 6E       		.byte	0x6e
 10290 11f7 1F120000 		.4byte	0x121f
 10291 11fb 08       		.uleb128 0x8
 10292 11fc 626700   		.ascii	"bg\000"
 10293 11ff 10       		.byte	0x10
 10294 1200 70       		.byte	0x70
 10295 1201 D0050000 		.4byte	0x5d0
 10296 1205 00       		.byte	0
 10297 1206 07       		.uleb128 0x7
 10298 1207 440D0000 		.4byte	.LASF313
 10299 120b 10       		.byte	0x10
 10300 120c 71       		.byte	0x71
 10301 120d D0050000 		.4byte	0x5d0
 10302 1211 04       		.byte	0x4
 10303 1212 07       		.uleb128 0x7
 10304 1213 551B0000 		.4byte	.LASF314
 10305 1217 10       		.byte	0x10
 10306 1218 72       		.byte	0x72
 10307 1219 D0050000 		.4byte	0x5d0
 10308 121d 08       		.byte	0x8
 10309 121e 00       		.byte	0
 10310 121f 06       		.uleb128 0x6
 10311 1220 10       		.byte	0x10
 10312 1221 10       		.byte	0x10
 10313 1222 87       		.byte	0x87
 10314 1223 57120000 		.4byte	0x1257
 10315 1227 08       		.uleb128 0x8
ARM GAS  C:\Users\tmj32\AppData\Local\Temp\ccxLNxq9.s 			page 231


 10316 1228 626700   		.ascii	"bg\000"
 10317 122b 10       		.byte	0x10
 10318 122c 89       		.byte	0x89
 10319 122d D0050000 		.4byte	0x5d0
 10320 1231 00       		.byte	0
 10321 1232 07       		.uleb128 0x7
 10322 1233 440D0000 		.4byte	.LASF313
 10323 1237 10       		.byte	0x10
 10324 1238 8A       		.byte	0x8a
 10325 1239 D0050000 		.4byte	0x5d0
 10326 123d 04       		.byte	0x4
 10327 123e 07       		.uleb128 0x7
 10328 123f D70F0000 		.4byte	.LASF315
 10329 1243 10       		.byte	0x10
 10330 1244 8B       		.byte	0x8b
 10331 1245 D0050000 		.4byte	0x5d0
 10332 1249 08       		.byte	0x8
 10333 124a 07       		.uleb128 0x7
 10334 124b 1C060000 		.4byte	.LASF316
 10335 124f 10       		.byte	0x10
 10336 1250 8C       		.byte	0x8c
 10337 1251 D0050000 		.4byte	0x5d0
 10338 1255 0C       		.byte	0xc
 10339 1256 00       		.byte	0
 10340 1257 06       		.uleb128 0x6
 10341 1258 20       		.byte	0x20
 10342 1259 10       		.byte	0x10
 10343 125a 95       		.byte	0x95
 10344 125b BF120000 		.4byte	0x12bf
 10345 125f 08       		.uleb128 0x8
 10346 1260 626700   		.ascii	"bg\000"
 10347 1263 10       		.byte	0x10
 10348 1264 97       		.byte	0x97
 10349 1265 D0050000 		.4byte	0x5d0
 10350 1269 00       		.byte	0
 10351 126a 07       		.uleb128 0x7
 10352 126b 43060000 		.4byte	.LASF317
 10353 126f 10       		.byte	0x10
 10354 1270 98       		.byte	0x98
 10355 1271 D0050000 		.4byte	0x5d0
 10356 1275 04       		.byte	0x4
 10357 1276 07       		.uleb128 0x7
 10358 1277 2B000000 		.4byte	.LASF318
 10359 127b 10       		.byte	0x10
 10360 127c 99       		.byte	0x99
 10361 127d D0050000 		.4byte	0x5d0
 10362 1281 08       		.byte	0x8
 10363 1282 07       		.uleb128 0x7
 10364 1283 F2170000 		.4byte	.LASF319
 10365 1287 10       		.byte	0x10
 10366 1288 9A       		.byte	0x9a
 10367 1289 D0050000 		.4byte	0x5d0
 10368 128d 0C       		.byte	0xc
 10369 128e 07       		.uleb128 0x7
 10370 128f E1010000 		.4byte	.LASF320
 10371 1293 10       		.byte	0x10
 10372 1294 9B       		.byte	0x9b
ARM GAS  C:\Users\tmj32\AppData\Local\Temp\ccxLNxq9.s 			page 232


 10373 1295 D0050000 		.4byte	0x5d0
 10374 1299 10       		.byte	0x10
 10375 129a 07       		.uleb128 0x7
 10376 129b 39130000 		.4byte	.LASF321
 10377 129f 10       		.byte	0x10
 10378 12a0 9C       		.byte	0x9c
 10379 12a1 D0050000 		.4byte	0x5d0
 10380 12a5 14       		.byte	0x14
 10381 12a6 07       		.uleb128 0x7
 10382 12a7 61070000 		.4byte	.LASF322
 10383 12ab 10       		.byte	0x10
 10384 12ac 9D       		.byte	0x9d
 10385 12ad D0050000 		.4byte	0x5d0
 10386 12b1 18       		.byte	0x18
 10387 12b2 07       		.uleb128 0x7
 10388 12b3 3C050000 		.4byte	.LASF323
 10389 12b7 10       		.byte	0x10
 10390 12b8 9E       		.byte	0x9e
 10391 12b9 D0050000 		.4byte	0x5d0
 10392 12bd 1C       		.byte	0x1c
 10393 12be 00       		.byte	0
 10394 12bf 06       		.uleb128 0x6
 10395 12c0 14       		.byte	0x14
 10396 12c1 10       		.byte	0x10
 10397 12c2 A6       		.byte	0xa6
 10398 12c3 03130000 		.4byte	0x1303
 10399 12c7 08       		.uleb128 0x8
 10400 12c8 72656C00 		.ascii	"rel\000"
 10401 12cc 10       		.byte	0x10
 10402 12cd A8       		.byte	0xa8
 10403 12ce D0050000 		.4byte	0x5d0
 10404 12d2 00       		.byte	0
 10405 12d3 08       		.uleb128 0x8
 10406 12d4 707200   		.ascii	"pr\000"
 10407 12d7 10       		.byte	0x10
 10408 12d8 A9       		.byte	0xa9
 10409 12d9 D0050000 		.4byte	0x5d0
 10410 12dd 04       		.byte	0x4
 10411 12de 07       		.uleb128 0x7
 10412 12df F90E0000 		.4byte	.LASF306
 10413 12e3 10       		.byte	0x10
 10414 12e4 AA       		.byte	0xaa
 10415 12e5 D0050000 		.4byte	0x5d0
 10416 12e9 08       		.byte	0x8
 10417 12ea 07       		.uleb128 0x7
 10418 12eb 55050000 		.4byte	.LASF307
 10419 12ef 10       		.byte	0x10
 10420 12f0 AB       		.byte	0xab
 10421 12f1 D0050000 		.4byte	0x5d0
 10422 12f5 0C       		.byte	0xc
 10423 12f6 08       		.uleb128 0x8
 10424 12f7 696E6100 		.ascii	"ina\000"
 10425 12fb 10       		.byte	0x10
 10426 12fc AC       		.byte	0xac
 10427 12fd D0050000 		.4byte	0x5d0
 10428 1301 10       		.byte	0x10
 10429 1302 00       		.byte	0
ARM GAS  C:\Users\tmj32\AppData\Local\Temp\ccxLNxq9.s 			page 233


 10430 1303 06       		.uleb128 0x6
 10431 1304 18       		.byte	0x18
 10432 1305 10       		.byte	0x10
 10433 1306 A3       		.byte	0xa3
 10434 1307 23130000 		.4byte	0x1323
 10435 130b 08       		.uleb128 0x8
 10436 130c 626700   		.ascii	"bg\000"
 10437 130f 10       		.byte	0x10
 10438 1310 A5       		.byte	0xa5
 10439 1311 D0050000 		.4byte	0x5d0
 10440 1315 00       		.byte	0
 10441 1316 08       		.uleb128 0x8
 10442 1317 626F7800 		.ascii	"box\000"
 10443 131b 10       		.byte	0x10
 10444 131c AD       		.byte	0xad
 10445 131d BF120000 		.4byte	0x12bf
 10446 1321 04       		.byte	0x4
 10447 1322 00       		.byte	0
 10448 1323 06       		.uleb128 0x6
 10449 1324 14       		.byte	0x14
 10450 1325 10       		.byte	0x10
 10451 1326 B5       		.byte	0xb5
 10452 1327 67130000 		.4byte	0x1367
 10453 132b 08       		.uleb128 0x8
 10454 132c 72656C00 		.ascii	"rel\000"
 10455 1330 10       		.byte	0x10
 10456 1331 B7       		.byte	0xb7
 10457 1332 D0050000 		.4byte	0x5d0
 10458 1336 00       		.byte	0
 10459 1337 08       		.uleb128 0x8
 10460 1338 707200   		.ascii	"pr\000"
 10461 133b 10       		.byte	0x10
 10462 133c B8       		.byte	0xb8
 10463 133d D0050000 		.4byte	0x5d0
 10464 1341 04       		.byte	0x4
 10465 1342 07       		.uleb128 0x7
 10466 1343 F90E0000 		.4byte	.LASF306
 10467 1347 10       		.byte	0x10
 10468 1348 B9       		.byte	0xb9
 10469 1349 D0050000 		.4byte	0x5d0
 10470 134d 08       		.byte	0x8
 10471 134e 07       		.uleb128 0x7
 10472 134f 55050000 		.4byte	.LASF307
 10473 1353 10       		.byte	0x10
 10474 1354 BA       		.byte	0xba
 10475 1355 D0050000 		.4byte	0x5d0
 10476 1359 0C       		.byte	0xc
 10477 135a 08       		.uleb128 0x8
 10478 135b 696E6100 		.ascii	"ina\000"
 10479 135f 10       		.byte	0x10
 10480 1360 BB       		.byte	0xbb
 10481 1361 D0050000 		.4byte	0x5d0
 10482 1365 10       		.byte	0x10
 10483 1366 00       		.byte	0
 10484 1367 06       		.uleb128 0x6
 10485 1368 18       		.byte	0x18
 10486 1369 10       		.byte	0x10
ARM GAS  C:\Users\tmj32\AppData\Local\Temp\ccxLNxq9.s 			page 234


 10487 136a B2       		.byte	0xb2
 10488 136b 87130000 		.4byte	0x1387
 10489 136f 08       		.uleb128 0x8
 10490 1370 626700   		.ascii	"bg\000"
 10491 1373 10       		.byte	0x10
 10492 1374 B4       		.byte	0xb4
 10493 1375 D0050000 		.4byte	0x5d0
 10494 1379 00       		.byte	0
 10495 137a 08       		.uleb128 0x8
 10496 137b 62746E00 		.ascii	"btn\000"
 10497 137f 10       		.byte	0x10
 10498 1380 BC       		.byte	0xbc
 10499 1381 23130000 		.4byte	0x1323
 10500 1385 04       		.byte	0x4
 10501 1386 00       		.byte	0
 10502 1387 06       		.uleb128 0x6
 10503 1388 14       		.byte	0x14
 10504 1389 10       		.byte	0x10
 10505 138a C4       		.byte	0xc4
 10506 138b CB130000 		.4byte	0x13cb
 10507 138f 08       		.uleb128 0x8
 10508 1390 72656C00 		.ascii	"rel\000"
 10509 1394 10       		.byte	0x10
 10510 1395 C6       		.byte	0xc6
 10511 1396 D0050000 		.4byte	0x5d0
 10512 139a 00       		.byte	0
 10513 139b 08       		.uleb128 0x8
 10514 139c 707200   		.ascii	"pr\000"
 10515 139f 10       		.byte	0x10
 10516 13a0 C7       		.byte	0xc7
 10517 13a1 D0050000 		.4byte	0x5d0
 10518 13a5 04       		.byte	0x4
 10519 13a6 07       		.uleb128 0x7
 10520 13a7 F90E0000 		.4byte	.LASF306
 10521 13ab 10       		.byte	0x10
 10522 13ac C8       		.byte	0xc8
 10523 13ad D0050000 		.4byte	0x5d0
 10524 13b1 08       		.byte	0x8
 10525 13b2 07       		.uleb128 0x7
 10526 13b3 55050000 		.4byte	.LASF307
 10527 13b7 10       		.byte	0x10
 10528 13b8 C9       		.byte	0xc9
 10529 13b9 D0050000 		.4byte	0x5d0
 10530 13bd 0C       		.byte	0xc
 10531 13be 08       		.uleb128 0x8
 10532 13bf 696E6100 		.ascii	"ina\000"
 10533 13c3 10       		.byte	0x10
 10534 13c4 CA       		.byte	0xca
 10535 13c5 D0050000 		.4byte	0x5d0
 10536 13c9 10       		.byte	0x10
 10537 13ca 00       		.byte	0
 10538 13cb 06       		.uleb128 0x6
 10539 13cc 18       		.byte	0x18
 10540 13cd 10       		.byte	0x10
 10541 13ce C1       		.byte	0xc1
 10542 13cf EB130000 		.4byte	0x13eb
 10543 13d3 08       		.uleb128 0x8
ARM GAS  C:\Users\tmj32\AppData\Local\Temp\ccxLNxq9.s 			page 235


 10544 13d4 626700   		.ascii	"bg\000"
 10545 13d7 10       		.byte	0x10
 10546 13d8 C3       		.byte	0xc3
 10547 13d9 D0050000 		.4byte	0x5d0
 10548 13dd 00       		.byte	0
 10549 13de 08       		.uleb128 0x8
 10550 13df 62746E00 		.ascii	"btn\000"
 10551 13e3 10       		.byte	0x10
 10552 13e4 CB       		.byte	0xcb
 10553 13e5 87130000 		.4byte	0x1387
 10554 13e9 04       		.byte	0x4
 10555 13ea 00       		.byte	0
 10556 13eb 06       		.uleb128 0x6
 10557 13ec 0C       		.byte	0xc
 10558 13ed 10       		.byte	0x10
 10559 13ee D3       		.byte	0xd3
 10560 13ef 16140000 		.4byte	0x1416
 10561 13f3 08       		.uleb128 0x8
 10562 13f4 626700   		.ascii	"bg\000"
 10563 13f7 10       		.byte	0x10
 10564 13f8 D5       		.byte	0xd5
 10565 13f9 D0050000 		.4byte	0x5d0
 10566 13fd 00       		.byte	0
 10567 13fe 08       		.uleb128 0x8
 10568 13ff 72656C00 		.ascii	"rel\000"
 10569 1403 10       		.byte	0x10
 10570 1404 D6       		.byte	0xd6
 10571 1405 D0050000 		.4byte	0x5d0
 10572 1409 04       		.byte	0x4
 10573 140a 08       		.uleb128 0x8
 10574 140b 707200   		.ascii	"pr\000"
 10575 140e 10       		.byte	0x10
 10576 140f D7       		.byte	0xd7
 10577 1410 D0050000 		.4byte	0x5d0
 10578 1414 08       		.byte	0x8
 10579 1415 00       		.byte	0
 10580 1416 06       		.uleb128 0x6
 10581 1417 10       		.byte	0x10
 10582 1418 10       		.byte	0x10
 10583 1419 D0       		.byte	0xd0
 10584 141a 36140000 		.4byte	0x1436
 10585 141e 08       		.uleb128 0x8
 10586 141f 626700   		.ascii	"bg\000"
 10587 1422 10       		.byte	0x10
 10588 1423 D2       		.byte	0xd2
 10589 1424 D0050000 		.4byte	0x5d0
 10590 1428 00       		.byte	0
 10591 1429 08       		.uleb128 0x8
 10592 142a 62746E00 		.ascii	"btn\000"
 10593 142e 10       		.byte	0x10
 10594 142f D8       		.byte	0xd8
 10595 1430 EB130000 		.4byte	0x13eb
 10596 1434 04       		.byte	0x4
 10597 1435 00       		.byte	0
 10598 1436 06       		.uleb128 0x6
 10599 1437 0C       		.byte	0xc
 10600 1438 10       		.byte	0x10
ARM GAS  C:\Users\tmj32\AppData\Local\Temp\ccxLNxq9.s 			page 236


 10601 1439 DD       		.byte	0xdd
 10602 143a 61140000 		.4byte	0x1461
 10603 143e 08       		.uleb128 0x8
 10604 143f 626700   		.ascii	"bg\000"
 10605 1442 10       		.byte	0x10
 10606 1443 DF       		.byte	0xdf
 10607 1444 D0050000 		.4byte	0x5d0
 10608 1448 00       		.byte	0
 10609 1449 07       		.uleb128 0x7
 10610 144a 6D050000 		.4byte	.LASF324
 10611 144e 10       		.byte	0x10
 10612 144f E0       		.byte	0xe0
 10613 1450 D0050000 		.4byte	0x5d0
 10614 1454 04       		.byte	0x4
 10615 1455 08       		.uleb128 0x8
 10616 1456 736200   		.ascii	"sb\000"
 10617 1459 10       		.byte	0x10
 10618 145a E1       		.byte	0xe1
 10619 145b D0050000 		.4byte	0x5d0
 10620 145f 08       		.byte	0x8
 10621 1460 00       		.byte	0
 10622 1461 06       		.uleb128 0x6
 10623 1462 10       		.byte	0x10
 10624 1463 10       		.byte	0x10
 10625 1464 E6       		.byte	0xe6
 10626 1465 99140000 		.4byte	0x1499
 10627 1469 07       		.uleb128 0x7
 10628 146a DD090000 		.4byte	.LASF122
 10629 146e 10       		.byte	0x10
 10630 146f E8       		.byte	0xe8
 10631 1470 D0050000 		.4byte	0x5d0
 10632 1474 00       		.byte	0
 10633 1475 07       		.uleb128 0x7
 10634 1476 DB0B0000 		.4byte	.LASF325
 10635 147a 10       		.byte	0x10
 10636 147b E9       		.byte	0xe9
 10637 147c D0050000 		.4byte	0x5d0
 10638 1480 04       		.byte	0x4
 10639 1481 07       		.uleb128 0x7
 10640 1482 C01B0000 		.4byte	.LASF211
 10641 1486 10       		.byte	0x10
 10642 1487 EA       		.byte	0xea
 10643 1488 D0050000 		.4byte	0x5d0
 10644 148c 08       		.byte	0x8
 10645 148d 08       		.uleb128 0x8
 10646 148e 736200   		.ascii	"sb\000"
 10647 1491 10       		.byte	0x10
 10648 1492 EB       		.byte	0xeb
 10649 1493 D0050000 		.4byte	0x5d0
 10650 1497 0C       		.byte	0xc
 10651 1498 00       		.byte	0
 10652 1499 06       		.uleb128 0x6
 10653 149a 0C       		.byte	0xc
 10654 149b 10       		.byte	0x10
 10655 149c F0       		.byte	0xf0
 10656 149d C4140000 		.4byte	0x14c4
 10657 14a1 08       		.uleb128 0x8
ARM GAS  C:\Users\tmj32\AppData\Local\Temp\ccxLNxq9.s 			page 237


 10658 14a2 626700   		.ascii	"bg\000"
 10659 14a5 10       		.byte	0x10
 10660 14a6 F2       		.byte	0xf2
 10661 14a7 D0050000 		.4byte	0x5d0
 10662 14ab 00       		.byte	0
 10663 14ac 07       		.uleb128 0x7
 10664 14ad C01B0000 		.4byte	.LASF211
 10665 14b1 10       		.byte	0x10
 10666 14b2 F3       		.byte	0xf3
 10667 14b3 D0050000 		.4byte	0x5d0
 10668 14b7 04       		.byte	0x4
 10669 14b8 08       		.uleb128 0x8
 10670 14b9 736200   		.ascii	"sb\000"
 10671 14bc 10       		.byte	0x10
 10672 14bd F4       		.byte	0xf4
 10673 14be D0050000 		.4byte	0x5d0
 10674 14c2 08       		.byte	0x8
 10675 14c3 00       		.byte	0
 10676 14c4 06       		.uleb128 0x6
 10677 14c5 14       		.byte	0x14
 10678 14c6 10       		.byte	0x10
 10679 14c7 FE       		.byte	0xfe
 10680 14c8 0D150000 		.4byte	0x150d
 10681 14cc 20       		.uleb128 0x20
 10682 14cd 72656C00 		.ascii	"rel\000"
 10683 14d1 10       		.byte	0x10
 10684 14d2 0001     		.2byte	0x100
 10685 14d4 D0050000 		.4byte	0x5d0
 10686 14d8 00       		.byte	0
 10687 14d9 20       		.uleb128 0x20
 10688 14da 707200   		.ascii	"pr\000"
 10689 14dd 10       		.byte	0x10
 10690 14de 0101     		.2byte	0x101
 10691 14e0 D0050000 		.4byte	0x5d0
 10692 14e4 04       		.byte	0x4
 10693 14e5 1F       		.uleb128 0x1f
 10694 14e6 F90E0000 		.4byte	.LASF306
 10695 14ea 10       		.byte	0x10
 10696 14eb 0201     		.2byte	0x102
 10697 14ed D0050000 		.4byte	0x5d0
 10698 14f1 08       		.byte	0x8
 10699 14f2 1F       		.uleb128 0x1f
 10700 14f3 55050000 		.4byte	.LASF307
 10701 14f7 10       		.byte	0x10
 10702 14f8 0301     		.2byte	0x103
 10703 14fa D0050000 		.4byte	0x5d0
 10704 14fe 0C       		.byte	0xc
 10705 14ff 20       		.uleb128 0x20
 10706 1500 696E6100 		.ascii	"ina\000"
 10707 1504 10       		.byte	0x10
 10708 1505 0401     		.2byte	0x104
 10709 1507 D0050000 		.4byte	0x5d0
 10710 150b 10       		.byte	0x10
 10711 150c 00       		.byte	0
 10712 150d 06       		.uleb128 0x6
 10713 150e 20       		.byte	0x20
 10714 150f 10       		.byte	0x10
ARM GAS  C:\Users\tmj32\AppData\Local\Temp\ccxLNxq9.s 			page 238


 10715 1510 F9       		.byte	0xf9
 10716 1511 45150000 		.4byte	0x1545
 10717 1515 08       		.uleb128 0x8
 10718 1516 626700   		.ascii	"bg\000"
 10719 1519 10       		.byte	0x10
 10720 151a FB       		.byte	0xfb
 10721 151b D0050000 		.4byte	0x5d0
 10722 151f 00       		.byte	0
 10723 1520 07       		.uleb128 0x7
 10724 1521 6D050000 		.4byte	.LASF324
 10725 1525 10       		.byte	0x10
 10726 1526 FC       		.byte	0xfc
 10727 1527 D0050000 		.4byte	0x5d0
 10728 152b 04       		.byte	0x4
 10729 152c 08       		.uleb128 0x8
 10730 152d 736200   		.ascii	"sb\000"
 10731 1530 10       		.byte	0x10
 10732 1531 FD       		.byte	0xfd
 10733 1532 D0050000 		.4byte	0x5d0
 10734 1536 08       		.byte	0x8
 10735 1537 20       		.uleb128 0x20
 10736 1538 62746E00 		.ascii	"btn\000"
 10737 153c 10       		.byte	0x10
 10738 153d 0501     		.2byte	0x105
 10739 153f C4140000 		.4byte	0x14c4
 10740 1543 0C       		.byte	0xc
 10741 1544 00       		.byte	0
 10742 1545 1E       		.uleb128 0x1e
 10743 1546 0C       		.byte	0xc
 10744 1547 10       		.byte	0x10
 10745 1548 0A01     		.2byte	0x10a
 10746 154a 74150000 		.4byte	0x1574
 10747 154e 20       		.uleb128 0x20
 10748 154f 626700   		.ascii	"bg\000"
 10749 1552 10       		.byte	0x10
 10750 1553 0C01     		.2byte	0x10c
 10751 1555 D0050000 		.4byte	0x5d0
 10752 1559 00       		.byte	0
 10753 155a 20       		.uleb128 0x20
 10754 155b 73656C00 		.ascii	"sel\000"
 10755 155f 10       		.byte	0x10
 10756 1560 0D01     		.2byte	0x10d
 10757 1562 D0050000 		.4byte	0x5d0
 10758 1566 04       		.byte	0x4
 10759 1567 20       		.uleb128 0x20
 10760 1568 736200   		.ascii	"sb\000"
 10761 156b 10       		.byte	0x10
 10762 156c 0E01     		.2byte	0x10e
 10763 156e D0050000 		.4byte	0x5d0
 10764 1572 08       		.byte	0x8
 10765 1573 00       		.byte	0
 10766 1574 1E       		.uleb128 0x1e
 10767 1575 08       		.byte	0x8
 10768 1576 10       		.byte	0x10
 10769 1577 1301     		.2byte	0x113
 10770 1579 97150000 		.4byte	0x1597
 10771 157d 20       		.uleb128 0x20
ARM GAS  C:\Users\tmj32\AppData\Local\Temp\ccxLNxq9.s 			page 239


 10772 157e 626700   		.ascii	"bg\000"
 10773 1581 10       		.byte	0x10
 10774 1582 1501     		.2byte	0x115
 10775 1584 D0050000 		.4byte	0x5d0
 10776 1588 00       		.byte	0
 10777 1589 20       		.uleb128 0x20
 10778 158a 73656C00 		.ascii	"sel\000"
 10779 158e 10       		.byte	0x10
 10780 158f 1601     		.2byte	0x116
 10781 1591 D0050000 		.4byte	0x5d0
 10782 1595 04       		.byte	0x4
 10783 1596 00       		.byte	0
 10784 1597 1E       		.uleb128 0x1e
 10785 1598 14       		.byte	0x14
 10786 1599 10       		.byte	0x10
 10787 159a 1F01     		.2byte	0x11f
 10788 159c E0150000 		.4byte	0x15e0
 10789 15a0 20       		.uleb128 0x20
 10790 15a1 626700   		.ascii	"bg\000"
 10791 15a4 10       		.byte	0x10
 10792 15a5 2101     		.2byte	0x121
 10793 15a7 D0050000 		.4byte	0x5d0
 10794 15ab 00       		.byte	0
 10795 15ac 20       		.uleb128 0x20
 10796 15ad 72656C00 		.ascii	"rel\000"
 10797 15b1 10       		.byte	0x10
 10798 15b2 2201     		.2byte	0x122
 10799 15b4 D0050000 		.4byte	0x5d0
 10800 15b8 04       		.byte	0x4
 10801 15b9 20       		.uleb128 0x20
 10802 15ba 707200   		.ascii	"pr\000"
 10803 15bd 10       		.byte	0x10
 10804 15be 2301     		.2byte	0x123
 10805 15c0 D0050000 		.4byte	0x5d0
 10806 15c4 08       		.byte	0x8
 10807 15c5 1F       		.uleb128 0x1f
 10808 15c6 F90E0000 		.4byte	.LASF306
 10809 15ca 10       		.byte	0x10
 10810 15cb 2401     		.2byte	0x124
 10811 15cd D0050000 		.4byte	0x5d0
 10812 15d1 0C       		.byte	0xc
 10813 15d2 1F       		.uleb128 0x1f
 10814 15d3 55050000 		.4byte	.LASF307
 10815 15d7 10       		.byte	0x10
 10816 15d8 2501     		.2byte	0x125
 10817 15da D0050000 		.4byte	0x5d0
 10818 15de 10       		.byte	0x10
 10819 15df 00       		.byte	0
 10820 15e0 1E       		.uleb128 0x1e
 10821 15e1 1C       		.byte	0x1c
 10822 15e2 10       		.byte	0x10
 10823 15e3 1B01     		.2byte	0x11b
 10824 15e5 10160000 		.4byte	0x1610
 10825 15e9 20       		.uleb128 0x20
 10826 15ea 626700   		.ascii	"bg\000"
 10827 15ed 10       		.byte	0x10
 10828 15ee 1D01     		.2byte	0x11d
ARM GAS  C:\Users\tmj32\AppData\Local\Temp\ccxLNxq9.s 			page 240


 10829 15f0 D0050000 		.4byte	0x5d0
 10830 15f4 00       		.byte	0
 10831 15f5 1F       		.uleb128 0x1f
 10832 15f6 440D0000 		.4byte	.LASF313
 10833 15fa 10       		.byte	0x10
 10834 15fb 1E01     		.2byte	0x11e
 10835 15fd D0050000 		.4byte	0x5d0
 10836 1601 04       		.byte	0x4
 10837 1602 20       		.uleb128 0x20
 10838 1603 62746E00 		.ascii	"btn\000"
 10839 1607 10       		.byte	0x10
 10840 1608 2601     		.2byte	0x126
 10841 160a 97150000 		.4byte	0x1597
 10842 160e 08       		.byte	0x8
 10843 160f 00       		.byte	0
 10844 1610 1E       		.uleb128 0x1e
 10845 1611 0C       		.byte	0xc
 10846 1612 10       		.byte	0x10
 10847 1613 2B01     		.2byte	0x12b
 10848 1615 3F160000 		.4byte	0x163f
 10849 1619 20       		.uleb128 0x20
 10850 161a 626700   		.ascii	"bg\000"
 10851 161d 10       		.byte	0x10
 10852 161e 2D01     		.2byte	0x12d
 10853 1620 D0050000 		.4byte	0x5d0
 10854 1624 00       		.byte	0
 10855 1625 1F       		.uleb128 0x1f
 10856 1626 6D050000 		.4byte	.LASF324
 10857 162a 10       		.byte	0x10
 10858 162b 2E01     		.2byte	0x12e
 10859 162d D0050000 		.4byte	0x5d0
 10860 1631 04       		.byte	0x4
 10861 1632 20       		.uleb128 0x20
 10862 1633 736200   		.ascii	"sb\000"
 10863 1636 10       		.byte	0x10
 10864 1637 2F01     		.2byte	0x12f
 10865 1639 D0050000 		.4byte	0x5d0
 10866 163d 08       		.byte	0x8
 10867 163e 00       		.byte	0
 10868 163f 1E       		.uleb128 0x1e
 10869 1640 08       		.byte	0x8
 10870 1641 10       		.byte	0x10
 10871 1642 3401     		.2byte	0x134
 10872 1644 62160000 		.4byte	0x1662
 10873 1648 20       		.uleb128 0x20
 10874 1649 626700   		.ascii	"bg\000"
 10875 164c 10       		.byte	0x10
 10876 164d 3601     		.2byte	0x136
 10877 164f D0050000 		.4byte	0x5d0
 10878 1653 00       		.byte	0
 10879 1654 1F       		.uleb128 0x1f
 10880 1655 5B000000 		.4byte	.LASF326
 10881 1659 10       		.byte	0x10
 10882 165a 3701     		.2byte	0x137
 10883 165c D0050000 		.4byte	0x5d0
 10884 1660 04       		.byte	0x4
 10885 1661 00       		.byte	0
ARM GAS  C:\Users\tmj32\AppData\Local\Temp\ccxLNxq9.s 			page 241


 10886 1662 1E       		.uleb128 0x1e
 10887 1663 08       		.byte	0x8
 10888 1664 10       		.byte	0x10
 10889 1665 4201     		.2byte	0x142
 10890 1667 85160000 		.4byte	0x1685
 10891 166b 20       		.uleb128 0x20
 10892 166c 72656C00 		.ascii	"rel\000"
 10893 1670 10       		.byte	0x10
 10894 1671 4401     		.2byte	0x144
 10895 1673 D0050000 		.4byte	0x5d0
 10896 1677 00       		.byte	0
 10897 1678 20       		.uleb128 0x20
 10898 1679 707200   		.ascii	"pr\000"
 10899 167c 10       		.byte	0x10
 10900 167d 4501     		.2byte	0x145
 10901 167f D0050000 		.4byte	0x5d0
 10902 1683 04       		.byte	0x4
 10903 1684 00       		.byte	0
 10904 1685 1E       		.uleb128 0x1e
 10905 1686 18       		.byte	0x18
 10906 1687 10       		.byte	0x10
 10907 1688 3C01     		.2byte	0x13c
 10908 168a CE160000 		.4byte	0x16ce
 10909 168e 20       		.uleb128 0x20
 10910 168f 626700   		.ascii	"bg\000"
 10911 1692 10       		.byte	0x10
 10912 1693 3E01     		.2byte	0x13e
 10913 1695 D0050000 		.4byte	0x5d0
 10914 1699 00       		.byte	0
 10915 169a 20       		.uleb128 0x20
 10916 169b 736200   		.ascii	"sb\000"
 10917 169e 10       		.byte	0x10
 10918 169f 3F01     		.2byte	0x13f
 10919 16a1 D0050000 		.4byte	0x5d0
 10920 16a5 04       		.byte	0x4
 10921 16a6 1F       		.uleb128 0x1f
 10922 16a7 43060000 		.4byte	.LASF317
 10923 16ab 10       		.byte	0x10
 10924 16ac 4001     		.2byte	0x140
 10925 16ae D0050000 		.4byte	0x5d0
 10926 16b2 08       		.byte	0x8
 10927 16b3 1F       		.uleb128 0x1f
 10928 16b4 91190000 		.4byte	.LASF327
 10929 16b8 10       		.byte	0x10
 10930 16b9 4101     		.2byte	0x141
 10931 16bb D0050000 		.4byte	0x5d0
 10932 16bf 0C       		.byte	0xc
 10933 16c0 20       		.uleb128 0x20
 10934 16c1 62746E00 		.ascii	"btn\000"
 10935 16c5 10       		.byte	0x10
 10936 16c6 4601     		.2byte	0x146
 10937 16c8 62160000 		.4byte	0x1662
 10938 16cc 10       		.byte	0x10
 10939 16cd 00       		.byte	0
 10940 16ce 21       		.uleb128 0x21
 10941 16cf A801     		.2byte	0x1a8
 10942 16d1 10       		.byte	0x10
ARM GAS  C:\Users\tmj32\AppData\Local\Temp\ccxLNxq9.s 			page 242


 10943 16d2 29       		.byte	0x29
 10944 16d3 70180000 		.4byte	0x1870
 10945 16d7 08       		.uleb128 0x8
 10946 16d8 73637200 		.ascii	"scr\000"
 10947 16dc 10       		.byte	0x10
 10948 16dd 2B       		.byte	0x2b
 10949 16de D0050000 		.4byte	0x5d0
 10950 16e2 00       		.byte	0
 10951 16e3 08       		.uleb128 0x8
 10952 16e4 626700   		.ascii	"bg\000"
 10953 16e7 10       		.byte	0x10
 10954 16e8 2C       		.byte	0x2c
 10955 16e9 D0050000 		.4byte	0x5d0
 10956 16ed 04       		.byte	0x4
 10957 16ee 07       		.uleb128 0x7
 10958 16ef 4C150000 		.4byte	.LASF328
 10959 16f3 10       		.byte	0x10
 10960 16f4 2D       		.byte	0x2d
 10961 16f5 D0050000 		.4byte	0x5d0
 10962 16f9 08       		.byte	0x8
 10963 16fa 07       		.uleb128 0x7
 10964 16fb F5020000 		.4byte	.LASF329
 10965 16ff 10       		.byte	0x10
 10966 1700 30       		.byte	0x30
 10967 1701 D0050000 		.4byte	0x5d0
 10968 1705 0C       		.byte	0xc
 10969 1706 08       		.uleb128 0x8
 10970 1707 62746E00 		.ascii	"btn\000"
 10971 170b 10       		.byte	0x10
 10972 170c 3B       		.byte	0x3b
 10973 170d E8100000 		.4byte	0x10e8
 10974 1711 10       		.byte	0x10
 10975 1712 07       		.uleb128 0x7
 10976 1713 13150000 		.4byte	.LASF330
 10977 1717 10       		.byte	0x10
 10978 1718 46       		.byte	0x46
 10979 1719 2C110000 		.4byte	0x112c
 10980 171d 24       		.byte	0x24
 10981 171e 07       		.uleb128 0x7
 10982 171f F11A0000 		.4byte	.LASF331
 10983 1723 10       		.byte	0x10
 10984 1724 4F       		.byte	0x4f
 10985 1725 70110000 		.4byte	0x1170
 10986 1729 38       		.byte	0x38
 10987 172a 08       		.uleb128 0x8
 10988 172b 696D6700 		.ascii	"img\000"
 10989 172f 10       		.byte	0x10
 10990 1730 57       		.byte	0x57
 10991 1731 9D110000 		.4byte	0x119d
 10992 1735 44       		.byte	0x44
 10993 1736 07       		.uleb128 0x7
 10994 1737 E20A0000 		.4byte	.LASF91
 10995 173b 10       		.byte	0x10
 10996 173c 5E       		.byte	0x5e
 10997 173d BE110000 		.4byte	0x11be
 10998 1741 4C       		.byte	0x4c
 10999 1742 08       		.uleb128 0x8
ARM GAS  C:\Users\tmj32\AppData\Local\Temp\ccxLNxq9.s 			page 243


 11000 1743 6C656400 		.ascii	"led\000"
 11001 1747 10       		.byte	0x10
 11002 1748 62       		.byte	0x62
 11003 1749 D0050000 		.4byte	0x5d0
 11004 174d 50       		.byte	0x50
 11005 174e 08       		.uleb128 0x8
 11006 174f 62617200 		.ascii	"bar\000"
 11007 1753 10       		.byte	0x10
 11008 1754 6A       		.byte	0x6a
 11009 1755 D3110000 		.4byte	0x11d3
 11010 1759 54       		.byte	0x54
 11011 175a 07       		.uleb128 0x7
 11012 175b 051B0000 		.4byte	.LASF332
 11013 175f 10       		.byte	0x10
 11014 1760 73       		.byte	0x73
 11015 1761 F3110000 		.4byte	0x11f3
 11016 1765 5C       		.byte	0x5c
 11017 1766 07       		.uleb128 0x7
 11018 1767 3C010000 		.4byte	.LASF333
 11019 176b 10       		.byte	0x10
 11020 176c 77       		.byte	0x77
 11021 176d D0050000 		.4byte	0x5d0
 11022 1771 68       		.byte	0x68
 11023 1772 07       		.uleb128 0x7
 11024 1773 E00F0000 		.4byte	.LASF334
 11025 1777 10       		.byte	0x10
 11026 1778 7B       		.byte	0x7b
 11027 1779 D0050000 		.4byte	0x5d0
 11028 177d 6C       		.byte	0x6c
 11029 177e 08       		.uleb128 0x8
 11030 177f 61726300 		.ascii	"arc\000"
 11031 1783 10       		.byte	0x10
 11032 1784 7F       		.byte	0x7f
 11033 1785 D0050000 		.4byte	0x5d0
 11034 1789 70       		.byte	0x70
 11035 178a 07       		.uleb128 0x7
 11036 178b 341B0000 		.4byte	.LASF335
 11037 178f 10       		.byte	0x10
 11038 1790 83       		.byte	0x83
 11039 1791 D0050000 		.4byte	0x5d0
 11040 1795 74       		.byte	0x74
 11041 1796 08       		.uleb128 0x8
 11042 1797 737700   		.ascii	"sw\000"
 11043 179a 10       		.byte	0x10
 11044 179b 8D       		.byte	0x8d
 11045 179c 1F120000 		.4byte	0x121f
 11046 17a0 78       		.byte	0x78
 11047 17a1 07       		.uleb128 0x7
 11048 17a2 8B040000 		.4byte	.LASF336
 11049 17a6 10       		.byte	0x10
 11050 17a7 91       		.byte	0x91
 11051 17a8 D0050000 		.4byte	0x5d0
 11052 17ac 88       		.byte	0x88
 11053 17ad 07       		.uleb128 0x7
 11054 17ae 05090000 		.4byte	.LASF337
 11055 17b2 10       		.byte	0x10
 11056 17b3 9F       		.byte	0x9f
ARM GAS  C:\Users\tmj32\AppData\Local\Temp\ccxLNxq9.s 			page 244


 11057 17b4 57120000 		.4byte	0x1257
 11058 17b8 8C       		.byte	0x8c
 11059 17b9 08       		.uleb128 0x8
 11060 17ba 636200   		.ascii	"cb\000"
 11061 17bd 10       		.byte	0x10
 11062 17be AE       		.byte	0xae
 11063 17bf 03130000 		.4byte	0x1303
 11064 17c3 AC       		.byte	0xac
 11065 17c4 07       		.uleb128 0x7
 11066 17c5 E4040000 		.4byte	.LASF338
 11067 17c9 10       		.byte	0x10
 11068 17ca BD       		.byte	0xbd
 11069 17cb 67130000 		.4byte	0x1367
 11070 17cf C4       		.byte	0xc4
 11071 17d0 08       		.uleb128 0x8
 11072 17d1 6B6200   		.ascii	"kb\000"
 11073 17d4 10       		.byte	0x10
 11074 17d5 CC       		.byte	0xcc
 11075 17d6 CB130000 		.4byte	0x13cb
 11076 17da DC       		.byte	0xdc
 11077 17db 07       		.uleb128 0x7
 11078 17dc EB0E0000 		.4byte	.LASF339
 11079 17e0 10       		.byte	0x10
 11080 17e1 D9       		.byte	0xd9
 11081 17e2 16140000 		.4byte	0x1416
 11082 17e6 F4       		.byte	0xf4
 11083 17e7 18       		.uleb128 0x18
 11084 17e8 CA0F0000 		.4byte	.LASF340
 11085 17ec 10       		.byte	0x10
 11086 17ed E2       		.byte	0xe2
 11087 17ee 36140000 		.4byte	0x1436
 11088 17f2 0401     		.2byte	0x104
 11089 17f4 22       		.uleb128 0x22
 11090 17f5 746100   		.ascii	"ta\000"
 11091 17f8 10       		.byte	0x10
 11092 17f9 EC       		.byte	0xec
 11093 17fa 61140000 		.4byte	0x1461
 11094 17fe 1001     		.2byte	0x110
 11095 1800 18       		.uleb128 0x18
 11096 1801 DD170000 		.4byte	.LASF341
 11097 1805 10       		.byte	0x10
 11098 1806 F5       		.byte	0xf5
 11099 1807 99140000 		.4byte	0x1499
 11100 180b 2001     		.2byte	0x120
 11101 180d 23       		.uleb128 0x23
 11102 180e A80F0000 		.4byte	.LASF342
 11103 1812 10       		.byte	0x10
 11104 1813 0601     		.2byte	0x106
 11105 1815 0D150000 		.4byte	0x150d
 11106 1819 2C01     		.2byte	0x12c
 11107 181b 23       		.uleb128 0x23
 11108 181c 33080000 		.4byte	.LASF343
 11109 1820 10       		.byte	0x10
 11110 1821 0F01     		.2byte	0x10f
 11111 1823 45150000 		.4byte	0x1545
 11112 1827 4C01     		.2byte	0x14c
 11113 1829 23       		.uleb128 0x23
ARM GAS  C:\Users\tmj32\AppData\Local\Temp\ccxLNxq9.s 			page 245


 11114 182a 161C0000 		.4byte	.LASF344
 11115 182e 10       		.byte	0x10
 11116 182f 1701     		.2byte	0x117
 11117 1831 74150000 		.4byte	0x1574
 11118 1835 5801     		.2byte	0x158
 11119 1837 23       		.uleb128 0x23
 11120 1838 CA0D0000 		.4byte	.LASF345
 11121 183c 10       		.byte	0x10
 11122 183d 2701     		.2byte	0x127
 11123 183f E0150000 		.4byte	0x15e0
 11124 1843 6001     		.2byte	0x160
 11125 1845 23       		.uleb128 0x23
 11126 1846 01040000 		.4byte	.LASF346
 11127 184a 10       		.byte	0x10
 11128 184b 3001     		.2byte	0x130
 11129 184d 10160000 		.4byte	0x1610
 11130 1851 7C01     		.2byte	0x17c
 11131 1853 23       		.uleb128 0x23
 11132 1854 8C060000 		.4byte	.LASF347
 11133 1858 10       		.byte	0x10
 11134 1859 3801     		.2byte	0x138
 11135 185b 3F160000 		.4byte	0x163f
 11136 185f 8801     		.2byte	0x188
 11137 1861 24       		.uleb128 0x24
 11138 1862 77696E00 		.ascii	"win\000"
 11139 1866 10       		.byte	0x10
 11140 1867 4701     		.2byte	0x147
 11141 1869 85160000 		.4byte	0x1685
 11142 186d 9001     		.2byte	0x190
 11143 186f 00       		.byte	0
 11144 1870 21       		.uleb128 0x21
 11145 1871 A801     		.2byte	0x1a8
 11146 1873 10       		.byte	0x10
 11147 1874 27       		.byte	0x27
 11148 1875 87180000 		.4byte	0x1887
 11149 1879 1F       		.uleb128 0x1f
 11150 187a A4100000 		.4byte	.LASF348
 11151 187e 10       		.byte	0x10
 11152 187f 4901     		.2byte	0x149
 11153 1881 CE160000 		.4byte	0x16ce
 11154 1885 00       		.byte	0
 11155 1886 00       		.byte	0
 11156 1887 14       		.uleb128 0x14
 11157 1888 40090000 		.4byte	.LASF349
 11158 188c 10       		.byte	0x10
 11159 188d 5401     		.2byte	0x154
 11160 188f 70180000 		.4byte	0x1870
 11161 1893 0D       		.uleb128 0xd
 11162 1894 04       		.byte	0x4
 11163 1895 99180000 		.4byte	0x1899
 11164 1899 25       		.uleb128 0x25
 11165 189a 09       		.uleb128 0x9
 11166 189b 560E0000 		.4byte	.LASF350
 11167 189f 0C       		.byte	0xc
 11168 18a0 02       		.byte	0x2
 11169 18a1 29       		.byte	0x29
 11170 18a2 CB180000 		.4byte	0x18cb
ARM GAS  C:\Users\tmj32\AppData\Local\Temp\ccxLNxq9.s 			page 246


 11171 18a6 08       		.uleb128 0x8
 11172 18a7 6F626A00 		.ascii	"obj\000"
 11173 18ab 02       		.byte	0x2
 11174 18ac 2B       		.byte	0x2b
 11175 18ad CB180000 		.4byte	0x18cb
 11176 18b1 00       		.byte	0
 11177 18b2 07       		.uleb128 0x7
 11178 18b3 BE060000 		.4byte	.LASF351
 11179 18b7 02       		.byte	0x2
 11180 18b8 2C       		.byte	0x2c
 11181 18b9 BF010000 		.4byte	0x1bf
 11182 18bd 04       		.byte	0x4
 11183 18be 07       		.uleb128 0x7
 11184 18bf AD1B0000 		.4byte	.LASF352
 11185 18c3 02       		.byte	0x2
 11186 18c4 2D       		.byte	0x2d
 11187 18c5 D1180000 		.4byte	0x18d1
 11188 18c9 08       		.byte	0x8
 11189 18ca 00       		.byte	0
 11190 18cb 0D       		.uleb128 0xd
 11191 18cc 04       		.byte	0x4
 11192 18cd 73100000 		.4byte	0x1073
 11193 18d1 0D       		.uleb128 0xd
 11194 18d2 04       		.byte	0x4
 11195 18d3 9A180000 		.4byte	0x189a
 11196 18d7 02       		.uleb128 0x2
 11197 18d8 AE180000 		.4byte	.LASF353
 11198 18dc 02       		.byte	0x2
 11199 18dd 2E       		.byte	0x2e
 11200 18de 9A180000 		.4byte	0x189a
 11201 18e2 26       		.uleb128 0x26
 11202 18e3 D2060000 		.4byte	.LASF487
 11203 18e7 01       		.byte	0x1
 11204 18e8 4C       		.byte	0x4c
 11205 18e9 00000000 		.4byte	.LFB10
 11206 18ed 1C000000 		.4byte	.LFE10-.LFB10
 11207 18f1 01       		.uleb128 0x1
 11208 18f2 9C       		.byte	0x9c
 11209 18f3 14190000 		.4byte	0x1914
 11210 18f7 27       		.uleb128 0x27
 11211 18f8 9A150000 		.4byte	.LASF354
 11212 18fc 01       		.byte	0x1
 11213 18fd 4C       		.byte	0x4c
 11214 18fe 2F080000 		.4byte	0x82f
 11215 1902 02       		.uleb128 0x2
 11216 1903 91       		.byte	0x91
 11217 1904 74       		.sleb128 -12
 11218 1905 28       		.uleb128 0x28
 11219 1906 73726300 		.ascii	"src\000"
 11220 190a 01       		.byte	0x1
 11221 190b 4C       		.byte	0x4c
 11222 190c 08080000 		.4byte	0x808
 11223 1910 02       		.uleb128 0x2
 11224 1911 91       		.byte	0x91
 11225 1912 70       		.sleb128 -16
 11226 1913 00       		.byte	0
 11227 1914 29       		.uleb128 0x29
ARM GAS  C:\Users\tmj32\AppData\Local\Temp\ccxLNxq9.s 			page 247


 11228 1915 87180000 		.4byte	.LASF356
 11229 1919 01       		.byte	0x1
 11230 191a 56       		.byte	0x56
 11231 191b D9000000 		.4byte	0xd9
 11232 191f 00000000 		.4byte	.LFB11
 11233 1923 2E000000 		.4byte	.LFE11-.LFB11
 11234 1927 01       		.uleb128 0x1
 11235 1928 9C       		.byte	0x9c
 11236 1929 3C190000 		.4byte	0x193c
 11237 192d 27       		.uleb128 0x27
 11238 192e 3B040000 		.4byte	.LASF355
 11239 1932 01       		.byte	0x1
 11240 1933 56       		.byte	0x56
 11241 1934 08080000 		.4byte	0x808
 11242 1938 02       		.uleb128 0x2
 11243 1939 91       		.byte	0x91
 11244 193a 74       		.sleb128 -12
 11245 193b 00       		.byte	0
 11246 193c 29       		.uleb128 0x29
 11247 193d 9C130000 		.4byte	.LASF357
 11248 1941 01       		.byte	0x1
 11249 1942 60       		.byte	0x60
 11250 1943 D9000000 		.4byte	0xd9
 11251 1947 00000000 		.4byte	.LFB12
 11252 194b 2E000000 		.4byte	.LFE12-.LFB12
 11253 194f 01       		.uleb128 0x1
 11254 1950 9C       		.byte	0x9c
 11255 1951 64190000 		.4byte	0x1964
 11256 1955 27       		.uleb128 0x27
 11257 1956 3B040000 		.4byte	.LASF355
 11258 195a 01       		.byte	0x1
 11259 195b 60       		.byte	0x60
 11260 195c 08080000 		.4byte	0x808
 11261 1960 02       		.uleb128 0x2
 11262 1961 91       		.byte	0x91
 11263 1962 74       		.sleb128 -12
 11264 1963 00       		.byte	0
 11265 1964 2A       		.uleb128 0x2a
 11266 1965 D6000000 		.4byte	.LASF358
 11267 1969 02       		.byte	0x2
 11268 196a 4F       		.byte	0x4f
 11269 196b 00000000 		.4byte	.LFB35
 11270 196f 58000000 		.4byte	.LFE35-.LFB35
 11271 1973 01       		.uleb128 0x1
 11272 1974 9C       		.byte	0x9c
 11273 1975 2A       		.uleb128 0x2a
 11274 1976 E2080000 		.4byte	.LASF359
 11275 197a 02       		.byte	0x2
 11276 197b 7D       		.byte	0x7d
 11277 197c 00000000 		.4byte	.LFB36
 11278 1980 20000000 		.4byte	.LFE36-.LFB36
 11279 1984 01       		.uleb128 0x1
 11280 1985 9C       		.byte	0x9c
 11281 1986 2B       		.uleb128 0x2b
 11282 1987 AF070000 		.4byte	.LASF363
 11283 198b 02       		.byte	0x2
 11284 198c 95       		.byte	0x95
ARM GAS  C:\Users\tmj32\AppData\Local\Temp\ccxLNxq9.s 			page 248


 11285 198d CB180000 		.4byte	0x18cb
 11286 1991 00000000 		.4byte	.LFB37
 11287 1995 FC040000 		.4byte	.LFE37-.LFB37
 11288 1999 01       		.uleb128 0x1
 11289 199a 9C       		.byte	0x9c
 11290 199b 0B1A0000 		.4byte	0x1a0b
 11291 199f 27       		.uleb128 0x27
 11292 19a0 F10D0000 		.4byte	.LASF360
 11293 19a4 02       		.byte	0x2
 11294 19a5 95       		.byte	0x95
 11295 19a6 CB180000 		.4byte	0x18cb
 11296 19aa 02       		.uleb128 0x2
 11297 19ab 91       		.byte	0x91
 11298 19ac 5C       		.sleb128 -36
 11299 19ad 27       		.uleb128 0x27
 11300 19ae 36040000 		.4byte	.LASF361
 11301 19b2 02       		.byte	0x2
 11302 19b3 95       		.byte	0x95
 11303 19b4 0B1A0000 		.4byte	0x1a0b
 11304 19b8 02       		.uleb128 0x2
 11305 19b9 91       		.byte	0x91
 11306 19ba 58       		.sleb128 -40
 11307 19bb 2C       		.uleb128 0x2c
 11308 19bc 2F140000 		.4byte	.LASF362
 11309 19c0 02       		.byte	0x2
 11310 19c1 98       		.byte	0x98
 11311 19c2 CB180000 		.4byte	0x18cb
 11312 19c6 02       		.uleb128 0x2
 11313 19c7 91       		.byte	0x91
 11314 19c8 6C       		.sleb128 -20
 11315 19c9 2D       		.uleb128 0x2d
 11316 19ca 16000000 		.4byte	.LBB2
 11317 19ce 6A010000 		.4byte	.LBE2-.LBB2
 11318 19d2 F2190000 		.4byte	0x19f2
 11319 19d6 2C       		.uleb128 0x2c
 11320 19d7 A10E0000 		.4byte	.LASF180
 11321 19db 02       		.byte	0x2
 11322 19dc 9C       		.byte	0x9c
 11323 19dd 161A0000 		.4byte	0x1a16
 11324 19e1 02       		.uleb128 0x2
 11325 19e2 91       		.byte	0x91
 11326 19e3 68       		.sleb128 -24
 11327 19e4 2E       		.uleb128 0x2e
 11328 19e5 746800   		.ascii	"th\000"
 11329 19e8 02       		.byte	0x2
 11330 19e9 C8       		.byte	0xc8
 11331 19ea 1C1A0000 		.4byte	0x1a1c
 11332 19ee 02       		.uleb128 0x2
 11333 19ef 91       		.byte	0x91
 11334 19f0 64       		.sleb128 -28
 11335 19f1 00       		.byte	0
 11336 19f2 2F       		.uleb128 0x2f
 11337 19f3 82010000 		.4byte	.LBB3
 11338 19f7 A2010000 		.4byte	.LBE3-.LBB3
 11339 19fb 30       		.uleb128 0x30
 11340 19fc 746800   		.ascii	"th\000"
 11341 19ff 02       		.byte	0x2
ARM GAS  C:\Users\tmj32\AppData\Local\Temp\ccxLNxq9.s 			page 249


 11342 1a00 2301     		.2byte	0x123
 11343 1a02 1C1A0000 		.4byte	0x1a1c
 11344 1a06 02       		.uleb128 0x2
 11345 1a07 91       		.byte	0x91
 11346 1a08 60       		.sleb128 -32
 11347 1a09 00       		.byte	0
 11348 1a0a 00       		.byte	0
 11349 1a0b 0D       		.uleb128 0xd
 11350 1a0c 04       		.byte	0x4
 11351 1a0d 111A0000 		.4byte	0x1a11
 11352 1a11 0E       		.uleb128 0xe
 11353 1a12 73100000 		.4byte	0x1073
 11354 1a16 0D       		.uleb128 0xd
 11355 1a17 04       		.byte	0x4
 11356 1a18 900A0000 		.4byte	0xa90
 11357 1a1c 0D       		.uleb128 0xd
 11358 1a1d 04       		.byte	0x4
 11359 1a1e 87180000 		.4byte	0x1887
 11360 1a22 31       		.uleb128 0x31
 11361 1a23 621A0000 		.4byte	.LASF364
 11362 1a27 02       		.byte	0x2
 11363 1a28 9E01     		.2byte	0x19e
 11364 1a2a EF050000 		.4byte	0x5ef
 11365 1a2e 00000000 		.4byte	.LFB38
 11366 1a32 04010000 		.4byte	.LFE38-.LFB38
 11367 1a36 01       		.uleb128 0x1
 11368 1a37 9C       		.byte	0x9c
 11369 1a38 9D1A0000 		.4byte	0x1a9d
 11370 1a3c 32       		.uleb128 0x32
 11371 1a3d 6F626A00 		.ascii	"obj\000"
 11372 1a41 02       		.byte	0x2
 11373 1a42 9E01     		.2byte	0x19e
 11374 1a44 CB180000 		.4byte	0x18cb
 11375 1a48 02       		.uleb128 0x2
 11376 1a49 91       		.byte	0x91
 11377 1a4a 5C       		.sleb128 -36
 11378 1a4b 30       		.uleb128 0x30
 11379 1a4c 6900     		.ascii	"i\000"
 11380 1a4e 02       		.byte	0x2
 11381 1a4f AF01     		.2byte	0x1af
 11382 1a51 CB180000 		.4byte	0x18cb
 11383 1a55 02       		.uleb128 0x2
 11384 1a56 91       		.byte	0x91
 11385 1a57 74       		.sleb128 -12
 11386 1a58 33       		.uleb128 0x33
 11387 1a59 CE040000 		.4byte	.LASF365
 11388 1a5d 02       		.byte	0x2
 11389 1a5e B001     		.2byte	0x1b0
 11390 1a60 CB180000 		.4byte	0x18cb
 11391 1a64 02       		.uleb128 0x2
 11392 1a65 91       		.byte	0x91
 11393 1a66 6C       		.sleb128 -20
 11394 1a67 33       		.uleb128 0x33
 11395 1a68 BB170000 		.4byte	.LASF366
 11396 1a6c 02       		.byte	0x2
 11397 1a6d C301     		.2byte	0x1c3
 11398 1a6f 9D1A0000 		.4byte	0x1a9d
ARM GAS  C:\Users\tmj32\AppData\Local\Temp\ccxLNxq9.s 			page 250


 11399 1a73 02       		.uleb128 0x2
 11400 1a74 91       		.byte	0x91
 11401 1a75 70       		.sleb128 -16
 11402 1a76 30       		.uleb128 0x30
 11403 1a77 70617200 		.ascii	"par\000"
 11404 1a7b 02       		.byte	0x2
 11405 1a7c D901     		.2byte	0x1d9
 11406 1a7e CB180000 		.4byte	0x18cb
 11407 1a82 02       		.uleb128 0x2
 11408 1a83 91       		.byte	0x91
 11409 1a84 68       		.sleb128 -24
 11410 1a85 2F       		.uleb128 0x2f
 11411 1a86 AE000000 		.4byte	.LBB4
 11412 1a8a 14000000 		.4byte	.LBE4-.LBB4
 11413 1a8e 30       		.uleb128 0x30
 11414 1a8f 6400     		.ascii	"d\000"
 11415 1a91 02       		.byte	0x2
 11416 1a92 DB01     		.2byte	0x1db
 11417 1a94 161A0000 		.4byte	0x1a16
 11418 1a98 02       		.uleb128 0x2
 11419 1a99 91       		.byte	0x91
 11420 1a9a 64       		.sleb128 -28
 11421 1a9b 00       		.byte	0
 11422 1a9c 00       		.byte	0
 11423 1a9d 0D       		.uleb128 0xd
 11424 1a9e 04       		.byte	0x4
 11425 1a9f 710D0000 		.4byte	0xd71
 11426 1aa3 34       		.uleb128 0x34
 11427 1aa4 E9040000 		.4byte	.LASF367
 11428 1aa8 02       		.byte	0x2
 11429 1aa9 F301     		.2byte	0x1f3
 11430 1aab 00000000 		.4byte	.LFB39
 11431 1aaf 1C000000 		.4byte	.LFE39-.LFB39
 11432 1ab3 01       		.uleb128 0x1
 11433 1ab4 9C       		.byte	0x9c
 11434 1ab5 C91A0000 		.4byte	0x1ac9
 11435 1ab9 32       		.uleb128 0x32
 11436 1aba 6F626A00 		.ascii	"obj\000"
 11437 1abe 02       		.byte	0x2
 11438 1abf F301     		.2byte	0x1f3
 11439 1ac1 CB180000 		.4byte	0x18cb
 11440 1ac5 02       		.uleb128 0x2
 11441 1ac6 91       		.byte	0x91
 11442 1ac7 74       		.sleb128 -12
 11443 1ac8 00       		.byte	0
 11444 1ac9 34       		.uleb128 0x34
 11445 1aca 3C1B0000 		.4byte	.LASF368
 11446 1ace 02       		.byte	0x2
 11447 1acf FD01     		.2byte	0x1fd
 11448 1ad1 00000000 		.4byte	.LFB40
 11449 1ad5 36000000 		.4byte	.LFE40-.LFB40
 11450 1ad9 01       		.uleb128 0x1
 11451 1ada 9C       		.byte	0x9c
 11452 1adb 0D1B0000 		.4byte	0x1b0d
 11453 1adf 32       		.uleb128 0x32
 11454 1ae0 6F626A00 		.ascii	"obj\000"
 11455 1ae4 02       		.byte	0x2
ARM GAS  C:\Users\tmj32\AppData\Local\Temp\ccxLNxq9.s 			page 251


 11456 1ae5 FD01     		.2byte	0x1fd
 11457 1ae7 CB180000 		.4byte	0x18cb
 11458 1aeb 02       		.uleb128 0x2
 11459 1aec 91       		.byte	0x91
 11460 1aed 6C       		.sleb128 -20
 11461 1aee 33       		.uleb128 0x33
 11462 1aef 48000000 		.4byte	.LASF369
 11463 1af3 02       		.byte	0x2
 11464 1af4 0002     		.2byte	0x200
 11465 1af6 CB180000 		.4byte	0x18cb
 11466 1afa 02       		.uleb128 0x2
 11467 1afb 91       		.byte	0x91
 11468 1afc 74       		.sleb128 -12
 11469 1afd 33       		.uleb128 0x33
 11470 1afe 43110000 		.4byte	.LASF370
 11471 1b02 02       		.byte	0x2
 11472 1b03 0102     		.2byte	0x201
 11473 1b05 CB180000 		.4byte	0x18cb
 11474 1b09 02       		.uleb128 0x2
 11475 1b0a 91       		.byte	0x91
 11476 1b0b 70       		.sleb128 -16
 11477 1b0c 00       		.byte	0
 11478 1b0d 34       		.uleb128 0x34
 11479 1b0e 91040000 		.4byte	.LASF371
 11480 1b12 02       		.byte	0x2
 11481 1b13 1102     		.2byte	0x211
 11482 1b15 00000000 		.4byte	.LFB41
 11483 1b19 44010000 		.4byte	.LFE41-.LFB41
 11484 1b1d 01       		.uleb128 0x1
 11485 1b1e 9C       		.byte	0x9c
 11486 1b1f B11B0000 		.4byte	0x1bb1
 11487 1b23 32       		.uleb128 0x32
 11488 1b24 6F626A00 		.ascii	"obj\000"
 11489 1b28 02       		.byte	0x2
 11490 1b29 1102     		.2byte	0x211
 11491 1b2b 0B1A0000 		.4byte	0x1a0b
 11492 1b2f 02       		.uleb128 0x2
 11493 1b30 91       		.byte	0x91
 11494 1b31 4C       		.sleb128 -52
 11495 1b32 35       		.uleb128 0x35
 11496 1b33 DD090000 		.4byte	.LASF122
 11497 1b37 02       		.byte	0x2
 11498 1b38 1102     		.2byte	0x211
 11499 1b3a 08080000 		.4byte	0x808
 11500 1b3e 02       		.uleb128 0x2
 11501 1b3f 91       		.byte	0x91
 11502 1b40 48       		.sleb128 -56
 11503 1b41 33       		.uleb128 0x33
 11504 1b42 A01B0000 		.4byte	.LASF372
 11505 1b46 02       		.byte	0x2
 11506 1b47 1802     		.2byte	0x218
 11507 1b49 CB180000 		.4byte	0x18cb
 11508 1b4d 02       		.uleb128 0x2
 11509 1b4e 91       		.byte	0x91
 11510 1b4f 6C       		.sleb128 -20
 11511 1b50 33       		.uleb128 0x33
 11512 1b51 A10E0000 		.4byte	.LASF180
ARM GAS  C:\Users\tmj32\AppData\Local\Temp\ccxLNxq9.s 			page 252


 11513 1b55 02       		.byte	0x2
 11514 1b56 1902     		.2byte	0x219
 11515 1b58 161A0000 		.4byte	0x1a16
 11516 1b5c 02       		.uleb128 0x2
 11517 1b5d 91       		.byte	0x91
 11518 1b5e 68       		.sleb128 -24
 11519 1b5f 36       		.uleb128 0x36
 11520 1b60 00000000 		.4byte	.Ldebug_ranges0+0
 11521 1b64 33       		.uleb128 0x33
 11522 1b65 50190000 		.4byte	.LASF373
 11523 1b69 02       		.byte	0x2
 11524 1b6a 1E02     		.2byte	0x21e
 11525 1b6c 58030000 		.4byte	0x358
 11526 1b70 02       		.uleb128 0x2
 11527 1b71 91       		.byte	0x91
 11528 1b72 5C       		.sleb128 -36
 11529 1b73 33       		.uleb128 0x33
 11530 1b74 EB160000 		.4byte	.LASF374
 11531 1b78 02       		.byte	0x2
 11532 1b79 1F02     		.2byte	0x21f
 11533 1b7b D9000000 		.4byte	0xd9
 11534 1b7f 02       		.uleb128 0x2
 11535 1b80 91       		.byte	0x91
 11536 1b81 66       		.sleb128 -26
 11537 1b82 33       		.uleb128 0x33
 11538 1b83 4B0B0000 		.4byte	.LASF375
 11539 1b87 02       		.byte	0x2
 11540 1b88 2602     		.2byte	0x226
 11541 1b8a BF010000 		.4byte	0x1bf
 11542 1b8e 02       		.uleb128 0x2
 11543 1b8f 91       		.byte	0x91
 11544 1b90 77       		.sleb128 -9
 11545 1b91 33       		.uleb128 0x33
 11546 1b92 07020000 		.4byte	.LASF376
 11547 1b96 02       		.byte	0x2
 11548 1b97 2702     		.2byte	0x227
 11549 1b99 58030000 		.4byte	0x358
 11550 1b9d 02       		.uleb128 0x2
 11551 1b9e 91       		.byte	0x91
 11552 1b9f 54       		.sleb128 -44
 11553 1ba0 30       		.uleb128 0x30
 11554 1ba1 70617200 		.ascii	"par\000"
 11555 1ba5 02       		.byte	0x2
 11556 1ba6 2D02     		.2byte	0x22d
 11557 1ba8 CB180000 		.4byte	0x18cb
 11558 1bac 02       		.uleb128 0x2
 11559 1bad 91       		.byte	0x91
 11560 1bae 70       		.sleb128 -16
 11561 1baf 00       		.byte	0
 11562 1bb0 00       		.byte	0
 11563 1bb1 34       		.uleb128 0x34
 11564 1bb2 CE190000 		.4byte	.LASF377
 11565 1bb6 02       		.byte	0x2
 11566 1bb7 3E02     		.2byte	0x23e
 11567 1bb9 00000000 		.4byte	.LFB42
 11568 1bbd 74000000 		.4byte	.LFE42-.LFB42
 11569 1bc1 01       		.uleb128 0x1
ARM GAS  C:\Users\tmj32\AppData\Local\Temp\ccxLNxq9.s 			page 253


 11570 1bc2 9C       		.byte	0x9c
 11571 1bc3 F51B0000 		.4byte	0x1bf5
 11572 1bc7 32       		.uleb128 0x32
 11573 1bc8 6F626A00 		.ascii	"obj\000"
 11574 1bcc 02       		.byte	0x2
 11575 1bcd 3E02     		.2byte	0x23e
 11576 1bcf 0B1A0000 		.4byte	0x1a0b
 11577 1bd3 02       		.uleb128 0x2
 11578 1bd4 91       		.byte	0x91
 11579 1bd5 64       		.sleb128 -28
 11580 1bd6 33       		.uleb128 0x33
 11581 1bd7 50190000 		.4byte	.LASF373
 11582 1bdb 02       		.byte	0x2
 11583 1bdc 4302     		.2byte	0x243
 11584 1bde 58030000 		.4byte	0x358
 11585 1be2 02       		.uleb128 0x2
 11586 1be3 91       		.byte	0x91
 11587 1be4 6C       		.sleb128 -20
 11588 1be5 33       		.uleb128 0x33
 11589 1be6 EB160000 		.4byte	.LASF374
 11590 1bea 02       		.byte	0x2
 11591 1beb 4402     		.2byte	0x244
 11592 1bed D9000000 		.4byte	0xd9
 11593 1bf1 02       		.uleb128 0x2
 11594 1bf2 91       		.byte	0x91
 11595 1bf3 76       		.sleb128 -10
 11596 1bf4 00       		.byte	0
 11597 1bf5 34       		.uleb128 0x34
 11598 1bf6 4A030000 		.4byte	.LASF378
 11599 1bfa 02       		.byte	0x2
 11600 1bfb 5B02     		.2byte	0x25b
 11601 1bfd 00000000 		.4byte	.LFB43
 11602 1c01 8C000000 		.4byte	.LFE43-.LFB43
 11603 1c05 01       		.uleb128 0x1
 11604 1c06 9C       		.byte	0x9c
 11605 1c07 481C0000 		.4byte	0x1c48
 11606 1c0b 32       		.uleb128 0x32
 11607 1c0c 6F626A00 		.ascii	"obj\000"
 11608 1c10 02       		.byte	0x2
 11609 1c11 5B02     		.2byte	0x25b
 11610 1c13 CB180000 		.4byte	0x18cb
 11611 1c17 02       		.uleb128 0x2
 11612 1c18 91       		.byte	0x91
 11613 1c19 6C       		.sleb128 -20
 11614 1c1a 35       		.uleb128 0x35
 11615 1c1b F10D0000 		.4byte	.LASF360
 11616 1c1f 02       		.byte	0x2
 11617 1c20 5B02     		.2byte	0x25b
 11618 1c22 CB180000 		.4byte	0x18cb
 11619 1c26 02       		.uleb128 0x2
 11620 1c27 91       		.byte	0x91
 11621 1c28 68       		.sleb128 -24
 11622 1c29 33       		.uleb128 0x33
 11623 1c2a 94130000 		.4byte	.LASF379
 11624 1c2e 02       		.byte	0x2
 11625 1c2f 6C02     		.2byte	0x26c
 11626 1c31 18030000 		.4byte	0x318
ARM GAS  C:\Users\tmj32\AppData\Local\Temp\ccxLNxq9.s 			page 254


 11627 1c35 02       		.uleb128 0x2
 11628 1c36 91       		.byte	0x91
 11629 1c37 70       		.sleb128 -16
 11630 1c38 33       		.uleb128 0x33
 11631 1c39 33090000 		.4byte	.LASF380
 11632 1c3d 02       		.byte	0x2
 11633 1c3e 7002     		.2byte	0x270
 11634 1c40 CB180000 		.4byte	0x18cb
 11635 1c44 02       		.uleb128 0x2
 11636 1c45 91       		.byte	0x91
 11637 1c46 74       		.sleb128 -12
 11638 1c47 00       		.byte	0
 11639 1c48 34       		.uleb128 0x34
 11640 1c49 91120000 		.4byte	.LASF381
 11641 1c4d 02       		.byte	0x2
 11642 1c4e 8302     		.2byte	0x283
 11643 1c50 00000000 		.4byte	.LFB44
 11644 1c54 54000000 		.4byte	.LFE44-.LFB44
 11645 1c58 01       		.uleb128 0x1
 11646 1c59 9C       		.byte	0x9c
 11647 1c5a 7D1C0000 		.4byte	0x1c7d
 11648 1c5e 32       		.uleb128 0x32
 11649 1c5f 6F626A00 		.ascii	"obj\000"
 11650 1c63 02       		.byte	0x2
 11651 1c64 8302     		.2byte	0x283
 11652 1c66 CB180000 		.4byte	0x18cb
 11653 1c6a 02       		.uleb128 0x2
 11654 1c6b 91       		.byte	0x91
 11655 1c6c 6C       		.sleb128 -20
 11656 1c6d 33       		.uleb128 0x33
 11657 1c6e F10D0000 		.4byte	.LASF360
 11658 1c72 02       		.byte	0x2
 11659 1c73 8702     		.2byte	0x287
 11660 1c75 CB180000 		.4byte	0x18cb
 11661 1c79 02       		.uleb128 0x2
 11662 1c7a 91       		.byte	0x91
 11663 1c7b 74       		.sleb128 -12
 11664 1c7c 00       		.byte	0
 11665 1c7d 34       		.uleb128 0x34
 11666 1c7e B5010000 		.4byte	.LASF382
 11667 1c82 02       		.byte	0x2
 11668 1c83 9A02     		.2byte	0x29a
 11669 1c85 00000000 		.4byte	.LFB45
 11670 1c89 54000000 		.4byte	.LFE45-.LFB45
 11671 1c8d 01       		.uleb128 0x1
 11672 1c8e 9C       		.byte	0x9c
 11673 1c8f B21C0000 		.4byte	0x1cb2
 11674 1c93 32       		.uleb128 0x32
 11675 1c94 6F626A00 		.ascii	"obj\000"
 11676 1c98 02       		.byte	0x2
 11677 1c99 9A02     		.2byte	0x29a
 11678 1c9b CB180000 		.4byte	0x18cb
 11679 1c9f 02       		.uleb128 0x2
 11680 1ca0 91       		.byte	0x91
 11681 1ca1 6C       		.sleb128 -20
 11682 1ca2 33       		.uleb128 0x33
 11683 1ca3 F10D0000 		.4byte	.LASF360
ARM GAS  C:\Users\tmj32\AppData\Local\Temp\ccxLNxq9.s 			page 255


 11684 1ca7 02       		.byte	0x2
 11685 1ca8 9E02     		.2byte	0x29e
 11686 1caa CB180000 		.4byte	0x18cb
 11687 1cae 02       		.uleb128 0x2
 11688 1caf 91       		.byte	0x91
 11689 1cb0 74       		.sleb128 -12
 11690 1cb1 00       		.byte	0
 11691 1cb2 34       		.uleb128 0x34
 11692 1cb3 1F0A0000 		.4byte	.LASF383
 11693 1cb7 02       		.byte	0x2
 11694 1cb8 B702     		.2byte	0x2b7
 11695 1cba 00000000 		.4byte	.LFB46
 11696 1cbe 16010000 		.4byte	.LFE46-.LFB46
 11697 1cc2 01       		.uleb128 0x1
 11698 1cc3 9C       		.byte	0x9c
 11699 1cc4 1F1D0000 		.4byte	0x1d1f
 11700 1cc8 32       		.uleb128 0x32
 11701 1cc9 6F626A00 		.ascii	"obj\000"
 11702 1ccd 02       		.byte	0x2
 11703 1cce B702     		.2byte	0x2b7
 11704 1cd0 CB180000 		.4byte	0x18cb
 11705 1cd4 02       		.uleb128 0x2
 11706 1cd5 91       		.byte	0x91
 11707 1cd6 64       		.sleb128 -28
 11708 1cd7 32       		.uleb128 0x32
 11709 1cd8 7800     		.ascii	"x\000"
 11710 1cda 02       		.byte	0x2
 11711 1cdb B702     		.2byte	0x2b7
 11712 1cdd D9000000 		.4byte	0xd9
 11713 1ce1 02       		.uleb128 0x2
 11714 1ce2 91       		.byte	0x91
 11715 1ce3 62       		.sleb128 -30
 11716 1ce4 32       		.uleb128 0x32
 11717 1ce5 7900     		.ascii	"y\000"
 11718 1ce7 02       		.byte	0x2
 11719 1ce8 B702     		.2byte	0x2b7
 11720 1cea D9000000 		.4byte	0xd9
 11721 1cee 02       		.uleb128 0x2
 11722 1cef 91       		.byte	0x91
 11723 1cf0 60       		.sleb128 -32
 11724 1cf1 30       		.uleb128 0x30
 11725 1cf2 70617200 		.ascii	"par\000"
 11726 1cf6 02       		.byte	0x2
 11727 1cf7 BC02     		.2byte	0x2bc
 11728 1cf9 CB180000 		.4byte	0x18cb
 11729 1cfd 02       		.uleb128 0x2
 11730 1cfe 91       		.byte	0x91
 11731 1cff 74       		.sleb128 -12
 11732 1d00 33       		.uleb128 0x33
 11733 1d01 5C030000 		.4byte	.LASF384
 11734 1d05 02       		.byte	0x2
 11735 1d06 C202     		.2byte	0x2c2
 11736 1d08 18030000 		.4byte	0x318
 11737 1d0c 02       		.uleb128 0x2
 11738 1d0d 91       		.byte	0x91
 11739 1d0e 70       		.sleb128 -16
 11740 1d0f 30       		.uleb128 0x30
ARM GAS  C:\Users\tmj32\AppData\Local\Temp\ccxLNxq9.s 			page 256


 11741 1d10 6F726900 		.ascii	"ori\000"
 11742 1d14 02       		.byte	0x2
 11743 1d15 CF02     		.2byte	0x2cf
 11744 1d17 58030000 		.4byte	0x358
 11745 1d1b 02       		.uleb128 0x2
 11746 1d1c 91       		.byte	0x91
 11747 1d1d 68       		.sleb128 -24
 11748 1d1e 00       		.byte	0
 11749 1d1f 34       		.uleb128 0x34
 11750 1d20 181A0000 		.4byte	.LASF385
 11751 1d24 02       		.byte	0x2
 11752 1d25 E802     		.2byte	0x2e8
 11753 1d27 00000000 		.4byte	.LFB47
 11754 1d2b 2A000000 		.4byte	.LFE47-.LFB47
 11755 1d2f 01       		.uleb128 0x1
 11756 1d30 9C       		.byte	0x9c
 11757 1d31 521D0000 		.4byte	0x1d52
 11758 1d35 32       		.uleb128 0x32
 11759 1d36 6F626A00 		.ascii	"obj\000"
 11760 1d3a 02       		.byte	0x2
 11761 1d3b E802     		.2byte	0x2e8
 11762 1d3d CB180000 		.4byte	0x18cb
 11763 1d41 02       		.uleb128 0x2
 11764 1d42 91       		.byte	0x91
 11765 1d43 74       		.sleb128 -12
 11766 1d44 32       		.uleb128 0x32
 11767 1d45 7800     		.ascii	"x\000"
 11768 1d47 02       		.byte	0x2
 11769 1d48 E802     		.2byte	0x2e8
 11770 1d4a D9000000 		.4byte	0xd9
 11771 1d4e 02       		.uleb128 0x2
 11772 1d4f 91       		.byte	0x91
 11773 1d50 72       		.sleb128 -14
 11774 1d51 00       		.byte	0
 11775 1d52 34       		.uleb128 0x34
 11776 1d53 251A0000 		.4byte	.LASF386
 11777 1d57 02       		.byte	0x2
 11778 1d58 F402     		.2byte	0x2f4
 11779 1d5a 00000000 		.4byte	.LFB48
 11780 1d5e 2A000000 		.4byte	.LFE48-.LFB48
 11781 1d62 01       		.uleb128 0x1
 11782 1d63 9C       		.byte	0x9c
 11783 1d64 851D0000 		.4byte	0x1d85
 11784 1d68 32       		.uleb128 0x32
 11785 1d69 6F626A00 		.ascii	"obj\000"
 11786 1d6d 02       		.byte	0x2
 11787 1d6e F402     		.2byte	0x2f4
 11788 1d70 CB180000 		.4byte	0x18cb
 11789 1d74 02       		.uleb128 0x2
 11790 1d75 91       		.byte	0x91
 11791 1d76 74       		.sleb128 -12
 11792 1d77 32       		.uleb128 0x32
 11793 1d78 7900     		.ascii	"y\000"
 11794 1d7a 02       		.byte	0x2
 11795 1d7b F402     		.2byte	0x2f4
 11796 1d7d D9000000 		.4byte	0xd9
 11797 1d81 02       		.uleb128 0x2
ARM GAS  C:\Users\tmj32\AppData\Local\Temp\ccxLNxq9.s 			page 257


 11798 1d82 91       		.byte	0x91
 11799 1d83 72       		.sleb128 -14
 11800 1d84 00       		.byte	0
 11801 1d85 34       		.uleb128 0x34
 11802 1d86 BE190000 		.4byte	.LASF387
 11803 1d8a 02       		.byte	0x2
 11804 1d8b 0103     		.2byte	0x301
 11805 1d8d 00000000 		.4byte	.LFB49
 11806 1d91 18010000 		.4byte	.LFE49-.LFB49
 11807 1d95 01       		.uleb128 0x1
 11808 1d96 9C       		.byte	0x9c
 11809 1d97 F01D0000 		.4byte	0x1df0
 11810 1d9b 32       		.uleb128 0x32
 11811 1d9c 6F626A00 		.ascii	"obj\000"
 11812 1da0 02       		.byte	0x2
 11813 1da1 0103     		.2byte	0x301
 11814 1da3 CB180000 		.4byte	0x18cb
 11815 1da7 02       		.uleb128 0x2
 11816 1da8 91       		.byte	0x91
 11817 1da9 64       		.sleb128 -28
 11818 1daa 32       		.uleb128 0x32
 11819 1dab 7700     		.ascii	"w\000"
 11820 1dad 02       		.byte	0x2
 11821 1dae 0103     		.2byte	0x301
 11822 1db0 D9000000 		.4byte	0xd9
 11823 1db4 02       		.uleb128 0x2
 11824 1db5 91       		.byte	0x91
 11825 1db6 62       		.sleb128 -30
 11826 1db7 32       		.uleb128 0x32
 11827 1db8 6800     		.ascii	"h\000"
 11828 1dba 02       		.byte	0x2
 11829 1dbb 0103     		.2byte	0x301
 11830 1dbd D9000000 		.4byte	0xd9
 11831 1dc1 02       		.uleb128 0x2
 11832 1dc2 91       		.byte	0x91
 11833 1dc3 60       		.sleb128 -32
 11834 1dc4 30       		.uleb128 0x30
 11835 1dc5 6F726900 		.ascii	"ori\000"
 11836 1dc9 02       		.byte	0x2
 11837 1dca 1103     		.2byte	0x311
 11838 1dcc 58030000 		.4byte	0x358
 11839 1dd0 02       		.uleb128 0x2
 11840 1dd1 91       		.byte	0x91
 11841 1dd2 68       		.sleb128 -24
 11842 1dd3 30       		.uleb128 0x30
 11843 1dd4 70617200 		.ascii	"par\000"
 11844 1dd8 02       		.byte	0x2
 11845 1dd9 2003     		.2byte	0x320
 11846 1ddb CB180000 		.4byte	0x18cb
 11847 1ddf 02       		.uleb128 0x2
 11848 1de0 91       		.byte	0x91
 11849 1de1 70       		.sleb128 -16
 11850 1de2 30       		.uleb128 0x30
 11851 1de3 6900     		.ascii	"i\000"
 11852 1de5 02       		.byte	0x2
 11853 1de6 2403     		.2byte	0x324
 11854 1de8 CB180000 		.4byte	0x18cb
ARM GAS  C:\Users\tmj32\AppData\Local\Temp\ccxLNxq9.s 			page 258


 11855 1dec 02       		.uleb128 0x2
 11856 1ded 91       		.byte	0x91
 11857 1dee 74       		.sleb128 -12
 11858 1def 00       		.byte	0
 11859 1df0 34       		.uleb128 0x34
 11860 1df1 F1140000 		.4byte	.LASF388
 11861 1df5 02       		.byte	0x2
 11862 1df6 3803     		.2byte	0x338
 11863 1df8 00000000 		.4byte	.LFB50
 11864 1dfc 2A000000 		.4byte	.LFE50-.LFB50
 11865 1e00 01       		.uleb128 0x1
 11866 1e01 9C       		.byte	0x9c
 11867 1e02 231E0000 		.4byte	0x1e23
 11868 1e06 32       		.uleb128 0x32
 11869 1e07 6F626A00 		.ascii	"obj\000"
 11870 1e0b 02       		.byte	0x2
 11871 1e0c 3803     		.2byte	0x338
 11872 1e0e CB180000 		.4byte	0x18cb
 11873 1e12 02       		.uleb128 0x2
 11874 1e13 91       		.byte	0x91
 11875 1e14 74       		.sleb128 -12
 11876 1e15 32       		.uleb128 0x32
 11877 1e16 7700     		.ascii	"w\000"
 11878 1e18 02       		.byte	0x2
 11879 1e19 3803     		.2byte	0x338
 11880 1e1b D9000000 		.4byte	0xd9
 11881 1e1f 02       		.uleb128 0x2
 11882 1e20 91       		.byte	0x91
 11883 1e21 72       		.sleb128 -14
 11884 1e22 00       		.byte	0
 11885 1e23 34       		.uleb128 0x34
 11886 1e24 DF060000 		.4byte	.LASF389
 11887 1e28 02       		.byte	0x2
 11888 1e29 4403     		.2byte	0x344
 11889 1e2b 00000000 		.4byte	.LFB51
 11890 1e2f 2A000000 		.4byte	.LFE51-.LFB51
 11891 1e33 01       		.uleb128 0x1
 11892 1e34 9C       		.byte	0x9c
 11893 1e35 561E0000 		.4byte	0x1e56
 11894 1e39 32       		.uleb128 0x32
 11895 1e3a 6F626A00 		.ascii	"obj\000"
 11896 1e3e 02       		.byte	0x2
 11897 1e3f 4403     		.2byte	0x344
 11898 1e41 CB180000 		.4byte	0x18cb
 11899 1e45 02       		.uleb128 0x2
 11900 1e46 91       		.byte	0x91
 11901 1e47 74       		.sleb128 -12
 11902 1e48 32       		.uleb128 0x32
 11903 1e49 6800     		.ascii	"h\000"
 11904 1e4b 02       		.byte	0x2
 11905 1e4c 4403     		.2byte	0x344
 11906 1e4e D9000000 		.4byte	0xd9
 11907 1e52 02       		.uleb128 0x2
 11908 1e53 91       		.byte	0x91
 11909 1e54 72       		.sleb128 -14
 11910 1e55 00       		.byte	0
 11911 1e56 34       		.uleb128 0x34
ARM GAS  C:\Users\tmj32\AppData\Local\Temp\ccxLNxq9.s 			page 259


 11912 1e57 33070000 		.4byte	.LASF390
 11913 1e5b 02       		.byte	0x2
 11914 1e5c 5303     		.2byte	0x353
 11915 1e5e 00000000 		.4byte	.LFB52
 11916 1e62 C6040000 		.4byte	.LFE52-.LFB52
 11917 1e66 01       		.uleb128 0x1
 11918 1e67 9C       		.byte	0x9c
 11919 1e68 211F0000 		.4byte	0x1f21
 11920 1e6c 32       		.uleb128 0x32
 11921 1e6d 6F626A00 		.ascii	"obj\000"
 11922 1e71 02       		.byte	0x2
 11923 1e72 5303     		.2byte	0x353
 11924 1e74 CB180000 		.4byte	0x18cb
 11925 1e78 02       		.uleb128 0x2
 11926 1e79 91       		.byte	0x91
 11927 1e7a 5C       		.sleb128 -36
 11928 1e7b 35       		.uleb128 0x35
 11929 1e7c E6160000 		.4byte	.LASF286
 11930 1e80 02       		.byte	0x2
 11931 1e81 5303     		.2byte	0x353
 11932 1e83 0B1A0000 		.4byte	0x1a0b
 11933 1e87 02       		.uleb128 0x2
 11934 1e88 91       		.byte	0x91
 11935 1e89 58       		.sleb128 -40
 11936 1e8a 35       		.uleb128 0x35
 11937 1e8b F80D0000 		.4byte	.LASF289
 11938 1e8f 02       		.byte	0x2
 11939 1e90 5303     		.2byte	0x353
 11940 1e92 C60F0000 		.4byte	0xfc6
 11941 1e96 02       		.uleb128 0x2
 11942 1e97 91       		.byte	0x91
 11943 1e98 57       		.sleb128 -41
 11944 1e99 35       		.uleb128 0x35
 11945 1e9a E41A0000 		.4byte	.LASF391
 11946 1e9e 02       		.byte	0x2
 11947 1e9f 5303     		.2byte	0x353
 11948 1ea1 D9000000 		.4byte	0xd9
 11949 1ea5 02       		.uleb128 0x2
 11950 1ea6 91       		.byte	0x91
 11951 1ea7 54       		.sleb128 -44
 11952 1ea8 35       		.uleb128 0x35
 11953 1ea9 3F160000 		.4byte	.LASF392
 11954 1ead 02       		.byte	0x2
 11955 1eae 5303     		.2byte	0x353
 11956 1eb0 D9000000 		.4byte	0xd9
 11957 1eb4 02       		.uleb128 0x2
 11958 1eb5 91       		.byte	0x91
 11959 1eb6 00       		.sleb128 0
 11960 1eb7 33       		.uleb128 0x33
 11961 1eb8 2D130000 		.4byte	.LASF393
 11962 1ebc 02       		.byte	0x2
 11963 1ebd 5703     		.2byte	0x357
 11964 1ebf D9000000 		.4byte	0xd9
 11965 1ec3 02       		.uleb128 0x2
 11966 1ec4 91       		.byte	0x91
 11967 1ec5 6E       		.sleb128 -18
 11968 1ec6 33       		.uleb128 0x33
ARM GAS  C:\Users\tmj32\AppData\Local\Temp\ccxLNxq9.s 			page 260


 11969 1ec7 33130000 		.4byte	.LASF394
 11970 1ecb 02       		.byte	0x2
 11971 1ecc 5803     		.2byte	0x358
 11972 1ece D9000000 		.4byte	0xd9
 11973 1ed2 02       		.uleb128 0x2
 11974 1ed3 91       		.byte	0x91
 11975 1ed4 6C       		.sleb128 -20
 11976 1ed5 30       		.uleb128 0x30
 11977 1ed6 70617200 		.ascii	"par\000"
 11978 1eda 02       		.byte	0x2
 11979 1edb CB03     		.2byte	0x3cb
 11980 1edd CB180000 		.4byte	0x18cb
 11981 1ee1 02       		.uleb128 0x2
 11982 1ee2 91       		.byte	0x91
 11983 1ee3 68       		.sleb128 -24
 11984 1ee4 33       		.uleb128 0x33
 11985 1ee5 40070000 		.4byte	.LASF395
 11986 1ee9 02       		.byte	0x2
 11987 1eea CC03     		.2byte	0x3cc
 11988 1eec D9000000 		.4byte	0xd9
 11989 1ef0 02       		.uleb128 0x2
 11990 1ef1 91       		.byte	0x91
 11991 1ef2 66       		.sleb128 -26
 11992 1ef3 33       		.uleb128 0x33
 11993 1ef4 FC170000 		.4byte	.LASF396
 11994 1ef8 02       		.byte	0x2
 11995 1ef9 CD03     		.2byte	0x3cd
 11996 1efb D9000000 		.4byte	0xd9
 11997 1eff 02       		.uleb128 0x2
 11998 1f00 91       		.byte	0x91
 11999 1f01 64       		.sleb128 -28
 12000 1f02 33       		.uleb128 0x33
 12001 1f03 CF120000 		.4byte	.LASF397
 12002 1f07 02       		.byte	0x2
 12003 1f08 CE03     		.2byte	0x3ce
 12004 1f0a D9000000 		.4byte	0xd9
 12005 1f0e 02       		.uleb128 0x2
 12006 1f0f 91       		.byte	0x91
 12007 1f10 62       		.sleb128 -30
 12008 1f11 33       		.uleb128 0x33
 12009 1f12 D9120000 		.4byte	.LASF398
 12010 1f16 02       		.byte	0x2
 12011 1f17 CF03     		.2byte	0x3cf
 12012 1f19 D9000000 		.4byte	0xd9
 12013 1f1d 02       		.uleb128 0x2
 12014 1f1e 91       		.byte	0x91
 12015 1f1f 60       		.sleb128 -32
 12016 1f20 00       		.byte	0
 12017 1f21 34       		.uleb128 0x34
 12018 1f22 28020000 		.4byte	.LASF399
 12019 1f26 02       		.byte	0x2
 12020 1f27 E903     		.2byte	0x3e9
 12021 1f29 00000000 		.4byte	.LFB53
 12022 1f2d 1E040000 		.4byte	.LFE53-.LFB53
 12023 1f31 01       		.uleb128 0x1
 12024 1f32 9C       		.byte	0x9c
 12025 1f33 0A200000 		.4byte	0x200a
ARM GAS  C:\Users\tmj32\AppData\Local\Temp\ccxLNxq9.s 			page 261


 12026 1f37 32       		.uleb128 0x32
 12027 1f38 6F626A00 		.ascii	"obj\000"
 12028 1f3c 02       		.byte	0x2
 12029 1f3d E903     		.2byte	0x3e9
 12030 1f3f CB180000 		.4byte	0x18cb
 12031 1f43 02       		.uleb128 0x2
 12032 1f44 91       		.byte	0x91
 12033 1f45 5C       		.sleb128 -36
 12034 1f46 35       		.uleb128 0x35
 12035 1f47 E6160000 		.4byte	.LASF286
 12036 1f4b 02       		.byte	0x2
 12037 1f4c E903     		.2byte	0x3e9
 12038 1f4e 0B1A0000 		.4byte	0x1a0b
 12039 1f52 02       		.uleb128 0x2
 12040 1f53 91       		.byte	0x91
 12041 1f54 58       		.sleb128 -40
 12042 1f55 35       		.uleb128 0x35
 12043 1f56 F80D0000 		.4byte	.LASF289
 12044 1f5a 02       		.byte	0x2
 12045 1f5b E903     		.2byte	0x3e9
 12046 1f5d C60F0000 		.4byte	0xfc6
 12047 1f61 02       		.uleb128 0x2
 12048 1f62 91       		.byte	0x91
 12049 1f63 57       		.sleb128 -41
 12050 1f64 35       		.uleb128 0x35
 12051 1f65 E41A0000 		.4byte	.LASF391
 12052 1f69 02       		.byte	0x2
 12053 1f6a E903     		.2byte	0x3e9
 12054 1f6c D9000000 		.4byte	0xd9
 12055 1f70 02       		.uleb128 0x2
 12056 1f71 91       		.byte	0x91
 12057 1f72 54       		.sleb128 -44
 12058 1f73 35       		.uleb128 0x35
 12059 1f74 3F160000 		.4byte	.LASF392
 12060 1f78 02       		.byte	0x2
 12061 1f79 E903     		.2byte	0x3e9
 12062 1f7b D9000000 		.4byte	0xd9
 12063 1f7f 02       		.uleb128 0x2
 12064 1f80 91       		.byte	0x91
 12065 1f81 00       		.sleb128 0
 12066 1f82 33       		.uleb128 0x33
 12067 1f83 2D130000 		.4byte	.LASF393
 12068 1f87 02       		.byte	0x2
 12069 1f88 ED03     		.2byte	0x3ed
 12070 1f8a D9000000 		.4byte	0xd9
 12071 1f8e 02       		.uleb128 0x2
 12072 1f8f 91       		.byte	0x91
 12073 1f90 76       		.sleb128 -10
 12074 1f91 33       		.uleb128 0x33
 12075 1f92 33130000 		.4byte	.LASF394
 12076 1f96 02       		.byte	0x2
 12077 1f97 EE03     		.2byte	0x3ee
 12078 1f99 D9000000 		.4byte	0xd9
 12079 1f9d 02       		.uleb128 0x2
 12080 1f9e 91       		.byte	0x91
 12081 1f9f 74       		.sleb128 -12
 12082 1fa0 33       		.uleb128 0x33
ARM GAS  C:\Users\tmj32\AppData\Local\Temp\ccxLNxq9.s 			page 262


 12083 1fa1 A8050000 		.4byte	.LASF400
 12084 1fa5 02       		.byte	0x2
 12085 1fa6 F003     		.2byte	0x3f0
 12086 1fa8 D9000000 		.4byte	0xd9
 12087 1fac 02       		.uleb128 0x2
 12088 1fad 91       		.byte	0x91
 12089 1fae 72       		.sleb128 -14
 12090 1faf 33       		.uleb128 0x33
 12091 1fb0 62090000 		.4byte	.LASF401
 12092 1fb4 02       		.byte	0x2
 12093 1fb5 F103     		.2byte	0x3f1
 12094 1fb7 D9000000 		.4byte	0xd9
 12095 1fbb 02       		.uleb128 0x2
 12096 1fbc 91       		.byte	0x91
 12097 1fbd 70       		.sleb128 -16
 12098 1fbe 30       		.uleb128 0x30
 12099 1fbf 70617200 		.ascii	"par\000"
 12100 1fc3 02       		.byte	0x2
 12101 1fc4 6404     		.2byte	0x464
 12102 1fc6 CB180000 		.4byte	0x18cb
 12103 1fca 02       		.uleb128 0x2
 12104 1fcb 91       		.byte	0x91
 12105 1fcc 6C       		.sleb128 -20
 12106 1fcd 33       		.uleb128 0x33
 12107 1fce 40070000 		.4byte	.LASF395
 12108 1fd2 02       		.byte	0x2
 12109 1fd3 6504     		.2byte	0x465
 12110 1fd5 D9000000 		.4byte	0xd9
 12111 1fd9 02       		.uleb128 0x2
 12112 1fda 91       		.byte	0x91
 12113 1fdb 6A       		.sleb128 -22
 12114 1fdc 33       		.uleb128 0x33
 12115 1fdd FC170000 		.4byte	.LASF396
 12116 1fe1 02       		.byte	0x2
 12117 1fe2 6604     		.2byte	0x466
 12118 1fe4 D9000000 		.4byte	0xd9
 12119 1fe8 02       		.uleb128 0x2
 12120 1fe9 91       		.byte	0x91
 12121 1fea 68       		.sleb128 -24
 12122 1feb 33       		.uleb128 0x33
 12123 1fec CF120000 		.4byte	.LASF397
 12124 1ff0 02       		.byte	0x2
 12125 1ff1 6704     		.2byte	0x467
 12126 1ff3 D9000000 		.4byte	0xd9
 12127 1ff7 02       		.uleb128 0x2
 12128 1ff8 91       		.byte	0x91
 12129 1ff9 66       		.sleb128 -26
 12130 1ffa 33       		.uleb128 0x33
 12131 1ffb D9120000 		.4byte	.LASF398
 12132 1fff 02       		.byte	0x2
 12133 2000 6804     		.2byte	0x468
 12134 2002 D9000000 		.4byte	0xd9
 12135 2006 02       		.uleb128 0x2
 12136 2007 91       		.byte	0x91
 12137 2008 64       		.sleb128 -28
 12138 2009 00       		.byte	0
 12139 200a 34       		.uleb128 0x34
ARM GAS  C:\Users\tmj32\AppData\Local\Temp\ccxLNxq9.s 			page 263


 12140 200b D5040000 		.4byte	.LASF402
 12141 200f 02       		.byte	0x2
 12142 2010 7E04     		.2byte	0x47e
 12143 2012 00000000 		.4byte	.LFB54
 12144 2016 62000000 		.4byte	.LFE54-.LFB54
 12145 201a 01       		.uleb128 0x1
 12146 201b 9C       		.byte	0x9c
 12147 201c 30200000 		.4byte	0x2030
 12148 2020 32       		.uleb128 0x32
 12149 2021 6F626A00 		.ascii	"obj\000"
 12150 2025 02       		.byte	0x2
 12151 2026 7E04     		.2byte	0x47e
 12152 2028 CB180000 		.4byte	0x18cb
 12153 202c 02       		.uleb128 0x2
 12154 202d 91       		.byte	0x91
 12155 202e 74       		.sleb128 -12
 12156 202f 00       		.byte	0
 12157 2030 37       		.uleb128 0x37
 12158 2031 BA160000 		.4byte	.LASF403
 12159 2035 02       		.byte	0x2
 12160 2036 9304     		.2byte	0x493
 12161 2038 00000000 		.4byte	.LFB55
 12162 203c 2E000000 		.4byte	.LFE55-.LFB55
 12163 2040 01       		.uleb128 0x1
 12164 2041 9C       		.byte	0x9c
 12165 2042 64200000 		.4byte	0x2064
 12166 2046 32       		.uleb128 0x32
 12167 2047 6F626A00 		.ascii	"obj\000"
 12168 204b 02       		.byte	0x2
 12169 204c 9304     		.2byte	0x493
 12170 204e CB180000 		.4byte	0x18cb
 12171 2052 02       		.uleb128 0x2
 12172 2053 91       		.byte	0x91
 12173 2054 74       		.sleb128 -12
 12174 2055 32       		.uleb128 0x32
 12175 2056 656E00   		.ascii	"en\000"
 12176 2059 02       		.byte	0x2
 12177 205a 9304     		.2byte	0x493
 12178 205c BF010000 		.4byte	0x1bf
 12179 2060 02       		.uleb128 0x2
 12180 2061 91       		.byte	0x91
 12181 2062 73       		.sleb128 -13
 12182 2063 00       		.byte	0
 12183 2064 37       		.uleb128 0x37
 12184 2065 EA130000 		.4byte	.LASF404
 12185 2069 02       		.byte	0x2
 12186 206a AB04     		.2byte	0x4ab
 12187 206c 00000000 		.4byte	.LFB56
 12188 2070 26000000 		.4byte	.LFE56-.LFB56
 12189 2074 01       		.uleb128 0x1
 12190 2075 9C       		.byte	0x9c
 12191 2076 C6200000 		.4byte	0x20c6
 12192 207a 32       		.uleb128 0x32
 12193 207b 6F626A00 		.ascii	"obj\000"
 12194 207f 02       		.byte	0x2
 12195 2080 AB04     		.2byte	0x4ab
 12196 2082 CB180000 		.4byte	0x18cb
ARM GAS  C:\Users\tmj32\AppData\Local\Temp\ccxLNxq9.s 			page 264


 12197 2086 02       		.uleb128 0x2
 12198 2087 91       		.byte	0x91
 12199 2088 74       		.sleb128 -12
 12200 2089 35       		.uleb128 0x35
 12201 208a 3B090000 		.4byte	.LASF71
 12202 208e 02       		.byte	0x2
 12203 208f AB04     		.2byte	0x4ab
 12204 2091 D9000000 		.4byte	0xd9
 12205 2095 02       		.uleb128 0x2
 12206 2096 91       		.byte	0x91
 12207 2097 72       		.sleb128 -14
 12208 2098 35       		.uleb128 0x35
 12209 2099 340C0000 		.4byte	.LASF72
 12210 209d 02       		.byte	0x2
 12211 209e AB04     		.2byte	0x4ab
 12212 20a0 D9000000 		.4byte	0xd9
 12213 20a4 02       		.uleb128 0x2
 12214 20a5 91       		.byte	0x91
 12215 20a6 70       		.sleb128 -16
 12216 20a7 32       		.uleb128 0x32
 12217 20a8 746F7000 		.ascii	"top\000"
 12218 20ac 02       		.byte	0x2
 12219 20ad AB04     		.2byte	0x4ab
 12220 20af D9000000 		.4byte	0xd9
 12221 20b3 02       		.uleb128 0x2
 12222 20b4 91       		.byte	0x91
 12223 20b5 6E       		.sleb128 -18
 12224 20b6 35       		.uleb128 0x35
 12225 20b7 340D0000 		.4byte	.LASF70
 12226 20bb 02       		.byte	0x2
 12227 20bc AB04     		.2byte	0x4ab
 12228 20be D9000000 		.4byte	0xd9
 12229 20c2 02       		.uleb128 0x2
 12230 20c3 91       		.byte	0x91
 12231 20c4 00       		.sleb128 0
 12232 20c5 00       		.byte	0
 12233 20c6 34       		.uleb128 0x34
 12234 20c7 80190000 		.4byte	.LASF405
 12235 20cb 02       		.byte	0x2
 12236 20cc C904     		.2byte	0x4c9
 12237 20ce 00000000 		.4byte	.LFB57
 12238 20d2 24000000 		.4byte	.LFE57-.LFB57
 12239 20d6 01       		.uleb128 0x1
 12240 20d7 9C       		.byte	0x9c
 12241 20d8 FB200000 		.4byte	0x20fb
 12242 20dc 32       		.uleb128 0x32
 12243 20dd 6F626A00 		.ascii	"obj\000"
 12244 20e1 02       		.byte	0x2
 12245 20e2 C904     		.2byte	0x4c9
 12246 20e4 CB180000 		.4byte	0x18cb
 12247 20e8 02       		.uleb128 0x2
 12248 20e9 91       		.byte	0x91
 12249 20ea 74       		.sleb128 -12
 12250 20eb 35       		.uleb128 0x35
 12251 20ec A4100000 		.4byte	.LASF348
 12252 20f0 02       		.byte	0x2
 12253 20f1 C904     		.2byte	0x4c9
ARM GAS  C:\Users\tmj32\AppData\Local\Temp\ccxLNxq9.s 			page 265


 12254 20f3 68100000 		.4byte	0x1068
 12255 20f7 02       		.uleb128 0x2
 12256 20f8 91       		.byte	0x91
 12257 20f9 70       		.sleb128 -16
 12258 20fa 00       		.byte	0
 12259 20fb 34       		.uleb128 0x34
 12260 20fc A60E0000 		.4byte	.LASF406
 12261 2100 02       		.byte	0x2
 12262 2101 DB04     		.2byte	0x4db
 12263 2103 00000000 		.4byte	.LFB58
 12264 2107 28000000 		.4byte	.LFE58-.LFB58
 12265 210b 01       		.uleb128 0x1
 12266 210c 9C       		.byte	0x9c
 12267 210d 21210000 		.4byte	0x2121
 12268 2111 32       		.uleb128 0x32
 12269 2112 6F626A00 		.ascii	"obj\000"
 12270 2116 02       		.byte	0x2
 12271 2117 DB04     		.2byte	0x4db
 12272 2119 CB180000 		.4byte	0x18cb
 12273 211d 02       		.uleb128 0x2
 12274 211e 91       		.byte	0x91
 12275 211f 74       		.sleb128 -12
 12276 2120 00       		.byte	0
 12277 2121 34       		.uleb128 0x34
 12278 2122 6D110000 		.4byte	.LASF407
 12279 2126 02       		.byte	0x2
 12280 2127 E904     		.2byte	0x4e9
 12281 2129 00000000 		.4byte	.LFB59
 12282 212d 68000000 		.4byte	.LFE59-.LFB59
 12283 2131 01       		.uleb128 0x1
 12284 2132 9C       		.byte	0x9c
 12285 2133 6B210000 		.4byte	0x216b
 12286 2137 35       		.uleb128 0x35
 12287 2138 A4100000 		.4byte	.LASF348
 12288 213c 02       		.byte	0x2
 12289 213d E904     		.2byte	0x4e9
 12290 213f D0050000 		.4byte	0x5d0
 12291 2143 02       		.uleb128 0x2
 12292 2144 91       		.byte	0x91
 12293 2145 6C       		.sleb128 -20
 12294 2146 30       		.uleb128 0x30
 12295 2147 6400     		.ascii	"d\000"
 12296 2149 02       		.byte	0x2
 12297 214a ED04     		.2byte	0x4ed
 12298 214c 161A0000 		.4byte	0x1a16
 12299 2150 02       		.uleb128 0x2
 12300 2151 91       		.byte	0x91
 12301 2152 74       		.sleb128 -12
 12302 2153 2F       		.uleb128 0x2f
 12303 2154 12000000 		.4byte	.LBB7
 12304 2158 48000000 		.4byte	.LBE7-.LBB7
 12305 215c 30       		.uleb128 0x30
 12306 215d 6900     		.ascii	"i\000"
 12307 215f 02       		.byte	0x2
 12308 2160 F004     		.2byte	0x4f0
 12309 2162 CB180000 		.4byte	0x18cb
 12310 2166 02       		.uleb128 0x2
ARM GAS  C:\Users\tmj32\AppData\Local\Temp\ccxLNxq9.s 			page 266


 12311 2167 91       		.byte	0x91
 12312 2168 70       		.sleb128 -16
 12313 2169 00       		.byte	0
 12314 216a 00       		.byte	0
 12315 216b 34       		.uleb128 0x34
 12316 216c 740A0000 		.4byte	.LASF408
 12317 2170 02       		.byte	0x2
 12318 2171 0605     		.2byte	0x506
 12319 2173 00000000 		.4byte	.LFB60
 12320 2177 74000000 		.4byte	.LFE60-.LFB60
 12321 217b 01       		.uleb128 0x1
 12322 217c 9C       		.byte	0x9c
 12323 217d AE210000 		.4byte	0x21ae
 12324 2181 32       		.uleb128 0x32
 12325 2182 6F626A00 		.ascii	"obj\000"
 12326 2186 02       		.byte	0x2
 12327 2187 0605     		.2byte	0x506
 12328 2189 CB180000 		.4byte	0x18cb
 12329 218d 02       		.uleb128 0x2
 12330 218e 91       		.byte	0x91
 12331 218f 6C       		.sleb128 -20
 12332 2190 32       		.uleb128 0x32
 12333 2191 656E00   		.ascii	"en\000"
 12334 2194 02       		.byte	0x2
 12335 2195 0605     		.2byte	0x506
 12336 2197 BF010000 		.4byte	0x1bf
 12337 219b 02       		.uleb128 0x2
 12338 219c 91       		.byte	0x91
 12339 219d 6B       		.sleb128 -21
 12340 219e 30       		.uleb128 0x30
 12341 219f 70617200 		.ascii	"par\000"
 12342 21a3 02       		.byte	0x2
 12343 21a4 1005     		.2byte	0x510
 12344 21a6 CB180000 		.4byte	0x18cb
 12345 21aa 02       		.uleb128 0x2
 12346 21ab 91       		.byte	0x91
 12347 21ac 74       		.sleb128 -12
 12348 21ad 00       		.byte	0
 12349 21ae 37       		.uleb128 0x37
 12350 21af D9130000 		.4byte	.LASF409
 12351 21b3 02       		.byte	0x2
 12352 21b4 1905     		.2byte	0x519
 12353 21b6 00000000 		.4byte	.LFB61
 12354 21ba 2E000000 		.4byte	.LFE61-.LFB61
 12355 21be 01       		.uleb128 0x1
 12356 21bf 9C       		.byte	0x9c
 12357 21c0 E2210000 		.4byte	0x21e2
 12358 21c4 32       		.uleb128 0x32
 12359 21c5 6F626A00 		.ascii	"obj\000"
 12360 21c9 02       		.byte	0x2
 12361 21ca 1905     		.2byte	0x519
 12362 21cc CB180000 		.4byte	0x18cb
 12363 21d0 02       		.uleb128 0x2
 12364 21d1 91       		.byte	0x91
 12365 21d2 74       		.sleb128 -12
 12366 21d3 32       		.uleb128 0x32
 12367 21d4 656E00   		.ascii	"en\000"
ARM GAS  C:\Users\tmj32\AppData\Local\Temp\ccxLNxq9.s 			page 267


 12368 21d7 02       		.byte	0x2
 12369 21d8 1905     		.2byte	0x519
 12370 21da BF010000 		.4byte	0x1bf
 12371 21de 02       		.uleb128 0x2
 12372 21df 91       		.byte	0x91
 12373 21e0 73       		.sleb128 -13
 12374 21e1 00       		.byte	0
 12375 21e2 37       		.uleb128 0x37
 12376 21e3 46050000 		.4byte	.LASF410
 12377 21e7 02       		.byte	0x2
 12378 21e8 2605     		.2byte	0x526
 12379 21ea 00000000 		.4byte	.LFB62
 12380 21ee 2E000000 		.4byte	.LFE62-.LFB62
 12381 21f2 01       		.uleb128 0x1
 12382 21f3 9C       		.byte	0x9c
 12383 21f4 16220000 		.4byte	0x2216
 12384 21f8 32       		.uleb128 0x32
 12385 21f9 6F626A00 		.ascii	"obj\000"
 12386 21fd 02       		.byte	0x2
 12387 21fe 2605     		.2byte	0x526
 12388 2200 CB180000 		.4byte	0x18cb
 12389 2204 02       		.uleb128 0x2
 12390 2205 91       		.byte	0x91
 12391 2206 74       		.sleb128 -12
 12392 2207 32       		.uleb128 0x32
 12393 2208 656E00   		.ascii	"en\000"
 12394 220b 02       		.byte	0x2
 12395 220c 2605     		.2byte	0x526
 12396 220e BF010000 		.4byte	0x1bf
 12397 2212 02       		.uleb128 0x2
 12398 2213 91       		.byte	0x91
 12399 2214 73       		.sleb128 -13
 12400 2215 00       		.byte	0
 12401 2216 34       		.uleb128 0x34
 12402 2217 4E040000 		.4byte	.LASF411
 12403 221b 02       		.byte	0x2
 12404 221c 3205     		.2byte	0x532
 12405 221e 00000000 		.4byte	.LFB63
 12406 2222 38000000 		.4byte	.LFE63-.LFB63
 12407 2226 01       		.uleb128 0x1
 12408 2227 9C       		.byte	0x9c
 12409 2228 4A220000 		.4byte	0x224a
 12410 222c 32       		.uleb128 0x32
 12411 222d 6F626A00 		.ascii	"obj\000"
 12412 2231 02       		.byte	0x2
 12413 2232 3205     		.2byte	0x532
 12414 2234 CB180000 		.4byte	0x18cb
 12415 2238 02       		.uleb128 0x2
 12416 2239 91       		.byte	0x91
 12417 223a 74       		.sleb128 -12
 12418 223b 32       		.uleb128 0x32
 12419 223c 656E00   		.ascii	"en\000"
 12420 223f 02       		.byte	0x2
 12421 2240 3205     		.2byte	0x532
 12422 2242 BF010000 		.4byte	0x1bf
 12423 2246 02       		.uleb128 0x2
 12424 2247 91       		.byte	0x91
ARM GAS  C:\Users\tmj32\AppData\Local\Temp\ccxLNxq9.s 			page 268


 12425 2248 73       		.sleb128 -13
 12426 2249 00       		.byte	0
 12427 224a 34       		.uleb128 0x34
 12428 224b 99020000 		.4byte	.LASF412
 12429 224f 02       		.byte	0x2
 12430 2250 3F05     		.2byte	0x53f
 12431 2252 00000000 		.4byte	.LFB64
 12432 2256 42000000 		.4byte	.LFE64-.LFB64
 12433 225a 01       		.uleb128 0x1
 12434 225b 9C       		.byte	0x9c
 12435 225c 7F220000 		.4byte	0x227f
 12436 2260 32       		.uleb128 0x32
 12437 2261 6F626A00 		.ascii	"obj\000"
 12438 2265 02       		.byte	0x2
 12439 2266 3F05     		.2byte	0x53f
 12440 2268 CB180000 		.4byte	0x18cb
 12441 226c 02       		.uleb128 0x2
 12442 226d 91       		.byte	0x91
 12443 226e 74       		.sleb128 -12
 12444 226f 35       		.uleb128 0x35
 12445 2270 CF050000 		.4byte	.LASF162
 12446 2274 02       		.byte	0x2
 12447 2275 3F05     		.2byte	0x53f
 12448 2277 5D100000 		.4byte	0x105d
 12449 227b 02       		.uleb128 0x2
 12450 227c 91       		.byte	0x91
 12451 227d 73       		.sleb128 -13
 12452 227e 00       		.byte	0
 12453 227f 37       		.uleb128 0x37
 12454 2280 C9020000 		.4byte	.LASF413
 12455 2284 02       		.byte	0x2
 12456 2285 4D05     		.2byte	0x54d
 12457 2287 00000000 		.4byte	.LFB65
 12458 228b 2E000000 		.4byte	.LFE65-.LFB65
 12459 228f 01       		.uleb128 0x1
 12460 2290 9C       		.byte	0x9c
 12461 2291 B3220000 		.4byte	0x22b3
 12462 2295 32       		.uleb128 0x32
 12463 2296 6F626A00 		.ascii	"obj\000"
 12464 229a 02       		.byte	0x2
 12465 229b 4D05     		.2byte	0x54d
 12466 229d CB180000 		.4byte	0x18cb
 12467 22a1 02       		.uleb128 0x2
 12468 22a2 91       		.byte	0x91
 12469 22a3 74       		.sleb128 -12
 12470 22a4 32       		.uleb128 0x32
 12471 22a5 656E00   		.ascii	"en\000"
 12472 22a8 02       		.byte	0x2
 12473 22a9 4D05     		.2byte	0x54d
 12474 22ab BF010000 		.4byte	0x1bf
 12475 22af 02       		.uleb128 0x2
 12476 22b0 91       		.byte	0x91
 12477 22b1 73       		.sleb128 -13
 12478 22b2 00       		.byte	0
 12479 22b3 37       		.uleb128 0x37
 12480 22b4 83150000 		.4byte	.LASF414
 12481 22b8 02       		.byte	0x2
ARM GAS  C:\Users\tmj32\AppData\Local\Temp\ccxLNxq9.s 			page 269


 12482 22b9 5A05     		.2byte	0x55a
 12483 22bb 00000000 		.4byte	.LFB66
 12484 22bf 2E000000 		.4byte	.LFE66-.LFB66
 12485 22c3 01       		.uleb128 0x1
 12486 22c4 9C       		.byte	0x9c
 12487 22c5 E7220000 		.4byte	0x22e7
 12488 22c9 32       		.uleb128 0x32
 12489 22ca 6F626A00 		.ascii	"obj\000"
 12490 22ce 02       		.byte	0x2
 12491 22cf 5A05     		.2byte	0x55a
 12492 22d1 CB180000 		.4byte	0x18cb
 12493 22d5 02       		.uleb128 0x2
 12494 22d6 91       		.byte	0x91
 12495 22d7 74       		.sleb128 -12
 12496 22d8 32       		.uleb128 0x32
 12497 22d9 656E00   		.ascii	"en\000"
 12498 22dc 02       		.byte	0x2
 12499 22dd 5A05     		.2byte	0x55a
 12500 22df BF010000 		.4byte	0x1bf
 12501 22e3 02       		.uleb128 0x2
 12502 22e4 91       		.byte	0x91
 12503 22e5 73       		.sleb128 -13
 12504 22e6 00       		.byte	0
 12505 22e7 37       		.uleb128 0x37
 12506 22e8 D30E0000 		.4byte	.LASF415
 12507 22ec 02       		.byte	0x2
 12508 22ed 6605     		.2byte	0x566
 12509 22ef 00000000 		.4byte	.LFB67
 12510 22f3 2E000000 		.4byte	.LFE67-.LFB67
 12511 22f7 01       		.uleb128 0x1
 12512 22f8 9C       		.byte	0x9c
 12513 22f9 1B230000 		.4byte	0x231b
 12514 22fd 32       		.uleb128 0x32
 12515 22fe 6F626A00 		.ascii	"obj\000"
 12516 2302 02       		.byte	0x2
 12517 2303 6605     		.2byte	0x566
 12518 2305 CB180000 		.4byte	0x18cb
 12519 2309 02       		.uleb128 0x2
 12520 230a 91       		.byte	0x91
 12521 230b 74       		.sleb128 -12
 12522 230c 32       		.uleb128 0x32
 12523 230d 656E00   		.ascii	"en\000"
 12524 2310 02       		.byte	0x2
 12525 2311 6605     		.2byte	0x566
 12526 2313 BF010000 		.4byte	0x1bf
 12527 2317 02       		.uleb128 0x2
 12528 2318 91       		.byte	0x91
 12529 2319 73       		.sleb128 -13
 12530 231a 00       		.byte	0
 12531 231b 34       		.uleb128 0x34
 12532 231c 761B0000 		.4byte	.LASF416
 12533 2320 02       		.byte	0x2
 12534 2321 6D05     		.2byte	0x56d
 12535 2323 00000000 		.4byte	.LFB68
 12536 2327 54000000 		.4byte	.LFE68-.LFB68
 12537 232b 01       		.uleb128 0x1
 12538 232c 9C       		.byte	0x9c
ARM GAS  C:\Users\tmj32\AppData\Local\Temp\ccxLNxq9.s 			page 270


 12539 232d 50230000 		.4byte	0x2350
 12540 2331 32       		.uleb128 0x32
 12541 2332 6F626A00 		.ascii	"obj\000"
 12542 2336 02       		.byte	0x2
 12543 2337 6D05     		.2byte	0x56d
 12544 2339 CB180000 		.4byte	0x18cb
 12545 233d 02       		.uleb128 0x2
 12546 233e 91       		.byte	0x91
 12547 233f 74       		.sleb128 -12
 12548 2340 32       		.uleb128 0x32
 12549 2341 64697200 		.ascii	"dir\000"
 12550 2345 02       		.byte	0x2
 12551 2346 6D05     		.2byte	0x56d
 12552 2348 74060000 		.4byte	0x674
 12553 234c 02       		.uleb128 0x2
 12554 234d 91       		.byte	0x91
 12555 234e 73       		.sleb128 -13
 12556 234f 00       		.byte	0
 12557 2350 37       		.uleb128 0x37
 12558 2351 92060000 		.4byte	.LASF417
 12559 2355 02       		.byte	0x2
 12560 2356 8305     		.2byte	0x583
 12561 2358 00000000 		.4byte	.LFB69
 12562 235c 2E000000 		.4byte	.LFE69-.LFB69
 12563 2360 01       		.uleb128 0x1
 12564 2361 9C       		.byte	0x9c
 12565 2362 84230000 		.4byte	0x2384
 12566 2366 32       		.uleb128 0x32
 12567 2367 6F626A00 		.ascii	"obj\000"
 12568 236b 02       		.byte	0x2
 12569 236c 8305     		.2byte	0x583
 12570 236e CB180000 		.4byte	0x18cb
 12571 2372 02       		.uleb128 0x2
 12572 2373 91       		.byte	0x91
 12573 2374 74       		.sleb128 -12
 12574 2375 32       		.uleb128 0x32
 12575 2376 656E00   		.ascii	"en\000"
 12576 2379 02       		.byte	0x2
 12577 237a 8305     		.2byte	0x583
 12578 237c BF010000 		.4byte	0x1bf
 12579 2380 02       		.uleb128 0x2
 12580 2381 91       		.byte	0x91
 12581 2382 73       		.sleb128 -13
 12582 2383 00       		.byte	0
 12583 2384 34       		.uleb128 0x34
 12584 2385 0A040000 		.4byte	.LASF418
 12585 2389 02       		.byte	0x2
 12586 238a 9205     		.2byte	0x592
 12587 238c 00000000 		.4byte	.LFB70
 12588 2390 22000000 		.4byte	.LFE70-.LFB70
 12589 2394 01       		.uleb128 0x1
 12590 2395 9C       		.byte	0x9c
 12591 2396 B9230000 		.4byte	0x23b9
 12592 239a 32       		.uleb128 0x32
 12593 239b 6F626A00 		.ascii	"obj\000"
 12594 239f 02       		.byte	0x2
 12595 23a0 9205     		.2byte	0x592
ARM GAS  C:\Users\tmj32\AppData\Local\Temp\ccxLNxq9.s 			page 271


 12596 23a2 CB180000 		.4byte	0x18cb
 12597 23a6 02       		.uleb128 0x2
 12598 23a7 91       		.byte	0x91
 12599 23a8 74       		.sleb128 -12
 12600 23a9 35       		.uleb128 0x35
 12601 23aa 0C1C0000 		.4byte	.LASF166
 12602 23ae 02       		.byte	0x2
 12603 23af 9205     		.2byte	0x592
 12604 23b1 D6020000 		.4byte	0x2d6
 12605 23b5 02       		.uleb128 0x2
 12606 23b6 91       		.byte	0x91
 12607 23b7 73       		.sleb128 -13
 12608 23b8 00       		.byte	0
 12609 23b9 37       		.uleb128 0x37
 12610 23ba 1A150000 		.4byte	.LASF419
 12611 23be 02       		.byte	0x2
 12612 23bf 9F05     		.2byte	0x59f
 12613 23c1 00000000 		.4byte	.LFB71
 12614 23c5 2A000000 		.4byte	.LFE71-.LFB71
 12615 23c9 01       		.uleb128 0x1
 12616 23ca 9C       		.byte	0x9c
 12617 23cb EE230000 		.4byte	0x23ee
 12618 23cf 32       		.uleb128 0x32
 12619 23d0 6F626A00 		.ascii	"obj\000"
 12620 23d4 02       		.byte	0x2
 12621 23d5 9F05     		.2byte	0x59f
 12622 23d7 CB180000 		.4byte	0x18cb
 12623 23db 02       		.uleb128 0x2
 12624 23dc 91       		.byte	0x91
 12625 23dd 74       		.sleb128 -12
 12626 23de 35       		.uleb128 0x35
 12627 23df DE070000 		.4byte	.LASF420
 12628 23e3 02       		.byte	0x2
 12629 23e4 9F05     		.2byte	0x59f
 12630 23e6 AD000000 		.4byte	0xad
 12631 23ea 02       		.uleb128 0x2
 12632 23eb 91       		.byte	0x91
 12633 23ec 73       		.sleb128 -13
 12634 23ed 00       		.byte	0
 12635 23ee 37       		.uleb128 0x37
 12636 23ef 01050000 		.4byte	.LASF421
 12637 23f3 02       		.byte	0x2
 12638 23f4 AB05     		.2byte	0x5ab
 12639 23f6 00000000 		.4byte	.LFB72
 12640 23fa 30000000 		.4byte	.LFE72-.LFB72
 12641 23fe 01       		.uleb128 0x1
 12642 23ff 9C       		.byte	0x9c
 12643 2400 23240000 		.4byte	0x2423
 12644 2404 32       		.uleb128 0x32
 12645 2405 6F626A00 		.ascii	"obj\000"
 12646 2409 02       		.byte	0x2
 12647 240a AB05     		.2byte	0x5ab
 12648 240c CB180000 		.4byte	0x18cb
 12649 2410 02       		.uleb128 0x2
 12650 2411 91       		.byte	0x91
 12651 2412 74       		.sleb128 -12
 12652 2413 35       		.uleb128 0x35
ARM GAS  C:\Users\tmj32\AppData\Local\Temp\ccxLNxq9.s 			page 272


 12653 2414 DE070000 		.4byte	.LASF420
 12654 2418 02       		.byte	0x2
 12655 2419 AB05     		.2byte	0x5ab
 12656 241b AD000000 		.4byte	0xad
 12657 241f 02       		.uleb128 0x2
 12658 2420 91       		.byte	0x91
 12659 2421 73       		.sleb128 -13
 12660 2422 00       		.byte	0
 12661 2423 37       		.uleb128 0x37
 12662 2424 74080000 		.4byte	.LASF422
 12663 2428 02       		.byte	0x2
 12664 2429 B905     		.2byte	0x5b9
 12665 242b 00000000 		.4byte	.LFB73
 12666 242f 1C000000 		.4byte	.LFE73-.LFB73
 12667 2433 01       		.uleb128 0x1
 12668 2434 9C       		.byte	0x9c
 12669 2435 58240000 		.4byte	0x2458
 12670 2439 32       		.uleb128 0x32
 12671 243a 6F626A00 		.ascii	"obj\000"
 12672 243e 02       		.byte	0x2
 12673 243f B905     		.2byte	0x5b9
 12674 2441 CB180000 		.4byte	0x18cb
 12675 2445 02       		.uleb128 0x2
 12676 2446 91       		.byte	0x91
 12677 2447 74       		.sleb128 -12
 12678 2448 35       		.uleb128 0x35
 12679 2449 2B0C0000 		.4byte	.LASF150
 12680 244d 02       		.byte	0x2
 12681 244e B905     		.2byte	0x5b9
 12682 2450 600E0000 		.4byte	0xe60
 12683 2454 02       		.uleb128 0x2
 12684 2455 91       		.byte	0x91
 12685 2456 70       		.sleb128 -16
 12686 2457 00       		.byte	0
 12687 2458 31       		.uleb128 0x31
 12688 2459 6D030000 		.4byte	.LASF423
 12689 245d 02       		.byte	0x2
 12690 245e C705     		.2byte	0x5c7
 12691 2460 EF050000 		.4byte	0x5ef
 12692 2464 00000000 		.4byte	.LFB74
 12693 2468 34000000 		.4byte	.LFE74-.LFB74
 12694 246c 01       		.uleb128 0x1
 12695 246d 9C       		.byte	0x9c
 12696 246e AF240000 		.4byte	0x24af
 12697 2472 32       		.uleb128 0x32
 12698 2473 6F626A00 		.ascii	"obj\000"
 12699 2477 02       		.byte	0x2
 12700 2478 C705     		.2byte	0x5c7
 12701 247a CB180000 		.4byte	0x18cb
 12702 247e 02       		.uleb128 0x2
 12703 247f 91       		.byte	0x91
 12704 2480 6C       		.sleb128 -20
 12705 2481 35       		.uleb128 0x35
 12706 2482 400E0000 		.4byte	.LASF424
 12707 2486 02       		.byte	0x2
 12708 2487 C705     		.2byte	0x5c7
 12709 2489 550E0000 		.4byte	0xe55
ARM GAS  C:\Users\tmj32\AppData\Local\Temp\ccxLNxq9.s 			page 273


 12710 248d 02       		.uleb128 0x2
 12711 248e 91       		.byte	0x91
 12712 248f 6B       		.sleb128 -21
 12713 2490 35       		.uleb128 0x35
 12714 2491 711B0000 		.4byte	.LASF425
 12715 2495 02       		.byte	0x2
 12716 2496 C705     		.2byte	0x5c7
 12717 2498 93180000 		.4byte	0x1893
 12718 249c 02       		.uleb128 0x2
 12719 249d 91       		.byte	0x91
 12720 249e 64       		.sleb128 -28
 12721 249f 30       		.uleb128 0x30
 12722 24a0 72657300 		.ascii	"res\000"
 12723 24a4 02       		.byte	0x2
 12724 24a5 CD05     		.2byte	0x5cd
 12725 24a7 EF050000 		.4byte	0x5ef
 12726 24ab 02       		.uleb128 0x2
 12727 24ac 91       		.byte	0x91
 12728 24ad 77       		.sleb128 -9
 12729 24ae 00       		.byte	0
 12730 24af 31       		.uleb128 0x31
 12731 24b0 24060000 		.4byte	.LASF426
 12732 24b4 02       		.byte	0x2
 12733 24b5 DC05     		.2byte	0x5dc
 12734 24b7 EF050000 		.4byte	0x5ef
 12735 24bb 00000000 		.4byte	.LFB75
 12736 24bf D4000000 		.4byte	.LFE75-.LFB75
 12737 24c3 01       		.uleb128 0x1
 12738 24c4 9C       		.byte	0x9c
 12739 24c5 4C250000 		.4byte	0x254c
 12740 24c9 35       		.uleb128 0x35
 12741 24ca 47170000 		.4byte	.LASF427
 12742 24ce 02       		.byte	0x2
 12743 24cf DC05     		.2byte	0x5dc
 12744 24d1 600E0000 		.4byte	0xe60
 12745 24d5 02       		.uleb128 0x2
 12746 24d6 91       		.byte	0x91
 12747 24d7 5C       		.sleb128 -36
 12748 24d8 32       		.uleb128 0x32
 12749 24d9 6F626A00 		.ascii	"obj\000"
 12750 24dd 02       		.byte	0x2
 12751 24de DC05     		.2byte	0x5dc
 12752 24e0 CB180000 		.4byte	0x18cb
 12753 24e4 02       		.uleb128 0x2
 12754 24e5 91       		.byte	0x91
 12755 24e6 58       		.sleb128 -40
 12756 24e7 35       		.uleb128 0x35
 12757 24e8 400E0000 		.4byte	.LASF424
 12758 24ec 02       		.byte	0x2
 12759 24ed DC05     		.2byte	0x5dc
 12760 24ef 550E0000 		.4byte	0xe55
 12761 24f3 02       		.uleb128 0x2
 12762 24f4 91       		.byte	0x91
 12763 24f5 57       		.sleb128 -41
 12764 24f6 35       		.uleb128 0x35
 12765 24f7 711B0000 		.4byte	.LASF425
 12766 24fb 02       		.byte	0x2
ARM GAS  C:\Users\tmj32\AppData\Local\Temp\ccxLNxq9.s 			page 274


 12767 24fc DC05     		.2byte	0x5dc
 12768 24fe 93180000 		.4byte	0x1893
 12769 2502 02       		.uleb128 0x2
 12770 2503 91       		.byte	0x91
 12771 2504 50       		.sleb128 -48
 12772 2505 33       		.uleb128 0x33
 12773 2506 99080000 		.4byte	.LASF428
 12774 250a 02       		.byte	0x2
 12775 250b E505     		.2byte	0x5e5
 12776 250d D7180000 		.4byte	0x18d7
 12777 2511 02       		.uleb128 0x2
 12778 2512 91       		.byte	0x91
 12779 2513 60       		.sleb128 -32
 12780 2514 33       		.uleb128 0x33
 12781 2515 1A070000 		.4byte	.LASF429
 12782 2519 02       		.byte	0x2
 12783 251a EF05     		.2byte	0x5ef
 12784 251c 93180000 		.4byte	0x1893
 12785 2520 02       		.uleb128 0x2
 12786 2521 91       		.byte	0x91
 12787 2522 74       		.sleb128 -12
 12788 2523 33       		.uleb128 0x33
 12789 2524 28030000 		.4byte	.LASF430
 12790 2528 02       		.byte	0x2
 12791 2529 F305     		.2byte	0x5f3
 12792 252b 9D1A0000 		.4byte	0x1a9d
 12793 252f 02       		.uleb128 0x2
 12794 2530 91       		.byte	0x91
 12795 2531 70       		.sleb128 -16
 12796 2532 2F       		.uleb128 0x2f
 12797 2533 A6000000 		.4byte	.LBB8
 12798 2537 1C000000 		.4byte	.LBE8-.LBB8
 12799 253b 30       		.uleb128 0x30
 12800 253c 72657300 		.ascii	"res\000"
 12801 2540 02       		.byte	0x2
 12802 2541 0706     		.2byte	0x607
 12803 2543 EF050000 		.4byte	0x5ef
 12804 2547 02       		.uleb128 0x2
 12805 2548 91       		.byte	0x91
 12806 2549 6F       		.sleb128 -17
 12807 254a 00       		.byte	0
 12808 254b 00       		.byte	0
 12809 254c 38       		.uleb128 0x38
 12810 254d CB170000 		.4byte	.LASF515
 12811 2551 02       		.byte	0x2
 12812 2552 1506     		.2byte	0x615
 12813 2554 93180000 		.4byte	0x1893
 12814 2558 00000000 		.4byte	.LFB76
 12815 255c 18000000 		.4byte	.LFE76-.LFB76
 12816 2560 01       		.uleb128 0x1
 12817 2561 9C       		.byte	0x9c
 12818 2562 37       		.uleb128 0x37
 12819 2563 F2010000 		.4byte	.LASF431
 12820 2567 02       		.byte	0x2
 12821 2568 2006     		.2byte	0x620
 12822 256a 00000000 		.4byte	.LFB77
 12823 256e 1C000000 		.4byte	.LFE77-.LFB77
ARM GAS  C:\Users\tmj32\AppData\Local\Temp\ccxLNxq9.s 			page 275


 12824 2572 01       		.uleb128 0x1
 12825 2573 9C       		.byte	0x9c
 12826 2574 97250000 		.4byte	0x2597
 12827 2578 32       		.uleb128 0x32
 12828 2579 6F626A00 		.ascii	"obj\000"
 12829 257d 02       		.byte	0x2
 12830 257e 2006     		.2byte	0x620
 12831 2580 CB180000 		.4byte	0x18cb
 12832 2584 02       		.uleb128 0x2
 12833 2585 91       		.byte	0x91
 12834 2586 74       		.sleb128 -12
 12835 2587 35       		.uleb128 0x35
 12836 2588 A1190000 		.4byte	.LASF151
 12837 258c 02       		.byte	0x2
 12838 258d 2006     		.2byte	0x620
 12839 258f 110F0000 		.4byte	0xf11
 12840 2593 02       		.uleb128 0x2
 12841 2594 91       		.byte	0x91
 12842 2595 70       		.sleb128 -16
 12843 2596 00       		.byte	0
 12844 2597 34       		.uleb128 0x34
 12845 2598 A20A0000 		.4byte	.LASF432
 12846 259c 02       		.byte	0x2
 12847 259d 2C06     		.2byte	0x62c
 12848 259f 00000000 		.4byte	.LFB78
 12849 25a3 2A000000 		.4byte	.LFE78-.LFB78
 12850 25a7 01       		.uleb128 0x1
 12851 25a8 9C       		.byte	0x9c
 12852 25a9 DB250000 		.4byte	0x25db
 12853 25ad 32       		.uleb128 0x32
 12854 25ae 6F626A00 		.ascii	"obj\000"
 12855 25b2 02       		.byte	0x2
 12856 25b3 2C06     		.2byte	0x62c
 12857 25b5 CB180000 		.4byte	0x18cb
 12858 25b9 02       		.uleb128 0x2
 12859 25ba 91       		.byte	0x91
 12860 25bb 74       		.sleb128 -12
 12861 25bc 35       		.uleb128 0x35
 12862 25bd 6A070000 		.4byte	.LASF433
 12863 25c1 02       		.byte	0x2
 12864 25c2 2C06     		.2byte	0x62c
 12865 25c4 060F0000 		.4byte	0xf06
 12866 25c8 02       		.uleb128 0x2
 12867 25c9 91       		.byte	0x91
 12868 25ca 73       		.sleb128 -13
 12869 25cb 35       		.uleb128 0x35
 12870 25cc 8B0A0000 		.4byte	.LASF434
 12871 25d0 02       		.byte	0x2
 12872 25d1 2C06     		.2byte	0x62c
 12873 25d3 E4000000 		.4byte	0xe4
 12874 25d7 02       		.uleb128 0x2
 12875 25d8 91       		.byte	0x91
 12876 25d9 6C       		.sleb128 -20
 12877 25da 00       		.byte	0
 12878 25db 37       		.uleb128 0x37
 12879 25dc C60B0000 		.4byte	.LASF435
 12880 25e0 02       		.byte	0x2
ARM GAS  C:\Users\tmj32\AppData\Local\Temp\ccxLNxq9.s 			page 276


 12881 25e1 3806     		.2byte	0x638
 12882 25e3 00000000 		.4byte	.LFB79
 12883 25e7 1C000000 		.4byte	.LFE79-.LFB79
 12884 25eb 01       		.uleb128 0x1
 12885 25ec 9C       		.byte	0x9c
 12886 25ed 10260000 		.4byte	0x2610
 12887 25f1 32       		.uleb128 0x32
 12888 25f2 6F626A00 		.ascii	"obj\000"
 12889 25f6 02       		.byte	0x2
 12890 25f7 3806     		.2byte	0x638
 12891 25f9 CB180000 		.4byte	0x18cb
 12892 25fd 02       		.uleb128 0x2
 12893 25fe 91       		.byte	0x91
 12894 25ff 74       		.sleb128 -12
 12895 2600 35       		.uleb128 0x35
 12896 2601 D4070000 		.4byte	.LASF152
 12897 2605 02       		.byte	0x2
 12898 2606 3806     		.2byte	0x638
 12899 2608 A60D0000 		.4byte	0xda6
 12900 260c 02       		.uleb128 0x2
 12901 260d 91       		.byte	0x91
 12902 260e 70       		.sleb128 -16
 12903 260f 00       		.byte	0
 12904 2610 31       		.uleb128 0x31
 12905 2611 5E060000 		.4byte	.LASF436
 12906 2615 02       		.byte	0x2
 12907 2616 4906     		.2byte	0x649
 12908 2618 E4000000 		.4byte	0xe4
 12909 261c 00000000 		.4byte	.LFB80
 12910 2620 2C000000 		.4byte	.LFE80-.LFB80
 12911 2624 01       		.uleb128 0x1
 12912 2625 9C       		.byte	0x9c
 12913 2626 49260000 		.4byte	0x2649
 12914 262a 32       		.uleb128 0x32
 12915 262b 6F626A00 		.ascii	"obj\000"
 12916 262f 02       		.byte	0x2
 12917 2630 4906     		.2byte	0x649
 12918 2632 CB180000 		.4byte	0x18cb
 12919 2636 02       		.uleb128 0x2
 12920 2637 91       		.byte	0x91
 12921 2638 74       		.sleb128 -12
 12922 2639 35       		.uleb128 0x35
 12923 263a EB160000 		.4byte	.LASF374
 12924 263e 02       		.byte	0x2
 12925 263f 4906     		.2byte	0x649
 12926 2641 C3000000 		.4byte	0xc3
 12927 2645 02       		.uleb128 0x2
 12928 2646 91       		.byte	0x91
 12929 2647 72       		.sleb128 -14
 12930 2648 00       		.byte	0
 12931 2649 34       		.uleb128 0x34
 12932 264a 43010000 		.4byte	.LASF437
 12933 264e 02       		.byte	0x2
 12934 264f 5606     		.2byte	0x656
 12935 2651 00000000 		.4byte	.LFB81
 12936 2655 28000000 		.4byte	.LFE81-.LFB81
 12937 2659 01       		.uleb128 0x1
ARM GAS  C:\Users\tmj32\AppData\Local\Temp\ccxLNxq9.s 			page 277


 12938 265a 9C       		.byte	0x9c
 12939 265b 6F260000 		.4byte	0x266f
 12940 265f 32       		.uleb128 0x32
 12941 2660 6F626A00 		.ascii	"obj\000"
 12942 2664 02       		.byte	0x2
 12943 2665 5606     		.2byte	0x656
 12944 2667 CB180000 		.4byte	0x18cb
 12945 266b 02       		.uleb128 0x2
 12946 266c 91       		.byte	0x91
 12947 266d 74       		.sleb128 -12
 12948 266e 00       		.byte	0
 12949 266f 31       		.uleb128 0x31
 12950 2670 5E040000 		.4byte	.LASF438
 12951 2674 02       		.byte	0x2
 12952 2675 6906     		.2byte	0x669
 12953 2677 CB180000 		.4byte	0x18cb
 12954 267b 00000000 		.4byte	.LFB82
 12955 267f 28000000 		.4byte	.LFE82-.LFB82
 12956 2683 01       		.uleb128 0x1
 12957 2684 9C       		.byte	0x9c
 12958 2685 B7260000 		.4byte	0x26b7
 12959 2689 32       		.uleb128 0x32
 12960 268a 6F626A00 		.ascii	"obj\000"
 12961 268e 02       		.byte	0x2
 12962 268f 6906     		.2byte	0x669
 12963 2691 0B1A0000 		.4byte	0x1a0b
 12964 2695 02       		.uleb128 0x2
 12965 2696 91       		.byte	0x91
 12966 2697 6C       		.sleb128 -20
 12967 2698 30       		.uleb128 0x30
 12968 2699 70617200 		.ascii	"par\000"
 12969 269d 02       		.byte	0x2
 12970 269e 6D06     		.2byte	0x66d
 12971 26a0 0B1A0000 		.4byte	0x1a0b
 12972 26a4 02       		.uleb128 0x2
 12973 26a5 91       		.byte	0x91
 12974 26a6 74       		.sleb128 -12
 12975 26a7 33       		.uleb128 0x33
 12976 26a8 C3020000 		.4byte	.LASF439
 12977 26ac 02       		.byte	0x2
 12978 26ad 6E06     		.2byte	0x66e
 12979 26af 0B1A0000 		.4byte	0x1a0b
 12980 26b3 02       		.uleb128 0x2
 12981 26b4 91       		.byte	0x91
 12982 26b5 70       		.sleb128 -16
 12983 26b6 00       		.byte	0
 12984 26b7 31       		.uleb128 0x31
 12985 26b8 32170000 		.4byte	.LASF440
 12986 26bc 02       		.byte	0x2
 12987 26bd 7D06     		.2byte	0x67d
 12988 26bf 161A0000 		.4byte	0x1a16
 12989 26c3 00000000 		.4byte	.LFB83
 12990 26c7 74000000 		.4byte	.LFE83-.LFB83
 12991 26cb 01       		.uleb128 0x1
 12992 26cc 9C       		.byte	0x9c
 12993 26cd 14270000 		.4byte	0x2714
 12994 26d1 32       		.uleb128 0x32
ARM GAS  C:\Users\tmj32\AppData\Local\Temp\ccxLNxq9.s 			page 278


 12995 26d2 6F626A00 		.ascii	"obj\000"
 12996 26d6 02       		.byte	0x2
 12997 26d7 7D06     		.2byte	0x67d
 12998 26d9 0B1A0000 		.4byte	0x1a0b
 12999 26dd 02       		.uleb128 0x2
 13000 26de 91       		.byte	0x91
 13001 26df 64       		.sleb128 -28
 13002 26e0 30       		.uleb128 0x30
 13003 26e1 73637200 		.ascii	"scr\000"
 13004 26e5 02       		.byte	0x2
 13005 26e6 8106     		.2byte	0x681
 13006 26e8 0B1A0000 		.4byte	0x1a0b
 13007 26ec 02       		.uleb128 0x2
 13008 26ed 91       		.byte	0x91
 13009 26ee 74       		.sleb128 -12
 13010 26ef 30       		.uleb128 0x30
 13011 26f0 6400     		.ascii	"d\000"
 13012 26f2 02       		.byte	0x2
 13013 26f3 8806     		.2byte	0x688
 13014 26f5 161A0000 		.4byte	0x1a16
 13015 26f9 02       		.uleb128 0x2
 13016 26fa 91       		.byte	0x91
 13017 26fb 70       		.sleb128 -16
 13018 26fc 2F       		.uleb128 0x2f
 13019 26fd 28000000 		.4byte	.LBB9
 13020 2701 2E000000 		.4byte	.LBE9-.LBB9
 13021 2705 30       		.uleb128 0x30
 13022 2706 7300     		.ascii	"s\000"
 13023 2708 02       		.byte	0x2
 13024 2709 8B06     		.2byte	0x68b
 13025 270b CB180000 		.4byte	0x18cb
 13026 270f 02       		.uleb128 0x2
 13027 2710 91       		.byte	0x91
 13028 2711 6C       		.sleb128 -20
 13029 2712 00       		.byte	0
 13030 2713 00       		.byte	0
 13031 2714 39       		.uleb128 0x39
 13032 2715 09190000 		.4byte	.LASF441
 13033 2719 02       		.byte	0x2
 13034 271a 9F06     		.2byte	0x69f
 13035 271c CB180000 		.4byte	0x18cb
 13036 2720 00000000 		.4byte	.LFB84
 13037 2724 18000000 		.4byte	.LFE84-.LFB84
 13038 2728 01       		.uleb128 0x1
 13039 2729 9C       		.byte	0x9c
 13040 272a 3E270000 		.4byte	0x273e
 13041 272e 32       		.uleb128 0x32
 13042 272f 6F626A00 		.ascii	"obj\000"
 13043 2733 02       		.byte	0x2
 13044 2734 9F06     		.2byte	0x69f
 13045 2736 0B1A0000 		.4byte	0x1a0b
 13046 273a 02       		.uleb128 0x2
 13047 273b 91       		.byte	0x91
 13048 273c 74       		.sleb128 -12
 13049 273d 00       		.byte	0
 13050 273e 31       		.uleb128 0x31
 13051 273f 910A0000 		.4byte	.LASF442
ARM GAS  C:\Users\tmj32\AppData\Local\Temp\ccxLNxq9.s 			page 279


 13052 2743 02       		.byte	0x2
 13053 2744 AD06     		.2byte	0x6ad
 13054 2746 CB180000 		.4byte	0x18cb
 13055 274a 00000000 		.4byte	.LFB85
 13056 274e 3A000000 		.4byte	.LFE85-.LFB85
 13057 2752 01       		.uleb128 0x1
 13058 2753 9C       		.byte	0x9c
 13059 2754 86270000 		.4byte	0x2786
 13060 2758 32       		.uleb128 0x32
 13061 2759 6F626A00 		.ascii	"obj\000"
 13062 275d 02       		.byte	0x2
 13063 275e AD06     		.2byte	0x6ad
 13064 2760 0B1A0000 		.4byte	0x1a0b
 13065 2764 02       		.uleb128 0x2
 13066 2765 91       		.byte	0x91
 13067 2766 6C       		.sleb128 -20
 13068 2767 35       		.uleb128 0x35
 13069 2768 48000000 		.4byte	.LASF369
 13070 276c 02       		.byte	0x2
 13071 276d AD06     		.2byte	0x6ad
 13072 276f 0B1A0000 		.4byte	0x1a0b
 13073 2773 02       		.uleb128 0x2
 13074 2774 91       		.byte	0x91
 13075 2775 68       		.sleb128 -24
 13076 2776 33       		.uleb128 0x33
 13077 2777 0D060000 		.4byte	.LASF443
 13078 277b 02       		.byte	0x2
 13079 277c B106     		.2byte	0x6b1
 13080 277e CB180000 		.4byte	0x18cb
 13081 2782 02       		.uleb128 0x2
 13082 2783 91       		.byte	0x91
 13083 2784 74       		.sleb128 -12
 13084 2785 00       		.byte	0
 13085 2786 31       		.uleb128 0x31
 13086 2787 E5050000 		.4byte	.LASF444
 13087 278b 02       		.byte	0x2
 13088 278c C306     		.2byte	0x6c3
 13089 278e CB180000 		.4byte	0x18cb
 13090 2792 00000000 		.4byte	.LFB86
 13091 2796 3A000000 		.4byte	.LFE86-.LFB86
 13092 279a 01       		.uleb128 0x1
 13093 279b 9C       		.byte	0x9c
 13094 279c CE270000 		.4byte	0x27ce
 13095 27a0 32       		.uleb128 0x32
 13096 27a1 6F626A00 		.ascii	"obj\000"
 13097 27a5 02       		.byte	0x2
 13098 27a6 C306     		.2byte	0x6c3
 13099 27a8 0B1A0000 		.4byte	0x1a0b
 13100 27ac 02       		.uleb128 0x2
 13101 27ad 91       		.byte	0x91
 13102 27ae 6C       		.sleb128 -20
 13103 27af 35       		.uleb128 0x35
 13104 27b0 48000000 		.4byte	.LASF369
 13105 27b4 02       		.byte	0x2
 13106 27b5 C306     		.2byte	0x6c3
 13107 27b7 0B1A0000 		.4byte	0x1a0b
 13108 27bb 02       		.uleb128 0x2
ARM GAS  C:\Users\tmj32\AppData\Local\Temp\ccxLNxq9.s 			page 280


 13109 27bc 91       		.byte	0x91
 13110 27bd 68       		.sleb128 -24
 13111 27be 33       		.uleb128 0x33
 13112 27bf 0D060000 		.4byte	.LASF443
 13113 27c3 02       		.byte	0x2
 13114 27c4 C706     		.2byte	0x6c7
 13115 27c6 CB180000 		.4byte	0x18cb
 13116 27ca 02       		.uleb128 0x2
 13117 27cb 91       		.byte	0x91
 13118 27cc 74       		.sleb128 -12
 13119 27cd 00       		.byte	0
 13120 27ce 31       		.uleb128 0x31
 13121 27cf 240E0000 		.4byte	.LASF445
 13122 27d3 02       		.byte	0x2
 13123 27d4 D706     		.2byte	0x6d7
 13124 27d6 C3000000 		.4byte	0xc3
 13125 27da 00000000 		.4byte	.LFB87
 13126 27de 3E000000 		.4byte	.LFE87-.LFB87
 13127 27e2 01       		.uleb128 0x1
 13128 27e3 9C       		.byte	0x9c
 13129 27e4 14280000 		.4byte	0x2814
 13130 27e8 32       		.uleb128 0x32
 13131 27e9 6F626A00 		.ascii	"obj\000"
 13132 27ed 02       		.byte	0x2
 13133 27ee D706     		.2byte	0x6d7
 13134 27f0 0B1A0000 		.4byte	0x1a0b
 13135 27f4 02       		.uleb128 0x2
 13136 27f5 91       		.byte	0x91
 13137 27f6 6C       		.sleb128 -20
 13138 27f7 30       		.uleb128 0x30
 13139 27f8 6900     		.ascii	"i\000"
 13140 27fa 02       		.byte	0x2
 13141 27fb DB06     		.2byte	0x6db
 13142 27fd CB180000 		.4byte	0x18cb
 13143 2801 02       		.uleb128 0x2
 13144 2802 91       		.byte	0x91
 13145 2803 74       		.sleb128 -12
 13146 2804 30       		.uleb128 0x30
 13147 2805 636E7400 		.ascii	"cnt\000"
 13148 2809 02       		.byte	0x2
 13149 280a DC06     		.2byte	0x6dc
 13150 280c C3000000 		.4byte	0xc3
 13151 2810 02       		.uleb128 0x2
 13152 2811 91       		.byte	0x91
 13153 2812 72       		.sleb128 -14
 13154 2813 00       		.byte	0
 13155 2814 31       		.uleb128 0x31
 13156 2815 5B0B0000 		.4byte	.LASF446
 13157 2819 02       		.byte	0x2
 13158 281a E706     		.2byte	0x6e7
 13159 281c C3000000 		.4byte	0xc3
 13160 2820 00000000 		.4byte	.LFB88
 13161 2824 4E000000 		.4byte	.LFE88-.LFB88
 13162 2828 01       		.uleb128 0x1
 13163 2829 9C       		.byte	0x9c
 13164 282a 5A280000 		.4byte	0x285a
 13165 282e 32       		.uleb128 0x32
ARM GAS  C:\Users\tmj32\AppData\Local\Temp\ccxLNxq9.s 			page 281


 13166 282f 6F626A00 		.ascii	"obj\000"
 13167 2833 02       		.byte	0x2
 13168 2834 E706     		.2byte	0x6e7
 13169 2836 0B1A0000 		.4byte	0x1a0b
 13170 283a 02       		.uleb128 0x2
 13171 283b 91       		.byte	0x91
 13172 283c 6C       		.sleb128 -20
 13173 283d 30       		.uleb128 0x30
 13174 283e 6900     		.ascii	"i\000"
 13175 2840 02       		.byte	0x2
 13176 2841 EB06     		.2byte	0x6eb
 13177 2843 CB180000 		.4byte	0x18cb
 13178 2847 02       		.uleb128 0x2
 13179 2848 91       		.byte	0x91
 13180 2849 74       		.sleb128 -12
 13181 284a 30       		.uleb128 0x30
 13182 284b 636E7400 		.ascii	"cnt\000"
 13183 284f 02       		.byte	0x2
 13184 2850 EC06     		.2byte	0x6ec
 13185 2852 C3000000 		.4byte	0xc3
 13186 2856 02       		.uleb128 0x2
 13187 2857 91       		.byte	0x91
 13188 2858 72       		.sleb128 -14
 13189 2859 00       		.byte	0
 13190 285a 34       		.uleb128 0x34
 13191 285b 501A0000 		.4byte	.LASF447
 13192 285f 02       		.byte	0x2
 13193 2860 0007     		.2byte	0x700
 13194 2862 00000000 		.4byte	.LFB89
 13195 2866 1E000000 		.4byte	.LFE89-.LFB89
 13196 286a 01       		.uleb128 0x1
 13197 286b 9C       		.byte	0x9c
 13198 286c 8F280000 		.4byte	0x288f
 13199 2870 32       		.uleb128 0x32
 13200 2871 6F626A00 		.ascii	"obj\000"
 13201 2875 02       		.byte	0x2
 13202 2876 0007     		.2byte	0x700
 13203 2878 0B1A0000 		.4byte	0x1a0b
 13204 287c 02       		.uleb128 0x2
 13205 287d 91       		.byte	0x91
 13206 287e 74       		.sleb128 -12
 13207 287f 35       		.uleb128 0x35
 13208 2880 4A0D0000 		.4byte	.LASF448
 13209 2884 02       		.byte	0x2
 13210 2885 0007     		.2byte	0x700
 13211 2887 2F080000 		.4byte	0x82f
 13212 288b 02       		.uleb128 0x2
 13213 288c 91       		.byte	0x91
 13214 288d 70       		.sleb128 -16
 13215 288e 00       		.byte	0
 13216 288f 34       		.uleb128 0x34
 13217 2890 CA0A0000 		.4byte	.LASF449
 13218 2894 02       		.byte	0x2
 13219 2895 0C07     		.2byte	0x70c
 13220 2897 00000000 		.4byte	.LFB90
 13221 289b B2000000 		.4byte	.LFE90-.LFB90
 13222 289f 01       		.uleb128 0x1
ARM GAS  C:\Users\tmj32\AppData\Local\Temp\ccxLNxq9.s 			page 282


 13223 28a0 9C       		.byte	0x9c
 13224 28a1 D3280000 		.4byte	0x28d3
 13225 28a5 32       		.uleb128 0x32
 13226 28a6 6F626A00 		.ascii	"obj\000"
 13227 28aa 02       		.byte	0x2
 13228 28ab 0C07     		.2byte	0x70c
 13229 28ad 0B1A0000 		.4byte	0x1a0b
 13230 28b1 02       		.uleb128 0x2
 13231 28b2 91       		.byte	0x91
 13232 28b3 6C       		.sleb128 -20
 13233 28b4 35       		.uleb128 0x35
 13234 28b5 2E190000 		.4byte	.LASF450
 13235 28b9 02       		.byte	0x2
 13236 28ba 0C07     		.2byte	0x70c
 13237 28bc 2F080000 		.4byte	0x82f
 13238 28c0 02       		.uleb128 0x2
 13239 28c1 91       		.byte	0x91
 13240 28c2 68       		.sleb128 -24
 13241 28c3 33       		.uleb128 0x33
 13242 28c4 A4100000 		.4byte	.LASF348
 13243 28c8 02       		.byte	0x2
 13244 28c9 1007     		.2byte	0x710
 13245 28cb 68100000 		.4byte	0x1068
 13246 28cf 02       		.uleb128 0x2
 13247 28d0 91       		.byte	0x91
 13248 28d1 74       		.sleb128 -12
 13249 28d2 00       		.byte	0
 13250 28d3 31       		.uleb128 0x31
 13251 28d4 0C160000 		.4byte	.LASF451
 13252 28d8 02       		.byte	0x2
 13253 28d9 1F07     		.2byte	0x71f
 13254 28db D9000000 		.4byte	0xd9
 13255 28df 00000000 		.4byte	.LFB91
 13256 28e3 40000000 		.4byte	.LFE91-.LFB91
 13257 28e7 01       		.uleb128 0x1
 13258 28e8 9C       		.byte	0x9c
 13259 28e9 1B290000 		.4byte	0x291b
 13260 28ed 32       		.uleb128 0x32
 13261 28ee 6F626A00 		.ascii	"obj\000"
 13262 28f2 02       		.byte	0x2
 13263 28f3 1F07     		.2byte	0x71f
 13264 28f5 0B1A0000 		.4byte	0x1a0b
 13265 28f9 02       		.uleb128 0x2
 13266 28fa 91       		.byte	0x91
 13267 28fb 6C       		.sleb128 -20
 13268 28fc 33       		.uleb128 0x33
 13269 28fd A8040000 		.4byte	.LASF452
 13270 2901 02       		.byte	0x2
 13271 2902 2307     		.2byte	0x723
 13272 2904 D9000000 		.4byte	0xd9
 13273 2908 02       		.uleb128 0x2
 13274 2909 91       		.byte	0x91
 13275 290a 76       		.sleb128 -10
 13276 290b 33       		.uleb128 0x33
 13277 290c F10D0000 		.4byte	.LASF360
 13278 2910 02       		.byte	0x2
 13279 2911 2407     		.2byte	0x724
ARM GAS  C:\Users\tmj32\AppData\Local\Temp\ccxLNxq9.s 			page 283


 13280 2913 CB180000 		.4byte	0x18cb
 13281 2917 02       		.uleb128 0x2
 13282 2918 91       		.byte	0x91
 13283 2919 70       		.sleb128 -16
 13284 291a 00       		.byte	0
 13285 291b 31       		.uleb128 0x31
 13286 291c 75100000 		.4byte	.LASF453
 13287 2920 02       		.byte	0x2
 13288 2921 3207     		.2byte	0x732
 13289 2923 D9000000 		.4byte	0xd9
 13290 2927 00000000 		.4byte	.LFB92
 13291 292b 40000000 		.4byte	.LFE92-.LFB92
 13292 292f 01       		.uleb128 0x1
 13293 2930 9C       		.byte	0x9c
 13294 2931 63290000 		.4byte	0x2963
 13295 2935 32       		.uleb128 0x32
 13296 2936 6F626A00 		.ascii	"obj\000"
 13297 293a 02       		.byte	0x2
 13298 293b 3207     		.2byte	0x732
 13299 293d 0B1A0000 		.4byte	0x1a0b
 13300 2941 02       		.uleb128 0x2
 13301 2942 91       		.byte	0x91
 13302 2943 6C       		.sleb128 -20
 13303 2944 33       		.uleb128 0x33
 13304 2945 AE040000 		.4byte	.LASF454
 13305 2949 02       		.byte	0x2
 13306 294a 3607     		.2byte	0x736
 13307 294c D9000000 		.4byte	0xd9
 13308 2950 02       		.uleb128 0x2
 13309 2951 91       		.byte	0x91
 13310 2952 76       		.sleb128 -10
 13311 2953 33       		.uleb128 0x33
 13312 2954 F10D0000 		.4byte	.LASF360
 13313 2958 02       		.byte	0x2
 13314 2959 3707     		.2byte	0x737
 13315 295b CB180000 		.4byte	0x18cb
 13316 295f 02       		.uleb128 0x2
 13317 2960 91       		.byte	0x91
 13318 2961 70       		.sleb128 -16
 13319 2962 00       		.byte	0
 13320 2963 31       		.uleb128 0x31
 13321 2964 83020000 		.4byte	.LASF455
 13322 2968 02       		.byte	0x2
 13323 2969 4507     		.2byte	0x745
 13324 296b D9000000 		.4byte	0xd9
 13325 296f 00000000 		.4byte	.LFB93
 13326 2973 1C000000 		.4byte	.LFE93-.LFB93
 13327 2977 01       		.uleb128 0x1
 13328 2978 9C       		.byte	0x9c
 13329 2979 8D290000 		.4byte	0x298d
 13330 297d 32       		.uleb128 0x32
 13331 297e 6F626A00 		.ascii	"obj\000"
 13332 2982 02       		.byte	0x2
 13333 2983 4507     		.2byte	0x745
 13334 2985 0B1A0000 		.4byte	0x1a0b
 13335 2989 02       		.uleb128 0x2
 13336 298a 91       		.byte	0x91
ARM GAS  C:\Users\tmj32\AppData\Local\Temp\ccxLNxq9.s 			page 284


 13337 298b 74       		.sleb128 -12
 13338 298c 00       		.byte	0
 13339 298d 31       		.uleb128 0x31
 13340 298e B0150000 		.4byte	.LASF456
 13341 2992 02       		.byte	0x2
 13342 2993 5107     		.2byte	0x751
 13343 2995 D9000000 		.4byte	0xd9
 13344 2999 00000000 		.4byte	.LFB94
 13345 299d 1C000000 		.4byte	.LFE94-.LFB94
 13346 29a1 01       		.uleb128 0x1
 13347 29a2 9C       		.byte	0x9c
 13348 29a3 B7290000 		.4byte	0x29b7
 13349 29a7 32       		.uleb128 0x32
 13350 29a8 6F626A00 		.ascii	"obj\000"
 13351 29ac 02       		.byte	0x2
 13352 29ad 5107     		.2byte	0x751
 13353 29af 0B1A0000 		.4byte	0x1a0b
 13354 29b3 02       		.uleb128 0x2
 13355 29b4 91       		.byte	0x91
 13356 29b5 74       		.sleb128 -12
 13357 29b6 00       		.byte	0
 13358 29b7 31       		.uleb128 0x31
 13359 29b8 5B180000 		.4byte	.LASF457
 13360 29bc 02       		.byte	0x2
 13361 29bd 5D07     		.2byte	0x75d
 13362 29bf D9000000 		.4byte	0xd9
 13363 29c3 00000000 		.4byte	.LFB95
 13364 29c7 3C000000 		.4byte	.LFE95-.LFB95
 13365 29cb 01       		.uleb128 0x1
 13366 29cc 9C       		.byte	0x9c
 13367 29cd F0290000 		.4byte	0x29f0
 13368 29d1 32       		.uleb128 0x32
 13369 29d2 6F626A00 		.ascii	"obj\000"
 13370 29d6 02       		.byte	0x2
 13371 29d7 5D07     		.2byte	0x75d
 13372 29d9 0B1A0000 		.4byte	0x1a0b
 13373 29dd 02       		.uleb128 0x2
 13374 29de 91       		.byte	0x91
 13375 29df 6C       		.sleb128 -20
 13376 29e0 33       		.uleb128 0x33
 13377 29e1 A4100000 		.4byte	.LASF348
 13378 29e5 02       		.byte	0x2
 13379 29e6 6107     		.2byte	0x761
 13380 29e8 68100000 		.4byte	0x1068
 13381 29ec 02       		.uleb128 0x2
 13382 29ed 91       		.byte	0x91
 13383 29ee 74       		.sleb128 -12
 13384 29ef 00       		.byte	0
 13385 29f0 31       		.uleb128 0x31
 13386 29f1 8B0E0000 		.4byte	.LASF458
 13387 29f5 02       		.byte	0x2
 13388 29f6 6B07     		.2byte	0x76b
 13389 29f8 D9000000 		.4byte	0xd9
 13390 29fc 00000000 		.4byte	.LFB96
 13391 2a00 3C000000 		.4byte	.LFE96-.LFB96
 13392 2a04 01       		.uleb128 0x1
 13393 2a05 9C       		.byte	0x9c
ARM GAS  C:\Users\tmj32\AppData\Local\Temp\ccxLNxq9.s 			page 285


 13394 2a06 292A0000 		.4byte	0x2a29
 13395 2a0a 32       		.uleb128 0x32
 13396 2a0b 6F626A00 		.ascii	"obj\000"
 13397 2a0f 02       		.byte	0x2
 13398 2a10 6B07     		.2byte	0x76b
 13399 2a12 0B1A0000 		.4byte	0x1a0b
 13400 2a16 02       		.uleb128 0x2
 13401 2a17 91       		.byte	0x91
 13402 2a18 6C       		.sleb128 -20
 13403 2a19 33       		.uleb128 0x33
 13404 2a1a A4100000 		.4byte	.LASF348
 13405 2a1e 02       		.byte	0x2
 13406 2a1f 6F07     		.2byte	0x76f
 13407 2a21 68100000 		.4byte	0x1068
 13408 2a25 02       		.uleb128 0x2
 13409 2a26 91       		.byte	0x91
 13410 2a27 74       		.sleb128 -12
 13411 2a28 00       		.byte	0
 13412 2a29 39       		.uleb128 0x39
 13413 2a2a 54100000 		.4byte	.LASF459
 13414 2a2e 02       		.byte	0x2
 13415 2a2f 7907     		.2byte	0x779
 13416 2a31 BF010000 		.4byte	0x1bf
 13417 2a35 00000000 		.4byte	.LFB97
 13418 2a39 2A000000 		.4byte	.LFE97-.LFB97
 13419 2a3d 01       		.uleb128 0x1
 13420 2a3e 9C       		.byte	0x9c
 13421 2a3f 532A0000 		.4byte	0x2a53
 13422 2a43 32       		.uleb128 0x32
 13423 2a44 6F626A00 		.ascii	"obj\000"
 13424 2a48 02       		.byte	0x2
 13425 2a49 7907     		.2byte	0x779
 13426 2a4b 0B1A0000 		.4byte	0x1a0b
 13427 2a4f 02       		.uleb128 0x2
 13428 2a50 91       		.byte	0x91
 13429 2a51 74       		.sleb128 -12
 13430 2a52 00       		.byte	0
 13431 2a53 39       		.uleb128 0x39
 13432 2a54 6F0D0000 		.4byte	.LASF460
 13433 2a58 02       		.byte	0x2
 13434 2a59 8A07     		.2byte	0x78a
 13435 2a5b D9000000 		.4byte	0xd9
 13436 2a5f 00000000 		.4byte	.LFB98
 13437 2a63 16000000 		.4byte	.LFE98-.LFB98
 13438 2a67 01       		.uleb128 0x1
 13439 2a68 9C       		.byte	0x9c
 13440 2a69 7D2A0000 		.4byte	0x2a7d
 13441 2a6d 32       		.uleb128 0x32
 13442 2a6e 6F626A00 		.ascii	"obj\000"
 13443 2a72 02       		.byte	0x2
 13444 2a73 8A07     		.2byte	0x78a
 13445 2a75 0B1A0000 		.4byte	0x1a0b
 13446 2a79 02       		.uleb128 0x2
 13447 2a7a 91       		.byte	0x91
 13448 2a7b 74       		.sleb128 -12
 13449 2a7c 00       		.byte	0
 13450 2a7d 39       		.uleb128 0x39
ARM GAS  C:\Users\tmj32\AppData\Local\Temp\ccxLNxq9.s 			page 286


 13451 2a7e 010F0000 		.4byte	.LASF461
 13452 2a82 02       		.byte	0x2
 13453 2a83 9D07     		.2byte	0x79d
 13454 2a85 D9000000 		.4byte	0xd9
 13455 2a89 00000000 		.4byte	.LFB99
 13456 2a8d 16000000 		.4byte	.LFE99-.LFB99
 13457 2a91 01       		.uleb128 0x1
 13458 2a92 9C       		.byte	0x9c
 13459 2a93 A72A0000 		.4byte	0x2aa7
 13460 2a97 32       		.uleb128 0x32
 13461 2a98 6F626A00 		.ascii	"obj\000"
 13462 2a9c 02       		.byte	0x2
 13463 2a9d 9D07     		.2byte	0x79d
 13464 2a9f 0B1A0000 		.4byte	0x1a0b
 13465 2aa3 02       		.uleb128 0x2
 13466 2aa4 91       		.byte	0x91
 13467 2aa5 74       		.sleb128 -12
 13468 2aa6 00       		.byte	0
 13469 2aa7 39       		.uleb128 0x39
 13470 2aa8 F2110000 		.4byte	.LASF462
 13471 2aac 02       		.byte	0x2
 13472 2aad B007     		.2byte	0x7b0
 13473 2aaf D9000000 		.4byte	0xd9
 13474 2ab3 00000000 		.4byte	.LFB100
 13475 2ab7 16000000 		.4byte	.LFE100-.LFB100
 13476 2abb 01       		.uleb128 0x1
 13477 2abc 9C       		.byte	0x9c
 13478 2abd D12A0000 		.4byte	0x2ad1
 13479 2ac1 32       		.uleb128 0x32
 13480 2ac2 6F626A00 		.ascii	"obj\000"
 13481 2ac6 02       		.byte	0x2
 13482 2ac7 B007     		.2byte	0x7b0
 13483 2ac9 0B1A0000 		.4byte	0x1a0b
 13484 2acd 02       		.uleb128 0x2
 13485 2ace 91       		.byte	0x91
 13486 2acf 74       		.sleb128 -12
 13487 2ad0 00       		.byte	0
 13488 2ad1 39       		.uleb128 0x39
 13489 2ad2 950D0000 		.4byte	.LASF463
 13490 2ad6 02       		.byte	0x2
 13491 2ad7 C307     		.2byte	0x7c3
 13492 2ad9 D9000000 		.4byte	0xd9
 13493 2add 00000000 		.4byte	.LFB101
 13494 2ae1 16000000 		.4byte	.LFE101-.LFB101
 13495 2ae5 01       		.uleb128 0x1
 13496 2ae6 9C       		.byte	0x9c
 13497 2ae7 FB2A0000 		.4byte	0x2afb
 13498 2aeb 32       		.uleb128 0x32
 13499 2aec 6F626A00 		.ascii	"obj\000"
 13500 2af0 02       		.byte	0x2
 13501 2af1 C307     		.2byte	0x7c3
 13502 2af3 0B1A0000 		.4byte	0x1a0b
 13503 2af7 02       		.uleb128 0x2
 13504 2af8 91       		.byte	0x91
 13505 2af9 74       		.sleb128 -12
 13506 2afa 00       		.byte	0
 13507 2afb 39       		.uleb128 0x39
ARM GAS  C:\Users\tmj32\AppData\Local\Temp\ccxLNxq9.s 			page 287


 13508 2afc 7C130000 		.4byte	.LASF464
 13509 2b00 02       		.byte	0x2
 13510 2b01 D607     		.2byte	0x7d6
 13511 2b03 D9000000 		.4byte	0xd9
 13512 2b07 00000000 		.4byte	.LFB102
 13513 2b0b 1A000000 		.4byte	.LFE102-.LFB102
 13514 2b0f 01       		.uleb128 0x1
 13515 2b10 9C       		.byte	0x9c
 13516 2b11 252B0000 		.4byte	0x2b25
 13517 2b15 32       		.uleb128 0x32
 13518 2b16 6F626A00 		.ascii	"obj\000"
 13519 2b1a 02       		.byte	0x2
 13520 2b1b D607     		.2byte	0x7d6
 13521 2b1d 0B1A0000 		.4byte	0x1a0b
 13522 2b21 02       		.uleb128 0x2
 13523 2b22 91       		.byte	0x91
 13524 2b23 74       		.sleb128 -12
 13525 2b24 00       		.byte	0
 13526 2b25 39       		.uleb128 0x39
 13527 2b26 B50B0000 		.4byte	.LASF465
 13528 2b2a 02       		.byte	0x2
 13529 2b2b E607     		.2byte	0x7e6
 13530 2b2d 68100000 		.4byte	0x1068
 13531 2b31 00000000 		.4byte	.LFB103
 13532 2b35 64000000 		.4byte	.LFE103-.LFB103
 13533 2b39 01       		.uleb128 0x1
 13534 2b3a 9C       		.byte	0x9c
 13535 2b3b 772B0000 		.4byte	0x2b77
 13536 2b3f 32       		.uleb128 0x32
 13537 2b40 6F626A00 		.ascii	"obj\000"
 13538 2b44 02       		.byte	0x2
 13539 2b45 E607     		.2byte	0x7e6
 13540 2b47 0B1A0000 		.4byte	0x1a0b
 13541 2b4b 02       		.uleb128 0x2
 13542 2b4c 91       		.byte	0x91
 13543 2b4d 6C       		.sleb128 -20
 13544 2b4e 33       		.uleb128 0x33
 13545 2b4f C00A0000 		.4byte	.LASF466
 13546 2b53 02       		.byte	0x2
 13547 2b54 EA07     		.2byte	0x7ea
 13548 2b56 68100000 		.4byte	0x1068
 13549 2b5a 02       		.uleb128 0x2
 13550 2b5b 91       		.byte	0x91
 13551 2b5c 74       		.sleb128 -12
 13552 2b5d 2F       		.uleb128 0x2f
 13553 2b5e 14000000 		.4byte	.LBB10
 13554 2b62 34000000 		.4byte	.LBE10-.LBB10
 13555 2b66 30       		.uleb128 0x30
 13556 2b67 70617200 		.ascii	"par\000"
 13557 2b6b 02       		.byte	0x2
 13558 2b6c EC07     		.2byte	0x7ec
 13559 2b6e CB180000 		.4byte	0x18cb
 13560 2b72 02       		.uleb128 0x2
 13561 2b73 91       		.byte	0x91
 13562 2b74 70       		.sleb128 -16
 13563 2b75 00       		.byte	0
 13564 2b76 00       		.byte	0
ARM GAS  C:\Users\tmj32\AppData\Local\Temp\ccxLNxq9.s 			page 288


 13565 2b77 39       		.uleb128 0x39
 13566 2b78 E0190000 		.4byte	.LASF467
 13567 2b7c 02       		.byte	0x2
 13568 2b7d 1808     		.2byte	0x818
 13569 2b7f BF010000 		.4byte	0x1bf
 13570 2b83 00000000 		.4byte	.LFB104
 13571 2b87 2A000000 		.4byte	.LFE104-.LFB104
 13572 2b8b 01       		.uleb128 0x1
 13573 2b8c 9C       		.byte	0x9c
 13574 2b8d A12B0000 		.4byte	0x2ba1
 13575 2b91 32       		.uleb128 0x32
 13576 2b92 6F626A00 		.ascii	"obj\000"
 13577 2b96 02       		.byte	0x2
 13578 2b97 1808     		.2byte	0x818
 13579 2b99 0B1A0000 		.4byte	0x1a0b
 13580 2b9d 02       		.uleb128 0x2
 13581 2b9e 91       		.byte	0x91
 13582 2b9f 74       		.sleb128 -12
 13583 2ba0 00       		.byte	0
 13584 2ba1 39       		.uleb128 0x39
 13585 2ba2 E5030000 		.4byte	.LASF468
 13586 2ba6 02       		.byte	0x2
 13587 2ba7 2408     		.2byte	0x824
 13588 2ba9 BF010000 		.4byte	0x1bf
 13589 2bad 00000000 		.4byte	.LFB105
 13590 2bb1 2A000000 		.4byte	.LFE105-.LFB105
 13591 2bb5 01       		.uleb128 0x1
 13592 2bb6 9C       		.byte	0x9c
 13593 2bb7 CB2B0000 		.4byte	0x2bcb
 13594 2bbb 32       		.uleb128 0x32
 13595 2bbc 6F626A00 		.ascii	"obj\000"
 13596 2bc0 02       		.byte	0x2
 13597 2bc1 2408     		.2byte	0x824
 13598 2bc3 0B1A0000 		.4byte	0x1a0b
 13599 2bc7 02       		.uleb128 0x2
 13600 2bc8 91       		.byte	0x91
 13601 2bc9 74       		.sleb128 -12
 13602 2bca 00       		.byte	0
 13603 2bcb 39       		.uleb128 0x39
 13604 2bcc 71070000 		.4byte	.LASF469
 13605 2bd0 02       		.byte	0x2
 13606 2bd1 3008     		.2byte	0x830
 13607 2bd3 BF010000 		.4byte	0x1bf
 13608 2bd7 00000000 		.4byte	.LFB106
 13609 2bdb 2A000000 		.4byte	.LFE106-.LFB106
 13610 2bdf 01       		.uleb128 0x1
 13611 2be0 9C       		.byte	0x9c
 13612 2be1 F52B0000 		.4byte	0x2bf5
 13613 2be5 32       		.uleb128 0x32
 13614 2be6 6F626A00 		.ascii	"obj\000"
 13615 2bea 02       		.byte	0x2
 13616 2beb 3008     		.2byte	0x830
 13617 2bed 0B1A0000 		.4byte	0x1a0b
 13618 2bf1 02       		.uleb128 0x2
 13619 2bf2 91       		.byte	0x91
 13620 2bf3 74       		.sleb128 -12
 13621 2bf4 00       		.byte	0
ARM GAS  C:\Users\tmj32\AppData\Local\Temp\ccxLNxq9.s 			page 289


 13622 2bf5 39       		.uleb128 0x39
 13623 2bf6 E6000000 		.4byte	.LASF470
 13624 2bfa 02       		.byte	0x2
 13625 2bfb 3C08     		.2byte	0x83c
 13626 2bfd BF010000 		.4byte	0x1bf
 13627 2c01 00000000 		.4byte	.LFB107
 13628 2c05 2A000000 		.4byte	.LFE107-.LFB107
 13629 2c09 01       		.uleb128 0x1
 13630 2c0a 9C       		.byte	0x9c
 13631 2c0b 1F2C0000 		.4byte	0x2c1f
 13632 2c0f 32       		.uleb128 0x32
 13633 2c10 6F626A00 		.ascii	"obj\000"
 13634 2c14 02       		.byte	0x2
 13635 2c15 3C08     		.2byte	0x83c
 13636 2c17 0B1A0000 		.4byte	0x1a0b
 13637 2c1b 02       		.uleb128 0x2
 13638 2c1c 91       		.byte	0x91
 13639 2c1d 74       		.sleb128 -12
 13640 2c1e 00       		.byte	0
 13641 2c1f 39       		.uleb128 0x39
 13642 2c20 CF180000 		.4byte	.LASF471
 13643 2c24 02       		.byte	0x2
 13644 2c25 4808     		.2byte	0x848
 13645 2c27 5D100000 		.4byte	0x105d
 13646 2c2b 00000000 		.4byte	.LFB108
 13647 2c2f 20000000 		.4byte	.LFE108-.LFB108
 13648 2c33 01       		.uleb128 0x1
 13649 2c34 9C       		.byte	0x9c
 13650 2c35 492C0000 		.4byte	0x2c49
 13651 2c39 32       		.uleb128 0x32
 13652 2c3a 6F626A00 		.ascii	"obj\000"
 13653 2c3e 02       		.byte	0x2
 13654 2c3f 4808     		.2byte	0x848
 13655 2c41 0B1A0000 		.4byte	0x1a0b
 13656 2c45 02       		.uleb128 0x2
 13657 2c46 91       		.byte	0x91
 13658 2c47 74       		.sleb128 -12
 13659 2c48 00       		.byte	0
 13660 2c49 39       		.uleb128 0x39
 13661 2c4a F10B0000 		.4byte	.LASF472
 13662 2c4e 02       		.byte	0x2
 13663 2c4f 5408     		.2byte	0x854
 13664 2c51 BF010000 		.4byte	0x1bf
 13665 2c55 00000000 		.4byte	.LFB109
 13666 2c59 2A000000 		.4byte	.LFE109-.LFB109
 13667 2c5d 01       		.uleb128 0x1
 13668 2c5e 9C       		.byte	0x9c
 13669 2c5f 732C0000 		.4byte	0x2c73
 13670 2c63 32       		.uleb128 0x32
 13671 2c64 6F626A00 		.ascii	"obj\000"
 13672 2c68 02       		.byte	0x2
 13673 2c69 5408     		.2byte	0x854
 13674 2c6b 0B1A0000 		.4byte	0x1a0b
 13675 2c6f 02       		.uleb128 0x2
 13676 2c70 91       		.byte	0x91
 13677 2c71 74       		.sleb128 -12
 13678 2c72 00       		.byte	0
ARM GAS  C:\Users\tmj32\AppData\Local\Temp\ccxLNxq9.s 			page 290


 13679 2c73 39       		.uleb128 0x39
 13680 2c74 70180000 		.4byte	.LASF473
 13681 2c78 02       		.byte	0x2
 13682 2c79 6008     		.2byte	0x860
 13683 2c7b BF010000 		.4byte	0x1bf
 13684 2c7f 00000000 		.4byte	.LFB110
 13685 2c83 2A000000 		.4byte	.LFE110-.LFB110
 13686 2c87 01       		.uleb128 0x1
 13687 2c88 9C       		.byte	0x9c
 13688 2c89 9D2C0000 		.4byte	0x2c9d
 13689 2c8d 32       		.uleb128 0x32
 13690 2c8e 6F626A00 		.ascii	"obj\000"
 13691 2c92 02       		.byte	0x2
 13692 2c93 6008     		.2byte	0x860
 13693 2c95 0B1A0000 		.4byte	0x1a0b
 13694 2c99 02       		.uleb128 0x2
 13695 2c9a 91       		.byte	0x91
 13696 2c9b 74       		.sleb128 -12
 13697 2c9c 00       		.byte	0
 13698 2c9d 39       		.uleb128 0x39
 13699 2c9e BB0E0000 		.4byte	.LASF474
 13700 2ca2 02       		.byte	0x2
 13701 2ca3 6A08     		.2byte	0x86a
 13702 2ca5 BF010000 		.4byte	0x1bf
 13703 2ca9 00000000 		.4byte	.LFB111
 13704 2cad 2A000000 		.4byte	.LFE111-.LFB111
 13705 2cb1 01       		.uleb128 0x1
 13706 2cb2 9C       		.byte	0x9c
 13707 2cb3 C72C0000 		.4byte	0x2cc7
 13708 2cb7 32       		.uleb128 0x32
 13709 2cb8 6F626A00 		.ascii	"obj\000"
 13710 2cbc 02       		.byte	0x2
 13711 2cbd 6A08     		.2byte	0x86a
 13712 2cbf 0B1A0000 		.4byte	0x1a0b
 13713 2cc3 02       		.uleb128 0x2
 13714 2cc4 91       		.byte	0x91
 13715 2cc5 74       		.sleb128 -12
 13716 2cc6 00       		.byte	0
 13717 2cc7 39       		.uleb128 0x39
 13718 2cc8 E70A0000 		.4byte	.LASF475
 13719 2ccc 02       		.byte	0x2
 13720 2ccd 7208     		.2byte	0x872
 13721 2ccf 74060000 		.4byte	0x674
 13722 2cd3 00000000 		.4byte	.LFB112
 13723 2cd7 16000000 		.4byte	.LFE112-.LFB112
 13724 2cdb 01       		.uleb128 0x1
 13725 2cdc 9C       		.byte	0x9c
 13726 2cdd F12C0000 		.4byte	0x2cf1
 13727 2ce1 32       		.uleb128 0x32
 13728 2ce2 6F626A00 		.ascii	"obj\000"
 13729 2ce6 02       		.byte	0x2
 13730 2ce7 7208     		.2byte	0x872
 13731 2ce9 0B1A0000 		.4byte	0x1a0b
 13732 2ced 02       		.uleb128 0x2
 13733 2cee 91       		.byte	0x91
 13734 2cef 74       		.sleb128 -12
 13735 2cf0 00       		.byte	0
ARM GAS  C:\Users\tmj32\AppData\Local\Temp\ccxLNxq9.s 			page 291


 13736 2cf1 39       		.uleb128 0x39
 13737 2cf2 60000000 		.4byte	.LASF476
 13738 2cf6 02       		.byte	0x2
 13739 2cf7 8A08     		.2byte	0x88a
 13740 2cf9 D6020000 		.4byte	0x2d6
 13741 2cfd 00000000 		.4byte	.LFB113
 13742 2d01 2A000000 		.4byte	.LFE113-.LFB113
 13743 2d05 01       		.uleb128 0x1
 13744 2d06 9C       		.byte	0x9c
 13745 2d07 1B2D0000 		.4byte	0x2d1b
 13746 2d0b 32       		.uleb128 0x32
 13747 2d0c 6F626A00 		.ascii	"obj\000"
 13748 2d10 02       		.byte	0x2
 13749 2d11 8A08     		.2byte	0x88a
 13750 2d13 0B1A0000 		.4byte	0x1a0b
 13751 2d17 02       		.uleb128 0x2
 13752 2d18 91       		.byte	0x91
 13753 2d19 74       		.sleb128 -12
 13754 2d1a 00       		.byte	0
 13755 2d1b 31       		.uleb128 0x31
 13756 2d1c 07180000 		.4byte	.LASF477
 13757 2d20 02       		.byte	0x2
 13758 2d21 9608     		.2byte	0x896
 13759 2d23 D6020000 		.4byte	0x2d6
 13760 2d27 00000000 		.4byte	.LFB114
 13761 2d2b 3E000000 		.4byte	.LFE114-.LFB114
 13762 2d2f 01       		.uleb128 0x1
 13763 2d30 9C       		.byte	0x9c
 13764 2d31 542D0000 		.4byte	0x2d54
 13765 2d35 32       		.uleb128 0x32
 13766 2d36 6F626A00 		.ascii	"obj\000"
 13767 2d3a 02       		.byte	0x2
 13768 2d3b 9608     		.2byte	0x896
 13769 2d3d 0B1A0000 		.4byte	0x1a0b
 13770 2d41 02       		.uleb128 0x2
 13771 2d42 91       		.byte	0x91
 13772 2d43 6C       		.sleb128 -20
 13773 2d44 33       		.uleb128 0x33
 13774 2d45 F10D0000 		.4byte	.LASF360
 13775 2d49 02       		.byte	0x2
 13776 2d4a 9A08     		.2byte	0x89a
 13777 2d4c 0B1A0000 		.4byte	0x1a0b
 13778 2d50 02       		.uleb128 0x2
 13779 2d51 91       		.byte	0x91
 13780 2d52 74       		.sleb128 -12
 13781 2d53 00       		.byte	0
 13782 2d54 39       		.uleb128 0x39
 13783 2d55 610A0000 		.4byte	.LASF478
 13784 2d59 02       		.byte	0x2
 13785 2d5a A908     		.2byte	0x8a9
 13786 2d5c AD000000 		.4byte	0xad
 13787 2d60 00000000 		.4byte	.LFB115
 13788 2d64 1A000000 		.4byte	.LFE115-.LFB115
 13789 2d68 01       		.uleb128 0x1
 13790 2d69 9C       		.byte	0x9c
 13791 2d6a 7E2D0000 		.4byte	0x2d7e
 13792 2d6e 32       		.uleb128 0x32
ARM GAS  C:\Users\tmj32\AppData\Local\Temp\ccxLNxq9.s 			page 292


 13793 2d6f 6F626A00 		.ascii	"obj\000"
 13794 2d73 02       		.byte	0x2
 13795 2d74 A908     		.2byte	0x8a9
 13796 2d76 0B1A0000 		.4byte	0x1a0b
 13797 2d7a 02       		.uleb128 0x2
 13798 2d7b 91       		.byte	0x91
 13799 2d7c 74       		.sleb128 -12
 13800 2d7d 00       		.byte	0
 13801 2d7e 39       		.uleb128 0x39
 13802 2d7f 3B020000 		.4byte	.LASF479
 13803 2d83 02       		.byte	0x2
 13804 2d84 B608     		.2byte	0x8b6
 13805 2d86 BF010000 		.4byte	0x1bf
 13806 2d8a 00000000 		.4byte	.LFB116
 13807 2d8e 2E000000 		.4byte	.LFE116-.LFB116
 13808 2d92 01       		.uleb128 0x1
 13809 2d93 9C       		.byte	0x9c
 13810 2d94 B72D0000 		.4byte	0x2db7
 13811 2d98 32       		.uleb128 0x32
 13812 2d99 6F626A00 		.ascii	"obj\000"
 13813 2d9d 02       		.byte	0x2
 13814 2d9e B608     		.2byte	0x8b6
 13815 2da0 0B1A0000 		.4byte	0x1a0b
 13816 2da4 02       		.uleb128 0x2
 13817 2da5 91       		.byte	0x91
 13818 2da6 74       		.sleb128 -12
 13819 2da7 35       		.uleb128 0x35
 13820 2da8 DE070000 		.4byte	.LASF420
 13821 2dac 02       		.byte	0x2
 13822 2dad B608     		.2byte	0x8b6
 13823 2daf AD000000 		.4byte	0xad
 13824 2db3 02       		.uleb128 0x2
 13825 2db4 91       		.byte	0x91
 13826 2db5 73       		.sleb128 -13
 13827 2db6 00       		.byte	0
 13828 2db7 39       		.uleb128 0x39
 13829 2db8 6E150000 		.4byte	.LASF480
 13830 2dbc 02       		.byte	0x2
 13831 2dbd C208     		.2byte	0x8c2
 13832 2dbf 110F0000 		.4byte	0xf11
 13833 2dc3 00000000 		.4byte	.LFB117
 13834 2dc7 18000000 		.4byte	.LFE117-.LFB117
 13835 2dcb 01       		.uleb128 0x1
 13836 2dcc 9C       		.byte	0x9c
 13837 2dcd E12D0000 		.4byte	0x2de1
 13838 2dd1 32       		.uleb128 0x32
 13839 2dd2 6F626A00 		.ascii	"obj\000"
 13840 2dd6 02       		.byte	0x2
 13841 2dd7 C208     		.2byte	0x8c2
 13842 2dd9 0B1A0000 		.4byte	0x1a0b
 13843 2ddd 02       		.uleb128 0x2
 13844 2dde 91       		.byte	0x91
 13845 2ddf 74       		.sleb128 -12
 13846 2de0 00       		.byte	0
 13847 2de1 39       		.uleb128 0x39
 13848 2de2 6B120000 		.4byte	.LASF481
 13849 2de6 02       		.byte	0x2
ARM GAS  C:\Users\tmj32\AppData\Local\Temp\ccxLNxq9.s 			page 293


 13850 2de7 CE08     		.2byte	0x8ce
 13851 2de9 A60D0000 		.4byte	0xda6
 13852 2ded 00000000 		.4byte	.LFB118
 13853 2df1 18000000 		.4byte	.LFE118-.LFB118
 13854 2df5 01       		.uleb128 0x1
 13855 2df6 9C       		.byte	0x9c
 13856 2df7 0B2E0000 		.4byte	0x2e0b
 13857 2dfb 32       		.uleb128 0x32
 13858 2dfc 6F626A00 		.ascii	"obj\000"
 13859 2e00 02       		.byte	0x2
 13860 2e01 CE08     		.2byte	0x8ce
 13861 2e03 0B1A0000 		.4byte	0x1a0b
 13862 2e07 02       		.uleb128 0x2
 13863 2e08 91       		.byte	0x91
 13864 2e09 74       		.sleb128 -12
 13865 2e0a 00       		.byte	0
 13866 2e0b 39       		.uleb128 0x39
 13867 2e0c 57120000 		.4byte	.LASF482
 13868 2e10 02       		.byte	0x2
 13869 2e11 DA08     		.2byte	0x8da
 13870 2e13 600E0000 		.4byte	0xe60
 13871 2e17 00000000 		.4byte	.LFB119
 13872 2e1b 18000000 		.4byte	.LFE119-.LFB119
 13873 2e1f 01       		.uleb128 0x1
 13874 2e20 9C       		.byte	0x9c
 13875 2e21 352E0000 		.4byte	0x2e35
 13876 2e25 32       		.uleb128 0x32
 13877 2e26 6F626A00 		.ascii	"obj\000"
 13878 2e2a 02       		.byte	0x2
 13879 2e2b DA08     		.2byte	0x8da
 13880 2e2d 0B1A0000 		.4byte	0x1a0b
 13881 2e31 02       		.uleb128 0x2
 13882 2e32 91       		.byte	0x91
 13883 2e33 74       		.sleb128 -12
 13884 2e34 00       		.byte	0
 13885 2e35 39       		.uleb128 0x39
 13886 2e36 D2160000 		.4byte	.LASF483
 13887 2e3a 02       		.byte	0x2
 13888 2e3b EB08     		.2byte	0x8eb
 13889 2e3d E4000000 		.4byte	0xe4
 13890 2e41 00000000 		.4byte	.LFB120
 13891 2e45 18000000 		.4byte	.LFE120-.LFB120
 13892 2e49 01       		.uleb128 0x1
 13893 2e4a 9C       		.byte	0x9c
 13894 2e4b 5F2E0000 		.4byte	0x2e5f
 13895 2e4f 32       		.uleb128 0x32
 13896 2e50 6F626A00 		.ascii	"obj\000"
 13897 2e54 02       		.byte	0x2
 13898 2e55 EB08     		.2byte	0x8eb
 13899 2e57 0B1A0000 		.4byte	0x1a0b
 13900 2e5b 02       		.uleb128 0x2
 13901 2e5c 91       		.byte	0x91
 13902 2e5d 74       		.sleb128 -12
 13903 2e5e 00       		.byte	0
 13904 2e5f 34       		.uleb128 0x34
 13905 2e60 8D000000 		.4byte	.LASF484
 13906 2e64 02       		.byte	0x2
ARM GAS  C:\Users\tmj32\AppData\Local\Temp\ccxLNxq9.s 			page 294


 13907 2e65 F808     		.2byte	0x8f8
 13908 2e67 00000000 		.4byte	.LFB121
 13909 2e6b AA000000 		.4byte	.LFE121-.LFB121
 13910 2e6f 01       		.uleb128 0x1
 13911 2e70 9C       		.byte	0x9c
 13912 2e71 BF2E0000 		.4byte	0x2ebf
 13913 2e75 32       		.uleb128 0x32
 13914 2e76 6F626A00 		.ascii	"obj\000"
 13915 2e7a 02       		.byte	0x2
 13916 2e7b F808     		.2byte	0x8f8
 13917 2e7d 0B1A0000 		.4byte	0x1a0b
 13918 2e81 02       		.uleb128 0x2
 13919 2e82 91       		.byte	0x91
 13920 2e83 4C       		.sleb128 -52
 13921 2e84 32       		.uleb128 0x32
 13922 2e85 62756600 		.ascii	"buf\000"
 13923 2e89 02       		.byte	0x2
 13924 2e8a F808     		.2byte	0x8f8
 13925 2e8c BF2E0000 		.4byte	0x2ebf
 13926 2e90 02       		.uleb128 0x2
 13927 2e91 91       		.byte	0x91
 13928 2e92 48       		.sleb128 -56
 13929 2e93 30       		.uleb128 0x30
 13930 2e94 746D7000 		.ascii	"tmp\000"
 13931 2e98 02       		.byte	0x2
 13932 2e99 FD08     		.2byte	0x8fd
 13933 2e9b DC100000 		.4byte	0x10dc
 13934 2e9f 02       		.uleb128 0x2
 13935 2ea0 91       		.byte	0x91
 13936 2ea1 54       		.sleb128 -44
 13937 2ea2 30       		.uleb128 0x30
 13938 2ea3 636E7400 		.ascii	"cnt\000"
 13939 2ea7 02       		.byte	0x2
 13940 2ea8 0409     		.2byte	0x904
 13941 2eaa AD000000 		.4byte	0xad
 13942 2eae 02       		.uleb128 0x2
 13943 2eaf 91       		.byte	0x91
 13944 2eb0 77       		.sleb128 -9
 13945 2eb1 30       		.uleb128 0x30
 13946 2eb2 6900     		.ascii	"i\000"
 13947 2eb4 02       		.byte	0x2
 13948 2eb5 0A09     		.2byte	0x90a
 13949 2eb7 AD000000 		.4byte	0xad
 13950 2ebb 02       		.uleb128 0x2
 13951 2ebc 91       		.byte	0x91
 13952 2ebd 76       		.sleb128 -10
 13953 2ebe 00       		.byte	0
 13954 2ebf 0D       		.uleb128 0xd
 13955 2ec0 04       		.byte	0x4
 13956 2ec1 DC100000 		.4byte	0x10dc
 13957 2ec5 39       		.uleb128 0x39
 13958 2ec6 1C180000 		.4byte	.LASF485
 13959 2eca 02       		.byte	0x2
 13960 2ecb 6109     		.2byte	0x961
 13961 2ecd EF050000 		.4byte	0x5ef
 13962 2ed1 00000000 		.4byte	.LFB122
 13963 2ed5 44000000 		.4byte	.LFE122-.LFB122
ARM GAS  C:\Users\tmj32\AppData\Local\Temp\ccxLNxq9.s 			page 295


 13964 2ed9 01       		.uleb128 0x1
 13965 2eda 9C       		.byte	0x9c
 13966 2edb 0B2F0000 		.4byte	0x2f0b
 13967 2edf 32       		.uleb128 0x32
 13968 2ee0 62756600 		.ascii	"buf\000"
 13969 2ee4 02       		.byte	0x2
 13970 2ee5 6109     		.2byte	0x961
 13971 2ee7 BF2E0000 		.4byte	0x2ebf
 13972 2eeb 02       		.uleb128 0x2
 13973 2eec 91       		.byte	0x91
 13974 2eed 6C       		.sleb128 -20
 13975 2eee 35       		.uleb128 0x35
 13976 2eef 2E070000 		.4byte	.LASF486
 13977 2ef3 02       		.byte	0x2
 13978 2ef4 6109     		.2byte	0x961
 13979 2ef6 F0020000 		.4byte	0x2f0
 13980 2efa 02       		.uleb128 0x2
 13981 2efb 91       		.byte	0x91
 13982 2efc 68       		.sleb128 -24
 13983 2efd 30       		.uleb128 0x30
 13984 2efe 6900     		.ascii	"i\000"
 13985 2f00 02       		.byte	0x2
 13986 2f01 6309     		.2byte	0x963
 13987 2f03 AD000000 		.4byte	0xad
 13988 2f07 02       		.uleb128 0x2
 13989 2f08 91       		.byte	0x91
 13990 2f09 77       		.sleb128 -9
 13991 2f0a 00       		.byte	0
 13992 2f0b 3A       		.uleb128 0x3a
 13993 2f0c 4A060000 		.4byte	.LASF488
 13994 2f10 02       		.byte	0x2
 13995 2f11 7009     		.2byte	0x970
 13996 2f13 00000000 		.4byte	.LFB123
 13997 2f17 16000000 		.4byte	.LFE123-.LFB123
 13998 2f1b 01       		.uleb128 0x1
 13999 2f1c 9C       		.byte	0x9c
 14000 2f1d 312F0000 		.4byte	0x2f31
 14001 2f21 32       		.uleb128 0x32
 14002 2f22 6F626A00 		.ascii	"obj\000"
 14003 2f26 02       		.byte	0x2
 14004 2f27 7009     		.2byte	0x970
 14005 2f29 E4000000 		.4byte	0xe4
 14006 2f2d 02       		.uleb128 0x2
 14007 2f2e 91       		.byte	0x91
 14008 2f2f 74       		.sleb128 -12
 14009 2f30 00       		.byte	0
 14010 2f31 3B       		.uleb128 0x3b
 14011 2f32 510F0000 		.4byte	.LASF489
 14012 2f36 02       		.byte	0x2
 14013 2f37 8009     		.2byte	0x980
 14014 2f39 BF010000 		.4byte	0x1bf
 14015 2f3d 00000000 		.4byte	.LFB124
 14016 2f41 1A010000 		.4byte	.LFE124-.LFB124
 14017 2f45 01       		.uleb128 0x1
 14018 2f46 9C       		.byte	0x9c
 14019 2f47 CB2F0000 		.4byte	0x2fcb
 14020 2f4b 32       		.uleb128 0x32
ARM GAS  C:\Users\tmj32\AppData\Local\Temp\ccxLNxq9.s 			page 296


 14021 2f4c 6F626A00 		.ascii	"obj\000"
 14022 2f50 02       		.byte	0x2
 14023 2f51 8009     		.2byte	0x980
 14024 2f53 CB180000 		.4byte	0x18cb
 14025 2f57 02       		.uleb128 0x2
 14026 2f58 91       		.byte	0x91
 14027 2f59 54       		.sleb128 -44
 14028 2f5a 35       		.uleb128 0x35
 14029 2f5b B91B0000 		.4byte	.LASF490
 14030 2f5f 02       		.byte	0x2
 14031 2f60 8009     		.2byte	0x980
 14032 2f62 08080000 		.4byte	0x808
 14033 2f66 02       		.uleb128 0x2
 14034 2f67 91       		.byte	0x91
 14035 2f68 50       		.sleb128 -48
 14036 2f69 35       		.uleb128 0x35
 14037 2f6a 42170000 		.4byte	.LASF491
 14038 2f6e 02       		.byte	0x2
 14039 2f6f 8009     		.2byte	0x980
 14040 2f71 9B0D0000 		.4byte	0xd9b
 14041 2f75 02       		.uleb128 0x2
 14042 2f76 91       		.byte	0x91
 14043 2f77 4F       		.sleb128 -49
 14044 2f78 2D       		.uleb128 0x2d
 14045 2f79 14000000 		.4byte	.LBB11
 14046 2f7d D6000000 		.4byte	.LBE11-.LBB11
 14047 2f81 B12F0000 		.4byte	0x2fb1
 14048 2f85 33       		.uleb128 0x33
 14049 2f86 A4100000 		.4byte	.LASF348
 14050 2f8a 02       		.byte	0x2
 14051 2f8b 8809     		.2byte	0x988
 14052 2f8d 68100000 		.4byte	0x1068
 14053 2f91 02       		.uleb128 0x2
 14054 2f92 91       		.byte	0x91
 14055 2f93 6C       		.sleb128 -20
 14056 2f94 30       		.uleb128 0x30
 14057 2f95 7200     		.ascii	"r\000"
 14058 2f97 02       		.byte	0x2
 14059 2f98 8D09     		.2byte	0x98d
 14060 2f9a D9000000 		.4byte	0xd9
 14061 2f9e 02       		.uleb128 0x2
 14062 2f9f 91       		.byte	0x91
 14063 2fa0 6A       		.sleb128 -22
 14064 2fa1 33       		.uleb128 0x33
 14065 2fa2 E2090000 		.4byte	.LASF492
 14066 2fa6 02       		.byte	0x2
 14067 2fa7 9109     		.2byte	0x991
 14068 2fa9 58030000 		.4byte	0x358
 14069 2fad 02       		.uleb128 0x2
 14070 2fae 91       		.byte	0x91
 14071 2faf 5C       		.sleb128 -36
 14072 2fb0 00       		.byte	0
 14073 2fb1 2F       		.uleb128 0x2f
 14074 2fb2 F0000000 		.4byte	.LBB12
 14075 2fb6 20000000 		.4byte	.LBE12-.LBB12
 14076 2fba 33       		.uleb128 0x33
 14077 2fbb A4100000 		.4byte	.LASF348
ARM GAS  C:\Users\tmj32\AppData\Local\Temp\ccxLNxq9.s 			page 297


 14078 2fbf 02       		.byte	0x2
 14079 2fc0 A009     		.2byte	0x9a0
 14080 2fc2 68100000 		.4byte	0x1068
 14081 2fc6 02       		.uleb128 0x2
 14082 2fc7 91       		.byte	0x91
 14083 2fc8 64       		.sleb128 -28
 14084 2fc9 00       		.byte	0
 14085 2fca 00       		.byte	0
 14086 2fcb 3B       		.uleb128 0x3b
 14087 2fcc 70040000 		.4byte	.LASF493
 14088 2fd0 02       		.byte	0x2
 14089 2fd1 AE09     		.2byte	0x9ae
 14090 2fd3 EF050000 		.4byte	0x5ef
 14091 2fd7 00000000 		.4byte	.LFB125
 14092 2fdb 84000000 		.4byte	.LFE125-.LFB125
 14093 2fdf 01       		.uleb128 0x1
 14094 2fe0 9C       		.byte	0x9c
 14095 2fe1 3B300000 		.4byte	0x303b
 14096 2fe5 32       		.uleb128 0x32
 14097 2fe6 6F626A00 		.ascii	"obj\000"
 14098 2fea 02       		.byte	0x2
 14099 2feb AE09     		.2byte	0x9ae
 14100 2fed CB180000 		.4byte	0x18cb
 14101 2ff1 02       		.uleb128 0x2
 14102 2ff2 91       		.byte	0x91
 14103 2ff3 6C       		.sleb128 -20
 14104 2ff4 35       		.uleb128 0x35
 14105 2ff5 12020000 		.4byte	.LASF494
 14106 2ff9 02       		.byte	0x2
 14107 2ffa AE09     		.2byte	0x9ae
 14108 2ffc 060F0000 		.4byte	0xf06
 14109 3000 02       		.uleb128 0x2
 14110 3001 91       		.byte	0x91
 14111 3002 6B       		.sleb128 -21
 14112 3003 35       		.uleb128 0x35
 14113 3004 8B0A0000 		.4byte	.LASF434
 14114 3008 02       		.byte	0x2
 14115 3009 AE09     		.2byte	0x9ae
 14116 300b E4000000 		.4byte	0xe4
 14117 300f 02       		.uleb128 0x2
 14118 3010 91       		.byte	0x91
 14119 3011 64       		.sleb128 -28
 14120 3012 30       		.uleb128 0x30
 14121 3013 72657300 		.ascii	"res\000"
 14122 3017 02       		.byte	0x2
 14123 3018 B209     		.2byte	0x9b2
 14124 301a EF050000 		.4byte	0x5ef
 14125 301e 02       		.uleb128 0x2
 14126 301f 91       		.byte	0x91
 14127 3020 77       		.sleb128 -9
 14128 3021 2F       		.uleb128 0x2f
 14129 3022 44000000 		.4byte	.LBB13
 14130 3026 24000000 		.4byte	.LBE13-.LBB13
 14131 302a 33       		.uleb128 0x33
 14132 302b A4100000 		.4byte	.LASF348
 14133 302f 02       		.byte	0x2
 14134 3030 B809     		.2byte	0x9b8
ARM GAS  C:\Users\tmj32\AppData\Local\Temp\ccxLNxq9.s 			page 298


 14135 3032 68100000 		.4byte	0x1068
 14136 3036 02       		.uleb128 0x2
 14137 3037 91       		.byte	0x91
 14138 3038 70       		.sleb128 -16
 14139 3039 00       		.byte	0
 14140 303a 00       		.byte	0
 14141 303b 3A       		.uleb128 0x3a
 14142 303c 250B0000 		.4byte	.LASF495
 14143 3040 02       		.byte	0x2
 14144 3041 C609     		.2byte	0x9c6
 14145 3043 00000000 		.4byte	.LFB126
 14146 3047 9A000000 		.4byte	.LFE126-.LFB126
 14147 304b 01       		.uleb128 0x1
 14148 304c 9C       		.byte	0x9c
 14149 304d 8C300000 		.4byte	0x308c
 14150 3051 32       		.uleb128 0x32
 14151 3052 6F626A00 		.ascii	"obj\000"
 14152 3056 02       		.byte	0x2
 14153 3057 C609     		.2byte	0x9c6
 14154 3059 CB180000 		.4byte	0x18cb
 14155 305d 02       		.uleb128 0x2
 14156 305e 91       		.byte	0x91
 14157 305f 6C       		.sleb128 -20
 14158 3060 35       		.uleb128 0x35
 14159 3061 FA040000 		.4byte	.LASF496
 14160 3065 02       		.byte	0x2
 14161 3066 C609     		.2byte	0x9c6
 14162 3068 D9000000 		.4byte	0xd9
 14163 306c 02       		.uleb128 0x2
 14164 306d 91       		.byte	0x91
 14165 306e 6A       		.sleb128 -22
 14166 306f 35       		.uleb128 0x35
 14167 3070 04170000 		.4byte	.LASF497
 14168 3074 02       		.byte	0x2
 14169 3075 C609     		.2byte	0x9c6
 14170 3077 D9000000 		.4byte	0xd9
 14171 307b 02       		.uleb128 0x2
 14172 307c 91       		.byte	0x91
 14173 307d 68       		.sleb128 -24
 14174 307e 30       		.uleb128 0x30
 14175 307f 6900     		.ascii	"i\000"
 14176 3081 02       		.byte	0x2
 14177 3082 C809     		.2byte	0x9c8
 14178 3084 CB180000 		.4byte	0x18cb
 14179 3088 02       		.uleb128 0x2
 14180 3089 91       		.byte	0x91
 14181 308a 74       		.sleb128 -12
 14182 308b 00       		.byte	0
 14183 308c 3A       		.uleb128 0x3a
 14184 308d 0C080000 		.4byte	.LASF498
 14185 3091 02       		.byte	0x2
 14186 3092 D909     		.2byte	0x9d9
 14187 3094 00000000 		.4byte	.LFB127
 14188 3098 58000000 		.4byte	.LFE127-.LFB127
 14189 309c 01       		.uleb128 0x1
 14190 309d 9C       		.byte	0x9c
 14191 309e CE300000 		.4byte	0x30ce
ARM GAS  C:\Users\tmj32\AppData\Local\Temp\ccxLNxq9.s 			page 299


 14192 30a2 35       		.uleb128 0x35
 14193 30a3 3A0C0000 		.4byte	.LASF154
 14194 30a7 02       		.byte	0x2
 14195 30a8 D909     		.2byte	0x9d9
 14196 30aa E4000000 		.4byte	0xe4
 14197 30ae 02       		.uleb128 0x2
 14198 30af 91       		.byte	0x91
 14199 30b0 6C       		.sleb128 -20
 14200 30b1 32       		.uleb128 0x32
 14201 30b2 6F626A00 		.ascii	"obj\000"
 14202 30b6 02       		.byte	0x2
 14203 30b7 D909     		.2byte	0x9d9
 14204 30b9 CB180000 		.4byte	0x18cb
 14205 30bd 02       		.uleb128 0x2
 14206 30be 91       		.byte	0x91
 14207 30bf 68       		.sleb128 -24
 14208 30c0 30       		.uleb128 0x30
 14209 30c1 6900     		.ascii	"i\000"
 14210 30c3 02       		.byte	0x2
 14211 30c4 DB09     		.2byte	0x9db
 14212 30c6 CB180000 		.4byte	0x18cb
 14213 30ca 02       		.uleb128 0x2
 14214 30cb 91       		.byte	0x91
 14215 30cc 74       		.sleb128 -12
 14216 30cd 00       		.byte	0
 14217 30ce 3A       		.uleb128 0x3a
 14218 30cf 92030000 		.4byte	.LASF499
 14219 30d3 02       		.byte	0x2
 14220 30d4 EC09     		.2byte	0x9ec
 14221 30d6 00000000 		.4byte	.LFB128
 14222 30da 58000000 		.4byte	.LFE128-.LFB128
 14223 30de 01       		.uleb128 0x1
 14224 30df 9C       		.byte	0x9c
 14225 30e0 03310000 		.4byte	0x3103
 14226 30e4 32       		.uleb128 0x32
 14227 30e5 6F626A00 		.ascii	"obj\000"
 14228 30e9 02       		.byte	0x2
 14229 30ea EC09     		.2byte	0x9ec
 14230 30ec CB180000 		.4byte	0x18cb
 14231 30f0 02       		.uleb128 0x2
 14232 30f1 91       		.byte	0x91
 14233 30f2 6C       		.sleb128 -20
 14234 30f3 33       		.uleb128 0x33
 14235 30f4 48000000 		.4byte	.LASF369
 14236 30f8 02       		.byte	0x2
 14237 30f9 EE09     		.2byte	0x9ee
 14238 30fb CB180000 		.4byte	0x18cb
 14239 30ff 02       		.uleb128 0x2
 14240 3100 91       		.byte	0x91
 14241 3101 74       		.sleb128 -12
 14242 3102 00       		.byte	0
 14243 3103 3A       		.uleb128 0x3a
 14244 3104 081A0000 		.4byte	.LASF500
 14245 3108 02       		.byte	0x2
 14246 3109 FF09     		.2byte	0x9ff
 14247 310b 00000000 		.4byte	.LFB129
 14248 310f CE000000 		.4byte	.LFE129-.LFB129
ARM GAS  C:\Users\tmj32\AppData\Local\Temp\ccxLNxq9.s 			page 300


 14249 3113 01       		.uleb128 0x1
 14250 3114 9C       		.byte	0x9c
 14251 3115 63310000 		.4byte	0x3163
 14252 3119 32       		.uleb128 0x32
 14253 311a 6F626A00 		.ascii	"obj\000"
 14254 311e 02       		.byte	0x2
 14255 311f FF09     		.2byte	0x9ff
 14256 3121 CB180000 		.4byte	0x18cb
 14257 3125 02       		.uleb128 0x2
 14258 3126 91       		.byte	0x91
 14259 3127 64       		.sleb128 -28
 14260 3128 30       		.uleb128 0x30
 14261 3129 6900     		.ascii	"i\000"
 14262 312b 02       		.byte	0x2
 14263 312c 010A     		.2byte	0xa01
 14264 312e CB180000 		.4byte	0x18cb
 14265 3132 02       		.uleb128 0x2
 14266 3133 91       		.byte	0x91
 14267 3134 74       		.sleb128 -12
 14268 3135 33       		.uleb128 0x33
 14269 3136 CE040000 		.4byte	.LASF365
 14270 313a 02       		.byte	0x2
 14271 313b 020A     		.2byte	0xa02
 14272 313d CB180000 		.4byte	0x18cb
 14273 3141 02       		.uleb128 0x2
 14274 3142 91       		.byte	0x91
 14275 3143 6C       		.sleb128 -20
 14276 3144 33       		.uleb128 0x33
 14277 3145 BB170000 		.4byte	.LASF366
 14278 3149 02       		.byte	0x2
 14279 314a 240A     		.2byte	0xa24
 14280 314c 9D1A0000 		.4byte	0x1a9d
 14281 3150 02       		.uleb128 0x2
 14282 3151 91       		.byte	0x91
 14283 3152 70       		.sleb128 -16
 14284 3153 30       		.uleb128 0x30
 14285 3154 70617200 		.ascii	"par\000"
 14286 3158 02       		.byte	0x2
 14287 3159 390A     		.2byte	0xa39
 14288 315b CB180000 		.4byte	0x18cb
 14289 315f 02       		.uleb128 0x2
 14290 3160 91       		.byte	0x91
 14291 3161 68       		.sleb128 -24
 14292 3162 00       		.byte	0
 14293 3163 3A       		.uleb128 0x3a
 14294 3164 BD070000 		.4byte	.LASF501
 14295 3168 02       		.byte	0x2
 14296 3169 410A     		.2byte	0xa41
 14297 316b 00000000 		.4byte	.LFB130
 14298 316f 4C000000 		.4byte	.LFE130-.LFB130
 14299 3173 01       		.uleb128 0x1
 14300 3174 9C       		.byte	0x9c
 14301 3175 98310000 		.4byte	0x3198
 14302 3179 32       		.uleb128 0x32
 14303 317a 6F626A00 		.ascii	"obj\000"
 14304 317e 02       		.byte	0x2
 14305 317f 410A     		.2byte	0xa41
ARM GAS  C:\Users\tmj32\AppData\Local\Temp\ccxLNxq9.s 			page 301


 14306 3181 CB180000 		.4byte	0x18cb
 14307 3185 02       		.uleb128 0x2
 14308 3186 91       		.byte	0x91
 14309 3187 6C       		.sleb128 -20
 14310 3188 33       		.uleb128 0x33
 14311 3189 48000000 		.4byte	.LASF369
 14312 318d 02       		.byte	0x2
 14313 318e 430A     		.2byte	0xa43
 14314 3190 CB180000 		.4byte	0x18cb
 14315 3194 02       		.uleb128 0x2
 14316 3195 91       		.byte	0x91
 14317 3196 74       		.sleb128 -12
 14318 3197 00       		.byte	0
 14319 3198 3C       		.uleb128 0x3c
 14320 3199 C3130000 		.4byte	.LASF502
 14321 319d 02       		.byte	0x2
 14322 319e 510A     		.2byte	0xa51
 14323 31a0 00000000 		.4byte	.LFB131
 14324 31a4 3C000000 		.4byte	.LFE131-.LFB131
 14325 31a8 01       		.uleb128 0x1
 14326 31a9 9C       		.byte	0x9c
 14327 31aa CB310000 		.4byte	0x31cb
 14328 31ae 32       		.uleb128 0x32
 14329 31af 6F626A00 		.ascii	"obj\000"
 14330 31b3 02       		.byte	0x2
 14331 31b4 510A     		.2byte	0xa51
 14332 31b6 CB180000 		.4byte	0x18cb
 14333 31ba 02       		.uleb128 0x2
 14334 31bb 91       		.byte	0x91
 14335 31bc 6C       		.sleb128 -20
 14336 31bd 30       		.uleb128 0x30
 14337 31be 7400     		.ascii	"t\000"
 14338 31c0 02       		.byte	0x2
 14339 31c1 530A     		.2byte	0xa53
 14340 31c3 CB310000 		.4byte	0x31cb
 14341 31c7 02       		.uleb128 0x2
 14342 31c8 91       		.byte	0x91
 14343 31c9 74       		.sleb128 -12
 14344 31ca 00       		.byte	0
 14345 31cb 0D       		.uleb128 0xd
 14346 31cc 04       		.byte	0x4
 14347 31cd D7180000 		.4byte	0x18d7
 14348 31d1 2C       		.uleb128 0x2c
 14349 31d2 52150000 		.4byte	.LASF503
 14350 31d6 02       		.byte	0x2
 14351 31d7 40       		.byte	0x40
 14352 31d8 BF010000 		.4byte	0x1bf
 14353 31dc 05       		.uleb128 0x5
 14354 31dd 03       		.byte	0x3
 14355 31de 00000000 		.4byte	lv_initialized
 14356 31e2 2C       		.uleb128 0x2c
 14357 31e3 B50D0000 		.4byte	.LASF504
 14358 31e7 02       		.byte	0x2
 14359 31e8 41       		.byte	0x41
 14360 31e9 CB310000 		.4byte	0x31cb
 14361 31ed 05       		.uleb128 0x5
 14362 31ee 03       		.byte	0x3
ARM GAS  C:\Users\tmj32\AppData\Local\Temp\ccxLNxq9.s 			page 302


 14363 31ef 04000000 		.4byte	event_temp_data_head
 14364 31f3 2C       		.uleb128 0x2c
 14365 31f4 48120000 		.4byte	.LASF505
 14366 31f8 02       		.byte	0x2
 14367 31f9 42       		.byte	0x42
 14368 31fa 93180000 		.4byte	0x1893
 14369 31fe 05       		.uleb128 0x5
 14370 31ff 03       		.byte	0x3
 14371 3200 08000000 		.4byte	event_act_data
 14372 3204 3D       		.uleb128 0x3d
 14373 3205 C1040000 		.4byte	.LASF506
 14374 3209 08       		.byte	0x8
 14375 320a 0B01     		.2byte	0x10b
 14376 320c C5050000 		.4byte	0x5c5
 14377 3210 3D       		.uleb128 0x3d
 14378 3211 6C0F0000 		.4byte	.LASF507
 14379 3215 08       		.byte	0x8
 14380 3216 0F01     		.2byte	0x10f
 14381 3218 C5050000 		.4byte	0x5c5
 14382 321c 3D       		.uleb128 0x3d
 14383 321d A6170000 		.4byte	.LASF508
 14384 3221 08       		.byte	0x8
 14385 3222 1001     		.2byte	0x110
 14386 3224 C5050000 		.4byte	0x5c5
 14387 3228 3E       		.uleb128 0x3e
 14388 3229 42040000 		.4byte	.LASF509
 14389 322d 11       		.byte	0x11
 14390 322e 38       		.byte	0x38
 14391 322f 38060000 		.4byte	0x638
 14392 3233 3E       		.uleb128 0x3e
 14393 3234 D8050000 		.4byte	.LASF510
 14394 3238 11       		.byte	0x11
 14395 3239 38       		.byte	0x38
 14396 323a 38060000 		.4byte	0x638
 14397 323e 00       		.byte	0
 14398              		.section	.debug_abbrev,"",%progbits
 14399              	.Ldebug_abbrev0:
 14400 0000 01       		.uleb128 0x1
 14401 0001 11       		.uleb128 0x11
 14402 0002 01       		.byte	0x1
 14403 0003 25       		.uleb128 0x25
 14404 0004 0E       		.uleb128 0xe
 14405 0005 13       		.uleb128 0x13
 14406 0006 0B       		.uleb128 0xb
 14407 0007 03       		.uleb128 0x3
 14408 0008 0E       		.uleb128 0xe
 14409 0009 1B       		.uleb128 0x1b
 14410 000a 0E       		.uleb128 0xe
 14411 000b 55       		.uleb128 0x55
 14412 000c 17       		.uleb128 0x17
 14413 000d 11       		.uleb128 0x11
 14414 000e 01       		.uleb128 0x1
 14415 000f 10       		.uleb128 0x10
 14416 0010 17       		.uleb128 0x17
 14417 0011 00       		.byte	0
 14418 0012 00       		.byte	0
 14419 0013 02       		.uleb128 0x2
ARM GAS  C:\Users\tmj32\AppData\Local\Temp\ccxLNxq9.s 			page 303


 14420 0014 16       		.uleb128 0x16
 14421 0015 00       		.byte	0
 14422 0016 03       		.uleb128 0x3
 14423 0017 0E       		.uleb128 0xe
 14424 0018 3A       		.uleb128 0x3a
 14425 0019 0B       		.uleb128 0xb
 14426 001a 3B       		.uleb128 0x3b
 14427 001b 0B       		.uleb128 0xb
 14428 001c 49       		.uleb128 0x49
 14429 001d 13       		.uleb128 0x13
 14430 001e 00       		.byte	0
 14431 001f 00       		.byte	0
 14432 0020 03       		.uleb128 0x3
 14433 0021 24       		.uleb128 0x24
 14434 0022 00       		.byte	0
 14435 0023 0B       		.uleb128 0xb
 14436 0024 0B       		.uleb128 0xb
 14437 0025 3E       		.uleb128 0x3e
 14438 0026 0B       		.uleb128 0xb
 14439 0027 03       		.uleb128 0x3
 14440 0028 0E       		.uleb128 0xe
 14441 0029 00       		.byte	0
 14442 002a 00       		.byte	0
 14443 002b 04       		.uleb128 0x4
 14444 002c 24       		.uleb128 0x24
 14445 002d 00       		.byte	0
 14446 002e 0B       		.uleb128 0xb
 14447 002f 0B       		.uleb128 0xb
 14448 0030 3E       		.uleb128 0x3e
 14449 0031 0B       		.uleb128 0xb
 14450 0032 03       		.uleb128 0x3
 14451 0033 08       		.uleb128 0x8
 14452 0034 00       		.byte	0
 14453 0035 00       		.byte	0
 14454 0036 05       		.uleb128 0x5
 14455 0037 0F       		.uleb128 0xf
 14456 0038 00       		.byte	0
 14457 0039 0B       		.uleb128 0xb
 14458 003a 0B       		.uleb128 0xb
 14459 003b 00       		.byte	0
 14460 003c 00       		.byte	0
 14461 003d 06       		.uleb128 0x6
 14462 003e 13       		.uleb128 0x13
 14463 003f 01       		.byte	0x1
 14464 0040 0B       		.uleb128 0xb
 14465 0041 0B       		.uleb128 0xb
 14466 0042 3A       		.uleb128 0x3a
 14467 0043 0B       		.uleb128 0xb
 14468 0044 3B       		.uleb128 0x3b
 14469 0045 0B       		.uleb128 0xb
 14470 0046 01       		.uleb128 0x1
 14471 0047 13       		.uleb128 0x13
 14472 0048 00       		.byte	0
 14473 0049 00       		.byte	0
 14474 004a 07       		.uleb128 0x7
 14475 004b 0D       		.uleb128 0xd
 14476 004c 00       		.byte	0
ARM GAS  C:\Users\tmj32\AppData\Local\Temp\ccxLNxq9.s 			page 304


 14477 004d 03       		.uleb128 0x3
 14478 004e 0E       		.uleb128 0xe
 14479 004f 3A       		.uleb128 0x3a
 14480 0050 0B       		.uleb128 0xb
 14481 0051 3B       		.uleb128 0x3b
 14482 0052 0B       		.uleb128 0xb
 14483 0053 49       		.uleb128 0x49
 14484 0054 13       		.uleb128 0x13
 14485 0055 38       		.uleb128 0x38
 14486 0056 0B       		.uleb128 0xb
 14487 0057 00       		.byte	0
 14488 0058 00       		.byte	0
 14489 0059 08       		.uleb128 0x8
 14490 005a 0D       		.uleb128 0xd
 14491 005b 00       		.byte	0
 14492 005c 03       		.uleb128 0x3
 14493 005d 08       		.uleb128 0x8
 14494 005e 3A       		.uleb128 0x3a
 14495 005f 0B       		.uleb128 0xb
 14496 0060 3B       		.uleb128 0x3b
 14497 0061 0B       		.uleb128 0xb
 14498 0062 49       		.uleb128 0x49
 14499 0063 13       		.uleb128 0x13
 14500 0064 38       		.uleb128 0x38
 14501 0065 0B       		.uleb128 0xb
 14502 0066 00       		.byte	0
 14503 0067 00       		.byte	0
 14504 0068 09       		.uleb128 0x9
 14505 0069 13       		.uleb128 0x13
 14506 006a 01       		.byte	0x1
 14507 006b 03       		.uleb128 0x3
 14508 006c 0E       		.uleb128 0xe
 14509 006d 0B       		.uleb128 0xb
 14510 006e 0B       		.uleb128 0xb
 14511 006f 3A       		.uleb128 0x3a
 14512 0070 0B       		.uleb128 0xb
 14513 0071 3B       		.uleb128 0x3b
 14514 0072 0B       		.uleb128 0xb
 14515 0073 01       		.uleb128 0x1
 14516 0074 13       		.uleb128 0x13
 14517 0075 00       		.byte	0
 14518 0076 00       		.byte	0
 14519 0077 0A       		.uleb128 0xa
 14520 0078 0D       		.uleb128 0xd
 14521 0079 00       		.byte	0
 14522 007a 03       		.uleb128 0x3
 14523 007b 0E       		.uleb128 0xe
 14524 007c 3A       		.uleb128 0x3a
 14525 007d 0B       		.uleb128 0xb
 14526 007e 3B       		.uleb128 0x3b
 14527 007f 0B       		.uleb128 0xb
 14528 0080 49       		.uleb128 0x49
 14529 0081 13       		.uleb128 0x13
 14530 0082 0B       		.uleb128 0xb
 14531 0083 0B       		.uleb128 0xb
 14532 0084 0D       		.uleb128 0xd
 14533 0085 0B       		.uleb128 0xb
ARM GAS  C:\Users\tmj32\AppData\Local\Temp\ccxLNxq9.s 			page 305


 14534 0086 0C       		.uleb128 0xc
 14535 0087 0B       		.uleb128 0xb
 14536 0088 38       		.uleb128 0x38
 14537 0089 0B       		.uleb128 0xb
 14538 008a 00       		.byte	0
 14539 008b 00       		.byte	0
 14540 008c 0B       		.uleb128 0xb
 14541 008d 15       		.uleb128 0x15
 14542 008e 01       		.byte	0x1
 14543 008f 27       		.uleb128 0x27
 14544 0090 19       		.uleb128 0x19
 14545 0091 49       		.uleb128 0x49
 14546 0092 13       		.uleb128 0x13
 14547 0093 01       		.uleb128 0x1
 14548 0094 13       		.uleb128 0x13
 14549 0095 00       		.byte	0
 14550 0096 00       		.byte	0
 14551 0097 0C       		.uleb128 0xc
 14552 0098 05       		.uleb128 0x5
 14553 0099 00       		.byte	0
 14554 009a 49       		.uleb128 0x49
 14555 009b 13       		.uleb128 0x13
 14556 009c 00       		.byte	0
 14557 009d 00       		.byte	0
 14558 009e 0D       		.uleb128 0xd
 14559 009f 0F       		.uleb128 0xf
 14560 00a0 00       		.byte	0
 14561 00a1 0B       		.uleb128 0xb
 14562 00a2 0B       		.uleb128 0xb
 14563 00a3 49       		.uleb128 0x49
 14564 00a4 13       		.uleb128 0x13
 14565 00a5 00       		.byte	0
 14566 00a6 00       		.byte	0
 14567 00a7 0E       		.uleb128 0xe
 14568 00a8 26       		.uleb128 0x26
 14569 00a9 00       		.byte	0
 14570 00aa 49       		.uleb128 0x49
 14571 00ab 13       		.uleb128 0x13
 14572 00ac 00       		.byte	0
 14573 00ad 00       		.byte	0
 14574 00ae 0F       		.uleb128 0xf
 14575 00af 04       		.uleb128 0x4
 14576 00b0 01       		.byte	0x1
 14577 00b1 0B       		.uleb128 0xb
 14578 00b2 0B       		.uleb128 0xb
 14579 00b3 49       		.uleb128 0x49
 14580 00b4 13       		.uleb128 0x13
 14581 00b5 3A       		.uleb128 0x3a
 14582 00b6 0B       		.uleb128 0xb
 14583 00b7 3B       		.uleb128 0x3b
 14584 00b8 0B       		.uleb128 0xb
 14585 00b9 01       		.uleb128 0x1
 14586 00ba 13       		.uleb128 0x13
 14587 00bb 00       		.byte	0
 14588 00bc 00       		.byte	0
 14589 00bd 10       		.uleb128 0x10
 14590 00be 28       		.uleb128 0x28
ARM GAS  C:\Users\tmj32\AppData\Local\Temp\ccxLNxq9.s 			page 306


 14591 00bf 00       		.byte	0
 14592 00c0 03       		.uleb128 0x3
 14593 00c1 0E       		.uleb128 0xe
 14594 00c2 1C       		.uleb128 0x1c
 14595 00c3 0B       		.uleb128 0xb
 14596 00c4 00       		.byte	0
 14597 00c5 00       		.byte	0
 14598 00c6 11       		.uleb128 0x11
 14599 00c7 17       		.uleb128 0x17
 14600 00c8 01       		.byte	0x1
 14601 00c9 0B       		.uleb128 0xb
 14602 00ca 0B       		.uleb128 0xb
 14603 00cb 3A       		.uleb128 0x3a
 14604 00cc 0B       		.uleb128 0xb
 14605 00cd 3B       		.uleb128 0x3b
 14606 00ce 0B       		.uleb128 0xb
 14607 00cf 01       		.uleb128 0x1
 14608 00d0 13       		.uleb128 0x13
 14609 00d1 00       		.byte	0
 14610 00d2 00       		.byte	0
 14611 00d3 12       		.uleb128 0x12
 14612 00d4 0D       		.uleb128 0xd
 14613 00d5 00       		.byte	0
 14614 00d6 03       		.uleb128 0x3
 14615 00d7 08       		.uleb128 0x8
 14616 00d8 3A       		.uleb128 0x3a
 14617 00d9 0B       		.uleb128 0xb
 14618 00da 3B       		.uleb128 0x3b
 14619 00db 0B       		.uleb128 0xb
 14620 00dc 49       		.uleb128 0x49
 14621 00dd 13       		.uleb128 0x13
 14622 00de 00       		.byte	0
 14623 00df 00       		.byte	0
 14624 00e0 13       		.uleb128 0x13
 14625 00e1 0D       		.uleb128 0xd
 14626 00e2 00       		.byte	0
 14627 00e3 03       		.uleb128 0x3
 14628 00e4 0E       		.uleb128 0xe
 14629 00e5 3A       		.uleb128 0x3a
 14630 00e6 0B       		.uleb128 0xb
 14631 00e7 3B       		.uleb128 0x3b
 14632 00e8 0B       		.uleb128 0xb
 14633 00e9 49       		.uleb128 0x49
 14634 00ea 13       		.uleb128 0x13
 14635 00eb 00       		.byte	0
 14636 00ec 00       		.byte	0
 14637 00ed 14       		.uleb128 0x14
 14638 00ee 16       		.uleb128 0x16
 14639 00ef 00       		.byte	0
 14640 00f0 03       		.uleb128 0x3
 14641 00f1 0E       		.uleb128 0xe
 14642 00f2 3A       		.uleb128 0x3a
 14643 00f3 0B       		.uleb128 0xb
 14644 00f4 3B       		.uleb128 0x3b
 14645 00f5 05       		.uleb128 0x5
 14646 00f6 49       		.uleb128 0x49
 14647 00f7 13       		.uleb128 0x13
ARM GAS  C:\Users\tmj32\AppData\Local\Temp\ccxLNxq9.s 			page 307


 14648 00f8 00       		.byte	0
 14649 00f9 00       		.byte	0
 14650 00fa 15       		.uleb128 0x15
 14651 00fb 15       		.uleb128 0x15
 14652 00fc 01       		.byte	0x1
 14653 00fd 27       		.uleb128 0x27
 14654 00fe 19       		.uleb128 0x19
 14655 00ff 01       		.uleb128 0x1
 14656 0100 13       		.uleb128 0x13
 14657 0101 00       		.byte	0
 14658 0102 00       		.byte	0
 14659 0103 16       		.uleb128 0x16
 14660 0104 35       		.uleb128 0x35
 14661 0105 00       		.byte	0
 14662 0106 49       		.uleb128 0x49
 14663 0107 13       		.uleb128 0x13
 14664 0108 00       		.byte	0
 14665 0109 00       		.byte	0
 14666 010a 17       		.uleb128 0x17
 14667 010b 13       		.uleb128 0x13
 14668 010c 01       		.byte	0x1
 14669 010d 03       		.uleb128 0x3
 14670 010e 0E       		.uleb128 0xe
 14671 010f 0B       		.uleb128 0xb
 14672 0110 05       		.uleb128 0x5
 14673 0111 3A       		.uleb128 0x3a
 14674 0112 0B       		.uleb128 0xb
 14675 0113 3B       		.uleb128 0x3b
 14676 0114 0B       		.uleb128 0xb
 14677 0115 01       		.uleb128 0x1
 14678 0116 13       		.uleb128 0x13
 14679 0117 00       		.byte	0
 14680 0118 00       		.byte	0
 14681 0119 18       		.uleb128 0x18
 14682 011a 0D       		.uleb128 0xd
 14683 011b 00       		.byte	0
 14684 011c 03       		.uleb128 0x3
 14685 011d 0E       		.uleb128 0xe
 14686 011e 3A       		.uleb128 0x3a
 14687 011f 0B       		.uleb128 0xb
 14688 0120 3B       		.uleb128 0x3b
 14689 0121 0B       		.uleb128 0xb
 14690 0122 49       		.uleb128 0x49
 14691 0123 13       		.uleb128 0x13
 14692 0124 38       		.uleb128 0x38
 14693 0125 05       		.uleb128 0x5
 14694 0126 00       		.byte	0
 14695 0127 00       		.byte	0
 14696 0128 19       		.uleb128 0x19
 14697 0129 0D       		.uleb128 0xd
 14698 012a 00       		.byte	0
 14699 012b 03       		.uleb128 0x3
 14700 012c 0E       		.uleb128 0xe
 14701 012d 3A       		.uleb128 0x3a
 14702 012e 0B       		.uleb128 0xb
 14703 012f 3B       		.uleb128 0x3b
 14704 0130 0B       		.uleb128 0xb
ARM GAS  C:\Users\tmj32\AppData\Local\Temp\ccxLNxq9.s 			page 308


 14705 0131 49       		.uleb128 0x49
 14706 0132 13       		.uleb128 0x13
 14707 0133 0B       		.uleb128 0xb
 14708 0134 0B       		.uleb128 0xb
 14709 0135 0D       		.uleb128 0xd
 14710 0136 0B       		.uleb128 0xb
 14711 0137 0C       		.uleb128 0xc
 14712 0138 0B       		.uleb128 0xb
 14713 0139 38       		.uleb128 0x38
 14714 013a 05       		.uleb128 0x5
 14715 013b 00       		.byte	0
 14716 013c 00       		.byte	0
 14717 013d 1A       		.uleb128 0x1a
 14718 013e 0D       		.uleb128 0xd
 14719 013f 00       		.byte	0
 14720 0140 03       		.uleb128 0x3
 14721 0141 08       		.uleb128 0x8
 14722 0142 3A       		.uleb128 0x3a
 14723 0143 0B       		.uleb128 0xb
 14724 0144 3B       		.uleb128 0x3b
 14725 0145 0B       		.uleb128 0xb
 14726 0146 49       		.uleb128 0x49
 14727 0147 13       		.uleb128 0x13
 14728 0148 0B       		.uleb128 0xb
 14729 0149 0B       		.uleb128 0xb
 14730 014a 0D       		.uleb128 0xd
 14731 014b 0B       		.uleb128 0xb
 14732 014c 0C       		.uleb128 0xc
 14733 014d 0B       		.uleb128 0xb
 14734 014e 38       		.uleb128 0x38
 14735 014f 0B       		.uleb128 0xb
 14736 0150 00       		.byte	0
 14737 0151 00       		.byte	0
 14738 0152 1B       		.uleb128 0x1b
 14739 0153 01       		.uleb128 0x1
 14740 0154 01       		.byte	0x1
 14741 0155 49       		.uleb128 0x49
 14742 0156 13       		.uleb128 0x13
 14743 0157 01       		.uleb128 0x1
 14744 0158 13       		.uleb128 0x13
 14745 0159 00       		.byte	0
 14746 015a 00       		.byte	0
 14747 015b 1C       		.uleb128 0x1c
 14748 015c 21       		.uleb128 0x21
 14749 015d 00       		.byte	0
 14750 015e 49       		.uleb128 0x49
 14751 015f 13       		.uleb128 0x13
 14752 0160 2F       		.uleb128 0x2f
 14753 0161 0B       		.uleb128 0xb
 14754 0162 00       		.byte	0
 14755 0163 00       		.byte	0
 14756 0164 1D       		.uleb128 0x1d
 14757 0165 13       		.uleb128 0x13
 14758 0166 00       		.byte	0
 14759 0167 03       		.uleb128 0x3
 14760 0168 0E       		.uleb128 0xe
 14761 0169 3C       		.uleb128 0x3c
ARM GAS  C:\Users\tmj32\AppData\Local\Temp\ccxLNxq9.s 			page 309


 14762 016a 19       		.uleb128 0x19
 14763 016b 00       		.byte	0
 14764 016c 00       		.byte	0
 14765 016d 1E       		.uleb128 0x1e
 14766 016e 13       		.uleb128 0x13
 14767 016f 01       		.byte	0x1
 14768 0170 0B       		.uleb128 0xb
 14769 0171 0B       		.uleb128 0xb
 14770 0172 3A       		.uleb128 0x3a
 14771 0173 0B       		.uleb128 0xb
 14772 0174 3B       		.uleb128 0x3b
 14773 0175 05       		.uleb128 0x5
 14774 0176 01       		.uleb128 0x1
 14775 0177 13       		.uleb128 0x13
 14776 0178 00       		.byte	0
 14777 0179 00       		.byte	0
 14778 017a 1F       		.uleb128 0x1f
 14779 017b 0D       		.uleb128 0xd
 14780 017c 00       		.byte	0
 14781 017d 03       		.uleb128 0x3
 14782 017e 0E       		.uleb128 0xe
 14783 017f 3A       		.uleb128 0x3a
 14784 0180 0B       		.uleb128 0xb
 14785 0181 3B       		.uleb128 0x3b
 14786 0182 05       		.uleb128 0x5
 14787 0183 49       		.uleb128 0x49
 14788 0184 13       		.uleb128 0x13
 14789 0185 38       		.uleb128 0x38
 14790 0186 0B       		.uleb128 0xb
 14791 0187 00       		.byte	0
 14792 0188 00       		.byte	0
 14793 0189 20       		.uleb128 0x20
 14794 018a 0D       		.uleb128 0xd
 14795 018b 00       		.byte	0
 14796 018c 03       		.uleb128 0x3
 14797 018d 08       		.uleb128 0x8
 14798 018e 3A       		.uleb128 0x3a
 14799 018f 0B       		.uleb128 0xb
 14800 0190 3B       		.uleb128 0x3b
 14801 0191 05       		.uleb128 0x5
 14802 0192 49       		.uleb128 0x49
 14803 0193 13       		.uleb128 0x13
 14804 0194 38       		.uleb128 0x38
 14805 0195 0B       		.uleb128 0xb
 14806 0196 00       		.byte	0
 14807 0197 00       		.byte	0
 14808 0198 21       		.uleb128 0x21
 14809 0199 13       		.uleb128 0x13
 14810 019a 01       		.byte	0x1
 14811 019b 0B       		.uleb128 0xb
 14812 019c 05       		.uleb128 0x5
 14813 019d 3A       		.uleb128 0x3a
 14814 019e 0B       		.uleb128 0xb
 14815 019f 3B       		.uleb128 0x3b
 14816 01a0 0B       		.uleb128 0xb
 14817 01a1 01       		.uleb128 0x1
 14818 01a2 13       		.uleb128 0x13
ARM GAS  C:\Users\tmj32\AppData\Local\Temp\ccxLNxq9.s 			page 310


 14819 01a3 00       		.byte	0
 14820 01a4 00       		.byte	0
 14821 01a5 22       		.uleb128 0x22
 14822 01a6 0D       		.uleb128 0xd
 14823 01a7 00       		.byte	0
 14824 01a8 03       		.uleb128 0x3
 14825 01a9 08       		.uleb128 0x8
 14826 01aa 3A       		.uleb128 0x3a
 14827 01ab 0B       		.uleb128 0xb
 14828 01ac 3B       		.uleb128 0x3b
 14829 01ad 0B       		.uleb128 0xb
 14830 01ae 49       		.uleb128 0x49
 14831 01af 13       		.uleb128 0x13
 14832 01b0 38       		.uleb128 0x38
 14833 01b1 05       		.uleb128 0x5
 14834 01b2 00       		.byte	0
 14835 01b3 00       		.byte	0
 14836 01b4 23       		.uleb128 0x23
 14837 01b5 0D       		.uleb128 0xd
 14838 01b6 00       		.byte	0
 14839 01b7 03       		.uleb128 0x3
 14840 01b8 0E       		.uleb128 0xe
 14841 01b9 3A       		.uleb128 0x3a
 14842 01ba 0B       		.uleb128 0xb
 14843 01bb 3B       		.uleb128 0x3b
 14844 01bc 05       		.uleb128 0x5
 14845 01bd 49       		.uleb128 0x49
 14846 01be 13       		.uleb128 0x13
 14847 01bf 38       		.uleb128 0x38
 14848 01c0 05       		.uleb128 0x5
 14849 01c1 00       		.byte	0
 14850 01c2 00       		.byte	0
 14851 01c3 24       		.uleb128 0x24
 14852 01c4 0D       		.uleb128 0xd
 14853 01c5 00       		.byte	0
 14854 01c6 03       		.uleb128 0x3
 14855 01c7 08       		.uleb128 0x8
 14856 01c8 3A       		.uleb128 0x3a
 14857 01c9 0B       		.uleb128 0xb
 14858 01ca 3B       		.uleb128 0x3b
 14859 01cb 05       		.uleb128 0x5
 14860 01cc 49       		.uleb128 0x49
 14861 01cd 13       		.uleb128 0x13
 14862 01ce 38       		.uleb128 0x38
 14863 01cf 05       		.uleb128 0x5
 14864 01d0 00       		.byte	0
 14865 01d1 00       		.byte	0
 14866 01d2 25       		.uleb128 0x25
 14867 01d3 26       		.uleb128 0x26
 14868 01d4 00       		.byte	0
 14869 01d5 00       		.byte	0
 14870 01d6 00       		.byte	0
 14871 01d7 26       		.uleb128 0x26
 14872 01d8 2E       		.uleb128 0x2e
 14873 01d9 01       		.byte	0x1
 14874 01da 03       		.uleb128 0x3
 14875 01db 0E       		.uleb128 0xe
ARM GAS  C:\Users\tmj32\AppData\Local\Temp\ccxLNxq9.s 			page 311


 14876 01dc 3A       		.uleb128 0x3a
 14877 01dd 0B       		.uleb128 0xb
 14878 01de 3B       		.uleb128 0x3b
 14879 01df 0B       		.uleb128 0xb
 14880 01e0 27       		.uleb128 0x27
 14881 01e1 19       		.uleb128 0x19
 14882 01e2 11       		.uleb128 0x11
 14883 01e3 01       		.uleb128 0x1
 14884 01e4 12       		.uleb128 0x12
 14885 01e5 06       		.uleb128 0x6
 14886 01e6 40       		.uleb128 0x40
 14887 01e7 18       		.uleb128 0x18
 14888 01e8 9642     		.uleb128 0x2116
 14889 01ea 19       		.uleb128 0x19
 14890 01eb 01       		.uleb128 0x1
 14891 01ec 13       		.uleb128 0x13
 14892 01ed 00       		.byte	0
 14893 01ee 00       		.byte	0
 14894 01ef 27       		.uleb128 0x27
 14895 01f0 05       		.uleb128 0x5
 14896 01f1 00       		.byte	0
 14897 01f2 03       		.uleb128 0x3
 14898 01f3 0E       		.uleb128 0xe
 14899 01f4 3A       		.uleb128 0x3a
 14900 01f5 0B       		.uleb128 0xb
 14901 01f6 3B       		.uleb128 0x3b
 14902 01f7 0B       		.uleb128 0xb
 14903 01f8 49       		.uleb128 0x49
 14904 01f9 13       		.uleb128 0x13
 14905 01fa 02       		.uleb128 0x2
 14906 01fb 18       		.uleb128 0x18
 14907 01fc 00       		.byte	0
 14908 01fd 00       		.byte	0
 14909 01fe 28       		.uleb128 0x28
 14910 01ff 05       		.uleb128 0x5
 14911 0200 00       		.byte	0
 14912 0201 03       		.uleb128 0x3
 14913 0202 08       		.uleb128 0x8
 14914 0203 3A       		.uleb128 0x3a
 14915 0204 0B       		.uleb128 0xb
 14916 0205 3B       		.uleb128 0x3b
 14917 0206 0B       		.uleb128 0xb
 14918 0207 49       		.uleb128 0x49
 14919 0208 13       		.uleb128 0x13
 14920 0209 02       		.uleb128 0x2
 14921 020a 18       		.uleb128 0x18
 14922 020b 00       		.byte	0
 14923 020c 00       		.byte	0
 14924 020d 29       		.uleb128 0x29
 14925 020e 2E       		.uleb128 0x2e
 14926 020f 01       		.byte	0x1
 14927 0210 03       		.uleb128 0x3
 14928 0211 0E       		.uleb128 0xe
 14929 0212 3A       		.uleb128 0x3a
 14930 0213 0B       		.uleb128 0xb
 14931 0214 3B       		.uleb128 0x3b
 14932 0215 0B       		.uleb128 0xb
ARM GAS  C:\Users\tmj32\AppData\Local\Temp\ccxLNxq9.s 			page 312


 14933 0216 27       		.uleb128 0x27
 14934 0217 19       		.uleb128 0x19
 14935 0218 49       		.uleb128 0x49
 14936 0219 13       		.uleb128 0x13
 14937 021a 11       		.uleb128 0x11
 14938 021b 01       		.uleb128 0x1
 14939 021c 12       		.uleb128 0x12
 14940 021d 06       		.uleb128 0x6
 14941 021e 40       		.uleb128 0x40
 14942 021f 18       		.uleb128 0x18
 14943 0220 9742     		.uleb128 0x2117
 14944 0222 19       		.uleb128 0x19
 14945 0223 01       		.uleb128 0x1
 14946 0224 13       		.uleb128 0x13
 14947 0225 00       		.byte	0
 14948 0226 00       		.byte	0
 14949 0227 2A       		.uleb128 0x2a
 14950 0228 2E       		.uleb128 0x2e
 14951 0229 00       		.byte	0
 14952 022a 3F       		.uleb128 0x3f
 14953 022b 19       		.uleb128 0x19
 14954 022c 03       		.uleb128 0x3
 14955 022d 0E       		.uleb128 0xe
 14956 022e 3A       		.uleb128 0x3a
 14957 022f 0B       		.uleb128 0xb
 14958 0230 3B       		.uleb128 0x3b
 14959 0231 0B       		.uleb128 0xb
 14960 0232 27       		.uleb128 0x27
 14961 0233 19       		.uleb128 0x19
 14962 0234 11       		.uleb128 0x11
 14963 0235 01       		.uleb128 0x1
 14964 0236 12       		.uleb128 0x12
 14965 0237 06       		.uleb128 0x6
 14966 0238 40       		.uleb128 0x40
 14967 0239 18       		.uleb128 0x18
 14968 023a 9642     		.uleb128 0x2116
 14969 023c 19       		.uleb128 0x19
 14970 023d 00       		.byte	0
 14971 023e 00       		.byte	0
 14972 023f 2B       		.uleb128 0x2b
 14973 0240 2E       		.uleb128 0x2e
 14974 0241 01       		.byte	0x1
 14975 0242 3F       		.uleb128 0x3f
 14976 0243 19       		.uleb128 0x19
 14977 0244 03       		.uleb128 0x3
 14978 0245 0E       		.uleb128 0xe
 14979 0246 3A       		.uleb128 0x3a
 14980 0247 0B       		.uleb128 0xb
 14981 0248 3B       		.uleb128 0x3b
 14982 0249 0B       		.uleb128 0xb
 14983 024a 27       		.uleb128 0x27
 14984 024b 19       		.uleb128 0x19
 14985 024c 49       		.uleb128 0x49
 14986 024d 13       		.uleb128 0x13
 14987 024e 11       		.uleb128 0x11
 14988 024f 01       		.uleb128 0x1
 14989 0250 12       		.uleb128 0x12
ARM GAS  C:\Users\tmj32\AppData\Local\Temp\ccxLNxq9.s 			page 313


 14990 0251 06       		.uleb128 0x6
 14991 0252 40       		.uleb128 0x40
 14992 0253 18       		.uleb128 0x18
 14993 0254 9642     		.uleb128 0x2116
 14994 0256 19       		.uleb128 0x19
 14995 0257 01       		.uleb128 0x1
 14996 0258 13       		.uleb128 0x13
 14997 0259 00       		.byte	0
 14998 025a 00       		.byte	0
 14999 025b 2C       		.uleb128 0x2c
 15000 025c 34       		.uleb128 0x34
 15001 025d 00       		.byte	0
 15002 025e 03       		.uleb128 0x3
 15003 025f 0E       		.uleb128 0xe
 15004 0260 3A       		.uleb128 0x3a
 15005 0261 0B       		.uleb128 0xb
 15006 0262 3B       		.uleb128 0x3b
 15007 0263 0B       		.uleb128 0xb
 15008 0264 49       		.uleb128 0x49
 15009 0265 13       		.uleb128 0x13
 15010 0266 02       		.uleb128 0x2
 15011 0267 18       		.uleb128 0x18
 15012 0268 00       		.byte	0
 15013 0269 00       		.byte	0
 15014 026a 2D       		.uleb128 0x2d
 15015 026b 0B       		.uleb128 0xb
 15016 026c 01       		.byte	0x1
 15017 026d 11       		.uleb128 0x11
 15018 026e 01       		.uleb128 0x1
 15019 026f 12       		.uleb128 0x12
 15020 0270 06       		.uleb128 0x6
 15021 0271 01       		.uleb128 0x1
 15022 0272 13       		.uleb128 0x13
 15023 0273 00       		.byte	0
 15024 0274 00       		.byte	0
 15025 0275 2E       		.uleb128 0x2e
 15026 0276 34       		.uleb128 0x34
 15027 0277 00       		.byte	0
 15028 0278 03       		.uleb128 0x3
 15029 0279 08       		.uleb128 0x8
 15030 027a 3A       		.uleb128 0x3a
 15031 027b 0B       		.uleb128 0xb
 15032 027c 3B       		.uleb128 0x3b
 15033 027d 0B       		.uleb128 0xb
 15034 027e 49       		.uleb128 0x49
 15035 027f 13       		.uleb128 0x13
 15036 0280 02       		.uleb128 0x2
 15037 0281 18       		.uleb128 0x18
 15038 0282 00       		.byte	0
 15039 0283 00       		.byte	0
 15040 0284 2F       		.uleb128 0x2f
 15041 0285 0B       		.uleb128 0xb
 15042 0286 01       		.byte	0x1
 15043 0287 11       		.uleb128 0x11
 15044 0288 01       		.uleb128 0x1
 15045 0289 12       		.uleb128 0x12
 15046 028a 06       		.uleb128 0x6
ARM GAS  C:\Users\tmj32\AppData\Local\Temp\ccxLNxq9.s 			page 314


 15047 028b 00       		.byte	0
 15048 028c 00       		.byte	0
 15049 028d 30       		.uleb128 0x30
 15050 028e 34       		.uleb128 0x34
 15051 028f 00       		.byte	0
 15052 0290 03       		.uleb128 0x3
 15053 0291 08       		.uleb128 0x8
 15054 0292 3A       		.uleb128 0x3a
 15055 0293 0B       		.uleb128 0xb
 15056 0294 3B       		.uleb128 0x3b
 15057 0295 05       		.uleb128 0x5
 15058 0296 49       		.uleb128 0x49
 15059 0297 13       		.uleb128 0x13
 15060 0298 02       		.uleb128 0x2
 15061 0299 18       		.uleb128 0x18
 15062 029a 00       		.byte	0
 15063 029b 00       		.byte	0
 15064 029c 31       		.uleb128 0x31
 15065 029d 2E       		.uleb128 0x2e
 15066 029e 01       		.byte	0x1
 15067 029f 3F       		.uleb128 0x3f
 15068 02a0 19       		.uleb128 0x19
 15069 02a1 03       		.uleb128 0x3
 15070 02a2 0E       		.uleb128 0xe
 15071 02a3 3A       		.uleb128 0x3a
 15072 02a4 0B       		.uleb128 0xb
 15073 02a5 3B       		.uleb128 0x3b
 15074 02a6 05       		.uleb128 0x5
 15075 02a7 27       		.uleb128 0x27
 15076 02a8 19       		.uleb128 0x19
 15077 02a9 49       		.uleb128 0x49
 15078 02aa 13       		.uleb128 0x13
 15079 02ab 11       		.uleb128 0x11
 15080 02ac 01       		.uleb128 0x1
 15081 02ad 12       		.uleb128 0x12
 15082 02ae 06       		.uleb128 0x6
 15083 02af 40       		.uleb128 0x40
 15084 02b0 18       		.uleb128 0x18
 15085 02b1 9642     		.uleb128 0x2116
 15086 02b3 19       		.uleb128 0x19
 15087 02b4 01       		.uleb128 0x1
 15088 02b5 13       		.uleb128 0x13
 15089 02b6 00       		.byte	0
 15090 02b7 00       		.byte	0
 15091 02b8 32       		.uleb128 0x32
 15092 02b9 05       		.uleb128 0x5
 15093 02ba 00       		.byte	0
 15094 02bb 03       		.uleb128 0x3
 15095 02bc 08       		.uleb128 0x8
 15096 02bd 3A       		.uleb128 0x3a
 15097 02be 0B       		.uleb128 0xb
 15098 02bf 3B       		.uleb128 0x3b
 15099 02c0 05       		.uleb128 0x5
 15100 02c1 49       		.uleb128 0x49
 15101 02c2 13       		.uleb128 0x13
 15102 02c3 02       		.uleb128 0x2
 15103 02c4 18       		.uleb128 0x18
ARM GAS  C:\Users\tmj32\AppData\Local\Temp\ccxLNxq9.s 			page 315


 15104 02c5 00       		.byte	0
 15105 02c6 00       		.byte	0
 15106 02c7 33       		.uleb128 0x33
 15107 02c8 34       		.uleb128 0x34
 15108 02c9 00       		.byte	0
 15109 02ca 03       		.uleb128 0x3
 15110 02cb 0E       		.uleb128 0xe
 15111 02cc 3A       		.uleb128 0x3a
 15112 02cd 0B       		.uleb128 0xb
 15113 02ce 3B       		.uleb128 0x3b
 15114 02cf 05       		.uleb128 0x5
 15115 02d0 49       		.uleb128 0x49
 15116 02d1 13       		.uleb128 0x13
 15117 02d2 02       		.uleb128 0x2
 15118 02d3 18       		.uleb128 0x18
 15119 02d4 00       		.byte	0
 15120 02d5 00       		.byte	0
 15121 02d6 34       		.uleb128 0x34
 15122 02d7 2E       		.uleb128 0x2e
 15123 02d8 01       		.byte	0x1
 15124 02d9 3F       		.uleb128 0x3f
 15125 02da 19       		.uleb128 0x19
 15126 02db 03       		.uleb128 0x3
 15127 02dc 0E       		.uleb128 0xe
 15128 02dd 3A       		.uleb128 0x3a
 15129 02de 0B       		.uleb128 0xb
 15130 02df 3B       		.uleb128 0x3b
 15131 02e0 05       		.uleb128 0x5
 15132 02e1 27       		.uleb128 0x27
 15133 02e2 19       		.uleb128 0x19
 15134 02e3 11       		.uleb128 0x11
 15135 02e4 01       		.uleb128 0x1
 15136 02e5 12       		.uleb128 0x12
 15137 02e6 06       		.uleb128 0x6
 15138 02e7 40       		.uleb128 0x40
 15139 02e8 18       		.uleb128 0x18
 15140 02e9 9642     		.uleb128 0x2116
 15141 02eb 19       		.uleb128 0x19
 15142 02ec 01       		.uleb128 0x1
 15143 02ed 13       		.uleb128 0x13
 15144 02ee 00       		.byte	0
 15145 02ef 00       		.byte	0
 15146 02f0 35       		.uleb128 0x35
 15147 02f1 05       		.uleb128 0x5
 15148 02f2 00       		.byte	0
 15149 02f3 03       		.uleb128 0x3
 15150 02f4 0E       		.uleb128 0xe
 15151 02f5 3A       		.uleb128 0x3a
 15152 02f6 0B       		.uleb128 0xb
 15153 02f7 3B       		.uleb128 0x3b
 15154 02f8 05       		.uleb128 0x5
 15155 02f9 49       		.uleb128 0x49
 15156 02fa 13       		.uleb128 0x13
 15157 02fb 02       		.uleb128 0x2
 15158 02fc 18       		.uleb128 0x18
 15159 02fd 00       		.byte	0
 15160 02fe 00       		.byte	0
ARM GAS  C:\Users\tmj32\AppData\Local\Temp\ccxLNxq9.s 			page 316


 15161 02ff 36       		.uleb128 0x36
 15162 0300 0B       		.uleb128 0xb
 15163 0301 01       		.byte	0x1
 15164 0302 55       		.uleb128 0x55
 15165 0303 17       		.uleb128 0x17
 15166 0304 00       		.byte	0
 15167 0305 00       		.byte	0
 15168 0306 37       		.uleb128 0x37
 15169 0307 2E       		.uleb128 0x2e
 15170 0308 01       		.byte	0x1
 15171 0309 3F       		.uleb128 0x3f
 15172 030a 19       		.uleb128 0x19
 15173 030b 03       		.uleb128 0x3
 15174 030c 0E       		.uleb128 0xe
 15175 030d 3A       		.uleb128 0x3a
 15176 030e 0B       		.uleb128 0xb
 15177 030f 3B       		.uleb128 0x3b
 15178 0310 05       		.uleb128 0x5
 15179 0311 27       		.uleb128 0x27
 15180 0312 19       		.uleb128 0x19
 15181 0313 11       		.uleb128 0x11
 15182 0314 01       		.uleb128 0x1
 15183 0315 12       		.uleb128 0x12
 15184 0316 06       		.uleb128 0x6
 15185 0317 40       		.uleb128 0x40
 15186 0318 18       		.uleb128 0x18
 15187 0319 9742     		.uleb128 0x2117
 15188 031b 19       		.uleb128 0x19
 15189 031c 01       		.uleb128 0x1
 15190 031d 13       		.uleb128 0x13
 15191 031e 00       		.byte	0
 15192 031f 00       		.byte	0
 15193 0320 38       		.uleb128 0x38
 15194 0321 2E       		.uleb128 0x2e
 15195 0322 00       		.byte	0
 15196 0323 3F       		.uleb128 0x3f
 15197 0324 19       		.uleb128 0x19
 15198 0325 03       		.uleb128 0x3
 15199 0326 0E       		.uleb128 0xe
 15200 0327 3A       		.uleb128 0x3a
 15201 0328 0B       		.uleb128 0xb
 15202 0329 3B       		.uleb128 0x3b
 15203 032a 05       		.uleb128 0x5
 15204 032b 27       		.uleb128 0x27
 15205 032c 19       		.uleb128 0x19
 15206 032d 49       		.uleb128 0x49
 15207 032e 13       		.uleb128 0x13
 15208 032f 11       		.uleb128 0x11
 15209 0330 01       		.uleb128 0x1
 15210 0331 12       		.uleb128 0x12
 15211 0332 06       		.uleb128 0x6
 15212 0333 40       		.uleb128 0x40
 15213 0334 18       		.uleb128 0x18
 15214 0335 9742     		.uleb128 0x2117
 15215 0337 19       		.uleb128 0x19
 15216 0338 00       		.byte	0
 15217 0339 00       		.byte	0
ARM GAS  C:\Users\tmj32\AppData\Local\Temp\ccxLNxq9.s 			page 317


 15218 033a 39       		.uleb128 0x39
 15219 033b 2E       		.uleb128 0x2e
 15220 033c 01       		.byte	0x1
 15221 033d 3F       		.uleb128 0x3f
 15222 033e 19       		.uleb128 0x19
 15223 033f 03       		.uleb128 0x3
 15224 0340 0E       		.uleb128 0xe
 15225 0341 3A       		.uleb128 0x3a
 15226 0342 0B       		.uleb128 0xb
 15227 0343 3B       		.uleb128 0x3b
 15228 0344 05       		.uleb128 0x5
 15229 0345 27       		.uleb128 0x27
 15230 0346 19       		.uleb128 0x19
 15231 0347 49       		.uleb128 0x49
 15232 0348 13       		.uleb128 0x13
 15233 0349 11       		.uleb128 0x11
 15234 034a 01       		.uleb128 0x1
 15235 034b 12       		.uleb128 0x12
 15236 034c 06       		.uleb128 0x6
 15237 034d 40       		.uleb128 0x40
 15238 034e 18       		.uleb128 0x18
 15239 034f 9742     		.uleb128 0x2117
 15240 0351 19       		.uleb128 0x19
 15241 0352 01       		.uleb128 0x1
 15242 0353 13       		.uleb128 0x13
 15243 0354 00       		.byte	0
 15244 0355 00       		.byte	0
 15245 0356 3A       		.uleb128 0x3a
 15246 0357 2E       		.uleb128 0x2e
 15247 0358 01       		.byte	0x1
 15248 0359 03       		.uleb128 0x3
 15249 035a 0E       		.uleb128 0xe
 15250 035b 3A       		.uleb128 0x3a
 15251 035c 0B       		.uleb128 0xb
 15252 035d 3B       		.uleb128 0x3b
 15253 035e 05       		.uleb128 0x5
 15254 035f 27       		.uleb128 0x27
 15255 0360 19       		.uleb128 0x19
 15256 0361 11       		.uleb128 0x11
 15257 0362 01       		.uleb128 0x1
 15258 0363 12       		.uleb128 0x12
 15259 0364 06       		.uleb128 0x6
 15260 0365 40       		.uleb128 0x40
 15261 0366 18       		.uleb128 0x18
 15262 0367 9642     		.uleb128 0x2116
 15263 0369 19       		.uleb128 0x19
 15264 036a 01       		.uleb128 0x1
 15265 036b 13       		.uleb128 0x13
 15266 036c 00       		.byte	0
 15267 036d 00       		.byte	0
 15268 036e 3B       		.uleb128 0x3b
 15269 036f 2E       		.uleb128 0x2e
 15270 0370 01       		.byte	0x1
 15271 0371 03       		.uleb128 0x3
 15272 0372 0E       		.uleb128 0xe
 15273 0373 3A       		.uleb128 0x3a
 15274 0374 0B       		.uleb128 0xb
ARM GAS  C:\Users\tmj32\AppData\Local\Temp\ccxLNxq9.s 			page 318


 15275 0375 3B       		.uleb128 0x3b
 15276 0376 05       		.uleb128 0x5
 15277 0377 27       		.uleb128 0x27
 15278 0378 19       		.uleb128 0x19
 15279 0379 49       		.uleb128 0x49
 15280 037a 13       		.uleb128 0x13
 15281 037b 11       		.uleb128 0x11
 15282 037c 01       		.uleb128 0x1
 15283 037d 12       		.uleb128 0x12
 15284 037e 06       		.uleb128 0x6
 15285 037f 40       		.uleb128 0x40
 15286 0380 18       		.uleb128 0x18
 15287 0381 9642     		.uleb128 0x2116
 15288 0383 19       		.uleb128 0x19
 15289 0384 01       		.uleb128 0x1
 15290 0385 13       		.uleb128 0x13
 15291 0386 00       		.byte	0
 15292 0387 00       		.byte	0
 15293 0388 3C       		.uleb128 0x3c
 15294 0389 2E       		.uleb128 0x2e
 15295 038a 01       		.byte	0x1
 15296 038b 03       		.uleb128 0x3
 15297 038c 0E       		.uleb128 0xe
 15298 038d 3A       		.uleb128 0x3a
 15299 038e 0B       		.uleb128 0xb
 15300 038f 3B       		.uleb128 0x3b
 15301 0390 05       		.uleb128 0x5
 15302 0391 27       		.uleb128 0x27
 15303 0392 19       		.uleb128 0x19
 15304 0393 11       		.uleb128 0x11
 15305 0394 01       		.uleb128 0x1
 15306 0395 12       		.uleb128 0x12
 15307 0396 06       		.uleb128 0x6
 15308 0397 40       		.uleb128 0x40
 15309 0398 18       		.uleb128 0x18
 15310 0399 9742     		.uleb128 0x2117
 15311 039b 19       		.uleb128 0x19
 15312 039c 01       		.uleb128 0x1
 15313 039d 13       		.uleb128 0x13
 15314 039e 00       		.byte	0
 15315 039f 00       		.byte	0
 15316 03a0 3D       		.uleb128 0x3d
 15317 03a1 34       		.uleb128 0x34
 15318 03a2 00       		.byte	0
 15319 03a3 03       		.uleb128 0x3
 15320 03a4 0E       		.uleb128 0xe
 15321 03a5 3A       		.uleb128 0x3a
 15322 03a6 0B       		.uleb128 0xb
 15323 03a7 3B       		.uleb128 0x3b
 15324 03a8 05       		.uleb128 0x5
 15325 03a9 49       		.uleb128 0x49
 15326 03aa 13       		.uleb128 0x13
 15327 03ab 3F       		.uleb128 0x3f
 15328 03ac 19       		.uleb128 0x19
 15329 03ad 3C       		.uleb128 0x3c
 15330 03ae 19       		.uleb128 0x19
 15331 03af 00       		.byte	0
ARM GAS  C:\Users\tmj32\AppData\Local\Temp\ccxLNxq9.s 			page 319


 15332 03b0 00       		.byte	0
 15333 03b1 3E       		.uleb128 0x3e
 15334 03b2 34       		.uleb128 0x34
 15335 03b3 00       		.byte	0
 15336 03b4 03       		.uleb128 0x3
 15337 03b5 0E       		.uleb128 0xe
 15338 03b6 3A       		.uleb128 0x3a
 15339 03b7 0B       		.uleb128 0xb
 15340 03b8 3B       		.uleb128 0x3b
 15341 03b9 0B       		.uleb128 0xb
 15342 03ba 49       		.uleb128 0x49
 15343 03bb 13       		.uleb128 0x13
 15344 03bc 3F       		.uleb128 0x3f
 15345 03bd 19       		.uleb128 0x19
 15346 03be 3C       		.uleb128 0x3c
 15347 03bf 19       		.uleb128 0x19
 15348 03c0 00       		.byte	0
 15349 03c1 00       		.byte	0
 15350 03c2 00       		.byte	0
 15351              		.section	.debug_aranges,"",%progbits
 15352 0000 34030000 		.4byte	0x334
 15353 0004 0200     		.2byte	0x2
 15354 0006 00000000 		.4byte	.Ldebug_info0
 15355 000a 04       		.byte	0x4
 15356 000b 00       		.byte	0
 15357 000c 0000     		.2byte	0
 15358 000e 0000     		.2byte	0
 15359 0010 00000000 		.4byte	.LFB10
 15360 0014 1C000000 		.4byte	.LFE10-.LFB10
 15361 0018 00000000 		.4byte	.LFB11
 15362 001c 2E000000 		.4byte	.LFE11-.LFB11
 15363 0020 00000000 		.4byte	.LFB12
 15364 0024 2E000000 		.4byte	.LFE12-.LFB12
 15365 0028 00000000 		.4byte	.LFB35
 15366 002c 58000000 		.4byte	.LFE35-.LFB35
 15367 0030 00000000 		.4byte	.LFB36
 15368 0034 20000000 		.4byte	.LFE36-.LFB36
 15369 0038 00000000 		.4byte	.LFB37
 15370 003c FC040000 		.4byte	.LFE37-.LFB37
 15371 0040 00000000 		.4byte	.LFB38
 15372 0044 04010000 		.4byte	.LFE38-.LFB38
 15373 0048 00000000 		.4byte	.LFB39
 15374 004c 1C000000 		.4byte	.LFE39-.LFB39
 15375 0050 00000000 		.4byte	.LFB40
 15376 0054 36000000 		.4byte	.LFE40-.LFB40
 15377 0058 00000000 		.4byte	.LFB41
 15378 005c 44010000 		.4byte	.LFE41-.LFB41
 15379 0060 00000000 		.4byte	.LFB42
 15380 0064 74000000 		.4byte	.LFE42-.LFB42
 15381 0068 00000000 		.4byte	.LFB43
 15382 006c 8C000000 		.4byte	.LFE43-.LFB43
 15383 0070 00000000 		.4byte	.LFB44
 15384 0074 54000000 		.4byte	.LFE44-.LFB44
 15385 0078 00000000 		.4byte	.LFB45
 15386 007c 54000000 		.4byte	.LFE45-.LFB45
 15387 0080 00000000 		.4byte	.LFB46
 15388 0084 16010000 		.4byte	.LFE46-.LFB46
ARM GAS  C:\Users\tmj32\AppData\Local\Temp\ccxLNxq9.s 			page 320


 15389 0088 00000000 		.4byte	.LFB47
 15390 008c 2A000000 		.4byte	.LFE47-.LFB47
 15391 0090 00000000 		.4byte	.LFB48
 15392 0094 2A000000 		.4byte	.LFE48-.LFB48
 15393 0098 00000000 		.4byte	.LFB49
 15394 009c 18010000 		.4byte	.LFE49-.LFB49
 15395 00a0 00000000 		.4byte	.LFB50
 15396 00a4 2A000000 		.4byte	.LFE50-.LFB50
 15397 00a8 00000000 		.4byte	.LFB51
 15398 00ac 2A000000 		.4byte	.LFE51-.LFB51
 15399 00b0 00000000 		.4byte	.LFB52
 15400 00b4 C6040000 		.4byte	.LFE52-.LFB52
 15401 00b8 00000000 		.4byte	.LFB53
 15402 00bc 1E040000 		.4byte	.LFE53-.LFB53
 15403 00c0 00000000 		.4byte	.LFB54
 15404 00c4 62000000 		.4byte	.LFE54-.LFB54
 15405 00c8 00000000 		.4byte	.LFB55
 15406 00cc 2E000000 		.4byte	.LFE55-.LFB55
 15407 00d0 00000000 		.4byte	.LFB56
 15408 00d4 26000000 		.4byte	.LFE56-.LFB56
 15409 00d8 00000000 		.4byte	.LFB57
 15410 00dc 24000000 		.4byte	.LFE57-.LFB57
 15411 00e0 00000000 		.4byte	.LFB58
 15412 00e4 28000000 		.4byte	.LFE58-.LFB58
 15413 00e8 00000000 		.4byte	.LFB59
 15414 00ec 68000000 		.4byte	.LFE59-.LFB59
 15415 00f0 00000000 		.4byte	.LFB60
 15416 00f4 74000000 		.4byte	.LFE60-.LFB60
 15417 00f8 00000000 		.4byte	.LFB61
 15418 00fc 2E000000 		.4byte	.LFE61-.LFB61
 15419 0100 00000000 		.4byte	.LFB62
 15420 0104 2E000000 		.4byte	.LFE62-.LFB62
 15421 0108 00000000 		.4byte	.LFB63
 15422 010c 38000000 		.4byte	.LFE63-.LFB63
 15423 0110 00000000 		.4byte	.LFB64
 15424 0114 42000000 		.4byte	.LFE64-.LFB64
 15425 0118 00000000 		.4byte	.LFB65
 15426 011c 2E000000 		.4byte	.LFE65-.LFB65
 15427 0120 00000000 		.4byte	.LFB66
 15428 0124 2E000000 		.4byte	.LFE66-.LFB66
 15429 0128 00000000 		.4byte	.LFB67
 15430 012c 2E000000 		.4byte	.LFE67-.LFB67
 15431 0130 00000000 		.4byte	.LFB68
 15432 0134 54000000 		.4byte	.LFE68-.LFB68
 15433 0138 00000000 		.4byte	.LFB69
 15434 013c 2E000000 		.4byte	.LFE69-.LFB69
 15435 0140 00000000 		.4byte	.LFB70
 15436 0144 22000000 		.4byte	.LFE70-.LFB70
 15437 0148 00000000 		.4byte	.LFB71
 15438 014c 2A000000 		.4byte	.LFE71-.LFB71
 15439 0150 00000000 		.4byte	.LFB72
 15440 0154 30000000 		.4byte	.LFE72-.LFB72
 15441 0158 00000000 		.4byte	.LFB73
 15442 015c 1C000000 		.4byte	.LFE73-.LFB73
 15443 0160 00000000 		.4byte	.LFB74
 15444 0164 34000000 		.4byte	.LFE74-.LFB74
 15445 0168 00000000 		.4byte	.LFB75
ARM GAS  C:\Users\tmj32\AppData\Local\Temp\ccxLNxq9.s 			page 321


 15446 016c D4000000 		.4byte	.LFE75-.LFB75
 15447 0170 00000000 		.4byte	.LFB76
 15448 0174 18000000 		.4byte	.LFE76-.LFB76
 15449 0178 00000000 		.4byte	.LFB77
 15450 017c 1C000000 		.4byte	.LFE77-.LFB77
 15451 0180 00000000 		.4byte	.LFB78
 15452 0184 2A000000 		.4byte	.LFE78-.LFB78
 15453 0188 00000000 		.4byte	.LFB79
 15454 018c 1C000000 		.4byte	.LFE79-.LFB79
 15455 0190 00000000 		.4byte	.LFB80
 15456 0194 2C000000 		.4byte	.LFE80-.LFB80
 15457 0198 00000000 		.4byte	.LFB81
 15458 019c 28000000 		.4byte	.LFE81-.LFB81
 15459 01a0 00000000 		.4byte	.LFB82
 15460 01a4 28000000 		.4byte	.LFE82-.LFB82
 15461 01a8 00000000 		.4byte	.LFB83
 15462 01ac 74000000 		.4byte	.LFE83-.LFB83
 15463 01b0 00000000 		.4byte	.LFB84
 15464 01b4 18000000 		.4byte	.LFE84-.LFB84
 15465 01b8 00000000 		.4byte	.LFB85
 15466 01bc 3A000000 		.4byte	.LFE85-.LFB85
 15467 01c0 00000000 		.4byte	.LFB86
 15468 01c4 3A000000 		.4byte	.LFE86-.LFB86
 15469 01c8 00000000 		.4byte	.LFB87
 15470 01cc 3E000000 		.4byte	.LFE87-.LFB87
 15471 01d0 00000000 		.4byte	.LFB88
 15472 01d4 4E000000 		.4byte	.LFE88-.LFB88
 15473 01d8 00000000 		.4byte	.LFB89
 15474 01dc 1E000000 		.4byte	.LFE89-.LFB89
 15475 01e0 00000000 		.4byte	.LFB90
 15476 01e4 B2000000 		.4byte	.LFE90-.LFB90
 15477 01e8 00000000 		.4byte	.LFB91
 15478 01ec 40000000 		.4byte	.LFE91-.LFB91
 15479 01f0 00000000 		.4byte	.LFB92
 15480 01f4 40000000 		.4byte	.LFE92-.LFB92
 15481 01f8 00000000 		.4byte	.LFB93
 15482 01fc 1C000000 		.4byte	.LFE93-.LFB93
 15483 0200 00000000 		.4byte	.LFB94
 15484 0204 1C000000 		.4byte	.LFE94-.LFB94
 15485 0208 00000000 		.4byte	.LFB95
 15486 020c 3C000000 		.4byte	.LFE95-.LFB95
 15487 0210 00000000 		.4byte	.LFB96
 15488 0214 3C000000 		.4byte	.LFE96-.LFB96
 15489 0218 00000000 		.4byte	.LFB97
 15490 021c 2A000000 		.4byte	.LFE97-.LFB97
 15491 0220 00000000 		.4byte	.LFB98
 15492 0224 16000000 		.4byte	.LFE98-.LFB98
 15493 0228 00000000 		.4byte	.LFB99
 15494 022c 16000000 		.4byte	.LFE99-.LFB99
 15495 0230 00000000 		.4byte	.LFB100
 15496 0234 16000000 		.4byte	.LFE100-.LFB100
 15497 0238 00000000 		.4byte	.LFB101
 15498 023c 16000000 		.4byte	.LFE101-.LFB101
 15499 0240 00000000 		.4byte	.LFB102
 15500 0244 1A000000 		.4byte	.LFE102-.LFB102
 15501 0248 00000000 		.4byte	.LFB103
 15502 024c 64000000 		.4byte	.LFE103-.LFB103
ARM GAS  C:\Users\tmj32\AppData\Local\Temp\ccxLNxq9.s 			page 322


 15503 0250 00000000 		.4byte	.LFB104
 15504 0254 2A000000 		.4byte	.LFE104-.LFB104
 15505 0258 00000000 		.4byte	.LFB105
 15506 025c 2A000000 		.4byte	.LFE105-.LFB105
 15507 0260 00000000 		.4byte	.LFB106
 15508 0264 2A000000 		.4byte	.LFE106-.LFB106
 15509 0268 00000000 		.4byte	.LFB107
 15510 026c 2A000000 		.4byte	.LFE107-.LFB107
 15511 0270 00000000 		.4byte	.LFB108
 15512 0274 20000000 		.4byte	.LFE108-.LFB108
 15513 0278 00000000 		.4byte	.LFB109
 15514 027c 2A000000 		.4byte	.LFE109-.LFB109
 15515 0280 00000000 		.4byte	.LFB110
 15516 0284 2A000000 		.4byte	.LFE110-.LFB110
 15517 0288 00000000 		.4byte	.LFB111
 15518 028c 2A000000 		.4byte	.LFE111-.LFB111
 15519 0290 00000000 		.4byte	.LFB112
 15520 0294 16000000 		.4byte	.LFE112-.LFB112
 15521 0298 00000000 		.4byte	.LFB113
 15522 029c 2A000000 		.4byte	.LFE113-.LFB113
 15523 02a0 00000000 		.4byte	.LFB114
 15524 02a4 3E000000 		.4byte	.LFE114-.LFB114
 15525 02a8 00000000 		.4byte	.LFB115
 15526 02ac 1A000000 		.4byte	.LFE115-.LFB115
 15527 02b0 00000000 		.4byte	.LFB116
 15528 02b4 2E000000 		.4byte	.LFE116-.LFB116
 15529 02b8 00000000 		.4byte	.LFB117
 15530 02bc 18000000 		.4byte	.LFE117-.LFB117
 15531 02c0 00000000 		.4byte	.LFB118
 15532 02c4 18000000 		.4byte	.LFE118-.LFB118
 15533 02c8 00000000 		.4byte	.LFB119
 15534 02cc 18000000 		.4byte	.LFE119-.LFB119
 15535 02d0 00000000 		.4byte	.LFB120
 15536 02d4 18000000 		.4byte	.LFE120-.LFB120
 15537 02d8 00000000 		.4byte	.LFB121
 15538 02dc AA000000 		.4byte	.LFE121-.LFB121
 15539 02e0 00000000 		.4byte	.LFB122
 15540 02e4 44000000 		.4byte	.LFE122-.LFB122
 15541 02e8 00000000 		.4byte	.LFB123
 15542 02ec 16000000 		.4byte	.LFE123-.LFB123
 15543 02f0 00000000 		.4byte	.LFB124
 15544 02f4 1A010000 		.4byte	.LFE124-.LFB124
 15545 02f8 00000000 		.4byte	.LFB125
 15546 02fc 84000000 		.4byte	.LFE125-.LFB125
 15547 0300 00000000 		.4byte	.LFB126
 15548 0304 9A000000 		.4byte	.LFE126-.LFB126
 15549 0308 00000000 		.4byte	.LFB127
 15550 030c 58000000 		.4byte	.LFE127-.LFB127
 15551 0310 00000000 		.4byte	.LFB128
 15552 0314 58000000 		.4byte	.LFE128-.LFB128
 15553 0318 00000000 		.4byte	.LFB129
 15554 031c CE000000 		.4byte	.LFE129-.LFB129
 15555 0320 00000000 		.4byte	.LFB130
 15556 0324 4C000000 		.4byte	.LFE130-.LFB130
 15557 0328 00000000 		.4byte	.LFB131
 15558 032c 3C000000 		.4byte	.LFE131-.LFB131
 15559 0330 00000000 		.4byte	0
ARM GAS  C:\Users\tmj32\AppData\Local\Temp\ccxLNxq9.s 			page 323


 15560 0334 00000000 		.4byte	0
 15561              		.section	.debug_ranges,"",%progbits
 15562              	.Ldebug_ranges0:
 15563 0000 52000000 		.4byte	.LBB5
 15564 0004 34010000 		.4byte	.LBE5
 15565 0008 38010000 		.4byte	.LBB6
 15566 000c 3E010000 		.4byte	.LBE6
 15567 0010 00000000 		.4byte	0
 15568 0014 00000000 		.4byte	0
 15569 0018 00000000 		.4byte	.LFB10
 15570 001c 1C000000 		.4byte	.LFE10
 15571 0020 00000000 		.4byte	.LFB11
 15572 0024 2E000000 		.4byte	.LFE11
 15573 0028 00000000 		.4byte	.LFB12
 15574 002c 2E000000 		.4byte	.LFE12
 15575 0030 00000000 		.4byte	.LFB35
 15576 0034 58000000 		.4byte	.LFE35
 15577 0038 00000000 		.4byte	.LFB36
 15578 003c 20000000 		.4byte	.LFE36
 15579 0040 00000000 		.4byte	.LFB37
 15580 0044 FC040000 		.4byte	.LFE37
 15581 0048 00000000 		.4byte	.LFB38
 15582 004c 04010000 		.4byte	.LFE38
 15583 0050 00000000 		.4byte	.LFB39
 15584 0054 1C000000 		.4byte	.LFE39
 15585 0058 00000000 		.4byte	.LFB40
 15586 005c 36000000 		.4byte	.LFE40
 15587 0060 00000000 		.4byte	.LFB41
 15588 0064 44010000 		.4byte	.LFE41
 15589 0068 00000000 		.4byte	.LFB42
 15590 006c 74000000 		.4byte	.LFE42
 15591 0070 00000000 		.4byte	.LFB43
 15592 0074 8C000000 		.4byte	.LFE43
 15593 0078 00000000 		.4byte	.LFB44
 15594 007c 54000000 		.4byte	.LFE44
 15595 0080 00000000 		.4byte	.LFB45
 15596 0084 54000000 		.4byte	.LFE45
 15597 0088 00000000 		.4byte	.LFB46
 15598 008c 16010000 		.4byte	.LFE46
 15599 0090 00000000 		.4byte	.LFB47
 15600 0094 2A000000 		.4byte	.LFE47
 15601 0098 00000000 		.4byte	.LFB48
 15602 009c 2A000000 		.4byte	.LFE48
 15603 00a0 00000000 		.4byte	.LFB49
 15604 00a4 18010000 		.4byte	.LFE49
 15605 00a8 00000000 		.4byte	.LFB50
 15606 00ac 2A000000 		.4byte	.LFE50
 15607 00b0 00000000 		.4byte	.LFB51
 15608 00b4 2A000000 		.4byte	.LFE51
 15609 00b8 00000000 		.4byte	.LFB52
 15610 00bc C6040000 		.4byte	.LFE52
 15611 00c0 00000000 		.4byte	.LFB53
 15612 00c4 1E040000 		.4byte	.LFE53
 15613 00c8 00000000 		.4byte	.LFB54
 15614 00cc 62000000 		.4byte	.LFE54
 15615 00d0 00000000 		.4byte	.LFB55
 15616 00d4 2E000000 		.4byte	.LFE55
ARM GAS  C:\Users\tmj32\AppData\Local\Temp\ccxLNxq9.s 			page 324


 15617 00d8 00000000 		.4byte	.LFB56
 15618 00dc 26000000 		.4byte	.LFE56
 15619 00e0 00000000 		.4byte	.LFB57
 15620 00e4 24000000 		.4byte	.LFE57
 15621 00e8 00000000 		.4byte	.LFB58
 15622 00ec 28000000 		.4byte	.LFE58
 15623 00f0 00000000 		.4byte	.LFB59
 15624 00f4 68000000 		.4byte	.LFE59
 15625 00f8 00000000 		.4byte	.LFB60
 15626 00fc 74000000 		.4byte	.LFE60
 15627 0100 00000000 		.4byte	.LFB61
 15628 0104 2E000000 		.4byte	.LFE61
 15629 0108 00000000 		.4byte	.LFB62
 15630 010c 2E000000 		.4byte	.LFE62
 15631 0110 00000000 		.4byte	.LFB63
 15632 0114 38000000 		.4byte	.LFE63
 15633 0118 00000000 		.4byte	.LFB64
 15634 011c 42000000 		.4byte	.LFE64
 15635 0120 00000000 		.4byte	.LFB65
 15636 0124 2E000000 		.4byte	.LFE65
 15637 0128 00000000 		.4byte	.LFB66
 15638 012c 2E000000 		.4byte	.LFE66
 15639 0130 00000000 		.4byte	.LFB67
 15640 0134 2E000000 		.4byte	.LFE67
 15641 0138 00000000 		.4byte	.LFB68
 15642 013c 54000000 		.4byte	.LFE68
 15643 0140 00000000 		.4byte	.LFB69
 15644 0144 2E000000 		.4byte	.LFE69
 15645 0148 00000000 		.4byte	.LFB70
 15646 014c 22000000 		.4byte	.LFE70
 15647 0150 00000000 		.4byte	.LFB71
 15648 0154 2A000000 		.4byte	.LFE71
 15649 0158 00000000 		.4byte	.LFB72
 15650 015c 30000000 		.4byte	.LFE72
 15651 0160 00000000 		.4byte	.LFB73
 15652 0164 1C000000 		.4byte	.LFE73
 15653 0168 00000000 		.4byte	.LFB74
 15654 016c 34000000 		.4byte	.LFE74
 15655 0170 00000000 		.4byte	.LFB75
 15656 0174 D4000000 		.4byte	.LFE75
 15657 0178 00000000 		.4byte	.LFB76
 15658 017c 18000000 		.4byte	.LFE76
 15659 0180 00000000 		.4byte	.LFB77
 15660 0184 1C000000 		.4byte	.LFE77
 15661 0188 00000000 		.4byte	.LFB78
 15662 018c 2A000000 		.4byte	.LFE78
 15663 0190 00000000 		.4byte	.LFB79
 15664 0194 1C000000 		.4byte	.LFE79
 15665 0198 00000000 		.4byte	.LFB80
 15666 019c 2C000000 		.4byte	.LFE80
 15667 01a0 00000000 		.4byte	.LFB81
 15668 01a4 28000000 		.4byte	.LFE81
 15669 01a8 00000000 		.4byte	.LFB82
 15670 01ac 28000000 		.4byte	.LFE82
 15671 01b0 00000000 		.4byte	.LFB83
 15672 01b4 74000000 		.4byte	.LFE83
 15673 01b8 00000000 		.4byte	.LFB84
ARM GAS  C:\Users\tmj32\AppData\Local\Temp\ccxLNxq9.s 			page 325


 15674 01bc 18000000 		.4byte	.LFE84
 15675 01c0 00000000 		.4byte	.LFB85
 15676 01c4 3A000000 		.4byte	.LFE85
 15677 01c8 00000000 		.4byte	.LFB86
 15678 01cc 3A000000 		.4byte	.LFE86
 15679 01d0 00000000 		.4byte	.LFB87
 15680 01d4 3E000000 		.4byte	.LFE87
 15681 01d8 00000000 		.4byte	.LFB88
 15682 01dc 4E000000 		.4byte	.LFE88
 15683 01e0 00000000 		.4byte	.LFB89
 15684 01e4 1E000000 		.4byte	.LFE89
 15685 01e8 00000000 		.4byte	.LFB90
 15686 01ec B2000000 		.4byte	.LFE90
 15687 01f0 00000000 		.4byte	.LFB91
 15688 01f4 40000000 		.4byte	.LFE91
 15689 01f8 00000000 		.4byte	.LFB92
 15690 01fc 40000000 		.4byte	.LFE92
 15691 0200 00000000 		.4byte	.LFB93
 15692 0204 1C000000 		.4byte	.LFE93
 15693 0208 00000000 		.4byte	.LFB94
 15694 020c 1C000000 		.4byte	.LFE94
 15695 0210 00000000 		.4byte	.LFB95
 15696 0214 3C000000 		.4byte	.LFE95
 15697 0218 00000000 		.4byte	.LFB96
 15698 021c 3C000000 		.4byte	.LFE96
 15699 0220 00000000 		.4byte	.LFB97
 15700 0224 2A000000 		.4byte	.LFE97
 15701 0228 00000000 		.4byte	.LFB98
 15702 022c 16000000 		.4byte	.LFE98
 15703 0230 00000000 		.4byte	.LFB99
 15704 0234 16000000 		.4byte	.LFE99
 15705 0238 00000000 		.4byte	.LFB100
 15706 023c 16000000 		.4byte	.LFE100
 15707 0240 00000000 		.4byte	.LFB101
 15708 0244 16000000 		.4byte	.LFE101
 15709 0248 00000000 		.4byte	.LFB102
 15710 024c 1A000000 		.4byte	.LFE102
 15711 0250 00000000 		.4byte	.LFB103
 15712 0254 64000000 		.4byte	.LFE103
 15713 0258 00000000 		.4byte	.LFB104
 15714 025c 2A000000 		.4byte	.LFE104
 15715 0260 00000000 		.4byte	.LFB105
 15716 0264 2A000000 		.4byte	.LFE105
 15717 0268 00000000 		.4byte	.LFB106
 15718 026c 2A000000 		.4byte	.LFE106
 15719 0270 00000000 		.4byte	.LFB107
 15720 0274 2A000000 		.4byte	.LFE107
 15721 0278 00000000 		.4byte	.LFB108
 15722 027c 20000000 		.4byte	.LFE108
 15723 0280 00000000 		.4byte	.LFB109
 15724 0284 2A000000 		.4byte	.LFE109
 15725 0288 00000000 		.4byte	.LFB110
 15726 028c 2A000000 		.4byte	.LFE110
 15727 0290 00000000 		.4byte	.LFB111
 15728 0294 2A000000 		.4byte	.LFE111
 15729 0298 00000000 		.4byte	.LFB112
 15730 029c 16000000 		.4byte	.LFE112
ARM GAS  C:\Users\tmj32\AppData\Local\Temp\ccxLNxq9.s 			page 326


 15731 02a0 00000000 		.4byte	.LFB113
 15732 02a4 2A000000 		.4byte	.LFE113
 15733 02a8 00000000 		.4byte	.LFB114
 15734 02ac 3E000000 		.4byte	.LFE114
 15735 02b0 00000000 		.4byte	.LFB115
 15736 02b4 1A000000 		.4byte	.LFE115
 15737 02b8 00000000 		.4byte	.LFB116
 15738 02bc 2E000000 		.4byte	.LFE116
 15739 02c0 00000000 		.4byte	.LFB117
 15740 02c4 18000000 		.4byte	.LFE117
 15741 02c8 00000000 		.4byte	.LFB118
 15742 02cc 18000000 		.4byte	.LFE118
 15743 02d0 00000000 		.4byte	.LFB119
 15744 02d4 18000000 		.4byte	.LFE119
 15745 02d8 00000000 		.4byte	.LFB120
 15746 02dc 18000000 		.4byte	.LFE120
 15747 02e0 00000000 		.4byte	.LFB121
 15748 02e4 AA000000 		.4byte	.LFE121
 15749 02e8 00000000 		.4byte	.LFB122
 15750 02ec 44000000 		.4byte	.LFE122
 15751 02f0 00000000 		.4byte	.LFB123
 15752 02f4 16000000 		.4byte	.LFE123
 15753 02f8 00000000 		.4byte	.LFB124
 15754 02fc 1A010000 		.4byte	.LFE124
 15755 0300 00000000 		.4byte	.LFB125
 15756 0304 84000000 		.4byte	.LFE125
 15757 0308 00000000 		.4byte	.LFB126
 15758 030c 9A000000 		.4byte	.LFE126
 15759 0310 00000000 		.4byte	.LFB127
 15760 0314 58000000 		.4byte	.LFE127
 15761 0318 00000000 		.4byte	.LFB128
 15762 031c 58000000 		.4byte	.LFE128
 15763 0320 00000000 		.4byte	.LFB129
 15764 0324 CE000000 		.4byte	.LFE129
 15765 0328 00000000 		.4byte	.LFB130
 15766 032c 4C000000 		.4byte	.LFE130
 15767 0330 00000000 		.4byte	.LFB131
 15768 0334 3C000000 		.4byte	.LFE131
 15769 0338 00000000 		.4byte	0
 15770 033c 00000000 		.4byte	0
 15771              		.section	.debug_line,"",%progbits
 15772              	.Ldebug_line0:
 15773 0000 00100000 		.section	.debug_str,"MS",%progbits,1
 15773      02006003 
 15773      00000201 
 15773      FB0E0D00 
 15773      01010101 
 15774              	.LASF14:
 15775 0000 696E7438 		.ascii	"int8_t\000"
 15775      5F7400
 15776              	.LASF134:
 15777 0007 636F6C6F 		.ascii	"color_chroma_key\000"
 15777      725F6368 
 15777      726F6D61 
 15777      5F6B6579 
 15777      00
 15778              	.LASF96:
ARM GAS  C:\Users\tmj32\AppData\Local\Temp\ccxLNxq9.s 			page 327


 15779 0018 6C765F6C 		.ascii	"lv_ll_node_t\000"
 15779      6C5F6E6F 
 15779      64655F74 
 15779      00
 15780              	.LASF21:
 15781 0025 6164765F 		.ascii	"adv_w\000"
 15781      7700
 15782              	.LASF318:
 15783 002b 68656164 		.ascii	"header_pr\000"
 15783      65725F70 
 15783      7200
 15784              	.LASF53:
 15785 0035 73697A65 		.ascii	"sizetype\000"
 15785      74797065 
 15785      00
 15786              	.LASF169:
 15787 003e 6C765F64 		.ascii	"lv_disp_t\000"
 15787      6973705F 
 15787      7400
 15788              	.LASF369:
 15789 0048 6368696C 		.ascii	"child\000"
 15789      6400
 15790              	.LASF50:
 15791 004e 6C765F63 		.ascii	"lv_color32_t\000"
 15791      6F6C6F72 
 15791      33325F74 
 15791      00
 15792              	.LASF326:
 15793 005b 63656C6C 		.ascii	"cell\000"
 15793      00
 15794              	.LASF476:
 15795 0060 6C765F6F 		.ascii	"lv_obj_get_opa_scale_enable\000"
 15795      626A5F67 
 15795      65745F6F 
 15795      70615F73 
 15795      63616C65 
 15796              	.LASF106:
 15797 007c 4C565F42 		.ascii	"LV_BIDI_DIR_WEAK\000"
 15797      4944495F 
 15797      4449525F 
 15797      5745414B 
 15797      00
 15798              	.LASF484:
 15799 008d 6C765F6F 		.ascii	"lv_obj_get_type\000"
 15799      626A5F67 
 15799      65745F74 
 15799      79706500 
 15800              	.LASF99:
 15801 009d 7461696C 		.ascii	"tail\000"
 15801      00
 15802              	.LASF301:
 15803 00a2 4C565F50 		.ascii	"LV_PROTECT_POS\000"
 15803      524F5445 
 15803      43545F50 
 15803      4F5300
 15804              	.LASF246:
 15805 00b1 4C565F53 		.ascii	"LV_SIGNAL_STYLE_CHG\000"
ARM GAS  C:\Users\tmj32\AppData\Local\Temp\ccxLNxq9.s 			page 328


 15805      49474E41 
 15805      4C5F5354 
 15805      594C455F 
 15805      43484700 
 15806              	.LASF140:
 15807 00c5 6163745F 		.ascii	"act_scr\000"
 15807      73637200 
 15808              	.LASF52:
 15809 00cd 6C765F6F 		.ascii	"lv_opa_t\000"
 15809      70615F74 
 15809      00
 15810              	.LASF358:
 15811 00d6 6C765F69 		.ascii	"lv_init\000"
 15811      6E697400 
 15812              	.LASF84:
 15813 00de 696E7465 		.ascii	"intense\000"
 15813      6E736500 
 15814              	.LASF470:
 15815 00e6 6C765F6F 		.ascii	"lv_obj_get_drag\000"
 15815      626A5F67 
 15815      65745F64 
 15815      72616700 
 15816              	.LASF235:
 15817 00f6 4C565F45 		.ascii	"LV_EVENT_INSERT\000"
 15817      56454E54 
 15817      5F494E53 
 15817      45525400 
 15818              	.LASF512:
 15819 0106 2E2E5C2E 		.ascii	"..\\..\\..\\lvgl\\version_6.1.2\\lvgl\\src\\lv_core"
 15819      2E5C2E2E 
 15819      5C6C7667 
 15819      6C5C7665 
 15819      7273696F 
 15820 0132 5C6C765F 		.ascii	"\\lv_obj.c\000"
 15820      6F626A2E 
 15820      6300
 15821              	.LASF333:
 15822 013c 6C6D6574 		.ascii	"lmeter\000"
 15822      657200
 15823              	.LASF437:
 15824 0143 6C765F6F 		.ascii	"lv_obj_refresh_ext_draw_pad\000"
 15824      626A5F72 
 15824      65667265 
 15824      73685F65 
 15824      78745F64 
 15825              	.LASF254:
 15826 015f 4C565F53 		.ascii	"LV_SIGNAL_LONG_PRESS\000"
 15826      49474E41 
 15826      4C5F4C4F 
 15826      4E475F50 
 15826      52455353 
 15827              	.LASF76:
 15828 0174 72616469 		.ascii	"radius\000"
 15828      757300
 15829              	.LASF292:
 15830 017b 6C765F72 		.ascii	"lv_reailgn_t\000"
 15830      6561696C 
ARM GAS  C:\Users\tmj32\AppData\Local\Temp\ccxLNxq9.s 			page 329


 15830      676E5F74 
 15830      00
 15831              	.LASF29:
 15832 0188 6C696E65 		.ascii	"line_height\000"
 15832      5F686569 
 15832      67687400 
 15833              	.LASF155:
 15834 0194 636C6963 		.ascii	"click\000"
 15834      6B00
 15835              	.LASF101:
 15836 019a 4C565F42 		.ascii	"LV_BIDI_DIR_LTR\000"
 15836      4944495F 
 15836      4449525F 
 15836      4C545200 
 15837              	.LASF285:
 15838 01aa 6C765F61 		.ascii	"lv_align_t\000"
 15838      6C69676E 
 15838      5F7400
 15839              	.LASF382:
 15840 01b5 6C765F6F 		.ascii	"lv_obj_move_background\000"
 15840      626A5F6D 
 15840      6F76655F 
 15840      6261636B 
 15840      67726F75 
 15841              	.LASF256:
 15842 01cc 4C565F53 		.ascii	"LV_SIGNAL_DRAG_BEGIN\000"
 15842      49474E41 
 15842      4C5F4452 
 15842      41475F42 
 15842      4547494E 
 15843              	.LASF320:
 15844 01e1 68696768 		.ascii	"highlighted_days\000"
 15844      6C696768 
 15844      7465645F 
 15844      64617973 
 15844      00
 15845              	.LASF431:
 15846 01f2 6C765F6F 		.ascii	"lv_obj_set_signal_cb\000"
 15846      626A5F73 
 15846      65745F73 
 15846      69676E61 
 15846      6C5F6362 
 15847              	.LASF376:
 15848 0207 61726561 		.ascii	"area_trunc\000"
 15848      5F747275 
 15848      6E6300
 15849              	.LASF494:
 15850 0212 7369676E 		.ascii	"sign\000"
 15850      00
 15851              	.LASF240:
 15852 0217 6C765F65 		.ascii	"lv_event_t\000"
 15852      76656E74 
 15852      5F7400
 15853              	.LASF175:
 15854 0222 73746174 		.ascii	"state\000"
 15854      6500
 15855              	.LASF399:
ARM GAS  C:\Users\tmj32\AppData\Local\Temp\ccxLNxq9.s 			page 330


 15856 0228 6C765F6F 		.ascii	"lv_obj_align_origo\000"
 15856      626A5F61 
 15856      6C69676E 
 15856      5F6F7269 
 15856      676F00
 15857              	.LASF479:
 15858 023b 6C765F6F 		.ascii	"lv_obj_is_protected\000"
 15858      626A5F69 
 15858      735F7072 
 15858      6F746563 
 15858      74656400 
 15859              	.LASF93:
 15860 024f 4C565F52 		.ascii	"LV_RES_INV\000"
 15860      45535F49 
 15860      4E5600
 15861              	.LASF283:
 15862 025a 4C565F41 		.ascii	"LV_ALIGN_OUT_RIGHT_MID\000"
 15862      4C49474E 
 15862      5F4F5554 
 15862      5F524947 
 15862      48545F4D 
 15863              	.LASF250:
 15864 0271 4C565F53 		.ascii	"LV_SIGNAL_PRESSED\000"
 15864      49474E41 
 15864      4C5F5052 
 15864      45535345 
 15864      4400
 15865              	.LASF455:
 15866 0283 6C765F6F 		.ascii	"lv_obj_get_width\000"
 15866      626A5F67 
 15866      65745F77 
 15866      69647468 
 15866      00
 15867              	.LASF69:
 15868 0294 74797065 		.ascii	"type\000"
 15868      00
 15869              	.LASF412:
 15870 0299 6C765F6F 		.ascii	"lv_obj_set_drag_dir\000"
 15870      626A5F73 
 15870      65745F64 
 15870      7261675F 
 15870      64697200 
 15871              	.LASF224:
 15872 02ad 4C565F45 		.ascii	"LV_EVENT_LONG_PRESSED\000"
 15872      56454E54 
 15872      5F4C4F4E 
 15872      475F5052 
 15872      45535345 
 15873              	.LASF439:
 15874 02c3 6163745F 		.ascii	"act_p\000"
 15874      7000
 15875              	.LASF413:
 15876 02c9 6C765F6F 		.ascii	"lv_obj_set_drag_throw\000"
 15876      626A5F73 
 15876      65745F64 
 15876      7261675F 
 15876      7468726F 
ARM GAS  C:\Users\tmj32\AppData\Local\Temp\ccxLNxq9.s 			page 331


 15877              	.LASF310:
 15878 02df 6C696768 		.ascii	"light\000"
 15878      7400
 15879              	.LASF177:
 15880 02e5 5F6C765F 		.ascii	"_lv_indev_drv_t\000"
 15880      696E6465 
 15880      765F6472 
 15880      765F7400 
 15881              	.LASF329:
 15882 02f5 636F6E74 		.ascii	"cont\000"
 15882      00
 15883              	.LASF308:
 15884 02fa 7072696D 		.ascii	"prim\000"
 15884      00
 15885              	.LASF115:
 15886 02ff 7072696F 		.ascii	"prio\000"
 15886      00
 15887              	.LASF139:
 15888 0304 7363725F 		.ascii	"scr_ll\000"
 15888      6C6C00
 15889              	.LASF172:
 15890 030b 706F696E 		.ascii	"point\000"
 15890      7400
 15891              	.LASF223:
 15892 0311 4C565F45 		.ascii	"LV_EVENT_SHORT_CLICKED\000"
 15892      56454E54 
 15892      5F53484F 
 15892      52545F43 
 15892      4C49434B 
 15893              	.LASF430:
 15894 0328 696E6465 		.ascii	"indev_act\000"
 15894      765F6163 
 15894      7400
 15895              	.LASF1:
 15896 0332 5F5F7569 		.ascii	"__uint8_t\000"
 15896      6E74385F 
 15896      7400
 15897              	.LASF48:
 15898 033c 616C7068 		.ascii	"alpha\000"
 15898      6100
 15899              	.LASF127:
 15900 0342 7665725F 		.ascii	"ver_res\000"
 15900      72657300 
 15901              	.LASF378:
 15902 034a 6C765F6F 		.ascii	"lv_obj_set_parent\000"
 15902      626A5F73 
 15902      65745F70 
 15902      6172656E 
 15902      7400
 15903              	.LASF384:
 15904 035c 64696666 		.ascii	"diff\000"
 15904      00
 15905              	.LASF209:
 15906 0361 5F6C765F 		.ascii	"_lv_indev_t\000"
 15906      696E6465 
 15906      765F7400 
 15907              	.LASF423:
ARM GAS  C:\Users\tmj32\AppData\Local\Temp\ccxLNxq9.s 			page 332


 15908 036d 6C765F65 		.ascii	"lv_event_send\000"
 15908      76656E74 
 15908      5F73656E 
 15908      6400
 15909              	.LASF293:
 15910 037b 4C565F44 		.ascii	"LV_DRAG_DIR_HOR\000"
 15910      5241475F 
 15910      4449525F 
 15910      484F5200 
 15911              	.LASF159:
 15912 038b 68696464 		.ascii	"hidden\000"
 15912      656E00
 15913              	.LASF499:
 15914 0392 72656672 		.ascii	"refresh_children_style\000"
 15914      6573685F 
 15914      6368696C 
 15914      6472656E 
 15914      5F737479 
 15915              	.LASF146:
 15916 03a9 6C617374 		.ascii	"last_activity_time\000"
 15916      5F616374 
 15916      69766974 
 15916      795F7469 
 15916      6D6500
 15917              	.LASF8:
 15918 03bc 6C6F6E67 		.ascii	"long int\000"
 15918      20696E74 
 15918      00
 15919              	.LASF138:
 15920 03c5 72656672 		.ascii	"refr_task\000"
 15920      5F746173 
 15920      6B00
 15921              	.LASF59:
 15922 03cf 4C565F42 		.ascii	"LV_BORDER_TOP\000"
 15922      4F524445 
 15922      525F544F 
 15922      5000
 15923              	.LASF129:
 15924 03dd 726F7461 		.ascii	"rotated\000"
 15924      74656400 
 15925              	.LASF468:
 15926 03e5 6C765F6F 		.ascii	"lv_obj_get_click\000"
 15926      626A5F67 
 15926      65745F63 
 15926      6C69636B 
 15926      00
 15927              	.LASF196:
 15928 03f6 6C617374 		.ascii	"last_state\000"
 15928      5F737461 
 15928      746500
 15929              	.LASF346:
 15930 0401 74696C65 		.ascii	"tileview\000"
 15930      76696577 
 15930      00
 15931              	.LASF418:
 15932 040a 6C765F6F 		.ascii	"lv_obj_set_opa_scale\000"
 15932      626A5F73 
ARM GAS  C:\Users\tmj32\AppData\Local\Temp\ccxLNxq9.s 			page 333


 15932      65745F6F 
 15932      70615F73 
 15932      63616C65 
 15933              	.LASF269:
 15934 041f 4C565F41 		.ascii	"LV_ALIGN_IN_BOTTOM_MID\000"
 15934      4C49474E 
 15934      5F494E5F 
 15934      424F5454 
 15934      4F4D5F4D 
 15935              	.LASF361:
 15936 0436 636F7079 		.ascii	"copy\000"
 15936      00
 15937              	.LASF355:
 15938 043b 61726561 		.ascii	"area_p\000"
 15938      5F7000
 15939              	.LASF509:
 15940 0442 5F6C765F 		.ascii	"_lv_disp_ll\000"
 15940      64697370 
 15940      5F6C6C00 
 15941              	.LASF411:
 15942 044e 6C765F6F 		.ascii	"lv_obj_set_drag\000"
 15942      626A5F73 
 15942      65745F64 
 15942      72616700 
 15943              	.LASF438:
 15944 045e 6C765F6F 		.ascii	"lv_obj_get_screen\000"
 15944      626A5F67 
 15944      65745F73 
 15944      63726565 
 15944      6E00
 15945              	.LASF493:
 15946 0470 6C765F6F 		.ascii	"lv_obj_signal\000"
 15946      626A5F73 
 15946      69676E61 
 15946      6C00
 15947              	.LASF98:
 15948 047e 68656164 		.ascii	"head\000"
 15948      00
 15949              	.LASF178:
 15950 0483 72656164 		.ascii	"read_cb\000"
 15950      5F636200 
 15951              	.LASF336:
 15952 048b 63686172 		.ascii	"chart\000"
 15952      7400
 15953              	.LASF371:
 15954 0491 6C765F6F 		.ascii	"lv_obj_invalidate_area\000"
 15954      626A5F69 
 15954      6E76616C 
 15954      69646174 
 15954      655F6172 
 15955              	.LASF452:
 15956 04a8 72656C5F 		.ascii	"rel_x\000"
 15956      7800
 15957              	.LASF454:
 15958 04ae 72656C5F 		.ascii	"rel_y\000"
 15958      7900
 15959              	.LASF193:
ARM GAS  C:\Users\tmj32\AppData\Local\Temp\ccxLNxq9.s 			page 334


 15960 04b4 6C617374 		.ascii	"last_pressed\000"
 15960      5F707265 
 15960      73736564 
 15960      00
 15961              	.LASF506:
 15962 04c1 6C765F73 		.ascii	"lv_style_scr\000"
 15962      74796C65 
 15962      5F736372 
 15962      00
 15963              	.LASF365:
 15964 04ce 695F6E65 		.ascii	"i_next\000"
 15964      787400
 15965              	.LASF402:
 15966 04d5 6C765F6F 		.ascii	"lv_obj_realign\000"
 15966      626A5F72 
 15966      65616C69 
 15966      676E00
 15967              	.LASF338:
 15968 04e4 62746E6D 		.ascii	"btnm\000"
 15968      00
 15969              	.LASF367:
 15970 04e9 6C765F6F 		.ascii	"lv_obj_del_async\000"
 15970      626A5F64 
 15970      656C5F61 
 15970      73796E63 
 15970      00
 15971              	.LASF496:
 15972 04fa 785F6469 		.ascii	"x_diff\000"
 15972      666600
 15973              	.LASF421:
 15974 0501 6C765F6F 		.ascii	"lv_obj_clear_protect\000"
 15974      626A5F63 
 15974      6C656172 
 15974      5F70726F 
 15974      74656374 
 15975              	.LASF132:
 15976 0516 7365745F 		.ascii	"set_px_cb\000"
 15976      70785F63 
 15976      6200
 15977              	.LASF2:
 15978 0520 7369676E 		.ascii	"signed char\000"
 15978      65642063 
 15978      68617200 
 15979              	.LASF15:
 15980 052c 75696E74 		.ascii	"uint8_t\000"
 15980      385F7400 
 15981              	.LASF126:
 15982 0534 686F725F 		.ascii	"hor_res\000"
 15982      72657300 
 15983              	.LASF323:
 15984 053c 746F6461 		.ascii	"today_box\000"
 15984      795F626F 
 15984      7800
 15985              	.LASF410:
 15986 0546 6C765F6F 		.ascii	"lv_obj_set_top\000"
 15986      626A5F73 
 15986      65745F74 
ARM GAS  C:\Users\tmj32\AppData\Local\Temp\ccxLNxq9.s 			page 335


 15986      6F7000
 15987              	.LASF307:
 15988 0555 74676C5F 		.ascii	"tgl_pr\000"
 15988      707200
 15989              	.LASF28:
 15990 055c 6765745F 		.ascii	"get_glyph_bitmap\000"
 15990      676C7970 
 15990      685F6269 
 15990      746D6170 
 15990      00
 15991              	.LASF324:
 15992 056d 7363726C 		.ascii	"scrl\000"
 15992      00
 15993              	.LASF46:
 15994 0572 626C7565 		.ascii	"blue\000"
 15994      00
 15995              	.LASF255:
 15996 0577 4C565F53 		.ascii	"LV_SIGNAL_LONG_PRESS_REP\000"
 15996      49474E41 
 15996      4C5F4C4F 
 15996      4E475F50 
 15996      52455353 
 15997              	.LASF3:
 15998 0590 756E7369 		.ascii	"unsigned char\000"
 15998      676E6564 
 15998      20636861 
 15998      7200
 15999              	.LASF141:
 16000 059e 746F705F 		.ascii	"top_layer\000"
 16000      6C617965 
 16000      7200
 16001              	.LASF400:
 16002 05a8 6F626A5F 		.ascii	"obj_w_half\000"
 16002      775F6861 
 16002      6C6600
 16003              	.LASF248:
 16004 05b3 4C565F53 		.ascii	"LV_SIGNAL_REFR_EXT_DRAW_PAD\000"
 16004      49474E41 
 16004      4C5F5245 
 16004      46525F45 
 16004      58545F44 
 16005              	.LASF162:
 16006 05cf 64726167 		.ascii	"drag_dir\000"
 16006      5F646972 
 16006      00
 16007              	.LASF510:
 16008 05d8 5F6C765F 		.ascii	"_lv_indev_ll\000"
 16008      696E6465 
 16008      765F6C6C 
 16008      00
 16009              	.LASF444:
 16010 05e5 6C765F6F 		.ascii	"lv_obj_get_child_back\000"
 16010      626A5F67 
 16010      65745F63 
 16010      68696C64 
 16010      5F626163 
 16011              	.LASF300:
ARM GAS  C:\Users\tmj32\AppData\Local\Temp\ccxLNxq9.s 			page 336


 16012 05fb 4C565F50 		.ascii	"LV_PROTECT_PARENT\000"
 16012      524F5445 
 16012      43545F50 
 16012      4152454E 
 16012      5400
 16013              	.LASF443:
 16014 060d 72657375 		.ascii	"result\000"
 16014      6C7400
 16015              	.LASF113:
 16016 0614 7461736B 		.ascii	"task_cb\000"
 16016      5F636200 
 16017              	.LASF316:
 16018 061c 6B6E6F62 		.ascii	"knob_on\000"
 16018      5F6F6E00 
 16019              	.LASF426:
 16020 0624 6C765F65 		.ascii	"lv_event_send_func\000"
 16020      76656E74 
 16020      5F73656E 
 16020      645F6675 
 16020      6E6300
 16021              	.LASF24:
 16022 0637 6F66735F 		.ascii	"ofs_x\000"
 16022      7800
 16023              	.LASF25:
 16024 063d 6F66735F 		.ascii	"ofs_y\000"
 16024      7900
 16025              	.LASF317:
 16026 0643 68656164 		.ascii	"header\000"
 16026      657200
 16027              	.LASF488:
 16028 064a 6C765F6F 		.ascii	"lv_obj_del_async_cb\000"
 16028      626A5F64 
 16028      656C5F61 
 16028      73796E63 
 16028      5F636200 
 16029              	.LASF436:
 16030 065e 6C765F6F 		.ascii	"lv_obj_allocate_ext_attr\000"
 16030      626A5F61 
 16030      6C6C6F63 
 16030      6174655F 
 16030      6578745F 
 16031              	.LASF31:
 16032 0677 5F426F6F 		.ascii	"_Bool\000"
 16032      6C00
 16033              	.LASF263:
 16034 067d 6C765F73 		.ascii	"lv_signal_cb_t\000"
 16034      69676E61 
 16034      6C5F6362 
 16034      5F7400
 16035              	.LASF347:
 16036 068c 7461626C 		.ascii	"table\000"
 16036      6500
 16037              	.LASF417:
 16038 0692 6C765F6F 		.ascii	"lv_obj_set_opa_scale_enable\000"
 16038      626A5F73 
 16038      65745F6F 
 16038      70615F73 
ARM GAS  C:\Users\tmj32\AppData\Local\Temp\ccxLNxq9.s 			page 337


 16038      63616C65 
 16039              	.LASF144:
 16040 06ae 696E765F 		.ascii	"inv_area_joined\000"
 16040      61726561 
 16040      5F6A6F69 
 16040      6E656400 
 16041              	.LASF351:
 16042 06be 64656C65 		.ascii	"deleted\000"
 16042      74656400 
 16043              	.LASF54:
 16044 06c6 63686172 		.ascii	"char\000"
 16044      00
 16045              	.LASF173:
 16046 06cb 62746E5F 		.ascii	"btn_id\000"
 16046      696400
 16047              	.LASF487:
 16048 06d2 6C765F61 		.ascii	"lv_area_copy\000"
 16048      7265615F 
 16048      636F7079 
 16048      00
 16049              	.LASF389:
 16050 06df 6C765F6F 		.ascii	"lv_obj_set_height\000"
 16050      626A5F73 
 16050      65745F68 
 16050      65696768 
 16050      7400
 16051              	.LASF216:
 16052 06f1 4C565F44 		.ascii	"LV_DESIGN_DRAW_POST\000"
 16052      45534947 
 16052      4E5F4452 
 16052      41575F50 
 16052      4F535400 
 16053              	.LASF88:
 16054 0705 626F6479 		.ascii	"body\000"
 16054      00
 16055              	.LASF190:
 16056 070a 64726167 		.ascii	"drag_throw_vect\000"
 16056      5F746872 
 16056      6F775F76 
 16056      65637400 
 16057              	.LASF429:
 16058 071a 6576656E 		.ascii	"event_act_data_save\000"
 16058      745F6163 
 16058      745F6461 
 16058      74615F73 
 16058      61766500 
 16059              	.LASF486:
 16060 072e 6E616D65 		.ascii	"name\000"
 16060      00
 16061              	.LASF390:
 16062 0733 6C765F6F 		.ascii	"lv_obj_align\000"
 16062      626A5F61 
 16062      6C69676E 
 16062      00
 16063              	.LASF395:
 16064 0740 62617365 		.ascii	"base_abs_x\000"
 16064      5F616273 
ARM GAS  C:\Users\tmj32\AppData\Local\Temp\ccxLNxq9.s 			page 338


 16064      5F7800
 16065              	.LASF110:
 16066 074b 5F6C765F 		.ascii	"_lv_task_t\000"
 16066      7461736B 
 16066      5F7400
 16067              	.LASF6:
 16068 0756 5F5F7569 		.ascii	"__uint16_t\000"
 16068      6E743136 
 16068      5F7400
 16069              	.LASF322:
 16070 0761 7765656B 		.ascii	"week_box\000"
 16070      5F626F78 
 16070      00
 16071              	.LASF433:
 16072 076a 7369676E 		.ascii	"signal\000"
 16072      616C00
 16073              	.LASF469:
 16074 0771 6C765F6F 		.ascii	"lv_obj_get_top\000"
 16074      626A5F67 
 16074      65745F74 
 16074      6F7000
 16075              	.LASF280:
 16076 0780 4C565F41 		.ascii	"LV_ALIGN_OUT_LEFT_MID\000"
 16076      4C49474E 
 16076      5F4F5554 
 16076      5F4C4546 
 16076      545F4D49 
 16077              	.LASF217:
 16078 0796 4C565F44 		.ascii	"LV_DESIGN_COVER_CHK\000"
 16078      45534947 
 16078      4E5F434F 
 16078      5645525F 
 16078      43484B00 
 16079              	.LASF210:
 16080 07aa 70726F63 		.ascii	"proc\000"
 16080      00
 16081              	.LASF363:
 16082 07af 6C765F6F 		.ascii	"lv_obj_create\000"
 16082      626A5F63 
 16082      72656174 
 16082      6500
 16083              	.LASF501:
 16084 07bd 62617365 		.ascii	"base_dir_refr_children\000"
 16084      5F646972 
 16084      5F726566 
 16084      725F6368 
 16084      696C6472 
 16085              	.LASF152:
 16086 07d4 64657369 		.ascii	"design_cb\000"
 16086      676E5F63 
 16086      6200
 16087              	.LASF420:
 16088 07de 70726F74 		.ascii	"prot\000"
 16088      00
 16089              	.LASF241:
 16090 07e3 6C765F65 		.ascii	"lv_event_cb_t\000"
 16090      76656E74 
ARM GAS  C:\Users\tmj32\AppData\Local\Temp\ccxLNxq9.s 			page 339


 16090      5F63625F 
 16090      7400
 16091              	.LASF123:
 16092 07f1 666C7573 		.ascii	"flushing\000"
 16092      68696E67 
 16092      00
 16093              	.LASF259:
 16094 07fa 4C565F53 		.ascii	"LV_SIGNAL_DEFOCUS\000"
 16094      49474E41 
 16094      4C5F4445 
 16094      464F4355 
 16094      5300
 16095              	.LASF498:
 16096 080c 7265706F 		.ascii	"report_style_mod_core\000"
 16096      72745F73 
 16096      74796C65 
 16096      5F6D6F64 
 16096      5F636F72 
 16097              	.LASF232:
 16098 0822 4C565F45 		.ascii	"LV_EVENT_FOCUSED\000"
 16098      56454E54 
 16098      5F464F43 
 16098      55534544 
 16098      00
 16099              	.LASF343:
 16100 0833 64646C69 		.ascii	"ddlist\000"
 16100      737400
 16101              	.LASF89:
 16102 083a 74657874 		.ascii	"text\000"
 16102      00
 16103              	.LASF198:
 16104 083f 706F696E 		.ascii	"pointer\000"
 16104      74657200 
 16105              	.LASF228:
 16106 0847 4C565F45 		.ascii	"LV_EVENT_DRAG_BEGIN\000"
 16106      56454E54 
 16106      5F445241 
 16106      475F4245 
 16106      47494E00 
 16107              	.LASF90:
 16108 085b 696D6167 		.ascii	"image\000"
 16108      6500
 16109              	.LASF86:
 16110 0861 726F756E 		.ascii	"rounded\000"
 16110      64656400 
 16111              	.LASF157:
 16112 0869 64726167 		.ascii	"drag_throw\000"
 16112      5F746872 
 16112      6F7700
 16113              	.LASF422:
 16114 0874 6C765F6F 		.ascii	"lv_obj_set_event_cb\000"
 16114      626A5F73 
 16114      65745F65 
 16114      76656E74 
 16114      5F636200 
 16115              	.LASF171:
 16116 0888 6C765F69 		.ascii	"lv_indev_state_t\000"
ARM GAS  C:\Users\tmj32\AppData\Local\Temp\ccxLNxq9.s 			page 340


 16116      6E646576 
 16116      5F737461 
 16116      74655F74 
 16116      00
 16117              	.LASF428:
 16118 0899 6576656E 		.ascii	"event_temp_data\000"
 16118      745F7465 
 16118      6D705F64 
 16118      61746100 
 16119              	.LASF107:
 16120 08a9 6C765F62 		.ascii	"lv_bidi_dir_t\000"
 16120      6964695F 
 16120      6469725F 
 16120      7400
 16121              	.LASF167:
 16122 08b7 6578745F 		.ascii	"ext_draw_pad\000"
 16122      64726177 
 16122      5F706164 
 16122      00
 16123              	.LASF184:
 16124 08c4 6C6F6E67 		.ascii	"long_press_rep_time\000"
 16124      5F707265 
 16124      73735F72 
 16124      65705F74 
 16124      696D6500 
 16125              	.LASF56:
 16126 08d8 6C765F61 		.ascii	"lv_area_t\000"
 16126      7265615F 
 16126      7400
 16127              	.LASF359:
 16128 08e2 6C765F64 		.ascii	"lv_deinit\000"
 16128      65696E69 
 16128      7400
 16129              	.LASF302:
 16130 08ec 4C565F50 		.ascii	"LV_PROTECT_FOLLOW\000"
 16130      524F5445 
 16130      43545F46 
 16130      4F4C4C4F 
 16130      5700
 16131              	.LASF128:
 16132 08fe 62756666 		.ascii	"buffer\000"
 16132      657200
 16133              	.LASF337:
 16134 0905 63616C65 		.ascii	"calendar\000"
 16134      6E646172 
 16134      00
 16135              	.LASF104:
 16136 090e 4C565F42 		.ascii	"LV_BIDI_DIR_INHERIT\000"
 16136      4944495F 
 16136      4449525F 
 16136      494E4845 
 16136      52495400 
 16137              	.LASF226:
 16138 0922 4C565F45 		.ascii	"LV_EVENT_CLICKED\000"
 16138      56454E54 
 16138      5F434C49 
 16138      434B4544 
ARM GAS  C:\Users\tmj32\AppData\Local\Temp\ccxLNxq9.s 			page 341


 16138      00
 16139              	.LASF380:
 16140 0933 6F6C645F 		.ascii	"old_par\000"
 16140      70617200 
 16141              	.LASF71:
 16142 093b 6C656674 		.ascii	"left\000"
 16142      00
 16143              	.LASF349:
 16144 0940 6C765F74 		.ascii	"lv_theme_t\000"
 16144      68656D65 
 16144      5F7400
 16145              	.LASF237:
 16146 094b 4C565F45 		.ascii	"LV_EVENT_APPLY\000"
 16146      56454E54 
 16146      5F415050 
 16146      4C5900
 16147              	.LASF168:
 16148 095a 7265616C 		.ascii	"realign\000"
 16148      69676E00 
 16149              	.LASF401:
 16150 0962 6F626A5F 		.ascii	"obj_h_half\000"
 16150      685F6861 
 16150      6C6600
 16151              	.LASF230:
 16152 096d 4C565F45 		.ascii	"LV_EVENT_DRAG_THROW_BEGIN\000"
 16152      56454E54 
 16152      5F445241 
 16152      475F5448 
 16152      524F575F 
 16153              	.LASF214:
 16154 0987 6C765F69 		.ascii	"lv_indev_t\000"
 16154      6E646576 
 16154      5F7400
 16155              	.LASF213:
 16156 0992 62746E5F 		.ascii	"btn_points\000"
 16156      706F696E 
 16156      747300
 16157              	.LASF278:
 16158 099d 4C565F41 		.ascii	"LV_ALIGN_OUT_BOTTOM_RIGHT\000"
 16158      4C49474E 
 16158      5F4F5554 
 16158      5F424F54 
 16158      544F4D5F 
 16159              	.LASF249:
 16160 09b7 4C565F53 		.ascii	"LV_SIGNAL_GET_TYPE\000"
 16160      49474E41 
 16160      4C5F4745 
 16160      545F5459 
 16160      504500
 16161              	.LASF207:
 16162 09ca 77616974 		.ascii	"wait_until_release\000"
 16162      5F756E74 
 16162      696C5F72 
 16162      656C6561 
 16162      736500
 16163              	.LASF122:
 16164 09dd 61726561 		.ascii	"area\000"
ARM GAS  C:\Users\tmj32\AppData\Local\Temp\ccxLNxq9.s 			page 342


 16164      00
 16165              	.LASF492:
 16166 09e2 61726561 		.ascii	"area_tmp\000"
 16166      5F746D70 
 16166      00
 16167              	.LASF197:
 16168 09eb 6C617374 		.ascii	"last_key\000"
 16168      5F6B6579 
 16168      00
 16169              	.LASF284:
 16170 09f4 4C565F41 		.ascii	"LV_ALIGN_OUT_RIGHT_BOTTOM\000"
 16170      4C49474E 
 16170      5F4F5554 
 16170      5F524947 
 16170      48545F42 
 16171              	.LASF92:
 16172 0a0e 6C765F73 		.ascii	"lv_style_t\000"
 16172      74796C65 
 16172      5F7400
 16173              	.LASF73:
 16174 0a19 696E6E65 		.ascii	"inner\000"
 16174      7200
 16175              	.LASF383:
 16176 0a1f 6C765F6F 		.ascii	"lv_obj_set_pos\000"
 16176      626A5F73 
 16176      65745F70 
 16176      6F7300
 16177              	.LASF206:
 16178 0a2e 64697361 		.ascii	"disabled\000"
 16178      626C6564 
 16178      00
 16179              	.LASF277:
 16180 0a37 4C565F41 		.ascii	"LV_ALIGN_OUT_BOTTOM_MID\000"
 16180      4C49474E 
 16180      5F4F5554 
 16180      5F424F54 
 16180      544F4D5F 
 16181              	.LASF10:
 16182 0a4f 6C6F6E67 		.ascii	"long unsigned int\000"
 16182      20756E73 
 16182      69676E65 
 16182      6420696E 
 16182      7400
 16183              	.LASF478:
 16184 0a61 6C765F6F 		.ascii	"lv_obj_get_protect\000"
 16184      626A5F67 
 16184      65745F70 
 16184      726F7465 
 16184      637400
 16185              	.LASF408:
 16186 0a74 6C765F6F 		.ascii	"lv_obj_set_hidden\000"
 16186      626A5F73 
 16186      65745F68 
 16186      69646465 
 16186      6E00
 16187              	.LASF309:
 16188 0a86 68696E74 		.ascii	"hint\000"
ARM GAS  C:\Users\tmj32\AppData\Local\Temp\ccxLNxq9.s 			page 343


 16188      00
 16189              	.LASF434:
 16190 0a8b 70617261 		.ascii	"param\000"
 16190      6D00
 16191              	.LASF442:
 16192 0a91 6C765F6F 		.ascii	"lv_obj_get_child\000"
 16192      626A5F67 
 16192      65745F63 
 16192      68696C64 
 16192      00
 16193              	.LASF432:
 16194 0aa2 6C765F73 		.ascii	"lv_signal_send\000"
 16194      69676E61 
 16194      6C5F7365 
 16194      6E6400
 16195              	.LASF60:
 16196 0ab1 4C565F42 		.ascii	"LV_BORDER_LEFT\000"
 16196      4F524445 
 16196      525F4C45 
 16196      465400
 16197              	.LASF466:
 16198 0ac0 7374796C 		.ascii	"style_act\000"
 16198      655F6163 
 16198      7400
 16199              	.LASF449:
 16200 0aca 6C765F6F 		.ascii	"lv_obj_get_inner_coords\000"
 16200      626A5F67 
 16200      65745F69 
 16200      6E6E6572 
 16200      5F636F6F 
 16201              	.LASF91:
 16202 0ae2 6C696E65 		.ascii	"line\000"
 16202      00
 16203              	.LASF475:
 16204 0ae7 6C765F6F 		.ascii	"lv_obj_get_base_dir\000"
 16204      626A5F67 
 16204      65745F62 
 16204      6173655F 
 16204      64697200 
 16205              	.LASF258:
 16206 0afb 4C565F53 		.ascii	"LV_SIGNAL_FOCUS\000"
 16206      49474E41 
 16206      4C5F464F 
 16206      43555300 
 16207              	.LASF34:
 16208 0b0b 4C565F4F 		.ascii	"LV_OPA_0\000"
 16208      50415F30 
 16208      00
 16209              	.LASF236:
 16210 0b14 4C565F45 		.ascii	"LV_EVENT_REFRESH\000"
 16210      56454E54 
 16210      5F524546 
 16210      52455348 
 16210      00
 16211              	.LASF495:
 16212 0b25 72656672 		.ascii	"refresh_children_position\000"
 16212      6573685F 
ARM GAS  C:\Users\tmj32\AppData\Local\Temp\ccxLNxq9.s 			page 344


 16212      6368696C 
 16212      6472656E 
 16212      5F706F73 
 16213              	.LASF125:
 16214 0b3f 5F646973 		.ascii	"_disp_drv_t\000"
 16214      705F6472 
 16214      765F7400 
 16215              	.LASF375:
 16216 0b4b 69735F63 		.ascii	"is_common\000"
 16216      6F6D6D6F 
 16216      6E00
 16217              	.LASF212:
 16218 0b55 67726F75 		.ascii	"group\000"
 16218      7000
 16219              	.LASF446:
 16220 0b5b 6C765F6F 		.ascii	"lv_obj_count_children_recursive\000"
 16220      626A5F63 
 16220      6F756E74 
 16220      5F636869 
 16220      6C647265 
 16221              	.LASF186:
 16222 0b7b 6163745F 		.ascii	"act_point\000"
 16222      706F696E 
 16222      7400
 16223              	.LASF192:
 16224 0b85 6C617374 		.ascii	"last_obj\000"
 16224      5F6F626A 
 16224      00
 16225              	.LASF170:
 16226 0b8e 6C765F69 		.ascii	"lv_indev_type_t\000"
 16226      6E646576 
 16226      5F747970 
 16226      655F7400 
 16227              	.LASF261:
 16228 0b9e 4C565F53 		.ascii	"LV_SIGNAL_GET_EDITABLE\000"
 16228      49474E41 
 16228      4C5F4745 
 16228      545F4544 
 16228      49544142 
 16229              	.LASF465:
 16230 0bb5 6C765F6F 		.ascii	"lv_obj_get_style\000"
 16230      626A5F67 
 16230      65745F73 
 16230      74796C65 
 16230      00
 16231              	.LASF435:
 16232 0bc6 6C765F6F 		.ascii	"lv_obj_set_design_cb\000"
 16232      626A5F73 
 16232      65745F64 
 16232      65736967 
 16232      6E5F6362 
 16233              	.LASF325:
 16234 0bdb 6F6E656C 		.ascii	"oneline\000"
 16234      696E6500 
 16235              	.LASF124:
 16236 0be3 6C765F64 		.ascii	"lv_disp_buf_t\000"
 16236      6973705F 
ARM GAS  C:\Users\tmj32\AppData\Local\Temp\ccxLNxq9.s 			page 345


 16236      6275665F 
 16236      7400
 16237              	.LASF472:
 16238 0bf1 6C765F6F 		.ascii	"lv_obj_get_drag_throw\000"
 16238      626A5F67 
 16238      65745F64 
 16238      7261675F 
 16238      7468726F 
 16239              	.LASF276:
 16240 0c07 4C565F41 		.ascii	"LV_ALIGN_OUT_BOTTOM_LEFT\000"
 16240      4C49474E 
 16240      5F4F5554 
 16240      5F424F54 
 16240      544F4D5F 
 16241              	.LASF9:
 16242 0c20 5F5F7569 		.ascii	"__uint32_t\000"
 16242      6E743332 
 16242      5F7400
 16243              	.LASF150:
 16244 0c2b 6576656E 		.ascii	"event_cb\000"
 16244      745F6362 
 16244      00
 16245              	.LASF72:
 16246 0c34 72696768 		.ascii	"right\000"
 16246      7400
 16247              	.LASF154:
 16248 0c3a 7374796C 		.ascii	"style_p\000"
 16248      655F7000 
 16249              	.LASF11:
 16250 0c42 6C6F6E67 		.ascii	"long long int\000"
 16250      206C6F6E 
 16250      6720696E 
 16250      7400
 16251              	.LASF513:
 16252 0c50 433A5C55 		.ascii	"C:\\Users\\tmj32\\Documents\\TCNJ\\Senior_Project\\"
 16252      73657273 
 16252      5C746D6A 
 16252      33325C44 
 16252      6F63756D 
 16253 0c7d 4F736369 		.ascii	"Oscilloscope_Senior_Project\\tcom_engineering\\embe"
 16253      6C6C6F73 
 16253      636F7065 
 16253      5F53656E 
 16253      696F725F 
 16254 0cae 645F7377 		.ascii	"d_sw\\tcom_app\\tcom_app_psoc6_lvgl6\\tcom_displ_te"
 16254      5C74636F 
 16254      6D5F6170 
 16254      705C7463 
 16254      6F6D5F61 
 16255 0cde 73745F70 		.ascii	"st_psoc6.cydsn\000"
 16255      736F6336 
 16255      2E637964 
 16255      736E00
 16256              	.LASF281:
 16257 0ced 4C565F41 		.ascii	"LV_ALIGN_OUT_LEFT_BOTTOM\000"
 16257      4C49474E 
 16257      5F4F5554 
ARM GAS  C:\Users\tmj32\AppData\Local\Temp\ccxLNxq9.s 			page 346


 16257      5F4C4546 
 16257      545F424F 
 16258              	.LASF67:
 16259 0d06 77696474 		.ascii	"width\000"
 16259      6800
 16260              	.LASF267:
 16261 0d0c 4C565F41 		.ascii	"LV_ALIGN_IN_TOP_RIGHT\000"
 16261      4C49474E 
 16261      5F494E5F 
 16261      544F505F 
 16261      52494748 
 16262              	.LASF260:
 16263 0d22 4C565F53 		.ascii	"LV_SIGNAL_CONTROL\000"
 16263      49474E41 
 16263      4C5F434F 
 16263      4E54524F 
 16263      4C00
 16264              	.LASF70:
 16265 0d34 626F7474 		.ascii	"bottom\000"
 16265      6F6D00
 16266              	.LASF148:
 16267 0d3b 6368696C 		.ascii	"child_ll\000"
 16267      645F6C6C 
 16267      00
 16268              	.LASF313:
 16269 0d44 696E6469 		.ascii	"indic\000"
 16269      6300
 16270              	.LASF448:
 16271 0d4a 636F7264 		.ascii	"cords_p\000"
 16271      735F7000 
 16272              	.LASF165:
 16273 0d52 70726F74 		.ascii	"protect\000"
 16273      65637400 
 16274              	.LASF118:
 16275 0d5a 62756631 		.ascii	"buf1\000"
 16275      00
 16276              	.LASF119:
 16277 0d5f 62756632 		.ascii	"buf2\000"
 16277      00
 16278              	.LASF187:
 16279 0d64 6C617374 		.ascii	"last_point\000"
 16279      5F706F69 
 16279      6E7400
 16280              	.LASF460:
 16281 0d6f 6C765F6F 		.ascii	"lv_obj_get_ext_click_pad_left\000"
 16281      626A5F67 
 16281      65745F65 
 16281      78745F63 
 16281      6C69636B 
 16282              	.LASF191:
 16283 0d8d 6163745F 		.ascii	"act_obj\000"
 16283      6F626A00 
 16284              	.LASF463:
 16285 0d95 6C765F6F 		.ascii	"lv_obj_get_ext_click_pad_bottom\000"
 16285      626A5F67 
 16285      65745F65 
 16285      78745F63 
ARM GAS  C:\Users\tmj32\AppData\Local\Temp\ccxLNxq9.s 			page 347


 16285      6C69636B 
 16286              	.LASF504:
 16287 0db5 6576656E 		.ascii	"event_temp_data_head\000"
 16287      745F7465 
 16287      6D705F64 
 16287      6174615F 
 16287      68656164 
 16288              	.LASF345:
 16289 0dca 74616276 		.ascii	"tabview\000"
 16289      69657700 
 16290              	.LASF161:
 16291 0dd2 70617265 		.ascii	"parent_event\000"
 16291      6E745F65 
 16291      76656E74 
 16291      00
 16292              	.LASF242:
 16293 0ddf 4C565F53 		.ascii	"LV_SIGNAL_CLEANUP\000"
 16293      49474E41 
 16293      4C5F434C 
 16293      45414E55 
 16293      5000
 16294              	.LASF360:
 16295 0df1 70617265 		.ascii	"parent\000"
 16295      6E7400
 16296              	.LASF289:
 16297 0df8 616C6967 		.ascii	"align\000"
 16297      6E00
 16298              	.LASF33:
 16299 0dfe 4C565F4F 		.ascii	"LV_OPA_TRANSP\000"
 16299      50415F54 
 16299      52414E53 
 16299      5000
 16300              	.LASF268:
 16301 0e0c 4C565F41 		.ascii	"LV_ALIGN_IN_BOTTOM_LEFT\000"
 16301      4C49474E 
 16301      5F494E5F 
 16301      424F5454 
 16301      4F4D5F4C 
 16302              	.LASF445:
 16303 0e24 6C765F6F 		.ascii	"lv_obj_count_children\000"
 16303      626A5F63 
 16303      6F756E74 
 16303      5F636869 
 16303      6C647265 
 16304              	.LASF87:
 16305 0e3a 676C6173 		.ascii	"glass\000"
 16305      7300
 16306              	.LASF424:
 16307 0e40 6576656E 		.ascii	"event\000"
 16307      7400
 16308              	.LASF239:
 16309 0e46 4C565F45 		.ascii	"LV_EVENT_DELETE\000"
 16309      56454E54 
 16309      5F44454C 
 16309      45544500 
 16310              	.LASF350:
 16311 0e56 5F6C765F 		.ascii	"_lv_event_temp_data\000"
ARM GAS  C:\Users\tmj32\AppData\Local\Temp\ccxLNxq9.s 			page 348


 16311      6576656E 
 16311      745F7465 
 16311      6D705F64 
 16311      61746100 
 16312              	.LASF13:
 16313 0e6a 756E7369 		.ascii	"unsigned int\000"
 16313      676E6564 
 16313      20696E74 
 16313      00
 16314              	.LASF243:
 16315 0e77 4C565F53 		.ascii	"LV_SIGNAL_CHILD_CHG\000"
 16315      49474E41 
 16315      4C5F4348 
 16315      494C445F 
 16315      43484700 
 16316              	.LASF458:
 16317 0e8b 6C765F6F 		.ascii	"lv_obj_get_height_fit\000"
 16317      626A5F67 
 16317      65745F68 
 16317      65696768 
 16317      745F6669 
 16318              	.LASF180:
 16319 0ea1 64697370 		.ascii	"disp\000"
 16319      00
 16320              	.LASF406:
 16321 0ea6 6C765F6F 		.ascii	"lv_obj_refresh_style\000"
 16321      626A5F72 
 16321      65667265 
 16321      73685F73 
 16321      74796C65 
 16322              	.LASF474:
 16323 0ebb 6C765F6F 		.ascii	"lv_obj_get_parent_event\000"
 16323      626A5F67 
 16323      65745F70 
 16323      6172656E 
 16323      745F6576 
 16324              	.LASF415:
 16325 0ed3 6C765F6F 		.ascii	"lv_obj_set_parent_event\000"
 16325      626A5F73 
 16325      65745F70 
 16325      6172656E 
 16325      745F6576 
 16326              	.LASF339:
 16327 0eeb 6D626F78 		.ascii	"mbox\000"
 16327      00
 16328              	.LASF174:
 16329 0ef0 656E635F 		.ascii	"enc_diff\000"
 16329      64696666 
 16329      00
 16330              	.LASF306:
 16331 0ef9 74676C5F 		.ascii	"tgl_rel\000"
 16331      72656C00 
 16332              	.LASF461:
 16333 0f01 6C765F6F 		.ascii	"lv_obj_get_ext_click_pad_right\000"
 16333      626A5F67 
 16333      65745F65 
 16333      78745F63 
ARM GAS  C:\Users\tmj32\AppData\Local\Temp\ccxLNxq9.s 			page 349


 16333      6C69636B 
 16334              	.LASF264:
 16335 0f20 4C565F41 		.ascii	"LV_ALIGN_CENTER\000"
 16335      4C49474E 
 16335      5F43454E 
 16335      54455200 
 16336              	.LASF234:
 16337 0f30 4C565F45 		.ascii	"LV_EVENT_VALUE_CHANGED\000"
 16337      56454E54 
 16337      5F56414C 
 16337      55455F43 
 16337      48414E47 
 16338              	.LASF143:
 16339 0f47 696E765F 		.ascii	"inv_areas\000"
 16339      61726561 
 16339      7300
 16340              	.LASF489:
 16341 0f51 6C765F6F 		.ascii	"lv_obj_design\000"
 16341      626A5F64 
 16341      65736967 
 16341      6E00
 16342              	.LASF290:
 16343 0f5f 6175746F 		.ascii	"auto_realign\000"
 16343      5F726561 
 16343      6C69676E 
 16343      00
 16344              	.LASF507:
 16345 0f6c 6C765F73 		.ascii	"lv_style_plain\000"
 16345      74796C65 
 16345      5F706C61 
 16345      696E00
 16346              	.LASF116:
 16347 0f7b 6F6E6365 		.ascii	"once\000"
 16347      00
 16348              	.LASF215:
 16349 0f80 4C565F44 		.ascii	"LV_DESIGN_DRAW_MAIN\000"
 16349      45534947 
 16349      4E5F4452 
 16349      41575F4D 
 16349      41494E00 
 16350              	.LASF26:
 16351 0f94 6C765F66 		.ascii	"lv_font_glyph_dsc_t\000"
 16351      6F6E745F 
 16351      676C7970 
 16351      685F6473 
 16351      635F7400 
 16352              	.LASF342:
 16353 0fa8 6C697374 		.ascii	"list\000"
 16353      00
 16354              	.LASF75:
 16355 0fad 67726164 		.ascii	"grad_color\000"
 16355      5F636F6C 
 16355      6F7200
 16356              	.LASF221:
 16357 0fb8 4C565F45 		.ascii	"LV_EVENT_PRESSING\000"
 16357      56454E54 
 16357      5F505245 
ARM GAS  C:\Users\tmj32\AppData\Local\Temp\ccxLNxq9.s 			page 350


 16357      5353494E 
 16357      4700
 16358              	.LASF340:
 16359 0fca 70616765 		.ascii	"page\000"
 16359      00
 16360              	.LASF136:
 16361 0fcf 5F646973 		.ascii	"_disp_t\000"
 16361      705F7400 
 16362              	.LASF315:
 16363 0fd7 6B6E6F62 		.ascii	"knob_off\000"
 16363      5F6F6666 
 16363      00
 16364              	.LASF334:
 16365 0fe0 67617567 		.ascii	"gauge\000"
 16365      6500
 16366              	.LASF251:
 16367 0fe6 4C565F53 		.ascii	"LV_SIGNAL_PRESSING\000"
 16367      49474E41 
 16367      4C5F5052 
 16367      45535349 
 16367      4E4700
 16368              	.LASF44:
 16369 0ff9 4C565F4F 		.ascii	"LV_OPA_100\000"
 16369      50415F31 
 16369      303000
 16370              	.LASF295:
 16371 1004 4C565F44 		.ascii	"LV_DRAG_DIR_ALL\000"
 16371      5241475F 
 16371      4449525F 
 16371      414C4C00 
 16372              	.LASF63:
 16373 1014 4C565F42 		.ascii	"LV_BORDER_INTERNAL\000"
 16373      4F524445 
 16373      525F494E 
 16373      5445524E 
 16373      414C00
 16374              	.LASF225:
 16375 1027 4C565F45 		.ascii	"LV_EVENT_LONG_PRESSED_REPEAT\000"
 16375      56454E54 
 16375      5F4C4F4E 
 16375      475F5052 
 16375      45535345 
 16376              	.LASF294:
 16377 1044 4C565F44 		.ascii	"LV_DRAG_DIR_VER\000"
 16377      5241475F 
 16377      4449525F 
 16377      56455200 
 16378              	.LASF459:
 16379 1054 6C765F6F 		.ascii	"lv_obj_get_auto_realign\000"
 16379      626A5F67 
 16379      65745F61 
 16379      75746F5F 
 16379      7265616C 
 16380              	.LASF95:
 16381 106c 6C765F72 		.ascii	"lv_res_t\000"
 16381      65735F74 
 16381      00
ARM GAS  C:\Users\tmj32\AppData\Local\Temp\ccxLNxq9.s 			page 351


 16382              	.LASF453:
 16383 1075 6C765F6F 		.ascii	"lv_obj_get_y\000"
 16383      626A5F67 
 16383      65745F79 
 16383      00
 16384              	.LASF120:
 16385 1082 6275665F 		.ascii	"buf_act\000"
 16385      61637400 
 16386              	.LASF20:
 16387 108a 6C6F6E67 		.ascii	"long double\000"
 16387      20646F75 
 16387      626C6500 
 16388              	.LASF296:
 16389 1096 6C765F64 		.ascii	"lv_drag_dir_t\000"
 16389      7261675F 
 16389      6469725F 
 16389      7400
 16390              	.LASF348:
 16391 10a4 7374796C 		.ascii	"style\000"
 16391      6500
 16392              	.LASF188:
 16393 10aa 76656374 		.ascii	"vect\000"
 16393      00
 16394              	.LASF270:
 16395 10af 4C565F41 		.ascii	"LV_ALIGN_IN_BOTTOM_RIGHT\000"
 16395      4C49474E 
 16395      5F494E5F 
 16395      424F5454 
 16395      4F4D5F52 
 16396              	.LASF153:
 16397 10c8 6578745F 		.ascii	"ext_attr\000"
 16397      61747472 
 16397      00
 16398              	.LASF189:
 16399 10d1 64726167 		.ascii	"drag_sum\000"
 16399      5F73756D 
 16399      00
 16400              	.LASF298:
 16401 10da 4C565F50 		.ascii	"LV_PROTECT_NONE\000"
 16401      524F5445 
 16401      43545F4E 
 16401      4F4E4500 
 16402              	.LASF273:
 16403 10ea 4C565F41 		.ascii	"LV_ALIGN_OUT_TOP_LEFT\000"
 16403      4C49474E 
 16403      5F4F5554 
 16403      5F544F50 
 16403      5F4C4546 
 16404              	.LASF202:
 16405 1100 70725F74 		.ascii	"pr_timestamp\000"
 16405      696D6573 
 16405      74616D70 
 16405      00
 16406              	.LASF218:
 16407 110d 6C765F64 		.ascii	"lv_design_mode_t\000"
 16407      65736967 
 16407      6E5F6D6F 
ARM GAS  C:\Users\tmj32\AppData\Local\Temp\ccxLNxq9.s 			page 352


 16407      64655F74 
 16407      00
 16408              	.LASF85:
 16409 111e 73756270 		.ascii	"subpx\000"
 16409      7800
 16410              	.LASF229:
 16411 1124 4C565F45 		.ascii	"LV_EVENT_DRAG_END\000"
 16411      56454E54 
 16411      5F445241 
 16411      475F454E 
 16411      4400
 16412              	.LASF45:
 16413 1136 4C565F4F 		.ascii	"LV_OPA_COVER\000"
 16413      50415F43 
 16413      4F564552 
 16413      00
 16414              	.LASF370:
 16415 1143 6368696C 		.ascii	"child_next\000"
 16415      645F6E65 
 16415      787400
 16416              	.LASF181:
 16417 114e 72656164 		.ascii	"read_task\000"
 16417      5F746173 
 16417      6B00
 16418              	.LASF252:
 16419 1158 4C565F53 		.ascii	"LV_SIGNAL_PRESS_LOST\000"
 16419      49474E41 
 16419      4C5F5052 
 16419      4553535F 
 16419      4C4F5354 
 16420              	.LASF407:
 16421 116d 6C765F6F 		.ascii	"lv_obj_report_style_mod\000"
 16421      626A5F72 
 16421      65706F72 
 16421      745F7374 
 16421      796C655F 
 16422              	.LASF179:
 16423 1185 66656564 		.ascii	"feedback_cb\000"
 16423      6261636B 
 16423      5F636200 
 16424              	.LASF257:
 16425 1191 4C565F53 		.ascii	"LV_SIGNAL_DRAG_END\000"
 16425      49474E41 
 16425      4C5F4452 
 16425      41475F45 
 16425      4E4400
 16426              	.LASF220:
 16427 11a4 4C565F45 		.ascii	"LV_EVENT_PRESSED\000"
 16427      56454E54 
 16427      5F505245 
 16427      53534544 
 16427      00
 16428              	.LASF245:
 16429 11b5 4C565F53 		.ascii	"LV_SIGNAL_PARENT_SIZE_CHG\000"
 16429      49474E41 
 16429      4C5F5041 
 16429      52454E54 
ARM GAS  C:\Users\tmj32\AppData\Local\Temp\ccxLNxq9.s 			page 353


 16429      5F53495A 
 16430              	.LASF238:
 16431 11cf 4C565F45 		.ascii	"LV_EVENT_CANCEL\000"
 16431      56454E54 
 16431      5F43414E 
 16431      43454C00 
 16432              	.LASF253:
 16433 11df 4C565F53 		.ascii	"LV_SIGNAL_RELEASED\000"
 16433      49474E41 
 16433      4C5F5245 
 16433      4C454153 
 16433      454400
 16434              	.LASF462:
 16435 11f2 6C765F6F 		.ascii	"lv_obj_get_ext_click_pad_top\000"
 16435      626A5F67 
 16435      65745F65 
 16435      78745F63 
 16435      6C69636B 
 16436              	.LASF74:
 16437 120f 6D61696E 		.ascii	"main_color\000"
 16437      5F636F6C 
 16437      6F7200
 16438              	.LASF266:
 16439 121a 4C565F41 		.ascii	"LV_ALIGN_IN_TOP_MID\000"
 16439      4C49474E 
 16439      5F494E5F 
 16439      544F505F 
 16439      4D494400 
 16440              	.LASF0:
 16441 122e 5F5F696E 		.ascii	"__int8_t\000"
 16441      74385F74 
 16441      00
 16442              	.LASF200:
 16443 1237 5F6C765F 		.ascii	"_lv_indev_proc_t\000"
 16443      696E6465 
 16443      765F7072 
 16443      6F635F74 
 16443      00
 16444              	.LASF505:
 16445 1248 6576656E 		.ascii	"event_act_data\000"
 16445      745F6163 
 16445      745F6461 
 16445      746100
 16446              	.LASF482:
 16447 1257 6C765F6F 		.ascii	"lv_obj_get_event_cb\000"
 16447      626A5F67 
 16447      65745F65 
 16447      76656E74 
 16447      5F636200 
 16448              	.LASF481:
 16449 126b 6C765F6F 		.ascii	"lv_obj_get_design_cb\000"
 16449      626A5F67 
 16449      65745F64 
 16449      65736967 
 16449      6E5F6362 
 16450              	.LASF262:
 16451 1280 6C765F73 		.ascii	"lv_signal_t\000"
ARM GAS  C:\Users\tmj32\AppData\Local\Temp\ccxLNxq9.s 			page 354


 16451      69676E61 
 16451      6C5F7400 
 16452              	.LASF121:
 16453 128c 73697A65 		.ascii	"size\000"
 16453      00
 16454              	.LASF381:
 16455 1291 6C765F6F 		.ascii	"lv_obj_move_foreground\000"
 16455      626A5F6D 
 16455      6F76655F 
 16455      666F7265 
 16455      67726F75 
 16456              	.LASF183:
 16457 12a8 6C6F6E67 		.ascii	"long_press_time\000"
 16457      5F707265 
 16457      73735F74 
 16457      696D6500 
 16458              	.LASF12:
 16459 12b8 6C6F6E67 		.ascii	"long long unsigned int\000"
 16459      206C6F6E 
 16459      6720756E 
 16459      7369676E 
 16459      65642069 
 16460              	.LASF397:
 16461 12cf 7061725F 		.ascii	"par_abs_x\000"
 16461      6162735F 
 16461      7800
 16462              	.LASF398:
 16463 12d9 7061725F 		.ascii	"par_abs_y\000"
 16463      6162735F 
 16463      7900
 16464              	.LASF304:
 16465 12e3 4C565F50 		.ascii	"LV_PROTECT_CLICK_FOCUS\000"
 16465      524F5445 
 16465      43545F43 
 16465      4C49434B 
 16465      5F464F43 
 16466              	.LASF282:
 16467 12fa 4C565F41 		.ascii	"LV_ALIGN_OUT_RIGHT_TOP\000"
 16467      4C49474E 
 16467      5F4F5554 
 16467      5F524947 
 16467      48545F54 
 16468              	.LASF17:
 16469 1311 75696E74 		.ascii	"uint16_t\000"
 16469      31365F74 
 16469      00
 16470              	.LASF94:
 16471 131a 4C565F52 		.ascii	"LV_RES_OK\000"
 16471      45535F4F 
 16471      4B00
 16472              	.LASF112:
 16473 1324 6C617374 		.ascii	"last_run\000"
 16473      5F72756E 
 16473      00
 16474              	.LASF393:
 16475 132d 6E65775F 		.ascii	"new_x\000"
 16475      7800
ARM GAS  C:\Users\tmj32\AppData\Local\Temp\ccxLNxq9.s 			page 355


 16476              	.LASF394:
 16477 1333 6E65775F 		.ascii	"new_y\000"
 16477      7900
 16478              	.LASF321:
 16479 1339 696E6163 		.ascii	"inactive_days\000"
 16479      74697665 
 16479      5F646179 
 16479      7300
 16480              	.LASF51:
 16481 1347 6C765F63 		.ascii	"lv_color_t\000"
 16481      6F6C6F72 
 16481      5F7400
 16482              	.LASF288:
 16483 1352 796F6673 		.ascii	"yofs\000"
 16483      00
 16484              	.LASF57:
 16485 1357 4C565F42 		.ascii	"LV_BORDER_NONE\000"
 16485      4F524445 
 16485      525F4E4F 
 16485      4E4500
 16486              	.LASF205:
 16487 1366 72657365 		.ascii	"reset_query\000"
 16487      745F7175 
 16487      65727900 
 16488              	.LASF117:
 16489 1372 6C765F74 		.ascii	"lv_task_t\000"
 16489      61736B5F 
 16489      7400
 16490              	.LASF464:
 16491 137c 6C765F6F 		.ascii	"lv_obj_get_ext_draw_pad\000"
 16491      626A5F67 
 16491      65745F65 
 16491      78745F64 
 16491      7261775F 
 16492              	.LASF379:
 16493 1394 6F6C645F 		.ascii	"old_pos\000"
 16493      706F7300 
 16494              	.LASF357:
 16495 139c 6C765F61 		.ascii	"lv_area_get_height\000"
 16495      7265615F 
 16495      6765745F 
 16495      68656967 
 16495      687400
 16496              	.LASF105:
 16497 13af 4C565F42 		.ascii	"LV_BIDI_DIR_NEUTRAL\000"
 16497      4944495F 
 16497      4449525F 
 16497      4E455554 
 16497      52414C00 
 16498              	.LASF502:
 16499 13c3 6C765F65 		.ascii	"lv_event_mark_deleted\000"
 16499      76656E74 
 16499      5F6D6172 
 16499      6B5F6465 
 16499      6C657465 
 16500              	.LASF409:
 16501 13d9 6C765F6F 		.ascii	"lv_obj_set_click\000"
ARM GAS  C:\Users\tmj32\AppData\Local\Temp\ccxLNxq9.s 			page 356


 16501      626A5F73 
 16501      65745F63 
 16501      6C69636B 
 16501      00
 16502              	.LASF404:
 16503 13ea 6C765F6F 		.ascii	"lv_obj_set_ext_click_area\000"
 16503      626A5F73 
 16503      65745F65 
 16503      78745F63 
 16503      6C69636B 
 16504              	.LASF58:
 16505 1404 4C565F42 		.ascii	"LV_BORDER_BOTTOM\000"
 16505      4F524445 
 16505      525F424F 
 16505      54544F4D 
 16505      00
 16506              	.LASF35:
 16507 1415 4C565F4F 		.ascii	"LV_OPA_10\000"
 16507      50415F31 
 16507      3000
 16508              	.LASF61:
 16509 141f 4C565F42 		.ascii	"LV_BORDER_RIGHT\000"
 16509      4F524445 
 16509      525F5249 
 16509      47485400 
 16510              	.LASF362:
 16511 142f 6E65775F 		.ascii	"new_obj\000"
 16511      6F626A00 
 16512              	.LASF511:
 16513 1437 474E5520 		.ascii	"GNU C11 5.4.1 20160609 (release) [ARM/embedded-5-br"
 16513      43313120 
 16513      352E342E 
 16513      31203230 
 16513      31363036 
 16514 146a 616E6368 		.ascii	"anch revision 237715] -mcpu=cortex-m4 -mfloat-abi=s"
 16514      20726576 
 16514      6973696F 
 16514      6E203233 
 16514      37373135 
 16515 149d 6F667466 		.ascii	"oftfp -mfpu=fpv4-sp-d16 -mthumb -g -O0 -ffunction-s"
 16515      70202D6D 
 16515      6670753D 
 16515      66707634 
 16515      2D73702D 
 16516 14d0 65637469 		.ascii	"ections -ffat-lto-objects\000"
 16516      6F6E7320 
 16516      2D666661 
 16516      742D6C74 
 16516      6F2D6F62 
 16517              	.LASF111:
 16518 14ea 70657269 		.ascii	"period\000"
 16518      6F6400
 16519              	.LASF388:
 16520 14f1 6C765F6F 		.ascii	"lv_obj_set_width\000"
 16520      626A5F73 
 16520      65745F77 
 16520      69647468 
ARM GAS  C:\Users\tmj32\AppData\Local\Temp\ccxLNxq9.s 			page 357


 16520      00
 16521              	.LASF131:
 16522 1502 726F756E 		.ascii	"rounder_cb\000"
 16522      6465725F 
 16522      636200
 16523              	.LASF312:
 16524 150d 6465636F 		.ascii	"decor\000"
 16524      7200
 16525              	.LASF330:
 16526 1513 696D6762 		.ascii	"imgbtn\000"
 16526      746E00
 16527              	.LASF419:
 16528 151a 6C765F6F 		.ascii	"lv_obj_set_protect\000"
 16528      626A5F73 
 16528      65745F70 
 16528      726F7465 
 16528      637400
 16529              	.LASF4:
 16530 152d 5F5F696E 		.ascii	"__int16_t\000"
 16530      7431365F 
 16530      7400
 16531              	.LASF203:
 16532 1537 6C6F6E67 		.ascii	"longpr_rep_timestamp\000"
 16532      70725F72 
 16532      65705F74 
 16532      696D6573 
 16532      74616D70 
 16533              	.LASF328:
 16534 154c 70616E65 		.ascii	"panel\000"
 16534      6C00
 16535              	.LASF503:
 16536 1552 6C765F69 		.ascii	"lv_initialized\000"
 16536      6E697469 
 16536      616C697A 
 16536      656400
 16537              	.LASF195:
 16538 1561 64726167 		.ascii	"drag_in_prog\000"
 16538      5F696E5F 
 16538      70726F67 
 16538      00
 16539              	.LASF480:
 16540 156e 6C765F6F 		.ascii	"lv_obj_get_signal_cb\000"
 16540      626A5F67 
 16540      65745F73 
 16540      69676E61 
 16540      6C5F6362 
 16541              	.LASF414:
 16542 1583 6C765F6F 		.ascii	"lv_obj_set_drag_parent\000"
 16542      626A5F73 
 16542      65745F64 
 16542      7261675F 
 16542      70617265 
 16543              	.LASF354:
 16544 159a 64657374 		.ascii	"dest\000"
 16544      00
 16545              	.LASF103:
 16546 159f 4C565F42 		.ascii	"LV_BIDI_DIR_AUTO\000"
ARM GAS  C:\Users\tmj32\AppData\Local\Temp\ccxLNxq9.s 			page 358


 16546      4944495F 
 16546      4449525F 
 16546      4155544F 
 16546      00
 16547              	.LASF456:
 16548 15b0 6C765F6F 		.ascii	"lv_obj_get_height\000"
 16548      626A5F67 
 16548      65745F68 
 16548      65696768 
 16548      7400
 16549              	.LASF49:
 16550 15c2 66756C6C 		.ascii	"full\000"
 16550      00
 16551              	.LASF272:
 16552 15c7 4C565F41 		.ascii	"LV_ALIGN_IN_RIGHT_MID\000"
 16552      4C49474E 
 16552      5F494E5F 
 16552      52494748 
 16552      545F4D49 
 16553              	.LASF36:
 16554 15dd 4C565F4F 		.ascii	"LV_OPA_20\000"
 16554      50415F32 
 16554      3000
 16555              	.LASF66:
 16556 15e7 636F6C6F 		.ascii	"color\000"
 16556      7200
 16557              	.LASF194:
 16558 15ed 64726167 		.ascii	"drag_limit_out\000"
 16558      5F6C696D 
 16558      69745F6F 
 16558      757400
 16559              	.LASF83:
 16560 15fc 6C696E65 		.ascii	"line_space\000"
 16560      5F737061 
 16560      636500
 16561              	.LASF287:
 16562 1607 786F6673 		.ascii	"xofs\000"
 16562      00
 16563              	.LASF451:
 16564 160c 6C765F6F 		.ascii	"lv_obj_get_x\000"
 16564      626A5F67 
 16564      65745F78 
 16564      00
 16565              	.LASF297:
 16566 1619 6C765F6F 		.ascii	"lv_obj_t\000"
 16566      626A5F74 
 16566      00
 16567              	.LASF137:
 16568 1622 64726976 		.ascii	"driver\000"
 16568      657200
 16569              	.LASF65:
 16570 1629 6C765F73 		.ascii	"lv_shadow_type_t\000"
 16570      6861646F 
 16570      775F7479 
 16570      70655F74 
 16570      00
 16571              	.LASF156:
ARM GAS  C:\Users\tmj32\AppData\Local\Temp\ccxLNxq9.s 			page 359


 16572 163a 64726167 		.ascii	"drag\000"
 16572      00
 16573              	.LASF392:
 16574 163f 795F6D6F 		.ascii	"y_mod\000"
 16574      6400
 16575              	.LASF147:
 16576 1645 5F6C765F 		.ascii	"_lv_obj_t\000"
 16576      6F626A5F 
 16576      7400
 16577              	.LASF265:
 16578 164f 4C565F41 		.ascii	"LV_ALIGN_IN_TOP_LEFT\000"
 16578      4C49474E 
 16578      5F494E5F 
 16578      544F505F 
 16578      4C454654 
 16579              	.LASF81:
 16580 1664 666F6E74 		.ascii	"font\000"
 16580      00
 16581              	.LASF82:
 16582 1669 6C657474 		.ascii	"letter_space\000"
 16582      65725F73 
 16582      70616365 
 16582      00
 16583              	.LASF37:
 16584 1676 4C565F4F 		.ascii	"LV_OPA_30\000"
 16584      50415F33 
 16584      3000
 16585              	.LASF163:
 16586 1680 62617365 		.ascii	"base_dir\000"
 16586      5F646972 
 16586      00
 16587              	.LASF299:
 16588 1689 4C565F50 		.ascii	"LV_PROTECT_CHILD_CHG\000"
 16588      524F5445 
 16588      43545F43 
 16588      48494C44 
 16588      5F434847 
 16589              	.LASF303:
 16590 169e 4C565F50 		.ascii	"LV_PROTECT_PRESS_LOST\000"
 16590      524F5445 
 16590      43545F50 
 16590      52455353 
 16590      5F4C4F53 
 16591              	.LASF23:
 16592 16b4 626F785F 		.ascii	"box_h\000"
 16592      6800
 16593              	.LASF403:
 16594 16ba 6C765F6F 		.ascii	"lv_obj_set_auto_realign\000"
 16594      626A5F73 
 16594      65745F61 
 16594      75746F5F 
 16594      7265616C 
 16595              	.LASF483:
 16596 16d2 6C765F6F 		.ascii	"lv_obj_get_ext_attr\000"
 16596      626A5F67 
 16596      65745F65 
 16596      78745F61 
ARM GAS  C:\Users\tmj32\AppData\Local\Temp\ccxLNxq9.s 			page 360


 16596      74747200 
 16597              	.LASF286:
 16598 16e6 62617365 		.ascii	"base\000"
 16598      00
 16599              	.LASF374:
 16600 16eb 6578745F 		.ascii	"ext_size\000"
 16600      73697A65 
 16600      00
 16601              	.LASF22:
 16602 16f4 626F785F 		.ascii	"box_w\000"
 16602      7700
 16603              	.LASF5:
 16604 16fa 73686F72 		.ascii	"short int\000"
 16604      7420696E 
 16604      7400
 16605              	.LASF497:
 16606 1704 795F6469 		.ascii	"y_diff\000"
 16606      666600
 16607              	.LASF62:
 16608 170b 4C565F42 		.ascii	"LV_BORDER_FULL\000"
 16608      4F524445 
 16608      525F4655 
 16608      4C4C00
 16609              	.LASF30:
 16610 171a 62617365 		.ascii	"base_line\000"
 16610      5F6C696E 
 16610      6500
 16611              	.LASF145:
 16612 1724 696E765F 		.ascii	"inv_p\000"
 16612      7000
 16613              	.LASF100:
 16614 172a 6C765F6C 		.ascii	"lv_ll_t\000"
 16614      6C5F7400 
 16615              	.LASF440:
 16616 1732 6C765F6F 		.ascii	"lv_obj_get_disp\000"
 16616      626A5F67 
 16616      65745F64 
 16616      69737000 
 16617              	.LASF491:
 16618 1742 6D6F6465 		.ascii	"mode\000"
 16618      00
 16619              	.LASF427:
 16620 1747 6576656E 		.ascii	"event_xcb\000"
 16620      745F7863 
 16620      6200
 16621              	.LASF55:
 16622 1751 6C765F70 		.ascii	"lv_point_t\000"
 16622      6F696E74 
 16622      5F7400
 16623              	.LASF199:
 16624 175c 6B657970 		.ascii	"keypad\000"
 16624      616400
 16625              	.LASF275:
 16626 1763 4C565F41 		.ascii	"LV_ALIGN_OUT_TOP_RIGHT\000"
 16626      4C49474E 
 16626      5F4F5554 
 16626      5F544F50 
ARM GAS  C:\Users\tmj32\AppData\Local\Temp\ccxLNxq9.s 			page 361


 16626      5F524947 
 16627              	.LASF38:
 16628 177a 4C565F4F 		.ascii	"LV_OPA_40\000"
 16628      50415F34 
 16628      3000
 16629              	.LASF16:
 16630 1784 696E7431 		.ascii	"int16_t\000"
 16630      365F7400 
 16631              	.LASF244:
 16632 178c 4C565F53 		.ascii	"LV_SIGNAL_CORD_CHG\000"
 16632      49474E41 
 16632      4C5F434F 
 16632      52445F43 
 16632      484700
 16633              	.LASF149:
 16634 179f 636F6F72 		.ascii	"coords\000"
 16634      647300
 16635              	.LASF508:
 16636 17a6 6C765F73 		.ascii	"lv_style_plain_color\000"
 16636      74796C65 
 16636      5F706C61 
 16636      696E5F63 
 16636      6F6C6F72 
 16637              	.LASF366:
 16638 17bb 696E6465 		.ascii	"indev\000"
 16638      7600
 16639              	.LASF142:
 16640 17c1 7379735F 		.ascii	"sys_layer\000"
 16640      6C617965 
 16640      7200
 16641              	.LASF515:
 16642 17cb 6C765F65 		.ascii	"lv_event_get_data\000"
 16642      76656E74 
 16642      5F676574 
 16642      5F646174 
 16642      6100
 16643              	.LASF341:
 16644 17dd 7370696E 		.ascii	"spinbox\000"
 16644      626F7800 
 16645              	.LASF160:
 16646 17e5 6F70615F 		.ascii	"opa_scale_en\000"
 16646      7363616C 
 16646      655F656E 
 16646      00
 16647              	.LASF319:
 16648 17f2 6461795F 		.ascii	"day_names\000"
 16648      6E616D65 
 16648      7300
 16649              	.LASF396:
 16650 17fc 62617365 		.ascii	"base_abs_y\000"
 16650      5F616273 
 16650      5F7900
 16651              	.LASF477:
 16652 1807 6C765F6F 		.ascii	"lv_obj_get_opa_scale\000"
 16652      626A5F67 
 16652      65745F6F 
 16652      70615F73 
ARM GAS  C:\Users\tmj32\AppData\Local\Temp\ccxLNxq9.s 			page 362


 16652      63616C65 
 16653              	.LASF485:
 16654 181c 6C765F6F 		.ascii	"lv_obj_handle_get_type_signal\000"
 16654      626A5F68 
 16654      616E646C 
 16654      655F6765 
 16654      745F7479 
 16655              	.LASF78:
 16656 183a 73686164 		.ascii	"shadow\000"
 16656      6F7700
 16657              	.LASF208:
 16658 1841 6C765F69 		.ascii	"lv_indev_proc_t\000"
 16658      6E646576 
 16658      5F70726F 
 16658      635F7400 
 16659              	.LASF39:
 16660 1851 4C565F4F 		.ascii	"LV_OPA_50\000"
 16660      50415F35 
 16660      3000
 16661              	.LASF457:
 16662 185b 6C765F6F 		.ascii	"lv_obj_get_width_fit\000"
 16662      626A5F67 
 16662      65745F77 
 16662      69647468 
 16662      5F666974 
 16663              	.LASF473:
 16664 1870 6C765F6F 		.ascii	"lv_obj_get_drag_parent\000"
 16664      626A5F67 
 16664      65745F64 
 16664      7261675F 
 16664      70617265 
 16665              	.LASF356:
 16666 1887 6C765F61 		.ascii	"lv_area_get_width\000"
 16666      7265615F 
 16666      6765745F 
 16666      77696474 
 16666      6800
 16667              	.LASF271:
 16668 1899 4C565F41 		.ascii	"LV_ALIGN_IN_LEFT_MID\000"
 16668      4C49474E 
 16668      5F494E5F 
 16668      4C454654 
 16668      5F4D4944 
 16669              	.LASF353:
 16670 18ae 6C765F65 		.ascii	"lv_event_temp_data_t\000"
 16670      76656E74 
 16670      5F74656D 
 16670      705F6461 
 16670      74615F74 
 16671              	.LASF158:
 16672 18c3 64726167 		.ascii	"drag_parent\000"
 16672      5F706172 
 16672      656E7400 
 16673              	.LASF471:
 16674 18cf 6C765F6F 		.ascii	"lv_obj_get_drag_dir\000"
 16674      626A5F67 
 16674      65745F64 
ARM GAS  C:\Users\tmj32\AppData\Local\Temp\ccxLNxq9.s 			page 363


 16674      7261675F 
 16674      64697200 
 16675              	.LASF185:
 16676 18e3 6C765F69 		.ascii	"lv_indev_drv_t\000"
 16676      6E646576 
 16676      5F647276 
 16676      5F7400
 16677              	.LASF247:
 16678 18f2 4C565F53 		.ascii	"LV_SIGNAL_BASE_DIR_CHG\000"
 16678      49474E41 
 16678      4C5F4241 
 16678      53455F44 
 16678      49525F43 
 16679              	.LASF441:
 16680 1909 6C765F6F 		.ascii	"lv_obj_get_parent\000"
 16680      626A5F67 
 16680      65745F70 
 16680      6172656E 
 16680      7400
 16681              	.LASF233:
 16682 191b 4C565F45 		.ascii	"LV_EVENT_DEFOCUSED\000"
 16682      56454E54 
 16682      5F444546 
 16682      4F435553 
 16682      454400
 16683              	.LASF450:
 16684 192e 636F6F72 		.ascii	"coords_p\000"
 16684      64735F70 
 16684      00
 16685              	.LASF182:
 16686 1937 64726167 		.ascii	"drag_limit\000"
 16686      5F6C696D 
 16686      697400
 16687              	.LASF135:
 16688 1942 6C765F64 		.ascii	"lv_disp_drv_t\000"
 16688      6973705F 
 16688      6472765F 
 16688      7400
 16689              	.LASF373:
 16690 1950 6F626A5F 		.ascii	"obj_coords\000"
 16690      636F6F72 
 16690      647300
 16691              	.LASF274:
 16692 195b 4C565F41 		.ascii	"LV_ALIGN_OUT_TOP_MID\000"
 16692      4C49474E 
 16692      5F4F5554 
 16692      5F544F50 
 16692      5F4D4944 
 16693              	.LASF102:
 16694 1970 4C565F42 		.ascii	"LV_BIDI_DIR_RTL\000"
 16694      4944495F 
 16694      4449525F 
 16694      52544C00 
 16695              	.LASF405:
 16696 1980 6C765F6F 		.ascii	"lv_obj_set_style\000"
 16696      626A5F73 
 16696      65745F73 
ARM GAS  C:\Users\tmj32\AppData\Local\Temp\ccxLNxq9.s 			page 364


 16696      74796C65 
 16696      00
 16697              	.LASF327:
 16698 1991 636F6E74 		.ascii	"content\000"
 16698      656E7400 
 16699              	.LASF79:
 16700 1999 70616464 		.ascii	"padding\000"
 16700      696E6700 
 16701              	.LASF151:
 16702 19a1 7369676E 		.ascii	"signal_cb\000"
 16702      616C5F63 
 16702      6200
 16703              	.LASF40:
 16704 19ab 4C565F4F 		.ascii	"LV_OPA_60\000"
 16704      50415F36 
 16704      3000
 16705              	.LASF18:
 16706 19b5 75696E74 		.ascii	"uint32_t\000"
 16706      33325F74 
 16706      00
 16707              	.LASF387:
 16708 19be 6C765F6F 		.ascii	"lv_obj_set_size\000"
 16708      626A5F73 
 16708      65745F73 
 16708      697A6500 
 16709              	.LASF377:
 16710 19ce 6C765F6F 		.ascii	"lv_obj_invalidate\000"
 16710      626A5F69 
 16710      6E76616C 
 16710      69646174 
 16710      6500
 16711              	.LASF467:
 16712 19e0 6C765F6F 		.ascii	"lv_obj_get_hidden\000"
 16712      626A5F67 
 16712      65745F68 
 16712      69646465 
 16712      6E00
 16713              	.LASF279:
 16714 19f2 4C565F41 		.ascii	"LV_ALIGN_OUT_LEFT_TOP\000"
 16714      4C49474E 
 16714      5F4F5554 
 16714      5F4C4546 
 16714      545F544F 
 16715              	.LASF500:
 16716 1a08 64656C65 		.ascii	"delete_children\000"
 16716      74655F63 
 16716      68696C64 
 16716      72656E00 
 16717              	.LASF385:
 16718 1a18 6C765F6F 		.ascii	"lv_obj_set_x\000"
 16718      626A5F73 
 16718      65745F78 
 16718      00
 16719              	.LASF386:
 16720 1a25 6C765F6F 		.ascii	"lv_obj_set_y\000"
 16720      626A5F73 
 16720      65745F79 
ARM GAS  C:\Users\tmj32\AppData\Local\Temp\ccxLNxq9.s 			page 365


 16720      00
 16721              	.LASF311:
 16722 1a32 6461726B 		.ascii	"dark\000"
 16722      00
 16723              	.LASF47:
 16724 1a37 67726565 		.ascii	"green\000"
 16724      6E00
 16725              	.LASF32:
 16726 1a3d 6C765F66 		.ascii	"lv_font_t\000"
 16726      6F6E745F 
 16726      7400
 16727              	.LASF164:
 16728 1a47 72657365 		.ascii	"reserved\000"
 16728      72766564 
 16728      00
 16729              	.LASF447:
 16730 1a50 6C765F6F 		.ascii	"lv_obj_get_coords\000"
 16730      626A5F67 
 16730      65745F63 
 16730      6F6F7264 
 16730      7300
 16731              	.LASF364:
 16732 1a62 6C765F6F 		.ascii	"lv_obj_del\000"
 16732      626A5F64 
 16732      656C00
 16733              	.LASF133:
 16734 1a6d 6D6F6E69 		.ascii	"monitor_cb\000"
 16734      746F725F 
 16734      636200
 16735              	.LASF41:
 16736 1a78 4C565F4F 		.ascii	"LV_OPA_70\000"
 16736      50415F37 
 16736      3000
 16737              	.LASF7:
 16738 1a82 73686F72 		.ascii	"short unsigned int\000"
 16738      7420756E 
 16738      7369676E 
 16738      65642069 
 16738      6E7400
 16739              	.LASF231:
 16740 1a95 4C565F45 		.ascii	"LV_EVENT_KEY\000"
 16740      56454E54 
 16740      5F4B4559 
 16740      00
 16741              	.LASF19:
 16742 1aa2 6C765F63 		.ascii	"lv_coord_t\000"
 16742      6F6F7264 
 16742      5F7400
 16743              	.LASF176:
 16744 1aad 6C765F69 		.ascii	"lv_indev_data_t\000"
 16744      6E646576 
 16744      5F646174 
 16744      615F7400 
 16745              	.LASF130:
 16746 1abd 666C7573 		.ascii	"flush_cb\000"
 16746      685F6362 
 16746      00
ARM GAS  C:\Users\tmj32\AppData\Local\Temp\ccxLNxq9.s 			page 366


 16747              	.LASF114:
 16748 1ac6 75736572 		.ascii	"user_data\000"
 16748      5F646174 
 16748      6100
 16749              	.LASF222:
 16750 1ad0 4C565F45 		.ascii	"LV_EVENT_PRESS_LOST\000"
 16750      56454E54 
 16750      5F505245 
 16750      53535F4C 
 16750      4F535400 
 16751              	.LASF391:
 16752 1ae4 785F6D6F 		.ascii	"x_mod\000"
 16752      6400
 16753              	.LASF77:
 16754 1aea 626F7264 		.ascii	"border\000"
 16754      657200
 16755              	.LASF331:
 16756 1af1 6C616265 		.ascii	"label\000"
 16756      6C00
 16757              	.LASF27:
 16758 1af7 6765745F 		.ascii	"get_glyph_dsc\000"
 16758      676C7970 
 16758      685F6473 
 16758      6300
 16759              	.LASF332:
 16760 1b05 736C6964 		.ascii	"slider\000"
 16760      657200
 16761              	.LASF64:
 16762 1b0c 6C765F62 		.ascii	"lv_border_part_t\000"
 16762      6F726465 
 16762      725F7061 
 16762      72745F74 
 16762      00
 16763              	.LASF204:
 16764 1b1d 6C6F6E67 		.ascii	"long_pr_sent\000"
 16764      5F70725F 
 16764      73656E74 
 16764      00
 16765              	.LASF42:
 16766 1b2a 4C565F4F 		.ascii	"LV_OPA_80\000"
 16766      50415F38 
 16766      3000
 16767              	.LASF335:
 16768 1b34 7072656C 		.ascii	"preload\000"
 16768      6F616400 
 16769              	.LASF368:
 16770 1b3c 6C765F6F 		.ascii	"lv_obj_clean\000"
 16770      626A5F63 
 16770      6C65616E 
 16770      00
 16771              	.LASF291:
 16772 1b49 6F726967 		.ascii	"origo_align\000"
 16772      6F5F616C 
 16772      69676E00 
 16773              	.LASF314:
 16774 1b55 6B6E6F62 		.ascii	"knob\000"
 16774      00
ARM GAS  C:\Users\tmj32\AppData\Local\Temp\ccxLNxq9.s 			page 367


 16775              	.LASF80:
 16776 1b5a 73656C5F 		.ascii	"sel_color\000"
 16776      636F6C6F 
 16776      7200
 16777              	.LASF108:
 16778 1b64 6C765F74 		.ascii	"lv_task_cb_t\000"
 16778      61736B5F 
 16778      63625F74 
 16778      00
 16779              	.LASF425:
 16780 1b71 64617461 		.ascii	"data\000"
 16780      00
 16781              	.LASF416:
 16782 1b76 6C765F6F 		.ascii	"lv_obj_set_base_dir\000"
 16782      626A5F73 
 16782      65745F62 
 16782      6173655F 
 16782      64697200 
 16783              	.LASF109:
 16784 1b8a 5F6C765F 		.ascii	"_lv_font_struct\000"
 16784      666F6E74 
 16784      5F737472 
 16784      75637400 
 16785              	.LASF201:
 16786 1b9a 74797065 		.ascii	"types\000"
 16786      7300
 16787              	.LASF372:
 16788 1ba0 6F626A5F 		.ascii	"obj_scr\000"
 16788      73637200 
 16789              	.LASF68:
 16790 1ba8 70617274 		.ascii	"part\000"
 16790      00
 16791              	.LASF352:
 16792 1bad 70726576 		.ascii	"prev\000"
 16792      00
 16793              	.LASF97:
 16794 1bb2 6E5F7369 		.ascii	"n_size\000"
 16794      7A6500
 16795              	.LASF490:
 16796 1bb9 6D61736B 		.ascii	"mask_p\000"
 16796      5F7000
 16797              	.LASF211:
 16798 1bc0 63757273 		.ascii	"cursor\000"
 16798      6F7200
 16799              	.LASF305:
 16800 1bc7 6C765F6F 		.ascii	"lv_obj_type_t\000"
 16800      626A5F74 
 16800      7970655F 
 16800      7400
 16801              	.LASF514:
 16802 1bd5 5F6C765F 		.ascii	"_lv_group_t\000"
 16802      67726F75 
 16802      705F7400 
 16803              	.LASF227:
 16804 1be1 4C565F45 		.ascii	"LV_EVENT_RELEASED\000"
 16804      56454E54 
 16804      5F52454C 
ARM GAS  C:\Users\tmj32\AppData\Local\Temp\ccxLNxq9.s 			page 368


 16804      45415345 
 16804      4400
 16805              	.LASF219:
 16806 1bf3 6C765F64 		.ascii	"lv_design_cb_t\000"
 16806      65736967 
 16806      6E5F6362 
 16806      5F7400
 16807              	.LASF43:
 16808 1c02 4C565F4F 		.ascii	"LV_OPA_90\000"
 16808      50415F39 
 16808      3000
 16809              	.LASF166:
 16810 1c0c 6F70615F 		.ascii	"opa_scale\000"
 16810      7363616C 
 16810      6500
 16811              	.LASF344:
 16812 1c16 726F6C6C 		.ascii	"roller\000"
 16812      657200
 16813              		.ident	"GCC: (GNU Tools for ARM Embedded Processors) 5.4.1 20160609 (release) [ARM/embedded-5-bran
