ARM GAS  C:\Users\tmj32\AppData\Local\Temp\ccFKuFvs.s 			page 1


   1              		.syntax unified
   2              		.cpu cortex-m4
   3              		.eabi_attribute 27, 1
   4              		.fpu fpv4-sp-d16
   5              		.eabi_attribute 20, 1
   6              		.eabi_attribute 21, 1
   7              		.eabi_attribute 23, 3
   8              		.eabi_attribute 24, 1
   9              		.eabi_attribute 25, 1
  10              		.eabi_attribute 26, 1
  11              		.eabi_attribute 30, 6
  12              		.eabi_attribute 34, 1
  13              		.eabi_attribute 18, 4
  14              		.thumb
  15              		.syntax unified
  16              		.file	"lv_page.c"
  17              		.text
  18              	.Ltext0:
  19              		.cfi_sections	.debug_frame
  20              		.section	.text.lv_area_copy,"ax",%progbits
  21              		.align	2
  22              		.thumb
  23              		.thumb_func
  24              		.type	lv_area_copy, %function
  25              	lv_area_copy:
  26              	.LFB10:
  27              		.file 1 "..\\..\\..\\lvgl\\version_6.1.2\\lvgl\\src\\lv_objx\\../lv_objx/../lv_core/../lv_misc/lv_
   1:..\..\..\lvgl\version_6.1.2\lvgl\src\lv_objx\../lv_objx/../lv_core/../lv_misc/lv_area.h **** /**
   2:..\..\..\lvgl\version_6.1.2\lvgl\src\lv_objx\../lv_objx/../lv_core/../lv_misc/lv_area.h ****  * @file lv_area.h
   3:..\..\..\lvgl\version_6.1.2\lvgl\src\lv_objx\../lv_objx/../lv_core/../lv_misc/lv_area.h ****  *
   4:..\..\..\lvgl\version_6.1.2\lvgl\src\lv_objx\../lv_objx/../lv_core/../lv_misc/lv_area.h ****  */
   5:..\..\..\lvgl\version_6.1.2\lvgl\src\lv_objx\../lv_objx/../lv_core/../lv_misc/lv_area.h **** 
   6:..\..\..\lvgl\version_6.1.2\lvgl\src\lv_objx\../lv_objx/../lv_core/../lv_misc/lv_area.h **** #ifndef LV_AREA_H
   7:..\..\..\lvgl\version_6.1.2\lvgl\src\lv_objx\../lv_objx/../lv_core/../lv_misc/lv_area.h **** #define LV_AREA_H
   8:..\..\..\lvgl\version_6.1.2\lvgl\src\lv_objx\../lv_objx/../lv_core/../lv_misc/lv_area.h **** 
   9:..\..\..\lvgl\version_6.1.2\lvgl\src\lv_objx\../lv_objx/../lv_core/../lv_misc/lv_area.h **** #ifdef __cplusplus
  10:..\..\..\lvgl\version_6.1.2\lvgl\src\lv_objx\../lv_objx/../lv_core/../lv_misc/lv_area.h **** extern "C" {
  11:..\..\..\lvgl\version_6.1.2\lvgl\src\lv_objx\../lv_objx/../lv_core/../lv_misc/lv_area.h **** #endif
  12:..\..\..\lvgl\version_6.1.2\lvgl\src\lv_objx\../lv_objx/../lv_core/../lv_misc/lv_area.h **** 
  13:..\..\..\lvgl\version_6.1.2\lvgl\src\lv_objx\../lv_objx/../lv_core/../lv_misc/lv_area.h **** /*********************
  14:..\..\..\lvgl\version_6.1.2\lvgl\src\lv_objx\../lv_objx/../lv_core/../lv_misc/lv_area.h ****  *      INCLUDES
  15:..\..\..\lvgl\version_6.1.2\lvgl\src\lv_objx\../lv_objx/../lv_core/../lv_misc/lv_area.h ****  *********************/
  16:..\..\..\lvgl\version_6.1.2\lvgl\src\lv_objx\../lv_objx/../lv_core/../lv_misc/lv_area.h **** #include <string.h>
  17:..\..\..\lvgl\version_6.1.2\lvgl\src\lv_objx\../lv_objx/../lv_core/../lv_misc/lv_area.h **** #include <stdbool.h>
  18:..\..\..\lvgl\version_6.1.2\lvgl\src\lv_objx\../lv_objx/../lv_core/../lv_misc/lv_area.h **** #include <stdint.h>
  19:..\..\..\lvgl\version_6.1.2\lvgl\src\lv_objx\../lv_objx/../lv_core/../lv_misc/lv_area.h **** #ifdef LV_CONF_INCLUDE_SIMPLE
  20:..\..\..\lvgl\version_6.1.2\lvgl\src\lv_objx\../lv_objx/../lv_core/../lv_misc/lv_area.h **** #include "lv_conf.h"
  21:..\..\..\lvgl\version_6.1.2\lvgl\src\lv_objx\../lv_objx/../lv_core/../lv_misc/lv_area.h **** #else
  22:..\..\..\lvgl\version_6.1.2\lvgl\src\lv_objx\../lv_objx/../lv_core/../lv_misc/lv_area.h **** #include "../../../lv_conf.h"
  23:..\..\..\lvgl\version_6.1.2\lvgl\src\lv_objx\../lv_objx/../lv_core/../lv_misc/lv_area.h **** #endif
  24:..\..\..\lvgl\version_6.1.2\lvgl\src\lv_objx\../lv_objx/../lv_core/../lv_misc/lv_area.h **** 
  25:..\..\..\lvgl\version_6.1.2\lvgl\src\lv_objx\../lv_objx/../lv_core/../lv_misc/lv_area.h **** /*********************
  26:..\..\..\lvgl\version_6.1.2\lvgl\src\lv_objx\../lv_objx/../lv_core/../lv_misc/lv_area.h ****  *      DEFINES
  27:..\..\..\lvgl\version_6.1.2\lvgl\src\lv_objx\../lv_objx/../lv_core/../lv_misc/lv_area.h ****  *********************/
  28:..\..\..\lvgl\version_6.1.2\lvgl\src\lv_objx\../lv_objx/../lv_core/../lv_misc/lv_area.h **** /*To avoid overflow don't let the max ranges (reduce with 1000) */
  29:..\..\..\lvgl\version_6.1.2\lvgl\src\lv_objx\../lv_objx/../lv_core/../lv_misc/lv_area.h **** #define LV_COORD_MAX ((lv_coord_t)((uint32_t)((uint32_t)1 << (8 * sizeof(lv_coord_t) - 1)) - 1000))
  30:..\..\..\lvgl\version_6.1.2\lvgl\src\lv_objx\../lv_objx/../lv_core/../lv_misc/lv_area.h **** #define LV_COORD_MIN (-LV_COORD_MAX)
ARM GAS  C:\Users\tmj32\AppData\Local\Temp\ccFKuFvs.s 			page 2


  31:..\..\..\lvgl\version_6.1.2\lvgl\src\lv_objx\../lv_objx/../lv_core/../lv_misc/lv_area.h **** 
  32:..\..\..\lvgl\version_6.1.2\lvgl\src\lv_objx\../lv_objx/../lv_core/../lv_misc/lv_area.h **** LV_EXPORT_CONST_INT(LV_COORD_MAX);
  33:..\..\..\lvgl\version_6.1.2\lvgl\src\lv_objx\../lv_objx/../lv_core/../lv_misc/lv_area.h **** LV_EXPORT_CONST_INT(LV_COORD_MIN);
  34:..\..\..\lvgl\version_6.1.2\lvgl\src\lv_objx\../lv_objx/../lv_core/../lv_misc/lv_area.h **** 
  35:..\..\..\lvgl\version_6.1.2\lvgl\src\lv_objx\../lv_objx/../lv_core/../lv_misc/lv_area.h **** /**********************
  36:..\..\..\lvgl\version_6.1.2\lvgl\src\lv_objx\../lv_objx/../lv_core/../lv_misc/lv_area.h ****  *      TYPEDEFS
  37:..\..\..\lvgl\version_6.1.2\lvgl\src\lv_objx\../lv_objx/../lv_core/../lv_misc/lv_area.h ****  **********************/
  38:..\..\..\lvgl\version_6.1.2\lvgl\src\lv_objx\../lv_objx/../lv_core/../lv_misc/lv_area.h **** 
  39:..\..\..\lvgl\version_6.1.2\lvgl\src\lv_objx\../lv_objx/../lv_core/../lv_misc/lv_area.h **** /**
  40:..\..\..\lvgl\version_6.1.2\lvgl\src\lv_objx\../lv_objx/../lv_core/../lv_misc/lv_area.h ****  * Represents a point on the screen.
  41:..\..\..\lvgl\version_6.1.2\lvgl\src\lv_objx\../lv_objx/../lv_core/../lv_misc/lv_area.h ****  */
  42:..\..\..\lvgl\version_6.1.2\lvgl\src\lv_objx\../lv_objx/../lv_core/../lv_misc/lv_area.h **** typedef struct
  43:..\..\..\lvgl\version_6.1.2\lvgl\src\lv_objx\../lv_objx/../lv_core/../lv_misc/lv_area.h **** {
  44:..\..\..\lvgl\version_6.1.2\lvgl\src\lv_objx\../lv_objx/../lv_core/../lv_misc/lv_area.h ****     lv_coord_t x;
  45:..\..\..\lvgl\version_6.1.2\lvgl\src\lv_objx\../lv_objx/../lv_core/../lv_misc/lv_area.h ****     lv_coord_t y;
  46:..\..\..\lvgl\version_6.1.2\lvgl\src\lv_objx\../lv_objx/../lv_core/../lv_misc/lv_area.h **** } lv_point_t;
  47:..\..\..\lvgl\version_6.1.2\lvgl\src\lv_objx\../lv_objx/../lv_core/../lv_misc/lv_area.h **** 
  48:..\..\..\lvgl\version_6.1.2\lvgl\src\lv_objx\../lv_objx/../lv_core/../lv_misc/lv_area.h **** /** Represents an area of the screen. */
  49:..\..\..\lvgl\version_6.1.2\lvgl\src\lv_objx\../lv_objx/../lv_core/../lv_misc/lv_area.h **** typedef struct
  50:..\..\..\lvgl\version_6.1.2\lvgl\src\lv_objx\../lv_objx/../lv_core/../lv_misc/lv_area.h **** {
  51:..\..\..\lvgl\version_6.1.2\lvgl\src\lv_objx\../lv_objx/../lv_core/../lv_misc/lv_area.h ****     lv_coord_t x1;
  52:..\..\..\lvgl\version_6.1.2\lvgl\src\lv_objx\../lv_objx/../lv_core/../lv_misc/lv_area.h ****     lv_coord_t y1;
  53:..\..\..\lvgl\version_6.1.2\lvgl\src\lv_objx\../lv_objx/../lv_core/../lv_misc/lv_area.h ****     lv_coord_t x2;
  54:..\..\..\lvgl\version_6.1.2\lvgl\src\lv_objx\../lv_objx/../lv_core/../lv_misc/lv_area.h ****     lv_coord_t y2;
  55:..\..\..\lvgl\version_6.1.2\lvgl\src\lv_objx\../lv_objx/../lv_core/../lv_misc/lv_area.h **** } lv_area_t;
  56:..\..\..\lvgl\version_6.1.2\lvgl\src\lv_objx\../lv_objx/../lv_core/../lv_misc/lv_area.h **** 
  57:..\..\..\lvgl\version_6.1.2\lvgl\src\lv_objx\../lv_objx/../lv_core/../lv_misc/lv_area.h **** /**********************
  58:..\..\..\lvgl\version_6.1.2\lvgl\src\lv_objx\../lv_objx/../lv_core/../lv_misc/lv_area.h ****  * GLOBAL PROTOTYPES
  59:..\..\..\lvgl\version_6.1.2\lvgl\src\lv_objx\../lv_objx/../lv_core/../lv_misc/lv_area.h ****  **********************/
  60:..\..\..\lvgl\version_6.1.2\lvgl\src\lv_objx\../lv_objx/../lv_core/../lv_misc/lv_area.h **** 
  61:..\..\..\lvgl\version_6.1.2\lvgl\src\lv_objx\../lv_objx/../lv_core/../lv_misc/lv_area.h **** /**
  62:..\..\..\lvgl\version_6.1.2\lvgl\src\lv_objx\../lv_objx/../lv_core/../lv_misc/lv_area.h ****  * Initialize an area
  63:..\..\..\lvgl\version_6.1.2\lvgl\src\lv_objx\../lv_objx/../lv_core/../lv_misc/lv_area.h ****  * @param area_p pointer to an area
  64:..\..\..\lvgl\version_6.1.2\lvgl\src\lv_objx\../lv_objx/../lv_core/../lv_misc/lv_area.h ****  * @param x1 left coordinate of the area
  65:..\..\..\lvgl\version_6.1.2\lvgl\src\lv_objx\../lv_objx/../lv_core/../lv_misc/lv_area.h ****  * @param y1 top coordinate of the area
  66:..\..\..\lvgl\version_6.1.2\lvgl\src\lv_objx\../lv_objx/../lv_core/../lv_misc/lv_area.h ****  * @param x2 right coordinate of the area
  67:..\..\..\lvgl\version_6.1.2\lvgl\src\lv_objx\../lv_objx/../lv_core/../lv_misc/lv_area.h ****  * @param y2 bottom coordinate of the area
  68:..\..\..\lvgl\version_6.1.2\lvgl\src\lv_objx\../lv_objx/../lv_core/../lv_misc/lv_area.h ****  */
  69:..\..\..\lvgl\version_6.1.2\lvgl\src\lv_objx\../lv_objx/../lv_core/../lv_misc/lv_area.h **** void lv_area_set(lv_area_t * area_p, lv_coord_t x1, lv_coord_t y1, lv_coord_t x2, lv_coord_t y2);
  70:..\..\..\lvgl\version_6.1.2\lvgl\src\lv_objx\../lv_objx/../lv_core/../lv_misc/lv_area.h **** 
  71:..\..\..\lvgl\version_6.1.2\lvgl\src\lv_objx\../lv_objx/../lv_core/../lv_misc/lv_area.h **** /**
  72:..\..\..\lvgl\version_6.1.2\lvgl\src\lv_objx\../lv_objx/../lv_core/../lv_misc/lv_area.h ****  * Copy an area
  73:..\..\..\lvgl\version_6.1.2\lvgl\src\lv_objx\../lv_objx/../lv_core/../lv_misc/lv_area.h ****  * @param dest pointer to the destination area
  74:..\..\..\lvgl\version_6.1.2\lvgl\src\lv_objx\../lv_objx/../lv_core/../lv_misc/lv_area.h ****  * @param src pointer to the source area
  75:..\..\..\lvgl\version_6.1.2\lvgl\src\lv_objx\../lv_objx/../lv_core/../lv_misc/lv_area.h ****  */
  76:..\..\..\lvgl\version_6.1.2\lvgl\src\lv_objx\../lv_objx/../lv_core/../lv_misc/lv_area.h **** inline static void lv_area_copy(lv_area_t * dest, const lv_area_t * src)
  77:..\..\..\lvgl\version_6.1.2\lvgl\src\lv_objx\../lv_objx/../lv_core/../lv_misc/lv_area.h **** {
  28              		.loc 1 77 0
  29              		.cfi_startproc
  30              		@ args = 0, pretend = 0, frame = 8
  31              		@ frame_needed = 1, uses_anonymous_args = 0
  32 0000 80B5     		push	{r7, lr}
  33              		.cfi_def_cfa_offset 8
  34              		.cfi_offset 7, -8
  35              		.cfi_offset 14, -4
  36 0002 82B0     		sub	sp, sp, #8
  37              		.cfi_def_cfa_offset 16
ARM GAS  C:\Users\tmj32\AppData\Local\Temp\ccFKuFvs.s 			page 3


  38 0004 00AF     		add	r7, sp, #0
  39              		.cfi_def_cfa_register 7
  40 0006 7860     		str	r0, [r7, #4]
  41 0008 3960     		str	r1, [r7]
  78:..\..\..\lvgl\version_6.1.2\lvgl\src\lv_objx\../lv_objx/../lv_core/../lv_misc/lv_area.h ****     memcpy(dest, src, sizeof(lv_area_t));
  42              		.loc 1 78 0
  43 000a 0822     		movs	r2, #8
  44 000c 3968     		ldr	r1, [r7]
  45 000e 7868     		ldr	r0, [r7, #4]
  46 0010 FFF7FEFF 		bl	memcpy
  79:..\..\..\lvgl\version_6.1.2\lvgl\src\lv_objx\../lv_objx/../lv_core/../lv_misc/lv_area.h **** }
  47              		.loc 1 79 0
  48 0014 00BF     		nop
  49 0016 0837     		adds	r7, r7, #8
  50              		.cfi_def_cfa_offset 8
  51 0018 BD46     		mov	sp, r7
  52              		.cfi_def_cfa_register 13
  53              		@ sp needed
  54 001a 80BD     		pop	{r7, pc}
  55              		.cfi_endproc
  56              	.LFE10:
  57              		.size	lv_area_copy, .-lv_area_copy
  58              		.section	.text.lv_area_get_width,"ax",%progbits
  59              		.align	2
  60              		.thumb
  61              		.thumb_func
  62              		.type	lv_area_get_width, %function
  63              	lv_area_get_width:
  64              	.LFB11:
  80:..\..\..\lvgl\version_6.1.2\lvgl\src\lv_objx\../lv_objx/../lv_core/../lv_misc/lv_area.h **** 
  81:..\..\..\lvgl\version_6.1.2\lvgl\src\lv_objx\../lv_objx/../lv_core/../lv_misc/lv_area.h **** /**
  82:..\..\..\lvgl\version_6.1.2\lvgl\src\lv_objx\../lv_objx/../lv_core/../lv_misc/lv_area.h ****  * Get the width of an area
  83:..\..\..\lvgl\version_6.1.2\lvgl\src\lv_objx\../lv_objx/../lv_core/../lv_misc/lv_area.h ****  * @param area_p pointer to an area
  84:..\..\..\lvgl\version_6.1.2\lvgl\src\lv_objx\../lv_objx/../lv_core/../lv_misc/lv_area.h ****  * @return the width of the area (if x1 == x2 -> width = 1)
  85:..\..\..\lvgl\version_6.1.2\lvgl\src\lv_objx\../lv_objx/../lv_core/../lv_misc/lv_area.h ****  */
  86:..\..\..\lvgl\version_6.1.2\lvgl\src\lv_objx\../lv_objx/../lv_core/../lv_misc/lv_area.h **** static inline lv_coord_t lv_area_get_width(const lv_area_t * area_p)
  87:..\..\..\lvgl\version_6.1.2\lvgl\src\lv_objx\../lv_objx/../lv_core/../lv_misc/lv_area.h **** {
  65              		.loc 1 87 0
  66              		.cfi_startproc
  67              		@ args = 0, pretend = 0, frame = 8
  68              		@ frame_needed = 1, uses_anonymous_args = 0
  69              		@ link register save eliminated.
  70 0000 80B4     		push	{r7}
  71              		.cfi_def_cfa_offset 4
  72              		.cfi_offset 7, -4
  73 0002 83B0     		sub	sp, sp, #12
  74              		.cfi_def_cfa_offset 16
  75 0004 00AF     		add	r7, sp, #0
  76              		.cfi_def_cfa_register 7
  77 0006 7860     		str	r0, [r7, #4]
  88:..\..\..\lvgl\version_6.1.2\lvgl\src\lv_objx\../lv_objx/../lv_core/../lv_misc/lv_area.h ****     return (lv_coord_t)(area_p->x2 - area_p->x1 + 1);
  78              		.loc 1 88 0
  79 0008 7B68     		ldr	r3, [r7, #4]
  80 000a B3F90430 		ldrsh	r3, [r3, #4]
  81 000e 9AB2     		uxth	r2, r3
  82 0010 7B68     		ldr	r3, [r7, #4]
  83 0012 B3F90030 		ldrsh	r3, [r3]
ARM GAS  C:\Users\tmj32\AppData\Local\Temp\ccFKuFvs.s 			page 4


  84 0016 9BB2     		uxth	r3, r3
  85 0018 D31A     		subs	r3, r2, r3
  86 001a 9BB2     		uxth	r3, r3
  87 001c 0133     		adds	r3, r3, #1
  88 001e 9BB2     		uxth	r3, r3
  89 0020 1BB2     		sxth	r3, r3
  89:..\..\..\lvgl\version_6.1.2\lvgl\src\lv_objx\../lv_objx/../lv_core/../lv_misc/lv_area.h **** }
  90              		.loc 1 89 0
  91 0022 1846     		mov	r0, r3
  92 0024 0C37     		adds	r7, r7, #12
  93              		.cfi_def_cfa_offset 4
  94 0026 BD46     		mov	sp, r7
  95              		.cfi_def_cfa_register 13
  96              		@ sp needed
  97 0028 5DF8047B 		ldr	r7, [sp], #4
  98              		.cfi_restore 7
  99              		.cfi_def_cfa_offset 0
 100 002c 7047     		bx	lr
 101              		.cfi_endproc
 102              	.LFE11:
 103              		.size	lv_area_get_width, .-lv_area_get_width
 104 002e 00BF     		.section	.text.lv_area_get_height,"ax",%progbits
 105              		.align	2
 106              		.thumb
 107              		.thumb_func
 108              		.type	lv_area_get_height, %function
 109              	lv_area_get_height:
 110              	.LFB12:
  90:..\..\..\lvgl\version_6.1.2\lvgl\src\lv_objx\../lv_objx/../lv_core/../lv_misc/lv_area.h **** 
  91:..\..\..\lvgl\version_6.1.2\lvgl\src\lv_objx\../lv_objx/../lv_core/../lv_misc/lv_area.h **** /**
  92:..\..\..\lvgl\version_6.1.2\lvgl\src\lv_objx\../lv_objx/../lv_core/../lv_misc/lv_area.h ****  * Get the height of an area
  93:..\..\..\lvgl\version_6.1.2\lvgl\src\lv_objx\../lv_objx/../lv_core/../lv_misc/lv_area.h ****  * @param area_p pointer to an area
  94:..\..\..\lvgl\version_6.1.2\lvgl\src\lv_objx\../lv_objx/../lv_core/../lv_misc/lv_area.h ****  * @return the height of the area (if y1 == y2 -> height = 1)
  95:..\..\..\lvgl\version_6.1.2\lvgl\src\lv_objx\../lv_objx/../lv_core/../lv_misc/lv_area.h ****  */
  96:..\..\..\lvgl\version_6.1.2\lvgl\src\lv_objx\../lv_objx/../lv_core/../lv_misc/lv_area.h **** static inline lv_coord_t lv_area_get_height(const lv_area_t * area_p)
  97:..\..\..\lvgl\version_6.1.2\lvgl\src\lv_objx\../lv_objx/../lv_core/../lv_misc/lv_area.h **** {
 111              		.loc 1 97 0
 112              		.cfi_startproc
 113              		@ args = 0, pretend = 0, frame = 8
 114              		@ frame_needed = 1, uses_anonymous_args = 0
 115              		@ link register save eliminated.
 116 0000 80B4     		push	{r7}
 117              		.cfi_def_cfa_offset 4
 118              		.cfi_offset 7, -4
 119 0002 83B0     		sub	sp, sp, #12
 120              		.cfi_def_cfa_offset 16
 121 0004 00AF     		add	r7, sp, #0
 122              		.cfi_def_cfa_register 7
 123 0006 7860     		str	r0, [r7, #4]
  98:..\..\..\lvgl\version_6.1.2\lvgl\src\lv_objx\../lv_objx/../lv_core/../lv_misc/lv_area.h ****     return (lv_coord_t)(area_p->y2 - area_p->y1 + 1);
 124              		.loc 1 98 0
 125 0008 7B68     		ldr	r3, [r7, #4]
 126 000a B3F90630 		ldrsh	r3, [r3, #6]
 127 000e 9AB2     		uxth	r2, r3
 128 0010 7B68     		ldr	r3, [r7, #4]
 129 0012 B3F90230 		ldrsh	r3, [r3, #2]
 130 0016 9BB2     		uxth	r3, r3
ARM GAS  C:\Users\tmj32\AppData\Local\Temp\ccFKuFvs.s 			page 5


 131 0018 D31A     		subs	r3, r2, r3
 132 001a 9BB2     		uxth	r3, r3
 133 001c 0133     		adds	r3, r3, #1
 134 001e 9BB2     		uxth	r3, r3
 135 0020 1BB2     		sxth	r3, r3
  99:..\..\..\lvgl\version_6.1.2\lvgl\src\lv_objx\../lv_objx/../lv_core/../lv_misc/lv_area.h **** }
 136              		.loc 1 99 0
 137 0022 1846     		mov	r0, r3
 138 0024 0C37     		adds	r7, r7, #12
 139              		.cfi_def_cfa_offset 4
 140 0026 BD46     		mov	sp, r7
 141              		.cfi_def_cfa_register 13
 142              		@ sp needed
 143 0028 5DF8047B 		ldr	r7, [sp], #4
 144              		.cfi_restore 7
 145              		.cfi_def_cfa_offset 0
 146 002c 7047     		bx	lr
 147              		.cfi_endproc
 148              	.LFE12:
 149              		.size	lv_area_get_height, .-lv_area_get_height
 150 002e 00BF     		.section	.text.lv_page_get_scrl_width,"ax",%progbits
 151              		.align	2
 152              		.thumb
 153              		.thumb_func
 154              		.type	lv_page_get_scrl_width, %function
 155              	lv_page_get_scrl_width:
 156              	.LFB41:
 157              		.file 2 "..\\..\\..\\lvgl\\version_6.1.2\\lvgl\\src\\lv_objx\\../lv_objx/lv_page.h"
   1:..\..\..\lvgl\version_6.1.2\lvgl\src\lv_objx\../lv_objx/lv_page.h **** /**
   2:..\..\..\lvgl\version_6.1.2\lvgl\src\lv_objx\../lv_objx/lv_page.h ****  * @file lv_page.h
   3:..\..\..\lvgl\version_6.1.2\lvgl\src\lv_objx\../lv_objx/lv_page.h ****  *
   4:..\..\..\lvgl\version_6.1.2\lvgl\src\lv_objx\../lv_objx/lv_page.h ****  */
   5:..\..\..\lvgl\version_6.1.2\lvgl\src\lv_objx\../lv_objx/lv_page.h **** 
   6:..\..\..\lvgl\version_6.1.2\lvgl\src\lv_objx\../lv_objx/lv_page.h **** #ifndef LV_PAGE_H
   7:..\..\..\lvgl\version_6.1.2\lvgl\src\lv_objx\../lv_objx/lv_page.h **** #define LV_PAGE_H
   8:..\..\..\lvgl\version_6.1.2\lvgl\src\lv_objx\../lv_objx/lv_page.h **** 
   9:..\..\..\lvgl\version_6.1.2\lvgl\src\lv_objx\../lv_objx/lv_page.h **** #ifdef __cplusplus
  10:..\..\..\lvgl\version_6.1.2\lvgl\src\lv_objx\../lv_objx/lv_page.h **** extern "C" {
  11:..\..\..\lvgl\version_6.1.2\lvgl\src\lv_objx\../lv_objx/lv_page.h **** #endif
  12:..\..\..\lvgl\version_6.1.2\lvgl\src\lv_objx\../lv_objx/lv_page.h **** 
  13:..\..\..\lvgl\version_6.1.2\lvgl\src\lv_objx\../lv_objx/lv_page.h **** /*********************
  14:..\..\..\lvgl\version_6.1.2\lvgl\src\lv_objx\../lv_objx/lv_page.h ****  *      INCLUDES
  15:..\..\..\lvgl\version_6.1.2\lvgl\src\lv_objx\../lv_objx/lv_page.h ****  *********************/
  16:..\..\..\lvgl\version_6.1.2\lvgl\src\lv_objx\../lv_objx/lv_page.h **** #ifdef LV_CONF_INCLUDE_SIMPLE
  17:..\..\..\lvgl\version_6.1.2\lvgl\src\lv_objx\../lv_objx/lv_page.h **** #include "lv_conf.h"
  18:..\..\..\lvgl\version_6.1.2\lvgl\src\lv_objx\../lv_objx/lv_page.h **** #else
  19:..\..\..\lvgl\version_6.1.2\lvgl\src\lv_objx\../lv_objx/lv_page.h **** #include "../../../lv_conf.h"
  20:..\..\..\lvgl\version_6.1.2\lvgl\src\lv_objx\../lv_objx/lv_page.h **** #endif
  21:..\..\..\lvgl\version_6.1.2\lvgl\src\lv_objx\../lv_objx/lv_page.h **** 
  22:..\..\..\lvgl\version_6.1.2\lvgl\src\lv_objx\../lv_objx/lv_page.h **** #if LV_USE_PAGE != 0
  23:..\..\..\lvgl\version_6.1.2\lvgl\src\lv_objx\../lv_objx/lv_page.h **** 
  24:..\..\..\lvgl\version_6.1.2\lvgl\src\lv_objx\../lv_objx/lv_page.h **** /*Testing of dependencies*/
  25:..\..\..\lvgl\version_6.1.2\lvgl\src\lv_objx\../lv_objx/lv_page.h **** #if LV_USE_CONT == 0
  26:..\..\..\lvgl\version_6.1.2\lvgl\src\lv_objx\../lv_objx/lv_page.h **** #error "lv_page: lv_cont is required. Enable it in lv_conf.h (LV_USE_CONT  1) "
  27:..\..\..\lvgl\version_6.1.2\lvgl\src\lv_objx\../lv_objx/lv_page.h **** #endif
  28:..\..\..\lvgl\version_6.1.2\lvgl\src\lv_objx\../lv_objx/lv_page.h **** 
  29:..\..\..\lvgl\version_6.1.2\lvgl\src\lv_objx\../lv_objx/lv_page.h **** #include "lv_cont.h"
ARM GAS  C:\Users\tmj32\AppData\Local\Temp\ccFKuFvs.s 			page 6


  30:..\..\..\lvgl\version_6.1.2\lvgl\src\lv_objx\../lv_objx/lv_page.h **** #include "../lv_core/lv_indev.h"
  31:..\..\..\lvgl\version_6.1.2\lvgl\src\lv_objx\../lv_objx/lv_page.h **** #include "../lv_misc/lv_anim.h"
  32:..\..\..\lvgl\version_6.1.2\lvgl\src\lv_objx\../lv_objx/lv_page.h **** 
  33:..\..\..\lvgl\version_6.1.2\lvgl\src\lv_objx\../lv_objx/lv_page.h **** /*********************
  34:..\..\..\lvgl\version_6.1.2\lvgl\src\lv_objx\../lv_objx/lv_page.h ****  *      DEFINES
  35:..\..\..\lvgl\version_6.1.2\lvgl\src\lv_objx\../lv_objx/lv_page.h ****  *********************/
  36:..\..\..\lvgl\version_6.1.2\lvgl\src\lv_objx\../lv_objx/lv_page.h **** 
  37:..\..\..\lvgl\version_6.1.2\lvgl\src\lv_objx\../lv_objx/lv_page.h **** /**********************
  38:..\..\..\lvgl\version_6.1.2\lvgl\src\lv_objx\../lv_objx/lv_page.h ****  *      TYPEDEFS
  39:..\..\..\lvgl\version_6.1.2\lvgl\src\lv_objx\../lv_objx/lv_page.h ****  **********************/
  40:..\..\..\lvgl\version_6.1.2\lvgl\src\lv_objx\../lv_objx/lv_page.h **** 
  41:..\..\..\lvgl\version_6.1.2\lvgl\src\lv_objx\../lv_objx/lv_page.h **** /** Scrollbar modes: shows when should the scrollbars be visible*/
  42:..\..\..\lvgl\version_6.1.2\lvgl\src\lv_objx\../lv_objx/lv_page.h **** enum {
  43:..\..\..\lvgl\version_6.1.2\lvgl\src\lv_objx\../lv_objx/lv_page.h ****     LV_SB_MODE_OFF    = 0x0, /**< Never show scrollbars*/
  44:..\..\..\lvgl\version_6.1.2\lvgl\src\lv_objx\../lv_objx/lv_page.h ****     LV_SB_MODE_ON     = 0x1, /**< Always show scrollbars*/
  45:..\..\..\lvgl\version_6.1.2\lvgl\src\lv_objx\../lv_objx/lv_page.h ****     LV_SB_MODE_DRAG   = 0x2, /**< Show scrollbars when page is being dragged*/
  46:..\..\..\lvgl\version_6.1.2\lvgl\src\lv_objx\../lv_objx/lv_page.h ****     LV_SB_MODE_AUTO   = 0x3, /**< Show scrollbars when the scrollable container is large enough to 
  47:..\..\..\lvgl\version_6.1.2\lvgl\src\lv_objx\../lv_objx/lv_page.h ****     LV_SB_MODE_HIDE   = 0x4, /**< Hide the scroll bar temporally*/
  48:..\..\..\lvgl\version_6.1.2\lvgl\src\lv_objx\../lv_objx/lv_page.h ****     LV_SB_MODE_UNHIDE = 0x5, /**< Unhide the previously hidden scrollbar. Recover it's type too*/
  49:..\..\..\lvgl\version_6.1.2\lvgl\src\lv_objx\../lv_objx/lv_page.h **** };
  50:..\..\..\lvgl\version_6.1.2\lvgl\src\lv_objx\../lv_objx/lv_page.h **** typedef uint8_t lv_sb_mode_t;
  51:..\..\..\lvgl\version_6.1.2\lvgl\src\lv_objx\../lv_objx/lv_page.h **** 
  52:..\..\..\lvgl\version_6.1.2\lvgl\src\lv_objx\../lv_objx/lv_page.h **** /** Edges: describes the four edges of the page*/
  53:..\..\..\lvgl\version_6.1.2\lvgl\src\lv_objx\../lv_objx/lv_page.h **** enum { LV_PAGE_EDGE_LEFT = 0x1, LV_PAGE_EDGE_TOP = 0x2, LV_PAGE_EDGE_RIGHT = 0x4, LV_PAGE_EDGE_BOTT
  54:..\..\..\lvgl\version_6.1.2\lvgl\src\lv_objx\../lv_objx/lv_page.h **** typedef uint8_t lv_page_edge_t;
  55:..\..\..\lvgl\version_6.1.2\lvgl\src\lv_objx\../lv_objx/lv_page.h **** 
  56:..\..\..\lvgl\version_6.1.2\lvgl\src\lv_objx\../lv_objx/lv_page.h **** /*Data of page*/
  57:..\..\..\lvgl\version_6.1.2\lvgl\src\lv_objx\../lv_objx/lv_page.h **** typedef struct
  58:..\..\..\lvgl\version_6.1.2\lvgl\src\lv_objx\../lv_objx/lv_page.h **** {
  59:..\..\..\lvgl\version_6.1.2\lvgl\src\lv_objx\../lv_objx/lv_page.h ****     lv_cont_ext_t bg; /*Ext. of ancestor*/
  60:..\..\..\lvgl\version_6.1.2\lvgl\src\lv_objx\../lv_objx/lv_page.h ****     /*New data for this type */
  61:..\..\..\lvgl\version_6.1.2\lvgl\src\lv_objx\../lv_objx/lv_page.h ****     lv_obj_t * scrl; /*The scrollable object on the background*/
  62:..\..\..\lvgl\version_6.1.2\lvgl\src\lv_objx\../lv_objx/lv_page.h ****     struct
  63:..\..\..\lvgl\version_6.1.2\lvgl\src\lv_objx\../lv_objx/lv_page.h ****     {
  64:..\..\..\lvgl\version_6.1.2\lvgl\src\lv_objx\../lv_objx/lv_page.h ****         const lv_style_t * style; /*Style of scrollbars*/
  65:..\..\..\lvgl\version_6.1.2\lvgl\src\lv_objx\../lv_objx/lv_page.h ****         lv_area_t hor_area;       /*Horizontal scrollbar area relative to the page. (Handled by the
  66:..\..\..\lvgl\version_6.1.2\lvgl\src\lv_objx\../lv_objx/lv_page.h ****         lv_area_t ver_area;       /*Vertical scrollbar area relative to the page (Handled by the li
  67:..\..\..\lvgl\version_6.1.2\lvgl\src\lv_objx\../lv_objx/lv_page.h ****         uint8_t hor_draw : 1;     /*1: horizontal scrollbar is visible now (Handled by the library)
  68:..\..\..\lvgl\version_6.1.2\lvgl\src\lv_objx\../lv_objx/lv_page.h ****         uint8_t ver_draw : 1;     /*1: vertical scrollbar is visible now (Handled by the library)*/
  69:..\..\..\lvgl\version_6.1.2\lvgl\src\lv_objx\../lv_objx/lv_page.h ****         lv_sb_mode_t mode : 3;    /*Scrollbar visibility from 'lv_page_sb_mode_t'*/
  70:..\..\..\lvgl\version_6.1.2\lvgl\src\lv_objx\../lv_objx/lv_page.h ****     } sb;
  71:..\..\..\lvgl\version_6.1.2\lvgl\src\lv_objx\../lv_objx/lv_page.h **** #if LV_USE_ANIMATION
  72:..\..\..\lvgl\version_6.1.2\lvgl\src\lv_objx\../lv_objx/lv_page.h ****     struct
  73:..\..\..\lvgl\version_6.1.2\lvgl\src\lv_objx\../lv_objx/lv_page.h ****     {
  74:..\..\..\lvgl\version_6.1.2\lvgl\src\lv_objx\../lv_objx/lv_page.h ****         lv_anim_value_t state;    /*Store the current size of the edge flash effect*/
  75:..\..\..\lvgl\version_6.1.2\lvgl\src\lv_objx\../lv_objx/lv_page.h ****         const lv_style_t * style; /*Style of edge flash effect (usually homogeneous circle)*/
  76:..\..\..\lvgl\version_6.1.2\lvgl\src\lv_objx\../lv_objx/lv_page.h ****         uint8_t enabled : 1;      /*1: Show a flash animation on the edge*/
  77:..\..\..\lvgl\version_6.1.2\lvgl\src\lv_objx\../lv_objx/lv_page.h ****         uint8_t top_ip : 1;       /*Used internally to show that top most position is reached (flas
  78:..\..\..\lvgl\version_6.1.2\lvgl\src\lv_objx\../lv_objx/lv_page.h ****                                      Progress)*/
  79:..\..\..\lvgl\version_6.1.2\lvgl\src\lv_objx\../lv_objx/lv_page.h ****         uint8_t bottom_ip : 1;    /*Used internally to show that bottom most position is reached (f
  80:..\..\..\lvgl\version_6.1.2\lvgl\src\lv_objx\../lv_objx/lv_page.h ****                                      is In Progress)*/
  81:..\..\..\lvgl\version_6.1.2\lvgl\src\lv_objx\../lv_objx/lv_page.h ****         uint8_t right_ip : 1;     /*Used internally to show that right most position is reached (fl
  82:..\..\..\lvgl\version_6.1.2\lvgl\src\lv_objx\../lv_objx/lv_page.h ****                                      is In Progress)*/
  83:..\..\..\lvgl\version_6.1.2\lvgl\src\lv_objx\../lv_objx/lv_page.h ****         uint8_t left_ip : 1;      /*Used internally to show that left most position is reached (fla
  84:..\..\..\lvgl\version_6.1.2\lvgl\src\lv_objx\../lv_objx/lv_page.h ****                                      In Progress)*/
  85:..\..\..\lvgl\version_6.1.2\lvgl\src\lv_objx\../lv_objx/lv_page.h ****     } edge_flash;
  86:..\..\..\lvgl\version_6.1.2\lvgl\src\lv_objx\../lv_objx/lv_page.h **** 
ARM GAS  C:\Users\tmj32\AppData\Local\Temp\ccFKuFvs.s 			page 7


  87:..\..\..\lvgl\version_6.1.2\lvgl\src\lv_objx\../lv_objx/lv_page.h ****     uint16_t anim_time; /*Scroll animation time*/
  88:..\..\..\lvgl\version_6.1.2\lvgl\src\lv_objx\../lv_objx/lv_page.h **** #endif
  89:..\..\..\lvgl\version_6.1.2\lvgl\src\lv_objx\../lv_objx/lv_page.h **** 
  90:..\..\..\lvgl\version_6.1.2\lvgl\src\lv_objx\../lv_objx/lv_page.h ****     uint8_t scroll_prop : 1;    /*1: Propagate the scrolling the the parent if the edge is reached*
  91:..\..\..\lvgl\version_6.1.2\lvgl\src\lv_objx\../lv_objx/lv_page.h ****     uint8_t scroll_prop_ip : 1; /*1: Scroll propagation is in progress (used by the library)*/
  92:..\..\..\lvgl\version_6.1.2\lvgl\src\lv_objx\../lv_objx/lv_page.h **** } lv_page_ext_t;
  93:..\..\..\lvgl\version_6.1.2\lvgl\src\lv_objx\../lv_objx/lv_page.h **** 
  94:..\..\..\lvgl\version_6.1.2\lvgl\src\lv_objx\../lv_objx/lv_page.h **** enum {
  95:..\..\..\lvgl\version_6.1.2\lvgl\src\lv_objx\../lv_objx/lv_page.h ****     LV_PAGE_STYLE_BG,
  96:..\..\..\lvgl\version_6.1.2\lvgl\src\lv_objx\../lv_objx/lv_page.h ****     LV_PAGE_STYLE_SCRL,
  97:..\..\..\lvgl\version_6.1.2\lvgl\src\lv_objx\../lv_objx/lv_page.h ****     LV_PAGE_STYLE_SB,
  98:..\..\..\lvgl\version_6.1.2\lvgl\src\lv_objx\../lv_objx/lv_page.h ****     LV_PAGE_STYLE_EDGE_FLASH,
  99:..\..\..\lvgl\version_6.1.2\lvgl\src\lv_objx\../lv_objx/lv_page.h **** };
 100:..\..\..\lvgl\version_6.1.2\lvgl\src\lv_objx\../lv_objx/lv_page.h **** typedef uint8_t lv_page_style_t;
 101:..\..\..\lvgl\version_6.1.2\lvgl\src\lv_objx\../lv_objx/lv_page.h **** 
 102:..\..\..\lvgl\version_6.1.2\lvgl\src\lv_objx\../lv_objx/lv_page.h **** /**********************
 103:..\..\..\lvgl\version_6.1.2\lvgl\src\lv_objx\../lv_objx/lv_page.h ****  * GLOBAL PROTOTYPES
 104:..\..\..\lvgl\version_6.1.2\lvgl\src\lv_objx\../lv_objx/lv_page.h ****  **********************/
 105:..\..\..\lvgl\version_6.1.2\lvgl\src\lv_objx\../lv_objx/lv_page.h **** 
 106:..\..\..\lvgl\version_6.1.2\lvgl\src\lv_objx\../lv_objx/lv_page.h **** /**
 107:..\..\..\lvgl\version_6.1.2\lvgl\src\lv_objx\../lv_objx/lv_page.h ****  * Create a page objects
 108:..\..\..\lvgl\version_6.1.2\lvgl\src\lv_objx\../lv_objx/lv_page.h ****  * @param par pointer to an object, it will be the parent of the new page
 109:..\..\..\lvgl\version_6.1.2\lvgl\src\lv_objx\../lv_objx/lv_page.h ****  * @param copy pointer to a page object, if not NULL then the new object will be copied from it
 110:..\..\..\lvgl\version_6.1.2\lvgl\src\lv_objx\../lv_objx/lv_page.h ****  * @return pointer to the created page
 111:..\..\..\lvgl\version_6.1.2\lvgl\src\lv_objx\../lv_objx/lv_page.h ****  */
 112:..\..\..\lvgl\version_6.1.2\lvgl\src\lv_objx\../lv_objx/lv_page.h **** lv_obj_t * lv_page_create(lv_obj_t * par, const lv_obj_t * copy);
 113:..\..\..\lvgl\version_6.1.2\lvgl\src\lv_objx\../lv_objx/lv_page.h **** 
 114:..\..\..\lvgl\version_6.1.2\lvgl\src\lv_objx\../lv_objx/lv_page.h **** /**
 115:..\..\..\lvgl\version_6.1.2\lvgl\src\lv_objx\../lv_objx/lv_page.h ****  * Delete all children of the scrl object, without deleting scrl child.
 116:..\..\..\lvgl\version_6.1.2\lvgl\src\lv_objx\../lv_objx/lv_page.h ****  * @param page pointer to an object
 117:..\..\..\lvgl\version_6.1.2\lvgl\src\lv_objx\../lv_objx/lv_page.h ****  */
 118:..\..\..\lvgl\version_6.1.2\lvgl\src\lv_objx\../lv_objx/lv_page.h **** void lv_page_clean(lv_obj_t * page);
 119:..\..\..\lvgl\version_6.1.2\lvgl\src\lv_objx\../lv_objx/lv_page.h **** 
 120:..\..\..\lvgl\version_6.1.2\lvgl\src\lv_objx\../lv_objx/lv_page.h **** /**
 121:..\..\..\lvgl\version_6.1.2\lvgl\src\lv_objx\../lv_objx/lv_page.h ****  * Get the scrollable object of a page
 122:..\..\..\lvgl\version_6.1.2\lvgl\src\lv_objx\../lv_objx/lv_page.h ****  * @param page pointer to a page object
 123:..\..\..\lvgl\version_6.1.2\lvgl\src\lv_objx\../lv_objx/lv_page.h ****  * @return pointer to a container which is the scrollable part of the page
 124:..\..\..\lvgl\version_6.1.2\lvgl\src\lv_objx\../lv_objx/lv_page.h ****  */
 125:..\..\..\lvgl\version_6.1.2\lvgl\src\lv_objx\../lv_objx/lv_page.h **** lv_obj_t * lv_page_get_scrl(const lv_obj_t * page);
 126:..\..\..\lvgl\version_6.1.2\lvgl\src\lv_objx\../lv_objx/lv_page.h **** 
 127:..\..\..\lvgl\version_6.1.2\lvgl\src\lv_objx\../lv_objx/lv_page.h **** /**
 128:..\..\..\lvgl\version_6.1.2\lvgl\src\lv_objx\../lv_objx/lv_page.h ****  * Get the animation time
 129:..\..\..\lvgl\version_6.1.2\lvgl\src\lv_objx\../lv_objx/lv_page.h ****  * @param page pointer to a page object
 130:..\..\..\lvgl\version_6.1.2\lvgl\src\lv_objx\../lv_objx/lv_page.h ****  * @return the animation time in milliseconds
 131:..\..\..\lvgl\version_6.1.2\lvgl\src\lv_objx\../lv_objx/lv_page.h ****  */
 132:..\..\..\lvgl\version_6.1.2\lvgl\src\lv_objx\../lv_objx/lv_page.h **** uint16_t lv_page_get_anim_time(const lv_obj_t * page);
 133:..\..\..\lvgl\version_6.1.2\lvgl\src\lv_objx\../lv_objx/lv_page.h **** 
 134:..\..\..\lvgl\version_6.1.2\lvgl\src\lv_objx\../lv_objx/lv_page.h **** /*=====================
 135:..\..\..\lvgl\version_6.1.2\lvgl\src\lv_objx\../lv_objx/lv_page.h ****  * Setter functions
 136:..\..\..\lvgl\version_6.1.2\lvgl\src\lv_objx\../lv_objx/lv_page.h ****  *====================*/
 137:..\..\..\lvgl\version_6.1.2\lvgl\src\lv_objx\../lv_objx/lv_page.h **** 
 138:..\..\..\lvgl\version_6.1.2\lvgl\src\lv_objx\../lv_objx/lv_page.h **** /**
 139:..\..\..\lvgl\version_6.1.2\lvgl\src\lv_objx\../lv_objx/lv_page.h ****  * Set the scroll bar mode on a page
 140:..\..\..\lvgl\version_6.1.2\lvgl\src\lv_objx\../lv_objx/lv_page.h ****  * @param page pointer to a page object
 141:..\..\..\lvgl\version_6.1.2\lvgl\src\lv_objx\../lv_objx/lv_page.h ****  * @param sb_mode the new mode from 'lv_page_sb.mode_t' enum
 142:..\..\..\lvgl\version_6.1.2\lvgl\src\lv_objx\../lv_objx/lv_page.h ****  */
 143:..\..\..\lvgl\version_6.1.2\lvgl\src\lv_objx\../lv_objx/lv_page.h **** void lv_page_set_sb_mode(lv_obj_t * page, lv_sb_mode_t sb_mode);
ARM GAS  C:\Users\tmj32\AppData\Local\Temp\ccFKuFvs.s 			page 8


 144:..\..\..\lvgl\version_6.1.2\lvgl\src\lv_objx\../lv_objx/lv_page.h **** 
 145:..\..\..\lvgl\version_6.1.2\lvgl\src\lv_objx\../lv_objx/lv_page.h **** /**
 146:..\..\..\lvgl\version_6.1.2\lvgl\src\lv_objx\../lv_objx/lv_page.h ****  * Set the animation time for the page
 147:..\..\..\lvgl\version_6.1.2\lvgl\src\lv_objx\../lv_objx/lv_page.h ****  * @param page pointer to a page object
 148:..\..\..\lvgl\version_6.1.2\lvgl\src\lv_objx\../lv_objx/lv_page.h ****  * @param anim_time animation time in milliseconds
 149:..\..\..\lvgl\version_6.1.2\lvgl\src\lv_objx\../lv_objx/lv_page.h ****  */
 150:..\..\..\lvgl\version_6.1.2\lvgl\src\lv_objx\../lv_objx/lv_page.h **** void lv_page_set_anim_time(lv_obj_t * page, uint16_t anim_time);
 151:..\..\..\lvgl\version_6.1.2\lvgl\src\lv_objx\../lv_objx/lv_page.h **** 
 152:..\..\..\lvgl\version_6.1.2\lvgl\src\lv_objx\../lv_objx/lv_page.h **** /**
 153:..\..\..\lvgl\version_6.1.2\lvgl\src\lv_objx\../lv_objx/lv_page.h ****  * Enable the scroll propagation feature. If enabled then the page will move its parent if there is
 154:..\..\..\lvgl\version_6.1.2\lvgl\src\lv_objx\../lv_objx/lv_page.h ****  * no more space to scroll.
 155:..\..\..\lvgl\version_6.1.2\lvgl\src\lv_objx\../lv_objx/lv_page.h ****  * @param page pointer to a Page
 156:..\..\..\lvgl\version_6.1.2\lvgl\src\lv_objx\../lv_objx/lv_page.h ****  * @param en true or false to enable/disable scroll propagation
 157:..\..\..\lvgl\version_6.1.2\lvgl\src\lv_objx\../lv_objx/lv_page.h ****  */
 158:..\..\..\lvgl\version_6.1.2\lvgl\src\lv_objx\../lv_objx/lv_page.h **** void lv_page_set_scroll_propagation(lv_obj_t * page, bool en);
 159:..\..\..\lvgl\version_6.1.2\lvgl\src\lv_objx\../lv_objx/lv_page.h **** 
 160:..\..\..\lvgl\version_6.1.2\lvgl\src\lv_objx\../lv_objx/lv_page.h **** /**
 161:..\..\..\lvgl\version_6.1.2\lvgl\src\lv_objx\../lv_objx/lv_page.h ****  * Enable the edge flash effect. (Show an arc when the an edge is reached)
 162:..\..\..\lvgl\version_6.1.2\lvgl\src\lv_objx\../lv_objx/lv_page.h ****  * @param page pointer to a Page
 163:..\..\..\lvgl\version_6.1.2\lvgl\src\lv_objx\../lv_objx/lv_page.h ****  * @param en true or false to enable/disable end flash
 164:..\..\..\lvgl\version_6.1.2\lvgl\src\lv_objx\../lv_objx/lv_page.h ****  */
 165:..\..\..\lvgl\version_6.1.2\lvgl\src\lv_objx\../lv_objx/lv_page.h **** void lv_page_set_edge_flash(lv_obj_t * page, bool en);
 166:..\..\..\lvgl\version_6.1.2\lvgl\src\lv_objx\../lv_objx/lv_page.h **** 
 167:..\..\..\lvgl\version_6.1.2\lvgl\src\lv_objx\../lv_objx/lv_page.h **** /**
 168:..\..\..\lvgl\version_6.1.2\lvgl\src\lv_objx\../lv_objx/lv_page.h ****  * Set the fit policy in all 4 directions separately.
 169:..\..\..\lvgl\version_6.1.2\lvgl\src\lv_objx\../lv_objx/lv_page.h ****  * It tell how to change the page size automatically.
 170:..\..\..\lvgl\version_6.1.2\lvgl\src\lv_objx\../lv_objx/lv_page.h ****  * @param page pointer to a page object
 171:..\..\..\lvgl\version_6.1.2\lvgl\src\lv_objx\../lv_objx/lv_page.h ****  * @param left left fit policy from `lv_fit_t`
 172:..\..\..\lvgl\version_6.1.2\lvgl\src\lv_objx\../lv_objx/lv_page.h ****  * @param right right fit policy from `lv_fit_t`
 173:..\..\..\lvgl\version_6.1.2\lvgl\src\lv_objx\../lv_objx/lv_page.h ****  * @param top bottom fit policy from `lv_fit_t`
 174:..\..\..\lvgl\version_6.1.2\lvgl\src\lv_objx\../lv_objx/lv_page.h ****  * @param bottom bottom fit policy from `lv_fit_t`
 175:..\..\..\lvgl\version_6.1.2\lvgl\src\lv_objx\../lv_objx/lv_page.h ****  */
 176:..\..\..\lvgl\version_6.1.2\lvgl\src\lv_objx\../lv_objx/lv_page.h **** static inline void lv_page_set_scrl_fit4(lv_obj_t * page, lv_fit_t left, lv_fit_t right, lv_fit_t t
 177:..\..\..\lvgl\version_6.1.2\lvgl\src\lv_objx\../lv_objx/lv_page.h **** {
 178:..\..\..\lvgl\version_6.1.2\lvgl\src\lv_objx\../lv_objx/lv_page.h ****     lv_cont_set_fit4(lv_page_get_scrl(page), left, right, top, bottom);
 179:..\..\..\lvgl\version_6.1.2\lvgl\src\lv_objx\../lv_objx/lv_page.h **** }
 180:..\..\..\lvgl\version_6.1.2\lvgl\src\lv_objx\../lv_objx/lv_page.h **** 
 181:..\..\..\lvgl\version_6.1.2\lvgl\src\lv_objx\../lv_objx/lv_page.h **** /**
 182:..\..\..\lvgl\version_6.1.2\lvgl\src\lv_objx\../lv_objx/lv_page.h ****  * Set the fit policy horizontally and vertically separately.
 183:..\..\..\lvgl\version_6.1.2\lvgl\src\lv_objx\../lv_objx/lv_page.h ****  * It tell how to change the page size automatically.
 184:..\..\..\lvgl\version_6.1.2\lvgl\src\lv_objx\../lv_objx/lv_page.h ****  * @param page pointer to a page object
 185:..\..\..\lvgl\version_6.1.2\lvgl\src\lv_objx\../lv_objx/lv_page.h ****  * @param hot horizontal fit policy from `lv_fit_t`
 186:..\..\..\lvgl\version_6.1.2\lvgl\src\lv_objx\../lv_objx/lv_page.h ****  * @param ver vertical fit policy from `lv_fit_t`
 187:..\..\..\lvgl\version_6.1.2\lvgl\src\lv_objx\../lv_objx/lv_page.h ****  */
 188:..\..\..\lvgl\version_6.1.2\lvgl\src\lv_objx\../lv_objx/lv_page.h **** static inline void lv_page_set_scrl_fit2(lv_obj_t * page, lv_fit_t hor, lv_fit_t ver)
 189:..\..\..\lvgl\version_6.1.2\lvgl\src\lv_objx\../lv_objx/lv_page.h **** {
 190:..\..\..\lvgl\version_6.1.2\lvgl\src\lv_objx\../lv_objx/lv_page.h ****     lv_cont_set_fit2(lv_page_get_scrl(page), hor, ver);
 191:..\..\..\lvgl\version_6.1.2\lvgl\src\lv_objx\../lv_objx/lv_page.h **** }
 192:..\..\..\lvgl\version_6.1.2\lvgl\src\lv_objx\../lv_objx/lv_page.h **** 
 193:..\..\..\lvgl\version_6.1.2\lvgl\src\lv_objx\../lv_objx/lv_page.h **** /**
 194:..\..\..\lvgl\version_6.1.2\lvgl\src\lv_objx\../lv_objx/lv_page.h ****  * Set the fit policyin all 4 direction at once.
 195:..\..\..\lvgl\version_6.1.2\lvgl\src\lv_objx\../lv_objx/lv_page.h ****  * It tell how to change the page size automatically.
 196:..\..\..\lvgl\version_6.1.2\lvgl\src\lv_objx\../lv_objx/lv_page.h ****  * @param page pointer to a button object
 197:..\..\..\lvgl\version_6.1.2\lvgl\src\lv_objx\../lv_objx/lv_page.h ****  * @param fit fit policy from `lv_fit_t`
 198:..\..\..\lvgl\version_6.1.2\lvgl\src\lv_objx\../lv_objx/lv_page.h ****  */
 199:..\..\..\lvgl\version_6.1.2\lvgl\src\lv_objx\../lv_objx/lv_page.h **** static inline void lv_page_set_scrl_fit(lv_obj_t * page, lv_fit_t fit)
 200:..\..\..\lvgl\version_6.1.2\lvgl\src\lv_objx\../lv_objx/lv_page.h **** {
ARM GAS  C:\Users\tmj32\AppData\Local\Temp\ccFKuFvs.s 			page 9


 201:..\..\..\lvgl\version_6.1.2\lvgl\src\lv_objx\../lv_objx/lv_page.h ****     lv_cont_set_fit(lv_page_get_scrl(page), fit);
 202:..\..\..\lvgl\version_6.1.2\lvgl\src\lv_objx\../lv_objx/lv_page.h **** }
 203:..\..\..\lvgl\version_6.1.2\lvgl\src\lv_objx\../lv_objx/lv_page.h **** 
 204:..\..\..\lvgl\version_6.1.2\lvgl\src\lv_objx\../lv_objx/lv_page.h **** /**
 205:..\..\..\lvgl\version_6.1.2\lvgl\src\lv_objx\../lv_objx/lv_page.h ****  * Set width of the scrollable part of a page
 206:..\..\..\lvgl\version_6.1.2\lvgl\src\lv_objx\../lv_objx/lv_page.h ****  * @param page pointer to a page object
 207:..\..\..\lvgl\version_6.1.2\lvgl\src\lv_objx\../lv_objx/lv_page.h ****  * @param w the new width of the scrollable (it ha no effect is horizontal fit is enabled)
 208:..\..\..\lvgl\version_6.1.2\lvgl\src\lv_objx\../lv_objx/lv_page.h ****  */
 209:..\..\..\lvgl\version_6.1.2\lvgl\src\lv_objx\../lv_objx/lv_page.h **** static inline void lv_page_set_scrl_width(lv_obj_t * page, lv_coord_t w)
 210:..\..\..\lvgl\version_6.1.2\lvgl\src\lv_objx\../lv_objx/lv_page.h **** {
 211:..\..\..\lvgl\version_6.1.2\lvgl\src\lv_objx\../lv_objx/lv_page.h ****     lv_obj_set_width(lv_page_get_scrl(page), w);
 212:..\..\..\lvgl\version_6.1.2\lvgl\src\lv_objx\../lv_objx/lv_page.h **** }
 213:..\..\..\lvgl\version_6.1.2\lvgl\src\lv_objx\../lv_objx/lv_page.h **** 
 214:..\..\..\lvgl\version_6.1.2\lvgl\src\lv_objx\../lv_objx/lv_page.h **** /**
 215:..\..\..\lvgl\version_6.1.2\lvgl\src\lv_objx\../lv_objx/lv_page.h ****  * Set height of the scrollable part of a page
 216:..\..\..\lvgl\version_6.1.2\lvgl\src\lv_objx\../lv_objx/lv_page.h ****  * @param page pointer to a page object
 217:..\..\..\lvgl\version_6.1.2\lvgl\src\lv_objx\../lv_objx/lv_page.h ****  * @param h the new height of the scrollable (it ha no effect is vertical fit is enabled)
 218:..\..\..\lvgl\version_6.1.2\lvgl\src\lv_objx\../lv_objx/lv_page.h ****  */
 219:..\..\..\lvgl\version_6.1.2\lvgl\src\lv_objx\../lv_objx/lv_page.h **** static inline void lv_page_set_scrl_height(lv_obj_t * page, lv_coord_t h)
 220:..\..\..\lvgl\version_6.1.2\lvgl\src\lv_objx\../lv_objx/lv_page.h **** {
 221:..\..\..\lvgl\version_6.1.2\lvgl\src\lv_objx\../lv_objx/lv_page.h ****     lv_obj_set_height(lv_page_get_scrl(page), h);
 222:..\..\..\lvgl\version_6.1.2\lvgl\src\lv_objx\../lv_objx/lv_page.h **** }
 223:..\..\..\lvgl\version_6.1.2\lvgl\src\lv_objx\../lv_objx/lv_page.h **** 
 224:..\..\..\lvgl\version_6.1.2\lvgl\src\lv_objx\../lv_objx/lv_page.h **** /**
 225:..\..\..\lvgl\version_6.1.2\lvgl\src\lv_objx\../lv_objx/lv_page.h ****  * Set the layout of the scrollable part of the page
 226:..\..\..\lvgl\version_6.1.2\lvgl\src\lv_objx\../lv_objx/lv_page.h ****  * @param page pointer to a page object
 227:..\..\..\lvgl\version_6.1.2\lvgl\src\lv_objx\../lv_objx/lv_page.h ****  * @param layout a layout from 'lv_cont_layout_t'
 228:..\..\..\lvgl\version_6.1.2\lvgl\src\lv_objx\../lv_objx/lv_page.h ****  */
 229:..\..\..\lvgl\version_6.1.2\lvgl\src\lv_objx\../lv_objx/lv_page.h **** static inline void lv_page_set_scrl_layout(lv_obj_t * page, lv_layout_t layout)
 230:..\..\..\lvgl\version_6.1.2\lvgl\src\lv_objx\../lv_objx/lv_page.h **** {
 231:..\..\..\lvgl\version_6.1.2\lvgl\src\lv_objx\../lv_objx/lv_page.h ****     lv_cont_set_layout(lv_page_get_scrl(page), layout);
 232:..\..\..\lvgl\version_6.1.2\lvgl\src\lv_objx\../lv_objx/lv_page.h **** }
 233:..\..\..\lvgl\version_6.1.2\lvgl\src\lv_objx\../lv_objx/lv_page.h **** 
 234:..\..\..\lvgl\version_6.1.2\lvgl\src\lv_objx\../lv_objx/lv_page.h **** /**
 235:..\..\..\lvgl\version_6.1.2\lvgl\src\lv_objx\../lv_objx/lv_page.h ****  * Set a style of a page
 236:..\..\..\lvgl\version_6.1.2\lvgl\src\lv_objx\../lv_objx/lv_page.h ****  * @param page pointer to a page object
 237:..\..\..\lvgl\version_6.1.2\lvgl\src\lv_objx\../lv_objx/lv_page.h ****  * @param type which style should be set
 238:..\..\..\lvgl\version_6.1.2\lvgl\src\lv_objx\../lv_objx/lv_page.h ****  * @param style pointer to a style
 239:..\..\..\lvgl\version_6.1.2\lvgl\src\lv_objx\../lv_objx/lv_page.h ****  */
 240:..\..\..\lvgl\version_6.1.2\lvgl\src\lv_objx\../lv_objx/lv_page.h **** void lv_page_set_style(lv_obj_t * page, lv_page_style_t type, const lv_style_t * style);
 241:..\..\..\lvgl\version_6.1.2\lvgl\src\lv_objx\../lv_objx/lv_page.h **** 
 242:..\..\..\lvgl\version_6.1.2\lvgl\src\lv_objx\../lv_objx/lv_page.h **** /*=====================
 243:..\..\..\lvgl\version_6.1.2\lvgl\src\lv_objx\../lv_objx/lv_page.h ****  * Getter functions
 244:..\..\..\lvgl\version_6.1.2\lvgl\src\lv_objx\../lv_objx/lv_page.h ****  *====================*/
 245:..\..\..\lvgl\version_6.1.2\lvgl\src\lv_objx\../lv_objx/lv_page.h **** 
 246:..\..\..\lvgl\version_6.1.2\lvgl\src\lv_objx\../lv_objx/lv_page.h **** /**
 247:..\..\..\lvgl\version_6.1.2\lvgl\src\lv_objx\../lv_objx/lv_page.h ****  * Set the scroll bar mode on a page
 248:..\..\..\lvgl\version_6.1.2\lvgl\src\lv_objx\../lv_objx/lv_page.h ****  * @param page pointer to a page object
 249:..\..\..\lvgl\version_6.1.2\lvgl\src\lv_objx\../lv_objx/lv_page.h ****  * @return the mode from 'lv_page_sb.mode_t' enum
 250:..\..\..\lvgl\version_6.1.2\lvgl\src\lv_objx\../lv_objx/lv_page.h ****  */
 251:..\..\..\lvgl\version_6.1.2\lvgl\src\lv_objx\../lv_objx/lv_page.h **** lv_sb_mode_t lv_page_get_sb_mode(const lv_obj_t * page);
 252:..\..\..\lvgl\version_6.1.2\lvgl\src\lv_objx\../lv_objx/lv_page.h **** 
 253:..\..\..\lvgl\version_6.1.2\lvgl\src\lv_objx\../lv_objx/lv_page.h **** /**
 254:..\..\..\lvgl\version_6.1.2\lvgl\src\lv_objx\../lv_objx/lv_page.h ****  * Get the scroll propagation property
 255:..\..\..\lvgl\version_6.1.2\lvgl\src\lv_objx\../lv_objx/lv_page.h ****  * @param page pointer to a Page
 256:..\..\..\lvgl\version_6.1.2\lvgl\src\lv_objx\../lv_objx/lv_page.h ****  * @return true or false
 257:..\..\..\lvgl\version_6.1.2\lvgl\src\lv_objx\../lv_objx/lv_page.h ****  */
ARM GAS  C:\Users\tmj32\AppData\Local\Temp\ccFKuFvs.s 			page 10


 258:..\..\..\lvgl\version_6.1.2\lvgl\src\lv_objx\../lv_objx/lv_page.h **** bool lv_page_get_scroll_propagation(lv_obj_t * page);
 259:..\..\..\lvgl\version_6.1.2\lvgl\src\lv_objx\../lv_objx/lv_page.h **** 
 260:..\..\..\lvgl\version_6.1.2\lvgl\src\lv_objx\../lv_objx/lv_page.h **** /**
 261:..\..\..\lvgl\version_6.1.2\lvgl\src\lv_objx\../lv_objx/lv_page.h ****  * Get the edge flash effect property.
 262:..\..\..\lvgl\version_6.1.2\lvgl\src\lv_objx\../lv_objx/lv_page.h ****  * @param page pointer to a Page
 263:..\..\..\lvgl\version_6.1.2\lvgl\src\lv_objx\../lv_objx/lv_page.h ****  * return true or false
 264:..\..\..\lvgl\version_6.1.2\lvgl\src\lv_objx\../lv_objx/lv_page.h ****  */
 265:..\..\..\lvgl\version_6.1.2\lvgl\src\lv_objx\../lv_objx/lv_page.h **** bool lv_page_get_edge_flash(lv_obj_t * page);
 266:..\..\..\lvgl\version_6.1.2\lvgl\src\lv_objx\../lv_objx/lv_page.h **** 
 267:..\..\..\lvgl\version_6.1.2\lvgl\src\lv_objx\../lv_objx/lv_page.h **** /**
 268:..\..\..\lvgl\version_6.1.2\lvgl\src\lv_objx\../lv_objx/lv_page.h ****  * Get that width which can be set to the children to still not cause overflow (show scrollbars)
 269:..\..\..\lvgl\version_6.1.2\lvgl\src\lv_objx\../lv_objx/lv_page.h ****  * @param page pointer to a page object
 270:..\..\..\lvgl\version_6.1.2\lvgl\src\lv_objx\../lv_objx/lv_page.h ****  * @return the width which still fits into the page
 271:..\..\..\lvgl\version_6.1.2\lvgl\src\lv_objx\../lv_objx/lv_page.h ****  */
 272:..\..\..\lvgl\version_6.1.2\lvgl\src\lv_objx\../lv_objx/lv_page.h **** lv_coord_t lv_page_get_fit_width(lv_obj_t * page);
 273:..\..\..\lvgl\version_6.1.2\lvgl\src\lv_objx\../lv_objx/lv_page.h **** 
 274:..\..\..\lvgl\version_6.1.2\lvgl\src\lv_objx\../lv_objx/lv_page.h **** /**
 275:..\..\..\lvgl\version_6.1.2\lvgl\src\lv_objx\../lv_objx/lv_page.h ****  * Get that height which can be set to the children to still not cause overflow (show scrollbars)
 276:..\..\..\lvgl\version_6.1.2\lvgl\src\lv_objx\../lv_objx/lv_page.h ****  * @param page pointer to a page object
 277:..\..\..\lvgl\version_6.1.2\lvgl\src\lv_objx\../lv_objx/lv_page.h ****  * @return the height which still fits into the page
 278:..\..\..\lvgl\version_6.1.2\lvgl\src\lv_objx\../lv_objx/lv_page.h ****  */
 279:..\..\..\lvgl\version_6.1.2\lvgl\src\lv_objx\../lv_objx/lv_page.h **** lv_coord_t lv_page_get_fit_height(lv_obj_t * page);
 280:..\..\..\lvgl\version_6.1.2\lvgl\src\lv_objx\../lv_objx/lv_page.h **** 
 281:..\..\..\lvgl\version_6.1.2\lvgl\src\lv_objx\../lv_objx/lv_page.h **** /**
 282:..\..\..\lvgl\version_6.1.2\lvgl\src\lv_objx\../lv_objx/lv_page.h ****  * Get width of the scrollable part of a page
 283:..\..\..\lvgl\version_6.1.2\lvgl\src\lv_objx\../lv_objx/lv_page.h ****  * @param page pointer to a page object
 284:..\..\..\lvgl\version_6.1.2\lvgl\src\lv_objx\../lv_objx/lv_page.h ****  * @return the width of the scrollable
 285:..\..\..\lvgl\version_6.1.2\lvgl\src\lv_objx\../lv_objx/lv_page.h ****  */
 286:..\..\..\lvgl\version_6.1.2\lvgl\src\lv_objx\../lv_objx/lv_page.h **** static inline lv_coord_t lv_page_get_scrl_width(const lv_obj_t * page)
 287:..\..\..\lvgl\version_6.1.2\lvgl\src\lv_objx\../lv_objx/lv_page.h **** {
 158              		.loc 2 287 0
 159              		.cfi_startproc
 160              		@ args = 0, pretend = 0, frame = 8
 161              		@ frame_needed = 1, uses_anonymous_args = 0
 162 0000 80B5     		push	{r7, lr}
 163              		.cfi_def_cfa_offset 8
 164              		.cfi_offset 7, -8
 165              		.cfi_offset 14, -4
 166 0002 82B0     		sub	sp, sp, #8
 167              		.cfi_def_cfa_offset 16
 168 0004 00AF     		add	r7, sp, #0
 169              		.cfi_def_cfa_register 7
 170 0006 7860     		str	r0, [r7, #4]
 288:..\..\..\lvgl\version_6.1.2\lvgl\src\lv_objx\../lv_objx/lv_page.h ****     return lv_obj_get_width(lv_page_get_scrl(page));
 171              		.loc 2 288 0
 172 0008 7868     		ldr	r0, [r7, #4]
 173 000a FFF7FEFF 		bl	lv_page_get_scrl
 174 000e 0346     		mov	r3, r0
 175 0010 1846     		mov	r0, r3
 176 0012 FFF7FEFF 		bl	lv_obj_get_width
 177 0016 0346     		mov	r3, r0
 289:..\..\..\lvgl\version_6.1.2\lvgl\src\lv_objx\../lv_objx/lv_page.h **** }
 178              		.loc 2 289 0
 179 0018 1846     		mov	r0, r3
 180 001a 0837     		adds	r7, r7, #8
 181              		.cfi_def_cfa_offset 8
 182 001c BD46     		mov	sp, r7
ARM GAS  C:\Users\tmj32\AppData\Local\Temp\ccFKuFvs.s 			page 11


 183              		.cfi_def_cfa_register 13
 184              		@ sp needed
 185 001e 80BD     		pop	{r7, pc}
 186              		.cfi_endproc
 187              	.LFE41:
 188              		.size	lv_page_get_scrl_width, .-lv_page_get_scrl_width
 189              		.section	.text.lv_page_get_scrl_fit_left,"ax",%progbits
 190              		.align	2
 191              		.thumb
 192              		.thumb_func
 193              		.type	lv_page_get_scrl_fit_left, %function
 194              	lv_page_get_scrl_fit_left:
 195              	.LFB44:
 290:..\..\..\lvgl\version_6.1.2\lvgl\src\lv_objx\../lv_objx/lv_page.h **** 
 291:..\..\..\lvgl\version_6.1.2\lvgl\src\lv_objx\../lv_objx/lv_page.h **** /**
 292:..\..\..\lvgl\version_6.1.2\lvgl\src\lv_objx\../lv_objx/lv_page.h ****  * Get height of the scrollable part of a page
 293:..\..\..\lvgl\version_6.1.2\lvgl\src\lv_objx\../lv_objx/lv_page.h ****  * @param page pointer to a page object
 294:..\..\..\lvgl\version_6.1.2\lvgl\src\lv_objx\../lv_objx/lv_page.h ****  * @return the height of the scrollable
 295:..\..\..\lvgl\version_6.1.2\lvgl\src\lv_objx\../lv_objx/lv_page.h ****  */
 296:..\..\..\lvgl\version_6.1.2\lvgl\src\lv_objx\../lv_objx/lv_page.h **** static inline lv_coord_t lv_page_get_scrl_height(const lv_obj_t * page)
 297:..\..\..\lvgl\version_6.1.2\lvgl\src\lv_objx\../lv_objx/lv_page.h **** {
 298:..\..\..\lvgl\version_6.1.2\lvgl\src\lv_objx\../lv_objx/lv_page.h ****     return lv_obj_get_height(lv_page_get_scrl(page));
 299:..\..\..\lvgl\version_6.1.2\lvgl\src\lv_objx\../lv_objx/lv_page.h **** }
 300:..\..\..\lvgl\version_6.1.2\lvgl\src\lv_objx\../lv_objx/lv_page.h **** 
 301:..\..\..\lvgl\version_6.1.2\lvgl\src\lv_objx\../lv_objx/lv_page.h **** /**
 302:..\..\..\lvgl\version_6.1.2\lvgl\src\lv_objx\../lv_objx/lv_page.h ****  * Get the layout of the scrollable part of a page
 303:..\..\..\lvgl\version_6.1.2\lvgl\src\lv_objx\../lv_objx/lv_page.h ****  * @param page pointer to page object
 304:..\..\..\lvgl\version_6.1.2\lvgl\src\lv_objx\../lv_objx/lv_page.h ****  * @return the layout from 'lv_cont_layout_t'
 305:..\..\..\lvgl\version_6.1.2\lvgl\src\lv_objx\../lv_objx/lv_page.h ****  */
 306:..\..\..\lvgl\version_6.1.2\lvgl\src\lv_objx\../lv_objx/lv_page.h **** static inline lv_layout_t lv_page_get_scrl_layout(const lv_obj_t * page)
 307:..\..\..\lvgl\version_6.1.2\lvgl\src\lv_objx\../lv_objx/lv_page.h **** {
 308:..\..\..\lvgl\version_6.1.2\lvgl\src\lv_objx\../lv_objx/lv_page.h ****     return lv_cont_get_layout(lv_page_get_scrl(page));
 309:..\..\..\lvgl\version_6.1.2\lvgl\src\lv_objx\../lv_objx/lv_page.h **** }
 310:..\..\..\lvgl\version_6.1.2\lvgl\src\lv_objx\../lv_objx/lv_page.h **** 
 311:..\..\..\lvgl\version_6.1.2\lvgl\src\lv_objx\../lv_objx/lv_page.h **** /**
 312:..\..\..\lvgl\version_6.1.2\lvgl\src\lv_objx\../lv_objx/lv_page.h ****  * Get the left fit mode
 313:..\..\..\lvgl\version_6.1.2\lvgl\src\lv_objx\../lv_objx/lv_page.h ****  * @param page pointer to a page object
 314:..\..\..\lvgl\version_6.1.2\lvgl\src\lv_objx\../lv_objx/lv_page.h ****  * @return an element of `lv_fit_t`
 315:..\..\..\lvgl\version_6.1.2\lvgl\src\lv_objx\../lv_objx/lv_page.h ****  */
 316:..\..\..\lvgl\version_6.1.2\lvgl\src\lv_objx\../lv_objx/lv_page.h **** static inline lv_fit_t lv_page_get_scrl_fit_left(const lv_obj_t * page)
 317:..\..\..\lvgl\version_6.1.2\lvgl\src\lv_objx\../lv_objx/lv_page.h **** {
 196              		.loc 2 317 0
 197              		.cfi_startproc
 198              		@ args = 0, pretend = 0, frame = 8
 199              		@ frame_needed = 1, uses_anonymous_args = 0
 200 0000 80B5     		push	{r7, lr}
 201              		.cfi_def_cfa_offset 8
 202              		.cfi_offset 7, -8
 203              		.cfi_offset 14, -4
 204 0002 82B0     		sub	sp, sp, #8
 205              		.cfi_def_cfa_offset 16
 206 0004 00AF     		add	r7, sp, #0
 207              		.cfi_def_cfa_register 7
 208 0006 7860     		str	r0, [r7, #4]
 318:..\..\..\lvgl\version_6.1.2\lvgl\src\lv_objx\../lv_objx/lv_page.h ****     return lv_cont_get_fit_left(lv_page_get_scrl(page));
 209              		.loc 2 318 0
 210 0008 7868     		ldr	r0, [r7, #4]
ARM GAS  C:\Users\tmj32\AppData\Local\Temp\ccFKuFvs.s 			page 12


 211 000a FFF7FEFF 		bl	lv_page_get_scrl
 212 000e 0346     		mov	r3, r0
 213 0010 1846     		mov	r0, r3
 214 0012 FFF7FEFF 		bl	lv_cont_get_fit_left
 215 0016 0346     		mov	r3, r0
 319:..\..\..\lvgl\version_6.1.2\lvgl\src\lv_objx\../lv_objx/lv_page.h **** }
 216              		.loc 2 319 0
 217 0018 1846     		mov	r0, r3
 218 001a 0837     		adds	r7, r7, #8
 219              		.cfi_def_cfa_offset 8
 220 001c BD46     		mov	sp, r7
 221              		.cfi_def_cfa_register 13
 222              		@ sp needed
 223 001e 80BD     		pop	{r7, pc}
 224              		.cfi_endproc
 225              	.LFE44:
 226              		.size	lv_page_get_scrl_fit_left, .-lv_page_get_scrl_fit_left
 227              		.section	.text.lv_page_get_scrl_fit_right,"ax",%progbits
 228              		.align	2
 229              		.thumb
 230              		.thumb_func
 231              		.type	lv_page_get_scrl_fit_right, %function
 232              	lv_page_get_scrl_fit_right:
 233              	.LFB45:
 320:..\..\..\lvgl\version_6.1.2\lvgl\src\lv_objx\../lv_objx/lv_page.h **** 
 321:..\..\..\lvgl\version_6.1.2\lvgl\src\lv_objx\../lv_objx/lv_page.h **** /**
 322:..\..\..\lvgl\version_6.1.2\lvgl\src\lv_objx\../lv_objx/lv_page.h ****  * Get the right fit mode
 323:..\..\..\lvgl\version_6.1.2\lvgl\src\lv_objx\../lv_objx/lv_page.h ****  * @param page pointer to a page object
 324:..\..\..\lvgl\version_6.1.2\lvgl\src\lv_objx\../lv_objx/lv_page.h ****  * @return an element of `lv_fit_t`
 325:..\..\..\lvgl\version_6.1.2\lvgl\src\lv_objx\../lv_objx/lv_page.h ****  */
 326:..\..\..\lvgl\version_6.1.2\lvgl\src\lv_objx\../lv_objx/lv_page.h **** static inline lv_fit_t lv_page_get_scrl_fit_right(const lv_obj_t * page)
 327:..\..\..\lvgl\version_6.1.2\lvgl\src\lv_objx\../lv_objx/lv_page.h **** {
 234              		.loc 2 327 0
 235              		.cfi_startproc
 236              		@ args = 0, pretend = 0, frame = 8
 237              		@ frame_needed = 1, uses_anonymous_args = 0
 238 0000 80B5     		push	{r7, lr}
 239              		.cfi_def_cfa_offset 8
 240              		.cfi_offset 7, -8
 241              		.cfi_offset 14, -4
 242 0002 82B0     		sub	sp, sp, #8
 243              		.cfi_def_cfa_offset 16
 244 0004 00AF     		add	r7, sp, #0
 245              		.cfi_def_cfa_register 7
 246 0006 7860     		str	r0, [r7, #4]
 328:..\..\..\lvgl\version_6.1.2\lvgl\src\lv_objx\../lv_objx/lv_page.h ****     return lv_cont_get_fit_right(lv_page_get_scrl(page));
 247              		.loc 2 328 0
 248 0008 7868     		ldr	r0, [r7, #4]
 249 000a FFF7FEFF 		bl	lv_page_get_scrl
 250 000e 0346     		mov	r3, r0
 251 0010 1846     		mov	r0, r3
 252 0012 FFF7FEFF 		bl	lv_cont_get_fit_right
 253 0016 0346     		mov	r3, r0
 329:..\..\..\lvgl\version_6.1.2\lvgl\src\lv_objx\../lv_objx/lv_page.h **** }
 254              		.loc 2 329 0
 255 0018 1846     		mov	r0, r3
 256 001a 0837     		adds	r7, r7, #8
ARM GAS  C:\Users\tmj32\AppData\Local\Temp\ccFKuFvs.s 			page 13


 257              		.cfi_def_cfa_offset 8
 258 001c BD46     		mov	sp, r7
 259              		.cfi_def_cfa_register 13
 260              		@ sp needed
 261 001e 80BD     		pop	{r7, pc}
 262              		.cfi_endproc
 263              	.LFE45:
 264              		.size	lv_page_get_scrl_fit_right, .-lv_page_get_scrl_fit_right
 265              		.section	.text.lv_page_get_scrl_fit_top,"ax",%progbits
 266              		.align	2
 267              		.thumb
 268              		.thumb_func
 269              		.type	lv_page_get_scrl_fit_top, %function
 270              	lv_page_get_scrl_fit_top:
 271              	.LFB46:
 330:..\..\..\lvgl\version_6.1.2\lvgl\src\lv_objx\../lv_objx/lv_page.h **** 
 331:..\..\..\lvgl\version_6.1.2\lvgl\src\lv_objx\../lv_objx/lv_page.h **** /**
 332:..\..\..\lvgl\version_6.1.2\lvgl\src\lv_objx\../lv_objx/lv_page.h ****  * Get the top fit mode
 333:..\..\..\lvgl\version_6.1.2\lvgl\src\lv_objx\../lv_objx/lv_page.h ****  * @param page pointer to a page object
 334:..\..\..\lvgl\version_6.1.2\lvgl\src\lv_objx\../lv_objx/lv_page.h ****  * @return an element of `lv_fit_t`
 335:..\..\..\lvgl\version_6.1.2\lvgl\src\lv_objx\../lv_objx/lv_page.h ****  */
 336:..\..\..\lvgl\version_6.1.2\lvgl\src\lv_objx\../lv_objx/lv_page.h **** static inline lv_fit_t lv_page_get_scrl_fit_top(const lv_obj_t * page)
 337:..\..\..\lvgl\version_6.1.2\lvgl\src\lv_objx\../lv_objx/lv_page.h **** {
 272              		.loc 2 337 0
 273              		.cfi_startproc
 274              		@ args = 0, pretend = 0, frame = 8
 275              		@ frame_needed = 1, uses_anonymous_args = 0
 276 0000 80B5     		push	{r7, lr}
 277              		.cfi_def_cfa_offset 8
 278              		.cfi_offset 7, -8
 279              		.cfi_offset 14, -4
 280 0002 82B0     		sub	sp, sp, #8
 281              		.cfi_def_cfa_offset 16
 282 0004 00AF     		add	r7, sp, #0
 283              		.cfi_def_cfa_register 7
 284 0006 7860     		str	r0, [r7, #4]
 338:..\..\..\lvgl\version_6.1.2\lvgl\src\lv_objx\../lv_objx/lv_page.h ****     return lv_cont_get_fit_top(lv_page_get_scrl(page));
 285              		.loc 2 338 0
 286 0008 7868     		ldr	r0, [r7, #4]
 287 000a FFF7FEFF 		bl	lv_page_get_scrl
 288 000e 0346     		mov	r3, r0
 289 0010 1846     		mov	r0, r3
 290 0012 FFF7FEFF 		bl	lv_cont_get_fit_top
 291 0016 0346     		mov	r3, r0
 339:..\..\..\lvgl\version_6.1.2\lvgl\src\lv_objx\../lv_objx/lv_page.h **** }
 292              		.loc 2 339 0
 293 0018 1846     		mov	r0, r3
 294 001a 0837     		adds	r7, r7, #8
 295              		.cfi_def_cfa_offset 8
 296 001c BD46     		mov	sp, r7
 297              		.cfi_def_cfa_register 13
 298              		@ sp needed
 299 001e 80BD     		pop	{r7, pc}
 300              		.cfi_endproc
 301              	.LFE46:
 302              		.size	lv_page_get_scrl_fit_top, .-lv_page_get_scrl_fit_top
 303              		.bss
ARM GAS  C:\Users\tmj32\AppData\Local\Temp\ccFKuFvs.s 			page 14


 304              		.align	2
 305              	ancestor_design:
 306 0000 00000000 		.space	4
 307              		.align	2
 308              	ancestor_signal:
 309 0004 00000000 		.space	4
 310              		.section	.text.lv_page_create,"ax",%progbits
 311              		.align	2
 312              		.global	lv_page_create
 313              		.thumb
 314              		.thumb_func
 315              		.type	lv_page_create, %function
 316              	lv_page_create:
 317              	.LFB48:
 318              		.file 3 "..\\..\\..\\lvgl\\version_6.1.2\\lvgl\\src\\lv_objx\\lv_page.c"
   1:..\..\..\lvgl\version_6.1.2\lvgl\src\lv_objx/lv_page.c **** /**
   2:..\..\..\lvgl\version_6.1.2\lvgl\src\lv_objx/lv_page.c ****  * @file lv_page.c
   3:..\..\..\lvgl\version_6.1.2\lvgl\src\lv_objx/lv_page.c ****  *
   4:..\..\..\lvgl\version_6.1.2\lvgl\src\lv_objx/lv_page.c ****  */
   5:..\..\..\lvgl\version_6.1.2\lvgl\src\lv_objx/lv_page.c **** 
   6:..\..\..\lvgl\version_6.1.2\lvgl\src\lv_objx/lv_page.c **** /*********************
   7:..\..\..\lvgl\version_6.1.2\lvgl\src\lv_objx/lv_page.c ****  *      INCLUDES
   8:..\..\..\lvgl\version_6.1.2\lvgl\src\lv_objx/lv_page.c ****  *********************/
   9:..\..\..\lvgl\version_6.1.2\lvgl\src\lv_objx/lv_page.c **** #include "../lv_objx/lv_page.h"
  10:..\..\..\lvgl\version_6.1.2\lvgl\src\lv_objx/lv_page.c **** #if LV_USE_PAGE != 0
  11:..\..\..\lvgl\version_6.1.2\lvgl\src\lv_objx/lv_page.c **** 
  12:..\..\..\lvgl\version_6.1.2\lvgl\src\lv_objx/lv_page.c **** #include "../lv_core/lv_debug.h"
  13:..\..\..\lvgl\version_6.1.2\lvgl\src\lv_objx/lv_page.c **** #include "../lv_core/lv_group.h"
  14:..\..\..\lvgl\version_6.1.2\lvgl\src\lv_objx/lv_page.c **** #include "../lv_draw/lv_draw.h"
  15:..\..\..\lvgl\version_6.1.2\lvgl\src\lv_objx/lv_page.c **** #include "../lv_themes/lv_theme.h"
  16:..\..\..\lvgl\version_6.1.2\lvgl\src\lv_objx/lv_page.c **** #include "../lv_core/lv_refr.h"
  17:..\..\..\lvgl\version_6.1.2\lvgl\src\lv_objx/lv_page.c **** #include "../lv_misc/lv_anim.h"
  18:..\..\..\lvgl\version_6.1.2\lvgl\src\lv_objx/lv_page.c **** #include "../lv_misc/lv_math.h"
  19:..\..\..\lvgl\version_6.1.2\lvgl\src\lv_objx/lv_page.c **** 
  20:..\..\..\lvgl\version_6.1.2\lvgl\src\lv_objx/lv_page.c **** /*********************
  21:..\..\..\lvgl\version_6.1.2\lvgl\src\lv_objx/lv_page.c ****  *      DEFINES
  22:..\..\..\lvgl\version_6.1.2\lvgl\src\lv_objx/lv_page.c ****  *********************/
  23:..\..\..\lvgl\version_6.1.2\lvgl\src\lv_objx/lv_page.c **** #define LV_OBJX_NAME "lv_page"
  24:..\..\..\lvgl\version_6.1.2\lvgl\src\lv_objx/lv_page.c **** 
  25:..\..\..\lvgl\version_6.1.2\lvgl\src\lv_objx/lv_page.c **** #define LV_PAGE_SB_MIN_SIZE (LV_DPI / 8)
  26:..\..\..\lvgl\version_6.1.2\lvgl\src\lv_objx/lv_page.c **** 
  27:..\..\..\lvgl\version_6.1.2\lvgl\src\lv_objx/lv_page.c **** /*[ms] Scroll anim time on `lv_page_scroll_up/down/left/rigth`*/
  28:..\..\..\lvgl\version_6.1.2\lvgl\src\lv_objx/lv_page.c **** #define LV_PAGE_SCROLL_ANIM_TIME 200
  29:..\..\..\lvgl\version_6.1.2\lvgl\src\lv_objx/lv_page.c **** 
  30:..\..\..\lvgl\version_6.1.2\lvgl\src\lv_objx/lv_page.c **** #define LV_PAGE_END_FLASH_SIZE (LV_DPI / 4)
  31:..\..\..\lvgl\version_6.1.2\lvgl\src\lv_objx/lv_page.c **** #define LV_PAGE_END_ANIM_TIME 300
  32:..\..\..\lvgl\version_6.1.2\lvgl\src\lv_objx/lv_page.c **** #define LV_PAGE_END_ANIM_WAIT_TIME 300
  33:..\..\..\lvgl\version_6.1.2\lvgl\src\lv_objx/lv_page.c **** 
  34:..\..\..\lvgl\version_6.1.2\lvgl\src\lv_objx/lv_page.c **** #if LV_USE_ANIMATION == 0
  35:..\..\..\lvgl\version_6.1.2\lvgl\src\lv_objx/lv_page.c **** #undef LV_PAGE_DEF_ANIM_TIME
  36:..\..\..\lvgl\version_6.1.2\lvgl\src\lv_objx/lv_page.c **** #define LV_PAGE_DEF_ANIM_TIME 0 /*No animation*/
  37:..\..\..\lvgl\version_6.1.2\lvgl\src\lv_objx/lv_page.c **** #endif
  38:..\..\..\lvgl\version_6.1.2\lvgl\src\lv_objx/lv_page.c **** 
  39:..\..\..\lvgl\version_6.1.2\lvgl\src\lv_objx/lv_page.c **** /**********************
  40:..\..\..\lvgl\version_6.1.2\lvgl\src\lv_objx/lv_page.c ****  *      TYPEDEFS
  41:..\..\..\lvgl\version_6.1.2\lvgl\src\lv_objx/lv_page.c ****  **********************/
  42:..\..\..\lvgl\version_6.1.2\lvgl\src\lv_objx/lv_page.c **** 
ARM GAS  C:\Users\tmj32\AppData\Local\Temp\ccFKuFvs.s 			page 15


  43:..\..\..\lvgl\version_6.1.2\lvgl\src\lv_objx/lv_page.c **** /**********************
  44:..\..\..\lvgl\version_6.1.2\lvgl\src\lv_objx/lv_page.c ****  *  STATIC PROTOTYPES
  45:..\..\..\lvgl\version_6.1.2\lvgl\src\lv_objx/lv_page.c ****  **********************/
  46:..\..\..\lvgl\version_6.1.2\lvgl\src\lv_objx/lv_page.c **** static void lv_page_sb_refresh(lv_obj_t * page);
  47:..\..\..\lvgl\version_6.1.2\lvgl\src\lv_objx/lv_page.c **** static bool lv_page_design(lv_obj_t * page, const lv_area_t * mask, lv_design_mode_t mode);
  48:..\..\..\lvgl\version_6.1.2\lvgl\src\lv_objx/lv_page.c **** static bool lv_scrl_design(lv_obj_t * scrl, const lv_area_t * mask, lv_design_mode_t mode);
  49:..\..\..\lvgl\version_6.1.2\lvgl\src\lv_objx/lv_page.c **** static lv_res_t lv_page_signal(lv_obj_t * page, lv_signal_t sign, void * param);
  50:..\..\..\lvgl\version_6.1.2\lvgl\src\lv_objx/lv_page.c **** static lv_res_t lv_page_scrollable_signal(lv_obj_t * scrl, lv_signal_t sign, void * param);
  51:..\..\..\lvgl\version_6.1.2\lvgl\src\lv_objx/lv_page.c **** static void scrl_def_event_cb(lv_obj_t * scrl, lv_event_t event);
  52:..\..\..\lvgl\version_6.1.2\lvgl\src\lv_objx/lv_page.c **** #if LV_USE_ANIMATION
  53:..\..\..\lvgl\version_6.1.2\lvgl\src\lv_objx/lv_page.c **** static void edge_flash_anim(void * page, lv_anim_value_t v);
  54:..\..\..\lvgl\version_6.1.2\lvgl\src\lv_objx/lv_page.c **** static void edge_flash_anim_end(lv_anim_t * a);
  55:..\..\..\lvgl\version_6.1.2\lvgl\src\lv_objx/lv_page.c **** #endif
  56:..\..\..\lvgl\version_6.1.2\lvgl\src\lv_objx/lv_page.c **** 
  57:..\..\..\lvgl\version_6.1.2\lvgl\src\lv_objx/lv_page.c **** /**********************
  58:..\..\..\lvgl\version_6.1.2\lvgl\src\lv_objx/lv_page.c ****  *  STATIC VARIABLES
  59:..\..\..\lvgl\version_6.1.2\lvgl\src\lv_objx/lv_page.c ****  **********************/
  60:..\..\..\lvgl\version_6.1.2\lvgl\src\lv_objx/lv_page.c **** static lv_design_cb_t ancestor_design;
  61:..\..\..\lvgl\version_6.1.2\lvgl\src\lv_objx/lv_page.c **** static lv_signal_cb_t ancestor_signal;
  62:..\..\..\lvgl\version_6.1.2\lvgl\src\lv_objx/lv_page.c **** 
  63:..\..\..\lvgl\version_6.1.2\lvgl\src\lv_objx/lv_page.c **** /**********************
  64:..\..\..\lvgl\version_6.1.2\lvgl\src\lv_objx/lv_page.c ****  *      MACROS
  65:..\..\..\lvgl\version_6.1.2\lvgl\src\lv_objx/lv_page.c ****  **********************/
  66:..\..\..\lvgl\version_6.1.2\lvgl\src\lv_objx/lv_page.c **** 
  67:..\..\..\lvgl\version_6.1.2\lvgl\src\lv_objx/lv_page.c **** /**********************
  68:..\..\..\lvgl\version_6.1.2\lvgl\src\lv_objx/lv_page.c ****  *   GLOBAL FUNCTIONS
  69:..\..\..\lvgl\version_6.1.2\lvgl\src\lv_objx/lv_page.c ****  **********************/
  70:..\..\..\lvgl\version_6.1.2\lvgl\src\lv_objx/lv_page.c **** 
  71:..\..\..\lvgl\version_6.1.2\lvgl\src\lv_objx/lv_page.c **** /**
  72:..\..\..\lvgl\version_6.1.2\lvgl\src\lv_objx/lv_page.c ****  * Create a page objects
  73:..\..\..\lvgl\version_6.1.2\lvgl\src\lv_objx/lv_page.c ****  * @param par pointer to an object, it will be the parent of the new page
  74:..\..\..\lvgl\version_6.1.2\lvgl\src\lv_objx/lv_page.c ****  * @param copy pointer to a page object, if not NULL then the new object will be copied from it
  75:..\..\..\lvgl\version_6.1.2\lvgl\src\lv_objx/lv_page.c ****  * @return pointer to the created page
  76:..\..\..\lvgl\version_6.1.2\lvgl\src\lv_objx/lv_page.c ****  */
  77:..\..\..\lvgl\version_6.1.2\lvgl\src\lv_objx/lv_page.c **** lv_obj_t * lv_page_create(lv_obj_t * par, const lv_obj_t * copy)
  78:..\..\..\lvgl\version_6.1.2\lvgl\src\lv_objx/lv_page.c **** {
 319              		.loc 3 78 0
 320              		.cfi_startproc
 321              		@ args = 0, pretend = 0, frame = 24
 322              		@ frame_needed = 1, uses_anonymous_args = 0
 323 0000 80B5     		push	{r7, lr}
 324              		.cfi_def_cfa_offset 8
 325              		.cfi_offset 7, -8
 326              		.cfi_offset 14, -4
 327 0002 88B0     		sub	sp, sp, #32
 328              		.cfi_def_cfa_offset 40
 329 0004 02AF     		add	r7, sp, #8
 330              		.cfi_def_cfa 7, 32
 331 0006 7860     		str	r0, [r7, #4]
 332 0008 3960     		str	r1, [r7]
  79:..\..\..\lvgl\version_6.1.2\lvgl\src\lv_objx/lv_page.c ****     LV_LOG_TRACE("page create started");
  80:..\..\..\lvgl\version_6.1.2\lvgl\src\lv_objx/lv_page.c **** 
  81:..\..\..\lvgl\version_6.1.2\lvgl\src\lv_objx/lv_page.c ****     /*Create the ancestor object*/
  82:..\..\..\lvgl\version_6.1.2\lvgl\src\lv_objx/lv_page.c ****     lv_obj_t * new_page = lv_cont_create(par, copy);
 333              		.loc 3 82 0
 334 000a 3968     		ldr	r1, [r7]
 335 000c 7868     		ldr	r0, [r7, #4]
ARM GAS  C:\Users\tmj32\AppData\Local\Temp\ccFKuFvs.s 			page 16


 336 000e FFF7FEFF 		bl	lv_cont_create
 337 0012 7861     		str	r0, [r7, #20]
  83:..\..\..\lvgl\version_6.1.2\lvgl\src\lv_objx/lv_page.c ****     LV_ASSERT_MEM(new_page);
  84:..\..\..\lvgl\version_6.1.2\lvgl\src\lv_objx/lv_page.c ****     if(new_page == NULL) return NULL;
 338              		.loc 3 84 0
 339 0014 7B69     		ldr	r3, [r7, #20]
 340 0016 002B     		cmp	r3, #0
 341 0018 01D1     		bne	.L15
 342              		.loc 3 84 0 is_stmt 0 discriminator 1
 343 001a 0023     		movs	r3, #0
 344 001c 3FE1     		b	.L16
 345              	.L15:
  85:..\..\..\lvgl\version_6.1.2\lvgl\src\lv_objx/lv_page.c **** 
  86:..\..\..\lvgl\version_6.1.2\lvgl\src\lv_objx/lv_page.c ****     if(ancestor_signal == NULL) ancestor_signal = lv_obj_get_signal_cb(new_page);
 346              		.loc 3 86 0 is_stmt 1
 347 001e A24B     		ldr	r3, .L26
 348 0020 1B68     		ldr	r3, [r3]
 349 0022 002B     		cmp	r3, #0
 350 0024 05D1     		bne	.L17
 351              		.loc 3 86 0 is_stmt 0 discriminator 1
 352 0026 7869     		ldr	r0, [r7, #20]
 353 0028 FFF7FEFF 		bl	lv_obj_get_signal_cb
 354 002c 0246     		mov	r2, r0
 355 002e 9E4B     		ldr	r3, .L26
 356 0030 1A60     		str	r2, [r3]
 357              	.L17:
  87:..\..\..\lvgl\version_6.1.2\lvgl\src\lv_objx/lv_page.c ****     if(ancestor_design == NULL) ancestor_design = lv_obj_get_design_cb(new_page);
 358              		.loc 3 87 0 is_stmt 1
 359 0032 9E4B     		ldr	r3, .L26+4
 360 0034 1B68     		ldr	r3, [r3]
 361 0036 002B     		cmp	r3, #0
 362 0038 05D1     		bne	.L18
 363              		.loc 3 87 0 is_stmt 0 discriminator 1
 364 003a 7869     		ldr	r0, [r7, #20]
 365 003c FFF7FEFF 		bl	lv_obj_get_design_cb
 366 0040 0246     		mov	r2, r0
 367 0042 9A4B     		ldr	r3, .L26+4
 368 0044 1A60     		str	r2, [r3]
 369              	.L18:
  88:..\..\..\lvgl\version_6.1.2\lvgl\src\lv_objx/lv_page.c **** 
  89:..\..\..\lvgl\version_6.1.2\lvgl\src\lv_objx/lv_page.c ****     /*Allocate the object type specific extended data*/
  90:..\..\..\lvgl\version_6.1.2\lvgl\src\lv_objx/lv_page.c ****     lv_page_ext_t * ext = lv_obj_allocate_ext_attr(new_page, sizeof(lv_page_ext_t));
 370              		.loc 3 90 0 is_stmt 1
 371 0046 3021     		movs	r1, #48
 372 0048 7869     		ldr	r0, [r7, #20]
 373 004a FFF7FEFF 		bl	lv_obj_allocate_ext_attr
 374 004e 3861     		str	r0, [r7, #16]
  91:..\..\..\lvgl\version_6.1.2\lvgl\src\lv_objx/lv_page.c ****     LV_ASSERT_MEM(ext);
  92:..\..\..\lvgl\version_6.1.2\lvgl\src\lv_objx/lv_page.c ****     if(ext == NULL) return NULL;
 375              		.loc 3 92 0
 376 0050 3B69     		ldr	r3, [r7, #16]
 377 0052 002B     		cmp	r3, #0
 378 0054 01D1     		bne	.L19
 379              		.loc 3 92 0 is_stmt 0 discriminator 1
 380 0056 0023     		movs	r3, #0
 381 0058 21E1     		b	.L16
 382              	.L19:
ARM GAS  C:\Users\tmj32\AppData\Local\Temp\ccFKuFvs.s 			page 17


  93:..\..\..\lvgl\version_6.1.2\lvgl\src\lv_objx/lv_page.c **** 
  94:..\..\..\lvgl\version_6.1.2\lvgl\src\lv_objx/lv_page.c ****     ext->scrl        = NULL;
 383              		.loc 3 94 0 is_stmt 1
 384 005a 3B69     		ldr	r3, [r7, #16]
 385 005c 0022     		movs	r2, #0
 386 005e 5A60     		str	r2, [r3, #4]
  95:..\..\..\lvgl\version_6.1.2\lvgl\src\lv_objx/lv_page.c ****     ext->sb.hor_draw = 0;
 387              		.loc 3 95 0
 388 0060 3A69     		ldr	r2, [r7, #16]
 389 0062 137F     		ldrb	r3, [r2, #28]
 390 0064 6FF30003 		bfc	r3, #0, #1
 391 0068 1377     		strb	r3, [r2, #28]
  96:..\..\..\lvgl\version_6.1.2\lvgl\src\lv_objx/lv_page.c ****     ext->sb.ver_draw = 0;
 392              		.loc 3 96 0
 393 006a 3A69     		ldr	r2, [r7, #16]
 394 006c 137F     		ldrb	r3, [r2, #28]
 395 006e 6FF34103 		bfc	r3, #1, #1
 396 0072 1377     		strb	r3, [r2, #28]
  97:..\..\..\lvgl\version_6.1.2\lvgl\src\lv_objx/lv_page.c ****     ext->sb.style    = &lv_style_pretty;
 397              		.loc 3 97 0
 398 0074 3B69     		ldr	r3, [r7, #16]
 399 0076 8E4A     		ldr	r2, .L26+8
 400 0078 9A60     		str	r2, [r3, #8]
  98:..\..\..\lvgl\version_6.1.2\lvgl\src\lv_objx/lv_page.c ****     ext->sb.mode     = LV_SB_MODE_AUTO;
 401              		.loc 3 98 0
 402 007a 3A69     		ldr	r2, [r7, #16]
 403 007c 137F     		ldrb	r3, [r2, #28]
 404 007e 0321     		movs	r1, #3
 405 0080 61F38403 		bfi	r3, r1, #2, #3
 406 0084 1377     		strb	r3, [r2, #28]
  99:..\..\..\lvgl\version_6.1.2\lvgl\src\lv_objx/lv_page.c **** #if LV_USE_ANIMATION
 100:..\..\..\lvgl\version_6.1.2\lvgl\src\lv_objx/lv_page.c ****     ext->edge_flash.enabled   = 0;
 407              		.loc 3 100 0
 408 0086 3A69     		ldr	r2, [r7, #16]
 409 0088 92F82830 		ldrb	r3, [r2, #40]
 410 008c 6FF30003 		bfc	r3, #0, #1
 411 0090 82F82830 		strb	r3, [r2, #40]
 101:..\..\..\lvgl\version_6.1.2\lvgl\src\lv_objx/lv_page.c ****     ext->edge_flash.bottom_ip = 0;
 412              		.loc 3 101 0
 413 0094 3A69     		ldr	r2, [r7, #16]
 414 0096 92F82830 		ldrb	r3, [r2, #40]
 415 009a 6FF38203 		bfc	r3, #2, #1
 416 009e 82F82830 		strb	r3, [r2, #40]
 102:..\..\..\lvgl\version_6.1.2\lvgl\src\lv_objx/lv_page.c ****     ext->edge_flash.top_ip    = 0;
 417              		.loc 3 102 0
 418 00a2 3A69     		ldr	r2, [r7, #16]
 419 00a4 92F82830 		ldrb	r3, [r2, #40]
 420 00a8 6FF34103 		bfc	r3, #1, #1
 421 00ac 82F82830 		strb	r3, [r2, #40]
 103:..\..\..\lvgl\version_6.1.2\lvgl\src\lv_objx/lv_page.c ****     ext->edge_flash.left_ip   = 0;
 422              		.loc 3 103 0
 423 00b0 3A69     		ldr	r2, [r7, #16]
 424 00b2 92F82830 		ldrb	r3, [r2, #40]
 425 00b6 6FF30413 		bfc	r3, #4, #1
 426 00ba 82F82830 		strb	r3, [r2, #40]
 104:..\..\..\lvgl\version_6.1.2\lvgl\src\lv_objx/lv_page.c ****     ext->edge_flash.right_ip  = 0;
 427              		.loc 3 104 0
ARM GAS  C:\Users\tmj32\AppData\Local\Temp\ccFKuFvs.s 			page 18


 428 00be 3A69     		ldr	r2, [r7, #16]
 429 00c0 92F82830 		ldrb	r3, [r2, #40]
 430 00c4 6FF3C303 		bfc	r3, #3, #1
 431 00c8 82F82830 		strb	r3, [r2, #40]
 105:..\..\..\lvgl\version_6.1.2\lvgl\src\lv_objx/lv_page.c ****     ext->edge_flash.state     = 0;
 432              		.loc 3 105 0
 433 00cc 3B69     		ldr	r3, [r7, #16]
 434 00ce 0022     		movs	r2, #0
 435 00d0 1A84     		strh	r2, [r3, #32]	@ movhi
 106:..\..\..\lvgl\version_6.1.2\lvgl\src\lv_objx/lv_page.c ****     ext->edge_flash.style     = &lv_style_plain_color;
 436              		.loc 3 106 0
 437 00d2 3B69     		ldr	r3, [r7, #16]
 438 00d4 774A     		ldr	r2, .L26+12
 439 00d6 5A62     		str	r2, [r3, #36]
 107:..\..\..\lvgl\version_6.1.2\lvgl\src\lv_objx/lv_page.c ****     ext->anim_time            = LV_PAGE_DEF_ANIM_TIME;
 440              		.loc 3 107 0
 441 00d8 3B69     		ldr	r3, [r7, #16]
 442 00da 4FF4C872 		mov	r2, #400
 443 00de 9A85     		strh	r2, [r3, #44]	@ movhi
 108:..\..\..\lvgl\version_6.1.2\lvgl\src\lv_objx/lv_page.c **** #endif
 109:..\..\..\lvgl\version_6.1.2\lvgl\src\lv_objx/lv_page.c ****     ext->scroll_prop    = 0;
 444              		.loc 3 109 0
 445 00e0 3A69     		ldr	r2, [r7, #16]
 446 00e2 92F82E30 		ldrb	r3, [r2, #46]
 447 00e6 6FF30003 		bfc	r3, #0, #1
 448 00ea 82F82E30 		strb	r3, [r2, #46]
 110:..\..\..\lvgl\version_6.1.2\lvgl\src\lv_objx/lv_page.c ****     ext->scroll_prop_ip = 0;
 449              		.loc 3 110 0
 450 00ee 3A69     		ldr	r2, [r7, #16]
 451 00f0 92F82E30 		ldrb	r3, [r2, #46]
 452 00f4 6FF34103 		bfc	r3, #1, #1
 453 00f8 82F82E30 		strb	r3, [r2, #46]
 111:..\..\..\lvgl\version_6.1.2\lvgl\src\lv_objx/lv_page.c **** 
 112:..\..\..\lvgl\version_6.1.2\lvgl\src\lv_objx/lv_page.c ****     /*Init the new page object*/
 113:..\..\..\lvgl\version_6.1.2\lvgl\src\lv_objx/lv_page.c ****     if(copy == NULL) {
 454              		.loc 3 113 0
 455 00fc 3B68     		ldr	r3, [r7]
 456 00fe 002B     		cmp	r3, #0
 457 0100 40F08480 		bne	.L20
 458              	.LBB2:
 114:..\..\..\lvgl\version_6.1.2\lvgl\src\lv_objx/lv_page.c ****         ext->scrl = lv_cont_create(new_page, NULL);
 459              		.loc 3 114 0
 460 0104 0021     		movs	r1, #0
 461 0106 7869     		ldr	r0, [r7, #20]
 462 0108 FFF7FEFF 		bl	lv_cont_create
 463 010c 0246     		mov	r2, r0
 464 010e 3B69     		ldr	r3, [r7, #16]
 465 0110 5A60     		str	r2, [r3, #4]
 115:..\..\..\lvgl\version_6.1.2\lvgl\src\lv_objx/lv_page.c ****         lv_obj_set_signal_cb(ext->scrl, lv_page_scrollable_signal);
 466              		.loc 3 115 0
 467 0112 3B69     		ldr	r3, [r7, #16]
 468 0114 5B68     		ldr	r3, [r3, #4]
 469 0116 6849     		ldr	r1, .L26+16
 470 0118 1846     		mov	r0, r3
 471 011a FFF7FEFF 		bl	lv_obj_set_signal_cb
 116:..\..\..\lvgl\version_6.1.2\lvgl\src\lv_objx/lv_page.c ****         lv_obj_set_design_cb(ext->scrl, lv_scrl_design);
 472              		.loc 3 116 0
ARM GAS  C:\Users\tmj32\AppData\Local\Temp\ccFKuFvs.s 			page 19


 473 011e 3B69     		ldr	r3, [r7, #16]
 474 0120 5B68     		ldr	r3, [r3, #4]
 475 0122 6649     		ldr	r1, .L26+20
 476 0124 1846     		mov	r0, r3
 477 0126 FFF7FEFF 		bl	lv_obj_set_design_cb
 117:..\..\..\lvgl\version_6.1.2\lvgl\src\lv_objx/lv_page.c ****         lv_obj_set_drag(ext->scrl, true);
 478              		.loc 3 117 0
 479 012a 3B69     		ldr	r3, [r7, #16]
 480 012c 5B68     		ldr	r3, [r3, #4]
 481 012e 0121     		movs	r1, #1
 482 0130 1846     		mov	r0, r3
 483 0132 FFF7FEFF 		bl	lv_obj_set_drag
 118:..\..\..\lvgl\version_6.1.2\lvgl\src\lv_objx/lv_page.c ****         lv_obj_set_drag_throw(ext->scrl, true);
 484              		.loc 3 118 0
 485 0136 3B69     		ldr	r3, [r7, #16]
 486 0138 5B68     		ldr	r3, [r3, #4]
 487 013a 0121     		movs	r1, #1
 488 013c 1846     		mov	r0, r3
 489 013e FFF7FEFF 		bl	lv_obj_set_drag_throw
 119:..\..\..\lvgl\version_6.1.2\lvgl\src\lv_objx/lv_page.c ****         lv_obj_set_protect(ext->scrl, LV_PROTECT_PARENT | LV_PROTECT_PRESS_LOST);
 490              		.loc 3 119 0
 491 0142 3B69     		ldr	r3, [r7, #16]
 492 0144 5B68     		ldr	r3, [r3, #4]
 493 0146 1221     		movs	r1, #18
 494 0148 1846     		mov	r0, r3
 495 014a FFF7FEFF 		bl	lv_obj_set_protect
 120:..\..\..\lvgl\version_6.1.2\lvgl\src\lv_objx/lv_page.c ****         lv_cont_set_fit4(ext->scrl, LV_FIT_FILL, LV_FIT_FILL, LV_FIT_FILL, LV_FIT_FILL);
 496              		.loc 3 120 0
 497 014e 3B69     		ldr	r3, [r7, #16]
 498 0150 5868     		ldr	r0, [r3, #4]
 499 0152 0323     		movs	r3, #3
 500 0154 0093     		str	r3, [sp]
 501 0156 0323     		movs	r3, #3
 502 0158 0322     		movs	r2, #3
 503 015a 0321     		movs	r1, #3
 504 015c FFF7FEFF 		bl	lv_cont_set_fit4
 121:..\..\..\lvgl\version_6.1.2\lvgl\src\lv_objx/lv_page.c ****         lv_obj_set_event_cb(ext->scrl, scrl_def_event_cb); /*Propagate some event to the background
 505              		.loc 3 121 0
 506 0160 3B69     		ldr	r3, [r7, #16]
 507 0162 5B68     		ldr	r3, [r3, #4]
 508 0164 5649     		ldr	r1, .L26+24
 509 0166 1846     		mov	r0, r3
 510 0168 FFF7FEFF 		bl	lv_obj_set_event_cb
 122:..\..\..\lvgl\version_6.1.2\lvgl\src\lv_objx/lv_page.c ****                                                               object by default for convenience */
 123:..\..\..\lvgl\version_6.1.2\lvgl\src\lv_objx/lv_page.c **** 
 124:..\..\..\lvgl\version_6.1.2\lvgl\src\lv_objx/lv_page.c ****         /* Add the signal function only if 'scrolling' is created
 125:..\..\..\lvgl\version_6.1.2\lvgl\src\lv_objx/lv_page.c ****          * because everything has to be ready before any signal is received*/
 126:..\..\..\lvgl\version_6.1.2\lvgl\src\lv_objx/lv_page.c ****         lv_obj_set_signal_cb(new_page, lv_page_signal);
 511              		.loc 3 126 0
 512 016c 5549     		ldr	r1, .L26+28
 513 016e 7869     		ldr	r0, [r7, #20]
 514 0170 FFF7FEFF 		bl	lv_obj_set_signal_cb
 127:..\..\..\lvgl\version_6.1.2\lvgl\src\lv_objx/lv_page.c ****         lv_obj_set_design_cb(new_page, lv_page_design);
 515              		.loc 3 127 0
 516 0174 5449     		ldr	r1, .L26+32
 517 0176 7869     		ldr	r0, [r7, #20]
 518 0178 FFF7FEFF 		bl	lv_obj_set_design_cb
ARM GAS  C:\Users\tmj32\AppData\Local\Temp\ccFKuFvs.s 			page 20


 128:..\..\..\lvgl\version_6.1.2\lvgl\src\lv_objx/lv_page.c **** 
 129:..\..\..\lvgl\version_6.1.2\lvgl\src\lv_objx/lv_page.c ****         lv_page_set_sb_mode(new_page, ext->sb.mode);
 519              		.loc 3 129 0
 520 017c 3B69     		ldr	r3, [r7, #16]
 521 017e 1B7F     		ldrb	r3, [r3, #28]
 522 0180 C3F38203 		ubfx	r3, r3, #2, #3
 523 0184 DBB2     		uxtb	r3, r3
 524 0186 1946     		mov	r1, r3
 525 0188 7869     		ldr	r0, [r7, #20]
 526 018a FFF7FEFF 		bl	lv_page_set_sb_mode
 130:..\..\..\lvgl\version_6.1.2\lvgl\src\lv_objx/lv_page.c **** 
 131:..\..\..\lvgl\version_6.1.2\lvgl\src\lv_objx/lv_page.c ****         /*Set the default styles*/
 132:..\..\..\lvgl\version_6.1.2\lvgl\src\lv_objx/lv_page.c ****         lv_theme_t * th = lv_theme_get_current();
 527              		.loc 3 132 0
 528 018e FFF7FEFF 		bl	lv_theme_get_current
 529 0192 F860     		str	r0, [r7, #12]
 133:..\..\..\lvgl\version_6.1.2\lvgl\src\lv_objx/lv_page.c ****         if(th) {
 530              		.loc 3 133 0
 531 0194 FB68     		ldr	r3, [r7, #12]
 532 0196 002B     		cmp	r3, #0
 533 0198 28D0     		beq	.L21
 134:..\..\..\lvgl\version_6.1.2\lvgl\src\lv_objx/lv_page.c ****             if(par == NULL) { /*Different styles if it is screen*/
 534              		.loc 3 134 0
 535 019a 7B68     		ldr	r3, [r7, #4]
 536 019c 002B     		cmp	r3, #0
 537 019e 0CD1     		bne	.L22
 135:..\..\..\lvgl\version_6.1.2\lvgl\src\lv_objx/lv_page.c ****                 lv_page_set_style(new_page, LV_PAGE_STYLE_BG, th->style.bg);
 538              		.loc 3 135 0
 539 01a0 FB68     		ldr	r3, [r7, #12]
 540 01a2 5B68     		ldr	r3, [r3, #4]
 541 01a4 1A46     		mov	r2, r3
 542 01a6 0021     		movs	r1, #0
 543 01a8 7869     		ldr	r0, [r7, #20]
 544 01aa FFF7FEFF 		bl	lv_page_set_style
 136:..\..\..\lvgl\version_6.1.2\lvgl\src\lv_objx/lv_page.c ****                 lv_page_set_style(new_page, LV_PAGE_STYLE_SCRL, &lv_style_transp);
 545              		.loc 3 136 0
 546 01ae 474A     		ldr	r2, .L26+36
 547 01b0 0121     		movs	r1, #1
 548 01b2 7869     		ldr	r0, [r7, #20]
 549 01b4 FFF7FEFF 		bl	lv_page_set_style
 550 01b8 0FE0     		b	.L23
 551              	.L22:
 137:..\..\..\lvgl\version_6.1.2\lvgl\src\lv_objx/lv_page.c ****             } else {
 138:..\..\..\lvgl\version_6.1.2\lvgl\src\lv_objx/lv_page.c ****                 lv_page_set_style(new_page, LV_PAGE_STYLE_BG, th->style.page.bg);
 552              		.loc 3 138 0
 553 01ba FB68     		ldr	r3, [r7, #12]
 554 01bc D3F80431 		ldr	r3, [r3, #260]
 555 01c0 1A46     		mov	r2, r3
 556 01c2 0021     		movs	r1, #0
 557 01c4 7869     		ldr	r0, [r7, #20]
 558 01c6 FFF7FEFF 		bl	lv_page_set_style
 139:..\..\..\lvgl\version_6.1.2\lvgl\src\lv_objx/lv_page.c ****                 lv_page_set_style(new_page, LV_PAGE_STYLE_SCRL, th->style.page.scrl);
 559              		.loc 3 139 0
 560 01ca FB68     		ldr	r3, [r7, #12]
 561 01cc D3F80831 		ldr	r3, [r3, #264]
 562 01d0 1A46     		mov	r2, r3
 563 01d2 0121     		movs	r1, #1
ARM GAS  C:\Users\tmj32\AppData\Local\Temp\ccFKuFvs.s 			page 21


 564 01d4 7869     		ldr	r0, [r7, #20]
 565 01d6 FFF7FEFF 		bl	lv_page_set_style
 566              	.L23:
 140:..\..\..\lvgl\version_6.1.2\lvgl\src\lv_objx/lv_page.c ****             }
 141:..\..\..\lvgl\version_6.1.2\lvgl\src\lv_objx/lv_page.c ****             lv_page_set_style(new_page, LV_PAGE_STYLE_SB, th->style.page.sb);
 567              		.loc 3 141 0
 568 01da FB68     		ldr	r3, [r7, #12]
 569 01dc D3F80C31 		ldr	r3, [r3, #268]
 570 01e0 1A46     		mov	r2, r3
 571 01e2 0221     		movs	r1, #2
 572 01e4 7869     		ldr	r0, [r7, #20]
 573 01e6 FFF7FEFF 		bl	lv_page_set_style
 574 01ea 54E0     		b	.L25
 575              	.L21:
 142:..\..\..\lvgl\version_6.1.2\lvgl\src\lv_objx/lv_page.c ****         } else {
 143:..\..\..\lvgl\version_6.1.2\lvgl\src\lv_objx/lv_page.c ****             lv_page_set_style(new_page, LV_PAGE_STYLE_BG, &lv_style_pretty_color);
 576              		.loc 3 143 0
 577 01ec 384A     		ldr	r2, .L26+40
 578 01ee 0021     		movs	r1, #0
 579 01f0 7869     		ldr	r0, [r7, #20]
 580 01f2 FFF7FEFF 		bl	lv_page_set_style
 144:..\..\..\lvgl\version_6.1.2\lvgl\src\lv_objx/lv_page.c ****             lv_page_set_style(new_page, LV_PAGE_STYLE_SCRL, &lv_style_pretty);
 581              		.loc 3 144 0
 582 01f6 2E4A     		ldr	r2, .L26+8
 583 01f8 0121     		movs	r1, #1
 584 01fa 7869     		ldr	r0, [r7, #20]
 585 01fc FFF7FEFF 		bl	lv_page_set_style
 145:..\..\..\lvgl\version_6.1.2\lvgl\src\lv_objx/lv_page.c ****             lv_page_set_style(new_page, LV_PAGE_STYLE_SB, &lv_style_pretty_color);
 586              		.loc 3 145 0
 587 0200 334A     		ldr	r2, .L26+40
 588 0202 0221     		movs	r1, #2
 589 0204 7869     		ldr	r0, [r7, #20]
 590 0206 FFF7FEFF 		bl	lv_page_set_style
 591 020a 44E0     		b	.L25
 592              	.L20:
 593              	.LBE2:
 594              	.LBB3:
 146:..\..\..\lvgl\version_6.1.2\lvgl\src\lv_objx/lv_page.c ****         }
 147:..\..\..\lvgl\version_6.1.2\lvgl\src\lv_objx/lv_page.c **** 
 148:..\..\..\lvgl\version_6.1.2\lvgl\src\lv_objx/lv_page.c ****     } else {
 149:..\..\..\lvgl\version_6.1.2\lvgl\src\lv_objx/lv_page.c ****         lv_page_ext_t * copy_ext = lv_obj_get_ext_attr(copy);
 595              		.loc 3 149 0
 596 020c 3868     		ldr	r0, [r7]
 597 020e FFF7FEFF 		bl	lv_obj_get_ext_attr
 598 0212 B860     		str	r0, [r7, #8]
 150:..\..\..\lvgl\version_6.1.2\lvgl\src\lv_objx/lv_page.c ****         ext->scrl                = lv_cont_create(new_page, copy_ext->scrl);
 599              		.loc 3 150 0
 600 0214 BB68     		ldr	r3, [r7, #8]
 601 0216 5B68     		ldr	r3, [r3, #4]
 602 0218 1946     		mov	r1, r3
 603 021a 7869     		ldr	r0, [r7, #20]
 604 021c FFF7FEFF 		bl	lv_cont_create
 605 0220 0246     		mov	r2, r0
 606 0222 3B69     		ldr	r3, [r7, #16]
 607 0224 5A60     		str	r2, [r3, #4]
 151:..\..\..\lvgl\version_6.1.2\lvgl\src\lv_objx/lv_page.c ****         lv_obj_set_signal_cb(ext->scrl, lv_page_scrollable_signal);
 608              		.loc 3 151 0
ARM GAS  C:\Users\tmj32\AppData\Local\Temp\ccFKuFvs.s 			page 22


 609 0226 3B69     		ldr	r3, [r7, #16]
 610 0228 5B68     		ldr	r3, [r3, #4]
 611 022a 2349     		ldr	r1, .L26+16
 612 022c 1846     		mov	r0, r3
 613 022e FFF7FEFF 		bl	lv_obj_set_signal_cb
 152:..\..\..\lvgl\version_6.1.2\lvgl\src\lv_objx/lv_page.c **** 
 153:..\..\..\lvgl\version_6.1.2\lvgl\src\lv_objx/lv_page.c ****         /* Add the signal function only if 'scrolling' is created
 154:..\..\..\lvgl\version_6.1.2\lvgl\src\lv_objx/lv_page.c ****          * because everything has to be ready before any signal is received*/
 155:..\..\..\lvgl\version_6.1.2\lvgl\src\lv_objx/lv_page.c ****         lv_obj_set_signal_cb(new_page, lv_page_signal);
 614              		.loc 3 155 0
 615 0232 2449     		ldr	r1, .L26+28
 616 0234 7869     		ldr	r0, [r7, #20]
 617 0236 FFF7FEFF 		bl	lv_obj_set_signal_cb
 156:..\..\..\lvgl\version_6.1.2\lvgl\src\lv_objx/lv_page.c ****         lv_obj_set_design_cb(new_page, lv_page_design);
 618              		.loc 3 156 0
 619 023a 2349     		ldr	r1, .L26+32
 620 023c 7869     		ldr	r0, [r7, #20]
 621 023e FFF7FEFF 		bl	lv_obj_set_design_cb
 157:..\..\..\lvgl\version_6.1.2\lvgl\src\lv_objx/lv_page.c **** 
 158:..\..\..\lvgl\version_6.1.2\lvgl\src\lv_objx/lv_page.c ****         lv_page_set_style(new_page, LV_PAGE_STYLE_BG, lv_page_get_style(copy, LV_PAGE_STYLE_BG));
 622              		.loc 3 158 0
 623 0242 0021     		movs	r1, #0
 624 0244 3868     		ldr	r0, [r7]
 625 0246 FFF7FEFF 		bl	lv_page_get_style
 626 024a 0346     		mov	r3, r0
 627 024c 1A46     		mov	r2, r3
 628 024e 0021     		movs	r1, #0
 629 0250 7869     		ldr	r0, [r7, #20]
 630 0252 FFF7FEFF 		bl	lv_page_set_style
 159:..\..\..\lvgl\version_6.1.2\lvgl\src\lv_objx/lv_page.c ****         lv_page_set_style(new_page, LV_PAGE_STYLE_SCRL, lv_page_get_style(copy, LV_PAGE_STYLE_SCRL)
 631              		.loc 3 159 0
 632 0256 0121     		movs	r1, #1
 633 0258 3868     		ldr	r0, [r7]
 634 025a FFF7FEFF 		bl	lv_page_get_style
 635 025e 0346     		mov	r3, r0
 636 0260 1A46     		mov	r2, r3
 637 0262 0121     		movs	r1, #1
 638 0264 7869     		ldr	r0, [r7, #20]
 639 0266 FFF7FEFF 		bl	lv_page_set_style
 160:..\..\..\lvgl\version_6.1.2\lvgl\src\lv_objx/lv_page.c ****         lv_page_set_style(new_page, LV_PAGE_STYLE_SB, lv_page_get_style(copy, LV_PAGE_STYLE_SB));
 640              		.loc 3 160 0
 641 026a 0221     		movs	r1, #2
 642 026c 3868     		ldr	r0, [r7]
 643 026e FFF7FEFF 		bl	lv_page_get_style
 644 0272 0346     		mov	r3, r0
 645 0274 1A46     		mov	r2, r3
 646 0276 0221     		movs	r1, #2
 647 0278 7869     		ldr	r0, [r7, #20]
 648 027a FFF7FEFF 		bl	lv_page_set_style
 161:..\..\..\lvgl\version_6.1.2\lvgl\src\lv_objx/lv_page.c **** 
 162:..\..\..\lvgl\version_6.1.2\lvgl\src\lv_objx/lv_page.c ****         lv_page_set_sb_mode(new_page, copy_ext->sb.mode);
 649              		.loc 3 162 0
 650 027e BB68     		ldr	r3, [r7, #8]
 651 0280 1B7F     		ldrb	r3, [r3, #28]
 652 0282 C3F38203 		ubfx	r3, r3, #2, #3
 653 0286 DBB2     		uxtb	r3, r3
 654 0288 1946     		mov	r1, r3
ARM GAS  C:\Users\tmj32\AppData\Local\Temp\ccFKuFvs.s 			page 23


 655 028a 7869     		ldr	r0, [r7, #20]
 656 028c FFF7FEFF 		bl	lv_page_set_sb_mode
 163:..\..\..\lvgl\version_6.1.2\lvgl\src\lv_objx/lv_page.c **** 
 164:..\..\..\lvgl\version_6.1.2\lvgl\src\lv_objx/lv_page.c ****         /*Refresh the style with new signal function*/
 165:..\..\..\lvgl\version_6.1.2\lvgl\src\lv_objx/lv_page.c ****         lv_obj_refresh_style(new_page);
 657              		.loc 3 165 0
 658 0290 7869     		ldr	r0, [r7, #20]
 659 0292 FFF7FEFF 		bl	lv_obj_refresh_style
 660              	.L25:
 661              	.LBE3:
 166:..\..\..\lvgl\version_6.1.2\lvgl\src\lv_objx/lv_page.c ****     }
 167:..\..\..\lvgl\version_6.1.2\lvgl\src\lv_objx/lv_page.c **** 
 168:..\..\..\lvgl\version_6.1.2\lvgl\src\lv_objx/lv_page.c ****     lv_page_sb_refresh(new_page);
 662              		.loc 3 168 0
 663 0296 7869     		ldr	r0, [r7, #20]
 664 0298 FFF7FEFF 		bl	lv_page_sb_refresh
 169:..\..\..\lvgl\version_6.1.2\lvgl\src\lv_objx/lv_page.c **** 
 170:..\..\..\lvgl\version_6.1.2\lvgl\src\lv_objx/lv_page.c ****     LV_LOG_INFO("page created");
 171:..\..\..\lvgl\version_6.1.2\lvgl\src\lv_objx/lv_page.c **** 
 172:..\..\..\lvgl\version_6.1.2\lvgl\src\lv_objx/lv_page.c ****     return new_page;
 665              		.loc 3 172 0
 666 029c 7B69     		ldr	r3, [r7, #20]
 667              	.L16:
 173:..\..\..\lvgl\version_6.1.2\lvgl\src\lv_objx/lv_page.c **** }
 668              		.loc 3 173 0
 669 029e 1846     		mov	r0, r3
 670 02a0 1837     		adds	r7, r7, #24
 671              		.cfi_def_cfa_offset 8
 672 02a2 BD46     		mov	sp, r7
 673              		.cfi_def_cfa_register 13
 674              		@ sp needed
 675 02a4 80BD     		pop	{r7, pc}
 676              	.L27:
 677 02a6 00BF     		.align	2
 678              	.L26:
 679 02a8 04000000 		.word	ancestor_signal
 680 02ac 00000000 		.word	ancestor_design
 681 02b0 00000000 		.word	lv_style_pretty
 682 02b4 00000000 		.word	lv_style_plain_color
 683 02b8 00000000 		.word	lv_page_scrollable_signal
 684 02bc 00000000 		.word	lv_scrl_design
 685 02c0 00000000 		.word	scrl_def_event_cb
 686 02c4 00000000 		.word	lv_page_signal
 687 02c8 00000000 		.word	lv_page_design
 688 02cc 00000000 		.word	lv_style_transp
 689 02d0 00000000 		.word	lv_style_pretty_color
 690              		.cfi_endproc
 691              	.LFE48:
 692              		.size	lv_page_create, .-lv_page_create
 693              		.section	.text.lv_page_clean,"ax",%progbits
 694              		.align	2
 695              		.global	lv_page_clean
 696              		.thumb
 697              		.thumb_func
 698              		.type	lv_page_clean, %function
 699              	lv_page_clean:
 700              	.LFB49:
ARM GAS  C:\Users\tmj32\AppData\Local\Temp\ccFKuFvs.s 			page 24


 174:..\..\..\lvgl\version_6.1.2\lvgl\src\lv_objx/lv_page.c **** 
 175:..\..\..\lvgl\version_6.1.2\lvgl\src\lv_objx/lv_page.c **** /**
 176:..\..\..\lvgl\version_6.1.2\lvgl\src\lv_objx/lv_page.c ****  * Delete all children of the scrl object, without deleting scrl child.
 177:..\..\..\lvgl\version_6.1.2\lvgl\src\lv_objx/lv_page.c ****  * @param page pointer to an object
 178:..\..\..\lvgl\version_6.1.2\lvgl\src\lv_objx/lv_page.c ****  */
 179:..\..\..\lvgl\version_6.1.2\lvgl\src\lv_objx/lv_page.c **** void lv_page_clean(lv_obj_t * page)
 180:..\..\..\lvgl\version_6.1.2\lvgl\src\lv_objx/lv_page.c **** {
 701              		.loc 3 180 0
 702              		.cfi_startproc
 703              		@ args = 0, pretend = 0, frame = 16
 704              		@ frame_needed = 1, uses_anonymous_args = 0
 705 0000 80B5     		push	{r7, lr}
 706              		.cfi_def_cfa_offset 8
 707              		.cfi_offset 7, -8
 708              		.cfi_offset 14, -4
 709 0002 84B0     		sub	sp, sp, #16
 710              		.cfi_def_cfa_offset 24
 711 0004 00AF     		add	r7, sp, #0
 712              		.cfi_def_cfa_register 7
 713 0006 7860     		str	r0, [r7, #4]
 181:..\..\..\lvgl\version_6.1.2\lvgl\src\lv_objx/lv_page.c ****     LV_ASSERT_OBJ(page, LV_OBJX_NAME);
 182:..\..\..\lvgl\version_6.1.2\lvgl\src\lv_objx/lv_page.c **** 
 183:..\..\..\lvgl\version_6.1.2\lvgl\src\lv_objx/lv_page.c ****     lv_obj_t * scrl = lv_page_get_scrl(page);
 714              		.loc 3 183 0
 715 0008 7868     		ldr	r0, [r7, #4]
 716 000a FFF7FEFF 		bl	lv_page_get_scrl
 717 000e F860     		str	r0, [r7, #12]
 184:..\..\..\lvgl\version_6.1.2\lvgl\src\lv_objx/lv_page.c ****     lv_obj_clean(scrl);
 718              		.loc 3 184 0
 719 0010 F868     		ldr	r0, [r7, #12]
 720 0012 FFF7FEFF 		bl	lv_obj_clean
 185:..\..\..\lvgl\version_6.1.2\lvgl\src\lv_objx/lv_page.c **** }
 721              		.loc 3 185 0
 722 0016 00BF     		nop
 723 0018 1037     		adds	r7, r7, #16
 724              		.cfi_def_cfa_offset 8
 725 001a BD46     		mov	sp, r7
 726              		.cfi_def_cfa_register 13
 727              		@ sp needed
 728 001c 80BD     		pop	{r7, pc}
 729              		.cfi_endproc
 730              	.LFE49:
 731              		.size	lv_page_clean, .-lv_page_clean
 732 001e 00BF     		.section	.text.lv_page_set_sb_mode,"ax",%progbits
 733              		.align	2
 734              		.global	lv_page_set_sb_mode
 735              		.thumb
 736              		.thumb_func
 737              		.type	lv_page_set_sb_mode, %function
 738              	lv_page_set_sb_mode:
 739              	.LFB50:
 186:..\..\..\lvgl\version_6.1.2\lvgl\src\lv_objx/lv_page.c **** 
 187:..\..\..\lvgl\version_6.1.2\lvgl\src\lv_objx/lv_page.c **** /*=====================
 188:..\..\..\lvgl\version_6.1.2\lvgl\src\lv_objx/lv_page.c ****  * Setter functions
 189:..\..\..\lvgl\version_6.1.2\lvgl\src\lv_objx/lv_page.c ****  *====================*/
 190:..\..\..\lvgl\version_6.1.2\lvgl\src\lv_objx/lv_page.c **** 
 191:..\..\..\lvgl\version_6.1.2\lvgl\src\lv_objx/lv_page.c **** /**
ARM GAS  C:\Users\tmj32\AppData\Local\Temp\ccFKuFvs.s 			page 25


 192:..\..\..\lvgl\version_6.1.2\lvgl\src\lv_objx/lv_page.c ****  * Set the scroll bar mode on a page
 193:..\..\..\lvgl\version_6.1.2\lvgl\src\lv_objx/lv_page.c ****  * @param page pointer to a page object
 194:..\..\..\lvgl\version_6.1.2\lvgl\src\lv_objx/lv_page.c ****  * @param sb_mode the new mode from 'lv_page_sb.mode_t' enum
 195:..\..\..\lvgl\version_6.1.2\lvgl\src\lv_objx/lv_page.c ****  */
 196:..\..\..\lvgl\version_6.1.2\lvgl\src\lv_objx/lv_page.c **** void lv_page_set_sb_mode(lv_obj_t * page, lv_sb_mode_t sb_mode)
 197:..\..\..\lvgl\version_6.1.2\lvgl\src\lv_objx/lv_page.c **** {
 740              		.loc 3 197 0
 741              		.cfi_startproc
 742              		@ args = 0, pretend = 0, frame = 16
 743              		@ frame_needed = 1, uses_anonymous_args = 0
 744 0000 80B5     		push	{r7, lr}
 745              		.cfi_def_cfa_offset 8
 746              		.cfi_offset 7, -8
 747              		.cfi_offset 14, -4
 748 0002 84B0     		sub	sp, sp, #16
 749              		.cfi_def_cfa_offset 24
 750 0004 00AF     		add	r7, sp, #0
 751              		.cfi_def_cfa_register 7
 752 0006 7860     		str	r0, [r7, #4]
 753 0008 0B46     		mov	r3, r1
 754 000a FB70     		strb	r3, [r7, #3]
 198:..\..\..\lvgl\version_6.1.2\lvgl\src\lv_objx/lv_page.c ****     LV_ASSERT_OBJ(page, LV_OBJX_NAME);
 199:..\..\..\lvgl\version_6.1.2\lvgl\src\lv_objx/lv_page.c **** 
 200:..\..\..\lvgl\version_6.1.2\lvgl\src\lv_objx/lv_page.c ****     lv_page_ext_t * ext = lv_obj_get_ext_attr(page);
 755              		.loc 3 200 0
 756 000c 7868     		ldr	r0, [r7, #4]
 757 000e FFF7FEFF 		bl	lv_obj_get_ext_attr
 758 0012 F860     		str	r0, [r7, #12]
 201:..\..\..\lvgl\version_6.1.2\lvgl\src\lv_objx/lv_page.c ****     if(ext->sb.mode == sb_mode) return;
 759              		.loc 3 201 0
 760 0014 FB68     		ldr	r3, [r7, #12]
 761 0016 1B7F     		ldrb	r3, [r3, #28]
 762 0018 C3F38203 		ubfx	r3, r3, #2, #3
 763 001c DBB2     		uxtb	r3, r3
 764 001e 1A46     		mov	r2, r3
 765 0020 FB78     		ldrb	r3, [r7, #3]	@ zero_extendqisi2
 766 0022 9A42     		cmp	r2, r3
 767 0024 48D0     		beq	.L36
 202:..\..\..\lvgl\version_6.1.2\lvgl\src\lv_objx/lv_page.c **** 
 203:..\..\..\lvgl\version_6.1.2\lvgl\src\lv_objx/lv_page.c ****     if(sb_mode == LV_SB_MODE_HIDE)
 768              		.loc 3 203 0
 769 0026 FB78     		ldrb	r3, [r7, #3]	@ zero_extendqisi2
 770 0028 042B     		cmp	r3, #4
 771 002a 0DD1     		bne	.L32
 204:..\..\..\lvgl\version_6.1.2\lvgl\src\lv_objx/lv_page.c ****         ext->sb.mode |= LV_SB_MODE_HIDE; /*Set the hidden flag*/
 772              		.loc 3 204 0
 773 002c FB68     		ldr	r3, [r7, #12]
 774 002e 1B7F     		ldrb	r3, [r3, #28]
 775 0030 C3F38203 		ubfx	r3, r3, #2, #3
 776 0034 DBB2     		uxtb	r3, r3
 777 0036 43F00403 		orr	r3, r3, #4
 778 003a D9B2     		uxtb	r1, r3
 779 003c FA68     		ldr	r2, [r7, #12]
 780 003e 137F     		ldrb	r3, [r2, #28]
 781 0040 61F38403 		bfi	r3, r1, #2, #3
 782 0044 1377     		strb	r3, [r2, #28]
 783 0046 26E0     		b	.L33
ARM GAS  C:\Users\tmj32\AppData\Local\Temp\ccFKuFvs.s 			page 26


 784              	.L32:
 205:..\..\..\lvgl\version_6.1.2\lvgl\src\lv_objx/lv_page.c ****     else if(sb_mode == LV_SB_MODE_UNHIDE)
 785              		.loc 3 205 0
 786 0048 FB78     		ldrb	r3, [r7, #3]	@ zero_extendqisi2
 787 004a 052B     		cmp	r3, #5
 788 004c 0DD1     		bne	.L34
 206:..\..\..\lvgl\version_6.1.2\lvgl\src\lv_objx/lv_page.c ****         ext->sb.mode &= (~LV_SB_MODE_HIDE); /*Clear the hidden flag*/
 789              		.loc 3 206 0
 790 004e FB68     		ldr	r3, [r7, #12]
 791 0050 1B7F     		ldrb	r3, [r3, #28]
 792 0052 C3F38203 		ubfx	r3, r3, #2, #3
 793 0056 DBB2     		uxtb	r3, r3
 794 0058 03F00303 		and	r3, r3, #3
 795 005c D9B2     		uxtb	r1, r3
 796 005e FA68     		ldr	r2, [r7, #12]
 797 0060 137F     		ldrb	r3, [r2, #28]
 798 0062 61F38403 		bfi	r3, r1, #2, #3
 799 0066 1377     		strb	r3, [r2, #28]
 800 0068 15E0     		b	.L33
 801              	.L34:
 207:..\..\..\lvgl\version_6.1.2\lvgl\src\lv_objx/lv_page.c ****     else {
 208:..\..\..\lvgl\version_6.1.2\lvgl\src\lv_objx/lv_page.c ****         if(ext->sb.mode & LV_SB_MODE_HIDE) sb_mode |= LV_SB_MODE_HIDE;
 802              		.loc 3 208 0
 803 006a FB68     		ldr	r3, [r7, #12]
 804 006c 1B7F     		ldrb	r3, [r3, #28]
 805 006e C3F38203 		ubfx	r3, r3, #2, #3
 806 0072 DBB2     		uxtb	r3, r3
 807 0074 03F00403 		and	r3, r3, #4
 808 0078 002B     		cmp	r3, #0
 809 007a 03D0     		beq	.L35
 810              		.loc 3 208 0 is_stmt 0 discriminator 1
 811 007c FB78     		ldrb	r3, [r7, #3]
 812 007e 43F00403 		orr	r3, r3, #4
 813 0082 FB70     		strb	r3, [r7, #3]
 814              	.L35:
 209:..\..\..\lvgl\version_6.1.2\lvgl\src\lv_objx/lv_page.c ****         ext->sb.mode = sb_mode;
 815              		.loc 3 209 0 is_stmt 1
 816 0084 FB78     		ldrb	r3, [r7, #3]
 817 0086 03F00703 		and	r3, r3, #7
 818 008a D9B2     		uxtb	r1, r3
 819 008c FA68     		ldr	r2, [r7, #12]
 820 008e 137F     		ldrb	r3, [r2, #28]
 821 0090 61F38403 		bfi	r3, r1, #2, #3
 822 0094 1377     		strb	r3, [r2, #28]
 823              	.L33:
 210:..\..\..\lvgl\version_6.1.2\lvgl\src\lv_objx/lv_page.c ****     }
 211:..\..\..\lvgl\version_6.1.2\lvgl\src\lv_objx/lv_page.c **** 
 212:..\..\..\lvgl\version_6.1.2\lvgl\src\lv_objx/lv_page.c ****     ext->sb.hor_draw = 0;
 824              		.loc 3 212 0
 825 0096 FA68     		ldr	r2, [r7, #12]
 826 0098 137F     		ldrb	r3, [r2, #28]
 827 009a 6FF30003 		bfc	r3, #0, #1
 828 009e 1377     		strb	r3, [r2, #28]
 213:..\..\..\lvgl\version_6.1.2\lvgl\src\lv_objx/lv_page.c ****     ext->sb.ver_draw = 0;
 829              		.loc 3 213 0
 830 00a0 FA68     		ldr	r2, [r7, #12]
 831 00a2 137F     		ldrb	r3, [r2, #28]
ARM GAS  C:\Users\tmj32\AppData\Local\Temp\ccFKuFvs.s 			page 27


 832 00a4 6FF34103 		bfc	r3, #1, #1
 833 00a8 1377     		strb	r3, [r2, #28]
 214:..\..\..\lvgl\version_6.1.2\lvgl\src\lv_objx/lv_page.c **** 
 215:..\..\..\lvgl\version_6.1.2\lvgl\src\lv_objx/lv_page.c ****     lv_page_sb_refresh(page);
 834              		.loc 3 215 0
 835 00aa 7868     		ldr	r0, [r7, #4]
 836 00ac FFF7FEFF 		bl	lv_page_sb_refresh
 216:..\..\..\lvgl\version_6.1.2\lvgl\src\lv_objx/lv_page.c ****     lv_obj_invalidate(page);
 837              		.loc 3 216 0
 838 00b0 7868     		ldr	r0, [r7, #4]
 839 00b2 FFF7FEFF 		bl	lv_obj_invalidate
 840 00b6 00E0     		b	.L29
 841              	.L36:
 201:..\..\..\lvgl\version_6.1.2\lvgl\src\lv_objx/lv_page.c **** 
 842              		.loc 3 201 0
 843 00b8 00BF     		nop
 844              	.L29:
 217:..\..\..\lvgl\version_6.1.2\lvgl\src\lv_objx/lv_page.c **** }
 845              		.loc 3 217 0
 846 00ba 1037     		adds	r7, r7, #16
 847              		.cfi_def_cfa_offset 8
 848 00bc BD46     		mov	sp, r7
 849              		.cfi_def_cfa_register 13
 850              		@ sp needed
 851 00be 80BD     		pop	{r7, pc}
 852              		.cfi_endproc
 853              	.LFE50:
 854              		.size	lv_page_set_sb_mode, .-lv_page_set_sb_mode
 855              		.section	.text.lv_page_set_anim_time,"ax",%progbits
 856              		.align	2
 857              		.global	lv_page_set_anim_time
 858              		.thumb
 859              		.thumb_func
 860              		.type	lv_page_set_anim_time, %function
 861              	lv_page_set_anim_time:
 862              	.LFB51:
 218:..\..\..\lvgl\version_6.1.2\lvgl\src\lv_objx/lv_page.c **** 
 219:..\..\..\lvgl\version_6.1.2\lvgl\src\lv_objx/lv_page.c **** /**
 220:..\..\..\lvgl\version_6.1.2\lvgl\src\lv_objx/lv_page.c ****  * Set the animation time for the page
 221:..\..\..\lvgl\version_6.1.2\lvgl\src\lv_objx/lv_page.c ****  * @param page pointer to a page object
 222:..\..\..\lvgl\version_6.1.2\lvgl\src\lv_objx/lv_page.c ****  * @param anim_time animation time in milliseconds
 223:..\..\..\lvgl\version_6.1.2\lvgl\src\lv_objx/lv_page.c ****  */
 224:..\..\..\lvgl\version_6.1.2\lvgl\src\lv_objx/lv_page.c **** void lv_page_set_anim_time(lv_obj_t * page, uint16_t anim_time)
 225:..\..\..\lvgl\version_6.1.2\lvgl\src\lv_objx/lv_page.c **** {
 863              		.loc 3 225 0
 864              		.cfi_startproc
 865              		@ args = 0, pretend = 0, frame = 16
 866              		@ frame_needed = 1, uses_anonymous_args = 0
 867 0000 80B5     		push	{r7, lr}
 868              		.cfi_def_cfa_offset 8
 869              		.cfi_offset 7, -8
 870              		.cfi_offset 14, -4
 871 0002 84B0     		sub	sp, sp, #16
 872              		.cfi_def_cfa_offset 24
 873 0004 00AF     		add	r7, sp, #0
 874              		.cfi_def_cfa_register 7
 875 0006 7860     		str	r0, [r7, #4]
ARM GAS  C:\Users\tmj32\AppData\Local\Temp\ccFKuFvs.s 			page 28


 876 0008 0B46     		mov	r3, r1
 877 000a 7B80     		strh	r3, [r7, #2]	@ movhi
 226:..\..\..\lvgl\version_6.1.2\lvgl\src\lv_objx/lv_page.c ****     LV_ASSERT_OBJ(page, LV_OBJX_NAME);
 227:..\..\..\lvgl\version_6.1.2\lvgl\src\lv_objx/lv_page.c **** 
 228:..\..\..\lvgl\version_6.1.2\lvgl\src\lv_objx/lv_page.c **** #if LV_USE_ANIMATION
 229:..\..\..\lvgl\version_6.1.2\lvgl\src\lv_objx/lv_page.c ****     lv_page_ext_t * ext = lv_obj_get_ext_attr(page);
 878              		.loc 3 229 0
 879 000c 7868     		ldr	r0, [r7, #4]
 880 000e FFF7FEFF 		bl	lv_obj_get_ext_attr
 881 0012 F860     		str	r0, [r7, #12]
 230:..\..\..\lvgl\version_6.1.2\lvgl\src\lv_objx/lv_page.c ****     ext->anim_time      = anim_time;
 882              		.loc 3 230 0
 883 0014 FB68     		ldr	r3, [r7, #12]
 884 0016 7A88     		ldrh	r2, [r7, #2]	@ movhi
 885 0018 9A85     		strh	r2, [r3, #44]	@ movhi
 231:..\..\..\lvgl\version_6.1.2\lvgl\src\lv_objx/lv_page.c **** #else
 232:..\..\..\lvgl\version_6.1.2\lvgl\src\lv_objx/lv_page.c ****     (void)page;      /*Unused*/
 233:..\..\..\lvgl\version_6.1.2\lvgl\src\lv_objx/lv_page.c ****     (void)anim_time; /*Unused*/
 234:..\..\..\lvgl\version_6.1.2\lvgl\src\lv_objx/lv_page.c **** #endif
 235:..\..\..\lvgl\version_6.1.2\lvgl\src\lv_objx/lv_page.c **** }
 886              		.loc 3 235 0
 887 001a 00BF     		nop
 888 001c 1037     		adds	r7, r7, #16
 889              		.cfi_def_cfa_offset 8
 890 001e BD46     		mov	sp, r7
 891              		.cfi_def_cfa_register 13
 892              		@ sp needed
 893 0020 80BD     		pop	{r7, pc}
 894              		.cfi_endproc
 895              	.LFE51:
 896              		.size	lv_page_set_anim_time, .-lv_page_set_anim_time
 897 0022 00BF     		.section	.text.lv_page_set_scroll_propagation,"ax",%progbits
 898              		.align	2
 899              		.global	lv_page_set_scroll_propagation
 900              		.thumb
 901              		.thumb_func
 902              		.type	lv_page_set_scroll_propagation, %function
 903              	lv_page_set_scroll_propagation:
 904              	.LFB52:
 236:..\..\..\lvgl\version_6.1.2\lvgl\src\lv_objx/lv_page.c **** 
 237:..\..\..\lvgl\version_6.1.2\lvgl\src\lv_objx/lv_page.c **** /**
 238:..\..\..\lvgl\version_6.1.2\lvgl\src\lv_objx/lv_page.c ****  * Enable the scroll propagation feature. If enabled then the page will move its parent if there is
 239:..\..\..\lvgl\version_6.1.2\lvgl\src\lv_objx/lv_page.c ****  * no more space to scroll.
 240:..\..\..\lvgl\version_6.1.2\lvgl\src\lv_objx/lv_page.c ****  * @param page pointer to a Page
 241:..\..\..\lvgl\version_6.1.2\lvgl\src\lv_objx/lv_page.c ****  * @param en true or false to enable/disable scroll propagation
 242:..\..\..\lvgl\version_6.1.2\lvgl\src\lv_objx/lv_page.c ****  */
 243:..\..\..\lvgl\version_6.1.2\lvgl\src\lv_objx/lv_page.c **** void lv_page_set_scroll_propagation(lv_obj_t * page, bool en)
 244:..\..\..\lvgl\version_6.1.2\lvgl\src\lv_objx/lv_page.c **** {
 905              		.loc 3 244 0
 906              		.cfi_startproc
 907              		@ args = 0, pretend = 0, frame = 16
 908              		@ frame_needed = 1, uses_anonymous_args = 0
 909 0000 80B5     		push	{r7, lr}
 910              		.cfi_def_cfa_offset 8
 911              		.cfi_offset 7, -8
 912              		.cfi_offset 14, -4
 913 0002 84B0     		sub	sp, sp, #16
ARM GAS  C:\Users\tmj32\AppData\Local\Temp\ccFKuFvs.s 			page 29


 914              		.cfi_def_cfa_offset 24
 915 0004 00AF     		add	r7, sp, #0
 916              		.cfi_def_cfa_register 7
 917 0006 7860     		str	r0, [r7, #4]
 918 0008 0B46     		mov	r3, r1
 919 000a FB70     		strb	r3, [r7, #3]
 245:..\..\..\lvgl\version_6.1.2\lvgl\src\lv_objx/lv_page.c ****     LV_ASSERT_OBJ(page, LV_OBJX_NAME);
 246:..\..\..\lvgl\version_6.1.2\lvgl\src\lv_objx/lv_page.c **** 
 247:..\..\..\lvgl\version_6.1.2\lvgl\src\lv_objx/lv_page.c ****     lv_page_ext_t * ext = lv_obj_get_ext_attr(page);
 920              		.loc 3 247 0
 921 000c 7868     		ldr	r0, [r7, #4]
 922 000e FFF7FEFF 		bl	lv_obj_get_ext_attr
 923 0012 F860     		str	r0, [r7, #12]
 248:..\..\..\lvgl\version_6.1.2\lvgl\src\lv_objx/lv_page.c ****     ext->scroll_prop    = en ? 1 : 0;
 924              		.loc 3 248 0
 925 0014 FB78     		ldrb	r3, [r7, #3]	@ zero_extendqisi2
 926 0016 03F00103 		and	r3, r3, #1
 927 001a D9B2     		uxtb	r1, r3
 928 001c FA68     		ldr	r2, [r7, #12]
 929 001e 92F82E30 		ldrb	r3, [r2, #46]
 930 0022 61F30003 		bfi	r3, r1, #0, #1
 931 0026 82F82E30 		strb	r3, [r2, #46]
 249:..\..\..\lvgl\version_6.1.2\lvgl\src\lv_objx/lv_page.c **** }
 932              		.loc 3 249 0
 933 002a 00BF     		nop
 934 002c 1037     		adds	r7, r7, #16
 935              		.cfi_def_cfa_offset 8
 936 002e BD46     		mov	sp, r7
 937              		.cfi_def_cfa_register 13
 938              		@ sp needed
 939 0030 80BD     		pop	{r7, pc}
 940              		.cfi_endproc
 941              	.LFE52:
 942              		.size	lv_page_set_scroll_propagation, .-lv_page_set_scroll_propagation
 943 0032 00BF     		.section	.text.lv_page_set_edge_flash,"ax",%progbits
 944              		.align	2
 945              		.global	lv_page_set_edge_flash
 946              		.thumb
 947              		.thumb_func
 948              		.type	lv_page_set_edge_flash, %function
 949              	lv_page_set_edge_flash:
 950              	.LFB53:
 250:..\..\..\lvgl\version_6.1.2\lvgl\src\lv_objx/lv_page.c **** 
 251:..\..\..\lvgl\version_6.1.2\lvgl\src\lv_objx/lv_page.c **** /**
 252:..\..\..\lvgl\version_6.1.2\lvgl\src\lv_objx/lv_page.c ****  * Enable the edge flash effect. (Show an arc when the an edge is reached)
 253:..\..\..\lvgl\version_6.1.2\lvgl\src\lv_objx/lv_page.c ****  * @param page pointer to a Page
 254:..\..\..\lvgl\version_6.1.2\lvgl\src\lv_objx/lv_page.c ****  * @param en true or false to enable/disable end flash
 255:..\..\..\lvgl\version_6.1.2\lvgl\src\lv_objx/lv_page.c ****  */
 256:..\..\..\lvgl\version_6.1.2\lvgl\src\lv_objx/lv_page.c **** void lv_page_set_edge_flash(lv_obj_t * page, bool en)
 257:..\..\..\lvgl\version_6.1.2\lvgl\src\lv_objx/lv_page.c **** {
 951              		.loc 3 257 0
 952              		.cfi_startproc
 953              		@ args = 0, pretend = 0, frame = 16
 954              		@ frame_needed = 1, uses_anonymous_args = 0
 955 0000 80B5     		push	{r7, lr}
 956              		.cfi_def_cfa_offset 8
 957              		.cfi_offset 7, -8
ARM GAS  C:\Users\tmj32\AppData\Local\Temp\ccFKuFvs.s 			page 30


 958              		.cfi_offset 14, -4
 959 0002 84B0     		sub	sp, sp, #16
 960              		.cfi_def_cfa_offset 24
 961 0004 00AF     		add	r7, sp, #0
 962              		.cfi_def_cfa_register 7
 963 0006 7860     		str	r0, [r7, #4]
 964 0008 0B46     		mov	r3, r1
 965 000a FB70     		strb	r3, [r7, #3]
 258:..\..\..\lvgl\version_6.1.2\lvgl\src\lv_objx/lv_page.c ****     LV_ASSERT_OBJ(page, LV_OBJX_NAME);
 259:..\..\..\lvgl\version_6.1.2\lvgl\src\lv_objx/lv_page.c **** 
 260:..\..\..\lvgl\version_6.1.2\lvgl\src\lv_objx/lv_page.c **** #if LV_USE_ANIMATION
 261:..\..\..\lvgl\version_6.1.2\lvgl\src\lv_objx/lv_page.c ****     lv_page_ext_t * ext     = lv_obj_get_ext_attr(page);
 966              		.loc 3 261 0
 967 000c 7868     		ldr	r0, [r7, #4]
 968 000e FFF7FEFF 		bl	lv_obj_get_ext_attr
 969 0012 F860     		str	r0, [r7, #12]
 262:..\..\..\lvgl\version_6.1.2\lvgl\src\lv_objx/lv_page.c ****     ext->edge_flash.enabled = en ? 1 : 0;
 970              		.loc 3 262 0
 971 0014 FB78     		ldrb	r3, [r7, #3]	@ zero_extendqisi2
 972 0016 03F00103 		and	r3, r3, #1
 973 001a D9B2     		uxtb	r1, r3
 974 001c FA68     		ldr	r2, [r7, #12]
 975 001e 92F82830 		ldrb	r3, [r2, #40]
 976 0022 61F30003 		bfi	r3, r1, #0, #1
 977 0026 82F82830 		strb	r3, [r2, #40]
 263:..\..\..\lvgl\version_6.1.2\lvgl\src\lv_objx/lv_page.c **** #else
 264:..\..\..\lvgl\version_6.1.2\lvgl\src\lv_objx/lv_page.c ****     (void)page;
 265:..\..\..\lvgl\version_6.1.2\lvgl\src\lv_objx/lv_page.c ****     (void)en;
 266:..\..\..\lvgl\version_6.1.2\lvgl\src\lv_objx/lv_page.c **** #endif
 267:..\..\..\lvgl\version_6.1.2\lvgl\src\lv_objx/lv_page.c **** }
 978              		.loc 3 267 0
 979 002a 00BF     		nop
 980 002c 1037     		adds	r7, r7, #16
 981              		.cfi_def_cfa_offset 8
 982 002e BD46     		mov	sp, r7
 983              		.cfi_def_cfa_register 13
 984              		@ sp needed
 985 0030 80BD     		pop	{r7, pc}
 986              		.cfi_endproc
 987              	.LFE53:
 988              		.size	lv_page_set_edge_flash, .-lv_page_set_edge_flash
 989 0032 00BF     		.section	.text.lv_page_set_style,"ax",%progbits
 990              		.align	2
 991              		.global	lv_page_set_style
 992              		.thumb
 993              		.thumb_func
 994              		.type	lv_page_set_style, %function
 995              	lv_page_set_style:
 996              	.LFB54:
 268:..\..\..\lvgl\version_6.1.2\lvgl\src\lv_objx/lv_page.c **** 
 269:..\..\..\lvgl\version_6.1.2\lvgl\src\lv_objx/lv_page.c **** /**
 270:..\..\..\lvgl\version_6.1.2\lvgl\src\lv_objx/lv_page.c ****  * Set a style of a page
 271:..\..\..\lvgl\version_6.1.2\lvgl\src\lv_objx/lv_page.c ****  * @param page pointer to a page object
 272:..\..\..\lvgl\version_6.1.2\lvgl\src\lv_objx/lv_page.c ****  * @param type which style should be set
 273:..\..\..\lvgl\version_6.1.2\lvgl\src\lv_objx/lv_page.c ****  * @param style pointer to a style
 274:..\..\..\lvgl\version_6.1.2\lvgl\src\lv_objx/lv_page.c ****  *  */
 275:..\..\..\lvgl\version_6.1.2\lvgl\src\lv_objx/lv_page.c **** void lv_page_set_style(lv_obj_t * page, lv_page_style_t type, const lv_style_t * style)
ARM GAS  C:\Users\tmj32\AppData\Local\Temp\ccFKuFvs.s 			page 31


 276:..\..\..\lvgl\version_6.1.2\lvgl\src\lv_objx/lv_page.c **** {
 997              		.loc 3 276 0
 998              		.cfi_startproc
 999              		@ args = 0, pretend = 0, frame = 24
 1000              		@ frame_needed = 1, uses_anonymous_args = 0
 1001 0000 80B5     		push	{r7, lr}
 1002              		.cfi_def_cfa_offset 8
 1003              		.cfi_offset 7, -8
 1004              		.cfi_offset 14, -4
 1005 0002 86B0     		sub	sp, sp, #24
 1006              		.cfi_def_cfa_offset 32
 1007 0004 00AF     		add	r7, sp, #0
 1008              		.cfi_def_cfa_register 7
 1009 0006 F860     		str	r0, [r7, #12]
 1010 0008 0B46     		mov	r3, r1
 1011 000a 7A60     		str	r2, [r7, #4]
 1012 000c FB72     		strb	r3, [r7, #11]
 277:..\..\..\lvgl\version_6.1.2\lvgl\src\lv_objx/lv_page.c ****     LV_ASSERT_OBJ(page, LV_OBJX_NAME);
 278:..\..\..\lvgl\version_6.1.2\lvgl\src\lv_objx/lv_page.c **** 
 279:..\..\..\lvgl\version_6.1.2\lvgl\src\lv_objx/lv_page.c ****     lv_page_ext_t * ext = lv_obj_get_ext_attr(page);
 1013              		.loc 3 279 0
 1014 000e F868     		ldr	r0, [r7, #12]
 1015 0010 FFF7FEFF 		bl	lv_obj_get_ext_attr
 1016 0014 7861     		str	r0, [r7, #20]
 280:..\..\..\lvgl\version_6.1.2\lvgl\src\lv_objx/lv_page.c **** 
 281:..\..\..\lvgl\version_6.1.2\lvgl\src\lv_objx/lv_page.c ****     switch(type) {
 1017              		.loc 3 281 0
 1018 0016 FB7A     		ldrb	r3, [r7, #11]	@ zero_extendqisi2
 1019 0018 032B     		cmp	r3, #3
 1020 001a 3ED8     		bhi	.L47
 1021 001c 01A2     		adr	r2, .L43
 1022 001e 52F823F0 		ldr	pc, [r2, r3, lsl #2]
 1023 0022 00BF     		.p2align 2
 1024              	.L43:
 1025 0024 35000000 		.word	.L42+1
 1026 0028 3F000000 		.word	.L44+1
 1027 002c 4D000000 		.word	.L45+1
 1028 0030 93000000 		.word	.L46+1
 1029              		.p2align 1
 1030              	.L42:
 282:..\..\..\lvgl\version_6.1.2\lvgl\src\lv_objx/lv_page.c ****         case LV_PAGE_STYLE_BG: lv_obj_set_style(page, style); break;
 1031              		.loc 3 282 0
 1032 0034 7968     		ldr	r1, [r7, #4]
 1033 0036 F868     		ldr	r0, [r7, #12]
 1034 0038 FFF7FEFF 		bl	lv_obj_set_style
 1035 003c 2DE0     		b	.L41
 1036              	.L44:
 283:..\..\..\lvgl\version_6.1.2\lvgl\src\lv_objx/lv_page.c ****         case LV_PAGE_STYLE_SCRL: lv_obj_set_style(ext->scrl, style); break;
 1037              		.loc 3 283 0
 1038 003e 7B69     		ldr	r3, [r7, #20]
 1039 0040 5B68     		ldr	r3, [r3, #4]
 1040 0042 7968     		ldr	r1, [r7, #4]
 1041 0044 1846     		mov	r0, r3
 1042 0046 FFF7FEFF 		bl	lv_obj_set_style
 1043 004a 26E0     		b	.L41
 1044              	.L45:
 284:..\..\..\lvgl\version_6.1.2\lvgl\src\lv_objx/lv_page.c ****         case LV_PAGE_STYLE_SB:
ARM GAS  C:\Users\tmj32\AppData\Local\Temp\ccFKuFvs.s 			page 32


 285:..\..\..\lvgl\version_6.1.2\lvgl\src\lv_objx/lv_page.c ****             ext->sb.style = style;
 1045              		.loc 3 285 0
 1046 004c 7B69     		ldr	r3, [r7, #20]
 1047 004e 7A68     		ldr	r2, [r7, #4]
 1048 0050 9A60     		str	r2, [r3, #8]
 286:..\..\..\lvgl\version_6.1.2\lvgl\src\lv_objx/lv_page.c ****             lv_area_set_height(&ext->sb.hor_area, ext->sb.style->body.padding.inner);
 1049              		.loc 3 286 0
 1050 0052 7B69     		ldr	r3, [r7, #20]
 1051 0054 03F10C02 		add	r2, r3, #12
 1052 0058 7B69     		ldr	r3, [r7, #20]
 1053 005a 9B68     		ldr	r3, [r3, #8]
 1054 005c B3F92830 		ldrsh	r3, [r3, #40]
 1055 0060 1946     		mov	r1, r3
 1056 0062 1046     		mov	r0, r2
 1057 0064 FFF7FEFF 		bl	lv_area_set_height
 287:..\..\..\lvgl\version_6.1.2\lvgl\src\lv_objx/lv_page.c ****             lv_area_set_width(&ext->sb.ver_area, ext->sb.style->body.padding.inner);
 1058              		.loc 3 287 0
 1059 0068 7B69     		ldr	r3, [r7, #20]
 1060 006a 03F11402 		add	r2, r3, #20
 1061 006e 7B69     		ldr	r3, [r7, #20]
 1062 0070 9B68     		ldr	r3, [r3, #8]
 1063 0072 B3F92830 		ldrsh	r3, [r3, #40]
 1064 0076 1946     		mov	r1, r3
 1065 0078 1046     		mov	r0, r2
 1066 007a FFF7FEFF 		bl	lv_area_set_width
 288:..\..\..\lvgl\version_6.1.2\lvgl\src\lv_objx/lv_page.c ****             lv_page_sb_refresh(page);
 1067              		.loc 3 288 0
 1068 007e F868     		ldr	r0, [r7, #12]
 1069 0080 FFF7FEFF 		bl	lv_page_sb_refresh
 289:..\..\..\lvgl\version_6.1.2\lvgl\src\lv_objx/lv_page.c ****             lv_obj_refresh_ext_draw_pad(page);
 1070              		.loc 3 289 0
 1071 0084 F868     		ldr	r0, [r7, #12]
 1072 0086 FFF7FEFF 		bl	lv_obj_refresh_ext_draw_pad
 290:..\..\..\lvgl\version_6.1.2\lvgl\src\lv_objx/lv_page.c ****             lv_obj_invalidate(page);
 1073              		.loc 3 290 0
 1074 008a F868     		ldr	r0, [r7, #12]
 1075 008c FFF7FEFF 		bl	lv_obj_invalidate
 291:..\..\..\lvgl\version_6.1.2\lvgl\src\lv_objx/lv_page.c ****             break;
 1076              		.loc 3 291 0
 1077 0090 03E0     		b	.L41
 1078              	.L46:
 292:..\..\..\lvgl\version_6.1.2\lvgl\src\lv_objx/lv_page.c **** #if LV_USE_ANIMATION
 293:..\..\..\lvgl\version_6.1.2\lvgl\src\lv_objx/lv_page.c ****         case LV_PAGE_STYLE_EDGE_FLASH: ext->edge_flash.style = style; break;
 1079              		.loc 3 293 0
 1080 0092 7B69     		ldr	r3, [r7, #20]
 1081 0094 7A68     		ldr	r2, [r7, #4]
 1082 0096 5A62     		str	r2, [r3, #36]
 1083 0098 00BF     		nop
 1084              	.L41:
 1085              	.L47:
 294:..\..\..\lvgl\version_6.1.2\lvgl\src\lv_objx/lv_page.c **** #endif
 295:..\..\..\lvgl\version_6.1.2\lvgl\src\lv_objx/lv_page.c ****     }
 296:..\..\..\lvgl\version_6.1.2\lvgl\src\lv_objx/lv_page.c **** }
 1086              		.loc 3 296 0
 1087 009a 00BF     		nop
 1088 009c 1837     		adds	r7, r7, #24
 1089              		.cfi_def_cfa_offset 8
ARM GAS  C:\Users\tmj32\AppData\Local\Temp\ccFKuFvs.s 			page 33


 1090 009e BD46     		mov	sp, r7
 1091              		.cfi_def_cfa_register 13
 1092              		@ sp needed
 1093 00a0 80BD     		pop	{r7, pc}
 1094              		.cfi_endproc
 1095              	.LFE54:
 1096              		.size	lv_page_set_style, .-lv_page_set_style
 1097 00a2 00BF     		.section	.text.lv_page_get_scrl,"ax",%progbits
 1098              		.align	2
 1099              		.global	lv_page_get_scrl
 1100              		.thumb
 1101              		.thumb_func
 1102              		.type	lv_page_get_scrl, %function
 1103              	lv_page_get_scrl:
 1104              	.LFB55:
 297:..\..\..\lvgl\version_6.1.2\lvgl\src\lv_objx/lv_page.c **** 
 298:..\..\..\lvgl\version_6.1.2\lvgl\src\lv_objx/lv_page.c **** /*=====================
 299:..\..\..\lvgl\version_6.1.2\lvgl\src\lv_objx/lv_page.c ****  * Getter functions
 300:..\..\..\lvgl\version_6.1.2\lvgl\src\lv_objx/lv_page.c ****  *====================*/
 301:..\..\..\lvgl\version_6.1.2\lvgl\src\lv_objx/lv_page.c **** 
 302:..\..\..\lvgl\version_6.1.2\lvgl\src\lv_objx/lv_page.c **** /**
 303:..\..\..\lvgl\version_6.1.2\lvgl\src\lv_objx/lv_page.c ****  * Get the scrollable object of a page
 304:..\..\..\lvgl\version_6.1.2\lvgl\src\lv_objx/lv_page.c ****  * @param page pointer to a page object
 305:..\..\..\lvgl\version_6.1.2\lvgl\src\lv_objx/lv_page.c ****  * @return pointer to a container which is the scrollable part of the page
 306:..\..\..\lvgl\version_6.1.2\lvgl\src\lv_objx/lv_page.c ****  */
 307:..\..\..\lvgl\version_6.1.2\lvgl\src\lv_objx/lv_page.c **** lv_obj_t * lv_page_get_scrl(const lv_obj_t * page)
 308:..\..\..\lvgl\version_6.1.2\lvgl\src\lv_objx/lv_page.c **** {
 1105              		.loc 3 308 0
 1106              		.cfi_startproc
 1107              		@ args = 0, pretend = 0, frame = 16
 1108              		@ frame_needed = 1, uses_anonymous_args = 0
 1109 0000 80B5     		push	{r7, lr}
 1110              		.cfi_def_cfa_offset 8
 1111              		.cfi_offset 7, -8
 1112              		.cfi_offset 14, -4
 1113 0002 84B0     		sub	sp, sp, #16
 1114              		.cfi_def_cfa_offset 24
 1115 0004 00AF     		add	r7, sp, #0
 1116              		.cfi_def_cfa_register 7
 1117 0006 7860     		str	r0, [r7, #4]
 309:..\..\..\lvgl\version_6.1.2\lvgl\src\lv_objx/lv_page.c ****     LV_ASSERT_OBJ(page, LV_OBJX_NAME);
 310:..\..\..\lvgl\version_6.1.2\lvgl\src\lv_objx/lv_page.c **** 
 311:..\..\..\lvgl\version_6.1.2\lvgl\src\lv_objx/lv_page.c ****     lv_page_ext_t * ext = lv_obj_get_ext_attr(page);
 1118              		.loc 3 311 0
 1119 0008 7868     		ldr	r0, [r7, #4]
 1120 000a FFF7FEFF 		bl	lv_obj_get_ext_attr
 1121 000e F860     		str	r0, [r7, #12]
 312:..\..\..\lvgl\version_6.1.2\lvgl\src\lv_objx/lv_page.c **** 
 313:..\..\..\lvgl\version_6.1.2\lvgl\src\lv_objx/lv_page.c ****     return ext->scrl;
 1122              		.loc 3 313 0
 1123 0010 FB68     		ldr	r3, [r7, #12]
 1124 0012 5B68     		ldr	r3, [r3, #4]
 314:..\..\..\lvgl\version_6.1.2\lvgl\src\lv_objx/lv_page.c **** }
 1125              		.loc 3 314 0
 1126 0014 1846     		mov	r0, r3
 1127 0016 1037     		adds	r7, r7, #16
 1128              		.cfi_def_cfa_offset 8
ARM GAS  C:\Users\tmj32\AppData\Local\Temp\ccFKuFvs.s 			page 34


 1129 0018 BD46     		mov	sp, r7
 1130              		.cfi_def_cfa_register 13
 1131              		@ sp needed
 1132 001a 80BD     		pop	{r7, pc}
 1133              		.cfi_endproc
 1134              	.LFE55:
 1135              		.size	lv_page_get_scrl, .-lv_page_get_scrl
 1136              		.section	.text.lv_page_get_anim_time,"ax",%progbits
 1137              		.align	2
 1138              		.global	lv_page_get_anim_time
 1139              		.thumb
 1140              		.thumb_func
 1141              		.type	lv_page_get_anim_time, %function
 1142              	lv_page_get_anim_time:
 1143              	.LFB56:
 315:..\..\..\lvgl\version_6.1.2\lvgl\src\lv_objx/lv_page.c **** 
 316:..\..\..\lvgl\version_6.1.2\lvgl\src\lv_objx/lv_page.c **** /**
 317:..\..\..\lvgl\version_6.1.2\lvgl\src\lv_objx/lv_page.c ****  * Get the animation time
 318:..\..\..\lvgl\version_6.1.2\lvgl\src\lv_objx/lv_page.c ****  * @param page pointer to a page object
 319:..\..\..\lvgl\version_6.1.2\lvgl\src\lv_objx/lv_page.c ****  * @return the animation time in milliseconds
 320:..\..\..\lvgl\version_6.1.2\lvgl\src\lv_objx/lv_page.c ****  */
 321:..\..\..\lvgl\version_6.1.2\lvgl\src\lv_objx/lv_page.c **** uint16_t lv_page_get_anim_time(const lv_obj_t * page)
 322:..\..\..\lvgl\version_6.1.2\lvgl\src\lv_objx/lv_page.c **** {
 1144              		.loc 3 322 0
 1145              		.cfi_startproc
 1146              		@ args = 0, pretend = 0, frame = 16
 1147              		@ frame_needed = 1, uses_anonymous_args = 0
 1148 0000 80B5     		push	{r7, lr}
 1149              		.cfi_def_cfa_offset 8
 1150              		.cfi_offset 7, -8
 1151              		.cfi_offset 14, -4
 1152 0002 84B0     		sub	sp, sp, #16
 1153              		.cfi_def_cfa_offset 24
 1154 0004 00AF     		add	r7, sp, #0
 1155              		.cfi_def_cfa_register 7
 1156 0006 7860     		str	r0, [r7, #4]
 323:..\..\..\lvgl\version_6.1.2\lvgl\src\lv_objx/lv_page.c ****     LV_ASSERT_OBJ(page, LV_OBJX_NAME);
 324:..\..\..\lvgl\version_6.1.2\lvgl\src\lv_objx/lv_page.c **** 
 325:..\..\..\lvgl\version_6.1.2\lvgl\src\lv_objx/lv_page.c **** #if LV_USE_ANIMATION
 326:..\..\..\lvgl\version_6.1.2\lvgl\src\lv_objx/lv_page.c ****     lv_page_ext_t * ext = lv_obj_get_ext_attr(page);
 1157              		.loc 3 326 0
 1158 0008 7868     		ldr	r0, [r7, #4]
 1159 000a FFF7FEFF 		bl	lv_obj_get_ext_attr
 1160 000e F860     		str	r0, [r7, #12]
 327:..\..\..\lvgl\version_6.1.2\lvgl\src\lv_objx/lv_page.c ****     return ext->anim_time;
 1161              		.loc 3 327 0
 1162 0010 FB68     		ldr	r3, [r7, #12]
 1163 0012 9B8D     		ldrh	r3, [r3, #44]
 328:..\..\..\lvgl\version_6.1.2\lvgl\src\lv_objx/lv_page.c **** #else
 329:..\..\..\lvgl\version_6.1.2\lvgl\src\lv_objx/lv_page.c ****     (void)page; /*Unused*/
 330:..\..\..\lvgl\version_6.1.2\lvgl\src\lv_objx/lv_page.c ****     return 0;
 331:..\..\..\lvgl\version_6.1.2\lvgl\src\lv_objx/lv_page.c **** #endif
 332:..\..\..\lvgl\version_6.1.2\lvgl\src\lv_objx/lv_page.c **** }
 1164              		.loc 3 332 0
 1165 0014 1846     		mov	r0, r3
 1166 0016 1037     		adds	r7, r7, #16
 1167              		.cfi_def_cfa_offset 8
ARM GAS  C:\Users\tmj32\AppData\Local\Temp\ccFKuFvs.s 			page 35


 1168 0018 BD46     		mov	sp, r7
 1169              		.cfi_def_cfa_register 13
 1170              		@ sp needed
 1171 001a 80BD     		pop	{r7, pc}
 1172              		.cfi_endproc
 1173              	.LFE56:
 1174              		.size	lv_page_get_anim_time, .-lv_page_get_anim_time
 1175              		.section	.text.lv_page_get_sb_mode,"ax",%progbits
 1176              		.align	2
 1177              		.global	lv_page_get_sb_mode
 1178              		.thumb
 1179              		.thumb_func
 1180              		.type	lv_page_get_sb_mode, %function
 1181              	lv_page_get_sb_mode:
 1182              	.LFB57:
 333:..\..\..\lvgl\version_6.1.2\lvgl\src\lv_objx/lv_page.c **** 
 334:..\..\..\lvgl\version_6.1.2\lvgl\src\lv_objx/lv_page.c **** /**
 335:..\..\..\lvgl\version_6.1.2\lvgl\src\lv_objx/lv_page.c ****  * Set the scroll bar mode on a page
 336:..\..\..\lvgl\version_6.1.2\lvgl\src\lv_objx/lv_page.c ****  * @param page pointer to a page object
 337:..\..\..\lvgl\version_6.1.2\lvgl\src\lv_objx/lv_page.c ****  * @return the mode from 'lv_page_sb.mode_t' enum
 338:..\..\..\lvgl\version_6.1.2\lvgl\src\lv_objx/lv_page.c ****  */
 339:..\..\..\lvgl\version_6.1.2\lvgl\src\lv_objx/lv_page.c **** lv_sb_mode_t lv_page_get_sb_mode(const lv_obj_t * page)
 340:..\..\..\lvgl\version_6.1.2\lvgl\src\lv_objx/lv_page.c **** {
 1183              		.loc 3 340 0
 1184              		.cfi_startproc
 1185              		@ args = 0, pretend = 0, frame = 16
 1186              		@ frame_needed = 1, uses_anonymous_args = 0
 1187 0000 80B5     		push	{r7, lr}
 1188              		.cfi_def_cfa_offset 8
 1189              		.cfi_offset 7, -8
 1190              		.cfi_offset 14, -4
 1191 0002 84B0     		sub	sp, sp, #16
 1192              		.cfi_def_cfa_offset 24
 1193 0004 00AF     		add	r7, sp, #0
 1194              		.cfi_def_cfa_register 7
 1195 0006 7860     		str	r0, [r7, #4]
 341:..\..\..\lvgl\version_6.1.2\lvgl\src\lv_objx/lv_page.c ****     LV_ASSERT_OBJ(page, LV_OBJX_NAME);
 342:..\..\..\lvgl\version_6.1.2\lvgl\src\lv_objx/lv_page.c **** 
 343:..\..\..\lvgl\version_6.1.2\lvgl\src\lv_objx/lv_page.c ****     lv_page_ext_t * ext = lv_obj_get_ext_attr(page);
 1196              		.loc 3 343 0
 1197 0008 7868     		ldr	r0, [r7, #4]
 1198 000a FFF7FEFF 		bl	lv_obj_get_ext_attr
 1199 000e F860     		str	r0, [r7, #12]
 344:..\..\..\lvgl\version_6.1.2\lvgl\src\lv_objx/lv_page.c ****     return ext->sb.mode;
 1200              		.loc 3 344 0
 1201 0010 FB68     		ldr	r3, [r7, #12]
 1202 0012 1B7F     		ldrb	r3, [r3, #28]
 1203 0014 C3F38203 		ubfx	r3, r3, #2, #3
 1204 0018 DBB2     		uxtb	r3, r3
 345:..\..\..\lvgl\version_6.1.2\lvgl\src\lv_objx/lv_page.c **** }
 1205              		.loc 3 345 0
 1206 001a 1846     		mov	r0, r3
 1207 001c 1037     		adds	r7, r7, #16
 1208              		.cfi_def_cfa_offset 8
 1209 001e BD46     		mov	sp, r7
 1210              		.cfi_def_cfa_register 13
 1211              		@ sp needed
ARM GAS  C:\Users\tmj32\AppData\Local\Temp\ccFKuFvs.s 			page 36


 1212 0020 80BD     		pop	{r7, pc}
 1213              		.cfi_endproc
 1214              	.LFE57:
 1215              		.size	lv_page_get_sb_mode, .-lv_page_get_sb_mode
 1216 0022 00BF     		.section	.text.lv_page_get_scroll_propagation,"ax",%progbits
 1217              		.align	2
 1218              		.global	lv_page_get_scroll_propagation
 1219              		.thumb
 1220              		.thumb_func
 1221              		.type	lv_page_get_scroll_propagation, %function
 1222              	lv_page_get_scroll_propagation:
 1223              	.LFB58:
 346:..\..\..\lvgl\version_6.1.2\lvgl\src\lv_objx/lv_page.c **** 
 347:..\..\..\lvgl\version_6.1.2\lvgl\src\lv_objx/lv_page.c **** /**
 348:..\..\..\lvgl\version_6.1.2\lvgl\src\lv_objx/lv_page.c ****  * Get the scroll propagation property
 349:..\..\..\lvgl\version_6.1.2\lvgl\src\lv_objx/lv_page.c ****  * @param page pointer to a Page
 350:..\..\..\lvgl\version_6.1.2\lvgl\src\lv_objx/lv_page.c ****  * @return true or false
 351:..\..\..\lvgl\version_6.1.2\lvgl\src\lv_objx/lv_page.c ****  */
 352:..\..\..\lvgl\version_6.1.2\lvgl\src\lv_objx/lv_page.c **** bool lv_page_get_scroll_propagation(lv_obj_t * page)
 353:..\..\..\lvgl\version_6.1.2\lvgl\src\lv_objx/lv_page.c **** {
 1224              		.loc 3 353 0
 1225              		.cfi_startproc
 1226              		@ args = 0, pretend = 0, frame = 16
 1227              		@ frame_needed = 1, uses_anonymous_args = 0
 1228 0000 80B5     		push	{r7, lr}
 1229              		.cfi_def_cfa_offset 8
 1230              		.cfi_offset 7, -8
 1231              		.cfi_offset 14, -4
 1232 0002 84B0     		sub	sp, sp, #16
 1233              		.cfi_def_cfa_offset 24
 1234 0004 00AF     		add	r7, sp, #0
 1235              		.cfi_def_cfa_register 7
 1236 0006 7860     		str	r0, [r7, #4]
 354:..\..\..\lvgl\version_6.1.2\lvgl\src\lv_objx/lv_page.c ****     LV_ASSERT_OBJ(page, LV_OBJX_NAME);
 355:..\..\..\lvgl\version_6.1.2\lvgl\src\lv_objx/lv_page.c **** 
 356:..\..\..\lvgl\version_6.1.2\lvgl\src\lv_objx/lv_page.c ****     lv_page_ext_t * ext = lv_obj_get_ext_attr(page);
 1237              		.loc 3 356 0
 1238 0008 7868     		ldr	r0, [r7, #4]
 1239 000a FFF7FEFF 		bl	lv_obj_get_ext_attr
 1240 000e F860     		str	r0, [r7, #12]
 357:..\..\..\lvgl\version_6.1.2\lvgl\src\lv_objx/lv_page.c ****     return ext->scroll_prop == 0 ? false : true;
 1241              		.loc 3 357 0
 1242 0010 FB68     		ldr	r3, [r7, #12]
 1243 0012 93F82E30 		ldrb	r3, [r3, #46]	@ zero_extendqisi2
 1244 0016 03F00103 		and	r3, r3, #1
 1245 001a DBB2     		uxtb	r3, r3
 1246 001c 002B     		cmp	r3, #0
 1247 001e 14BF     		ite	ne
 1248 0020 0123     		movne	r3, #1
 1249 0022 0023     		moveq	r3, #0
 1250 0024 DBB2     		uxtb	r3, r3
 358:..\..\..\lvgl\version_6.1.2\lvgl\src\lv_objx/lv_page.c **** }
 1251              		.loc 3 358 0
 1252 0026 1846     		mov	r0, r3
 1253 0028 1037     		adds	r7, r7, #16
 1254              		.cfi_def_cfa_offset 8
 1255 002a BD46     		mov	sp, r7
ARM GAS  C:\Users\tmj32\AppData\Local\Temp\ccFKuFvs.s 			page 37


 1256              		.cfi_def_cfa_register 13
 1257              		@ sp needed
 1258 002c 80BD     		pop	{r7, pc}
 1259              		.cfi_endproc
 1260              	.LFE58:
 1261              		.size	lv_page_get_scroll_propagation, .-lv_page_get_scroll_propagation
 1262 002e 00BF     		.section	.text.lv_page_get_edge_flash,"ax",%progbits
 1263              		.align	2
 1264              		.global	lv_page_get_edge_flash
 1265              		.thumb
 1266              		.thumb_func
 1267              		.type	lv_page_get_edge_flash, %function
 1268              	lv_page_get_edge_flash:
 1269              	.LFB59:
 359:..\..\..\lvgl\version_6.1.2\lvgl\src\lv_objx/lv_page.c **** 
 360:..\..\..\lvgl\version_6.1.2\lvgl\src\lv_objx/lv_page.c **** /**
 361:..\..\..\lvgl\version_6.1.2\lvgl\src\lv_objx/lv_page.c ****  * Get the edge flash effect property.
 362:..\..\..\lvgl\version_6.1.2\lvgl\src\lv_objx/lv_page.c ****  * @param page pointer to a Page
 363:..\..\..\lvgl\version_6.1.2\lvgl\src\lv_objx/lv_page.c ****  * return true or false
 364:..\..\..\lvgl\version_6.1.2\lvgl\src\lv_objx/lv_page.c ****  */
 365:..\..\..\lvgl\version_6.1.2\lvgl\src\lv_objx/lv_page.c **** bool lv_page_get_edge_flash(lv_obj_t * page)
 366:..\..\..\lvgl\version_6.1.2\lvgl\src\lv_objx/lv_page.c **** {
 1270              		.loc 3 366 0
 1271              		.cfi_startproc
 1272              		@ args = 0, pretend = 0, frame = 16
 1273              		@ frame_needed = 1, uses_anonymous_args = 0
 1274 0000 80B5     		push	{r7, lr}
 1275              		.cfi_def_cfa_offset 8
 1276              		.cfi_offset 7, -8
 1277              		.cfi_offset 14, -4
 1278 0002 84B0     		sub	sp, sp, #16
 1279              		.cfi_def_cfa_offset 24
 1280 0004 00AF     		add	r7, sp, #0
 1281              		.cfi_def_cfa_register 7
 1282 0006 7860     		str	r0, [r7, #4]
 367:..\..\..\lvgl\version_6.1.2\lvgl\src\lv_objx/lv_page.c ****     LV_ASSERT_OBJ(page, LV_OBJX_NAME);
 368:..\..\..\lvgl\version_6.1.2\lvgl\src\lv_objx/lv_page.c **** 
 369:..\..\..\lvgl\version_6.1.2\lvgl\src\lv_objx/lv_page.c **** #if LV_USE_ANIMATION
 370:..\..\..\lvgl\version_6.1.2\lvgl\src\lv_objx/lv_page.c ****     lv_page_ext_t * ext = lv_obj_get_ext_attr(page);
 1283              		.loc 3 370 0
 1284 0008 7868     		ldr	r0, [r7, #4]
 1285 000a FFF7FEFF 		bl	lv_obj_get_ext_attr
 1286 000e F860     		str	r0, [r7, #12]
 371:..\..\..\lvgl\version_6.1.2\lvgl\src\lv_objx/lv_page.c ****     return ext->edge_flash.enabled == 0 ? false : true;
 1287              		.loc 3 371 0
 1288 0010 FB68     		ldr	r3, [r7, #12]
 1289 0012 93F82830 		ldrb	r3, [r3, #40]	@ zero_extendqisi2
 1290 0016 03F00103 		and	r3, r3, #1
 1291 001a DBB2     		uxtb	r3, r3
 1292 001c 002B     		cmp	r3, #0
 1293 001e 14BF     		ite	ne
 1294 0020 0123     		movne	r3, #1
 1295 0022 0023     		moveq	r3, #0
 1296 0024 DBB2     		uxtb	r3, r3
 372:..\..\..\lvgl\version_6.1.2\lvgl\src\lv_objx/lv_page.c **** #else
 373:..\..\..\lvgl\version_6.1.2\lvgl\src\lv_objx/lv_page.c ****     (void)page;
 374:..\..\..\lvgl\version_6.1.2\lvgl\src\lv_objx/lv_page.c ****     return false;
ARM GAS  C:\Users\tmj32\AppData\Local\Temp\ccFKuFvs.s 			page 38


 375:..\..\..\lvgl\version_6.1.2\lvgl\src\lv_objx/lv_page.c **** #endif
 376:..\..\..\lvgl\version_6.1.2\lvgl\src\lv_objx/lv_page.c **** }
 1297              		.loc 3 376 0
 1298 0026 1846     		mov	r0, r3
 1299 0028 1037     		adds	r7, r7, #16
 1300              		.cfi_def_cfa_offset 8
 1301 002a BD46     		mov	sp, r7
 1302              		.cfi_def_cfa_register 13
 1303              		@ sp needed
 1304 002c 80BD     		pop	{r7, pc}
 1305              		.cfi_endproc
 1306              	.LFE59:
 1307              		.size	lv_page_get_edge_flash, .-lv_page_get_edge_flash
 1308 002e 00BF     		.section	.text.lv_page_get_fit_width,"ax",%progbits
 1309              		.align	2
 1310              		.global	lv_page_get_fit_width
 1311              		.thumb
 1312              		.thumb_func
 1313              		.type	lv_page_get_fit_width, %function
 1314              	lv_page_get_fit_width:
 1315              	.LFB60:
 377:..\..\..\lvgl\version_6.1.2\lvgl\src\lv_objx/lv_page.c **** 
 378:..\..\..\lvgl\version_6.1.2\lvgl\src\lv_objx/lv_page.c **** /**
 379:..\..\..\lvgl\version_6.1.2\lvgl\src\lv_objx/lv_page.c ****  * Get that width which can be set to the children to still not cause overflow (show scrollbars)
 380:..\..\..\lvgl\version_6.1.2\lvgl\src\lv_objx/lv_page.c ****  * @param page pointer to a page object
 381:..\..\..\lvgl\version_6.1.2\lvgl\src\lv_objx/lv_page.c ****  * @return the width which still fits into the page
 382:..\..\..\lvgl\version_6.1.2\lvgl\src\lv_objx/lv_page.c ****  */
 383:..\..\..\lvgl\version_6.1.2\lvgl\src\lv_objx/lv_page.c **** lv_coord_t lv_page_get_fit_width(lv_obj_t * page)
 384:..\..\..\lvgl\version_6.1.2\lvgl\src\lv_objx/lv_page.c **** {
 1316              		.loc 3 384 0
 1317              		.cfi_startproc
 1318              		@ args = 0, pretend = 0, frame = 16
 1319              		@ frame_needed = 1, uses_anonymous_args = 0
 1320 0000 80B5     		push	{r7, lr}
 1321              		.cfi_def_cfa_offset 8
 1322              		.cfi_offset 7, -8
 1323              		.cfi_offset 14, -4
 1324 0002 84B0     		sub	sp, sp, #16
 1325              		.cfi_def_cfa_offset 24
 1326 0004 00AF     		add	r7, sp, #0
 1327              		.cfi_def_cfa_register 7
 1328 0006 7860     		str	r0, [r7, #4]
 385:..\..\..\lvgl\version_6.1.2\lvgl\src\lv_objx/lv_page.c ****     LV_ASSERT_OBJ(page, LV_OBJX_NAME);
 386:..\..\..\lvgl\version_6.1.2\lvgl\src\lv_objx/lv_page.c **** 
 387:..\..\..\lvgl\version_6.1.2\lvgl\src\lv_objx/lv_page.c ****     const lv_style_t * bg_style   = lv_page_get_style(page, LV_PAGE_STYLE_BG);
 1329              		.loc 3 387 0
 1330 0008 0021     		movs	r1, #0
 1331 000a 7868     		ldr	r0, [r7, #4]
 1332 000c FFF7FEFF 		bl	lv_page_get_style
 1333 0010 F860     		str	r0, [r7, #12]
 388:..\..\..\lvgl\version_6.1.2\lvgl\src\lv_objx/lv_page.c ****     const lv_style_t * scrl_style = lv_page_get_style(page, LV_PAGE_STYLE_SCRL);
 1334              		.loc 3 388 0
 1335 0012 0121     		movs	r1, #1
 1336 0014 7868     		ldr	r0, [r7, #4]
 1337 0016 FFF7FEFF 		bl	lv_page_get_style
 1338 001a B860     		str	r0, [r7, #8]
 389:..\..\..\lvgl\version_6.1.2\lvgl\src\lv_objx/lv_page.c **** 
ARM GAS  C:\Users\tmj32\AppData\Local\Temp\ccFKuFvs.s 			page 39


 390:..\..\..\lvgl\version_6.1.2\lvgl\src\lv_objx/lv_page.c ****     return lv_obj_get_width(page) - bg_style->body.padding.left - bg_style->body.padding.right -
 1339              		.loc 3 390 0
 1340 001c 7868     		ldr	r0, [r7, #4]
 1341 001e FFF7FEFF 		bl	lv_obj_get_width
 1342 0022 0346     		mov	r3, r0
 1343 0024 9AB2     		uxth	r2, r3
 1344 0026 FB68     		ldr	r3, [r7, #12]
 1345 0028 B3F92430 		ldrsh	r3, [r3, #36]
 1346 002c 9BB2     		uxth	r3, r3
 1347 002e D31A     		subs	r3, r2, r3
 1348 0030 9AB2     		uxth	r2, r3
 1349 0032 FB68     		ldr	r3, [r7, #12]
 1350 0034 B3F92630 		ldrsh	r3, [r3, #38]
 1351 0038 9BB2     		uxth	r3, r3
 1352 003a D31A     		subs	r3, r2, r3
 1353 003c 9AB2     		uxth	r2, r3
 391:..\..\..\lvgl\version_6.1.2\lvgl\src\lv_objx/lv_page.c ****            scrl_style->body.padding.left - scrl_style->body.padding.right;
 1354              		.loc 3 391 0
 1355 003e BB68     		ldr	r3, [r7, #8]
 1356 0040 B3F92430 		ldrsh	r3, [r3, #36]
 390:..\..\..\lvgl\version_6.1.2\lvgl\src\lv_objx/lv_page.c ****            scrl_style->body.padding.left - scrl_style->body.padding.right;
 1357              		.loc 3 390 0
 1358 0044 9BB2     		uxth	r3, r3
 1359 0046 D31A     		subs	r3, r2, r3
 1360 0048 9AB2     		uxth	r2, r3
 1361              		.loc 3 391 0
 1362 004a BB68     		ldr	r3, [r7, #8]
 1363 004c B3F92630 		ldrsh	r3, [r3, #38]
 390:..\..\..\lvgl\version_6.1.2\lvgl\src\lv_objx/lv_page.c ****            scrl_style->body.padding.left - scrl_style->body.padding.right;
 1364              		.loc 3 390 0
 1365 0050 9BB2     		uxth	r3, r3
 1366 0052 D31A     		subs	r3, r2, r3
 1367 0054 9BB2     		uxth	r3, r3
 1368 0056 1BB2     		sxth	r3, r3
 392:..\..\..\lvgl\version_6.1.2\lvgl\src\lv_objx/lv_page.c **** }
 1369              		.loc 3 392 0
 1370 0058 1846     		mov	r0, r3
 1371 005a 1037     		adds	r7, r7, #16
 1372              		.cfi_def_cfa_offset 8
 1373 005c BD46     		mov	sp, r7
 1374              		.cfi_def_cfa_register 13
 1375              		@ sp needed
 1376 005e 80BD     		pop	{r7, pc}
 1377              		.cfi_endproc
 1378              	.LFE60:
 1379              		.size	lv_page_get_fit_width, .-lv_page_get_fit_width
 1380              		.section	.text.lv_page_get_fit_height,"ax",%progbits
 1381              		.align	2
 1382              		.global	lv_page_get_fit_height
 1383              		.thumb
 1384              		.thumb_func
 1385              		.type	lv_page_get_fit_height, %function
 1386              	lv_page_get_fit_height:
 1387              	.LFB61:
 393:..\..\..\lvgl\version_6.1.2\lvgl\src\lv_objx/lv_page.c **** 
 394:..\..\..\lvgl\version_6.1.2\lvgl\src\lv_objx/lv_page.c **** /**
 395:..\..\..\lvgl\version_6.1.2\lvgl\src\lv_objx/lv_page.c ****  * Get that height which can be set to the children to still not cause overflow (show scrollbars)
ARM GAS  C:\Users\tmj32\AppData\Local\Temp\ccFKuFvs.s 			page 40


 396:..\..\..\lvgl\version_6.1.2\lvgl\src\lv_objx/lv_page.c ****  * @param page pointer to a page object
 397:..\..\..\lvgl\version_6.1.2\lvgl\src\lv_objx/lv_page.c ****  * @return the height which still fits into the page
 398:..\..\..\lvgl\version_6.1.2\lvgl\src\lv_objx/lv_page.c ****  */
 399:..\..\..\lvgl\version_6.1.2\lvgl\src\lv_objx/lv_page.c **** lv_coord_t lv_page_get_fit_height(lv_obj_t * page)
 400:..\..\..\lvgl\version_6.1.2\lvgl\src\lv_objx/lv_page.c **** {
 1388              		.loc 3 400 0
 1389              		.cfi_startproc
 1390              		@ args = 0, pretend = 0, frame = 16
 1391              		@ frame_needed = 1, uses_anonymous_args = 0
 1392 0000 80B5     		push	{r7, lr}
 1393              		.cfi_def_cfa_offset 8
 1394              		.cfi_offset 7, -8
 1395              		.cfi_offset 14, -4
 1396 0002 84B0     		sub	sp, sp, #16
 1397              		.cfi_def_cfa_offset 24
 1398 0004 00AF     		add	r7, sp, #0
 1399              		.cfi_def_cfa_register 7
 1400 0006 7860     		str	r0, [r7, #4]
 401:..\..\..\lvgl\version_6.1.2\lvgl\src\lv_objx/lv_page.c ****     LV_ASSERT_OBJ(page, LV_OBJX_NAME);
 402:..\..\..\lvgl\version_6.1.2\lvgl\src\lv_objx/lv_page.c **** 
 403:..\..\..\lvgl\version_6.1.2\lvgl\src\lv_objx/lv_page.c ****     const lv_style_t * bg_style   = lv_page_get_style(page, LV_PAGE_STYLE_BG);
 1401              		.loc 3 403 0
 1402 0008 0021     		movs	r1, #0
 1403 000a 7868     		ldr	r0, [r7, #4]
 1404 000c FFF7FEFF 		bl	lv_page_get_style
 1405 0010 F860     		str	r0, [r7, #12]
 404:..\..\..\lvgl\version_6.1.2\lvgl\src\lv_objx/lv_page.c ****     const lv_style_t * scrl_style = lv_page_get_style(page, LV_PAGE_STYLE_SCRL);
 1406              		.loc 3 404 0
 1407 0012 0121     		movs	r1, #1
 1408 0014 7868     		ldr	r0, [r7, #4]
 1409 0016 FFF7FEFF 		bl	lv_page_get_style
 1410 001a B860     		str	r0, [r7, #8]
 405:..\..\..\lvgl\version_6.1.2\lvgl\src\lv_objx/lv_page.c **** 
 406:..\..\..\lvgl\version_6.1.2\lvgl\src\lv_objx/lv_page.c ****     return lv_obj_get_height(page) - bg_style->body.padding.top - bg_style->body.padding.bottom -
 1411              		.loc 3 406 0
 1412 001c 7868     		ldr	r0, [r7, #4]
 1413 001e FFF7FEFF 		bl	lv_obj_get_height
 1414 0022 0346     		mov	r3, r0
 1415 0024 9AB2     		uxth	r2, r3
 1416 0026 FB68     		ldr	r3, [r7, #12]
 1417 0028 B3F92030 		ldrsh	r3, [r3, #32]
 1418 002c 9BB2     		uxth	r3, r3
 1419 002e D31A     		subs	r3, r2, r3
 1420 0030 9AB2     		uxth	r2, r3
 1421 0032 FB68     		ldr	r3, [r7, #12]
 1422 0034 B3F92230 		ldrsh	r3, [r3, #34]
 1423 0038 9BB2     		uxth	r3, r3
 1424 003a D31A     		subs	r3, r2, r3
 1425 003c 9AB2     		uxth	r2, r3
 407:..\..\..\lvgl\version_6.1.2\lvgl\src\lv_objx/lv_page.c ****            scrl_style->body.padding.top - scrl_style->body.padding.bottom;
 1426              		.loc 3 407 0
 1427 003e BB68     		ldr	r3, [r7, #8]
 1428 0040 B3F92030 		ldrsh	r3, [r3, #32]
 406:..\..\..\lvgl\version_6.1.2\lvgl\src\lv_objx/lv_page.c ****            scrl_style->body.padding.top - scrl_style->body.padding.bottom;
 1429              		.loc 3 406 0
 1430 0044 9BB2     		uxth	r3, r3
 1431 0046 D31A     		subs	r3, r2, r3
ARM GAS  C:\Users\tmj32\AppData\Local\Temp\ccFKuFvs.s 			page 41


 1432 0048 9AB2     		uxth	r2, r3
 1433              		.loc 3 407 0
 1434 004a BB68     		ldr	r3, [r7, #8]
 1435 004c B3F92230 		ldrsh	r3, [r3, #34]
 406:..\..\..\lvgl\version_6.1.2\lvgl\src\lv_objx/lv_page.c ****            scrl_style->body.padding.top - scrl_style->body.padding.bottom;
 1436              		.loc 3 406 0
 1437 0050 9BB2     		uxth	r3, r3
 1438 0052 D31A     		subs	r3, r2, r3
 1439 0054 9BB2     		uxth	r3, r3
 1440 0056 1BB2     		sxth	r3, r3
 408:..\..\..\lvgl\version_6.1.2\lvgl\src\lv_objx/lv_page.c **** }
 1441              		.loc 3 408 0
 1442 0058 1846     		mov	r0, r3
 1443 005a 1037     		adds	r7, r7, #16
 1444              		.cfi_def_cfa_offset 8
 1445 005c BD46     		mov	sp, r7
 1446              		.cfi_def_cfa_register 13
 1447              		@ sp needed
 1448 005e 80BD     		pop	{r7, pc}
 1449              		.cfi_endproc
 1450              	.LFE61:
 1451              		.size	lv_page_get_fit_height, .-lv_page_get_fit_height
 1452              		.section	.text.lv_page_get_style,"ax",%progbits
 1453              		.align	2
 1454              		.global	lv_page_get_style
 1455              		.thumb
 1456              		.thumb_func
 1457              		.type	lv_page_get_style, %function
 1458              	lv_page_get_style:
 1459              	.LFB62:
 409:..\..\..\lvgl\version_6.1.2\lvgl\src\lv_objx/lv_page.c **** 
 410:..\..\..\lvgl\version_6.1.2\lvgl\src\lv_objx/lv_page.c **** /**
 411:..\..\..\lvgl\version_6.1.2\lvgl\src\lv_objx/lv_page.c ****  * Get a style of a page
 412:..\..\..\lvgl\version_6.1.2\lvgl\src\lv_objx/lv_page.c ****  * @param page pointer to page object
 413:..\..\..\lvgl\version_6.1.2\lvgl\src\lv_objx/lv_page.c ****  * @param type which style should be get
 414:..\..\..\lvgl\version_6.1.2\lvgl\src\lv_objx/lv_page.c ****  * @return style pointer to a style
 415:..\..\..\lvgl\version_6.1.2\lvgl\src\lv_objx/lv_page.c ****  *  */
 416:..\..\..\lvgl\version_6.1.2\lvgl\src\lv_objx/lv_page.c **** const lv_style_t * lv_page_get_style(const lv_obj_t * page, lv_page_style_t type)
 417:..\..\..\lvgl\version_6.1.2\lvgl\src\lv_objx/lv_page.c **** {
 1460              		.loc 3 417 0
 1461              		.cfi_startproc
 1462              		@ args = 0, pretend = 0, frame = 16
 1463              		@ frame_needed = 1, uses_anonymous_args = 0
 1464 0000 80B5     		push	{r7, lr}
 1465              		.cfi_def_cfa_offset 8
 1466              		.cfi_offset 7, -8
 1467              		.cfi_offset 14, -4
 1468 0002 84B0     		sub	sp, sp, #16
 1469              		.cfi_def_cfa_offset 24
 1470 0004 00AF     		add	r7, sp, #0
 1471              		.cfi_def_cfa_register 7
 1472 0006 7860     		str	r0, [r7, #4]
 1473 0008 0B46     		mov	r3, r1
 1474 000a FB70     		strb	r3, [r7, #3]
 418:..\..\..\lvgl\version_6.1.2\lvgl\src\lv_objx/lv_page.c ****     LV_ASSERT_OBJ(page, LV_OBJX_NAME);
 419:..\..\..\lvgl\version_6.1.2\lvgl\src\lv_objx/lv_page.c **** 
 420:..\..\..\lvgl\version_6.1.2\lvgl\src\lv_objx/lv_page.c ****     const lv_style_t * style = NULL;
ARM GAS  C:\Users\tmj32\AppData\Local\Temp\ccFKuFvs.s 			page 42


 1475              		.loc 3 420 0
 1476 000c 0023     		movs	r3, #0
 1477 000e FB60     		str	r3, [r7, #12]
 421:..\..\..\lvgl\version_6.1.2\lvgl\src\lv_objx/lv_page.c ****     lv_page_ext_t * ext      = lv_obj_get_ext_attr(page);
 1478              		.loc 3 421 0
 1479 0010 7868     		ldr	r0, [r7, #4]
 1480 0012 FFF7FEFF 		bl	lv_obj_get_ext_attr
 1481 0016 B860     		str	r0, [r7, #8]
 422:..\..\..\lvgl\version_6.1.2\lvgl\src\lv_objx/lv_page.c **** 
 423:..\..\..\lvgl\version_6.1.2\lvgl\src\lv_objx/lv_page.c ****     switch(type) {
 1482              		.loc 3 423 0
 1483 0018 FB78     		ldrb	r3, [r7, #3]	@ zero_extendqisi2
 1484 001a 032B     		cmp	r3, #3
 1485 001c 1ED8     		bhi	.L63
 1486 001e 01A2     		adr	r2, .L65
 1487 0020 52F823F0 		ldr	pc, [r2, r3, lsl #2]
 1488              		.p2align 2
 1489              	.L65:
 1490 0024 35000000 		.word	.L64+1
 1491 0028 3F000000 		.word	.L66+1
 1492 002c 4D000000 		.word	.L67+1
 1493 0030 55000000 		.word	.L68+1
 1494              		.p2align 1
 1495              	.L64:
 424:..\..\..\lvgl\version_6.1.2\lvgl\src\lv_objx/lv_page.c ****         case LV_PAGE_STYLE_BG: style = lv_obj_get_style(page); break;
 1496              		.loc 3 424 0
 1497 0034 7868     		ldr	r0, [r7, #4]
 1498 0036 FFF7FEFF 		bl	lv_obj_get_style
 1499 003a F860     		str	r0, [r7, #12]
 1500 003c 11E0     		b	.L69
 1501              	.L66:
 425:..\..\..\lvgl\version_6.1.2\lvgl\src\lv_objx/lv_page.c ****         case LV_PAGE_STYLE_SCRL: style = lv_obj_get_style(ext->scrl); break;
 1502              		.loc 3 425 0
 1503 003e BB68     		ldr	r3, [r7, #8]
 1504 0040 5B68     		ldr	r3, [r3, #4]
 1505 0042 1846     		mov	r0, r3
 1506 0044 FFF7FEFF 		bl	lv_obj_get_style
 1507 0048 F860     		str	r0, [r7, #12]
 1508 004a 0AE0     		b	.L69
 1509              	.L67:
 426:..\..\..\lvgl\version_6.1.2\lvgl\src\lv_objx/lv_page.c ****         case LV_PAGE_STYLE_SB: style = ext->sb.style; break;
 1510              		.loc 3 426 0
 1511 004c BB68     		ldr	r3, [r7, #8]
 1512 004e 9B68     		ldr	r3, [r3, #8]
 1513 0050 FB60     		str	r3, [r7, #12]
 1514 0052 06E0     		b	.L69
 1515              	.L68:
 427:..\..\..\lvgl\version_6.1.2\lvgl\src\lv_objx/lv_page.c **** #if LV_USE_ANIMATION
 428:..\..\..\lvgl\version_6.1.2\lvgl\src\lv_objx/lv_page.c ****         case LV_PAGE_STYLE_EDGE_FLASH: style = ext->edge_flash.style; break;
 1516              		.loc 3 428 0
 1517 0054 BB68     		ldr	r3, [r7, #8]
 1518 0056 5B6A     		ldr	r3, [r3, #36]
 1519 0058 FB60     		str	r3, [r7, #12]
 1520 005a 02E0     		b	.L69
 1521              	.L63:
 429:..\..\..\lvgl\version_6.1.2\lvgl\src\lv_objx/lv_page.c **** #endif
 430:..\..\..\lvgl\version_6.1.2\lvgl\src\lv_objx/lv_page.c ****         default: style = NULL; break;
ARM GAS  C:\Users\tmj32\AppData\Local\Temp\ccFKuFvs.s 			page 43


 1522              		.loc 3 430 0
 1523 005c 0023     		movs	r3, #0
 1524 005e FB60     		str	r3, [r7, #12]
 1525 0060 00BF     		nop
 1526              	.L69:
 431:..\..\..\lvgl\version_6.1.2\lvgl\src\lv_objx/lv_page.c ****     }
 432:..\..\..\lvgl\version_6.1.2\lvgl\src\lv_objx/lv_page.c **** 
 433:..\..\..\lvgl\version_6.1.2\lvgl\src\lv_objx/lv_page.c ****     return style;
 1527              		.loc 3 433 0
 1528 0062 FB68     		ldr	r3, [r7, #12]
 434:..\..\..\lvgl\version_6.1.2\lvgl\src\lv_objx/lv_page.c **** }
 1529              		.loc 3 434 0
 1530 0064 1846     		mov	r0, r3
 1531 0066 1037     		adds	r7, r7, #16
 1532              		.cfi_def_cfa_offset 8
 1533 0068 BD46     		mov	sp, r7
 1534              		.cfi_def_cfa_register 13
 1535              		@ sp needed
 1536 006a 80BD     		pop	{r7, pc}
 1537              		.cfi_endproc
 1538              	.LFE62:
 1539              		.size	lv_page_get_style, .-lv_page_get_style
 1540              		.section	.text.lv_page_on_edge,"ax",%progbits
 1541              		.align	2
 1542              		.global	lv_page_on_edge
 1543              		.thumb
 1544              		.thumb_func
 1545              		.type	lv_page_on_edge, %function
 1546              	lv_page_on_edge:
 1547              	.LFB63:
 435:..\..\..\lvgl\version_6.1.2\lvgl\src\lv_objx/lv_page.c **** 
 436:..\..\..\lvgl\version_6.1.2\lvgl\src\lv_objx/lv_page.c **** /*=====================
 437:..\..\..\lvgl\version_6.1.2\lvgl\src\lv_objx/lv_page.c ****  * Other functions
 438:..\..\..\lvgl\version_6.1.2\lvgl\src\lv_objx/lv_page.c ****  *====================*/
 439:..\..\..\lvgl\version_6.1.2\lvgl\src\lv_objx/lv_page.c **** 
 440:..\..\..\lvgl\version_6.1.2\lvgl\src\lv_objx/lv_page.c **** /**
 441:..\..\..\lvgl\version_6.1.2\lvgl\src\lv_objx/lv_page.c ****  * Find whether the page has been scrolled to a certain edge.
 442:..\..\..\lvgl\version_6.1.2\lvgl\src\lv_objx/lv_page.c ****  * @param page Page object
 443:..\..\..\lvgl\version_6.1.2\lvgl\src\lv_objx/lv_page.c ****  * @param edge Edge to check
 444:..\..\..\lvgl\version_6.1.2\lvgl\src\lv_objx/lv_page.c ****  * @return true if the page is on the specified edge
 445:..\..\..\lvgl\version_6.1.2\lvgl\src\lv_objx/lv_page.c ****  */
 446:..\..\..\lvgl\version_6.1.2\lvgl\src\lv_objx/lv_page.c **** bool lv_page_on_edge(lv_obj_t * page, lv_page_edge_t edge)
 447:..\..\..\lvgl\version_6.1.2\lvgl\src\lv_objx/lv_page.c **** {
 1548              		.loc 3 447 0
 1549              		.cfi_startproc
 1550              		@ args = 0, pretend = 0, frame = 32
 1551              		@ frame_needed = 1, uses_anonymous_args = 0
 1552 0000 80B5     		push	{r7, lr}
 1553              		.cfi_def_cfa_offset 8
 1554              		.cfi_offset 7, -8
 1555              		.cfi_offset 14, -4
 1556 0002 88B0     		sub	sp, sp, #32
 1557              		.cfi_def_cfa_offset 40
 1558 0004 00AF     		add	r7, sp, #0
 1559              		.cfi_def_cfa_register 7
 1560 0006 7860     		str	r0, [r7, #4]
 1561 0008 0B46     		mov	r3, r1
ARM GAS  C:\Users\tmj32\AppData\Local\Temp\ccFKuFvs.s 			page 44


 1562 000a FB70     		strb	r3, [r7, #3]
 448:..\..\..\lvgl\version_6.1.2\lvgl\src\lv_objx/lv_page.c ****     const lv_style_t * page_style = lv_obj_get_style(page);
 1563              		.loc 3 448 0
 1564 000c 7868     		ldr	r0, [r7, #4]
 1565 000e FFF7FEFF 		bl	lv_obj_get_style
 1566 0012 F861     		str	r0, [r7, #28]
 449:..\..\..\lvgl\version_6.1.2\lvgl\src\lv_objx/lv_page.c ****     lv_obj_t * scrl               = lv_page_get_scrl(page);
 1567              		.loc 3 449 0
 1568 0014 7868     		ldr	r0, [r7, #4]
 1569 0016 FFF7FEFF 		bl	lv_page_get_scrl
 1570 001a B861     		str	r0, [r7, #24]
 450:..\..\..\lvgl\version_6.1.2\lvgl\src\lv_objx/lv_page.c ****     lv_area_t page_coords;
 451:..\..\..\lvgl\version_6.1.2\lvgl\src\lv_objx/lv_page.c ****     lv_area_t scrl_coords;
 452:..\..\..\lvgl\version_6.1.2\lvgl\src\lv_objx/lv_page.c **** 
 453:..\..\..\lvgl\version_6.1.2\lvgl\src\lv_objx/lv_page.c ****     lv_obj_get_coords(scrl, &scrl_coords);
 1571              		.loc 3 453 0
 1572 001c 07F10803 		add	r3, r7, #8
 1573 0020 1946     		mov	r1, r3
 1574 0022 B869     		ldr	r0, [r7, #24]
 1575 0024 FFF7FEFF 		bl	lv_obj_get_coords
 454:..\..\..\lvgl\version_6.1.2\lvgl\src\lv_objx/lv_page.c ****     lv_obj_get_coords(page, &page_coords);
 1576              		.loc 3 454 0
 1577 0028 07F11003 		add	r3, r7, #16
 1578 002c 1946     		mov	r1, r3
 1579 002e 7868     		ldr	r0, [r7, #4]
 1580 0030 FFF7FEFF 		bl	lv_obj_get_coords
 455:..\..\..\lvgl\version_6.1.2\lvgl\src\lv_objx/lv_page.c **** 
 456:..\..\..\lvgl\version_6.1.2\lvgl\src\lv_objx/lv_page.c ****     if((edge & LV_PAGE_EDGE_TOP) && scrl_coords.y1 == page_coords.y1 + page_style->body.padding.top
 1581              		.loc 3 456 0
 1582 0034 FB78     		ldrb	r3, [r7, #3]	@ zero_extendqisi2
 1583 0036 03F00203 		and	r3, r3, #2
 1584 003a 002B     		cmp	r3, #0
 1585 003c 0DD0     		beq	.L72
 1586              		.loc 3 456 0 is_stmt 0 discriminator 1
 1587 003e B7F90A30 		ldrsh	r3, [r7, #10]
 1588 0042 1A46     		mov	r2, r3
 1589 0044 B7F91230 		ldrsh	r3, [r7, #18]
 1590 0048 1946     		mov	r1, r3
 1591 004a FB69     		ldr	r3, [r7, #28]
 1592 004c B3F92030 		ldrsh	r3, [r3, #32]
 1593 0050 0B44     		add	r3, r3, r1
 1594 0052 9A42     		cmp	r2, r3
 1595 0054 01D1     		bne	.L72
 1596              		.loc 3 456 0 discriminator 2
 1597 0056 0123     		movs	r3, #1
 1598 0058 39E0     		b	.L77
 1599              	.L72:
 457:..\..\..\lvgl\version_6.1.2\lvgl\src\lv_objx/lv_page.c ****     if((edge & LV_PAGE_EDGE_BOTTOM) && scrl_coords.y2 == page_coords.y2 - page_style->body.padding.
 1600              		.loc 3 457 0 is_stmt 1
 1601 005a FB78     		ldrb	r3, [r7, #3]	@ zero_extendqisi2
 1602 005c 03F00803 		and	r3, r3, #8
 1603 0060 002B     		cmp	r3, #0
 1604 0062 0DD0     		beq	.L74
 1605              		.loc 3 457 0 is_stmt 0 discriminator 1
 1606 0064 B7F90E30 		ldrsh	r3, [r7, #14]
 1607 0068 1A46     		mov	r2, r3
 1608 006a B7F91630 		ldrsh	r3, [r7, #22]
ARM GAS  C:\Users\tmj32\AppData\Local\Temp\ccFKuFvs.s 			page 45


 1609 006e 1946     		mov	r1, r3
 1610 0070 FB69     		ldr	r3, [r7, #28]
 1611 0072 B3F92230 		ldrsh	r3, [r3, #34]
 1612 0076 CB1A     		subs	r3, r1, r3
 1613 0078 9A42     		cmp	r2, r3
 1614 007a 01D1     		bne	.L74
 1615              		.loc 3 457 0 discriminator 2
 1616 007c 0123     		movs	r3, #1
 1617 007e 26E0     		b	.L77
 1618              	.L74:
 458:..\..\..\lvgl\version_6.1.2\lvgl\src\lv_objx/lv_page.c ****     if((edge & LV_PAGE_EDGE_LEFT) && scrl_coords.x1 == page_coords.x1 + page_style->body.padding.le
 1619              		.loc 3 458 0 is_stmt 1
 1620 0080 FB78     		ldrb	r3, [r7, #3]	@ zero_extendqisi2
 1621 0082 03F00103 		and	r3, r3, #1
 1622 0086 002B     		cmp	r3, #0
 1623 0088 0DD0     		beq	.L75
 1624              		.loc 3 458 0 is_stmt 0 discriminator 1
 1625 008a B7F90830 		ldrsh	r3, [r7, #8]
 1626 008e 1A46     		mov	r2, r3
 1627 0090 B7F91030 		ldrsh	r3, [r7, #16]
 1628 0094 1946     		mov	r1, r3
 1629 0096 FB69     		ldr	r3, [r7, #28]
 1630 0098 B3F92430 		ldrsh	r3, [r3, #36]
 1631 009c 0B44     		add	r3, r3, r1
 1632 009e 9A42     		cmp	r2, r3
 1633 00a0 01D1     		bne	.L75
 1634              		.loc 3 458 0 discriminator 2
 1635 00a2 0123     		movs	r3, #1
 1636 00a4 13E0     		b	.L77
 1637              	.L75:
 459:..\..\..\lvgl\version_6.1.2\lvgl\src\lv_objx/lv_page.c ****     if((edge & LV_PAGE_EDGE_RIGHT) && scrl_coords.x2 == page_coords.x2 - page_style->body.padding.r
 1638              		.loc 3 459 0 is_stmt 1
 1639 00a6 FB78     		ldrb	r3, [r7, #3]	@ zero_extendqisi2
 1640 00a8 03F00403 		and	r3, r3, #4
 1641 00ac 002B     		cmp	r3, #0
 1642 00ae 0DD0     		beq	.L76
 1643              		.loc 3 459 0 is_stmt 0 discriminator 1
 1644 00b0 B7F90C30 		ldrsh	r3, [r7, #12]
 1645 00b4 1A46     		mov	r2, r3
 1646 00b6 B7F91430 		ldrsh	r3, [r7, #20]
 1647 00ba 1946     		mov	r1, r3
 1648 00bc FB69     		ldr	r3, [r7, #28]
 1649 00be B3F92630 		ldrsh	r3, [r3, #38]
 1650 00c2 CB1A     		subs	r3, r1, r3
 1651 00c4 9A42     		cmp	r2, r3
 1652 00c6 01D1     		bne	.L76
 1653              		.loc 3 459 0 discriminator 2
 1654 00c8 0123     		movs	r3, #1
 1655 00ca 00E0     		b	.L77
 1656              	.L76:
 460:..\..\..\lvgl\version_6.1.2\lvgl\src\lv_objx/lv_page.c **** 
 461:..\..\..\lvgl\version_6.1.2\lvgl\src\lv_objx/lv_page.c ****     return false;
 1657              		.loc 3 461 0 is_stmt 1
 1658 00cc 0023     		movs	r3, #0
 1659              	.L77:
 462:..\..\..\lvgl\version_6.1.2\lvgl\src\lv_objx/lv_page.c **** }
 1660              		.loc 3 462 0 discriminator 1
ARM GAS  C:\Users\tmj32\AppData\Local\Temp\ccFKuFvs.s 			page 46


 1661 00ce 1846     		mov	r0, r3
 1662 00d0 2037     		adds	r7, r7, #32
 1663              		.cfi_def_cfa_offset 8
 1664 00d2 BD46     		mov	sp, r7
 1665              		.cfi_def_cfa_register 13
 1666              		@ sp needed
 1667 00d4 80BD     		pop	{r7, pc}
 1668              		.cfi_endproc
 1669              	.LFE63:
 1670              		.size	lv_page_on_edge, .-lv_page_on_edge
 1671 00d6 00BF     		.section	.text.lv_page_glue_obj,"ax",%progbits
 1672              		.align	2
 1673              		.global	lv_page_glue_obj
 1674              		.thumb
 1675              		.thumb_func
 1676              		.type	lv_page_glue_obj, %function
 1677              	lv_page_glue_obj:
 1678              	.LFB64:
 463:..\..\..\lvgl\version_6.1.2\lvgl\src\lv_objx/lv_page.c **** 
 464:..\..\..\lvgl\version_6.1.2\lvgl\src\lv_objx/lv_page.c **** /**
 465:..\..\..\lvgl\version_6.1.2\lvgl\src\lv_objx/lv_page.c ****  * Glue the object to the page. After it the page can be moved (dragged) with this object too.
 466:..\..\..\lvgl\version_6.1.2\lvgl\src\lv_objx/lv_page.c ****  * @param obj pointer to an object on a page
 467:..\..\..\lvgl\version_6.1.2\lvgl\src\lv_objx/lv_page.c ****  * @param glue true: enable glue, false: disable glue
 468:..\..\..\lvgl\version_6.1.2\lvgl\src\lv_objx/lv_page.c ****  */
 469:..\..\..\lvgl\version_6.1.2\lvgl\src\lv_objx/lv_page.c **** void lv_page_glue_obj(lv_obj_t * obj, bool glue)
 470:..\..\..\lvgl\version_6.1.2\lvgl\src\lv_objx/lv_page.c **** {
 1679              		.loc 3 470 0
 1680              		.cfi_startproc
 1681              		@ args = 0, pretend = 0, frame = 8
 1682              		@ frame_needed = 1, uses_anonymous_args = 0
 1683 0000 80B5     		push	{r7, lr}
 1684              		.cfi_def_cfa_offset 8
 1685              		.cfi_offset 7, -8
 1686              		.cfi_offset 14, -4
 1687 0002 82B0     		sub	sp, sp, #8
 1688              		.cfi_def_cfa_offset 16
 1689 0004 00AF     		add	r7, sp, #0
 1690              		.cfi_def_cfa_register 7
 1691 0006 7860     		str	r0, [r7, #4]
 1692 0008 0B46     		mov	r3, r1
 1693 000a FB70     		strb	r3, [r7, #3]
 471:..\..\..\lvgl\version_6.1.2\lvgl\src\lv_objx/lv_page.c ****     lv_obj_set_drag_parent(obj, glue);
 1694              		.loc 3 471 0
 1695 000c FB78     		ldrb	r3, [r7, #3]	@ zero_extendqisi2
 1696 000e 1946     		mov	r1, r3
 1697 0010 7868     		ldr	r0, [r7, #4]
 1698 0012 FFF7FEFF 		bl	lv_obj_set_drag_parent
 472:..\..\..\lvgl\version_6.1.2\lvgl\src\lv_objx/lv_page.c ****     lv_obj_set_drag(obj, glue);
 1699              		.loc 3 472 0
 1700 0016 FB78     		ldrb	r3, [r7, #3]	@ zero_extendqisi2
 1701 0018 1946     		mov	r1, r3
 1702 001a 7868     		ldr	r0, [r7, #4]
 1703 001c FFF7FEFF 		bl	lv_obj_set_drag
 473:..\..\..\lvgl\version_6.1.2\lvgl\src\lv_objx/lv_page.c **** }
 1704              		.loc 3 473 0
 1705 0020 00BF     		nop
 1706 0022 0837     		adds	r7, r7, #8
ARM GAS  C:\Users\tmj32\AppData\Local\Temp\ccFKuFvs.s 			page 47


 1707              		.cfi_def_cfa_offset 8
 1708 0024 BD46     		mov	sp, r7
 1709              		.cfi_def_cfa_register 13
 1710              		@ sp needed
 1711 0026 80BD     		pop	{r7, pc}
 1712              		.cfi_endproc
 1713              	.LFE64:
 1714              		.size	lv_page_glue_obj, .-lv_page_glue_obj
 1715              		.section	.text.lv_page_focus,"ax",%progbits
 1716              		.align	2
 1717              		.global	lv_page_focus
 1718              		.thumb
 1719              		.thumb_func
 1720              		.type	lv_page_focus, %function
 1721              	lv_page_focus:
 1722              	.LFB65:
 474:..\..\..\lvgl\version_6.1.2\lvgl\src\lv_objx/lv_page.c **** 
 475:..\..\..\lvgl\version_6.1.2\lvgl\src\lv_objx/lv_page.c **** /**
 476:..\..\..\lvgl\version_6.1.2\lvgl\src\lv_objx/lv_page.c ****  * Focus on an object. It ensures that the object will be visible on the page.
 477:..\..\..\lvgl\version_6.1.2\lvgl\src\lv_objx/lv_page.c ****  * @param page pointer to a page object
 478:..\..\..\lvgl\version_6.1.2\lvgl\src\lv_objx/lv_page.c ****  * @param obj pointer to an object to focus (must be on the page)
 479:..\..\..\lvgl\version_6.1.2\lvgl\src\lv_objx/lv_page.c ****  * @param anim_en LV_ANIM_ON to focus with animation; LV_ANIM_OFF to focus without animation
 480:..\..\..\lvgl\version_6.1.2\lvgl\src\lv_objx/lv_page.c ****  */
 481:..\..\..\lvgl\version_6.1.2\lvgl\src\lv_objx/lv_page.c **** void lv_page_focus(lv_obj_t * page, const lv_obj_t * obj, lv_anim_enable_t anim_en)
 482:..\..\..\lvgl\version_6.1.2\lvgl\src\lv_objx/lv_page.c **** {
 1723              		.loc 3 482 0
 1724              		.cfi_startproc
 1725              		@ args = 0, pretend = 0, frame = 88
 1726              		@ frame_needed = 1, uses_anonymous_args = 0
 1727 0000 80B5     		push	{r7, lr}
 1728              		.cfi_def_cfa_offset 8
 1729              		.cfi_offset 7, -8
 1730              		.cfi_offset 14, -4
 1731 0002 96B0     		sub	sp, sp, #88
 1732              		.cfi_def_cfa_offset 96
 1733 0004 00AF     		add	r7, sp, #0
 1734              		.cfi_def_cfa_register 7
 1735 0006 F860     		str	r0, [r7, #12]
 1736 0008 B960     		str	r1, [r7, #8]
 1737 000a 1346     		mov	r3, r2
 1738 000c FB71     		strb	r3, [r7, #7]
 483:..\..\..\lvgl\version_6.1.2\lvgl\src\lv_objx/lv_page.c ****     lv_page_ext_t * ext = lv_obj_get_ext_attr(page);
 1739              		.loc 3 483 0
 1740 000e F868     		ldr	r0, [r7, #12]
 1741 0010 FFF7FEFF 		bl	lv_obj_get_ext_attr
 1742 0014 3865     		str	r0, [r7, #80]
 484:..\..\..\lvgl\version_6.1.2\lvgl\src\lv_objx/lv_page.c **** 
 485:..\..\..\lvgl\version_6.1.2\lvgl\src\lv_objx/lv_page.c **** #if LV_USE_ANIMATION
 486:..\..\..\lvgl\version_6.1.2\lvgl\src\lv_objx/lv_page.c ****     /* Be sure there is no position changing animation in progress
 487:..\..\..\lvgl\version_6.1.2\lvgl\src\lv_objx/lv_page.c ****      * because it can overide the current changes*/
 488:..\..\..\lvgl\version_6.1.2\lvgl\src\lv_objx/lv_page.c ****     lv_anim_del(page, (lv_anim_exec_xcb_t)lv_obj_set_x);
 1743              		.loc 3 488 0
 1744 0016 9449     		ldr	r1, .L95
 1745 0018 F868     		ldr	r0, [r7, #12]
 1746 001a FFF7FEFF 		bl	lv_anim_del
 489:..\..\..\lvgl\version_6.1.2\lvgl\src\lv_objx/lv_page.c ****     lv_anim_del(page, (lv_anim_exec_xcb_t)lv_obj_set_y);
 1747              		.loc 3 489 0
ARM GAS  C:\Users\tmj32\AppData\Local\Temp\ccFKuFvs.s 			page 48


 1748 001e 9349     		ldr	r1, .L95+4
 1749 0020 F868     		ldr	r0, [r7, #12]
 1750 0022 FFF7FEFF 		bl	lv_anim_del
 490:..\..\..\lvgl\version_6.1.2\lvgl\src\lv_objx/lv_page.c ****     lv_anim_del(ext->scrl, (lv_anim_exec_xcb_t)lv_obj_set_x);
 1751              		.loc 3 490 0
 1752 0026 3B6D     		ldr	r3, [r7, #80]
 1753 0028 5B68     		ldr	r3, [r3, #4]
 1754 002a 8F49     		ldr	r1, .L95
 1755 002c 1846     		mov	r0, r3
 1756 002e FFF7FEFF 		bl	lv_anim_del
 491:..\..\..\lvgl\version_6.1.2\lvgl\src\lv_objx/lv_page.c ****     lv_anim_del(ext->scrl, (lv_anim_exec_xcb_t)lv_obj_set_y);
 1757              		.loc 3 491 0
 1758 0032 3B6D     		ldr	r3, [r7, #80]
 1759 0034 5B68     		ldr	r3, [r3, #4]
 1760 0036 8D49     		ldr	r1, .L95+4
 1761 0038 1846     		mov	r0, r3
 1762 003a FFF7FEFF 		bl	lv_anim_del
 492:..\..\..\lvgl\version_6.1.2\lvgl\src\lv_objx/lv_page.c **** #endif
 493:..\..\..\lvgl\version_6.1.2\lvgl\src\lv_objx/lv_page.c **** 
 494:..\..\..\lvgl\version_6.1.2\lvgl\src\lv_objx/lv_page.c ****     const lv_style_t * style      = lv_page_get_style(page, LV_PAGE_STYLE_BG);
 1763              		.loc 3 494 0
 1764 003e 0021     		movs	r1, #0
 1765 0040 F868     		ldr	r0, [r7, #12]
 1766 0042 FFF7FEFF 		bl	lv_page_get_style
 1767 0046 F864     		str	r0, [r7, #76]
 495:..\..\..\lvgl\version_6.1.2\lvgl\src\lv_objx/lv_page.c ****     const lv_style_t * style_scrl = lv_page_get_style(page, LV_PAGE_STYLE_SCRL);
 1768              		.loc 3 495 0
 1769 0048 0121     		movs	r1, #1
 1770 004a F868     		ldr	r0, [r7, #12]
 1771 004c FFF7FEFF 		bl	lv_page_get_style
 1772 0050 B864     		str	r0, [r7, #72]
 496:..\..\..\lvgl\version_6.1.2\lvgl\src\lv_objx/lv_page.c **** 
 497:..\..\..\lvgl\version_6.1.2\lvgl\src\lv_objx/lv_page.c ****     /*If obj is higher then the page focus where the "error" is smaller*/
 498:..\..\..\lvgl\version_6.1.2\lvgl\src\lv_objx/lv_page.c ****     lv_coord_t obj_y      = obj->coords.y1 - ext->scrl->coords.y1;
 1773              		.loc 3 498 0
 1774 0052 BB68     		ldr	r3, [r7, #8]
 1775 0054 B3F91230 		ldrsh	r3, [r3, #18]
 1776 0058 9AB2     		uxth	r2, r3
 1777 005a 3B6D     		ldr	r3, [r7, #80]
 1778 005c 5B68     		ldr	r3, [r3, #4]
 1779 005e B3F91230 		ldrsh	r3, [r3, #18]
 1780 0062 9BB2     		uxth	r3, r3
 1781 0064 D31A     		subs	r3, r2, r3
 1782 0066 9BB2     		uxth	r3, r3
 1783 0068 A7F84630 		strh	r3, [r7, #70]	@ movhi
 499:..\..\..\lvgl\version_6.1.2\lvgl\src\lv_objx/lv_page.c ****     lv_coord_t obj_h      = lv_obj_get_height(obj);
 1784              		.loc 3 499 0
 1785 006c B868     		ldr	r0, [r7, #8]
 1786 006e FFF7FEFF 		bl	lv_obj_get_height
 1787 0072 0346     		mov	r3, r0
 1788 0074 A7F84430 		strh	r3, [r7, #68]	@ movhi
 500:..\..\..\lvgl\version_6.1.2\lvgl\src\lv_objx/lv_page.c ****     lv_coord_t scrlable_y = lv_obj_get_y(ext->scrl);
 1789              		.loc 3 500 0
 1790 0078 3B6D     		ldr	r3, [r7, #80]
 1791 007a 5B68     		ldr	r3, [r3, #4]
 1792 007c 1846     		mov	r0, r3
 1793 007e FFF7FEFF 		bl	lv_obj_get_y
ARM GAS  C:\Users\tmj32\AppData\Local\Temp\ccFKuFvs.s 			page 49


 1794 0082 0346     		mov	r3, r0
 1795 0084 A7F85630 		strh	r3, [r7, #86]	@ movhi
 501:..\..\..\lvgl\version_6.1.2\lvgl\src\lv_objx/lv_page.c ****     lv_coord_t page_h     = lv_obj_get_height(page);
 1796              		.loc 3 501 0
 1797 0088 F868     		ldr	r0, [r7, #12]
 1798 008a FFF7FEFF 		bl	lv_obj_get_height
 1799 008e 0346     		mov	r3, r0
 1800 0090 A7F84230 		strh	r3, [r7, #66]	@ movhi
 502:..\..\..\lvgl\version_6.1.2\lvgl\src\lv_objx/lv_page.c **** 
 503:..\..\..\lvgl\version_6.1.2\lvgl\src\lv_objx/lv_page.c ****     lv_coord_t top_err = -(scrlable_y + obj_y);
 1801              		.loc 3 503 0
 1802 0094 B7F85620 		ldrh	r2, [r7, #86]
 1803 0098 B7F84630 		ldrh	r3, [r7, #70]
 1804 009c 1344     		add	r3, r3, r2
 1805 009e 9BB2     		uxth	r3, r3
 1806 00a0 5B42     		negs	r3, r3
 1807 00a2 9BB2     		uxth	r3, r3
 1808 00a4 A7F84030 		strh	r3, [r7, #64]	@ movhi
 504:..\..\..\lvgl\version_6.1.2\lvgl\src\lv_objx/lv_page.c ****     lv_coord_t bot_err = scrlable_y + obj_y + obj_h - page_h;
 1809              		.loc 3 504 0
 1810 00a8 B7F85620 		ldrh	r2, [r7, #86]
 1811 00ac B7F84630 		ldrh	r3, [r7, #70]
 1812 00b0 1344     		add	r3, r3, r2
 1813 00b2 9AB2     		uxth	r2, r3
 1814 00b4 B7F84430 		ldrh	r3, [r7, #68]
 1815 00b8 1344     		add	r3, r3, r2
 1816 00ba 9AB2     		uxth	r2, r3
 1817 00bc B7F84230 		ldrh	r3, [r7, #66]
 1818 00c0 D31A     		subs	r3, r2, r3
 1819 00c2 9BB2     		uxth	r3, r3
 1820 00c4 FB87     		strh	r3, [r7, #62]	@ movhi
 505:..\..\..\lvgl\version_6.1.2\lvgl\src\lv_objx/lv_page.c **** 
 506:..\..\..\lvgl\version_6.1.2\lvgl\src\lv_objx/lv_page.c ****     /*Out of the page on the top*/
 507:..\..\..\lvgl\version_6.1.2\lvgl\src\lv_objx/lv_page.c ****     if((obj_h <= page_h && top_err > 0) || (obj_h > page_h && top_err < bot_err)) {
 1821              		.loc 3 507 0
 1822 00c6 B7F94420 		ldrsh	r2, [r7, #68]
 1823 00ca B7F94230 		ldrsh	r3, [r7, #66]
 1824 00ce 9A42     		cmp	r2, r3
 1825 00d0 03DC     		bgt	.L80
 1826              		.loc 3 507 0 is_stmt 0 discriminator 1
 1827 00d2 B7F94030 		ldrsh	r3, [r7, #64]
 1828 00d6 002B     		cmp	r3, #0
 1829 00d8 0BDC     		bgt	.L81
 1830              	.L80:
 1831              		.loc 3 507 0 discriminator 3
 1832 00da B7F94420 		ldrsh	r2, [r7, #68]
 1833 00de B7F94230 		ldrsh	r3, [r7, #66]
 1834 00e2 9A42     		cmp	r2, r3
 1835 00e4 20DD     		ble	.L82
 1836              		.loc 3 507 0 discriminator 4
 1837 00e6 B7F94020 		ldrsh	r2, [r7, #64]
 1838 00ea B7F93E30 		ldrsh	r3, [r7, #62]
 1839 00ee 9A42     		cmp	r2, r3
 1840 00f0 1ADA     		bge	.L82
 1841              	.L81:
 508:..\..\..\lvgl\version_6.1.2\lvgl\src\lv_objx/lv_page.c ****         /*Calculate a new position and let some space above*/
 509:..\..\..\lvgl\version_6.1.2\lvgl\src\lv_objx/lv_page.c ****         scrlable_y = -(obj_y - style_scrl->body.padding.top - style->body.padding.top);
ARM GAS  C:\Users\tmj32\AppData\Local\Temp\ccFKuFvs.s 			page 50


 1842              		.loc 3 509 0 is_stmt 1
 1843 00f2 FB6C     		ldr	r3, [r7, #76]
 1844 00f4 B3F92030 		ldrsh	r3, [r3, #32]
 1845 00f8 9AB2     		uxth	r2, r3
 1846 00fa BB6C     		ldr	r3, [r7, #72]
 1847 00fc B3F92030 		ldrsh	r3, [r3, #32]
 1848 0100 99B2     		uxth	r1, r3
 1849 0102 B7F84630 		ldrh	r3, [r7, #70]
 1850 0106 CB1A     		subs	r3, r1, r3
 1851 0108 9BB2     		uxth	r3, r3
 1852 010a 1344     		add	r3, r3, r2
 1853 010c 9BB2     		uxth	r3, r3
 1854 010e A7F85630 		strh	r3, [r7, #86]	@ movhi
 510:..\..\..\lvgl\version_6.1.2\lvgl\src\lv_objx/lv_page.c ****         scrlable_y += style_scrl->body.padding.top;
 1855              		.loc 3 510 0
 1856 0112 BB6C     		ldr	r3, [r7, #72]
 1857 0114 B3F92030 		ldrsh	r3, [r3, #32]
 1858 0118 9AB2     		uxth	r2, r3
 1859 011a B7F85630 		ldrh	r3, [r7, #86]
 1860 011e 1344     		add	r3, r3, r2
 1861 0120 9BB2     		uxth	r3, r3
 1862 0122 A7F85630 		strh	r3, [r7, #86]	@ movhi
 1863 0126 3DE0     		b	.L83
 1864              	.L82:
 511:..\..\..\lvgl\version_6.1.2\lvgl\src\lv_objx/lv_page.c ****     }
 512:..\..\..\lvgl\version_6.1.2\lvgl\src\lv_objx/lv_page.c ****     /*Out of the page on the bottom*/
 513:..\..\..\lvgl\version_6.1.2\lvgl\src\lv_objx/lv_page.c ****     else if((obj_h <= page_h && bot_err > 0) || (obj_h > page_h && top_err >= bot_err)) {
 1865              		.loc 3 513 0
 1866 0128 B7F94420 		ldrsh	r2, [r7, #68]
 1867 012c B7F94230 		ldrsh	r3, [r7, #66]
 1868 0130 9A42     		cmp	r2, r3
 1869 0132 03DC     		bgt	.L84
 1870              		.loc 3 513 0 is_stmt 0 discriminator 1
 1871 0134 B7F93E30 		ldrsh	r3, [r7, #62]
 1872 0138 002B     		cmp	r3, #0
 1873 013a 0BDC     		bgt	.L85
 1874              	.L84:
 1875              		.loc 3 513 0 discriminator 3
 1876 013c B7F94420 		ldrsh	r2, [r7, #68]
 1877 0140 B7F94230 		ldrsh	r3, [r7, #66]
 1878 0144 9A42     		cmp	r2, r3
 1879 0146 2DDD     		ble	.L83
 1880              		.loc 3 513 0 discriminator 4
 1881 0148 B7F94020 		ldrsh	r2, [r7, #64]
 1882 014c B7F93E30 		ldrsh	r3, [r7, #62]
 1883 0150 9A42     		cmp	r2, r3
 1884 0152 27DB     		blt	.L83
 1885              	.L85:
 514:..\..\..\lvgl\version_6.1.2\lvgl\src\lv_objx/lv_page.c ****         /*Calculate a new position and let some space below*/
 515:..\..\..\lvgl\version_6.1.2\lvgl\src\lv_objx/lv_page.c ****         scrlable_y = -(obj_y + style_scrl->body.padding.bottom + style->body.padding.bottom);
 1886              		.loc 3 515 0 is_stmt 1
 1887 0154 BB6C     		ldr	r3, [r7, #72]
 1888 0156 B3F92230 		ldrsh	r3, [r3, #34]
 1889 015a 9AB2     		uxth	r2, r3
 1890 015c B7F84630 		ldrh	r3, [r7, #70]
 1891 0160 1344     		add	r3, r3, r2
 1892 0162 9AB2     		uxth	r2, r3
ARM GAS  C:\Users\tmj32\AppData\Local\Temp\ccFKuFvs.s 			page 51


 1893 0164 FB6C     		ldr	r3, [r7, #76]
 1894 0166 B3F92230 		ldrsh	r3, [r3, #34]
 1895 016a 9BB2     		uxth	r3, r3
 1896 016c 1344     		add	r3, r3, r2
 1897 016e 9BB2     		uxth	r3, r3
 1898 0170 5B42     		negs	r3, r3
 1899 0172 9BB2     		uxth	r3, r3
 1900 0174 A7F85630 		strh	r3, [r7, #86]	@ movhi
 516:..\..\..\lvgl\version_6.1.2\lvgl\src\lv_objx/lv_page.c ****         scrlable_y -= style_scrl->body.padding.bottom;
 1901              		.loc 3 516 0
 1902 0178 B7F85620 		ldrh	r2, [r7, #86]
 1903 017c BB6C     		ldr	r3, [r7, #72]
 1904 017e B3F92230 		ldrsh	r3, [r3, #34]
 1905 0182 9BB2     		uxth	r3, r3
 1906 0184 D31A     		subs	r3, r2, r3
 1907 0186 9BB2     		uxth	r3, r3
 1908 0188 A7F85630 		strh	r3, [r7, #86]	@ movhi
 517:..\..\..\lvgl\version_6.1.2\lvgl\src\lv_objx/lv_page.c ****         scrlable_y += page_h - obj_h;
 1909              		.loc 3 517 0
 1910 018c B7F84220 		ldrh	r2, [r7, #66]
 1911 0190 B7F84430 		ldrh	r3, [r7, #68]
 1912 0194 D31A     		subs	r3, r2, r3
 1913 0196 9AB2     		uxth	r2, r3
 1914 0198 B7F85630 		ldrh	r3, [r7, #86]
 1915 019c 1344     		add	r3, r3, r2
 1916 019e 9BB2     		uxth	r3, r3
 1917 01a0 A7F85630 		strh	r3, [r7, #86]	@ movhi
 1918              	.L83:
 518:..\..\..\lvgl\version_6.1.2\lvgl\src\lv_objx/lv_page.c ****     }
 519:..\..\..\lvgl\version_6.1.2\lvgl\src\lv_objx/lv_page.c **** 
 520:..\..\..\lvgl\version_6.1.2\lvgl\src\lv_objx/lv_page.c ****     /*If obj is wider then the page focus where the "error" is smaller*/
 521:..\..\..\lvgl\version_6.1.2\lvgl\src\lv_objx/lv_page.c ****     lv_coord_t obj_x      = obj->coords.x1 - ext->scrl->coords.x1;
 1919              		.loc 3 521 0
 1920 01a4 BB68     		ldr	r3, [r7, #8]
 1921 01a6 B3F91030 		ldrsh	r3, [r3, #16]
 1922 01aa 9AB2     		uxth	r2, r3
 1923 01ac 3B6D     		ldr	r3, [r7, #80]
 1924 01ae 5B68     		ldr	r3, [r3, #4]
 1925 01b0 B3F91030 		ldrsh	r3, [r3, #16]
 1926 01b4 9BB2     		uxth	r3, r3
 1927 01b6 D31A     		subs	r3, r2, r3
 1928 01b8 9BB2     		uxth	r3, r3
 1929 01ba BB87     		strh	r3, [r7, #60]	@ movhi
 522:..\..\..\lvgl\version_6.1.2\lvgl\src\lv_objx/lv_page.c ****     lv_coord_t obj_w      = lv_obj_get_width(obj);
 1930              		.loc 3 522 0
 1931 01bc B868     		ldr	r0, [r7, #8]
 1932 01be FFF7FEFF 		bl	lv_obj_get_width
 1933 01c2 0346     		mov	r3, r0
 1934 01c4 7B87     		strh	r3, [r7, #58]	@ movhi
 523:..\..\..\lvgl\version_6.1.2\lvgl\src\lv_objx/lv_page.c ****     lv_coord_t scrlable_x = lv_obj_get_x(ext->scrl);
 1935              		.loc 3 523 0
 1936 01c6 3B6D     		ldr	r3, [r7, #80]
 1937 01c8 5B68     		ldr	r3, [r3, #4]
 1938 01ca 1846     		mov	r0, r3
 1939 01cc FFF7FEFF 		bl	lv_obj_get_x
 1940 01d0 0346     		mov	r3, r0
 1941 01d2 A7F85430 		strh	r3, [r7, #84]	@ movhi
ARM GAS  C:\Users\tmj32\AppData\Local\Temp\ccFKuFvs.s 			page 52


 524:..\..\..\lvgl\version_6.1.2\lvgl\src\lv_objx/lv_page.c ****     lv_coord_t page_w     = lv_obj_get_width(page);
 1942              		.loc 3 524 0
 1943 01d6 F868     		ldr	r0, [r7, #12]
 1944 01d8 FFF7FEFF 		bl	lv_obj_get_width
 1945 01dc 0346     		mov	r3, r0
 1946 01de 3B87     		strh	r3, [r7, #56]	@ movhi
 525:..\..\..\lvgl\version_6.1.2\lvgl\src\lv_objx/lv_page.c **** 
 526:..\..\..\lvgl\version_6.1.2\lvgl\src\lv_objx/lv_page.c ****     lv_coord_t left_err  = -(scrlable_x + obj_x);
 1947              		.loc 3 526 0
 1948 01e0 B7F85420 		ldrh	r2, [r7, #84]
 1949 01e4 BB8F     		ldrh	r3, [r7, #60]
 1950 01e6 1344     		add	r3, r3, r2
 1951 01e8 9BB2     		uxth	r3, r3
 1952 01ea 5B42     		negs	r3, r3
 1953 01ec 9BB2     		uxth	r3, r3
 1954 01ee FB86     		strh	r3, [r7, #54]	@ movhi
 527:..\..\..\lvgl\version_6.1.2\lvgl\src\lv_objx/lv_page.c ****     lv_coord_t right_err = scrlable_x + obj_x + obj_w - page_w;
 1955              		.loc 3 527 0
 1956 01f0 B7F85420 		ldrh	r2, [r7, #84]
 1957 01f4 BB8F     		ldrh	r3, [r7, #60]
 1958 01f6 1344     		add	r3, r3, r2
 1959 01f8 9AB2     		uxth	r2, r3
 1960 01fa 7B8F     		ldrh	r3, [r7, #58]
 1961 01fc 1344     		add	r3, r3, r2
 1962 01fe 9AB2     		uxth	r2, r3
 1963 0200 3B8F     		ldrh	r3, [r7, #56]
 1964 0202 D31A     		subs	r3, r2, r3
 1965 0204 9BB2     		uxth	r3, r3
 1966 0206 BB86     		strh	r3, [r7, #52]	@ movhi
 528:..\..\..\lvgl\version_6.1.2\lvgl\src\lv_objx/lv_page.c **** 
 529:..\..\..\lvgl\version_6.1.2\lvgl\src\lv_objx/lv_page.c ****     /*Out of the page on the left*/
 530:..\..\..\lvgl\version_6.1.2\lvgl\src\lv_objx/lv_page.c ****     if((obj_w <= page_w && left_err > 0) || (obj_w > page_w && left_err < right_err)) {
 1967              		.loc 3 530 0
 1968 0208 B7F93A20 		ldrsh	r2, [r7, #58]
 1969 020c B7F93830 		ldrsh	r3, [r7, #56]
 1970 0210 9A42     		cmp	r2, r3
 1971 0212 03DC     		bgt	.L86
 1972              		.loc 3 530 0 is_stmt 0 discriminator 1
 1973 0214 B7F93630 		ldrsh	r3, [r7, #54]
 1974 0218 002B     		cmp	r3, #0
 1975 021a 0BDC     		bgt	.L87
 1976              	.L86:
 1977              		.loc 3 530 0 discriminator 3
 1978 021c B7F93A20 		ldrsh	r2, [r7, #58]
 1979 0220 B7F93830 		ldrsh	r3, [r7, #56]
 1980 0224 9A42     		cmp	r2, r3
 1981 0226 23DD     		ble	.L88
 1982              		.loc 3 530 0 discriminator 4
 1983 0228 B7F93620 		ldrsh	r2, [r7, #54]
 1984 022c B7F93430 		ldrsh	r3, [r7, #52]
 1985 0230 9A42     		cmp	r2, r3
 1986 0232 1DDA     		bge	.L88
 1987              	.L87:
 531:..\..\..\lvgl\version_6.1.2\lvgl\src\lv_objx/lv_page.c ****         /*Calculate a new position and let some space above*/
 532:..\..\..\lvgl\version_6.1.2\lvgl\src\lv_objx/lv_page.c ****         scrlable_x = -(obj_x - style_scrl->body.padding.left - style->body.padding.left);
 1988              		.loc 3 532 0 is_stmt 1
 1989 0234 FB6C     		ldr	r3, [r7, #76]
ARM GAS  C:\Users\tmj32\AppData\Local\Temp\ccFKuFvs.s 			page 53


 1990 0236 B3F92430 		ldrsh	r3, [r3, #36]
 1991 023a 9AB2     		uxth	r2, r3
 1992 023c BB6C     		ldr	r3, [r7, #72]
 1993 023e B3F92430 		ldrsh	r3, [r3, #36]
 1994 0242 99B2     		uxth	r1, r3
 1995 0244 BB8F     		ldrh	r3, [r7, #60]
 1996 0246 CB1A     		subs	r3, r1, r3
 1997 0248 9BB2     		uxth	r3, r3
 1998 024a 1344     		add	r3, r3, r2
 1999 024c 9BB2     		uxth	r3, r3
 2000 024e A7F85430 		strh	r3, [r7, #84]	@ movhi
 533:..\..\..\lvgl\version_6.1.2\lvgl\src\lv_objx/lv_page.c ****         scrlable_x += style_scrl->body.padding.left;
 2001              		.loc 3 533 0
 2002 0252 BB6C     		ldr	r3, [r7, #72]
 2003 0254 B3F92430 		ldrsh	r3, [r3, #36]
 2004 0258 9AB2     		uxth	r2, r3
 2005 025a B7F85430 		ldrh	r3, [r7, #84]
 2006 025e 1344     		add	r3, r3, r2
 2007 0260 9BB2     		uxth	r3, r3
 2008 0262 A7F85430 		strh	r3, [r7, #84]	@ movhi
 2009 0266 3EE0     		b	.L89
 2010              	.L96:
 2011              		.align	2
 2012              	.L95:
 2013 0268 00000000 		.word	lv_obj_set_x
 2014 026c 00000000 		.word	lv_obj_set_y
 2015              	.L88:
 534:..\..\..\lvgl\version_6.1.2\lvgl\src\lv_objx/lv_page.c ****     }
 535:..\..\..\lvgl\version_6.1.2\lvgl\src\lv_objx/lv_page.c ****     /*Out of the page on the rigth*/
 536:..\..\..\lvgl\version_6.1.2\lvgl\src\lv_objx/lv_page.c ****     else if((obj_w <= page_w && right_err > 0) || (obj_w > page_w && left_err >= right_err)) {
 2016              		.loc 3 536 0
 2017 0270 B7F93A20 		ldrsh	r2, [r7, #58]
 2018 0274 B7F93830 		ldrsh	r3, [r7, #56]
 2019 0278 9A42     		cmp	r2, r3
 2020 027a 03DC     		bgt	.L90
 2021              		.loc 3 536 0 is_stmt 0 discriminator 1
 2022 027c B7F93430 		ldrsh	r3, [r7, #52]
 2023 0280 002B     		cmp	r3, #0
 2024 0282 0BDC     		bgt	.L91
 2025              	.L90:
 2026              		.loc 3 536 0 discriminator 3
 2027 0284 B7F93A20 		ldrsh	r2, [r7, #58]
 2028 0288 B7F93830 		ldrsh	r3, [r7, #56]
 2029 028c 9A42     		cmp	r2, r3
 2030 028e 2ADD     		ble	.L89
 2031              		.loc 3 536 0 discriminator 4
 2032 0290 B7F93620 		ldrsh	r2, [r7, #54]
 2033 0294 B7F93430 		ldrsh	r3, [r7, #52]
 2034 0298 9A42     		cmp	r2, r3
 2035 029a 24DB     		blt	.L89
 2036              	.L91:
 537:..\..\..\lvgl\version_6.1.2\lvgl\src\lv_objx/lv_page.c ****         /*Calculate a new position and let some space below*/
 538:..\..\..\lvgl\version_6.1.2\lvgl\src\lv_objx/lv_page.c ****         scrlable_x = -(obj_x + style_scrl->body.padding.right + style->body.padding.right);
 2037              		.loc 3 538 0 is_stmt 1
 2038 029c BB6C     		ldr	r3, [r7, #72]
 2039 029e B3F92630 		ldrsh	r3, [r3, #38]
 2040 02a2 9AB2     		uxth	r2, r3
ARM GAS  C:\Users\tmj32\AppData\Local\Temp\ccFKuFvs.s 			page 54


 2041 02a4 BB8F     		ldrh	r3, [r7, #60]
 2042 02a6 1344     		add	r3, r3, r2
 2043 02a8 9AB2     		uxth	r2, r3
 2044 02aa FB6C     		ldr	r3, [r7, #76]
 2045 02ac B3F92630 		ldrsh	r3, [r3, #38]
 2046 02b0 9BB2     		uxth	r3, r3
 2047 02b2 1344     		add	r3, r3, r2
 2048 02b4 9BB2     		uxth	r3, r3
 2049 02b6 5B42     		negs	r3, r3
 2050 02b8 9BB2     		uxth	r3, r3
 2051 02ba A7F85430 		strh	r3, [r7, #84]	@ movhi
 539:..\..\..\lvgl\version_6.1.2\lvgl\src\lv_objx/lv_page.c ****         scrlable_x -= style_scrl->body.padding.right;
 2052              		.loc 3 539 0
 2053 02be B7F85420 		ldrh	r2, [r7, #84]
 2054 02c2 BB6C     		ldr	r3, [r7, #72]
 2055 02c4 B3F92630 		ldrsh	r3, [r3, #38]
 2056 02c8 9BB2     		uxth	r3, r3
 2057 02ca D31A     		subs	r3, r2, r3
 2058 02cc 9BB2     		uxth	r3, r3
 2059 02ce A7F85430 		strh	r3, [r7, #84]	@ movhi
 540:..\..\..\lvgl\version_6.1.2\lvgl\src\lv_objx/lv_page.c ****         scrlable_x += page_w - obj_w;
 2060              		.loc 3 540 0
 2061 02d2 3A8F     		ldrh	r2, [r7, #56]
 2062 02d4 7B8F     		ldrh	r3, [r7, #58]
 2063 02d6 D31A     		subs	r3, r2, r3
 2064 02d8 9AB2     		uxth	r2, r3
 2065 02da B7F85430 		ldrh	r3, [r7, #84]
 2066 02de 1344     		add	r3, r3, r2
 2067 02e0 9BB2     		uxth	r3, r3
 2068 02e2 A7F85430 		strh	r3, [r7, #84]	@ movhi
 2069              	.L89:
 541:..\..\..\lvgl\version_6.1.2\lvgl\src\lv_objx/lv_page.c ****     }
 542:..\..\..\lvgl\version_6.1.2\lvgl\src\lv_objx/lv_page.c **** 
 543:..\..\..\lvgl\version_6.1.2\lvgl\src\lv_objx/lv_page.c ****     if(anim_en == LV_ANIM_OFF || lv_page_get_anim_time(page) == 0) {
 2070              		.loc 3 543 0
 2071 02e6 FB79     		ldrb	r3, [r7, #7]	@ zero_extendqisi2
 2072 02e8 002B     		cmp	r3, #0
 2073 02ea 05D0     		beq	.L92
 2074              		.loc 3 543 0 is_stmt 0 discriminator 1
 2075 02ec F868     		ldr	r0, [r7, #12]
 2076 02ee FFF7FEFF 		bl	lv_page_get_anim_time
 2077 02f2 0346     		mov	r3, r0
 2078 02f4 002B     		cmp	r3, #0
 2079 02f6 10D1     		bne	.L93
 2080              	.L92:
 544:..\..\..\lvgl\version_6.1.2\lvgl\src\lv_objx/lv_page.c ****         lv_obj_set_y(ext->scrl, scrlable_y);
 2081              		.loc 3 544 0 is_stmt 1
 2082 02f8 3B6D     		ldr	r3, [r7, #80]
 2083 02fa 5B68     		ldr	r3, [r3, #4]
 2084 02fc B7F95620 		ldrsh	r2, [r7, #86]
 2085 0300 1146     		mov	r1, r2
 2086 0302 1846     		mov	r0, r3
 2087 0304 FFF7FEFF 		bl	lv_obj_set_y
 545:..\..\..\lvgl\version_6.1.2\lvgl\src\lv_objx/lv_page.c ****         lv_obj_set_x(ext->scrl, scrlable_x);
 2088              		.loc 3 545 0
 2089 0308 3B6D     		ldr	r3, [r7, #80]
 2090 030a 5B68     		ldr	r3, [r3, #4]
ARM GAS  C:\Users\tmj32\AppData\Local\Temp\ccFKuFvs.s 			page 55


 2091 030c B7F95420 		ldrsh	r2, [r7, #84]
 2092 0310 1146     		mov	r1, r2
 2093 0312 1846     		mov	r0, r3
 2094 0314 FFF7FEFF 		bl	lv_obj_set_x
 2095 0318 3BE0     		b	.L94
 2096              	.L93:
 2097              	.LBB4:
 546:..\..\..\lvgl\version_6.1.2\lvgl\src\lv_objx/lv_page.c ****     } else {
 547:..\..\..\lvgl\version_6.1.2\lvgl\src\lv_objx/lv_page.c **** #if LV_USE_ANIMATION
 548:..\..\..\lvgl\version_6.1.2\lvgl\src\lv_objx/lv_page.c ****         lv_anim_t a;
 549:..\..\..\lvgl\version_6.1.2\lvgl\src\lv_objx/lv_page.c ****         a.act_time = 0;
 2098              		.loc 3 549 0
 2099 031a 0023     		movs	r3, #0
 2100 031c 7B85     		strh	r3, [r7, #42]	@ movhi
 550:..\..\..\lvgl\version_6.1.2\lvgl\src\lv_objx/lv_page.c ****         a.start    = lv_obj_get_y(ext->scrl);
 2101              		.loc 3 550 0
 2102 031e 3B6D     		ldr	r3, [r7, #80]
 2103 0320 5B68     		ldr	r3, [r3, #4]
 2104 0322 1846     		mov	r0, r3
 2105 0324 FFF7FEFF 		bl	lv_obj_get_y
 2106 0328 0346     		mov	r3, r0
 2107 032a 3B62     		str	r3, [r7, #32]
 551:..\..\..\lvgl\version_6.1.2\lvgl\src\lv_objx/lv_page.c ****         a.end      = scrlable_y;
 2108              		.loc 3 551 0
 2109 032c B7F95630 		ldrsh	r3, [r7, #86]
 2110 0330 7B62     		str	r3, [r7, #36]
 552:..\..\..\lvgl\version_6.1.2\lvgl\src\lv_objx/lv_page.c ****         a.time     = lv_page_get_anim_time(page);
 2111              		.loc 3 552 0
 2112 0332 F868     		ldr	r0, [r7, #12]
 2113 0334 FFF7FEFF 		bl	lv_page_get_anim_time
 2114 0338 0346     		mov	r3, r0
 2115 033a 3B85     		strh	r3, [r7, #40]	@ movhi
 553:..\..\..\lvgl\version_6.1.2\lvgl\src\lv_objx/lv_page.c ****         a.ready_cb = NULL;
 2116              		.loc 3 553 0
 2117 033c 0023     		movs	r3, #0
 2118 033e FB61     		str	r3, [r7, #28]
 554:..\..\..\lvgl\version_6.1.2\lvgl\src\lv_objx/lv_page.c ****         a.playback = 0;
 2119              		.loc 3 554 0
 2120 0340 97F83030 		ldrb	r3, [r7, #48]
 2121 0344 6FF30003 		bfc	r3, #0, #1
 2122 0348 87F83030 		strb	r3, [r7, #48]
 555:..\..\..\lvgl\version_6.1.2\lvgl\src\lv_objx/lv_page.c ****         a.repeat   = 0;
 2123              		.loc 3 555 0
 2124 034c 97F83030 		ldrb	r3, [r7, #48]
 2125 0350 6FF34103 		bfc	r3, #1, #1
 2126 0354 87F83030 		strb	r3, [r7, #48]
 556:..\..\..\lvgl\version_6.1.2\lvgl\src\lv_objx/lv_page.c ****         a.var      = ext->scrl;
 2127              		.loc 3 556 0
 2128 0358 3B6D     		ldr	r3, [r7, #80]
 2129 035a 5B68     		ldr	r3, [r3, #4]
 2130 035c 3B61     		str	r3, [r7, #16]
 557:..\..\..\lvgl\version_6.1.2\lvgl\src\lv_objx/lv_page.c ****         a.path_cb  = lv_anim_path_linear;
 2131              		.loc 3 557 0
 2132 035e 0F4B     		ldr	r3, .L97
 2133 0360 BB61     		str	r3, [r7, #24]
 558:..\..\..\lvgl\version_6.1.2\lvgl\src\lv_objx/lv_page.c ****         a.exec_cb  = (lv_anim_exec_xcb_t)lv_obj_set_y;
 2134              		.loc 3 558 0
ARM GAS  C:\Users\tmj32\AppData\Local\Temp\ccFKuFvs.s 			page 56


 2135 0362 0F4B     		ldr	r3, .L97+4
 2136 0364 7B61     		str	r3, [r7, #20]
 559:..\..\..\lvgl\version_6.1.2\lvgl\src\lv_objx/lv_page.c ****         lv_anim_create(&a);
 2137              		.loc 3 559 0
 2138 0366 07F11003 		add	r3, r7, #16
 2139 036a 1846     		mov	r0, r3
 2140 036c FFF7FEFF 		bl	lv_anim_create
 560:..\..\..\lvgl\version_6.1.2\lvgl\src\lv_objx/lv_page.c **** 
 561:..\..\..\lvgl\version_6.1.2\lvgl\src\lv_objx/lv_page.c ****         a.start   = lv_obj_get_x(ext->scrl);
 2141              		.loc 3 561 0
 2142 0370 3B6D     		ldr	r3, [r7, #80]
 2143 0372 5B68     		ldr	r3, [r3, #4]
 2144 0374 1846     		mov	r0, r3
 2145 0376 FFF7FEFF 		bl	lv_obj_get_x
 2146 037a 0346     		mov	r3, r0
 2147 037c 3B62     		str	r3, [r7, #32]
 562:..\..\..\lvgl\version_6.1.2\lvgl\src\lv_objx/lv_page.c ****         a.end     = scrlable_x;
 2148              		.loc 3 562 0
 2149 037e B7F95430 		ldrsh	r3, [r7, #84]
 2150 0382 7B62     		str	r3, [r7, #36]
 563:..\..\..\lvgl\version_6.1.2\lvgl\src\lv_objx/lv_page.c ****         a.exec_cb = (lv_anim_exec_xcb_t)lv_obj_set_x;
 2151              		.loc 3 563 0
 2152 0384 074B     		ldr	r3, .L97+8
 2153 0386 7B61     		str	r3, [r7, #20]
 564:..\..\..\lvgl\version_6.1.2\lvgl\src\lv_objx/lv_page.c ****         lv_anim_create(&a);
 2154              		.loc 3 564 0
 2155 0388 07F11003 		add	r3, r7, #16
 2156 038c 1846     		mov	r0, r3
 2157 038e FFF7FEFF 		bl	lv_anim_create
 2158              	.L94:
 2159              	.LBE4:
 565:..\..\..\lvgl\version_6.1.2\lvgl\src\lv_objx/lv_page.c **** #endif
 566:..\..\..\lvgl\version_6.1.2\lvgl\src\lv_objx/lv_page.c ****     }
 567:..\..\..\lvgl\version_6.1.2\lvgl\src\lv_objx/lv_page.c **** }
 2160              		.loc 3 567 0
 2161 0392 00BF     		nop
 2162 0394 5837     		adds	r7, r7, #88
 2163              		.cfi_def_cfa_offset 8
 2164 0396 BD46     		mov	sp, r7
 2165              		.cfi_def_cfa_register 13
 2166              		@ sp needed
 2167 0398 80BD     		pop	{r7, pc}
 2168              	.L98:
 2169 039a 00BF     		.align	2
 2170              	.L97:
 2171 039c 00000000 		.word	lv_anim_path_linear
 2172 03a0 00000000 		.word	lv_obj_set_y
 2173 03a4 00000000 		.word	lv_obj_set_x
 2174              		.cfi_endproc
 2175              	.LFE65:
 2176              		.size	lv_page_focus, .-lv_page_focus
 2177              		.section	.text.lv_page_scroll_hor,"ax",%progbits
 2178              		.align	2
 2179              		.global	lv_page_scroll_hor
 2180              		.thumb
 2181              		.thumb_func
 2182              		.type	lv_page_scroll_hor, %function
ARM GAS  C:\Users\tmj32\AppData\Local\Temp\ccFKuFvs.s 			page 57


 2183              	lv_page_scroll_hor:
 2184              	.LFB66:
 568:..\..\..\lvgl\version_6.1.2\lvgl\src\lv_objx/lv_page.c **** 
 569:..\..\..\lvgl\version_6.1.2\lvgl\src\lv_objx/lv_page.c **** /**
 570:..\..\..\lvgl\version_6.1.2\lvgl\src\lv_objx/lv_page.c ****  * Scroll the page horizontally
 571:..\..\..\lvgl\version_6.1.2\lvgl\src\lv_objx/lv_page.c ****  * @param page pointer to a page object
 572:..\..\..\lvgl\version_6.1.2\lvgl\src\lv_objx/lv_page.c ****  * @param dist the distance to scroll (< 0: scroll right; > 0 scroll left)
 573:..\..\..\lvgl\version_6.1.2\lvgl\src\lv_objx/lv_page.c ****  */
 574:..\..\..\lvgl\version_6.1.2\lvgl\src\lv_objx/lv_page.c **** void lv_page_scroll_hor(lv_obj_t * page, lv_coord_t dist)
 575:..\..\..\lvgl\version_6.1.2\lvgl\src\lv_objx/lv_page.c **** {
 2185              		.loc 3 575 0
 2186              		.cfi_startproc
 2187              		@ args = 0, pretend = 0, frame = 48
 2188              		@ frame_needed = 1, uses_anonymous_args = 0
 2189 0000 80B5     		push	{r7, lr}
 2190              		.cfi_def_cfa_offset 8
 2191              		.cfi_offset 7, -8
 2192              		.cfi_offset 14, -4
 2193 0002 8CB0     		sub	sp, sp, #48
 2194              		.cfi_def_cfa_offset 56
 2195 0004 00AF     		add	r7, sp, #0
 2196              		.cfi_def_cfa_register 7
 2197 0006 7860     		str	r0, [r7, #4]
 2198 0008 0B46     		mov	r3, r1
 2199 000a 7B80     		strh	r3, [r7, #2]	@ movhi
 576:..\..\..\lvgl\version_6.1.2\lvgl\src\lv_objx/lv_page.c ****     lv_obj_t * scrl = lv_page_get_scrl(page);
 2200              		.loc 3 576 0
 2201 000c 7868     		ldr	r0, [r7, #4]
 2202 000e FFF7FEFF 		bl	lv_page_get_scrl
 2203 0012 F862     		str	r0, [r7, #44]
 577:..\..\..\lvgl\version_6.1.2\lvgl\src\lv_objx/lv_page.c **** 
 578:..\..\..\lvgl\version_6.1.2\lvgl\src\lv_objx/lv_page.c **** #if LV_USE_ANIMATION
 579:..\..\..\lvgl\version_6.1.2\lvgl\src\lv_objx/lv_page.c ****     lv_anim_t a;
 580:..\..\..\lvgl\version_6.1.2\lvgl\src\lv_objx/lv_page.c ****     a.var            = scrl;
 2204              		.loc 3 580 0
 2205 0014 FB6A     		ldr	r3, [r7, #44]
 2206 0016 BB60     		str	r3, [r7, #8]
 581:..\..\..\lvgl\version_6.1.2\lvgl\src\lv_objx/lv_page.c ****     a.start          = lv_obj_get_x(scrl);
 2207              		.loc 3 581 0
 2208 0018 F86A     		ldr	r0, [r7, #44]
 2209 001a FFF7FEFF 		bl	lv_obj_get_x
 2210 001e 0346     		mov	r3, r0
 2211 0020 BB61     		str	r3, [r7, #24]
 582:..\..\..\lvgl\version_6.1.2\lvgl\src\lv_objx/lv_page.c ****     a.end            = a.start + dist;
 2212              		.loc 3 582 0
 2213 0022 BA69     		ldr	r2, [r7, #24]
 2214 0024 B7F90230 		ldrsh	r3, [r7, #2]
 2215 0028 1344     		add	r3, r3, r2
 2216 002a FB61     		str	r3, [r7, #28]
 583:..\..\..\lvgl\version_6.1.2\lvgl\src\lv_objx/lv_page.c ****     a.exec_cb        = (lv_anim_exec_xcb_t)lv_obj_set_x;
 2217              		.loc 3 583 0
 2218 002c 114B     		ldr	r3, .L100
 2219 002e FB60     		str	r3, [r7, #12]
 584:..\..\..\lvgl\version_6.1.2\lvgl\src\lv_objx/lv_page.c ****     a.path_cb        = lv_anim_path_linear;
 2220              		.loc 3 584 0
 2221 0030 114B     		ldr	r3, .L100+4
 2222 0032 3B61     		str	r3, [r7, #16]
ARM GAS  C:\Users\tmj32\AppData\Local\Temp\ccFKuFvs.s 			page 58


 585:..\..\..\lvgl\version_6.1.2\lvgl\src\lv_objx/lv_page.c ****     a.ready_cb       = NULL;
 2223              		.loc 3 585 0
 2224 0034 0023     		movs	r3, #0
 2225 0036 7B61     		str	r3, [r7, #20]
 586:..\..\..\lvgl\version_6.1.2\lvgl\src\lv_objx/lv_page.c ****     a.act_time       = 0;
 2226              		.loc 3 586 0
 2227 0038 0023     		movs	r3, #0
 2228 003a 7B84     		strh	r3, [r7, #34]	@ movhi
 587:..\..\..\lvgl\version_6.1.2\lvgl\src\lv_objx/lv_page.c ****     a.time           = LV_PAGE_SCROLL_ANIM_TIME;
 2229              		.loc 3 587 0
 2230 003c C823     		movs	r3, #200
 2231 003e 3B84     		strh	r3, [r7, #32]	@ movhi
 588:..\..\..\lvgl\version_6.1.2\lvgl\src\lv_objx/lv_page.c ****     a.playback       = 0;
 2232              		.loc 3 588 0
 2233 0040 97F82830 		ldrb	r3, [r7, #40]
 2234 0044 6FF30003 		bfc	r3, #0, #1
 2235 0048 87F82830 		strb	r3, [r7, #40]
 589:..\..\..\lvgl\version_6.1.2\lvgl\src\lv_objx/lv_page.c ****     a.playback_pause = 0;
 2236              		.loc 3 589 0
 2237 004c 0023     		movs	r3, #0
 2238 004e BB84     		strh	r3, [r7, #36]	@ movhi
 590:..\..\..\lvgl\version_6.1.2\lvgl\src\lv_objx/lv_page.c ****     a.repeat         = 0;
 2239              		.loc 3 590 0
 2240 0050 97F82830 		ldrb	r3, [r7, #40]
 2241 0054 6FF34103 		bfc	r3, #1, #1
 2242 0058 87F82830 		strb	r3, [r7, #40]
 591:..\..\..\lvgl\version_6.1.2\lvgl\src\lv_objx/lv_page.c ****     a.repeat_pause   = 0;
 2243              		.loc 3 591 0
 2244 005c 0023     		movs	r3, #0
 2245 005e FB84     		strh	r3, [r7, #38]	@ movhi
 592:..\..\..\lvgl\version_6.1.2\lvgl\src\lv_objx/lv_page.c ****     lv_anim_create(&a);
 2246              		.loc 3 592 0
 2247 0060 07F10803 		add	r3, r7, #8
 2248 0064 1846     		mov	r0, r3
 2249 0066 FFF7FEFF 		bl	lv_anim_create
 593:..\..\..\lvgl\version_6.1.2\lvgl\src\lv_objx/lv_page.c **** #else
 594:..\..\..\lvgl\version_6.1.2\lvgl\src\lv_objx/lv_page.c ****     lv_obj_set_x(scrl, lv_obj_get_x(scrl) + dist);
 595:..\..\..\lvgl\version_6.1.2\lvgl\src\lv_objx/lv_page.c **** #endif
 596:..\..\..\lvgl\version_6.1.2\lvgl\src\lv_objx/lv_page.c **** }
 2250              		.loc 3 596 0
 2251 006a 00BF     		nop
 2252 006c 3037     		adds	r7, r7, #48
 2253              		.cfi_def_cfa_offset 8
 2254 006e BD46     		mov	sp, r7
 2255              		.cfi_def_cfa_register 13
 2256              		@ sp needed
 2257 0070 80BD     		pop	{r7, pc}
 2258              	.L101:
 2259 0072 00BF     		.align	2
 2260              	.L100:
 2261 0074 00000000 		.word	lv_obj_set_x
 2262 0078 00000000 		.word	lv_anim_path_linear
 2263              		.cfi_endproc
 2264              	.LFE66:
 2265              		.size	lv_page_scroll_hor, .-lv_page_scroll_hor
 2266              		.section	.text.lv_page_scroll_ver,"ax",%progbits
 2267              		.align	2
ARM GAS  C:\Users\tmj32\AppData\Local\Temp\ccFKuFvs.s 			page 59


 2268              		.global	lv_page_scroll_ver
 2269              		.thumb
 2270              		.thumb_func
 2271              		.type	lv_page_scroll_ver, %function
 2272              	lv_page_scroll_ver:
 2273              	.LFB67:
 597:..\..\..\lvgl\version_6.1.2\lvgl\src\lv_objx/lv_page.c **** 
 598:..\..\..\lvgl\version_6.1.2\lvgl\src\lv_objx/lv_page.c **** /**
 599:..\..\..\lvgl\version_6.1.2\lvgl\src\lv_objx/lv_page.c ****  * Scroll the page vertically
 600:..\..\..\lvgl\version_6.1.2\lvgl\src\lv_objx/lv_page.c ****  * @param page pointer to a page object
 601:..\..\..\lvgl\version_6.1.2\lvgl\src\lv_objx/lv_page.c ****  * @param dist the distance to scroll (< 0: scroll down; > 0 scroll up)
 602:..\..\..\lvgl\version_6.1.2\lvgl\src\lv_objx/lv_page.c ****  */
 603:..\..\..\lvgl\version_6.1.2\lvgl\src\lv_objx/lv_page.c **** void lv_page_scroll_ver(lv_obj_t * page, lv_coord_t dist)
 604:..\..\..\lvgl\version_6.1.2\lvgl\src\lv_objx/lv_page.c **** {
 2274              		.loc 3 604 0
 2275              		.cfi_startproc
 2276              		@ args = 0, pretend = 0, frame = 48
 2277              		@ frame_needed = 1, uses_anonymous_args = 0
 2278 0000 80B5     		push	{r7, lr}
 2279              		.cfi_def_cfa_offset 8
 2280              		.cfi_offset 7, -8
 2281              		.cfi_offset 14, -4
 2282 0002 8CB0     		sub	sp, sp, #48
 2283              		.cfi_def_cfa_offset 56
 2284 0004 00AF     		add	r7, sp, #0
 2285              		.cfi_def_cfa_register 7
 2286 0006 7860     		str	r0, [r7, #4]
 2287 0008 0B46     		mov	r3, r1
 2288 000a 7B80     		strh	r3, [r7, #2]	@ movhi
 605:..\..\..\lvgl\version_6.1.2\lvgl\src\lv_objx/lv_page.c ****     lv_obj_t * scrl = lv_page_get_scrl(page);
 2289              		.loc 3 605 0
 2290 000c 7868     		ldr	r0, [r7, #4]
 2291 000e FFF7FEFF 		bl	lv_page_get_scrl
 2292 0012 F862     		str	r0, [r7, #44]
 606:..\..\..\lvgl\version_6.1.2\lvgl\src\lv_objx/lv_page.c **** 
 607:..\..\..\lvgl\version_6.1.2\lvgl\src\lv_objx/lv_page.c **** #if LV_USE_ANIMATION
 608:..\..\..\lvgl\version_6.1.2\lvgl\src\lv_objx/lv_page.c ****     lv_anim_t a;
 609:..\..\..\lvgl\version_6.1.2\lvgl\src\lv_objx/lv_page.c ****     a.var            = scrl;
 2293              		.loc 3 609 0
 2294 0014 FB6A     		ldr	r3, [r7, #44]
 2295 0016 BB60     		str	r3, [r7, #8]
 610:..\..\..\lvgl\version_6.1.2\lvgl\src\lv_objx/lv_page.c ****     a.start          = lv_obj_get_y(scrl);
 2296              		.loc 3 610 0
 2297 0018 F86A     		ldr	r0, [r7, #44]
 2298 001a FFF7FEFF 		bl	lv_obj_get_y
 2299 001e 0346     		mov	r3, r0
 2300 0020 BB61     		str	r3, [r7, #24]
 611:..\..\..\lvgl\version_6.1.2\lvgl\src\lv_objx/lv_page.c ****     a.end            = a.start + dist;
 2301              		.loc 3 611 0
 2302 0022 BA69     		ldr	r2, [r7, #24]
 2303 0024 B7F90230 		ldrsh	r3, [r7, #2]
 2304 0028 1344     		add	r3, r3, r2
 2305 002a FB61     		str	r3, [r7, #28]
 612:..\..\..\lvgl\version_6.1.2\lvgl\src\lv_objx/lv_page.c ****     a.exec_cb        = (lv_anim_exec_xcb_t)lv_obj_set_y;
 2306              		.loc 3 612 0
 2307 002c 114B     		ldr	r3, .L103
 2308 002e FB60     		str	r3, [r7, #12]
ARM GAS  C:\Users\tmj32\AppData\Local\Temp\ccFKuFvs.s 			page 60


 613:..\..\..\lvgl\version_6.1.2\lvgl\src\lv_objx/lv_page.c ****     a.path_cb        = lv_anim_path_linear;
 2309              		.loc 3 613 0
 2310 0030 114B     		ldr	r3, .L103+4
 2311 0032 3B61     		str	r3, [r7, #16]
 614:..\..\..\lvgl\version_6.1.2\lvgl\src\lv_objx/lv_page.c ****     a.ready_cb       = NULL;
 2312              		.loc 3 614 0
 2313 0034 0023     		movs	r3, #0
 2314 0036 7B61     		str	r3, [r7, #20]
 615:..\..\..\lvgl\version_6.1.2\lvgl\src\lv_objx/lv_page.c ****     a.act_time       = 0;
 2315              		.loc 3 615 0
 2316 0038 0023     		movs	r3, #0
 2317 003a 7B84     		strh	r3, [r7, #34]	@ movhi
 616:..\..\..\lvgl\version_6.1.2\lvgl\src\lv_objx/lv_page.c ****     a.time           = LV_PAGE_SCROLL_ANIM_TIME;
 2318              		.loc 3 616 0
 2319 003c C823     		movs	r3, #200
 2320 003e 3B84     		strh	r3, [r7, #32]	@ movhi
 617:..\..\..\lvgl\version_6.1.2\lvgl\src\lv_objx/lv_page.c ****     a.playback       = 0;
 2321              		.loc 3 617 0
 2322 0040 97F82830 		ldrb	r3, [r7, #40]
 2323 0044 6FF30003 		bfc	r3, #0, #1
 2324 0048 87F82830 		strb	r3, [r7, #40]
 618:..\..\..\lvgl\version_6.1.2\lvgl\src\lv_objx/lv_page.c ****     a.playback_pause = 0;
 2325              		.loc 3 618 0
 2326 004c 0023     		movs	r3, #0
 2327 004e BB84     		strh	r3, [r7, #36]	@ movhi
 619:..\..\..\lvgl\version_6.1.2\lvgl\src\lv_objx/lv_page.c ****     a.repeat         = 0;
 2328              		.loc 3 619 0
 2329 0050 97F82830 		ldrb	r3, [r7, #40]
 2330 0054 6FF34103 		bfc	r3, #1, #1
 2331 0058 87F82830 		strb	r3, [r7, #40]
 620:..\..\..\lvgl\version_6.1.2\lvgl\src\lv_objx/lv_page.c ****     a.repeat_pause   = 0;
 2332              		.loc 3 620 0
 2333 005c 0023     		movs	r3, #0
 2334 005e FB84     		strh	r3, [r7, #38]	@ movhi
 621:..\..\..\lvgl\version_6.1.2\lvgl\src\lv_objx/lv_page.c ****     lv_anim_create(&a);
 2335              		.loc 3 621 0
 2336 0060 07F10803 		add	r3, r7, #8
 2337 0064 1846     		mov	r0, r3
 2338 0066 FFF7FEFF 		bl	lv_anim_create
 622:..\..\..\lvgl\version_6.1.2\lvgl\src\lv_objx/lv_page.c **** #else
 623:..\..\..\lvgl\version_6.1.2\lvgl\src\lv_objx/lv_page.c ****     lv_obj_set_y(scrl, lv_obj_get_y(scrl) + dist);
 624:..\..\..\lvgl\version_6.1.2\lvgl\src\lv_objx/lv_page.c **** #endif
 625:..\..\..\lvgl\version_6.1.2\lvgl\src\lv_objx/lv_page.c **** }
 2339              		.loc 3 625 0
 2340 006a 00BF     		nop
 2341 006c 3037     		adds	r7, r7, #48
 2342              		.cfi_def_cfa_offset 8
 2343 006e BD46     		mov	sp, r7
 2344              		.cfi_def_cfa_register 13
 2345              		@ sp needed
 2346 0070 80BD     		pop	{r7, pc}
 2347              	.L104:
 2348 0072 00BF     		.align	2
 2349              	.L103:
 2350 0074 00000000 		.word	lv_obj_set_y
 2351 0078 00000000 		.word	lv_anim_path_linear
 2352              		.cfi_endproc
ARM GAS  C:\Users\tmj32\AppData\Local\Temp\ccFKuFvs.s 			page 61


 2353              	.LFE67:
 2354              		.size	lv_page_scroll_ver, .-lv_page_scroll_ver
 2355              		.section	.text.lv_page_start_edge_flash,"ax",%progbits
 2356              		.align	2
 2357              		.global	lv_page_start_edge_flash
 2358              		.thumb
 2359              		.thumb_func
 2360              		.type	lv_page_start_edge_flash, %function
 2361              	lv_page_start_edge_flash:
 2362              	.LFB68:
 626:..\..\..\lvgl\version_6.1.2\lvgl\src\lv_objx/lv_page.c **** 
 627:..\..\..\lvgl\version_6.1.2\lvgl\src\lv_objx/lv_page.c **** /**
 628:..\..\..\lvgl\version_6.1.2\lvgl\src\lv_objx/lv_page.c ****  * Not intended to use directly by the user but by other object types internally.
 629:..\..\..\lvgl\version_6.1.2\lvgl\src\lv_objx/lv_page.c ****  * Start an edge flash animation. Exactly one `ext->edge_flash.xxx_ip` should be set
 630:..\..\..\lvgl\version_6.1.2\lvgl\src\lv_objx/lv_page.c ****  * @param page
 631:..\..\..\lvgl\version_6.1.2\lvgl\src\lv_objx/lv_page.c ****  */
 632:..\..\..\lvgl\version_6.1.2\lvgl\src\lv_objx/lv_page.c **** void lv_page_start_edge_flash(lv_obj_t * page)
 633:..\..\..\lvgl\version_6.1.2\lvgl\src\lv_objx/lv_page.c **** {
 2363              		.loc 3 633 0
 2364              		.cfi_startproc
 2365              		@ args = 0, pretend = 0, frame = 48
 2366              		@ frame_needed = 1, uses_anonymous_args = 0
 2367 0000 80B5     		push	{r7, lr}
 2368              		.cfi_def_cfa_offset 8
 2369              		.cfi_offset 7, -8
 2370              		.cfi_offset 14, -4
 2371 0002 8CB0     		sub	sp, sp, #48
 2372              		.cfi_def_cfa_offset 56
 2373 0004 00AF     		add	r7, sp, #0
 2374              		.cfi_def_cfa_register 7
 2375 0006 7860     		str	r0, [r7, #4]
 634:..\..\..\lvgl\version_6.1.2\lvgl\src\lv_objx/lv_page.c **** #if LV_USE_ANIMATION
 635:..\..\..\lvgl\version_6.1.2\lvgl\src\lv_objx/lv_page.c ****     lv_page_ext_t * ext = lv_obj_get_ext_attr(page);
 2376              		.loc 3 635 0
 2377 0008 7868     		ldr	r0, [r7, #4]
 2378 000a FFF7FEFF 		bl	lv_obj_get_ext_attr
 2379 000e F862     		str	r0, [r7, #44]
 636:..\..\..\lvgl\version_6.1.2\lvgl\src\lv_objx/lv_page.c ****     if(ext->edge_flash.enabled) {
 2380              		.loc 3 636 0
 2381 0010 FB6A     		ldr	r3, [r7, #44]
 2382 0012 93F82830 		ldrb	r3, [r3, #40]	@ zero_extendqisi2
 2383 0016 03F00103 		and	r3, r3, #1
 2384 001a DBB2     		uxtb	r3, r3
 2385 001c 002B     		cmp	r3, #0
 2386 001e 26D0     		beq	.L107
 2387              	.LBB5:
 637:..\..\..\lvgl\version_6.1.2\lvgl\src\lv_objx/lv_page.c ****         lv_anim_t a;
 638:..\..\..\lvgl\version_6.1.2\lvgl\src\lv_objx/lv_page.c ****         a.var            = page;
 2388              		.loc 3 638 0
 2389 0020 7B68     		ldr	r3, [r7, #4]
 2390 0022 BB60     		str	r3, [r7, #8]
 639:..\..\..\lvgl\version_6.1.2\lvgl\src\lv_objx/lv_page.c ****         a.start          = 0;
 2391              		.loc 3 639 0
 2392 0024 0023     		movs	r3, #0
 2393 0026 BB61     		str	r3, [r7, #24]
 640:..\..\..\lvgl\version_6.1.2\lvgl\src\lv_objx/lv_page.c ****         a.end            = LV_PAGE_END_FLASH_SIZE;
 2394              		.loc 3 640 0
ARM GAS  C:\Users\tmj32\AppData\Local\Temp\ccFKuFvs.s 			page 62


 2395 0028 2523     		movs	r3, #37
 2396 002a FB61     		str	r3, [r7, #28]
 641:..\..\..\lvgl\version_6.1.2\lvgl\src\lv_objx/lv_page.c ****         a.exec_cb        = (lv_anim_exec_xcb_t)edge_flash_anim;
 2397              		.loc 3 641 0
 2398 002c 124B     		ldr	r3, .L108
 2399 002e FB60     		str	r3, [r7, #12]
 642:..\..\..\lvgl\version_6.1.2\lvgl\src\lv_objx/lv_page.c ****         a.path_cb        = lv_anim_path_linear;
 2400              		.loc 3 642 0
 2401 0030 124B     		ldr	r3, .L108+4
 2402 0032 3B61     		str	r3, [r7, #16]
 643:..\..\..\lvgl\version_6.1.2\lvgl\src\lv_objx/lv_page.c ****         a.ready_cb       = edge_flash_anim_end;
 2403              		.loc 3 643 0
 2404 0034 124B     		ldr	r3, .L108+8
 2405 0036 7B61     		str	r3, [r7, #20]
 644:..\..\..\lvgl\version_6.1.2\lvgl\src\lv_objx/lv_page.c ****         a.act_time       = 0;
 2406              		.loc 3 644 0
 2407 0038 0023     		movs	r3, #0
 2408 003a 7B84     		strh	r3, [r7, #34]	@ movhi
 645:..\..\..\lvgl\version_6.1.2\lvgl\src\lv_objx/lv_page.c ****         a.time           = LV_PAGE_END_ANIM_TIME;
 2409              		.loc 3 645 0
 2410 003c 4FF49673 		mov	r3, #300
 2411 0040 3B84     		strh	r3, [r7, #32]	@ movhi
 646:..\..\..\lvgl\version_6.1.2\lvgl\src\lv_objx/lv_page.c ****         a.playback       = 1;
 2412              		.loc 3 646 0
 2413 0042 97F82830 		ldrb	r3, [r7, #40]
 2414 0046 43F00103 		orr	r3, r3, #1
 2415 004a 87F82830 		strb	r3, [r7, #40]
 647:..\..\..\lvgl\version_6.1.2\lvgl\src\lv_objx/lv_page.c ****         a.playback_pause = LV_PAGE_END_ANIM_WAIT_TIME;
 2416              		.loc 3 647 0
 2417 004e 4FF49673 		mov	r3, #300
 2418 0052 BB84     		strh	r3, [r7, #36]	@ movhi
 648:..\..\..\lvgl\version_6.1.2\lvgl\src\lv_objx/lv_page.c ****         a.repeat         = 0;
 2419              		.loc 3 648 0
 2420 0054 97F82830 		ldrb	r3, [r7, #40]
 2421 0058 6FF34103 		bfc	r3, #1, #1
 2422 005c 87F82830 		strb	r3, [r7, #40]
 649:..\..\..\lvgl\version_6.1.2\lvgl\src\lv_objx/lv_page.c ****         a.repeat_pause   = 0;
 2423              		.loc 3 649 0
 2424 0060 0023     		movs	r3, #0
 2425 0062 FB84     		strh	r3, [r7, #38]	@ movhi
 650:..\..\..\lvgl\version_6.1.2\lvgl\src\lv_objx/lv_page.c ****         lv_anim_create(&a);
 2426              		.loc 3 650 0
 2427 0064 07F10803 		add	r3, r7, #8
 2428 0068 1846     		mov	r0, r3
 2429 006a FFF7FEFF 		bl	lv_anim_create
 2430              	.L107:
 2431              	.LBE5:
 651:..\..\..\lvgl\version_6.1.2\lvgl\src\lv_objx/lv_page.c ****     }
 652:..\..\..\lvgl\version_6.1.2\lvgl\src\lv_objx/lv_page.c **** #else
 653:..\..\..\lvgl\version_6.1.2\lvgl\src\lv_objx/lv_page.c ****     (void)page; /*Unused*/
 654:..\..\..\lvgl\version_6.1.2\lvgl\src\lv_objx/lv_page.c **** #endif
 655:..\..\..\lvgl\version_6.1.2\lvgl\src\lv_objx/lv_page.c **** }
 2432              		.loc 3 655 0
 2433 006e 00BF     		nop
 2434 0070 3037     		adds	r7, r7, #48
 2435              		.cfi_def_cfa_offset 8
 2436 0072 BD46     		mov	sp, r7
ARM GAS  C:\Users\tmj32\AppData\Local\Temp\ccFKuFvs.s 			page 63


 2437              		.cfi_def_cfa_register 13
 2438              		@ sp needed
 2439 0074 80BD     		pop	{r7, pc}
 2440              	.L109:
 2441 0076 00BF     		.align	2
 2442              	.L108:
 2443 0078 00000000 		.word	edge_flash_anim
 2444 007c 00000000 		.word	lv_anim_path_linear
 2445 0080 00000000 		.word	edge_flash_anim_end
 2446              		.cfi_endproc
 2447              	.LFE68:
 2448              		.size	lv_page_start_edge_flash, .-lv_page_start_edge_flash
 2449              		.section	.text.lv_page_design,"ax",%progbits
 2450              		.align	2
 2451              		.thumb
 2452              		.thumb_func
 2453              		.type	lv_page_design, %function
 2454              	lv_page_design:
 2455              	.LFB69:
 656:..\..\..\lvgl\version_6.1.2\lvgl\src\lv_objx/lv_page.c **** 
 657:..\..\..\lvgl\version_6.1.2\lvgl\src\lv_objx/lv_page.c **** /**********************
 658:..\..\..\lvgl\version_6.1.2\lvgl\src\lv_objx/lv_page.c ****  *   STATIC FUNCTIONS
 659:..\..\..\lvgl\version_6.1.2\lvgl\src\lv_objx/lv_page.c ****  **********************/
 660:..\..\..\lvgl\version_6.1.2\lvgl\src\lv_objx/lv_page.c **** 
 661:..\..\..\lvgl\version_6.1.2\lvgl\src\lv_objx/lv_page.c **** /**
 662:..\..\..\lvgl\version_6.1.2\lvgl\src\lv_objx/lv_page.c ****  * Handle the drawing related tasks of the pages
 663:..\..\..\lvgl\version_6.1.2\lvgl\src\lv_objx/lv_page.c ****  * @param page pointer to an object
 664:..\..\..\lvgl\version_6.1.2\lvgl\src\lv_objx/lv_page.c ****  * @param mask the object will be drawn only in this area
 665:..\..\..\lvgl\version_6.1.2\lvgl\src\lv_objx/lv_page.c ****  * @param mode LV_DESIGN_COVER_CHK: only check if the object fully covers the 'mask_p' area
 666:..\..\..\lvgl\version_6.1.2\lvgl\src\lv_objx/lv_page.c ****  *                                  (return 'true' if yes)
 667:..\..\..\lvgl\version_6.1.2\lvgl\src\lv_objx/lv_page.c ****  *             LV_DESIGN_DRAW: draw the object (always return 'true')
 668:..\..\..\lvgl\version_6.1.2\lvgl\src\lv_objx/lv_page.c ****  *             LV_DESIGN_DRAW_POST: drawing after every children are drawn
 669:..\..\..\lvgl\version_6.1.2\lvgl\src\lv_objx/lv_page.c ****  * @param return true/false, depends on 'mode'
 670:..\..\..\lvgl\version_6.1.2\lvgl\src\lv_objx/lv_page.c ****  */
 671:..\..\..\lvgl\version_6.1.2\lvgl\src\lv_objx/lv_page.c **** static bool lv_page_design(lv_obj_t * page, const lv_area_t * mask, lv_design_mode_t mode)
 672:..\..\..\lvgl\version_6.1.2\lvgl\src\lv_objx/lv_page.c **** {
 2456              		.loc 3 672 0
 2457              		.cfi_startproc
 2458              		@ args = 0, pretend = 0, frame = 208
 2459              		@ frame_needed = 1, uses_anonymous_args = 0
 2460 0000 90B5     		push	{r4, r7, lr}
 2461              		.cfi_def_cfa_offset 12
 2462              		.cfi_offset 4, -12
 2463              		.cfi_offset 7, -8
 2464              		.cfi_offset 14, -4
 2465 0002 B5B0     		sub	sp, sp, #212
 2466              		.cfi_def_cfa_offset 224
 2467 0004 00AF     		add	r7, sp, #0
 2468              		.cfi_def_cfa_register 7
 2469 0006 F860     		str	r0, [r7, #12]
 2470 0008 B960     		str	r1, [r7, #8]
 2471 000a 1346     		mov	r3, r2
 2472 000c FB71     		strb	r3, [r7, #7]
 673:..\..\..\lvgl\version_6.1.2\lvgl\src\lv_objx/lv_page.c ****     if(mode == LV_DESIGN_COVER_CHK) {
 2473              		.loc 3 673 0
 2474 000e FB79     		ldrb	r3, [r7, #7]	@ zero_extendqisi2
 2475 0010 022B     		cmp	r3, #2
ARM GAS  C:\Users\tmj32\AppData\Local\Temp\ccFKuFvs.s 			page 64


 2476 0012 07D1     		bne	.L111
 674:..\..\..\lvgl\version_6.1.2\lvgl\src\lv_objx/lv_page.c ****         return ancestor_design(page, mask, mode);
 2477              		.loc 3 674 0
 2478 0014 A34B     		ldr	r3, .L124
 2479 0016 1B68     		ldr	r3, [r3]
 2480 0018 FA79     		ldrb	r2, [r7, #7]	@ zero_extendqisi2
 2481 001a B968     		ldr	r1, [r7, #8]
 2482 001c F868     		ldr	r0, [r7, #12]
 2483 001e 9847     		blx	r3
 2484 0020 0346     		mov	r3, r0
 2485 0022 5DE2     		b	.L123
 2486              	.L111:
 675:..\..\..\lvgl\version_6.1.2\lvgl\src\lv_objx/lv_page.c ****     }
 676:..\..\..\lvgl\version_6.1.2\lvgl\src\lv_objx/lv_page.c ****     /*Cache page bg style for temporary modification*/
 677:..\..\..\lvgl\version_6.1.2\lvgl\src\lv_objx/lv_page.c ****     const lv_style_t * style = lv_page_get_style(page, LV_PAGE_STYLE_BG);
 2487              		.loc 3 677 0
 2488 0024 0021     		movs	r1, #0
 2489 0026 F868     		ldr	r0, [r7, #12]
 2490 0028 FFF7FEFF 		bl	lv_page_get_style
 2491 002c C7F8CC00 		str	r0, [r7, #204]
 678:..\..\..\lvgl\version_6.1.2\lvgl\src\lv_objx/lv_page.c ****     lv_style_t style_tmp;
 679:..\..\..\lvgl\version_6.1.2\lvgl\src\lv_objx/lv_page.c ****     lv_style_copy(&style_tmp, style);
 2492              		.loc 3 679 0
 2493 0030 07F17003 		add	r3, r7, #112
 2494 0034 D7F8CC10 		ldr	r1, [r7, #204]
 2495 0038 1846     		mov	r0, r3
 2496 003a FFF7FEFF 		bl	lv_style_copy
 680:..\..\..\lvgl\version_6.1.2\lvgl\src\lv_objx/lv_page.c **** 
 681:..\..\..\lvgl\version_6.1.2\lvgl\src\lv_objx/lv_page.c ****     if(mode == LV_DESIGN_DRAW_MAIN) {
 2497              		.loc 3 681 0
 2498 003e FB79     		ldrb	r3, [r7, #7]	@ zero_extendqisi2
 2499 0040 002B     		cmp	r3, #0
 2500 0042 10D1     		bne	.L113
 682:..\..\..\lvgl\version_6.1.2\lvgl\src\lv_objx/lv_page.c ****         /*Draw without border*/
 683:..\..\..\lvgl\version_6.1.2\lvgl\src\lv_objx/lv_page.c ****         style_tmp.body.border.width = 0;
 2501              		.loc 3 683 0
 2502 0044 0023     		movs	r3, #0
 2503 0046 A7F88430 		strh	r3, [r7, #132]	@ movhi
 684:..\..\..\lvgl\version_6.1.2\lvgl\src\lv_objx/lv_page.c ****         lv_draw_rect(&page->coords, mask, &style_tmp, lv_obj_get_opa_scale(page));
 2504              		.loc 3 684 0
 2505 004a FB68     		ldr	r3, [r7, #12]
 2506 004c 03F11004 		add	r4, r3, #16
 2507 0050 F868     		ldr	r0, [r7, #12]
 2508 0052 FFF7FEFF 		bl	lv_obj_get_opa_scale
 2509 0056 0346     		mov	r3, r0
 2510 0058 07F17002 		add	r2, r7, #112
 2511 005c B968     		ldr	r1, [r7, #8]
 2512 005e 2046     		mov	r0, r4
 2513 0060 FFF7FEFF 		bl	lv_draw_rect
 2514 0064 3BE2     		b	.L114
 2515              	.L113:
 685:..\..\..\lvgl\version_6.1.2\lvgl\src\lv_objx/lv_page.c **** 
 686:..\..\..\lvgl\version_6.1.2\lvgl\src\lv_objx/lv_page.c ****     } else if(mode == LV_DESIGN_DRAW_POST) {
 2516              		.loc 3 686 0
 2517 0066 FB79     		ldrb	r3, [r7, #7]	@ zero_extendqisi2
 2518 0068 012B     		cmp	r3, #1
 2519 006a 40F03882 		bne	.L114
ARM GAS  C:\Users\tmj32\AppData\Local\Temp\ccFKuFvs.s 			page 65


 2520              	.LBB6:
 687:..\..\..\lvgl\version_6.1.2\lvgl\src\lv_objx/lv_page.c ****         /*Draw only a border*/
 688:..\..\..\lvgl\version_6.1.2\lvgl\src\lv_objx/lv_page.c ****         style_tmp.body.shadow.width = 0;
 2521              		.loc 3 688 0
 2522 006e 0023     		movs	r3, #0
 2523 0070 A7F88C30 		strh	r3, [r7, #140]	@ movhi
 689:..\..\..\lvgl\version_6.1.2\lvgl\src\lv_objx/lv_page.c ****         style_tmp.body.opa          = LV_OPA_TRANSP;
 2524              		.loc 3 689 0
 2525 0074 0023     		movs	r3, #0
 2526 0076 87F87E30 		strb	r3, [r7, #126]
 690:..\..\..\lvgl\version_6.1.2\lvgl\src\lv_objx/lv_page.c ****         lv_draw_rect(&page->coords, mask, &style_tmp, lv_obj_get_opa_scale(page));
 2527              		.loc 3 690 0
 2528 007a FB68     		ldr	r3, [r7, #12]
 2529 007c 03F11004 		add	r4, r3, #16
 2530 0080 F868     		ldr	r0, [r7, #12]
 2531 0082 FFF7FEFF 		bl	lv_obj_get_opa_scale
 2532 0086 0346     		mov	r3, r0
 2533 0088 07F17002 		add	r2, r7, #112
 2534 008c B968     		ldr	r1, [r7, #8]
 2535 008e 2046     		mov	r0, r4
 2536 0090 FFF7FEFF 		bl	lv_draw_rect
 691:..\..\..\lvgl\version_6.1.2\lvgl\src\lv_objx/lv_page.c **** 
 692:..\..\..\lvgl\version_6.1.2\lvgl\src\lv_objx/lv_page.c ****         lv_page_ext_t * ext = lv_obj_get_ext_attr(page);
 2537              		.loc 3 692 0
 2538 0094 F868     		ldr	r0, [r7, #12]
 2539 0096 FFF7FEFF 		bl	lv_obj_get_ext_attr
 2540 009a C7F8C800 		str	r0, [r7, #200]
 693:..\..\..\lvgl\version_6.1.2\lvgl\src\lv_objx/lv_page.c **** 
 694:..\..\..\lvgl\version_6.1.2\lvgl\src\lv_objx/lv_page.c ****         /*Draw the scrollbars*/
 695:..\..\..\lvgl\version_6.1.2\lvgl\src\lv_objx/lv_page.c ****         lv_area_t sb_area;
 696:..\..\..\lvgl\version_6.1.2\lvgl\src\lv_objx/lv_page.c ****         if(ext->sb.hor_draw && (ext->sb.mode & LV_SB_MODE_HIDE) == 0) {
 2541              		.loc 3 696 0
 2542 009e D7F8C830 		ldr	r3, [r7, #200]
 2543 00a2 1B7F     		ldrb	r3, [r3, #28]	@ zero_extendqisi2
 2544 00a4 03F00103 		and	r3, r3, #1
 2545 00a8 DBB2     		uxtb	r3, r3
 2546 00aa 002B     		cmp	r3, #0
 2547 00ac 50D0     		beq	.L115
 2548              		.loc 3 696 0 is_stmt 0 discriminator 1
 2549 00ae D7F8C830 		ldr	r3, [r7, #200]
 2550 00b2 1B7F     		ldrb	r3, [r3, #28]
 2551 00b4 C3F38203 		ubfx	r3, r3, #2, #3
 2552 00b8 DBB2     		uxtb	r3, r3
 2553 00ba 03F00403 		and	r3, r3, #4
 2554 00be 002B     		cmp	r3, #0
 2555 00c0 46D1     		bne	.L115
 697:..\..\..\lvgl\version_6.1.2\lvgl\src\lv_objx/lv_page.c ****             /*Convert the relative coordinates to absolute*/
 698:..\..\..\lvgl\version_6.1.2\lvgl\src\lv_objx/lv_page.c ****             lv_area_copy(&sb_area, &ext->sb.hor_area);
 2556              		.loc 3 698 0 is_stmt 1
 2557 00c2 D7F8C830 		ldr	r3, [r7, #200]
 2558 00c6 03F10C02 		add	r2, r3, #12
 2559 00ca 07F16803 		add	r3, r7, #104
 2560 00ce 1146     		mov	r1, r2
 2561 00d0 1846     		mov	r0, r3
 2562 00d2 FFF7FEFF 		bl	lv_area_copy
 699:..\..\..\lvgl\version_6.1.2\lvgl\src\lv_objx/lv_page.c ****             sb_area.x1 += page->coords.x1;
 2563              		.loc 3 699 0
ARM GAS  C:\Users\tmj32\AppData\Local\Temp\ccFKuFvs.s 			page 66


 2564 00d6 B7F96830 		ldrsh	r3, [r7, #104]
 2565 00da 9AB2     		uxth	r2, r3
 2566 00dc FB68     		ldr	r3, [r7, #12]
 2567 00de B3F91030 		ldrsh	r3, [r3, #16]
 2568 00e2 9BB2     		uxth	r3, r3
 2569 00e4 1344     		add	r3, r3, r2
 2570 00e6 9BB2     		uxth	r3, r3
 2571 00e8 1BB2     		sxth	r3, r3
 2572 00ea A7F86830 		strh	r3, [r7, #104]	@ movhi
 700:..\..\..\lvgl\version_6.1.2\lvgl\src\lv_objx/lv_page.c ****             sb_area.y1 += page->coords.y1;
 2573              		.loc 3 700 0
 2574 00ee B7F96A30 		ldrsh	r3, [r7, #106]
 2575 00f2 9AB2     		uxth	r2, r3
 2576 00f4 FB68     		ldr	r3, [r7, #12]
 2577 00f6 B3F91230 		ldrsh	r3, [r3, #18]
 2578 00fa 9BB2     		uxth	r3, r3
 2579 00fc 1344     		add	r3, r3, r2
 2580 00fe 9BB2     		uxth	r3, r3
 2581 0100 1BB2     		sxth	r3, r3
 2582 0102 A7F86A30 		strh	r3, [r7, #106]	@ movhi
 701:..\..\..\lvgl\version_6.1.2\lvgl\src\lv_objx/lv_page.c ****             sb_area.x2 += page->coords.x1;
 2583              		.loc 3 701 0
 2584 0106 B7F96C30 		ldrsh	r3, [r7, #108]
 2585 010a 9AB2     		uxth	r2, r3
 2586 010c FB68     		ldr	r3, [r7, #12]
 2587 010e B3F91030 		ldrsh	r3, [r3, #16]
 2588 0112 9BB2     		uxth	r3, r3
 2589 0114 1344     		add	r3, r3, r2
 2590 0116 9BB2     		uxth	r3, r3
 2591 0118 1BB2     		sxth	r3, r3
 2592 011a A7F86C30 		strh	r3, [r7, #108]	@ movhi
 702:..\..\..\lvgl\version_6.1.2\lvgl\src\lv_objx/lv_page.c ****             sb_area.y2 += page->coords.y1;
 2593              		.loc 3 702 0
 2594 011e B7F96E30 		ldrsh	r3, [r7, #110]
 2595 0122 9AB2     		uxth	r2, r3
 2596 0124 FB68     		ldr	r3, [r7, #12]
 2597 0126 B3F91230 		ldrsh	r3, [r3, #18]
 2598 012a 9BB2     		uxth	r3, r3
 2599 012c 1344     		add	r3, r3, r2
 2600 012e 9BB2     		uxth	r3, r3
 2601 0130 1BB2     		sxth	r3, r3
 2602 0132 A7F86E30 		strh	r3, [r7, #110]	@ movhi
 703:..\..\..\lvgl\version_6.1.2\lvgl\src\lv_objx/lv_page.c ****             lv_draw_rect(&sb_area, mask, ext->sb.style, lv_obj_get_opa_scale(page));
 2603              		.loc 3 703 0
 2604 0136 D7F8C830 		ldr	r3, [r7, #200]
 2605 013a 9C68     		ldr	r4, [r3, #8]
 2606 013c F868     		ldr	r0, [r7, #12]
 2607 013e FFF7FEFF 		bl	lv_obj_get_opa_scale
 2608 0142 0346     		mov	r3, r0
 2609 0144 07F16800 		add	r0, r7, #104
 2610 0148 2246     		mov	r2, r4
 2611 014a B968     		ldr	r1, [r7, #8]
 2612 014c FFF7FEFF 		bl	lv_draw_rect
 2613              	.L115:
 704:..\..\..\lvgl\version_6.1.2\lvgl\src\lv_objx/lv_page.c ****         }
 705:..\..\..\lvgl\version_6.1.2\lvgl\src\lv_objx/lv_page.c **** 
 706:..\..\..\lvgl\version_6.1.2\lvgl\src\lv_objx/lv_page.c ****         if(ext->sb.ver_draw && (ext->sb.mode & LV_SB_MODE_HIDE) == 0) {
ARM GAS  C:\Users\tmj32\AppData\Local\Temp\ccFKuFvs.s 			page 67


 2614              		.loc 3 706 0
 2615 0150 D7F8C830 		ldr	r3, [r7, #200]
 2616 0154 1B7F     		ldrb	r3, [r3, #28]	@ zero_extendqisi2
 2617 0156 03F00203 		and	r3, r3, #2
 2618 015a DBB2     		uxtb	r3, r3
 2619 015c 002B     		cmp	r3, #0
 2620 015e 50D0     		beq	.L116
 2621              		.loc 3 706 0 is_stmt 0 discriminator 1
 2622 0160 D7F8C830 		ldr	r3, [r7, #200]
 2623 0164 1B7F     		ldrb	r3, [r3, #28]
 2624 0166 C3F38203 		ubfx	r3, r3, #2, #3
 2625 016a DBB2     		uxtb	r3, r3
 2626 016c 03F00403 		and	r3, r3, #4
 2627 0170 002B     		cmp	r3, #0
 2628 0172 46D1     		bne	.L116
 707:..\..\..\lvgl\version_6.1.2\lvgl\src\lv_objx/lv_page.c ****             /*Convert the relative coordinates to absolute*/
 708:..\..\..\lvgl\version_6.1.2\lvgl\src\lv_objx/lv_page.c ****             lv_area_copy(&sb_area, &ext->sb.ver_area);
 2629              		.loc 3 708 0 is_stmt 1
 2630 0174 D7F8C830 		ldr	r3, [r7, #200]
 2631 0178 03F11402 		add	r2, r3, #20
 2632 017c 07F16803 		add	r3, r7, #104
 2633 0180 1146     		mov	r1, r2
 2634 0182 1846     		mov	r0, r3
 2635 0184 FFF7FEFF 		bl	lv_area_copy
 709:..\..\..\lvgl\version_6.1.2\lvgl\src\lv_objx/lv_page.c ****             sb_area.x1 += page->coords.x1;
 2636              		.loc 3 709 0
 2637 0188 B7F96830 		ldrsh	r3, [r7, #104]
 2638 018c 9AB2     		uxth	r2, r3
 2639 018e FB68     		ldr	r3, [r7, #12]
 2640 0190 B3F91030 		ldrsh	r3, [r3, #16]
 2641 0194 9BB2     		uxth	r3, r3
 2642 0196 1344     		add	r3, r3, r2
 2643 0198 9BB2     		uxth	r3, r3
 2644 019a 1BB2     		sxth	r3, r3
 2645 019c A7F86830 		strh	r3, [r7, #104]	@ movhi
 710:..\..\..\lvgl\version_6.1.2\lvgl\src\lv_objx/lv_page.c ****             sb_area.y1 += page->coords.y1;
 2646              		.loc 3 710 0
 2647 01a0 B7F96A30 		ldrsh	r3, [r7, #106]
 2648 01a4 9AB2     		uxth	r2, r3
 2649 01a6 FB68     		ldr	r3, [r7, #12]
 2650 01a8 B3F91230 		ldrsh	r3, [r3, #18]
 2651 01ac 9BB2     		uxth	r3, r3
 2652 01ae 1344     		add	r3, r3, r2
 2653 01b0 9BB2     		uxth	r3, r3
 2654 01b2 1BB2     		sxth	r3, r3
 2655 01b4 A7F86A30 		strh	r3, [r7, #106]	@ movhi
 711:..\..\..\lvgl\version_6.1.2\lvgl\src\lv_objx/lv_page.c ****             sb_area.x2 += page->coords.x1;
 2656              		.loc 3 711 0
 2657 01b8 B7F96C30 		ldrsh	r3, [r7, #108]
 2658 01bc 9AB2     		uxth	r2, r3
 2659 01be FB68     		ldr	r3, [r7, #12]
 2660 01c0 B3F91030 		ldrsh	r3, [r3, #16]
 2661 01c4 9BB2     		uxth	r3, r3
 2662 01c6 1344     		add	r3, r3, r2
 2663 01c8 9BB2     		uxth	r3, r3
 2664 01ca 1BB2     		sxth	r3, r3
 2665 01cc A7F86C30 		strh	r3, [r7, #108]	@ movhi
ARM GAS  C:\Users\tmj32\AppData\Local\Temp\ccFKuFvs.s 			page 68


 712:..\..\..\lvgl\version_6.1.2\lvgl\src\lv_objx/lv_page.c ****             sb_area.y2 += page->coords.y1;
 2666              		.loc 3 712 0
 2667 01d0 B7F96E30 		ldrsh	r3, [r7, #110]
 2668 01d4 9AB2     		uxth	r2, r3
 2669 01d6 FB68     		ldr	r3, [r7, #12]
 2670 01d8 B3F91230 		ldrsh	r3, [r3, #18]
 2671 01dc 9BB2     		uxth	r3, r3
 2672 01de 1344     		add	r3, r3, r2
 2673 01e0 9BB2     		uxth	r3, r3
 2674 01e2 1BB2     		sxth	r3, r3
 2675 01e4 A7F86E30 		strh	r3, [r7, #110]	@ movhi
 713:..\..\..\lvgl\version_6.1.2\lvgl\src\lv_objx/lv_page.c ****             lv_draw_rect(&sb_area, mask, ext->sb.style, lv_obj_get_opa_scale(page));
 2676              		.loc 3 713 0
 2677 01e8 D7F8C830 		ldr	r3, [r7, #200]
 2678 01ec 9C68     		ldr	r4, [r3, #8]
 2679 01ee F868     		ldr	r0, [r7, #12]
 2680 01f0 FFF7FEFF 		bl	lv_obj_get_opa_scale
 2681 01f4 0346     		mov	r3, r0
 2682 01f6 07F16800 		add	r0, r7, #104
 2683 01fa 2246     		mov	r2, r4
 2684 01fc B968     		ldr	r1, [r7, #8]
 2685 01fe FFF7FEFF 		bl	lv_draw_rect
 2686              	.L116:
 2687              	.LBB7:
 714:..\..\..\lvgl\version_6.1.2\lvgl\src\lv_objx/lv_page.c ****         }
 715:..\..\..\lvgl\version_6.1.2\lvgl\src\lv_objx/lv_page.c **** 
 716:..\..\..\lvgl\version_6.1.2\lvgl\src\lv_objx/lv_page.c **** #if LV_USE_ANIMATION
 717:..\..\..\lvgl\version_6.1.2\lvgl\src\lv_objx/lv_page.c ****         {
 718:..\..\..\lvgl\version_6.1.2\lvgl\src\lv_objx/lv_page.c ****             lv_coord_t page_w = lv_obj_get_width(page);
 2688              		.loc 3 718 0
 2689 0202 F868     		ldr	r0, [r7, #12]
 2690 0204 FFF7FEFF 		bl	lv_obj_get_width
 2691 0208 0346     		mov	r3, r0
 2692 020a A7F8C630 		strh	r3, [r7, #198]	@ movhi
 719:..\..\..\lvgl\version_6.1.2\lvgl\src\lv_objx/lv_page.c ****             lv_coord_t page_h = lv_obj_get_height(page);
 2693              		.loc 3 719 0
 2694 020e F868     		ldr	r0, [r7, #12]
 2695 0210 FFF7FEFF 		bl	lv_obj_get_height
 2696 0214 0346     		mov	r3, r0
 2697 0216 A7F8C430 		strh	r3, [r7, #196]	@ movhi
 720:..\..\..\lvgl\version_6.1.2\lvgl\src\lv_objx/lv_page.c **** 
 721:..\..\..\lvgl\version_6.1.2\lvgl\src\lv_objx/lv_page.c ****             lv_area_t flash_area;
 722:..\..\..\lvgl\version_6.1.2\lvgl\src\lv_objx/lv_page.c **** 
 723:..\..\..\lvgl\version_6.1.2\lvgl\src\lv_objx/lv_page.c ****             if(ext->edge_flash.top_ip) {
 2698              		.loc 3 723 0
 2699 021a D7F8C830 		ldr	r3, [r7, #200]
 2700 021e 93F82830 		ldrb	r3, [r3, #40]	@ zero_extendqisi2
 2701 0222 03F00203 		and	r3, r3, #2
 2702 0226 DBB2     		uxtb	r3, r3
 2703 0228 002B     		cmp	r3, #0
 2704 022a 3DD0     		beq	.L117
 724:..\..\..\lvgl\version_6.1.2\lvgl\src\lv_objx/lv_page.c ****                 flash_area.x1 = page->coords.x1 - page_w;
 2705              		.loc 3 724 0
 2706 022c FB68     		ldr	r3, [r7, #12]
 2707 022e B3F91030 		ldrsh	r3, [r3, #16]
 2708 0232 9AB2     		uxth	r2, r3
 2709 0234 B7F8C630 		ldrh	r3, [r7, #198]
ARM GAS  C:\Users\tmj32\AppData\Local\Temp\ccFKuFvs.s 			page 69


 2710 0238 D31A     		subs	r3, r2, r3
 2711 023a 9BB2     		uxth	r3, r3
 2712 023c 1BB2     		sxth	r3, r3
 2713 023e A7F86030 		strh	r3, [r7, #96]	@ movhi
 725:..\..\..\lvgl\version_6.1.2\lvgl\src\lv_objx/lv_page.c ****                 flash_area.x2 = page->coords.x2 + page_w;
 2714              		.loc 3 725 0
 2715 0242 FB68     		ldr	r3, [r7, #12]
 2716 0244 B3F91430 		ldrsh	r3, [r3, #20]
 2717 0248 9AB2     		uxth	r2, r3
 2718 024a B7F8C630 		ldrh	r3, [r7, #198]
 2719 024e 1344     		add	r3, r3, r2
 2720 0250 9BB2     		uxth	r3, r3
 2721 0252 1BB2     		sxth	r3, r3
 2722 0254 A7F86430 		strh	r3, [r7, #100]	@ movhi
 726:..\..\..\lvgl\version_6.1.2\lvgl\src\lv_objx/lv_page.c ****                 flash_area.y1 = page->coords.y1 - 3 * page_w + ext->edge_flash.state;
 2723              		.loc 3 726 0
 2724 0258 FB68     		ldr	r3, [r7, #12]
 2725 025a B3F91230 		ldrsh	r3, [r3, #18]
 2726 025e 9AB2     		uxth	r2, r3
 2727 0260 B7F8C630 		ldrh	r3, [r7, #198]
 2728 0264 1946     		mov	r1, r3	@ movhi
 2729 0266 9B00     		lsls	r3, r3, #2
 2730 0268 CB1A     		subs	r3, r1, r3
 2731 026a 9BB2     		uxth	r3, r3
 2732 026c 1344     		add	r3, r3, r2
 2733 026e 9AB2     		uxth	r2, r3
 2734 0270 D7F8C830 		ldr	r3, [r7, #200]
 2735 0274 B3F92030 		ldrsh	r3, [r3, #32]
 2736 0278 9BB2     		uxth	r3, r3
 2737 027a 1344     		add	r3, r3, r2
 2738 027c 9BB2     		uxth	r3, r3
 2739 027e 1BB2     		sxth	r3, r3
 2740 0280 A7F86230 		strh	r3, [r7, #98]	@ movhi
 727:..\..\..\lvgl\version_6.1.2\lvgl\src\lv_objx/lv_page.c ****                 flash_area.y2 = page->coords.y1 + ext->edge_flash.state;
 2741              		.loc 3 727 0
 2742 0284 FB68     		ldr	r3, [r7, #12]
 2743 0286 B3F91230 		ldrsh	r3, [r3, #18]
 2744 028a 9AB2     		uxth	r2, r3
 2745 028c D7F8C830 		ldr	r3, [r7, #200]
 2746 0290 B3F92030 		ldrsh	r3, [r3, #32]
 2747 0294 9BB2     		uxth	r3, r3
 2748 0296 1344     		add	r3, r3, r2
 2749 0298 9BB2     		uxth	r3, r3
 2750 029a 1BB2     		sxth	r3, r3
 2751 029c A7F86630 		strh	r3, [r7, #102]	@ movhi
 2752 02a0 CDE0     		b	.L118
 2753              	.L125:
 2754 02a2 00BF     		.align	2
 2755              	.L124:
 2756 02a4 00000000 		.word	ancestor_design
 2757              	.L117:
 728:..\..\..\lvgl\version_6.1.2\lvgl\src\lv_objx/lv_page.c ****             } else if(ext->edge_flash.bottom_ip) {
 2758              		.loc 3 728 0
 2759 02a8 D7F8C830 		ldr	r3, [r7, #200]
 2760 02ac 93F82830 		ldrb	r3, [r3, #40]	@ zero_extendqisi2
 2761 02b0 03F00403 		and	r3, r3, #4
 2762 02b4 DBB2     		uxtb	r3, r3
ARM GAS  C:\Users\tmj32\AppData\Local\Temp\ccFKuFvs.s 			page 70


 2763 02b6 002B     		cmp	r3, #0
 2764 02b8 3AD0     		beq	.L119
 729:..\..\..\lvgl\version_6.1.2\lvgl\src\lv_objx/lv_page.c ****                 flash_area.x1 = page->coords.x1 - page_w;
 2765              		.loc 3 729 0
 2766 02ba FB68     		ldr	r3, [r7, #12]
 2767 02bc B3F91030 		ldrsh	r3, [r3, #16]
 2768 02c0 9AB2     		uxth	r2, r3
 2769 02c2 B7F8C630 		ldrh	r3, [r7, #198]
 2770 02c6 D31A     		subs	r3, r2, r3
 2771 02c8 9BB2     		uxth	r3, r3
 2772 02ca 1BB2     		sxth	r3, r3
 2773 02cc A7F86030 		strh	r3, [r7, #96]	@ movhi
 730:..\..\..\lvgl\version_6.1.2\lvgl\src\lv_objx/lv_page.c ****                 flash_area.x2 = page->coords.x2 + page_w;
 2774              		.loc 3 730 0
 2775 02d0 FB68     		ldr	r3, [r7, #12]
 2776 02d2 B3F91430 		ldrsh	r3, [r3, #20]
 2777 02d6 9AB2     		uxth	r2, r3
 2778 02d8 B7F8C630 		ldrh	r3, [r7, #198]
 2779 02dc 1344     		add	r3, r3, r2
 2780 02de 9BB2     		uxth	r3, r3
 2781 02e0 1BB2     		sxth	r3, r3
 2782 02e2 A7F86430 		strh	r3, [r7, #100]	@ movhi
 731:..\..\..\lvgl\version_6.1.2\lvgl\src\lv_objx/lv_page.c ****                 flash_area.y1 = page->coords.y2 - ext->edge_flash.state;
 2783              		.loc 3 731 0
 2784 02e6 FB68     		ldr	r3, [r7, #12]
 2785 02e8 B3F91630 		ldrsh	r3, [r3, #22]
 2786 02ec 9AB2     		uxth	r2, r3
 2787 02ee D7F8C830 		ldr	r3, [r7, #200]
 2788 02f2 B3F92030 		ldrsh	r3, [r3, #32]
 2789 02f6 9BB2     		uxth	r3, r3
 2790 02f8 D31A     		subs	r3, r2, r3
 2791 02fa 9BB2     		uxth	r3, r3
 2792 02fc 1BB2     		sxth	r3, r3
 2793 02fe A7F86230 		strh	r3, [r7, #98]	@ movhi
 732:..\..\..\lvgl\version_6.1.2\lvgl\src\lv_objx/lv_page.c ****                 flash_area.y2 = page->coords.y2 + 3 * page_w - ext->edge_flash.state;
 2794              		.loc 3 732 0
 2795 0302 FB68     		ldr	r3, [r7, #12]
 2796 0304 B3F91630 		ldrsh	r3, [r3, #22]
 2797 0308 9AB2     		uxth	r2, r3
 2798 030a B7F8C630 		ldrh	r3, [r7, #198]
 2799 030e 1946     		mov	r1, r3	@ movhi
 2800 0310 4900     		lsls	r1, r1, #1
 2801 0312 0B44     		add	r3, r3, r1
 2802 0314 9BB2     		uxth	r3, r3
 2803 0316 1344     		add	r3, r3, r2
 2804 0318 9AB2     		uxth	r2, r3
 2805 031a D7F8C830 		ldr	r3, [r7, #200]
 2806 031e B3F92030 		ldrsh	r3, [r3, #32]
 2807 0322 9BB2     		uxth	r3, r3
 2808 0324 D31A     		subs	r3, r2, r3
 2809 0326 9BB2     		uxth	r3, r3
 2810 0328 1BB2     		sxth	r3, r3
 2811 032a A7F86630 		strh	r3, [r7, #102]	@ movhi
 2812 032e 86E0     		b	.L118
 2813              	.L119:
 733:..\..\..\lvgl\version_6.1.2\lvgl\src\lv_objx/lv_page.c ****             } else if(ext->edge_flash.right_ip) {
 2814              		.loc 3 733 0
ARM GAS  C:\Users\tmj32\AppData\Local\Temp\ccFKuFvs.s 			page 71


 2815 0330 D7F8C830 		ldr	r3, [r7, #200]
 2816 0334 93F82830 		ldrb	r3, [r3, #40]	@ zero_extendqisi2
 2817 0338 03F00803 		and	r3, r3, #8
 2818 033c DBB2     		uxtb	r3, r3
 2819 033e 002B     		cmp	r3, #0
 2820 0340 3AD0     		beq	.L120
 734:..\..\..\lvgl\version_6.1.2\lvgl\src\lv_objx/lv_page.c ****                 flash_area.x1 = page->coords.x2 - ext->edge_flash.state;
 2821              		.loc 3 734 0
 2822 0342 FB68     		ldr	r3, [r7, #12]
 2823 0344 B3F91430 		ldrsh	r3, [r3, #20]
 2824 0348 9AB2     		uxth	r2, r3
 2825 034a D7F8C830 		ldr	r3, [r7, #200]
 2826 034e B3F92030 		ldrsh	r3, [r3, #32]
 2827 0352 9BB2     		uxth	r3, r3
 2828 0354 D31A     		subs	r3, r2, r3
 2829 0356 9BB2     		uxth	r3, r3
 2830 0358 1BB2     		sxth	r3, r3
 2831 035a A7F86030 		strh	r3, [r7, #96]	@ movhi
 735:..\..\..\lvgl\version_6.1.2\lvgl\src\lv_objx/lv_page.c ****                 flash_area.x2 = page->coords.x2 + 3 * page_h - ext->edge_flash.state;
 2832              		.loc 3 735 0
 2833 035e FB68     		ldr	r3, [r7, #12]
 2834 0360 B3F91430 		ldrsh	r3, [r3, #20]
 2835 0364 9AB2     		uxth	r2, r3
 2836 0366 B7F8C430 		ldrh	r3, [r7, #196]
 2837 036a 1946     		mov	r1, r3	@ movhi
 2838 036c 4900     		lsls	r1, r1, #1
 2839 036e 0B44     		add	r3, r3, r1
 2840 0370 9BB2     		uxth	r3, r3
 2841 0372 1344     		add	r3, r3, r2
 2842 0374 9AB2     		uxth	r2, r3
 2843 0376 D7F8C830 		ldr	r3, [r7, #200]
 2844 037a B3F92030 		ldrsh	r3, [r3, #32]
 2845 037e 9BB2     		uxth	r3, r3
 2846 0380 D31A     		subs	r3, r2, r3
 2847 0382 9BB2     		uxth	r3, r3
 2848 0384 1BB2     		sxth	r3, r3
 2849 0386 A7F86430 		strh	r3, [r7, #100]	@ movhi
 736:..\..\..\lvgl\version_6.1.2\lvgl\src\lv_objx/lv_page.c ****                 flash_area.y1 = page->coords.y1 - page_h;
 2850              		.loc 3 736 0
 2851 038a FB68     		ldr	r3, [r7, #12]
 2852 038c B3F91230 		ldrsh	r3, [r3, #18]
 2853 0390 9AB2     		uxth	r2, r3
 2854 0392 B7F8C430 		ldrh	r3, [r7, #196]
 2855 0396 D31A     		subs	r3, r2, r3
 2856 0398 9BB2     		uxth	r3, r3
 2857 039a 1BB2     		sxth	r3, r3
 2858 039c A7F86230 		strh	r3, [r7, #98]	@ movhi
 737:..\..\..\lvgl\version_6.1.2\lvgl\src\lv_objx/lv_page.c ****                 flash_area.y2 = page->coords.y2 + page_h;
 2859              		.loc 3 737 0
 2860 03a0 FB68     		ldr	r3, [r7, #12]
 2861 03a2 B3F91630 		ldrsh	r3, [r3, #22]
 2862 03a6 9AB2     		uxth	r2, r3
 2863 03a8 B7F8C430 		ldrh	r3, [r7, #196]
 2864 03ac 1344     		add	r3, r3, r2
 2865 03ae 9BB2     		uxth	r3, r3
 2866 03b0 1BB2     		sxth	r3, r3
 2867 03b2 A7F86630 		strh	r3, [r7, #102]	@ movhi
ARM GAS  C:\Users\tmj32\AppData\Local\Temp\ccFKuFvs.s 			page 72


 2868 03b6 42E0     		b	.L118
 2869              	.L120:
 738:..\..\..\lvgl\version_6.1.2\lvgl\src\lv_objx/lv_page.c ****             } else if(ext->edge_flash.left_ip) {
 2870              		.loc 3 738 0
 2871 03b8 D7F8C830 		ldr	r3, [r7, #200]
 2872 03bc 93F82830 		ldrb	r3, [r3, #40]	@ zero_extendqisi2
 2873 03c0 03F01003 		and	r3, r3, #16
 2874 03c4 DBB2     		uxtb	r3, r3
 2875 03c6 002B     		cmp	r3, #0
 2876 03c8 39D0     		beq	.L118
 739:..\..\..\lvgl\version_6.1.2\lvgl\src\lv_objx/lv_page.c ****                 flash_area.x1 = page->coords.x1 - 3 * page_h + ext->edge_flash.state;
 2877              		.loc 3 739 0
 2878 03ca FB68     		ldr	r3, [r7, #12]
 2879 03cc B3F91030 		ldrsh	r3, [r3, #16]
 2880 03d0 9AB2     		uxth	r2, r3
 2881 03d2 B7F8C430 		ldrh	r3, [r7, #196]
 2882 03d6 1946     		mov	r1, r3	@ movhi
 2883 03d8 9B00     		lsls	r3, r3, #2
 2884 03da CB1A     		subs	r3, r1, r3
 2885 03dc 9BB2     		uxth	r3, r3
 2886 03de 1344     		add	r3, r3, r2
 2887 03e0 9AB2     		uxth	r2, r3
 2888 03e2 D7F8C830 		ldr	r3, [r7, #200]
 2889 03e6 B3F92030 		ldrsh	r3, [r3, #32]
 2890 03ea 9BB2     		uxth	r3, r3
 2891 03ec 1344     		add	r3, r3, r2
 2892 03ee 9BB2     		uxth	r3, r3
 2893 03f0 1BB2     		sxth	r3, r3
 2894 03f2 A7F86030 		strh	r3, [r7, #96]	@ movhi
 740:..\..\..\lvgl\version_6.1.2\lvgl\src\lv_objx/lv_page.c ****                 flash_area.x2 = page->coords.x1 + ext->edge_flash.state;
 2895              		.loc 3 740 0
 2896 03f6 FB68     		ldr	r3, [r7, #12]
 2897 03f8 B3F91030 		ldrsh	r3, [r3, #16]
 2898 03fc 9AB2     		uxth	r2, r3
 2899 03fe D7F8C830 		ldr	r3, [r7, #200]
 2900 0402 B3F92030 		ldrsh	r3, [r3, #32]
 2901 0406 9BB2     		uxth	r3, r3
 2902 0408 1344     		add	r3, r3, r2
 2903 040a 9BB2     		uxth	r3, r3
 2904 040c 1BB2     		sxth	r3, r3
 2905 040e A7F86430 		strh	r3, [r7, #100]	@ movhi
 741:..\..\..\lvgl\version_6.1.2\lvgl\src\lv_objx/lv_page.c ****                 flash_area.y1 = page->coords.y1 - page_h;
 2906              		.loc 3 741 0
 2907 0412 FB68     		ldr	r3, [r7, #12]
 2908 0414 B3F91230 		ldrsh	r3, [r3, #18]
 2909 0418 9AB2     		uxth	r2, r3
 2910 041a B7F8C430 		ldrh	r3, [r7, #196]
 2911 041e D31A     		subs	r3, r2, r3
 2912 0420 9BB2     		uxth	r3, r3
 2913 0422 1BB2     		sxth	r3, r3
 2914 0424 A7F86230 		strh	r3, [r7, #98]	@ movhi
 742:..\..\..\lvgl\version_6.1.2\lvgl\src\lv_objx/lv_page.c ****                 flash_area.y2 = page->coords.y2 + page_h;
 2915              		.loc 3 742 0
 2916 0428 FB68     		ldr	r3, [r7, #12]
 2917 042a B3F91630 		ldrsh	r3, [r3, #22]
 2918 042e 9AB2     		uxth	r2, r3
 2919 0430 B7F8C430 		ldrh	r3, [r7, #196]
ARM GAS  C:\Users\tmj32\AppData\Local\Temp\ccFKuFvs.s 			page 73


 2920 0434 1344     		add	r3, r3, r2
 2921 0436 9BB2     		uxth	r3, r3
 2922 0438 1BB2     		sxth	r3, r3
 2923 043a A7F86630 		strh	r3, [r7, #102]	@ movhi
 2924              	.L118:
 743:..\..\..\lvgl\version_6.1.2\lvgl\src\lv_objx/lv_page.c ****             }
 744:..\..\..\lvgl\version_6.1.2\lvgl\src\lv_objx/lv_page.c **** 
 745:..\..\..\lvgl\version_6.1.2\lvgl\src\lv_objx/lv_page.c ****             if(ext->edge_flash.left_ip || ext->edge_flash.right_ip || ext->edge_flash.top_ip ||
 2925              		.loc 3 745 0
 2926 043e D7F8C830 		ldr	r3, [r7, #200]
 2927 0442 93F82830 		ldrb	r3, [r3, #40]	@ zero_extendqisi2
 2928 0446 03F01003 		and	r3, r3, #16
 2929 044a DBB2     		uxtb	r3, r3
 2930 044c 002B     		cmp	r3, #0
 2931 044e 1AD1     		bne	.L121
 2932              		.loc 3 745 0 is_stmt 0 discriminator 1
 2933 0450 D7F8C830 		ldr	r3, [r7, #200]
 2934 0454 93F82830 		ldrb	r3, [r3, #40]	@ zero_extendqisi2
 2935 0458 03F00803 		and	r3, r3, #8
 2936 045c DBB2     		uxtb	r3, r3
 2937 045e 002B     		cmp	r3, #0
 2938 0460 11D1     		bne	.L121
 2939              		.loc 3 745 0 discriminator 2
 2940 0462 D7F8C830 		ldr	r3, [r7, #200]
 2941 0466 93F82830 		ldrb	r3, [r3, #40]	@ zero_extendqisi2
 2942 046a 03F00203 		and	r3, r3, #2
 2943 046e DBB2     		uxtb	r3, r3
 2944 0470 002B     		cmp	r3, #0
 2945 0472 08D1     		bne	.L121
 2946              		.loc 3 745 0 discriminator 3
 2947 0474 D7F8C830 		ldr	r3, [r7, #200]
 2948 0478 93F82830 		ldrb	r3, [r3, #40]	@ zero_extendqisi2
 2949 047c 03F00403 		and	r3, r3, #4
 2950 0480 DBB2     		uxtb	r3, r3
 2951 0482 002B     		cmp	r3, #0
 2952 0484 2BD0     		beq	.L114
 2953              	.L121:
 2954              	.LBB8:
 746:..\..\..\lvgl\version_6.1.2\lvgl\src\lv_objx/lv_page.c ****                ext->edge_flash.bottom_ip) {
 747:..\..\..\lvgl\version_6.1.2\lvgl\src\lv_objx/lv_page.c ****                 lv_style_t flash_style;
 748:..\..\..\lvgl\version_6.1.2\lvgl\src\lv_objx/lv_page.c ****                 lv_style_copy(&flash_style, ext->edge_flash.style);
 2955              		.loc 3 748 0 is_stmt 1
 2956 0486 D7F8C830 		ldr	r3, [r7, #200]
 2957 048a 5A6A     		ldr	r2, [r3, #36]
 2958 048c 07F11003 		add	r3, r7, #16
 2959 0490 1146     		mov	r1, r2
 2960 0492 1846     		mov	r0, r3
 2961 0494 FFF7FEFF 		bl	lv_style_copy
 749:..\..\..\lvgl\version_6.1.2\lvgl\src\lv_objx/lv_page.c ****                 flash_style.body.radius = LV_RADIUS_CIRCLE;
 2962              		.loc 3 749 0
 2963 0498 47F61843 		movw	r3, #31768
 2964 049c BB83     		strh	r3, [r7, #28]	@ movhi
 750:..\..\..\lvgl\version_6.1.2\lvgl\src\lv_objx/lv_page.c ****                 uint32_t opa            = (flash_style.body.opa * ext->edge_flash.state) / LV_PAGE_
 2965              		.loc 3 750 0
 2966 049e BB7F     		ldrb	r3, [r7, #30]	@ zero_extendqisi2
 2967 04a0 1A46     		mov	r2, r3
 2968 04a2 D7F8C830 		ldr	r3, [r7, #200]
ARM GAS  C:\Users\tmj32\AppData\Local\Temp\ccFKuFvs.s 			page 74


 2969 04a6 B3F92030 		ldrsh	r3, [r3, #32]
 2970 04aa 03FB02F3 		mul	r3, r3, r2
 2971 04ae 0E4A     		ldr	r2, .L126
 2972 04b0 82FB0312 		smull	r1, r2, r2, r3
 2973 04b4 1A44     		add	r2, r2, r3
 2974 04b6 5211     		asrs	r2, r2, #5
 2975 04b8 DB17     		asrs	r3, r3, #31
 2976 04ba D31A     		subs	r3, r2, r3
 2977 04bc C7F8C030 		str	r3, [r7, #192]
 751:..\..\..\lvgl\version_6.1.2\lvgl\src\lv_objx/lv_page.c ****                 flash_style.body.opa    = opa;
 2978              		.loc 3 751 0
 2979 04c0 D7F8C030 		ldr	r3, [r7, #192]
 2980 04c4 DBB2     		uxtb	r3, r3
 2981 04c6 BB77     		strb	r3, [r7, #30]
 752:..\..\..\lvgl\version_6.1.2\lvgl\src\lv_objx/lv_page.c ****                 lv_draw_rect(&flash_area, mask, &flash_style, lv_obj_get_opa_scale(page));
 2982              		.loc 3 752 0
 2983 04c8 F868     		ldr	r0, [r7, #12]
 2984 04ca FFF7FEFF 		bl	lv_obj_get_opa_scale
 2985 04ce 0346     		mov	r3, r0
 2986 04d0 07F11002 		add	r2, r7, #16
 2987 04d4 07F16000 		add	r0, r7, #96
 2988 04d8 B968     		ldr	r1, [r7, #8]
 2989 04da FFF7FEFF 		bl	lv_draw_rect
 2990              	.L114:
 2991              	.LBE8:
 2992              	.LBE7:
 2993              	.LBE6:
 753:..\..\..\lvgl\version_6.1.2\lvgl\src\lv_objx/lv_page.c ****             }
 754:..\..\..\lvgl\version_6.1.2\lvgl\src\lv_objx/lv_page.c ****         }
 755:..\..\..\lvgl\version_6.1.2\lvgl\src\lv_objx/lv_page.c **** #endif
 756:..\..\..\lvgl\version_6.1.2\lvgl\src\lv_objx/lv_page.c ****     }
 757:..\..\..\lvgl\version_6.1.2\lvgl\src\lv_objx/lv_page.c **** 
 758:..\..\..\lvgl\version_6.1.2\lvgl\src\lv_objx/lv_page.c ****     return true;
 2994              		.loc 3 758 0
 2995 04de 0123     		movs	r3, #1
 2996              	.L123:
 759:..\..\..\lvgl\version_6.1.2\lvgl\src\lv_objx/lv_page.c **** }
 2997              		.loc 3 759 0 discriminator 2
 2998 04e0 1846     		mov	r0, r3
 2999 04e2 D437     		adds	r7, r7, #212
 3000              		.cfi_def_cfa_offset 12
 3001 04e4 BD46     		mov	sp, r7
 3002              		.cfi_def_cfa_register 13
 3003              		@ sp needed
 3004 04e6 90BD     		pop	{r4, r7, pc}
 3005              	.L127:
 3006              		.align	2
 3007              	.L126:
 3008 04e8 A7C867DD 		.word	-580400985
 3009              		.cfi_endproc
 3010              	.LFE69:
 3011              		.size	lv_page_design, .-lv_page_design
 3012              		.section	.text.lv_scrl_design,"ax",%progbits
 3013              		.align	2
 3014              		.thumb
 3015              		.thumb_func
 3016              		.type	lv_scrl_design, %function
ARM GAS  C:\Users\tmj32\AppData\Local\Temp\ccFKuFvs.s 			page 75


 3017              	lv_scrl_design:
 3018              	.LFB70:
 760:..\..\..\lvgl\version_6.1.2\lvgl\src\lv_objx/lv_page.c **** 
 761:..\..\..\lvgl\version_6.1.2\lvgl\src\lv_objx/lv_page.c **** /**
 762:..\..\..\lvgl\version_6.1.2\lvgl\src\lv_objx/lv_page.c ****  * Handle the drawing related tasks of the scrollable object
 763:..\..\..\lvgl\version_6.1.2\lvgl\src\lv_objx/lv_page.c ****  * @param scrl pointer to an object
 764:..\..\..\lvgl\version_6.1.2\lvgl\src\lv_objx/lv_page.c ****  * @param mask the object will be drawn only in this area
 765:..\..\..\lvgl\version_6.1.2\lvgl\src\lv_objx/lv_page.c ****  * @param mode LV_DESIGN_COVER_CHK: only check if the object fully covers the 'mask_p' area
 766:..\..\..\lvgl\version_6.1.2\lvgl\src\lv_objx/lv_page.c ****  *                                  (return 'true' if yes)
 767:..\..\..\lvgl\version_6.1.2\lvgl\src\lv_objx/lv_page.c ****  *             LV_DESIGN_DRAW: draw the object (always return 'true')
 768:..\..\..\lvgl\version_6.1.2\lvgl\src\lv_objx/lv_page.c ****  *             LV_DESIGN_DRAW_POST: drawing after every children are drawn
 769:..\..\..\lvgl\version_6.1.2\lvgl\src\lv_objx/lv_page.c ****  * @param return true/false, depends on 'mode'
 770:..\..\..\lvgl\version_6.1.2\lvgl\src\lv_objx/lv_page.c ****  */
 771:..\..\..\lvgl\version_6.1.2\lvgl\src\lv_objx/lv_page.c **** static bool lv_scrl_design(lv_obj_t * scrl, const lv_area_t * mask, lv_design_mode_t mode)
 772:..\..\..\lvgl\version_6.1.2\lvgl\src\lv_objx/lv_page.c **** {
 3019              		.loc 3 772 0
 3020              		.cfi_startproc
 3021              		@ args = 0, pretend = 0, frame = 16
 3022              		@ frame_needed = 1, uses_anonymous_args = 0
 3023 0000 80B5     		push	{r7, lr}
 3024              		.cfi_def_cfa_offset 8
 3025              		.cfi_offset 7, -8
 3026              		.cfi_offset 14, -4
 3027 0002 84B0     		sub	sp, sp, #16
 3028              		.cfi_def_cfa_offset 24
 3029 0004 00AF     		add	r7, sp, #0
 3030              		.cfi_def_cfa_register 7
 3031 0006 F860     		str	r0, [r7, #12]
 3032 0008 B960     		str	r1, [r7, #8]
 3033 000a 1346     		mov	r3, r2
 3034 000c FB71     		strb	r3, [r7, #7]
 773:..\..\..\lvgl\version_6.1.2\lvgl\src\lv_objx/lv_page.c ****     if(mode == LV_DESIGN_COVER_CHK) {
 3035              		.loc 3 773 0
 3036 000e FB79     		ldrb	r3, [r7, #7]	@ zero_extendqisi2
 3037 0010 022B     		cmp	r3, #2
 3038 0012 07D1     		bne	.L129
 774:..\..\..\lvgl\version_6.1.2\lvgl\src\lv_objx/lv_page.c ****         return ancestor_design(scrl, mask, mode);
 3039              		.loc 3 774 0
 3040 0014 0F4B     		ldr	r3, .L133
 3041 0016 1B68     		ldr	r3, [r3]
 3042 0018 FA79     		ldrb	r2, [r7, #7]	@ zero_extendqisi2
 3043 001a B968     		ldr	r1, [r7, #8]
 3044 001c F868     		ldr	r0, [r7, #12]
 3045 001e 9847     		blx	r3
 3046 0020 0346     		mov	r3, r0
 3047 0022 13E0     		b	.L130
 3048              	.L129:
 775:..\..\..\lvgl\version_6.1.2\lvgl\src\lv_objx/lv_page.c ****     } else if(mode == LV_DESIGN_DRAW_MAIN) {
 3049              		.loc 3 775 0
 3050 0024 FB79     		ldrb	r3, [r7, #7]	@ zero_extendqisi2
 3051 0026 002B     		cmp	r3, #0
 3052 0028 06D1     		bne	.L131
 776:..\..\..\lvgl\version_6.1.2\lvgl\src\lv_objx/lv_page.c **** #if LV_USE_GROUP
 777:..\..\..\lvgl\version_6.1.2\lvgl\src\lv_objx/lv_page.c ****         /* If the page is focused in a group and
 778:..\..\..\lvgl\version_6.1.2\lvgl\src\lv_objx/lv_page.c ****          * the background object is not visible (transparent)
 779:..\..\..\lvgl\version_6.1.2\lvgl\src\lv_objx/lv_page.c ****          * then "activate" the style of the scrollable*/
 780:..\..\..\lvgl\version_6.1.2\lvgl\src\lv_objx/lv_page.c ****         const lv_style_t * style_scrl_ori = lv_obj_get_style(scrl);
ARM GAS  C:\Users\tmj32\AppData\Local\Temp\ccFKuFvs.s 			page 76


 781:..\..\..\lvgl\version_6.1.2\lvgl\src\lv_objx/lv_page.c ****         lv_obj_t * page                   = lv_obj_get_parent(scrl);
 782:..\..\..\lvgl\version_6.1.2\lvgl\src\lv_objx/lv_page.c ****         const lv_style_t * style_page     = lv_obj_get_style(page);
 783:..\..\..\lvgl\version_6.1.2\lvgl\src\lv_objx/lv_page.c ****         lv_group_t * g                    = lv_obj_get_group(page);
 784:..\..\..\lvgl\version_6.1.2\lvgl\src\lv_objx/lv_page.c ****         if((style_page->body.opa == LV_OPA_TRANSP) &&
 785:..\..\..\lvgl\version_6.1.2\lvgl\src\lv_objx/lv_page.c ****            style_page->body.border.width == 0) { /*Is the background visible?*/
 786:..\..\..\lvgl\version_6.1.2\lvgl\src\lv_objx/lv_page.c ****             if(lv_group_get_focused(g) == page) {
 787:..\..\..\lvgl\version_6.1.2\lvgl\src\lv_objx/lv_page.c ****                 lv_style_t * style_mod;
 788:..\..\..\lvgl\version_6.1.2\lvgl\src\lv_objx/lv_page.c ****                 style_mod = lv_group_mod_style(g, style_scrl_ori);
