ARM GAS  C:\Users\tmj32\AppData\Local\Temp\ccFKuFvs.s 			page 1


   1              		.syntax unified
   2              		.cpu cortex-m4
   3              		.eabi_attribute 27, 1
   4              		.fpu fpv4-sp-d16
   5              		.eabi_attribute 20, 1
   6              		.eabi_attribute 21, 1
   7              		.eabi_attribute 23, 3
   8              		.eabi_attribute 24, 1
   9              		.eabi_attribute 25, 1
  10              		.eabi_attribute 26, 1
  11              		.eabi_attribute 30, 6
  12              		.eabi_attribute 34, 1
  13              		.eabi_attribute 18, 4
  14              		.thumb
  15              		.syntax unified
  16              		.file	"lv_page.c"
  17              		.text
  18              	.Ltext0:
  19              		.cfi_sections	.debug_frame
  20              		.section	.text.lv_area_copy,"ax",%progbits
  21              		.align	2
  22              		.thumb
  23              		.thumb_func
  24              		.type	lv_area_copy, %function
  25              	lv_area_copy:
  26              	.LFB10:
  27              		.file 1 "..\\..\\..\\lvgl\\version_6.1.2\\lvgl\\src\\lv_objx\\../lv_objx/../lv_core/../lv_misc/lv_
   1:..\..\..\lvgl\version_6.1.2\lvgl\src\lv_objx\../lv_objx/../lv_core/../lv_misc/lv_area.h **** /**
   2:..\..\..\lvgl\version_6.1.2\lvgl\src\lv_objx\../lv_objx/../lv_core/../lv_misc/lv_area.h ****  * @file lv_area.h
   3:..\..\..\lvgl\version_6.1.2\lvgl\src\lv_objx\../lv_objx/../lv_core/../lv_misc/lv_area.h ****  *
   4:..\..\..\lvgl\version_6.1.2\lvgl\src\lv_objx\../lv_objx/../lv_core/../lv_misc/lv_area.h ****  */
   5:..\..\..\lvgl\version_6.1.2\lvgl\src\lv_objx\../lv_objx/../lv_core/../lv_misc/lv_area.h **** 
   6:..\..\..\lvgl\version_6.1.2\lvgl\src\lv_objx\../lv_objx/../lv_core/../lv_misc/lv_area.h **** #ifndef LV_AREA_H
   7:..\..\..\lvgl\version_6.1.2\lvgl\src\lv_objx\../lv_objx/../lv_core/../lv_misc/lv_area.h **** #define LV_AREA_H
   8:..\..\..\lvgl\version_6.1.2\lvgl\src\lv_objx\../lv_objx/../lv_core/../lv_misc/lv_area.h **** 
   9:..\..\..\lvgl\version_6.1.2\lvgl\src\lv_objx\../lv_objx/../lv_core/../lv_misc/lv_area.h **** #ifdef __cplusplus
  10:..\..\..\lvgl\version_6.1.2\lvgl\src\lv_objx\../lv_objx/../lv_core/../lv_misc/lv_area.h **** extern "C" {
  11:..\..\..\lvgl\version_6.1.2\lvgl\src\lv_objx\../lv_objx/../lv_core/../lv_misc/lv_area.h **** #endif
  12:..\..\..\lvgl\version_6.1.2\lvgl\src\lv_objx\../lv_objx/../lv_core/../lv_misc/lv_area.h **** 
  13:..\..\..\lvgl\version_6.1.2\lvgl\src\lv_objx\../lv_objx/../lv_core/../lv_misc/lv_area.h **** /*********************
  14:..\..\..\lvgl\version_6.1.2\lvgl\src\lv_objx\../lv_objx/../lv_core/../lv_misc/lv_area.h ****  *      INCLUDES
  15:..\..\..\lvgl\version_6.1.2\lvgl\src\lv_objx\../lv_objx/../lv_core/../lv_misc/lv_area.h ****  *********************/
  16:..\..\..\lvgl\version_6.1.2\lvgl\src\lv_objx\../lv_objx/../lv_core/../lv_misc/lv_area.h **** #include <string.h>
  17:..\..\..\lvgl\version_6.1.2\lvgl\src\lv_objx\../lv_objx/../lv_core/../lv_misc/lv_area.h **** #include <stdbool.h>
  18:..\..\..\lvgl\version_6.1.2\lvgl\src\lv_objx\../lv_objx/../lv_core/../lv_misc/lv_area.h **** #include <stdint.h>
  19:..\..\..\lvgl\version_6.1.2\lvgl\src\lv_objx\../lv_objx/../lv_core/../lv_misc/lv_area.h **** #ifdef LV_CONF_INCLUDE_SIMPLE
  20:..\..\..\lvgl\version_6.1.2\lvgl\src\lv_objx\../lv_objx/../lv_core/../lv_misc/lv_area.h **** #include "lv_conf.h"
  21:..\..\..\lvgl\version_6.1.2\lvgl\src\lv_objx\../lv_objx/../lv_core/../lv_misc/lv_area.h **** #else
  22:..\..\..\lvgl\version_6.1.2\lvgl\src\lv_objx\../lv_objx/../lv_core/../lv_misc/lv_area.h **** #include "../../../lv_conf.h"
  23:..\..\..\lvgl\version_6.1.2\lvgl\src\lv_objx\../lv_objx/../lv_core/../lv_misc/lv_area.h **** #endif
  24:..\..\..\lvgl\version_6.1.2\lvgl\src\lv_objx\../lv_objx/../lv_core/../lv_misc/lv_area.h **** 
  25:..\..\..\lvgl\version_6.1.2\lvgl\src\lv_objx\../lv_objx/../lv_core/../lv_misc/lv_area.h **** /*********************
  26:..\..\..\lvgl\version_6.1.2\lvgl\src\lv_objx\../lv_objx/../lv_core/../lv_misc/lv_area.h ****  *      DEFINES
  27:..\..\..\lvgl\version_6.1.2\lvgl\src\lv_objx\../lv_objx/../lv_core/../lv_misc/lv_area.h ****  *********************/
  28:..\..\..\lvgl\version_6.1.2\lvgl\src\lv_objx\../lv_objx/../lv_core/../lv_misc/lv_area.h **** /*To avoid overflow don't let the max ranges (reduce with 1000) */
  29:..\..\..\lvgl\version_6.1.2\lvgl\src\lv_objx\../lv_objx/../lv_core/../lv_misc/lv_area.h **** #define LV_COORD_MAX ((lv_coord_t)((uint32_t)((uint32_t)1 << (8 * sizeof(lv_coord_t) - 1)) - 1000))
  30:..\..\..\lvgl\version_6.1.2\lvgl\src\lv_objx\../lv_objx/../lv_core/../lv_misc/lv_area.h **** #define LV_COORD_MIN (-LV_COORD_MAX)
ARM GAS  C:\Users\tmj32\AppData\Local\Temp\ccFKuFvs.s 			page 2


  31:..\..\..\lvgl\version_6.1.2\lvgl\src\lv_objx\../lv_objx/../lv_core/../lv_misc/lv_area.h **** 
  32:..\..\..\lvgl\version_6.1.2\lvgl\src\lv_objx\../lv_objx/../lv_core/../lv_misc/lv_area.h **** LV_EXPORT_CONST_INT(LV_COORD_MAX);
  33:..\..\..\lvgl\version_6.1.2\lvgl\src\lv_objx\../lv_objx/../lv_core/../lv_misc/lv_area.h **** LV_EXPORT_CONST_INT(LV_COORD_MIN);
  34:..\..\..\lvgl\version_6.1.2\lvgl\src\lv_objx\../lv_objx/../lv_core/../lv_misc/lv_area.h **** 
  35:..\..\..\lvgl\version_6.1.2\lvgl\src\lv_objx\../lv_objx/../lv_core/../lv_misc/lv_area.h **** /**********************
  36:..\..\..\lvgl\version_6.1.2\lvgl\src\lv_objx\../lv_objx/../lv_core/../lv_misc/lv_area.h ****  *      TYPEDEFS
  37:..\..\..\lvgl\version_6.1.2\lvgl\src\lv_objx\../lv_objx/../lv_core/../lv_misc/lv_area.h ****  **********************/
  38:..\..\..\lvgl\version_6.1.2\lvgl\src\lv_objx\../lv_objx/../lv_core/../lv_misc/lv_area.h **** 
  39:..\..\..\lvgl\version_6.1.2\lvgl\src\lv_objx\../lv_objx/../lv_core/../lv_misc/lv_area.h **** /**
  40:..\..\..\lvgl\version_6.1.2\lvgl\src\lv_objx\../lv_objx/../lv_core/../lv_misc/lv_area.h ****  * Represents a point on the screen.
  41:..\..\..\lvgl\version_6.1.2\lvgl\src\lv_objx\../lv_objx/../lv_core/../lv_misc/lv_area.h ****  */
  42:..\..\..\lvgl\version_6.1.2\lvgl\src\lv_objx\../lv_objx/../lv_core/../lv_misc/lv_area.h **** typedef struct
  43:..\..\..\lvgl\version_6.1.2\lvgl\src\lv_objx\../lv_objx/../lv_core/../lv_misc/lv_area.h **** {
  44:..\..\..\lvgl\version_6.1.2\lvgl\src\lv_objx\../lv_objx/../lv_core/../lv_misc/lv_area.h ****     lv_coord_t x;
  45:..\..\..\lvgl\version_6.1.2\lvgl\src\lv_objx\../lv_objx/../lv_core/../lv_misc/lv_area.h ****     lv_coord_t y;
  46:..\..\..\lvgl\version_6.1.2\lvgl\src\lv_objx\../lv_objx/../lv_core/../lv_misc/lv_area.h **** } lv_point_t;
  47:..\..\..\lvgl\version_6.1.2\lvgl\src\lv_objx\../lv_objx/../lv_core/../lv_misc/lv_area.h **** 
  48:..\..\..\lvgl\version_6.1.2\lvgl\src\lv_objx\../lv_objx/../lv_core/../lv_misc/lv_area.h **** /** Represents an area of the screen. */
  49:..\..\..\lvgl\version_6.1.2\lvgl\src\lv_objx\../lv_objx/../lv_core/../lv_misc/lv_area.h **** typedef struct
  50:..\..\..\lvgl\version_6.1.2\lvgl\src\lv_objx\../lv_objx/../lv_core/../lv_misc/lv_area.h **** {
  51:..\..\..\lvgl\version_6.1.2\lvgl\src\lv_objx\../lv_objx/../lv_core/../lv_misc/lv_area.h ****     lv_coord_t x1;
  52:..\..\..\lvgl\version_6.1.2\lvgl\src\lv_objx\../lv_objx/../lv_core/../lv_misc/lv_area.h ****     lv_coord_t y1;
  53:..\..\..\lvgl\version_6.1.2\lvgl\src\lv_objx\../lv_objx/../lv_core/../lv_misc/lv_area.h ****     lv_coord_t x2;
  54:..\..\..\lvgl\version_6.1.2\lvgl\src\lv_objx\../lv_objx/../lv_core/../lv_misc/lv_area.h ****     lv_coord_t y2;
  55:..\..\..\lvgl\version_6.1.2\lvgl\src\lv_objx\../lv_objx/../lv_core/../lv_misc/lv_area.h **** } lv_area_t;
  56:..\..\..\lvgl\version_6.1.2\lvgl\src\lv_objx\../lv_objx/../lv_core/../lv_misc/lv_area.h **** 
  57:..\..\..\lvgl\version_6.1.2\lvgl\src\lv_objx\../lv_objx/../lv_core/../lv_misc/lv_area.h **** /**********************
  58:..\..\..\lvgl\version_6.1.2\lvgl\src\lv_objx\../lv_objx/../lv_core/../lv_misc/lv_area.h ****  * GLOBAL PROTOTYPES
  59:..\..\..\lvgl\version_6.1.2\lvgl\src\lv_objx\../lv_objx/../lv_core/../lv_misc/lv_area.h ****  **********************/
  60:..\..\..\lvgl\version_6.1.2\lvgl\src\lv_objx\../lv_objx/../lv_core/../lv_misc/lv_area.h **** 
  61:..\..\..\lvgl\version_6.1.2\lvgl\src\lv_objx\../lv_objx/../lv_core/../lv_misc/lv_area.h **** /**
  62:..\..\..\lvgl\version_6.1.2\lvgl\src\lv_objx\../lv_objx/../lv_core/../lv_misc/lv_area.h ****  * Initialize an area
  63:..\..\..\lvgl\version_6.1.2\lvgl\src\lv_objx\../lv_objx/../lv_core/../lv_misc/lv_area.h ****  * @param area_p pointer to an area
  64:..\..\..\lvgl\version_6.1.2\lvgl\src\lv_objx\../lv_objx/../lv_core/../lv_misc/lv_area.h ****  * @param x1 left coordinate of the area
  65:..\..\..\lvgl\version_6.1.2\lvgl\src\lv_objx\../lv_objx/../lv_core/../lv_misc/lv_area.h ****  * @param y1 top coordinate of the area
  66:..\..\..\lvgl\version_6.1.2\lvgl\src\lv_objx\../lv_objx/../lv_core/../lv_misc/lv_area.h ****  * @param x2 right coordinate of the area
  67:..\..\..\lvgl\version_6.1.2\lvgl\src\lv_objx\../lv_objx/../lv_core/../lv_misc/lv_area.h ****  * @param y2 bottom coordinate of the area
  68:..\..\..\lvgl\version_6.1.2\lvgl\src\lv_objx\../lv_objx/../lv_core/../lv_misc/lv_area.h ****  */
  69:..\..\..\lvgl\version_6.1.2\lvgl\src\lv_objx\../lv_objx/../lv_core/../lv_misc/lv_area.h **** void lv_area_set(lv_area_t * area_p, lv_coord_t x1, lv_coord_t y1, lv_coord_t x2, lv_coord_t y2);
  70:..\..\..\lvgl\version_6.1.2\lvgl\src\lv_objx\../lv_objx/../lv_core/../lv_misc/lv_area.h **** 
  71:..\..\..\lvgl\version_6.1.2\lvgl\src\lv_objx\../lv_objx/../lv_core/../lv_misc/lv_area.h **** /**
  72:..\..\..\lvgl\version_6.1.2\lvgl\src\lv_objx\../lv_objx/../lv_core/../lv_misc/lv_area.h ****  * Copy an area
  73:..\..\..\lvgl\version_6.1.2\lvgl\src\lv_objx\../lv_objx/../lv_core/../lv_misc/lv_area.h ****  * @param dest pointer to the destination area
  74:..\..\..\lvgl\version_6.1.2\lvgl\src\lv_objx\../lv_objx/../lv_core/../lv_misc/lv_area.h ****  * @param src pointer to the source area
  75:..\..\..\lvgl\version_6.1.2\lvgl\src\lv_objx\../lv_objx/../lv_core/../lv_misc/lv_area.h ****  */
  76:..\..\..\lvgl\version_6.1.2\lvgl\src\lv_objx\../lv_objx/../lv_core/../lv_misc/lv_area.h **** inline static void lv_area_copy(lv_area_t * dest, const lv_area_t * src)
  77:..\..\..\lvgl\version_6.1.2\lvgl\src\lv_objx\../lv_objx/../lv_core/../lv_misc/lv_area.h **** {
  28              		.loc 1 77 0
  29              		.cfi_startproc
  30              		@ args = 0, pretend = 0, frame = 8
  31              		@ frame_needed = 1, uses_anonymous_args = 0
  32 0000 80B5     		push	{r7, lr}
  33              		.cfi_def_cfa_offset 8
  34              		.cfi_offset 7, -8
  35              		.cfi_offset 14, -4
  36 0002 82B0     		sub	sp, sp, #8
  37              		.cfi_def_cfa_offset 16
ARM GAS  C:\Users\tmj32\AppData\Local\Temp\ccFKuFvs.s 			page 3


  38 0004 00AF     		add	r7, sp, #0
  39              		.cfi_def_cfa_register 7
  40 0006 7860     		str	r0, [r7, #4]
  41 0008 3960     		str	r1, [r7]
  78:..\..\..\lvgl\version_6.1.2\lvgl\src\lv_objx\../lv_objx/../lv_core/../lv_misc/lv_area.h ****     memcpy(dest, src, sizeof(lv_area_t));
  42              		.loc 1 78 0
  43 000a 0822     		movs	r2, #8
  44 000c 3968     		ldr	r1, [r7]
  45 000e 7868     		ldr	r0, [r7, #4]
  46 0010 FFF7FEFF 		bl	memcpy
  79:..\..\..\lvgl\version_6.1.2\lvgl\src\lv_objx\../lv_objx/../lv_core/../lv_misc/lv_area.h **** }
  47              		.loc 1 79 0
  48 0014 00BF     		nop
  49 0016 0837     		adds	r7, r7, #8
  50              		.cfi_def_cfa_offset 8
  51 0018 BD46     		mov	sp, r7
  52              		.cfi_def_cfa_register 13
  53              		@ sp needed
  54 001a 80BD     		pop	{r7, pc}
  55              		.cfi_endproc
  56              	.LFE10:
  57              		.size	lv_area_copy, .-lv_area_copy
  58              		.section	.text.lv_area_get_width,"ax",%progbits
  59              		.align	2
  60              		.thumb
  61              		.thumb_func
  62              		.type	lv_area_get_width, %function
  63              	lv_area_get_width:
  64              	.LFB11:
  80:..\..\..\lvgl\version_6.1.2\lvgl\src\lv_objx\../lv_objx/../lv_core/../lv_misc/lv_area.h **** 
  81:..\..\..\lvgl\version_6.1.2\lvgl\src\lv_objx\../lv_objx/../lv_core/../lv_misc/lv_area.h **** /**
  82:..\..\..\lvgl\version_6.1.2\lvgl\src\lv_objx\../lv_objx/../lv_core/../lv_misc/lv_area.h ****  * Get the width of an area
  83:..\..\..\lvgl\version_6.1.2\lvgl\src\lv_objx\../lv_objx/../lv_core/../lv_misc/lv_area.h ****  * @param area_p pointer to an area
  84:..\..\..\lvgl\version_6.1.2\lvgl\src\lv_objx\../lv_objx/../lv_core/../lv_misc/lv_area.h ****  * @return the width of the area (if x1 == x2 -> width = 1)
  85:..\..\..\lvgl\version_6.1.2\lvgl\src\lv_objx\../lv_objx/../lv_core/../lv_misc/lv_area.h ****  */
  86:..\..\..\lvgl\version_6.1.2\lvgl\src\lv_objx\../lv_objx/../lv_core/../lv_misc/lv_area.h **** static inline lv_coord_t lv_area_get_width(const lv_area_t * area_p)
  87:..\..\..\lvgl\version_6.1.2\lvgl\src\lv_objx\../lv_objx/../lv_core/../lv_misc/lv_area.h **** {
  65              		.loc 1 87 0
  66              		.cfi_startproc
  67              		@ args = 0, pretend = 0, frame = 8
  68              		@ frame_needed = 1, uses_anonymous_args = 0
  69              		@ link register save eliminated.
  70 0000 80B4     		push	{r7}
  71              		.cfi_def_cfa_offset 4
  72              		.cfi_offset 7, -4
  73 0002 83B0     		sub	sp, sp, #12
  74              		.cfi_def_cfa_offset 16
  75 0004 00AF     		add	r7, sp, #0
  76              		.cfi_def_cfa_register 7
  77 0006 7860     		str	r0, [r7, #4]
  88:..\..\..\lvgl\version_6.1.2\lvgl\src\lv_objx\../lv_objx/../lv_core/../lv_misc/lv_area.h ****     return (lv_coord_t)(area_p->x2 - area_p->x1 + 1);
  78              		.loc 1 88 0
  79 0008 7B68     		ldr	r3, [r7, #4]
  80 000a B3F90430 		ldrsh	r3, [r3, #4]
  81 000e 9AB2     		uxth	r2, r3
  82 0010 7B68     		ldr	r3, [r7, #4]
  83 0012 B3F90030 		ldrsh	r3, [r3]
ARM GAS  C:\Users\tmj32\AppData\Local\Temp\ccFKuFvs.s 			page 4


  84 0016 9BB2     		uxth	r3, r3
  85 0018 D31A     		subs	r3, r2, r3
  86 001a 9BB2     		uxth	r3, r3
  87 001c 0133     		adds	r3, r3, #1
  88 001e 9BB2     		uxth	r3, r3
  89 0020 1BB2     		sxth	r3, r3
  89:..\..\..\lvgl\version_6.1.2\lvgl\src\lv_objx\../lv_objx/../lv_core/../lv_misc/lv_area.h **** }
  90              		.loc 1 89 0
  91 0022 1846     		mov	r0, r3
  92 0024 0C37     		adds	r7, r7, #12
  93              		.cfi_def_cfa_offset 4
  94 0026 BD46     		mov	sp, r7
  95              		.cfi_def_cfa_register 13
  96              		@ sp needed
  97 0028 5DF8047B 		ldr	r7, [sp], #4
  98              		.cfi_restore 7
  99              		.cfi_def_cfa_offset 0
 100 002c 7047     		bx	lr
 101              		.cfi_endproc
 102              	.LFE11:
 103              		.size	lv_area_get_width, .-lv_area_get_width
 104 002e 00BF     		.section	.text.lv_area_get_height,"ax",%progbits
 105              		.align	2
 106              		.thumb
 107              		.thumb_func
 108              		.type	lv_area_get_height, %function
 109              	lv_area_get_height:
 110              	.LFB12:
  90:..\..\..\lvgl\version_6.1.2\lvgl\src\lv_objx\../lv_objx/../lv_core/../lv_misc/lv_area.h **** 
  91:..\..\..\lvgl\version_6.1.2\lvgl\src\lv_objx\../lv_objx/../lv_core/../lv_misc/lv_area.h **** /**
  92:..\..\..\lvgl\version_6.1.2\lvgl\src\lv_objx\../lv_objx/../lv_core/../lv_misc/lv_area.h ****  * Get the height of an area
  93:..\..\..\lvgl\version_6.1.2\lvgl\src\lv_objx\../lv_objx/../lv_core/../lv_misc/lv_area.h ****  * @param area_p pointer to an area
  94:..\..\..\lvgl\version_6.1.2\lvgl\src\lv_objx\../lv_objx/../lv_core/../lv_misc/lv_area.h ****  * @return the height of the area (if y1 == y2 -> height = 1)
  95:..\..\..\lvgl\version_6.1.2\lvgl\src\lv_objx\../lv_objx/../lv_core/../lv_misc/lv_area.h ****  */
  96:..\..\..\lvgl\version_6.1.2\lvgl\src\lv_objx\../lv_objx/../lv_core/../lv_misc/lv_area.h **** static inline lv_coord_t lv_area_get_height(const lv_area_t * area_p)
  97:..\..\..\lvgl\version_6.1.2\lvgl\src\lv_objx\../lv_objx/../lv_core/../lv_misc/lv_area.h **** {
 111              		.loc 1 97 0
 112              		.cfi_startproc
 113              		@ args = 0, pretend = 0, frame = 8
 114              		@ frame_needed = 1, uses_anonymous_args = 0
 115              		@ link register save eliminated.
 116 0000 80B4     		push	{r7}
 117              		.cfi_def_cfa_offset 4
 118              		.cfi_offset 7, -4
 119 0002 83B0     		sub	sp, sp, #12
 120              		.cfi_def_cfa_offset 16
 121 0004 00AF     		add	r7, sp, #0
 122              		.cfi_def_cfa_register 7
 123 0006 7860     		str	r0, [r7, #4]
  98:..\..\..\lvgl\version_6.1.2\lvgl\src\lv_objx\../lv_objx/../lv_core/../lv_misc/lv_area.h ****     return (lv_coord_t)(area_p->y2 - area_p->y1 + 1);
 124              		.loc 1 98 0
 125 0008 7B68     		ldr	r3, [r7, #4]
 126 000a B3F90630 		ldrsh	r3, [r3, #6]
 127 000e 9AB2     		uxth	r2, r3
 128 0010 7B68     		ldr	r3, [r7, #4]
 129 0012 B3F90230 		ldrsh	r3, [r3, #2]
 130 0016 9BB2     		uxth	r3, r3
ARM GAS  C:\Users\tmj32\AppData\Local\Temp\ccFKuFvs.s 			page 5


 131 0018 D31A     		subs	r3, r2, r3
 132 001a 9BB2     		uxth	r3, r3
 133 001c 0133     		adds	r3, r3, #1
 134 001e 9BB2     		uxth	r3, r3
 135 0020 1BB2     		sxth	r3, r3
  99:..\..\..\lvgl\version_6.1.2\lvgl\src\lv_objx\../lv_objx/../lv_core/../lv_misc/lv_area.h **** }
 136              		.loc 1 99 0
 137 0022 1846     		mov	r0, r3
 138 0024 0C37     		adds	r7, r7, #12
 139              		.cfi_def_cfa_offset 4
 140 0026 BD46     		mov	sp, r7
 141              		.cfi_def_cfa_register 13
 142              		@ sp needed
 143 0028 5DF8047B 		ldr	r7, [sp], #4
 144              		.cfi_restore 7
 145              		.cfi_def_cfa_offset 0
 146 002c 7047     		bx	lr
 147              		.cfi_endproc
 148              	.LFE12:
 149              		.size	lv_area_get_height, .-lv_area_get_height
 150 002e 00BF     		.section	.text.lv_page_get_scrl_width,"ax",%progbits
 151              		.align	2
 152              		.thumb
 153              		.thumb_func
 154              		.type	lv_page_get_scrl_width, %function
 155              	lv_page_get_scrl_width:
 156              	.LFB41:
 157              		.file 2 "..\\..\\..\\lvgl\\version_6.1.2\\lvgl\\src\\lv_objx\\../lv_objx/lv_page.h"
   1:..\..\..\lvgl\version_6.1.2\lvgl\src\lv_objx\../lv_objx/lv_page.h **** /**
   2:..\..\..\lvgl\version_6.1.2\lvgl\src\lv_objx\../lv_objx/lv_page.h ****  * @file lv_page.h
   3:..\..\..\lvgl\version_6.1.2\lvgl\src\lv_objx\../lv_objx/lv_page.h ****  *
   4:..\..\..\lvgl\version_6.1.2\lvgl\src\lv_objx\../lv_objx/lv_page.h ****  */
   5:..\..\..\lvgl\version_6.1.2\lvgl\src\lv_objx\../lv_objx/lv_page.h **** 
   6:..\..\..\lvgl\version_6.1.2\lvgl\src\lv_objx\../lv_objx/lv_page.h **** #ifndef LV_PAGE_H
   7:..\..\..\lvgl\version_6.1.2\lvgl\src\lv_objx\../lv_objx/lv_page.h **** #define LV_PAGE_H
   8:..\..\..\lvgl\version_6.1.2\lvgl\src\lv_objx\../lv_objx/lv_page.h **** 
   9:..\..\..\lvgl\version_6.1.2\lvgl\src\lv_objx\../lv_objx/lv_page.h **** #ifdef __cplusplus
  10:..\..\..\lvgl\version_6.1.2\lvgl\src\lv_objx\../lv_objx/lv_page.h **** extern "C" {
  11:..\..\..\lvgl\version_6.1.2\lvgl\src\lv_objx\../lv_objx/lv_page.h **** #endif
  12:..\..\..\lvgl\version_6.1.2\lvgl\src\lv_objx\../lv_objx/lv_page.h **** 
  13:..\..\..\lvgl\version_6.1.2\lvgl\src\lv_objx\../lv_objx/lv_page.h **** /*********************
  14:..\..\..\lvgl\version_6.1.2\lvgl\src\lv_objx\../lv_objx/lv_page.h ****  *      INCLUDES
  15:..\..\..\lvgl\version_6.1.2\lvgl\src\lv_objx\../lv_objx/lv_page.h ****  *********************/
  16:..\..\..\lvgl\version_6.1.2\lvgl\src\lv_objx\../lv_objx/lv_page.h **** #ifdef LV_CONF_INCLUDE_SIMPLE
  17:..\..\..\lvgl\version_6.1.2\lvgl\src\lv_objx\../lv_objx/lv_page.h **** #include "lv_conf.h"
  18:..\..\..\lvgl\version_6.1.2\lvgl\src\lv_objx\../lv_objx/lv_page.h **** #else
  19:..\..\..\lvgl\version_6.1.2\lvgl\src\lv_objx\../lv_objx/lv_page.h **** #include "../../../lv_conf.h"
  20:..\..\..\lvgl\version_6.1.2\lvgl\src\lv_objx\../lv_objx/lv_page.h **** #endif
  21:..\..\..\lvgl\version_6.1.2\lvgl\src\lv_objx\../lv_objx/lv_page.h **** 
  22:..\..\..\lvgl\version_6.1.2\lvgl\src\lv_objx\../lv_objx/lv_page.h **** #if LV_USE_PAGE != 0
  23:..\..\..\lvgl\version_6.1.2\lvgl\src\lv_objx\../lv_objx/lv_page.h **** 
  24:..\..\..\lvgl\version_6.1.2\lvgl\src\lv_objx\../lv_objx/lv_page.h **** /*Testing of dependencies*/
  25:..\..\..\lvgl\version_6.1.2\lvgl\src\lv_objx\../lv_objx/lv_page.h **** #if LV_USE_CONT == 0
  26:..\..\..\lvgl\version_6.1.2\lvgl\src\lv_objx\../lv_objx/lv_page.h **** #error "lv_page: lv_cont is required. Enable it in lv_conf.h (LV_USE_CONT  1) "
  27:..\..\..\lvgl\version_6.1.2\lvgl\src\lv_objx\../lv_objx/lv_page.h **** #endif
  28:..\..\..\lvgl\version_6.1.2\lvgl\src\lv_objx\../lv_objx/lv_page.h **** 
  29:..\..\..\lvgl\version_6.1.2\lvgl\src\lv_objx\../lv_objx/lv_page.h **** #include "lv_cont.h"
ARM GAS  C:\Users\tmj32\AppData\Local\Temp\ccFKuFvs.s 			page 6


  30:..\..\..\lvgl\version_6.1.2\lvgl\src\lv_objx\../lv_objx/lv_page.h **** #include "../lv_core/lv_indev.h"
  31:..\..\..\lvgl\version_6.1.2\lvgl\src\lv_objx\../lv_objx/lv_page.h **** #include "../lv_misc/lv_anim.h"
  32:..\..\..\lvgl\version_6.1.2\lvgl\src\lv_objx\../lv_objx/lv_page.h **** 
  33:..\..\..\lvgl\version_6.1.2\lvgl\src\lv_objx\../lv_objx/lv_page.h **** /*********************
  34:..\..\..\lvgl\version_6.1.2\lvgl\src\lv_objx\../lv_objx/lv_page.h ****  *      DEFINES
  35:..\..\..\lvgl\version_6.1.2\lvgl\src\lv_objx\../lv_objx/lv_page.h ****  *********************/
  36:..\..\..\lvgl\version_6.1.2\lvgl\src\lv_objx\../lv_objx/lv_page.h **** 
  37:..\..\..\lvgl\version_6.1.2\lvgl\src\lv_objx\../lv_objx/lv_page.h **** /**********************
  38:..\..\..\lvgl\version_6.1.2\lvgl\src\lv_objx\../lv_objx/lv_page.h ****  *      TYPEDEFS
  39:..\..\..\lvgl\version_6.1.2\lvgl\src\lv_objx\../lv_objx/lv_page.h ****  **********************/
  40:..\..\..\lvgl\version_6.1.2\lvgl\src\lv_objx\../lv_objx/lv_page.h **** 
  41:..\..\..\lvgl\version_6.1.2\lvgl\src\lv_objx\../lv_objx/lv_page.h **** /** Scrollbar modes: shows when should the scrollbars be visible*/
  42:..\..\..\lvgl\version_6.1.2\lvgl\src\lv_objx\../lv_objx/lv_page.h **** enum {
  43:..\..\..\lvgl\version_6.1.2\lvgl\src\lv_objx\../lv_objx/lv_page.h ****     LV_SB_MODE_OFF    = 0x0, /**< Never show scrollbars*/
  44:..\..\..\lvgl\version_6.1.2\lvgl\src\lv_objx\../lv_objx/lv_page.h ****     LV_SB_MODE_ON     = 0x1, /**< Always show scrollbars*/
  45:..\..\..\lvgl\version_6.1.2\lvgl\src\lv_objx\../lv_objx/lv_page.h ****     LV_SB_MODE_DRAG   = 0x2, /**< Show scrollbars when page is being dragged*/
  46:..\..\..\lvgl\version_6.1.2\lvgl\src\lv_objx\../lv_objx/lv_page.h ****     LV_SB_MODE_AUTO   = 0x3, /**< Show scrollbars when the scrollable container is large enough to 
  47:..\..\..\lvgl\version_6.1.2\lvgl\src\lv_objx\../lv_objx/lv_page.h ****     LV_SB_MODE_HIDE   = 0x4, /**< Hide the scroll bar temporally*/
  48:..\..\..\lvgl\version_6.1.2\lvgl\src\lv_objx\../lv_objx/lv_page.h ****     LV_SB_MODE_UNHIDE = 0x5, /**< Unhide the previously hidden scrollbar. Recover it's type too*/
  49:..\..\..\lvgl\version_6.1.2\lvgl\src\lv_objx\../lv_objx/lv_page.h **** };
  50:..\..\..\lvgl\version_6.1.2\lvgl\src\lv_objx\../lv_objx/lv_page.h **** typedef uint8_t lv_sb_mode_t;
  51:..\..\..\lvgl\version_6.1.2\lvgl\src\lv_objx\../lv_objx/lv_page.h **** 
  52:..\..\..\lvgl\version_6.1.2\lvgl\src\lv_objx\../lv_objx/lv_page.h **** /** Edges: describes the four edges of the page*/
  53:..\..\..\lvgl\version_6.1.2\lvgl\src\lv_objx\../lv_objx/lv_page.h **** enum { LV_PAGE_EDGE_LEFT = 0x1, LV_PAGE_EDGE_TOP = 0x2, LV_PAGE_EDGE_RIGHT = 0x4, LV_PAGE_EDGE_BOTT
  54:..\..\..\lvgl\version_6.1.2\lvgl\src\lv_objx\../lv_objx/lv_page.h **** typedef uint8_t lv_page_edge_t;
  55:..\..\..\lvgl\version_6.1.2\lvgl\src\lv_objx\../lv_objx/lv_page.h **** 
  56:..\..\..\lvgl\version_6.1.2\lvgl\src\lv_objx\../lv_objx/lv_page.h **** /*Data of page*/
  57:..\..\..\lvgl\version_6.1.2\lvgl\src\lv_objx\../lv_objx/lv_page.h **** typedef struct
  58:..\..\..\lvgl\version_6.1.2\lvgl\src\lv_objx\../lv_objx/lv_page.h **** {
  59:..\..\..\lvgl\version_6.1.2\lvgl\src\lv_objx\../lv_objx/lv_page.h ****     lv_cont_ext_t bg; /*Ext. of ancestor*/
  60:..\..\..\lvgl\version_6.1.2\lvgl\src\lv_objx\../lv_objx/lv_page.h ****     /*New data for this type */
  61:..\..\..\lvgl\version_6.1.2\lvgl\src\lv_objx\../lv_objx/lv_page.h ****     lv_obj_t * scrl; /*The scrollable object on the background*/
  62:..\..\..\lvgl\version_6.1.2\lvgl\src\lv_objx\../lv_objx/lv_page.h ****     struct
  63:..\..\..\lvgl\version_6.1.2\lvgl\src\lv_objx\../lv_objx/lv_page.h ****     {
  64:..\..\..\lvgl\version_6.1.2\lvgl\src\lv_objx\../lv_objx/lv_page.h ****         const lv_style_t * style; /*Style of scrollbars*/
  65:..\..\..\lvgl\version_6.1.2\lvgl\src\lv_objx\../lv_objx/lv_page.h ****         lv_area_t hor_area;       /*Horizontal scrollbar area relative to the page. (Handled by the
  66:..\..\..\lvgl\version_6.1.2\lvgl\src\lv_objx\../lv_objx/lv_page.h ****         lv_area_t ver_area;       /*Vertical scrollbar area relative to the page (Handled by the li
  67:..\..\..\lvgl\version_6.1.2\lvgl\src\lv_objx\../lv_objx/lv_page.h ****         uint8_t hor_draw : 1;     /*1: horizontal scrollbar is visible now (Handled by the library)
  68:..\..\..\lvgl\version_6.1.2\lvgl\src\lv_objx\../lv_objx/lv_page.h ****         uint8_t ver_draw : 1;     /*1: vertical scrollbar is visible now (Handled by the library)*/
  69:..\..\..\lvgl\version_6.1.2\lvgl\src\lv_objx\../lv_objx/lv_page.h ****         lv_sb_mode_t mode : 3;    /*Scrollbar visibility from 'lv_page_sb_mode_t'*/
  70:..\..\..\lvgl\version_6.1.2\lvgl\src\lv_objx\../lv_objx/lv_page.h ****     } sb;
  71:..\..\..\lvgl\version_6.1.2\lvgl\src\lv_objx\../lv_objx/lv_page.h **** #if LV_USE_ANIMATION
  72:..\..\..\lvgl\version_6.1.2\lvgl\src\lv_objx\../lv_objx/lv_page.h ****     struct
  73:..\..\..\lvgl\version_6.1.2\lvgl\src\lv_objx\../lv_objx/lv_page.h ****     {
  74:..\..\..\lvgl\version_6.1.2\lvgl\src\lv_objx\../lv_objx/lv_page.h ****         lv_anim_value_t state;    /*Store the current size of the edge flash effect*/
  75:..\..\..\lvgl\version_6.1.2\lvgl\src\lv_objx\../lv_objx/lv_page.h ****         const lv_style_t * style; /*Style of edge flash effect (usually homogeneous circle)*/
  76:..\..\..\lvgl\version_6.1.2\lvgl\src\lv_objx\../lv_objx/lv_page.h ****         uint8_t enabled : 1;      /*1: Show a flash animation on the edge*/
  77:..\..\..\lvgl\version_6.1.2\lvgl\src\lv_objx\../lv_objx/lv_page.h ****         uint8_t top_ip : 1;       /*Used internally to show that top most position is reached (flas
  78:..\..\..\lvgl\version_6.1.2\lvgl\src\lv_objx\../lv_objx/lv_page.h ****                                      Progress)*/
  79:..\..\..\lvgl\version_6.1.2\lvgl\src\lv_objx\../lv_objx/lv_page.h ****         uint8_t bottom_ip : 1;    /*Used internally to show that bottom most position is reached (f
  80:..\..\..\lvgl\version_6.1.2\lvgl\src\lv_objx\../lv_objx/lv_page.h ****                                      is In Progress)*/
  81:..\..\..\lvgl\version_6.1.2\lvgl\src\lv_objx\../lv_objx/lv_page.h ****         uint8_t right_ip : 1;     /*Used internally to show that right most position is reached (fl
  82:..\..\..\lvgl\version_6.1.2\lvgl\src\lv_objx\../lv_objx/lv_page.h ****                                      is In Progress)*/
  83:..\..\..\lvgl\version_6.1.2\lvgl\src\lv_objx\../lv_objx/lv_page.h ****         uint8_t left_ip : 1;      /*Used internally to show that left most position is reached (fla
  84:..\..\..\lvgl\version_6.1.2\lvgl\src\lv_objx\../lv_objx/lv_page.h ****                                      In Progress)*/
  85:..\..\..\lvgl\version_6.1.2\lvgl\src\lv_objx\../lv_objx/lv_page.h ****     } edge_flash;
  86:..\..\..\lvgl\version_6.1.2\lvgl\src\lv_objx\../lv_objx/lv_page.h **** 
ARM GAS  C:\Users\tmj32\AppData\Local\Temp\ccFKuFvs.s 			page 7


  87:..\..\..\lvgl\version_6.1.2\lvgl\src\lv_objx\../lv_objx/lv_page.h ****     uint16_t anim_time; /*Scroll animation time*/
  88:..\..\..\lvgl\version_6.1.2\lvgl\src\lv_objx\../lv_objx/lv_page.h **** #endif
  89:..\..\..\lvgl\version_6.1.2\lvgl\src\lv_objx\../lv_objx/lv_page.h **** 
  90:..\..\..\lvgl\version_6.1.2\lvgl\src\lv_objx\../lv_objx/lv_page.h ****     uint8_t scroll_prop : 1;    /*1: Propagate the scrolling the the parent if the edge is reached*
  91:..\..\..\lvgl\version_6.1.2\lvgl\src\lv_objx\../lv_objx/lv_page.h ****     uint8_t scroll_prop_ip : 1; /*1: Scroll propagation is in progress (used by the library)*/
  92:..\..\..\lvgl\version_6.1.2\lvgl\src\lv_objx\../lv_objx/lv_page.h **** } lv_page_ext_t;
  93:..\..\..\lvgl\version_6.1.2\lvgl\src\lv_objx\../lv_objx/lv_page.h **** 
  94:..\..\..\lvgl\version_6.1.2\lvgl\src\lv_objx\../lv_objx/lv_page.h **** enum {
  95:..\..\..\lvgl\version_6.1.2\lvgl\src\lv_objx\../lv_objx/lv_page.h ****     LV_PAGE_STYLE_BG,
  96:..\..\..\lvgl\version_6.1.2\lvgl\src\lv_objx\../lv_objx/lv_page.h ****     LV_PAGE_STYLE_SCRL,
  97:..\..\..\lvgl\version_6.1.2\lvgl\src\lv_objx\../lv_objx/lv_page.h ****     LV_PAGE_STYLE_SB,
  98:..\..\..\lvgl\version_6.1.2\lvgl\src\lv_objx\../lv_objx/lv_page.h ****     LV_PAGE_STYLE_EDGE_FLASH,
  99:..\..\..\lvgl\version_6.1.2\lvgl\src\lv_objx\../lv_objx/lv_page.h **** };
 100:..\..\..\lvgl\version_6.1.2\lvgl\src\lv_objx\../lv_objx/lv_page.h **** typedef uint8_t lv_page_style_t;
 101:..\..\..\lvgl\version_6.1.2\lvgl\src\lv_objx\../lv_objx/lv_page.h **** 
 102:..\..\..\lvgl\version_6.1.2\lvgl\src\lv_objx\../lv_objx/lv_page.h **** /**********************
 103:..\..\..\lvgl\version_6.1.2\lvgl\src\lv_objx\../lv_objx/lv_page.h ****  * GLOBAL PROTOTYPES
 104:..\..\..\lvgl\version_6.1.2\lvgl\src\lv_objx\../lv_objx/lv_page.h ****  **********************/
 105:..\..\..\lvgl\version_6.1.2\lvgl\src\lv_objx\../lv_objx/lv_page.h **** 
 106:..\..\..\lvgl\version_6.1.2\lvgl\src\lv_objx\../lv_objx/lv_page.h **** /**
 107:..\..\..\lvgl\version_6.1.2\lvgl\src\lv_objx\../lv_objx/lv_page.h ****  * Create a page objects
 108:..\..\..\lvgl\version_6.1.2\lvgl\src\lv_objx\../lv_objx/lv_page.h ****  * @param par pointer to an object, it will be the parent of the new page
 109:..\..\..\lvgl\version_6.1.2\lvgl\src\lv_objx\../lv_objx/lv_page.h ****  * @param copy pointer to a page object, if not NULL then the new object will be copied from it
 110:..\..\..\lvgl\version_6.1.2\lvgl\src\lv_objx\../lv_objx/lv_page.h ****  * @return pointer to the created page
 111:..\..\..\lvgl\version_6.1.2\lvgl\src\lv_objx\../lv_objx/lv_page.h ****  */
 112:..\..\..\lvgl\version_6.1.2\lvgl\src\lv_objx\../lv_objx/lv_page.h **** lv_obj_t * lv_page_create(lv_obj_t * par, const lv_obj_t * copy);
 113:..\..\..\lvgl\version_6.1.2\lvgl\src\lv_objx\../lv_objx/lv_page.h **** 
 114:..\..\..\lvgl\version_6.1.2\lvgl\src\lv_objx\../lv_objx/lv_page.h **** /**
 115:..\..\..\lvgl\version_6.1.2\lvgl\src\lv_objx\../lv_objx/lv_page.h ****  * Delete all children of the scrl object, without deleting scrl child.
 116:..\..\..\lvgl\version_6.1.2\lvgl\src\lv_objx\../lv_objx/lv_page.h ****  * @param page pointer to an object
 117:..\..\..\lvgl\version_6.1.2\lvgl\src\lv_objx\../lv_objx/lv_page.h ****  */
 118:..\..\..\lvgl\version_6.1.2\lvgl\src\lv_objx\../lv_objx/lv_page.h **** void lv_page_clean(lv_obj_t * page);
 119:..\..\..\lvgl\version_6.1.2\lvgl\src\lv_objx\../lv_objx/lv_page.h **** 
 120:..\..\..\lvgl\version_6.1.2\lvgl\src\lv_objx\../lv_objx/lv_page.h **** /**
 121:..\..\..\lvgl\version_6.1.2\lvgl\src\lv_objx\../lv_objx/lv_page.h ****  * Get the scrollable object of a page
 122:..\..\..\lvgl\version_6.1.2\lvgl\src\lv_objx\../lv_objx/lv_page.h ****  * @param page pointer to a page object
 123:..\..\..\lvgl\version_6.1.2\lvgl\src\lv_objx\../lv_objx/lv_page.h ****  * @return pointer to a container which is the scrollable part of the page
 124:..\..\..\lvgl\version_6.1.2\lvgl\src\lv_objx\../lv_objx/lv_page.h ****  */
 125:..\..\..\lvgl\version_6.1.2\lvgl\src\lv_objx\../lv_objx/lv_page.h **** lv_obj_t * lv_page_get_scrl(const lv_obj_t * page);
 126:..\..\..\lvgl\version_6.1.2\lvgl\src\lv_objx\../lv_objx/lv_page.h **** 
 127:..\..\..\lvgl\version_6.1.2\lvgl\src\lv_objx\../lv_objx/lv_page.h **** /**
 128:..\..\..\lvgl\version_6.1.2\lvgl\src\lv_objx\../lv_objx/lv_page.h ****  * Get the animation time
 129:..\..\..\lvgl\version_6.1.2\lvgl\src\lv_objx\../lv_objx/lv_page.h ****  * @param page pointer to a page object
 130:..\..\..\lvgl\version_6.1.2\lvgl\src\lv_objx\../lv_objx/lv_page.h ****  * @return the animation time in milliseconds
 131:..\..\..\lvgl\version_6.1.2\lvgl\src\lv_objx\../lv_objx/lv_page.h ****  */
 132:..\..\..\lvgl\version_6.1.2\lvgl\src\lv_objx\../lv_objx/lv_page.h **** uint16_t lv_page_get_anim_time(const lv_obj_t * page);
 133:..\..\..\lvgl\version_6.1.2\lvgl\src\lv_objx\../lv_objx/lv_page.h **** 
 134:..\..\..\lvgl\version_6.1.2\lvgl\src\lv_objx\../lv_objx/lv_page.h **** /*=====================
 135:..\..\..\lvgl\version_6.1.2\lvgl\src\lv_objx\../lv_objx/lv_page.h ****  * Setter functions
 136:..\..\..\lvgl\version_6.1.2\lvgl\src\lv_objx\../lv_objx/lv_page.h ****  *====================*/
 137:..\..\..\lvgl\version_6.1.2\lvgl\src\lv_objx\../lv_objx/lv_page.h **** 
 138:..\..\..\lvgl\version_6.1.2\lvgl\src\lv_objx\../lv_objx/lv_page.h **** /**
 139:..\..\..\lvgl\version_6.1.2\lvgl\src\lv_objx\../lv_objx/lv_page.h ****  * Set the scroll bar mode on a page
 140:..\..\..\lvgl\version_6.1.2\lvgl\src\lv_objx\../lv_objx/lv_page.h ****  * @param page pointer to a page object
 141:..\..\..\lvgl\version_6.1.2\lvgl\src\lv_objx\../lv_objx/lv_page.h ****  * @param sb_mode the new mode from 'lv_page_sb.mode_t' enum
 142:..\..\..\lvgl\version_6.1.2\lvgl\src\lv_objx\../lv_objx/lv_page.h ****  */
 143:..\..\..\lvgl\version_6.1.2\lvgl\src\lv_objx\../lv_objx/lv_page.h **** void lv_page_set_sb_mode(lv_obj_t * page, lv_sb_mode_t sb_mode);
ARM GAS  C:\Users\tmj32\AppData\Local\Temp\ccFKuFvs.s 			page 8


 144:..\..\..\lvgl\version_6.1.2\lvgl\src\lv_objx\../lv_objx/lv_page.h **** 
 145:..\..\..\lvgl\version_6.1.2\lvgl\src\lv_objx\../lv_objx/lv_page.h **** /**
 146:..\..\..\lvgl\version_6.1.2\lvgl\src\lv_objx\../lv_objx/lv_page.h ****  * Set the animation time for the page
 147:..\..\..\lvgl\version_6.1.2\lvgl\src\lv_objx\../lv_objx/lv_page.h ****  * @param page pointer to a page object
 148:..\..\..\lvgl\version_6.1.2\lvgl\src\lv_objx\../lv_objx/lv_page.h ****  * @param anim_time animation time in milliseconds
 149:..\..\..\lvgl\version_6.1.2\lvgl\src\lv_objx\../lv_objx/lv_page.h ****  */
 150:..\..\..\lvgl\version_6.1.2\lvgl\src\lv_objx\../lv_objx/lv_page.h **** void lv_page_set_anim_time(lv_obj_t * page, uint16_t anim_time);
 151:..\..\..\lvgl\version_6.1.2\lvgl\src\lv_objx\../lv_objx/lv_page.h **** 
 152:..\..\..\lvgl\version_6.1.2\lvgl\src\lv_objx\../lv_objx/lv_page.h **** /**
 153:..\..\..\lvgl\version_6.1.2\lvgl\src\lv_objx\../lv_objx/lv_page.h ****  * Enable the scroll propagation feature. If enabled then the page will move its parent if there is
 154:..\..\..\lvgl\version_6.1.2\lvgl\src\lv_objx\../lv_objx/lv_page.h ****  * no more space to scroll.
 155:..\..\..\lvgl\version_6.1.2\lvgl\src\lv_objx\../lv_objx/lv_page.h ****  * @param page pointer to a Page
 156:..\..\..\lvgl\version_6.1.2\lvgl\src\lv_objx\../lv_objx/lv_page.h ****  * @param en true or false to enable/disable scroll propagation
 157:..\..\..\lvgl\version_6.1.2\lvgl\src\lv_objx\../lv_objx/lv_page.h ****  */
 158:..\..\..\lvgl\version_6.1.2\lvgl\src\lv_objx\../lv_objx/lv_page.h **** void lv_page_set_scroll_propagation(lv_obj_t * page, bool en);
 159:..\..\..\lvgl\version_6.1.2\lvgl\src\lv_objx\../lv_objx/lv_page.h **** 
 160:..\..\..\lvgl\version_6.1.2\lvgl\src\lv_objx\../lv_objx/lv_page.h **** /**
 161:..\..\..\lvgl\version_6.1.2\lvgl\src\lv_objx\../lv_objx/lv_page.h ****  * Enable the edge flash effect. (Show an arc when the an edge is reached)
 162:..\..\..\lvgl\version_6.1.2\lvgl\src\lv_objx\../lv_objx/lv_page.h ****  * @param page pointer to a Page
 163:..\..\..\lvgl\version_6.1.2\lvgl\src\lv_objx\../lv_objx/lv_page.h ****  * @param en true or false to enable/disable end flash
 164:..\..\..\lvgl\version_6.1.2\lvgl\src\lv_objx\../lv_objx/lv_page.h ****  */
 165:..\..\..\lvgl\version_6.1.2\lvgl\src\lv_objx\../lv_objx/lv_page.h **** void lv_page_set_edge_flash(lv_obj_t * page, bool en);
 166:..\..\..\lvgl\version_6.1.2\lvgl\src\lv_objx\../lv_objx/lv_page.h **** 
 167:..\..\..\lvgl\version_6.1.2\lvgl\src\lv_objx\../lv_objx/lv_page.h **** /**
 168:..\..\..\lvgl\version_6.1.2\lvgl\src\lv_objx\../lv_objx/lv_page.h ****  * Set the fit policy in all 4 directions separately.
 169:..\..\..\lvgl\version_6.1.2\lvgl\src\lv_objx\../lv_objx/lv_page.h ****  * It tell how to change the page size automatically.
 170:..\..\..\lvgl\version_6.1.2\lvgl\src\lv_objx\../lv_objx/lv_page.h ****  * @param page pointer to a page object
 171:..\..\..\lvgl\version_6.1.2\lvgl\src\lv_objx\../lv_objx/lv_page.h ****  * @param left left fit policy from `lv_fit_t`
 172:..\..\..\lvgl\version_6.1.2\lvgl\src\lv_objx\../lv_objx/lv_page.h ****  * @param right right fit policy from `lv_fit_t`
 173:..\..\..\lvgl\version_6.1.2\lvgl\src\lv_objx\../lv_objx/lv_page.h ****  * @param top bottom fit policy from `lv_fit_t`
 174:..\..\..\lvgl\version_6.1.2\lvgl\src\lv_objx\../lv_objx/lv_page.h ****  * @param bottom bottom fit policy from `lv_fit_t`
 175:..\..\..\lvgl\version_6.1.2\lvgl\src\lv_objx\../lv_objx/lv_page.h ****  */
 176:..\..\..\lvgl\version_6.1.2\lvgl\src\lv_objx\../lv_objx/lv_page.h **** static inline void lv_page_set_scrl_fit4(lv_obj_t * page, lv_fit_t left, lv_fit_t right, lv_fit_t t
 177:..\..\..\lvgl\version_6.1.2\lvgl\src\lv_objx\../lv_objx/lv_page.h **** {
 178:..\..\..\lvgl\version_6.1.2\lvgl\src\lv_objx\../lv_objx/lv_page.h ****     lv_cont_set_fit4(lv_page_get_scrl(page), left, right, top, bottom);
 179:..\..\..\lvgl\version_6.1.2\lvgl\src\lv_objx\../lv_objx/lv_page.h **** }
 180:..\..\..\lvgl\version_6.1.2\lvgl\src\lv_objx\../lv_objx/lv_page.h **** 
 181:..\..\..\lvgl\version_6.1.2\lvgl\src\lv_objx\../lv_objx/lv_page.h **** /**
 182:..\..\..\lvgl\version_6.1.2\lvgl\src\lv_objx\../lv_objx/lv_page.h ****  * Set the fit policy horizontally and vertically separately.
 183:..\..\..\lvgl\version_6.1.2\lvgl\src\lv_objx\../lv_objx/lv_page.h ****  * It tell how to change the page size automatically.
 184:..\..\..\lvgl\version_6.1.2\lvgl\src\lv_objx\../lv_objx/lv_page.h ****  * @param page pointer to a page object
 185:..\..\..\lvgl\version_6.1.2\lvgl\src\lv_objx\../lv_objx/lv_page.h ****  * @param hot horizontal fit policy from `lv_fit_t`
 186:..\..\..\lvgl\version_6.1.2\lvgl\src\lv_objx\../lv_objx/lv_page.h ****  * @param ver vertical fit policy from `lv_fit_t`
 187:..\..\..\lvgl\version_6.1.2\lvgl\src\lv_objx\../lv_objx/lv_page.h ****  */
 188:..\..\..\lvgl\version_6.1.2\lvgl\src\lv_objx\../lv_objx/lv_page.h **** static inline void lv_page_set_scrl_fit2(lv_obj_t * page, lv_fit_t hor, lv_fit_t ver)
 189:..\..\..\lvgl\version_6.1.2\lvgl\src\lv_objx\../lv_objx/lv_page.h **** {
 190:..\..\..\lvgl\version_6.1.2\lvgl\src\lv_objx\../lv_objx/lv_page.h ****     lv_cont_set_fit2(lv_page_get_scrl(page), hor, ver);
 191:..\..\..\lvgl\version_6.1.2\lvgl\src\lv_objx\../lv_objx/lv_page.h **** }
 192:..\..\..\lvgl\version_6.1.2\lvgl\src\lv_objx\../lv_objx/lv_page.h **** 
 193:..\..\..\lvgl\version_6.1.2\lvgl\src\lv_objx\../lv_objx/lv_page.h **** /**
 194:..\..\..\lvgl\version_6.1.2\lvgl\src\lv_objx\../lv_objx/lv_page.h ****  * Set the fit policyin all 4 direction at once.
 195:..\..\..\lvgl\version_6.1.2\lvgl\src\lv_objx\../lv_objx/lv_page.h ****  * It tell how to change the page size automatically.
 196:..\..\..\lvgl\version_6.1.2\lvgl\src\lv_objx\../lv_objx/lv_page.h ****  * @param page pointer to a button object
 197:..\..\..\lvgl\version_6.1.2\lvgl\src\lv_objx\../lv_objx/lv_page.h ****  * @param fit fit policy from `lv_fit_t`
 198:..\..\..\lvgl\version_6.1.2\lvgl\src\lv_objx\../lv_objx/lv_page.h ****  */
 199:..\..\..\lvgl\version_6.1.2\lvgl\src\lv_objx\../lv_objx/lv_page.h **** static inline void lv_page_set_scrl_fit(lv_obj_t * page, lv_fit_t fit)
 200:..\..\..\lvgl\version_6.1.2\lvgl\src\lv_objx\../lv_objx/lv_page.h **** {
ARM GAS  C:\Users\tmj32\AppData\Local\Temp\ccFKuFvs.s 			page 9


 201:..\..\..\lvgl\version_6.1.2\lvgl\src\lv_objx\../lv_objx/lv_page.h ****     lv_cont_set_fit(lv_page_get_scrl(page), fit);
 202:..\..\..\lvgl\version_6.1.2\lvgl\src\lv_objx\../lv_objx/lv_page.h **** }
 203:..\..\..\lvgl\version_6.1.2\lvgl\src\lv_objx\../lv_objx/lv_page.h **** 
 204:..\..\..\lvgl\version_6.1.2\lvgl\src\lv_objx\../lv_objx/lv_page.h **** /**
 205:..\..\..\lvgl\version_6.1.2\lvgl\src\lv_objx\../lv_objx/lv_page.h ****  * Set width of the scrollable part of a page
 206:..\..\..\lvgl\version_6.1.2\lvgl\src\lv_objx\../lv_objx/lv_page.h ****  * @param page pointer to a page object
 207:..\..\..\lvgl\version_6.1.2\lvgl\src\lv_objx\../lv_objx/lv_page.h ****  * @param w the new width of the scrollable (it ha no effect is horizontal fit is enabled)
 208:..\..\..\lvgl\version_6.1.2\lvgl\src\lv_objx\../lv_objx/lv_page.h ****  */
 209:..\..\..\lvgl\version_6.1.2\lvgl\src\lv_objx\../lv_objx/lv_page.h **** static inline void lv_page_set_scrl_width(lv_obj_t * page, lv_coord_t w)
 210:..\..\..\lvgl\version_6.1.2\lvgl\src\lv_objx\../lv_objx/lv_page.h **** {
 211:..\..\..\lvgl\version_6.1.2\lvgl\src\lv_objx\../lv_objx/lv_page.h ****     lv_obj_set_width(lv_page_get_scrl(page), w);
 212:..\..\..\lvgl\version_6.1.2\lvgl\src\lv_objx\../lv_objx/lv_page.h **** }
 213:..\..\..\lvgl\version_6.1.2\lvgl\src\lv_objx\../lv_objx/lv_page.h **** 
 214:..\..\..\lvgl\version_6.1.2\lvgl\src\lv_objx\../lv_objx/lv_page.h **** /**
 215:..\..\..\lvgl\version_6.1.2\lvgl\src\lv_objx\../lv_objx/lv_page.h ****  * Set height of the scrollable part of a page
 216:..\..\..\lvgl\version_6.1.2\lvgl\src\lv_objx\../lv_objx/lv_page.h ****  * @param page pointer to a page object
 217:..\..\..\lvgl\version_6.1.2\lvgl\src\lv_objx\../lv_objx/lv_page.h ****  * @param h the new height of the scrollable (it ha no effect is vertical fit is enabled)
 218:..\..\..\lvgl\version_6.1.2\lvgl\src\lv_objx\../lv_objx/lv_page.h ****  */
 219:..\..\..\lvgl\version_6.1.2\lvgl\src\lv_objx\../lv_objx/lv_page.h **** static inline void lv_page_set_scrl_height(lv_obj_t * page, lv_coord_t h)
 220:..\..\..\lvgl\version_6.1.2\lvgl\src\lv_objx\../lv_objx/lv_page.h **** {
 221:..\..\..\lvgl\version_6.1.2\lvgl\src\lv_objx\../lv_objx/lv_page.h ****     lv_obj_set_height(lv_page_get_scrl(page), h);
 222:..\..\..\lvgl\version_6.1.2\lvgl\src\lv_objx\../lv_objx/lv_page.h **** }
 223:..\..\..\lvgl\version_6.1.2\lvgl\src\lv_objx\../lv_objx/lv_page.h **** 
 224:..\..\..\lvgl\version_6.1.2\lvgl\src\lv_objx\../lv_objx/lv_page.h **** /**
 225:..\..\..\lvgl\version_6.1.2\lvgl\src\lv_objx\../lv_objx/lv_page.h ****  * Set the layout of the scrollable part of the page
 226:..\..\..\lvgl\version_6.1.2\lvgl\src\lv_objx\../lv_objx/lv_page.h ****  * @param page pointer to a page object
 227:..\..\..\lvgl\version_6.1.2\lvgl\src\lv_objx\../lv_objx/lv_page.h ****  * @param layout a layout from 'lv_cont_layout_t'
 228:..\..\..\lvgl\version_6.1.2\lvgl\src\lv_objx\../lv_objx/lv_page.h ****  */
 229:..\..\..\lvgl\version_6.1.2\lvgl\src\lv_objx\../lv_objx/lv_page.h **** static inline void lv_page_set_scrl_layout(lv_obj_t * page, lv_layout_t layout)
 230:..\..\..\lvgl\version_6.1.2\lvgl\src\lv_objx\../lv_objx/lv_page.h **** {
 231:..\..\..\lvgl\version_6.1.2\lvgl\src\lv_objx\../lv_objx/lv_page.h ****     lv_cont_set_layout(lv_page_get_scrl(page), layout);
 232:..\..\..\lvgl\version_6.1.2\lvgl\src\lv_objx\../lv_objx/lv_page.h **** }
 233:..\..\..\lvgl\version_6.1.2\lvgl\src\lv_objx\../lv_objx/lv_page.h **** 
 234:..\..\..\lvgl\version_6.1.2\lvgl\src\lv_objx\../lv_objx/lv_page.h **** /**
 235:..\..\..\lvgl\version_6.1.2\lvgl\src\lv_objx\../lv_objx/lv_page.h ****  * Set a style of a page
 236:..\..\..\lvgl\version_6.1.2\lvgl\src\lv_objx\../lv_objx/lv_page.h ****  * @param page pointer to a page object
 237:..\..\..\lvgl\version_6.1.2\lvgl\src\lv_objx\../lv_objx/lv_page.h ****  * @param type which style should be set
 238:..\..\..\lvgl\version_6.1.2\lvgl\src\lv_objx\../lv_objx/lv_page.h ****  * @param style pointer to a style
 239:..\..\..\lvgl\version_6.1.2\lvgl\src\lv_objx\../lv_objx/lv_page.h ****  */
 240:..\..\..\lvgl\version_6.1.2\lvgl\src\lv_objx\../lv_objx/lv_page.h **** void lv_page_set_style(lv_obj_t * page, lv_page_style_t type, const lv_style_t * style);
 241:..\..\..\lvgl\version_6.1.2\lvgl\src\lv_objx\../lv_objx/lv_page.h **** 
 242:..\..\..\lvgl\version_6.1.2\lvgl\src\lv_objx\../lv_objx/lv_page.h **** /*=====================
 243:..\..\..\lvgl\version_6.1.2\lvgl\src\lv_objx\../lv_objx/lv_page.h ****  * Getter functions
 244:..\..\..\lvgl\version_6.1.2\lvgl\src\lv_objx\../lv_objx/lv_page.h ****  *====================*/
 245:..\..\..\lvgl\version_6.1.2\lvgl\src\lv_objx\../lv_objx/lv_page.h **** 
 246:..\..\..\lvgl\version_6.1.2\lvgl\src\lv_objx\../lv_objx/lv_page.h **** /**
 247:..\..\..\lvgl\version_6.1.2\lvgl\src\lv_objx\../lv_objx/lv_page.h ****  * Set the scroll bar mode on a page
 248:..\..\..\lvgl\version_6.1.2\lvgl\src\lv_objx\../lv_objx/lv_page.h ****  * @param page pointer to a page object
 249:..\..\..\lvgl\version_6.1.2\lvgl\src\lv_objx\../lv_objx/lv_page.h ****  * @return the mode from 'lv_page_sb.mode_t' enum
 250:..\..\..\lvgl\version_6.1.2\lvgl\src\lv_objx\../lv_objx/lv_page.h ****  */
 251:..\..\..\lvgl\version_6.1.2\lvgl\src\lv_objx\../lv_objx/lv_page.h **** lv_sb_mode_t lv_page_get_sb_mode(const lv_obj_t * page);
 252:..\..\..\lvgl\version_6.1.2\lvgl\src\lv_objx\../lv_objx/lv_page.h **** 
 253:..\..\..\lvgl\version_6.1.2\lvgl\src\lv_objx\../lv_objx/lv_page.h **** /**
 254:..\..\..\lvgl\version_6.1.2\lvgl\src\lv_objx\../lv_objx/lv_page.h ****  * Get the scroll propagation property
 255:..\..\..\lvgl\version_6.1.2\lvgl\src\lv_objx\../lv_objx/lv_page.h ****  * @param page pointer to a Page
 256:..\..\..\lvgl\version_6.1.2\lvgl\src\lv_objx\../lv_objx/lv_page.h ****  * @return true or false
 257:..\..\..\lvgl\version_6.1.2\lvgl\src\lv_objx\../lv_objx/lv_page.h ****  */
ARM GAS  C:\Users\tmj32\AppData\Local\Temp\ccFKuFvs.s 			page 10


 258:..\..\..\lvgl\version_6.1.2\lvgl\src\lv_objx\../lv_objx/lv_page.h **** bool lv_page_get_scroll_propagation(lv_obj_t * page);
 259:..\..\..\lvgl\version_6.1.2\lvgl\src\lv_objx\../lv_objx/lv_page.h **** 
 260:..\..\..\lvgl\version_6.1.2\lvgl\src\lv_objx\../lv_objx/lv_page.h **** /**
 261:..\..\..\lvgl\version_6.1.2\lvgl\src\lv_objx\../lv_objx/lv_page.h ****  * Get the edge flash effect property.
 262:..\..\..\lvgl\version_6.1.2\lvgl\src\lv_objx\../lv_objx/lv_page.h ****  * @param page pointer to a Page
 263:..\..\..\lvgl\version_6.1.2\lvgl\src\lv_objx\../lv_objx/lv_page.h ****  * return true or false
 264:..\..\..\lvgl\version_6.1.2\lvgl\src\lv_objx\../lv_objx/lv_page.h ****  */
 265:..\..\..\lvgl\version_6.1.2\lvgl\src\lv_objx\../lv_objx/lv_page.h **** bool lv_page_get_edge_flash(lv_obj_t * page);
 266:..\..\..\lvgl\version_6.1.2\lvgl\src\lv_objx\../lv_objx/lv_page.h **** 
 267:..\..\..\lvgl\version_6.1.2\lvgl\src\lv_objx\../lv_objx/lv_page.h **** /**
 268:..\..\..\lvgl\version_6.1.2\lvgl\src\lv_objx\../lv_objx/lv_page.h ****  * Get that width which can be set to the children to still not cause overflow (show scrollbars)
 269:..\..\..\lvgl\version_6.1.2\lvgl\src\lv_objx\../lv_objx/lv_page.h ****  * @param page pointer to a page object
 270:..\..\..\lvgl\version_6.1.2\lvgl\src\lv_objx\../lv_objx/lv_page.h ****  * @return the width which still fits into the page
 271:..\..\..\lvgl\version_6.1.2\lvgl\src\lv_objx\../lv_objx/lv_page.h ****  */
 272:..\..\..\lvgl\version_6.1.2\lvgl\src\lv_objx\../lv_objx/lv_page.h **** lv_coord_t lv_page_get_fit_width(lv_obj_t * page);
 273:..\..\..\lvgl\version_6.1.2\lvgl\src\lv_objx\../lv_objx/lv_page.h **** 
 274:..\..\..\lvgl\version_6.1.2\lvgl\src\lv_objx\../lv_objx/lv_page.h **** /**
 275:..\..\..\lvgl\version_6.1.2\lvgl\src\lv_objx\../lv_objx/lv_page.h ****  * Get that height which can be set to the children to still not cause overflow (show scrollbars)
 276:..\..\..\lvgl\version_6.1.2\lvgl\src\lv_objx\../lv_objx/lv_page.h ****  * @param page pointer to a page object
 277:..\..\..\lvgl\version_6.1.2\lvgl\src\lv_objx\../lv_objx/lv_page.h ****  * @return the height which still fits into the page
 278:..\..\..\lvgl\version_6.1.2\lvgl\src\lv_objx\../lv_objx/lv_page.h ****  */
 279:..\..\..\lvgl\version_6.1.2\lvgl\src\lv_objx\../lv_objx/lv_page.h **** lv_coord_t lv_page_get_fit_height(lv_obj_t * page);
 280:..\..\..\lvgl\version_6.1.2\lvgl\src\lv_objx\../lv_objx/lv_page.h **** 
 281:..\..\..\lvgl\version_6.1.2\lvgl\src\lv_objx\../lv_objx/lv_page.h **** /**
 282:..\..\..\lvgl\version_6.1.2\lvgl\src\lv_objx\../lv_objx/lv_page.h ****  * Get width of the scrollable part of a page
 283:..\..\..\lvgl\version_6.1.2\lvgl\src\lv_objx\../lv_objx/lv_page.h ****  * @param page pointer to a page object
 284:..\..\..\lvgl\version_6.1.2\lvgl\src\lv_objx\../lv_objx/lv_page.h ****  * @return the width of the scrollable
 285:..\..\..\lvgl\version_6.1.2\lvgl\src\lv_objx\../lv_objx/lv_page.h ****  */
 286:..\..\..\lvgl\version_6.1.2\lvgl\src\lv_objx\../lv_objx/lv_page.h **** static inline lv_coord_t lv_page_get_scrl_width(const lv_obj_t * page)
 287:..\..\..\lvgl\version_6.1.2\lvgl\src\lv_objx\../lv_objx/lv_page.h **** {
 158              		.loc 2 287 0
 159              		.cfi_startproc
 160              		@ args = 0, pretend = 0, frame = 8
 161              		@ frame_needed = 1, uses_anonymous_args = 0
 162 0000 80B5     		push	{r7, lr}
 163              		.cfi_def_cfa_offset 8
 164              		.cfi_offset 7, -8
 165              		.cfi_offset 14, -4
 166 0002 82B0     		sub	sp, sp, #8
 167              		.cfi_def_cfa_offset 16
 168 0004 00AF     		add	r7, sp, #0
 169              		.cfi_def_cfa_register 7
 170 0006 7860     		str	r0, [r7, #4]
 288:..\..\..\lvgl\version_6.1.2\lvgl\src\lv_objx\../lv_objx/lv_page.h ****     return lv_obj_get_width(lv_page_get_scrl(page));
 171              		.loc 2 288 0
 172 0008 7868     		ldr	r0, [r7, #4]
 173 000a FFF7FEFF 		bl	lv_page_get_scrl
 174 000e 0346     		mov	r3, r0
 175 0010 1846     		mov	r0, r3
 176 0012 FFF7FEFF 		bl	lv_obj_get_width
 177 0016 0346     		mov	r3, r0
 289:..\..\..\lvgl\version_6.1.2\lvgl\src\lv_objx\../lv_objx/lv_page.h **** }
 178              		.loc 2 289 0
 179 0018 1846     		mov	r0, r3
 180 001a 0837     		adds	r7, r7, #8
 181              		.cfi_def_cfa_offset 8
 182 001c BD46     		mov	sp, r7
ARM GAS  C:\Users\tmj32\AppData\Local\Temp\ccFKuFvs.s 			page 11


 183              		.cfi_def_cfa_register 13
 184              		@ sp needed
 185 001e 80BD     		pop	{r7, pc}
 186              		.cfi_endproc
 187              	.LFE41:
 188              		.size	lv_page_get_scrl_width, .-lv_page_get_scrl_width
 189              		.section	.text.lv_page_get_scrl_fit_left,"ax",%progbits
 190              		.align	2
 191              		.thumb
 192              		.thumb_func
 193              		.type	lv_page_get_scrl_fit_left, %function
 194              	lv_page_get_scrl_fit_left:
 195              	.LFB44:
 290:..\..\..\lvgl\version_6.1.2\lvgl\src\lv_objx\../lv_objx/lv_page.h **** 
 291:..\..\..\lvgl\version_6.1.2\lvgl\src\lv_objx\../lv_objx/lv_page.h **** /**
 292:..\..\..\lvgl\version_6.1.2\lvgl\src\lv_objx\../lv_objx/lv_page.h ****  * Get height of the scrollable part of a page
 293:..\..\..\lvgl\version_6.1.2\lvgl\src\lv_objx\../lv_objx/lv_page.h ****  * @param page pointer to a page object
 294:..\..\..\lvgl\version_6.1.2\lvgl\src\lv_objx\../lv_objx/lv_page.h ****  * @return the height of the scrollable
 295:..\..\..\lvgl\version_6.1.2\lvgl\src\lv_objx\../lv_objx/lv_page.h ****  */
 296:..\..\..\lvgl\version_6.1.2\lvgl\src\lv_objx\../lv_objx/lv_page.h **** static inline lv_coord_t lv_page_get_scrl_height(const lv_obj_t * page)
 297:..\..\..\lvgl\version_6.1.2\lvgl\src\lv_objx\../lv_objx/lv_page.h **** {
 298:..\..\..\lvgl\version_6.1.2\lvgl\src\lv_objx\../lv_objx/lv_page.h ****     return lv_obj_get_height(lv_page_get_scrl(page));
 299:..\..\..\lvgl\version_6.1.2\lvgl\src\lv_objx\../lv_objx/lv_page.h **** }
 300:..\..\..\lvgl\version_6.1.2\lvgl\src\lv_objx\../lv_objx/lv_page.h **** 
 301:..\..\..\lvgl\version_6.1.2\lvgl\src\lv_objx\../lv_objx/lv_page.h **** /**
 302:..\..\..\lvgl\version_6.1.2\lvgl\src\lv_objx\../lv_objx/lv_page.h ****  * Get the layout of the scrollable part of a page
 303:..\..\..\lvgl\version_6.1.2\lvgl\src\lv_objx\../lv_objx/lv_page.h ****  * @param page pointer to page object
 304:..\..\..\lvgl\version_6.1.2\lvgl\src\lv_objx\../lv_objx/lv_page.h ****  * @return the layout from 'lv_cont_layout_t'
 305:..\..\..\lvgl\version_6.1.2\lvgl\src\lv_objx\../lv_objx/lv_page.h ****  */
 306:..\..\..\lvgl\version_6.1.2\lvgl\src\lv_objx\../lv_objx/lv_page.h **** static inline lv_layout_t lv_page_get_scrl_layout(const lv_obj_t * page)
 307:..\..\..\lvgl\version_6.1.2\lvgl\src\lv_objx\../lv_objx/lv_page.h **** {
 308:..\..\..\lvgl\version_6.1.2\lvgl\src\lv_objx\../lv_objx/lv_page.h ****     return lv_cont_get_layout(lv_page_get_scrl(page));
 309:..\..\..\lvgl\version_6.1.2\lvgl\src\lv_objx\../lv_objx/lv_page.h **** }
 310:..\..\..\lvgl\version_6.1.2\lvgl\src\lv_objx\../lv_objx/lv_page.h **** 
 311:..\..\..\lvgl\version_6.1.2\lvgl\src\lv_objx\../lv_objx/lv_page.h **** /**
 312:..\..\..\lvgl\version_6.1.2\lvgl\src\lv_objx\../lv_objx/lv_page.h ****  * Get the left fit mode
 313:..\..\..\lvgl\version_6.1.2\lvgl\src\lv_objx\../lv_objx/lv_page.h ****  * @param page pointer to a page object
 314:..\..\..\lvgl\version_6.1.2\lvgl\src\lv_objx\../lv_objx/lv_page.h ****  * @return an element of `lv_fit_t`
 315:..\..\..\lvgl\version_6.1.2\lvgl\src\lv_objx\../lv_objx/lv_page.h ****  */
 316:..\..\..\lvgl\version_6.1.2\lvgl\src\lv_objx\../lv_objx/lv_page.h **** static inline lv_fit_t lv_page_get_scrl_fit_left(const lv_obj_t * page)
 317:..\..\..\lvgl\version_6.1.2\lvgl\src\lv_objx\../lv_objx/lv_page.h **** {
 196              		.loc 2 317 0
 197              		.cfi_startproc
 198              		@ args = 0, pretend = 0, frame = 8
 199              		@ frame_needed = 1, uses_anonymous_args = 0
 200 0000 80B5     		push	{r7, lr}
 201              		.cfi_def_cfa_offset 8
 202              		.cfi_offset 7, -8
 203              		.cfi_offset 14, -4
 204 0002 82B0     		sub	sp, sp, #8
 205              		.cfi_def_cfa_offset 16
 206 0004 00AF     		add	r7, sp, #0
 207              		.cfi_def_cfa_register 7
 208 0006 7860     		str	r0, [r7, #4]
 318:..\..\..\lvgl\version_6.1.2\lvgl\src\lv_objx\../lv_objx/lv_page.h ****     return lv_cont_get_fit_left(lv_page_get_scrl(page));
 209              		.loc 2 318 0
 210 0008 7868     		ldr	r0, [r7, #4]
ARM GAS  C:\Users\tmj32\AppData\Local\Temp\ccFKuFvs.s 			page 12


 211 000a FFF7FEFF 		bl	lv_page_get_scrl
 212 000e 0346     		mov	r3, r0
 213 0010 1846     		mov	r0, r3
 214 0012 FFF7FEFF 		bl	lv_cont_get_fit_left
 215 0016 0346     		mov	r3, r0
 319:..\..\..\lvgl\version_6.1.2\lvgl\src\lv_objx\../lv_objx/lv_page.h **** }
 216              		.loc 2 319 0
 217 0018 1846     		mov	r0, r3
 218 001a 0837     		adds	r7, r7, #8
 219              		.cfi_def_cfa_offset 8
 220 001c BD46     		mov	sp, r7
 221              		.cfi_def_cfa_register 13
 222              		@ sp needed
 223 001e 80BD     		pop	{r7, pc}
 224              		.cfi_endproc
 225              	.LFE44:
 226              		.size	lv_page_get_scrl_fit_left, .-lv_page_get_scrl_fit_left
 227              		.section	.text.lv_page_get_scrl_fit_right,"ax",%progbits
 228              		.align	2
 229              		.thumb
 230              		.thumb_func
 231              		.type	lv_page_get_scrl_fit_right, %function
 232              	lv_page_get_scrl_fit_right:
 233              	.LFB45:
 320:..\..\..\lvgl\version_6.1.2\lvgl\src\lv_objx\../lv_objx/lv_page.h **** 
 321:..\..\..\lvgl\version_6.1.2\lvgl\src\lv_objx\../lv_objx/lv_page.h **** /**
 322:..\..\..\lvgl\version_6.1.2\lvgl\src\lv_objx\../lv_objx/lv_page.h ****  * Get the right fit mode
 323:..\..\..\lvgl\version_6.1.2\lvgl\src\lv_objx\../lv_objx/lv_page.h ****  * @param page pointer to a page object
 324:..\..\..\lvgl\version_6.1.2\lvgl\src\lv_objx\../lv_objx/lv_page.h ****  * @return an element of `lv_fit_t`
 325:..\..\..\lvgl\version_6.1.2\lvgl\src\lv_objx\../lv_objx/lv_page.h ****  */
 326:..\..\..\lvgl\version_6.1.2\lvgl\src\lv_objx\../lv_objx/lv_page.h **** static inline lv_fit_t lv_page_get_scrl_fit_right(const lv_obj_t * page)
 327:..\..\..\lvgl\version_6.1.2\lvgl\src\lv_objx\../lv_objx/lv_page.h **** {
 234              		.loc 2 327 0
 235              		.cfi_startproc
 236              		@ args = 0, pretend = 0, frame = 8
 237              		@ frame_needed = 1, uses_anonymous_args = 0
 238 0000 80B5     		push	{r7, lr}
 239              		.cfi_def_cfa_offset 8
 240              		.cfi_offset 7, -8
 241              		.cfi_offset 14, -4
 242 0002 82B0     		sub	sp, sp, #8
 243              		.cfi_def_cfa_offset 16
 244 0004 00AF     		add	r7, sp, #0
 245              		.cfi_def_cfa_register 7
 246 0006 7860     		str	r0, [r7, #4]
 328:..\..\..\lvgl\version_6.1.2\lvgl\src\lv_objx\../lv_objx/lv_page.h ****     return lv_cont_get_fit_right(lv_page_get_scrl(page));
 247              		.loc 2 328 0
 248 0008 7868     		ldr	r0, [r7, #4]
 249 000a FFF7FEFF 		bl	lv_page_get_scrl
 250 000e 0346     		mov	r3, r0
 251 0010 1846     		mov	r0, r3
 252 0012 FFF7FEFF 		bl	lv_cont_get_fit_right
 253 0016 0346     		mov	r3, r0
 329:..\..\..\lvgl\version_6.1.2\lvgl\src\lv_objx\../lv_objx/lv_page.h **** }
 254              		.loc 2 329 0
 255 0018 1846     		mov	r0, r3
 256 001a 0837     		adds	r7, r7, #8
ARM GAS  C:\Users\tmj32\AppData\Local\Temp\ccFKuFvs.s 			page 13


 257              		.cfi_def_cfa_offset 8
 258 001c BD46     		mov	sp, r7
 259              		.cfi_def_cfa_register 13
 260              		@ sp needed
 261 001e 80BD     		pop	{r7, pc}
 262              		.cfi_endproc
 263              	.LFE45:
 264              		.size	lv_page_get_scrl_fit_right, .-lv_page_get_scrl_fit_right
 265              		.section	.text.lv_page_get_scrl_fit_top,"ax",%progbits
 266              		.align	2
 267              		.thumb
 268              		.thumb_func
 269              		.type	lv_page_get_scrl_fit_top, %function
 270              	lv_page_get_scrl_fit_top:
 271              	.LFB46:
 330:..\..\..\lvgl\version_6.1.2\lvgl\src\lv_objx\../lv_objx/lv_page.h **** 
 331:..\..\..\lvgl\version_6.1.2\lvgl\src\lv_objx\../lv_objx/lv_page.h **** /**
 332:..\..\..\lvgl\version_6.1.2\lvgl\src\lv_objx\../lv_objx/lv_page.h ****  * Get the top fit mode
 333:..\..\..\lvgl\version_6.1.2\lvgl\src\lv_objx\../lv_objx/lv_page.h ****  * @param page pointer to a page object
 334:..\..\..\lvgl\version_6.1.2\lvgl\src\lv_objx\../lv_objx/lv_page.h ****  * @return an element of `lv_fit_t`
 335:..\..\..\lvgl\version_6.1.2\lvgl\src\lv_objx\../lv_objx/lv_page.h ****  */
 336:..\..\..\lvgl\version_6.1.2\lvgl\src\lv_objx\../lv_objx/lv_page.h **** static inline lv_fit_t lv_page_get_scrl_fit_top(const lv_obj_t * page)
 337:..\..\..\lvgl\version_6.1.2\lvgl\src\lv_objx\../lv_objx/lv_page.h **** {
 272              		.loc 2 337 0
 273              		.cfi_startproc
 274              		@ args = 0, pretend = 0, frame = 8
 275              		@ frame_needed = 1, uses_anonymous_args = 0
 276 0000 80B5     		push	{r7, lr}
 277              		.cfi_def_cfa_offset 8
 278              		.cfi_offset 7, -8
 279              		.cfi_offset 14, -4
 280 0002 82B0     		sub	sp, sp, #8
 281              		.cfi_def_cfa_offset 16
 282 0004 00AF     		add	r7, sp, #0
 283              		.cfi_def_cfa_register 7
 284 0006 7860     		str	r0, [r7, #4]
 338:..\..\..\lvgl\version_6.1.2\lvgl\src\lv_objx\../lv_objx/lv_page.h ****     return lv_cont_get_fit_top(lv_page_get_scrl(page));
 285              		.loc 2 338 0
 286 0008 7868     		ldr	r0, [r7, #4]
 287 000a FFF7FEFF 		bl	lv_page_get_scrl
 288 000e 0346     		mov	r3, r0
 289 0010 1846     		mov	r0, r3
 290 0012 FFF7FEFF 		bl	lv_cont_get_fit_top
 291 0016 0346     		mov	r3, r0
 339:..\..\..\lvgl\version_6.1.2\lvgl\src\lv_objx\../lv_objx/lv_page.h **** }
 292              		.loc 2 339 0
 293 0018 1846     		mov	r0, r3
 294 001a 0837     		adds	r7, r7, #8
 295              		.cfi_def_cfa_offset 8
 296 001c BD46     		mov	sp, r7
 297              		.cfi_def_cfa_register 13
 298              		@ sp needed
 299 001e 80BD     		pop	{r7, pc}
 300              		.cfi_endproc
 301              	.LFE46:
 302              		.size	lv_page_get_scrl_fit_top, .-lv_page_get_scrl_fit_top
 303              		.bss
ARM GAS  C:\Users\tmj32\AppData\Local\Temp\ccFKuFvs.s 			page 14


 304              		.align	2
 305              	ancestor_design:
 306 0000 00000000 		.space	4
 307              		.align	2
 308              	ancestor_signal:
 309 0004 00000000 		.space	4
 310              		.section	.text.lv_page_create,"ax",%progbits
 311              		.align	2
 312              		.global	lv_page_create
 313              		.thumb
 314              		.thumb_func
 315              		.type	lv_page_create, %function
 316              	lv_page_create:
 317              	.LFB48:
 318              		.file 3 "..\\..\\..\\lvgl\\version_6.1.2\\lvgl\\src\\lv_objx\\lv_page.c"
   1:..\..\..\lvgl\version_6.1.2\lvgl\src\lv_objx/lv_page.c **** /**
   2:..\..\..\lvgl\version_6.1.2\lvgl\src\lv_objx/lv_page.c ****  * @file lv_page.c
   3:..\..\..\lvgl\version_6.1.2\lvgl\src\lv_objx/lv_page.c ****  *
   4:..\..\..\lvgl\version_6.1.2\lvgl\src\lv_objx/lv_page.c ****  */
   5:..\..\..\lvgl\version_6.1.2\lvgl\src\lv_objx/lv_page.c **** 
   6:..\..\..\lvgl\version_6.1.2\lvgl\src\lv_objx/lv_page.c **** /*********************
   7:..\..\..\lvgl\version_6.1.2\lvgl\src\lv_objx/lv_page.c ****  *      INCLUDES
   8:..\..\..\lvgl\version_6.1.2\lvgl\src\lv_objx/lv_page.c ****  *********************/
   9:..\..\..\lvgl\version_6.1.2\lvgl\src\lv_objx/lv_page.c **** #include "../lv_objx/lv_page.h"
  10:..\..\..\lvgl\version_6.1.2\lvgl\src\lv_objx/lv_page.c **** #if LV_USE_PAGE != 0
  11:..\..\..\lvgl\version_6.1.2\lvgl\src\lv_objx/lv_page.c **** 
  12:..\..\..\lvgl\version_6.1.2\lvgl\src\lv_objx/lv_page.c **** #include "../lv_core/lv_debug.h"
  13:..\..\..\lvgl\version_6.1.2\lvgl\src\lv_objx/lv_page.c **** #include "../lv_core/lv_group.h"
  14:..\..\..\lvgl\version_6.1.2\lvgl\src\lv_objx/lv_page.c **** #include "../lv_draw/lv_draw.h"
  15:..\..\..\lvgl\version_6.1.2\lvgl\src\lv_objx/lv_page.c **** #include "../lv_themes/lv_theme.h"
  16:..\..\..\lvgl\version_6.1.2\lvgl\src\lv_objx/lv_page.c **** #include "../lv_core/lv_refr.h"
  17:..\..\..\lvgl\version_6.1.2\lvgl\src\lv_objx/lv_page.c **** #include "../lv_misc/lv_anim.h"
  18:..\..\..\lvgl\version_6.1.2\lvgl\src\lv_objx/lv_page.c **** #include "../lv_misc/lv_math.h"
  19:..\..\..\lvgl\version_6.1.2\lvgl\src\lv_objx/lv_page.c **** 
  20:..\..\..\lvgl\version_6.1.2\lvgl\src\lv_objx/lv_page.c **** /*********************
  21:..\..\..\lvgl\version_6.1.2\lvgl\src\lv_objx/lv_page.c ****  *      DEFINES
  22:..\..\..\lvgl\version_6.1.2\lvgl\src\lv_objx/lv_page.c ****  *********************/
  23:..\..\..\lvgl\version_6.1.2\lvgl\src\lv_objx/lv_page.c **** #define LV_OBJX_NAME "lv_page"
  24:..\..\..\lvgl\version_6.1.2\lvgl\src\lv_objx/lv_page.c **** 
  25:..\..\..\lvgl\version_6.1.2\lvgl\src\lv_objx/lv_page.c **** #define LV_PAGE_SB_MIN_SIZE (LV_DPI / 8)
  26:..\..\..\lvgl\version_6.1.2\lvgl\src\lv_objx/lv_page.c **** 
  27:..\..\..\lvgl\version_6.1.2\lvgl\src\lv_objx/lv_page.c **** /*[ms] Scroll anim time on `lv_page_scroll_up/down/left/rigth`*/
  28:..\..\..\lvgl\version_6.1.2\lvgl\src\lv_objx/lv_page.c **** #define LV_PAGE_SCROLL_ANIM_TIME 200
  29:..\..\..\lvgl\version_6.1.2\lvgl\src\lv_objx/lv_page.c **** 
  30:..\..\..\lvgl\version_6.1.2\lvgl\src\lv_objx/lv_page.c **** #define LV_PAGE_END_FLASH_SIZE (LV_DPI / 4)
  31:..\..\..\lvgl\version_6.1.2\lvgl\src\lv_objx/lv_page.c **** #define LV_PAGE_END_ANIM_TIME 300
  32:..\..\..\lvgl\version_6.1.2\lvgl\src\lv_objx/lv_page.c **** #define LV_PAGE_END_ANIM_WAIT_TIME 300
  33:..\..\..\lvgl\version_6.1.2\lvgl\src\lv_objx/lv_page.c **** 
  34:..\..\..\lvgl\version_6.1.2\lvgl\src\lv_objx/lv_page.c **** #if LV_USE_ANIMATION == 0
  35:..\..\..\lvgl\version_6.1.2\lvgl\src\lv_objx/lv_page.c **** #undef LV_PAGE_DEF_ANIM_TIME
  36:..\..\..\lvgl\version_6.1.2\lvgl\src\lv_objx/lv_page.c **** #define LV_PAGE_DEF_ANIM_TIME 0 /*No animation*/
  37:..\..\..\lvgl\version_6.1.2\lvgl\src\lv_objx/lv_page.c **** #endif
  38:..\..\..\lvgl\version_6.1.2\lvgl\src\lv_objx/lv_page.c **** 
  39:..\..\..\lvgl\version_6.1.2\lvgl\src\lv_objx/lv_page.c **** /**********************
  40:..\..\..\lvgl\version_6.1.2\lvgl\src\lv_objx/lv_page.c ****  *      TYPEDEFS
  41:..\..\..\lvgl\version_6.1.2\lvgl\src\lv_objx/lv_page.c ****  **********************/
  42:..\..\..\lvgl\version_6.1.2\lvgl\src\lv_objx/lv_page.c **** 
ARM GAS  C:\Users\tmj32\AppData\Local\Temp\ccFKuFvs.s 			page 15


  43:..\..\..\lvgl\version_6.1.2\lvgl\src\lv_objx/lv_page.c **** /**********************
  44:..\..\..\lvgl\version_6.1.2\lvgl\src\lv_objx/lv_page.c ****  *  STATIC PROTOTYPES
  45:..\..\..\lvgl\version_6.1.2\lvgl\src\lv_objx/lv_page.c ****  **********************/
  46:..\..\..\lvgl\version_6.1.2\lvgl\src\lv_objx/lv_page.c **** static void lv_page_sb_refresh(lv_obj_t * page);
  47:..\..\..\lvgl\version_6.1.2\lvgl\src\lv_objx/lv_page.c **** static bool lv_page_design(lv_obj_t * page, const lv_area_t * mask, lv_design_mode_t mode);
  48:..\..\..\lvgl\version_6.1.2\lvgl\src\lv_objx/lv_page.c **** static bool lv_scrl_design(lv_obj_t * scrl, const lv_area_t * mask, lv_design_mode_t mode);
  49:..\..\..\lvgl\version_6.1.2\lvgl\src\lv_objx/lv_page.c **** static lv_res_t lv_page_signal(lv_obj_t * page, lv_signal_t sign, void * param);
  50:..\..\..\lvgl\version_6.1.2\lvgl\src\lv_objx/lv_page.c **** static lv_res_t lv_page_scrollable_signal(lv_obj_t * scrl, lv_signal_t sign, void * param);
  51:..\..\..\lvgl\version_6.1.2\lvgl\src\lv_objx/lv_page.c **** static void scrl_def_event_cb(lv_obj_t * scrl, lv_event_t event);
  52:..\..\..\lvgl\version_6.1.2\lvgl\src\lv_objx/lv_page.c **** #if LV_USE_ANIMATION
  53:..\..\..\lvgl\version_6.1.2\lvgl\src\lv_objx/lv_page.c **** static void edge_flash_anim(void * page, lv_anim_value_t v);
  54:..\..\..\lvgl\version_6.1.2\lvgl\src\lv_objx/lv_page.c **** static void edge_flash_anim_end(lv_anim_t * a);
  55:..\..\..\lvgl\version_6.1.2\lvgl\src\lv_objx/lv_page.c **** #endif
  56:..\..\..\lvgl\version_6.1.2\lvgl\src\lv_objx/lv_page.c **** 
  57:..\..\..\lvgl\version_6.1.2\lvgl\src\lv_objx/lv_page.c **** /**********************
  58:..\..\..\lvgl\version_6.1.2\lvgl\src\lv_objx/lv_page.c ****  *  STATIC VARIABLES
  59:..\..\..\lvgl\version_6.1.2\lvgl\src\lv_objx/lv_page.c ****  **********************/
  60:..\..\..\lvgl\version_6.1.2\lvgl\src\lv_objx/lv_page.c **** static lv_design_cb_t ancestor_design;
  61:..\..\..\lvgl\version_6.1.2\lvgl\src\lv_objx/lv_page.c **** static lv_signal_cb_t ancestor_signal;
  62:..\..\..\lvgl\version_6.1.2\lvgl\src\lv_objx/lv_page.c **** 
  63:..\..\..\lvgl\version_6.1.2\lvgl\src\lv_objx/lv_page.c **** /**********************
  64:..\..\..\lvgl\version_6.1.2\lvgl\src\lv_objx/lv_page.c ****  *      MACROS
  65:..\..\..\lvgl\version_6.1.2\lvgl\src\lv_objx/lv_page.c ****  **********************/
  66:..\..\..\lvgl\version_6.1.2\lvgl\src\lv_objx/lv_page.c **** 
  67:..\..\..\lvgl\version_6.1.2\lvgl\src\lv_objx/lv_page.c **** /**********************
  68:..\..\..\lvgl\version_6.1.2\lvgl\src\lv_objx/lv_page.c ****  *   GLOBAL FUNCTIONS
  69:..\..\..\lvgl\version_6.1.2\lvgl\src\lv_objx/lv_page.c ****  **********************/
  70:..\..\..\lvgl\version_6.1.2\lvgl\src\lv_objx/lv_page.c **** 
  71:..\..\..\lvgl\version_6.1.2\lvgl\src\lv_objx/lv_page.c **** /**
  72:..\..\..\lvgl\version_6.1.2\lvgl\src\lv_objx/lv_page.c ****  * Create a page objects
  73:..\..\..\lvgl\version_6.1.2\lvgl\src\lv_objx/lv_page.c ****  * @param par pointer to an object, it will be the parent of the new page
  74:..\..\..\lvgl\version_6.1.2\lvgl\src\lv_objx/lv_page.c ****  * @param copy pointer to a page object, if not NULL then the new object will be copied from it
  75:..\..\..\lvgl\version_6.1.2\lvgl\src\lv_objx/lv_page.c ****  * @return pointer to the created page
  76:..\..\..\lvgl\version_6.1.2\lvgl\src\lv_objx/lv_page.c ****  */
  77:..\..\..\lvgl\version_6.1.2\lvgl\src\lv_objx/lv_page.c **** lv_obj_t * lv_page_create(lv_obj_t * par, const lv_obj_t * copy)
  78:..\..\..\lvgl\version_6.1.2\lvgl\src\lv_objx/lv_page.c **** {
 319              		.loc 3 78 0
 320              		.cfi_startproc
 321              		@ args = 0, pretend = 0, frame = 24
 322              		@ frame_needed = 1, uses_anonymous_args = 0
 323 0000 80B5     		push	{r7, lr}
 324              		.cfi_def_cfa_offset 8
 325              		.cfi_offset 7, -8
 326              		.cfi_offset 14, -4
 327 0002 88B0     		sub	sp, sp, #32
 328              		.cfi_def_cfa_offset 40
 329 0004 02AF     		add	r7, sp, #8
 330              		.cfi_def_cfa 7, 32
 331 0006 7860     		str	r0, [r7, #4]
 332 0008 3960     		str	r1, [r7]
  79:..\..\..\lvgl\version_6.1.2\lvgl\src\lv_objx/lv_page.c ****     LV_LOG_TRACE("page create started");
  80:..\..\..\lvgl\version_6.1.2\lvgl\src\lv_objx/lv_page.c **** 
  81:..\..\..\lvgl\version_6.1.2\lvgl\src\lv_objx/lv_page.c ****     /*Create the ancestor object*/
  82:..\..\..\lvgl\version_6.1.2\lvgl\src\lv_objx/lv_page.c ****     lv_obj_t * new_page = lv_cont_create(par, copy);
 333              		.loc 3 82 0
 334 000a 3968     		ldr	r1, [r7]
 335 000c 7868     		ldr	r0, [r7, #4]
ARM GAS  C:\Users\tmj32\AppData\Local\Temp\ccFKuFvs.s 			page 16


 336 000e FFF7FEFF 		bl	lv_cont_create
 337 0012 7861     		str	r0, [r7, #20]
  83:..\..\..\lvgl\version_6.1.2\lvgl\src\lv_objx/lv_page.c ****     LV_ASSERT_MEM(new_page);
  84:..\..\..\lvgl\version_6.1.2\lvgl\src\lv_objx/lv_page.c ****     if(new_page == NULL) return NULL;
 338              		.loc 3 84 0
 339 0014 7B69     		ldr	r3, [r7, #20]
 340 0016 002B     		cmp	r3, #0
 341 0018 01D1     		bne	.L15
 342              		.loc 3 84 0 is_stmt 0 discriminator 1
 343 001a 0023     		movs	r3, #0
 344 001c 3FE1     		b	.L16
 345              	.L15:
  85:..\..\..\lvgl\version_6.1.2\lvgl\src\lv_objx/lv_page.c **** 
  86:..\..\..\lvgl\version_6.1.2\lvgl\src\lv_objx/lv_page.c ****     if(ancestor_signal == NULL) ancestor_signal = lv_obj_get_signal_cb(new_page);
 346              		.loc 3 86 0 is_stmt 1
 347 001e A24B     		ldr	r3, .L26
 348 0020 1B68     		ldr	r3, [r3]
 349 0022 002B     		cmp	r3, #0
 350 0024 05D1     		bne	.L17
 351              		.loc 3 86 0 is_stmt 0 discriminator 1
 352 0026 7869     		ldr	r0, [r7, #20]
 353 0028 FFF7FEFF 		bl	lv_obj_get_signal_cb
 354 002c 0246     		mov	r2, r0
 355 002e 9E4B     		ldr	r3, .L26
 356 0030 1A60     		str	r2, [r3]
 357              	.L17:
  87:..\..\..\lvgl\version_6.1.2\lvgl\src\lv_objx/lv_page.c ****     if(ancestor_design == NULL) ancestor_design = lv_obj_get_design_cb(new_page);
 358              		.loc 3 87 0 is_stmt 1
 359 0032 9E4B     		ldr	r3, .L26+4
 360 0034 1B68     		ldr	r3, [r3]
 361 0036 002B     		cmp	r3, #0
 362 0038 05D1     		bne	.L18
 363              		.loc 3 87 0 is_stmt 0 discriminator 1
 364 003a 7869     		ldr	r0, [r7, #20]
 365 003c FFF7FEFF 		bl	lv_obj_get_design_cb
 366 0040 0246     		mov	r2, r0
 367 0042 9A4B     		ldr	r3, .L26+4
 368 0044 1A60     		str	r2, [r3]
 369              	.L18:
  88:..\..\..\lvgl\version_6.1.2\lvgl\src\lv_objx/lv_page.c **** 
  89:..\..\..\lvgl\version_6.1.2\lvgl\src\lv_objx/lv_page.c ****     /*Allocate the object type specific extended data*/
  90:..\..\..\lvgl\version_6.1.2\lvgl\src\lv_objx/lv_page.c ****     lv_page_ext_t * ext = lv_obj_allocate_ext_attr(new_page, sizeof(lv_page_ext_t));
 370              		.loc 3 90 0 is_stmt 1
 371 0046 3021     		movs	r1, #48
 372 0048 7869     		ldr	r0, [r7, #20]
 373 004a FFF7FEFF 		bl	lv_obj_allocate_ext_attr
 374 004e 3861     		str	r0, [r7, #16]
  91:..\..\..\lvgl\version_6.1.2\lvgl\src\lv_objx/lv_page.c ****     LV_ASSERT_MEM(ext);
  92:..\..\..\lvgl\version_6.1.2\lvgl\src\lv_objx/lv_page.c ****     if(ext == NULL) return NULL;
 375              		.loc 3 92 0
 376 0050 3B69     		ldr	r3, [r7, #16]
 377 0052 002B     		cmp	r3, #0
 378 0054 01D1     		bne	.L19
 379              		.loc 3 92 0 is_stmt 0 discriminator 1
 380 0056 0023     		movs	r3, #0
 381 0058 21E1     		b	.L16
 382              	.L19:
ARM GAS  C:\Users\tmj32\AppData\Local\Temp\ccFKuFvs.s 			page 17


  93:..\..\..\lvgl\version_6.1.2\lvgl\src\lv_objx/lv_page.c **** 
  94:..\..\..\lvgl\version_6.1.2\lvgl\src\lv_objx/lv_page.c ****     ext->scrl        = NULL;
 383              		.loc 3 94 0 is_stmt 1
 384 005a 3B69     		ldr	r3, [r7, #16]
 385 005c 0022     		movs	r2, #0
 386 005e 5A60     		str	r2, [r3, #4]
  95:..\..\..\lvgl\version_6.1.2\lvgl\src\lv_objx/lv_page.c ****     ext->sb.hor_draw = 0;
 387              		.loc 3 95 0
 388 0060 3A69     		ldr	r2, [r7, #16]
 389 0062 137F     		ldrb	r3, [r2, #28]
 390 0064 6FF30003 		bfc	r3, #0, #1
 391 0068 1377     		strb	r3, [r2, #28]
  96:..\..\..\lvgl\version_6.1.2\lvgl\src\lv_objx/lv_page.c ****     ext->sb.ver_draw = 0;
 392              		.loc 3 96 0
 393 006a 3A69     		ldr	r2, [r7, #16]
 394 006c 137F     		ldrb	r3, [r2, #28]
 395 006e 6FF34103 		bfc	r3, #1, #1
 396 0072 1377     		strb	r3, [r2, #28]
  97:..\..\..\lvgl\version_6.1.2\lvgl\src\lv_objx/lv_page.c ****     ext->sb.style    = &lv_style_pretty;
 397              		.loc 3 97 0
 398 0074 3B69     		ldr	r3, [r7, #16]
 399 0076 8E4A     		ldr	r2, .L26+8
 400 0078 9A60     		str	r2, [r3, #8]
  98:..\..\..\lvgl\version_6.1.2\lvgl\src\lv_objx/lv_page.c ****     ext->sb.mode     = LV_SB_MODE_AUTO;
 401              		.loc 3 98 0
 402 007a 3A69     		ldr	r2, [r7, #16]
 403 007c 137F     		ldrb	r3, [r2, #28]
 404 007e 0321     		movs	r1, #3
 405 0080 61F38403 		bfi	r3, r1, #2, #3
 406 0084 1377     		strb	r3, [r2, #28]
  99:..\..\..\lvgl\version_6.1.2\lvgl\src\lv_objx/lv_page.c **** #if LV_USE_ANIMATION
 100:..\..\..\lvgl\version_6.1.2\lvgl\src\lv_objx/lv_page.c ****     ext->edge_flash.enabled   = 0;
 407              		.loc 3 100 0
 408 0086 3A69     		ldr	r2, [r7, #16]
 409 0088 92F82830 		ldrb	r3, [r2, #40]
 410 008c 6FF30003 		bfc	r3, #0, #1
 411 0090 82F82830 		strb	r3, [r2, #40]
 101:..\..\..\lvgl\version_6.1.2\lvgl\src\lv_objx/lv_page.c ****     ext->edge_flash.bottom_ip = 0;
 412              		.loc 3 101 0
 413 0094 3A69     		ldr	r2, [r7, #16]
 414 0096 92F82830 		ldrb	r3, [r2, #40]
 415 009a 6FF38203 		bfc	r3, #2, #1
 416 009e 82F82830 		strb	r3, [r2, #40]
 102:..\..\..\lvgl\version_6.1.2\lvgl\src\lv_objx/lv_page.c ****     ext->edge_flash.top_ip    = 0;
 417              		.loc 3 102 0
 418 00a2 3A69     		ldr	r2, [r7, #16]
 419 00a4 92F82830 		ldrb	r3, [r2, #40]
 420 00a8 6FF34103 		bfc	r3, #1, #1
 421 00ac 82F82830 		strb	r3, [r2, #40]
 103:..\..\..\lvgl\version_6.1.2\lvgl\src\lv_objx/lv_page.c ****     ext->edge_flash.left_ip   = 0;
 422              		.loc 3 103 0
 423 00b0 3A69     		ldr	r2, [r7, #16]
 424 00b2 92F82830 		ldrb	r3, [r2, #40]
 425 00b6 6FF30413 		bfc	r3, #4, #1
 426 00ba 82F82830 		strb	r3, [r2, #40]
 104:..\..\..\lvgl\version_6.1.2\lvgl\src\lv_objx/lv_page.c ****     ext->edge_flash.right_ip  = 0;
 427              		.loc 3 104 0
ARM GAS  C:\Users\tmj32\AppData\Local\Temp\ccFKuFvs.s 			page 18


 428 00be 3A69     		ldr	r2, [r7, #16]
 429 00c0 92F82830 		ldrb	r3, [r2, #40]
 430 00c4 6FF3C303 		bfc	r3, #3, #1
 431 00c8 82F82830 		strb	r3, [r2, #40]
 105:..\..\..\lvgl\version_6.1.2\lvgl\src\lv_objx/lv_page.c ****     ext->edge_flash.state     = 0;
 432              		.loc 3 105 0
 433 00cc 3B69     		ldr	r3, [r7, #16]
 434 00ce 0022     		movs	r2, #0
 435 00d0 1A84     		strh	r2, [r3, #32]	@ movhi
 106:..\..\..\lvgl\version_6.1.2\lvgl\src\lv_objx/lv_page.c ****     ext->edge_flash.style     = &lv_style_plain_color;
 436              		.loc 3 106 0
 437 00d2 3B69     		ldr	r3, [r7, #16]
 438 00d4 774A     		ldr	r2, .L26+12
 439 00d6 5A62     		str	r2, [r3, #36]
 107:..\..\..\lvgl\version_6.1.2\lvgl\src\lv_objx/lv_page.c ****     ext->anim_time            = LV_PAGE_DEF_ANIM_TIME;
 440              		.loc 3 107 0
 441 00d8 3B69     		ldr	r3, [r7, #16]
 442 00da 4FF4C872 		mov	r2, #400
 443 00de 9A85     		strh	r2, [r3, #44]	@ movhi
 108:..\..\..\lvgl\version_6.1.2\lvgl\src\lv_objx/lv_page.c **** #endif
 109:..\..\..\lvgl\version_6.1.2\lvgl\src\lv_objx/lv_page.c ****     ext->scroll_prop    = 0;
 444              		.loc 3 109 0
 445 00e0 3A69     		ldr	r2, [r7, #16]
 446 00e2 92F82E30 		ldrb	r3, [r2, #46]
 447 00e6 6FF30003 		bfc	r3, #0, #1
 448 00ea 82F82E30 		strb	r3, [r2, #46]
 110:..\..\..\lvgl\version_6.1.2\lvgl\src\lv_objx/lv_page.c ****     ext->scroll_prop_ip = 0;
 449              		.loc 3 110 0
 450 00ee 3A69     		ldr	r2, [r7, #16]
 451 00f0 92F82E30 		ldrb	r3, [r2, #46]
 452 00f4 6FF34103 		bfc	r3, #1, #1
 453 00f8 82F82E30 		strb	r3, [r2, #46]
 111:..\..\..\lvgl\version_6.1.2\lvgl\src\lv_objx/lv_page.c **** 
 112:..\..\..\lvgl\version_6.1.2\lvgl\src\lv_objx/lv_page.c ****     /*Init the new page object*/
 113:..\..\..\lvgl\version_6.1.2\lvgl\src\lv_objx/lv_page.c ****     if(copy == NULL) {
 454              		.loc 3 113 0
 455 00fc 3B68     		ldr	r3, [r7]
 456 00fe 002B     		cmp	r3, #0
 457 0100 40F08480 		bne	.L20
 458              	.LBB2:
 114:..\..\..\lvgl\version_6.1.2\lvgl\src\lv_objx/lv_page.c ****         ext->scrl = lv_cont_create(new_page, NULL);
 459              		.loc 3 114 0
 460 0104 0021     		movs	r1, #0
 461 0106 7869     		ldr	r0, [r7, #20]
 462 0108 FFF7FEFF 		bl	lv_cont_create
 463 010c 0246     		mov	r2, r0
 464 010e 3B69     		ldr	r3, [r7, #16]
 465 0110 5A60     		str	r2, [r3, #4]
 115:..\..\..\lvgl\version_6.1.2\lvgl\src\lv_objx/lv_page.c ****         lv_obj_set_signal_cb(ext->scrl, lv_page_scrollable_signal);
 466              		.loc 3 115 0
 467 0112 3B69     		ldr	r3, [r7, #16]
 468 0114 5B68     		ldr	r3, [r3, #4]
 469 0116 6849     		ldr	r1, .L26+16
 470 0118 1846     		mov	r0, r3
 471 011a FFF7FEFF 		bl	lv_obj_set_signal_cb
 116:..\..\..\lvgl\version_6.1.2\lvgl\src\lv_objx/lv_page.c ****         lv_obj_set_design_cb(ext->scrl, lv_scrl_design);
 472              		.loc 3 116 0
ARM GAS  C:\Users\tmj32\AppData\Local\Temp\ccFKuFvs.s 			page 19


 473 011e 3B69     		ldr	r3, [r7, #16]
 474 0120 5B68     		ldr	r3, [r3, #4]
 475 0122 6649     		ldr	r1, .L26+20
 476 0124 1846     		mov	r0, r3
 477 0126 FFF7FEFF 		bl	lv_obj_set_design_cb
 117:..\..\..\lvgl\version_6.1.2\lvgl\src\lv_objx/lv_page.c ****         lv_obj_set_drag(ext->scrl, true);
 478              		.loc 3 117 0
 479 012a 3B69     		ldr	r3, [r7, #16]
 480 012c 5B68     		ldr	r3, [r3, #4]
 481 012e 0121     		movs	r1, #1
 482 0130 1846     		mov	r0, r3
 483 0132 FFF7FEFF 		bl	lv_obj_set_drag
 118:..\..\..\lvgl\version_6.1.2\lvgl\src\lv_objx/lv_page.c ****         lv_obj_set_drag_throw(ext->scrl, true);
 484              		.loc 3 118 0
 485 0136 3B69     		ldr	r3, [r7, #16]
 486 0138 5B68     		ldr	r3, [r3, #4]
 487 013a 0121     		movs	r1, #1
 488 013c 1846     		mov	r0, r3
 489 013e FFF7FEFF 		bl	lv_obj_set_drag_throw
 119:..\..\..\lvgl\version_6.1.2\lvgl\src\lv_objx/lv_page.c ****         lv_obj_set_protect(ext->scrl, LV_PROTECT_PARENT | LV_PROTECT_PRESS_LOST);
 490              		.loc 3 119 0
 491 0142 3B69     		ldr	r3, [r7, #16]
 492 0144 5B68     		ldr	r3, [r3, #4]
 493 0146 1221     		movs	r1, #18
 494 0148 1846     		mov	r0, r3
 495 014a FFF7FEFF 		bl	lv_obj_set_protect
 120:..\..\..\lvgl\version_6.1.2\lvgl\src\lv_objx/lv_page.c ****         lv_cont_set_fit4(ext->scrl, LV_FIT_FILL, LV_FIT_FILL, LV_FIT_FILL, LV_FIT_FILL);
 496              		.loc 3 120 0
 497 014e 3B69     		ldr	r3, [r7, #16]
 498 0150 5868     		ldr	r0, [r3, #4]
 499 0152 0323     		movs	r3, #3
 500 0154 0093     		str	r3, [sp]
 501 0156 0323     		movs	r3, #3
 502 0158 0322     		movs	r2, #3
 503 015a 0321     		movs	r1, #3
 504 015c FFF7FEFF 		bl	lv_cont_set_fit4
 121:..\..\..\lvgl\version_6.1.2\lvgl\src\lv_objx/lv_page.c ****         lv_obj_set_event_cb(ext->scrl, scrl_def_event_cb); /*Propagate some event to the background
 505              		.loc 3 121 0
 506 0160 3B69     		ldr	r3, [r7, #16]
 507 0162 5B68     		ldr	r3, [r3, #4]
 508 0164 5649     		ldr	r1, .L26+24
 509 0166 1846     		mov	r0, r3
 510 0168 FFF7FEFF 		bl	lv_obj_set_event_cb
 122:..\..\..\lvgl\version_6.1.2\lvgl\src\lv_objx/lv_page.c ****                                                               object by default for convenience */
 123:..\..\..\lvgl\version_6.1.2\lvgl\src\lv_objx/lv_page.c **** 
 124:..\..\..\lvgl\version_6.1.2\lvgl\src\lv_objx/lv_page.c ****         /* Add the signal function only if 'scrolling' is created
 125:..\..\..\lvgl\version_6.1.2\lvgl\src\lv_objx/lv_page.c ****          * because everything has to be ready before any signal is received*/
 126:..\..\..\lvgl\version_6.1.2\lvgl\src\lv_objx/lv_page.c ****         lv_obj_set_signal_cb(new_page, lv_page_signal);
 511              		.loc 3 126 0
 512 016c 5549     		ldr	r1, .L26+28
 513 016e 7869     		ldr	r0, [r7, #20]
 514 0170 FFF7FEFF 		bl	lv_obj_set_signal_cb
 127:..\..\..\lvgl\version_6.1.2\lvgl\src\lv_objx/lv_page.c ****         lv_obj_set_design_cb(new_page, lv_page_design);
 515              		.loc 3 127 0
 516 0174 5449     		ldr	r1, .L26+32
 517 0176 7869     		ldr	r0, [r7, #20]
 518 0178 FFF7FEFF 		bl	lv_obj_set_design_cb
ARM GAS  C:\Users\tmj32\AppData\Local\Temp\ccFKuFvs.s 			page 20


 128:..\..\..\lvgl\version_6.1.2\lvgl\src\lv_objx/lv_page.c **** 
 129:..\..\..\lvgl\version_6.1.2\lvgl\src\lv_objx/lv_page.c ****         lv_page_set_sb_mode(new_page, ext->sb.mode);
 519              		.loc 3 129 0
 520 017c 3B69     		ldr	r3, [r7, #16]
 521 017e 1B7F     		ldrb	r3, [r3, #28]
 522 0180 C3F38203 		ubfx	r3, r3, #2, #3
 523 0184 DBB2     		uxtb	r3, r3
 524 0186 1946     		mov	r1, r3
 525 0188 7869     		ldr	r0, [r7, #20]
 526 018a FFF7FEFF 		bl	lv_page_set_sb_mode
 130:..\..\..\lvgl\version_6.1.2\lvgl\src\lv_objx/lv_page.c **** 
 131:..\..\..\lvgl\version_6.1.2\lvgl\src\lv_objx/lv_page.c ****         /*Set the default styles*/
 132:..\..\..\lvgl\version_6.1.2\lvgl\src\lv_objx/lv_page.c ****         lv_theme_t * th = lv_theme_get_current();
 527              		.loc 3 132 0
 528 018e FFF7FEFF 		bl	lv_theme_get_current
 529 0192 F860     		str	r0, [r7, #12]
 133:..\..\..\lvgl\version_6.1.2\lvgl\src\lv_objx/lv_page.c ****         if(th) {
 530              		.loc 3 133 0
 531 0194 FB68     		ldr	r3, [r7, #12]
 532 0196 002B     		cmp	r3, #0
 533 0198 28D0     		beq	.L21
 134:..\..\..\lvgl\version_6.1.2\lvgl\src\lv_objx/lv_page.c ****             if(par == NULL) { /*Different styles if it is screen*/
 534              		.loc 3 134 0
 535 019a 7B68     		ldr	r3, [r7, #4]
 536 019c 002B     		cmp	r3, #0
 537 019e 0CD1     		bne	.L22
 135:..\..\..\lvgl\version_6.1.2\lvgl\src\lv_objx/lv_page.c ****                 lv_page_set_style(new_page, LV_PAGE_STYLE_BG, th->style.bg);
 538              		.loc 3 135 0
 539 01a0 FB68     		ldr	r3, [r7, #12]
 540 01a2 5B68     		ldr	r3, [r3, #4]
 541 01a4 1A46     		mov	r2, r3
 542 01a6 0021     		movs	r1, #0
 543 01a8 7869     		ldr	r0, [r7, #20]
 544 01aa FFF7FEFF 		bl	lv_page_set_style
 136:..\..\..\lvgl\version_6.1.2\lvgl\src\lv_objx/lv_page.c ****                 lv_page_set_style(new_page, LV_PAGE_STYLE_SCRL, &lv_style_transp);
 545              		.loc 3 136 0
 546 01ae 474A     		ldr	r2, .L26+36
 547 01b0 0121     		movs	r1, #1
 548 01b2 7869     		ldr	r0, [r7, #20]
 549 01b4 FFF7FEFF 		bl	lv_page_set_style
 550 01b8 0FE0     		b	.L23
 551              	.L22:
 137:..\..\..\lvgl\version_6.1.2\lvgl\src\lv_objx/lv_page.c ****             } else {
 138:..\..\..\lvgl\version_6.1.2\lvgl\src\lv_objx/lv_page.c ****                 lv_page_set_style(new_page, LV_PAGE_STYLE_BG, th->style.page.bg);
 552              		.loc 3 138 0
 553 01ba FB68     		ldr	r3, [r7, #12]
 554 01bc D3F80431 		ldr	r3, [r3, #260]
 555 01c0 1A46     		mov	r2, r3
 556 01c2 0021     		movs	r1, #0
 557 01c4 7869     		ldr	r0, [r7, #20]
 558 01c6 FFF7FEFF 		bl	lv_page_set_style
 139:..\..\..\lvgl\version_6.1.2\lvgl\src\lv_objx/lv_page.c ****                 lv_page_set_style(new_page, LV_PAGE_STYLE_SCRL, th->style.page.scrl);
 559              		.loc 3 139 0
 560 01ca FB68     		ldr	r3, [r7, #12]
 561 01cc D3F80831 		ldr	r3, [r3, #264]
 562 01d0 1A46     		mov	r2, r3
 563 01d2 0121     		movs	r1, #1
ARM GAS  C:\Users\tmj32\AppData\Local\Temp\ccFKuFvs.s 			page 21


 564 01d4 7869     		ldr	r0, [r7, #20]
 565 01d6 FFF7FEFF 		bl	lv_page_set_style
 566              	.L23:
 140:..\..\..\lvgl\version_6.1.2\lvgl\src\lv_objx/lv_page.c ****             }
 141:..\..\..\lvgl\version_6.1.2\lvgl\src\lv_objx/lv_page.c ****             lv_page_set_style(new_page, LV_PAGE_STYLE_SB, th->style.page.sb);
 567              		.loc 3 141 0
 568 01da FB68     		ldr	r3, [r7, #12]
 569 01dc D3F80C31 		ldr	r3, [r3, #268]
 570 01e0 1A46     		mov	r2, r3
 571 01e2 0221     		movs	r1, #2
 572 01e4 7869     		ldr	r0, [r7, #20]
 573 01e6 FFF7FEFF 		bl	lv_page_set_style
 574 01ea 54E0     		b	.L25
 575              	.L21:
 142:..\..\..\lvgl\version_6.1.2\lvgl\src\lv_objx/lv_page.c ****         } else {
 143:..\..\..\lvgl\version_6.1.2\lvgl\src\lv_objx/lv_page.c ****             lv_page_set_style(new_page, LV_PAGE_STYLE_BG, &lv_style_pretty_color);
 576              		.loc 3 143 0
 577 01ec 384A     		ldr	r2, .L26+40
 578 01ee 0021     		movs	r1, #0
 579 01f0 7869     		ldr	r0, [r7, #20]
 580 01f2 FFF7FEFF 		bl	lv_page_set_style
 144:..\..\..\lvgl\version_6.1.2\lvgl\src\lv_objx/lv_page.c ****             lv_page_set_style(new_page, LV_PAGE_STYLE_SCRL, &lv_style_pretty);
 581              		.loc 3 144 0
 582 01f6 2E4A     		ldr	r2, .L26+8
 583 01f8 0121     		movs	r1, #1
 584 01fa 7869     		ldr	r0, [r7, #20]
 585 01fc FFF7FEFF 		bl	lv_page_set_style
 145:..\..\..\lvgl\version_6.1.2\lvgl\src\lv_objx/lv_page.c ****             lv_page_set_style(new_page, LV_PAGE_STYLE_SB, &lv_style_pretty_color);
 586              		.loc 3 145 0
 587 0200 334A     		ldr	r2, .L26+40
 588 0202 0221     		movs	r1, #2
 589 0204 7869     		ldr	r0, [r7, #20]
 590 0206 FFF7FEFF 		bl	lv_page_set_style
 591 020a 44E0     		b	.L25
 592              	.L20:
 593              	.LBE2:
 594              	.LBB3:
 146:..\..\..\lvgl\version_6.1.2\lvgl\src\lv_objx/lv_page.c ****         }
 147:..\..\..\lvgl\version_6.1.2\lvgl\src\lv_objx/lv_page.c **** 
 148:..\..\..\lvgl\version_6.1.2\lvgl\src\lv_objx/lv_page.c ****     } else {
 149:..\..\..\lvgl\version_6.1.2\lvgl\src\lv_objx/lv_page.c ****         lv_page_ext_t * copy_ext = lv_obj_get_ext_attr(copy);
 595              		.loc 3 149 0
 596 020c 3868     		ldr	r0, [r7]
 597 020e FFF7FEFF 		bl	lv_obj_get_ext_attr
 598 0212 B860     		str	r0, [r7, #8]
 150:..\..\..\lvgl\version_6.1.2\lvgl\src\lv_objx/lv_page.c ****         ext->scrl                = lv_cont_create(new_page, copy_ext->scrl);
 599              		.loc 3 150 0
 600 0214 BB68     		ldr	r3, [r7, #8]
 601 0216 5B68     		ldr	r3, [r3, #4]
 602 0218 1946     		mov	r1, r3
 603 021a 7869     		ldr	r0, [r7, #20]
 604 021c FFF7FEFF 		bl	lv_cont_create
 605 0220 0246     		mov	r2, r0
 606 0222 3B69     		ldr	r3, [r7, #16]
 607 0224 5A60     		str	r2, [r3, #4]
 151:..\..\..\lvgl\version_6.1.2\lvgl\src\lv_objx/lv_page.c ****         lv_obj_set_signal_cb(ext->scrl, lv_page_scrollable_signal);
 608              		.loc 3 151 0
ARM GAS  C:\Users\tmj32\AppData\Local\Temp\ccFKuFvs.s 			page 22


 609 0226 3B69     		ldr	r3, [r7, #16]
 610 0228 5B68     		ldr	r3, [r3, #4]
 611 022a 2349     		ldr	r1, .L26+16
 612 022c 1846     		mov	r0, r3
 613 022e FFF7FEFF 		bl	lv_obj_set_signal_cb
 152:..\..\..\lvgl\version_6.1.2\lvgl\src\lv_objx/lv_page.c **** 
 153:..\..\..\lvgl\version_6.1.2\lvgl\src\lv_objx/lv_page.c ****         /* Add the signal function only if 'scrolling' is created
 154:..\..\..\lvgl\version_6.1.2\lvgl\src\lv_objx/lv_page.c ****          * because everything has to be ready before any signal is received*/
 155:..\..\..\lvgl\version_6.1.2\lvgl\src\lv_objx/lv_page.c ****         lv_obj_set_signal_cb(new_page, lv_page_signal);
 614              		.loc 3 155 0
 615 0232 2449     		ldr	r1, .L26+28
 616 0234 7869     		ldr	r0, [r7, #20]
 617 0236 FFF7FEFF 		bl	lv_obj_set_signal_cb
 156:..\..\..\lvgl\version_6.1.2\lvgl\src\lv_objx/lv_page.c ****         lv_obj_set_design_cb(new_page, lv_page_design);
 618              		.loc 3 156 0
 619 023a 2349     		ldr	r1, .L26+32
 620 023c 7869     		ldr	r0, [r7, #20]
 621 023e FFF7FEFF 		bl	lv_obj_set_design_cb
 157:..\..\..\lvgl\version_6.1.2\lvgl\src\lv_objx/lv_page.c **** 
 158:..\..\..\lvgl\version_6.1.2\lvgl\src\lv_objx/lv_page.c ****         lv_page_set_style(new_page, LV_PAGE_STYLE_BG, lv_page_get_style(copy, LV_PAGE_STYLE_BG));
 622              		.loc 3 158 0
 623 0242 0021     		movs	r1, #0
 624 0244 3868     		ldr	r0, [r7]
 625 0246 FFF7FEFF 		bl	lv_page_get_style
 626 024a 0346     		mov	r3, r0
 627 024c 1A46     		mov	r2, r3
 628 024e 0021     		movs	r1, #0
 629 0250 7869     		ldr	r0, [r7, #20]
 630 0252 FFF7FEFF 		bl	lv_page_set_style
 159:..\..\..\lvgl\version_6.1.2\lvgl\src\lv_objx/lv_page.c ****         lv_page_set_style(new_page, LV_PAGE_STYLE_SCRL, lv_page_get_style(copy, LV_PAGE_STYLE_SCRL)
 631              		.loc 3 159 0
 632 0256 0121     		movs	r1, #1
 633 0258 3868     		ldr	r0, [r7]
 634 025a FFF7FEFF 		bl	lv_page_get_style
 635 025e 0346     		mov	r3, r0
 636 0260 1A46     		mov	r2, r3
 637 0262 0121     		movs	r1, #1
 638 0264 7869     		ldr	r0, [r7, #20]
 639 0266 FFF7FEFF 		bl	lv_page_set_style
 160:..\..\..\lvgl\version_6.1.2\lvgl\src\lv_objx/lv_page.c ****         lv_page_set_style(new_page, LV_PAGE_STYLE_SB, lv_page_get_style(copy, LV_PAGE_STYLE_SB));
 640              		.loc 3 160 0
 641 026a 0221     		movs	r1, #2
 642 026c 3868     		ldr	r0, [r7]
 643 026e FFF7FEFF 		bl	lv_page_get_style
 644 0272 0346     		mov	r3, r0
 645 0274 1A46     		mov	r2, r3
 646 0276 0221     		movs	r1, #2
 647 0278 7869     		ldr	r0, [r7, #20]
 648 027a FFF7FEFF 		bl	lv_page_set_style
 161:..\..\..\lvgl\version_6.1.2\lvgl\src\lv_objx/lv_page.c **** 
 162:..\..\..\lvgl\version_6.1.2\lvgl\src\lv_objx/lv_page.c ****         lv_page_set_sb_mode(new_page, copy_ext->sb.mode);
 649              		.loc 3 162 0
 650 027e BB68     		ldr	r3, [r7, #8]
 651 0280 1B7F     		ldrb	r3, [r3, #28]
 652 0282 C3F38203 		ubfx	r3, r3, #2, #3
 653 0286 DBB2     		uxtb	r3, r3
 654 0288 1946     		mov	r1, r3
ARM GAS  C:\Users\tmj32\AppData\Local\Temp\ccFKuFvs.s 			page 23


 655 028a 7869     		ldr	r0, [r7, #20]
 656 028c FFF7FEFF 		bl	lv_page_set_sb_mode
 163:..\..\..\lvgl\version_6.1.2\lvgl\src\lv_objx/lv_page.c **** 
 164:..\..\..\lvgl\version_6.1.2\lvgl\src\lv_objx/lv_page.c ****         /*Refresh the style with new signal function*/
 165:..\..\..\lvgl\version_6.1.2\lvgl\src\lv_objx/lv_page.c ****         lv_obj_refresh_style(new_page);
 657              		.loc 3 165 0
 658 0290 7869     		ldr	r0, [r7, #20]
 659 0292 FFF7FEFF 		bl	lv_obj_refresh_style
 660              	.L25:
 661              	.LBE3:
 166:..\..\..\lvgl\version_6.1.2\lvgl\src\lv_objx/lv_page.c ****     }
 167:..\..\..\lvgl\version_6.1.2\lvgl\src\lv_objx/lv_page.c **** 
 168:..\..\..\lvgl\version_6.1.2\lvgl\src\lv_objx/lv_page.c ****     lv_page_sb_refresh(new_page);
 662              		.loc 3 168 0
 663 0296 7869     		ldr	r0, [r7, #20]
 664 0298 FFF7FEFF 		bl	lv_page_sb_refresh
 169:..\..\..\lvgl\version_6.1.2\lvgl\src\lv_objx/lv_page.c **** 
 170:..\..\..\lvgl\version_6.1.2\lvgl\src\lv_objx/lv_page.c ****     LV_LOG_INFO("page created");
 171:..\..\..\lvgl\version_6.1.2\lvgl\src\lv_objx/lv_page.c **** 
 172:..\..\..\lvgl\version_6.1.2\lvgl\src\lv_objx/lv_page.c ****     return new_page;
 665              		.loc 3 172 0
 666 029c 7B69     		ldr	r3, [r7, #20]
 667              	.L16:
 173:..\..\..\lvgl\version_6.1.2\lvgl\src\lv_objx/lv_page.c **** }
 668              		.loc 3 173 0
 669 029e 1846     		mov	r0, r3
 670 02a0 1837     		adds	r7, r7, #24
 671              		.cfi_def_cfa_offset 8
 672 02a2 BD46     		mov	sp, r7
 673              		.cfi_def_cfa_register 13
 674              		@ sp needed
 675 02a4 80BD     		pop	{r7, pc}
 676              	.L27:
 677 02a6 00BF     		.align	2
 678              	.L26:
 679 02a8 04000000 		.word	ancestor_signal
 680 02ac 00000000 		.word	ancestor_design
 681 02b0 00000000 		.word	lv_style_pretty
 682 02b4 00000000 		.word	lv_style_plain_color
 683 02b8 00000000 		.word	lv_page_scrollable_signal
 684 02bc 00000000 		.word	lv_scrl_design
 685 02c0 00000000 		.word	scrl_def_event_cb
 686 02c4 00000000 		.word	lv_page_signal
 687 02c8 00000000 		.word	lv_page_design
 688 02cc 00000000 		.word	lv_style_transp
 689 02d0 00000000 		.word	lv_style_pretty_color
 690              		.cfi_endproc
 691              	.LFE48:
 692              		.size	lv_page_create, .-lv_page_create
 693              		.section	.text.lv_page_clean,"ax",%progbits
 694              		.align	2
 695              		.global	lv_page_clean
 696              		.thumb
 697              		.thumb_func
 698              		.type	lv_page_clean, %function
 699              	lv_page_clean:
 700              	.LFB49:
ARM GAS  C:\Users\tmj32\AppData\Local\Temp\ccFKuFvs.s 			page 24


 174:..\..\..\lvgl\version_6.1.2\lvgl\src\lv_objx/lv_page.c **** 
 175:..\..\..\lvgl\version_6.1.2\lvgl\src\lv_objx/lv_page.c **** /**
 176:..\..\..\lvgl\version_6.1.2\lvgl\src\lv_objx/lv_page.c ****  * Delete all children of the scrl object, without deleting scrl child.
 177:..\..\..\lvgl\version_6.1.2\lvgl\src\lv_objx/lv_page.c ****  * @param page pointer to an object
 178:..\..\..\lvgl\version_6.1.2\lvgl\src\lv_objx/lv_page.c ****  */
 179:..\..\..\lvgl\version_6.1.2\lvgl\src\lv_objx/lv_page.c **** void lv_page_clean(lv_obj_t * page)
 180:..\..\..\lvgl\version_6.1.2\lvgl\src\lv_objx/lv_page.c **** {
 701              		.loc 3 180 0
 702              		.cfi_startproc
 703              		@ args = 0, pretend = 0, frame = 16
 704              		@ frame_needed = 1, uses_anonymous_args = 0
 705 0000 80B5     		push	{r7, lr}
 706              		.cfi_def_cfa_offset 8
 707              		.cfi_offset 7, -8
 708              		.cfi_offset 14, -4
 709 0002 84B0     		sub	sp, sp, #16
 710              		.cfi_def_cfa_offset 24
 711 0004 00AF     		add	r7, sp, #0
 712              		.cfi_def_cfa_register 7
 713 0006 7860     		str	r0, [r7, #4]
 181:..\..\..\lvgl\version_6.1.2\lvgl\src\lv_objx/lv_page.c ****     LV_ASSERT_OBJ(page, LV_OBJX_NAME);
 182:..\..\..\lvgl\version_6.1.2\lvgl\src\lv_objx/lv_page.c **** 
 183:..\..\..\lvgl\version_6.1.2\lvgl\src\lv_objx/lv_page.c ****     lv_obj_t * scrl = lv_page_get_scrl(page);
 714              		.loc 3 183 0
 715 0008 7868     		ldr	r0, [r7, #4]
 716 000a FFF7FEFF 		bl	lv_page_get_scrl
 717 000e F860     		str	r0, [r7, #12]
 184:..\..\..\lvgl\version_6.1.2\lvgl\src\lv_objx/lv_page.c ****     lv_obj_clean(scrl);
 718              		.loc 3 184 0
 719 0010 F868     		ldr	r0, [r7, #12]
 720 0012 FFF7FEFF 		bl	lv_obj_clean
 185:..\..\..\lvgl\version_6.1.2\lvgl\src\lv_objx/lv_page.c **** }
 721              		.loc 3 185 0
 722 0016 00BF     		nop
 723 0018 1037     		adds	r7, r7, #16
 724              		.cfi_def_cfa_offset 8
 725 001a BD46     		mov	sp, r7
 726              		.cfi_def_cfa_register 13
 727              		@ sp needed
 728 001c 80BD     		pop	{r7, pc}
 729              		.cfi_endproc
 730              	.LFE49:
 731              		.size	lv_page_clean, .-lv_page_clean
 732 001e 00BF     		.section	.text.lv_page_set_sb_mode,"ax",%progbits
 733              		.align	2
 734              		.global	lv_page_set_sb_mode
 735              		.thumb
 736              		.thumb_func
 737              		.type	lv_page_set_sb_mode, %function
 738              	lv_page_set_sb_mode:
 739              	.LFB50:
 186:..\..\..\lvgl\version_6.1.2\lvgl\src\lv_objx/lv_page.c **** 
 187:..\..\..\lvgl\version_6.1.2\lvgl\src\lv_objx/lv_page.c **** /*=====================
 188:..\..\..\lvgl\version_6.1.2\lvgl\src\lv_objx/lv_page.c ****  * Setter functions
 189:..\..\..\lvgl\version_6.1.2\lvgl\src\lv_objx/lv_page.c ****  *====================*/
 190:..\..\..\lvgl\version_6.1.2\lvgl\src\lv_objx/lv_page.c **** 
 191:..\..\..\lvgl\version_6.1.2\lvgl\src\lv_objx/lv_page.c **** /**
ARM GAS  C:\Users\tmj32\AppData\Local\Temp\ccFKuFvs.s 			page 25


 192:..\..\..\lvgl\version_6.1.2\lvgl\src\lv_objx/lv_page.c ****  * Set the scroll bar mode on a page
 193:..\..\..\lvgl\version_6.1.2\lvgl\src\lv_objx/lv_page.c ****  * @param page pointer to a page object
 194:..\..\..\lvgl\version_6.1.2\lvgl\src\lv_objx/lv_page.c ****  * @param sb_mode the new mode from 'lv_page_sb.mode_t' enum
 195:..\..\..\lvgl\version_6.1.2\lvgl\src\lv_objx/lv_page.c ****  */
 196:..\..\..\lvgl\version_6.1.2\lvgl\src\lv_objx/lv_page.c **** void lv_page_set_sb_mode(lv_obj_t * page, lv_sb_mode_t sb_mode)
 197:..\..\..\lvgl\version_6.1.2\lvgl\src\lv_objx/lv_page.c **** {
 740              		.loc 3 197 0
 741              		.cfi_startproc
 742              		@ args = 0, pretend = 0, frame = 16
 743              		@ frame_needed = 1, uses_anonymous_args = 0
 744 0000 80B5     		push	{r7, lr}
 745              		.cfi_def_cfa_offset 8
 746              		.cfi_offset 7, -8
 747              		.cfi_offset 14, -4
 748 0002 84B0     		sub	sp, sp, #16
 749              		.cfi_def_cfa_offset 24
 750 0004 00AF     		add	r7, sp, #0
 751              		.cfi_def_cfa_register 7
 752 0006 7860     		str	r0, [r7, #4]
 753 0008 0B46     		mov	r3, r1
 754 000a FB70     		strb	r3, [r7, #3]
 198:..\..\..\lvgl\version_6.1.2\lvgl\src\lv_objx/lv_page.c ****     LV_ASSERT_OBJ(page, LV_OBJX_NAME);
 199:..\..\..\lvgl\version_6.1.2\lvgl\src\lv_objx/lv_page.c **** 
 200:..\..\..\lvgl\version_6.1.2\lvgl\src\lv_objx/lv_page.c ****     lv_page_ext_t * ext = lv_obj_get_ext_attr(page);
 755              		.loc 3 200 0
 756 000c 7868     		ldr	r0, [r7, #4]
 757 000e FFF7FEFF 		bl	lv_obj_get_ext_attr
 758 0012 F860     		str	r0, [r7, #12]
 201:..\..\..\lvgl\version_6.1.2\lvgl\src\lv_objx/lv_page.c ****     if(ext->sb.mode == sb_mode) return;
 759              		.loc 3 201 0
 760 0014 FB68     		ldr	r3, [r7, #12]
 761 0016 1B7F     		ldrb	r3, [r3, #28]
 762 0018 C3F38203 		ubfx	r3, r3, #2, #3
 763 001c DBB2     		uxtb	r3, r3
 764 001e 1A46     		mov	r2, r3
 765 0020 FB78     		ldrb	r3, [r7, #3]	@ zero_extendqisi2
 766 0022 9A42     		cmp	r2, r3
 767 0024 48D0     		beq	.L36
 202:..\..\..\lvgl\version_6.1.2\lvgl\src\lv_objx/lv_page.c **** 
 203:..\..\..\lvgl\version_6.1.2\lvgl\src\lv_objx/lv_page.c ****     if(sb_mode == LV_SB_MODE_HIDE)
 768              		.loc 3 203 0
 769 0026 FB78     		ldrb	r3, [r7, #3]	@ zero_extendqisi2
 770 0028 042B     		cmp	r3, #4
 771 002a 0DD1     		bne	.L32
 204:..\..\..\lvgl\version_6.1.2\lvgl\src\lv_objx/lv_page.c ****         ext->sb.mode |= LV_SB_MODE_HIDE; /*Set the hidden flag*/
 772              		.loc 3 204 0
 773 002c FB68     		ldr	r3, [r7, #12]
 774 002e 1B7F     		ldrb	r3, [r3, #28]
 775 0030 C3F38203 		ubfx	r3, r3, #2, #3
 776 0034 DBB2     		uxtb	r3, r3
 777 0036 43F00403 		orr	r3, r3, #4
 778 003a D9B2     		uxtb	r1, r3
 779 003c FA68     		ldr	r2, [r7, #12]
 780 003e 137F     		ldrb	r3, [r2, #28]
 781 0040 61F38403 		bfi	r3, r1, #2, #3
 782 0044 1377     		strb	r3, [r2, #28]
 783 0046 26E0     		b	.L33
ARM GAS  C:\Users\tmj32\AppData\Local\Temp\ccFKuFvs.s 			page 26


 784              	.L32:
 205:..\..\..\lvgl\version_6.1.2\lvgl\src\lv_objx/lv_page.c ****     else if(sb_mode == LV_SB_MODE_UNHIDE)
 785              		.loc 3 205 0
 786 0048 FB78     		ldrb	r3, [r7, #3]	@ zero_extendqisi2
 787 004a 052B     		cmp	r3, #5
 788 004c 0DD1     		bne	.L34
 206:..\..\..\lvgl\version_6.1.2\lvgl\src\lv_objx/lv_page.c ****         ext->sb.mode &= (~LV_SB_MODE_HIDE); /*Clear the hidden flag*/
 789              		.loc 3 206 0
 790 004e FB68     		ldr	r3, [r7, #12]
 791 0050 1B7F     		ldrb	r3, [r3, #28]
 792 0052 C3F38203 		ubfx	r3, r3, #2, #3
 793 0056 DBB2     		uxtb	r3, r3
 794 0058 03F00303 		and	r3, r3, #3
 795 005c D9B2     		uxtb	r1, r3
 796 005e FA68     		ldr	r2, [r7, #12]
 797 0060 137F     		ldrb	r3, [r2, #28]
 798 0062 61F38403 		bfi	r3, r1, #2, #3
 799 0066 1377     		strb	r3, [r2, #28]
 800 0068 15E0     		b	.L33
 801              	.L34:
 207:..\..\..\lvgl\version_6.1.2\lvgl\src\lv_objx/lv_page.c ****     else {
 208:..\..\..\lvgl\version_6.1.2\lvgl\src\lv_objx/lv_page.c ****         if(ext->sb.mode & LV_SB_MODE_HIDE) sb_mode |= LV_SB_MODE_HIDE;
 802              		.loc 3 208 0
 803 006a FB68     		ldr	r3, [r7, #12]
 804 006c 1B7F     		ldrb	r3, [r3, #28]
 805 006e C3F38203 		ubfx	r3, r3, #2, #3
 806 0072 DBB2     		uxtb	r3, r3
 807 0074 03F00403 		and	r3, r3, #4
 808 0078 002B     		cmp	r3, #0
 809 007a 03D0     		beq	.L35
 810              		.loc 3 208 0 is_stmt 0 discriminator 1
 811 007c FB78     		ldrb	r3, [r7, #3]
 812 007e 43F00403 		orr	r3, r3, #4
 813 0082 FB70     		strb	r3, [r7, #3]
 814              	.L35:
 209:..\..\..\lvgl\version_6.1.2\lvgl\src\lv_objx/lv_page.c ****         ext->sb.mode = sb_mode;
 815              		.loc 3 209 0 is_stmt 1
 816 0084 FB78     		ldrb	r3, [r7, #3]
 817 0086 03F00703 		and	r3, r3, #7
 818 008a D9B2     		uxtb	r1, r3
 819 008c FA68     		ldr	r2, [r7, #12]
 820 008e 137F     		ldrb	r3, [r2, #28]
 821 0090 61F38403 		bfi	r3, r1, #2, #3
 822 0094 1377     		strb	r3, [r2, #28]
 823              	.L33:
 210:..\..\..\lvgl\version_6.1.2\lvgl\src\lv_objx/lv_page.c ****     }
 211:..\..\..\lvgl\version_6.1.2\lvgl\src\lv_objx/lv_page.c **** 
 212:..\..\..\lvgl\version_6.1.2\lvgl\src\lv_objx/lv_page.c ****     ext->sb.hor_draw = 0;
 824              		.loc 3 212 0
 825 0096 FA68     		ldr	r2, [r7, #12]
 826 0098 137F     		ldrb	r3, [r2, #28]
 827 009a 6FF30003 		bfc	r3, #0, #1
 828 009e 1377     		strb	r3, [r2, #28]
 213:..\..\..\lvgl\version_6.1.2\lvgl\src\lv_objx/lv_page.c ****     ext->sb.ver_draw = 0;
 829              		.loc 3 213 0
 830 00a0 FA68     		ldr	r2, [r7, #12]
 831 00a2 137F     		ldrb	r3, [r2, #28]
ARM GAS  C:\Users\tmj32\AppData\Local\Temp\ccFKuFvs.s 			page 27


 832 00a4 6FF34103 		bfc	r3, #1, #1
 833 00a8 1377     		strb	r3, [r2, #28]
 214:..\..\..\lvgl\version_6.1.2\lvgl\src\lv_objx/lv_page.c **** 
 215:..\..\..\lvgl\version_6.1.2\lvgl\src\lv_objx/lv_page.c ****     lv_page_sb_refresh(page);
 834              		.loc 3 215 0
 835 00aa 7868     		ldr	r0, [r7, #4]
 836 00ac FFF7FEFF 		bl	lv_page_sb_refresh
 216:..\..\..\lvgl\version_6.1.2\lvgl\src\lv_objx/lv_page.c ****     lv_obj_invalidate(page);
 837              		.loc 3 216 0
 838 00b0 7868     		ldr	r0, [r7, #4]
 839 00b2 FFF7FEFF 		bl	lv_obj_invalidate
 840 00b6 00E0     		b	.L29
 841              	.L36:
 201:..\..\..\lvgl\version_6.1.2\lvgl\src\lv_objx/lv_page.c **** 
 842              		.loc 3 201 0
 843 00b8 00BF     		nop
 844              	.L29:
 217:..\..\..\lvgl\version_6.1.2\lvgl\src\lv_objx/lv_page.c **** }
 845              		.loc 3 217 0
 846 00ba 1037     		adds	r7, r7, #16
 847              		.cfi_def_cfa_offset 8
 848 00bc BD46     		mov	sp, r7
 849              		.cfi_def_cfa_register 13
 850              		@ sp needed
 851 00be 80BD     		pop	{r7, pc}
 852              		.cfi_endproc
 853              	.LFE50:
 854              		.size	lv_page_set_sb_mode, .-lv_page_set_sb_mode
 855              		.section	.text.lv_page_set_anim_time,"ax",%progbits
 856              		.align	2
 857              		.global	lv_page_set_anim_time
 858              		.thumb
 859              		.thumb_func
 860              		.type	lv_page_set_anim_time, %function
 861              	lv_page_set_anim_time:
 862              	.LFB51:
 218:..\..\..\lvgl\version_6.1.2\lvgl\src\lv_objx/lv_page.c **** 
 219:..\..\..\lvgl\version_6.1.2\lvgl\src\lv_objx/lv_page.c **** /**
 220:..\..\..\lvgl\version_6.1.2\lvgl\src\lv_objx/lv_page.c ****  * Set the animation time for the page
 221:..\..\..\lvgl\version_6.1.2\lvgl\src\lv_objx/lv_page.c ****  * @param page pointer to a page object
 222:..\..\..\lvgl\version_6.1.2\lvgl\src\lv_objx/lv_page.c ****  * @param anim_time animation time in milliseconds
 223:..\..\..\lvgl\version_6.1.2\lvgl\src\lv_objx/lv_page.c ****  */
 224:..\..\..\lvgl\version_6.1.2\lvgl\src\lv_objx/lv_page.c **** void lv_page_set_anim_time(lv_obj_t * page, uint16_t anim_time)
 225:..\..\..\lvgl\version_6.1.2\lvgl\src\lv_objx/lv_page.c **** {
 863              		.loc 3 225 0
 864              		.cfi_startproc
 865              		@ args = 0, pretend = 0, frame = 16
 866              		@ frame_needed = 1, uses_anonymous_args = 0
 867 0000 80B5     		push	{r7, lr}
 868              		.cfi_def_cfa_offset 8
 869              		.cfi_offset 7, -8
 870              		.cfi_offset 14, -4
 871 0002 84B0     		sub	sp, sp, #16
 872              		.cfi_def_cfa_offset 24
 873 0004 00AF     		add	r7, sp, #0
 874              		.cfi_def_cfa_register 7
 875 0006 7860     		str	r0, [r7, #4]
ARM GAS  C:\Users\tmj32\AppData\Local\Temp\ccFKuFvs.s 			page 28


 876 0008 0B46     		mov	r3, r1
 877 000a 7B80     		strh	r3, [r7, #2]	@ movhi
 226:..\..\..\lvgl\version_6.1.2\lvgl\src\lv_objx/lv_page.c ****     LV_ASSERT_OBJ(page, LV_OBJX_NAME);
 227:..\..\..\lvgl\version_6.1.2\lvgl\src\lv_objx/lv_page.c **** 
 228:..\..\..\lvgl\version_6.1.2\lvgl\src\lv_objx/lv_page.c **** #if LV_USE_ANIMATION
 229:..\..\..\lvgl\version_6.1.2\lvgl\src\lv_objx/lv_page.c ****     lv_page_ext_t * ext = lv_obj_get_ext_attr(page);
 878              		.loc 3 229 0
 879 000c 7868     		ldr	r0, [r7, #4]
 880 000e FFF7FEFF 		bl	lv_obj_get_ext_attr
 881 0012 F860     		str	r0, [r7, #12]
 230:..\..\..\lvgl\version_6.1.2\lvgl\src\lv_objx/lv_page.c ****     ext->anim_time      = anim_time;
 882              		.loc 3 230 0
 883 0014 FB68     		ldr	r3, [r7, #12]
 884 0016 7A88     		ldrh	r2, [r7, #2]	@ movhi
 885 0018 9A85     		strh	r2, [r3, #44]	@ movhi
 231:..\..\..\lvgl\version_6.1.2\lvgl\src\lv_objx/lv_page.c **** #else
 232:..\..\..\lvgl\version_6.1.2\lvgl\src\lv_objx/lv_page.c ****     (void)page;      /*Unused*/
 233:..\..\..\lvgl\version_6.1.2\lvgl\src\lv_objx/lv_page.c ****     (void)anim_time; /*Unused*/
 234:..\..\..\lvgl\version_6.1.2\lvgl\src\lv_objx/lv_page.c **** #endif
 235:..\..\..\lvgl\version_6.1.2\lvgl\src\lv_objx/lv_page.c **** }
 886              		.loc 3 235 0
 887 001a 00BF     		nop
 888 001c 1037     		adds	r7, r7, #16
 889              		.cfi_def_cfa_offset 8
 890 001e BD46     		mov	sp, r7
 891              		.cfi_def_cfa_register 13
 892              		@ sp needed
 893 0020 80BD     		pop	{r7, pc}
 894              		.cfi_endproc
 895              	.LFE51:
 896              		.size	lv_page_set_anim_time, .-lv_page_set_anim_time
 897 0022 00BF     		.section	.text.lv_page_set_scroll_propagation,"ax",%progbits
 898              		.align	2
 899              		.global	lv_page_set_scroll_propagation
 900              		.thumb
 901              		.thumb_func
 902              		.type	lv_page_set_scroll_propagation, %function
 903              	lv_page_set_scroll_propagation:
 904              	.LFB52:
 236:..\..\..\lvgl\version_6.1.2\lvgl\src\lv_objx/lv_page.c **** 
 237:..\..\..\lvgl\version_6.1.2\lvgl\src\lv_objx/lv_page.c **** /**
 238:..\..\..\lvgl\version_6.1.2\lvgl\src\lv_objx/lv_page.c ****  * Enable the scroll propagation feature. If enabled then the page will move its parent if there is
 239:..\..\..\lvgl\version_6.1.2\lvgl\src\lv_objx/lv_page.c ****  * no more space to scroll.
 240:..\..\..\lvgl\version_6.1.2\lvgl\src\lv_objx/lv_page.c ****  * @param page pointer to a Page
 241:..\..\..\lvgl\version_6.1.2\lvgl\src\lv_objx/lv_page.c ****  * @param en true or false to enable/disable scroll propagation
 242:..\..\..\lvgl\version_6.1.2\lvgl\src\lv_objx/lv_page.c ****  */
 243:..\..\..\lvgl\version_6.1.2\lvgl\src\lv_objx/lv_page.c **** void lv_page_set_scroll_propagation(lv_obj_t * page, bool en)
 244:..\..\..\lvgl\version_6.1.2\lvgl\src\lv_objx/lv_page.c **** {
 905              		.loc 3 244 0
 906              		.cfi_startproc
 907              		@ args = 0, pretend = 0, frame = 16
 908              		@ frame_needed = 1, uses_anonymous_args = 0
 909 0000 80B5     		push	{r7, lr}
 910              		.cfi_def_cfa_offset 8
 911              		.cfi_offset 7, -8
 912              		.cfi_offset 14, -4
 913 0002 84B0     		sub	sp, sp, #16
ARM GAS  C:\Users\tmj32\AppData\Local\Temp\ccFKuFvs.s 			page 29


 914              		.cfi_def_cfa_offset 24
 915 0004 00AF     		add	r7, sp, #0
 916              		.cfi_def_cfa_register 7
 917 0006 7860     		str	r0, [r7, #4]
 918 0008 0B46     		mov	r3, r1
 919 000a FB70     		strb	r3, [r7, #3]
 245:..\..\..\lvgl\version_6.1.2\lvgl\src\lv_objx/lv_page.c ****     LV_ASSERT_OBJ(page, LV_OBJX_NAME);
 246:..\..\..\lvgl\version_6.1.2\lvgl\src\lv_objx/lv_page.c **** 
 247:..\..\..\lvgl\version_6.1.2\lvgl\src\lv_objx/lv_page.c ****     lv_page_ext_t * ext = lv_obj_get_ext_attr(page);
 920              		.loc 3 247 0
 921 000c 7868     		ldr	r0, [r7, #4]
 922 000e FFF7FEFF 		bl	lv_obj_get_ext_attr
 923 0012 F860     		str	r0, [r7, #12]
 248:..\..\..\lvgl\version_6.1.2\lvgl\src\lv_objx/lv_page.c ****     ext->scroll_prop    = en ? 1 : 0;
 924              		.loc 3 248 0
 925 0014 FB78     		ldrb	r3, [r7, #3]	@ zero_extendqisi2
 926 0016 03F00103 		and	r3, r3, #1
 927 001a D9B2     		uxtb	r1, r3
 928 001c FA68     		ldr	r2, [r7, #12]
 929 001e 92F82E30 		ldrb	r3, [r2, #46]
 930 0022 61F30003 		bfi	r3, r1, #0, #1
 931 0026 82F82E30 		strb	r3, [r2, #46]
 249:..\..\..\lvgl\version_6.1.2\lvgl\src\lv_objx/lv_page.c **** }
 932              		.loc 3 249 0
 933 002a 00BF     		nop
 934 002c 1037     		adds	r7, r7, #16
 935              		.cfi_def_cfa_offset 8
 936 002e BD46     		mov	sp, r7
 937              		.cfi_def_cfa_register 13
 938              		@ sp needed
 939 0030 80BD     		pop	{r7, pc}
 940              		.cfi_endproc
 941              	.LFE52:
 942              		.size	lv_page_set_scroll_propagation, .-lv_page_set_scroll_propagation
 943 0032 00BF     		.section	.text.lv_page_set_edge_flash,"ax",%progbits
 944              		.align	2
 945              		.global	lv_page_set_edge_flash
 946              		.thumb
 947              		.thumb_func
 948              		.type	lv_page_set_edge_flash, %function
 949              	lv_page_set_edge_flash:
 950              	.LFB53:
 250:..\..\..\lvgl\version_6.1.2\lvgl\src\lv_objx/lv_page.c **** 
 251:..\..\..\lvgl\version_6.1.2\lvgl\src\lv_objx/lv_page.c **** /**
 252:..\..\..\lvgl\version_6.1.2\lvgl\src\lv_objx/lv_page.c ****  * Enable the edge flash effect. (Show an arc when the an edge is reached)
 253:..\..\..\lvgl\version_6.1.2\lvgl\src\lv_objx/lv_page.c ****  * @param page pointer to a Page
 254:..\..\..\lvgl\version_6.1.2\lvgl\src\lv_objx/lv_page.c ****  * @param en true or false to enable/disable end flash
 255:..\..\..\lvgl\version_6.1.2\lvgl\src\lv_objx/lv_page.c ****  */
 256:..\..\..\lvgl\version_6.1.2\lvgl\src\lv_objx/lv_page.c **** void lv_page_set_edge_flash(lv_obj_t * page, bool en)
 257:..\..\..\lvgl\version_6.1.2\lvgl\src\lv_objx/lv_page.c **** {
 951              		.loc 3 257 0
 952              		.cfi_startproc
 953              		@ args = 0, pretend = 0, frame = 16
 954              		@ frame_needed = 1, uses_anonymous_args = 0
 955 0000 80B5     		push	{r7, lr}
 956              		.cfi_def_cfa_offset 8
 957              		.cfi_offset 7, -8
ARM GAS  C:\Users\tmj32\AppData\Local\Temp\ccFKuFvs.s 			page 30


 958              		.cfi_offset 14, -4
 959 0002 84B0     		sub	sp, sp, #16
 960              		.cfi_def_cfa_offset 24
 961 0004 00AF     		add	r7, sp, #0
 962              		.cfi_def_cfa_register 7
 963 0006 7860     		str	r0, [r7, #4]
 964 0008 0B46     		mov	r3, r1
 965 000a FB70     		strb	r3, [r7, #3]
 258:..\..\..\lvgl\version_6.1.2\lvgl\src\lv_objx/lv_page.c ****     LV_ASSERT_OBJ(page, LV_OBJX_NAME);
 259:..\..\..\lvgl\version_6.1.2\lvgl\src\lv_objx/lv_page.c **** 
 260:..\..\..\lvgl\version_6.1.2\lvgl\src\lv_objx/lv_page.c **** #if LV_USE_ANIMATION
 261:..\..\..\lvgl\version_6.1.2\lvgl\src\lv_objx/lv_page.c ****     lv_page_ext_t * ext     = lv_obj_get_ext_attr(page);
 966              		.loc 3 261 0
 967 000c 7868     		ldr	r0, [r7, #4]
 968 000e FFF7FEFF 		bl	lv_obj_get_ext_attr
 969 0012 F860     		str	r0, [r7, #12]
 262:..\..\..\lvgl\version_6.1.2\lvgl\src\lv_objx/lv_page.c ****     ext->edge_flash.enabled = en ? 1 : 0;
 970              		.loc 3 262 0
 971 0014 FB78     		ldrb	r3, [r7, #3]	@ zero_extendqisi2
 972 0016 03F00103 		and	r3, r3, #1
 973 001a D9B2     		uxtb	r1, r3
 974 001c FA68     		ldr	r2, [r7, #12]
 975 001e 92F82830 		ldrb	r3, [r2, #40]
 976 0022 61F30003 		bfi	r3, r1, #0, #1
 977 0026 82F82830 		strb	r3, [r2, #40]
 263:..\..\..\lvgl\version_6.1.2\lvgl\src\lv_objx/lv_page.c **** #else
 264:..\..\..\lvgl\version_6.1.2\lvgl\src\lv_objx/lv_page.c ****     (void)page;
 265:..\..\..\lvgl\version_6.1.2\lvgl\src\lv_objx/lv_page.c ****     (void)en;
 266:..\..\..\lvgl\version_6.1.2\lvgl\src\lv_objx/lv_page.c **** #endif
 267:..\..\..\lvgl\version_6.1.2\lvgl\src\lv_objx/lv_page.c **** }
 978              		.loc 3 267 0
 979 002a 00BF     		nop
 980 002c 1037     		adds	r7, r7, #16
 981              		.cfi_def_cfa_offset 8
 982 002e BD46     		mov	sp, r7
 983              		.cfi_def_cfa_register 13
 984              		@ sp needed
 985 0030 80BD     		pop	{r7, pc}
 986              		.cfi_endproc
 987              	.LFE53:
 988              		.size	lv_page_set_edge_flash, .-lv_page_set_edge_flash
 989 0032 00BF     		.section	.text.lv_page_set_style,"ax",%progbits
 990              		.align	2
 991              		.global	lv_page_set_style
 992              		.thumb
 993              		.thumb_func
 994              		.type	lv_page_set_style, %function
 995              	lv_page_set_style:
 996              	.LFB54:
 268:..\..\..\lvgl\version_6.1.2\lvgl\src\lv_objx/lv_page.c **** 
 269:..\..\..\lvgl\version_6.1.2\lvgl\src\lv_objx/lv_page.c **** /**
 270:..\..\..\lvgl\version_6.1.2\lvgl\src\lv_objx/lv_page.c ****  * Set a style of a page
 271:..\..\..\lvgl\version_6.1.2\lvgl\src\lv_objx/lv_page.c ****  * @param page pointer to a page object
 272:..\..\..\lvgl\version_6.1.2\lvgl\src\lv_objx/lv_page.c ****  * @param type which style should be set
 273:..\..\..\lvgl\version_6.1.2\lvgl\src\lv_objx/lv_page.c ****  * @param style pointer to a style
 274:..\..\..\lvgl\version_6.1.2\lvgl\src\lv_objx/lv_page.c ****  *  */
 275:..\..\..\lvgl\version_6.1.2\lvgl\src\lv_objx/lv_page.c **** void lv_page_set_style(lv_obj_t * page, lv_page_style_t type, const lv_style_t * style)
ARM GAS  C:\Users\tmj32\AppData\Local\Temp\ccFKuFvs.s 			page 31


 276:..\..\..\lvgl\version_6.1.2\lvgl\src\lv_objx/lv_page.c **** {
 997              		.loc 3 276 0
 998              		.cfi_startproc
 999              		@ args = 0, pretend = 0, frame = 24
 1000              		@ frame_needed = 1, uses_anonymous_args = 0
 1001 0000 80B5     		push	{r7, lr}
 1002              		.cfi_def_cfa_offset 8
 1003              		.cfi_offset 7, -8
 1004              		.cfi_offset 14, -4
 1005 0002 86B0     		sub	sp, sp, #24
 1006              		.cfi_def_cfa_offset 32
 1007 0004 00AF     		add	r7, sp, #0
 1008              		.cfi_def_cfa_register 7
 1009 0006 F860     		str	r0, [r7, #12]
 1010 0008 0B46     		mov	r3, r1
 1011 000a 7A60     		str	r2, [r7, #4]
 1012 000c FB72     		strb	r3, [r7, #11]
 277:..\..\..\lvgl\version_6.1.2\lvgl\src\lv_objx/lv_page.c ****     LV_ASSERT_OBJ(page, LV_OBJX_NAME);
 278:..\..\..\lvgl\version_6.1.2\lvgl\src\lv_objx/lv_page.c **** 
 279:..\..\..\lvgl\version_6.1.2\lvgl\src\lv_objx/lv_page.c ****     lv_page_ext_t * ext = lv_obj_get_ext_attr(page);
 1013              		.loc 3 279 0
 1014 000e F868     		ldr	r0, [r7, #12]
 1015 0010 FFF7FEFF 		bl	lv_obj_get_ext_attr
 1016 0014 7861     		str	r0, [r7, #20]
 280:..\..\..\lvgl\version_6.1.2\lvgl\src\lv_objx/lv_page.c **** 
 281:..\..\..\lvgl\version_6.1.2\lvgl\src\lv_objx/lv_page.c ****     switch(type) {
 1017              		.loc 3 281 0
 1018 0016 FB7A     		ldrb	r3, [r7, #11]	@ zero_extendqisi2
 1019 0018 032B     		cmp	r3, #3
 1020 001a 3ED8     		bhi	.L47
 1021 001c 01A2     		adr	r2, .L43
 1022 001e 52F823F0 		ldr	pc, [r2, r3, lsl #2]
 1023 0022 00BF     		.p2align 2
 1024              	.L43:
 1025 0024 35000000 		.word	.L42+1
 1026 0028 3F000000 		.word	.L44+1
 1027 002c 4D000000 		.word	.L45+1
 1028 0030 93000000 		.word	.L46+1
 1029              		.p2align 1
 1030              	.L42:
 282:..\..\..\lvgl\version_6.1.2\lvgl\src\lv_objx/lv_page.c ****         case LV_PAGE_STYLE_BG: lv_obj_set_style(page, style); break;
 1031              		.loc 3 282 0
 1032 0034 7968     		ldr	r1, [r7, #4]
 1033 0036 F868     		ldr	r0, [r7, #12]
 1034 0038 FFF7FEFF 		bl	lv_obj_set_style
 1035 003c 2DE0     		b	.L41
 1036              	.L44:
 283:..\..\..\lvgl\version_6.1.2\lvgl\src\lv_objx/lv_page.c ****         case LV_PAGE_STYLE_SCRL: lv_obj_set_style(ext->scrl, style); break;
 1037              		.loc 3 283 0
 1038 003e 7B69     		ldr	r3, [r7, #20]
 1039 0040 5B68     		ldr	r3, [r3, #4]
 1040 0042 7968     		ldr	r1, [r7, #4]
 1041 0044 1846     		mov	r0, r3
 1042 0046 FFF7FEFF 		bl	lv_obj_set_style
 1043 004a 26E0     		b	.L41
 1044              	.L45:
 284:..\..\..\lvgl\version_6.1.2\lvgl\src\lv_objx/lv_page.c ****         case LV_PAGE_STYLE_SB:
ARM GAS  C:\Users\tmj32\AppData\Local\Temp\ccFKuFvs.s 			page 32


 285:..\..\..\lvgl\version_6.1.2\lvgl\src\lv_objx/lv_page.c ****             ext->sb.style = style;
 1045              		.loc 3 285 0
 1046 004c 7B69     		ldr	r3, [r7, #20]
 1047 004e 7A68     		ldr	r2, [r7, #4]
 1048 0050 9A60     		str	r2, [r3, #8]
 286:..\..\..\lvgl\version_6.1.2\lvgl\src\lv_objx/lv_page.c ****             lv_area_set_height(&ext->sb.hor_area, ext->sb.style->body.padding.inner);
 1049              		.loc 3 286 0
 1050 0052 7B69     		ldr	r3, [r7, #20]
 1051 0054 03F10C02 		add	r2, r3, #12
 1052 0058 7B69     		ldr	r3, [r7, #20]
 1053 005a 9B68     		ldr	r3, [r3, #8]
 1054 005c B3F92830 		ldrsh	r3, [r3, #40]
 1055 0060 1946     		mov	r1, r3
 1056 0062 1046     		mov	r0, r2
 1057 0064 FFF7FEFF 		bl	lv_area_set_height
 287:..\..\..\lvgl\version_6.1.2\lvgl\src\lv_objx/lv_page.c ****             lv_area_set_width(&ext->sb.ver_area, ext->sb.style->body.padding.inner);
 1058              		.loc 3 287 0
 1059 0068 7B69     		ldr	r3, [r7, #20]
 1060 006a 03F11402 		add	r2, r3, #20
 1061 006e 7B69     		ldr	r3, [r7, #20]
 1062 0070 9B68     		ldr	r3, [r3, #8]
 1063 0072 B3F92830 		ldrsh	r3, [r3, #40]
 1064 0076 1946     		mov	r1, r3
 1065 0078 1046     		mov	r0, r2
 1066 007a FFF7FEFF 		bl	lv_area_set_width
 288:..\..\..\lvgl\version_6.1.2\lvgl\src\lv_objx/lv_page.c ****             lv_page_sb_refresh(page);
 1067              		.loc 3 288 0
 1068 007e F868     		ldr	r0, [r7, #12]
 1069 0080 FFF7FEFF 		bl	lv_page_sb_refresh
 289:..\..\..\lvgl\version_6.1.2\lvgl\src\lv_objx/lv_page.c ****             lv_obj_refresh_ext_draw_pad(page);
 1070              		.loc 3 289 0
 1071 0084 F868     		ldr	r0, [r7, #12]
 1072 0086 FFF7FEFF 		bl	lv_obj_refresh_ext_draw_pad
 290:..\..\..\lvgl\version_6.1.2\lvgl\src\lv_objx/lv_page.c ****             lv_obj_invalidate(page);
 1073              		.loc 3 290 0
 1074 008a F868     		ldr	r0, [r7, #12]
 1075 008c FFF7FEFF 		bl	lv_obj_invalidate
 291:..\..\..\lvgl\version_6.1.2\lvgl\src\lv_objx/lv_page.c ****             break;
 1076              		.loc 3 291 0
 1077 0090 03E0     		b	.L41
 1078              	.L46:
 292:..\..\..\lvgl\version_6.1.2\lvgl\src\lv_objx/lv_page.c **** #if LV_USE_ANIMATION
 293:..\..\..\lvgl\version_6.1.2\lvgl\src\lv_objx/lv_page.c ****         case LV_PAGE_STYLE_EDGE_FLASH: ext->edge_flash.style = style; break;
 1079              		.loc 3 293 0
 1080 0092 7B69     		ldr	r3, [r7, #20]
 1081 0094 7A68     		ldr	r2, [r7, #4]
 1082 0096 5A62     		str	r2, [r3, #36]
 1083 0098 00BF     		nop
 1084              	.L41:
 1085              	.L47:
 294:..\..\..\lvgl\version_6.1.2\lvgl\src\lv_objx/lv_page.c **** #endif
 295:..\..\..\lvgl\version_6.1.2\lvgl\src\lv_objx/lv_page.c ****     }
 296:..\..\..\lvgl\version_6.1.2\lvgl\src\lv_objx/lv_page.c **** }
 1086              		.loc 3 296 0
 1087 009a 00BF     		nop
 1088 009c 1837     		adds	r7, r7, #24
 1089              		.cfi_def_cfa_offset 8
ARM GAS  C:\Users\tmj32\AppData\Local\Temp\ccFKuFvs.s 			page 33


 1090 009e BD46     		mov	sp, r7
 1091              		.cfi_def_cfa_register 13
 1092              		@ sp needed
 1093 00a0 80BD     		pop	{r7, pc}
 1094              		.cfi_endproc
 1095              	.LFE54:
 1096              		.size	lv_page_set_style, .-lv_page_set_style
 1097 00a2 00BF     		.section	.text.lv_page_get_scrl,"ax",%progbits
 1098              		.align	2
 1099              		.global	lv_page_get_scrl
 1100              		.thumb
 1101              		.thumb_func
 1102              		.type	lv_page_get_scrl, %function
 1103              	lv_page_get_scrl:
 1104              	.LFB55:
 297:..\..\..\lvgl\version_6.1.2\lvgl\src\lv_objx/lv_page.c **** 
 298:..\..\..\lvgl\version_6.1.2\lvgl\src\lv_objx/lv_page.c **** /*=====================
 299:..\..\..\lvgl\version_6.1.2\lvgl\src\lv_objx/lv_page.c ****  * Getter functions
 300:..\..\..\lvgl\version_6.1.2\lvgl\src\lv_objx/lv_page.c ****  *====================*/
 301:..\..\..\lvgl\version_6.1.2\lvgl\src\lv_objx/lv_page.c **** 
 302:..\..\..\lvgl\version_6.1.2\lvgl\src\lv_objx/lv_page.c **** /**
 303:..\..\..\lvgl\version_6.1.2\lvgl\src\lv_objx/lv_page.c ****  * Get the scrollable object of a page
 304:..\..\..\lvgl\version_6.1.2\lvgl\src\lv_objx/lv_page.c ****  * @param page pointer to a page object
 305:..\..\..\lvgl\version_6.1.2\lvgl\src\lv_objx/lv_page.c ****  * @return pointer to a container which is the scrollable part of the page
 306:..\..\..\lvgl\version_6.1.2\lvgl\src\lv_objx/lv_page.c ****  */
 307:..\..\..\lvgl\version_6.1.2\lvgl\src\lv_objx/lv_page.c **** lv_obj_t * lv_page_get_scrl(const lv_obj_t * page)
 308:..\..\..\lvgl\version_6.1.2\lvgl\src\lv_objx/lv_page.c **** {
 1105              		.loc 3 308 0
 1106              		.cfi_startproc
 1107              		@ args = 0, pretend = 0, frame = 16
 1108              		@ frame_needed = 1, uses_anonymous_args = 0
 1109 0000 80B5     		push	{r7, lr}
 1110              		.cfi_def_cfa_offset 8
 1111              		.cfi_offset 7, -8
 1112              		.cfi_offset 14, -4
 1113 0002 84B0     		sub	sp, sp, #16
 1114              		.cfi_def_cfa_offset 24
 1115 0004 00AF     		add	r7, sp, #0
 1116              		.cfi_def_cfa_register 7
 1117 0006 7860     		str	r0, [r7, #4]
 309:..\..\..\lvgl\version_6.1.2\lvgl\src\lv_objx/lv_page.c ****     LV_ASSERT_OBJ(page, LV_OBJX_NAME);
 310:..\..\..\lvgl\version_6.1.2\lvgl\src\lv_objx/lv_page.c **** 
 311:..\..\..\lvgl\version_6.1.2\lvgl\src\lv_objx/lv_page.c ****     lv_page_ext_t * ext = lv_obj_get_ext_attr(page);
 1118              		.loc 3 311 0
 1119 0008 7868     		ldr	r0, [r7, #4]
 1120 000a FFF7FEFF 		bl	lv_obj_get_ext_attr
 1121 000e F860     		str	r0, [r7, #12]
 312:..\..\..\lvgl\version_6.1.2\lvgl\src\lv_objx/lv_page.c **** 
 313:..\..\..\lvgl\version_6.1.2\lvgl\src\lv_objx/lv_page.c ****     return ext->scrl;
 1122              		.loc 3 313 0
 1123 0010 FB68     		ldr	r3, [r7, #12]
 1124 0012 5B68     		ldr	r3, [r3, #4]
 314:..\..\..\lvgl\version_6.1.2\lvgl\src\lv_objx/lv_page.c **** }
 1125              		.loc 3 314 0
 1126 0014 1846     		mov	r0, r3
 1127 0016 1037     		adds	r7, r7, #16
 1128              		.cfi_def_cfa_offset 8
ARM GAS  C:\Users\tmj32\AppData\Local\Temp\ccFKuFvs.s 			page 34


 1129 0018 BD46     		mov	sp, r7
 1130              		.cfi_def_cfa_register 13
 1131              		@ sp needed
 1132 001a 80BD     		pop	{r7, pc}
 1133              		.cfi_endproc
 1134              	.LFE55:
 1135              		.size	lv_page_get_scrl, .-lv_page_get_scrl
 1136              		.section	.text.lv_page_get_anim_time,"ax",%progbits
 1137              		.align	2
 1138              		.global	lv_page_get_anim_time
 1139              		.thumb
 1140              		.thumb_func
 1141              		.type	lv_page_get_anim_time, %function
 1142              	lv_page_get_anim_time:
 1143              	.LFB56:
 315:..\..\..\lvgl\version_6.1.2\lvgl\src\lv_objx/lv_page.c **** 
 316:..\..\..\lvgl\version_6.1.2\lvgl\src\lv_objx/lv_page.c **** /**
 317:..\..\..\lvgl\version_6.1.2\lvgl\src\lv_objx/lv_page.c ****  * Get the animation time
 318:..\..\..\lvgl\version_6.1.2\lvgl\src\lv_objx/lv_page.c ****  * @param page pointer to a page object
 319:..\..\..\lvgl\version_6.1.2\lvgl\src\lv_objx/lv_page.c ****  * @return the animation time in milliseconds
 320:..\..\..\lvgl\version_6.1.2\lvgl\src\lv_objx/lv_page.c ****  */
 321:..\..\..\lvgl\version_6.1.2\lvgl\src\lv_objx/lv_page.c **** uint16_t lv_page_get_anim_time(const lv_obj_t * page)
 322:..\..\..\lvgl\version_6.1.2\lvgl\src\lv_objx/lv_page.c **** {
 1144              		.loc 3 322 0
 1145              		.cfi_startproc
 1146              		@ args = 0, pretend = 0, frame = 16
 1147              		@ frame_needed = 1, uses_anonymous_args = 0
 1148 0000 80B5     		push	{r7, lr}
 1149              		.cfi_def_cfa_offset 8
 1150              		.cfi_offset 7, -8
 1151              		.cfi_offset 14, -4
 1152 0002 84B0     		sub	sp, sp, #16
 1153              		.cfi_def_cfa_offset 24
 1154 0004 00AF     		add	r7, sp, #0
 1155              		.cfi_def_cfa_register 7
 1156 0006 7860     		str	r0, [r7, #4]
 323:..\..\..\lvgl\version_6.1.2\lvgl\src\lv_objx/lv_page.c ****     LV_ASSERT_OBJ(page, LV_OBJX_NAME);
 324:..\..\..\lvgl\version_6.1.2\lvgl\src\lv_objx/lv_page.c **** 
 325:..\..\..\lvgl\version_6.1.2\lvgl\src\lv_objx/lv_page.c **** #if LV_USE_ANIMATION
 326:..\..\..\lvgl\version_6.1.2\lvgl\src\lv_objx/lv_page.c ****     lv_page_ext_t * ext = lv_obj_get_ext_attr(page);
 1157              		.loc 3 326 0
 1158 0008 7868     		ldr	r0, [r7, #4]
 1159 000a FFF7FEFF 		bl	lv_obj_get_ext_attr
 1160 000e F860     		str	r0, [r7, #12]
 327:..\..\..\lvgl\version_6.1.2\lvgl\src\lv_objx/lv_page.c ****     return ext->anim_time;
 1161              		.loc 3 327 0
 1162 0010 FB68     		ldr	r3, [r7, #12]
 1163 0012 9B8D     		ldrh	r3, [r3, #44]
 328:..\..\..\lvgl\version_6.1.2\lvgl\src\lv_objx/lv_page.c **** #else
 329:..\..\..\lvgl\version_6.1.2\lvgl\src\lv_objx/lv_page.c ****     (void)page; /*Unused*/
 330:..\..\..\lvgl\version_6.1.2\lvgl\src\lv_objx/lv_page.c ****     return 0;
 331:..\..\..\lvgl\version_6.1.2\lvgl\src\lv_objx/lv_page.c **** #endif
 332:..\..\..\lvgl\version_6.1.2\lvgl\src\lv_objx/lv_page.c **** }
 1164              		.loc 3 332 0
 1165 0014 1846     		mov	r0, r3
 1166 0016 1037     		adds	r7, r7, #16
 1167              		.cfi_def_cfa_offset 8
ARM GAS  C:\Users\tmj32\AppData\Local\Temp\ccFKuFvs.s 			page 35


 1168 0018 BD46     		mov	sp, r7
 1169              		.cfi_def_cfa_register 13
 1170              		@ sp needed
 1171 001a 80BD     		pop	{r7, pc}
 1172              		.cfi_endproc
 1173              	.LFE56:
 1174              		.size	lv_page_get_anim_time, .-lv_page_get_anim_time
 1175              		.section	.text.lv_page_get_sb_mode,"ax",%progbits
 1176              		.align	2
 1177              		.global	lv_page_get_sb_mode
 1178              		.thumb
 1179              		.thumb_func
 1180              		.type	lv_page_get_sb_mode, %function
 1181              	lv_page_get_sb_mode:
 1182              	.LFB57:
 333:..\..\..\lvgl\version_6.1.2\lvgl\src\lv_objx/lv_page.c **** 
 334:..\..\..\lvgl\version_6.1.2\lvgl\src\lv_objx/lv_page.c **** /**
 335:..\..\..\lvgl\version_6.1.2\lvgl\src\lv_objx/lv_page.c ****  * Set the scroll bar mode on a page
 336:..\..\..\lvgl\version_6.1.2\lvgl\src\lv_objx/lv_page.c ****  * @param page pointer to a page object
 337:..\..\..\lvgl\version_6.1.2\lvgl\src\lv_objx/lv_page.c ****  * @return the mode from 'lv_page_sb.mode_t' enum
 338:..\..\..\lvgl\version_6.1.2\lvgl\src\lv_objx/lv_page.c ****  */
 339:..\..\..\lvgl\version_6.1.2\lvgl\src\lv_objx/lv_page.c **** lv_sb_mode_t lv_page_get_sb_mode(const lv_obj_t * page)
 340:..\..\..\lvgl\version_6.1.2\lvgl\src\lv_objx/lv_page.c **** {
 1183              		.loc 3 340 0
 1184              		.cfi_startproc
 1185              		@ args = 0, pretend = 0, frame = 16
 1186              		@ frame_needed = 1, uses_anonymous_args = 0
 1187 0000 80B5     		push	{r7, lr}
 1188              		.cfi_def_cfa_offset 8
 1189              		.cfi_offset 7, -8
 1190              		.cfi_offset 14, -4
 1191 0002 84B0     		sub	sp, sp, #16
 1192              		.cfi_def_cfa_offset 24
 1193 0004 00AF     		add	r7, sp, #0
 1194              		.cfi_def_cfa_register 7
 1195 0006 7860     		str	r0, [r7, #4]
 341:..\..\..\lvgl\version_6.1.2\lvgl\src\lv_objx/lv_page.c ****     LV_ASSERT_OBJ(page, LV_OBJX_NAME);
 342:..\..\..\lvgl\version_6.1.2\lvgl\src\lv_objx/lv_page.c **** 
 343:..\..\..\lvgl\version_6.1.2\lvgl\src\lv_objx/lv_page.c ****     lv_page_ext_t * ext = lv_obj_get_ext_attr(page);
 1196              		.loc 3 343 0
 1197 0008 7868     		ldr	r0, [r7, #4]
 1198 000a FFF7FEFF 		bl	lv_obj_get_ext_attr
 1199 000e F860     		str	r0, [r7, #12]
 344:..\..\..\lvgl\version_6.1.2\lvgl\src\lv_objx/lv_page.c ****     return ext->sb.mode;
 1200              		.loc 3 344 0
 1201 0010 FB68     		ldr	r3, [r7, #12]
 1202 0012 1B7F     		ldrb	r3, [r3, #28]
 1203 0014 C3F38203 		ubfx	r3, r3, #2, #3
 1204 0018 DBB2     		uxtb	r3, r3
 345:..\..\..\lvgl\version_6.1.2\lvgl\src\lv_objx/lv_page.c **** }
 1205              		.loc 3 345 0
 1206 001a 1846     		mov	r0, r3
 1207 001c 1037     		adds	r7, r7, #16
 1208              		.cfi_def_cfa_offset 8
 1209 001e BD46     		mov	sp, r7
 1210              		.cfi_def_cfa_register 13
 1211              		@ sp needed
ARM GAS  C:\Users\tmj32\AppData\Local\Temp\ccFKuFvs.s 			page 36


 1212 0020 80BD     		pop	{r7, pc}
 1213              		.cfi_endproc
 1214              	.LFE57:
 1215              		.size	lv_page_get_sb_mode, .-lv_page_get_sb_mode
 1216 0022 00BF     		.section	.text.lv_page_get_scroll_propagation,"ax",%progbits
 1217              		.align	2
 1218              		.global	lv_page_get_scroll_propagation
 1219              		.thumb
 1220              		.thumb_func
 1221              		.type	lv_page_get_scroll_propagation, %function
 1222              	lv_page_get_scroll_propagation:
 1223              	.LFB58:
 346:..\..\..\lvgl\version_6.1.2\lvgl\src\lv_objx/lv_page.c **** 
 347:..\..\..\lvgl\version_6.1.2\lvgl\src\lv_objx/lv_page.c **** /**
 348:..\..\..\lvgl\version_6.1.2\lvgl\src\lv_objx/lv_page.c ****  * Get the scroll propagation property
 349:..\..\..\lvgl\version_6.1.2\lvgl\src\lv_objx/lv_page.c ****  * @param page pointer to a Page
 350:..\..\..\lvgl\version_6.1.2\lvgl\src\lv_objx/lv_page.c ****  * @return true or false
 351:..\..\..\lvgl\version_6.1.2\lvgl\src\lv_objx/lv_page.c ****  */
 352:..\..\..\lvgl\version_6.1.2\lvgl\src\lv_objx/lv_page.c **** bool lv_page_get_scroll_propagation(lv_obj_t * page)
 353:..\..\..\lvgl\version_6.1.2\lvgl\src\lv_objx/lv_page.c **** {
 1224              		.loc 3 353 0
 1225              		.cfi_startproc
 1226              		@ args = 0, pretend = 0, frame = 16
 1227              		@ frame_needed = 1, uses_anonymous_args = 0
 1228 0000 80B5     		push	{r7, lr}
 1229              		.cfi_def_cfa_offset 8
 1230              		.cfi_offset 7, -8
 1231              		.cfi_offset 14, -4
 1232 0002 84B0     		sub	sp, sp, #16
 1233              		.cfi_def_cfa_offset 24
 1234 0004 00AF     		add	r7, sp, #0
 1235              		.cfi_def_cfa_register 7
 1236 0006 7860     		str	r0, [r7, #4]
 354:..\..\..\lvgl\version_6.1.2\lvgl\src\lv_objx/lv_page.c ****     LV_ASSERT_OBJ(page, LV_OBJX_NAME);
 355:..\..\..\lvgl\version_6.1.2\lvgl\src\lv_objx/lv_page.c **** 
 356:..\..\..\lvgl\version_6.1.2\lvgl\src\lv_objx/lv_page.c ****     lv_page_ext_t * ext = lv_obj_get_ext_attr(page);
 1237              		.loc 3 356 0
 1238 0008 7868     		ldr	r0, [r7, #4]
 1239 000a FFF7FEFF 		bl	lv_obj_get_ext_attr
 1240 000e F860     		str	r0, [r7, #12]
 357:..\..\..\lvgl\version_6.1.2\lvgl\src\lv_objx/lv_page.c ****     return ext->scroll_prop == 0 ? false : true;
 1241              		.loc 3 357 0
 1242 0010 FB68     		ldr	r3, [r7, #12]
 1243 0012 93F82E30 		ldrb	r3, [r3, #46]	@ zero_extendqisi2
 1244 0016 03F00103 		and	r3, r3, #1
 1245 001a DBB2     		uxtb	r3, r3
 1246 001c 002B     		cmp	r3, #0
 1247 001e 14BF     		ite	ne
 1248 0020 0123     		movne	r3, #1
 1249 0022 0023     		moveq	r3, #0
 1250 0024 DBB2     		uxtb	r3, r3
 358:..\..\..\lvgl\version_6.1.2\lvgl\src\lv_objx/lv_page.c **** }
 1251              		.loc 3 358 0
 1252 0026 1846     		mov	r0, r3
 1253 0028 1037     		adds	r7, r7, #16
 1254              		.cfi_def_cfa_offset 8
 1255 002a BD46     		mov	sp, r7
ARM GAS  C:\Users\tmj32\AppData\Local\Temp\ccFKuFvs.s 			page 37


 1256              		.cfi_def_cfa_register 13
 1257              		@ sp needed
 1258 002c 80BD     		pop	{r7, pc}
 1259              		.cfi_endproc
 1260              	.LFE58:
 1261              		.size	lv_page_get_scroll_propagation, .-lv_page_get_scroll_propagation
 1262 002e 00BF     		.section	.text.lv_page_get_edge_flash,"ax",%progbits
 1263              		.align	2
 1264              		.global	lv_page_get_edge_flash
 1265              		.thumb
 1266              		.thumb_func
 1267              		.type	lv_page_get_edge_flash, %function
 1268              	lv_page_get_edge_flash:
 1269              	.LFB59:
 359:..\..\..\lvgl\version_6.1.2\lvgl\src\lv_objx/lv_page.c **** 
 360:..\..\..\lvgl\version_6.1.2\lvgl\src\lv_objx/lv_page.c **** /**
 361:..\..\..\lvgl\version_6.1.2\lvgl\src\lv_objx/lv_page.c ****  * Get the edge flash effect property.
 362:..\..\..\lvgl\version_6.1.2\lvgl\src\lv_objx/lv_page.c ****  * @param page pointer to a Page
 363:..\..\..\lvgl\version_6.1.2\lvgl\src\lv_objx/lv_page.c ****  * return true or false
 364:..\..\..\lvgl\version_6.1.2\lvgl\src\lv_objx/lv_page.c ****  */
 365:..\..\..\lvgl\version_6.1.2\lvgl\src\lv_objx/lv_page.c **** bool lv_page_get_edge_flash(lv_obj_t * page)
 366:..\..\..\lvgl\version_6.1.2\lvgl\src\lv_objx/lv_page.c **** {
 1270              		.loc 3 366 0
 1271              		.cfi_startproc
 1272              		@ args = 0, pretend = 0, frame = 16
 1273              		@ frame_needed = 1, uses_anonymous_args = 0
 1274 0000 80B5     		push	{r7, lr}
 1275              		.cfi_def_cfa_offset 8
 1276              		.cfi_offset 7, -8
 1277              		.cfi_offset 14, -4
 1278 0002 84B0     		sub	sp, sp, #16
 1279              		.cfi_def_cfa_offset 24
 1280 0004 00AF     		add	r7, sp, #0
 1281              		.cfi_def_cfa_register 7
 1282 0006 7860     		str	r0, [r7, #4]
 367:..\..\..\lvgl\version_6.1.2\lvgl\src\lv_objx/lv_page.c ****     LV_ASSERT_OBJ(page, LV_OBJX_NAME);
 368:..\..\..\lvgl\version_6.1.2\lvgl\src\lv_objx/lv_page.c **** 
 369:..\..\..\lvgl\version_6.1.2\lvgl\src\lv_objx/lv_page.c **** #if LV_USE_ANIMATION
 370:..\..\..\lvgl\version_6.1.2\lvgl\src\lv_objx/lv_page.c ****     lv_page_ext_t * ext = lv_obj_get_ext_attr(page);
 1283              		.loc 3 370 0
 1284 0008 7868     		ldr	r0, [r7, #4]
 1285 000a FFF7FEFF 		bl	lv_obj_get_ext_attr
 1286 000e F860     		str	r0, [r7, #12]
 371:..\..\..\lvgl\version_6.1.2\lvgl\src\lv_objx/lv_page.c ****     return ext->edge_flash.enabled == 0 ? false : true;
 1287              		.loc 3 371 0
 1288 0010 FB68     		ldr	r3, [r7, #12]
 1289 0012 93F82830 		ldrb	r3, [r3, #40]	@ zero_extendqisi2
 1290 0016 03F00103 		and	r3, r3, #1
 1291 001a DBB2     		uxtb	r3, r3
 1292 001c 002B     		cmp	r3, #0
 1293 001e 14BF     		ite	ne
 1294 0020 0123     		movne	r3, #1
 1295 0022 0023     		moveq	r3, #0
 1296 0024 DBB2     		uxtb	r3, r3
 372:..\..\..\lvgl\version_6.1.2\lvgl\src\lv_objx/lv_page.c **** #else
 373:..\..\..\lvgl\version_6.1.2\lvgl\src\lv_objx/lv_page.c ****     (void)page;
 374:..\..\..\lvgl\version_6.1.2\lvgl\src\lv_objx/lv_page.c ****     return false;
ARM GAS  C:\Users\tmj32\AppData\Local\Temp\ccFKuFvs.s 			page 38


 375:..\..\..\lvgl\version_6.1.2\lvgl\src\lv_objx/lv_page.c **** #endif
 376:..\..\..\lvgl\version_6.1.2\lvgl\src\lv_objx/lv_page.c **** }
 1297              		.loc 3 376 0
 1298 0026 1846     		mov	r0, r3
 1299 0028 1037     		adds	r7, r7, #16
 1300              		.cfi_def_cfa_offset 8
 1301 002a BD46     		mov	sp, r7
 1302              		.cfi_def_cfa_register 13
 1303              		@ sp needed
 1304 002c 80BD     		pop	{r7, pc}
 1305              		.cfi_endproc
 1306              	.LFE59:
 1307              		.size	lv_page_get_edge_flash, .-lv_page_get_edge_flash
 1308 002e 00BF     		.section	.text.lv_page_get_fit_width,"ax",%progbits
 1309              		.align	2
 1310              		.global	lv_page_get_fit_width
 1311              		.thumb
 1312              		.thumb_func
 1313              		.type	lv_page_get_fit_width, %function
 1314              	lv_page_get_fit_width:
 1315              	.LFB60:
 377:..\..\..\lvgl\version_6.1.2\lvgl\src\lv_objx/lv_page.c **** 
 378:..\..\..\lvgl\version_6.1.2\lvgl\src\lv_objx/lv_page.c **** /**
 379:..\..\..\lvgl\version_6.1.2\lvgl\src\lv_objx/lv_page.c ****  * Get that width which can be set to the children to still not cause overflow (show scrollbars)
 380:..\..\..\lvgl\version_6.1.2\lvgl\src\lv_objx/lv_page.c ****  * @param page pointer to a page object
 381:..\..\..\lvgl\version_6.1.2\lvgl\src\lv_objx/lv_page.c ****  * @return the width which still fits into the page
 382:..\..\..\lvgl\version_6.1.2\lvgl\src\lv_objx/lv_page.c ****  */
 383:..\..\..\lvgl\version_6.1.2\lvgl\src\lv_objx/lv_page.c **** lv_coord_t lv_page_get_fit_width(lv_obj_t * page)
 384:..\..\..\lvgl\version_6.1.2\lvgl\src\lv_objx/lv_page.c **** {
 1316              		.loc 3 384 0
 1317              		.cfi_startproc
 1318              		@ args = 0, pretend = 0, frame = 16
 1319              		@ frame_needed = 1, uses_anonymous_args = 0
 1320 0000 80B5     		push	{r7, lr}
 1321              		.cfi_def_cfa_offset 8
 1322              		.cfi_offset 7, -8
 1323              		.cfi_offset 14, -4
 1324 0002 84B0     		sub	sp, sp, #16
 1325              		.cfi_def_cfa_offset 24
 1326 0004 00AF     		add	r7, sp, #0
 1327              		.cfi_def_cfa_register 7
 1328 0006 7860     		str	r0, [r7, #4]
 385:..\..\..\lvgl\version_6.1.2\lvgl\src\lv_objx/lv_page.c ****     LV_ASSERT_OBJ(page, LV_OBJX_NAME);
 386:..\..\..\lvgl\version_6.1.2\lvgl\src\lv_objx/lv_page.c **** 
 387:..\..\..\lvgl\version_6.1.2\lvgl\src\lv_objx/lv_page.c ****     const lv_style_t * bg_style   = lv_page_get_style(page, LV_PAGE_STYLE_BG);
 1329              		.loc 3 387 0
 1330 0008 0021     		movs	r1, #0
 1331 000a 7868     		ldr	r0, [r7, #4]
 1332 000c FFF7FEFF 		bl	lv_page_get_style
 1333 0010 F860     		str	r0, [r7, #12]
 388:..\..\..\lvgl\version_6.1.2\lvgl\src\lv_objx/lv_page.c ****     const lv_style_t * scrl_style = lv_page_get_style(page, LV_PAGE_STYLE_SCRL);
 1334              		.loc 3 388 0
 1335 0012 0121     		movs	r1, #1
 1336 0014 7868     		ldr	r0, [r7, #4]
 1337 0016 FFF7FEFF 		bl	lv_page_get_style
 1338 001a B860     		str	r0, [r7, #8]
 389:..\..\..\lvgl\version_6.1.2\lvgl\src\lv_objx/lv_page.c **** 
ARM GAS  C:\Users\tmj32\AppData\Local\Temp\ccFKuFvs.s 			page 39


 390:..\..\..\lvgl\version_6.1.2\lvgl\src\lv_objx/lv_page.c ****     return lv_obj_get_width(page) - bg_style->body.padding.left - bg_style->body.padding.right -
 1339              		.loc 3 390 0
 1340 001c 7868     		ldr	r0, [r7, #4]
 1341 001e FFF7FEFF 		bl	lv_obj_get_width
 1342 0022 0346     		mov	r3, r0
 1343 0024 9AB2     		uxth	r2, r3
 1344 0026 FB68     		ldr	r3, [r7, #12]
 1345 0028 B3F92430 		ldrsh	r3, [r3, #36]
 1346 002c 9BB2     		uxth	r3, r3
 1347 002e D31A     		subs	r3, r2, r3
 1348 0030 9AB2     		uxth	r2, r3
 1349 0032 FB68     		ldr	r3, [r7, #12]
 1350 0034 B3F92630 		ldrsh	r3, [r3, #38]
 1351 0038 9BB2     		uxth	r3, r3
 1352 003a D31A     		subs	r3, r2, r3
 1353 003c 9AB2     		uxth	r2, r3
 391:..\..\..\lvgl\version_6.1.2\lvgl\src\lv_objx/lv_page.c ****            scrl_style->body.padding.left - scrl_style->body.padding.right;
 1354              		.loc 3 391 0
 1355 003e BB68     		ldr	r3, [r7, #8]
 1356 0040 B3F92430 		ldrsh	r3, [r3, #36]
 390:..\..\..\lvgl\version_6.1.2\lvgl\src\lv_objx/lv_page.c ****            scrl_style->body.padding.left - scrl_style->body.padding.right;
 1357              		.loc 3 390 0
 1358 0044 9BB2     		uxth	r3, r3
 1359 0046 D31A     		subs	r3, r2, r3
 1360 0048 9AB2     		uxth	r2, r3
 1361              		.loc 3 391 0
 1362 004a BB68     		ldr	r3, [r7, #8]
 1363 004c B3F92630 		ldrsh	r3, [r3, #38]
 390:..\..\..\lvgl\version_6.1.2\lvgl\src\lv_objx/lv_page.c ****            scrl_style->body.padding.left - scrl_style->body.padding.right;
 1364              		.loc 3 390 0
 1365 0050 9BB2     		uxth	r3, r3
 1366 0052 D31A     		subs	r3, r2, r3
 1367 0054 9BB2     		uxth	r3, r3
 1368 0056 1BB2     		sxth	r3, r3
 392:..\..\..\lvgl\version_6.1.2\lvgl\src\lv_objx/lv_page.c **** }
 1369              		.loc 3 392 0
 1370 0058 1846     		mov	r0, r3
 1371 005a 1037     		adds	r7, r7, #16
 1372              		.cfi_def_cfa_offset 8
 1373 005c BD46     		mov	sp, r7
 1374              		.cfi_def_cfa_register 13
 1375              		@ sp needed
 1376 005e 80BD     		pop	{r7, pc}
 1377              		.cfi_endproc
 1378              	.LFE60:
 1379              		.size	lv_page_get_fit_width, .-lv_page_get_fit_width
 1380              		.section	.text.lv_page_get_fit_height,"ax",%progbits
 1381              		.align	2
 1382              		.global	lv_page_get_fit_height
 1383              		.thumb
 1384              		.thumb_func
 1385              		.type	lv_page_get_fit_height, %function
 1386              	lv_page_get_fit_height:
 1387              	.LFB61:
 393:..\..\..\lvgl\version_6.1.2\lvgl\src\lv_objx/lv_page.c **** 
 394:..\..\..\lvgl\version_6.1.2\lvgl\src\lv_objx/lv_page.c **** /**
 395:..\..\..\lvgl\version_6.1.2\lvgl\src\lv_objx/lv_page.c ****  * Get that height which can be set to the children to still not cause overflow (show scrollbars)
ARM GAS  C:\Users\tmj32\AppData\Local\Temp\ccFKuFvs.s 			page 40


 396:..\..\..\lvgl\version_6.1.2\lvgl\src\lv_objx/lv_page.c ****  * @param page pointer to a page object
 397:..\..\..\lvgl\version_6.1.2\lvgl\src\lv_objx/lv_page.c ****  * @return the height which still fits into the page
 398:..\..\..\lvgl\version_6.1.2\lvgl\src\lv_objx/lv_page.c ****  */
 399:..\..\..\lvgl\version_6.1.2\lvgl\src\lv_objx/lv_page.c **** lv_coord_t lv_page_get_fit_height(lv_obj_t * page)
 400:..\..\..\lvgl\version_6.1.2\lvgl\src\lv_objx/lv_page.c **** {
 1388              		.loc 3 400 0
 1389              		.cfi_startproc
 1390              		@ args = 0, pretend = 0, frame = 16
 1391              		@ frame_needed = 1, uses_anonymous_args = 0
 1392 0000 80B5     		push	{r7, lr}
 1393              		.cfi_def_cfa_offset 8
 1394              		.cfi_offset 7, -8
 1395              		.cfi_offset 14, -4
 1396 0002 84B0     		sub	sp, sp, #16
 1397              		.cfi_def_cfa_offset 24
 1398 0004 00AF     		add	r7, sp, #0
 1399              		.cfi_def_cfa_register 7
 1400 0006 7860     		str	r0, [r7, #4]
 401:..\..\..\lvgl\version_6.1.2\lvgl\src\lv_objx/lv_page.c ****     LV_ASSERT_OBJ(page, LV_OBJX_NAME);
 402:..\..\..\lvgl\version_6.1.2\lvgl\src\lv_objx/lv_page.c **** 
 403:..\..\..\lvgl\version_6.1.2\lvgl\src\lv_objx/lv_page.c ****     const lv_style_t * bg_style   = lv_page_get_style(page, LV_PAGE_STYLE_BG);
 1401              		.loc 3 403 0
 1402 0008 0021     		movs	r1, #0
 1403 000a 7868     		ldr	r0, [r7, #4]
 1404 000c FFF7FEFF 		bl	lv_page_get_style
 1405 0010 F860     		str	r0, [r7, #12]
 404:..\..\..\lvgl\version_6.1.2\lvgl\src\lv_objx/lv_page.c ****     const lv_style_t * scrl_style = lv_page_get_style(page, LV_PAGE_STYLE_SCRL);
 1406              		.loc 3 404 0
 1407 0012 0121     		movs	r1, #1
 1408 0014 7868     		ldr	r0, [r7, #4]
 1409 0016 FFF7FEFF 		bl	lv_page_get_style
 1410 001a B860     		str	r0, [r7, #8]
 405:..\..\..\lvgl\version_6.1.2\lvgl\src\lv_objx/lv_page.c **** 
 406:..\..\..\lvgl\version_6.1.2\lvgl\src\lv_objx/lv_page.c ****     return lv_obj_get_height(page) - bg_style->body.padding.top - bg_style->body.padding.bottom -
 1411              		.loc 3 406 0
 1412 001c 7868     		ldr	r0, [r7, #4]
 1413 001e FFF7FEFF 		bl	lv_obj_get_height
 1414 0022 0346     		mov	r3, r0
 1415 0024 9AB2     		uxth	r2, r3
 1416 0026 FB68     		ldr	r3, [r7, #12]
 1417 0028 B3F92030 		ldrsh	r3, [r3, #32]
 1418 002c 9BB2     		uxth	r3, r3
 1419 002e D31A     		subs	r3, r2, r3
 1420 0030 9AB2     		uxth	r2, r3
 1421 0032 FB68     		ldr	r3, [r7, #12]
 1422 0034 B3F92230 		ldrsh	r3, [r3, #34]
 1423 0038 9BB2     		uxth	r3, r3
 1424 003a D31A     		subs	r3, r2, r3
 1425 003c 9AB2     		uxth	r2, r3
 407:..\..\..\lvgl\version_6.1.2\lvgl\src\lv_objx/lv_page.c ****            scrl_style->body.padding.top - scrl_style->body.padding.bottom;
 1426              		.loc 3 407 0
 1427 003e BB68     		ldr	r3, [r7, #8]
 1428 0040 B3F92030 		ldrsh	r3, [r3, #32]
 406:..\..\..\lvgl\version_6.1.2\lvgl\src\lv_objx/lv_page.c ****            scrl_style->body.padding.top - scrl_style->body.padding.bottom;
 1429              		.loc 3 406 0
 1430 0044 9BB2     		uxth	r3, r3
 1431 0046 D31A     		subs	r3, r2, r3
ARM GAS  C:\Users\tmj32\AppData\Local\Temp\ccFKuFvs.s 			page 41


 1432 0048 9AB2     		uxth	r2, r3
 1433              		.loc 3 407 0
 1434 004a BB68     		ldr	r3, [r7, #8]
 1435 004c B3F92230 		ldrsh	r3, [r3, #34]
 406:..\..\..\lvgl\version_6.1.2\lvgl\src\lv_objx/lv_page.c ****            scrl_style->body.padding.top - scrl_style->body.padding.bottom;
 1436              		.loc 3 406 0
 1437 0050 9BB2     		uxth	r3, r3
 1438 0052 D31A     		subs	r3, r2, r3
 1439 0054 9BB2     		uxth	r3, r3
 1440 0056 1BB2     		sxth	r3, r3
 408:..\..\..\lvgl\version_6.1.2\lvgl\src\lv_objx/lv_page.c **** }
 1441              		.loc 3 408 0
 1442 0058 1846     		mov	r0, r3
 1443 005a 1037     		adds	r7, r7, #16
 1444              		.cfi_def_cfa_offset 8
 1445 005c BD46     		mov	sp, r7
 1446              		.cfi_def_cfa_register 13
 1447              		@ sp needed
 1448 005e 80BD     		pop	{r7, pc}
 1449              		.cfi_endproc
 1450              	.LFE61:
 1451              		.size	lv_page_get_fit_height, .-lv_page_get_fit_height
 1452              		.section	.text.lv_page_get_style,"ax",%progbits
 1453              		.align	2
 1454              		.global	lv_page_get_style
 1455              		.thumb
 1456              		.thumb_func
 1457              		.type	lv_page_get_style, %function
 1458              	lv_page_get_style:
 1459              	.LFB62:
 409:..\..\..\lvgl\version_6.1.2\lvgl\src\lv_objx/lv_page.c **** 
 410:..\..\..\lvgl\version_6.1.2\lvgl\src\lv_objx/lv_page.c **** /**
 411:..\..\..\lvgl\version_6.1.2\lvgl\src\lv_objx/lv_page.c ****  * Get a style of a page
 412:..\..\..\lvgl\version_6.1.2\lvgl\src\lv_objx/lv_page.c ****  * @param page pointer to page object
 413:..\..\..\lvgl\version_6.1.2\lvgl\src\lv_objx/lv_page.c ****  * @param type which style should be get
 414:..\..\..\lvgl\version_6.1.2\lvgl\src\lv_objx/lv_page.c ****  * @return style pointer to a style
 415:..\..\..\lvgl\version_6.1.2\lvgl\src\lv_objx/lv_page.c ****  *  */
 416:..\..\..\lvgl\version_6.1.2\lvgl\src\lv_objx/lv_page.c **** const lv_style_t * lv_page_get_style(const lv_obj_t * page, lv_page_style_t type)
 417:..\..\..\lvgl\version_6.1.2\lvgl\src\lv_objx/lv_page.c **** {
 1460              		.loc 3 417 0
 1461              		.cfi_startproc
 1462              		@ args = 0, pretend = 0, frame = 16
 1463              		@ frame_needed = 1, uses_anonymous_args = 0
 1464 0000 80B5     		push	{r7, lr}
 1465              		.cfi_def_cfa_offset 8
 1466              		.cfi_offset 7, -8
 1467              		.cfi_offset 14, -4
 1468 0002 84B0     		sub	sp, sp, #16
 1469              		.cfi_def_cfa_offset 24
 1470 0004 00AF     		add	r7, sp, #0
 1471              		.cfi_def_cfa_register 7
 1472 0006 7860     		str	r0, [r7, #4]
 1473 0008 0B46     		mov	r3, r1
 1474 000a FB70     		strb	r3, [r7, #3]
 418:..\..\..\lvgl\version_6.1.2\lvgl\src\lv_objx/lv_page.c ****     LV_ASSERT_OBJ(page, LV_OBJX_NAME);
 419:..\..\..\lvgl\version_6.1.2\lvgl\src\lv_objx/lv_page.c **** 
 420:..\..\..\lvgl\version_6.1.2\lvgl\src\lv_objx/lv_page.c ****     const lv_style_t * style = NULL;
ARM GAS  C:\Users\tmj32\AppData\Local\Temp\ccFKuFvs.s 			page 42


 1475              		.loc 3 420 0
 1476 000c 0023     		movs	r3, #0
 1477 000e FB60     		str	r3, [r7, #12]
 421:..\..\..\lvgl\version_6.1.2\lvgl\src\lv_objx/lv_page.c ****     lv_page_ext_t * ext      = lv_obj_get_ext_attr(page);
 1478              		.loc 3 421 0
 1479 0010 7868     		ldr	r0, [r7, #4]
 1480 0012 FFF7FEFF 		bl	lv_obj_get_ext_attr
 1481 0016 B860     		str	r0, [r7, #8]
 422:..\..\..\lvgl\version_6.1.2\lvgl\src\lv_objx/lv_page.c **** 
 423:..\..\..\lvgl\version_6.1.2\lvgl\src\lv_objx/lv_page.c ****     switch(type) {
 1482              		.loc 3 423 0
 1483 0018 FB78     		ldrb	r3, [r7, #3]	@ zero_extendqisi2
 1484 001a 032B     		cmp	r3, #3
 1485 001c 1ED8     		bhi	.L63
 1486 001e 01A2     		adr	r2, .L65
 1487 0020 52F823F0 		ldr	pc, [r2, r3, lsl #2]
 1488              		.p2align 2
 1489              	.L65:
 1490 0024 35000000 		.word	.L64+1
 1491 0028 3F000000 		.word	.L66+1
 1492 002c 4D000000 		.word	.L67+1
 1493 0030 55000000 		.word	.L68+1
 1494              		.p2align 1
 1495              	.L64:
 424:..\..\..\lvgl\version_6.1.2\lvgl\src\lv_objx/lv_page.c ****         case LV_PAGE_STYLE_BG: style = lv_obj_get_style(page); break;
 1496              		.loc 3 424 0
 1497 0034 7868     		ldr	r0, [r7, #4]
 1498 0036 FFF7FEFF 		bl	lv_obj_get_style
 1499 003a F860     		str	r0, [r7, #12]
 1500 003c 11E0     		b	.L69
 1501              	.L66:
 425:..\..\..\lvgl\version_6.1.2\lvgl\src\lv_objx/lv_page.c ****         case LV_PAGE_STYLE_SCRL: style = lv_obj_get_style(ext->scrl); break;
 1502              		.loc 3 425 0
 1503 003e BB68     		ldr	r3, [r7, #8]
 1504 0040 5B68     		ldr	r3, [r3, #4]
 1505 0042 1846     		mov	r0, r3
 1506 0044 FFF7FEFF 		bl	lv_obj_get_style
 1507 0048 F860     		str	r0, [r7, #12]
 1508 004a 0AE0     		b	.L69
 1509              	.L67:
 426:..\..\..\lvgl\version_6.1.2\lvgl\src\lv_objx/lv_page.c ****         case LV_PAGE_STYLE_SB: style = ext->sb.style; break;
 1510              		.loc 3 426 0
 1511 004c BB68     		ldr	r3, [r7, #8]
 1512 004e 9B68     		ldr	r3, [r3, #8]
 1513 0050 FB60     		str	r3, [r7, #12]
 1514 0052 06E0     		b	.L69
 1515              	.L68:
 427:..\..\..\lvgl\version_6.1.2\lvgl\src\lv_objx/lv_page.c **** #if LV_USE_ANIMATION
 428:..\..\..\lvgl\version_6.1.2\lvgl\src\lv_objx/lv_page.c ****         case LV_PAGE_STYLE_EDGE_FLASH: style = ext->edge_flash.style; break;
 1516              		.loc 3 428 0
 1517 0054 BB68     		ldr	r3, [r7, #8]
 1518 0056 5B6A     		ldr	r3, [r3, #36]
 1519 0058 FB60     		str	r3, [r7, #12]
 1520 005a 02E0     		b	.L69
 1521              	.L63:
 429:..\..\..\lvgl\version_6.1.2\lvgl\src\lv_objx/lv_page.c **** #endif
 430:..\..\..\lvgl\version_6.1.2\lvgl\src\lv_objx/lv_page.c ****         default: style = NULL; break;
ARM GAS  C:\Users\tmj32\AppData\Local\Temp\ccFKuFvs.s 			page 43


 1522              		.loc 3 430 0
 1523 005c 0023     		movs	r3, #0
 1524 005e FB60     		str	r3, [r7, #12]
 1525 0060 00BF     		nop
 1526              	.L69:
 431:..\..\..\lvgl\version_6.1.2\lvgl\src\lv_objx/lv_page.c ****     }
 432:..\..\..\lvgl\version_6.1.2\lvgl\src\lv_objx/lv_page.c **** 
 433:..\..\..\lvgl\version_6.1.2\lvgl\src\lv_objx/lv_page.c ****     return style;
 1527              		.loc 3 433 0
 1528 0062 FB68     		ldr	r3, [r7, #12]
 434:..\..\..\lvgl\version_6.1.2\lvgl\src\lv_objx/lv_page.c **** }
 1529              		.loc 3 434 0
 1530 0064 1846     		mov	r0, r3
 1531 0066 1037     		adds	r7, r7, #16
 1532              		.cfi_def_cfa_offset 8
 1533 0068 BD46     		mov	sp, r7
 1534              		.cfi_def_cfa_register 13
 1535              		@ sp needed
 1536 006a 80BD     		pop	{r7, pc}
 1537              		.cfi_endproc
 1538              	.LFE62:
 1539              		.size	lv_page_get_style, .-lv_page_get_style
 1540              		.section	.text.lv_page_on_edge,"ax",%progbits
 1541              		.align	2
 1542              		.global	lv_page_on_edge
 1543              		.thumb
 1544              		.thumb_func
 1545              		.type	lv_page_on_edge, %function
 1546              	lv_page_on_edge:
 1547              	.LFB63:
 435:..\..\..\lvgl\version_6.1.2\lvgl\src\lv_objx/lv_page.c **** 
 436:..\..\..\lvgl\version_6.1.2\lvgl\src\lv_objx/lv_page.c **** /*=====================
 437:..\..\..\lvgl\version_6.1.2\lvgl\src\lv_objx/lv_page.c ****  * Other functions
 438:..\..\..\lvgl\version_6.1.2\lvgl\src\lv_objx/lv_page.c ****  *====================*/
 439:..\..\..\lvgl\version_6.1.2\lvgl\src\lv_objx/lv_page.c **** 
 440:..\..\..\lvgl\version_6.1.2\lvgl\src\lv_objx/lv_page.c **** /**
 441:..\..\..\lvgl\version_6.1.2\lvgl\src\lv_objx/lv_page.c ****  * Find whether the page has been scrolled to a certain edge.
 442:..\..\..\lvgl\version_6.1.2\lvgl\src\lv_objx/lv_page.c ****  * @param page Page object
 443:..\..\..\lvgl\version_6.1.2\lvgl\src\lv_objx/lv_page.c ****  * @param edge Edge to check
 444:..\..\..\lvgl\version_6.1.2\lvgl\src\lv_objx/lv_page.c ****  * @return true if the page is on the specified edge
 445:..\..\..\lvgl\version_6.1.2\lvgl\src\lv_objx/lv_page.c ****  */
 446:..\..\..\lvgl\version_6.1.2\lvgl\src\lv_objx/lv_page.c **** bool lv_page_on_edge(lv_obj_t * page, lv_page_edge_t edge)
 447:..\..\..\lvgl\version_6.1.2\lvgl\src\lv_objx/lv_page.c **** {
 1548              		.loc 3 447 0
 1549              		.cfi_startproc
 1550              		@ args = 0, pretend = 0, frame = 32
 1551              		@ frame_needed = 1, uses_anonymous_args = 0
 1552 0000 80B5     		push	{r7, lr}
 1553              		.cfi_def_cfa_offset 8
 1554              		.cfi_offset 7, -8
 1555              		.cfi_offset 14, -4
 1556 0002 88B0     		sub	sp, sp, #32
 1557              		.cfi_def_cfa_offset 40
 1558 0004 00AF     		add	r7, sp, #0
 1559              		.cfi_def_cfa_register 7
 1560 0006 7860     		str	r0, [r7, #4]
 1561 0008 0B46     		mov	r3, r1
ARM GAS  C:\Users\tmj32\AppData\Local\Temp\ccFKuFvs.s 			page 44


 1562 000a FB70     		strb	r3, [r7, #3]
 448:..\..\..\lvgl\version_6.1.2\lvgl\src\lv_objx/lv_page.c ****     const lv_style_t * page_style = lv_obj_get_style(page);
 1563              		.loc 3 448 0
 1564 000c 7868     		ldr	r0, [r7, #4]
 1565 000e FFF7FEFF 		bl	lv_obj_get_style
 1566 0012 F861     		str	r0, [r7, #28]
 449:..\..\..\lvgl\version_6.1.2\lvgl\src\lv_objx/lv_page.c ****     lv_obj_t * scrl               = lv_page_get_scrl(page);
 1567              		.loc 3 449 0
 1568 0014 7868     		ldr	r0, [r7, #4]
 1569 0016 FFF7FEFF 		bl	lv_page_get_scrl
 1570 001a B861     		str	r0, [r7, #24]
 450:..\..\..\lvgl\version_6.1.2\lvgl\src\lv_objx/lv_page.c ****     lv_area_t page_coords;
 451:..\..\..\lvgl\version_6.1.2\lvgl\src\lv_objx/lv_page.c ****     lv_area_t scrl_coords;
 452:..\..\..\lvgl\version_6.1.2\lvgl\src\lv_objx/lv_page.c **** 
 453:..\..\..\lvgl\version_6.1.2\lvgl\src\lv_objx/lv_page.c ****     lv_obj_get_coords(scrl, &scrl_coords);
 1571              		.loc 3 453 0
 1572 001c 07F10803 		add	r3, r7, #8
 1573 0020 1946     		mov	r1, r3
 1574 0022 B869     		ldr	r0, [r7, #24]
 1575 0024 FFF7FEFF 		bl	lv_obj_get_coords
 454:..\..\..\lvgl\version_6.1.2\lvgl\src\lv_objx/lv_page.c ****     lv_obj_get_coords(page, &page_coords);
 1576              		.loc 3 454 0
 1577 0028 07F11003 		add	r3, r7, #16
 1578 002c 1946     		mov	r1, r3
 1579 002e 7868     		ldr	r0, [r7, #4]
 1580 0030 FFF7FEFF 		bl	lv_obj_get_coords
 455:..\..\..\lvgl\version_6.1.2\lvgl\src\lv_objx/lv_page.c **** 
 456:..\..\..\lvgl\version_6.1.2\lvgl\src\lv_objx/lv_page.c ****     if((edge & LV_PAGE_EDGE_TOP) && scrl_coords.y1 == page_coords.y1 + page_style->body.padding.top
 1581              		.loc 3 456 0
 1582 0034 FB78     		ldrb	r3, [r7, #3]	@ zero_extendqisi2
 1583 0036 03F00203 		and	r3, r3, #2
 1584 003a 002B     		cmp	r3, #0
 1585 003c 0DD0     		beq	.L72
 1586              		.loc 3 456 0 is_stmt 0 discriminator 1
 1587 003e B7F90A30 		ldrsh	r3, [r7, #10]
 1588 0042 1A46     		mov	r2, r3
 1589 0044 B7F91230 		ldrsh	r3, [r7, #18]
 1590 0048 1946     		mov	r1, r3
 1591 004a FB69     		ldr	r3, [r7, #28]
 1592 004c B3F92030 		ldrsh	r3, [r3, #32]
 1593 0050 0B44     		add	r3, r3, r1
 1594 0052 9A42     		cmp	r2, r3
 1595 0054 01D1     		bne	.L72
 1596              		.loc 3 456 0 discriminator 2
 1597 0056 0123     		movs	r3, #1
 1598 0058 39E0     		b	.L77
 1599              	.L72:
 457:..\..\..\lvgl\version_6.1.2\lvgl\src\lv_objx/lv_page.c ****     if((edge & LV_PAGE_EDGE_BOTTOM) && scrl_coords.y2 == page_coords.y2 - page_style->body.padding.
 1600              		.loc 3 457 0 is_stmt 1
 1601 005a FB78     		ldrb	r3, [r7, #3]	@ zero_extendqisi2
 1602 005c 03F00803 		and	r3, r3, #8
 1603 0060 002B     		cmp	r3, #0
 1604 0062 0DD0     		beq	.L74
 1605              		.loc 3 457 0 is_stmt 0 discriminator 1
 1606 0064 B7F90E30 		ldrsh	r3, [r7, #14]
 1607 0068 1A46     		mov	r2, r3
 1608 006a B7F91630 		ldrsh	r3, [r7, #22]
ARM GAS  C:\Users\tmj32\AppData\Local\Temp\ccFKuFvs.s 			page 45


 1609 006e 1946     		mov	r1, r3
 1610 0070 FB69     		ldr	r3, [r7, #28]
 1611 0072 B3F92230 		ldrsh	r3, [r3, #34]
 1612 0076 CB1A     		subs	r3, r1, r3
 1613 0078 9A42     		cmp	r2, r3
 1614 007a 01D1     		bne	.L74
 1615              		.loc 3 457 0 discriminator 2
 1616 007c 0123     		movs	r3, #1
 1617 007e 26E0     		b	.L77
 1618              	.L74:
 458:..\..\..\lvgl\version_6.1.2\lvgl\src\lv_objx/lv_page.c ****     if((edge & LV_PAGE_EDGE_LEFT) && scrl_coords.x1 == page_coords.x1 + page_style->body.padding.le
 1619              		.loc 3 458 0 is_stmt 1
 1620 0080 FB78     		ldrb	r3, [r7, #3]	@ zero_extendqisi2
 1621 0082 03F00103 		and	r3, r3, #1
 1622 0086 002B     		cmp	r3, #0
 1623 0088 0DD0     		beq	.L75
 1624              		.loc 3 458 0 is_stmt 0 discriminator 1
 1625 008a B7F90830 		ldrsh	r3, [r7, #8]
 1626 008e 1A46     		mov	r2, r3
 1627 0090 B7F91030 		ldrsh	r3, [r7, #16]
 1628 0094 1946     		mov	r1, r3
 1629 0096 FB69     		ldr	r3, [r7, #28]
 1630 0098 B3F92430 		ldrsh	r3, [r3, #36]
 1631 009c 0B44     		add	r3, r3, r1
 1632 009e 9A42     		cmp	r2, r3
 1633 00a0 01D1     		bne	.L75
 1634              		.loc 3 458 0 discriminator 2
 1635 00a2 0123     		movs	r3, #1
 1636 00a4 13E0     		b	.L77
 1637              	.L75:
 459:..\..\..\lvgl\version_6.1.2\lvgl\src\lv_objx/lv_page.c ****     if((edge & LV_PAGE_EDGE_RIGHT) && scrl_coords.x2 == page_coords.x2 - page_style->body.padding.r
 1638              		.loc 3 459 0 is_stmt 1
 1639 00a6 FB78     		ldrb	r3, [r7, #3]	@ zero_extendqisi2
 1640 00a8 03F00403 		and	r3, r3, #4
 1641 00ac 002B     		cmp	r3, #0
 1642 00ae 0DD0     		beq	.L76
 1643              		.loc 3 459 0 is_stmt 0 discriminator 1
 1644 00b0 B7F90C30 		ldrsh	r3, [r7, #12]
 1645 00b4 1A46     		mov	r2, r3
 1646 00b6 B7F91430 		ldrsh	r3, [r7, #20]
 1647 00ba 1946     		mov	r1, r3
 1648 00bc FB69     		ldr	r3, [r7, #28]
 1649 00be B3F92630 		ldrsh	r3, [r3, #38]
 1650 00c2 CB1A     		subs	r3, r1, r3
 1651 00c4 9A42     		cmp	r2, r3
 1652 00c6 01D1     		bne	.L76
 1653              		.loc 3 459 0 discriminator 2
 1654 00c8 0123     		movs	r3, #1
 1655 00ca 00E0     		b	.L77
 1656              	.L76:
 460:..\..\..\lvgl\version_6.1.2\lvgl\src\lv_objx/lv_page.c **** 
 461:..\..\..\lvgl\version_6.1.2\lvgl\src\lv_objx/lv_page.c ****     return false;
 1657              		.loc 3 461 0 is_stmt 1
 1658 00cc 0023     		movs	r3, #0
 1659              	.L77:
 462:..\..\..\lvgl\version_6.1.2\lvgl\src\lv_objx/lv_page.c **** }
 1660              		.loc 3 462 0 discriminator 1
ARM GAS  C:\Users\tmj32\AppData\Local\Temp\ccFKuFvs.s 			page 46


 1661 00ce 1846     		mov	r0, r3
 1662 00d0 2037     		adds	r7, r7, #32
 1663              		.cfi_def_cfa_offset 8
 1664 00d2 BD46     		mov	sp, r7
 1665              		.cfi_def_cfa_register 13
 1666              		@ sp needed
 1667 00d4 80BD     		pop	{r7, pc}
 1668              		.cfi_endproc
 1669              	.LFE63:
 1670              		.size	lv_page_on_edge, .-lv_page_on_edge
 1671 00d6 00BF     		.section	.text.lv_page_glue_obj,"ax",%progbits
 1672              		.align	2
 1673              		.global	lv_page_glue_obj
 1674              		.thumb
 1675              		.thumb_func
 1676              		.type	lv_page_glue_obj, %function
 1677              	lv_page_glue_obj:
 1678              	.LFB64:
 463:..\..\..\lvgl\version_6.1.2\lvgl\src\lv_objx/lv_page.c **** 
 464:..\..\..\lvgl\version_6.1.2\lvgl\src\lv_objx/lv_page.c **** /**
 465:..\..\..\lvgl\version_6.1.2\lvgl\src\lv_objx/lv_page.c ****  * Glue the object to the page. After it the page can be moved (dragged) with this object too.
 466:..\..\..\lvgl\version_6.1.2\lvgl\src\lv_objx/lv_page.c ****  * @param obj pointer to an object on a page
 467:..\..\..\lvgl\version_6.1.2\lvgl\src\lv_objx/lv_page.c ****  * @param glue true: enable glue, false: disable glue
 468:..\..\..\lvgl\version_6.1.2\lvgl\src\lv_objx/lv_page.c ****  */
 469:..\..\..\lvgl\version_6.1.2\lvgl\src\lv_objx/lv_page.c **** void lv_page_glue_obj(lv_obj_t * obj, bool glue)
 470:..\..\..\lvgl\version_6.1.2\lvgl\src\lv_objx/lv_page.c **** {
 1679              		.loc 3 470 0
 1680              		.cfi_startproc
 1681              		@ args = 0, pretend = 0, frame = 8
 1682              		@ frame_needed = 1, uses_anonymous_args = 0
 1683 0000 80B5     		push	{r7, lr}
 1684              		.cfi_def_cfa_offset 8
 1685              		.cfi_offset 7, -8
 1686              		.cfi_offset 14, -4
 1687 0002 82B0     		sub	sp, sp, #8
 1688              		.cfi_def_cfa_offset 16
 1689 0004 00AF     		add	r7, sp, #0
 1690              		.cfi_def_cfa_register 7
 1691 0006 7860     		str	r0, [r7, #4]
 1692 0008 0B46     		mov	r3, r1
 1693 000a FB70     		strb	r3, [r7, #3]
 471:..\..\..\lvgl\version_6.1.2\lvgl\src\lv_objx/lv_page.c ****     lv_obj_set_drag_parent(obj, glue);
 1694              		.loc 3 471 0
 1695 000c FB78     		ldrb	r3, [r7, #3]	@ zero_extendqisi2
 1696 000e 1946     		mov	r1, r3
 1697 0010 7868     		ldr	r0, [r7, #4]
 1698 0012 FFF7FEFF 		bl	lv_obj_set_drag_parent
 472:..\..\..\lvgl\version_6.1.2\lvgl\src\lv_objx/lv_page.c ****     lv_obj_set_drag(obj, glue);
 1699              		.loc 3 472 0
 1700 0016 FB78     		ldrb	r3, [r7, #3]	@ zero_extendqisi2
 1701 0018 1946     		mov	r1, r3
 1702 001a 7868     		ldr	r0, [r7, #4]
 1703 001c FFF7FEFF 		bl	lv_obj_set_drag
 473:..\..\..\lvgl\version_6.1.2\lvgl\src\lv_objx/lv_page.c **** }
 1704              		.loc 3 473 0
 1705 0020 00BF     		nop
 1706 0022 0837     		adds	r7, r7, #8
ARM GAS  C:\Users\tmj32\AppData\Local\Temp\ccFKuFvs.s 			page 47


 1707              		.cfi_def_cfa_offset 8
 1708 0024 BD46     		mov	sp, r7
 1709              		.cfi_def_cfa_register 13
 1710              		@ sp needed
 1711 0026 80BD     		pop	{r7, pc}
 1712              		.cfi_endproc
 1713              	.LFE64:
 1714              		.size	lv_page_glue_obj, .-lv_page_glue_obj
 1715              		.section	.text.lv_page_focus,"ax",%progbits
 1716              		.align	2
 1717              		.global	lv_page_focus
 1718              		.thumb
 1719              		.thumb_func
 1720              		.type	lv_page_focus, %function
 1721              	lv_page_focus:
 1722              	.LFB65:
 474:..\..\..\lvgl\version_6.1.2\lvgl\src\lv_objx/lv_page.c **** 
 475:..\..\..\lvgl\version_6.1.2\lvgl\src\lv_objx/lv_page.c **** /**
 476:..\..\..\lvgl\version_6.1.2\lvgl\src\lv_objx/lv_page.c ****  * Focus on an object. It ensures that the object will be visible on the page.
 477:..\..\..\lvgl\version_6.1.2\lvgl\src\lv_objx/lv_page.c ****  * @param page pointer to a page object
 478:..\..\..\lvgl\version_6.1.2\lvgl\src\lv_objx/lv_page.c ****  * @param obj pointer to an object to focus (must be on the page)
 479:..\..\..\lvgl\version_6.1.2\lvgl\src\lv_objx/lv_page.c ****  * @param anim_en LV_ANIM_ON to focus with animation; LV_ANIM_OFF to focus without animation
 480:..\..\..\lvgl\version_6.1.2\lvgl\src\lv_objx/lv_page.c ****  */
 481:..\..\..\lvgl\version_6.1.2\lvgl\src\lv_objx/lv_page.c **** void lv_page_focus(lv_obj_t * page, const lv_obj_t * obj, lv_anim_enable_t anim_en)
 482:..\..\..\lvgl\version_6.1.2\lvgl\src\lv_objx/lv_page.c **** {
 1723              		.loc 3 482 0
 1724              		.cfi_startproc
 1725              		@ args = 0, pretend = 0, frame = 88
 1726              		@ frame_needed = 1, uses_anonymous_args = 0
 1727 0000 80B5     		push	{r7, lr}
 1728              		.cfi_def_cfa_offset 8
 1729              		.cfi_offset 7, -8
 1730              		.cfi_offset 14, -4
 1731 0002 96B0     		sub	sp, sp, #88
 1732              		.cfi_def_cfa_offset 96
 1733 0004 00AF     		add	r7, sp, #0
 1734              		.cfi_def_cfa_register 7
 1735 0006 F860     		str	r0, [r7, #12]
 1736 0008 B960     		str	r1, [r7, #8]
 1737 000a 1346     		mov	r3, r2
 1738 000c FB71     		strb	r3, [r7, #7]
 483:..\..\..\lvgl\version_6.1.2\lvgl\src\lv_objx/lv_page.c ****     lv_page_ext_t * ext = lv_obj_get_ext_attr(page);
 1739              		.loc 3 483 0
 1740 000e F868     		ldr	r0, [r7, #12]
 1741 0010 FFF7FEFF 		bl	lv_obj_get_ext_attr
 1742 0014 3865     		str	r0, [r7, #80]
 484:..\..\..\lvgl\version_6.1.2\lvgl\src\lv_objx/lv_page.c **** 
 485:..\..\..\lvgl\version_6.1.2\lvgl\src\lv_objx/lv_page.c **** #if LV_USE_ANIMATION
 486:..\..\..\lvgl\version_6.1.2\lvgl\src\lv_objx/lv_page.c ****     /* Be sure there is no position changing animation in progress
 487:..\..\..\lvgl\version_6.1.2\lvgl\src\lv_objx/lv_page.c ****      * because it can overide the current changes*/
 488:..\..\..\lvgl\version_6.1.2\lvgl\src\lv_objx/lv_page.c ****     lv_anim_del(page, (lv_anim_exec_xcb_t)lv_obj_set_x);
 1743              		.loc 3 488 0
 1744 0016 9449     		ldr	r1, .L95
 1745 0018 F868     		ldr	r0, [r7, #12]
 1746 001a FFF7FEFF 		bl	lv_anim_del
 489:..\..\..\lvgl\version_6.1.2\lvgl\src\lv_objx/lv_page.c ****     lv_anim_del(page, (lv_anim_exec_xcb_t)lv_obj_set_y);
 1747              		.loc 3 489 0
ARM GAS  C:\Users\tmj32\AppData\Local\Temp\ccFKuFvs.s 			page 48


 1748 001e 9349     		ldr	r1, .L95+4
 1749 0020 F868     		ldr	r0, [r7, #12]
 1750 0022 FFF7FEFF 		bl	lv_anim_del
 490:..\..\..\lvgl\version_6.1.2\lvgl\src\lv_objx/lv_page.c ****     lv_anim_del(ext->scrl, (lv_anim_exec_xcb_t)lv_obj_set_x);
 1751              		.loc 3 490 0
 1752 0026 3B6D     		ldr	r3, [r7, #80]
 1753 0028 5B68     		ldr	r3, [r3, #4]
 1754 002a 8F49     		ldr	r1, .L95
 1755 002c 1846     		mov	r0, r3
 1756 002e FFF7FEFF 		bl	lv_anim_del
 491:..\..\..\lvgl\version_6.1.2\lvgl\src\lv_objx/lv_page.c ****     lv_anim_del(ext->scrl, (lv_anim_exec_xcb_t)lv_obj_set_y);
 1757              		.loc 3 491 0
 1758 0032 3B6D     		ldr	r3, [r7, #80]
 1759 0034 5B68     		ldr	r3, [r3, #4]
 1760 0036 8D49     		ldr	r1, .L95+4
 1761 0038 1846     		mov	r0, r3
 1762 003a FFF7FEFF 		bl	lv_anim_del
 492:..\..\..\lvgl\version_6.1.2\lvgl\src\lv_objx/lv_page.c **** #endif
 493:..\..\..\lvgl\version_6.1.2\lvgl\src\lv_objx/lv_page.c **** 
 494:..\..\..\lvgl\version_6.1.2\lvgl\src\lv_objx/lv_page.c ****     const lv_style_t * style      = lv_page_get_style(page, LV_PAGE_STYLE_BG);
 1763              		.loc 3 494 0
 1764 003e 0021     		movs	r1, #0
 1765 0040 F868     		ldr	r0, [r7, #12]
 1766 0042 FFF7FEFF 		bl	lv_page_get_style
 1767 0046 F864     		str	r0, [r7, #76]
 495:..\..\..\lvgl\version_6.1.2\lvgl\src\lv_objx/lv_page.c ****     const lv_style_t * style_scrl = lv_page_get_style(page, LV_PAGE_STYLE_SCRL);
 1768              		.loc 3 495 0
 1769 0048 0121     		movs	r1, #1
 1770 004a F868     		ldr	r0, [r7, #12]
 1771 004c FFF7FEFF 		bl	lv_page_get_style
 1772 0050 B864     		str	r0, [r7, #72]
 496:..\..\..\lvgl\version_6.1.2\lvgl\src\lv_objx/lv_page.c **** 
 497:..\..\..\lvgl\version_6.1.2\lvgl\src\lv_objx/lv_page.c ****     /*If obj is higher then the page focus where the "error" is smaller*/
 498:..\..\..\lvgl\version_6.1.2\lvgl\src\lv_objx/lv_page.c ****     lv_coord_t obj_y      = obj->coords.y1 - ext->scrl->coords.y1;
 1773              		.loc 3 498 0
 1774 0052 BB68     		ldr	r3, [r7, #8]
 1775 0054 B3F91230 		ldrsh	r3, [r3, #18]
 1776 0058 9AB2     		uxth	r2, r3
 1777 005a 3B6D     		ldr	r3, [r7, #80]
 1778 005c 5B68     		ldr	r3, [r3, #4]
 1779 005e B3F91230 		ldrsh	r3, [r3, #18]
 1780 0062 9BB2     		uxth	r3, r3
 1781 0064 D31A     		subs	r3, r2, r3
 1782 0066 9BB2     		uxth	r3, r3
 1783 0068 A7F84630 		strh	r3, [r7, #70]	@ movhi
 499:..\..\..\lvgl\version_6.1.2\lvgl\src\lv_objx/lv_page.c ****     lv_coord_t obj_h      = lv_obj_get_height(obj);
 1784              		.loc 3 499 0
 1785 006c B868     		ldr	r0, [r7, #8]
 1786 006e FFF7FEFF 		bl	lv_obj_get_height
 1787 0072 0346     		mov	r3, r0
 1788 0074 A7F84430 		strh	r3, [r7, #68]	@ movhi
 500:..\..\..\lvgl\version_6.1.2\lvgl\src\lv_objx/lv_page.c ****     lv_coord_t scrlable_y = lv_obj_get_y(ext->scrl);
 1789              		.loc 3 500 0
 1790 0078 3B6D     		ldr	r3, [r7, #80]
 1791 007a 5B68     		ldr	r3, [r3, #4]
 1792 007c 1846     		mov	r0, r3
 1793 007e FFF7FEFF 		bl	lv_obj_get_y
ARM GAS  C:\Users\tmj32\AppData\Local\Temp\ccFKuFvs.s 			page 49


 1794 0082 0346     		mov	r3, r0
 1795 0084 A7F85630 		strh	r3, [r7, #86]	@ movhi
 501:..\..\..\lvgl\version_6.1.2\lvgl\src\lv_objx/lv_page.c ****     lv_coord_t page_h     = lv_obj_get_height(page);
 1796              		.loc 3 501 0
 1797 0088 F868     		ldr	r0, [r7, #12]
 1798 008a FFF7FEFF 		bl	lv_obj_get_height
 1799 008e 0346     		mov	r3, r0
 1800 0090 A7F84230 		strh	r3, [r7, #66]	@ movhi
 502:..\..\..\lvgl\version_6.1.2\lvgl\src\lv_objx/lv_page.c **** 
 503:..\..\..\lvgl\version_6.1.2\lvgl\src\lv_objx/lv_page.c ****     lv_coord_t top_err = -(scrlable_y + obj_y);
 1801              		.loc 3 503 0
 1802 0094 B7F85620 		ldrh	r2, [r7, #86]
 1803 0098 B7F84630 		ldrh	r3, [r7, #70]
 1804 009c 1344     		add	r3, r3, r2
 1805 009e 9BB2     		uxth	r3, r3
 1806 00a0 5B42     		negs	r3, r3
 1807 00a2 9BB2     		uxth	r3, r3
 1808 00a4 A7F84030 		strh	r3, [r7, #64]	@ movhi
 504:..\..\..\lvgl\version_6.1.2\lvgl\src\lv_objx/lv_page.c ****     lv_coord_t bot_err = scrlable_y + obj_y + obj_h - page_h;
 1809              		.loc 3 504 0
 1810 00a8 B7F85620 		ldrh	r2, [r7, #86]
 1811 00ac B7F84630 		ldrh	r3, [r7, #70]
 1812 00b0 1344     		add	r3, r3, r2
 1813 00b2 9AB2     		uxth	r2, r3
 1814 00b4 B7F84430 		ldrh	r3, [r7, #68]
 1815 00b8 1344     		add	r3, r3, r2
 1816 00ba 9AB2     		uxth	r2, r3
 1817 00bc B7F84230 		ldrh	r3, [r7, #66]
 1818 00c0 D31A     		subs	r3, r2, r3
 1819 00c2 9BB2     		uxth	r3, r3
 1820 00c4 FB87     		strh	r3, [r7, #62]	@ movhi
 505:..\..\..\lvgl\version_6.1.2\lvgl\src\lv_objx/lv_page.c **** 
 506:..\..\..\lvgl\version_6.1.2\lvgl\src\lv_objx/lv_page.c ****     /*Out of the page on the top*/
 507:..\..\..\lvgl\version_6.1.2\lvgl\src\lv_objx/lv_page.c ****     if((obj_h <= page_h && top_err > 0) || (obj_h > page_h && top_err < bot_err)) {
 1821              		.loc 3 507 0
 1822 00c6 B7F94420 		ldrsh	r2, [r7, #68]
 1823 00ca B7F94230 		ldrsh	r3, [r7, #66]
 1824 00ce 9A42     		cmp	r2, r3
 1825 00d0 03DC     		bgt	.L80
 1826              		.loc 3 507 0 is_stmt 0 discriminator 1
 1827 00d2 B7F94030 		ldrsh	r3, [r7, #64]
 1828 00d6 002B     		cmp	r3, #0
 1829 00d8 0BDC     		bgt	.L81
 1830              	.L80:
 1831              		.loc 3 507 0 discriminator 3
 1832 00da B7F94420 		ldrsh	r2, [r7, #68]
 1833 00de B7F94230 		ldrsh	r3, [r7, #66]
 1834 00e2 9A42     		cmp	r2, r3
 1835 00e4 20DD     		ble	.L82
 1836              		.loc 3 507 0 discriminator 4
 1837 00e6 B7F94020 		ldrsh	r2, [r7, #64]
 1838 00ea B7F93E30 		ldrsh	r3, [r7, #62]
 1839 00ee 9A42     		cmp	r2, r3
 1840 00f0 1ADA     		bge	.L82
 1841              	.L81:
 508:..\..\..\lvgl\version_6.1.2\lvgl\src\lv_objx/lv_page.c ****         /*Calculate a new position and let some space above*/
 509:..\..\..\lvgl\version_6.1.2\lvgl\src\lv_objx/lv_page.c ****         scrlable_y = -(obj_y - style_scrl->body.padding.top - style->body.padding.top);
ARM GAS  C:\Users\tmj32\AppData\Local\Temp\ccFKuFvs.s 			page 50


 1842              		.loc 3 509 0 is_stmt 1
 1843 00f2 FB6C     		ldr	r3, [r7, #76]
 1844 00f4 B3F92030 		ldrsh	r3, [r3, #32]
 1845 00f8 9AB2     		uxth	r2, r3
 1846 00fa BB6C     		ldr	r3, [r7, #72]
 1847 00fc B3F92030 		ldrsh	r3, [r3, #32]
 1848 0100 99B2     		uxth	r1, r3
 1849 0102 B7F84630 		ldrh	r3, [r7, #70]
 1850 0106 CB1A     		subs	r3, r1, r3
 1851 0108 9BB2     		uxth	r3, r3
 1852 010a 1344     		add	r3, r3, r2
 1853 010c 9BB2     		uxth	r3, r3
 1854 010e A7F85630 		strh	r3, [r7, #86]	@ movhi
 510:..\..\..\lvgl\version_6.1.2\lvgl\src\lv_objx/lv_page.c ****         scrlable_y += style_scrl->body.padding.top;
 1855              		.loc 3 510 0
 1856 0112 BB6C     		ldr	r3, [r7, #72]
 1857 0114 B3F92030 		ldrsh	r3, [r3, #32]
 1858 0118 9AB2     		uxth	r2, r3
 1859 011a B7F85630 		ldrh	r3, [r7, #86]
 1860 011e 1344     		add	r3, r3, r2
 1861 0120 9BB2     		uxth	r3, r3
 1862 0122 A7F85630 		strh	r3, [r7, #86]	@ movhi
 1863 0126 3DE0     		b	.L83
 1864              	.L82:
 511:..\..\..\lvgl\version_6.1.2\lvgl\src\lv_objx/lv_page.c ****     }
 512:..\..\..\lvgl\version_6.1.2\lvgl\src\lv_objx/lv_page.c ****     /*Out of the page on the bottom*/
 513:..\..\..\lvgl\version_6.1.2\lvgl\src\lv_objx/lv_page.c ****     else if((obj_h <= page_h && bot_err > 0) || (obj_h > page_h && top_err >= bot_err)) {
 1865              		.loc 3 513 0
 1866 0128 B7F94420 		ldrsh	r2, [r7, #68]
 1867 012c B7F94230 		ldrsh	r3, [r7, #66]
 1868 0130 9A42     		cmp	r2, r3
 1869 0132 03DC     		bgt	.L84
 1870              		.loc 3 513 0 is_stmt 0 discriminator 1
 1871 0134 B7F93E30 		ldrsh	r3, [r7, #62]
 1872 0138 002B     		cmp	r3, #0
 1873 013a 0BDC     		bgt	.L85
 1874              	.L84:
 1875              		.loc 3 513 0 discriminator 3
 1876 013c B7F94420 		ldrsh	r2, [r7, #68]
 1877 0140 B7F94230 		ldrsh	r3, [r7, #66]
 1878 0144 9A42     		cmp	r2, r3
 1879 0146 2DDD     		ble	.L83
 1880              		.loc 3 513 0 discriminator 4
 1881 0148 B7F94020 		ldrsh	r2, [r7, #64]
 1882 014c B7F93E30 		ldrsh	r3, [r7, #62]
 1883 0150 9A42     		cmp	r2, r3
 1884 0152 27DB     		blt	.L83
 1885              	.L85:
 514:..\..\..\lvgl\version_6.1.2\lvgl\src\lv_objx/lv_page.c ****         /*Calculate a new position and let some space below*/
 515:..\..\..\lvgl\version_6.1.2\lvgl\src\lv_objx/lv_page.c ****         scrlable_y = -(obj_y + style_scrl->body.padding.bottom + style->body.padding.bottom);
 1886              		.loc 3 515 0 is_stmt 1
 1887 0154 BB6C     		ldr	r3, [r7, #72]
 1888 0156 B3F92230 		ldrsh	r3, [r3, #34]
 1889 015a 9AB2     		uxth	r2, r3
 1890 015c B7F84630 		ldrh	r3, [r7, #70]
 1891 0160 1344     		add	r3, r3, r2
 1892 0162 9AB2     		uxth	r2, r3
ARM GAS  C:\Users\tmj32\AppData\Local\Temp\ccFKuFvs.s 			page 51


 1893 0164 FB6C     		ldr	r3, [r7, #76]
 1894 0166 B3F92230 		ldrsh	r3, [r3, #34]
 1895 016a 9BB2     		uxth	r3, r3
 1896 016c 1344     		add	r3, r3, r2
 1897 016e 9BB2     		uxth	r3, r3
 1898 0170 5B42     		negs	r3, r3
 1899 0172 9BB2     		uxth	r3, r3
 1900 0174 A7F85630 		strh	r3, [r7, #86]	@ movhi
 516:..\..\..\lvgl\version_6.1.2\lvgl\src\lv_objx/lv_page.c ****         scrlable_y -= style_scrl->body.padding.bottom;
 1901              		.loc 3 516 0
 1902 0178 B7F85620 		ldrh	r2, [r7, #86]
 1903 017c BB6C     		ldr	r3, [r7, #72]
 1904 017e B3F92230 		ldrsh	r3, [r3, #34]
 1905 0182 9BB2     		uxth	r3, r3
 1906 0184 D31A     		subs	r3, r2, r3
 1907 0186 9BB2     		uxth	r3, r3
 1908 0188 A7F85630 		strh	r3, [r7, #86]	@ movhi
 517:..\..\..\lvgl\version_6.1.2\lvgl\src\lv_objx/lv_page.c ****         scrlable_y += page_h - obj_h;
 1909              		.loc 3 517 0
 1910 018c B7F84220 		ldrh	r2, [r7, #66]
 1911 0190 B7F84430 		ldrh	r3, [r7, #68]
 1912 0194 D31A     		subs	r3, r2, r3
 1913 0196 9AB2     		uxth	r2, r3
 1914 0198 B7F85630 		ldrh	r3, [r7, #86]
 1915 019c 1344     		add	r3, r3, r2
 1916 019e 9BB2     		uxth	r3, r3
 1917 01a0 A7F85630 		strh	r3, [r7, #86]	@ movhi
 1918              	.L83:
 518:..\..\..\lvgl\version_6.1.2\lvgl\src\lv_objx/lv_page.c ****     }
 519:..\..\..\lvgl\version_6.1.2\lvgl\src\lv_objx/lv_page.c **** 
 520:..\..\..\lvgl\version_6.1.2\lvgl\src\lv_objx/lv_page.c ****     /*If obj is wider then the page focus where the "error" is smaller*/
 521:..\..\..\lvgl\version_6.1.2\lvgl\src\lv_objx/lv_page.c ****     lv_coord_t obj_x      = obj->coords.x1 - ext->scrl->coords.x1;
 1919              		.loc 3 521 0
 1920 01a4 BB68     		ldr	r3, [r7, #8]
 1921 01a6 B3F91030 		ldrsh	r3, [r3, #16]
 1922 01aa 9AB2     		uxth	r2, r3
 1923 01ac 3B6D     		ldr	r3, [r7, #80]
 1924 01ae 5B68     		ldr	r3, [r3, #4]
 1925 01b0 B3F91030 		ldrsh	r3, [r3, #16]
 1926 01b4 9BB2     		uxth	r3, r3
 1927 01b6 D31A     		subs	r3, r2, r3
 1928 01b8 9BB2     		uxth	r3, r3
 1929 01ba BB87     		strh	r3, [r7, #60]	@ movhi
 522:..\..\..\lvgl\version_6.1.2\lvgl\src\lv_objx/lv_page.c ****     lv_coord_t obj_w      = lv_obj_get_width(obj);
 1930              		.loc 3 522 0
 1931 01bc B868     		ldr	r0, [r7, #8]
 1932 01be FFF7FEFF 		bl	lv_obj_get_width
 1933 01c2 0346     		mov	r3, r0
 1934 01c4 7B87     		strh	r3, [r7, #58]	@ movhi
 523:..\..\..\lvgl\version_6.1.2\lvgl\src\lv_objx/lv_page.c ****     lv_coord_t scrlable_x = lv_obj_get_x(ext->scrl);
 1935              		.loc 3 523 0
 1936 01c6 3B6D     		ldr	r3, [r7, #80]
 1937 01c8 5B68     		ldr	r3, [r3, #4]
 1938 01ca 1846     		mov	r0, r3
 1939 01cc FFF7FEFF 		bl	lv_obj_get_x
 1940 01d0 0346     		mov	r3, r0
 1941 01d2 A7F85430 		strh	r3, [r7, #84]	@ movhi
ARM GAS  C:\Users\tmj32\AppData\Local\Temp\ccFKuFvs.s 			page 52


 524:..\..\..\lvgl\version_6.1.2\lvgl\src\lv_objx/lv_page.c ****     lv_coord_t page_w     = lv_obj_get_width(page);
 1942              		.loc 3 524 0
 1943 01d6 F868     		ldr	r0, [r7, #12]
 1944 01d8 FFF7FEFF 		bl	lv_obj_get_width
 1945 01dc 0346     		mov	r3, r0
 1946 01de 3B87     		strh	r3, [r7, #56]	@ movhi
 525:..\..\..\lvgl\version_6.1.2\lvgl\src\lv_objx/lv_page.c **** 
 526:..\..\..\lvgl\version_6.1.2\lvgl\src\lv_objx/lv_page.c ****     lv_coord_t left_err  = -(scrlable_x + obj_x);
 1947              		.loc 3 526 0
 1948 01e0 B7F85420 		ldrh	r2, [r7, #84]
 1949 01e4 BB8F     		ldrh	r3, [r7, #60]
 1950 01e6 1344     		add	r3, r3, r2
 1951 01e8 9BB2     		uxth	r3, r3
 1952 01ea 5B42     		negs	r3, r3
 1953 01ec 9BB2     		uxth	r3, r3
 1954 01ee FB86     		strh	r3, [r7, #54]	@ movhi
 527:..\..\..\lvgl\version_6.1.2\lvgl\src\lv_objx/lv_page.c ****     lv_coord_t right_err = scrlable_x + obj_x + obj_w - page_w;
 1955              		.loc 3 527 0
 1956 01f0 B7F85420 		ldrh	r2, [r7, #84]
 1957 01f4 BB8F     		ldrh	r3, [r7, #60]
 1958 01f6 1344     		add	r3, r3, r2
 1959 01f8 9AB2     		uxth	r2, r3
 1960 01fa 7B8F     		ldrh	r3, [r7, #58]
 1961 01fc 1344     		add	r3, r3, r2
 1962 01fe 9AB2     		uxth	r2, r3
 1963 0200 3B8F     		ldrh	r3, [r7, #56]
 1964 0202 D31A     		subs	r3, r2, r3
 1965 0204 9BB2     		uxth	r3, r3
 1966 0206 BB86     		strh	r3, [r7, #52]	@ movhi
 528:..\..\..\lvgl\version_6.1.2\lvgl\src\lv_objx/lv_page.c **** 
 529:..\..\..\lvgl\version_6.1.2\lvgl\src\lv_objx/lv_page.c ****     /*Out of the page on the left*/
 530:..\..\..\lvgl\version_6.1.2\lvgl\src\lv_objx/lv_page.c ****     if((obj_w <= page_w && left_err > 0) || (obj_w > page_w && left_err < right_err)) {
 1967              		.loc 3 530 0
 1968 0208 B7F93A20 		ldrsh	r2, [r7, #58]
 1969 020c B7F93830 		ldrsh	r3, [r7, #56]
 1970 0210 9A42     		cmp	r2, r3
 1971 0212 03DC     		bgt	.L86
 1972              		.loc 3 530 0 is_stmt 0 discriminator 1
 1973 0214 B7F93630 		ldrsh	r3, [r7, #54]
 1974 0218 002B     		cmp	r3, #0
 1975 021a 0BDC     		bgt	.L87
 1976              	.L86:
 1977              		.loc 3 530 0 discriminator 3
 1978 021c B7F93A20 		ldrsh	r2, [r7, #58]
 1979 0220 B7F93830 		ldrsh	r3, [r7, #56]
 1980 0224 9A42     		cmp	r2, r3
 1981 0226 23DD     		ble	.L88
 1982              		.loc 3 530 0 discriminator 4
 1983 0228 B7F93620 		ldrsh	r2, [r7, #54]
 1984 022c B7F93430 		ldrsh	r3, [r7, #52]
 1985 0230 9A42     		cmp	r2, r3
 1986 0232 1DDA     		bge	.L88
 1987              	.L87:
 531:..\..\..\lvgl\version_6.1.2\lvgl\src\lv_objx/lv_page.c ****         /*Calculate a new position and let some space above*/
 532:..\..\..\lvgl\version_6.1.2\lvgl\src\lv_objx/lv_page.c ****         scrlable_x = -(obj_x - style_scrl->body.padding.left - style->body.padding.left);
 1988              		.loc 3 532 0 is_stmt 1
 1989 0234 FB6C     		ldr	r3, [r7, #76]
ARM GAS  C:\Users\tmj32\AppData\Local\Temp\ccFKuFvs.s 			page 53


 1990 0236 B3F92430 		ldrsh	r3, [r3, #36]
 1991 023a 9AB2     		uxth	r2, r3
 1992 023c BB6C     		ldr	r3, [r7, #72]
 1993 023e B3F92430 		ldrsh	r3, [r3, #36]
 1994 0242 99B2     		uxth	r1, r3
 1995 0244 BB8F     		ldrh	r3, [r7, #60]
 1996 0246 CB1A     		subs	r3, r1, r3
 1997 0248 9BB2     		uxth	r3, r3
 1998 024a 1344     		add	r3, r3, r2
 1999 024c 9BB2     		uxth	r3, r3
 2000 024e A7F85430 		strh	r3, [r7, #84]	@ movhi
 533:..\..\..\lvgl\version_6.1.2\lvgl\src\lv_objx/lv_page.c ****         scrlable_x += style_scrl->body.padding.left;
 2001              		.loc 3 533 0
 2002 0252 BB6C     		ldr	r3, [r7, #72]
 2003 0254 B3F92430 		ldrsh	r3, [r3, #36]
 2004 0258 9AB2     		uxth	r2, r3
 2005 025a B7F85430 		ldrh	r3, [r7, #84]
 2006 025e 1344     		add	r3, r3, r2
 2007 0260 9BB2     		uxth	r3, r3
 2008 0262 A7F85430 		strh	r3, [r7, #84]	@ movhi
 2009 0266 3EE0     		b	.L89
 2010              	.L96:
 2011              		.align	2
 2012              	.L95:
 2013 0268 00000000 		.word	lv_obj_set_x
 2014 026c 00000000 		.word	lv_obj_set_y
 2015              	.L88:
 534:..\..\..\lvgl\version_6.1.2\lvgl\src\lv_objx/lv_page.c ****     }
 535:..\..\..\lvgl\version_6.1.2\lvgl\src\lv_objx/lv_page.c ****     /*Out of the page on the rigth*/
 536:..\..\..\lvgl\version_6.1.2\lvgl\src\lv_objx/lv_page.c ****     else if((obj_w <= page_w && right_err > 0) || (obj_w > page_w && left_err >= right_err)) {
 2016              		.loc 3 536 0
 2017 0270 B7F93A20 		ldrsh	r2, [r7, #58]
 2018 0274 B7F93830 		ldrsh	r3, [r7, #56]
 2019 0278 9A42     		cmp	r2, r3
 2020 027a 03DC     		bgt	.L90
 2021              		.loc 3 536 0 is_stmt 0 discriminator 1
 2022 027c B7F93430 		ldrsh	r3, [r7, #52]
 2023 0280 002B     		cmp	r3, #0
 2024 0282 0BDC     		bgt	.L91
 2025              	.L90:
 2026              		.loc 3 536 0 discriminator 3
 2027 0284 B7F93A20 		ldrsh	r2, [r7, #58]
 2028 0288 B7F93830 		ldrsh	r3, [r7, #56]
 2029 028c 9A42     		cmp	r2, r3
 2030 028e 2ADD     		ble	.L89
 2031              		.loc 3 536 0 discriminator 4
 2032 0290 B7F93620 		ldrsh	r2, [r7, #54]
 2033 0294 B7F93430 		ldrsh	r3, [r7, #52]
 2034 0298 9A42     		cmp	r2, r3
 2035 029a 24DB     		blt	.L89
 2036              	.L91:
 537:..\..\..\lvgl\version_6.1.2\lvgl\src\lv_objx/lv_page.c ****         /*Calculate a new position and let some space below*/
 538:..\..\..\lvgl\version_6.1.2\lvgl\src\lv_objx/lv_page.c ****         scrlable_x = -(obj_x + style_scrl->body.padding.right + style->body.padding.right);
 2037              		.loc 3 538 0 is_stmt 1
 2038 029c BB6C     		ldr	r3, [r7, #72]
 2039 029e B3F92630 		ldrsh	r3, [r3, #38]
 2040 02a2 9AB2     		uxth	r2, r3
ARM GAS  C:\Users\tmj32\AppData\Local\Temp\ccFKuFvs.s 			page 54


 2041 02a4 BB8F     		ldrh	r3, [r7, #60]
 2042 02a6 1344     		add	r3, r3, r2
 2043 02a8 9AB2     		uxth	r2, r3
 2044 02aa FB6C     		ldr	r3, [r7, #76]
 2045 02ac B3F92630 		ldrsh	r3, [r3, #38]
 2046 02b0 9BB2     		uxth	r3, r3
 2047 02b2 1344     		add	r3, r3, r2
 2048 02b4 9BB2     		uxth	r3, r3
 2049 02b6 5B42     		negs	r3, r3
 2050 02b8 9BB2     		uxth	r3, r3
 2051 02ba A7F85430 		strh	r3, [r7, #84]	@ movhi
 539:..\..\..\lvgl\version_6.1.2\lvgl\src\lv_objx/lv_page.c ****         scrlable_x -= style_scrl->body.padding.right;
 2052              		.loc 3 539 0
 2053 02be B7F85420 		ldrh	r2, [r7, #84]
 2054 02c2 BB6C     		ldr	r3, [r7, #72]
 2055 02c4 B3F92630 		ldrsh	r3, [r3, #38]
 2056 02c8 9BB2     		uxth	r3, r3
 2057 02ca D31A     		subs	r3, r2, r3
 2058 02cc 9BB2     		uxth	r3, r3
 2059 02ce A7F85430 		strh	r3, [r7, #84]	@ movhi
 540:..\..\..\lvgl\version_6.1.2\lvgl\src\lv_objx/lv_page.c ****         scrlable_x += page_w - obj_w;
 2060              		.loc 3 540 0
 2061 02d2 3A8F     		ldrh	r2, [r7, #56]
 2062 02d4 7B8F     		ldrh	r3, [r7, #58]
 2063 02d6 D31A     		subs	r3, r2, r3
 2064 02d8 9AB2     		uxth	r2, r3
 2065 02da B7F85430 		ldrh	r3, [r7, #84]
 2066 02de 1344     		add	r3, r3, r2
 2067 02e0 9BB2     		uxth	r3, r3
 2068 02e2 A7F85430 		strh	r3, [r7, #84]	@ movhi
 2069              	.L89:
 541:..\..\..\lvgl\version_6.1.2\lvgl\src\lv_objx/lv_page.c ****     }
 542:..\..\..\lvgl\version_6.1.2\lvgl\src\lv_objx/lv_page.c **** 
 543:..\..\..\lvgl\version_6.1.2\lvgl\src\lv_objx/lv_page.c ****     if(anim_en == LV_ANIM_OFF || lv_page_get_anim_time(page) == 0) {
 2070              		.loc 3 543 0
 2071 02e6 FB79     		ldrb	r3, [r7, #7]	@ zero_extendqisi2
 2072 02e8 002B     		cmp	r3, #0
 2073 02ea 05D0     		beq	.L92
 2074              		.loc 3 543 0 is_stmt 0 discriminator 1
 2075 02ec F868     		ldr	r0, [r7, #12]
 2076 02ee FFF7FEFF 		bl	lv_page_get_anim_time
 2077 02f2 0346     		mov	r3, r0
 2078 02f4 002B     		cmp	r3, #0
 2079 02f6 10D1     		bne	.L93
 2080              	.L92:
 544:..\..\..\lvgl\version_6.1.2\lvgl\src\lv_objx/lv_page.c ****         lv_obj_set_y(ext->scrl, scrlable_y);
 2081              		.loc 3 544 0 is_stmt 1
 2082 02f8 3B6D     		ldr	r3, [r7, #80]
 2083 02fa 5B68     		ldr	r3, [r3, #4]
 2084 02fc B7F95620 		ldrsh	r2, [r7, #86]
 2085 0300 1146     		mov	r1, r2
 2086 0302 1846     		mov	r0, r3
 2087 0304 FFF7FEFF 		bl	lv_obj_set_y
 545:..\..\..\lvgl\version_6.1.2\lvgl\src\lv_objx/lv_page.c ****         lv_obj_set_x(ext->scrl, scrlable_x);
 2088              		.loc 3 545 0
 2089 0308 3B6D     		ldr	r3, [r7, #80]
 2090 030a 5B68     		ldr	r3, [r3, #4]
ARM GAS  C:\Users\tmj32\AppData\Local\Temp\ccFKuFvs.s 			page 55


 2091 030c B7F95420 		ldrsh	r2, [r7, #84]
 2092 0310 1146     		mov	r1, r2
 2093 0312 1846     		mov	r0, r3
 2094 0314 FFF7FEFF 		bl	lv_obj_set_x
 2095 0318 3BE0     		b	.L94
 2096              	.L93:
 2097              	.LBB4:
 546:..\..\..\lvgl\version_6.1.2\lvgl\src\lv_objx/lv_page.c ****     } else {
 547:..\..\..\lvgl\version_6.1.2\lvgl\src\lv_objx/lv_page.c **** #if LV_USE_ANIMATION
 548:..\..\..\lvgl\version_6.1.2\lvgl\src\lv_objx/lv_page.c ****         lv_anim_t a;
 549:..\..\..\lvgl\version_6.1.2\lvgl\src\lv_objx/lv_page.c ****         a.act_time = 0;
 2098              		.loc 3 549 0
 2099 031a 0023     		movs	r3, #0
 2100 031c 7B85     		strh	r3, [r7, #42]	@ movhi
 550:..\..\..\lvgl\version_6.1.2\lvgl\src\lv_objx/lv_page.c ****         a.start    = lv_obj_get_y(ext->scrl);
 2101              		.loc 3 550 0
 2102 031e 3B6D     		ldr	r3, [r7, #80]
 2103 0320 5B68     		ldr	r3, [r3, #4]
 2104 0322 1846     		mov	r0, r3
 2105 0324 FFF7FEFF 		bl	lv_obj_get_y
 2106 0328 0346     		mov	r3, r0
 2107 032a 3B62     		str	r3, [r7, #32]
 551:..\..\..\lvgl\version_6.1.2\lvgl\src\lv_objx/lv_page.c ****         a.end      = scrlable_y;
 2108              		.loc 3 551 0
 2109 032c B7F95630 		ldrsh	r3, [r7, #86]
 2110 0330 7B62     		str	r3, [r7, #36]
 552:..\..\..\lvgl\version_6.1.2\lvgl\src\lv_objx/lv_page.c ****         a.time     = lv_page_get_anim_time(page);
 2111              		.loc 3 552 0
 2112 0332 F868     		ldr	r0, [r7, #12]
 2113 0334 FFF7FEFF 		bl	lv_page_get_anim_time
 2114 0338 0346     		mov	r3, r0
 2115 033a 3B85     		strh	r3, [r7, #40]	@ movhi
 553:..\..\..\lvgl\version_6.1.2\lvgl\src\lv_objx/lv_page.c ****         a.ready_cb = NULL;
 2116              		.loc 3 553 0
 2117 033c 0023     		movs	r3, #0
 2118 033e FB61     		str	r3, [r7, #28]
 554:..\..\..\lvgl\version_6.1.2\lvgl\src\lv_objx/lv_page.c ****         a.playback = 0;
 2119              		.loc 3 554 0
 2120 0340 97F83030 		ldrb	r3, [r7, #48]
 2121 0344 6FF30003 		bfc	r3, #0, #1
 2122 0348 87F83030 		strb	r3, [r7, #48]
 555:..\..\..\lvgl\version_6.1.2\lvgl\src\lv_objx/lv_page.c ****         a.repeat   = 0;
 2123              		.loc 3 555 0
 2124 034c 97F83030 		ldrb	r3, [r7, #48]
 2125 0350 6FF34103 		bfc	r3, #1, #1
 2126 0354 87F83030 		strb	r3, [r7, #48]
 556:..\..\..\lvgl\version_6.1.2\lvgl\src\lv_objx/lv_page.c ****         a.var      = ext->scrl;
 2127              		.loc 3 556 0
 2128 0358 3B6D     		ldr	r3, [r7, #80]
 2129 035a 5B68     		ldr	r3, [r3, #4]
 2130 035c 3B61     		str	r3, [r7, #16]
 557:..\..\..\lvgl\version_6.1.2\lvgl\src\lv_objx/lv_page.c ****         a.path_cb  = lv_anim_path_linear;
 2131              		.loc 3 557 0
 2132 035e 0F4B     		ldr	r3, .L97
 2133 0360 BB61     		str	r3, [r7, #24]
 558:..\..\..\lvgl\version_6.1.2\lvgl\src\lv_objx/lv_page.c ****         a.exec_cb  = (lv_anim_exec_xcb_t)lv_obj_set_y;
 2134              		.loc 3 558 0
ARM GAS  C:\Users\tmj32\AppData\Local\Temp\ccFKuFvs.s 			page 56


 2135 0362 0F4B     		ldr	r3, .L97+4
 2136 0364 7B61     		str	r3, [r7, #20]
 559:..\..\..\lvgl\version_6.1.2\lvgl\src\lv_objx/lv_page.c ****         lv_anim_create(&a);
 2137              		.loc 3 559 0
 2138 0366 07F11003 		add	r3, r7, #16
 2139 036a 1846     		mov	r0, r3
 2140 036c FFF7FEFF 		bl	lv_anim_create
 560:..\..\..\lvgl\version_6.1.2\lvgl\src\lv_objx/lv_page.c **** 
 561:..\..\..\lvgl\version_6.1.2\lvgl\src\lv_objx/lv_page.c ****         a.start   = lv_obj_get_x(ext->scrl);
 2141              		.loc 3 561 0
 2142 0370 3B6D     		ldr	r3, [r7, #80]
 2143 0372 5B68     		ldr	r3, [r3, #4]
 2144 0374 1846     		mov	r0, r3
 2145 0376 FFF7FEFF 		bl	lv_obj_get_x
 2146 037a 0346     		mov	r3, r0
 2147 037c 3B62     		str	r3, [r7, #32]
 562:..\..\..\lvgl\version_6.1.2\lvgl\src\lv_objx/lv_page.c ****         a.end     = scrlable_x;
 2148              		.loc 3 562 0
 2149 037e B7F95430 		ldrsh	r3, [r7, #84]
 2150 0382 7B62     		str	r3, [r7, #36]
 563:..\..\..\lvgl\version_6.1.2\lvgl\src\lv_objx/lv_page.c ****         a.exec_cb = (lv_anim_exec_xcb_t)lv_obj_set_x;
 2151              		.loc 3 563 0
 2152 0384 074B     		ldr	r3, .L97+8
 2153 0386 7B61     		str	r3, [r7, #20]
 564:..\..\..\lvgl\version_6.1.2\lvgl\src\lv_objx/lv_page.c ****         lv_anim_create(&a);
 2154              		.loc 3 564 0
 2155 0388 07F11003 		add	r3, r7, #16
 2156 038c 1846     		mov	r0, r3
 2157 038e FFF7FEFF 		bl	lv_anim_create
 2158              	.L94:
 2159              	.LBE4:
 565:..\..\..\lvgl\version_6.1.2\lvgl\src\lv_objx/lv_page.c **** #endif
 566:..\..\..\lvgl\version_6.1.2\lvgl\src\lv_objx/lv_page.c ****     }
 567:..\..\..\lvgl\version_6.1.2\lvgl\src\lv_objx/lv_page.c **** }
 2160              		.loc 3 567 0
 2161 0392 00BF     		nop
 2162 0394 5837     		adds	r7, r7, #88
 2163              		.cfi_def_cfa_offset 8
 2164 0396 BD46     		mov	sp, r7
 2165              		.cfi_def_cfa_register 13
 2166              		@ sp needed
 2167 0398 80BD     		pop	{r7, pc}
 2168              	.L98:
 2169 039a 00BF     		.align	2
 2170              	.L97:
 2171 039c 00000000 		.word	lv_anim_path_linear
 2172 03a0 00000000 		.word	lv_obj_set_y
 2173 03a4 00000000 		.word	lv_obj_set_x
 2174              		.cfi_endproc
 2175              	.LFE65:
 2176              		.size	lv_page_focus, .-lv_page_focus
 2177              		.section	.text.lv_page_scroll_hor,"ax",%progbits
 2178              		.align	2
 2179              		.global	lv_page_scroll_hor
 2180              		.thumb
 2181              		.thumb_func
 2182              		.type	lv_page_scroll_hor, %function
ARM GAS  C:\Users\tmj32\AppData\Local\Temp\ccFKuFvs.s 			page 57


 2183              	lv_page_scroll_hor:
 2184              	.LFB66:
 568:..\..\..\lvgl\version_6.1.2\lvgl\src\lv_objx/lv_page.c **** 
 569:..\..\..\lvgl\version_6.1.2\lvgl\src\lv_objx/lv_page.c **** /**
 570:..\..\..\lvgl\version_6.1.2\lvgl\src\lv_objx/lv_page.c ****  * Scroll the page horizontally
 571:..\..\..\lvgl\version_6.1.2\lvgl\src\lv_objx/lv_page.c ****  * @param page pointer to a page object
 572:..\..\..\lvgl\version_6.1.2\lvgl\src\lv_objx/lv_page.c ****  * @param dist the distance to scroll (< 0: scroll right; > 0 scroll left)
 573:..\..\..\lvgl\version_6.1.2\lvgl\src\lv_objx/lv_page.c ****  */
 574:..\..\..\lvgl\version_6.1.2\lvgl\src\lv_objx/lv_page.c **** void lv_page_scroll_hor(lv_obj_t * page, lv_coord_t dist)
 575:..\..\..\lvgl\version_6.1.2\lvgl\src\lv_objx/lv_page.c **** {
 2185              		.loc 3 575 0
 2186              		.cfi_startproc
 2187              		@ args = 0, pretend = 0, frame = 48
 2188              		@ frame_needed = 1, uses_anonymous_args = 0
 2189 0000 80B5     		push	{r7, lr}
 2190              		.cfi_def_cfa_offset 8
 2191              		.cfi_offset 7, -8
 2192              		.cfi_offset 14, -4
 2193 0002 8CB0     		sub	sp, sp, #48
 2194              		.cfi_def_cfa_offset 56
 2195 0004 00AF     		add	r7, sp, #0
 2196              		.cfi_def_cfa_register 7
 2197 0006 7860     		str	r0, [r7, #4]
 2198 0008 0B46     		mov	r3, r1
 2199 000a 7B80     		strh	r3, [r7, #2]	@ movhi
 576:..\..\..\lvgl\version_6.1.2\lvgl\src\lv_objx/lv_page.c ****     lv_obj_t * scrl = lv_page_get_scrl(page);
 2200              		.loc 3 576 0
 2201 000c 7868     		ldr	r0, [r7, #4]
 2202 000e FFF7FEFF 		bl	lv_page_get_scrl
 2203 0012 F862     		str	r0, [r7, #44]
 577:..\..\..\lvgl\version_6.1.2\lvgl\src\lv_objx/lv_page.c **** 
 578:..\..\..\lvgl\version_6.1.2\lvgl\src\lv_objx/lv_page.c **** #if LV_USE_ANIMATION
 579:..\..\..\lvgl\version_6.1.2\lvgl\src\lv_objx/lv_page.c ****     lv_anim_t a;
 580:..\..\..\lvgl\version_6.1.2\lvgl\src\lv_objx/lv_page.c ****     a.var            = scrl;
 2204              		.loc 3 580 0
 2205 0014 FB6A     		ldr	r3, [r7, #44]
 2206 0016 BB60     		str	r3, [r7, #8]
 581:..\..\..\lvgl\version_6.1.2\lvgl\src\lv_objx/lv_page.c ****     a.start          = lv_obj_get_x(scrl);
 2207              		.loc 3 581 0
 2208 0018 F86A     		ldr	r0, [r7, #44]
 2209 001a FFF7FEFF 		bl	lv_obj_get_x
 2210 001e 0346     		mov	r3, r0
 2211 0020 BB61     		str	r3, [r7, #24]
 582:..\..\..\lvgl\version_6.1.2\lvgl\src\lv_objx/lv_page.c ****     a.end            = a.start + dist;
 2212              		.loc 3 582 0
 2213 0022 BA69     		ldr	r2, [r7, #24]
 2214 0024 B7F90230 		ldrsh	r3, [r7, #2]
 2215 0028 1344     		add	r3, r3, r2
 2216 002a FB61     		str	r3, [r7, #28]
 583:..\..\..\lvgl\version_6.1.2\lvgl\src\lv_objx/lv_page.c ****     a.exec_cb        = (lv_anim_exec_xcb_t)lv_obj_set_x;
 2217              		.loc 3 583 0
 2218 002c 114B     		ldr	r3, .L100
 2219 002e FB60     		str	r3, [r7, #12]
 584:..\..\..\lvgl\version_6.1.2\lvgl\src\lv_objx/lv_page.c ****     a.path_cb        = lv_anim_path_linear;
 2220              		.loc 3 584 0
 2221 0030 114B     		ldr	r3, .L100+4
 2222 0032 3B61     		str	r3, [r7, #16]
ARM GAS  C:\Users\tmj32\AppData\Local\Temp\ccFKuFvs.s 			page 58


 585:..\..\..\lvgl\version_6.1.2\lvgl\src\lv_objx/lv_page.c ****     a.ready_cb       = NULL;
 2223              		.loc 3 585 0
 2224 0034 0023     		movs	r3, #0
 2225 0036 7B61     		str	r3, [r7, #20]
 586:..\..\..\lvgl\version_6.1.2\lvgl\src\lv_objx/lv_page.c ****     a.act_time       = 0;
 2226              		.loc 3 586 0
 2227 0038 0023     		movs	r3, #0
 2228 003a 7B84     		strh	r3, [r7, #34]	@ movhi
 587:..\..\..\lvgl\version_6.1.2\lvgl\src\lv_objx/lv_page.c ****     a.time           = LV_PAGE_SCROLL_ANIM_TIME;
 2229              		.loc 3 587 0
 2230 003c C823     		movs	r3, #200
 2231 003e 3B84     		strh	r3, [r7, #32]	@ movhi
 588:..\..\..\lvgl\version_6.1.2\lvgl\src\lv_objx/lv_page.c ****     a.playback       = 0;
 2232              		.loc 3 588 0
 2233 0040 97F82830 		ldrb	r3, [r7, #40]
 2234 0044 6FF30003 		bfc	r3, #0, #1
 2235 0048 87F82830 		strb	r3, [r7, #40]
 589:..\..\..\lvgl\version_6.1.2\lvgl\src\lv_objx/lv_page.c ****     a.playback_pause = 0;
 2236              		.loc 3 589 0
 2237 004c 0023     		movs	r3, #0
 2238 004e BB84     		strh	r3, [r7, #36]	@ movhi
 590:..\..\..\lvgl\version_6.1.2\lvgl\src\lv_objx/lv_page.c ****     a.repeat         = 0;
 2239              		.loc 3 590 0
 2240 0050 97F82830 		ldrb	r3, [r7, #40]
 2241 0054 6FF34103 		bfc	r3, #1, #1
 2242 0058 87F82830 		strb	r3, [r7, #40]
 591:..\..\..\lvgl\version_6.1.2\lvgl\src\lv_objx/lv_page.c ****     a.repeat_pause   = 0;
 2243              		.loc 3 591 0
 2244 005c 0023     		movs	r3, #0
 2245 005e FB84     		strh	r3, [r7, #38]	@ movhi
 592:..\..\..\lvgl\version_6.1.2\lvgl\src\lv_objx/lv_page.c ****     lv_anim_create(&a);
 2246              		.loc 3 592 0
 2247 0060 07F10803 		add	r3, r7, #8
 2248 0064 1846     		mov	r0, r3
 2249 0066 FFF7FEFF 		bl	lv_anim_create
 593:..\..\..\lvgl\version_6.1.2\lvgl\src\lv_objx/lv_page.c **** #else
 594:..\..\..\lvgl\version_6.1.2\lvgl\src\lv_objx/lv_page.c ****     lv_obj_set_x(scrl, lv_obj_get_x(scrl) + dist);
 595:..\..\..\lvgl\version_6.1.2\lvgl\src\lv_objx/lv_page.c **** #endif
 596:..\..\..\lvgl\version_6.1.2\lvgl\src\lv_objx/lv_page.c **** }
 2250              		.loc 3 596 0
 2251 006a 00BF     		nop
 2252 006c 3037     		adds	r7, r7, #48
 2253              		.cfi_def_cfa_offset 8
 2254 006e BD46     		mov	sp, r7
 2255              		.cfi_def_cfa_register 13
 2256              		@ sp needed
 2257 0070 80BD     		pop	{r7, pc}
 2258              	.L101:
 2259 0072 00BF     		.align	2
 2260              	.L100:
 2261 0074 00000000 		.word	lv_obj_set_x
 2262 0078 00000000 		.word	lv_anim_path_linear
 2263              		.cfi_endproc
 2264              	.LFE66:
 2265              		.size	lv_page_scroll_hor, .-lv_page_scroll_hor
 2266              		.section	.text.lv_page_scroll_ver,"ax",%progbits
 2267              		.align	2
ARM GAS  C:\Users\tmj32\AppData\Local\Temp\ccFKuFvs.s 			page 59


 2268              		.global	lv_page_scroll_ver
 2269              		.thumb
 2270              		.thumb_func
 2271              		.type	lv_page_scroll_ver, %function
 2272              	lv_page_scroll_ver:
 2273              	.LFB67:
 597:..\..\..\lvgl\version_6.1.2\lvgl\src\lv_objx/lv_page.c **** 
 598:..\..\..\lvgl\version_6.1.2\lvgl\src\lv_objx/lv_page.c **** /**
 599:..\..\..\lvgl\version_6.1.2\lvgl\src\lv_objx/lv_page.c ****  * Scroll the page vertically
 600:..\..\..\lvgl\version_6.1.2\lvgl\src\lv_objx/lv_page.c ****  * @param page pointer to a page object
 601:..\..\..\lvgl\version_6.1.2\lvgl\src\lv_objx/lv_page.c ****  * @param dist the distance to scroll (< 0: scroll down; > 0 scroll up)
 602:..\..\..\lvgl\version_6.1.2\lvgl\src\lv_objx/lv_page.c ****  */
 603:..\..\..\lvgl\version_6.1.2\lvgl\src\lv_objx/lv_page.c **** void lv_page_scroll_ver(lv_obj_t * page, lv_coord_t dist)
 604:..\..\..\lvgl\version_6.1.2\lvgl\src\lv_objx/lv_page.c **** {
 2274              		.loc 3 604 0
 2275              		.cfi_startproc
 2276              		@ args = 0, pretend = 0, frame = 48
 2277              		@ frame_needed = 1, uses_anonymous_args = 0
 2278 0000 80B5     		push	{r7, lr}
 2279              		.cfi_def_cfa_offset 8
 2280              		.cfi_offset 7, -8
 2281              		.cfi_offset 14, -4
 2282 0002 8CB0     		sub	sp, sp, #48
 2283              		.cfi_def_cfa_offset 56
 2284 0004 00AF     		add	r7, sp, #0
 2285              		.cfi_def_cfa_register 7
 2286 0006 7860     		str	r0, [r7, #4]
 2287 0008 0B46     		mov	r3, r1
 2288 000a 7B80     		strh	r3, [r7, #2]	@ movhi
 605:..\..\..\lvgl\version_6.1.2\lvgl\src\lv_objx/lv_page.c ****     lv_obj_t * scrl = lv_page_get_scrl(page);
 2289              		.loc 3 605 0
 2290 000c 7868     		ldr	r0, [r7, #4]
 2291 000e FFF7FEFF 		bl	lv_page_get_scrl
 2292 0012 F862     		str	r0, [r7, #44]
 606:..\..\..\lvgl\version_6.1.2\lvgl\src\lv_objx/lv_page.c **** 
 607:..\..\..\lvgl\version_6.1.2\lvgl\src\lv_objx/lv_page.c **** #if LV_USE_ANIMATION
 608:..\..\..\lvgl\version_6.1.2\lvgl\src\lv_objx/lv_page.c ****     lv_anim_t a;
 609:..\..\..\lvgl\version_6.1.2\lvgl\src\lv_objx/lv_page.c ****     a.var            = scrl;
 2293              		.loc 3 609 0
 2294 0014 FB6A     		ldr	r3, [r7, #44]
 2295 0016 BB60     		str	r3, [r7, #8]
 610:..\..\..\lvgl\version_6.1.2\lvgl\src\lv_objx/lv_page.c ****     a.start          = lv_obj_get_y(scrl);
 2296              		.loc 3 610 0
 2297 0018 F86A     		ldr	r0, [r7, #44]
 2298 001a FFF7FEFF 		bl	lv_obj_get_y
 2299 001e 0346     		mov	r3, r0
 2300 0020 BB61     		str	r3, [r7, #24]
 611:..\..\..\lvgl\version_6.1.2\lvgl\src\lv_objx/lv_page.c ****     a.end            = a.start + dist;
 2301              		.loc 3 611 0
 2302 0022 BA69     		ldr	r2, [r7, #24]
 2303 0024 B7F90230 		ldrsh	r3, [r7, #2]
 2304 0028 1344     		add	r3, r3, r2
 2305 002a FB61     		str	r3, [r7, #28]
 612:..\..\..\lvgl\version_6.1.2\lvgl\src\lv_objx/lv_page.c ****     a.exec_cb        = (lv_anim_exec_xcb_t)lv_obj_set_y;
 2306              		.loc 3 612 0
 2307 002c 114B     		ldr	r3, .L103
 2308 002e FB60     		str	r3, [r7, #12]
ARM GAS  C:\Users\tmj32\AppData\Local\Temp\ccFKuFvs.s 			page 60


 613:..\..\..\lvgl\version_6.1.2\lvgl\src\lv_objx/lv_page.c ****     a.path_cb        = lv_anim_path_linear;
 2309              		.loc 3 613 0
 2310 0030 114B     		ldr	r3, .L103+4
 2311 0032 3B61     		str	r3, [r7, #16]
 614:..\..\..\lvgl\version_6.1.2\lvgl\src\lv_objx/lv_page.c ****     a.ready_cb       = NULL;
 2312              		.loc 3 614 0
 2313 0034 0023     		movs	r3, #0
 2314 0036 7B61     		str	r3, [r7, #20]
 615:..\..\..\lvgl\version_6.1.2\lvgl\src\lv_objx/lv_page.c ****     a.act_time       = 0;
 2315              		.loc 3 615 0
 2316 0038 0023     		movs	r3, #0
 2317 003a 7B84     		strh	r3, [r7, #34]	@ movhi
 616:..\..\..\lvgl\version_6.1.2\lvgl\src\lv_objx/lv_page.c ****     a.time           = LV_PAGE_SCROLL_ANIM_TIME;
 2318              		.loc 3 616 0
 2319 003c C823     		movs	r3, #200
 2320 003e 3B84     		strh	r3, [r7, #32]	@ movhi
 617:..\..\..\lvgl\version_6.1.2\lvgl\src\lv_objx/lv_page.c ****     a.playback       = 0;
 2321              		.loc 3 617 0
 2322 0040 97F82830 		ldrb	r3, [r7, #40]
 2323 0044 6FF30003 		bfc	r3, #0, #1
 2324 0048 87F82830 		strb	r3, [r7, #40]
 618:..\..\..\lvgl\version_6.1.2\lvgl\src\lv_objx/lv_page.c ****     a.playback_pause = 0;
 2325              		.loc 3 618 0
 2326 004c 0023     		movs	r3, #0
 2327 004e BB84     		strh	r3, [r7, #36]	@ movhi
 619:..\..\..\lvgl\version_6.1.2\lvgl\src\lv_objx/lv_page.c ****     a.repeat         = 0;
 2328              		.loc 3 619 0
 2329 0050 97F82830 		ldrb	r3, [r7, #40]
 2330 0054 6FF34103 		bfc	r3, #1, #1
 2331 0058 87F82830 		strb	r3, [r7, #40]
 620:..\..\..\lvgl\version_6.1.2\lvgl\src\lv_objx/lv_page.c ****     a.repeat_pause   = 0;
 2332              		.loc 3 620 0
 2333 005c 0023     		movs	r3, #0
 2334 005e FB84     		strh	r3, [r7, #38]	@ movhi
 621:..\..\..\lvgl\version_6.1.2\lvgl\src\lv_objx/lv_page.c ****     lv_anim_create(&a);
 2335              		.loc 3 621 0
 2336 0060 07F10803 		add	r3, r7, #8
 2337 0064 1846     		mov	r0, r3
 2338 0066 FFF7FEFF 		bl	lv_anim_create
 622:..\..\..\lvgl\version_6.1.2\lvgl\src\lv_objx/lv_page.c **** #else
 623:..\..\..\lvgl\version_6.1.2\lvgl\src\lv_objx/lv_page.c ****     lv_obj_set_y(scrl, lv_obj_get_y(scrl) + dist);
 624:..\..\..\lvgl\version_6.1.2\lvgl\src\lv_objx/lv_page.c **** #endif
 625:..\..\..\lvgl\version_6.1.2\lvgl\src\lv_objx/lv_page.c **** }
 2339              		.loc 3 625 0
 2340 006a 00BF     		nop
 2341 006c 3037     		adds	r7, r7, #48
 2342              		.cfi_def_cfa_offset 8
 2343 006e BD46     		mov	sp, r7
 2344              		.cfi_def_cfa_register 13
 2345              		@ sp needed
 2346 0070 80BD     		pop	{r7, pc}
 2347              	.L104:
 2348 0072 00BF     		.align	2
 2349              	.L103:
 2350 0074 00000000 		.word	lv_obj_set_y
 2351 0078 00000000 		.word	lv_anim_path_linear
 2352              		.cfi_endproc
ARM GAS  C:\Users\tmj32\AppData\Local\Temp\ccFKuFvs.s 			page 61


 2353              	.LFE67:
 2354              		.size	lv_page_scroll_ver, .-lv_page_scroll_ver
 2355              		.section	.text.lv_page_start_edge_flash,"ax",%progbits
 2356              		.align	2
 2357              		.global	lv_page_start_edge_flash
 2358              		.thumb
 2359              		.thumb_func
 2360              		.type	lv_page_start_edge_flash, %function
 2361              	lv_page_start_edge_flash:
 2362              	.LFB68:
 626:..\..\..\lvgl\version_6.1.2\lvgl\src\lv_objx/lv_page.c **** 
 627:..\..\..\lvgl\version_6.1.2\lvgl\src\lv_objx/lv_page.c **** /**
 628:..\..\..\lvgl\version_6.1.2\lvgl\src\lv_objx/lv_page.c ****  * Not intended to use directly by the user but by other object types internally.
 629:..\..\..\lvgl\version_6.1.2\lvgl\src\lv_objx/lv_page.c ****  * Start an edge flash animation. Exactly one `ext->edge_flash.xxx_ip` should be set
 630:..\..\..\lvgl\version_6.1.2\lvgl\src\lv_objx/lv_page.c ****  * @param page
 631:..\..\..\lvgl\version_6.1.2\lvgl\src\lv_objx/lv_page.c ****  */
 632:..\..\..\lvgl\version_6.1.2\lvgl\src\lv_objx/lv_page.c **** void lv_page_start_edge_flash(lv_obj_t * page)
 633:..\..\..\lvgl\version_6.1.2\lvgl\src\lv_objx/lv_page.c **** {
 2363              		.loc 3 633 0
 2364              		.cfi_startproc
 2365              		@ args = 0, pretend = 0, frame = 48
 2366              		@ frame_needed = 1, uses_anonymous_args = 0
 2367 0000 80B5     		push	{r7, lr}
 2368              		.cfi_def_cfa_offset 8
 2369              		.cfi_offset 7, -8
 2370              		.cfi_offset 14, -4
 2371 0002 8CB0     		sub	sp, sp, #48
 2372              		.cfi_def_cfa_offset 56
 2373 0004 00AF     		add	r7, sp, #0
 2374              		.cfi_def_cfa_register 7
 2375 0006 7860     		str	r0, [r7, #4]
 634:..\..\..\lvgl\version_6.1.2\lvgl\src\lv_objx/lv_page.c **** #if LV_USE_ANIMATION
 635:..\..\..\lvgl\version_6.1.2\lvgl\src\lv_objx/lv_page.c ****     lv_page_ext_t * ext = lv_obj_get_ext_attr(page);
 2376              		.loc 3 635 0
 2377 0008 7868     		ldr	r0, [r7, #4]
 2378 000a FFF7FEFF 		bl	lv_obj_get_ext_attr
 2379 000e F862     		str	r0, [r7, #44]
 636:..\..\..\lvgl\version_6.1.2\lvgl\src\lv_objx/lv_page.c ****     if(ext->edge_flash.enabled) {
 2380              		.loc 3 636 0
 2381 0010 FB6A     		ldr	r3, [r7, #44]
 2382 0012 93F82830 		ldrb	r3, [r3, #40]	@ zero_extendqisi2
 2383 0016 03F00103 		and	r3, r3, #1
 2384 001a DBB2     		uxtb	r3, r3
 2385 001c 002B     		cmp	r3, #0
 2386 001e 26D0     		beq	.L107
 2387              	.LBB5:
 637:..\..\..\lvgl\version_6.1.2\lvgl\src\lv_objx/lv_page.c ****         lv_anim_t a;
 638:..\..\..\lvgl\version_6.1.2\lvgl\src\lv_objx/lv_page.c ****         a.var            = page;
 2388              		.loc 3 638 0
 2389 0020 7B68     		ldr	r3, [r7, #4]
 2390 0022 BB60     		str	r3, [r7, #8]
 639:..\..\..\lvgl\version_6.1.2\lvgl\src\lv_objx/lv_page.c ****         a.start          = 0;
 2391              		.loc 3 639 0
 2392 0024 0023     		movs	r3, #0
 2393 0026 BB61     		str	r3, [r7, #24]
 640:..\..\..\lvgl\version_6.1.2\lvgl\src\lv_objx/lv_page.c ****         a.end            = LV_PAGE_END_FLASH_SIZE;
 2394              		.loc 3 640 0
ARM GAS  C:\Users\tmj32\AppData\Local\Temp\ccFKuFvs.s 			page 62


 2395 0028 2523     		movs	r3, #37
 2396 002a FB61     		str	r3, [r7, #28]
 641:..\..\..\lvgl\version_6.1.2\lvgl\src\lv_objx/lv_page.c ****         a.exec_cb        = (lv_anim_exec_xcb_t)edge_flash_anim;
 2397              		.loc 3 641 0
 2398 002c 124B     		ldr	r3, .L108
 2399 002e FB60     		str	r3, [r7, #12]
 642:..\..\..\lvgl\version_6.1.2\lvgl\src\lv_objx/lv_page.c ****         a.path_cb        = lv_anim_path_linear;
 2400              		.loc 3 642 0
 2401 0030 124B     		ldr	r3, .L108+4
 2402 0032 3B61     		str	r3, [r7, #16]
 643:..\..\..\lvgl\version_6.1.2\lvgl\src\lv_objx/lv_page.c ****         a.ready_cb       = edge_flash_anim_end;
 2403              		.loc 3 643 0
 2404 0034 124B     		ldr	r3, .L108+8
 2405 0036 7B61     		str	r3, [r7, #20]
 644:..\..\..\lvgl\version_6.1.2\lvgl\src\lv_objx/lv_page.c ****         a.act_time       = 0;
 2406              		.loc 3 644 0
 2407 0038 0023     		movs	r3, #0
 2408 003a 7B84     		strh	r3, [r7, #34]	@ movhi
 645:..\..\..\lvgl\version_6.1.2\lvgl\src\lv_objx/lv_page.c ****         a.time           = LV_PAGE_END_ANIM_TIME;
 2409              		.loc 3 645 0
 2410 003c 4FF49673 		mov	r3, #300
 2411 0040 3B84     		strh	r3, [r7, #32]	@ movhi
 646:..\..\..\lvgl\version_6.1.2\lvgl\src\lv_objx/lv_page.c ****         a.playback       = 1;
 2412              		.loc 3 646 0
 2413 0042 97F82830 		ldrb	r3, [r7, #40]
 2414 0046 43F00103 		orr	r3, r3, #1
 2415 004a 87F82830 		strb	r3, [r7, #40]
 647:..\..\..\lvgl\version_6.1.2\lvgl\src\lv_objx/lv_page.c ****         a.playback_pause = LV_PAGE_END_ANIM_WAIT_TIME;
 2416              		.loc 3 647 0
 2417 004e 4FF49673 		mov	r3, #300
 2418 0052 BB84     		strh	r3, [r7, #36]	@ movhi
 648:..\..\..\lvgl\version_6.1.2\lvgl\src\lv_objx/lv_page.c ****         a.repeat         = 0;
 2419              		.loc 3 648 0
 2420 0054 97F82830 		ldrb	r3, [r7, #40]
 2421 0058 6FF34103 		bfc	r3, #1, #1
 2422 005c 87F82830 		strb	r3, [r7, #40]
 649:..\..\..\lvgl\version_6.1.2\lvgl\src\lv_objx/lv_page.c ****         a.repeat_pause   = 0;
 2423              		.loc 3 649 0
 2424 0060 0023     		movs	r3, #0
 2425 0062 FB84     		strh	r3, [r7, #38]	@ movhi
 650:..\..\..\lvgl\version_6.1.2\lvgl\src\lv_objx/lv_page.c ****         lv_anim_create(&a);
 2426              		.loc 3 650 0
 2427 0064 07F10803 		add	r3, r7, #8
 2428 0068 1846     		mov	r0, r3
 2429 006a FFF7FEFF 		bl	lv_anim_create
 2430              	.L107:
 2431              	.LBE5:
 651:..\..\..\lvgl\version_6.1.2\lvgl\src\lv_objx/lv_page.c ****     }
 652:..\..\..\lvgl\version_6.1.2\lvgl\src\lv_objx/lv_page.c **** #else
 653:..\..\..\lvgl\version_6.1.2\lvgl\src\lv_objx/lv_page.c ****     (void)page; /*Unused*/
 654:..\..\..\lvgl\version_6.1.2\lvgl\src\lv_objx/lv_page.c **** #endif
 655:..\..\..\lvgl\version_6.1.2\lvgl\src\lv_objx/lv_page.c **** }
 2432              		.loc 3 655 0
 2433 006e 00BF     		nop
 2434 0070 3037     		adds	r7, r7, #48
 2435              		.cfi_def_cfa_offset 8
 2436 0072 BD46     		mov	sp, r7
ARM GAS  C:\Users\tmj32\AppData\Local\Temp\ccFKuFvs.s 			page 63


 2437              		.cfi_def_cfa_register 13
 2438              		@ sp needed
 2439 0074 80BD     		pop	{r7, pc}
 2440              	.L109:
 2441 0076 00BF     		.align	2
 2442              	.L108:
 2443 0078 00000000 		.word	edge_flash_anim
 2444 007c 00000000 		.word	lv_anim_path_linear
 2445 0080 00000000 		.word	edge_flash_anim_end
 2446              		.cfi_endproc
 2447              	.LFE68:
 2448              		.size	lv_page_start_edge_flash, .-lv_page_start_edge_flash
 2449              		.section	.text.lv_page_design,"ax",%progbits
 2450              		.align	2
 2451              		.thumb
 2452              		.thumb_func
 2453              		.type	lv_page_design, %function
 2454              	lv_page_design:
 2455              	.LFB69:
 656:..\..\..\lvgl\version_6.1.2\lvgl\src\lv_objx/lv_page.c **** 
 657:..\..\..\lvgl\version_6.1.2\lvgl\src\lv_objx/lv_page.c **** /**********************
 658:..\..\..\lvgl\version_6.1.2\lvgl\src\lv_objx/lv_page.c ****  *   STATIC FUNCTIONS
 659:..\..\..\lvgl\version_6.1.2\lvgl\src\lv_objx/lv_page.c ****  **********************/
 660:..\..\..\lvgl\version_6.1.2\lvgl\src\lv_objx/lv_page.c **** 
 661:..\..\..\lvgl\version_6.1.2\lvgl\src\lv_objx/lv_page.c **** /**
 662:..\..\..\lvgl\version_6.1.2\lvgl\src\lv_objx/lv_page.c ****  * Handle the drawing related tasks of the pages
 663:..\..\..\lvgl\version_6.1.2\lvgl\src\lv_objx/lv_page.c ****  * @param page pointer to an object
 664:..\..\..\lvgl\version_6.1.2\lvgl\src\lv_objx/lv_page.c ****  * @param mask the object will be drawn only in this area
 665:..\..\..\lvgl\version_6.1.2\lvgl\src\lv_objx/lv_page.c ****  * @param mode LV_DESIGN_COVER_CHK: only check if the object fully covers the 'mask_p' area
 666:..\..\..\lvgl\version_6.1.2\lvgl\src\lv_objx/lv_page.c ****  *                                  (return 'true' if yes)
 667:..\..\..\lvgl\version_6.1.2\lvgl\src\lv_objx/lv_page.c ****  *             LV_DESIGN_DRAW: draw the object (always return 'true')
 668:..\..\..\lvgl\version_6.1.2\lvgl\src\lv_objx/lv_page.c ****  *             LV_DESIGN_DRAW_POST: drawing after every children are drawn
 669:..\..\..\lvgl\version_6.1.2\lvgl\src\lv_objx/lv_page.c ****  * @param return true/false, depends on 'mode'
 670:..\..\..\lvgl\version_6.1.2\lvgl\src\lv_objx/lv_page.c ****  */
 671:..\..\..\lvgl\version_6.1.2\lvgl\src\lv_objx/lv_page.c **** static bool lv_page_design(lv_obj_t * page, const lv_area_t * mask, lv_design_mode_t mode)
 672:..\..\..\lvgl\version_6.1.2\lvgl\src\lv_objx/lv_page.c **** {
 2456              		.loc 3 672 0
 2457              		.cfi_startproc
 2458              		@ args = 0, pretend = 0, frame = 208
 2459              		@ frame_needed = 1, uses_anonymous_args = 0
 2460 0000 90B5     		push	{r4, r7, lr}
 2461              		.cfi_def_cfa_offset 12
 2462              		.cfi_offset 4, -12
 2463              		.cfi_offset 7, -8
 2464              		.cfi_offset 14, -4
 2465 0002 B5B0     		sub	sp, sp, #212
 2466              		.cfi_def_cfa_offset 224
 2467 0004 00AF     		add	r7, sp, #0
 2468              		.cfi_def_cfa_register 7
 2469 0006 F860     		str	r0, [r7, #12]
 2470 0008 B960     		str	r1, [r7, #8]
 2471 000a 1346     		mov	r3, r2
 2472 000c FB71     		strb	r3, [r7, #7]
 673:..\..\..\lvgl\version_6.1.2\lvgl\src\lv_objx/lv_page.c ****     if(mode == LV_DESIGN_COVER_CHK) {
 2473              		.loc 3 673 0
 2474 000e FB79     		ldrb	r3, [r7, #7]	@ zero_extendqisi2
 2475 0010 022B     		cmp	r3, #2
ARM GAS  C:\Users\tmj32\AppData\Local\Temp\ccFKuFvs.s 			page 64


 2476 0012 07D1     		bne	.L111
 674:..\..\..\lvgl\version_6.1.2\lvgl\src\lv_objx/lv_page.c ****         return ancestor_design(page, mask, mode);
 2477              		.loc 3 674 0
 2478 0014 A34B     		ldr	r3, .L124
 2479 0016 1B68     		ldr	r3, [r3]
 2480 0018 FA79     		ldrb	r2, [r7, #7]	@ zero_extendqisi2
 2481 001a B968     		ldr	r1, [r7, #8]
 2482 001c F868     		ldr	r0, [r7, #12]
 2483 001e 9847     		blx	r3
 2484 0020 0346     		mov	r3, r0
 2485 0022 5DE2     		b	.L123
 2486              	.L111:
 675:..\..\..\lvgl\version_6.1.2\lvgl\src\lv_objx/lv_page.c ****     }
 676:..\..\..\lvgl\version_6.1.2\lvgl\src\lv_objx/lv_page.c ****     /*Cache page bg style for temporary modification*/
 677:..\..\..\lvgl\version_6.1.2\lvgl\src\lv_objx/lv_page.c ****     const lv_style_t * style = lv_page_get_style(page, LV_PAGE_STYLE_BG);
 2487              		.loc 3 677 0
 2488 0024 0021     		movs	r1, #0
 2489 0026 F868     		ldr	r0, [r7, #12]
 2490 0028 FFF7FEFF 		bl	lv_page_get_style
 2491 002c C7F8CC00 		str	r0, [r7, #204]
 678:..\..\..\lvgl\version_6.1.2\lvgl\src\lv_objx/lv_page.c ****     lv_style_t style_tmp;
 679:..\..\..\lvgl\version_6.1.2\lvgl\src\lv_objx/lv_page.c ****     lv_style_copy(&style_tmp, style);
 2492              		.loc 3 679 0
 2493 0030 07F17003 		add	r3, r7, #112
 2494 0034 D7F8CC10 		ldr	r1, [r7, #204]
 2495 0038 1846     		mov	r0, r3
 2496 003a FFF7FEFF 		bl	lv_style_copy
 680:..\..\..\lvgl\version_6.1.2\lvgl\src\lv_objx/lv_page.c **** 
 681:..\..\..\lvgl\version_6.1.2\lvgl\src\lv_objx/lv_page.c ****     if(mode == LV_DESIGN_DRAW_MAIN) {
 2497              		.loc 3 681 0
 2498 003e FB79     		ldrb	r3, [r7, #7]	@ zero_extendqisi2
 2499 0040 002B     		cmp	r3, #0
 2500 0042 10D1     		bne	.L113
 682:..\..\..\lvgl\version_6.1.2\lvgl\src\lv_objx/lv_page.c ****         /*Draw without border*/
 683:..\..\..\lvgl\version_6.1.2\lvgl\src\lv_objx/lv_page.c ****         style_tmp.body.border.width = 0;
 2501              		.loc 3 683 0
 2502 0044 0023     		movs	r3, #0
 2503 0046 A7F88430 		strh	r3, [r7, #132]	@ movhi
 684:..\..\..\lvgl\version_6.1.2\lvgl\src\lv_objx/lv_page.c ****         lv_draw_rect(&page->coords, mask, &style_tmp, lv_obj_get_opa_scale(page));
 2504              		.loc 3 684 0
 2505 004a FB68     		ldr	r3, [r7, #12]
 2506 004c 03F11004 		add	r4, r3, #16
 2507 0050 F868     		ldr	r0, [r7, #12]
 2508 0052 FFF7FEFF 		bl	lv_obj_get_opa_scale
 2509 0056 0346     		mov	r3, r0
 2510 0058 07F17002 		add	r2, r7, #112
 2511 005c B968     		ldr	r1, [r7, #8]
 2512 005e 2046     		mov	r0, r4
 2513 0060 FFF7FEFF 		bl	lv_draw_rect
 2514 0064 3BE2     		b	.L114
 2515              	.L113:
 685:..\..\..\lvgl\version_6.1.2\lvgl\src\lv_objx/lv_page.c **** 
 686:..\..\..\lvgl\version_6.1.2\lvgl\src\lv_objx/lv_page.c ****     } else if(mode == LV_DESIGN_DRAW_POST) {
 2516              		.loc 3 686 0
 2517 0066 FB79     		ldrb	r3, [r7, #7]	@ zero_extendqisi2
 2518 0068 012B     		cmp	r3, #1
 2519 006a 40F03882 		bne	.L114
ARM GAS  C:\Users\tmj32\AppData\Local\Temp\ccFKuFvs.s 			page 65


 2520              	.LBB6:
 687:..\..\..\lvgl\version_6.1.2\lvgl\src\lv_objx/lv_page.c ****         /*Draw only a border*/
 688:..\..\..\lvgl\version_6.1.2\lvgl\src\lv_objx/lv_page.c ****         style_tmp.body.shadow.width = 0;
 2521              		.loc 3 688 0
 2522 006e 0023     		movs	r3, #0
 2523 0070 A7F88C30 		strh	r3, [r7, #140]	@ movhi
 689:..\..\..\lvgl\version_6.1.2\lvgl\src\lv_objx/lv_page.c ****         style_tmp.body.opa          = LV_OPA_TRANSP;
 2524              		.loc 3 689 0
 2525 0074 0023     		movs	r3, #0
 2526 0076 87F87E30 		strb	r3, [r7, #126]
 690:..\..\..\lvgl\version_6.1.2\lvgl\src\lv_objx/lv_page.c ****         lv_draw_rect(&page->coords, mask, &style_tmp, lv_obj_get_opa_scale(page));
 2527              		.loc 3 690 0
 2528 007a FB68     		ldr	r3, [r7, #12]
 2529 007c 03F11004 		add	r4, r3, #16
 2530 0080 F868     		ldr	r0, [r7, #12]
 2531 0082 FFF7FEFF 		bl	lv_obj_get_opa_scale
 2532 0086 0346     		mov	r3, r0
 2533 0088 07F17002 		add	r2, r7, #112
 2534 008c B968     		ldr	r1, [r7, #8]
 2535 008e 2046     		mov	r0, r4
 2536 0090 FFF7FEFF 		bl	lv_draw_rect
 691:..\..\..\lvgl\version_6.1.2\lvgl\src\lv_objx/lv_page.c **** 
 692:..\..\..\lvgl\version_6.1.2\lvgl\src\lv_objx/lv_page.c ****         lv_page_ext_t * ext = lv_obj_get_ext_attr(page);
 2537              		.loc 3 692 0
 2538 0094 F868     		ldr	r0, [r7, #12]
 2539 0096 FFF7FEFF 		bl	lv_obj_get_ext_attr
 2540 009a C7F8C800 		str	r0, [r7, #200]
 693:..\..\..\lvgl\version_6.1.2\lvgl\src\lv_objx/lv_page.c **** 
 694:..\..\..\lvgl\version_6.1.2\lvgl\src\lv_objx/lv_page.c ****         /*Draw the scrollbars*/
 695:..\..\..\lvgl\version_6.1.2\lvgl\src\lv_objx/lv_page.c ****         lv_area_t sb_area;
 696:..\..\..\lvgl\version_6.1.2\lvgl\src\lv_objx/lv_page.c ****         if(ext->sb.hor_draw && (ext->sb.mode & LV_SB_MODE_HIDE) == 0) {
 2541              		.loc 3 696 0
 2542 009e D7F8C830 		ldr	r3, [r7, #200]
 2543 00a2 1B7F     		ldrb	r3, [r3, #28]	@ zero_extendqisi2
 2544 00a4 03F00103 		and	r3, r3, #1
 2545 00a8 DBB2     		uxtb	r3, r3
 2546 00aa 002B     		cmp	r3, #0
 2547 00ac 50D0     		beq	.L115
 2548              		.loc 3 696 0 is_stmt 0 discriminator 1
 2549 00ae D7F8C830 		ldr	r3, [r7, #200]
 2550 00b2 1B7F     		ldrb	r3, [r3, #28]
 2551 00b4 C3F38203 		ubfx	r3, r3, #2, #3
 2552 00b8 DBB2     		uxtb	r3, r3
 2553 00ba 03F00403 		and	r3, r3, #4
 2554 00be 002B     		cmp	r3, #0
 2555 00c0 46D1     		bne	.L115
 697:..\..\..\lvgl\version_6.1.2\lvgl\src\lv_objx/lv_page.c ****             /*Convert the relative coordinates to absolute*/
 698:..\..\..\lvgl\version_6.1.2\lvgl\src\lv_objx/lv_page.c ****             lv_area_copy(&sb_area, &ext->sb.hor_area);
 2556              		.loc 3 698 0 is_stmt 1
 2557 00c2 D7F8C830 		ldr	r3, [r7, #200]
 2558 00c6 03F10C02 		add	r2, r3, #12
 2559 00ca 07F16803 		add	r3, r7, #104
 2560 00ce 1146     		mov	r1, r2
 2561 00d0 1846     		mov	r0, r3
 2562 00d2 FFF7FEFF 		bl	lv_area_copy
 699:..\..\..\lvgl\version_6.1.2\lvgl\src\lv_objx/lv_page.c ****             sb_area.x1 += page->coords.x1;
 2563              		.loc 3 699 0
ARM GAS  C:\Users\tmj32\AppData\Local\Temp\ccFKuFvs.s 			page 66


 2564 00d6 B7F96830 		ldrsh	r3, [r7, #104]
 2565 00da 9AB2     		uxth	r2, r3
 2566 00dc FB68     		ldr	r3, [r7, #12]
 2567 00de B3F91030 		ldrsh	r3, [r3, #16]
 2568 00e2 9BB2     		uxth	r3, r3
 2569 00e4 1344     		add	r3, r3, r2
 2570 00e6 9BB2     		uxth	r3, r3
 2571 00e8 1BB2     		sxth	r3, r3
 2572 00ea A7F86830 		strh	r3, [r7, #104]	@ movhi
 700:..\..\..\lvgl\version_6.1.2\lvgl\src\lv_objx/lv_page.c ****             sb_area.y1 += page->coords.y1;
 2573              		.loc 3 700 0
 2574 00ee B7F96A30 		ldrsh	r3, [r7, #106]
 2575 00f2 9AB2     		uxth	r2, r3
 2576 00f4 FB68     		ldr	r3, [r7, #12]
 2577 00f6 B3F91230 		ldrsh	r3, [r3, #18]
 2578 00fa 9BB2     		uxth	r3, r3
 2579 00fc 1344     		add	r3, r3, r2
 2580 00fe 9BB2     		uxth	r3, r3
 2581 0100 1BB2     		sxth	r3, r3
 2582 0102 A7F86A30 		strh	r3, [r7, #106]	@ movhi
 701:..\..\..\lvgl\version_6.1.2\lvgl\src\lv_objx/lv_page.c ****             sb_area.x2 += page->coords.x1;
 2583              		.loc 3 701 0
 2584 0106 B7F96C30 		ldrsh	r3, [r7, #108]
 2585 010a 9AB2     		uxth	r2, r3
 2586 010c FB68     		ldr	r3, [r7, #12]
 2587 010e B3F91030 		ldrsh	r3, [r3, #16]
 2588 0112 9BB2     		uxth	r3, r3
 2589 0114 1344     		add	r3, r3, r2
 2590 0116 9BB2     		uxth	r3, r3
 2591 0118 1BB2     		sxth	r3, r3
 2592 011a A7F86C30 		strh	r3, [r7, #108]	@ movhi
 702:..\..\..\lvgl\version_6.1.2\lvgl\src\lv_objx/lv_page.c ****             sb_area.y2 += page->coords.y1;
 2593              		.loc 3 702 0
 2594 011e B7F96E30 		ldrsh	r3, [r7, #110]
 2595 0122 9AB2     		uxth	r2, r3
 2596 0124 FB68     		ldr	r3, [r7, #12]
 2597 0126 B3F91230 		ldrsh	r3, [r3, #18]
 2598 012a 9BB2     		uxth	r3, r3
 2599 012c 1344     		add	r3, r3, r2
 2600 012e 9BB2     		uxth	r3, r3
 2601 0130 1BB2     		sxth	r3, r3
 2602 0132 A7F86E30 		strh	r3, [r7, #110]	@ movhi
 703:..\..\..\lvgl\version_6.1.2\lvgl\src\lv_objx/lv_page.c ****             lv_draw_rect(&sb_area, mask, ext->sb.style, lv_obj_get_opa_scale(page));
 2603              		.loc 3 703 0
 2604 0136 D7F8C830 		ldr	r3, [r7, #200]
 2605 013a 9C68     		ldr	r4, [r3, #8]
 2606 013c F868     		ldr	r0, [r7, #12]
 2607 013e FFF7FEFF 		bl	lv_obj_get_opa_scale
 2608 0142 0346     		mov	r3, r0
 2609 0144 07F16800 		add	r0, r7, #104
 2610 0148 2246     		mov	r2, r4
 2611 014a B968     		ldr	r1, [r7, #8]
 2612 014c FFF7FEFF 		bl	lv_draw_rect
 2613              	.L115:
 704:..\..\..\lvgl\version_6.1.2\lvgl\src\lv_objx/lv_page.c ****         }
 705:..\..\..\lvgl\version_6.1.2\lvgl\src\lv_objx/lv_page.c **** 
 706:..\..\..\lvgl\version_6.1.2\lvgl\src\lv_objx/lv_page.c ****         if(ext->sb.ver_draw && (ext->sb.mode & LV_SB_MODE_HIDE) == 0) {
ARM GAS  C:\Users\tmj32\AppData\Local\Temp\ccFKuFvs.s 			page 67


 2614              		.loc 3 706 0
 2615 0150 D7F8C830 		ldr	r3, [r7, #200]
 2616 0154 1B7F     		ldrb	r3, [r3, #28]	@ zero_extendqisi2
 2617 0156 03F00203 		and	r3, r3, #2
 2618 015a DBB2     		uxtb	r3, r3
 2619 015c 002B     		cmp	r3, #0
 2620 015e 50D0     		beq	.L116
 2621              		.loc 3 706 0 is_stmt 0 discriminator 1
 2622 0160 D7F8C830 		ldr	r3, [r7, #200]
 2623 0164 1B7F     		ldrb	r3, [r3, #28]
 2624 0166 C3F38203 		ubfx	r3, r3, #2, #3
 2625 016a DBB2     		uxtb	r3, r3
 2626 016c 03F00403 		and	r3, r3, #4
 2627 0170 002B     		cmp	r3, #0
 2628 0172 46D1     		bne	.L116
 707:..\..\..\lvgl\version_6.1.2\lvgl\src\lv_objx/lv_page.c ****             /*Convert the relative coordinates to absolute*/
 708:..\..\..\lvgl\version_6.1.2\lvgl\src\lv_objx/lv_page.c ****             lv_area_copy(&sb_area, &ext->sb.ver_area);
 2629              		.loc 3 708 0 is_stmt 1
 2630 0174 D7F8C830 		ldr	r3, [r7, #200]
 2631 0178 03F11402 		add	r2, r3, #20
 2632 017c 07F16803 		add	r3, r7, #104
 2633 0180 1146     		mov	r1, r2
 2634 0182 1846     		mov	r0, r3
 2635 0184 FFF7FEFF 		bl	lv_area_copy
 709:..\..\..\lvgl\version_6.1.2\lvgl\src\lv_objx/lv_page.c ****             sb_area.x1 += page->coords.x1;
 2636              		.loc 3 709 0
 2637 0188 B7F96830 		ldrsh	r3, [r7, #104]
 2638 018c 9AB2     		uxth	r2, r3
 2639 018e FB68     		ldr	r3, [r7, #12]
 2640 0190 B3F91030 		ldrsh	r3, [r3, #16]
 2641 0194 9BB2     		uxth	r3, r3
 2642 0196 1344     		add	r3, r3, r2
 2643 0198 9BB2     		uxth	r3, r3
 2644 019a 1BB2     		sxth	r3, r3
 2645 019c A7F86830 		strh	r3, [r7, #104]	@ movhi
 710:..\..\..\lvgl\version_6.1.2\lvgl\src\lv_objx/lv_page.c ****             sb_area.y1 += page->coords.y1;
 2646              		.loc 3 710 0
 2647 01a0 B7F96A30 		ldrsh	r3, [r7, #106]
 2648 01a4 9AB2     		uxth	r2, r3
 2649 01a6 FB68     		ldr	r3, [r7, #12]
 2650 01a8 B3F91230 		ldrsh	r3, [r3, #18]
 2651 01ac 9BB2     		uxth	r3, r3
 2652 01ae 1344     		add	r3, r3, r2
 2653 01b0 9BB2     		uxth	r3, r3
 2654 01b2 1BB2     		sxth	r3, r3
 2655 01b4 A7F86A30 		strh	r3, [r7, #106]	@ movhi
 711:..\..\..\lvgl\version_6.1.2\lvgl\src\lv_objx/lv_page.c ****             sb_area.x2 += page->coords.x1;
 2656              		.loc 3 711 0
 2657 01b8 B7F96C30 		ldrsh	r3, [r7, #108]
 2658 01bc 9AB2     		uxth	r2, r3
 2659 01be FB68     		ldr	r3, [r7, #12]
 2660 01c0 B3F91030 		ldrsh	r3, [r3, #16]
 2661 01c4 9BB2     		uxth	r3, r3
 2662 01c6 1344     		add	r3, r3, r2
 2663 01c8 9BB2     		uxth	r3, r3
 2664 01ca 1BB2     		sxth	r3, r3
 2665 01cc A7F86C30 		strh	r3, [r7, #108]	@ movhi
ARM GAS  C:\Users\tmj32\AppData\Local\Temp\ccFKuFvs.s 			page 68


 712:..\..\..\lvgl\version_6.1.2\lvgl\src\lv_objx/lv_page.c ****             sb_area.y2 += page->coords.y1;
 2666              		.loc 3 712 0
 2667 01d0 B7F96E30 		ldrsh	r3, [r7, #110]
 2668 01d4 9AB2     		uxth	r2, r3
 2669 01d6 FB68     		ldr	r3, [r7, #12]
 2670 01d8 B3F91230 		ldrsh	r3, [r3, #18]
 2671 01dc 9BB2     		uxth	r3, r3
 2672 01de 1344     		add	r3, r3, r2
 2673 01e0 9BB2     		uxth	r3, r3
 2674 01e2 1BB2     		sxth	r3, r3
 2675 01e4 A7F86E30 		strh	r3, [r7, #110]	@ movhi
 713:..\..\..\lvgl\version_6.1.2\lvgl\src\lv_objx/lv_page.c ****             lv_draw_rect(&sb_area, mask, ext->sb.style, lv_obj_get_opa_scale(page));
 2676              		.loc 3 713 0
 2677 01e8 D7F8C830 		ldr	r3, [r7, #200]
 2678 01ec 9C68     		ldr	r4, [r3, #8]
 2679 01ee F868     		ldr	r0, [r7, #12]
 2680 01f0 FFF7FEFF 		bl	lv_obj_get_opa_scale
 2681 01f4 0346     		mov	r3, r0
 2682 01f6 07F16800 		add	r0, r7, #104
 2683 01fa 2246     		mov	r2, r4
 2684 01fc B968     		ldr	r1, [r7, #8]
 2685 01fe FFF7FEFF 		bl	lv_draw_rect
 2686              	.L116:
 2687              	.LBB7:
 714:..\..\..\lvgl\version_6.1.2\lvgl\src\lv_objx/lv_page.c ****         }
 715:..\..\..\lvgl\version_6.1.2\lvgl\src\lv_objx/lv_page.c **** 
 716:..\..\..\lvgl\version_6.1.2\lvgl\src\lv_objx/lv_page.c **** #if LV_USE_ANIMATION
 717:..\..\..\lvgl\version_6.1.2\lvgl\src\lv_objx/lv_page.c ****         {
 718:..\..\..\lvgl\version_6.1.2\lvgl\src\lv_objx/lv_page.c ****             lv_coord_t page_w = lv_obj_get_width(page);
 2688              		.loc 3 718 0
 2689 0202 F868     		ldr	r0, [r7, #12]
 2690 0204 FFF7FEFF 		bl	lv_obj_get_width
 2691 0208 0346     		mov	r3, r0
 2692 020a A7F8C630 		strh	r3, [r7, #198]	@ movhi
 719:..\..\..\lvgl\version_6.1.2\lvgl\src\lv_objx/lv_page.c ****             lv_coord_t page_h = lv_obj_get_height(page);
 2693              		.loc 3 719 0
 2694 020e F868     		ldr	r0, [r7, #12]
 2695 0210 FFF7FEFF 		bl	lv_obj_get_height
 2696 0214 0346     		mov	r3, r0
 2697 0216 A7F8C430 		strh	r3, [r7, #196]	@ movhi
 720:..\..\..\lvgl\version_6.1.2\lvgl\src\lv_objx/lv_page.c **** 
 721:..\..\..\lvgl\version_6.1.2\lvgl\src\lv_objx/lv_page.c ****             lv_area_t flash_area;
 722:..\..\..\lvgl\version_6.1.2\lvgl\src\lv_objx/lv_page.c **** 
 723:..\..\..\lvgl\version_6.1.2\lvgl\src\lv_objx/lv_page.c ****             if(ext->edge_flash.top_ip) {
 2698              		.loc 3 723 0
 2699 021a D7F8C830 		ldr	r3, [r7, #200]
 2700 021e 93F82830 		ldrb	r3, [r3, #40]	@ zero_extendqisi2
 2701 0222 03F00203 		and	r3, r3, #2
 2702 0226 DBB2     		uxtb	r3, r3
 2703 0228 002B     		cmp	r3, #0
 2704 022a 3DD0     		beq	.L117
 724:..\..\..\lvgl\version_6.1.2\lvgl\src\lv_objx/lv_page.c ****                 flash_area.x1 = page->coords.x1 - page_w;
 2705              		.loc 3 724 0
 2706 022c FB68     		ldr	r3, [r7, #12]
 2707 022e B3F91030 		ldrsh	r3, [r3, #16]
 2708 0232 9AB2     		uxth	r2, r3
 2709 0234 B7F8C630 		ldrh	r3, [r7, #198]
ARM GAS  C:\Users\tmj32\AppData\Local\Temp\ccFKuFvs.s 			page 69


 2710 0238 D31A     		subs	r3, r2, r3
 2711 023a 9BB2     		uxth	r3, r3
 2712 023c 1BB2     		sxth	r3, r3
 2713 023e A7F86030 		strh	r3, [r7, #96]	@ movhi
 725:..\..\..\lvgl\version_6.1.2\lvgl\src\lv_objx/lv_page.c ****                 flash_area.x2 = page->coords.x2 + page_w;
 2714              		.loc 3 725 0
 2715 0242 FB68     		ldr	r3, [r7, #12]
 2716 0244 B3F91430 		ldrsh	r3, [r3, #20]
 2717 0248 9AB2     		uxth	r2, r3
 2718 024a B7F8C630 		ldrh	r3, [r7, #198]
 2719 024e 1344     		add	r3, r3, r2
 2720 0250 9BB2     		uxth	r3, r3
 2721 0252 1BB2     		sxth	r3, r3
 2722 0254 A7F86430 		strh	r3, [r7, #100]	@ movhi
 726:..\..\..\lvgl\version_6.1.2\lvgl\src\lv_objx/lv_page.c ****                 flash_area.y1 = page->coords.y1 - 3 * page_w + ext->edge_flash.state;
 2723              		.loc 3 726 0
 2724 0258 FB68     		ldr	r3, [r7, #12]
 2725 025a B3F91230 		ldrsh	r3, [r3, #18]
 2726 025e 9AB2     		uxth	r2, r3
 2727 0260 B7F8C630 		ldrh	r3, [r7, #198]
 2728 0264 1946     		mov	r1, r3	@ movhi
 2729 0266 9B00     		lsls	r3, r3, #2
 2730 0268 CB1A     		subs	r3, r1, r3
 2731 026a 9BB2     		uxth	r3, r3
 2732 026c 1344     		add	r3, r3, r2
 2733 026e 9AB2     		uxth	r2, r3
 2734 0270 D7F8C830 		ldr	r3, [r7, #200]
 2735 0274 B3F92030 		ldrsh	r3, [r3, #32]
 2736 0278 9BB2     		uxth	r3, r3
 2737 027a 1344     		add	r3, r3, r2
 2738 027c 9BB2     		uxth	r3, r3
 2739 027e 1BB2     		sxth	r3, r3
 2740 0280 A7F86230 		strh	r3, [r7, #98]	@ movhi
 727:..\..\..\lvgl\version_6.1.2\lvgl\src\lv_objx/lv_page.c ****                 flash_area.y2 = page->coords.y1 + ext->edge_flash.state;
 2741              		.loc 3 727 0
 2742 0284 FB68     		ldr	r3, [r7, #12]
 2743 0286 B3F91230 		ldrsh	r3, [r3, #18]
 2744 028a 9AB2     		uxth	r2, r3
 2745 028c D7F8C830 		ldr	r3, [r7, #200]
 2746 0290 B3F92030 		ldrsh	r3, [r3, #32]
 2747 0294 9BB2     		uxth	r3, r3
 2748 0296 1344     		add	r3, r3, r2
 2749 0298 9BB2     		uxth	r3, r3
 2750 029a 1BB2     		sxth	r3, r3
 2751 029c A7F86630 		strh	r3, [r7, #102]	@ movhi
 2752 02a0 CDE0     		b	.L118
 2753              	.L125:
 2754 02a2 00BF     		.align	2
 2755              	.L124:
 2756 02a4 00000000 		.word	ancestor_design
 2757              	.L117:
 728:..\..\..\lvgl\version_6.1.2\lvgl\src\lv_objx/lv_page.c ****             } else if(ext->edge_flash.bottom_ip) {
 2758              		.loc 3 728 0
 2759 02a8 D7F8C830 		ldr	r3, [r7, #200]
 2760 02ac 93F82830 		ldrb	r3, [r3, #40]	@ zero_extendqisi2
 2761 02b0 03F00403 		and	r3, r3, #4
 2762 02b4 DBB2     		uxtb	r3, r3
ARM GAS  C:\Users\tmj32\AppData\Local\Temp\ccFKuFvs.s 			page 70


 2763 02b6 002B     		cmp	r3, #0
 2764 02b8 3AD0     		beq	.L119
 729:..\..\..\lvgl\version_6.1.2\lvgl\src\lv_objx/lv_page.c ****                 flash_area.x1 = page->coords.x1 - page_w;
 2765              		.loc 3 729 0
 2766 02ba FB68     		ldr	r3, [r7, #12]
 2767 02bc B3F91030 		ldrsh	r3, [r3, #16]
 2768 02c0 9AB2     		uxth	r2, r3
 2769 02c2 B7F8C630 		ldrh	r3, [r7, #198]
 2770 02c6 D31A     		subs	r3, r2, r3
 2771 02c8 9BB2     		uxth	r3, r3
 2772 02ca 1BB2     		sxth	r3, r3
 2773 02cc A7F86030 		strh	r3, [r7, #96]	@ movhi
 730:..\..\..\lvgl\version_6.1.2\lvgl\src\lv_objx/lv_page.c ****                 flash_area.x2 = page->coords.x2 + page_w;
 2774              		.loc 3 730 0
 2775 02d0 FB68     		ldr	r3, [r7, #12]
 2776 02d2 B3F91430 		ldrsh	r3, [r3, #20]
 2777 02d6 9AB2     		uxth	r2, r3
 2778 02d8 B7F8C630 		ldrh	r3, [r7, #198]
 2779 02dc 1344     		add	r3, r3, r2
 2780 02de 9BB2     		uxth	r3, r3
 2781 02e0 1BB2     		sxth	r3, r3
 2782 02e2 A7F86430 		strh	r3, [r7, #100]	@ movhi
 731:..\..\..\lvgl\version_6.1.2\lvgl\src\lv_objx/lv_page.c ****                 flash_area.y1 = page->coords.y2 - ext->edge_flash.state;
 2783              		.loc 3 731 0
 2784 02e6 FB68     		ldr	r3, [r7, #12]
 2785 02e8 B3F91630 		ldrsh	r3, [r3, #22]
 2786 02ec 9AB2     		uxth	r2, r3
 2787 02ee D7F8C830 		ldr	r3, [r7, #200]
 2788 02f2 B3F92030 		ldrsh	r3, [r3, #32]
 2789 02f6 9BB2     		uxth	r3, r3
 2790 02f8 D31A     		subs	r3, r2, r3
 2791 02fa 9BB2     		uxth	r3, r3
 2792 02fc 1BB2     		sxth	r3, r3
 2793 02fe A7F86230 		strh	r3, [r7, #98]	@ movhi
 732:..\..\..\lvgl\version_6.1.2\lvgl\src\lv_objx/lv_page.c ****                 flash_area.y2 = page->coords.y2 + 3 * page_w - ext->edge_flash.state;
 2794              		.loc 3 732 0
 2795 0302 FB68     		ldr	r3, [r7, #12]
 2796 0304 B3F91630 		ldrsh	r3, [r3, #22]
 2797 0308 9AB2     		uxth	r2, r3
 2798 030a B7F8C630 		ldrh	r3, [r7, #198]
 2799 030e 1946     		mov	r1, r3	@ movhi
 2800 0310 4900     		lsls	r1, r1, #1
 2801 0312 0B44     		add	r3, r3, r1
 2802 0314 9BB2     		uxth	r3, r3
 2803 0316 1344     		add	r3, r3, r2
 2804 0318 9AB2     		uxth	r2, r3
 2805 031a D7F8C830 		ldr	r3, [r7, #200]
 2806 031e B3F92030 		ldrsh	r3, [r3, #32]
 2807 0322 9BB2     		uxth	r3, r3
 2808 0324 D31A     		subs	r3, r2, r3
 2809 0326 9BB2     		uxth	r3, r3
 2810 0328 1BB2     		sxth	r3, r3
 2811 032a A7F86630 		strh	r3, [r7, #102]	@ movhi
 2812 032e 86E0     		b	.L118
 2813              	.L119:
 733:..\..\..\lvgl\version_6.1.2\lvgl\src\lv_objx/lv_page.c ****             } else if(ext->edge_flash.right_ip) {
 2814              		.loc 3 733 0
ARM GAS  C:\Users\tmj32\AppData\Local\Temp\ccFKuFvs.s 			page 71


 2815 0330 D7F8C830 		ldr	r3, [r7, #200]
 2816 0334 93F82830 		ldrb	r3, [r3, #40]	@ zero_extendqisi2
 2817 0338 03F00803 		and	r3, r3, #8
 2818 033c DBB2     		uxtb	r3, r3
 2819 033e 002B     		cmp	r3, #0
 2820 0340 3AD0     		beq	.L120
 734:..\..\..\lvgl\version_6.1.2\lvgl\src\lv_objx/lv_page.c ****                 flash_area.x1 = page->coords.x2 - ext->edge_flash.state;
 2821              		.loc 3 734 0
 2822 0342 FB68     		ldr	r3, [r7, #12]
 2823 0344 B3F91430 		ldrsh	r3, [r3, #20]
 2824 0348 9AB2     		uxth	r2, r3
 2825 034a D7F8C830 		ldr	r3, [r7, #200]
 2826 034e B3F92030 		ldrsh	r3, [r3, #32]
 2827 0352 9BB2     		uxth	r3, r3
 2828 0354 D31A     		subs	r3, r2, r3
 2829 0356 9BB2     		uxth	r3, r3
 2830 0358 1BB2     		sxth	r3, r3
 2831 035a A7F86030 		strh	r3, [r7, #96]	@ movhi
 735:..\..\..\lvgl\version_6.1.2\lvgl\src\lv_objx/lv_page.c ****                 flash_area.x2 = page->coords.x2 + 3 * page_h - ext->edge_flash.state;
 2832              		.loc 3 735 0
 2833 035e FB68     		ldr	r3, [r7, #12]
 2834 0360 B3F91430 		ldrsh	r3, [r3, #20]
 2835 0364 9AB2     		uxth	r2, r3
 2836 0366 B7F8C430 		ldrh	r3, [r7, #196]
 2837 036a 1946     		mov	r1, r3	@ movhi
 2838 036c 4900     		lsls	r1, r1, #1
 2839 036e 0B44     		add	r3, r3, r1
 2840 0370 9BB2     		uxth	r3, r3
 2841 0372 1344     		add	r3, r3, r2
 2842 0374 9AB2     		uxth	r2, r3
 2843 0376 D7F8C830 		ldr	r3, [r7, #200]
 2844 037a B3F92030 		ldrsh	r3, [r3, #32]
 2845 037e 9BB2     		uxth	r3, r3
 2846 0380 D31A     		subs	r3, r2, r3
 2847 0382 9BB2     		uxth	r3, r3
 2848 0384 1BB2     		sxth	r3, r3
 2849 0386 A7F86430 		strh	r3, [r7, #100]	@ movhi
 736:..\..\..\lvgl\version_6.1.2\lvgl\src\lv_objx/lv_page.c ****                 flash_area.y1 = page->coords.y1 - page_h;
 2850              		.loc 3 736 0
 2851 038a FB68     		ldr	r3, [r7, #12]
 2852 038c B3F91230 		ldrsh	r3, [r3, #18]
 2853 0390 9AB2     		uxth	r2, r3
 2854 0392 B7F8C430 		ldrh	r3, [r7, #196]
 2855 0396 D31A     		subs	r3, r2, r3
 2856 0398 9BB2     		uxth	r3, r3
 2857 039a 1BB2     		sxth	r3, r3
 2858 039c A7F86230 		strh	r3, [r7, #98]	@ movhi
 737:..\..\..\lvgl\version_6.1.2\lvgl\src\lv_objx/lv_page.c ****                 flash_area.y2 = page->coords.y2 + page_h;
 2859              		.loc 3 737 0
 2860 03a0 FB68     		ldr	r3, [r7, #12]
 2861 03a2 B3F91630 		ldrsh	r3, [r3, #22]
 2862 03a6 9AB2     		uxth	r2, r3
 2863 03a8 B7F8C430 		ldrh	r3, [r7, #196]
 2864 03ac 1344     		add	r3, r3, r2
 2865 03ae 9BB2     		uxth	r3, r3
 2866 03b0 1BB2     		sxth	r3, r3
 2867 03b2 A7F86630 		strh	r3, [r7, #102]	@ movhi
ARM GAS  C:\Users\tmj32\AppData\Local\Temp\ccFKuFvs.s 			page 72


 2868 03b6 42E0     		b	.L118
 2869              	.L120:
 738:..\..\..\lvgl\version_6.1.2\lvgl\src\lv_objx/lv_page.c ****             } else if(ext->edge_flash.left_ip) {
 2870              		.loc 3 738 0
 2871 03b8 D7F8C830 		ldr	r3, [r7, #200]
 2872 03bc 93F82830 		ldrb	r3, [r3, #40]	@ zero_extendqisi2
 2873 03c0 03F01003 		and	r3, r3, #16
 2874 03c4 DBB2     		uxtb	r3, r3
 2875 03c6 002B     		cmp	r3, #0
 2876 03c8 39D0     		beq	.L118
 739:..\..\..\lvgl\version_6.1.2\lvgl\src\lv_objx/lv_page.c ****                 flash_area.x1 = page->coords.x1 - 3 * page_h + ext->edge_flash.state;
 2877              		.loc 3 739 0
 2878 03ca FB68     		ldr	r3, [r7, #12]
 2879 03cc B3F91030 		ldrsh	r3, [r3, #16]
 2880 03d0 9AB2     		uxth	r2, r3
 2881 03d2 B7F8C430 		ldrh	r3, [r7, #196]
 2882 03d6 1946     		mov	r1, r3	@ movhi
 2883 03d8 9B00     		lsls	r3, r3, #2
 2884 03da CB1A     		subs	r3, r1, r3
 2885 03dc 9BB2     		uxth	r3, r3
 2886 03de 1344     		add	r3, r3, r2
 2887 03e0 9AB2     		uxth	r2, r3
 2888 03e2 D7F8C830 		ldr	r3, [r7, #200]
 2889 03e6 B3F92030 		ldrsh	r3, [r3, #32]
 2890 03ea 9BB2     		uxth	r3, r3
 2891 03ec 1344     		add	r3, r3, r2
 2892 03ee 9BB2     		uxth	r3, r3
 2893 03f0 1BB2     		sxth	r3, r3
 2894 03f2 A7F86030 		strh	r3, [r7, #96]	@ movhi
 740:..\..\..\lvgl\version_6.1.2\lvgl\src\lv_objx/lv_page.c ****                 flash_area.x2 = page->coords.x1 + ext->edge_flash.state;
 2895              		.loc 3 740 0
 2896 03f6 FB68     		ldr	r3, [r7, #12]
 2897 03f8 B3F91030 		ldrsh	r3, [r3, #16]
 2898 03fc 9AB2     		uxth	r2, r3
 2899 03fe D7F8C830 		ldr	r3, [r7, #200]
 2900 0402 B3F92030 		ldrsh	r3, [r3, #32]
 2901 0406 9BB2     		uxth	r3, r3
 2902 0408 1344     		add	r3, r3, r2
 2903 040a 9BB2     		uxth	r3, r3
 2904 040c 1BB2     		sxth	r3, r3
 2905 040e A7F86430 		strh	r3, [r7, #100]	@ movhi
 741:..\..\..\lvgl\version_6.1.2\lvgl\src\lv_objx/lv_page.c ****                 flash_area.y1 = page->coords.y1 - page_h;
 2906              		.loc 3 741 0
 2907 0412 FB68     		ldr	r3, [r7, #12]
 2908 0414 B3F91230 		ldrsh	r3, [r3, #18]
 2909 0418 9AB2     		uxth	r2, r3
 2910 041a B7F8C430 		ldrh	r3, [r7, #196]
 2911 041e D31A     		subs	r3, r2, r3
 2912 0420 9BB2     		uxth	r3, r3
 2913 0422 1BB2     		sxth	r3, r3
 2914 0424 A7F86230 		strh	r3, [r7, #98]	@ movhi
 742:..\..\..\lvgl\version_6.1.2\lvgl\src\lv_objx/lv_page.c ****                 flash_area.y2 = page->coords.y2 + page_h;
 2915              		.loc 3 742 0
 2916 0428 FB68     		ldr	r3, [r7, #12]
 2917 042a B3F91630 		ldrsh	r3, [r3, #22]
 2918 042e 9AB2     		uxth	r2, r3
 2919 0430 B7F8C430 		ldrh	r3, [r7, #196]
ARM GAS  C:\Users\tmj32\AppData\Local\Temp\ccFKuFvs.s 			page 73


 2920 0434 1344     		add	r3, r3, r2
 2921 0436 9BB2     		uxth	r3, r3
 2922 0438 1BB2     		sxth	r3, r3
 2923 043a A7F86630 		strh	r3, [r7, #102]	@ movhi
 2924              	.L118:
 743:..\..\..\lvgl\version_6.1.2\lvgl\src\lv_objx/lv_page.c ****             }
 744:..\..\..\lvgl\version_6.1.2\lvgl\src\lv_objx/lv_page.c **** 
 745:..\..\..\lvgl\version_6.1.2\lvgl\src\lv_objx/lv_page.c ****             if(ext->edge_flash.left_ip || ext->edge_flash.right_ip || ext->edge_flash.top_ip ||
 2925              		.loc 3 745 0
 2926 043e D7F8C830 		ldr	r3, [r7, #200]
 2927 0442 93F82830 		ldrb	r3, [r3, #40]	@ zero_extendqisi2
 2928 0446 03F01003 		and	r3, r3, #16
 2929 044a DBB2     		uxtb	r3, r3
 2930 044c 002B     		cmp	r3, #0
 2931 044e 1AD1     		bne	.L121
 2932              		.loc 3 745 0 is_stmt 0 discriminator 1
 2933 0450 D7F8C830 		ldr	r3, [r7, #200]
 2934 0454 93F82830 		ldrb	r3, [r3, #40]	@ zero_extendqisi2
 2935 0458 03F00803 		and	r3, r3, #8
 2936 045c DBB2     		uxtb	r3, r3
 2937 045e 002B     		cmp	r3, #0
 2938 0460 11D1     		bne	.L121
 2939              		.loc 3 745 0 discriminator 2
 2940 0462 D7F8C830 		ldr	r3, [r7, #200]
 2941 0466 93F82830 		ldrb	r3, [r3, #40]	@ zero_extendqisi2
 2942 046a 03F00203 		and	r3, r3, #2
 2943 046e DBB2     		uxtb	r3, r3
 2944 0470 002B     		cmp	r3, #0
 2945 0472 08D1     		bne	.L121
 2946              		.loc 3 745 0 discriminator 3
 2947 0474 D7F8C830 		ldr	r3, [r7, #200]
 2948 0478 93F82830 		ldrb	r3, [r3, #40]	@ zero_extendqisi2
 2949 047c 03F00403 		and	r3, r3, #4
 2950 0480 DBB2     		uxtb	r3, r3
 2951 0482 002B     		cmp	r3, #0
 2952 0484 2BD0     		beq	.L114
 2953              	.L121:
 2954              	.LBB8:
 746:..\..\..\lvgl\version_6.1.2\lvgl\src\lv_objx/lv_page.c ****                ext->edge_flash.bottom_ip) {
 747:..\..\..\lvgl\version_6.1.2\lvgl\src\lv_objx/lv_page.c ****                 lv_style_t flash_style;
 748:..\..\..\lvgl\version_6.1.2\lvgl\src\lv_objx/lv_page.c ****                 lv_style_copy(&flash_style, ext->edge_flash.style);
 2955              		.loc 3 748 0 is_stmt 1
 2956 0486 D7F8C830 		ldr	r3, [r7, #200]
 2957 048a 5A6A     		ldr	r2, [r3, #36]
 2958 048c 07F11003 		add	r3, r7, #16
 2959 0490 1146     		mov	r1, r2
 2960 0492 1846     		mov	r0, r3
 2961 0494 FFF7FEFF 		bl	lv_style_copy
 749:..\..\..\lvgl\version_6.1.2\lvgl\src\lv_objx/lv_page.c ****                 flash_style.body.radius = LV_RADIUS_CIRCLE;
 2962              		.loc 3 749 0
 2963 0498 47F61843 		movw	r3, #31768
 2964 049c BB83     		strh	r3, [r7, #28]	@ movhi
 750:..\..\..\lvgl\version_6.1.2\lvgl\src\lv_objx/lv_page.c ****                 uint32_t opa            = (flash_style.body.opa * ext->edge_flash.state) / LV_PAGE_
 2965              		.loc 3 750 0
 2966 049e BB7F     		ldrb	r3, [r7, #30]	@ zero_extendqisi2
 2967 04a0 1A46     		mov	r2, r3
 2968 04a2 D7F8C830 		ldr	r3, [r7, #200]
ARM GAS  C:\Users\tmj32\AppData\Local\Temp\ccFKuFvs.s 			page 74


 2969 04a6 B3F92030 		ldrsh	r3, [r3, #32]
 2970 04aa 03FB02F3 		mul	r3, r3, r2
 2971 04ae 0E4A     		ldr	r2, .L126
 2972 04b0 82FB0312 		smull	r1, r2, r2, r3
 2973 04b4 1A44     		add	r2, r2, r3
 2974 04b6 5211     		asrs	r2, r2, #5
 2975 04b8 DB17     		asrs	r3, r3, #31
 2976 04ba D31A     		subs	r3, r2, r3
 2977 04bc C7F8C030 		str	r3, [r7, #192]
 751:..\..\..\lvgl\version_6.1.2\lvgl\src\lv_objx/lv_page.c ****                 flash_style.body.opa    = opa;
 2978              		.loc 3 751 0
 2979 04c0 D7F8C030 		ldr	r3, [r7, #192]
 2980 04c4 DBB2     		uxtb	r3, r3
 2981 04c6 BB77     		strb	r3, [r7, #30]
 752:..\..\..\lvgl\version_6.1.2\lvgl\src\lv_objx/lv_page.c ****                 lv_draw_rect(&flash_area, mask, &flash_style, lv_obj_get_opa_scale(page));
 2982              		.loc 3 752 0
 2983 04c8 F868     		ldr	r0, [r7, #12]
 2984 04ca FFF7FEFF 		bl	lv_obj_get_opa_scale
 2985 04ce 0346     		mov	r3, r0
 2986 04d0 07F11002 		add	r2, r7, #16
 2987 04d4 07F16000 		add	r0, r7, #96
 2988 04d8 B968     		ldr	r1, [r7, #8]
 2989 04da FFF7FEFF 		bl	lv_draw_rect
 2990              	.L114:
 2991              	.LBE8:
 2992              	.LBE7:
 2993              	.LBE6:
 753:..\..\..\lvgl\version_6.1.2\lvgl\src\lv_objx/lv_page.c ****             }
 754:..\..\..\lvgl\version_6.1.2\lvgl\src\lv_objx/lv_page.c ****         }
 755:..\..\..\lvgl\version_6.1.2\lvgl\src\lv_objx/lv_page.c **** #endif
 756:..\..\..\lvgl\version_6.1.2\lvgl\src\lv_objx/lv_page.c ****     }
 757:..\..\..\lvgl\version_6.1.2\lvgl\src\lv_objx/lv_page.c **** 
 758:..\..\..\lvgl\version_6.1.2\lvgl\src\lv_objx/lv_page.c ****     return true;
 2994              		.loc 3 758 0
 2995 04de 0123     		movs	r3, #1
 2996              	.L123:
 759:..\..\..\lvgl\version_6.1.2\lvgl\src\lv_objx/lv_page.c **** }
 2997              		.loc 3 759 0 discriminator 2
 2998 04e0 1846     		mov	r0, r3
 2999 04e2 D437     		adds	r7, r7, #212
 3000              		.cfi_def_cfa_offset 12
 3001 04e4 BD46     		mov	sp, r7
 3002              		.cfi_def_cfa_register 13
 3003              		@ sp needed
 3004 04e6 90BD     		pop	{r4, r7, pc}
 3005              	.L127:
 3006              		.align	2
 3007              	.L126:
 3008 04e8 A7C867DD 		.word	-580400985
 3009              		.cfi_endproc
 3010              	.LFE69:
 3011              		.size	lv_page_design, .-lv_page_design
 3012              		.section	.text.lv_scrl_design,"ax",%progbits
 3013              		.align	2
 3014              		.thumb
 3015              		.thumb_func
 3016              		.type	lv_scrl_design, %function
ARM GAS  C:\Users\tmj32\AppData\Local\Temp\ccFKuFvs.s 			page 75


 3017              	lv_scrl_design:
 3018              	.LFB70:
 760:..\..\..\lvgl\version_6.1.2\lvgl\src\lv_objx/lv_page.c **** 
 761:..\..\..\lvgl\version_6.1.2\lvgl\src\lv_objx/lv_page.c **** /**
 762:..\..\..\lvgl\version_6.1.2\lvgl\src\lv_objx/lv_page.c ****  * Handle the drawing related tasks of the scrollable object
 763:..\..\..\lvgl\version_6.1.2\lvgl\src\lv_objx/lv_page.c ****  * @param scrl pointer to an object
 764:..\..\..\lvgl\version_6.1.2\lvgl\src\lv_objx/lv_page.c ****  * @param mask the object will be drawn only in this area
 765:..\..\..\lvgl\version_6.1.2\lvgl\src\lv_objx/lv_page.c ****  * @param mode LV_DESIGN_COVER_CHK: only check if the object fully covers the 'mask_p' area
 766:..\..\..\lvgl\version_6.1.2\lvgl\src\lv_objx/lv_page.c ****  *                                  (return 'true' if yes)
 767:..\..\..\lvgl\version_6.1.2\lvgl\src\lv_objx/lv_page.c ****  *             LV_DESIGN_DRAW: draw the object (always return 'true')
 768:..\..\..\lvgl\version_6.1.2\lvgl\src\lv_objx/lv_page.c ****  *             LV_DESIGN_DRAW_POST: drawing after every children are drawn
 769:..\..\..\lvgl\version_6.1.2\lvgl\src\lv_objx/lv_page.c ****  * @param return true/false, depends on 'mode'
 770:..\..\..\lvgl\version_6.1.2\lvgl\src\lv_objx/lv_page.c ****  */
 771:..\..\..\lvgl\version_6.1.2\lvgl\src\lv_objx/lv_page.c **** static bool lv_scrl_design(lv_obj_t * scrl, const lv_area_t * mask, lv_design_mode_t mode)
 772:..\..\..\lvgl\version_6.1.2\lvgl\src\lv_objx/lv_page.c **** {
 3019              		.loc 3 772 0
 3020              		.cfi_startproc
 3021              		@ args = 0, pretend = 0, frame = 16
 3022              		@ frame_needed = 1, uses_anonymous_args = 0
 3023 0000 80B5     		push	{r7, lr}
 3024              		.cfi_def_cfa_offset 8
 3025              		.cfi_offset 7, -8
 3026              		.cfi_offset 14, -4
 3027 0002 84B0     		sub	sp, sp, #16
 3028              		.cfi_def_cfa_offset 24
 3029 0004 00AF     		add	r7, sp, #0
 3030              		.cfi_def_cfa_register 7
 3031 0006 F860     		str	r0, [r7, #12]
 3032 0008 B960     		str	r1, [r7, #8]
 3033 000a 1346     		mov	r3, r2
 3034 000c FB71     		strb	r3, [r7, #7]
 773:..\..\..\lvgl\version_6.1.2\lvgl\src\lv_objx/lv_page.c ****     if(mode == LV_DESIGN_COVER_CHK) {
 3035              		.loc 3 773 0
 3036 000e FB79     		ldrb	r3, [r7, #7]	@ zero_extendqisi2
 3037 0010 022B     		cmp	r3, #2
 3038 0012 07D1     		bne	.L129
 774:..\..\..\lvgl\version_6.1.2\lvgl\src\lv_objx/lv_page.c ****         return ancestor_design(scrl, mask, mode);
 3039              		.loc 3 774 0
 3040 0014 0F4B     		ldr	r3, .L133
 3041 0016 1B68     		ldr	r3, [r3]
 3042 0018 FA79     		ldrb	r2, [r7, #7]	@ zero_extendqisi2
 3043 001a B968     		ldr	r1, [r7, #8]
 3044 001c F868     		ldr	r0, [r7, #12]
 3045 001e 9847     		blx	r3
 3046 0020 0346     		mov	r3, r0
 3047 0022 13E0     		b	.L130
 3048              	.L129:
 775:..\..\..\lvgl\version_6.1.2\lvgl\src\lv_objx/lv_page.c ****     } else if(mode == LV_DESIGN_DRAW_MAIN) {
 3049              		.loc 3 775 0
 3050 0024 FB79     		ldrb	r3, [r7, #7]	@ zero_extendqisi2
 3051 0026 002B     		cmp	r3, #0
 3052 0028 06D1     		bne	.L131
 776:..\..\..\lvgl\version_6.1.2\lvgl\src\lv_objx/lv_page.c **** #if LV_USE_GROUP
 777:..\..\..\lvgl\version_6.1.2\lvgl\src\lv_objx/lv_page.c ****         /* If the page is focused in a group and
 778:..\..\..\lvgl\version_6.1.2\lvgl\src\lv_objx/lv_page.c ****          * the background object is not visible (transparent)
 779:..\..\..\lvgl\version_6.1.2\lvgl\src\lv_objx/lv_page.c ****          * then "activate" the style of the scrollable*/
 780:..\..\..\lvgl\version_6.1.2\lvgl\src\lv_objx/lv_page.c ****         const lv_style_t * style_scrl_ori = lv_obj_get_style(scrl);
ARM GAS  C:\Users\tmj32\AppData\Local\Temp\ccFKuFvs.s 			page 76


 781:..\..\..\lvgl\version_6.1.2\lvgl\src\lv_objx/lv_page.c ****         lv_obj_t * page                   = lv_obj_get_parent(scrl);
 782:..\..\..\lvgl\version_6.1.2\lvgl\src\lv_objx/lv_page.c ****         const lv_style_t * style_page     = lv_obj_get_style(page);
 783:..\..\..\lvgl\version_6.1.2\lvgl\src\lv_objx/lv_page.c ****         lv_group_t * g                    = lv_obj_get_group(page);
 784:..\..\..\lvgl\version_6.1.2\lvgl\src\lv_objx/lv_page.c ****         if((style_page->body.opa == LV_OPA_TRANSP) &&
 785:..\..\..\lvgl\version_6.1.2\lvgl\src\lv_objx/lv_page.c ****            style_page->body.border.width == 0) { /*Is the background visible?*/
 786:..\..\..\lvgl\version_6.1.2\lvgl\src\lv_objx/lv_page.c ****             if(lv_group_get_focused(g) == page) {
 787:..\..\..\lvgl\version_6.1.2\lvgl\src\lv_objx/lv_page.c ****                 lv_style_t * style_mod;
 788:..\..\..\lvgl\version_6.1.2\lvgl\src\lv_objx/lv_page.c ****                 style_mod = lv_group_mod_style(g, style_scrl_ori);
 789:..\..\..\lvgl\version_6.1.2\lvgl\src\lv_objx/lv_page.c ****                 /*If still not visible modify the style a littel bit*/
 790:..\..\..\lvgl\version_6.1.2\lvgl\src\lv_objx/lv_page.c ****                 if((style_mod->body.opa == LV_OPA_TRANSP) && style_mod->body.border.width == 0) {
 791:..\..\..\lvgl\version_6.1.2\lvgl\src\lv_objx/lv_page.c ****                     style_mod->body.opa          = LV_OPA_50;
 792:..\..\..\lvgl\version_6.1.2\lvgl\src\lv_objx/lv_page.c ****                     style_mod->body.border.width = 1;
 793:..\..\..\lvgl\version_6.1.2\lvgl\src\lv_objx/lv_page.c ****                     style_mod                    = lv_group_mod_style(g, style_mod);
 794:..\..\..\lvgl\version_6.1.2\lvgl\src\lv_objx/lv_page.c ****                 }
 795:..\..\..\lvgl\version_6.1.2\lvgl\src\lv_objx/lv_page.c **** 
 796:..\..\..\lvgl\version_6.1.2\lvgl\src\lv_objx/lv_page.c ****                 scrl->style_p = style_mod; /*Temporally change the style to the activated */
 797:..\..\..\lvgl\version_6.1.2\lvgl\src\lv_objx/lv_page.c ****             }
 798:..\..\..\lvgl\version_6.1.2\lvgl\src\lv_objx/lv_page.c ****         }
 799:..\..\..\lvgl\version_6.1.2\lvgl\src\lv_objx/lv_page.c **** #endif
 800:..\..\..\lvgl\version_6.1.2\lvgl\src\lv_objx/lv_page.c ****         ancestor_design(scrl, mask, mode);
 3053              		.loc 3 800 0
 3054 002a 0A4B     		ldr	r3, .L133
 3055 002c 1B68     		ldr	r3, [r3]
 3056 002e FA79     		ldrb	r2, [r7, #7]	@ zero_extendqisi2
 3057 0030 B968     		ldr	r1, [r7, #8]
 3058 0032 F868     		ldr	r0, [r7, #12]
 3059 0034 9847     		blx	r3
 3060 0036 08E0     		b	.L132
 3061              	.L131:
 801:..\..\..\lvgl\version_6.1.2\lvgl\src\lv_objx/lv_page.c **** 
 802:..\..\..\lvgl\version_6.1.2\lvgl\src\lv_objx/lv_page.c **** #if LV_USE_GROUP
 803:..\..\..\lvgl\version_6.1.2\lvgl\src\lv_objx/lv_page.c ****         scrl->style_p = style_scrl_ori; /*Revert the style*/
 804:..\..\..\lvgl\version_6.1.2\lvgl\src\lv_objx/lv_page.c **** #endif
 805:..\..\..\lvgl\version_6.1.2\lvgl\src\lv_objx/lv_page.c ****     } else if(mode == LV_DESIGN_DRAW_POST) {
 3062              		.loc 3 805 0
 3063 0038 FB79     		ldrb	r3, [r7, #7]	@ zero_extendqisi2
 3064 003a 012B     		cmp	r3, #1
 3065 003c 05D1     		bne	.L132
 806:..\..\..\lvgl\version_6.1.2\lvgl\src\lv_objx/lv_page.c ****         ancestor_design(scrl, mask, mode);
 3066              		.loc 3 806 0
 3067 003e 054B     		ldr	r3, .L133
 3068 0040 1B68     		ldr	r3, [r3]
 3069 0042 FA79     		ldrb	r2, [r7, #7]	@ zero_extendqisi2
 3070 0044 B968     		ldr	r1, [r7, #8]
 3071 0046 F868     		ldr	r0, [r7, #12]
 3072 0048 9847     		blx	r3
 3073              	.L132:
 807:..\..\..\lvgl\version_6.1.2\lvgl\src\lv_objx/lv_page.c ****     }
 808:..\..\..\lvgl\version_6.1.2\lvgl\src\lv_objx/lv_page.c **** 
 809:..\..\..\lvgl\version_6.1.2\lvgl\src\lv_objx/lv_page.c ****     return true;
 3074              		.loc 3 809 0
 3075 004a 0123     		movs	r3, #1
 3076              	.L130:
 810:..\..\..\lvgl\version_6.1.2\lvgl\src\lv_objx/lv_page.c **** }
 3077              		.loc 3 810 0
 3078 004c 1846     		mov	r0, r3
 3079 004e 1037     		adds	r7, r7, #16
ARM GAS  C:\Users\tmj32\AppData\Local\Temp\ccFKuFvs.s 			page 77


 3080              		.cfi_def_cfa_offset 8
 3081 0050 BD46     		mov	sp, r7
 3082              		.cfi_def_cfa_register 13
 3083              		@ sp needed
 3084 0052 80BD     		pop	{r7, pc}
 3085              	.L134:
 3086              		.align	2
 3087              	.L133:
 3088 0054 00000000 		.word	ancestor_design
 3089              		.cfi_endproc
 3090              	.LFE70:
 3091              		.size	lv_scrl_design, .-lv_scrl_design
 3092              		.section	.rodata
 3093              		.align	2
 3094              	.LC0:
 3095 0000 6C765F70 		.ascii	"lv_page\000"
 3095      61676500 
 3096              		.section	.text.lv_page_signal,"ax",%progbits
 3097              		.align	2
 3098              		.thumb
 3099              		.thumb_func
 3100              		.type	lv_page_signal, %function
 3101              	lv_page_signal:
 3102              	.LFB71:
 811:..\..\..\lvgl\version_6.1.2\lvgl\src\lv_objx/lv_page.c **** 
 812:..\..\..\lvgl\version_6.1.2\lvgl\src\lv_objx/lv_page.c **** /**
 813:..\..\..\lvgl\version_6.1.2\lvgl\src\lv_objx/lv_page.c ****  * Signal function of the page
 814:..\..\..\lvgl\version_6.1.2\lvgl\src\lv_objx/lv_page.c ****  * @param page pointer to a page object
 815:..\..\..\lvgl\version_6.1.2\lvgl\src\lv_objx/lv_page.c ****  * @param sign a signal type from lv_signal_t enum
 816:..\..\..\lvgl\version_6.1.2\lvgl\src\lv_objx/lv_page.c ****  * @param param pointer to a signal specific variable
 817:..\..\..\lvgl\version_6.1.2\lvgl\src\lv_objx/lv_page.c ****  * @return LV_RES_OK: the object is not deleted in the function; LV_RES_INV: the object is deleted
 818:..\..\..\lvgl\version_6.1.2\lvgl\src\lv_objx/lv_page.c ****  */
 819:..\..\..\lvgl\version_6.1.2\lvgl\src\lv_objx/lv_page.c **** static lv_res_t lv_page_signal(lv_obj_t * page, lv_signal_t sign, void * param)
 820:..\..\..\lvgl\version_6.1.2\lvgl\src\lv_objx/lv_page.c **** {
 3103              		.loc 3 820 0
 3104              		.cfi_startproc
 3105              		@ args = 0, pretend = 0, frame = 56
 3106              		@ frame_needed = 1, uses_anonymous_args = 0
 3107 0000 90B5     		push	{r4, r7, lr}
 3108              		.cfi_def_cfa_offset 12
 3109              		.cfi_offset 4, -12
 3110              		.cfi_offset 7, -8
 3111              		.cfi_offset 14, -4
 3112 0002 8FB0     		sub	sp, sp, #60
 3113              		.cfi_def_cfa_offset 72
 3114 0004 00AF     		add	r7, sp, #0
 3115              		.cfi_def_cfa_register 7
 3116 0006 F860     		str	r0, [r7, #12]
 3117 0008 0B46     		mov	r3, r1
 3118 000a 7A60     		str	r2, [r7, #4]
 3119 000c FB72     		strb	r3, [r7, #11]
 821:..\..\..\lvgl\version_6.1.2\lvgl\src\lv_objx/lv_page.c ****     lv_res_t res;
 822:..\..\..\lvgl\version_6.1.2\lvgl\src\lv_objx/lv_page.c **** 
 823:..\..\..\lvgl\version_6.1.2\lvgl\src\lv_objx/lv_page.c ****     /* Include the ancient signal function */
 824:..\..\..\lvgl\version_6.1.2\lvgl\src\lv_objx/lv_page.c ****     res = ancestor_signal(page, sign, param);
 3120              		.loc 3 824 0
 3121 000e AA4B     		ldr	r3, .L175
ARM GAS  C:\Users\tmj32\AppData\Local\Temp\ccFKuFvs.s 			page 78


 3122 0010 1B68     		ldr	r3, [r3]
 3123 0012 F97A     		ldrb	r1, [r7, #11]	@ zero_extendqisi2
 3124 0014 7A68     		ldr	r2, [r7, #4]
 3125 0016 F868     		ldr	r0, [r7, #12]
 3126 0018 9847     		blx	r3
 3127 001a 0346     		mov	r3, r0
 3128 001c 87F83330 		strb	r3, [r7, #51]
 825:..\..\..\lvgl\version_6.1.2\lvgl\src\lv_objx/lv_page.c ****     if(res != LV_RES_OK) return res;
 3129              		.loc 3 825 0
 3130 0020 97F83330 		ldrb	r3, [r7, #51]	@ zero_extendqisi2
 3131 0024 012B     		cmp	r3, #1
 3132 0026 02D0     		beq	.L136
 3133              		.loc 3 825 0 is_stmt 0 discriminator 1
 3134 0028 97F83330 		ldrb	r3, [r7, #51]	@ zero_extendqisi2
 3135 002c 00E2     		b	.L137
 3136              	.L136:
 826:..\..\..\lvgl\version_6.1.2\lvgl\src\lv_objx/lv_page.c ****     if(sign == LV_SIGNAL_GET_TYPE) return lv_obj_handle_get_type_signal(param, LV_OBJX_NAME);
 3137              		.loc 3 826 0 is_stmt 1
 3138 002e FB7A     		ldrb	r3, [r7, #11]	@ zero_extendqisi2
 3139 0030 072B     		cmp	r3, #7
 3140 0032 05D1     		bne	.L138
 3141              		.loc 3 826 0 is_stmt 0 discriminator 1
 3142 0034 A149     		ldr	r1, .L175+4
 3143 0036 7868     		ldr	r0, [r7, #4]
 3144 0038 FFF7FEFF 		bl	lv_obj_handle_get_type_signal
 3145 003c 0346     		mov	r3, r0
 3146 003e F7E1     		b	.L137
 3147              	.L138:
 827:..\..\..\lvgl\version_6.1.2\lvgl\src\lv_objx/lv_page.c **** 
 828:..\..\..\lvgl\version_6.1.2\lvgl\src\lv_objx/lv_page.c ****     lv_page_ext_t * ext = lv_obj_get_ext_attr(page);
 3148              		.loc 3 828 0 is_stmt 1
 3149 0040 F868     		ldr	r0, [r7, #12]
 3150 0042 FFF7FEFF 		bl	lv_obj_get_ext_attr
 3151 0046 F862     		str	r0, [r7, #44]
 829:..\..\..\lvgl\version_6.1.2\lvgl\src\lv_objx/lv_page.c ****     lv_obj_t * child;
 830:..\..\..\lvgl\version_6.1.2\lvgl\src\lv_objx/lv_page.c ****     if(sign == LV_SIGNAL_CHILD_CHG) { /*Automatically move children to the scrollable object*/
 3152              		.loc 3 830 0
 3153 0048 FB7A     		ldrb	r3, [r7, #11]	@ zero_extendqisi2
 3154 004a 012B     		cmp	r3, #1
 3155 004c 40F0D680 		bne	.L139
 3156              	.LBB9:
 831:..\..\..\lvgl\version_6.1.2\lvgl\src\lv_objx/lv_page.c ****         if(ext->scrl == NULL) return LV_RES_OK;
 3157              		.loc 3 831 0
 3158 0050 FB6A     		ldr	r3, [r7, #44]
 3159 0052 5B68     		ldr	r3, [r3, #4]
 3160 0054 002B     		cmp	r3, #0
 3161 0056 01D1     		bne	.L140
 3162              		.loc 3 831 0 is_stmt 0 discriminator 1
 3163 0058 0123     		movs	r3, #1
 3164 005a E9E1     		b	.L137
 3165              	.L140:
 832:..\..\..\lvgl\version_6.1.2\lvgl\src\lv_objx/lv_page.c ****         const lv_style_t * style_bg = lv_page_get_style(page, LV_PAGE_STYLE_BG);
 3166              		.loc 3 832 0 is_stmt 1
 3167 005c 0021     		movs	r1, #0
 3168 005e F868     		ldr	r0, [r7, #12]
 3169 0060 FFF7FEFF 		bl	lv_page_get_style
 3170 0064 B862     		str	r0, [r7, #40]
ARM GAS  C:\Users\tmj32\AppData\Local\Temp\ccFKuFvs.s 			page 79


 833:..\..\..\lvgl\version_6.1.2\lvgl\src\lv_objx/lv_page.c ****         const lv_style_t * style_scrl = lv_page_get_style(page, LV_PAGE_STYLE_SCRL);
 3171              		.loc 3 833 0
 3172 0066 0121     		movs	r1, #1
 3173 0068 F868     		ldr	r0, [r7, #12]
 3174 006a FFF7FEFF 		bl	lv_page_get_style
 3175 006e 7862     		str	r0, [r7, #36]
 834:..\..\..\lvgl\version_6.1.2\lvgl\src\lv_objx/lv_page.c ****         lv_fit_t fit_left        = lv_page_get_scrl_fit_left(page);
 3176              		.loc 3 834 0
 3177 0070 F868     		ldr	r0, [r7, #12]
 3178 0072 FFF7FEFF 		bl	lv_page_get_scrl_fit_left
 3179 0076 0346     		mov	r3, r0
 3180 0078 87F82330 		strb	r3, [r7, #35]
 835:..\..\..\lvgl\version_6.1.2\lvgl\src\lv_objx/lv_page.c ****         lv_fit_t fit_right        = lv_page_get_scrl_fit_right(page);
 3181              		.loc 3 835 0
 3182 007c F868     		ldr	r0, [r7, #12]
 3183 007e FFF7FEFF 		bl	lv_page_get_scrl_fit_right
 3184 0082 0346     		mov	r3, r0
 3185 0084 87F82230 		strb	r3, [r7, #34]
 836:..\..\..\lvgl\version_6.1.2\lvgl\src\lv_objx/lv_page.c ****         lv_fit_t fit_top         = lv_page_get_scrl_fit_top(page);
 3186              		.loc 3 836 0
 3187 0088 F868     		ldr	r0, [r7, #12]
 3188 008a FFF7FEFF 		bl	lv_page_get_scrl_fit_top
 3189 008e 0346     		mov	r3, r0
 3190 0090 87F82130 		strb	r3, [r7, #33]
 837:..\..\..\lvgl\version_6.1.2\lvgl\src\lv_objx/lv_page.c ****         child                    = lv_obj_get_child(page, NULL);
 3191              		.loc 3 837 0
 3192 0094 0021     		movs	r1, #0
 3193 0096 F868     		ldr	r0, [r7, #12]
 3194 0098 FFF7FEFF 		bl	lv_obj_get_child
 3195 009c 7863     		str	r0, [r7, #52]
 838:..\..\..\lvgl\version_6.1.2\lvgl\src\lv_objx/lv_page.c ****         while(child != NULL) {
 3196              		.loc 3 838 0
 3197 009e A8E0     		b	.L141
 3198              	.L149:
 839:..\..\..\lvgl\version_6.1.2\lvgl\src\lv_objx/lv_page.c ****             if(lv_obj_is_protected(child, LV_PROTECT_PARENT) == false) {
 3199              		.loc 3 839 0
 3200 00a0 0221     		movs	r1, #2
 3201 00a2 786B     		ldr	r0, [r7, #52]
 3202 00a4 FFF7FEFF 		bl	lv_obj_is_protected
 3203 00a8 0346     		mov	r3, r0
 3204 00aa 83F00103 		eor	r3, r3, #1
 3205 00ae DBB2     		uxtb	r3, r3
 3206 00b0 002B     		cmp	r3, #0
 3207 00b2 00F09980 		beq	.L142
 3208              	.LBB10:
 840:..\..\..\lvgl\version_6.1.2\lvgl\src\lv_objx/lv_page.c ****                 lv_obj_t * tmp = child;
 3209              		.loc 3 840 0
 3210 00b6 7B6B     		ldr	r3, [r7, #52]
 3211 00b8 FB61     		str	r3, [r7, #28]
 841:..\..\..\lvgl\version_6.1.2\lvgl\src\lv_objx/lv_page.c ****                 child          = lv_obj_get_child(page, child); /*Get the next child before move th
 3212              		.loc 3 841 0
 3213 00ba 796B     		ldr	r1, [r7, #52]
 3214 00bc F868     		ldr	r0, [r7, #12]
 3215 00be FFF7FEFF 		bl	lv_obj_get_child
 3216 00c2 7863     		str	r0, [r7, #52]
 842:..\..\..\lvgl\version_6.1.2\lvgl\src\lv_objx/lv_page.c **** 
 843:..\..\..\lvgl\version_6.1.2\lvgl\src\lv_objx/lv_page.c ****                 /* Reposition the child to take padding into account (Only if it's on (0;0) or (wid
ARM GAS  C:\Users\tmj32\AppData\Local\Temp\ccFKuFvs.s 			page 80


 844:..\..\..\lvgl\version_6.1.2\lvgl\src\lv_objx/lv_page.c ****                  * It's required to keep new the object on the same coordinate if FIT is enabled.*/
 845:..\..\..\lvgl\version_6.1.2\lvgl\src\lv_objx/lv_page.c ****                 if((tmp->coords.x1 == page->coords.x1) && (fit_left == LV_FIT_TIGHT || fit_left == 
 3217              		.loc 3 845 0
 3218 00c4 FB69     		ldr	r3, [r7, #28]
 3219 00c6 B3F91020 		ldrsh	r2, [r3, #16]
 3220 00ca FB68     		ldr	r3, [r7, #12]
 3221 00cc B3F91030 		ldrsh	r3, [r3, #16]
 3222 00d0 9A42     		cmp	r2, r3
 3223 00d2 22D1     		bne	.L143
 3224              		.loc 3 845 0 is_stmt 0 discriminator 1
 3225 00d4 97F82330 		ldrb	r3, [r7, #35]	@ zero_extendqisi2
 3226 00d8 012B     		cmp	r3, #1
 3227 00da 03D0     		beq	.L144
 3228              		.loc 3 845 0 discriminator 2
 3229 00dc 97F82330 		ldrb	r3, [r7, #35]	@ zero_extendqisi2
 3230 00e0 032B     		cmp	r3, #3
 3231 00e2 1AD1     		bne	.L143
 3232              	.L144:
 846:..\..\..\lvgl\version_6.1.2\lvgl\src\lv_objx/lv_page.c ****                     tmp->coords.x1 += style_scrl->body.padding.left;
 3233              		.loc 3 846 0 is_stmt 1
 3234 00e4 FB69     		ldr	r3, [r7, #28]
 3235 00e6 B3F91030 		ldrsh	r3, [r3, #16]
 3236 00ea 9AB2     		uxth	r2, r3
 3237 00ec 7B6A     		ldr	r3, [r7, #36]
 3238 00ee B3F92430 		ldrsh	r3, [r3, #36]
 3239 00f2 9BB2     		uxth	r3, r3
 3240 00f4 1344     		add	r3, r3, r2
 3241 00f6 9BB2     		uxth	r3, r3
 3242 00f8 1AB2     		sxth	r2, r3
 3243 00fa FB69     		ldr	r3, [r7, #28]
 3244 00fc 1A82     		strh	r2, [r3, #16]	@ movhi
 847:..\..\..\lvgl\version_6.1.2\lvgl\src\lv_objx/lv_page.c ****                     tmp->coords.x2 += style_scrl->body.padding.left;
 3245              		.loc 3 847 0
 3246 00fe FB69     		ldr	r3, [r7, #28]
 3247 0100 B3F91430 		ldrsh	r3, [r3, #20]
 3248 0104 9AB2     		uxth	r2, r3
 3249 0106 7B6A     		ldr	r3, [r7, #36]
 3250 0108 B3F92430 		ldrsh	r3, [r3, #36]
 3251 010c 9BB2     		uxth	r3, r3
 3252 010e 1344     		add	r3, r3, r2
 3253 0110 9BB2     		uxth	r3, r3
 3254 0112 1AB2     		sxth	r2, r3
 3255 0114 FB69     		ldr	r3, [r7, #28]
 3256 0116 9A82     		strh	r2, [r3, #20]	@ movhi
 3257 0118 35E0     		b	.L145
 3258              	.L143:
 848:..\..\..\lvgl\version_6.1.2\lvgl\src\lv_objx/lv_page.c ****                 }
 849:..\..\..\lvgl\version_6.1.2\lvgl\src\lv_objx/lv_page.c ****                 else if((tmp->coords.x2 == page->coords.x2) && (fit_right == LV_FIT_TIGHT || fit_ri
 3259              		.loc 3 849 0
 3260 011a FB69     		ldr	r3, [r7, #28]
 3261 011c B3F91420 		ldrsh	r2, [r3, #20]
 3262 0120 FB68     		ldr	r3, [r7, #12]
 3263 0122 B3F91430 		ldrsh	r3, [r3, #20]
 3264 0126 9A42     		cmp	r2, r3
 3265 0128 2DD1     		bne	.L145
 3266              		.loc 3 849 0 is_stmt 0 discriminator 1
 3267 012a 97F82230 		ldrb	r3, [r7, #34]	@ zero_extendqisi2
ARM GAS  C:\Users\tmj32\AppData\Local\Temp\ccFKuFvs.s 			page 81


 3268 012e 012B     		cmp	r3, #1
 3269 0130 03D0     		beq	.L146
 3270              		.loc 3 849 0 discriminator 2
 3271 0132 97F82230 		ldrb	r3, [r7, #34]	@ zero_extendqisi2
 3272 0136 032B     		cmp	r3, #3
 3273 0138 25D1     		bne	.L145
 3274              	.L146:
 850:..\..\..\lvgl\version_6.1.2\lvgl\src\lv_objx/lv_page.c ****                     tmp->coords.x1 -= style_scrl->body.padding.right + style_bg->body.padding.right
 3275              		.loc 3 850 0 is_stmt 1
 3276 013a FB69     		ldr	r3, [r7, #28]
 3277 013c B3F91030 		ldrsh	r3, [r3, #16]
 3278 0140 9AB2     		uxth	r2, r3
 3279 0142 7B6A     		ldr	r3, [r7, #36]
 3280 0144 B3F92630 		ldrsh	r3, [r3, #38]
 3281 0148 99B2     		uxth	r1, r3
 3282 014a BB6A     		ldr	r3, [r7, #40]
 3283 014c B3F92630 		ldrsh	r3, [r3, #38]
 3284 0150 9BB2     		uxth	r3, r3
 3285 0152 0B44     		add	r3, r3, r1
 3286 0154 9BB2     		uxth	r3, r3
 3287 0156 D31A     		subs	r3, r2, r3
 3288 0158 9BB2     		uxth	r3, r3
 3289 015a 1AB2     		sxth	r2, r3
 3290 015c FB69     		ldr	r3, [r7, #28]
 3291 015e 1A82     		strh	r2, [r3, #16]	@ movhi
 851:..\..\..\lvgl\version_6.1.2\lvgl\src\lv_objx/lv_page.c ****                     tmp->coords.x2 -= style_scrl->body.padding.right + style_bg->body.padding.right
 3292              		.loc 3 851 0
 3293 0160 FB69     		ldr	r3, [r7, #28]
 3294 0162 B3F91430 		ldrsh	r3, [r3, #20]
 3295 0166 9AB2     		uxth	r2, r3
 3296 0168 7B6A     		ldr	r3, [r7, #36]
 3297 016a B3F92630 		ldrsh	r3, [r3, #38]
 3298 016e 99B2     		uxth	r1, r3
 3299 0170 BB6A     		ldr	r3, [r7, #40]
 3300 0172 B3F92630 		ldrsh	r3, [r3, #38]
 3301 0176 9BB2     		uxth	r3, r3
 3302 0178 0B44     		add	r3, r3, r1
 3303 017a 9BB2     		uxth	r3, r3
 3304 017c D31A     		subs	r3, r2, r3
 3305 017e 9BB2     		uxth	r3, r3
 3306 0180 1AB2     		sxth	r2, r3
 3307 0182 FB69     		ldr	r3, [r7, #28]
 3308 0184 9A82     		strh	r2, [r3, #20]	@ movhi
 3309              	.L145:
 852:..\..\..\lvgl\version_6.1.2\lvgl\src\lv_objx/lv_page.c ****                 }
 853:..\..\..\lvgl\version_6.1.2\lvgl\src\lv_objx/lv_page.c ****                 if((tmp->coords.y1 == page->coords.y1) && (fit_top == LV_FIT_TIGHT || fit_top == LV
 3310              		.loc 3 853 0
 3311 0186 FB69     		ldr	r3, [r7, #28]
 3312 0188 B3F91220 		ldrsh	r2, [r3, #18]
 3313 018c FB68     		ldr	r3, [r7, #12]
 3314 018e B3F91230 		ldrsh	r3, [r3, #18]
 3315 0192 9A42     		cmp	r2, r3
 3316 0194 21D1     		bne	.L147
 3317              		.loc 3 853 0 is_stmt 0 discriminator 1
 3318 0196 97F82130 		ldrb	r3, [r7, #33]	@ zero_extendqisi2
 3319 019a 012B     		cmp	r3, #1
 3320 019c 03D0     		beq	.L148
ARM GAS  C:\Users\tmj32\AppData\Local\Temp\ccFKuFvs.s 			page 82


 3321              		.loc 3 853 0 discriminator 2
 3322 019e 97F82130 		ldrb	r3, [r7, #33]	@ zero_extendqisi2
 3323 01a2 032B     		cmp	r3, #3
 3324 01a4 19D1     		bne	.L147
 3325              	.L148:
 854:..\..\..\lvgl\version_6.1.2\lvgl\src\lv_objx/lv_page.c ****                     tmp->coords.y1 += style_scrl->body.padding.top;
 3326              		.loc 3 854 0 is_stmt 1
 3327 01a6 FB69     		ldr	r3, [r7, #28]
 3328 01a8 B3F91230 		ldrsh	r3, [r3, #18]
 3329 01ac 9AB2     		uxth	r2, r3
 3330 01ae 7B6A     		ldr	r3, [r7, #36]
 3331 01b0 B3F92030 		ldrsh	r3, [r3, #32]
 3332 01b4 9BB2     		uxth	r3, r3
 3333 01b6 1344     		add	r3, r3, r2
 3334 01b8 9BB2     		uxth	r3, r3
 3335 01ba 1AB2     		sxth	r2, r3
 3336 01bc FB69     		ldr	r3, [r7, #28]
 3337 01be 5A82     		strh	r2, [r3, #18]	@ movhi
 855:..\..\..\lvgl\version_6.1.2\lvgl\src\lv_objx/lv_page.c ****                     tmp->coords.y2 += style_scrl->body.padding.top;
 3338              		.loc 3 855 0
 3339 01c0 FB69     		ldr	r3, [r7, #28]
 3340 01c2 B3F91630 		ldrsh	r3, [r3, #22]
 3341 01c6 9AB2     		uxth	r2, r3
 3342 01c8 7B6A     		ldr	r3, [r7, #36]
 3343 01ca B3F92030 		ldrsh	r3, [r3, #32]
 3344 01ce 9BB2     		uxth	r3, r3
 3345 01d0 1344     		add	r3, r3, r2
 3346 01d2 9BB2     		uxth	r3, r3
 3347 01d4 1AB2     		sxth	r2, r3
 3348 01d6 FB69     		ldr	r3, [r7, #28]
 3349 01d8 DA82     		strh	r2, [r3, #22]	@ movhi
 3350              	.L147:
 856:..\..\..\lvgl\version_6.1.2\lvgl\src\lv_objx/lv_page.c ****                 }
 857:..\..\..\lvgl\version_6.1.2\lvgl\src\lv_objx/lv_page.c ****                 lv_obj_set_parent(tmp, ext->scrl);
 3351              		.loc 3 857 0
 3352 01da FB6A     		ldr	r3, [r7, #44]
 3353 01dc 5B68     		ldr	r3, [r3, #4]
 3354 01de 1946     		mov	r1, r3
 3355 01e0 F869     		ldr	r0, [r7, #28]
 3356 01e2 FFF7FEFF 		bl	lv_obj_set_parent
 3357              	.LBE10:
 3358 01e6 04E0     		b	.L141
 3359              	.L142:
 858:..\..\..\lvgl\version_6.1.2\lvgl\src\lv_objx/lv_page.c ****             } else {
 859:..\..\..\lvgl\version_6.1.2\lvgl\src\lv_objx/lv_page.c ****                 child = lv_obj_get_child(page, child);
 3360              		.loc 3 859 0
 3361 01e8 796B     		ldr	r1, [r7, #52]
 3362 01ea F868     		ldr	r0, [r7, #12]
 3363 01ec FFF7FEFF 		bl	lv_obj_get_child
 3364 01f0 7863     		str	r0, [r7, #52]
 3365              	.L141:
 838:..\..\..\lvgl\version_6.1.2\lvgl\src\lv_objx/lv_page.c ****             if(lv_obj_is_protected(child, LV_PROTECT_PARENT) == false) {
 3366              		.loc 3 838 0
 3367 01f2 7B6B     		ldr	r3, [r7, #52]
 3368 01f4 002B     		cmp	r3, #0
 3369 01f6 7FF453AF 		bne	.L149
 3370 01fa 17E1     		b	.L150
ARM GAS  C:\Users\tmj32\AppData\Local\Temp\ccFKuFvs.s 			page 83


 3371              	.L139:
 3372              	.LBE9:
 860:..\..\..\lvgl\version_6.1.2\lvgl\src\lv_objx/lv_page.c ****             }
 861:..\..\..\lvgl\version_6.1.2\lvgl\src\lv_objx/lv_page.c ****         }
 862:..\..\..\lvgl\version_6.1.2\lvgl\src\lv_objx/lv_page.c ****     } else if(sign == LV_SIGNAL_STYLE_CHG) {
 3373              		.loc 3 862 0
 3374 01fc FB7A     		ldrb	r3, [r7, #11]	@ zero_extendqisi2
 3375 01fe 042B     		cmp	r3, #4
 3376 0200 1ED1     		bne	.L151
 863:..\..\..\lvgl\version_6.1.2\lvgl\src\lv_objx/lv_page.c ****         ext->scrl->signal_cb(ext->scrl, LV_SIGNAL_CORD_CHG, &ext->scrl->coords);
 3377              		.loc 3 863 0
 3378 0202 FB6A     		ldr	r3, [r7, #44]
 3379 0204 5B68     		ldr	r3, [r3, #4]
 3380 0206 DB69     		ldr	r3, [r3, #28]
 3381 0208 FA6A     		ldr	r2, [r7, #44]
 3382 020a 5068     		ldr	r0, [r2, #4]
 3383 020c FA6A     		ldr	r2, [r7, #44]
 3384 020e 5268     		ldr	r2, [r2, #4]
 3385 0210 1032     		adds	r2, r2, #16
 3386 0212 0221     		movs	r1, #2
 3387 0214 9847     		blx	r3
 864:..\..\..\lvgl\version_6.1.2\lvgl\src\lv_objx/lv_page.c **** 
 865:..\..\..\lvgl\version_6.1.2\lvgl\src\lv_objx/lv_page.c ****         /*The scrollbars are important only if they are visible now*/
 866:..\..\..\lvgl\version_6.1.2\lvgl\src\lv_objx/lv_page.c ****         if(ext->sb.hor_draw || ext->sb.ver_draw) lv_page_sb_refresh(page);
 3388              		.loc 3 866 0
 3389 0216 FB6A     		ldr	r3, [r7, #44]
 3390 0218 1B7F     		ldrb	r3, [r3, #28]	@ zero_extendqisi2
 3391 021a 03F00103 		and	r3, r3, #1
 3392 021e DBB2     		uxtb	r3, r3
 3393 0220 002B     		cmp	r3, #0
 3394 0222 06D1     		bne	.L152
 3395              		.loc 3 866 0 is_stmt 0 discriminator 2
 3396 0224 FB6A     		ldr	r3, [r7, #44]
 3397 0226 1B7F     		ldrb	r3, [r3, #28]	@ zero_extendqisi2
 3398 0228 03F00203 		and	r3, r3, #2
 3399 022c DBB2     		uxtb	r3, r3
 3400 022e 002B     		cmp	r3, #0
 3401 0230 02D0     		beq	.L153
 3402              	.L152:
 3403              		.loc 3 866 0 discriminator 3
 3404 0232 F868     		ldr	r0, [r7, #12]
 3405 0234 FFF7FEFF 		bl	lv_page_sb_refresh
 3406              	.L153:
 867:..\..\..\lvgl\version_6.1.2\lvgl\src\lv_objx/lv_page.c **** 
 868:..\..\..\lvgl\version_6.1.2\lvgl\src\lv_objx/lv_page.c ****         /*Refresh the ext. size because the scrollbars might be positioned out of the page*/
 869:..\..\..\lvgl\version_6.1.2\lvgl\src\lv_objx/lv_page.c ****         lv_obj_refresh_ext_draw_pad(page);
 3407              		.loc 3 869 0 is_stmt 1
 3408 0238 F868     		ldr	r0, [r7, #12]
 3409 023a FFF7FEFF 		bl	lv_obj_refresh_ext_draw_pad
 3410 023e F5E0     		b	.L150
 3411              	.L151:
 870:..\..\..\lvgl\version_6.1.2\lvgl\src\lv_objx/lv_page.c ****     } else if(sign == LV_SIGNAL_CORD_CHG) {
 3412              		.loc 3 870 0
 3413 0240 FB7A     		ldrb	r3, [r7, #11]	@ zero_extendqisi2
 3414 0242 022B     		cmp	r3, #2
 3415 0244 3CD1     		bne	.L154
 871:..\..\..\lvgl\version_6.1.2\lvgl\src\lv_objx/lv_page.c ****         /*Refresh the scrollbar and notify the scrl if the size is changed*/
ARM GAS  C:\Users\tmj32\AppData\Local\Temp\ccFKuFvs.s 			page 84


 872:..\..\..\lvgl\version_6.1.2\lvgl\src\lv_objx/lv_page.c ****         if(ext->scrl != NULL && (lv_obj_get_width(page) != lv_area_get_width(param) ||
 3416              		.loc 3 872 0
 3417 0246 FB6A     		ldr	r3, [r7, #44]
 3418 0248 5B68     		ldr	r3, [r3, #4]
 3419 024a 002B     		cmp	r3, #0
 3420 024c 00F0EE80 		beq	.L150
 3421              		.loc 3 872 0 is_stmt 0 discriminator 1
 3422 0250 F868     		ldr	r0, [r7, #12]
 3423 0252 FFF7FEFF 		bl	lv_obj_get_width
 3424 0256 0346     		mov	r3, r0
 3425 0258 1C46     		mov	r4, r3
 3426 025a 7868     		ldr	r0, [r7, #4]
 3427 025c FFF7FEFF 		bl	lv_area_get_width
 3428 0260 0346     		mov	r3, r0
 3429 0262 9C42     		cmp	r4, r3
 3430 0264 0BD1     		bne	.L156
 873:..\..\..\lvgl\version_6.1.2\lvgl\src\lv_objx/lv_page.c ****                                  lv_obj_get_height(page) != lv_area_get_height(param))) {
 3431              		.loc 3 873 0 is_stmt 1 discriminator 2
 3432 0266 F868     		ldr	r0, [r7, #12]
 3433 0268 FFF7FEFF 		bl	lv_obj_get_height
 3434 026c 0346     		mov	r3, r0
 3435 026e 1C46     		mov	r4, r3
 3436 0270 7868     		ldr	r0, [r7, #4]
 3437 0272 FFF7FEFF 		bl	lv_area_get_height
 3438 0276 0346     		mov	r3, r0
 872:..\..\..\lvgl\version_6.1.2\lvgl\src\lv_objx/lv_page.c ****                                  lv_obj_get_height(page) != lv_area_get_height(param))) {
 3439              		.loc 3 872 0 discriminator 2
 3440 0278 9C42     		cmp	r4, r3
 3441 027a 00F0D780 		beq	.L150
 3442              	.L156:
 874:..\..\..\lvgl\version_6.1.2\lvgl\src\lv_objx/lv_page.c ****             /*If no hor_fit enabled set the scrollable's width to the page's width*/
 875:..\..\..\lvgl\version_6.1.2\lvgl\src\lv_objx/lv_page.c ****             ext->scrl->signal_cb(ext->scrl, LV_SIGNAL_CORD_CHG, &ext->scrl->coords);
 3443              		.loc 3 875 0
 3444 027e FB6A     		ldr	r3, [r7, #44]
 3445 0280 5B68     		ldr	r3, [r3, #4]
 3446 0282 DB69     		ldr	r3, [r3, #28]
 3447 0284 FA6A     		ldr	r2, [r7, #44]
 3448 0286 5068     		ldr	r0, [r2, #4]
 3449 0288 FA6A     		ldr	r2, [r7, #44]
 3450 028a 5268     		ldr	r2, [r2, #4]
 3451 028c 1032     		adds	r2, r2, #16
 3452 028e 0221     		movs	r1, #2
 3453 0290 9847     		blx	r3
 876:..\..\..\lvgl\version_6.1.2\lvgl\src\lv_objx/lv_page.c **** 
 877:..\..\..\lvgl\version_6.1.2\lvgl\src\lv_objx/lv_page.c ****             /*The scrollbars are important only if they are visible now*/
 878:..\..\..\lvgl\version_6.1.2\lvgl\src\lv_objx/lv_page.c ****             if(ext->sb.hor_draw || ext->sb.ver_draw) lv_page_sb_refresh(page);
 3454              		.loc 3 878 0
 3455 0292 FB6A     		ldr	r3, [r7, #44]
 3456 0294 1B7F     		ldrb	r3, [r3, #28]	@ zero_extendqisi2
 3457 0296 03F00103 		and	r3, r3, #1
 3458 029a DBB2     		uxtb	r3, r3
 3459 029c 002B     		cmp	r3, #0
 3460 029e 07D1     		bne	.L157
 3461              		.loc 3 878 0 is_stmt 0 discriminator 2
 3462 02a0 FB6A     		ldr	r3, [r7, #44]
 3463 02a2 1B7F     		ldrb	r3, [r3, #28]	@ zero_extendqisi2
 3464 02a4 03F00203 		and	r3, r3, #2
ARM GAS  C:\Users\tmj32\AppData\Local\Temp\ccFKuFvs.s 			page 85


 3465 02a8 DBB2     		uxtb	r3, r3
 3466 02aa 002B     		cmp	r3, #0
 3467 02ac 00F0BE80 		beq	.L150
 3468              	.L157:
 3469              		.loc 3 878 0 discriminator 3
 3470 02b0 F868     		ldr	r0, [r7, #12]
 3471 02b2 FFF7FEFF 		bl	lv_page_sb_refresh
 3472 02b6 B9E0     		b	.L150
 3473              	.L176:
 3474              		.align	2
 3475              	.L175:
 3476 02b8 04000000 		.word	ancestor_signal
 3477 02bc 00000000 		.word	.LC0
 3478              	.L154:
 879:..\..\..\lvgl\version_6.1.2\lvgl\src\lv_objx/lv_page.c ****         }
 880:..\..\..\lvgl\version_6.1.2\lvgl\src\lv_objx/lv_page.c ****     } else if(sign == LV_SIGNAL_REFR_EXT_DRAW_PAD) {
 3479              		.loc 3 880 0 is_stmt 1
 3480 02c0 FB7A     		ldrb	r3, [r7, #11]	@ zero_extendqisi2
 3481 02c2 062B     		cmp	r3, #6
 3482 02c4 2BD1     		bne	.L158
 881:..\..\..\lvgl\version_6.1.2\lvgl\src\lv_objx/lv_page.c ****         /*Ensure ext. size for the scrollbars if they are out of the page*/
 882:..\..\..\lvgl\version_6.1.2\lvgl\src\lv_objx/lv_page.c ****         if(page->ext_draw_pad < (-ext->sb.style->body.padding.right))
 3483              		.loc 3 882 0
 3484 02c6 FB68     		ldr	r3, [r7, #12]
 3485 02c8 B3F93030 		ldrsh	r3, [r3, #48]
 3486 02cc 1A46     		mov	r2, r3
 3487 02ce FB6A     		ldr	r3, [r7, #44]
 3488 02d0 9B68     		ldr	r3, [r3, #8]
 3489 02d2 B3F92630 		ldrsh	r3, [r3, #38]
 3490 02d6 5B42     		negs	r3, r3
 3491 02d8 9A42     		cmp	r2, r3
 3492 02da 09DA     		bge	.L159
 883:..\..\..\lvgl\version_6.1.2\lvgl\src\lv_objx/lv_page.c ****             page->ext_draw_pad = -ext->sb.style->body.padding.right;
 3493              		.loc 3 883 0
 3494 02dc FB6A     		ldr	r3, [r7, #44]
 3495 02de 9B68     		ldr	r3, [r3, #8]
 3496 02e0 B3F92630 		ldrsh	r3, [r3, #38]
 3497 02e4 9BB2     		uxth	r3, r3
 3498 02e6 5B42     		negs	r3, r3
 3499 02e8 9BB2     		uxth	r3, r3
 3500 02ea 1AB2     		sxth	r2, r3
 3501 02ec FB68     		ldr	r3, [r7, #12]
 3502 02ee 1A86     		strh	r2, [r3, #48]	@ movhi
 3503              	.L159:
 884:..\..\..\lvgl\version_6.1.2\lvgl\src\lv_objx/lv_page.c ****         if(page->ext_draw_pad < (-ext->sb.style->body.padding.bottom))
 3504              		.loc 3 884 0
 3505 02f0 FB68     		ldr	r3, [r7, #12]
 3506 02f2 B3F93030 		ldrsh	r3, [r3, #48]
 3507 02f6 1A46     		mov	r2, r3
 3508 02f8 FB6A     		ldr	r3, [r7, #44]
 3509 02fa 9B68     		ldr	r3, [r3, #8]
 3510 02fc B3F92230 		ldrsh	r3, [r3, #34]
 3511 0300 5B42     		negs	r3, r3
 3512 0302 9A42     		cmp	r2, r3
 3513 0304 80F29280 		bge	.L150
 885:..\..\..\lvgl\version_6.1.2\lvgl\src\lv_objx/lv_page.c ****             page->ext_draw_pad = -ext->sb.style->body.padding.bottom;
 3514              		.loc 3 885 0
ARM GAS  C:\Users\tmj32\AppData\Local\Temp\ccFKuFvs.s 			page 86


 3515 0308 FB6A     		ldr	r3, [r7, #44]
 3516 030a 9B68     		ldr	r3, [r3, #8]
 3517 030c B3F92230 		ldrsh	r3, [r3, #34]
 3518 0310 9BB2     		uxth	r3, r3
 3519 0312 5B42     		negs	r3, r3
 3520 0314 9BB2     		uxth	r3, r3
 3521 0316 1AB2     		sxth	r2, r3
 3522 0318 FB68     		ldr	r3, [r7, #12]
 3523 031a 1A86     		strh	r2, [r3, #48]	@ movhi
 3524 031c 86E0     		b	.L150
 3525              	.L158:
 886:..\..\..\lvgl\version_6.1.2\lvgl\src\lv_objx/lv_page.c ****     } else if(sign == LV_SIGNAL_CONTROL) {
 3526              		.loc 3 886 0
 3527 031e FB7A     		ldrb	r3, [r7, #11]	@ zero_extendqisi2
 3528 0320 122B     		cmp	r3, #18
 3529 0322 7BD1     		bne	.L161
 3530              	.LBB11:
 887:..\..\..\lvgl\version_6.1.2\lvgl\src\lv_objx/lv_page.c ****         uint32_t c = *((uint32_t *)param);
 3531              		.loc 3 887 0
 3532 0324 7B68     		ldr	r3, [r7, #4]
 3533 0326 1B68     		ldr	r3, [r3]
 3534 0328 BB61     		str	r3, [r7, #24]
 888:..\..\..\lvgl\version_6.1.2\lvgl\src\lv_objx/lv_page.c **** 
 889:..\..\..\lvgl\version_6.1.2\lvgl\src\lv_objx/lv_page.c ****         if(c == LV_KEY_DOWN) {
 3535              		.loc 3 889 0
 3536 032a BB69     		ldr	r3, [r7, #24]
 3537 032c 122B     		cmp	r3, #18
 3538 032e 0ED1     		bne	.L162
 890:..\..\..\lvgl\version_6.1.2\lvgl\src\lv_objx/lv_page.c ****             lv_page_scroll_ver(page, -lv_obj_get_height(page) / 4);
 3539              		.loc 3 890 0
 3540 0330 F868     		ldr	r0, [r7, #12]
 3541 0332 FFF7FEFF 		bl	lv_obj_get_height
 3542 0336 0346     		mov	r3, r0
 3543 0338 5B42     		negs	r3, r3
 3544 033a 002B     		cmp	r3, #0
 3545 033c 00DA     		bge	.L163
 3546 033e 0333     		adds	r3, r3, #3
 3547              	.L163:
 3548 0340 9B10     		asrs	r3, r3, #2
 3549 0342 1BB2     		sxth	r3, r3
 3550 0344 1946     		mov	r1, r3
 3551 0346 F868     		ldr	r0, [r7, #12]
 3552 0348 FFF7FEFF 		bl	lv_page_scroll_ver
 3553 034c 6EE0     		b	.L150
 3554              	.L162:
 891:..\..\..\lvgl\version_6.1.2\lvgl\src\lv_objx/lv_page.c ****         } else if(c == LV_KEY_UP) {
 3555              		.loc 3 891 0
 3556 034e BB69     		ldr	r3, [r7, #24]
 3557 0350 112B     		cmp	r3, #17
 3558 0352 0DD1     		bne	.L165
 892:..\..\..\lvgl\version_6.1.2\lvgl\src\lv_objx/lv_page.c ****             lv_page_scroll_ver(page, lv_obj_get_height(page) / 4);
 3559              		.loc 3 892 0
 3560 0354 F868     		ldr	r0, [r7, #12]
 3561 0356 FFF7FEFF 		bl	lv_obj_get_height
 3562 035a 0346     		mov	r3, r0
 3563 035c 002B     		cmp	r3, #0
 3564 035e 00DA     		bge	.L166
ARM GAS  C:\Users\tmj32\AppData\Local\Temp\ccFKuFvs.s 			page 87


 3565 0360 0333     		adds	r3, r3, #3
 3566              	.L166:
 3567 0362 9B10     		asrs	r3, r3, #2
 3568 0364 1BB2     		sxth	r3, r3
 3569 0366 1946     		mov	r1, r3
 3570 0368 F868     		ldr	r0, [r7, #12]
 3571 036a FFF7FEFF 		bl	lv_page_scroll_ver
 3572 036e 5DE0     		b	.L150
 3573              	.L165:
 893:..\..\..\lvgl\version_6.1.2\lvgl\src\lv_objx/lv_page.c ****         } else if(c == LV_KEY_RIGHT) {
 3574              		.loc 3 893 0
 3575 0370 BB69     		ldr	r3, [r7, #24]
 3576 0372 132B     		cmp	r3, #19
 3577 0374 28D1     		bne	.L167
 894:..\..\..\lvgl\version_6.1.2\lvgl\src\lv_objx/lv_page.c ****             /*If the page can't be scrolled horizontally because it's not wide enough then scroll i
 895:..\..\..\lvgl\version_6.1.2\lvgl\src\lv_objx/lv_page.c ****              * vertically*/
 896:..\..\..\lvgl\version_6.1.2\lvgl\src\lv_objx/lv_page.c ****             if(lv_page_get_scrl_width(page) <= lv_obj_get_width(page))
 3578              		.loc 3 896 0
 3579 0376 F868     		ldr	r0, [r7, #12]
 3580 0378 FFF7FEFF 		bl	lv_page_get_scrl_width
 3581 037c 0346     		mov	r3, r0
 3582 037e 1C46     		mov	r4, r3
 3583 0380 F868     		ldr	r0, [r7, #12]
 3584 0382 FFF7FEFF 		bl	lv_obj_get_width
 3585 0386 0346     		mov	r3, r0
 3586 0388 9C42     		cmp	r4, r3
 3587 038a 0EDC     		bgt	.L168
 897:..\..\..\lvgl\version_6.1.2\lvgl\src\lv_objx/lv_page.c ****                 lv_page_scroll_ver(page, -lv_obj_get_height(page) / 4);
 3588              		.loc 3 897 0
 3589 038c F868     		ldr	r0, [r7, #12]
 3590 038e FFF7FEFF 		bl	lv_obj_get_height
 3591 0392 0346     		mov	r3, r0
 3592 0394 5B42     		negs	r3, r3
 3593 0396 002B     		cmp	r3, #0
 3594 0398 00DA     		bge	.L169
 3595 039a 0333     		adds	r3, r3, #3
 3596              	.L169:
 3597 039c 9B10     		asrs	r3, r3, #2
 3598 039e 1BB2     		sxth	r3, r3
 3599 03a0 1946     		mov	r1, r3
 3600 03a2 F868     		ldr	r0, [r7, #12]
 3601 03a4 FFF7FEFF 		bl	lv_page_scroll_ver
 3602 03a8 40E0     		b	.L150
 3603              	.L168:
 898:..\..\..\lvgl\version_6.1.2\lvgl\src\lv_objx/lv_page.c ****             else
 899:..\..\..\lvgl\version_6.1.2\lvgl\src\lv_objx/lv_page.c ****                 lv_page_scroll_hor(page, -lv_obj_get_width(page) / 4);
 3604              		.loc 3 899 0
 3605 03aa F868     		ldr	r0, [r7, #12]
 3606 03ac FFF7FEFF 		bl	lv_obj_get_width
 3607 03b0 0346     		mov	r3, r0
 3608 03b2 5B42     		negs	r3, r3
 3609 03b4 002B     		cmp	r3, #0
 3610 03b6 00DA     		bge	.L171
 3611 03b8 0333     		adds	r3, r3, #3
 3612              	.L171:
 3613 03ba 9B10     		asrs	r3, r3, #2
 3614 03bc 1BB2     		sxth	r3, r3
ARM GAS  C:\Users\tmj32\AppData\Local\Temp\ccFKuFvs.s 			page 88


 3615 03be 1946     		mov	r1, r3
 3616 03c0 F868     		ldr	r0, [r7, #12]
 3617 03c2 FFF7FEFF 		bl	lv_page_scroll_hor
 3618 03c6 31E0     		b	.L150
 3619              	.L167:
 900:..\..\..\lvgl\version_6.1.2\lvgl\src\lv_objx/lv_page.c ****         } else if(c == LV_KEY_LEFT) {
 3620              		.loc 3 900 0
 3621 03c8 BB69     		ldr	r3, [r7, #24]
 3622 03ca 142B     		cmp	r3, #20
 3623 03cc 2ED1     		bne	.L150
 901:..\..\..\lvgl\version_6.1.2\lvgl\src\lv_objx/lv_page.c ****             /*If the page can't be scrolled horizontally because it's not wide enough then scroll i
 902:..\..\..\lvgl\version_6.1.2\lvgl\src\lv_objx/lv_page.c ****              * vertically*/
 903:..\..\..\lvgl\version_6.1.2\lvgl\src\lv_objx/lv_page.c ****             if(lv_page_get_scrl_width(page) <= lv_obj_get_width(page))
 3624              		.loc 3 903 0
 3625 03ce F868     		ldr	r0, [r7, #12]
 3626 03d0 FFF7FEFF 		bl	lv_page_get_scrl_width
 3627 03d4 0346     		mov	r3, r0
 3628 03d6 1C46     		mov	r4, r3
 3629 03d8 F868     		ldr	r0, [r7, #12]
 3630 03da FFF7FEFF 		bl	lv_obj_get_width
 3631 03de 0346     		mov	r3, r0
 3632 03e0 9C42     		cmp	r4, r3
 3633 03e2 0DDC     		bgt	.L172
 904:..\..\..\lvgl\version_6.1.2\lvgl\src\lv_objx/lv_page.c ****                 lv_page_scroll_ver(page, lv_obj_get_height(page) / 4);
 3634              		.loc 3 904 0
 3635 03e4 F868     		ldr	r0, [r7, #12]
 3636 03e6 FFF7FEFF 		bl	lv_obj_get_height
 3637 03ea 0346     		mov	r3, r0
 3638 03ec 002B     		cmp	r3, #0
 3639 03ee 00DA     		bge	.L173
 3640 03f0 0333     		adds	r3, r3, #3
 3641              	.L173:
 3642 03f2 9B10     		asrs	r3, r3, #2
 3643 03f4 1BB2     		sxth	r3, r3
 3644 03f6 1946     		mov	r1, r3
 3645 03f8 F868     		ldr	r0, [r7, #12]
 3646 03fa FFF7FEFF 		bl	lv_page_scroll_ver
 3647 03fe 15E0     		b	.L150
 3648              	.L172:
 905:..\..\..\lvgl\version_6.1.2\lvgl\src\lv_objx/lv_page.c ****             else
 906:..\..\..\lvgl\version_6.1.2\lvgl\src\lv_objx/lv_page.c ****                 lv_page_scroll_hor(page, lv_obj_get_width(page) / 4);
 3649              		.loc 3 906 0
 3650 0400 F868     		ldr	r0, [r7, #12]
 3651 0402 FFF7FEFF 		bl	lv_obj_get_width
 3652 0406 0346     		mov	r3, r0
 3653 0408 002B     		cmp	r3, #0
 3654 040a 00DA     		bge	.L174
 3655 040c 0333     		adds	r3, r3, #3
 3656              	.L174:
 3657 040e 9B10     		asrs	r3, r3, #2
 3658 0410 1BB2     		sxth	r3, r3
 3659 0412 1946     		mov	r1, r3
 3660 0414 F868     		ldr	r0, [r7, #12]
 3661 0416 FFF7FEFF 		bl	lv_page_scroll_hor
 3662 041a 07E0     		b	.L150
 3663              	.L161:
 3664              	.LBE11:
ARM GAS  C:\Users\tmj32\AppData\Local\Temp\ccFKuFvs.s 			page 89


 907:..\..\..\lvgl\version_6.1.2\lvgl\src\lv_objx/lv_page.c ****         }
 908:..\..\..\lvgl\version_6.1.2\lvgl\src\lv_objx/lv_page.c ****     } else if(sign == LV_SIGNAL_GET_EDITABLE) {
 3665              		.loc 3 908 0
 3666 041c FB7A     		ldrb	r3, [r7, #11]	@ zero_extendqisi2
 3667 041e 132B     		cmp	r3, #19
 3668 0420 04D1     		bne	.L150
 3669              	.LBB12:
 909:..\..\..\lvgl\version_6.1.2\lvgl\src\lv_objx/lv_page.c ****         bool * editable = (bool *)param;
 3670              		.loc 3 909 0
 3671 0422 7B68     		ldr	r3, [r7, #4]
 3672 0424 7B61     		str	r3, [r7, #20]
 910:..\..\..\lvgl\version_6.1.2\lvgl\src\lv_objx/lv_page.c ****         *editable       = true;
 3673              		.loc 3 910 0
 3674 0426 7B69     		ldr	r3, [r7, #20]
 3675 0428 0122     		movs	r2, #1
 3676 042a 1A70     		strb	r2, [r3]
 3677              	.L150:
 3678              	.LBE12:
 911:..\..\..\lvgl\version_6.1.2\lvgl\src\lv_objx/lv_page.c ****     }
 912:..\..\..\lvgl\version_6.1.2\lvgl\src\lv_objx/lv_page.c **** 
 913:..\..\..\lvgl\version_6.1.2\lvgl\src\lv_objx/lv_page.c ****     return res;
 3679              		.loc 3 913 0
 3680 042c 97F83330 		ldrb	r3, [r7, #51]	@ zero_extendqisi2
 3681              	.L137:
 914:..\..\..\lvgl\version_6.1.2\lvgl\src\lv_objx/lv_page.c **** }
 3682              		.loc 3 914 0
 3683 0430 1846     		mov	r0, r3
 3684 0432 3C37     		adds	r7, r7, #60
 3685              		.cfi_def_cfa_offset 12
 3686 0434 BD46     		mov	sp, r7
 3687              		.cfi_def_cfa_register 13
 3688              		@ sp needed
 3689 0436 90BD     		pop	{r4, r7, pc}
 3690              		.cfi_endproc
 3691              	.LFE71:
 3692              		.size	lv_page_signal, .-lv_page_signal
 3693              		.section	.rodata
 3694              		.align	2
 3695              	.LC1:
 3696 0008 00       		.ascii	"\000"
 3697              		.section	.text.lv_page_scrollable_signal,"ax",%progbits
 3698              		.align	2
 3699              		.thumb
 3700              		.thumb_func
 3701              		.type	lv_page_scrollable_signal, %function
 3702              	lv_page_scrollable_signal:
 3703              	.LFB72:
 915:..\..\..\lvgl\version_6.1.2\lvgl\src\lv_objx/lv_page.c **** 
 916:..\..\..\lvgl\version_6.1.2\lvgl\src\lv_objx/lv_page.c **** /**
 917:..\..\..\lvgl\version_6.1.2\lvgl\src\lv_objx/lv_page.c ****  * Signal function of the scrollable part of a page
 918:..\..\..\lvgl\version_6.1.2\lvgl\src\lv_objx/lv_page.c ****  * @param scrl pointer to the scrollable object
 919:..\..\..\lvgl\version_6.1.2\lvgl\src\lv_objx/lv_page.c ****  * @param sign a signal type from lv_signal_t enum
 920:..\..\..\lvgl\version_6.1.2\lvgl\src\lv_objx/lv_page.c ****  * @param param pointer to a signal specific variable
 921:..\..\..\lvgl\version_6.1.2\lvgl\src\lv_objx/lv_page.c ****  * @return LV_RES_OK: the object is not deleted in the function; LV_RES_INV: the object is deleted
 922:..\..\..\lvgl\version_6.1.2\lvgl\src\lv_objx/lv_page.c ****  */
 923:..\..\..\lvgl\version_6.1.2\lvgl\src\lv_objx/lv_page.c **** static lv_res_t lv_page_scrollable_signal(lv_obj_t * scrl, lv_signal_t sign, void * param)
 924:..\..\..\lvgl\version_6.1.2\lvgl\src\lv_objx/lv_page.c **** {
ARM GAS  C:\Users\tmj32\AppData\Local\Temp\ccFKuFvs.s 			page 90


 3704              		.loc 3 924 0
 3705              		.cfi_startproc
 3706              		@ args = 0, pretend = 0, frame = 88
 3707              		@ frame_needed = 1, uses_anonymous_args = 0
 3708 0000 90B5     		push	{r4, r7, lr}
 3709              		.cfi_def_cfa_offset 12
 3710              		.cfi_offset 4, -12
 3711              		.cfi_offset 7, -8
 3712              		.cfi_offset 14, -4
 3713 0002 97B0     		sub	sp, sp, #92
 3714              		.cfi_def_cfa_offset 104
 3715 0004 00AF     		add	r7, sp, #0
 3716              		.cfi_def_cfa_register 7
 3717 0006 F860     		str	r0, [r7, #12]
 3718 0008 0B46     		mov	r3, r1
 3719 000a 7A60     		str	r2, [r7, #4]
 3720 000c FB72     		strb	r3, [r7, #11]
 925:..\..\..\lvgl\version_6.1.2\lvgl\src\lv_objx/lv_page.c ****     lv_res_t res;
 926:..\..\..\lvgl\version_6.1.2\lvgl\src\lv_objx/lv_page.c **** 
 927:..\..\..\lvgl\version_6.1.2\lvgl\src\lv_objx/lv_page.c ****     /* Include the ancient signal function */
 928:..\..\..\lvgl\version_6.1.2\lvgl\src\lv_objx/lv_page.c ****     res = ancestor_signal(scrl, sign, param);
 3721              		.loc 3 928 0
 3722 000e C34B     		ldr	r3, .L209
 3723 0010 1B68     		ldr	r3, [r3]
 3724 0012 F97A     		ldrb	r1, [r7, #11]	@ zero_extendqisi2
 3725 0014 7A68     		ldr	r2, [r7, #4]
 3726 0016 F868     		ldr	r0, [r7, #12]
 3727 0018 9847     		blx	r3
 3728 001a 0346     		mov	r3, r0
 3729 001c 87F85130 		strb	r3, [r7, #81]
 929:..\..\..\lvgl\version_6.1.2\lvgl\src\lv_objx/lv_page.c ****     if(res != LV_RES_OK) return res;
 3730              		.loc 3 929 0
 3731 0020 97F85130 		ldrb	r3, [r7, #81]	@ zero_extendqisi2
 3732 0024 012B     		cmp	r3, #1
 3733 0026 02D0     		beq	.L178
 3734              		.loc 3 929 0 is_stmt 0 discriminator 1
 3735 0028 97F85130 		ldrb	r3, [r7, #81]	@ zero_extendqisi2
 3736 002c 8BE3     		b	.L179
 3737              	.L178:
 930:..\..\..\lvgl\version_6.1.2\lvgl\src\lv_objx/lv_page.c ****     if(sign == LV_SIGNAL_GET_TYPE) return lv_obj_handle_get_type_signal(param, "");
 3738              		.loc 3 930 0 is_stmt 1
 3739 002e FB7A     		ldrb	r3, [r7, #11]	@ zero_extendqisi2
 3740 0030 072B     		cmp	r3, #7
 3741 0032 05D1     		bne	.L180
 3742              		.loc 3 930 0 is_stmt 0 discriminator 1
 3743 0034 BA49     		ldr	r1, .L209+4
 3744 0036 7868     		ldr	r0, [r7, #4]
 3745 0038 FFF7FEFF 		bl	lv_obj_handle_get_type_signal
 3746 003c 0346     		mov	r3, r0
 3747 003e 82E3     		b	.L179
 3748              	.L180:
 931:..\..\..\lvgl\version_6.1.2\lvgl\src\lv_objx/lv_page.c **** 
 932:..\..\..\lvgl\version_6.1.2\lvgl\src\lv_objx/lv_page.c ****     lv_obj_t * page               = lv_obj_get_parent(scrl);
 3749              		.loc 3 932 0 is_stmt 1
 3750 0040 F868     		ldr	r0, [r7, #12]
 3751 0042 FFF7FEFF 		bl	lv_obj_get_parent
 3752 0046 F864     		str	r0, [r7, #76]
ARM GAS  C:\Users\tmj32\AppData\Local\Temp\ccFKuFvs.s 			page 91


 933:..\..\..\lvgl\version_6.1.2\lvgl\src\lv_objx/lv_page.c ****     const lv_style_t * page_style = lv_obj_get_style(page);
 3753              		.loc 3 933 0
 3754 0048 F86C     		ldr	r0, [r7, #76]
 3755 004a FFF7FEFF 		bl	lv_obj_get_style
 3756 004e B864     		str	r0, [r7, #72]
 934:..\..\..\lvgl\version_6.1.2\lvgl\src\lv_objx/lv_page.c ****     lv_page_ext_t * page_ext      = lv_obj_get_ext_attr(page);
 3757              		.loc 3 934 0
 3758 0050 F86C     		ldr	r0, [r7, #76]
 3759 0052 FFF7FEFF 		bl	lv_obj_get_ext_attr
 3760 0056 7864     		str	r0, [r7, #68]
 935:..\..\..\lvgl\version_6.1.2\lvgl\src\lv_objx/lv_page.c **** 
 936:..\..\..\lvgl\version_6.1.2\lvgl\src\lv_objx/lv_page.c ****     if(sign == LV_SIGNAL_CORD_CHG) {
 3761              		.loc 3 936 0
 3762 0058 FB7A     		ldrb	r3, [r7, #11]	@ zero_extendqisi2
 3763 005a 022B     		cmp	r3, #2
 3764 005c 40F0C982 		bne	.L181
 3765              	.LBB13:
 937:..\..\..\lvgl\version_6.1.2\lvgl\src\lv_objx/lv_page.c ****         /*Limit the position of the scrollable object to be always visible
 938:..\..\..\lvgl\version_6.1.2\lvgl\src\lv_objx/lv_page.c ****          * (Do not let its edge inner then its parent respective edge)*/
 939:..\..\..\lvgl\version_6.1.2\lvgl\src\lv_objx/lv_page.c ****         lv_coord_t new_x = lv_obj_get_x(scrl);
 3766              		.loc 3 939 0
 3767 0060 F868     		ldr	r0, [r7, #12]
 3768 0062 FFF7FEFF 		bl	lv_obj_get_x
 3769 0066 0346     		mov	r3, r0
 3770 0068 A7F85630 		strh	r3, [r7, #86]	@ movhi
 940:..\..\..\lvgl\version_6.1.2\lvgl\src\lv_objx/lv_page.c ****         lv_coord_t new_y = lv_obj_get_y(scrl);
 3771              		.loc 3 940 0
 3772 006c F868     		ldr	r0, [r7, #12]
 3773 006e FFF7FEFF 		bl	lv_obj_get_y
 3774 0072 0346     		mov	r3, r0
 3775 0074 A7F85430 		strh	r3, [r7, #84]	@ movhi
 941:..\..\..\lvgl\version_6.1.2\lvgl\src\lv_objx/lv_page.c ****         bool refr_x      = false;
 3776              		.loc 3 941 0
 3777 0078 0023     		movs	r3, #0
 3778 007a 87F85330 		strb	r3, [r7, #83]
 942:..\..\..\lvgl\version_6.1.2\lvgl\src\lv_objx/lv_page.c ****         bool refr_y      = false;
 3779              		.loc 3 942 0
 3780 007e 0023     		movs	r3, #0
 3781 0080 87F85230 		strb	r3, [r7, #82]
 943:..\..\..\lvgl\version_6.1.2\lvgl\src\lv_objx/lv_page.c ****         lv_area_t page_coords;
 944:..\..\..\lvgl\version_6.1.2\lvgl\src\lv_objx/lv_page.c ****         lv_area_t scrl_coords;
 945:..\..\..\lvgl\version_6.1.2\lvgl\src\lv_objx/lv_page.c ****         lv_obj_get_coords(scrl, &scrl_coords);
 3782              		.loc 3 945 0
 3783 0084 07F12003 		add	r3, r7, #32
 3784 0088 1946     		mov	r1, r3
 3785 008a F868     		ldr	r0, [r7, #12]
 3786 008c FFF7FEFF 		bl	lv_obj_get_coords
 946:..\..\..\lvgl\version_6.1.2\lvgl\src\lv_objx/lv_page.c ****         lv_obj_get_coords(page, &page_coords);
 3787              		.loc 3 946 0
 3788 0090 07F12803 		add	r3, r7, #40
 3789 0094 1946     		mov	r1, r3
 3790 0096 F86C     		ldr	r0, [r7, #76]
 3791 0098 FFF7FEFF 		bl	lv_obj_get_coords
 947:..\..\..\lvgl\version_6.1.2\lvgl\src\lv_objx/lv_page.c **** 
 948:..\..\..\lvgl\version_6.1.2\lvgl\src\lv_objx/lv_page.c ****         lv_area_t * ori_coords = (lv_area_t *)param;
 3792              		.loc 3 948 0
 3793 009c 7B68     		ldr	r3, [r7, #4]
ARM GAS  C:\Users\tmj32\AppData\Local\Temp\ccFKuFvs.s 			page 92


 3794 009e 3B64     		str	r3, [r7, #64]
 949:..\..\..\lvgl\version_6.1.2\lvgl\src\lv_objx/lv_page.c ****         lv_coord_t diff_x      = scrl->coords.x1 - ori_coords->x1;
 3795              		.loc 3 949 0
 3796 00a0 FB68     		ldr	r3, [r7, #12]
 3797 00a2 B3F91030 		ldrsh	r3, [r3, #16]
 3798 00a6 9AB2     		uxth	r2, r3
 3799 00a8 3B6C     		ldr	r3, [r7, #64]
 3800 00aa B3F90030 		ldrsh	r3, [r3]
 3801 00ae 9BB2     		uxth	r3, r3
 3802 00b0 D31A     		subs	r3, r2, r3
 3803 00b2 9BB2     		uxth	r3, r3
 3804 00b4 FB87     		strh	r3, [r7, #62]	@ movhi
 950:..\..\..\lvgl\version_6.1.2\lvgl\src\lv_objx/lv_page.c ****         lv_coord_t diff_y      = scrl->coords.y1 - ori_coords->y1;
 3805              		.loc 3 950 0
 3806 00b6 FB68     		ldr	r3, [r7, #12]
 3807 00b8 B3F91230 		ldrsh	r3, [r3, #18]
 3808 00bc 9AB2     		uxth	r2, r3
 3809 00be 3B6C     		ldr	r3, [r7, #64]
 3810 00c0 B3F90230 		ldrsh	r3, [r3, #2]
 3811 00c4 9BB2     		uxth	r3, r3
 3812 00c6 D31A     		subs	r3, r2, r3
 3813 00c8 9BB2     		uxth	r3, r3
 3814 00ca BB87     		strh	r3, [r7, #60]	@ movhi
 951:..\..\..\lvgl\version_6.1.2\lvgl\src\lv_objx/lv_page.c ****         lv_coord_t hpad        = page_style->body.padding.left + page_style->body.padding.right;
 3815              		.loc 3 951 0
 3816 00cc BB6C     		ldr	r3, [r7, #72]
 3817 00ce B3F92430 		ldrsh	r3, [r3, #36]
 3818 00d2 9AB2     		uxth	r2, r3
 3819 00d4 BB6C     		ldr	r3, [r7, #72]
 3820 00d6 B3F92630 		ldrsh	r3, [r3, #38]
 3821 00da 9BB2     		uxth	r3, r3
 3822 00dc 1344     		add	r3, r3, r2
 3823 00de 9BB2     		uxth	r3, r3
 3824 00e0 7B87     		strh	r3, [r7, #58]	@ movhi
 952:..\..\..\lvgl\version_6.1.2\lvgl\src\lv_objx/lv_page.c ****         lv_coord_t vpad        = page_style->body.padding.top + page_style->body.padding.bottom;
 3825              		.loc 3 952 0
 3826 00e2 BB6C     		ldr	r3, [r7, #72]
 3827 00e4 B3F92030 		ldrsh	r3, [r3, #32]
 3828 00e8 9AB2     		uxth	r2, r3
 3829 00ea BB6C     		ldr	r3, [r7, #72]
 3830 00ec B3F92230 		ldrsh	r3, [r3, #34]
 3831 00f0 9BB2     		uxth	r3, r3
 3832 00f2 1344     		add	r3, r3, r2
 3833 00f4 9BB2     		uxth	r3, r3
 3834 00f6 3B87     		strh	r3, [r7, #56]	@ movhi
 953:..\..\..\lvgl\version_6.1.2\lvgl\src\lv_objx/lv_page.c ****         lv_obj_t * page_parent = lv_obj_get_parent(page);
 3835              		.loc 3 953 0
 3836 00f8 F86C     		ldr	r0, [r7, #76]
 3837 00fa FFF7FEFF 		bl	lv_obj_get_parent
 3838 00fe 7863     		str	r0, [r7, #52]
 954:..\..\..\lvgl\version_6.1.2\lvgl\src\lv_objx/lv_page.c **** 
 955:..\..\..\lvgl\version_6.1.2\lvgl\src\lv_objx/lv_page.c ****         lv_indev_t * indev = lv_indev_get_act();
 3839              		.loc 3 955 0
 3840 0100 FFF7FEFF 		bl	lv_indev_get_act
 3841 0104 3863     		str	r0, [r7, #48]
 956:..\..\..\lvgl\version_6.1.2\lvgl\src\lv_objx/lv_page.c ****         lv_point_t drag_vect;
 957:..\..\..\lvgl\version_6.1.2\lvgl\src\lv_objx/lv_page.c ****         lv_indev_get_vect(indev, &drag_vect);
ARM GAS  C:\Users\tmj32\AppData\Local\Temp\ccFKuFvs.s 			page 93


 3842              		.loc 3 957 0
 3843 0106 07F11C03 		add	r3, r7, #28
 3844 010a 1946     		mov	r1, r3
 3845 010c 386B     		ldr	r0, [r7, #48]
 3846 010e FFF7FEFF 		bl	lv_indev_get_vect
 958:..\..\..\lvgl\version_6.1.2\lvgl\src\lv_objx/lv_page.c **** 
 959:..\..\..\lvgl\version_6.1.2\lvgl\src\lv_objx/lv_page.c ****         /* Start the scroll propagation if there is drag vector on the indev, but the drag is not
 960:..\..\..\lvgl\version_6.1.2\lvgl\src\lv_objx/lv_page.c ****          * started yet and the scrollable is in a corner. It will enable the scroll propagation onl
 961:..\..\..\lvgl\version_6.1.2\lvgl\src\lv_objx/lv_page.c ****          * when a new scroll begins and not when the scrollable is already being scrolled.*/
 962:..\..\..\lvgl\version_6.1.2\lvgl\src\lv_objx/lv_page.c ****         if(page_ext->scroll_prop && page_ext->scroll_prop_ip == 0 && lv_indev_is_dragging(indev) ==
 3847              		.loc 3 962 0
 3848 0112 7B6C     		ldr	r3, [r7, #68]
 3849 0114 93F82E30 		ldrb	r3, [r3, #46]	@ zero_extendqisi2
 3850 0118 03F00103 		and	r3, r3, #1
 3851 011c DBB2     		uxtb	r3, r3
 3852 011e 002B     		cmp	r3, #0
 3853 0120 5DD0     		beq	.L182
 3854              		.loc 3 962 0 is_stmt 0 discriminator 1
 3855 0122 7B6C     		ldr	r3, [r7, #68]
 3856 0124 93F82E30 		ldrb	r3, [r3, #46]	@ zero_extendqisi2
 3857 0128 03F00203 		and	r3, r3, #2
 3858 012c DBB2     		uxtb	r3, r3
 3859 012e 002B     		cmp	r3, #0
 3860 0130 55D1     		bne	.L182
 3861              		.loc 3 962 0 discriminator 2
 3862 0132 386B     		ldr	r0, [r7, #48]
 3863 0134 FFF7FEFF 		bl	lv_indev_is_dragging
 3864 0138 0346     		mov	r3, r0
 3865 013a 83F00103 		eor	r3, r3, #1
 3866 013e DBB2     		uxtb	r3, r3
 3867 0140 002B     		cmp	r3, #0
 3868 0142 4CD0     		beq	.L182
 963:..\..\..\lvgl\version_6.1.2\lvgl\src\lv_objx/lv_page.c ****             if(((drag_vect.y > 0 && scrl_coords.y1 == page_coords.y1 + page_style->body.padding.top
 3869              		.loc 3 963 0 is_stmt 1
 3870 0144 B7F91E30 		ldrsh	r3, [r7, #30]
 3871 0148 002B     		cmp	r3, #0
 3872 014a 0BDD     		ble	.L183
 3873              		.loc 3 963 0 is_stmt 0 discriminator 1
 3874 014c B7F92230 		ldrsh	r3, [r7, #34]
 3875 0150 1A46     		mov	r2, r3
 3876 0152 B7F92A30 		ldrsh	r3, [r7, #42]
 3877 0156 1946     		mov	r1, r3
 3878 0158 BB6C     		ldr	r3, [r7, #72]
 3879 015a B3F92030 		ldrsh	r3, [r3, #32]
 3880 015e 0B44     		add	r3, r3, r1
 3881 0160 9A42     		cmp	r2, r3
 3882 0162 0FD0     		beq	.L184
 3883              	.L183:
 964:..\..\..\lvgl\version_6.1.2\lvgl\src\lv_objx/lv_page.c ****                 (drag_vect.y < 0 && scrl_coords.y2 == page_coords.y2 - page_style->body.padding.bot
 3884              		.loc 3 964 0 is_stmt 1 discriminator 3
 3885 0164 B7F91E30 		ldrsh	r3, [r7, #30]
 963:..\..\..\lvgl\version_6.1.2\lvgl\src\lv_objx/lv_page.c ****             if(((drag_vect.y > 0 && scrl_coords.y1 == page_coords.y1 + page_style->body.padding.top
 3886              		.loc 3 963 0 discriminator 3
 3887 0168 002B     		cmp	r3, #0
 3888 016a 38DA     		bge	.L182
 3889              		.loc 3 964 0
 3890 016c B7F92630 		ldrsh	r3, [r7, #38]
ARM GAS  C:\Users\tmj32\AppData\Local\Temp\ccFKuFvs.s 			page 94


 3891 0170 1A46     		mov	r2, r3
 3892 0172 B7F92E30 		ldrsh	r3, [r7, #46]
 3893 0176 1946     		mov	r1, r3
 3894 0178 BB6C     		ldr	r3, [r7, #72]
 3895 017a B3F92230 		ldrsh	r3, [r3, #34]
 3896 017e CB1A     		subs	r3, r1, r3
 3897 0180 9A42     		cmp	r2, r3
 3898 0182 2CD1     		bne	.L182
 3899              	.L184:
 965:..\..\..\lvgl\version_6.1.2\lvgl\src\lv_objx/lv_page.c ****                ((drag_vect.x > 0 && scrl_coords.x1 == page_coords.x1 + page_style->body.padding.lef
 3900              		.loc 3 965 0 discriminator 1
 3901 0184 B7F91C30 		ldrsh	r3, [r7, #28]
 964:..\..\..\lvgl\version_6.1.2\lvgl\src\lv_objx/lv_page.c ****                 (drag_vect.y < 0 && scrl_coords.y2 == page_coords.y2 - page_style->body.padding.bot
 3902              		.loc 3 964 0 discriminator 1
 3903 0188 002B     		cmp	r3, #0
 3904 018a 0BDD     		ble	.L185
 3905              		.loc 3 965 0
 3906 018c B7F92030 		ldrsh	r3, [r7, #32]
 3907 0190 1A46     		mov	r2, r3
 3908 0192 B7F92830 		ldrsh	r3, [r7, #40]
 3909 0196 1946     		mov	r1, r3
 3910 0198 BB6C     		ldr	r3, [r7, #72]
 3911 019a B3F92430 		ldrsh	r3, [r3, #36]
 3912 019e 0B44     		add	r3, r3, r1
 3913 01a0 9A42     		cmp	r2, r3
 3914 01a2 0FD0     		beq	.L186
 3915              	.L185:
 966:..\..\..\lvgl\version_6.1.2\lvgl\src\lv_objx/lv_page.c ****                 (drag_vect.x < 0 && scrl_coords.x2 == page_coords.x2 - page_style->body.padding.rig
 3916              		.loc 3 966 0 discriminator 1
 3917 01a4 B7F91C30 		ldrsh	r3, [r7, #28]
 965:..\..\..\lvgl\version_6.1.2\lvgl\src\lv_objx/lv_page.c ****                ((drag_vect.x > 0 && scrl_coords.x1 == page_coords.x1 + page_style->body.padding.lef
 3918              		.loc 3 965 0 discriminator 1
 3919 01a8 002B     		cmp	r3, #0
 3920 01aa 18DA     		bge	.L182
 3921              		.loc 3 966 0
 3922 01ac B7F92430 		ldrsh	r3, [r7, #36]
 3923 01b0 1A46     		mov	r2, r3
 3924 01b2 B7F92C30 		ldrsh	r3, [r7, #44]
 3925 01b6 1946     		mov	r1, r3
 3926 01b8 BB6C     		ldr	r3, [r7, #72]
 3927 01ba B3F92630 		ldrsh	r3, [r3, #38]
 3928 01be CB1A     		subs	r3, r1, r3
 3929 01c0 9A42     		cmp	r2, r3
 3930 01c2 0CD1     		bne	.L182
 3931              	.L186:
 967:..\..\..\lvgl\version_6.1.2\lvgl\src\lv_objx/lv_page.c **** 
 968:..\..\..\lvgl\version_6.1.2\lvgl\src\lv_objx/lv_page.c ****                 if(lv_obj_get_parent(page_parent) != NULL) { /*Do not propagate the scroll to a scr
 3932              		.loc 3 968 0
 3933 01c4 786B     		ldr	r0, [r7, #52]
 3934 01c6 FFF7FEFF 		bl	lv_obj_get_parent
 3935 01ca 0346     		mov	r3, r0
 3936 01cc 002B     		cmp	r3, #0
 3937 01ce 06D0     		beq	.L182
 969:..\..\..\lvgl\version_6.1.2\lvgl\src\lv_objx/lv_page.c ****                     page_ext->scroll_prop_ip = 1;
 3938              		.loc 3 969 0
 3939 01d0 7A6C     		ldr	r2, [r7, #68]
 3940 01d2 92F82E30 		ldrb	r3, [r2, #46]
ARM GAS  C:\Users\tmj32\AppData\Local\Temp\ccFKuFvs.s 			page 95


 3941 01d6 43F00203 		orr	r3, r3, #2
 3942 01da 82F82E30 		strb	r3, [r2, #46]
 3943              	.L182:
 970:..\..\..\lvgl\version_6.1.2\lvgl\src\lv_objx/lv_page.c ****                 }
 971:..\..\..\lvgl\version_6.1.2\lvgl\src\lv_objx/lv_page.c ****             }
 972:..\..\..\lvgl\version_6.1.2\lvgl\src\lv_objx/lv_page.c ****         }
 973:..\..\..\lvgl\version_6.1.2\lvgl\src\lv_objx/lv_page.c **** 
 974:..\..\..\lvgl\version_6.1.2\lvgl\src\lv_objx/lv_page.c ****         /*scrollable width smaller then page width? -> align to left*/
 975:..\..\..\lvgl\version_6.1.2\lvgl\src\lv_objx/lv_page.c ****         if(lv_area_get_width(&scrl_coords) + hpad <= lv_area_get_width(&page_coords)) {
 3944              		.loc 3 975 0
 3945 01de 07F12003 		add	r3, r7, #32
 3946 01e2 1846     		mov	r0, r3
 3947 01e4 FFF7FEFF 		bl	lv_area_get_width
 3948 01e8 0346     		mov	r3, r0
 3949 01ea 1A46     		mov	r2, r3
 3950 01ec B7F93A30 		ldrsh	r3, [r7, #58]
 3951 01f0 D418     		adds	r4, r2, r3
 3952 01f2 07F12803 		add	r3, r7, #40
 3953 01f6 1846     		mov	r0, r3
 3954 01f8 FFF7FEFF 		bl	lv_area_get_width
 3955 01fc 0346     		mov	r3, r0
 3956 01fe 9C42     		cmp	r4, r3
 3957 0200 14DC     		bgt	.L187
 976:..\..\..\lvgl\version_6.1.2\lvgl\src\lv_objx/lv_page.c ****             if(scrl_coords.x1 != page_coords.x1 + page_style->body.padding.left) {
 3958              		.loc 3 976 0
 3959 0202 B7F92030 		ldrsh	r3, [r7, #32]
 3960 0206 1A46     		mov	r2, r3
 3961 0208 B7F92830 		ldrsh	r3, [r7, #40]
 3962 020c 1946     		mov	r1, r3
 3963 020e BB6C     		ldr	r3, [r7, #72]
 3964 0210 B3F92430 		ldrsh	r3, [r3, #36]
 3965 0214 0B44     		add	r3, r3, r1
 3966 0216 9A42     		cmp	r2, r3
 3967 0218 00F0C980 		beq	.L189
 977:..\..\..\lvgl\version_6.1.2\lvgl\src\lv_objx/lv_page.c ****                 new_x  = page_style->body.padding.left;
 3968              		.loc 3 977 0
 3969 021c BB6C     		ldr	r3, [r7, #72]
 3970 021e 9B8C     		ldrh	r3, [r3, #36]	@ movhi
 3971 0220 A7F85630 		strh	r3, [r7, #86]	@ movhi
 978:..\..\..\lvgl\version_6.1.2\lvgl\src\lv_objx/lv_page.c ****                 refr_x = true;
 3972              		.loc 3 978 0
 3973 0224 0123     		movs	r3, #1
 3974 0226 87F85330 		strb	r3, [r7, #83]
 3975 022a C0E0     		b	.L189
 3976              	.L187:
 979:..\..\..\lvgl\version_6.1.2\lvgl\src\lv_objx/lv_page.c ****             }
 980:..\..\..\lvgl\version_6.1.2\lvgl\src\lv_objx/lv_page.c ****         } else {
 981:..\..\..\lvgl\version_6.1.2\lvgl\src\lv_objx/lv_page.c ****             /*If the scroll propagation is in progress revert the original coordinates (don't let
 982:..\..\..\lvgl\version_6.1.2\lvgl\src\lv_objx/lv_page.c ****              * the page scroll)*/
 983:..\..\..\lvgl\version_6.1.2\lvgl\src\lv_objx/lv_page.c ****             if(page_ext->scroll_prop_ip) {
 3977              		.loc 3 983 0
 3978 022c 7B6C     		ldr	r3, [r7, #68]
 3979 022e 93F82E30 		ldrb	r3, [r3, #46]	@ zero_extendqisi2
 3980 0232 03F00203 		and	r3, r3, #2
 3981 0236 DBB2     		uxtb	r3, r3
 3982 0238 002B     		cmp	r3, #0
 3983 023a 15D0     		beq	.L190
ARM GAS  C:\Users\tmj32\AppData\Local\Temp\ccFKuFvs.s 			page 96


 984:..\..\..\lvgl\version_6.1.2\lvgl\src\lv_objx/lv_page.c ****                 if(drag_vect.x == diff_x) { /*`scrl` is bouncing: drag pos. it somewhere and here i
 3984              		.loc 3 984 0
 3985 023c B7F91C30 		ldrsh	r3, [r7, #28]
 3986 0240 B7F93E20 		ldrsh	r2, [r7, #62]
 3987 0244 9A42     		cmp	r2, r3
 3988 0246 40F0B280 		bne	.L189
 985:..\..\..\lvgl\version_6.1.2\lvgl\src\lv_objx/lv_page.c ****                                                is reverted. Handle only the pos. because of drag*/
 986:..\..\..\lvgl\version_6.1.2\lvgl\src\lv_objx/lv_page.c ****                     new_x  = ori_coords->x1 - page_coords.x1;
 3989              		.loc 3 986 0
 3990 024a 3B6C     		ldr	r3, [r7, #64]
 3991 024c B3F90030 		ldrsh	r3, [r3]
 3992 0250 9AB2     		uxth	r2, r3
 3993 0252 B7F92830 		ldrsh	r3, [r7, #40]
 3994 0256 9BB2     		uxth	r3, r3
 3995 0258 D31A     		subs	r3, r2, r3
 3996 025a 9BB2     		uxth	r3, r3
 3997 025c A7F85630 		strh	r3, [r7, #86]	@ movhi
 987:..\..\..\lvgl\version_6.1.2\lvgl\src\lv_objx/lv_page.c ****                     refr_x = true;
 3998              		.loc 3 987 0
 3999 0260 0123     		movs	r3, #1
 4000 0262 87F85330 		strb	r3, [r7, #83]
 4001 0266 A2E0     		b	.L189
 4002              	.L190:
 988:..\..\..\lvgl\version_6.1.2\lvgl\src\lv_objx/lv_page.c ****                 }
 989:..\..\..\lvgl\version_6.1.2\lvgl\src\lv_objx/lv_page.c ****             }
 990:..\..\..\lvgl\version_6.1.2\lvgl\src\lv_objx/lv_page.c ****             /*The edges of the scrollable can not be in the page (minus hpad) */
 991:..\..\..\lvgl\version_6.1.2\lvgl\src\lv_objx/lv_page.c ****             else if(scrl_coords.x2 < page_coords.x2 - page_style->body.padding.right) {
 4003              		.loc 3 991 0
 4004 0268 B7F92430 		ldrsh	r3, [r7, #36]
 4005 026c 1A46     		mov	r2, r3
 4006 026e B7F92C30 		ldrsh	r3, [r7, #44]
 4007 0272 1946     		mov	r1, r3
 4008 0274 BB6C     		ldr	r3, [r7, #72]
 4009 0276 B3F92630 		ldrsh	r3, [r3, #38]
 4010 027a CB1A     		subs	r3, r1, r3
 4011 027c 9A42     		cmp	r2, r3
 4012 027e 51DA     		bge	.L192
 992:..\..\..\lvgl\version_6.1.2\lvgl\src\lv_objx/lv_page.c ****                 new_x = lv_area_get_width(&page_coords) - lv_area_get_width(&scrl_coords) -
 4013              		.loc 3 992 0
 4014 0280 07F12803 		add	r3, r7, #40
 4015 0284 1846     		mov	r0, r3
 4016 0286 FFF7FEFF 		bl	lv_area_get_width
 4017 028a 0346     		mov	r3, r0
 4018 028c 9CB2     		uxth	r4, r3
 4019 028e 07F12003 		add	r3, r7, #32
 4020 0292 1846     		mov	r0, r3
 4021 0294 FFF7FEFF 		bl	lv_area_get_width
 4022 0298 0346     		mov	r3, r0
 4023 029a 9BB2     		uxth	r3, r3
 4024 029c E31A     		subs	r3, r4, r3
 4025 029e 9AB2     		uxth	r2, r3
 993:..\..\..\lvgl\version_6.1.2\lvgl\src\lv_objx/lv_page.c ****                         page_style->body.padding.right; /* Right align */
 4026              		.loc 3 993 0
 4027 02a0 BB6C     		ldr	r3, [r7, #72]
 4028 02a2 B3F92630 		ldrsh	r3, [r3, #38]
 992:..\..\..\lvgl\version_6.1.2\lvgl\src\lv_objx/lv_page.c ****                 new_x = lv_area_get_width(&page_coords) - lv_area_get_width(&scrl_coords) -
 4029              		.loc 3 992 0
ARM GAS  C:\Users\tmj32\AppData\Local\Temp\ccFKuFvs.s 			page 97


 4030 02a6 9BB2     		uxth	r3, r3
 4031 02a8 D31A     		subs	r3, r2, r3
 4032 02aa 9BB2     		uxth	r3, r3
 4033 02ac A7F85630 		strh	r3, [r7, #86]	@ movhi
 994:..\..\..\lvgl\version_6.1.2\lvgl\src\lv_objx/lv_page.c ****                 refr_x = true;
 4034              		.loc 3 994 0
 4035 02b0 0123     		movs	r3, #1
 4036 02b2 87F85330 		strb	r3, [r7, #83]
 995:..\..\..\lvgl\version_6.1.2\lvgl\src\lv_objx/lv_page.c **** #if LV_USE_ANIMATION
 996:..\..\..\lvgl\version_6.1.2\lvgl\src\lv_objx/lv_page.c ****                 if(page_ext->edge_flash.enabled && page_ext->edge_flash.left_ip == 0 &&
 4037              		.loc 3 996 0
 4038 02b6 7B6C     		ldr	r3, [r7, #68]
 4039 02b8 93F82830 		ldrb	r3, [r3, #40]	@ zero_extendqisi2
 4040 02bc 03F00103 		and	r3, r3, #1
 4041 02c0 DBB2     		uxtb	r3, r3
 4042 02c2 002B     		cmp	r3, #0
 4043 02c4 73D0     		beq	.L189
 4044              		.loc 3 996 0 is_stmt 0 discriminator 1
 4045 02c6 7B6C     		ldr	r3, [r7, #68]
 4046 02c8 93F82830 		ldrb	r3, [r3, #40]	@ zero_extendqisi2
 4047 02cc 03F01003 		and	r3, r3, #16
 4048 02d0 DBB2     		uxtb	r3, r3
 4049 02d2 002B     		cmp	r3, #0
 4050 02d4 6BD1     		bne	.L189
 997:..\..\..\lvgl\version_6.1.2\lvgl\src\lv_objx/lv_page.c ****                    page_ext->edge_flash.right_ip == 0 && page_ext->edge_flash.top_ip == 0 &&
 4051              		.loc 3 997 0 is_stmt 1 discriminator 2
 4052 02d6 7B6C     		ldr	r3, [r7, #68]
 4053 02d8 93F82830 		ldrb	r3, [r3, #40]	@ zero_extendqisi2
 4054 02dc 03F00803 		and	r3, r3, #8
 4055 02e0 DBB2     		uxtb	r3, r3
 996:..\..\..\lvgl\version_6.1.2\lvgl\src\lv_objx/lv_page.c ****                    page_ext->edge_flash.right_ip == 0 && page_ext->edge_flash.top_ip == 0 &&
 4056              		.loc 3 996 0 discriminator 2
 4057 02e2 002B     		cmp	r3, #0
 4058 02e4 63D1     		bne	.L189
 4059              		.loc 3 997 0
 4060 02e6 7B6C     		ldr	r3, [r7, #68]
 4061 02e8 93F82830 		ldrb	r3, [r3, #40]	@ zero_extendqisi2
 4062 02ec 03F00203 		and	r3, r3, #2
 4063 02f0 DBB2     		uxtb	r3, r3
 4064 02f2 002B     		cmp	r3, #0
 4065 02f4 5BD1     		bne	.L189
 998:..\..\..\lvgl\version_6.1.2\lvgl\src\lv_objx/lv_page.c ****                    page_ext->edge_flash.bottom_ip == 0) {
 4066              		.loc 3 998 0 discriminator 1
 4067 02f6 7B6C     		ldr	r3, [r7, #68]
 4068 02f8 93F82830 		ldrb	r3, [r3, #40]	@ zero_extendqisi2
 4069 02fc 03F00403 		and	r3, r3, #4
 4070 0300 DBB2     		uxtb	r3, r3
 997:..\..\..\lvgl\version_6.1.2\lvgl\src\lv_objx/lv_page.c ****                    page_ext->edge_flash.right_ip == 0 && page_ext->edge_flash.top_ip == 0 &&
 4071              		.loc 3 997 0 discriminator 1
 4072 0302 002B     		cmp	r3, #0
 4073 0304 53D1     		bne	.L189
 999:..\..\..\lvgl\version_6.1.2\lvgl\src\lv_objx/lv_page.c ****                     lv_page_start_edge_flash(page);
 4074              		.loc 3 999 0
 4075 0306 F86C     		ldr	r0, [r7, #76]
 4076 0308 FFF7FEFF 		bl	lv_page_start_edge_flash
1000:..\..\..\lvgl\version_6.1.2\lvgl\src\lv_objx/lv_page.c ****                     page_ext->edge_flash.right_ip = 1;
 4077              		.loc 3 1000 0
ARM GAS  C:\Users\tmj32\AppData\Local\Temp\ccFKuFvs.s 			page 98


 4078 030c 7A6C     		ldr	r2, [r7, #68]
 4079 030e 92F82830 		ldrb	r3, [r2, #40]
 4080 0312 43F00803 		orr	r3, r3, #8
 4081 0316 82F82830 		strb	r3, [r2, #40]
 4082 031a 48E0     		b	.L189
 4083              	.L210:
 4084              		.align	2
 4085              	.L209:
 4086 031c 04000000 		.word	ancestor_signal
 4087 0320 08000000 		.word	.LC1
 4088              	.L192:
1001:..\..\..\lvgl\version_6.1.2\lvgl\src\lv_objx/lv_page.c ****                 }
1002:..\..\..\lvgl\version_6.1.2\lvgl\src\lv_objx/lv_page.c **** #endif
1003:..\..\..\lvgl\version_6.1.2\lvgl\src\lv_objx/lv_page.c ****             } else if(scrl_coords.x1 > page_coords.x1 + page_style->body.padding.left) {
 4089              		.loc 3 1003 0
 4090 0324 B7F92030 		ldrsh	r3, [r7, #32]
 4091 0328 1A46     		mov	r2, r3
 4092 032a B7F92830 		ldrsh	r3, [r7, #40]
 4093 032e 1946     		mov	r1, r3
 4094 0330 BB6C     		ldr	r3, [r7, #72]
 4095 0332 B3F92430 		ldrsh	r3, [r3, #36]
 4096 0336 0B44     		add	r3, r3, r1
 4097 0338 9A42     		cmp	r2, r3
 4098 033a 38DD     		ble	.L189
1004:..\..\..\lvgl\version_6.1.2\lvgl\src\lv_objx/lv_page.c ****                 new_x  = page_style->body.padding.left; /*Left align*/
 4099              		.loc 3 1004 0
 4100 033c BB6C     		ldr	r3, [r7, #72]
 4101 033e 9B8C     		ldrh	r3, [r3, #36]	@ movhi
 4102 0340 A7F85630 		strh	r3, [r7, #86]	@ movhi
1005:..\..\..\lvgl\version_6.1.2\lvgl\src\lv_objx/lv_page.c ****                 refr_x = true;
 4103              		.loc 3 1005 0
 4104 0344 0123     		movs	r3, #1
 4105 0346 87F85330 		strb	r3, [r7, #83]
1006:..\..\..\lvgl\version_6.1.2\lvgl\src\lv_objx/lv_page.c **** #if LV_USE_ANIMATION
1007:..\..\..\lvgl\version_6.1.2\lvgl\src\lv_objx/lv_page.c ****                 if(page_ext->edge_flash.enabled && page_ext->edge_flash.left_ip == 0 &&
 4106              		.loc 3 1007 0
 4107 034a 7B6C     		ldr	r3, [r7, #68]
 4108 034c 93F82830 		ldrb	r3, [r3, #40]	@ zero_extendqisi2
 4109 0350 03F00103 		and	r3, r3, #1
 4110 0354 DBB2     		uxtb	r3, r3
 4111 0356 002B     		cmp	r3, #0
 4112 0358 29D0     		beq	.L189
 4113              		.loc 3 1007 0 is_stmt 0 discriminator 1
 4114 035a 7B6C     		ldr	r3, [r7, #68]
 4115 035c 93F82830 		ldrb	r3, [r3, #40]	@ zero_extendqisi2
 4116 0360 03F01003 		and	r3, r3, #16
 4117 0364 DBB2     		uxtb	r3, r3
 4118 0366 002B     		cmp	r3, #0
 4119 0368 21D1     		bne	.L189
1008:..\..\..\lvgl\version_6.1.2\lvgl\src\lv_objx/lv_page.c ****                    page_ext->edge_flash.right_ip == 0 && page_ext->edge_flash.top_ip == 0 &&
 4120              		.loc 3 1008 0 is_stmt 1 discriminator 2
 4121 036a 7B6C     		ldr	r3, [r7, #68]
 4122 036c 93F82830 		ldrb	r3, [r3, #40]	@ zero_extendqisi2
 4123 0370 03F00803 		and	r3, r3, #8
 4124 0374 DBB2     		uxtb	r3, r3
1007:..\..\..\lvgl\version_6.1.2\lvgl\src\lv_objx/lv_page.c ****                    page_ext->edge_flash.right_ip == 0 && page_ext->edge_flash.top_ip == 0 &&
 4125              		.loc 3 1007 0 discriminator 2
ARM GAS  C:\Users\tmj32\AppData\Local\Temp\ccFKuFvs.s 			page 99


 4126 0376 002B     		cmp	r3, #0
 4127 0378 19D1     		bne	.L189
 4128              		.loc 3 1008 0
 4129 037a 7B6C     		ldr	r3, [r7, #68]
 4130 037c 93F82830 		ldrb	r3, [r3, #40]	@ zero_extendqisi2
 4131 0380 03F00203 		and	r3, r3, #2
 4132 0384 DBB2     		uxtb	r3, r3
 4133 0386 002B     		cmp	r3, #0
 4134 0388 11D1     		bne	.L189
1009:..\..\..\lvgl\version_6.1.2\lvgl\src\lv_objx/lv_page.c ****                    page_ext->edge_flash.bottom_ip == 0) {
 4135              		.loc 3 1009 0 discriminator 1
 4136 038a 7B6C     		ldr	r3, [r7, #68]
 4137 038c 93F82830 		ldrb	r3, [r3, #40]	@ zero_extendqisi2
 4138 0390 03F00403 		and	r3, r3, #4
 4139 0394 DBB2     		uxtb	r3, r3
1008:..\..\..\lvgl\version_6.1.2\lvgl\src\lv_objx/lv_page.c ****                    page_ext->edge_flash.right_ip == 0 && page_ext->edge_flash.top_ip == 0 &&
 4140              		.loc 3 1008 0 discriminator 1
 4141 0396 002B     		cmp	r3, #0
 4142 0398 09D1     		bne	.L189
1010:..\..\..\lvgl\version_6.1.2\lvgl\src\lv_objx/lv_page.c ****                     lv_page_start_edge_flash(page);
 4143              		.loc 3 1010 0
 4144 039a F86C     		ldr	r0, [r7, #76]
 4145 039c FFF7FEFF 		bl	lv_page_start_edge_flash
1011:..\..\..\lvgl\version_6.1.2\lvgl\src\lv_objx/lv_page.c ****                     page_ext->edge_flash.left_ip = 1;
 4146              		.loc 3 1011 0
 4147 03a0 7A6C     		ldr	r2, [r7, #68]
 4148 03a2 92F82830 		ldrb	r3, [r2, #40]
 4149 03a6 43F01003 		orr	r3, r3, #16
 4150 03aa 82F82830 		strb	r3, [r2, #40]
 4151              	.L189:
1012:..\..\..\lvgl\version_6.1.2\lvgl\src\lv_objx/lv_page.c ****                 }
1013:..\..\..\lvgl\version_6.1.2\lvgl\src\lv_objx/lv_page.c **** #endif
1014:..\..\..\lvgl\version_6.1.2\lvgl\src\lv_objx/lv_page.c ****             }
1015:..\..\..\lvgl\version_6.1.2\lvgl\src\lv_objx/lv_page.c ****         }
1016:..\..\..\lvgl\version_6.1.2\lvgl\src\lv_objx/lv_page.c **** 
1017:..\..\..\lvgl\version_6.1.2\lvgl\src\lv_objx/lv_page.c ****         /*scrollable height smaller then page height? -> align to top*/
1018:..\..\..\lvgl\version_6.1.2\lvgl\src\lv_objx/lv_page.c ****         if(lv_area_get_height(&scrl_coords) + vpad <= lv_area_get_height(&page_coords)) {
 4152              		.loc 3 1018 0
 4153 03ae 07F12003 		add	r3, r7, #32
 4154 03b2 1846     		mov	r0, r3
 4155 03b4 FFF7FEFF 		bl	lv_area_get_height
 4156 03b8 0346     		mov	r3, r0
 4157 03ba 1A46     		mov	r2, r3
 4158 03bc B7F93830 		ldrsh	r3, [r7, #56]
 4159 03c0 D418     		adds	r4, r2, r3
 4160 03c2 07F12803 		add	r3, r7, #40
 4161 03c6 1846     		mov	r0, r3
 4162 03c8 FFF7FEFF 		bl	lv_area_get_height
 4163 03cc 0346     		mov	r3, r0
 4164 03ce 9C42     		cmp	r4, r3
 4165 03d0 14DC     		bgt	.L194
1019:..\..\..\lvgl\version_6.1.2\lvgl\src\lv_objx/lv_page.c ****             if(scrl_coords.y1 != page_coords.y1 + page_style->body.padding.top) {
 4166              		.loc 3 1019 0
 4167 03d2 B7F92230 		ldrsh	r3, [r7, #34]
 4168 03d6 1A46     		mov	r2, r3
 4169 03d8 B7F92A30 		ldrsh	r3, [r7, #42]
 4170 03dc 1946     		mov	r1, r3
ARM GAS  C:\Users\tmj32\AppData\Local\Temp\ccFKuFvs.s 			page 100


 4171 03de BB6C     		ldr	r3, [r7, #72]
 4172 03e0 B3F92030 		ldrsh	r3, [r3, #32]
 4173 03e4 0B44     		add	r3, r3, r1
 4174 03e6 9A42     		cmp	r2, r3
 4175 03e8 00F0C580 		beq	.L196
1020:..\..\..\lvgl\version_6.1.2\lvgl\src\lv_objx/lv_page.c ****                 new_y  = page_style->body.padding.top;
 4176              		.loc 3 1020 0
 4177 03ec BB6C     		ldr	r3, [r7, #72]
 4178 03ee 1B8C     		ldrh	r3, [r3, #32]	@ movhi
 4179 03f0 A7F85430 		strh	r3, [r7, #84]	@ movhi
1021:..\..\..\lvgl\version_6.1.2\lvgl\src\lv_objx/lv_page.c ****                 refr_y = true;
 4180              		.loc 3 1021 0
 4181 03f4 0123     		movs	r3, #1
 4182 03f6 87F85230 		strb	r3, [r7, #82]
 4183 03fa BCE0     		b	.L196
 4184              	.L194:
1022:..\..\..\lvgl\version_6.1.2\lvgl\src\lv_objx/lv_page.c ****             }
1023:..\..\..\lvgl\version_6.1.2\lvgl\src\lv_objx/lv_page.c ****         } else {
1024:..\..\..\lvgl\version_6.1.2\lvgl\src\lv_objx/lv_page.c ****             /*If the scroll propagation is in progress revert the original coordinates (don't let
1025:..\..\..\lvgl\version_6.1.2\lvgl\src\lv_objx/lv_page.c ****              * the page scroll)*/
1026:..\..\..\lvgl\version_6.1.2\lvgl\src\lv_objx/lv_page.c ****             if(page_ext->scroll_prop_ip) {
 4185              		.loc 3 1026 0
 4186 03fc 7B6C     		ldr	r3, [r7, #68]
 4187 03fe 93F82E30 		ldrb	r3, [r3, #46]	@ zero_extendqisi2
 4188 0402 03F00203 		and	r3, r3, #2
 4189 0406 DBB2     		uxtb	r3, r3
 4190 0408 002B     		cmp	r3, #0
 4191 040a 15D0     		beq	.L197
1027:..\..\..\lvgl\version_6.1.2\lvgl\src\lv_objx/lv_page.c ****                 if(drag_vect.y == diff_y) { /*`scrl` is bouncing: drag pos. it somewhere and here i
 4192              		.loc 3 1027 0
 4193 040c B7F91E30 		ldrsh	r3, [r7, #30]
 4194 0410 B7F93C20 		ldrsh	r2, [r7, #60]
 4195 0414 9A42     		cmp	r2, r3
 4196 0416 40F0AE80 		bne	.L196
1028:..\..\..\lvgl\version_6.1.2\lvgl\src\lv_objx/lv_page.c ****                                                is reverted. Handle only the pos. because of drag*/
1029:..\..\..\lvgl\version_6.1.2\lvgl\src\lv_objx/lv_page.c ****                     new_y  = ori_coords->y1 - page_coords.y1;
 4197              		.loc 3 1029 0
 4198 041a 3B6C     		ldr	r3, [r7, #64]
 4199 041c B3F90230 		ldrsh	r3, [r3, #2]
 4200 0420 9AB2     		uxth	r2, r3
 4201 0422 B7F92A30 		ldrsh	r3, [r7, #42]
 4202 0426 9BB2     		uxth	r3, r3
 4203 0428 D31A     		subs	r3, r2, r3
 4204 042a 9BB2     		uxth	r3, r3
 4205 042c A7F85430 		strh	r3, [r7, #84]	@ movhi
1030:..\..\..\lvgl\version_6.1.2\lvgl\src\lv_objx/lv_page.c ****                     refr_y = true;
 4206              		.loc 3 1030 0
 4207 0430 0123     		movs	r3, #1
 4208 0432 87F85230 		strb	r3, [r7, #82]
 4209 0436 9EE0     		b	.L196
 4210              	.L197:
1031:..\..\..\lvgl\version_6.1.2\lvgl\src\lv_objx/lv_page.c ****                 }
1032:..\..\..\lvgl\version_6.1.2\lvgl\src\lv_objx/lv_page.c ****             }
1033:..\..\..\lvgl\version_6.1.2\lvgl\src\lv_objx/lv_page.c ****             /*The edges of the scrollable can not be in the page (minus vpad) */
1034:..\..\..\lvgl\version_6.1.2\lvgl\src\lv_objx/lv_page.c ****             else if(scrl_coords.y2 < page_coords.y2 - page_style->body.padding.bottom) {
 4211              		.loc 3 1034 0
 4212 0438 B7F92630 		ldrsh	r3, [r7, #38]
ARM GAS  C:\Users\tmj32\AppData\Local\Temp\ccFKuFvs.s 			page 101


 4213 043c 1A46     		mov	r2, r3
 4214 043e B7F92E30 		ldrsh	r3, [r7, #46]
 4215 0442 1946     		mov	r1, r3
 4216 0444 BB6C     		ldr	r3, [r7, #72]
 4217 0446 B3F92230 		ldrsh	r3, [r3, #34]
 4218 044a CB1A     		subs	r3, r1, r3
 4219 044c 9A42     		cmp	r2, r3
 4220 044e 4DDA     		bge	.L199
1035:..\..\..\lvgl\version_6.1.2\lvgl\src\lv_objx/lv_page.c ****                 new_y = lv_area_get_height(&page_coords) - lv_area_get_height(&scrl_coords) -
 4221              		.loc 3 1035 0
 4222 0450 07F12803 		add	r3, r7, #40
 4223 0454 1846     		mov	r0, r3
 4224 0456 FFF7FEFF 		bl	lv_area_get_height
 4225 045a 0346     		mov	r3, r0
 4226 045c 9CB2     		uxth	r4, r3
 4227 045e 07F12003 		add	r3, r7, #32
 4228 0462 1846     		mov	r0, r3
 4229 0464 FFF7FEFF 		bl	lv_area_get_height
 4230 0468 0346     		mov	r3, r0
 4231 046a 9BB2     		uxth	r3, r3
 4232 046c E31A     		subs	r3, r4, r3
 4233 046e 9AB2     		uxth	r2, r3
1036:..\..\..\lvgl\version_6.1.2\lvgl\src\lv_objx/lv_page.c ****                         page_style->body.padding.bottom; /* Bottom align */
 4234              		.loc 3 1036 0
 4235 0470 BB6C     		ldr	r3, [r7, #72]
 4236 0472 B3F92230 		ldrsh	r3, [r3, #34]
1035:..\..\..\lvgl\version_6.1.2\lvgl\src\lv_objx/lv_page.c ****                 new_y = lv_area_get_height(&page_coords) - lv_area_get_height(&scrl_coords) -
 4237              		.loc 3 1035 0
 4238 0476 9BB2     		uxth	r3, r3
 4239 0478 D31A     		subs	r3, r2, r3
 4240 047a 9BB2     		uxth	r3, r3
 4241 047c A7F85430 		strh	r3, [r7, #84]	@ movhi
1037:..\..\..\lvgl\version_6.1.2\lvgl\src\lv_objx/lv_page.c ****                 refr_y = true;
 4242              		.loc 3 1037 0
 4243 0480 0123     		movs	r3, #1
 4244 0482 87F85230 		strb	r3, [r7, #82]
1038:..\..\..\lvgl\version_6.1.2\lvgl\src\lv_objx/lv_page.c **** #if LV_USE_ANIMATION
1039:..\..\..\lvgl\version_6.1.2\lvgl\src\lv_objx/lv_page.c ****                 if(page_ext->edge_flash.enabled && page_ext->edge_flash.left_ip == 0 &&
 4245              		.loc 3 1039 0
 4246 0486 7B6C     		ldr	r3, [r7, #68]
 4247 0488 93F82830 		ldrb	r3, [r3, #40]	@ zero_extendqisi2
 4248 048c 03F00103 		and	r3, r3, #1
 4249 0490 DBB2     		uxtb	r3, r3
 4250 0492 002B     		cmp	r3, #0
 4251 0494 6FD0     		beq	.L196
 4252              		.loc 3 1039 0 is_stmt 0 discriminator 1
 4253 0496 7B6C     		ldr	r3, [r7, #68]
 4254 0498 93F82830 		ldrb	r3, [r3, #40]	@ zero_extendqisi2
 4255 049c 03F01003 		and	r3, r3, #16
 4256 04a0 DBB2     		uxtb	r3, r3
 4257 04a2 002B     		cmp	r3, #0
 4258 04a4 67D1     		bne	.L196
1040:..\..\..\lvgl\version_6.1.2\lvgl\src\lv_objx/lv_page.c ****                    page_ext->edge_flash.right_ip == 0 && page_ext->edge_flash.top_ip == 0 &&
 4259              		.loc 3 1040 0 is_stmt 1 discriminator 2
 4260 04a6 7B6C     		ldr	r3, [r7, #68]
 4261 04a8 93F82830 		ldrb	r3, [r3, #40]	@ zero_extendqisi2
 4262 04ac 03F00803 		and	r3, r3, #8
ARM GAS  C:\Users\tmj32\AppData\Local\Temp\ccFKuFvs.s 			page 102


 4263 04b0 DBB2     		uxtb	r3, r3
1039:..\..\..\lvgl\version_6.1.2\lvgl\src\lv_objx/lv_page.c ****                    page_ext->edge_flash.right_ip == 0 && page_ext->edge_flash.top_ip == 0 &&
 4264              		.loc 3 1039 0 discriminator 2
 4265 04b2 002B     		cmp	r3, #0
 4266 04b4 5FD1     		bne	.L196
 4267              		.loc 3 1040 0
 4268 04b6 7B6C     		ldr	r3, [r7, #68]
 4269 04b8 93F82830 		ldrb	r3, [r3, #40]	@ zero_extendqisi2
 4270 04bc 03F00203 		and	r3, r3, #2
 4271 04c0 DBB2     		uxtb	r3, r3
 4272 04c2 002B     		cmp	r3, #0
 4273 04c4 57D1     		bne	.L196
1041:..\..\..\lvgl\version_6.1.2\lvgl\src\lv_objx/lv_page.c ****                    page_ext->edge_flash.bottom_ip == 0) {
 4274              		.loc 3 1041 0 discriminator 1
 4275 04c6 7B6C     		ldr	r3, [r7, #68]
 4276 04c8 93F82830 		ldrb	r3, [r3, #40]	@ zero_extendqisi2
 4277 04cc 03F00403 		and	r3, r3, #4
 4278 04d0 DBB2     		uxtb	r3, r3
1040:..\..\..\lvgl\version_6.1.2\lvgl\src\lv_objx/lv_page.c ****                    page_ext->edge_flash.right_ip == 0 && page_ext->edge_flash.top_ip == 0 &&
 4279              		.loc 3 1040 0 discriminator 1
 4280 04d2 002B     		cmp	r3, #0
 4281 04d4 4FD1     		bne	.L196
1042:..\..\..\lvgl\version_6.1.2\lvgl\src\lv_objx/lv_page.c ****                     lv_page_start_edge_flash(page);
 4282              		.loc 3 1042 0
 4283 04d6 F86C     		ldr	r0, [r7, #76]
 4284 04d8 FFF7FEFF 		bl	lv_page_start_edge_flash
1043:..\..\..\lvgl\version_6.1.2\lvgl\src\lv_objx/lv_page.c ****                     page_ext->edge_flash.bottom_ip = 1;
 4285              		.loc 3 1043 0
 4286 04dc 7A6C     		ldr	r2, [r7, #68]
 4287 04de 92F82830 		ldrb	r3, [r2, #40]
 4288 04e2 43F00403 		orr	r3, r3, #4
 4289 04e6 82F82830 		strb	r3, [r2, #40]
 4290 04ea 44E0     		b	.L196
 4291              	.L199:
1044:..\..\..\lvgl\version_6.1.2\lvgl\src\lv_objx/lv_page.c ****                 }
1045:..\..\..\lvgl\version_6.1.2\lvgl\src\lv_objx/lv_page.c **** #endif
1046:..\..\..\lvgl\version_6.1.2\lvgl\src\lv_objx/lv_page.c ****             } else if(scrl_coords.y1 > page_coords.y1 + page_style->body.padding.top) {
 4292              		.loc 3 1046 0
 4293 04ec B7F92230 		ldrsh	r3, [r7, #34]
 4294 04f0 1A46     		mov	r2, r3
 4295 04f2 B7F92A30 		ldrsh	r3, [r7, #42]
 4296 04f6 1946     		mov	r1, r3
 4297 04f8 BB6C     		ldr	r3, [r7, #72]
 4298 04fa B3F92030 		ldrsh	r3, [r3, #32]
 4299 04fe 0B44     		add	r3, r3, r1
 4300 0500 9A42     		cmp	r2, r3
 4301 0502 38DD     		ble	.L196
1047:..\..\..\lvgl\version_6.1.2\lvgl\src\lv_objx/lv_page.c ****                 new_y  = page_style->body.padding.top; /*Top align*/
 4302              		.loc 3 1047 0
 4303 0504 BB6C     		ldr	r3, [r7, #72]
 4304 0506 1B8C     		ldrh	r3, [r3, #32]	@ movhi
 4305 0508 A7F85430 		strh	r3, [r7, #84]	@ movhi
1048:..\..\..\lvgl\version_6.1.2\lvgl\src\lv_objx/lv_page.c ****                 refr_y = true;
 4306              		.loc 3 1048 0
 4307 050c 0123     		movs	r3, #1
 4308 050e 87F85230 		strb	r3, [r7, #82]
1049:..\..\..\lvgl\version_6.1.2\lvgl\src\lv_objx/lv_page.c **** #if LV_USE_ANIMATION
ARM GAS  C:\Users\tmj32\AppData\Local\Temp\ccFKuFvs.s 			page 103


1050:..\..\..\lvgl\version_6.1.2\lvgl\src\lv_objx/lv_page.c ****                 if(page_ext->edge_flash.enabled && page_ext->edge_flash.left_ip == 0 &&
 4309              		.loc 3 1050 0
 4310 0512 7B6C     		ldr	r3, [r7, #68]
 4311 0514 93F82830 		ldrb	r3, [r3, #40]	@ zero_extendqisi2
 4312 0518 03F00103 		and	r3, r3, #1
 4313 051c DBB2     		uxtb	r3, r3
 4314 051e 002B     		cmp	r3, #0
 4315 0520 29D0     		beq	.L196
 4316              		.loc 3 1050 0 is_stmt 0 discriminator 1
 4317 0522 7B6C     		ldr	r3, [r7, #68]
 4318 0524 93F82830 		ldrb	r3, [r3, #40]	@ zero_extendqisi2
 4319 0528 03F01003 		and	r3, r3, #16
 4320 052c DBB2     		uxtb	r3, r3
 4321 052e 002B     		cmp	r3, #0
 4322 0530 21D1     		bne	.L196
1051:..\..\..\lvgl\version_6.1.2\lvgl\src\lv_objx/lv_page.c ****                    page_ext->edge_flash.right_ip == 0 && page_ext->edge_flash.top_ip == 0 &&
 4323              		.loc 3 1051 0 is_stmt 1 discriminator 2
 4324 0532 7B6C     		ldr	r3, [r7, #68]
 4325 0534 93F82830 		ldrb	r3, [r3, #40]	@ zero_extendqisi2
 4326 0538 03F00803 		and	r3, r3, #8
 4327 053c DBB2     		uxtb	r3, r3
1050:..\..\..\lvgl\version_6.1.2\lvgl\src\lv_objx/lv_page.c ****                    page_ext->edge_flash.right_ip == 0 && page_ext->edge_flash.top_ip == 0 &&
 4328              		.loc 3 1050 0 discriminator 2
 4329 053e 002B     		cmp	r3, #0
 4330 0540 19D1     		bne	.L196
 4331              		.loc 3 1051 0
 4332 0542 7B6C     		ldr	r3, [r7, #68]
 4333 0544 93F82830 		ldrb	r3, [r3, #40]	@ zero_extendqisi2
 4334 0548 03F00203 		and	r3, r3, #2
 4335 054c DBB2     		uxtb	r3, r3
 4336 054e 002B     		cmp	r3, #0
 4337 0550 11D1     		bne	.L196
1052:..\..\..\lvgl\version_6.1.2\lvgl\src\lv_objx/lv_page.c ****                    page_ext->edge_flash.bottom_ip == 0) {
 4338              		.loc 3 1052 0 discriminator 1
 4339 0552 7B6C     		ldr	r3, [r7, #68]
 4340 0554 93F82830 		ldrb	r3, [r3, #40]	@ zero_extendqisi2
 4341 0558 03F00403 		and	r3, r3, #4
 4342 055c DBB2     		uxtb	r3, r3
1051:..\..\..\lvgl\version_6.1.2\lvgl\src\lv_objx/lv_page.c ****                    page_ext->edge_flash.right_ip == 0 && page_ext->edge_flash.top_ip == 0 &&
 4343              		.loc 3 1051 0 discriminator 1
 4344 055e 002B     		cmp	r3, #0
 4345 0560 09D1     		bne	.L196
1053:..\..\..\lvgl\version_6.1.2\lvgl\src\lv_objx/lv_page.c ****                     lv_page_start_edge_flash(page);
 4346              		.loc 3 1053 0
 4347 0562 F86C     		ldr	r0, [r7, #76]
 4348 0564 FFF7FEFF 		bl	lv_page_start_edge_flash
1054:..\..\..\lvgl\version_6.1.2\lvgl\src\lv_objx/lv_page.c ****                     page_ext->edge_flash.top_ip = 1;
 4349              		.loc 3 1054 0
 4350 0568 7A6C     		ldr	r2, [r7, #68]
 4351 056a 92F82830 		ldrb	r3, [r2, #40]
 4352 056e 43F00203 		orr	r3, r3, #2
 4353 0572 82F82830 		strb	r3, [r2, #40]
 4354              	.L196:
1055:..\..\..\lvgl\version_6.1.2\lvgl\src\lv_objx/lv_page.c ****                 }
1056:..\..\..\lvgl\version_6.1.2\lvgl\src\lv_objx/lv_page.c **** #endif
1057:..\..\..\lvgl\version_6.1.2\lvgl\src\lv_objx/lv_page.c ****             }
1058:..\..\..\lvgl\version_6.1.2\lvgl\src\lv_objx/lv_page.c ****         }
ARM GAS  C:\Users\tmj32\AppData\Local\Temp\ccFKuFvs.s 			page 104


1059:..\..\..\lvgl\version_6.1.2\lvgl\src\lv_objx/lv_page.c **** 
1060:..\..\..\lvgl\version_6.1.2\lvgl\src\lv_objx/lv_page.c ****         if(refr_x || refr_y) {
 4355              		.loc 3 1060 0
 4356 0576 97F85330 		ldrb	r3, [r7, #83]	@ zero_extendqisi2
 4357 057a 002B     		cmp	r3, #0
 4358 057c 03D1     		bne	.L201
 4359              		.loc 3 1060 0 is_stmt 0 discriminator 1
 4360 057e 97F85230 		ldrb	r3, [r7, #82]	@ zero_extendqisi2
 4361 0582 002B     		cmp	r3, #0
 4362 0584 31D0     		beq	.L202
 4363              	.L201:
1061:..\..\..\lvgl\version_6.1.2\lvgl\src\lv_objx/lv_page.c ****             lv_obj_set_pos(scrl, new_x, new_y);
 4364              		.loc 3 1061 0 is_stmt 1
 4365 0586 B7F95420 		ldrsh	r2, [r7, #84]
 4366 058a B7F95630 		ldrsh	r3, [r7, #86]
 4367 058e 1946     		mov	r1, r3
 4368 0590 F868     		ldr	r0, [r7, #12]
 4369 0592 FFF7FEFF 		bl	lv_obj_set_pos
1062:..\..\..\lvgl\version_6.1.2\lvgl\src\lv_objx/lv_page.c **** 
1063:..\..\..\lvgl\version_6.1.2\lvgl\src\lv_objx/lv_page.c ****             if(page_ext->scroll_prop_ip) {
 4370              		.loc 3 1063 0
 4371 0596 7B6C     		ldr	r3, [r7, #68]
 4372 0598 93F82E30 		ldrb	r3, [r3, #46]	@ zero_extendqisi2
 4373 059c 03F00203 		and	r3, r3, #2
 4374 05a0 DBB2     		uxtb	r3, r3
 4375 05a2 002B     		cmp	r3, #0
 4376 05a4 21D0     		beq	.L202
1064:..\..\..\lvgl\version_6.1.2\lvgl\src\lv_objx/lv_page.c ****                 if(refr_y) lv_obj_set_y(page_parent, lv_obj_get_y(page_parent) + diff_y);
 4377              		.loc 3 1064 0
 4378 05a6 97F85230 		ldrb	r3, [r7, #82]	@ zero_extendqisi2
 4379 05aa 002B     		cmp	r3, #0
 4380 05ac 0CD0     		beq	.L203
 4381              		.loc 3 1064 0 is_stmt 0 discriminator 1
 4382 05ae 786B     		ldr	r0, [r7, #52]
 4383 05b0 FFF7FEFF 		bl	lv_obj_get_y
 4384 05b4 0346     		mov	r3, r0
 4385 05b6 9AB2     		uxth	r2, r3
 4386 05b8 BB8F     		ldrh	r3, [r7, #60]
 4387 05ba 1344     		add	r3, r3, r2
 4388 05bc 9BB2     		uxth	r3, r3
 4389 05be 1BB2     		sxth	r3, r3
 4390 05c0 1946     		mov	r1, r3
 4391 05c2 786B     		ldr	r0, [r7, #52]
 4392 05c4 FFF7FEFF 		bl	lv_obj_set_y
 4393              	.L203:
1065:..\..\..\lvgl\version_6.1.2\lvgl\src\lv_objx/lv_page.c ****                 if(refr_x) lv_obj_set_x(page_parent, lv_obj_get_x(page_parent) + diff_x);
 4394              		.loc 3 1065 0 is_stmt 1
 4395 05c8 97F85330 		ldrb	r3, [r7, #83]	@ zero_extendqisi2
 4396 05cc 002B     		cmp	r3, #0
 4397 05ce 0CD0     		beq	.L202
 4398              		.loc 3 1065 0 is_stmt 0 discriminator 1
 4399 05d0 786B     		ldr	r0, [r7, #52]
 4400 05d2 FFF7FEFF 		bl	lv_obj_get_x
 4401 05d6 0346     		mov	r3, r0
 4402 05d8 9AB2     		uxth	r2, r3
 4403 05da FB8F     		ldrh	r3, [r7, #62]
 4404 05dc 1344     		add	r3, r3, r2
ARM GAS  C:\Users\tmj32\AppData\Local\Temp\ccFKuFvs.s 			page 105


 4405 05de 9BB2     		uxth	r3, r3
 4406 05e0 1BB2     		sxth	r3, r3
 4407 05e2 1946     		mov	r1, r3
 4408 05e4 786B     		ldr	r0, [r7, #52]
 4409 05e6 FFF7FEFF 		bl	lv_obj_set_x
 4410              	.L202:
1066:..\..\..\lvgl\version_6.1.2\lvgl\src\lv_objx/lv_page.c ****             }
1067:..\..\..\lvgl\version_6.1.2\lvgl\src\lv_objx/lv_page.c ****         }
1068:..\..\..\lvgl\version_6.1.2\lvgl\src\lv_objx/lv_page.c **** 
1069:..\..\..\lvgl\version_6.1.2\lvgl\src\lv_objx/lv_page.c ****         lv_page_sb_refresh(page);
 4411              		.loc 3 1069 0 is_stmt 1
 4412 05ea F86C     		ldr	r0, [r7, #76]
 4413 05ec FFF7FEFF 		bl	lv_page_sb_refresh
 4414              	.LBE13:
 4415 05f0 A7E0     		b	.L204
 4416              	.L181:
1070:..\..\..\lvgl\version_6.1.2\lvgl\src\lv_objx/lv_page.c ****     } else if(sign == LV_SIGNAL_DRAG_END) {
 4417              		.loc 3 1070 0
 4418 05f2 FB7A     		ldrb	r3, [r7, #11]	@ zero_extendqisi2
 4419 05f4 0F2B     		cmp	r3, #15
 4420 05f6 40F09E80 		bne	.L205
1071:..\..\..\lvgl\version_6.1.2\lvgl\src\lv_objx/lv_page.c **** 
1072:..\..\..\lvgl\version_6.1.2\lvgl\src\lv_objx/lv_page.c ****         /*Scroll propagation is finished on drag end*/
1073:..\..\..\lvgl\version_6.1.2\lvgl\src\lv_objx/lv_page.c ****         page_ext->scroll_prop_ip = 0;
 4421              		.loc 3 1073 0
 4422 05fa 7A6C     		ldr	r2, [r7, #68]
 4423 05fc 92F82E30 		ldrb	r3, [r2, #46]
 4424 0600 6FF34103 		bfc	r3, #1, #1
 4425 0604 82F82E30 		strb	r3, [r2, #46]
1074:..\..\..\lvgl\version_6.1.2\lvgl\src\lv_objx/lv_page.c **** 
1075:..\..\..\lvgl\version_6.1.2\lvgl\src\lv_objx/lv_page.c ****         /*Hide scrollbars if required*/
1076:..\..\..\lvgl\version_6.1.2\lvgl\src\lv_objx/lv_page.c ****         if(page_ext->sb.mode == LV_SB_MODE_DRAG) {
 4426              		.loc 3 1076 0
 4427 0608 7B6C     		ldr	r3, [r7, #68]
 4428 060a 1B7F     		ldrb	r3, [r3, #28]	@ zero_extendqisi2
 4429 060c 03F01C03 		and	r3, r3, #28
 4430 0610 DBB2     		uxtb	r3, r3
 4431 0612 082B     		cmp	r3, #8
 4432 0614 40F09580 		bne	.L204
 4433              	.LBB14:
1077:..\..\..\lvgl\version_6.1.2\lvgl\src\lv_objx/lv_page.c ****             lv_area_t sb_area_tmp;
1078:..\..\..\lvgl\version_6.1.2\lvgl\src\lv_objx/lv_page.c ****             if(page_ext->sb.hor_draw) {
 4434              		.loc 3 1078 0
 4435 0618 7B6C     		ldr	r3, [r7, #68]
 4436 061a 1B7F     		ldrb	r3, [r3, #28]	@ zero_extendqisi2
 4437 061c 03F00103 		and	r3, r3, #1
 4438 0620 DBB2     		uxtb	r3, r3
 4439 0622 002B     		cmp	r3, #0
 4440 0624 3FD0     		beq	.L207
1079:..\..\..\lvgl\version_6.1.2\lvgl\src\lv_objx/lv_page.c ****                 lv_area_copy(&sb_area_tmp, &page_ext->sb.hor_area);
 4441              		.loc 3 1079 0
 4442 0626 7B6C     		ldr	r3, [r7, #68]
 4443 0628 03F10C02 		add	r2, r3, #12
 4444 062c 07F11403 		add	r3, r7, #20
 4445 0630 1146     		mov	r1, r2
 4446 0632 1846     		mov	r0, r3
 4447 0634 FFF7FEFF 		bl	lv_area_copy
ARM GAS  C:\Users\tmj32\AppData\Local\Temp\ccFKuFvs.s 			page 106


1080:..\..\..\lvgl\version_6.1.2\lvgl\src\lv_objx/lv_page.c ****                 sb_area_tmp.x1 += page->coords.x1;
 4448              		.loc 3 1080 0
 4449 0638 B7F91430 		ldrsh	r3, [r7, #20]
 4450 063c 9AB2     		uxth	r2, r3
 4451 063e FB6C     		ldr	r3, [r7, #76]
 4452 0640 B3F91030 		ldrsh	r3, [r3, #16]
 4453 0644 9BB2     		uxth	r3, r3
 4454 0646 1344     		add	r3, r3, r2
 4455 0648 9BB2     		uxth	r3, r3
 4456 064a 1BB2     		sxth	r3, r3
 4457 064c BB82     		strh	r3, [r7, #20]	@ movhi
1081:..\..\..\lvgl\version_6.1.2\lvgl\src\lv_objx/lv_page.c ****                 sb_area_tmp.y1 += page->coords.y1;
 4458              		.loc 3 1081 0
 4459 064e B7F91630 		ldrsh	r3, [r7, #22]
 4460 0652 9AB2     		uxth	r2, r3
 4461 0654 FB6C     		ldr	r3, [r7, #76]
 4462 0656 B3F91230 		ldrsh	r3, [r3, #18]
 4463 065a 9BB2     		uxth	r3, r3
 4464 065c 1344     		add	r3, r3, r2
 4465 065e 9BB2     		uxth	r3, r3
 4466 0660 1BB2     		sxth	r3, r3
 4467 0662 FB82     		strh	r3, [r7, #22]	@ movhi
1082:..\..\..\lvgl\version_6.1.2\lvgl\src\lv_objx/lv_page.c ****                 sb_area_tmp.x2 += page->coords.x1;
 4468              		.loc 3 1082 0
 4469 0664 B7F91830 		ldrsh	r3, [r7, #24]
 4470 0668 9AB2     		uxth	r2, r3
 4471 066a FB6C     		ldr	r3, [r7, #76]
 4472 066c B3F91030 		ldrsh	r3, [r3, #16]
 4473 0670 9BB2     		uxth	r3, r3
 4474 0672 1344     		add	r3, r3, r2
 4475 0674 9BB2     		uxth	r3, r3
 4476 0676 1BB2     		sxth	r3, r3
 4477 0678 3B83     		strh	r3, [r7, #24]	@ movhi
1083:..\..\..\lvgl\version_6.1.2\lvgl\src\lv_objx/lv_page.c ****                 sb_area_tmp.y2 += page->coords.y1;
 4478              		.loc 3 1083 0
 4479 067a B7F91A30 		ldrsh	r3, [r7, #26]
 4480 067e 9AB2     		uxth	r2, r3
 4481 0680 FB6C     		ldr	r3, [r7, #76]
 4482 0682 B3F91230 		ldrsh	r3, [r3, #18]
 4483 0686 9BB2     		uxth	r3, r3
 4484 0688 1344     		add	r3, r3, r2
 4485 068a 9BB2     		uxth	r3, r3
 4486 068c 1BB2     		sxth	r3, r3
 4487 068e 7B83     		strh	r3, [r7, #26]	@ movhi
1084:..\..\..\lvgl\version_6.1.2\lvgl\src\lv_objx/lv_page.c ****                 lv_obj_invalidate_area(page, &sb_area_tmp);
 4488              		.loc 3 1084 0
 4489 0690 07F11403 		add	r3, r7, #20
 4490 0694 1946     		mov	r1, r3
 4491 0696 F86C     		ldr	r0, [r7, #76]
 4492 0698 FFF7FEFF 		bl	lv_obj_invalidate_area
1085:..\..\..\lvgl\version_6.1.2\lvgl\src\lv_objx/lv_page.c ****                 page_ext->sb.hor_draw = 0;
 4493              		.loc 3 1085 0
 4494 069c 7A6C     		ldr	r2, [r7, #68]
 4495 069e 137F     		ldrb	r3, [r2, #28]
 4496 06a0 6FF30003 		bfc	r3, #0, #1
 4497 06a4 1377     		strb	r3, [r2, #28]
 4498              	.L207:
ARM GAS  C:\Users\tmj32\AppData\Local\Temp\ccFKuFvs.s 			page 107


1086:..\..\..\lvgl\version_6.1.2\lvgl\src\lv_objx/lv_page.c ****             }
1087:..\..\..\lvgl\version_6.1.2\lvgl\src\lv_objx/lv_page.c ****             if(page_ext->sb.ver_draw) {
 4499              		.loc 3 1087 0
 4500 06a6 7B6C     		ldr	r3, [r7, #68]
 4501 06a8 1B7F     		ldrb	r3, [r3, #28]	@ zero_extendqisi2
 4502 06aa 03F00203 		and	r3, r3, #2
 4503 06ae DBB2     		uxtb	r3, r3
 4504 06b0 002B     		cmp	r3, #0
 4505 06b2 46D0     		beq	.L204
1088:..\..\..\lvgl\version_6.1.2\lvgl\src\lv_objx/lv_page.c ****                 lv_area_copy(&sb_area_tmp, &page_ext->sb.ver_area);
 4506              		.loc 3 1088 0
 4507 06b4 7B6C     		ldr	r3, [r7, #68]
 4508 06b6 03F11402 		add	r2, r3, #20
 4509 06ba 07F11403 		add	r3, r7, #20
 4510 06be 1146     		mov	r1, r2
 4511 06c0 1846     		mov	r0, r3
 4512 06c2 FFF7FEFF 		bl	lv_area_copy
1089:..\..\..\lvgl\version_6.1.2\lvgl\src\lv_objx/lv_page.c ****                 sb_area_tmp.x1 += page->coords.x1;
 4513              		.loc 3 1089 0
 4514 06c6 B7F91430 		ldrsh	r3, [r7, #20]
 4515 06ca 9AB2     		uxth	r2, r3
 4516 06cc FB6C     		ldr	r3, [r7, #76]
 4517 06ce B3F91030 		ldrsh	r3, [r3, #16]
 4518 06d2 9BB2     		uxth	r3, r3
 4519 06d4 1344     		add	r3, r3, r2
 4520 06d6 9BB2     		uxth	r3, r3
 4521 06d8 1BB2     		sxth	r3, r3
 4522 06da BB82     		strh	r3, [r7, #20]	@ movhi
1090:..\..\..\lvgl\version_6.1.2\lvgl\src\lv_objx/lv_page.c ****                 sb_area_tmp.y1 += page->coords.y1;
 4523              		.loc 3 1090 0
 4524 06dc B7F91630 		ldrsh	r3, [r7, #22]
 4525 06e0 9AB2     		uxth	r2, r3
 4526 06e2 FB6C     		ldr	r3, [r7, #76]
 4527 06e4 B3F91230 		ldrsh	r3, [r3, #18]
 4528 06e8 9BB2     		uxth	r3, r3
 4529 06ea 1344     		add	r3, r3, r2
 4530 06ec 9BB2     		uxth	r3, r3
 4531 06ee 1BB2     		sxth	r3, r3
 4532 06f0 FB82     		strh	r3, [r7, #22]	@ movhi
1091:..\..\..\lvgl\version_6.1.2\lvgl\src\lv_objx/lv_page.c ****                 sb_area_tmp.x2 += page->coords.x1;
 4533              		.loc 3 1091 0
 4534 06f2 B7F91830 		ldrsh	r3, [r7, #24]
 4535 06f6 9AB2     		uxth	r2, r3
 4536 06f8 FB6C     		ldr	r3, [r7, #76]
 4537 06fa B3F91030 		ldrsh	r3, [r3, #16]
 4538 06fe 9BB2     		uxth	r3, r3
 4539 0700 1344     		add	r3, r3, r2
 4540 0702 9BB2     		uxth	r3, r3
 4541 0704 1BB2     		sxth	r3, r3
 4542 0706 3B83     		strh	r3, [r7, #24]	@ movhi
1092:..\..\..\lvgl\version_6.1.2\lvgl\src\lv_objx/lv_page.c ****                 sb_area_tmp.y2 += page->coords.y1;
 4543              		.loc 3 1092 0
 4544 0708 B7F91A30 		ldrsh	r3, [r7, #26]
 4545 070c 9AB2     		uxth	r2, r3
 4546 070e FB6C     		ldr	r3, [r7, #76]
 4547 0710 B3F91230 		ldrsh	r3, [r3, #18]
 4548 0714 9BB2     		uxth	r3, r3
ARM GAS  C:\Users\tmj32\AppData\Local\Temp\ccFKuFvs.s 			page 108


 4549 0716 1344     		add	r3, r3, r2
 4550 0718 9BB2     		uxth	r3, r3
 4551 071a 1BB2     		sxth	r3, r3
 4552 071c 7B83     		strh	r3, [r7, #26]	@ movhi
1093:..\..\..\lvgl\version_6.1.2\lvgl\src\lv_objx/lv_page.c ****                 lv_obj_invalidate_area(page, &sb_area_tmp);
 4553              		.loc 3 1093 0
 4554 071e 07F11403 		add	r3, r7, #20
 4555 0722 1946     		mov	r1, r3
 4556 0724 F86C     		ldr	r0, [r7, #76]
 4557 0726 FFF7FEFF 		bl	lv_obj_invalidate_area
1094:..\..\..\lvgl\version_6.1.2\lvgl\src\lv_objx/lv_page.c ****                 page_ext->sb.ver_draw = 0;
 4558              		.loc 3 1094 0
 4559 072a 7A6C     		ldr	r2, [r7, #68]
 4560 072c 137F     		ldrb	r3, [r2, #28]
 4561 072e 6FF34103 		bfc	r3, #1, #1
 4562 0732 1377     		strb	r3, [r2, #28]
 4563 0734 05E0     		b	.L204
 4564              	.L205:
 4565              	.LBE14:
1095:..\..\..\lvgl\version_6.1.2\lvgl\src\lv_objx/lv_page.c ****             }
1096:..\..\..\lvgl\version_6.1.2\lvgl\src\lv_objx/lv_page.c ****         }
1097:..\..\..\lvgl\version_6.1.2\lvgl\src\lv_objx/lv_page.c ****     } else if(sign == LV_SIGNAL_CLEANUP) {
 4566              		.loc 3 1097 0
 4567 0736 FB7A     		ldrb	r3, [r7, #11]	@ zero_extendqisi2
 4568 0738 002B     		cmp	r3, #0
 4569 073a 02D1     		bne	.L204
1098:..\..\..\lvgl\version_6.1.2\lvgl\src\lv_objx/lv_page.c ****         page_ext->scrl = NULL;
 4570              		.loc 3 1098 0
 4571 073c 7B6C     		ldr	r3, [r7, #68]
 4572 073e 0022     		movs	r2, #0
 4573 0740 5A60     		str	r2, [r3, #4]
 4574              	.L204:
1099:..\..\..\lvgl\version_6.1.2\lvgl\src\lv_objx/lv_page.c ****     }
1100:..\..\..\lvgl\version_6.1.2\lvgl\src\lv_objx/lv_page.c **** 
1101:..\..\..\lvgl\version_6.1.2\lvgl\src\lv_objx/lv_page.c ****     return res;
 4575              		.loc 3 1101 0
 4576 0742 97F85130 		ldrb	r3, [r7, #81]	@ zero_extendqisi2
 4577              	.L179:
1102:..\..\..\lvgl\version_6.1.2\lvgl\src\lv_objx/lv_page.c **** }
 4578              		.loc 3 1102 0
 4579 0746 1846     		mov	r0, r3
 4580 0748 5C37     		adds	r7, r7, #92
 4581              		.cfi_def_cfa_offset 12
 4582 074a BD46     		mov	sp, r7
 4583              		.cfi_def_cfa_register 13
 4584              		@ sp needed
 4585 074c 90BD     		pop	{r4, r7, pc}
 4586              		.cfi_endproc
 4587              	.LFE72:
 4588              		.size	lv_page_scrollable_signal, .-lv_page_scrollable_signal
 4589 074e 00BF     		.section	.text.scrl_def_event_cb,"ax",%progbits
 4590              		.align	2
 4591              		.thumb
 4592              		.thumb_func
 4593              		.type	scrl_def_event_cb, %function
 4594              	scrl_def_event_cb:
 4595              	.LFB73:
ARM GAS  C:\Users\tmj32\AppData\Local\Temp\ccFKuFvs.s 			page 109


1103:..\..\..\lvgl\version_6.1.2\lvgl\src\lv_objx/lv_page.c **** 
1104:..\..\..\lvgl\version_6.1.2\lvgl\src\lv_objx/lv_page.c **** /**
1105:..\..\..\lvgl\version_6.1.2\lvgl\src\lv_objx/lv_page.c ****  * Propagate the input device related event of the scrollable to the parent page background
1106:..\..\..\lvgl\version_6.1.2\lvgl\src\lv_objx/lv_page.c ****  * It is used by default if the scrollable's event is not specified
1107:..\..\..\lvgl\version_6.1.2\lvgl\src\lv_objx/lv_page.c ****  * @param scrl pointer to the page's scrollable object
1108:..\..\..\lvgl\version_6.1.2\lvgl\src\lv_objx/lv_page.c ****  * @param event type of the event
1109:..\..\..\lvgl\version_6.1.2\lvgl\src\lv_objx/lv_page.c ****  * @param data data of the event
1110:..\..\..\lvgl\version_6.1.2\lvgl\src\lv_objx/lv_page.c ****  */
1111:..\..\..\lvgl\version_6.1.2\lvgl\src\lv_objx/lv_page.c **** static void scrl_def_event_cb(lv_obj_t * scrl, lv_event_t event)
1112:..\..\..\lvgl\version_6.1.2\lvgl\src\lv_objx/lv_page.c **** {
 4596              		.loc 3 1112 0
 4597              		.cfi_startproc
 4598              		@ args = 0, pretend = 0, frame = 16
 4599              		@ frame_needed = 1, uses_anonymous_args = 0
 4600 0000 80B5     		push	{r7, lr}
 4601              		.cfi_def_cfa_offset 8
 4602              		.cfi_offset 7, -8
 4603              		.cfi_offset 14, -4
 4604 0002 84B0     		sub	sp, sp, #16
 4605              		.cfi_def_cfa_offset 24
 4606 0004 00AF     		add	r7, sp, #0
 4607              		.cfi_def_cfa_register 7
 4608 0006 7860     		str	r0, [r7, #4]
 4609 0008 0B46     		mov	r3, r1
 4610 000a FB70     		strb	r3, [r7, #3]
1113:..\..\..\lvgl\version_6.1.2\lvgl\src\lv_objx/lv_page.c ****     lv_obj_t * page = lv_obj_get_parent(scrl);
 4611              		.loc 3 1113 0
 4612 000c 7868     		ldr	r0, [r7, #4]
 4613 000e FFF7FEFF 		bl	lv_obj_get_parent
 4614 0012 F860     		str	r0, [r7, #12]
1114:..\..\..\lvgl\version_6.1.2\lvgl\src\lv_objx/lv_page.c **** 
1115:..\..\..\lvgl\version_6.1.2\lvgl\src\lv_objx/lv_page.c ****     /*clang-format off*/
1116:..\..\..\lvgl\version_6.1.2\lvgl\src\lv_objx/lv_page.c ****     if(event == LV_EVENT_PRESSED || event == LV_EVENT_PRESSING || event == LV_EVENT_PRESS_LOST ||
 4615              		.loc 3 1116 0
 4616 0014 FB78     		ldrb	r3, [r7, #3]	@ zero_extendqisi2
 4617 0016 002B     		cmp	r3, #0
 4618 0018 1DD0     		beq	.L212
 4619              		.loc 3 1116 0 is_stmt 0 discriminator 1
 4620 001a FB78     		ldrb	r3, [r7, #3]	@ zero_extendqisi2
 4621 001c 012B     		cmp	r3, #1
 4622 001e 1AD0     		beq	.L212
 4623              		.loc 3 1116 0 discriminator 2
 4624 0020 FB78     		ldrb	r3, [r7, #3]	@ zero_extendqisi2
 4625 0022 022B     		cmp	r3, #2
 4626 0024 17D0     		beq	.L212
 4627              		.loc 3 1116 0 discriminator 3
 4628 0026 FB78     		ldrb	r3, [r7, #3]	@ zero_extendqisi2
 4629 0028 072B     		cmp	r3, #7
 4630 002a 14D0     		beq	.L212
1117:..\..\..\lvgl\version_6.1.2\lvgl\src\lv_objx/lv_page.c ****        event == LV_EVENT_RELEASED || event == LV_EVENT_SHORT_CLICKED || event == LV_EVENT_CLICKED |
 4631              		.loc 3 1117 0 is_stmt 1
 4632 002c FB78     		ldrb	r3, [r7, #3]	@ zero_extendqisi2
 4633 002e 032B     		cmp	r3, #3
 4634 0030 11D0     		beq	.L212
 4635              		.loc 3 1117 0 is_stmt 0 discriminator 1
 4636 0032 FB78     		ldrb	r3, [r7, #3]	@ zero_extendqisi2
 4637 0034 062B     		cmp	r3, #6
ARM GAS  C:\Users\tmj32\AppData\Local\Temp\ccFKuFvs.s 			page 110


 4638 0036 0ED0     		beq	.L212
 4639              		.loc 3 1117 0 discriminator 2
 4640 0038 FB78     		ldrb	r3, [r7, #3]	@ zero_extendqisi2
 4641 003a 042B     		cmp	r3, #4
 4642 003c 0BD0     		beq	.L212
1118:..\..\..\lvgl\version_6.1.2\lvgl\src\lv_objx/lv_page.c ****        event == LV_EVENT_LONG_PRESSED || event == LV_EVENT_LONG_PRESSED_REPEAT ||
 4643              		.loc 3 1118 0 is_stmt 1
 4644 003e FB78     		ldrb	r3, [r7, #3]	@ zero_extendqisi2
 4645 0040 052B     		cmp	r3, #5
 4646 0042 08D0     		beq	.L212
 4647              		.loc 3 1118 0 is_stmt 0 discriminator 1
 4648 0044 FB78     		ldrb	r3, [r7, #3]	@ zero_extendqisi2
 4649 0046 082B     		cmp	r3, #8
 4650 0048 05D0     		beq	.L212
1119:..\..\..\lvgl\version_6.1.2\lvgl\src\lv_objx/lv_page.c ****        event == LV_EVENT_DRAG_BEGIN || event == LV_EVENT_DRAG_END || event == LV_EVENT_DRAG_THROW_B
 4651              		.loc 3 1119 0 is_stmt 1
 4652 004a FB78     		ldrb	r3, [r7, #3]	@ zero_extendqisi2
 4653 004c 092B     		cmp	r3, #9
 4654 004e 02D0     		beq	.L212
 4655              		.loc 3 1119 0 is_stmt 0 discriminator 1
 4656 0050 FB78     		ldrb	r3, [r7, #3]	@ zero_extendqisi2
 4657 0052 0A2B     		cmp	r3, #10
 4658 0054 07D1     		bne	.L214
 4659              	.L212:
1120:..\..\..\lvgl\version_6.1.2\lvgl\src\lv_objx/lv_page.c ****         lv_event_send(page, event, lv_event_get_data());
 4660              		.loc 3 1120 0 is_stmt 1
 4661 0056 FFF7FEFF 		bl	lv_event_get_data
 4662 005a 0246     		mov	r2, r0
 4663 005c FB78     		ldrb	r3, [r7, #3]	@ zero_extendqisi2
 4664 005e 1946     		mov	r1, r3
 4665 0060 F868     		ldr	r0, [r7, #12]
 4666 0062 FFF7FEFF 		bl	lv_event_send
 4667              	.L214:
1121:..\..\..\lvgl\version_6.1.2\lvgl\src\lv_objx/lv_page.c ****     }
1122:..\..\..\lvgl\version_6.1.2\lvgl\src\lv_objx/lv_page.c ****     /*clang-format on*/
1123:..\..\..\lvgl\version_6.1.2\lvgl\src\lv_objx/lv_page.c **** }
 4668              		.loc 3 1123 0
 4669 0066 00BF     		nop
 4670 0068 1037     		adds	r7, r7, #16
 4671              		.cfi_def_cfa_offset 8
 4672 006a BD46     		mov	sp, r7
 4673              		.cfi_def_cfa_register 13
 4674              		@ sp needed
 4675 006c 80BD     		pop	{r7, pc}
 4676              		.cfi_endproc
 4677              	.LFE73:
 4678              		.size	scrl_def_event_cb, .-scrl_def_event_cb
 4679 006e 00BF     		.section	.text.lv_page_sb_refresh,"ax",%progbits
 4680              		.align	2
 4681              		.thumb
 4682              		.thumb_func
 4683              		.type	lv_page_sb_refresh, %function
 4684              	lv_page_sb_refresh:
 4685              	.LFB74:
1124:..\..\..\lvgl\version_6.1.2\lvgl\src\lv_objx/lv_page.c **** 
1125:..\..\..\lvgl\version_6.1.2\lvgl\src\lv_objx/lv_page.c **** /**
1126:..\..\..\lvgl\version_6.1.2\lvgl\src\lv_objx/lv_page.c ****  * Refresh the position and size of the scroll bars.
ARM GAS  C:\Users\tmj32\AppData\Local\Temp\ccFKuFvs.s 			page 111


1127:..\..\..\lvgl\version_6.1.2\lvgl\src\lv_objx/lv_page.c ****  * @param page pointer to a page object
1128:..\..\..\lvgl\version_6.1.2\lvgl\src\lv_objx/lv_page.c ****  */
1129:..\..\..\lvgl\version_6.1.2\lvgl\src\lv_objx/lv_page.c **** static void lv_page_sb_refresh(lv_obj_t * page)
1130:..\..\..\lvgl\version_6.1.2\lvgl\src\lv_objx/lv_page.c **** {
 4686              		.loc 3 1130 0
 4687              		.cfi_startproc
 4688              		@ args = 0, pretend = 0, frame = 48
 4689              		@ frame_needed = 1, uses_anonymous_args = 0
 4690 0000 F0B5     		push	{r4, r5, r6, r7, lr}
 4691              		.cfi_def_cfa_offset 20
 4692              		.cfi_offset 4, -20
 4693              		.cfi_offset 5, -16
 4694              		.cfi_offset 6, -12
 4695              		.cfi_offset 7, -8
 4696              		.cfi_offset 14, -4
 4697 0002 8DB0     		sub	sp, sp, #52
 4698              		.cfi_def_cfa_offset 72
 4699 0004 00AF     		add	r7, sp, #0
 4700              		.cfi_def_cfa_register 7
 4701 0006 7860     		str	r0, [r7, #4]
1131:..\..\..\lvgl\version_6.1.2\lvgl\src\lv_objx/lv_page.c ****     lv_page_ext_t * ext      = lv_obj_get_ext_attr(page);
 4702              		.loc 3 1131 0
 4703 0008 7868     		ldr	r0, [r7, #4]
 4704 000a FFF7FEFF 		bl	lv_obj_get_ext_attr
 4705 000e B862     		str	r0, [r7, #40]
1132:..\..\..\lvgl\version_6.1.2\lvgl\src\lv_objx/lv_page.c ****     const lv_style_t * style = lv_obj_get_style(page);
 4706              		.loc 3 1132 0
 4707 0010 7868     		ldr	r0, [r7, #4]
 4708 0012 FFF7FEFF 		bl	lv_obj_get_style
 4709 0016 7862     		str	r0, [r7, #36]
1133:..\..\..\lvgl\version_6.1.2\lvgl\src\lv_objx/lv_page.c ****     lv_obj_t * scrl          = ext->scrl;
 4710              		.loc 3 1133 0
 4711 0018 BB6A     		ldr	r3, [r7, #40]
 4712 001a 5B68     		ldr	r3, [r3, #4]
 4713 001c 3B62     		str	r3, [r7, #32]
1134:..\..\..\lvgl\version_6.1.2\lvgl\src\lv_objx/lv_page.c ****     lv_coord_t size_tmp;
1135:..\..\..\lvgl\version_6.1.2\lvgl\src\lv_objx/lv_page.c ****     lv_coord_t scrl_w = lv_obj_get_width(scrl);
 4714              		.loc 3 1135 0
 4715 001e 386A     		ldr	r0, [r7, #32]
 4716 0020 FFF7FEFF 		bl	lv_obj_get_width
 4717 0024 0346     		mov	r3, r0
 4718 0026 FB83     		strh	r3, [r7, #30]	@ movhi
1136:..\..\..\lvgl\version_6.1.2\lvgl\src\lv_objx/lv_page.c ****     lv_coord_t scrl_h = lv_obj_get_height(scrl);
 4719              		.loc 3 1136 0
 4720 0028 386A     		ldr	r0, [r7, #32]
 4721 002a FFF7FEFF 		bl	lv_obj_get_height
 4722 002e 0346     		mov	r3, r0
 4723 0030 BB83     		strh	r3, [r7, #28]	@ movhi
1137:..\..\..\lvgl\version_6.1.2\lvgl\src\lv_objx/lv_page.c ****     lv_coord_t obj_w  = lv_obj_get_width(page);
 4724              		.loc 3 1137 0
 4725 0032 7868     		ldr	r0, [r7, #4]
 4726 0034 FFF7FEFF 		bl	lv_obj_get_width
 4727 0038 0346     		mov	r3, r0
 4728 003a 7B83     		strh	r3, [r7, #26]	@ movhi
1138:..\..\..\lvgl\version_6.1.2\lvgl\src\lv_objx/lv_page.c ****     lv_coord_t obj_h  = lv_obj_get_height(page);
 4729              		.loc 3 1138 0
 4730 003c 7868     		ldr	r0, [r7, #4]
ARM GAS  C:\Users\tmj32\AppData\Local\Temp\ccFKuFvs.s 			page 112


 4731 003e FFF7FEFF 		bl	lv_obj_get_height
 4732 0042 0346     		mov	r3, r0
 4733 0044 3B83     		strh	r3, [r7, #24]	@ movhi
1139:..\..\..\lvgl\version_6.1.2\lvgl\src\lv_objx/lv_page.c **** 
1140:..\..\..\lvgl\version_6.1.2\lvgl\src\lv_objx/lv_page.c ****     /*Always let 'scrollbar width' padding above, under, left and right to the scrollbars
1141:..\..\..\lvgl\version_6.1.2\lvgl\src\lv_objx/lv_page.c ****      * else:
1142:..\..\..\lvgl\version_6.1.2\lvgl\src\lv_objx/lv_page.c ****      * - horizontal and vertical scrollbars can overlap on the corners
1143:..\..\..\lvgl\version_6.1.2\lvgl\src\lv_objx/lv_page.c ****      * - if the page has radius the scrollbar can be out of the radius  */
1144:..\..\..\lvgl\version_6.1.2\lvgl\src\lv_objx/lv_page.c ****     lv_coord_t sb_hor_pad = LV_MATH_MAX(ext->sb.style->body.padding.inner, style->body.padding.righ
 4734              		.loc 3 1144 0
 4735 0046 7B6A     		ldr	r3, [r7, #36]
 4736 0048 B3F92620 		ldrsh	r2, [r3, #38]
 4737 004c BB6A     		ldr	r3, [r7, #40]
 4738 004e 9B68     		ldr	r3, [r3, #8]
 4739 0050 B3F92830 		ldrsh	r3, [r3, #40]
 4740 0054 9342     		cmp	r3, r2
 4741 0056 B8BF     		it	lt
 4742 0058 1346     		movlt	r3, r2
 4743 005a FB82     		strh	r3, [r7, #22]	@ movhi
1145:..\..\..\lvgl\version_6.1.2\lvgl\src\lv_objx/lv_page.c ****     lv_coord_t sb_ver_pad = LV_MATH_MAX(ext->sb.style->body.padding.inner, style->body.padding.bott
 4744              		.loc 3 1145 0
 4745 005c 7B6A     		ldr	r3, [r7, #36]
 4746 005e B3F92220 		ldrsh	r2, [r3, #34]
 4747 0062 BB6A     		ldr	r3, [r7, #40]
 4748 0064 9B68     		ldr	r3, [r3, #8]
 4749 0066 B3F92830 		ldrsh	r3, [r3, #40]
 4750 006a 9342     		cmp	r3, r2
 4751 006c B8BF     		it	lt
 4752 006e 1346     		movlt	r3, r2
 4753 0070 BB82     		strh	r3, [r7, #20]	@ movhi
1146:..\..\..\lvgl\version_6.1.2\lvgl\src\lv_objx/lv_page.c **** 
1147:..\..\..\lvgl\version_6.1.2\lvgl\src\lv_objx/lv_page.c ****     if(ext->sb.mode == LV_SB_MODE_OFF) return;
 4754              		.loc 3 1147 0
 4755 0072 BB6A     		ldr	r3, [r7, #40]
 4756 0074 1B7F     		ldrb	r3, [r3, #28]	@ zero_extendqisi2
 4757 0076 03F01C03 		and	r3, r3, #28
 4758 007a DBB2     		uxtb	r3, r3
 4759 007c 002B     		cmp	r3, #0
 4760 007e 00F0B682 		beq	.L237
1148:..\..\..\lvgl\version_6.1.2\lvgl\src\lv_objx/lv_page.c **** 
1149:..\..\..\lvgl\version_6.1.2\lvgl\src\lv_objx/lv_page.c ****     if(ext->sb.mode == LV_SB_MODE_ON) {
 4761              		.loc 3 1149 0
 4762 0082 BB6A     		ldr	r3, [r7, #40]
 4763 0084 1B7F     		ldrb	r3, [r3, #28]	@ zero_extendqisi2
 4764 0086 03F01C03 		and	r3, r3, #28
 4765 008a DBB2     		uxtb	r3, r3
 4766 008c 042B     		cmp	r3, #4
 4767 008e 09D1     		bne	.L218
1150:..\..\..\lvgl\version_6.1.2\lvgl\src\lv_objx/lv_page.c ****         ext->sb.hor_draw = 1;
 4768              		.loc 3 1150 0
 4769 0090 BA6A     		ldr	r2, [r7, #40]
 4770 0092 137F     		ldrb	r3, [r2, #28]
 4771 0094 43F00103 		orr	r3, r3, #1
 4772 0098 1377     		strb	r3, [r2, #28]
1151:..\..\..\lvgl\version_6.1.2\lvgl\src\lv_objx/lv_page.c ****         ext->sb.ver_draw = 1;
 4773              		.loc 3 1151 0
 4774 009a BA6A     		ldr	r2, [r7, #40]
ARM GAS  C:\Users\tmj32\AppData\Local\Temp\ccFKuFvs.s 			page 113


 4775 009c 137F     		ldrb	r3, [r2, #28]
 4776 009e 43F00203 		orr	r3, r3, #2
 4777 00a2 1377     		strb	r3, [r2, #28]
 4778              	.L218:
1152:..\..\..\lvgl\version_6.1.2\lvgl\src\lv_objx/lv_page.c ****     }
1153:..\..\..\lvgl\version_6.1.2\lvgl\src\lv_objx/lv_page.c **** 
1154:..\..\..\lvgl\version_6.1.2\lvgl\src\lv_objx/lv_page.c ****     /*Invalidate the current (old) scrollbar areas*/
1155:..\..\..\lvgl\version_6.1.2\lvgl\src\lv_objx/lv_page.c ****     lv_area_t sb_area_tmp;
1156:..\..\..\lvgl\version_6.1.2\lvgl\src\lv_objx/lv_page.c ****     if(ext->sb.hor_draw != 0) {
 4779              		.loc 3 1156 0
 4780 00a4 BB6A     		ldr	r3, [r7, #40]
 4781 00a6 1B7F     		ldrb	r3, [r3, #28]	@ zero_extendqisi2
 4782 00a8 03F00103 		and	r3, r3, #1
 4783 00ac DBB2     		uxtb	r3, r3
 4784 00ae 002B     		cmp	r3, #0
 4785 00b0 3AD0     		beq	.L219
1157:..\..\..\lvgl\version_6.1.2\lvgl\src\lv_objx/lv_page.c ****         lv_area_copy(&sb_area_tmp, &ext->sb.hor_area);
 4786              		.loc 3 1157 0
 4787 00b2 BB6A     		ldr	r3, [r7, #40]
 4788 00b4 03F10C02 		add	r2, r3, #12
 4789 00b8 07F10C03 		add	r3, r7, #12
 4790 00bc 1146     		mov	r1, r2
 4791 00be 1846     		mov	r0, r3
 4792 00c0 FFF7FEFF 		bl	lv_area_copy
1158:..\..\..\lvgl\version_6.1.2\lvgl\src\lv_objx/lv_page.c ****         sb_area_tmp.x1 += page->coords.x1;
 4793              		.loc 3 1158 0
 4794 00c4 B7F90C30 		ldrsh	r3, [r7, #12]
 4795 00c8 9AB2     		uxth	r2, r3
 4796 00ca 7B68     		ldr	r3, [r7, #4]
 4797 00cc B3F91030 		ldrsh	r3, [r3, #16]
 4798 00d0 9BB2     		uxth	r3, r3
 4799 00d2 1344     		add	r3, r3, r2
 4800 00d4 9BB2     		uxth	r3, r3
 4801 00d6 1BB2     		sxth	r3, r3
 4802 00d8 BB81     		strh	r3, [r7, #12]	@ movhi
1159:..\..\..\lvgl\version_6.1.2\lvgl\src\lv_objx/lv_page.c ****         sb_area_tmp.y1 += page->coords.y1;
 4803              		.loc 3 1159 0
 4804 00da B7F90E30 		ldrsh	r3, [r7, #14]
 4805 00de 9AB2     		uxth	r2, r3
 4806 00e0 7B68     		ldr	r3, [r7, #4]
 4807 00e2 B3F91230 		ldrsh	r3, [r3, #18]
 4808 00e6 9BB2     		uxth	r3, r3
 4809 00e8 1344     		add	r3, r3, r2
 4810 00ea 9BB2     		uxth	r3, r3
 4811 00ec 1BB2     		sxth	r3, r3
 4812 00ee FB81     		strh	r3, [r7, #14]	@ movhi
1160:..\..\..\lvgl\version_6.1.2\lvgl\src\lv_objx/lv_page.c ****         sb_area_tmp.x2 += page->coords.x1;
 4813              		.loc 3 1160 0
 4814 00f0 B7F91030 		ldrsh	r3, [r7, #16]
 4815 00f4 9AB2     		uxth	r2, r3
 4816 00f6 7B68     		ldr	r3, [r7, #4]
 4817 00f8 B3F91030 		ldrsh	r3, [r3, #16]
 4818 00fc 9BB2     		uxth	r3, r3
 4819 00fe 1344     		add	r3, r3, r2
 4820 0100 9BB2     		uxth	r3, r3
 4821 0102 1BB2     		sxth	r3, r3
 4822 0104 3B82     		strh	r3, [r7, #16]	@ movhi
ARM GAS  C:\Users\tmj32\AppData\Local\Temp\ccFKuFvs.s 			page 114


1161:..\..\..\lvgl\version_6.1.2\lvgl\src\lv_objx/lv_page.c ****         sb_area_tmp.y2 += page->coords.y1;
 4823              		.loc 3 1161 0
 4824 0106 B7F91230 		ldrsh	r3, [r7, #18]
 4825 010a 9AB2     		uxth	r2, r3
 4826 010c 7B68     		ldr	r3, [r7, #4]
 4827 010e B3F91230 		ldrsh	r3, [r3, #18]
 4828 0112 9BB2     		uxth	r3, r3
 4829 0114 1344     		add	r3, r3, r2
 4830 0116 9BB2     		uxth	r3, r3
 4831 0118 1BB2     		sxth	r3, r3
 4832 011a 7B82     		strh	r3, [r7, #18]	@ movhi
1162:..\..\..\lvgl\version_6.1.2\lvgl\src\lv_objx/lv_page.c ****         lv_obj_invalidate_area(page, &sb_area_tmp);
 4833              		.loc 3 1162 0
 4834 011c 07F10C03 		add	r3, r7, #12
 4835 0120 1946     		mov	r1, r3
 4836 0122 7868     		ldr	r0, [r7, #4]
 4837 0124 FFF7FEFF 		bl	lv_obj_invalidate_area
 4838              	.L219:
1163:..\..\..\lvgl\version_6.1.2\lvgl\src\lv_objx/lv_page.c ****     }
1164:..\..\..\lvgl\version_6.1.2\lvgl\src\lv_objx/lv_page.c ****     if(ext->sb.ver_draw != 0) {
 4839              		.loc 3 1164 0
 4840 0128 BB6A     		ldr	r3, [r7, #40]
 4841 012a 1B7F     		ldrb	r3, [r3, #28]	@ zero_extendqisi2
 4842 012c 03F00203 		and	r3, r3, #2
 4843 0130 DBB2     		uxtb	r3, r3
 4844 0132 002B     		cmp	r3, #0
 4845 0134 3AD0     		beq	.L220
1165:..\..\..\lvgl\version_6.1.2\lvgl\src\lv_objx/lv_page.c ****         lv_area_copy(&sb_area_tmp, &ext->sb.ver_area);
 4846              		.loc 3 1165 0
 4847 0136 BB6A     		ldr	r3, [r7, #40]
 4848 0138 03F11402 		add	r2, r3, #20
 4849 013c 07F10C03 		add	r3, r7, #12
 4850 0140 1146     		mov	r1, r2
 4851 0142 1846     		mov	r0, r3
 4852 0144 FFF7FEFF 		bl	lv_area_copy
1166:..\..\..\lvgl\version_6.1.2\lvgl\src\lv_objx/lv_page.c ****         sb_area_tmp.x1 += page->coords.x1;
 4853              		.loc 3 1166 0
 4854 0148 B7F90C30 		ldrsh	r3, [r7, #12]
 4855 014c 9AB2     		uxth	r2, r3
 4856 014e 7B68     		ldr	r3, [r7, #4]
 4857 0150 B3F91030 		ldrsh	r3, [r3, #16]
 4858 0154 9BB2     		uxth	r3, r3
 4859 0156 1344     		add	r3, r3, r2
 4860 0158 9BB2     		uxth	r3, r3
 4861 015a 1BB2     		sxth	r3, r3
 4862 015c BB81     		strh	r3, [r7, #12]	@ movhi
1167:..\..\..\lvgl\version_6.1.2\lvgl\src\lv_objx/lv_page.c ****         sb_area_tmp.y1 += page->coords.y1;
 4863              		.loc 3 1167 0
 4864 015e B7F90E30 		ldrsh	r3, [r7, #14]
 4865 0162 9AB2     		uxth	r2, r3
 4866 0164 7B68     		ldr	r3, [r7, #4]
 4867 0166 B3F91230 		ldrsh	r3, [r3, #18]
 4868 016a 9BB2     		uxth	r3, r3
 4869 016c 1344     		add	r3, r3, r2
 4870 016e 9BB2     		uxth	r3, r3
 4871 0170 1BB2     		sxth	r3, r3
 4872 0172 FB81     		strh	r3, [r7, #14]	@ movhi
ARM GAS  C:\Users\tmj32\AppData\Local\Temp\ccFKuFvs.s 			page 115


1168:..\..\..\lvgl\version_6.1.2\lvgl\src\lv_objx/lv_page.c ****         sb_area_tmp.x2 += page->coords.x1;
 4873              		.loc 3 1168 0
 4874 0174 B7F91030 		ldrsh	r3, [r7, #16]
 4875 0178 9AB2     		uxth	r2, r3
 4876 017a 7B68     		ldr	r3, [r7, #4]
 4877 017c B3F91030 		ldrsh	r3, [r3, #16]
 4878 0180 9BB2     		uxth	r3, r3
 4879 0182 1344     		add	r3, r3, r2
 4880 0184 9BB2     		uxth	r3, r3
 4881 0186 1BB2     		sxth	r3, r3
 4882 0188 3B82     		strh	r3, [r7, #16]	@ movhi
1169:..\..\..\lvgl\version_6.1.2\lvgl\src\lv_objx/lv_page.c ****         sb_area_tmp.y2 += page->coords.y1;
 4883              		.loc 3 1169 0
 4884 018a B7F91230 		ldrsh	r3, [r7, #18]
 4885 018e 9AB2     		uxth	r2, r3
 4886 0190 7B68     		ldr	r3, [r7, #4]
 4887 0192 B3F91230 		ldrsh	r3, [r3, #18]
 4888 0196 9BB2     		uxth	r3, r3
 4889 0198 1344     		add	r3, r3, r2
 4890 019a 9BB2     		uxth	r3, r3
 4891 019c 1BB2     		sxth	r3, r3
 4892 019e 7B82     		strh	r3, [r7, #18]	@ movhi
1170:..\..\..\lvgl\version_6.1.2\lvgl\src\lv_objx/lv_page.c ****         lv_obj_invalidate_area(page, &sb_area_tmp);
 4893              		.loc 3 1170 0
 4894 01a0 07F10C03 		add	r3, r7, #12
 4895 01a4 1946     		mov	r1, r3
 4896 01a6 7868     		ldr	r0, [r7, #4]
 4897 01a8 FFF7FEFF 		bl	lv_obj_invalidate_area
 4898              	.L220:
1171:..\..\..\lvgl\version_6.1.2\lvgl\src\lv_objx/lv_page.c ****     }
1172:..\..\..\lvgl\version_6.1.2\lvgl\src\lv_objx/lv_page.c **** 
1173:..\..\..\lvgl\version_6.1.2\lvgl\src\lv_objx/lv_page.c ****     if(ext->sb.mode == LV_SB_MODE_DRAG && lv_indev_is_dragging(lv_indev_get_act()) == false) {
 4899              		.loc 3 1173 0
 4900 01ac BB6A     		ldr	r3, [r7, #40]
 4901 01ae 1B7F     		ldrb	r3, [r3, #28]	@ zero_extendqisi2
 4902 01b0 03F01C03 		and	r3, r3, #28
 4903 01b4 DBB2     		uxtb	r3, r3
 4904 01b6 082B     		cmp	r3, #8
 4905 01b8 16D1     		bne	.L221
 4906              		.loc 3 1173 0 is_stmt 0 discriminator 1
 4907 01ba FFF7FEFF 		bl	lv_indev_get_act
 4908 01be 0346     		mov	r3, r0
 4909 01c0 1846     		mov	r0, r3
 4910 01c2 FFF7FEFF 		bl	lv_indev_is_dragging
 4911 01c6 0346     		mov	r3, r0
 4912 01c8 83F00103 		eor	r3, r3, #1
 4913 01cc DBB2     		uxtb	r3, r3
 4914 01ce 002B     		cmp	r3, #0
 4915 01d0 0AD0     		beq	.L221
1174:..\..\..\lvgl\version_6.1.2\lvgl\src\lv_objx/lv_page.c ****         ext->sb.hor_draw = 0;
 4916              		.loc 3 1174 0 is_stmt 1
 4917 01d2 BA6A     		ldr	r2, [r7, #40]
 4918 01d4 137F     		ldrb	r3, [r2, #28]
 4919 01d6 6FF30003 		bfc	r3, #0, #1
 4920 01da 1377     		strb	r3, [r2, #28]
1175:..\..\..\lvgl\version_6.1.2\lvgl\src\lv_objx/lv_page.c ****         ext->sb.ver_draw = 0;
 4921              		.loc 3 1175 0
ARM GAS  C:\Users\tmj32\AppData\Local\Temp\ccFKuFvs.s 			page 116


 4922 01dc BA6A     		ldr	r2, [r7, #40]
 4923 01de 137F     		ldrb	r3, [r2, #28]
 4924 01e0 6FF34103 		bfc	r3, #1, #1
 4925 01e4 1377     		strb	r3, [r2, #28]
1176:..\..\..\lvgl\version_6.1.2\lvgl\src\lv_objx/lv_page.c ****         return;
 4926              		.loc 3 1176 0
 4927 01e6 03E2     		b	.L215
 4928              	.L221:
1177:..\..\..\lvgl\version_6.1.2\lvgl\src\lv_objx/lv_page.c ****     }
1178:..\..\..\lvgl\version_6.1.2\lvgl\src\lv_objx/lv_page.c **** 
1179:..\..\..\lvgl\version_6.1.2\lvgl\src\lv_objx/lv_page.c ****     /*Full sized horizontal scrollbar*/
1180:..\..\..\lvgl\version_6.1.2\lvgl\src\lv_objx/lv_page.c ****     if(scrl_w <= obj_w - style->body.padding.left - style->body.padding.right) {
 4929              		.loc 3 1180 0
 4930 01e8 B7F91E20 		ldrsh	r2, [r7, #30]
 4931 01ec B7F91A30 		ldrsh	r3, [r7, #26]
 4932 01f0 796A     		ldr	r1, [r7, #36]
 4933 01f2 B1F92410 		ldrsh	r1, [r1, #36]
 4934 01f6 5B1A     		subs	r3, r3, r1
 4935 01f8 796A     		ldr	r1, [r7, #36]
 4936 01fa B1F92610 		ldrsh	r1, [r1, #38]
 4937 01fe 5B1A     		subs	r3, r3, r1
 4938 0200 9A42     		cmp	r2, r3
 4939 0202 38DC     		bgt	.L222
1181:..\..\..\lvgl\version_6.1.2\lvgl\src\lv_objx/lv_page.c ****         lv_area_set_width(&ext->sb.hor_area, obj_w - 2 * sb_hor_pad);
 4940              		.loc 3 1181 0
 4941 0204 BB6A     		ldr	r3, [r7, #40]
 4942 0206 03F10C00 		add	r0, r3, #12
 4943 020a 7A8B     		ldrh	r2, [r7, #26]
 4944 020c FB8A     		ldrh	r3, [r7, #22]
 4945 020e 5B00     		lsls	r3, r3, #1
 4946 0210 9BB2     		uxth	r3, r3
 4947 0212 D31A     		subs	r3, r2, r3
 4948 0214 9BB2     		uxth	r3, r3
 4949 0216 1BB2     		sxth	r3, r3
 4950 0218 1946     		mov	r1, r3
 4951 021a FFF7FEFF 		bl	lv_area_set_width
1182:..\..\..\lvgl\version_6.1.2\lvgl\src\lv_objx/lv_page.c ****         lv_area_set_pos(&ext->sb.hor_area, sb_hor_pad,
 4952              		.loc 3 1182 0
 4953 021e BB6A     		ldr	r3, [r7, #40]
 4954 0220 03F10C00 		add	r0, r3, #12
 4955 0224 3A8B     		ldrh	r2, [r7, #24]
1183:..\..\..\lvgl\version_6.1.2\lvgl\src\lv_objx/lv_page.c ****                         obj_h - ext->sb.style->body.padding.inner - ext->sb.style->body.padding.bot
 4956              		.loc 3 1183 0
 4957 0226 BB6A     		ldr	r3, [r7, #40]
 4958 0228 9B68     		ldr	r3, [r3, #8]
 4959 022a B3F92830 		ldrsh	r3, [r3, #40]
1182:..\..\..\lvgl\version_6.1.2\lvgl\src\lv_objx/lv_page.c ****         lv_area_set_pos(&ext->sb.hor_area, sb_hor_pad,
 4960              		.loc 3 1182 0
 4961 022e 9BB2     		uxth	r3, r3
 4962 0230 D31A     		subs	r3, r2, r3
 4963 0232 9AB2     		uxth	r2, r3
 4964              		.loc 3 1183 0
 4965 0234 BB6A     		ldr	r3, [r7, #40]
 4966 0236 9B68     		ldr	r3, [r3, #8]
 4967 0238 B3F92230 		ldrsh	r3, [r3, #34]
1182:..\..\..\lvgl\version_6.1.2\lvgl\src\lv_objx/lv_page.c ****         lv_area_set_pos(&ext->sb.hor_area, sb_hor_pad,
 4968              		.loc 3 1182 0
ARM GAS  C:\Users\tmj32\AppData\Local\Temp\ccFKuFvs.s 			page 117


 4969 023c 9BB2     		uxth	r3, r3
 4970 023e D31A     		subs	r3, r2, r3
 4971 0240 9BB2     		uxth	r3, r3
 4972 0242 1AB2     		sxth	r2, r3
 4973 0244 B7F91630 		ldrsh	r3, [r7, #22]
 4974 0248 1946     		mov	r1, r3
 4975 024a FFF7FEFF 		bl	lv_area_set_pos
1184:..\..\..\lvgl\version_6.1.2\lvgl\src\lv_objx/lv_page.c ****         if(ext->sb.mode == LV_SB_MODE_AUTO || ext->sb.mode == LV_SB_MODE_DRAG) ext->sb.hor_draw = 0
 4976              		.loc 3 1184 0
 4977 024e BB6A     		ldr	r3, [r7, #40]
 4978 0250 1B7F     		ldrb	r3, [r3, #28]	@ zero_extendqisi2
 4979 0252 03F01C03 		and	r3, r3, #28
 4980 0256 DBB2     		uxtb	r3, r3
 4981 0258 0C2B     		cmp	r3, #12
 4982 025a 06D0     		beq	.L223
 4983              		.loc 3 1184 0 is_stmt 0 discriminator 2
 4984 025c BB6A     		ldr	r3, [r7, #40]
 4985 025e 1B7F     		ldrb	r3, [r3, #28]	@ zero_extendqisi2
 4986 0260 03F01C03 		and	r3, r3, #28
 4987 0264 DBB2     		uxtb	r3, r3
 4988 0266 082B     		cmp	r3, #8
 4989 0268 7CD1     		bne	.L225
 4990              	.L223:
 4991              		.loc 3 1184 0 discriminator 3
 4992 026a BA6A     		ldr	r2, [r7, #40]
 4993 026c 137F     		ldrb	r3, [r2, #28]
 4994 026e 6FF30003 		bfc	r3, #0, #1
 4995 0272 1377     		strb	r3, [r2, #28]
 4996 0274 76E0     		b	.L225
 4997              	.L222:
1185:..\..\..\lvgl\version_6.1.2\lvgl\src\lv_objx/lv_page.c ****     }
1186:..\..\..\lvgl\version_6.1.2\lvgl\src\lv_objx/lv_page.c ****     /*Smaller horizontal scrollbar*/
1187:..\..\..\lvgl\version_6.1.2\lvgl\src\lv_objx/lv_page.c ****     else {
1188:..\..\..\lvgl\version_6.1.2\lvgl\src\lv_objx/lv_page.c ****         size_tmp =
1189:..\..\..\lvgl\version_6.1.2\lvgl\src\lv_objx/lv_page.c ****             (obj_w * (obj_w - (2 * sb_hor_pad))) / (scrl_w + style->body.padding.left + style->body
 4998              		.loc 3 1189 0 is_stmt 1
 4999 0276 B7F91A30 		ldrsh	r3, [r7, #26]
 5000 027a B7F91A10 		ldrsh	r1, [r7, #26]
 5001 027e B7F91620 		ldrsh	r2, [r7, #22]
 5002 0282 5200     		lsls	r2, r2, #1
 5003 0284 8A1A     		subs	r2, r1, r2
 5004 0286 02FB03F2 		mul	r2, r2, r3
 5005 028a B7F91E30 		ldrsh	r3, [r7, #30]
 5006 028e 796A     		ldr	r1, [r7, #36]
 5007 0290 B1F92410 		ldrsh	r1, [r1, #36]
 5008 0294 0B44     		add	r3, r3, r1
 5009 0296 796A     		ldr	r1, [r7, #36]
 5010 0298 B1F92610 		ldrsh	r1, [r1, #38]
 5011 029c 0B44     		add	r3, r3, r1
 5012 029e 92FBF3F3 		sdiv	r3, r2, r3
1188:..\..\..\lvgl\version_6.1.2\lvgl\src\lv_objx/lv_page.c ****             (obj_w * (obj_w - (2 * sb_hor_pad))) / (scrl_w + style->body.padding.left + style->body
 5013              		.loc 3 1188 0
 5014 02a2 FB85     		strh	r3, [r7, #46]	@ movhi
1190:..\..\..\lvgl\version_6.1.2\lvgl\src\lv_objx/lv_page.c ****         if(size_tmp < LV_PAGE_SB_MIN_SIZE) size_tmp = LV_PAGE_SB_MIN_SIZE;
 5015              		.loc 3 1190 0
 5016 02a4 B7F92E30 		ldrsh	r3, [r7, #46]
 5017 02a8 112B     		cmp	r3, #17
ARM GAS  C:\Users\tmj32\AppData\Local\Temp\ccFKuFvs.s 			page 118


 5018 02aa 01DC     		bgt	.L226
 5019              		.loc 3 1190 0 is_stmt 0 discriminator 1
 5020 02ac 1223     		movs	r3, #18
 5021 02ae FB85     		strh	r3, [r7, #46]	@ movhi
 5022              	.L226:
1191:..\..\..\lvgl\version_6.1.2\lvgl\src\lv_objx/lv_page.c ****         lv_area_set_width(&ext->sb.hor_area, size_tmp);
 5023              		.loc 3 1191 0 is_stmt 1
 5024 02b0 BB6A     		ldr	r3, [r7, #40]
 5025 02b2 0C33     		adds	r3, r3, #12
 5026 02b4 B7F92E20 		ldrsh	r2, [r7, #46]
 5027 02b8 1146     		mov	r1, r2
 5028 02ba 1846     		mov	r0, r3
 5029 02bc FFF7FEFF 		bl	lv_area_set_width
1192:..\..\..\lvgl\version_6.1.2\lvgl\src\lv_objx/lv_page.c **** 
1193:..\..\..\lvgl\version_6.1.2\lvgl\src\lv_objx/lv_page.c ****         lv_area_set_pos(&ext->sb.hor_area,
 5030              		.loc 3 1193 0
 5031 02c0 BB6A     		ldr	r3, [r7, #40]
 5032 02c2 03F10C04 		add	r4, r3, #12
1194:..\..\..\lvgl\version_6.1.2\lvgl\src\lv_objx/lv_page.c ****                         sb_hor_pad +
1195:..\..\..\lvgl\version_6.1.2\lvgl\src\lv_objx/lv_page.c ****                             (-(lv_obj_get_x(scrl) - style->body.padding.left) * (obj_w - size_tmp -
 5033              		.loc 3 1195 0
 5034 02c6 7B6A     		ldr	r3, [r7, #36]
 5035 02c8 B3F92430 		ldrsh	r3, [r3, #36]
 5036 02cc 1D46     		mov	r5, r3
 5037 02ce 386A     		ldr	r0, [r7, #32]
 5038 02d0 FFF7FEFF 		bl	lv_obj_get_x
 5039 02d4 0346     		mov	r3, r0
 5040 02d6 EB1A     		subs	r3, r5, r3
 5041 02d8 B7F91A10 		ldrsh	r1, [r7, #26]
 5042 02dc B7F92E20 		ldrsh	r2, [r7, #46]
 5043 02e0 891A     		subs	r1, r1, r2
 5044 02e2 B7F91620 		ldrsh	r2, [r7, #22]
 5045 02e6 5200     		lsls	r2, r2, #1
 5046 02e8 8A1A     		subs	r2, r1, r2
 5047 02ea 02FB03F2 		mul	r2, r2, r3
1196:..\..\..\lvgl\version_6.1.2\lvgl\src\lv_objx/lv_page.c ****                                 (scrl_w + style->body.padding.left + style->body.padding.right - ob
 5048              		.loc 3 1196 0
 5049 02ee B7F91E30 		ldrsh	r3, [r7, #30]
 5050 02f2 796A     		ldr	r1, [r7, #36]
 5051 02f4 B1F92410 		ldrsh	r1, [r1, #36]
 5052 02f8 0B44     		add	r3, r3, r1
 5053 02fa 796A     		ldr	r1, [r7, #36]
 5054 02fc B1F92610 		ldrsh	r1, [r1, #38]
 5055 0300 1944     		add	r1, r1, r3
 5056 0302 B7F91A30 		ldrsh	r3, [r7, #26]
 5057 0306 CB1A     		subs	r3, r1, r3
1195:..\..\..\lvgl\version_6.1.2\lvgl\src\lv_objx/lv_page.c ****                                 (scrl_w + style->body.padding.left + style->body.padding.right - ob
 5058              		.loc 3 1195 0
 5059 0308 92FBF3F3 		sdiv	r3, r2, r3
1193:..\..\..\lvgl\version_6.1.2\lvgl\src\lv_objx/lv_page.c ****                         sb_hor_pad +
 5060              		.loc 3 1193 0
 5061 030c 9AB2     		uxth	r2, r3
 5062 030e FB8A     		ldrh	r3, [r7, #22]
 5063 0310 1344     		add	r3, r3, r2
 5064 0312 9BB2     		uxth	r3, r3
 5065 0314 19B2     		sxth	r1, r3
 5066 0316 3A8B     		ldrh	r2, [r7, #24]
ARM GAS  C:\Users\tmj32\AppData\Local\Temp\ccFKuFvs.s 			page 119


1197:..\..\..\lvgl\version_6.1.2\lvgl\src\lv_objx/lv_page.c ****                         obj_h - ext->sb.style->body.padding.inner - ext->sb.style->body.padding.bot
 5067              		.loc 3 1197 0
 5068 0318 BB6A     		ldr	r3, [r7, #40]
 5069 031a 9B68     		ldr	r3, [r3, #8]
 5070 031c B3F92830 		ldrsh	r3, [r3, #40]
1193:..\..\..\lvgl\version_6.1.2\lvgl\src\lv_objx/lv_page.c ****                         sb_hor_pad +
 5071              		.loc 3 1193 0
 5072 0320 9BB2     		uxth	r3, r3
 5073 0322 D31A     		subs	r3, r2, r3
 5074 0324 9AB2     		uxth	r2, r3
 5075              		.loc 3 1197 0
 5076 0326 BB6A     		ldr	r3, [r7, #40]
 5077 0328 9B68     		ldr	r3, [r3, #8]
 5078 032a B3F92230 		ldrsh	r3, [r3, #34]
1193:..\..\..\lvgl\version_6.1.2\lvgl\src\lv_objx/lv_page.c ****                         sb_hor_pad +
 5079              		.loc 3 1193 0
 5080 032e 9BB2     		uxth	r3, r3
 5081 0330 D31A     		subs	r3, r2, r3
 5082 0332 9BB2     		uxth	r3, r3
 5083 0334 1BB2     		sxth	r3, r3
 5084 0336 1A46     		mov	r2, r3
 5085 0338 2046     		mov	r0, r4
 5086 033a FFF7FEFF 		bl	lv_area_set_pos
1198:..\..\..\lvgl\version_6.1.2\lvgl\src\lv_objx/lv_page.c **** 
1199:..\..\..\lvgl\version_6.1.2\lvgl\src\lv_objx/lv_page.c ****         if(ext->sb.mode == LV_SB_MODE_AUTO || ext->sb.mode == LV_SB_MODE_DRAG) ext->sb.hor_draw = 1
 5087              		.loc 3 1199 0
 5088 033e BB6A     		ldr	r3, [r7, #40]
 5089 0340 1B7F     		ldrb	r3, [r3, #28]	@ zero_extendqisi2
 5090 0342 03F01C03 		and	r3, r3, #28
 5091 0346 DBB2     		uxtb	r3, r3
 5092 0348 0C2B     		cmp	r3, #12
 5093 034a 06D0     		beq	.L227
 5094              		.loc 3 1199 0 is_stmt 0 discriminator 2
 5095 034c BB6A     		ldr	r3, [r7, #40]
 5096 034e 1B7F     		ldrb	r3, [r3, #28]	@ zero_extendqisi2
 5097 0350 03F01C03 		and	r3, r3, #28
 5098 0354 DBB2     		uxtb	r3, r3
 5099 0356 082B     		cmp	r3, #8
 5100 0358 04D1     		bne	.L225
 5101              	.L227:
 5102              		.loc 3 1199 0 discriminator 3
 5103 035a BA6A     		ldr	r2, [r7, #40]
 5104 035c 137F     		ldrb	r3, [r2, #28]
 5105 035e 43F00103 		orr	r3, r3, #1
 5106 0362 1377     		strb	r3, [r2, #28]
 5107              	.L225:
1200:..\..\..\lvgl\version_6.1.2\lvgl\src\lv_objx/lv_page.c ****     }
1201:..\..\..\lvgl\version_6.1.2\lvgl\src\lv_objx/lv_page.c **** 
1202:..\..\..\lvgl\version_6.1.2\lvgl\src\lv_objx/lv_page.c ****     /*Full sized vertical scroll bar*/
1203:..\..\..\lvgl\version_6.1.2\lvgl\src\lv_objx/lv_page.c ****     if(scrl_h <= obj_h - style->body.padding.top - style->body.padding.bottom) {
 5108              		.loc 3 1203 0 is_stmt 1
 5109 0364 B7F91C20 		ldrsh	r2, [r7, #28]
 5110 0368 B7F91830 		ldrsh	r3, [r7, #24]
 5111 036c 796A     		ldr	r1, [r7, #36]
 5112 036e B1F92010 		ldrsh	r1, [r1, #32]
 5113 0372 5B1A     		subs	r3, r3, r1
 5114 0374 796A     		ldr	r1, [r7, #36]
ARM GAS  C:\Users\tmj32\AppData\Local\Temp\ccFKuFvs.s 			page 120


 5115 0376 B1F92210 		ldrsh	r1, [r1, #34]
 5116 037a 5B1A     		subs	r3, r3, r1
 5117 037c 9A42     		cmp	r2, r3
 5118 037e 38DC     		bgt	.L228
1204:..\..\..\lvgl\version_6.1.2\lvgl\src\lv_objx/lv_page.c ****         lv_area_set_height(&ext->sb.ver_area, obj_h - 2 * sb_ver_pad);
 5119              		.loc 3 1204 0
 5120 0380 BB6A     		ldr	r3, [r7, #40]
 5121 0382 03F11400 		add	r0, r3, #20
 5122 0386 3A8B     		ldrh	r2, [r7, #24]
 5123 0388 BB8A     		ldrh	r3, [r7, #20]
 5124 038a 5B00     		lsls	r3, r3, #1
 5125 038c 9BB2     		uxth	r3, r3
 5126 038e D31A     		subs	r3, r2, r3
 5127 0390 9BB2     		uxth	r3, r3
 5128 0392 1BB2     		sxth	r3, r3
 5129 0394 1946     		mov	r1, r3
 5130 0396 FFF7FEFF 		bl	lv_area_set_height
1205:..\..\..\lvgl\version_6.1.2\lvgl\src\lv_objx/lv_page.c ****         lv_area_set_pos(&ext->sb.ver_area,
 5131              		.loc 3 1205 0
 5132 039a BB6A     		ldr	r3, [r7, #40]
 5133 039c 03F11400 		add	r0, r3, #20
 5134 03a0 7A8B     		ldrh	r2, [r7, #26]
1206:..\..\..\lvgl\version_6.1.2\lvgl\src\lv_objx/lv_page.c ****                         obj_w - ext->sb.style->body.padding.inner - ext->sb.style->body.padding.rig
 5135              		.loc 3 1206 0
 5136 03a2 BB6A     		ldr	r3, [r7, #40]
 5137 03a4 9B68     		ldr	r3, [r3, #8]
 5138 03a6 B3F92830 		ldrsh	r3, [r3, #40]
1205:..\..\..\lvgl\version_6.1.2\lvgl\src\lv_objx/lv_page.c ****         lv_area_set_pos(&ext->sb.ver_area,
 5139              		.loc 3 1205 0
 5140 03aa 9BB2     		uxth	r3, r3
 5141 03ac D31A     		subs	r3, r2, r3
 5142 03ae 9AB2     		uxth	r2, r3
 5143              		.loc 3 1206 0
 5144 03b0 BB6A     		ldr	r3, [r7, #40]
 5145 03b2 9B68     		ldr	r3, [r3, #8]
 5146 03b4 B3F92630 		ldrsh	r3, [r3, #38]
1205:..\..\..\lvgl\version_6.1.2\lvgl\src\lv_objx/lv_page.c ****         lv_area_set_pos(&ext->sb.ver_area,
 5147              		.loc 3 1205 0
 5148 03b8 9BB2     		uxth	r3, r3
 5149 03ba D31A     		subs	r3, r2, r3
 5150 03bc 9BB2     		uxth	r3, r3
 5151 03be 1BB2     		sxth	r3, r3
 5152 03c0 B7F91420 		ldrsh	r2, [r7, #20]
 5153 03c4 1946     		mov	r1, r3
 5154 03c6 FFF7FEFF 		bl	lv_area_set_pos
1207:..\..\..\lvgl\version_6.1.2\lvgl\src\lv_objx/lv_page.c ****         if(ext->sb.mode == LV_SB_MODE_AUTO || ext->sb.mode == LV_SB_MODE_DRAG) ext->sb.ver_draw = 0
 5155              		.loc 3 1207 0
 5156 03ca BB6A     		ldr	r3, [r7, #40]
 5157 03cc 1B7F     		ldrb	r3, [r3, #28]	@ zero_extendqisi2
 5158 03ce 03F01C03 		and	r3, r3, #28
 5159 03d2 DBB2     		uxtb	r3, r3
 5160 03d4 0C2B     		cmp	r3, #12
 5161 03d6 06D0     		beq	.L229
 5162              		.loc 3 1207 0 is_stmt 0 discriminator 2
 5163 03d8 BB6A     		ldr	r3, [r7, #40]
 5164 03da 1B7F     		ldrb	r3, [r3, #28]	@ zero_extendqisi2
 5165 03dc 03F01C03 		and	r3, r3, #28
ARM GAS  C:\Users\tmj32\AppData\Local\Temp\ccFKuFvs.s 			page 121


 5166 03e0 DBB2     		uxtb	r3, r3
 5167 03e2 082B     		cmp	r3, #8
 5168 03e4 7ED1     		bne	.L231
 5169              	.L229:
 5170              		.loc 3 1207 0 discriminator 3
 5171 03e6 BA6A     		ldr	r2, [r7, #40]
 5172 03e8 137F     		ldrb	r3, [r2, #28]
 5173 03ea 6FF34103 		bfc	r3, #1, #1
 5174 03ee 1377     		strb	r3, [r2, #28]
 5175 03f0 78E0     		b	.L231
 5176              	.L228:
1208:..\..\..\lvgl\version_6.1.2\lvgl\src\lv_objx/lv_page.c ****     }
1209:..\..\..\lvgl\version_6.1.2\lvgl\src\lv_objx/lv_page.c ****     /*Smaller vertical scroll bar*/
1210:..\..\..\lvgl\version_6.1.2\lvgl\src\lv_objx/lv_page.c ****     else {
1211:..\..\..\lvgl\version_6.1.2\lvgl\src\lv_objx/lv_page.c ****         size_tmp =
1212:..\..\..\lvgl\version_6.1.2\lvgl\src\lv_objx/lv_page.c ****             (obj_h * (obj_h - (2 * sb_ver_pad))) / (scrl_h + style->body.padding.top + style->body.
 5177              		.loc 3 1212 0 is_stmt 1
 5178 03f2 B7F91830 		ldrsh	r3, [r7, #24]
 5179 03f6 B7F91810 		ldrsh	r1, [r7, #24]
 5180 03fa B7F91420 		ldrsh	r2, [r7, #20]
 5181 03fe 5200     		lsls	r2, r2, #1
 5182 0400 8A1A     		subs	r2, r1, r2
 5183 0402 02FB03F2 		mul	r2, r2, r3
 5184 0406 B7F91C30 		ldrsh	r3, [r7, #28]
 5185 040a 796A     		ldr	r1, [r7, #36]
 5186 040c B1F92010 		ldrsh	r1, [r1, #32]
 5187 0410 0B44     		add	r3, r3, r1
 5188 0412 796A     		ldr	r1, [r7, #36]
 5189 0414 B1F92210 		ldrsh	r1, [r1, #34]
 5190 0418 0B44     		add	r3, r3, r1
 5191 041a 92FBF3F3 		sdiv	r3, r2, r3
1211:..\..\..\lvgl\version_6.1.2\lvgl\src\lv_objx/lv_page.c ****             (obj_h * (obj_h - (2 * sb_ver_pad))) / (scrl_h + style->body.padding.top + style->body.
 5192              		.loc 3 1211 0
 5193 041e FB85     		strh	r3, [r7, #46]	@ movhi
1213:..\..\..\lvgl\version_6.1.2\lvgl\src\lv_objx/lv_page.c ****         if(size_tmp < LV_PAGE_SB_MIN_SIZE) size_tmp = LV_PAGE_SB_MIN_SIZE;
 5194              		.loc 3 1213 0
 5195 0420 B7F92E30 		ldrsh	r3, [r7, #46]
 5196 0424 112B     		cmp	r3, #17
 5197 0426 01DC     		bgt	.L232
 5198              		.loc 3 1213 0 is_stmt 0 discriminator 1
 5199 0428 1223     		movs	r3, #18
 5200 042a FB85     		strh	r3, [r7, #46]	@ movhi
 5201              	.L232:
1214:..\..\..\lvgl\version_6.1.2\lvgl\src\lv_objx/lv_page.c ****         lv_area_set_height(&ext->sb.ver_area, size_tmp);
 5202              		.loc 3 1214 0 is_stmt 1
 5203 042c BB6A     		ldr	r3, [r7, #40]
 5204 042e 1433     		adds	r3, r3, #20
 5205 0430 B7F92E20 		ldrsh	r2, [r7, #46]
 5206 0434 1146     		mov	r1, r2
 5207 0436 1846     		mov	r0, r3
 5208 0438 FFF7FEFF 		bl	lv_area_set_height
1215:..\..\..\lvgl\version_6.1.2\lvgl\src\lv_objx/lv_page.c **** 
1216:..\..\..\lvgl\version_6.1.2\lvgl\src\lv_objx/lv_page.c ****         lv_area_set_pos(&ext->sb.ver_area,
 5209              		.loc 3 1216 0
 5210 043c BB6A     		ldr	r3, [r7, #40]
 5211 043e 03F11404 		add	r4, r3, #20
 5212 0442 7A8B     		ldrh	r2, [r7, #26]
ARM GAS  C:\Users\tmj32\AppData\Local\Temp\ccFKuFvs.s 			page 122


1217:..\..\..\lvgl\version_6.1.2\lvgl\src\lv_objx/lv_page.c ****                         obj_w - ext->sb.style->body.padding.inner - ext->sb.style->body.padding.rig
 5213              		.loc 3 1217 0
 5214 0444 BB6A     		ldr	r3, [r7, #40]
 5215 0446 9B68     		ldr	r3, [r3, #8]
 5216 0448 B3F92830 		ldrsh	r3, [r3, #40]
1216:..\..\..\lvgl\version_6.1.2\lvgl\src\lv_objx/lv_page.c ****                         obj_w - ext->sb.style->body.padding.inner - ext->sb.style->body.padding.rig
 5217              		.loc 3 1216 0
 5218 044c 9BB2     		uxth	r3, r3
 5219 044e D31A     		subs	r3, r2, r3
 5220 0450 9AB2     		uxth	r2, r3
 5221              		.loc 3 1217 0
 5222 0452 BB6A     		ldr	r3, [r7, #40]
 5223 0454 9B68     		ldr	r3, [r3, #8]
 5224 0456 B3F92630 		ldrsh	r3, [r3, #38]
1216:..\..\..\lvgl\version_6.1.2\lvgl\src\lv_objx/lv_page.c ****                         obj_w - ext->sb.style->body.padding.inner - ext->sb.style->body.padding.rig
 5225              		.loc 3 1216 0
 5226 045a 9BB2     		uxth	r3, r3
 5227 045c D31A     		subs	r3, r2, r3
 5228 045e 9BB2     		uxth	r3, r3
 5229 0460 1DB2     		sxth	r5, r3
1218:..\..\..\lvgl\version_6.1.2\lvgl\src\lv_objx/lv_page.c ****                         sb_ver_pad + (-(lv_obj_get_y(scrl) - ext->sb.style->body.padding.bottom) *
 5230              		.loc 3 1218 0
 5231 0462 BB6A     		ldr	r3, [r7, #40]
 5232 0464 9B68     		ldr	r3, [r3, #8]
 5233 0466 B3F92230 		ldrsh	r3, [r3, #34]
 5234 046a 1E46     		mov	r6, r3
 5235 046c 386A     		ldr	r0, [r7, #32]
 5236 046e FFF7FEFF 		bl	lv_obj_get_y
 5237 0472 0346     		mov	r3, r0
 5238 0474 F31A     		subs	r3, r6, r3
1219:..\..\..\lvgl\version_6.1.2\lvgl\src\lv_objx/lv_page.c ****                                       (obj_h - size_tmp - 2 * sb_ver_pad)) /
 5239              		.loc 3 1219 0
 5240 0476 B7F91810 		ldrsh	r1, [r7, #24]
 5241 047a B7F92E20 		ldrsh	r2, [r7, #46]
 5242 047e 891A     		subs	r1, r1, r2
 5243 0480 B7F91420 		ldrsh	r2, [r7, #20]
 5244 0484 5200     		lsls	r2, r2, #1
 5245 0486 8A1A     		subs	r2, r1, r2
1218:..\..\..\lvgl\version_6.1.2\lvgl\src\lv_objx/lv_page.c ****                         sb_ver_pad + (-(lv_obj_get_y(scrl) - ext->sb.style->body.padding.bottom) *
 5246              		.loc 3 1218 0
 5247 0488 02FB03F2 		mul	r2, r2, r3
1220:..\..\..\lvgl\version_6.1.2\lvgl\src\lv_objx/lv_page.c ****                                          (scrl_h + style->body.padding.top + style->body.padding.bo
 5248              		.loc 3 1220 0
 5249 048c B7F91C30 		ldrsh	r3, [r7, #28]
 5250 0490 796A     		ldr	r1, [r7, #36]
 5251 0492 B1F92010 		ldrsh	r1, [r1, #32]
 5252 0496 0B44     		add	r3, r3, r1
 5253 0498 796A     		ldr	r1, [r7, #36]
 5254 049a B1F92210 		ldrsh	r1, [r1, #34]
 5255 049e 1944     		add	r1, r1, r3
 5256 04a0 B7F91830 		ldrsh	r3, [r7, #24]
 5257 04a4 CB1A     		subs	r3, r1, r3
1219:..\..\..\lvgl\version_6.1.2\lvgl\src\lv_objx/lv_page.c ****                                       (obj_h - size_tmp - 2 * sb_ver_pad)) /
 5258              		.loc 3 1219 0
 5259 04a6 92FBF3F3 		sdiv	r3, r2, r3
1216:..\..\..\lvgl\version_6.1.2\lvgl\src\lv_objx/lv_page.c ****                         obj_w - ext->sb.style->body.padding.inner - ext->sb.style->body.padding.rig
 5260              		.loc 3 1216 0
ARM GAS  C:\Users\tmj32\AppData\Local\Temp\ccFKuFvs.s 			page 123


 5261 04aa 9AB2     		uxth	r2, r3
 5262 04ac BB8A     		ldrh	r3, [r7, #20]
 5263 04ae 1344     		add	r3, r3, r2
 5264 04b0 9BB2     		uxth	r3, r3
 5265 04b2 1BB2     		sxth	r3, r3
 5266 04b4 1A46     		mov	r2, r3
 5267 04b6 2946     		mov	r1, r5
 5268 04b8 2046     		mov	r0, r4
 5269 04ba FFF7FEFF 		bl	lv_area_set_pos
1221:..\..\..\lvgl\version_6.1.2\lvgl\src\lv_objx/lv_page.c **** 
1222:..\..\..\lvgl\version_6.1.2\lvgl\src\lv_objx/lv_page.c ****         if(ext->sb.mode == LV_SB_MODE_AUTO || ext->sb.mode == LV_SB_MODE_DRAG) ext->sb.ver_draw = 1
 5270              		.loc 3 1222 0
 5271 04be BB6A     		ldr	r3, [r7, #40]
 5272 04c0 1B7F     		ldrb	r3, [r3, #28]	@ zero_extendqisi2
 5273 04c2 03F01C03 		and	r3, r3, #28
 5274 04c6 DBB2     		uxtb	r3, r3
 5275 04c8 0C2B     		cmp	r3, #12
 5276 04ca 06D0     		beq	.L233
 5277              		.loc 3 1222 0 is_stmt 0 discriminator 2
 5278 04cc BB6A     		ldr	r3, [r7, #40]
 5279 04ce 1B7F     		ldrb	r3, [r3, #28]	@ zero_extendqisi2
 5280 04d0 03F01C03 		and	r3, r3, #28
 5281 04d4 DBB2     		uxtb	r3, r3
 5282 04d6 082B     		cmp	r3, #8
 5283 04d8 04D1     		bne	.L231
 5284              	.L233:
 5285              		.loc 3 1222 0 discriminator 3
 5286 04da BA6A     		ldr	r2, [r7, #40]
 5287 04dc 137F     		ldrb	r3, [r2, #28]
 5288 04de 43F00203 		orr	r3, r3, #2
 5289 04e2 1377     		strb	r3, [r2, #28]
 5290              	.L231:
1223:..\..\..\lvgl\version_6.1.2\lvgl\src\lv_objx/lv_page.c ****     }
1224:..\..\..\lvgl\version_6.1.2\lvgl\src\lv_objx/lv_page.c **** 
1225:..\..\..\lvgl\version_6.1.2\lvgl\src\lv_objx/lv_page.c ****     /*Invalidate the new scrollbar areas*/
1226:..\..\..\lvgl\version_6.1.2\lvgl\src\lv_objx/lv_page.c ****     if(ext->sb.hor_draw != 0) {
 5291              		.loc 3 1226 0 is_stmt 1
 5292 04e4 BB6A     		ldr	r3, [r7, #40]
 5293 04e6 1B7F     		ldrb	r3, [r3, #28]	@ zero_extendqisi2
 5294 04e8 03F00103 		and	r3, r3, #1
 5295 04ec DBB2     		uxtb	r3, r3
 5296 04ee 002B     		cmp	r3, #0
 5297 04f0 3AD0     		beq	.L234
1227:..\..\..\lvgl\version_6.1.2\lvgl\src\lv_objx/lv_page.c ****         lv_area_copy(&sb_area_tmp, &ext->sb.hor_area);
 5298              		.loc 3 1227 0
 5299 04f2 BB6A     		ldr	r3, [r7, #40]
 5300 04f4 03F10C02 		add	r2, r3, #12
 5301 04f8 07F10C03 		add	r3, r7, #12
 5302 04fc 1146     		mov	r1, r2
 5303 04fe 1846     		mov	r0, r3
 5304 0500 FFF7FEFF 		bl	lv_area_copy
1228:..\..\..\lvgl\version_6.1.2\lvgl\src\lv_objx/lv_page.c ****         sb_area_tmp.x1 += page->coords.x1;
 5305              		.loc 3 1228 0
 5306 0504 B7F90C30 		ldrsh	r3, [r7, #12]
 5307 0508 9AB2     		uxth	r2, r3
 5308 050a 7B68     		ldr	r3, [r7, #4]
 5309 050c B3F91030 		ldrsh	r3, [r3, #16]
ARM GAS  C:\Users\tmj32\AppData\Local\Temp\ccFKuFvs.s 			page 124


 5310 0510 9BB2     		uxth	r3, r3
 5311 0512 1344     		add	r3, r3, r2
 5312 0514 9BB2     		uxth	r3, r3
 5313 0516 1BB2     		sxth	r3, r3
 5314 0518 BB81     		strh	r3, [r7, #12]	@ movhi
1229:..\..\..\lvgl\version_6.1.2\lvgl\src\lv_objx/lv_page.c ****         sb_area_tmp.y1 += page->coords.y1;
 5315              		.loc 3 1229 0
 5316 051a B7F90E30 		ldrsh	r3, [r7, #14]
 5317 051e 9AB2     		uxth	r2, r3
 5318 0520 7B68     		ldr	r3, [r7, #4]
 5319 0522 B3F91230 		ldrsh	r3, [r3, #18]
 5320 0526 9BB2     		uxth	r3, r3
 5321 0528 1344     		add	r3, r3, r2
 5322 052a 9BB2     		uxth	r3, r3
 5323 052c 1BB2     		sxth	r3, r3
 5324 052e FB81     		strh	r3, [r7, #14]	@ movhi
1230:..\..\..\lvgl\version_6.1.2\lvgl\src\lv_objx/lv_page.c ****         sb_area_tmp.x2 += page->coords.x1;
 5325              		.loc 3 1230 0
 5326 0530 B7F91030 		ldrsh	r3, [r7, #16]
 5327 0534 9AB2     		uxth	r2, r3
 5328 0536 7B68     		ldr	r3, [r7, #4]
 5329 0538 B3F91030 		ldrsh	r3, [r3, #16]
 5330 053c 9BB2     		uxth	r3, r3
 5331 053e 1344     		add	r3, r3, r2
 5332 0540 9BB2     		uxth	r3, r3
 5333 0542 1BB2     		sxth	r3, r3
 5334 0544 3B82     		strh	r3, [r7, #16]	@ movhi
1231:..\..\..\lvgl\version_6.1.2\lvgl\src\lv_objx/lv_page.c ****         sb_area_tmp.y2 += page->coords.y1;
 5335              		.loc 3 1231 0
 5336 0546 B7F91230 		ldrsh	r3, [r7, #18]
 5337 054a 9AB2     		uxth	r2, r3
 5338 054c 7B68     		ldr	r3, [r7, #4]
 5339 054e B3F91230 		ldrsh	r3, [r3, #18]
 5340 0552 9BB2     		uxth	r3, r3
 5341 0554 1344     		add	r3, r3, r2
 5342 0556 9BB2     		uxth	r3, r3
 5343 0558 1BB2     		sxth	r3, r3
 5344 055a 7B82     		strh	r3, [r7, #18]	@ movhi
1232:..\..\..\lvgl\version_6.1.2\lvgl\src\lv_objx/lv_page.c ****         lv_obj_invalidate_area(page, &sb_area_tmp);
 5345              		.loc 3 1232 0
 5346 055c 07F10C03 		add	r3, r7, #12
 5347 0560 1946     		mov	r1, r3
 5348 0562 7868     		ldr	r0, [r7, #4]
 5349 0564 FFF7FEFF 		bl	lv_obj_invalidate_area
 5350              	.L234:
1233:..\..\..\lvgl\version_6.1.2\lvgl\src\lv_objx/lv_page.c ****     }
1234:..\..\..\lvgl\version_6.1.2\lvgl\src\lv_objx/lv_page.c ****     if(ext->sb.ver_draw != 0) {
 5351              		.loc 3 1234 0
 5352 0568 BB6A     		ldr	r3, [r7, #40]
 5353 056a 1B7F     		ldrb	r3, [r3, #28]	@ zero_extendqisi2
 5354 056c 03F00203 		and	r3, r3, #2
 5355 0570 DBB2     		uxtb	r3, r3
 5356 0572 002B     		cmp	r3, #0
 5357 0574 3CD0     		beq	.L215
1235:..\..\..\lvgl\version_6.1.2\lvgl\src\lv_objx/lv_page.c ****         lv_area_copy(&sb_area_tmp, &ext->sb.ver_area);
 5358              		.loc 3 1235 0
 5359 0576 BB6A     		ldr	r3, [r7, #40]
ARM GAS  C:\Users\tmj32\AppData\Local\Temp\ccFKuFvs.s 			page 125


 5360 0578 03F11402 		add	r2, r3, #20
 5361 057c 07F10C03 		add	r3, r7, #12
 5362 0580 1146     		mov	r1, r2
 5363 0582 1846     		mov	r0, r3
 5364 0584 FFF7FEFF 		bl	lv_area_copy
1236:..\..\..\lvgl\version_6.1.2\lvgl\src\lv_objx/lv_page.c ****         sb_area_tmp.x1 += page->coords.x1;
 5365              		.loc 3 1236 0
 5366 0588 B7F90C30 		ldrsh	r3, [r7, #12]
 5367 058c 9AB2     		uxth	r2, r3
 5368 058e 7B68     		ldr	r3, [r7, #4]
 5369 0590 B3F91030 		ldrsh	r3, [r3, #16]
 5370 0594 9BB2     		uxth	r3, r3
 5371 0596 1344     		add	r3, r3, r2
 5372 0598 9BB2     		uxth	r3, r3
 5373 059a 1BB2     		sxth	r3, r3
 5374 059c BB81     		strh	r3, [r7, #12]	@ movhi
1237:..\..\..\lvgl\version_6.1.2\lvgl\src\lv_objx/lv_page.c ****         sb_area_tmp.y1 += page->coords.y1;
 5375              		.loc 3 1237 0
 5376 059e B7F90E30 		ldrsh	r3, [r7, #14]
 5377 05a2 9AB2     		uxth	r2, r3
 5378 05a4 7B68     		ldr	r3, [r7, #4]
 5379 05a6 B3F91230 		ldrsh	r3, [r3, #18]
 5380 05aa 9BB2     		uxth	r3, r3
 5381 05ac 1344     		add	r3, r3, r2
 5382 05ae 9BB2     		uxth	r3, r3
 5383 05b0 1BB2     		sxth	r3, r3
 5384 05b2 FB81     		strh	r3, [r7, #14]	@ movhi
1238:..\..\..\lvgl\version_6.1.2\lvgl\src\lv_objx/lv_page.c ****         sb_area_tmp.x2 += page->coords.x1;
 5385              		.loc 3 1238 0
 5386 05b4 B7F91030 		ldrsh	r3, [r7, #16]
 5387 05b8 9AB2     		uxth	r2, r3
 5388 05ba 7B68     		ldr	r3, [r7, #4]
 5389 05bc B3F91030 		ldrsh	r3, [r3, #16]
 5390 05c0 9BB2     		uxth	r3, r3
 5391 05c2 1344     		add	r3, r3, r2
 5392 05c4 9BB2     		uxth	r3, r3
 5393 05c6 1BB2     		sxth	r3, r3
 5394 05c8 3B82     		strh	r3, [r7, #16]	@ movhi
1239:..\..\..\lvgl\version_6.1.2\lvgl\src\lv_objx/lv_page.c ****         sb_area_tmp.y2 += page->coords.y1;
 5395              		.loc 3 1239 0
 5396 05ca B7F91230 		ldrsh	r3, [r7, #18]
 5397 05ce 9AB2     		uxth	r2, r3
 5398 05d0 7B68     		ldr	r3, [r7, #4]
 5399 05d2 B3F91230 		ldrsh	r3, [r3, #18]
 5400 05d6 9BB2     		uxth	r3, r3
 5401 05d8 1344     		add	r3, r3, r2
 5402 05da 9BB2     		uxth	r3, r3
 5403 05dc 1BB2     		sxth	r3, r3
 5404 05de 7B82     		strh	r3, [r7, #18]	@ movhi
1240:..\..\..\lvgl\version_6.1.2\lvgl\src\lv_objx/lv_page.c ****         lv_obj_invalidate_area(page, &sb_area_tmp);
 5405              		.loc 3 1240 0
 5406 05e0 07F10C03 		add	r3, r7, #12
 5407 05e4 1946     		mov	r1, r3
 5408 05e6 7868     		ldr	r0, [r7, #4]
 5409 05e8 FFF7FEFF 		bl	lv_obj_invalidate_area
 5410 05ec 00E0     		b	.L215
 5411              	.L237:
ARM GAS  C:\Users\tmj32\AppData\Local\Temp\ccFKuFvs.s 			page 126


1147:..\..\..\lvgl\version_6.1.2\lvgl\src\lv_objx/lv_page.c **** 
 5412              		.loc 3 1147 0
 5413 05ee 00BF     		nop
 5414              	.L215:
1241:..\..\..\lvgl\version_6.1.2\lvgl\src\lv_objx/lv_page.c ****     }
1242:..\..\..\lvgl\version_6.1.2\lvgl\src\lv_objx/lv_page.c **** }
 5415              		.loc 3 1242 0
 5416 05f0 3437     		adds	r7, r7, #52
 5417              		.cfi_def_cfa_offset 20
 5418 05f2 BD46     		mov	sp, r7
 5419              		.cfi_def_cfa_register 13
 5420              		@ sp needed
 5421 05f4 F0BD     		pop	{r4, r5, r6, r7, pc}
 5422              		.cfi_endproc
 5423              	.LFE74:
 5424              		.size	lv_page_sb_refresh, .-lv_page_sb_refresh
 5425 05f6 00BF     		.section	.text.edge_flash_anim,"ax",%progbits
 5426              		.align	2
 5427              		.thumb
 5428              		.thumb_func
 5429              		.type	edge_flash_anim, %function
 5430              	edge_flash_anim:
 5431              	.LFB75:
1243:..\..\..\lvgl\version_6.1.2\lvgl\src\lv_objx/lv_page.c **** 
1244:..\..\..\lvgl\version_6.1.2\lvgl\src\lv_objx/lv_page.c **** #if LV_USE_ANIMATION
1245:..\..\..\lvgl\version_6.1.2\lvgl\src\lv_objx/lv_page.c **** static void edge_flash_anim(void * page, lv_anim_value_t v)
1246:..\..\..\lvgl\version_6.1.2\lvgl\src\lv_objx/lv_page.c **** {
 5432              		.loc 3 1246 0
 5433              		.cfi_startproc
 5434              		@ args = 0, pretend = 0, frame = 16
 5435              		@ frame_needed = 1, uses_anonymous_args = 0
 5436 0000 80B5     		push	{r7, lr}
 5437              		.cfi_def_cfa_offset 8
 5438              		.cfi_offset 7, -8
 5439              		.cfi_offset 14, -4
 5440 0002 84B0     		sub	sp, sp, #16
 5441              		.cfi_def_cfa_offset 24
 5442 0004 00AF     		add	r7, sp, #0
 5443              		.cfi_def_cfa_register 7
 5444 0006 7860     		str	r0, [r7, #4]
 5445 0008 0B46     		mov	r3, r1
 5446 000a 7B80     		strh	r3, [r7, #2]	@ movhi
1247:..\..\..\lvgl\version_6.1.2\lvgl\src\lv_objx/lv_page.c ****     lv_page_ext_t * ext   = lv_obj_get_ext_attr(page);
 5447              		.loc 3 1247 0
 5448 000c 7868     		ldr	r0, [r7, #4]
 5449 000e FFF7FEFF 		bl	lv_obj_get_ext_attr
 5450 0012 F860     		str	r0, [r7, #12]
1248:..\..\..\lvgl\version_6.1.2\lvgl\src\lv_objx/lv_page.c ****     ext->edge_flash.state = v;
 5451              		.loc 3 1248 0
 5452 0014 FB68     		ldr	r3, [r7, #12]
 5453 0016 7A88     		ldrh	r2, [r7, #2]	@ movhi
 5454 0018 1A84     		strh	r2, [r3, #32]	@ movhi
1249:..\..\..\lvgl\version_6.1.2\lvgl\src\lv_objx/lv_page.c ****     lv_obj_invalidate(page);
 5455              		.loc 3 1249 0
 5456 001a 7868     		ldr	r0, [r7, #4]
 5457 001c FFF7FEFF 		bl	lv_obj_invalidate
1250:..\..\..\lvgl\version_6.1.2\lvgl\src\lv_objx/lv_page.c **** }
ARM GAS  C:\Users\tmj32\AppData\Local\Temp\ccFKuFvs.s 			page 127


 5458              		.loc 3 1250 0
 5459 0020 00BF     		nop
 5460 0022 1037     		adds	r7, r7, #16
 5461              		.cfi_def_cfa_offset 8
 5462 0024 BD46     		mov	sp, r7
 5463              		.cfi_def_cfa_register 13
 5464              		@ sp needed
 5465 0026 80BD     		pop	{r7, pc}
 5466              		.cfi_endproc
 5467              	.LFE75:
 5468              		.size	edge_flash_anim, .-edge_flash_anim
 5469              		.section	.text.edge_flash_anim_end,"ax",%progbits
 5470              		.align	2
 5471              		.thumb
 5472              		.thumb_func
 5473              		.type	edge_flash_anim_end, %function
 5474              	edge_flash_anim_end:
 5475              	.LFB76:
1251:..\..\..\lvgl\version_6.1.2\lvgl\src\lv_objx/lv_page.c **** 
1252:..\..\..\lvgl\version_6.1.2\lvgl\src\lv_objx/lv_page.c **** static void edge_flash_anim_end(lv_anim_t * a)
1253:..\..\..\lvgl\version_6.1.2\lvgl\src\lv_objx/lv_page.c **** {
 5476              		.loc 3 1253 0
 5477              		.cfi_startproc
 5478              		@ args = 0, pretend = 0, frame = 16
 5479              		@ frame_needed = 1, uses_anonymous_args = 0
 5480 0000 80B5     		push	{r7, lr}
 5481              		.cfi_def_cfa_offset 8
 5482              		.cfi_offset 7, -8
 5483              		.cfi_offset 14, -4
 5484 0002 84B0     		sub	sp, sp, #16
 5485              		.cfi_def_cfa_offset 24
 5486 0004 00AF     		add	r7, sp, #0
 5487              		.cfi_def_cfa_register 7
 5488 0006 7860     		str	r0, [r7, #4]
1254:..\..\..\lvgl\version_6.1.2\lvgl\src\lv_objx/lv_page.c ****     lv_page_ext_t * ext       = lv_obj_get_ext_attr(a->var);
 5489              		.loc 3 1254 0
 5490 0008 7B68     		ldr	r3, [r7, #4]
 5491 000a 1B68     		ldr	r3, [r3]
 5492 000c 1846     		mov	r0, r3
 5493 000e FFF7FEFF 		bl	lv_obj_get_ext_attr
 5494 0012 F860     		str	r0, [r7, #12]
1255:..\..\..\lvgl\version_6.1.2\lvgl\src\lv_objx/lv_page.c ****     ext->edge_flash.top_ip    = 0;
 5495              		.loc 3 1255 0
 5496 0014 FA68     		ldr	r2, [r7, #12]
 5497 0016 92F82830 		ldrb	r3, [r2, #40]
 5498 001a 6FF34103 		bfc	r3, #1, #1
 5499 001e 82F82830 		strb	r3, [r2, #40]
1256:..\..\..\lvgl\version_6.1.2\lvgl\src\lv_objx/lv_page.c ****     ext->edge_flash.bottom_ip = 0;
 5500              		.loc 3 1256 0
 5501 0022 FA68     		ldr	r2, [r7, #12]
 5502 0024 92F82830 		ldrb	r3, [r2, #40]
 5503 0028 6FF38203 		bfc	r3, #2, #1
 5504 002c 82F82830 		strb	r3, [r2, #40]
1257:..\..\..\lvgl\version_6.1.2\lvgl\src\lv_objx/lv_page.c ****     ext->edge_flash.left_ip   = 0;
 5505              		.loc 3 1257 0
 5506 0030 FA68     		ldr	r2, [r7, #12]
 5507 0032 92F82830 		ldrb	r3, [r2, #40]
ARM GAS  C:\Users\tmj32\AppData\Local\Temp\ccFKuFvs.s 			page 128


 5508 0036 6FF30413 		bfc	r3, #4, #1
 5509 003a 82F82830 		strb	r3, [r2, #40]
1258:..\..\..\lvgl\version_6.1.2\lvgl\src\lv_objx/lv_page.c ****     ext->edge_flash.right_ip  = 0;
 5510              		.loc 3 1258 0
 5511 003e FA68     		ldr	r2, [r7, #12]
 5512 0040 92F82830 		ldrb	r3, [r2, #40]
 5513 0044 6FF3C303 		bfc	r3, #3, #1
 5514 0048 82F82830 		strb	r3, [r2, #40]
1259:..\..\..\lvgl\version_6.1.2\lvgl\src\lv_objx/lv_page.c ****     lv_obj_invalidate(a->var);
 5515              		.loc 3 1259 0
 5516 004c 7B68     		ldr	r3, [r7, #4]
 5517 004e 1B68     		ldr	r3, [r3]
 5518 0050 1846     		mov	r0, r3
 5519 0052 FFF7FEFF 		bl	lv_obj_invalidate
1260:..\..\..\lvgl\version_6.1.2\lvgl\src\lv_objx/lv_page.c **** }
 5520              		.loc 3 1260 0
 5521 0056 00BF     		nop
 5522 0058 1037     		adds	r7, r7, #16
 5523              		.cfi_def_cfa_offset 8
 5524 005a BD46     		mov	sp, r7
 5525              		.cfi_def_cfa_register 13
 5526              		@ sp needed
 5527 005c 80BD     		pop	{r7, pc}
 5528              		.cfi_endproc
 5529              	.LFE76:
 5530              		.size	edge_flash_anim_end, .-edge_flash_anim_end
 5531 005e 00BF     		.text
 5532              	.Letext0:
 5533              		.file 4 "c:\\program files (x86)\\cypress\\psoc creator\\4.3\\psoc creator\\import\\gnu\\arm\\5.4.
 5534              		.file 5 "c:\\program files (x86)\\cypress\\psoc creator\\4.3\\psoc creator\\import\\gnu\\arm\\5.4.
 5535              		.file 6 "..\\..\\..\\lvgl\\version_6.1.2\\lvgl\\src\\lv_objx\\../lv_objx/../../../lv_conf.h"
 5536              		.file 7 "..\\..\\..\\lvgl\\version_6.1.2\\lvgl\\src\\lv_objx\\../lv_objx/../lv_core/../lv_font/lv_
 5537              		.file 8 "..\\..\\..\\lvgl\\version_6.1.2\\lvgl\\src\\lv_objx\\../lv_objx/../lv_core/../lv_misc/lv_
 5538              		.file 9 "..\\..\\..\\lvgl\\version_6.1.2\\lvgl\\src\\lv_objx\\../lv_objx/../lv_core/../lv_misc/lv_
 5539              		.file 10 "..\\..\\..\\lvgl\\version_6.1.2\\lvgl\\src\\lv_objx\\../lv_objx/../lv_core/lv_style.h"
 5540              		.file 11 "..\\..\\..\\lvgl\\version_6.1.2\\lvgl\\src\\lv_objx\\../lv_objx/../lv_core/../lv_misc/lv
 5541              		.file 12 "..\\..\\..\\lvgl\\version_6.1.2\\lvgl\\src\\lv_objx\\../lv_objx/../lv_core/../lv_misc/lv
 5542              		.file 13 "..\\..\\..\\lvgl\\version_6.1.2\\lvgl\\src\\lv_objx\\../lv_objx/../lv_core/../lv_misc/lv
 5543              		.file 14 "..\\..\\..\\lvgl\\version_6.1.2\\lvgl\\src\\lv_objx\\../lv_objx/../lv_core/../lv_hal/../
 5544              		.file 15 "..\\..\\..\\lvgl\\version_6.1.2\\lvgl\\src\\lv_objx\\../lv_objx/../lv_core/../lv_hal/lv_
 5545              		.file 16 "..\\..\\..\\lvgl\\version_6.1.2\\lvgl\\src\\lv_objx\\../lv_objx/../lv_core/lv_obj.h"
 5546              		.file 17 "..\\..\\..\\lvgl\\version_6.1.2\\lvgl\\src\\lv_objx\\../lv_objx/../lv_core/../lv_hal/lv_
 5547              		.file 18 "..\\..\\..\\lvgl\\version_6.1.2\\lvgl\\src\\lv_objx\\../lv_objx/lv_cont.h"
 5548              		.file 19 "..\\..\\..\\lvgl\\version_6.1.2\\lvgl\\src\\lv_objx\\../lv_objx/../lv_core/../lv_core/lv
 5549              		.file 20 "..\\..\\..\\lvgl\\version_6.1.2\\lvgl\\src\\lv_objx\\../lv_themes/lv_theme.h"
 5550              		.section	.debug_info,"",%progbits
 5551              	.Ldebug_info0:
 5552 0000 5F290000 		.4byte	0x295f
 5553 0004 0400     		.2byte	0x4
 5554 0006 00000000 		.4byte	.Ldebug_abbrev0
 5555 000a 04       		.byte	0x4
 5556 000b 01       		.uleb128 0x1
 5557 000c 23110000 		.4byte	.LASF490
 5558 0010 0C       		.byte	0xc
 5559 0011 5F030000 		.4byte	.LASF491
 5560 0015 700A0000 		.4byte	.LASF492
 5561 0019 00000000 		.4byte	.Ldebug_ranges0+0
ARM GAS  C:\Users\tmj32\AppData\Local\Temp\ccFKuFvs.s 			page 129


 5562 001d 00000000 		.4byte	0
 5563 0021 00000000 		.4byte	.Ldebug_line0
 5564 0025 02       		.uleb128 0x2
 5565 0026 B30F0000 		.4byte	.LASF0
 5566 002a 04       		.byte	0x4
 5567 002b 1B       		.byte	0x1b
 5568 002c 30000000 		.4byte	0x30
 5569 0030 03       		.uleb128 0x3
 5570 0031 01       		.byte	0x1
 5571 0032 06       		.byte	0x6
 5572 0033 EB030000 		.4byte	.LASF2
 5573 0037 02       		.uleb128 0x2
 5574 0038 A3020000 		.4byte	.LASF1
 5575 003c 04       		.byte	0x4
 5576 003d 1D       		.byte	0x1d
 5577 003e 42000000 		.4byte	0x42
 5578 0042 03       		.uleb128 0x3
 5579 0043 01       		.byte	0x1
 5580 0044 08       		.byte	0x8
 5581 0045 89040000 		.4byte	.LASF3
 5582 0049 02       		.uleb128 0x2
 5583 004a FA110000 		.4byte	.LASF4
 5584 004e 04       		.byte	0x4
 5585 004f 29       		.byte	0x29
 5586 0050 54000000 		.4byte	0x54
 5587 0054 03       		.uleb128 0x3
 5588 0055 02       		.byte	0x2
 5589 0056 05       		.byte	0x5
 5590 0057 A9130000 		.4byte	.LASF5
 5591 005b 02       		.uleb128 0x2
 5592 005c 07060000 		.4byte	.LASF6
 5593 0060 04       		.byte	0x4
 5594 0061 2B       		.byte	0x2b
 5595 0062 66000000 		.4byte	0x66
 5596 0066 03       		.uleb128 0x3
 5597 0067 02       		.byte	0x2
 5598 0068 07       		.byte	0x7
 5599 0069 26160000 		.4byte	.LASF7
 5600 006d 02       		.uleb128 0x2
 5601 006e DD160000 		.4byte	.LASF8
 5602 0072 04       		.byte	0x4
 5603 0073 3F       		.byte	0x3f
 5604 0074 78000000 		.4byte	0x78
 5605 0078 03       		.uleb128 0x3
 5606 0079 04       		.byte	0x4
 5607 007a 05       		.byte	0x5
 5608 007b EE020000 		.4byte	.LASF9
 5609 007f 02       		.uleb128 0x2
 5610 0080 400A0000 		.4byte	.LASF10
 5611 0084 04       		.byte	0x4
 5612 0085 41       		.byte	0x41
 5613 0086 8A000000 		.4byte	0x8a
 5614 008a 03       		.uleb128 0x3
 5615 008b 04       		.byte	0x4
 5616 008c 07       		.byte	0x7
 5617 008d 21090000 		.4byte	.LASF11
 5618 0091 03       		.uleb128 0x3
ARM GAS  C:\Users\tmj32\AppData\Local\Temp\ccFKuFvs.s 			page 130


 5619 0092 08       		.byte	0x8
 5620 0093 05       		.byte	0x5
 5621 0094 620A0000 		.4byte	.LASF12
 5622 0098 03       		.uleb128 0x3
 5623 0099 08       		.byte	0x8
 5624 009a 07       		.byte	0x7
 5625 009b 02100000 		.4byte	.LASF13
 5626 009f 04       		.uleb128 0x4
 5627 00a0 04       		.byte	0x4
 5628 00a1 05       		.byte	0x5
 5629 00a2 696E7400 		.ascii	"int\000"
 5630 00a6 03       		.uleb128 0x3
 5631 00a7 04       		.byte	0x4
 5632 00a8 07       		.byte	0x7
 5633 00a9 470C0000 		.4byte	.LASF14
 5634 00ad 02       		.uleb128 0x2
 5635 00ae 00000000 		.4byte	.LASF15
 5636 00b2 05       		.byte	0x5
 5637 00b3 14       		.byte	0x14
 5638 00b4 25000000 		.4byte	0x25
 5639 00b8 02       		.uleb128 0x2
 5640 00b9 F7030000 		.4byte	.LASF16
 5641 00bd 05       		.byte	0x5
 5642 00be 18       		.byte	0x18
 5643 00bf 37000000 		.4byte	0x37
 5644 00c3 02       		.uleb128 0x2
 5645 00c4 EA130000 		.4byte	.LASF17
 5646 00c8 05       		.byte	0x5
 5647 00c9 20       		.byte	0x20
 5648 00ca 49000000 		.4byte	0x49
 5649 00ce 02       		.uleb128 0x2
 5650 00cf 3B100000 		.4byte	.LASF18
 5651 00d3 05       		.byte	0x5
 5652 00d4 24       		.byte	0x24
 5653 00d5 5B000000 		.4byte	0x5b
 5654 00d9 02       		.uleb128 0x2
 5655 00da CA000000 		.4byte	.LASF19
 5656 00de 05       		.byte	0x5
 5657 00df 2C       		.byte	0x2c
 5658 00e0 6D000000 		.4byte	0x6d
 5659 00e4 02       		.uleb128 0x2
 5660 00e5 89150000 		.4byte	.LASF20
 5661 00e9 05       		.byte	0x5
 5662 00ea 30       		.byte	0x30
 5663 00eb 7F000000 		.4byte	0x7f
 5664 00ef 02       		.uleb128 0x2
 5665 00f0 69160000 		.4byte	.LASF21
 5666 00f4 06       		.byte	0x6
 5667 00f5 3C       		.byte	0x3c
 5668 00f6 C3000000 		.4byte	0xc3
 5669 00fa 05       		.uleb128 0x5
 5670 00fb 04       		.byte	0x4
 5671 00fc 03       		.uleb128 0x3
 5672 00fd 08       		.byte	0x8
 5673 00fe 04       		.byte	0x4
 5674 00ff 360E0000 		.4byte	.LASF22
 5675 0103 06       		.uleb128 0x6
ARM GAS  C:\Users\tmj32\AppData\Local\Temp\ccFKuFvs.s 			page 131


 5676 0104 08       		.byte	0x8
 5677 0105 07       		.byte	0x7
 5678 0106 2E       		.byte	0x2e
 5679 0107 54010000 		.4byte	0x154
 5680 010b 07       		.uleb128 0x7
 5681 010c 25000000 		.4byte	.LASF23
 5682 0110 07       		.byte	0x7
 5683 0111 30       		.byte	0x30
 5684 0112 CE000000 		.4byte	0xce
 5685 0116 00       		.byte	0
 5686 0117 07       		.uleb128 0x7
 5687 0118 A3130000 		.4byte	.LASF24
 5688 011c 07       		.byte	0x7
 5689 011d 31       		.byte	0x31
 5690 011e B8000000 		.4byte	0xb8
 5691 0122 02       		.byte	0x2
 5692 0123 07       		.uleb128 0x7
 5693 0124 7B130000 		.4byte	.LASF25
 5694 0128 07       		.byte	0x7
 5695 0129 32       		.byte	0x32
 5696 012a B8000000 		.4byte	0xb8
 5697 012e 03       		.byte	0x3
 5698 012f 07       		.uleb128 0x7
 5699 0130 E8040000 		.4byte	.LASF26
 5700 0134 07       		.byte	0x7
 5701 0135 33       		.byte	0x33
 5702 0136 AD000000 		.4byte	0xad
 5703 013a 04       		.byte	0x4
 5704 013b 07       		.uleb128 0x7
 5705 013c EE040000 		.4byte	.LASF27
 5706 0140 07       		.byte	0x7
 5707 0141 34       		.byte	0x34
 5708 0142 AD000000 		.4byte	0xad
 5709 0146 05       		.byte	0x5
 5710 0147 08       		.uleb128 0x8
 5711 0148 62707000 		.ascii	"bpp\000"
 5712 014c 07       		.byte	0x7
 5713 014d 35       		.byte	0x35
 5714 014e B8000000 		.4byte	0xb8
 5715 0152 06       		.byte	0x6
 5716 0153 00       		.byte	0
 5717 0154 02       		.uleb128 0x2
 5718 0155 400D0000 		.4byte	.LASF28
 5719 0159 07       		.byte	0x7
 5720 015a 36       		.byte	0x36
 5721 015b 03010000 		.4byte	0x103
 5722 015f 09       		.uleb128 0x9
 5723 0160 72170000 		.4byte	.LASF64
 5724 0164 10       		.byte	0x10
 5725 0165 07       		.byte	0x7
 5726 0166 44       		.byte	0x44
 5727 0167 B7010000 		.4byte	0x1b7
 5728 016b 07       		.uleb128 0x7
 5729 016c CF160000 		.4byte	.LASF29
 5730 0170 07       		.byte	0x7
 5731 0171 47       		.byte	0x47
 5732 0172 ED010000 		.4byte	0x1ed
ARM GAS  C:\Users\tmj32\AppData\Local\Temp\ccFKuFvs.s 			page 132


 5733 0176 00       		.byte	0
 5734 0177 07       		.uleb128 0x7
 5735 0178 3C040000 		.4byte	.LASF30
 5736 017c 07       		.byte	0x7
 5737 017d 4A       		.byte	0x4a
 5738 017e 12020000 		.4byte	0x212
 5739 0182 04       		.byte	0x4
 5740 0183 07       		.uleb128 0x7
 5741 0184 6B010000 		.4byte	.LASF31
 5742 0188 07       		.byte	0x7
 5743 0189 4D       		.byte	0x4d
 5744 018a B8000000 		.4byte	0xb8
 5745 018e 08       		.byte	0x8
 5746 018f 07       		.uleb128 0x7
 5747 0190 BC130000 		.4byte	.LASF32
 5748 0194 07       		.byte	0x7
 5749 0195 4E       		.byte	0x4e
 5750 0196 AD000000 		.4byte	0xad
 5751 019a 09       		.byte	0x9
 5752 019b 0A       		.uleb128 0xa
 5753 019c C90E0000 		.4byte	.LASF74
 5754 01a0 07       		.byte	0x7
 5755 01a1 4F       		.byte	0x4f
 5756 01a2 B8000000 		.4byte	0xb8
 5757 01a6 01       		.byte	0x1
 5758 01a7 02       		.byte	0x2
 5759 01a8 06       		.byte	0x6
 5760 01a9 0A       		.byte	0xa
 5761 01aa 08       		.uleb128 0x8
 5762 01ab 64736300 		.ascii	"dsc\000"
 5763 01af 07       		.byte	0x7
 5764 01b0 50       		.byte	0x50
 5765 01b1 FA000000 		.4byte	0xfa
 5766 01b5 0C       		.byte	0xc
 5767 01b6 00       		.byte	0
 5768 01b7 0B       		.uleb128 0xb
 5769 01b8 D5010000 		.4byte	0x1d5
 5770 01bc D5010000 		.4byte	0x1d5
 5771 01c0 0C       		.uleb128 0xc
 5772 01c1 DC010000 		.4byte	0x1dc
 5773 01c5 0C       		.uleb128 0xc
 5774 01c6 E7010000 		.4byte	0x1e7
 5775 01ca 0C       		.uleb128 0xc
 5776 01cb E4000000 		.4byte	0xe4
 5777 01cf 0C       		.uleb128 0xc
 5778 01d0 E4000000 		.4byte	0xe4
 5779 01d4 00       		.byte	0
 5780 01d5 03       		.uleb128 0x3
 5781 01d6 01       		.byte	0x1
 5782 01d7 02       		.byte	0x2
 5783 01d8 0C050000 		.4byte	.LASF33
 5784 01dc 0D       		.uleb128 0xd
 5785 01dd 04       		.byte	0x4
 5786 01de E2010000 		.4byte	0x1e2
 5787 01e2 0E       		.uleb128 0xe
 5788 01e3 5F010000 		.4byte	0x15f
 5789 01e7 0D       		.uleb128 0xd
ARM GAS  C:\Users\tmj32\AppData\Local\Temp\ccFKuFvs.s 			page 133


 5790 01e8 04       		.byte	0x4
 5791 01e9 54010000 		.4byte	0x154
 5792 01ed 0D       		.uleb128 0xd
 5793 01ee 04       		.byte	0x4
 5794 01ef B7010000 		.4byte	0x1b7
 5795 01f3 0B       		.uleb128 0xb
 5796 01f4 07020000 		.4byte	0x207
 5797 01f8 07020000 		.4byte	0x207
 5798 01fc 0C       		.uleb128 0xc
 5799 01fd DC010000 		.4byte	0x1dc
 5800 0201 0C       		.uleb128 0xc
 5801 0202 E4000000 		.4byte	0xe4
 5802 0206 00       		.byte	0
 5803 0207 0D       		.uleb128 0xd
 5804 0208 04       		.byte	0x4
 5805 0209 0D020000 		.4byte	0x20d
 5806 020d 0E       		.uleb128 0xe
 5807 020e B8000000 		.4byte	0xb8
 5808 0212 0D       		.uleb128 0xd
 5809 0213 04       		.byte	0x4
 5810 0214 F3010000 		.4byte	0x1f3
 5811 0218 02       		.uleb128 0x2
 5812 0219 FE150000 		.4byte	.LASF34
 5813 021d 07       		.byte	0x7
 5814 021e 56       		.byte	0x56
 5815 021f 5F010000 		.4byte	0x15f
 5816 0223 0F       		.uleb128 0xf
 5817 0224 01       		.byte	0x1
 5818 0225 42000000 		.4byte	0x42
 5819 0229 08       		.byte	0x8
 5820 022a 3E       		.byte	0x3e
 5821 022b 7E020000 		.4byte	0x27e
 5822 022f 10       		.uleb128 0x10
 5823 0230 E00B0000 		.4byte	.LASF35
 5824 0234 00       		.byte	0
 5825 0235 10       		.uleb128 0x10
 5826 0236 70090000 		.4byte	.LASF36
 5827 023a 00       		.byte	0
 5828 023b 10       		.uleb128 0x10
 5829 023c E4100000 		.4byte	.LASF37
 5830 0240 19       		.byte	0x19
 5831 0241 10       		.uleb128 0x10
 5832 0242 50120000 		.4byte	.LASF38
 5833 0246 33       		.byte	0x33
 5834 0247 10       		.uleb128 0x10
 5835 0248 34130000 		.4byte	.LASF39
 5836 024c 4C       		.byte	0x4c
 5837 024d 10       		.uleb128 0x10
 5838 024e E0130000 		.4byte	.LASF40
 5839 0252 66       		.byte	0x66
 5840 0253 10       		.uleb128 0x10
 5841 0254 81140000 		.4byte	.LASF41
 5842 0258 7F       		.byte	0x7f
 5843 0259 10       		.uleb128 0x10
 5844 025a 7F150000 		.4byte	.LASF42
 5845 025e 99       		.byte	0x99
 5846 025f 10       		.uleb128 0x10
ARM GAS  C:\Users\tmj32\AppData\Local\Temp\ccFKuFvs.s 			page 134


 5847 0260 1C160000 		.4byte	.LASF43
 5848 0264 B2       		.byte	0xb2
 5849 0265 10       		.uleb128 0x10
 5850 0266 25170000 		.4byte	.LASF44
 5851 026a CC       		.byte	0xcc
 5852 026b 10       		.uleb128 0x10
 5853 026c ED170000 		.4byte	.LASF45
 5854 0270 E5       		.byte	0xe5
 5855 0271 10       		.uleb128 0x10
 5856 0272 C30D0000 		.4byte	.LASF46
 5857 0276 FF       		.byte	0xff
 5858 0277 10       		.uleb128 0x10
 5859 0278 E10E0000 		.4byte	.LASF47
 5860 027c FF       		.byte	0xff
 5861 027d 00       		.byte	0
 5862 027e 06       		.uleb128 0x6
 5863 027f 04       		.byte	0x4
 5864 0280 08       		.byte	0x8
 5865 0281 F3       		.byte	0xf3
 5866 0282 B7020000 		.4byte	0x2b7
 5867 0286 07       		.uleb128 0x7
 5868 0287 52040000 		.4byte	.LASF48
 5869 028b 08       		.byte	0x8
 5870 028c F5       		.byte	0xf5
 5871 028d B8000000 		.4byte	0xb8
 5872 0291 00       		.byte	0
 5873 0292 07       		.uleb128 0x7
 5874 0293 F8150000 		.4byte	.LASF49
 5875 0297 08       		.byte	0x8
 5876 0298 F6       		.byte	0xf6
 5877 0299 B8000000 		.4byte	0xb8
 5878 029d 01       		.byte	0x1
 5879 029e 08       		.uleb128 0x8
 5880 029f 72656400 		.ascii	"red\000"
 5881 02a3 08       		.byte	0x8
 5882 02a4 F7       		.byte	0xf7
 5883 02a5 B8000000 		.4byte	0xb8
 5884 02a9 02       		.byte	0x2
 5885 02aa 07       		.uleb128 0x7
 5886 02ab AD020000 		.4byte	.LASF50
 5887 02af 08       		.byte	0x8
 5888 02b0 F8       		.byte	0xf8
 5889 02b1 B8000000 		.4byte	0xb8
 5890 02b5 03       		.byte	0x3
 5891 02b6 00       		.byte	0
 5892 02b7 11       		.uleb128 0x11
 5893 02b8 04       		.byte	0x4
 5894 02b9 08       		.byte	0x8
 5895 02ba F1       		.byte	0xf1
 5896 02bb D5020000 		.4byte	0x2d5
 5897 02bf 12       		.uleb128 0x12
 5898 02c0 636800   		.ascii	"ch\000"
 5899 02c3 08       		.byte	0x8
 5900 02c4 F9       		.byte	0xf9
 5901 02c5 7E020000 		.4byte	0x27e
 5902 02c9 13       		.uleb128 0x13
 5903 02ca 39120000 		.4byte	.LASF51
ARM GAS  C:\Users\tmj32\AppData\Local\Temp\ccFKuFvs.s 			page 135


 5904 02ce 08       		.byte	0x8
 5905 02cf FA       		.byte	0xfa
 5906 02d0 E4000000 		.4byte	0xe4
 5907 02d4 00       		.byte	0
 5908 02d5 02       		.uleb128 0x2
 5909 02d6 57000000 		.4byte	.LASF52
 5910 02da 08       		.byte	0x8
 5911 02db FB       		.byte	0xfb
 5912 02dc B7020000 		.4byte	0x2b7
 5913 02e0 14       		.uleb128 0x14
 5914 02e1 7A100000 		.4byte	.LASF53
 5915 02e5 08       		.byte	0x8
 5916 02e6 0801     		.2byte	0x108
 5917 02e8 D5020000 		.4byte	0x2d5
 5918 02ec 14       		.uleb128 0x14
 5919 02ed C1000000 		.4byte	.LASF54
 5920 02f1 08       		.byte	0x8
 5921 02f2 0D01     		.2byte	0x10d
 5922 02f4 B8000000 		.4byte	0xb8
 5923 02f8 03       		.uleb128 0x3
 5924 02f9 04       		.byte	0x4
 5925 02fa 07       		.byte	0x7
 5926 02fb 35000000 		.4byte	.LASF55
 5927 02ff 03       		.uleb128 0x3
 5928 0300 01       		.byte	0x1
 5929 0301 08       		.byte	0x8
 5930 0302 63050000 		.4byte	.LASF56
 5931 0306 06       		.uleb128 0x6
 5932 0307 04       		.byte	0x4
 5933 0308 01       		.byte	0x1
 5934 0309 2A       		.byte	0x2a
 5935 030a 23030000 		.4byte	0x323
 5936 030e 08       		.uleb128 0x8
 5937 030f 7800     		.ascii	"x\000"
 5938 0311 01       		.byte	0x1
 5939 0312 2C       		.byte	0x2c
 5940 0313 EF000000 		.4byte	0xef
 5941 0317 00       		.byte	0
 5942 0318 08       		.uleb128 0x8
 5943 0319 7900     		.ascii	"y\000"
 5944 031b 01       		.byte	0x1
 5945 031c 2D       		.byte	0x2d
 5946 031d EF000000 		.4byte	0xef
 5947 0321 02       		.byte	0x2
 5948 0322 00       		.byte	0
 5949 0323 02       		.uleb128 0x2
 5950 0324 30010000 		.4byte	.LASF57
 5951 0328 01       		.byte	0x1
 5952 0329 2E       		.byte	0x2e
 5953 032a 06030000 		.4byte	0x306
 5954 032e 06       		.uleb128 0x6
 5955 032f 08       		.byte	0x8
 5956 0330 01       		.byte	0x1
 5957 0331 31       		.byte	0x31
 5958 0332 63030000 		.4byte	0x363
 5959 0336 08       		.uleb128 0x8
 5960 0337 783100   		.ascii	"x1\000"
ARM GAS  C:\Users\tmj32\AppData\Local\Temp\ccFKuFvs.s 			page 136


 5961 033a 01       		.byte	0x1
 5962 033b 33       		.byte	0x33
 5963 033c EF000000 		.4byte	0xef
 5964 0340 00       		.byte	0
 5965 0341 08       		.uleb128 0x8
 5966 0342 793100   		.ascii	"y1\000"
 5967 0345 01       		.byte	0x1
 5968 0346 34       		.byte	0x34
 5969 0347 EF000000 		.4byte	0xef
 5970 034b 02       		.byte	0x2
 5971 034c 08       		.uleb128 0x8
 5972 034d 783200   		.ascii	"x2\000"
 5973 0350 01       		.byte	0x1
 5974 0351 35       		.byte	0x35
 5975 0352 EF000000 		.4byte	0xef
 5976 0356 04       		.byte	0x4
 5977 0357 08       		.uleb128 0x8
 5978 0358 793200   		.ascii	"y2\000"
 5979 035b 01       		.byte	0x1
 5980 035c 36       		.byte	0x36
 5981 035d EF000000 		.4byte	0xef
 5982 0361 06       		.byte	0x6
 5983 0362 00       		.byte	0
 5984 0363 02       		.uleb128 0x2
 5985 0364 8C070000 		.4byte	.LASF58
 5986 0368 01       		.byte	0x1
 5987 0369 37       		.byte	0x37
 5988 036a 2E030000 		.4byte	0x32e
 5989 036e 0F       		.uleb128 0xf
 5990 036f 01       		.byte	0x1
 5991 0370 42000000 		.4byte	0x42
 5992 0374 09       		.byte	0x9
 5993 0375 23       		.byte	0x23
 5994 0376 87030000 		.4byte	0x387
 5995 037a 10       		.uleb128 0x10
 5996 037b 28040000 		.4byte	.LASF59
 5997 037f 00       		.byte	0
 5998 0380 10       		.uleb128 0x10
 5999 0381 69000000 		.4byte	.LASF60
 6000 0385 01       		.byte	0x1
 6001 0386 00       		.byte	0
 6002 0387 02       		.uleb128 0x2
 6003 0388 A8090000 		.4byte	.LASF61
 6004 038c 09       		.byte	0x9
 6005 038d 28       		.byte	0x28
 6006 038e B8000000 		.4byte	0xb8
 6007 0392 02       		.uleb128 0x2
 6008 0393 2B060000 		.4byte	.LASF62
 6009 0397 09       		.byte	0x9
 6010 0398 2B       		.byte	0x2b
 6011 0399 EF000000 		.4byte	0xef
 6012 039d 02       		.uleb128 0x2
 6013 039e 7C050000 		.4byte	.LASF63
 6014 03a2 09       		.byte	0x9
 6015 03a3 37       		.byte	0x37
 6016 03a4 A8030000 		.4byte	0x3a8
 6017 03a8 0D       		.uleb128 0xd
ARM GAS  C:\Users\tmj32\AppData\Local\Temp\ccFKuFvs.s 			page 137


 6018 03a9 04       		.byte	0x4
 6019 03aa AE030000 		.4byte	0x3ae
 6020 03ae 15       		.uleb128 0x15
 6021 03af BE030000 		.4byte	0x3be
 6022 03b3 0C       		.uleb128 0xc
 6023 03b4 FA000000 		.4byte	0xfa
 6024 03b8 0C       		.uleb128 0xc
 6025 03b9 92030000 		.4byte	0x392
 6026 03bd 00       		.byte	0
 6027 03be 0D       		.uleb128 0xd
 6028 03bf 04       		.byte	0x4
 6029 03c0 C4030000 		.4byte	0x3c4
 6030 03c4 09       		.uleb128 0x9
 6031 03c5 88170000 		.4byte	.LASF65
 6032 03c9 24       		.byte	0x24
 6033 03ca 09       		.byte	0x9
 6034 03cb 44       		.byte	0x44
 6035 03cc 85040000 		.4byte	0x485
 6036 03d0 08       		.uleb128 0x8
 6037 03d1 76617200 		.ascii	"var\000"
 6038 03d5 09       		.byte	0x9
 6039 03d6 46       		.byte	0x46
 6040 03d7 FA000000 		.4byte	0xfa
 6041 03db 00       		.byte	0
 6042 03dc 07       		.uleb128 0x7
 6043 03dd DC100000 		.4byte	.LASF66
 6044 03e1 09       		.byte	0x9
 6045 03e2 47       		.byte	0x47
 6046 03e3 9D030000 		.4byte	0x39d
 6047 03e7 04       		.byte	0x4
 6048 03e8 07       		.uleb128 0x7
 6049 03e9 77010000 		.4byte	.LASF67
 6050 03ed 09       		.byte	0x9
 6051 03ee 48       		.byte	0x48
 6052 03ef 85040000 		.4byte	0x485
 6053 03f3 08       		.byte	0x8
 6054 03f4 07       		.uleb128 0x7
 6055 03f5 DD060000 		.4byte	.LASF68
 6056 03f9 09       		.byte	0x9
 6057 03fa 49       		.byte	0x49
 6058 03fb B0040000 		.4byte	0x4b0
 6059 03ff 0C       		.byte	0xc
 6060 0400 07       		.uleb128 0x7
 6061 0401 4B000000 		.4byte	.LASF69
 6062 0405 09       		.byte	0x9
 6063 0406 4A       		.byte	0x4a
 6064 0407 D9000000 		.4byte	0xd9
 6065 040b 10       		.byte	0x10
 6066 040c 08       		.uleb128 0x8
 6067 040d 656E6400 		.ascii	"end\000"
 6068 0411 09       		.byte	0x9
 6069 0412 4B       		.byte	0x4b
 6070 0413 D9000000 		.4byte	0xd9
 6071 0417 14       		.byte	0x14
 6072 0418 07       		.uleb128 0x7
 6073 0419 60120000 		.4byte	.LASF70
 6074 041d 09       		.byte	0x9
ARM GAS  C:\Users\tmj32\AppData\Local\Temp\ccFKuFvs.s 			page 138


 6075 041e 4C       		.byte	0x4c
 6076 041f CE000000 		.4byte	0xce
 6077 0423 18       		.byte	0x18
 6078 0424 07       		.uleb128 0x7
 6079 0425 E0140000 		.4byte	.LASF71
 6080 0429 09       		.byte	0x9
 6081 042a 4D       		.byte	0x4d
 6082 042b C3000000 		.4byte	0xc3
 6083 042f 1A       		.byte	0x1a
 6084 0430 07       		.uleb128 0x7
 6085 0431 9A150000 		.4byte	.LASF72
 6086 0435 09       		.byte	0x9
 6087 0436 4E       		.byte	0x4e
 6088 0437 CE000000 		.4byte	0xce
 6089 043b 1C       		.byte	0x1c
 6090 043c 07       		.uleb128 0x7
 6091 043d CE020000 		.4byte	.LASF73
 6092 0441 09       		.byte	0x9
 6093 0442 4F       		.byte	0x4f
 6094 0443 CE000000 		.4byte	0xce
 6095 0447 1E       		.byte	0x1e
 6096 0448 0A       		.uleb128 0xa
 6097 0449 B3130000 		.4byte	.LASF75
 6098 044d 09       		.byte	0x9
 6099 044e 54       		.byte	0x54
 6100 044f B8000000 		.4byte	0xb8
 6101 0453 01       		.byte	0x1
 6102 0454 01       		.byte	0x1
 6103 0455 07       		.byte	0x7
 6104 0456 20       		.byte	0x20
 6105 0457 0A       		.uleb128 0xa
 6106 0458 BA000000 		.4byte	.LASF76
 6107 045c 09       		.byte	0x9
 6108 045d 55       		.byte	0x55
 6109 045e B8000000 		.4byte	0xb8
 6110 0462 01       		.byte	0x1
 6111 0463 01       		.byte	0x1
 6112 0464 06       		.byte	0x6
 6113 0465 20       		.byte	0x20
 6114 0466 0A       		.uleb128 0xa
 6115 0467 B5160000 		.4byte	.LASF77
 6116 046b 09       		.byte	0x9
 6117 046c 57       		.byte	0x57
 6118 046d B8000000 		.4byte	0xb8
 6119 0471 01       		.byte	0x1
 6120 0472 01       		.byte	0x1
 6121 0473 05       		.byte	0x5
 6122 0474 20       		.byte	0x20
 6123 0475 0A       		.uleb128 0xa
 6124 0476 D90F0000 		.4byte	.LASF78
 6125 047a 09       		.byte	0x9
 6126 047b 58       		.byte	0x58
 6127 047c E4000000 		.4byte	0xe4
 6128 0480 04       		.byte	0x4
 6129 0481 01       		.byte	0x1
 6130 0482 1C       		.byte	0x1c
 6131 0483 20       		.byte	0x20
ARM GAS  C:\Users\tmj32\AppData\Local\Temp\ccFKuFvs.s 			page 139


 6132 0484 00       		.byte	0
 6133 0485 02       		.uleb128 0x2
 6134 0486 680C0000 		.4byte	.LASF79
 6135 048a 09       		.byte	0x9
 6136 048b 3E       		.byte	0x3e
 6137 048c 90040000 		.4byte	0x490
 6138 0490 0D       		.uleb128 0xd
 6139 0491 04       		.byte	0x4
 6140 0492 96040000 		.4byte	0x496
 6141 0496 0B       		.uleb128 0xb
 6142 0497 92030000 		.4byte	0x392
 6143 049b A5040000 		.4byte	0x4a5
 6144 049f 0C       		.uleb128 0xc
 6145 04a0 A5040000 		.4byte	0x4a5
 6146 04a4 00       		.byte	0
 6147 04a5 0D       		.uleb128 0xd
 6148 04a6 04       		.byte	0x4
 6149 04a7 AB040000 		.4byte	0x4ab
 6150 04ab 0E       		.uleb128 0xe
 6151 04ac C4030000 		.4byte	0x3c4
 6152 04b0 02       		.uleb128 0x2
 6153 04b1 05080000 		.4byte	.LASF80
 6154 04b5 09       		.byte	0x9
 6155 04b6 41       		.byte	0x41
 6156 04b7 BB040000 		.4byte	0x4bb
 6157 04bb 0D       		.uleb128 0xd
 6158 04bc 04       		.byte	0x4
 6159 04bd C1040000 		.4byte	0x4c1
 6160 04c1 15       		.uleb128 0x15
 6161 04c2 CC040000 		.4byte	0x4cc
 6162 04c6 0C       		.uleb128 0xc
 6163 04c7 BE030000 		.4byte	0x3be
 6164 04cb 00       		.byte	0
 6165 04cc 02       		.uleb128 0x2
 6166 04cd 0A090000 		.4byte	.LASF81
 6167 04d1 09       		.byte	0x9
 6168 04d2 59       		.byte	0x59
 6169 04d3 C4030000 		.4byte	0x3c4
 6170 04d7 02       		.uleb128 0x2
 6171 04d8 07170000 		.4byte	.LASF82
 6172 04dc 0A       		.byte	0xa
 6173 04dd 2C       		.byte	0x2c
 6174 04de B8000000 		.4byte	0xb8
 6175 04e2 02       		.uleb128 0x2
 6176 04e3 BC120000 		.4byte	.LASF83
 6177 04e7 0A       		.byte	0xa
 6178 04e8 33       		.byte	0x33
 6179 04e9 B8000000 		.4byte	0xb8
 6180 04ed 06       		.uleb128 0x6
 6181 04ee 08       		.byte	0x8
 6182 04ef 0A       		.byte	0xa
 6183 04f0 48       		.byte	0x48
 6184 04f1 26050000 		.4byte	0x526
 6185 04f5 07       		.uleb128 0x7
 6186 04f6 5A120000 		.4byte	.LASF84
 6187 04fa 0A       		.byte	0xa
 6188 04fb 4A       		.byte	0x4a
ARM GAS  C:\Users\tmj32\AppData\Local\Temp\ccFKuFvs.s 			page 140


 6189 04fc E0020000 		.4byte	0x2e0
 6190 0500 00       		.byte	0
 6191 0501 07       		.uleb128 0x7
 6192 0502 1C0B0000 		.4byte	.LASF85
 6193 0506 0A       		.byte	0xa
 6194 0507 4B       		.byte	0x4b
 6195 0508 EF000000 		.4byte	0xef
 6196 050c 04       		.byte	0x4
 6197 050d 07       		.uleb128 0x7
 6198 050e 46160000 		.4byte	.LASF86
 6199 0512 0A       		.byte	0xa
 6200 0513 4C       		.byte	0x4c
 6201 0514 D7040000 		.4byte	0x4d7
 6202 0518 06       		.byte	0x6
 6203 0519 08       		.uleb128 0x8
 6204 051a 6F706100 		.ascii	"opa\000"
 6205 051e 0A       		.byte	0xa
 6206 051f 4D       		.byte	0x4d
 6207 0520 EC020000 		.4byte	0x2ec
 6208 0524 07       		.byte	0x7
 6209 0525 00       		.byte	0
 6210 0526 06       		.uleb128 0x6
 6211 0527 08       		.byte	0x8
 6212 0528 0A       		.byte	0xa
 6213 0529 51       		.byte	0x51
 6214 052a 53050000 		.4byte	0x553
 6215 052e 07       		.uleb128 0x7
 6216 052f 5A120000 		.4byte	.LASF84
 6217 0533 0A       		.byte	0xa
 6218 0534 53       		.byte	0x53
 6219 0535 E0020000 		.4byte	0x2e0
 6220 0539 00       		.byte	0
 6221 053a 07       		.uleb128 0x7
 6222 053b 1C0B0000 		.4byte	.LASF85
 6223 053f 0A       		.byte	0xa
 6224 0540 54       		.byte	0x54
 6225 0541 EF000000 		.4byte	0xef
 6226 0545 04       		.byte	0x4
 6227 0546 07       		.uleb128 0x7
 6228 0547 14020000 		.4byte	.LASF87
 6229 054b 0A       		.byte	0xa
 6230 054c 55       		.byte	0x55
 6231 054d E2040000 		.4byte	0x4e2
 6232 0551 06       		.byte	0x6
 6233 0552 00       		.byte	0
 6234 0553 06       		.uleb128 0x6
 6235 0554 0A       		.byte	0xa
 6236 0555 0A       		.byte	0xa
 6237 0556 58       		.byte	0x58
 6238 0557 98050000 		.4byte	0x598
 6239 055b 08       		.uleb128 0x8
 6240 055c 746F7000 		.ascii	"top\000"
 6241 0560 0A       		.byte	0xa
 6242 0561 5A       		.byte	0x5a
 6243 0562 EF000000 		.4byte	0xef
 6244 0566 00       		.byte	0
 6245 0567 07       		.uleb128 0x7
ARM GAS  C:\Users\tmj32\AppData\Local\Temp\ccFKuFvs.s 			page 141


 6246 0568 340B0000 		.4byte	.LASF88
 6247 056c 0A       		.byte	0xa
 6248 056d 5B       		.byte	0x5b
 6249 056e EF000000 		.4byte	0xef
 6250 0572 02       		.byte	0x2
 6251 0573 07       		.uleb128 0x7
 6252 0574 F5070000 		.4byte	.LASF89
 6253 0578 0A       		.byte	0xa
 6254 0579 5C       		.byte	0x5c
 6255 057a EF000000 		.4byte	0xef
 6256 057e 04       		.byte	0x4
 6257 057f 07       		.uleb128 0x7
 6258 0580 540A0000 		.4byte	.LASF90
 6259 0584 0A       		.byte	0xa
 6260 0585 5D       		.byte	0x5d
 6261 0586 EF000000 		.4byte	0xef
 6262 058a 06       		.byte	0x6
 6263 058b 07       		.uleb128 0x7
 6264 058c E8080000 		.4byte	.LASF91
 6265 0590 0A       		.byte	0xa
 6266 0591 5E       		.byte	0x5e
 6267 0592 EF000000 		.4byte	0xef
 6268 0596 08       		.byte	0x8
 6269 0597 00       		.byte	0
 6270 0598 06       		.uleb128 0x6
 6271 0599 28       		.byte	0x28
 6272 059a 0A       		.byte	0xa
 6273 059b 41       		.byte	0x41
 6274 059c F5050000 		.4byte	0x5f5
 6275 05a0 07       		.uleb128 0x7
 6276 05a1 A80F0000 		.4byte	.LASF92
 6277 05a5 0A       		.byte	0xa
 6278 05a6 43       		.byte	0x43
 6279 05a7 E0020000 		.4byte	0x2e0
 6280 05ab 00       		.byte	0
 6281 05ac 07       		.uleb128 0x7
 6282 05ad 590D0000 		.4byte	.LASF93
 6283 05b1 0A       		.byte	0xa
 6284 05b2 44       		.byte	0x44
 6285 05b3 E0020000 		.4byte	0x2e0
 6286 05b7 04       		.byte	0x4
 6287 05b8 07       		.uleb128 0x7
 6288 05b9 57010000 		.4byte	.LASF94
 6289 05bd 0A       		.byte	0xa
 6290 05be 45       		.byte	0x45
 6291 05bf EF000000 		.4byte	0xef
 6292 05c3 08       		.byte	0x8
 6293 05c4 08       		.uleb128 0x8
 6294 05c5 6F706100 		.ascii	"opa\000"
 6295 05c9 0A       		.byte	0xa
 6296 05ca 46       		.byte	0x46
 6297 05cb EC020000 		.4byte	0x2ec
 6298 05cf 0A       		.byte	0xa
 6299 05d0 07       		.uleb128 0x7
 6300 05d1 C2160000 		.4byte	.LASF95
 6301 05d5 0A       		.byte	0xa
 6302 05d6 4E       		.byte	0x4e
ARM GAS  C:\Users\tmj32\AppData\Local\Temp\ccFKuFvs.s 			page 142


 6303 05d7 ED040000 		.4byte	0x4ed
 6304 05db 0C       		.byte	0xc
 6305 05dc 07       		.uleb128 0x7
 6306 05dd 6A140000 		.4byte	.LASF96
 6307 05e1 0A       		.byte	0xa
 6308 05e2 56       		.byte	0x56
 6309 05e3 26050000 		.4byte	0x526
 6310 05e7 14       		.byte	0x14
 6311 05e8 07       		.uleb128 0x7
 6312 05e9 60150000 		.4byte	.LASF97
 6313 05ed 0A       		.byte	0xa
 6314 05ee 5F       		.byte	0x5f
 6315 05ef 53050000 		.4byte	0x553
 6316 05f3 1C       		.byte	0x1c
 6317 05f4 00       		.byte	0
 6318 05f5 06       		.uleb128 0x6
 6319 05f6 14       		.byte	0x14
 6320 05f7 0A       		.byte	0xa
 6321 05f8 63       		.byte	0x63
 6322 05f9 46060000 		.4byte	0x646
 6323 05fd 07       		.uleb128 0x7
 6324 05fe 5A120000 		.4byte	.LASF84
 6325 0602 0A       		.byte	0xa
 6326 0603 65       		.byte	0x65
 6327 0604 E0020000 		.4byte	0x2e0
 6328 0608 00       		.byte	0
 6329 0609 07       		.uleb128 0x7
 6330 060a 5B170000 		.4byte	.LASF98
 6331 060e 0A       		.byte	0xa
 6332 060f 66       		.byte	0x66
 6333 0610 E0020000 		.4byte	0x2e0
 6334 0614 04       		.byte	0x4
 6335 0615 07       		.uleb128 0x7
 6336 0616 22130000 		.4byte	.LASF99
 6337 061a 0A       		.byte	0xa
 6338 061b 67       		.byte	0x67
 6339 061c 46060000 		.4byte	0x646
 6340 0620 08       		.byte	0x8
 6341 0621 07       		.uleb128 0x7
 6342 0622 27130000 		.4byte	.LASF100
 6343 0626 0A       		.byte	0xa
 6344 0627 68       		.byte	0x68
 6345 0628 EF000000 		.4byte	0xef
 6346 062c 0C       		.byte	0xc
 6347 062d 07       		.uleb128 0x7
 6348 062e 74120000 		.4byte	.LASF101
 6349 0632 0A       		.byte	0xa
 6350 0633 69       		.byte	0x69
 6351 0634 EF000000 		.4byte	0xef
 6352 0638 0E       		.byte	0xe
 6353 0639 08       		.uleb128 0x8
 6354 063a 6F706100 		.ascii	"opa\000"
 6355 063e 0A       		.byte	0xa
 6356 063f 6A       		.byte	0x6a
 6357 0640 EC020000 		.4byte	0x2ec
 6358 0644 10       		.byte	0x10
 6359 0645 00       		.byte	0
ARM GAS  C:\Users\tmj32\AppData\Local\Temp\ccFKuFvs.s 			page 143


 6360 0646 0D       		.uleb128 0xd
 6361 0647 04       		.byte	0x4
 6362 0648 4C060000 		.4byte	0x64c
 6363 064c 0E       		.uleb128 0xe
 6364 064d 18020000 		.4byte	0x218
 6365 0651 06       		.uleb128 0x6
 6366 0652 08       		.byte	0x8
 6367 0653 0A       		.byte	0xa
 6368 0654 6E       		.byte	0x6e
 6369 0655 7E060000 		.4byte	0x67e
 6370 0659 07       		.uleb128 0x7
 6371 065a 5A120000 		.4byte	.LASF84
 6372 065e 0A       		.byte	0xa
 6373 065f 70       		.byte	0x70
 6374 0660 E0020000 		.4byte	0x2e0
 6375 0664 00       		.byte	0
 6376 0665 07       		.uleb128 0x7
 6377 0666 D2000000 		.4byte	.LASF102
 6378 066a 0A       		.byte	0xa
 6379 066b 71       		.byte	0x71
 6380 066c EC020000 		.4byte	0x2ec
 6381 0670 04       		.byte	0x4
 6382 0671 08       		.uleb128 0x8
 6383 0672 6F706100 		.ascii	"opa\000"
 6384 0676 0A       		.byte	0xa
 6385 0677 72       		.byte	0x72
 6386 0678 EC020000 		.4byte	0x2ec
 6387 067c 05       		.byte	0x5
 6388 067d 00       		.byte	0
 6389 067e 06       		.uleb128 0x6
 6390 067f 08       		.byte	0x8
 6391 0680 0A       		.byte	0xa
 6392 0681 76       		.byte	0x76
 6393 0682 BA060000 		.4byte	0x6ba
 6394 0686 07       		.uleb128 0x7
 6395 0687 5A120000 		.4byte	.LASF84
 6396 068b 0A       		.byte	0xa
 6397 068c 78       		.byte	0x78
 6398 068d E0020000 		.4byte	0x2e0
 6399 0691 00       		.byte	0
 6400 0692 07       		.uleb128 0x7
 6401 0693 1C0B0000 		.4byte	.LASF85
 6402 0697 0A       		.byte	0xa
 6403 0698 79       		.byte	0x79
 6404 0699 EF000000 		.4byte	0xef
 6405 069d 04       		.byte	0x4
 6406 069e 08       		.uleb128 0x8
 6407 069f 6F706100 		.ascii	"opa\000"
 6408 06a3 0A       		.byte	0xa
 6409 06a4 7A       		.byte	0x7a
 6410 06a5 EC020000 		.4byte	0x2ec
 6411 06a9 06       		.byte	0x6
 6412 06aa 0A       		.uleb128 0xa
 6413 06ab 33070000 		.4byte	.LASF103
 6414 06af 0A       		.byte	0xa
 6415 06b0 7B       		.byte	0x7b
 6416 06b1 B8000000 		.4byte	0xb8
ARM GAS  C:\Users\tmj32\AppData\Local\Temp\ccFKuFvs.s 			page 144


 6417 06b5 01       		.byte	0x1
 6418 06b6 01       		.byte	0x1
 6419 06b7 07       		.byte	0x7
 6420 06b8 07       		.byte	0x7
 6421 06b9 00       		.byte	0
 6422 06ba 06       		.uleb128 0x6
 6423 06bb 50       		.byte	0x50
 6424 06bc 0A       		.byte	0xa
 6425 06bd 3C       		.byte	0x3c
 6426 06be 02070000 		.4byte	0x702
 6427 06c2 0A       		.uleb128 0xa
 6428 06c3 040C0000 		.4byte	.LASF104
 6429 06c7 0A       		.byte	0xa
 6430 06c8 3E       		.byte	0x3e
 6431 06c9 B8000000 		.4byte	0xb8
 6432 06cd 01       		.byte	0x1
 6433 06ce 01       		.byte	0x1
 6434 06cf 07       		.byte	0x7
 6435 06d0 00       		.byte	0
 6436 06d1 07       		.uleb128 0x7
 6437 06d2 AB050000 		.4byte	.LASF105
 6438 06d6 0A       		.byte	0xa
 6439 06d7 60       		.byte	0x60
 6440 06d8 98050000 		.4byte	0x598
 6441 06dc 04       		.byte	0x4
 6442 06dd 07       		.uleb128 0x7
 6443 06de E6060000 		.4byte	.LASF106
 6444 06e2 0A       		.byte	0xa
 6445 06e3 6B       		.byte	0x6b
 6446 06e4 F5050000 		.4byte	0x5f5
 6447 06e8 2C       		.byte	0x2c
 6448 06e9 07       		.uleb128 0x7
 6449 06ea 2D070000 		.4byte	.LASF107
 6450 06ee 0A       		.byte	0xa
 6451 06ef 73       		.byte	0x73
 6452 06f0 51060000 		.4byte	0x651
 6453 06f4 40       		.byte	0x40
 6454 06f5 07       		.uleb128 0x7
 6455 06f6 5B090000 		.4byte	.LASF108
 6456 06fa 0A       		.byte	0xa
 6457 06fb 7C       		.byte	0x7c
 6458 06fc 7E060000 		.4byte	0x67e
 6459 0700 48       		.byte	0x48
 6460 0701 00       		.byte	0
 6461 0702 02       		.uleb128 0x2
 6462 0703 DD080000 		.4byte	.LASF109
 6463 0707 0A       		.byte	0xa
 6464 0708 84       		.byte	0x84
 6465 0709 BA060000 		.4byte	0x6ba
 6466 070d 0D       		.uleb128 0xd
 6467 070e 04       		.byte	0x4
 6468 070f 02070000 		.4byte	0x702
 6469 0713 0F       		.uleb128 0xf
 6470 0714 01       		.byte	0x1
 6471 0715 42000000 		.4byte	0x42
 6472 0719 0B       		.byte	0xb
 6473 071a 27       		.byte	0x27
ARM GAS  C:\Users\tmj32\AppData\Local\Temp\ccFKuFvs.s 			page 145


 6474 071b 2C070000 		.4byte	0x72c
 6475 071f 10       		.uleb128 0x10
 6476 0720 F7010000 		.4byte	.LASF110
 6477 0724 00       		.byte	0
 6478 0725 10       		.uleb128 0x10
 6479 0726 44100000 		.4byte	.LASF111
 6480 072a 01       		.byte	0x1
 6481 072b 00       		.byte	0
 6482 072c 02       		.uleb128 0x2
 6483 072d 030E0000 		.4byte	.LASF112
 6484 0731 0B       		.byte	0xb
 6485 0732 2C       		.byte	0x2c
 6486 0733 B8000000 		.4byte	0xb8
 6487 0737 02       		.uleb128 0x2
 6488 0738 18000000 		.4byte	.LASF113
 6489 073c 0C       		.byte	0xc
 6490 073d 1E       		.byte	0x1e
 6491 073e B8000000 		.4byte	0xb8
 6492 0742 06       		.uleb128 0x6
 6493 0743 0C       		.byte	0xc
 6494 0744 0C       		.byte	0xc
 6495 0745 21       		.byte	0x21
 6496 0746 6F070000 		.4byte	0x76f
 6497 074a 07       		.uleb128 0x7
 6498 074b A7170000 		.4byte	.LASF114
 6499 074f 0C       		.byte	0xc
 6500 0750 23       		.byte	0x23
 6501 0751 E4000000 		.4byte	0xe4
 6502 0755 00       		.byte	0
 6503 0756 07       		.uleb128 0x7
 6504 0757 5A030000 		.4byte	.LASF115
 6505 075b 0C       		.byte	0xc
 6506 075c 24       		.byte	0x24
 6507 075d 6F070000 		.4byte	0x76f
 6508 0761 04       		.byte	0x4
 6509 0762 07       		.uleb128 0x7
 6510 0763 74000000 		.4byte	.LASF116
 6511 0767 0C       		.byte	0xc
 6512 0768 25       		.byte	0x25
 6513 0769 6F070000 		.4byte	0x76f
 6514 076d 08       		.byte	0x8
 6515 076e 00       		.byte	0
 6516 076f 0D       		.uleb128 0xd
 6517 0770 04       		.byte	0x4
 6518 0771 37070000 		.4byte	0x737
 6519 0775 02       		.uleb128 0x2
 6520 0776 CC130000 		.4byte	.LASF117
 6521 077a 0C       		.byte	0xc
 6522 077b 26       		.byte	0x26
 6523 077c 42070000 		.4byte	0x742
 6524 0780 02       		.uleb128 0x2
 6525 0781 5D070000 		.4byte	.LASF118
 6526 0785 0D       		.byte	0xd
 6527 0786 30       		.byte	0x30
 6528 0787 B8000000 		.4byte	0xb8
 6529 078b 02       		.uleb128 0x2
 6530 078c 65170000 		.4byte	.LASF119
ARM GAS  C:\Users\tmj32\AppData\Local\Temp\ccFKuFvs.s 			page 146


 6531 0790 0E       		.byte	0xe
 6532 0791 2B       		.byte	0x2b
 6533 0792 96070000 		.4byte	0x796
 6534 0796 0D       		.uleb128 0xd
 6535 0797 04       		.byte	0x4
 6536 0798 9C070000 		.4byte	0x79c
 6537 079c 15       		.uleb128 0x15
 6538 079d A7070000 		.4byte	0x7a7
 6539 07a1 0C       		.uleb128 0xc
 6540 07a2 A7070000 		.4byte	0x7a7
 6541 07a6 00       		.byte	0
 6542 07a7 0D       		.uleb128 0xd
 6543 07a8 04       		.byte	0x4
 6544 07a9 AD070000 		.4byte	0x7ad
 6545 07ad 09       		.uleb128 0x9
 6546 07ae FC050000 		.4byte	.LASF120
 6547 07b2 14       		.byte	0x14
 6548 07b3 0E       		.byte	0xe
 6549 07b4 3E       		.byte	0x3e
 6550 07b5 08080000 		.4byte	0x808
 6551 07b9 07       		.uleb128 0x7
 6552 07ba D6110000 		.4byte	.LASF121
 6553 07be 0E       		.byte	0xe
 6554 07bf 40       		.byte	0x40
 6555 07c0 E4000000 		.4byte	0xe4
 6556 07c4 00       		.byte	0
 6557 07c5 07       		.uleb128 0x7
 6558 07c6 4E100000 		.4byte	.LASF122
 6559 07ca 0E       		.byte	0xe
 6560 07cb 41       		.byte	0x41
 6561 07cc E4000000 		.4byte	0xe4
 6562 07d0 04       		.byte	0x4
 6563 07d1 07       		.uleb128 0x7
 6564 07d2 D8040000 		.4byte	.LASF123
 6565 07d6 0E       		.byte	0xe
 6566 07d7 42       		.byte	0x42
 6567 07d8 8B070000 		.4byte	0x78b
 6568 07dc 08       		.byte	0x8
 6569 07dd 07       		.uleb128 0x7
 6570 07de 97160000 		.4byte	.LASF124
 6571 07e2 0E       		.byte	0xe
 6572 07e3 44       		.byte	0x44
 6573 07e4 FA000000 		.4byte	0xfa
 6574 07e8 0C       		.byte	0xc
 6575 07e9 0A       		.uleb128 0xa
 6576 07ea 7A020000 		.4byte	.LASF125
 6577 07ee 0E       		.byte	0xe
 6578 07ef 46       		.byte	0x46
 6579 07f0 B8000000 		.4byte	0xb8
 6580 07f4 01       		.byte	0x1
 6581 07f5 03       		.byte	0x3
 6582 07f6 05       		.byte	0x5
 6583 07f7 10       		.byte	0x10
 6584 07f8 0A       		.uleb128 0xa
 6585 07f9 270D0000 		.4byte	.LASF126
 6586 07fd 0E       		.byte	0xe
 6587 07fe 47       		.byte	0x47
ARM GAS  C:\Users\tmj32\AppData\Local\Temp\ccFKuFvs.s 			page 147


 6588 07ff B8000000 		.4byte	0xb8
 6589 0803 01       		.byte	0x1
 6590 0804 01       		.byte	0x1
 6591 0805 04       		.byte	0x4
 6592 0806 10       		.byte	0x10
 6593 0807 00       		.byte	0
 6594 0808 02       		.uleb128 0x2
 6595 0809 A6100000 		.4byte	.LASF127
 6596 080d 0E       		.byte	0xe
 6597 080e 48       		.byte	0x48
 6598 080f AD070000 		.4byte	0x7ad
 6599 0813 06       		.uleb128 0x6
 6600 0814 1C       		.byte	0x1c
 6601 0815 0F       		.byte	0xf
 6602 0816 2F       		.byte	0x2f
 6603 0817 67080000 		.4byte	0x867
 6604 081b 07       		.uleb128 0x7
 6605 081c 520B0000 		.4byte	.LASF128
 6606 0820 0F       		.byte	0xf
 6607 0821 31       		.byte	0x31
 6608 0822 FA000000 		.4byte	0xfa
 6609 0826 00       		.byte	0
 6610 0827 07       		.uleb128 0x7
 6611 0828 570B0000 		.4byte	.LASF129
 6612 082c 0F       		.byte	0xf
 6613 082d 32       		.byte	0x32
 6614 082e FA000000 		.4byte	0xfa
 6615 0832 04       		.byte	0x4
 6616 0833 07       		.uleb128 0x7
 6617 0834 1F0E0000 		.4byte	.LASF130
 6618 0838 0F       		.byte	0xf
 6619 0839 35       		.byte	0x35
 6620 083a FA000000 		.4byte	0xfa
 6621 083e 08       		.byte	0x8
 6622 083f 07       		.uleb128 0x7
 6623 0840 420E0000 		.4byte	.LASF131
 6624 0844 0F       		.byte	0xf
 6625 0845 36       		.byte	0x36
 6626 0846 E4000000 		.4byte	0xe4
 6627 084a 0C       		.byte	0xc
 6628 084b 07       		.uleb128 0x7
 6629 084c B3080000 		.4byte	.LASF132
 6630 0850 0F       		.byte	0xf
 6631 0851 37       		.byte	0x37
 6632 0852 63030000 		.4byte	0x363
 6633 0856 10       		.byte	0x10
 6634 0857 0A       		.uleb128 0xa
 6635 0858 AA060000 		.4byte	.LASF133
 6636 085c 0F       		.byte	0xf
 6637 085d 38       		.byte	0x38
 6638 085e 67080000 		.4byte	0x867
 6639 0862 04       		.byte	0x4
 6640 0863 01       		.byte	0x1
 6641 0864 1F       		.byte	0x1f
 6642 0865 18       		.byte	0x18
 6643 0866 00       		.byte	0
 6644 0867 16       		.uleb128 0x16
ARM GAS  C:\Users\tmj32\AppData\Local\Temp\ccFKuFvs.s 			page 148


 6645 0868 E4000000 		.4byte	0xe4
 6646 086c 02       		.uleb128 0x2
 6647 086d 2B0A0000 		.4byte	.LASF134
 6648 0871 0F       		.byte	0xf
 6649 0872 39       		.byte	0x39
 6650 0873 13080000 		.4byte	0x813
 6651 0877 09       		.uleb128 0x9
 6652 0878 B9090000 		.4byte	.LASF135
 6653 087c 20       		.byte	0x20
 6654 087d 0F       		.byte	0xf
 6655 087e 3E       		.byte	0x3e
 6656 087f F3080000 		.4byte	0x8f3
 6657 0883 07       		.uleb128 0x7
 6658 0884 FF030000 		.4byte	.LASF136
 6659 0888 0F       		.byte	0xf
 6660 0889 41       		.byte	0x41
 6661 088a EF000000 		.4byte	0xef
 6662 088e 00       		.byte	0
 6663 088f 07       		.uleb128 0x7
 6664 0890 B3020000 		.4byte	.LASF137
 6665 0894 0F       		.byte	0xf
 6666 0895 42       		.byte	0x42
 6667 0896 EF000000 		.4byte	0xef
 6668 089a 02       		.byte	0x2
 6669 089b 07       		.uleb128 0x7
 6670 089c A8070000 		.4byte	.LASF138
 6671 08a0 0F       		.byte	0xf
 6672 08a1 46       		.byte	0x46
 6673 08a2 F3080000 		.4byte	0x8f3
 6674 08a6 04       		.byte	0x4
 6675 08a7 0A       		.uleb128 0xa
 6676 08a8 01030000 		.4byte	.LASF139
 6677 08ac 0F       		.byte	0xf
 6678 08ad 4B       		.byte	0x4b
 6679 08ae E4000000 		.4byte	0xe4
 6680 08b2 04       		.byte	0x4
 6681 08b3 01       		.byte	0x1
 6682 08b4 1F       		.byte	0x1f
 6683 08b5 08       		.byte	0x8
 6684 08b6 07       		.uleb128 0x7
 6685 08b7 8E160000 		.4byte	.LASF140
 6686 08bb 0F       		.byte	0xf
 6687 08bc 55       		.byte	0x55
 6688 08bd 25090000 		.4byte	0x925
 6689 08c1 0C       		.byte	0xc
 6690 08c2 07       		.uleb128 0x7
 6691 08c3 DD110000 		.4byte	.LASF141
 6692 08c7 0F       		.byte	0xf
 6693 08c8 59       		.byte	0x59
 6694 08c9 41090000 		.4byte	0x941
 6695 08cd 10       		.byte	0x10
 6696 08ce 07       		.uleb128 0x7
 6697 08cf E1030000 		.4byte	.LASF142
 6698 08d3 0F       		.byte	0xf
 6699 08d4 5E       		.byte	0x5e
 6700 08d5 76090000 		.4byte	0x976
 6701 08d9 14       		.byte	0x14
ARM GAS  C:\Users\tmj32\AppData\Local\Temp\ccFKuFvs.s 			page 149


 6702 08da 07       		.uleb128 0x7
 6703 08db 11160000 		.4byte	.LASF143
 6704 08df 0F       		.byte	0xf
 6705 08e0 63       		.byte	0x63
 6706 08e1 91090000 		.4byte	0x991
 6707 08e5 18       		.byte	0x18
 6708 08e6 07       		.uleb128 0x7
 6709 08e7 07000000 		.4byte	.LASF144
 6710 08eb 0F       		.byte	0xf
 6711 08ec 71       		.byte	0x71
 6712 08ed E0020000 		.4byte	0x2e0
 6713 08f1 1C       		.byte	0x1c
 6714 08f2 00       		.byte	0
 6715 08f3 0D       		.uleb128 0xd
 6716 08f4 04       		.byte	0x4
 6717 08f5 6C080000 		.4byte	0x86c
 6718 08f9 15       		.uleb128 0x15
 6719 08fa 0E090000 		.4byte	0x90e
 6720 08fe 0C       		.uleb128 0xc
 6721 08ff 0E090000 		.4byte	0x90e
 6722 0903 0C       		.uleb128 0xc
 6723 0904 14090000 		.4byte	0x914
 6724 0908 0C       		.uleb128 0xc
 6725 0909 1F090000 		.4byte	0x91f
 6726 090d 00       		.byte	0
 6727 090e 0D       		.uleb128 0xd
 6728 090f 04       		.byte	0x4
 6729 0910 77080000 		.4byte	0x877
 6730 0914 0D       		.uleb128 0xd
 6731 0915 04       		.byte	0x4
 6732 0916 1A090000 		.4byte	0x91a
 6733 091a 0E       		.uleb128 0xe
 6734 091b 63030000 		.4byte	0x363
 6735 091f 0D       		.uleb128 0xd
 6736 0920 04       		.byte	0x4
 6737 0921 E0020000 		.4byte	0x2e0
 6738 0925 0D       		.uleb128 0xd
 6739 0926 04       		.byte	0x4
 6740 0927 F9080000 		.4byte	0x8f9
 6741 092b 15       		.uleb128 0x15
 6742 092c 3B090000 		.4byte	0x93b
 6743 0930 0C       		.uleb128 0xc
 6744 0931 0E090000 		.4byte	0x90e
 6745 0935 0C       		.uleb128 0xc
 6746 0936 3B090000 		.4byte	0x93b
 6747 093a 00       		.byte	0
 6748 093b 0D       		.uleb128 0xd
 6749 093c 04       		.byte	0x4
 6750 093d 63030000 		.4byte	0x363
 6751 0941 0D       		.uleb128 0xd
 6752 0942 04       		.byte	0x4
 6753 0943 2B090000 		.4byte	0x92b
 6754 0947 15       		.uleb128 0x15
 6755 0948 70090000 		.4byte	0x970
 6756 094c 0C       		.uleb128 0xc
 6757 094d 0E090000 		.4byte	0x90e
 6758 0951 0C       		.uleb128 0xc
ARM GAS  C:\Users\tmj32\AppData\Local\Temp\ccFKuFvs.s 			page 150


 6759 0952 70090000 		.4byte	0x970
 6760 0956 0C       		.uleb128 0xc
 6761 0957 EF000000 		.4byte	0xef
 6762 095b 0C       		.uleb128 0xc
 6763 095c EF000000 		.4byte	0xef
 6764 0960 0C       		.uleb128 0xc
 6765 0961 EF000000 		.4byte	0xef
 6766 0965 0C       		.uleb128 0xc
 6767 0966 E0020000 		.4byte	0x2e0
 6768 096a 0C       		.uleb128 0xc
 6769 096b EC020000 		.4byte	0x2ec
 6770 096f 00       		.byte	0
 6771 0970 0D       		.uleb128 0xd
 6772 0971 04       		.byte	0x4
 6773 0972 B8000000 		.4byte	0xb8
 6774 0976 0D       		.uleb128 0xd
 6775 0977 04       		.byte	0x4
 6776 0978 47090000 		.4byte	0x947
 6777 097c 15       		.uleb128 0x15
 6778 097d 91090000 		.4byte	0x991
 6779 0981 0C       		.uleb128 0xc
 6780 0982 0E090000 		.4byte	0x90e
 6781 0986 0C       		.uleb128 0xc
 6782 0987 E4000000 		.4byte	0xe4
 6783 098b 0C       		.uleb128 0xc
 6784 098c E4000000 		.4byte	0xe4
 6785 0990 00       		.byte	0
 6786 0991 0D       		.uleb128 0xd
 6787 0992 04       		.byte	0x4
 6788 0993 7C090000 		.4byte	0x97c
 6789 0997 02       		.uleb128 0x2
 6790 0998 22150000 		.4byte	.LASF145
 6791 099c 0F       		.byte	0xf
 6792 099d 77       		.byte	0x77
 6793 099e 77080000 		.4byte	0x877
 6794 09a2 17       		.uleb128 0x17
 6795 09a3 8D0D0000 		.4byte	.LASF146
 6796 09a7 6401     		.2byte	0x164
 6797 09a9 0F       		.byte	0xf
 6798 09aa 7F       		.byte	0x7f
 6799 09ab 2E0A0000 		.4byte	0xa2e
 6800 09af 07       		.uleb128 0x7
 6801 09b0 A3120000 		.4byte	.LASF147
 6802 09b4 0F       		.byte	0xf
 6803 09b5 82       		.byte	0x82
 6804 09b6 97090000 		.4byte	0x997
 6805 09ba 00       		.byte	0
 6806 09bb 07       		.uleb128 0x7
 6807 09bc F7020000 		.4byte	.LASF148
 6808 09c0 0F       		.byte	0xf
 6809 09c1 85       		.byte	0x85
 6810 09c2 2E0A0000 		.4byte	0xa2e
 6811 09c6 20       		.byte	0x20
 6812 09c7 07       		.uleb128 0x7
 6813 09c8 7F020000 		.4byte	.LASF149
 6814 09cc 0F       		.byte	0xf
 6815 09cd 88       		.byte	0x88
ARM GAS  C:\Users\tmj32\AppData\Local\Temp\ccFKuFvs.s 			page 151


 6816 09ce 75070000 		.4byte	0x775
 6817 09d2 24       		.byte	0x24
 6818 09d3 07       		.uleb128 0x7
 6819 09d4 B2000000 		.4byte	.LASF150
 6820 09d8 0F       		.byte	0xf
 6821 09d9 89       		.byte	0x89
 6822 09da 760B0000 		.4byte	0xb76
 6823 09de 30       		.byte	0x30
 6824 09df 07       		.uleb128 0x7
 6825 09e0 97040000 		.4byte	.LASF151
 6826 09e4 0F       		.byte	0xf
 6827 09e5 8A       		.byte	0x8a
 6828 09e6 760B0000 		.4byte	0xb76
 6829 09ea 34       		.byte	0x34
 6830 09eb 07       		.uleb128 0x7
 6831 09ec 27140000 		.4byte	.LASF152
 6832 09f0 0F       		.byte	0xf
 6833 09f1 8B       		.byte	0x8b
 6834 09f2 760B0000 		.4byte	0xb76
 6835 09f6 38       		.byte	0x38
 6836 09f7 07       		.uleb128 0x7
 6837 09f8 060D0000 		.4byte	.LASF153
 6838 09fc 0F       		.byte	0xf
 6839 09fd 8E       		.byte	0x8e
 6840 09fe 7C0B0000 		.4byte	0xb7c
 6841 0a02 3C       		.byte	0x3c
 6842 0a03 18       		.uleb128 0x18
 6843 0a04 2E050000 		.4byte	.LASF154
 6844 0a08 0F       		.byte	0xf
 6845 0a09 8F       		.byte	0x8f
 6846 0a0a 8C0B0000 		.4byte	0xb8c
 6847 0a0e 3C01     		.2byte	0x13c
 6848 0a10 19       		.uleb128 0x19
 6849 0a11 C6130000 		.4byte	.LASF155
 6850 0a15 0F       		.byte	0xf
 6851 0a16 90       		.byte	0x90
 6852 0a17 E4000000 		.4byte	0xe4
 6853 0a1b 04       		.byte	0x4
 6854 0a1c 0A       		.byte	0xa
 6855 0a1d 16       		.byte	0x16
 6856 0a1e 5C01     		.2byte	0x15c
 6857 0a20 18       		.uleb128 0x18
 6858 0a21 DB020000 		.4byte	.LASF156
 6859 0a25 0F       		.byte	0xf
 6860 0a26 93       		.byte	0x93
 6861 0a27 E4000000 		.4byte	0xe4
 6862 0a2b 6001     		.2byte	0x160
 6863 0a2d 00       		.byte	0
 6864 0a2e 0D       		.uleb128 0xd
 6865 0a2f 04       		.byte	0x4
 6866 0a30 08080000 		.4byte	0x808
 6867 0a34 09       		.uleb128 0x9
 6868 0a35 18130000 		.4byte	.LASF157
 6869 0a39 40       		.byte	0x40
 6870 0a3a 10       		.byte	0x10
 6871 0a3b BB       		.byte	0xbb
 6872 0a3c 760B0000 		.4byte	0xb76
ARM GAS  C:\Users\tmj32\AppData\Local\Temp\ccFKuFvs.s 			page 152


 6873 0a40 08       		.uleb128 0x8
 6874 0a41 70617200 		.ascii	"par\000"
 6875 0a45 10       		.byte	0x10
 6876 0a46 BD       		.byte	0xbd
 6877 0a47 760B0000 		.4byte	0xb76
 6878 0a4b 00       		.byte	0
 6879 0a4c 07       		.uleb128 0x7
 6880 0a4d 3B0B0000 		.4byte	.LASF158
 6881 0a51 10       		.byte	0x10
 6882 0a52 BE       		.byte	0xbe
 6883 0a53 75070000 		.4byte	0x775
 6884 0a57 04       		.byte	0x4
 6885 0a58 07       		.uleb128 0x7
 6886 0a59 05140000 		.4byte	.LASF159
 6887 0a5d 10       		.byte	0x10
 6888 0a5e C0       		.byte	0xc0
 6889 0a5f 63030000 		.4byte	0x363
 6890 0a63 10       		.byte	0x10
 6891 0a64 07       		.uleb128 0x7
 6892 0a65 4B0A0000 		.4byte	.LASF160
 6893 0a69 10       		.byte	0x10
 6894 0a6a C2       		.byte	0xc2
 6895 0a6b 610F0000 		.4byte	0xf61
 6896 0a6f 18       		.byte	0x18
 6897 0a70 07       		.uleb128 0x7
 6898 0a71 75150000 		.4byte	.LASF161
 6899 0a75 10       		.byte	0x10
 6900 0a76 C3       		.byte	0xc3
 6901 0a77 12100000 		.4byte	0x1012
 6902 0a7b 1C       		.byte	0x1c
 6903 0a7c 07       		.uleb128 0x7
 6904 0a7d 8B060000 		.4byte	.LASF162
 6905 0a81 10       		.byte	0x10
 6906 0a82 C4       		.byte	0xc4
 6907 0a83 A70E0000 		.4byte	0xea7
 6908 0a87 20       		.byte	0x20
 6909 0a88 07       		.uleb128 0x7
 6910 0a89 610E0000 		.4byte	.LASF163
 6911 0a8d 10       		.byte	0x10
 6912 0a8e C6       		.byte	0xc6
 6913 0a8f FA000000 		.4byte	0xfa
 6914 0a93 24       		.byte	0x24
 6915 0a94 07       		.uleb128 0x7
 6916 0a95 5A0A0000 		.4byte	.LASF164
 6917 0a99 10       		.byte	0x10
 6918 0a9a C7       		.byte	0xc7
 6919 0a9b BF100000 		.4byte	0x10bf
 6920 0a9f 28       		.byte	0x28
 6921 0aa0 0A       		.uleb128 0xa
 6922 0aa1 7F010000 		.4byte	.LASF165
 6923 0aa5 10       		.byte	0x10
 6924 0aa6 D7       		.byte	0xd7
 6925 0aa7 B8000000 		.4byte	0xb8
 6926 0aab 01       		.byte	0x1
 6927 0aac 01       		.byte	0x1
 6928 0aad 07       		.byte	0x7
 6929 0aae 2C       		.byte	0x2c
ARM GAS  C:\Users\tmj32\AppData\Local\Temp\ccFKuFvs.s 			page 153


 6930 0aaf 0A       		.uleb128 0xa
 6931 0ab0 CD120000 		.4byte	.LASF166
 6932 0ab4 10       		.byte	0x10
 6933 0ab5 D8       		.byte	0xd8
 6934 0ab6 B8000000 		.4byte	0xb8
 6935 0aba 01       		.byte	0x1
 6936 0abb 01       		.byte	0x1
 6937 0abc 06       		.byte	0x6
 6938 0abd 2C       		.byte	0x2c
 6939 0abe 0A       		.uleb128 0xa
 6940 0abf 3B070000 		.4byte	.LASF167
 6941 0ac3 10       		.byte	0x10
 6942 0ac4 D9       		.byte	0xd9
 6943 0ac5 B8000000 		.4byte	0xb8
 6944 0ac9 01       		.byte	0x1
 6945 0aca 01       		.byte	0x1
 6946 0acb 05       		.byte	0x5
 6947 0acc 2C       		.byte	0x2c
 6948 0acd 0A       		.uleb128 0xa
 6949 0ace AE140000 		.4byte	.LASF168
 6950 0ad2 10       		.byte	0x10
 6951 0ad3 DA       		.byte	0xda
 6952 0ad4 B8000000 		.4byte	0xb8
 6953 0ad8 01       		.byte	0x1
 6954 0ad9 01       		.byte	0x1
 6955 0ada 04       		.byte	0x4
 6956 0adb 2C       		.byte	0x2c
 6957 0adc 0A       		.uleb128 0xa
 6958 0add C7020000 		.4byte	.LASF169
 6959 0ae1 10       		.byte	0x10
 6960 0ae2 DB       		.byte	0xdb
 6961 0ae3 B8000000 		.4byte	0xb8
 6962 0ae7 01       		.byte	0x1
 6963 0ae8 01       		.byte	0x1
 6964 0ae9 03       		.byte	0x3
 6965 0aea 2C       		.byte	0x2c
 6966 0aeb 1A       		.uleb128 0x1a
 6967 0aec 746F7000 		.ascii	"top\000"
 6968 0af0 10       		.byte	0x10
 6969 0af1 DC       		.byte	0xdc
 6970 0af2 B8000000 		.4byte	0xb8
 6971 0af6 01       		.byte	0x1
 6972 0af7 01       		.byte	0x1
 6973 0af8 02       		.byte	0x2
 6974 0af9 2C       		.byte	0x2c
 6975 0afa 0A       		.uleb128 0xa
 6976 0afb 39140000 		.4byte	.LASF170
 6977 0aff 10       		.byte	0x10
 6978 0b00 DD       		.byte	0xdd
 6979 0b01 B8000000 		.4byte	0xb8
 6980 0b05 01       		.byte	0x1
 6981 0b06 01       		.byte	0x1
 6982 0b07 01       		.byte	0x1
 6983 0b08 2C       		.byte	0x2c
 6984 0b09 0A       		.uleb128 0xa
 6985 0b0a 920B0000 		.4byte	.LASF171
 6986 0b0e 10       		.byte	0x10
ARM GAS  C:\Users\tmj32\AppData\Local\Temp\ccFKuFvs.s 			page 154


 6987 0b0f DE       		.byte	0xde
 6988 0b10 B8000000 		.4byte	0xb8
 6989 0b14 01       		.byte	0x1
 6990 0b15 01       		.byte	0x1
 6991 0b16 00       		.byte	0
 6992 0b17 2C       		.byte	0x2c
 6993 0b18 0A       		.uleb128 0xa
 6994 0b19 BD040000 		.4byte	.LASF172
 6995 0b1d 10       		.byte	0x10
 6996 0b1e DF       		.byte	0xdf
 6997 0b1f B4100000 		.4byte	0x10b4
 6998 0b23 01       		.byte	0x1
 6999 0b24 02       		.byte	0x2
 7000 0b25 06       		.byte	0x6
 7001 0b26 2D       		.byte	0x2d
 7002 0b27 0A       		.uleb128 0xa
 7003 0b28 3E130000 		.4byte	.LASF173
 7004 0b2c 10       		.byte	0x10
 7005 0b2d E0       		.byte	0xe0
 7006 0b2e 80070000 		.4byte	0x780
 7007 0b32 01       		.byte	0x1
 7008 0b33 02       		.byte	0x2
 7009 0b34 04       		.byte	0x4
 7010 0b35 2D       		.byte	0x2d
 7011 0b36 0A       		.uleb128 0xa
 7012 0b37 08160000 		.4byte	.LASF174
 7013 0b3b 10       		.byte	0x10
 7014 0b3c E1       		.byte	0xe1
 7015 0b3d B8000000 		.4byte	0xb8
 7016 0b41 01       		.byte	0x1
 7017 0b42 03       		.byte	0x3
 7018 0b43 01       		.byte	0x1
 7019 0b44 2D       		.byte	0x2d
 7020 0b45 07       		.uleb128 0x7
 7021 0b46 4A0B0000 		.4byte	.LASF175
 7022 0b4a 10       		.byte	0x10
 7023 0b4b E2       		.byte	0xe2
 7024 0b4c B8000000 		.4byte	0xb8
 7025 0b50 2E       		.byte	0x2e
 7026 0b51 07       		.uleb128 0x7
 7027 0b52 F7170000 		.4byte	.LASF176
 7028 0b56 10       		.byte	0x10
 7029 0b57 E4       		.byte	0xe4
 7030 0b58 EC020000 		.4byte	0x2ec
 7031 0b5c 2F       		.byte	0x2f
 7032 0b5d 07       		.uleb128 0x7
 7033 0b5e 6B070000 		.4byte	.LASF177
 7034 0b62 10       		.byte	0x10
 7035 0b63 E6       		.byte	0xe6
 7036 0b64 EF000000 		.4byte	0xef
 7037 0b68 30       		.byte	0x30
 7038 0b69 07       		.uleb128 0x7
 7039 0b6a 27080000 		.4byte	.LASF178
 7040 0b6e 10       		.byte	0x10
 7041 0b6f E9       		.byte	0xe9
 7042 0b70 A9100000 		.4byte	0x10a9
 7043 0b74 34       		.byte	0x34
ARM GAS  C:\Users\tmj32\AppData\Local\Temp\ccFKuFvs.s 			page 155


 7044 0b75 00       		.byte	0
 7045 0b76 0D       		.uleb128 0xd
 7046 0b77 04       		.byte	0x4
 7047 0b78 340A0000 		.4byte	0xa34
 7048 0b7c 1B       		.uleb128 0x1b
 7049 0b7d 63030000 		.4byte	0x363
 7050 0b81 8C0B0000 		.4byte	0xb8c
 7051 0b85 1C       		.uleb128 0x1c
 7052 0b86 F8020000 		.4byte	0x2f8
 7053 0b8a 1F       		.byte	0x1f
 7054 0b8b 00       		.byte	0
 7055 0b8c 1B       		.uleb128 0x1b
 7056 0b8d B8000000 		.4byte	0xb8
 7057 0b91 9C0B0000 		.4byte	0xb9c
 7058 0b95 1C       		.uleb128 0x1c
 7059 0b96 F8020000 		.4byte	0x2f8
 7060 0b9a 1F       		.byte	0x1f
 7061 0b9b 00       		.byte	0
 7062 0b9c 02       		.uleb128 0x2
 7063 0b9d F5090000 		.4byte	.LASF179
 7064 0ba1 11       		.byte	0x11
 7065 0ba2 33       		.byte	0x33
 7066 0ba3 B8000000 		.4byte	0xb8
 7067 0ba7 02       		.uleb128 0x2
 7068 0ba8 4C070000 		.4byte	.LASF180
 7069 0bac 11       		.byte	0x11
 7070 0bad 37       		.byte	0x37
 7071 0bae B8000000 		.4byte	0xb8
 7072 0bb2 06       		.uleb128 0x6
 7073 0bb3 10       		.byte	0x10
 7074 0bb4 11       		.byte	0x11
 7075 0bb5 3A       		.byte	0x3a
 7076 0bb6 F70B0000 		.4byte	0xbf7
 7077 0bba 07       		.uleb128 0x7
 7078 0bbb 86020000 		.4byte	.LASF181
 7079 0bbf 11       		.byte	0x11
 7080 0bc0 3C       		.byte	0x3c
 7081 0bc1 23030000 		.4byte	0x323
 7082 0bc5 00       		.byte	0
 7083 0bc6 08       		.uleb128 0x8
 7084 0bc7 6B657900 		.ascii	"key\000"
 7085 0bcb 11       		.byte	0x11
 7086 0bcc 3D       		.byte	0x3d
 7087 0bcd E4000000 		.4byte	0xe4
 7088 0bd1 04       		.byte	0x4
 7089 0bd2 07       		.uleb128 0x7
 7090 0bd3 68050000 		.4byte	.LASF182
 7091 0bd7 11       		.byte	0x11
 7092 0bd8 3E       		.byte	0x3e
 7093 0bd9 E4000000 		.4byte	0xe4
 7094 0bdd 08       		.byte	0x8
 7095 0bde 07       		.uleb128 0x7
 7096 0bdf AB0C0000 		.4byte	.LASF183
 7097 0be3 11       		.byte	0x11
 7098 0be4 3F       		.byte	0x3f
 7099 0be5 C3000000 		.4byte	0xc3
 7100 0be9 0C       		.byte	0xc
ARM GAS  C:\Users\tmj32\AppData\Local\Temp\ccFKuFvs.s 			page 156


 7101 0bea 07       		.uleb128 0x7
 7102 0beb D2010000 		.4byte	.LASF184
 7103 0bef 11       		.byte	0x11
 7104 0bf0 41       		.byte	0x41
 7105 0bf1 A70B0000 		.4byte	0xba7
 7106 0bf5 0E       		.byte	0xe
 7107 0bf6 00       		.byte	0
 7108 0bf7 02       		.uleb128 0x2
 7109 0bf8 74160000 		.4byte	.LASF185
 7110 0bfc 11       		.byte	0x11
 7111 0bfd 42       		.byte	0x42
 7112 0bfe B20B0000 		.4byte	0xbb2
 7113 0c02 09       		.uleb128 0x9
 7114 0c03 60020000 		.4byte	.LASF186
 7115 0c07 1C       		.byte	0x1c
 7116 0c08 11       		.byte	0x11
 7117 0c09 45       		.byte	0x45
 7118 0c0a 7B0C0000 		.4byte	0xc7b
 7119 0c0e 07       		.uleb128 0x7
 7120 0c0f 14020000 		.4byte	.LASF87
 7121 0c13 11       		.byte	0x11
 7122 0c14 49       		.byte	0x49
 7123 0c15 9C0B0000 		.4byte	0xb9c
 7124 0c19 00       		.byte	0
 7125 0c1a 07       		.uleb128 0x7
 7126 0c1b 96030000 		.4byte	.LASF187
 7127 0c1f 11       		.byte	0x11
 7128 0c20 4E       		.byte	0x4e
 7129 0c21 9B0C0000 		.4byte	0xc9b
 7130 0c25 04       		.byte	0x4
 7131 0c26 07       		.uleb128 0x7
 7132 0c27 1D0F0000 		.4byte	.LASF188
 7133 0c2b 11       		.byte	0x11
 7134 0c2c 52       		.byte	0x52
 7135 0c2d B10C0000 		.4byte	0xcb1
 7136 0c31 08       		.byte	0x8
 7137 0c32 07       		.uleb128 0x7
 7138 0c33 7A0C0000 		.4byte	.LASF189
 7139 0c37 11       		.byte	0x11
 7140 0c38 59       		.byte	0x59
 7141 0c39 B70C0000 		.4byte	0xcb7
 7142 0c3d 0C       		.byte	0xc
 7143 0c3e 07       		.uleb128 0x7
 7144 0c3f EE0E0000 		.4byte	.LASF190
 7145 0c43 11       		.byte	0x11
 7146 0c44 5C       		.byte	0x5c
 7147 0c45 2E0A0000 		.4byte	0xa2e
 7148 0c49 10       		.byte	0x10
 7149 0c4a 07       		.uleb128 0x7
 7150 0c4b 17150000 		.4byte	.LASF191
 7151 0c4f 11       		.byte	0x11
 7152 0c50 5F       		.byte	0x5f
 7153 0c51 B8000000 		.4byte	0xb8
 7154 0c55 14       		.byte	0x14
 7155 0c56 07       		.uleb128 0x7
 7156 0c57 3B070000 		.4byte	.LASF167
 7157 0c5b 11       		.byte	0x11
ARM GAS  C:\Users\tmj32\AppData\Local\Temp\ccFKuFvs.s 			page 157


 7158 0c5c 62       		.byte	0x62
 7159 0c5d B8000000 		.4byte	0xb8
 7160 0c61 15       		.byte	0x15
 7161 0c62 07       		.uleb128 0x7
 7162 0c63 E10F0000 		.4byte	.LASF192
 7163 0c67 11       		.byte	0x11
 7164 0c68 65       		.byte	0x65
 7165 0c69 CE000000 		.4byte	0xce
 7166 0c6d 16       		.byte	0x16
 7167 0c6e 07       		.uleb128 0x7
 7168 0c6f 78070000 		.4byte	.LASF193
 7169 0c73 11       		.byte	0x11
 7170 0c74 68       		.byte	0x68
 7171 0c75 CE000000 		.4byte	0xce
 7172 0c79 18       		.byte	0x18
 7173 0c7a 00       		.byte	0
 7174 0c7b 0B       		.uleb128 0xb
 7175 0c7c D5010000 		.4byte	0x1d5
 7176 0c80 8F0C0000 		.4byte	0xc8f
 7177 0c84 0C       		.uleb128 0xc
 7178 0c85 8F0C0000 		.4byte	0xc8f
 7179 0c89 0C       		.uleb128 0xc
 7180 0c8a 950C0000 		.4byte	0xc95
 7181 0c8e 00       		.byte	0
 7182 0c8f 0D       		.uleb128 0xd
 7183 0c90 04       		.byte	0x4
 7184 0c91 020C0000 		.4byte	0xc02
 7185 0c95 0D       		.uleb128 0xd
 7186 0c96 04       		.byte	0x4
 7187 0c97 F70B0000 		.4byte	0xbf7
 7188 0c9b 0D       		.uleb128 0xd
 7189 0c9c 04       		.byte	0x4
 7190 0c9d 7B0C0000 		.4byte	0xc7b
 7191 0ca1 15       		.uleb128 0x15
 7192 0ca2 B10C0000 		.4byte	0xcb1
 7193 0ca6 0C       		.uleb128 0xc
 7194 0ca7 8F0C0000 		.4byte	0xc8f
 7195 0cab 0C       		.uleb128 0xc
 7196 0cac B8000000 		.4byte	0xb8
 7197 0cb0 00       		.byte	0
 7198 0cb1 0D       		.uleb128 0xd
 7199 0cb2 04       		.byte	0x4
 7200 0cb3 A10C0000 		.4byte	0xca1
 7201 0cb7 0D       		.uleb128 0xd
 7202 0cb8 04       		.byte	0x4
 7203 0cb9 A2090000 		.4byte	0x9a2
 7204 0cbd 02       		.uleb128 0x2
 7205 0cbe BA140000 		.4byte	.LASF194
 7206 0cc2 11       		.byte	0x11
 7207 0cc3 69       		.byte	0x69
 7208 0cc4 020C0000 		.4byte	0xc02
 7209 0cc8 06       		.uleb128 0x6
 7210 0cc9 24       		.byte	0x24
 7211 0cca 11       		.byte	0x11
 7212 0ccb 73       		.byte	0x73
 7213 0ccc 4F0D0000 		.4byte	0xd4f
 7214 0cd0 07       		.uleb128 0x7
ARM GAS  C:\Users\tmj32\AppData\Local\Temp\ccFKuFvs.s 			page 158


 7215 0cd1 D7090000 		.4byte	.LASF195
 7216 0cd5 11       		.byte	0x11
 7217 0cd6 75       		.byte	0x75
 7218 0cd7 23030000 		.4byte	0x323
 7219 0cdb 00       		.byte	0
 7220 0cdc 07       		.uleb128 0x7
 7221 0cdd 6B0B0000 		.4byte	.LASF196
 7222 0ce1 11       		.byte	0x11
 7223 0ce2 76       		.byte	0x76
 7224 0ce3 23030000 		.4byte	0x323
 7225 0ce7 04       		.byte	0x4
 7226 0ce8 07       		.uleb128 0x7
 7227 0ce9 4D0E0000 		.4byte	.LASF197
 7228 0ced 11       		.byte	0x11
 7229 0cee 77       		.byte	0x77
 7230 0cef 23030000 		.4byte	0x323
 7231 0cf3 08       		.byte	0x8
 7232 0cf4 07       		.uleb128 0x7
 7233 0cf5 6A0E0000 		.4byte	.LASF198
 7234 0cf9 11       		.byte	0x11
 7235 0cfa 78       		.byte	0x78
 7236 0cfb 23030000 		.4byte	0x323
 7237 0cff 0C       		.byte	0xc
 7238 0d00 07       		.uleb128 0x7
 7239 0d01 BA050000 		.4byte	.LASF199
 7240 0d05 11       		.byte	0x11
 7241 0d06 79       		.byte	0x79
 7242 0d07 23030000 		.4byte	0x323
 7243 0d0b 10       		.byte	0x10
 7244 0d0c 07       		.uleb128 0x7
 7245 0d0d 760B0000 		.4byte	.LASF200
 7246 0d11 11       		.byte	0x11
 7247 0d12 7A       		.byte	0x7a
 7248 0d13 760B0000 		.4byte	0xb76
 7249 0d17 14       		.byte	0x14
 7250 0d18 07       		.uleb128 0x7
 7251 0d19 EC090000 		.4byte	.LASF201
 7252 0d1d 11       		.byte	0x11
 7253 0d1e 7B       		.byte	0x7b
 7254 0d1f 760B0000 		.4byte	0xb76
 7255 0d23 18       		.byte	0x18
 7256 0d24 07       		.uleb128 0x7
 7257 0d25 A4030000 		.4byte	.LASF202
 7258 0d29 11       		.byte	0x11
 7259 0d2a 7D       		.byte	0x7d
 7260 0d2b 760B0000 		.4byte	0xb76
 7261 0d2f 1C       		.byte	0x1c
 7262 0d30 0A       		.uleb128 0xa
 7263 0d31 65120000 		.4byte	.LASF203
 7264 0d35 11       		.byte	0x11
 7265 0d36 80       		.byte	0x80
 7266 0d37 B8000000 		.4byte	0xb8
 7267 0d3b 01       		.byte	0x1
 7268 0d3c 01       		.byte	0x1
 7269 0d3d 07       		.byte	0x7
 7270 0d3e 20       		.byte	0x20
 7271 0d3f 0A       		.uleb128 0xa
ARM GAS  C:\Users\tmj32\AppData\Local\Temp\ccFKuFvs.s 			page 159


 7272 0d40 1F120000 		.4byte	.LASF204
 7273 0d44 11       		.byte	0x11
 7274 0d45 81       		.byte	0x81
 7275 0d46 B8000000 		.4byte	0xb8
 7276 0d4a 01       		.byte	0x1
 7277 0d4b 01       		.byte	0x1
 7278 0d4c 06       		.byte	0x6
 7279 0d4d 20       		.byte	0x20
 7280 0d4e 00       		.byte	0
 7281 0d4f 06       		.uleb128 0x6
 7282 0d50 08       		.byte	0x8
 7283 0d51 11       		.byte	0x11
 7284 0d52 83       		.byte	0x83
 7285 0d53 700D0000 		.4byte	0xd70
 7286 0d57 07       		.uleb128 0x7
 7287 0d58 09030000 		.4byte	.LASF205
 7288 0d5c 11       		.byte	0x11
 7289 0d5d 85       		.byte	0x85
 7290 0d5e A70B0000 		.4byte	0xba7
 7291 0d62 00       		.byte	0
 7292 0d63 07       		.uleb128 0x7
 7293 0d64 CC080000 		.4byte	.LASF206
 7294 0d68 11       		.byte	0x11
 7295 0d69 86       		.byte	0x86
 7296 0d6a E4000000 		.4byte	0xe4
 7297 0d6e 04       		.byte	0x4
 7298 0d6f 00       		.byte	0
 7299 0d70 11       		.uleb128 0x11
 7300 0d71 24       		.byte	0x24
 7301 0d72 11       		.byte	0x11
 7302 0d73 71       		.byte	0x71
 7303 0d74 8F0D0000 		.4byte	0xd8f
 7304 0d78 13       		.uleb128 0x13
 7305 0d79 EB060000 		.4byte	.LASF207
 7306 0d7d 11       		.byte	0x11
 7307 0d7e 82       		.byte	0x82
 7308 0d7f C80C0000 		.4byte	0xcc8
 7309 0d83 13       		.uleb128 0x13
 7310 0d84 D9130000 		.4byte	.LASF208
 7311 0d88 11       		.byte	0x11
 7312 0d89 87       		.byte	0x87
 7313 0d8a 4F0D0000 		.4byte	0xd4f
 7314 0d8e 00       		.byte	0
 7315 0d8f 09       		.uleb128 0x9
 7316 0d90 BC0F0000 		.4byte	.LASF209
 7317 0d94 34       		.byte	0x34
 7318 0d95 11       		.byte	0x11
 7319 0d96 6E       		.byte	0x6e
 7320 0d97 080E0000 		.4byte	0xe08
 7321 0d9b 07       		.uleb128 0x7
 7322 0d9c D2010000 		.4byte	.LASF184
 7323 0da0 11       		.byte	0x11
 7324 0da1 70       		.byte	0x70
 7325 0da2 A70B0000 		.4byte	0xba7
 7326 0da6 00       		.byte	0
 7327 0da7 07       		.uleb128 0x7
 7328 0da8 82170000 		.4byte	.LASF210
ARM GAS  C:\Users\tmj32\AppData\Local\Temp\ccFKuFvs.s 			page 160


 7329 0dac 11       		.byte	0x11
 7330 0dad 88       		.byte	0x88
 7331 0dae 700D0000 		.4byte	0xd70
 7332 0db2 04       		.byte	0x4
 7333 0db3 07       		.uleb128 0x7
 7334 0db4 8C0E0000 		.4byte	.LASF211
 7335 0db8 11       		.byte	0x11
 7336 0db9 8A       		.byte	0x8a
 7337 0dba E4000000 		.4byte	0xe4
 7338 0dbe 28       		.byte	0x28
 7339 0dbf 07       		.uleb128 0x7
 7340 0dc0 04120000 		.4byte	.LASF212
 7341 0dc4 11       		.byte	0x11
 7342 0dc5 8B       		.byte	0x8b
 7343 0dc6 E4000000 		.4byte	0xe4
 7344 0dca 2C       		.byte	0x2c
 7345 0dcb 0A       		.uleb128 0xa
 7346 0dcc 18170000 		.4byte	.LASF213
 7347 0dd0 11       		.byte	0x11
 7348 0dd1 8E       		.byte	0x8e
 7349 0dd2 B8000000 		.4byte	0xb8
 7350 0dd6 01       		.byte	0x1
 7351 0dd7 01       		.byte	0x1
 7352 0dd8 07       		.byte	0x7
 7353 0dd9 30       		.byte	0x30
 7354 0dda 0A       		.uleb128 0xa
 7355 0ddb 9A100000 		.4byte	.LASF214
 7356 0ddf 11       		.byte	0x11
 7357 0de0 8F       		.byte	0x8f
 7358 0de1 B8000000 		.4byte	0xb8
 7359 0de5 01       		.byte	0x1
 7360 0de6 01       		.byte	0x1
 7361 0de7 06       		.byte	0x6
 7362 0de8 30       		.byte	0x30
 7363 0de9 0A       		.uleb128 0xa
 7364 0dea F5080000 		.4byte	.LASF215
 7365 0dee 11       		.byte	0x11
 7366 0def 90       		.byte	0x90
 7367 0df0 B8000000 		.4byte	0xb8
 7368 0df4 01       		.byte	0x1
 7369 0df5 01       		.byte	0x1
 7370 0df6 05       		.byte	0x5
 7371 0df7 30       		.byte	0x30
 7372 0df8 0A       		.uleb128 0xa
 7373 0df9 8C080000 		.4byte	.LASF216
 7374 0dfd 11       		.byte	0x11
 7375 0dfe 91       		.byte	0x91
 7376 0dff B8000000 		.4byte	0xb8
 7377 0e03 01       		.byte	0x1
 7378 0e04 01       		.byte	0x1
 7379 0e05 04       		.byte	0x4
 7380 0e06 30       		.byte	0x30
 7381 0e07 00       		.byte	0
 7382 0e08 02       		.uleb128 0x2
 7383 0e09 71140000 		.4byte	.LASF217
 7384 0e0d 11       		.byte	0x11
 7385 0e0e 92       		.byte	0x92
ARM GAS  C:\Users\tmj32\AppData\Local\Temp\ccFKuFvs.s 			page 161


 7386 0e0f 8F0D0000 		.4byte	0xd8f
 7387 0e13 09       		.uleb128 0x9
 7388 0e14 BB020000 		.4byte	.LASF218
 7389 0e18 5C       		.byte	0x5c
 7390 0e19 11       		.byte	0x11
 7391 0e1a 99       		.byte	0x99
 7392 0e1b 5C0E0000 		.4byte	0xe5c
 7393 0e1f 07       		.uleb128 0x7
 7394 0e20 A3120000 		.4byte	.LASF147
 7395 0e24 11       		.byte	0x11
 7396 0e25 9B       		.byte	0x9b
 7397 0e26 BD0C0000 		.4byte	0xcbd
 7398 0e2a 00       		.byte	0
 7399 0e2b 07       		.uleb128 0x7
 7400 0e2c 6F060000 		.4byte	.LASF219
 7401 0e30 11       		.byte	0x11
 7402 0e31 9C       		.byte	0x9c
 7403 0e32 080E0000 		.4byte	0xe08
 7404 0e36 1C       		.byte	0x1c
 7405 0e37 07       		.uleb128 0x7
 7406 0e38 AE170000 		.4byte	.LASF220
 7407 0e3c 11       		.byte	0x11
 7408 0e3d 9D       		.byte	0x9d
 7409 0e3e 760B0000 		.4byte	0xb76
 7410 0e42 50       		.byte	0x50
 7411 0e43 07       		.uleb128 0x7
 7412 0e44 C5090000 		.4byte	.LASF221
 7413 0e48 11       		.byte	0x11
 7414 0e49 9E       		.byte	0x9e
 7415 0e4a 610E0000 		.4byte	0xe61
 7416 0e4e 54       		.byte	0x54
 7417 0e4f 07       		.uleb128 0x7
 7418 0e50 54080000 		.4byte	.LASF222
 7419 0e54 11       		.byte	0x11
 7420 0e55 9F       		.byte	0x9f
 7421 0e56 670E0000 		.4byte	0xe67
 7422 0e5a 58       		.byte	0x58
 7423 0e5b 00       		.byte	0
 7424 0e5c 1D       		.uleb128 0x1d
 7425 0e5d B5170000 		.4byte	.LASF493
 7426 0e61 0D       		.uleb128 0xd
 7427 0e62 04       		.byte	0x4
 7428 0e63 5C0E0000 		.4byte	0xe5c
 7429 0e67 0D       		.uleb128 0xd
 7430 0e68 04       		.byte	0x4
 7431 0e69 6D0E0000 		.4byte	0xe6d
 7432 0e6d 0E       		.uleb128 0xe
 7433 0e6e 23030000 		.4byte	0x323
 7434 0e72 02       		.uleb128 0x2
 7435 0e73 49080000 		.4byte	.LASF223
 7436 0e77 11       		.byte	0x11
 7437 0e78 A1       		.byte	0xa1
 7438 0e79 130E0000 		.4byte	0xe13
 7439 0e7d 0F       		.uleb128 0xf
 7440 0e7e 01       		.byte	0x1
 7441 0e7f 42000000 		.4byte	0x42
 7442 0e83 10       		.byte	0x10
ARM GAS  C:\Users\tmj32\AppData\Local\Temp\ccFKuFvs.s 			page 162


 7443 0e84 3D       		.byte	0x3d
 7444 0e85 9C0E0000 		.4byte	0xe9c
 7445 0e89 10       		.uleb128 0x10
 7446 0e8a 2C0D0000 		.4byte	.LASF224
 7447 0e8e 00       		.byte	0
 7448 0e8f 10       		.uleb128 0x10
 7449 0e90 97050000 		.4byte	.LASF225
 7450 0e94 01       		.byte	0x1
 7451 0e95 10       		.uleb128 0x10
 7452 0e96 4B060000 		.4byte	.LASF226
 7453 0e9a 02       		.byte	0x2
 7454 0e9b 00       		.byte	0
 7455 0e9c 02       		.uleb128 0x2
 7456 0e9d B80E0000 		.4byte	.LASF227
 7457 0ea1 10       		.byte	0x10
 7458 0ea2 42       		.byte	0x42
 7459 0ea3 B8000000 		.4byte	0xb8
 7460 0ea7 02       		.uleb128 0x2
 7461 0ea8 D3170000 		.4byte	.LASF228
 7462 0eac 10       		.byte	0x10
 7463 0ead 48       		.byte	0x48
 7464 0eae B20E0000 		.4byte	0xeb2
 7465 0eb2 0D       		.uleb128 0xd
 7466 0eb3 04       		.byte	0x4
 7467 0eb4 B80E0000 		.4byte	0xeb8
 7468 0eb8 0B       		.uleb128 0xb
 7469 0eb9 D5010000 		.4byte	0x1d5
 7470 0ebd D10E0000 		.4byte	0xed1
 7471 0ec1 0C       		.uleb128 0xc
 7472 0ec2 760B0000 		.4byte	0xb76
 7473 0ec6 0C       		.uleb128 0xc
 7474 0ec7 14090000 		.4byte	0x914
 7475 0ecb 0C       		.uleb128 0xc
 7476 0ecc 9C0E0000 		.4byte	0xe9c
 7477 0ed0 00       		.byte	0
 7478 0ed1 0F       		.uleb128 0xf
 7479 0ed2 01       		.byte	0x1
 7480 0ed3 42000000 		.4byte	0x42
 7481 0ed7 10       		.byte	0x10
 7482 0ed8 4A       		.byte	0x4a
 7483 0ed9 560F0000 		.4byte	0xf56
 7484 0edd 10       		.uleb128 0x10
 7485 0ede 480F0000 		.4byte	.LASF229
 7486 0ee2 00       		.byte	0
 7487 0ee3 10       		.uleb128 0x10
 7488 0ee4 760D0000 		.4byte	.LASF230
 7489 0ee8 01       		.byte	0x1
 7490 0ee9 10       		.uleb128 0x10
 7491 0eea A1160000 		.4byte	.LASF231
 7492 0eee 02       		.byte	0x2
 7493 0eef 10       		.uleb128 0x10
 7494 0ef0 8C020000 		.4byte	.LASF232
 7495 0ef4 03       		.byte	0x3
 7496 0ef5 10       		.uleb128 0x10
 7497 0ef6 19020000 		.4byte	.LASF233
 7498 0efa 04       		.byte	0x4
 7499 0efb 10       		.uleb128 0x10
ARM GAS  C:\Users\tmj32\AppData\Local\Temp\ccFKuFvs.s 			page 163


 7500 0efc D80D0000 		.4byte	.LASF234
 7501 0f00 05       		.byte	0x5
 7502 0f01 10       		.uleb128 0x10
 7503 0f02 D2070000 		.4byte	.LASF235
 7504 0f06 06       		.byte	0x6
 7505 0f07 10       		.uleb128 0x10
 7506 0f08 C1170000 		.4byte	.LASF236
 7507 0f0c 07       		.byte	0x7
 7508 0f0d 10       		.uleb128 0x10
 7509 0f0e 05070000 		.4byte	.LASF237
 7510 0f12 08       		.byte	0x8
 7511 0f13 10       		.uleb128 0x10
 7512 0f14 CF0E0000 		.4byte	.LASF238
 7513 0f18 09       		.byte	0x9
 7514 0f19 10       		.uleb128 0x10
 7515 0f1a 2F080000 		.4byte	.LASF239
 7516 0f1e 0A       		.byte	0xa
 7517 0f1f 10       		.uleb128 0x10
 7518 0f20 5C160000 		.4byte	.LASF240
 7519 0f24 0B       		.byte	0xb
 7520 0f25 10       		.uleb128 0x10
 7521 0f26 C5060000 		.4byte	.LASF241
 7522 0f2a 0C       		.byte	0xc
 7523 0f2b 10       		.uleb128 0x10
 7524 0f2c 04150000 		.4byte	.LASF242
 7525 0f30 0D       		.byte	0xd
 7526 0f31 10       		.uleb128 0x10
 7527 0f32 EF0C0000 		.4byte	.LASF243
 7528 0f36 0E       		.byte	0xe
 7529 0f37 10       		.uleb128 0x10
 7530 0f38 15010000 		.4byte	.LASF244
 7531 0f3c 0F       		.byte	0xf
 7532 0f3d 10       		.uleb128 0x10
 7533 0f3e 97090000 		.4byte	.LASF245
 7534 0f42 10       		.byte	0x10
 7535 0f43 10       		.uleb128 0x10
 7536 0f44 18080000 		.4byte	.LASF246
 7537 0f48 11       		.byte	0x11
 7538 0f49 10       		.uleb128 0x10
 7539 0f4a 730F0000 		.4byte	.LASF247
 7540 0f4e 12       		.byte	0x12
 7541 0f4f 10       		.uleb128 0x10
 7542 0f50 290C0000 		.4byte	.LASF248
 7543 0f54 13       		.byte	0x13
 7544 0f55 00       		.byte	0
 7545 0f56 02       		.uleb128 0x2
 7546 0f57 C7010000 		.4byte	.LASF249
 7547 0f5b 10       		.byte	0x10
 7548 0f5c 61       		.byte	0x61
 7549 0f5d B8000000 		.4byte	0xb8
 7550 0f61 02       		.uleb128 0x2
 7551 0f62 9C060000 		.4byte	.LASF250
 7552 0f66 10       		.byte	0x10
 7553 0f67 68       		.byte	0x68
 7554 0f68 6C0F0000 		.4byte	0xf6c
 7555 0f6c 0D       		.uleb128 0xd
 7556 0f6d 04       		.byte	0x4
ARM GAS  C:\Users\tmj32\AppData\Local\Temp\ccFKuFvs.s 			page 164


 7557 0f6e 720F0000 		.4byte	0xf72
 7558 0f72 15       		.uleb128 0x15
 7559 0f73 820F0000 		.4byte	0xf82
 7560 0f77 0C       		.uleb128 0xc
 7561 0f78 760B0000 		.4byte	0xb76
 7562 0f7c 0C       		.uleb128 0xc
 7563 0f7d 560F0000 		.4byte	0xf56
 7564 0f81 00       		.byte	0
 7565 0f82 0F       		.uleb128 0xf
 7566 0f83 01       		.byte	0x1
 7567 0f84 42000000 		.4byte	0x42
 7568 0f88 10       		.byte	0x10
 7569 0f89 6D       		.byte	0x6d
 7570 0f8a 07100000 		.4byte	0x1007
 7571 0f8e 10       		.uleb128 0x10
 7572 0f8f 9F0B0000 		.4byte	.LASF251
 7573 0f93 00       		.byte	0
 7574 0f94 10       		.uleb128 0x10
 7575 0f95 540C0000 		.4byte	.LASF252
 7576 0f99 01       		.byte	0x1
 7577 0f9a 10       		.uleb128 0x10
 7578 0f9b F2130000 		.4byte	.LASF253
 7579 0f9f 02       		.byte	0x2
 7580 0fa0 10       		.uleb128 0x10
 7581 0fa1 590F0000 		.4byte	.LASF254
 7582 0fa5 03       		.byte	0x3
 7583 0fa6 10       		.uleb128 0x10
 7584 0fa7 9E000000 		.4byte	.LASF255
 7585 0fab 04       		.byte	0x4
 7586 0fac 10       		.uleb128 0x10
 7587 0fad C9140000 		.4byte	.LASF256
 7588 0fb1 05       		.byte	0x5
 7589 0fb2 10       		.uleb128 0x10
 7590 0fb3 A1040000 		.4byte	.LASF257
 7591 0fb7 06       		.byte	0x6
 7592 0fb8 10       		.uleb128 0x10
 7593 0fb9 79080000 		.4byte	.LASF258
 7594 0fbd 07       		.byte	0x7
 7595 0fbe 10       		.uleb128 0x10
 7596 0fbf 02020000 		.4byte	.LASF259
 7597 0fc3 08       		.byte	0x8
 7598 0fc4 10       		.uleb128 0x10
 7599 0fc5 B00D0000 		.4byte	.LASF260
 7600 0fc9 09       		.byte	0x9
 7601 0fca 10       		.uleb128 0x10
 7602 0fcb FD0E0000 		.4byte	.LASF261
 7603 0fcf 0A       		.byte	0xa
 7604 0fd0 10       		.uleb128 0x10
 7605 0fd1 830F0000 		.4byte	.LASF262
 7606 0fd5 0B       		.byte	0xb
 7607 0fd6 10       		.uleb128 0x10
 7608 0fd7 42010000 		.4byte	.LASF263
 7609 0fdb 0C       		.byte	0xc
 7610 0fdc 10       		.uleb128 0x10
 7611 0fdd 57040000 		.4byte	.LASF264
 7612 0fe1 0D       		.byte	0xd
 7613 0fe2 10       		.uleb128 0x10
ARM GAS  C:\Users\tmj32\AppData\Local\Temp\ccFKuFvs.s 			page 165


 7614 0fe3 90010000 		.4byte	.LASF265
 7615 0fe7 0E       		.byte	0xe
 7616 0fe8 10       		.uleb128 0x10
 7617 0fe9 290F0000 		.4byte	.LASF266
 7618 0fed 0F       		.byte	0xf
 7619 0fee 10       		.uleb128 0x10
 7620 0fef 60090000 		.4byte	.LASF267
 7621 0ff3 10       		.byte	0x10
 7622 0ff4 10       		.uleb128 0x10
 7623 0ff5 B3060000 		.4byte	.LASF268
 7624 0ff9 11       		.byte	0x11
 7625 0ffa 10       		.uleb128 0x10
 7626 0ffb 220B0000 		.4byte	.LASF269
 7627 0fff 12       		.byte	0x12
 7628 1000 10       		.uleb128 0x10
 7629 1001 050A0000 		.4byte	.LASF270
 7630 1005 13       		.byte	0x13
 7631 1006 00       		.byte	0
 7632 1007 02       		.uleb128 0x2
 7633 1008 CD0F0000 		.4byte	.LASF271
 7634 100c 10       		.byte	0x10
 7635 100d 88       		.byte	0x88
 7636 100e B8000000 		.4byte	0xb8
 7637 1012 02       		.uleb128 0x2
 7638 1013 12050000 		.4byte	.LASF272
 7639 1017 10       		.byte	0x10
 7640 1018 8A       		.byte	0x8a
 7641 1019 1D100000 		.4byte	0x101d
 7642 101d 0D       		.uleb128 0xd
 7643 101e 04       		.byte	0x4
 7644 101f 23100000 		.4byte	0x1023
 7645 1023 0B       		.uleb128 0xb
 7646 1024 2C070000 		.4byte	0x72c
 7647 1028 3C100000 		.4byte	0x103c
 7648 102c 0C       		.uleb128 0xc
 7649 102d 760B0000 		.4byte	0xb76
 7650 1031 0C       		.uleb128 0xc
 7651 1032 07100000 		.4byte	0x1007
 7652 1036 0C       		.uleb128 0xc
 7653 1037 FA000000 		.4byte	0xfa
 7654 103b 00       		.byte	0
 7655 103c 02       		.uleb128 0x2
 7656 103d 85010000 		.4byte	.LASF273
 7657 1041 10       		.byte	0x10
 7658 1042 A4       		.byte	0xa4
 7659 1043 B8000000 		.4byte	0xb8
 7660 1047 06       		.uleb128 0x6
 7661 1048 0C       		.byte	0xc
 7662 1049 10       		.byte	0x10
 7663 104a A7       		.byte	0xa7
 7664 104b 9E100000 		.4byte	0x109e
 7665 104f 07       		.uleb128 0x7
 7666 1050 9E130000 		.4byte	.LASF274
 7667 1054 10       		.byte	0x10
 7668 1055 A9       		.byte	0xa9
 7669 1056 9E100000 		.4byte	0x109e
 7670 105a 00       		.byte	0
ARM GAS  C:\Users\tmj32\AppData\Local\Temp\ccFKuFvs.s 			page 166


 7671 105b 07       		.uleb128 0x7
 7672 105c 7F120000 		.4byte	.LASF275
 7673 1060 10       		.byte	0x10
 7674 1061 AA       		.byte	0xaa
 7675 1062 EF000000 		.4byte	0xef
 7676 1066 04       		.byte	0x4
 7677 1067 07       		.uleb128 0x7
 7678 1068 95100000 		.4byte	.LASF276
 7679 106c 10       		.byte	0x10
 7680 106d AB       		.byte	0xab
 7681 106e EF000000 		.4byte	0xef
 7682 1072 06       		.byte	0x6
 7683 1073 07       		.uleb128 0x7
 7684 1074 DA0B0000 		.4byte	.LASF277
 7685 1078 10       		.byte	0x10
 7686 1079 AC       		.byte	0xac
 7687 107a 3C100000 		.4byte	0x103c
 7688 107e 08       		.byte	0x8
 7689 107f 0A       		.uleb128 0xa
 7690 1080 1A0D0000 		.4byte	.LASF278
 7691 1084 10       		.byte	0x10
 7692 1085 AD       		.byte	0xad
 7693 1086 B8000000 		.4byte	0xb8
 7694 108a 01       		.byte	0x1
 7695 108b 01       		.byte	0x1
 7696 108c 07       		.byte	0x7
 7697 108d 09       		.byte	0x9
 7698 108e 0A       		.uleb128 0xa
 7699 108f 37170000 		.4byte	.LASF279
 7700 1093 10       		.byte	0x10
 7701 1094 AE       		.byte	0xae
 7702 1095 B8000000 		.4byte	0xb8
 7703 1099 01       		.byte	0x1
 7704 109a 01       		.byte	0x1
 7705 109b 06       		.byte	0x6
 7706 109c 09       		.byte	0x9
 7707 109d 00       		.byte	0
 7708 109e 0D       		.uleb128 0xd
 7709 109f 04       		.byte	0x4
 7710 10a0 A4100000 		.4byte	0x10a4
 7711 10a4 0E       		.uleb128 0xe
 7712 10a5 340A0000 		.4byte	0xa34
 7713 10a9 02       		.uleb128 0x2
 7714 10aa 5E010000 		.4byte	.LASF280
 7715 10ae 10       		.byte	0x10
 7716 10af B0       		.byte	0xb0
 7717 10b0 47100000 		.4byte	0x1047
 7718 10b4 02       		.uleb128 0x2
 7719 10b5 F9160000 		.4byte	.LASF281
 7720 10b9 10       		.byte	0x10
 7721 10ba B9       		.byte	0xb9
 7722 10bb B8000000 		.4byte	0xb8
 7723 10bf 0D       		.uleb128 0xd
 7724 10c0 04       		.byte	0x4
 7725 10c1 C5100000 		.4byte	0x10c5
 7726 10c5 0E       		.uleb128 0xe
 7727 10c6 02070000 		.4byte	0x702
ARM GAS  C:\Users\tmj32\AppData\Local\Temp\ccFKuFvs.s 			page 167


 7728 10ca 02       		.uleb128 0x2
 7729 10cb 9A120000 		.4byte	.LASF282
 7730 10cf 10       		.byte	0x10
 7731 10d0 F0       		.byte	0xf0
 7732 10d1 340A0000 		.4byte	0xa34
 7733 10d5 0F       		.uleb128 0xf
 7734 10d6 01       		.byte	0x1
 7735 10d7 42000000 		.4byte	0x42
 7736 10db 10       		.byte	0x10
 7737 10dc F3       		.byte	0xf3
 7738 10dd 0C110000 		.4byte	0x110c
 7739 10e1 10       		.uleb128 0x10
 7740 10e2 730E0000 		.4byte	.LASF283
 7741 10e6 00       		.byte	0
 7742 10e7 10       		.uleb128 0x10
 7743 10e8 50130000 		.4byte	.LASF284
 7744 10ec 01       		.byte	0x1
 7745 10ed 10       		.uleb128 0x10
 7746 10ee C6040000 		.4byte	.LASF285
 7747 10f2 02       		.byte	0x2
 7748 10f3 10       		.uleb128 0x10
 7749 10f4 79000000 		.4byte	.LASF286
 7750 10f8 04       		.byte	0x4
 7751 10f9 10       		.uleb128 0x10
 7752 10fa 96070000 		.4byte	.LASF287
 7753 10fe 08       		.byte	0x8
 7754 10ff 10       		.uleb128 0x10
 7755 1100 65130000 		.4byte	.LASF288
 7756 1104 10       		.byte	0x10
 7757 1105 10       		.uleb128 0x10
 7758 1106 24100000 		.4byte	.LASF289
 7759 110a 20       		.byte	0x20
 7760 110b 00       		.byte	0
 7761 110c 0F       		.uleb128 0xf
 7762 110d 01       		.byte	0x1
 7763 110e 42000000 		.4byte	0x42
 7764 1112 12       		.byte	0x12
 7765 1113 35       		.byte	0x35
 7766 1114 37110000 		.4byte	0x1137
 7767 1118 10       		.uleb128 0x10
 7768 1119 45020000 		.4byte	.LASF290
 7769 111d 00       		.byte	0
 7770 111e 10       		.uleb128 0x10
 7771 111f 68150000 		.4byte	.LASF291
 7772 1123 01       		.byte	0x1
 7773 1124 10       		.uleb128 0x10
 7774 1125 14090000 		.4byte	.LASF292
 7775 1129 02       		.byte	0x2
 7776 112a 10       		.uleb128 0x10
 7777 112b E2120000 		.4byte	.LASF293
 7778 112f 03       		.byte	0x3
 7779 1130 10       		.uleb128 0x10
 7780 1131 8E120000 		.4byte	.LASF294
 7781 1135 04       		.byte	0x4
 7782 1136 00       		.byte	0
 7783 1137 02       		.uleb128 0x2
 7784 1138 C3100000 		.4byte	.LASF295
ARM GAS  C:\Users\tmj32\AppData\Local\Temp\ccFKuFvs.s 			page 168


 7785 113c 12       		.byte	0x12
 7786 113d 3D       		.byte	0x3d
 7787 113e B8000000 		.4byte	0xb8
 7788 1142 06       		.uleb128 0x6
 7789 1143 02       		.byte	0x2
 7790 1144 12       		.byte	0x12
 7791 1145 3F       		.byte	0x3f
 7792 1146 96110000 		.4byte	0x1196
 7793 114a 0A       		.uleb128 0xa
 7794 114b 7E0B0000 		.4byte	.LASF296
 7795 114f 12       		.byte	0x12
 7796 1150 43       		.byte	0x43
 7797 1151 B8000000 		.4byte	0xb8
 7798 1155 01       		.byte	0x1
 7799 1156 04       		.byte	0x4
 7800 1157 04       		.byte	0x4
 7801 1158 00       		.byte	0
 7802 1159 0A       		.uleb128 0xa
 7803 115a 640D0000 		.4byte	.LASF297
 7804 115e 12       		.byte	0x12
 7805 115f 44       		.byte	0x44
 7806 1160 B8000000 		.4byte	0xb8
 7807 1164 01       		.byte	0x1
 7808 1165 02       		.byte	0x2
 7809 1166 02       		.byte	0x2
 7810 1167 00       		.byte	0
 7811 1168 0A       		.uleb128 0xa
 7812 1169 84120000 		.4byte	.LASF298
 7813 116d 12       		.byte	0x12
 7814 116e 45       		.byte	0x45
 7815 116f B8000000 		.4byte	0xb8
 7816 1173 01       		.byte	0x1
 7817 1174 02       		.byte	0x2
 7818 1175 00       		.byte	0
 7819 1176 00       		.byte	0
 7820 1177 0A       		.uleb128 0xa
 7821 1178 34040000 		.4byte	.LASF299
 7822 117c 12       		.byte	0x12
 7823 117d 46       		.byte	0x46
 7824 117e B8000000 		.4byte	0xb8
 7825 1182 01       		.byte	0x1
 7826 1183 02       		.byte	0x2
 7827 1184 06       		.byte	0x6
 7828 1185 01       		.byte	0x1
 7829 1186 0A       		.uleb128 0xa
 7830 1187 FA100000 		.4byte	.LASF300
 7831 118b 12       		.byte	0x12
 7832 118c 47       		.byte	0x47
 7833 118d B8000000 		.4byte	0xb8
 7834 1191 01       		.byte	0x1
 7835 1192 02       		.byte	0x2
 7836 1193 04       		.byte	0x4
 7837 1194 01       		.byte	0x1
 7838 1195 00       		.byte	0
 7839 1196 02       		.uleb128 0x2
 7840 1197 390C0000 		.4byte	.LASF301
 7841 119b 12       		.byte	0x12
ARM GAS  C:\Users\tmj32\AppData\Local\Temp\ccFKuFvs.s 			page 169


 7842 119c 48       		.byte	0x48
 7843 119d 42110000 		.4byte	0x1142
 7844 11a1 0F       		.uleb128 0xf
 7845 11a2 01       		.byte	0x1
 7846 11a3 42000000 		.4byte	0x42
 7847 11a7 13       		.byte	0x13
 7848 11a8 1E       		.byte	0x1e
 7849 11a9 F6110000 		.4byte	0x11f6
 7850 11ad 10       		.uleb128 0x10
 7851 11ae 48170000 		.4byte	.LASF302
 7852 11b2 11       		.byte	0x11
 7853 11b3 10       		.uleb128 0x10
 7854 11b4 EE100000 		.4byte	.LASF303
 7855 11b8 12       		.byte	0x12
 7856 11b9 10       		.uleb128 0x10
 7857 11ba 3E000000 		.4byte	.LASF304
 7858 11be 13       		.byte	0x13
 7859 11bf 10       		.uleb128 0x10
 7860 11c0 D5030000 		.4byte	.LASF305
 7861 11c4 14       		.byte	0x14
 7862 11c5 10       		.uleb128 0x10
 7863 11c6 05110000 		.4byte	.LASF306
 7864 11ca 1B       		.byte	0x1b
 7865 11cb 10       		.uleb128 0x10
 7866 11cc 24030000 		.4byte	.LASF307
 7867 11d0 7F       		.byte	0x7f
 7868 11d1 10       		.uleb128 0x10
 7869 11d2 F4040000 		.4byte	.LASF308
 7870 11d6 08       		.byte	0x8
 7871 11d7 10       		.uleb128 0x10
 7872 11d8 EA010000 		.4byte	.LASF309
 7873 11dc 0A       		.byte	0xa
 7874 11dd 10       		.uleb128 0x10
 7875 11de A40D0000 		.4byte	.LASF310
 7876 11e2 09       		.byte	0x9
 7877 11e3 10       		.uleb128 0x10
 7878 11e4 92130000 		.4byte	.LASF311
 7879 11e8 0B       		.byte	0xb
 7880 11e9 10       		.uleb128 0x10
 7881 11ea 33090000 		.4byte	.LASF312
 7882 11ee 02       		.byte	0x2
 7883 11ef 10       		.uleb128 0x10
 7884 11f0 120F0000 		.4byte	.LASF313
 7885 11f4 03       		.byte	0x3
 7886 11f5 00       		.byte	0
 7887 11f6 0F       		.uleb128 0xf
 7888 11f7 01       		.byte	0x1
 7889 11f8 42000000 		.4byte	0x42
 7890 11fc 02       		.byte	0x2
 7891 11fd 2A       		.byte	0x2a
 7892 11fe 27120000 		.4byte	0x1227
 7893 1202 10       		.uleb128 0x10
 7894 1203 5C0B0000 		.4byte	.LASF314
 7895 1207 00       		.byte	0
 7896 1208 10       		.uleb128 0x10
 7897 1209 F50D0000 		.4byte	.LASF315
 7898 120d 01       		.byte	0x1
ARM GAS  C:\Users\tmj32\AppData\Local\Temp\ccFKuFvs.s 			page 170


 7899 120e 10       		.uleb128 0x10
 7900 120f A9150000 		.4byte	.LASF316
 7901 1213 02       		.byte	0x2
 7902 1214 10       		.uleb128 0x10
 7903 1215 1B060000 		.4byte	.LASF317
 7904 1219 03       		.byte	0x3
 7905 121a 10       		.uleb128 0x10
 7906 121b 11040000 		.4byte	.LASF318
 7907 121f 04       		.byte	0x4
 7908 1220 10       		.uleb128 0x10
 7909 1221 D8010000 		.4byte	.LASF319
 7910 1225 05       		.byte	0x5
 7911 1226 00       		.byte	0
 7912 1227 02       		.uleb128 0x2
 7913 1228 39160000 		.4byte	.LASF320
 7914 122c 02       		.byte	0x2
 7915 122d 32       		.byte	0x32
 7916 122e B8000000 		.4byte	0xb8
 7917 1232 0F       		.uleb128 0xf
 7918 1233 01       		.byte	0x1
 7919 1234 42000000 		.4byte	0x42
 7920 1238 02       		.byte	0x2
 7921 1239 35       		.byte	0x35
 7922 123a 57120000 		.4byte	0x1257
 7923 123e 10       		.uleb128 0x10
 7924 123f AA120000 		.4byte	.LASF321
 7925 1243 01       		.byte	0x1
 7926 1244 10       		.uleb128 0x10
 7927 1245 8B140000 		.4byte	.LASF322
 7928 1249 02       		.byte	0x2
 7929 124a 10       		.uleb128 0x10
 7930 124b 0C0E0000 		.4byte	.LASF323
 7931 124f 04       		.byte	0x4
 7932 1250 10       		.uleb128 0x10
 7933 1251 9F080000 		.4byte	.LASF324
 7934 1255 08       		.byte	0x8
 7935 1256 00       		.byte	0
 7936 1257 02       		.uleb128 0x2
 7937 1258 0D0B0000 		.4byte	.LASF325
 7938 125c 02       		.byte	0x2
 7939 125d 36       		.byte	0x36
 7940 125e B8000000 		.4byte	0xb8
 7941 1262 06       		.uleb128 0x6
 7942 1263 18       		.byte	0x18
 7943 1264 02       		.byte	0x2
 7944 1265 3E       		.byte	0x3e
 7945 1266 BC120000 		.4byte	0x12bc
 7946 126a 07       		.uleb128 0x7
 7947 126b 470E0000 		.4byte	.LASF326
 7948 126f 02       		.byte	0x2
 7949 1270 40       		.byte	0x40
 7950 1271 BF100000 		.4byte	0x10bf
 7951 1275 00       		.byte	0
 7952 1276 07       		.uleb128 0x7
 7953 1277 52170000 		.4byte	.LASF327
 7954 127b 02       		.byte	0x2
 7955 127c 41       		.byte	0x41
ARM GAS  C:\Users\tmj32\AppData\Local\Temp\ccFKuFvs.s 			page 171


 7956 127d 63030000 		.4byte	0x363
 7957 1281 04       		.byte	0x4
 7958 1282 07       		.uleb128 0x7
 7959 1283 63100000 		.4byte	.LASF328
 7960 1287 02       		.byte	0x2
 7961 1288 42       		.byte	0x42
 7962 1289 63030000 		.4byte	0x363
 7963 128d 0C       		.byte	0xc
 7964 128e 0A       		.uleb128 0xa
 7965 128f E3070000 		.4byte	.LASF329
 7966 1293 02       		.byte	0x2
 7967 1294 43       		.byte	0x43
 7968 1295 B8000000 		.4byte	0xb8
 7969 1299 01       		.byte	0x1
 7970 129a 01       		.byte	0x1
 7971 129b 07       		.byte	0x7
 7972 129c 14       		.byte	0x14
 7973 129d 0A       		.uleb128 0xa
 7974 129e 51020000 		.4byte	.LASF330
 7975 12a2 02       		.byte	0x2
 7976 12a3 44       		.byte	0x44
 7977 12a4 B8000000 		.4byte	0xb8
 7978 12a8 01       		.byte	0x1
 7979 12a9 01       		.byte	0x1
 7980 12aa 06       		.byte	0x6
 7981 12ab 14       		.byte	0x14
 7982 12ac 0A       		.uleb128 0xa
 7983 12ad D4130000 		.4byte	.LASF331
 7984 12b1 02       		.byte	0x2
 7985 12b2 45       		.byte	0x45
 7986 12b3 27120000 		.4byte	0x1227
 7987 12b7 01       		.byte	0x1
 7988 12b8 03       		.byte	0x3
 7989 12b9 03       		.byte	0x3
 7990 12ba 14       		.byte	0x14
 7991 12bb 00       		.byte	0
 7992 12bc 06       		.uleb128 0x6
 7993 12bd 0C       		.byte	0xc
 7994 12be 02       		.byte	0x2
 7995 12bf 48       		.byte	0x48
 7996 12c0 28130000 		.4byte	0x1328
 7997 12c4 07       		.uleb128 0x7
 7998 12c5 D2010000 		.4byte	.LASF184
 7999 12c9 02       		.byte	0x2
 8000 12ca 4A       		.byte	0x4a
 8001 12cb 92030000 		.4byte	0x392
 8002 12cf 00       		.byte	0
 8003 12d0 07       		.uleb128 0x7
 8004 12d1 470E0000 		.4byte	.LASF326
 8005 12d5 02       		.byte	0x2
 8006 12d6 4B       		.byte	0x4b
 8007 12d7 BF100000 		.4byte	0x10bf
 8008 12db 04       		.byte	0x4
 8009 12dc 0A       		.uleb128 0xa
 8010 12dd D5080000 		.4byte	.LASF332
 8011 12e1 02       		.byte	0x2
 8012 12e2 4C       		.byte	0x4c
ARM GAS  C:\Users\tmj32\AppData\Local\Temp\ccFKuFvs.s 			page 172


 8013 12e3 B8000000 		.4byte	0xb8
 8014 12e7 01       		.byte	0x1
 8015 12e8 01       		.byte	0x1
 8016 12e9 07       		.byte	0x7
 8017 12ea 08       		.byte	0x8
 8018 12eb 0A       		.uleb128 0xa
 8019 12ec 3E120000 		.4byte	.LASF333
 8020 12f0 02       		.byte	0x2
 8021 12f1 4D       		.byte	0x4d
 8022 12f2 B8000000 		.4byte	0xb8
 8023 12f6 01       		.byte	0x1
 8024 12f7 01       		.byte	0x1
 8025 12f8 06       		.byte	0x6
 8026 12f9 08       		.byte	0x8
 8027 12fa 0A       		.uleb128 0xa
 8028 12fb 84160000 		.4byte	.LASF334
 8029 12ff 02       		.byte	0x2
 8030 1300 4F       		.byte	0x4f
 8031 1301 B8000000 		.4byte	0xb8
 8032 1305 01       		.byte	0x1
 8033 1306 01       		.byte	0x1
 8034 1307 05       		.byte	0x5
 8035 1308 08       		.byte	0x8
 8036 1309 0A       		.uleb128 0xa
 8037 130a 47130000 		.4byte	.LASF335
 8038 130e 02       		.byte	0x2
 8039 130f 51       		.byte	0x51
 8040 1310 B8000000 		.4byte	0xb8
 8041 1314 01       		.byte	0x1
 8042 1315 01       		.byte	0x1
 8043 1316 04       		.byte	0x4
 8044 1317 08       		.byte	0x8
 8045 1318 0A       		.uleb128 0xa
 8046 1319 E9050000 		.4byte	.LASF336
 8047 131d 02       		.byte	0x2
 8048 131e 53       		.byte	0x53
 8049 131f B8000000 		.4byte	0xb8
 8050 1323 01       		.byte	0x1
 8051 1324 01       		.byte	0x1
 8052 1325 03       		.byte	0x3
 8053 1326 08       		.byte	0x8
 8054 1327 00       		.byte	0
 8055 1328 06       		.uleb128 0x6
 8056 1329 30       		.byte	0x30
 8057 132a 02       		.byte	0x2
 8058 132b 39       		.byte	0x39
 8059 132c 89130000 		.4byte	0x1389
 8060 1330 08       		.uleb128 0x8
 8061 1331 626700   		.ascii	"bg\000"
 8062 1334 02       		.byte	0x2
 8063 1335 3B       		.byte	0x3b
 8064 1336 96110000 		.4byte	0x1196
 8065 133a 00       		.byte	0
 8066 133b 07       		.uleb128 0x7
 8067 133c 4D040000 		.4byte	.LASF337
 8068 1340 02       		.byte	0x2
 8069 1341 3D       		.byte	0x3d
ARM GAS  C:\Users\tmj32\AppData\Local\Temp\ccFKuFvs.s 			page 173


 8070 1342 89130000 		.4byte	0x1389
 8071 1346 04       		.byte	0x4
 8072 1347 08       		.uleb128 0x8
 8073 1348 736200   		.ascii	"sb\000"
 8074 134b 02       		.byte	0x2
 8075 134c 46       		.byte	0x46
 8076 134d 62120000 		.4byte	0x1262
 8077 1351 08       		.byte	0x8
 8078 1352 07       		.uleb128 0x7
 8079 1353 E2170000 		.4byte	.LASF338
 8080 1357 02       		.byte	0x2
 8081 1358 55       		.byte	0x55
 8082 1359 BC120000 		.4byte	0x12bc
 8083 135d 20       		.byte	0x20
 8084 135e 07       		.uleb128 0x7
 8085 135f B0050000 		.4byte	.LASF339
 8086 1363 02       		.byte	0x2
 8087 1364 57       		.byte	0x57
 8088 1365 CE000000 		.4byte	0xce
 8089 1369 2C       		.byte	0x2c
 8090 136a 0A       		.uleb128 0xa
 8091 136b C9030000 		.4byte	.LASF340
 8092 136f 02       		.byte	0x2
 8093 1370 5A       		.byte	0x5a
 8094 1371 B8000000 		.4byte	0xb8
 8095 1375 01       		.byte	0x1
 8096 1376 01       		.byte	0x1
 8097 1377 07       		.byte	0x7
 8098 1378 2E       		.byte	0x2e
 8099 1379 0A       		.uleb128 0xa
 8100 137a B8080000 		.4byte	.LASF341
 8101 137e 02       		.byte	0x2
 8102 137f 5B       		.byte	0x5b
 8103 1380 B8000000 		.4byte	0xb8
 8104 1384 01       		.byte	0x1
 8105 1385 01       		.byte	0x1
 8106 1386 06       		.byte	0x6
 8107 1387 2E       		.byte	0x2e
 8108 1388 00       		.byte	0
 8109 1389 0D       		.uleb128 0xd
 8110 138a 04       		.byte	0x4
 8111 138b CA100000 		.4byte	0x10ca
 8112 138f 02       		.uleb128 0x2
 8113 1390 55050000 		.4byte	.LASF342
 8114 1394 02       		.byte	0x2
 8115 1395 5C       		.byte	0x5c
 8116 1396 28130000 		.4byte	0x1328
 8117 139a 0F       		.uleb128 0xf
 8118 139b 01       		.byte	0x1
 8119 139c 42000000 		.4byte	0x42
 8120 13a0 02       		.byte	0x2
 8121 13a1 5E       		.byte	0x5e
 8122 13a2 BF130000 		.4byte	0x13bf
 8123 13a6 10       		.uleb128 0x10
 8124 13a7 81130000 		.4byte	.LASF343
 8125 13ab 00       		.byte	0
 8126 13ac 10       		.uleb128 0x10
ARM GAS  C:\Users\tmj32\AppData\Local\Temp\ccFKuFvs.s 			page 174


 8127 13ad 10110000 		.4byte	.LASF344
 8128 13b1 01       		.byte	0x1
 8129 13b2 10       		.uleb128 0x10
 8130 13b3 C1070000 		.4byte	.LASF345
 8131 13b7 02       		.byte	0x2
 8132 13b8 10       		.uleb128 0x10
 8133 13b9 F1000000 		.4byte	.LASF346
 8134 13bd 03       		.byte	0x3
 8135 13be 00       		.byte	0
 8136 13bf 02       		.uleb128 0x2
 8137 13c0 3B060000 		.4byte	.LASF347
 8138 13c4 02       		.byte	0x2
 8139 13c5 64       		.byte	0x64
 8140 13c6 B8000000 		.4byte	0xb8
 8141 13ca 06       		.uleb128 0x6
 8142 13cb 14       		.byte	0x14
 8143 13cc 14       		.byte	0x14
 8144 13cd 34       		.byte	0x34
 8145 13ce 0E140000 		.4byte	0x140e
 8146 13d2 08       		.uleb128 0x8
 8147 13d3 72656C00 		.ascii	"rel\000"
 8148 13d7 14       		.byte	0x14
 8149 13d8 36       		.byte	0x36
 8150 13d9 0D070000 		.4byte	0x70d
 8151 13dd 00       		.byte	0
 8152 13de 08       		.uleb128 0x8
 8153 13df 707200   		.ascii	"pr\000"
 8154 13e2 14       		.byte	0x14
 8155 13e3 37       		.byte	0x37
 8156 13e4 0D070000 		.4byte	0x70d
 8157 13e8 04       		.byte	0x4
 8158 13e9 07       		.uleb128 0x7
 8159 13ea B40C0000 		.4byte	.LASF348
 8160 13ee 14       		.byte	0x14
 8161 13ef 38       		.byte	0x38
 8162 13f0 0D070000 		.4byte	0x70d
 8163 13f4 08       		.byte	0x8
 8164 13f5 07       		.uleb128 0x7
 8165 13f6 21040000 		.4byte	.LASF349
 8166 13fa 14       		.byte	0x14
 8167 13fb 39       		.byte	0x39
 8168 13fc 0D070000 		.4byte	0x70d
 8169 1400 0C       		.byte	0xc
 8170 1401 08       		.uleb128 0x8
 8171 1402 696E6100 		.ascii	"ina\000"
 8172 1406 14       		.byte	0x14
 8173 1407 3A       		.byte	0x3a
 8174 1408 0D070000 		.4byte	0x70d
 8175 140c 10       		.byte	0x10
 8176 140d 00       		.byte	0
 8177 140e 06       		.uleb128 0x6
 8178 140f 14       		.byte	0x14
 8179 1410 14       		.byte	0x14
 8180 1411 3F       		.byte	0x3f
 8181 1412 52140000 		.4byte	0x1452
 8182 1416 08       		.uleb128 0x8
 8183 1417 72656C00 		.ascii	"rel\000"
ARM GAS  C:\Users\tmj32\AppData\Local\Temp\ccFKuFvs.s 			page 175


 8184 141b 14       		.byte	0x14
 8185 141c 41       		.byte	0x41
 8186 141d 0D070000 		.4byte	0x70d
 8187 1421 00       		.byte	0
 8188 1422 08       		.uleb128 0x8
 8189 1423 707200   		.ascii	"pr\000"
 8190 1426 14       		.byte	0x14
 8191 1427 42       		.byte	0x42
 8192 1428 0D070000 		.4byte	0x70d
 8193 142c 04       		.byte	0x4
 8194 142d 07       		.uleb128 0x7
 8195 142e B40C0000 		.4byte	.LASF348
 8196 1432 14       		.byte	0x14
 8197 1433 43       		.byte	0x43
 8198 1434 0D070000 		.4byte	0x70d
 8199 1438 08       		.byte	0x8
 8200 1439 07       		.uleb128 0x7
 8201 143a 21040000 		.4byte	.LASF349
 8202 143e 14       		.byte	0x14
 8203 143f 44       		.byte	0x44
 8204 1440 0D070000 		.4byte	0x70d
 8205 1444 0C       		.byte	0xc
 8206 1445 08       		.uleb128 0x8
 8207 1446 696E6100 		.ascii	"ina\000"
 8208 144a 14       		.byte	0x14
 8209 144b 45       		.byte	0x45
 8210 144c 0D070000 		.4byte	0x70d
 8211 1450 10       		.byte	0x10
 8212 1451 00       		.byte	0
 8213 1452 06       		.uleb128 0x6
 8214 1453 0C       		.byte	0xc
 8215 1454 14       		.byte	0x14
 8216 1455 4A       		.byte	0x4a
 8217 1456 7F140000 		.4byte	0x147f
 8218 145a 07       		.uleb128 0x7
 8219 145b 75020000 		.4byte	.LASF350
 8220 145f 14       		.byte	0x14
 8221 1460 4C       		.byte	0x4c
 8222 1461 0D070000 		.4byte	0x70d
 8223 1465 00       		.byte	0
 8224 1466 08       		.uleb128 0x8
 8225 1467 73656300 		.ascii	"sec\000"
 8226 146b 14       		.byte	0x14
 8227 146c 4D       		.byte	0x4d
 8228 146d 0D070000 		.4byte	0x70d
 8229 1471 04       		.byte	0x4
 8230 1472 07       		.uleb128 0x7
 8231 1473 3F090000 		.4byte	.LASF351
 8232 1477 14       		.byte	0x14
 8233 1478 4E       		.byte	0x4e
 8234 1479 0D070000 		.4byte	0x70d
 8235 147d 08       		.byte	0x8
 8236 147e 00       		.byte	0
 8237 147f 06       		.uleb128 0x6
 8238 1480 08       		.byte	0x8
 8239 1481 14       		.byte	0x14
 8240 1482 53       		.byte	0x53
ARM GAS  C:\Users\tmj32\AppData\Local\Temp\ccFKuFvs.s 			page 176


 8241 1483 A0140000 		.4byte	0x14a0
 8242 1487 07       		.uleb128 0x7
 8243 1488 5A020000 		.4byte	.LASF352
 8244 148c 14       		.byte	0x14
 8245 148d 55       		.byte	0x55
 8246 148e 0D070000 		.4byte	0x70d
 8247 1492 00       		.byte	0
 8248 1493 07       		.uleb128 0x7
 8249 1494 F3150000 		.4byte	.LASF353
 8250 1498 14       		.byte	0x14
 8251 1499 56       		.byte	0x56
 8252 149a 0D070000 		.4byte	0x70d
 8253 149e 04       		.byte	0x4
 8254 149f 00       		.byte	0
 8255 14a0 06       		.uleb128 0x6
 8256 14a1 04       		.byte	0x4
 8257 14a2 14       		.byte	0x14
 8258 14a3 5B       		.byte	0x5b
 8259 14a4 B5140000 		.4byte	0x14b5
 8260 14a8 07       		.uleb128 0x7
 8261 14a9 E8110000 		.4byte	.LASF354
 8262 14ad 14       		.byte	0x14
 8263 14ae 5D       		.byte	0x5d
 8264 14af 0D070000 		.4byte	0x70d
 8265 14b3 00       		.byte	0
 8266 14b4 00       		.byte	0
 8267 14b5 06       		.uleb128 0x6
 8268 14b6 08       		.byte	0x8
 8269 14b7 14       		.byte	0x14
 8270 14b8 66       		.byte	0x66
 8271 14b9 D5140000 		.4byte	0x14d5
 8272 14bd 08       		.uleb128 0x8
 8273 14be 626700   		.ascii	"bg\000"
 8274 14c1 14       		.byte	0x14
 8275 14c2 68       		.byte	0x68
 8276 14c3 0D070000 		.4byte	0x70d
 8277 14c7 00       		.byte	0
 8278 14c8 07       		.uleb128 0x7
 8279 14c9 440B0000 		.4byte	.LASF355
 8280 14cd 14       		.byte	0x14
 8281 14ce 69       		.byte	0x69
 8282 14cf 0D070000 		.4byte	0x70d
 8283 14d3 04       		.byte	0x4
 8284 14d4 00       		.byte	0
 8285 14d5 06       		.uleb128 0x6
 8286 14d6 0C       		.byte	0xc
 8287 14d7 14       		.byte	0x14
 8288 14d8 6E       		.byte	0x6e
 8289 14d9 01150000 		.4byte	0x1501
 8290 14dd 08       		.uleb128 0x8
 8291 14de 626700   		.ascii	"bg\000"
 8292 14e1 14       		.byte	0x14
 8293 14e2 70       		.byte	0x70
 8294 14e3 0D070000 		.4byte	0x70d
 8295 14e7 00       		.byte	0
 8296 14e8 07       		.uleb128 0x7
 8297 14e9 440B0000 		.4byte	.LASF355
ARM GAS  C:\Users\tmj32\AppData\Local\Temp\ccFKuFvs.s 			page 177


 8298 14ed 14       		.byte	0x14
 8299 14ee 71       		.byte	0x71
 8300 14ef 0D070000 		.4byte	0x70d
 8301 14f3 04       		.byte	0x4
 8302 14f4 07       		.uleb128 0x7
 8303 14f5 43170000 		.4byte	.LASF356
 8304 14f9 14       		.byte	0x14
 8305 14fa 72       		.byte	0x72
 8306 14fb 0D070000 		.4byte	0x70d
 8307 14ff 08       		.byte	0x8
 8308 1500 00       		.byte	0
 8309 1501 06       		.uleb128 0x6
 8310 1502 10       		.byte	0x10
 8311 1503 14       		.byte	0x14
 8312 1504 87       		.byte	0x87
 8313 1505 39150000 		.4byte	0x1539
 8314 1509 08       		.uleb128 0x8
 8315 150a 626700   		.ascii	"bg\000"
 8316 150d 14       		.byte	0x14
 8317 150e 89       		.byte	0x89
 8318 150f 0D070000 		.4byte	0x70d
 8319 1513 00       		.byte	0
 8320 1514 07       		.uleb128 0x7
 8321 1515 440B0000 		.4byte	.LASF355
 8322 1519 14       		.byte	0x14
 8323 151a 8A       		.byte	0x8a
 8324 151b 0D070000 		.4byte	0x70d
 8325 151f 04       		.byte	0x4
 8326 1520 07       		.uleb128 0x7
 8327 1521 950D0000 		.4byte	.LASF357
 8328 1525 14       		.byte	0x14
 8329 1526 8B       		.byte	0x8b
 8330 1527 0D070000 		.4byte	0x70d
 8331 152b 08       		.byte	0x8
 8332 152c 07       		.uleb128 0x7
 8333 152d E0040000 		.4byte	.LASF358
 8334 1531 14       		.byte	0x14
 8335 1532 8C       		.byte	0x8c
 8336 1533 0D070000 		.4byte	0x70d
 8337 1537 0C       		.byte	0xc
 8338 1538 00       		.byte	0
 8339 1539 06       		.uleb128 0x6
 8340 153a 20       		.byte	0x20
 8341 153b 14       		.byte	0x14
 8342 153c 95       		.byte	0x95
 8343 153d A1150000 		.4byte	0x15a1
 8344 1541 08       		.uleb128 0x8
 8345 1542 626700   		.ascii	"bg\000"
 8346 1545 14       		.byte	0x14
 8347 1546 97       		.byte	0x97
 8348 1547 0D070000 		.4byte	0x70d
 8349 154b 00       		.byte	0
 8350 154c 07       		.uleb128 0x7
 8351 154d 05050000 		.4byte	.LASF359
 8352 1551 14       		.byte	0x14
 8353 1552 98       		.byte	0x98
 8354 1553 0D070000 		.4byte	0x70d
ARM GAS  C:\Users\tmj32\AppData\Local\Temp\ccFKuFvs.s 			page 178


 8355 1557 04       		.byte	0x4
 8356 1558 07       		.uleb128 0x7
 8357 1559 2B000000 		.4byte	.LASF360
 8358 155d 14       		.byte	0x14
 8359 155e 99       		.byte	0x99
 8360 155f 0D070000 		.4byte	0x70d
 8361 1563 08       		.byte	0x8
 8362 1564 07       		.uleb128 0x7
 8363 1565 46140000 		.4byte	.LASF361
 8364 1569 14       		.byte	0x14
 8365 156a 9A       		.byte	0x9a
 8366 156b 0D070000 		.4byte	0x70d
 8367 156f 0C       		.byte	0xc
 8368 1570 07       		.uleb128 0x7
 8369 1571 A5010000 		.4byte	.LASF362
 8370 1575 14       		.byte	0x14
 8371 1576 9B       		.byte	0x9b
 8372 1577 0D070000 		.4byte	0x70d
 8373 157b 10       		.byte	0x10
 8374 157c 07       		.uleb128 0x7
 8375 157d 6C100000 		.4byte	.LASF363
 8376 1581 14       		.byte	0x14
 8377 1582 9C       		.byte	0x9c
 8378 1583 0D070000 		.4byte	0x70d
 8379 1587 14       		.byte	0x14
 8380 1588 07       		.uleb128 0x7
 8381 1589 12060000 		.4byte	.LASF364
 8382 158d 14       		.byte	0x14
 8383 158e 9D       		.byte	0x9d
 8384 158f 0D070000 		.4byte	0x70d
 8385 1593 18       		.byte	0x18
 8386 1594 07       		.uleb128 0x7
 8387 1595 07040000 		.4byte	.LASF365
 8388 1599 14       		.byte	0x14
 8389 159a 9E       		.byte	0x9e
 8390 159b 0D070000 		.4byte	0x70d
 8391 159f 1C       		.byte	0x1c
 8392 15a0 00       		.byte	0
 8393 15a1 06       		.uleb128 0x6
 8394 15a2 14       		.byte	0x14
 8395 15a3 14       		.byte	0x14
 8396 15a4 A6       		.byte	0xa6
 8397 15a5 E5150000 		.4byte	0x15e5
 8398 15a9 08       		.uleb128 0x8
 8399 15aa 72656C00 		.ascii	"rel\000"
 8400 15ae 14       		.byte	0x14
 8401 15af A8       		.byte	0xa8
 8402 15b0 0D070000 		.4byte	0x70d
 8403 15b4 00       		.byte	0
 8404 15b5 08       		.uleb128 0x8
 8405 15b6 707200   		.ascii	"pr\000"
 8406 15b9 14       		.byte	0x14
 8407 15ba A9       		.byte	0xa9
 8408 15bb 0D070000 		.4byte	0x70d
 8409 15bf 04       		.byte	0x4
 8410 15c0 07       		.uleb128 0x7
 8411 15c1 B40C0000 		.4byte	.LASF348
ARM GAS  C:\Users\tmj32\AppData\Local\Temp\ccFKuFvs.s 			page 179


 8412 15c5 14       		.byte	0x14
 8413 15c6 AA       		.byte	0xaa
 8414 15c7 0D070000 		.4byte	0x70d
 8415 15cb 08       		.byte	0x8
 8416 15cc 07       		.uleb128 0x7
 8417 15cd 21040000 		.4byte	.LASF349
 8418 15d1 14       		.byte	0x14
 8419 15d2 AB       		.byte	0xab
 8420 15d3 0D070000 		.4byte	0x70d
 8421 15d7 0C       		.byte	0xc
 8422 15d8 08       		.uleb128 0x8
 8423 15d9 696E6100 		.ascii	"ina\000"
 8424 15dd 14       		.byte	0x14
 8425 15de AC       		.byte	0xac
 8426 15df 0D070000 		.4byte	0x70d
 8427 15e3 10       		.byte	0x10
 8428 15e4 00       		.byte	0
 8429 15e5 06       		.uleb128 0x6
 8430 15e6 18       		.byte	0x18
 8431 15e7 14       		.byte	0x14
 8432 15e8 A3       		.byte	0xa3
 8433 15e9 05160000 		.4byte	0x1605
 8434 15ed 08       		.uleb128 0x8
 8435 15ee 626700   		.ascii	"bg\000"
 8436 15f1 14       		.byte	0x14
 8437 15f2 A5       		.byte	0xa5
 8438 15f3 0D070000 		.4byte	0x70d
 8439 15f7 00       		.byte	0
 8440 15f8 08       		.uleb128 0x8
 8441 15f9 626F7800 		.ascii	"box\000"
 8442 15fd 14       		.byte	0x14
 8443 15fe AD       		.byte	0xad
 8444 15ff A1150000 		.4byte	0x15a1
 8445 1603 04       		.byte	0x4
 8446 1604 00       		.byte	0
 8447 1605 06       		.uleb128 0x6
 8448 1606 14       		.byte	0x14
 8449 1607 14       		.byte	0x14
 8450 1608 B5       		.byte	0xb5
 8451 1609 49160000 		.4byte	0x1649
 8452 160d 08       		.uleb128 0x8
 8453 160e 72656C00 		.ascii	"rel\000"
 8454 1612 14       		.byte	0x14
 8455 1613 B7       		.byte	0xb7
 8456 1614 0D070000 		.4byte	0x70d
 8457 1618 00       		.byte	0
 8458 1619 08       		.uleb128 0x8
 8459 161a 707200   		.ascii	"pr\000"
 8460 161d 14       		.byte	0x14
 8461 161e B8       		.byte	0xb8
 8462 161f 0D070000 		.4byte	0x70d
 8463 1623 04       		.byte	0x4
 8464 1624 07       		.uleb128 0x7
 8465 1625 B40C0000 		.4byte	.LASF348
 8466 1629 14       		.byte	0x14
 8467 162a B9       		.byte	0xb9
 8468 162b 0D070000 		.4byte	0x70d
ARM GAS  C:\Users\tmj32\AppData\Local\Temp\ccFKuFvs.s 			page 180


 8469 162f 08       		.byte	0x8
 8470 1630 07       		.uleb128 0x7
 8471 1631 21040000 		.4byte	.LASF349
 8472 1635 14       		.byte	0x14
 8473 1636 BA       		.byte	0xba
 8474 1637 0D070000 		.4byte	0x70d
 8475 163b 0C       		.byte	0xc
 8476 163c 08       		.uleb128 0x8
 8477 163d 696E6100 		.ascii	"ina\000"
 8478 1641 14       		.byte	0x14
 8479 1642 BB       		.byte	0xbb
 8480 1643 0D070000 		.4byte	0x70d
 8481 1647 10       		.byte	0x10
 8482 1648 00       		.byte	0
 8483 1649 06       		.uleb128 0x6
 8484 164a 18       		.byte	0x18
 8485 164b 14       		.byte	0x14
 8486 164c B2       		.byte	0xb2
 8487 164d 69160000 		.4byte	0x1669
 8488 1651 08       		.uleb128 0x8
 8489 1652 626700   		.ascii	"bg\000"
 8490 1655 14       		.byte	0x14
 8491 1656 B4       		.byte	0xb4
 8492 1657 0D070000 		.4byte	0x70d
 8493 165b 00       		.byte	0
 8494 165c 08       		.uleb128 0x8
 8495 165d 62746E00 		.ascii	"btn\000"
 8496 1661 14       		.byte	0x14
 8497 1662 BC       		.byte	0xbc
 8498 1663 05160000 		.4byte	0x1605
 8499 1667 04       		.byte	0x4
 8500 1668 00       		.byte	0
 8501 1669 06       		.uleb128 0x6
 8502 166a 14       		.byte	0x14
 8503 166b 14       		.byte	0x14
 8504 166c C4       		.byte	0xc4
 8505 166d AD160000 		.4byte	0x16ad
 8506 1671 08       		.uleb128 0x8
 8507 1672 72656C00 		.ascii	"rel\000"
 8508 1676 14       		.byte	0x14
 8509 1677 C6       		.byte	0xc6
 8510 1678 0D070000 		.4byte	0x70d
 8511 167c 00       		.byte	0
 8512 167d 08       		.uleb128 0x8
 8513 167e 707200   		.ascii	"pr\000"
 8514 1681 14       		.byte	0x14
 8515 1682 C7       		.byte	0xc7
 8516 1683 0D070000 		.4byte	0x70d
 8517 1687 04       		.byte	0x4
 8518 1688 07       		.uleb128 0x7
 8519 1689 B40C0000 		.4byte	.LASF348
 8520 168d 14       		.byte	0x14
 8521 168e C8       		.byte	0xc8
 8522 168f 0D070000 		.4byte	0x70d
 8523 1693 08       		.byte	0x8
 8524 1694 07       		.uleb128 0x7
 8525 1695 21040000 		.4byte	.LASF349
ARM GAS  C:\Users\tmj32\AppData\Local\Temp\ccFKuFvs.s 			page 181


 8526 1699 14       		.byte	0x14
 8527 169a C9       		.byte	0xc9
 8528 169b 0D070000 		.4byte	0x70d
 8529 169f 0C       		.byte	0xc
 8530 16a0 08       		.uleb128 0x8
 8531 16a1 696E6100 		.ascii	"ina\000"
 8532 16a5 14       		.byte	0x14
 8533 16a6 CA       		.byte	0xca
 8534 16a7 0D070000 		.4byte	0x70d
 8535 16ab 10       		.byte	0x10
 8536 16ac 00       		.byte	0
 8537 16ad 06       		.uleb128 0x6
 8538 16ae 18       		.byte	0x18
 8539 16af 14       		.byte	0x14
 8540 16b0 C1       		.byte	0xc1
 8541 16b1 CD160000 		.4byte	0x16cd
 8542 16b5 08       		.uleb128 0x8
 8543 16b6 626700   		.ascii	"bg\000"
 8544 16b9 14       		.byte	0x14
 8545 16ba C3       		.byte	0xc3
 8546 16bb 0D070000 		.4byte	0x70d
 8547 16bf 00       		.byte	0
 8548 16c0 08       		.uleb128 0x8
 8549 16c1 62746E00 		.ascii	"btn\000"
 8550 16c5 14       		.byte	0x14
 8551 16c6 CB       		.byte	0xcb
 8552 16c7 69160000 		.4byte	0x1669
 8553 16cb 04       		.byte	0x4
 8554 16cc 00       		.byte	0
 8555 16cd 06       		.uleb128 0x6
 8556 16ce 0C       		.byte	0xc
 8557 16cf 14       		.byte	0x14
 8558 16d0 D3       		.byte	0xd3
 8559 16d1 F8160000 		.4byte	0x16f8
 8560 16d5 08       		.uleb128 0x8
 8561 16d6 626700   		.ascii	"bg\000"
 8562 16d9 14       		.byte	0x14
 8563 16da D5       		.byte	0xd5
 8564 16db 0D070000 		.4byte	0x70d
 8565 16df 00       		.byte	0
 8566 16e0 08       		.uleb128 0x8
 8567 16e1 72656C00 		.ascii	"rel\000"
 8568 16e5 14       		.byte	0x14
 8569 16e6 D6       		.byte	0xd6
 8570 16e7 0D070000 		.4byte	0x70d
 8571 16eb 04       		.byte	0x4
 8572 16ec 08       		.uleb128 0x8
 8573 16ed 707200   		.ascii	"pr\000"
 8574 16f0 14       		.byte	0x14
 8575 16f1 D7       		.byte	0xd7
 8576 16f2 0D070000 		.4byte	0x70d
 8577 16f6 08       		.byte	0x8
 8578 16f7 00       		.byte	0
 8579 16f8 06       		.uleb128 0x6
 8580 16f9 10       		.byte	0x10
 8581 16fa 14       		.byte	0x14
 8582 16fb D0       		.byte	0xd0
ARM GAS  C:\Users\tmj32\AppData\Local\Temp\ccFKuFvs.s 			page 182


 8583 16fc 18170000 		.4byte	0x1718
 8584 1700 08       		.uleb128 0x8
 8585 1701 626700   		.ascii	"bg\000"
 8586 1704 14       		.byte	0x14
 8587 1705 D2       		.byte	0xd2
 8588 1706 0D070000 		.4byte	0x70d
 8589 170a 00       		.byte	0
 8590 170b 08       		.uleb128 0x8
 8591 170c 62746E00 		.ascii	"btn\000"
 8592 1710 14       		.byte	0x14
 8593 1711 D8       		.byte	0xd8
 8594 1712 CD160000 		.4byte	0x16cd
 8595 1716 04       		.byte	0x4
 8596 1717 00       		.byte	0
 8597 1718 06       		.uleb128 0x6
 8598 1719 0C       		.byte	0xc
 8599 171a 14       		.byte	0x14
 8600 171b DD       		.byte	0xdd
 8601 171c 43170000 		.4byte	0x1743
 8602 1720 08       		.uleb128 0x8
 8603 1721 626700   		.ascii	"bg\000"
 8604 1724 14       		.byte	0x14
 8605 1725 DF       		.byte	0xdf
 8606 1726 0D070000 		.4byte	0x70d
 8607 172a 00       		.byte	0
 8608 172b 07       		.uleb128 0x7
 8609 172c 4D040000 		.4byte	.LASF337
 8610 1730 14       		.byte	0x14
 8611 1731 E0       		.byte	0xe0
 8612 1732 0D070000 		.4byte	0x70d
 8613 1736 04       		.byte	0x4
 8614 1737 08       		.uleb128 0x8
 8615 1738 736200   		.ascii	"sb\000"
 8616 173b 14       		.byte	0x14
 8617 173c E1       		.byte	0xe1
 8618 173d 0D070000 		.4byte	0x70d
 8619 1741 08       		.byte	0x8
 8620 1742 00       		.byte	0
 8621 1743 06       		.uleb128 0x6
 8622 1744 10       		.byte	0x10
 8623 1745 14       		.byte	0x14
 8624 1746 E6       		.byte	0xe6
 8625 1747 7B170000 		.4byte	0x177b
 8626 174b 07       		.uleb128 0x7
 8627 174c B3080000 		.4byte	.LASF132
 8628 1750 14       		.byte	0x14
 8629 1751 E8       		.byte	0xe8
 8630 1752 0D070000 		.4byte	0x70d
 8631 1756 00       		.byte	0
 8632 1757 07       		.uleb128 0x7
 8633 1758 230A0000 		.4byte	.LASF366
 8634 175c 14       		.byte	0x14
 8635 175d E9       		.byte	0xe9
 8636 175e 0D070000 		.4byte	0x70d
 8637 1762 04       		.byte	0x4
 8638 1763 07       		.uleb128 0x7
 8639 1764 AE170000 		.4byte	.LASF220
ARM GAS  C:\Users\tmj32\AppData\Local\Temp\ccFKuFvs.s 			page 183


 8640 1768 14       		.byte	0x14
 8641 1769 EA       		.byte	0xea
 8642 176a 0D070000 		.4byte	0x70d
 8643 176e 08       		.byte	0x8
 8644 176f 08       		.uleb128 0x8
 8645 1770 736200   		.ascii	"sb\000"
 8646 1773 14       		.byte	0x14
 8647 1774 EB       		.byte	0xeb
 8648 1775 0D070000 		.4byte	0x70d
 8649 1779 0C       		.byte	0xc
 8650 177a 00       		.byte	0
 8651 177b 06       		.uleb128 0x6
 8652 177c 0C       		.byte	0xc
 8653 177d 14       		.byte	0x14
 8654 177e F0       		.byte	0xf0
 8655 177f A6170000 		.4byte	0x17a6
 8656 1783 08       		.uleb128 0x8
 8657 1784 626700   		.ascii	"bg\000"
 8658 1787 14       		.byte	0x14
 8659 1788 F2       		.byte	0xf2
 8660 1789 0D070000 		.4byte	0x70d
 8661 178d 00       		.byte	0
 8662 178e 07       		.uleb128 0x7
 8663 178f AE170000 		.4byte	.LASF220
 8664 1793 14       		.byte	0x14
 8665 1794 F3       		.byte	0xf3
 8666 1795 0D070000 		.4byte	0x70d
 8667 1799 04       		.byte	0x4
 8668 179a 08       		.uleb128 0x8
 8669 179b 736200   		.ascii	"sb\000"
 8670 179e 14       		.byte	0x14
 8671 179f F4       		.byte	0xf4
 8672 17a0 0D070000 		.4byte	0x70d
 8673 17a4 08       		.byte	0x8
 8674 17a5 00       		.byte	0
 8675 17a6 06       		.uleb128 0x6
 8676 17a7 14       		.byte	0x14
 8677 17a8 14       		.byte	0x14
 8678 17a9 FE       		.byte	0xfe
 8679 17aa EF170000 		.4byte	0x17ef
 8680 17ae 1E       		.uleb128 0x1e
 8681 17af 72656C00 		.ascii	"rel\000"
 8682 17b3 14       		.byte	0x14
 8683 17b4 0001     		.2byte	0x100
 8684 17b6 0D070000 		.4byte	0x70d
 8685 17ba 00       		.byte	0
 8686 17bb 1E       		.uleb128 0x1e
 8687 17bc 707200   		.ascii	"pr\000"
 8688 17bf 14       		.byte	0x14
 8689 17c0 0101     		.2byte	0x101
 8690 17c2 0D070000 		.4byte	0x70d
 8691 17c6 04       		.byte	0x4
 8692 17c7 1F       		.uleb128 0x1f
 8693 17c8 B40C0000 		.4byte	.LASF348
 8694 17cc 14       		.byte	0x14
 8695 17cd 0201     		.2byte	0x102
 8696 17cf 0D070000 		.4byte	0x70d
ARM GAS  C:\Users\tmj32\AppData\Local\Temp\ccFKuFvs.s 			page 184


 8697 17d3 08       		.byte	0x8
 8698 17d4 1F       		.uleb128 0x1f
 8699 17d5 21040000 		.4byte	.LASF349
 8700 17d9 14       		.byte	0x14
 8701 17da 0301     		.2byte	0x103
 8702 17dc 0D070000 		.4byte	0x70d
 8703 17e0 0C       		.byte	0xc
 8704 17e1 1E       		.uleb128 0x1e
 8705 17e2 696E6100 		.ascii	"ina\000"
 8706 17e6 14       		.byte	0x14
 8707 17e7 0401     		.2byte	0x104
 8708 17e9 0D070000 		.4byte	0x70d
 8709 17ed 10       		.byte	0x10
 8710 17ee 00       		.byte	0
 8711 17ef 06       		.uleb128 0x6
 8712 17f0 20       		.byte	0x20
 8713 17f1 14       		.byte	0x14
 8714 17f2 F9       		.byte	0xf9
 8715 17f3 27180000 		.4byte	0x1827
 8716 17f7 08       		.uleb128 0x8
 8717 17f8 626700   		.ascii	"bg\000"
 8718 17fb 14       		.byte	0x14
 8719 17fc FB       		.byte	0xfb
 8720 17fd 0D070000 		.4byte	0x70d
 8721 1801 00       		.byte	0
 8722 1802 07       		.uleb128 0x7
 8723 1803 4D040000 		.4byte	.LASF337
 8724 1807 14       		.byte	0x14
 8725 1808 FC       		.byte	0xfc
 8726 1809 0D070000 		.4byte	0x70d
 8727 180d 04       		.byte	0x4
 8728 180e 08       		.uleb128 0x8
 8729 180f 736200   		.ascii	"sb\000"
 8730 1812 14       		.byte	0x14
 8731 1813 FD       		.byte	0xfd
 8732 1814 0D070000 		.4byte	0x70d
 8733 1818 08       		.byte	0x8
 8734 1819 1E       		.uleb128 0x1e
 8735 181a 62746E00 		.ascii	"btn\000"
 8736 181e 14       		.byte	0x14
 8737 181f 0501     		.2byte	0x105
 8738 1821 A6170000 		.4byte	0x17a6
 8739 1825 0C       		.byte	0xc
 8740 1826 00       		.byte	0
 8741 1827 20       		.uleb128 0x20
 8742 1828 0C       		.byte	0xc
 8743 1829 14       		.byte	0x14
 8744 182a 0A01     		.2byte	0x10a
 8745 182c 56180000 		.4byte	0x1856
 8746 1830 1E       		.uleb128 0x1e
 8747 1831 626700   		.ascii	"bg\000"
 8748 1834 14       		.byte	0x14
 8749 1835 0C01     		.2byte	0x10c
 8750 1837 0D070000 		.4byte	0x70d
 8751 183b 00       		.byte	0
 8752 183c 1E       		.uleb128 0x1e
 8753 183d 73656C00 		.ascii	"sel\000"
ARM GAS  C:\Users\tmj32\AppData\Local\Temp\ccFKuFvs.s 			page 185


 8754 1841 14       		.byte	0x14
 8755 1842 0D01     		.2byte	0x10d
 8756 1844 0D070000 		.4byte	0x70d
 8757 1848 04       		.byte	0x4
 8758 1849 1E       		.uleb128 0x1e
 8759 184a 736200   		.ascii	"sb\000"
 8760 184d 14       		.byte	0x14
 8761 184e 0E01     		.2byte	0x10e
 8762 1850 0D070000 		.4byte	0x70d
 8763 1854 08       		.byte	0x8
 8764 1855 00       		.byte	0
 8765 1856 20       		.uleb128 0x20
 8766 1857 08       		.byte	0x8
 8767 1858 14       		.byte	0x14
 8768 1859 1301     		.2byte	0x113
 8769 185b 79180000 		.4byte	0x1879
 8770 185f 1E       		.uleb128 0x1e
 8771 1860 626700   		.ascii	"bg\000"
 8772 1863 14       		.byte	0x14
 8773 1864 1501     		.2byte	0x115
 8774 1866 0D070000 		.4byte	0x70d
 8775 186a 00       		.byte	0
 8776 186b 1E       		.uleb128 0x1e
 8777 186c 73656C00 		.ascii	"sel\000"
 8778 1870 14       		.byte	0x14
 8779 1871 1601     		.2byte	0x116
 8780 1873 0D070000 		.4byte	0x70d
 8781 1877 04       		.byte	0x4
 8782 1878 00       		.byte	0
 8783 1879 20       		.uleb128 0x20
 8784 187a 14       		.byte	0x14
 8785 187b 14       		.byte	0x14
 8786 187c 1F01     		.2byte	0x11f
 8787 187e C2180000 		.4byte	0x18c2
 8788 1882 1E       		.uleb128 0x1e
 8789 1883 626700   		.ascii	"bg\000"
 8790 1886 14       		.byte	0x14
 8791 1887 2101     		.2byte	0x121
 8792 1889 0D070000 		.4byte	0x70d
 8793 188d 00       		.byte	0
 8794 188e 1E       		.uleb128 0x1e
 8795 188f 72656C00 		.ascii	"rel\000"
 8796 1893 14       		.byte	0x14
 8797 1894 2201     		.2byte	0x122
 8798 1896 0D070000 		.4byte	0x70d
 8799 189a 04       		.byte	0x4
 8800 189b 1E       		.uleb128 0x1e
 8801 189c 707200   		.ascii	"pr\000"
 8802 189f 14       		.byte	0x14
 8803 18a0 2301     		.2byte	0x123
 8804 18a2 0D070000 		.4byte	0x70d
 8805 18a6 08       		.byte	0x8
 8806 18a7 1F       		.uleb128 0x1f
 8807 18a8 B40C0000 		.4byte	.LASF348
 8808 18ac 14       		.byte	0x14
 8809 18ad 2401     		.2byte	0x124
 8810 18af 0D070000 		.4byte	0x70d
ARM GAS  C:\Users\tmj32\AppData\Local\Temp\ccFKuFvs.s 			page 186


 8811 18b3 0C       		.byte	0xc
 8812 18b4 1F       		.uleb128 0x1f
 8813 18b5 21040000 		.4byte	.LASF349
 8814 18b9 14       		.byte	0x14
 8815 18ba 2501     		.2byte	0x125
 8816 18bc 0D070000 		.4byte	0x70d
 8817 18c0 10       		.byte	0x10
 8818 18c1 00       		.byte	0
 8819 18c2 20       		.uleb128 0x20
 8820 18c3 1C       		.byte	0x1c
 8821 18c4 14       		.byte	0x14
 8822 18c5 1B01     		.2byte	0x11b
 8823 18c7 F2180000 		.4byte	0x18f2
 8824 18cb 1E       		.uleb128 0x1e
 8825 18cc 626700   		.ascii	"bg\000"
 8826 18cf 14       		.byte	0x14
 8827 18d0 1D01     		.2byte	0x11d
 8828 18d2 0D070000 		.4byte	0x70d
 8829 18d6 00       		.byte	0
 8830 18d7 1F       		.uleb128 0x1f
 8831 18d8 440B0000 		.4byte	.LASF355
 8832 18dc 14       		.byte	0x14
 8833 18dd 1E01     		.2byte	0x11e
 8834 18df 0D070000 		.4byte	0x70d
 8835 18e3 04       		.byte	0x4
 8836 18e4 1E       		.uleb128 0x1e
 8837 18e5 62746E00 		.ascii	"btn\000"
 8838 18e9 14       		.byte	0x14
 8839 18ea 2601     		.2byte	0x126
 8840 18ec 79180000 		.4byte	0x1879
 8841 18f0 08       		.byte	0x8
 8842 18f1 00       		.byte	0
 8843 18f2 20       		.uleb128 0x20
 8844 18f3 0C       		.byte	0xc
 8845 18f4 14       		.byte	0x14
 8846 18f5 2B01     		.2byte	0x12b
 8847 18f7 21190000 		.4byte	0x1921
 8848 18fb 1E       		.uleb128 0x1e
 8849 18fc 626700   		.ascii	"bg\000"
 8850 18ff 14       		.byte	0x14
 8851 1900 2D01     		.2byte	0x12d
 8852 1902 0D070000 		.4byte	0x70d
 8853 1906 00       		.byte	0
 8854 1907 1F       		.uleb128 0x1f
 8855 1908 4D040000 		.4byte	.LASF337
 8856 190c 14       		.byte	0x14
 8857 190d 2E01     		.2byte	0x12e
 8858 190f 0D070000 		.4byte	0x70d
 8859 1913 04       		.byte	0x4
 8860 1914 1E       		.uleb128 0x1e
 8861 1915 736200   		.ascii	"sb\000"
 8862 1918 14       		.byte	0x14
 8863 1919 2F01     		.2byte	0x12f
 8864 191b 0D070000 		.4byte	0x70d
 8865 191f 08       		.byte	0x8
 8866 1920 00       		.byte	0
 8867 1921 20       		.uleb128 0x20
ARM GAS  C:\Users\tmj32\AppData\Local\Temp\ccFKuFvs.s 			page 187


 8868 1922 08       		.byte	0x8
 8869 1923 14       		.byte	0x14
 8870 1924 3401     		.2byte	0x134
 8871 1926 44190000 		.4byte	0x1944
 8872 192a 1E       		.uleb128 0x1e
 8873 192b 626700   		.ascii	"bg\000"
 8874 192e 14       		.byte	0x14
 8875 192f 3601     		.2byte	0x136
 8876 1931 0D070000 		.4byte	0x70d
 8877 1935 00       		.byte	0
 8878 1936 1F       		.uleb128 0x1f
 8879 1937 64000000 		.4byte	.LASF367
 8880 193b 14       		.byte	0x14
 8881 193c 3701     		.2byte	0x137
 8882 193e 0D070000 		.4byte	0x70d
 8883 1942 04       		.byte	0x4
 8884 1943 00       		.byte	0
 8885 1944 20       		.uleb128 0x20
 8886 1945 08       		.byte	0x8
 8887 1946 14       		.byte	0x14
 8888 1947 4201     		.2byte	0x142
 8889 1949 67190000 		.4byte	0x1967
 8890 194d 1E       		.uleb128 0x1e
 8891 194e 72656C00 		.ascii	"rel\000"
 8892 1952 14       		.byte	0x14
 8893 1953 4401     		.2byte	0x144
 8894 1955 0D070000 		.4byte	0x70d
 8895 1959 00       		.byte	0
 8896 195a 1E       		.uleb128 0x1e
 8897 195b 707200   		.ascii	"pr\000"
 8898 195e 14       		.byte	0x14
 8899 195f 4501     		.2byte	0x145
 8900 1961 0D070000 		.4byte	0x70d
 8901 1965 04       		.byte	0x4
 8902 1966 00       		.byte	0
 8903 1967 20       		.uleb128 0x20
 8904 1968 18       		.byte	0x18
 8905 1969 14       		.byte	0x14
 8906 196a 3C01     		.2byte	0x13c
 8907 196c B0190000 		.4byte	0x19b0
 8908 1970 1E       		.uleb128 0x1e
 8909 1971 626700   		.ascii	"bg\000"
 8910 1974 14       		.byte	0x14
 8911 1975 3E01     		.2byte	0x13e
 8912 1977 0D070000 		.4byte	0x70d
 8913 197b 00       		.byte	0
 8914 197c 1E       		.uleb128 0x1e
 8915 197d 736200   		.ascii	"sb\000"
 8916 1980 14       		.byte	0x14
 8917 1981 3F01     		.2byte	0x13f
 8918 1983 0D070000 		.4byte	0x70d
 8919 1987 04       		.byte	0x4
 8920 1988 1F       		.uleb128 0x1f
 8921 1989 05050000 		.4byte	.LASF359
 8922 198d 14       		.byte	0x14
 8923 198e 4001     		.2byte	0x140
 8924 1990 0D070000 		.4byte	0x70d
ARM GAS  C:\Users\tmj32\AppData\Local\Temp\ccFKuFvs.s 			page 188


 8925 1994 08       		.byte	0x8
 8926 1995 1F       		.uleb128 0x1f
 8927 1996 58150000 		.4byte	.LASF368
 8928 199a 14       		.byte	0x14
 8929 199b 4101     		.2byte	0x141
 8930 199d 0D070000 		.4byte	0x70d
 8931 19a1 0C       		.byte	0xc
 8932 19a2 1E       		.uleb128 0x1e
 8933 19a3 62746E00 		.ascii	"btn\000"
 8934 19a7 14       		.byte	0x14
 8935 19a8 4601     		.2byte	0x146
 8936 19aa 44190000 		.4byte	0x1944
 8937 19ae 10       		.byte	0x10
 8938 19af 00       		.byte	0
 8939 19b0 21       		.uleb128 0x21
 8940 19b1 A801     		.2byte	0x1a8
 8941 19b3 14       		.byte	0x14
 8942 19b4 29       		.byte	0x29
 8943 19b5 521B0000 		.4byte	0x1b52
 8944 19b9 08       		.uleb128 0x8
 8945 19ba 73637200 		.ascii	"scr\000"
 8946 19be 14       		.byte	0x14
 8947 19bf 2B       		.byte	0x2b
 8948 19c0 0D070000 		.4byte	0x70d
 8949 19c4 00       		.byte	0
 8950 19c5 08       		.uleb128 0x8
 8951 19c6 626700   		.ascii	"bg\000"
 8952 19c9 14       		.byte	0x14
 8953 19ca 2C       		.byte	0x2c
 8954 19cb 0D070000 		.4byte	0x70d
 8955 19cf 04       		.byte	0x4
 8956 19d0 07       		.uleb128 0x7
 8957 19d1 19120000 		.4byte	.LASF369
 8958 19d5 14       		.byte	0x14
 8959 19d6 2D       		.byte	0x2d
 8960 19d7 0D070000 		.4byte	0x70d
 8961 19db 08       		.byte	0x8
 8962 19dc 07       		.uleb128 0x7
 8963 19dd 70020000 		.4byte	.LASF370
 8964 19e1 14       		.byte	0x14
 8965 19e2 30       		.byte	0x30
 8966 19e3 0D070000 		.4byte	0x70d
 8967 19e7 0C       		.byte	0xc
 8968 19e8 08       		.uleb128 0x8
 8969 19e9 62746E00 		.ascii	"btn\000"
 8970 19ed 14       		.byte	0x14
 8971 19ee 3B       		.byte	0x3b
 8972 19ef CA130000 		.4byte	0x13ca
 8973 19f3 10       		.byte	0x10
 8974 19f4 07       		.uleb128 0x7
 8975 19f5 F3110000 		.4byte	.LASF371
 8976 19f9 14       		.byte	0x14
 8977 19fa 46       		.byte	0x46
 8978 19fb 0E140000 		.4byte	0x140e
 8979 19ff 24       		.byte	0x24
 8980 1a00 07       		.uleb128 0x7
 8981 1a01 C9160000 		.4byte	.LASF372
ARM GAS  C:\Users\tmj32\AppData\Local\Temp\ccFKuFvs.s 			page 189


 8982 1a05 14       		.byte	0x14
 8983 1a06 4F       		.byte	0x4f
 8984 1a07 52140000 		.4byte	0x1452
 8985 1a0b 38       		.byte	0x38
 8986 1a0c 08       		.uleb128 0x8
 8987 1a0d 696D6700 		.ascii	"img\000"
 8988 1a11 14       		.byte	0x14
 8989 1a12 57       		.byte	0x57
 8990 1a13 7F140000 		.4byte	0x147f
 8991 1a17 44       		.byte	0x44
 8992 1a18 07       		.uleb128 0x7
 8993 1a19 5B090000 		.4byte	.LASF108
 8994 1a1d 14       		.byte	0x14
 8995 1a1e 5E       		.byte	0x5e
 8996 1a1f A0140000 		.4byte	0x14a0
 8997 1a23 4C       		.byte	0x4c
 8998 1a24 08       		.uleb128 0x8
 8999 1a25 6C656400 		.ascii	"led\000"
 9000 1a29 14       		.byte	0x14
 9001 1a2a 62       		.byte	0x62
 9002 1a2b 0D070000 		.4byte	0x70d
 9003 1a2f 50       		.byte	0x50
 9004 1a30 08       		.uleb128 0x8
 9005 1a31 62617200 		.ascii	"bar\000"
 9006 1a35 14       		.byte	0x14
 9007 1a36 6A       		.byte	0x6a
 9008 1a37 B5140000 		.4byte	0x14b5
 9009 1a3b 54       		.byte	0x54
 9010 1a3c 07       		.uleb128 0x7
 9011 1a3d 79090000 		.4byte	.LASF373
 9012 1a41 14       		.byte	0x14
 9013 1a42 73       		.byte	0x73
 9014 1a43 D5140000 		.4byte	0x14d5
 9015 1a47 5C       		.byte	0x5c
 9016 1a48 07       		.uleb128 0x7
 9017 1a49 3B010000 		.4byte	.LASF374
 9018 1a4d 14       		.byte	0x14
 9019 1a4e 77       		.byte	0x77
 9020 1a4f 0D070000 		.4byte	0x70d
 9021 1a53 68       		.byte	0x68
 9022 1a54 07       		.uleb128 0x7
 9023 1a55 9E0D0000 		.4byte	.LASF375
 9024 1a59 14       		.byte	0x14
 9025 1a5a 7B       		.byte	0x7b
 9026 1a5b 0D070000 		.4byte	0x70d
 9027 1a5f 6C       		.byte	0x6c
 9028 1a60 08       		.uleb128 0x8
 9029 1a61 61726300 		.ascii	"arc\000"
 9030 1a65 14       		.byte	0x14
 9031 1a66 7F       		.byte	0x7f
 9032 1a67 0D070000 		.4byte	0x70d
 9033 1a6b 70       		.byte	0x70
 9034 1a6c 07       		.uleb128 0x7
 9035 1a6d 2F170000 		.4byte	.LASF376
 9036 1a71 14       		.byte	0x14
 9037 1a72 83       		.byte	0x83
 9038 1a73 0D070000 		.4byte	0x70d
ARM GAS  C:\Users\tmj32\AppData\Local\Temp\ccFKuFvs.s 			page 190


 9039 1a77 74       		.byte	0x74
 9040 1a78 08       		.uleb128 0x8
 9041 1a79 737700   		.ascii	"sw\000"
 9042 1a7c 14       		.byte	0x14
 9043 1a7d 8D       		.byte	0x8d
 9044 1a7e 01150000 		.4byte	0x1501
 9045 1a82 78       		.byte	0x78
 9046 1a83 07       		.uleb128 0x7
 9047 1a84 9E030000 		.4byte	.LASF377
 9048 1a88 14       		.byte	0x14
 9049 1a89 91       		.byte	0x91
 9050 1a8a 0D070000 		.4byte	0x70d
 9051 1a8e 88       		.byte	0x88
 9052 1a8f 07       		.uleb128 0x7
 9053 1a90 830E0000 		.4byte	.LASF378
 9054 1a94 14       		.byte	0x14
 9055 1a95 9F       		.byte	0x9f
 9056 1a96 39150000 		.4byte	0x1539
 9057 1a9a 8C       		.byte	0x8c
 9058 1a9b 08       		.uleb128 0x8
 9059 1a9c 636200   		.ascii	"cb\000"
 9060 1a9f 14       		.byte	0x14
 9061 1aa0 AE       		.byte	0xae
 9062 1aa1 E5150000 		.4byte	0x15e5
 9063 1aa5 AC       		.byte	0xac
 9064 1aa6 07       		.uleb128 0x7
 9065 1aa7 B1030000 		.4byte	.LASF379
 9066 1aab 14       		.byte	0x14
 9067 1aac BD       		.byte	0xbd
 9068 1aad 49160000 		.4byte	0x1649
 9069 1ab1 C4       		.byte	0xc4
 9070 1ab2 08       		.uleb128 0x8
 9071 1ab3 6B6200   		.ascii	"kb\000"
 9072 1ab6 14       		.byte	0x14
 9073 1ab7 CC       		.byte	0xcc
 9074 1ab8 AD160000 		.4byte	0x16ad
 9075 1abc DC       		.byte	0xdc
 9076 1abd 07       		.uleb128 0x7
 9077 1abe A60C0000 		.4byte	.LASF380
 9078 1ac2 14       		.byte	0x14
 9079 1ac3 D9       		.byte	0xd9
 9080 1ac4 F8160000 		.4byte	0x16f8
 9081 1ac8 F4       		.byte	0xf4
 9082 1ac9 18       		.uleb128 0x18
 9083 1aca 880D0000 		.4byte	.LASF381
 9084 1ace 14       		.byte	0x14
 9085 1acf E2       		.byte	0xe2
 9086 1ad0 18170000 		.4byte	0x1718
 9087 1ad4 0401     		.2byte	0x104
 9088 1ad6 22       		.uleb128 0x22
 9089 1ad7 746100   		.ascii	"ta\000"
 9090 1ada 14       		.byte	0x14
 9091 1adb EC       		.byte	0xec
 9092 1adc 43170000 		.4byte	0x1743
 9093 1ae0 1001     		.2byte	0x110
 9094 1ae2 18       		.uleb128 0x18
 9095 1ae3 31140000 		.4byte	.LASF382
ARM GAS  C:\Users\tmj32\AppData\Local\Temp\ccFKuFvs.s 			page 191


 9096 1ae7 14       		.byte	0x14
 9097 1ae8 F5       		.byte	0xf5
 9098 1ae9 7B170000 		.4byte	0x177b
 9099 1aed 2001     		.2byte	0x120
 9100 1aef 23       		.uleb128 0x23
 9101 1af0 540D0000 		.4byte	.LASF383
 9102 1af4 14       		.byte	0x14
 9103 1af5 0601     		.2byte	0x106
 9104 1af7 EF170000 		.4byte	0x17ef
 9105 1afb 2C01     		.2byte	0x12c
 9106 1afd 23       		.uleb128 0x23
 9107 1afe D6060000 		.4byte	.LASF384
 9108 1b02 14       		.byte	0x14
 9109 1b03 0F01     		.2byte	0x10f
 9110 1b05 27180000 		.4byte	0x1827
 9111 1b09 4C01     		.2byte	0x14c
 9112 1b0b 23       		.uleb128 0x23
 9113 1b0c 01180000 		.4byte	.LASF385
 9114 1b10 14       		.byte	0x14
 9115 1b11 1701     		.2byte	0x117
 9116 1b13 56180000 		.4byte	0x1856
 9117 1b17 5801     		.2byte	0x158
 9118 1b19 23       		.uleb128 0x23
 9119 1b1a 8A0B0000 		.4byte	.LASF386
 9120 1b1e 14       		.byte	0x14
 9121 1b1f 2701     		.2byte	0x127
 9122 1b21 C2180000 		.4byte	0x18c2
 9123 1b25 6001     		.2byte	0x160
 9124 1b27 23       		.uleb128 0x23
 9125 1b28 1B030000 		.4byte	.LASF387
 9126 1b2c 14       		.byte	0x14
 9127 1b2d 3001     		.2byte	0x130
 9128 1b2f F2180000 		.4byte	0x18f2
 9129 1b33 7C01     		.2byte	0x17c
 9130 1b35 23       		.uleb128 0x23
 9131 1b36 28050000 		.4byte	.LASF388
 9132 1b3a 14       		.byte	0x14
 9133 1b3b 3801     		.2byte	0x138
 9134 1b3d 21190000 		.4byte	0x1921
 9135 1b41 8801     		.2byte	0x188
 9136 1b43 24       		.uleb128 0x24
 9137 1b44 77696E00 		.ascii	"win\000"
 9138 1b48 14       		.byte	0x14
 9139 1b49 4701     		.2byte	0x147
 9140 1b4b 67190000 		.4byte	0x1967
 9141 1b4f 9001     		.2byte	0x190
 9142 1b51 00       		.byte	0
 9143 1b52 21       		.uleb128 0x21
 9144 1b53 A801     		.2byte	0x1a8
 9145 1b55 14       		.byte	0x14
 9146 1b56 27       		.byte	0x27
 9147 1b57 691B0000 		.4byte	0x1b69
 9148 1b5b 1F       		.uleb128 0x1f
 9149 1b5c 470E0000 		.4byte	.LASF326
 9150 1b60 14       		.byte	0x14
 9151 1b61 4901     		.2byte	0x149
 9152 1b63 B0190000 		.4byte	0x19b0
ARM GAS  C:\Users\tmj32\AppData\Local\Temp\ccFKuFvs.s 			page 192


 9153 1b67 00       		.byte	0
 9154 1b68 00       		.byte	0
 9155 1b69 14       		.uleb128 0x14
 9156 1b6a FA070000 		.4byte	.LASF389
 9157 1b6e 14       		.byte	0x14
 9158 1b6f 5401     		.2byte	0x154
 9159 1b71 521B0000 		.4byte	0x1b52
 9160 1b75 25       		.uleb128 0x25
 9161 1b76 6F050000 		.4byte	.LASF473
 9162 1b7a 01       		.byte	0x1
 9163 1b7b 4C       		.byte	0x4c
 9164 1b7c 00000000 		.4byte	.LFB10
 9165 1b80 1C000000 		.4byte	.LFE10-.LFB10
 9166 1b84 01       		.uleb128 0x1
 9167 1b85 9C       		.byte	0x9c
 9168 1b86 A71B0000 		.4byte	0x1ba7
 9169 1b8a 26       		.uleb128 0x26
 9170 1b8b 34120000 		.4byte	.LASF390
 9171 1b8f 01       		.byte	0x1
 9172 1b90 4C       		.byte	0x4c
 9173 1b91 3B090000 		.4byte	0x93b
 9174 1b95 02       		.uleb128 0x2
 9175 1b96 91       		.byte	0x91
 9176 1b97 74       		.sleb128 -12
 9177 1b98 27       		.uleb128 0x27
 9178 1b99 73726300 		.ascii	"src\000"
 9179 1b9d 01       		.byte	0x1
 9180 1b9e 4C       		.byte	0x4c
 9181 1b9f 14090000 		.4byte	0x914
 9182 1ba3 02       		.uleb128 0x2
 9183 1ba4 91       		.byte	0x91
 9184 1ba5 70       		.sleb128 -16
 9185 1ba6 00       		.byte	0
 9186 1ba7 28       		.uleb128 0x28
 9187 1ba8 9C140000 		.4byte	.LASF392
 9188 1bac 01       		.byte	0x1
 9189 1bad 56       		.byte	0x56
 9190 1bae EF000000 		.4byte	0xef
 9191 1bb2 00000000 		.4byte	.LFB11
 9192 1bb6 2E000000 		.4byte	.LFE11-.LFB11
 9193 1bba 01       		.uleb128 0x1
 9194 1bbb 9C       		.byte	0x9c
 9195 1bbc CF1B0000 		.4byte	0x1bcf
 9196 1bc0 26       		.uleb128 0x26
 9197 1bc1 34030000 		.4byte	.LASF391
 9198 1bc5 01       		.byte	0x1
 9199 1bc6 56       		.byte	0x56
 9200 1bc7 14090000 		.4byte	0x914
 9201 1bcb 02       		.uleb128 0x2
 9202 1bcc 91       		.byte	0x91
 9203 1bcd 74       		.sleb128 -12
 9204 1bce 00       		.byte	0
 9205 1bcf 28       		.uleb128 0x28
 9206 1bd0 B0100000 		.4byte	.LASF393
 9207 1bd4 01       		.byte	0x1
 9208 1bd5 60       		.byte	0x60
 9209 1bd6 EF000000 		.4byte	0xef
ARM GAS  C:\Users\tmj32\AppData\Local\Temp\ccFKuFvs.s 			page 193


 9210 1bda 00000000 		.4byte	.LFB12
 9211 1bde 2E000000 		.4byte	.LFE12-.LFB12
 9212 1be2 01       		.uleb128 0x1
 9213 1be3 9C       		.byte	0x9c
 9214 1be4 F71B0000 		.4byte	0x1bf7
 9215 1be8 26       		.uleb128 0x26
 9216 1be9 34030000 		.4byte	.LASF391
 9217 1bed 01       		.byte	0x1
 9218 1bee 60       		.byte	0x60
 9219 1bef 14090000 		.4byte	0x914
 9220 1bf3 02       		.uleb128 0x2
 9221 1bf4 91       		.byte	0x91
 9222 1bf5 74       		.sleb128 -12
 9223 1bf6 00       		.byte	0
 9224 1bf7 29       		.uleb128 0x29
 9225 1bf8 80090000 		.4byte	.LASF394
 9226 1bfc 02       		.byte	0x2
 9227 1bfd 1E01     		.2byte	0x11e
 9228 1bff EF000000 		.4byte	0xef
 9229 1c03 00000000 		.4byte	.LFB41
 9230 1c07 20000000 		.4byte	.LFE41-.LFB41
 9231 1c0b 01       		.uleb128 0x1
 9232 1c0c 9C       		.byte	0x9c
 9233 1c0d 211C0000 		.4byte	0x1c21
 9234 1c11 2A       		.uleb128 0x2a
 9235 1c12 880D0000 		.4byte	.LASF381
 9236 1c16 02       		.byte	0x2
 9237 1c17 1E01     		.2byte	0x11e
 9238 1c19 211C0000 		.4byte	0x1c21
 9239 1c1d 02       		.uleb128 0x2
 9240 1c1e 91       		.byte	0x91
 9241 1c1f 74       		.sleb128 -12
 9242 1c20 00       		.byte	0
 9243 1c21 0D       		.uleb128 0xd
 9244 1c22 04       		.byte	0x4
 9245 1c23 271C0000 		.4byte	0x1c27
 9246 1c27 0E       		.uleb128 0xe
 9247 1c28 CA100000 		.4byte	0x10ca
 9248 1c2c 29       		.uleb128 0x29
 9249 1c2d 5F080000 		.4byte	.LASF395
 9250 1c31 02       		.byte	0x2
 9251 1c32 3C01     		.2byte	0x13c
 9252 1c34 37110000 		.4byte	0x1137
 9253 1c38 00000000 		.4byte	.LFB44
 9254 1c3c 20000000 		.4byte	.LFE44-.LFB44
 9255 1c40 01       		.uleb128 0x1
 9256 1c41 9C       		.byte	0x9c
 9257 1c42 561C0000 		.4byte	0x1c56
 9258 1c46 2A       		.uleb128 0x2a
 9259 1c47 880D0000 		.4byte	.LASF381
 9260 1c4b 02       		.byte	0x2
 9261 1c4c 3C01     		.2byte	0x13c
 9262 1c4e 211C0000 		.4byte	0x1c21
 9263 1c52 02       		.uleb128 0x2
 9264 1c53 91       		.byte	0x91
 9265 1c54 74       		.sleb128 -12
 9266 1c55 00       		.byte	0
ARM GAS  C:\Users\tmj32\AppData\Local\Temp\ccFKuFvs.s 			page 194


 9267 1c56 29       		.uleb128 0x29
 9268 1c57 E9140000 		.4byte	.LASF396
 9269 1c5b 02       		.byte	0x2
 9270 1c5c 4601     		.2byte	0x146
 9271 1c5e 37110000 		.4byte	0x1137
 9272 1c62 00000000 		.4byte	.LFB45
 9273 1c66 20000000 		.4byte	.LFE45-.LFB45
 9274 1c6a 01       		.uleb128 0x1
 9275 1c6b 9C       		.byte	0x9c
 9276 1c6c 801C0000 		.4byte	0x1c80
 9277 1c70 2A       		.uleb128 0x2a
 9278 1c71 880D0000 		.4byte	.LASF381
 9279 1c75 02       		.byte	0x2
 9280 1c76 4601     		.2byte	0x146
 9281 1c78 211C0000 		.4byte	0x1c21
 9282 1c7c 02       		.uleb128 0x2
 9283 1c7d 91       		.byte	0x91
 9284 1c7e 74       		.sleb128 -12
 9285 1c7f 00       		.byte	0
 9286 1c80 29       		.uleb128 0x29
 9287 1c81 8D0C0000 		.4byte	.LASF397
 9288 1c85 02       		.byte	0x2
 9289 1c86 5001     		.2byte	0x150
 9290 1c88 37110000 		.4byte	0x1137
 9291 1c8c 00000000 		.4byte	.LFB46
 9292 1c90 20000000 		.4byte	.LFE46-.LFB46
 9293 1c94 01       		.uleb128 0x1
 9294 1c95 9C       		.byte	0x9c
 9295 1c96 AA1C0000 		.4byte	0x1caa
 9296 1c9a 2A       		.uleb128 0x2a
 9297 1c9b 880D0000 		.4byte	.LASF381
 9298 1c9f 02       		.byte	0x2
 9299 1ca0 5001     		.2byte	0x150
 9300 1ca2 211C0000 		.4byte	0x1c21
 9301 1ca6 02       		.uleb128 0x2
 9302 1ca7 91       		.byte	0x91
 9303 1ca8 74       		.sleb128 -12
 9304 1ca9 00       		.byte	0
 9305 1caa 2B       		.uleb128 0x2b
 9306 1cab 270E0000 		.4byte	.LASF408
 9307 1caf 03       		.byte	0x3
 9308 1cb0 4D       		.byte	0x4d
 9309 1cb1 89130000 		.4byte	0x1389
 9310 1cb5 00000000 		.4byte	.LFB48
 9311 1cb9 D4020000 		.4byte	.LFE48-.LFB48
 9312 1cbd 01       		.uleb128 0x1
 9313 1cbe 9C       		.byte	0x9c
 9314 1cbf 2F1D0000 		.4byte	0x1d2f
 9315 1cc3 27       		.uleb128 0x27
 9316 1cc4 70617200 		.ascii	"par\000"
 9317 1cc8 03       		.byte	0x3
 9318 1cc9 4D       		.byte	0x4d
 9319 1cca 89130000 		.4byte	0x1389
 9320 1cce 02       		.uleb128 0x2
 9321 1ccf 91       		.byte	0x91
 9322 1cd0 64       		.sleb128 -28
 9323 1cd1 26       		.uleb128 0x26
ARM GAS  C:\Users\tmj32\AppData\Local\Temp\ccFKuFvs.s 			page 195


 9324 1cd2 2F030000 		.4byte	.LASF398
 9325 1cd6 03       		.byte	0x3
 9326 1cd7 4D       		.byte	0x4d
 9327 1cd8 211C0000 		.4byte	0x1c21
 9328 1cdc 02       		.uleb128 0x2
 9329 1cdd 91       		.byte	0x91
 9330 1cde 60       		.sleb128 -32
 9331 1cdf 2C       		.uleb128 0x2c
 9332 1ce0 C4150000 		.4byte	.LASF399
 9333 1ce4 03       		.byte	0x3
 9334 1ce5 52       		.byte	0x52
 9335 1ce6 89130000 		.4byte	0x1389
 9336 1cea 02       		.uleb128 0x2
 9337 1ceb 91       		.byte	0x91
 9338 1cec 74       		.sleb128 -12
 9339 1ced 2D       		.uleb128 0x2d
 9340 1cee 65787400 		.ascii	"ext\000"
 9341 1cf2 03       		.byte	0x3
 9342 1cf3 5A       		.byte	0x5a
 9343 1cf4 2F1D0000 		.4byte	0x1d2f
 9344 1cf8 02       		.uleb128 0x2
 9345 1cf9 91       		.byte	0x91
 9346 1cfa 70       		.sleb128 -16
 9347 1cfb 2E       		.uleb128 0x2e
 9348 1cfc 04010000 		.4byte	.LBB2
 9349 1d00 08010000 		.4byte	.LBE2-.LBB2
 9350 1d04 161D0000 		.4byte	0x1d16
 9351 1d08 2D       		.uleb128 0x2d
 9352 1d09 746800   		.ascii	"th\000"
 9353 1d0c 03       		.byte	0x3
 9354 1d0d 84       		.byte	0x84
 9355 1d0e 351D0000 		.4byte	0x1d35
 9356 1d12 02       		.uleb128 0x2
 9357 1d13 91       		.byte	0x91
 9358 1d14 6C       		.sleb128 -20
 9359 1d15 00       		.byte	0
 9360 1d16 2F       		.uleb128 0x2f
 9361 1d17 0C020000 		.4byte	.LBB3
 9362 1d1b 8A000000 		.4byte	.LBE3-.LBB3
 9363 1d1f 2C       		.uleb128 0x2c
 9364 1d20 39150000 		.4byte	.LASF400
 9365 1d24 03       		.byte	0x3
 9366 1d25 95       		.byte	0x95
 9367 1d26 2F1D0000 		.4byte	0x1d2f
 9368 1d2a 02       		.uleb128 0x2
 9369 1d2b 91       		.byte	0x91
 9370 1d2c 68       		.sleb128 -24
 9371 1d2d 00       		.byte	0
 9372 1d2e 00       		.byte	0
 9373 1d2f 0D       		.uleb128 0xd
 9374 1d30 04       		.byte	0x4
 9375 1d31 8F130000 		.4byte	0x138f
 9376 1d35 0D       		.uleb128 0xd
 9377 1d36 04       		.byte	0x4
 9378 1d37 691B0000 		.4byte	0x1b69
 9379 1d3b 30       		.uleb128 0x30
 9380 1d3c 1B0C0000 		.4byte	.LASF401
ARM GAS  C:\Users\tmj32\AppData\Local\Temp\ccFKuFvs.s 			page 196


 9381 1d40 03       		.byte	0x3
 9382 1d41 B3       		.byte	0xb3
 9383 1d42 00000000 		.4byte	.LFB49
 9384 1d46 1E000000 		.4byte	.LFE49-.LFB49
 9385 1d4a 01       		.uleb128 0x1
 9386 1d4b 9C       		.byte	0x9c
 9387 1d4c 6D1D0000 		.4byte	0x1d6d
 9388 1d50 26       		.uleb128 0x26
 9389 1d51 880D0000 		.4byte	.LASF381
 9390 1d55 03       		.byte	0x3
 9391 1d56 B3       		.byte	0xb3
 9392 1d57 89130000 		.4byte	0x1389
 9393 1d5b 02       		.uleb128 0x2
 9394 1d5c 91       		.byte	0x91
 9395 1d5d 6C       		.sleb128 -20
 9396 1d5e 2C       		.uleb128 0x2c
 9397 1d5f 4D040000 		.4byte	.LASF337
 9398 1d63 03       		.byte	0x3
 9399 1d64 B7       		.byte	0xb7
 9400 1d65 89130000 		.4byte	0x1389
 9401 1d69 02       		.uleb128 0x2
 9402 1d6a 91       		.byte	0x91
 9403 1d6b 74       		.sleb128 -12
 9404 1d6c 00       		.byte	0
 9405 1d6d 30       		.uleb128 0x30
 9406 1d6e 93170000 		.4byte	.LASF402
 9407 1d72 03       		.byte	0x3
 9408 1d73 C4       		.byte	0xc4
 9409 1d74 00000000 		.4byte	.LFB50
 9410 1d78 C0000000 		.4byte	.LFE50-.LFB50
 9411 1d7c 01       		.uleb128 0x1
 9412 1d7d 9C       		.byte	0x9c
 9413 1d7e AD1D0000 		.4byte	0x1dad
 9414 1d82 26       		.uleb128 0x26
 9415 1d83 880D0000 		.4byte	.LASF381
 9416 1d87 03       		.byte	0x3
 9417 1d88 C4       		.byte	0xc4
 9418 1d89 89130000 		.4byte	0x1389
 9419 1d8d 02       		.uleb128 0x2
 9420 1d8e 91       		.byte	0x91
 9421 1d8f 6C       		.sleb128 -20
 9422 1d90 26       		.uleb128 0x26
 9423 1d91 52030000 		.4byte	.LASF403
 9424 1d95 03       		.byte	0x3
 9425 1d96 C4       		.byte	0xc4
 9426 1d97 27120000 		.4byte	0x1227
 9427 1d9b 02       		.uleb128 0x2
 9428 1d9c 91       		.byte	0x91
 9429 1d9d 6B       		.sleb128 -21
 9430 1d9e 2D       		.uleb128 0x2d
 9431 1d9f 65787400 		.ascii	"ext\000"
 9432 1da3 03       		.byte	0x3
 9433 1da4 C8       		.byte	0xc8
 9434 1da5 2F1D0000 		.4byte	0x1d2f
 9435 1da9 02       		.uleb128 0x2
 9436 1daa 91       		.byte	0x91
 9437 1dab 74       		.sleb128 -12
ARM GAS  C:\Users\tmj32\AppData\Local\Temp\ccFKuFvs.s 			page 197


 9438 1dac 00       		.byte	0
 9439 1dad 30       		.uleb128 0x30
 9440 1dae 2F020000 		.4byte	.LASF404
 9441 1db2 03       		.byte	0x3
 9442 1db3 E0       		.byte	0xe0
 9443 1db4 00000000 		.4byte	.LFB51
 9444 1db8 22000000 		.4byte	.LFE51-.LFB51
 9445 1dbc 01       		.uleb128 0x1
 9446 1dbd 9C       		.byte	0x9c
 9447 1dbe ED1D0000 		.4byte	0x1ded
 9448 1dc2 26       		.uleb128 0x26
 9449 1dc3 880D0000 		.4byte	.LASF381
 9450 1dc7 03       		.byte	0x3
 9451 1dc8 E0       		.byte	0xe0
 9452 1dc9 89130000 		.4byte	0x1389
 9453 1dcd 02       		.uleb128 0x2
 9454 1dce 91       		.byte	0x91
 9455 1dcf 6C       		.sleb128 -20
 9456 1dd0 26       		.uleb128 0x26
 9457 1dd1 B0050000 		.4byte	.LASF339
 9458 1dd5 03       		.byte	0x3
 9459 1dd6 E0       		.byte	0xe0
 9460 1dd7 CE000000 		.4byte	0xce
 9461 1ddb 02       		.uleb128 0x2
 9462 1ddc 91       		.byte	0x91
 9463 1ddd 6A       		.sleb128 -22
 9464 1dde 2D       		.uleb128 0x2d
 9465 1ddf 65787400 		.ascii	"ext\000"
 9466 1de3 03       		.byte	0x3
 9467 1de4 E5       		.byte	0xe5
 9468 1de5 2F1D0000 		.4byte	0x1d2f
 9469 1de9 02       		.uleb128 0x2
 9470 1dea 91       		.byte	0x91
 9471 1deb 74       		.sleb128 -12
 9472 1dec 00       		.byte	0
 9473 1ded 30       		.uleb128 0x30
 9474 1dee B10B0000 		.4byte	.LASF405
 9475 1df2 03       		.byte	0x3
 9476 1df3 F3       		.byte	0xf3
 9477 1df4 00000000 		.4byte	.LFB52
 9478 1df8 32000000 		.4byte	.LFE52-.LFB52
 9479 1dfc 01       		.uleb128 0x1
 9480 1dfd 9C       		.byte	0x9c
 9481 1dfe 2C1E0000 		.4byte	0x1e2c
 9482 1e02 26       		.uleb128 0x26
 9483 1e03 880D0000 		.4byte	.LASF381
 9484 1e07 03       		.byte	0x3
 9485 1e08 F3       		.byte	0xf3
 9486 1e09 89130000 		.4byte	0x1389
 9487 1e0d 02       		.uleb128 0x2
 9488 1e0e 91       		.byte	0x91
 9489 1e0f 6C       		.sleb128 -20
 9490 1e10 27       		.uleb128 0x27
 9491 1e11 656E00   		.ascii	"en\000"
 9492 1e14 03       		.byte	0x3
 9493 1e15 F3       		.byte	0xf3
 9494 1e16 D5010000 		.4byte	0x1d5
ARM GAS  C:\Users\tmj32\AppData\Local\Temp\ccFKuFvs.s 			page 198


 9495 1e1a 02       		.uleb128 0x2
 9496 1e1b 91       		.byte	0x91
 9497 1e1c 6B       		.sleb128 -21
 9498 1e1d 2D       		.uleb128 0x2d
 9499 1e1e 65787400 		.ascii	"ext\000"
 9500 1e22 03       		.byte	0x3
 9501 1e23 F7       		.byte	0xf7
 9502 1e24 2F1D0000 		.4byte	0x1d2f
 9503 1e28 02       		.uleb128 0x2
 9504 1e29 91       		.byte	0x91
 9505 1e2a 74       		.sleb128 -12
 9506 1e2b 00       		.byte	0
 9507 1e2c 31       		.uleb128 0x31
 9508 1e2d 3B030000 		.4byte	.LASF406
 9509 1e31 03       		.byte	0x3
 9510 1e32 0001     		.2byte	0x100
 9511 1e34 00000000 		.4byte	.LFB53
 9512 1e38 32000000 		.4byte	.LFE53-.LFB53
 9513 1e3c 01       		.uleb128 0x1
 9514 1e3d 9C       		.byte	0x9c
 9515 1e3e 6F1E0000 		.4byte	0x1e6f
 9516 1e42 2A       		.uleb128 0x2a
 9517 1e43 880D0000 		.4byte	.LASF381
 9518 1e47 03       		.byte	0x3
 9519 1e48 0001     		.2byte	0x100
 9520 1e4a 89130000 		.4byte	0x1389
 9521 1e4e 02       		.uleb128 0x2
 9522 1e4f 91       		.byte	0x91
 9523 1e50 6C       		.sleb128 -20
 9524 1e51 32       		.uleb128 0x32
 9525 1e52 656E00   		.ascii	"en\000"
 9526 1e55 03       		.byte	0x3
 9527 1e56 0001     		.2byte	0x100
 9528 1e58 D5010000 		.4byte	0x1d5
 9529 1e5c 02       		.uleb128 0x2
 9530 1e5d 91       		.byte	0x91
 9531 1e5e 6B       		.sleb128 -21
 9532 1e5f 33       		.uleb128 0x33
 9533 1e60 65787400 		.ascii	"ext\000"
 9534 1e64 03       		.byte	0x3
 9535 1e65 0501     		.2byte	0x105
 9536 1e67 2F1D0000 		.4byte	0x1d2f
 9537 1e6b 02       		.uleb128 0x2
 9538 1e6c 91       		.byte	0x91
 9539 1e6d 74       		.sleb128 -12
 9540 1e6e 00       		.byte	0
 9541 1e6f 31       		.uleb128 0x31
 9542 1e70 F3060000 		.4byte	.LASF407
 9543 1e74 03       		.byte	0x3
 9544 1e75 1301     		.2byte	0x113
 9545 1e77 00000000 		.4byte	.LFB54
 9546 1e7b A2000000 		.4byte	.LFE54-.LFB54
 9547 1e7f 01       		.uleb128 0x1
 9548 1e80 9C       		.byte	0x9c
 9549 1e81 C21E0000 		.4byte	0x1ec2
 9550 1e85 2A       		.uleb128 0x2a
 9551 1e86 880D0000 		.4byte	.LASF381
ARM GAS  C:\Users\tmj32\AppData\Local\Temp\ccFKuFvs.s 			page 199


 9552 1e8a 03       		.byte	0x3
 9553 1e8b 1301     		.2byte	0x113
 9554 1e8d 89130000 		.4byte	0x1389
 9555 1e91 02       		.uleb128 0x2
 9556 1e92 91       		.byte	0x91
 9557 1e93 6C       		.sleb128 -20
 9558 1e94 2A       		.uleb128 0x2a
 9559 1e95 14020000 		.4byte	.LASF87
 9560 1e99 03       		.byte	0x3
 9561 1e9a 1301     		.2byte	0x113
 9562 1e9c BF130000 		.4byte	0x13bf
 9563 1ea0 02       		.uleb128 0x2
 9564 1ea1 91       		.byte	0x91
 9565 1ea2 6B       		.sleb128 -21
 9566 1ea3 2A       		.uleb128 0x2a
 9567 1ea4 470E0000 		.4byte	.LASF326
 9568 1ea8 03       		.byte	0x3
 9569 1ea9 1301     		.2byte	0x113
 9570 1eab BF100000 		.4byte	0x10bf
 9571 1eaf 02       		.uleb128 0x2
 9572 1eb0 91       		.byte	0x91
 9573 1eb1 64       		.sleb128 -28
 9574 1eb2 33       		.uleb128 0x33
 9575 1eb3 65787400 		.ascii	"ext\000"
 9576 1eb7 03       		.byte	0x3
 9577 1eb8 1701     		.2byte	0x117
 9578 1eba 2F1D0000 		.4byte	0x1d2f
 9579 1ebe 02       		.uleb128 0x2
 9580 1ebf 91       		.byte	0x91
 9581 1ec0 74       		.sleb128 -12
 9582 1ec1 00       		.byte	0
 9583 1ec2 34       		.uleb128 0x34
 9584 1ec3 4B160000 		.4byte	.LASF409
 9585 1ec7 03       		.byte	0x3
 9586 1ec8 3301     		.2byte	0x133
 9587 1eca 89130000 		.4byte	0x1389
 9588 1ece 00000000 		.4byte	.LFB55
 9589 1ed2 1C000000 		.4byte	.LFE55-.LFB55
 9590 1ed6 01       		.uleb128 0x1
 9591 1ed7 9C       		.byte	0x9c
 9592 1ed8 FB1E0000 		.4byte	0x1efb
 9593 1edc 2A       		.uleb128 0x2a
 9594 1edd 880D0000 		.4byte	.LASF381
 9595 1ee1 03       		.byte	0x3
 9596 1ee2 3301     		.2byte	0x133
 9597 1ee4 211C0000 		.4byte	0x1c21
 9598 1ee8 02       		.uleb128 0x2
 9599 1ee9 91       		.byte	0x91
 9600 1eea 6C       		.sleb128 -20
 9601 1eeb 33       		.uleb128 0x33
 9602 1eec 65787400 		.ascii	"ext\000"
 9603 1ef0 03       		.byte	0x3
 9604 1ef1 3701     		.2byte	0x137
 9605 1ef3 2F1D0000 		.4byte	0x1d2f
 9606 1ef7 02       		.uleb128 0x2
 9607 1ef8 91       		.byte	0x91
 9608 1ef9 74       		.sleb128 -12
ARM GAS  C:\Users\tmj32\AppData\Local\Temp\ccFKuFvs.s 			page 200


 9609 1efa 00       		.byte	0
 9610 1efb 34       		.uleb128 0x34
 9611 1efc EE120000 		.4byte	.LASF410
 9612 1f00 03       		.byte	0x3
 9613 1f01 4101     		.2byte	0x141
 9614 1f03 CE000000 		.4byte	0xce
 9615 1f07 00000000 		.4byte	.LFB56
 9616 1f0b 1C000000 		.4byte	.LFE56-.LFB56
 9617 1f0f 01       		.uleb128 0x1
 9618 1f10 9C       		.byte	0x9c
 9619 1f11 341F0000 		.4byte	0x1f34
 9620 1f15 2A       		.uleb128 0x2a
 9621 1f16 880D0000 		.4byte	.LASF381
 9622 1f1a 03       		.byte	0x3
 9623 1f1b 4101     		.2byte	0x141
 9624 1f1d 211C0000 		.4byte	0x1c21
 9625 1f21 02       		.uleb128 0x2
 9626 1f22 91       		.byte	0x91
 9627 1f23 6C       		.sleb128 -20
 9628 1f24 33       		.uleb128 0x33
 9629 1f25 65787400 		.ascii	"ext\000"
 9630 1f29 03       		.byte	0x3
 9631 1f2a 4601     		.2byte	0x146
 9632 1f2c 2F1D0000 		.4byte	0x1d2f
 9633 1f30 02       		.uleb128 0x2
 9634 1f31 91       		.byte	0x91
 9635 1f32 74       		.sleb128 -12
 9636 1f33 00       		.byte	0
 9637 1f34 34       		.uleb128 0x34
 9638 1f35 990E0000 		.4byte	.LASF411
 9639 1f39 03       		.byte	0x3
 9640 1f3a 5301     		.2byte	0x153
 9641 1f3c 27120000 		.4byte	0x1227
 9642 1f40 00000000 		.4byte	.LFB57
 9643 1f44 22000000 		.4byte	.LFE57-.LFB57
 9644 1f48 01       		.uleb128 0x1
 9645 1f49 9C       		.byte	0x9c
 9646 1f4a 6D1F0000 		.4byte	0x1f6d
 9647 1f4e 2A       		.uleb128 0x2a
 9648 1f4f 880D0000 		.4byte	.LASF381
 9649 1f53 03       		.byte	0x3
 9650 1f54 5301     		.2byte	0x153
 9651 1f56 211C0000 		.4byte	0x1c21
 9652 1f5a 02       		.uleb128 0x2
 9653 1f5b 91       		.byte	0x91
 9654 1f5c 6C       		.sleb128 -20
 9655 1f5d 33       		.uleb128 0x33
 9656 1f5e 65787400 		.ascii	"ext\000"
 9657 1f62 03       		.byte	0x3
 9658 1f63 5701     		.2byte	0x157
 9659 1f65 2F1D0000 		.4byte	0x1d2f
 9660 1f69 02       		.uleb128 0x2
 9661 1f6a 91       		.byte	0x91
 9662 1f6b 74       		.sleb128 -12
 9663 1f6c 00       		.byte	0
 9664 1f6d 34       		.uleb128 0x34
 9665 1f6e CA050000 		.4byte	.LASF412
ARM GAS  C:\Users\tmj32\AppData\Local\Temp\ccFKuFvs.s 			page 201


 9666 1f72 03       		.byte	0x3
 9667 1f73 6001     		.2byte	0x160
 9668 1f75 D5010000 		.4byte	0x1d5
 9669 1f79 00000000 		.4byte	.LFB58
 9670 1f7d 2E000000 		.4byte	.LFE58-.LFB58
 9671 1f81 01       		.uleb128 0x1
 9672 1f82 9C       		.byte	0x9c
 9673 1f83 A61F0000 		.4byte	0x1fa6
 9674 1f87 2A       		.uleb128 0x2a
 9675 1f88 880D0000 		.4byte	.LASF381
 9676 1f8c 03       		.byte	0x3
 9677 1f8d 6001     		.2byte	0x160
 9678 1f8f 89130000 		.4byte	0x1389
 9679 1f93 02       		.uleb128 0x2
 9680 1f94 91       		.byte	0x91
 9681 1f95 6C       		.sleb128 -20
 9682 1f96 33       		.uleb128 0x33
 9683 1f97 65787400 		.ascii	"ext\000"
 9684 1f9b 03       		.byte	0x3
 9685 1f9c 6401     		.2byte	0x164
 9686 1f9e 2F1D0000 		.4byte	0x1d2f
 9687 1fa2 02       		.uleb128 0x2
 9688 1fa3 91       		.byte	0x91
 9689 1fa4 74       		.sleb128 -12
 9690 1fa5 00       		.byte	0
 9691 1fa6 34       		.uleb128 0x34
 9692 1fa7 DA000000 		.4byte	.LASF413
 9693 1fab 03       		.byte	0x3
 9694 1fac 6D01     		.2byte	0x16d
 9695 1fae D5010000 		.4byte	0x1d5
 9696 1fb2 00000000 		.4byte	.LFB59
 9697 1fb6 2E000000 		.4byte	.LFE59-.LFB59
 9698 1fba 01       		.uleb128 0x1
 9699 1fbb 9C       		.byte	0x9c
 9700 1fbc DF1F0000 		.4byte	0x1fdf
 9701 1fc0 2A       		.uleb128 0x2a
 9702 1fc1 880D0000 		.4byte	.LASF381
 9703 1fc5 03       		.byte	0x3
 9704 1fc6 6D01     		.2byte	0x16d
 9705 1fc8 89130000 		.4byte	0x1389
 9706 1fcc 02       		.uleb128 0x2
 9707 1fcd 91       		.byte	0x91
 9708 1fce 6C       		.sleb128 -20
 9709 1fcf 33       		.uleb128 0x33
 9710 1fd0 65787400 		.ascii	"ext\000"
 9711 1fd4 03       		.byte	0x3
 9712 1fd5 7201     		.2byte	0x172
 9713 1fd7 2F1D0000 		.4byte	0x1d2f
 9714 1fdb 02       		.uleb128 0x2
 9715 1fdc 91       		.byte	0x91
 9716 1fdd 74       		.sleb128 -12
 9717 1fde 00       		.byte	0
 9718 1fdf 34       		.uleb128 0x34
 9719 1fe0 42150000 		.4byte	.LASF414
 9720 1fe4 03       		.byte	0x3
 9721 1fe5 7F01     		.2byte	0x17f
 9722 1fe7 EF000000 		.4byte	0xef
ARM GAS  C:\Users\tmj32\AppData\Local\Temp\ccFKuFvs.s 			page 202


 9723 1feb 00000000 		.4byte	.LFB60
 9724 1fef 60000000 		.4byte	.LFE60-.LFB60
 9725 1ff3 01       		.uleb128 0x1
 9726 1ff4 9C       		.byte	0x9c
 9727 1ff5 27200000 		.4byte	0x2027
 9728 1ff9 2A       		.uleb128 0x2a
 9729 1ffa 880D0000 		.4byte	.LASF381
 9730 1ffe 03       		.byte	0x3
 9731 1fff 7F01     		.2byte	0x17f
 9732 2001 89130000 		.4byte	0x1389
 9733 2005 02       		.uleb128 0x2
 9734 2006 91       		.byte	0x91
 9735 2007 6C       		.sleb128 -20
 9736 2008 35       		.uleb128 0x35
 9737 2009 6D0D0000 		.4byte	.LASF415
 9738 200d 03       		.byte	0x3
 9739 200e 8301     		.2byte	0x183
 9740 2010 BF100000 		.4byte	0x10bf
 9741 2014 02       		.uleb128 0x2
 9742 2015 91       		.byte	0x91
 9743 2016 74       		.sleb128 -12
 9744 2017 35       		.uleb128 0x35
 9745 2018 100C0000 		.4byte	.LASF416
 9746 201c 03       		.byte	0x3
 9747 201d 8401     		.2byte	0x184
 9748 201f BF100000 		.4byte	0x10bf
 9749 2023 02       		.uleb128 0x2
 9750 2024 91       		.byte	0x91
 9751 2025 70       		.sleb128 -16
 9752 2026 00       		.byte	0
 9753 2027 34       		.uleb128 0x34
 9754 2028 3E050000 		.4byte	.LASF417
 9755 202c 03       		.byte	0x3
 9756 202d 8F01     		.2byte	0x18f
 9757 202f EF000000 		.4byte	0xef
 9758 2033 00000000 		.4byte	.LFB61
 9759 2037 60000000 		.4byte	.LFE61-.LFB61
 9760 203b 01       		.uleb128 0x1
 9761 203c 9C       		.byte	0x9c
 9762 203d 6F200000 		.4byte	0x206f
 9763 2041 2A       		.uleb128 0x2a
 9764 2042 880D0000 		.4byte	.LASF381
 9765 2046 03       		.byte	0x3
 9766 2047 8F01     		.2byte	0x18f
 9767 2049 89130000 		.4byte	0x1389
 9768 204d 02       		.uleb128 0x2
 9769 204e 91       		.byte	0x91
 9770 204f 6C       		.sleb128 -20
 9771 2050 35       		.uleb128 0x35
 9772 2051 6D0D0000 		.4byte	.LASF415
 9773 2055 03       		.byte	0x3
 9774 2056 9301     		.2byte	0x193
 9775 2058 BF100000 		.4byte	0x10bf
 9776 205c 02       		.uleb128 0x2
 9777 205d 91       		.byte	0x91
 9778 205e 74       		.sleb128 -12
 9779 205f 35       		.uleb128 0x35
ARM GAS  C:\Users\tmj32\AppData\Local\Temp\ccFKuFvs.s 			page 203


 9780 2060 100C0000 		.4byte	.LASF416
 9781 2064 03       		.byte	0x3
 9782 2065 9401     		.2byte	0x194
 9783 2067 BF100000 		.4byte	0x10bf
 9784 206b 02       		.uleb128 0x2
 9785 206c 91       		.byte	0x91
 9786 206d 70       		.sleb128 -16
 9787 206e 00       		.byte	0
 9788 206f 34       		.uleb128 0x34
 9789 2070 960F0000 		.4byte	.LASF418
 9790 2074 03       		.byte	0x3
 9791 2075 A001     		.2byte	0x1a0
 9792 2077 BF100000 		.4byte	0x10bf
 9793 207b 00000000 		.4byte	.LFB62
 9794 207f 6C000000 		.4byte	.LFE62-.LFB62
 9795 2083 01       		.uleb128 0x1
 9796 2084 9C       		.byte	0x9c
 9797 2085 C6200000 		.4byte	0x20c6
 9798 2089 2A       		.uleb128 0x2a
 9799 208a 880D0000 		.4byte	.LASF381
 9800 208e 03       		.byte	0x3
 9801 208f A001     		.2byte	0x1a0
 9802 2091 211C0000 		.4byte	0x1c21
 9803 2095 02       		.uleb128 0x2
 9804 2096 91       		.byte	0x91
 9805 2097 6C       		.sleb128 -20
 9806 2098 2A       		.uleb128 0x2a
 9807 2099 14020000 		.4byte	.LASF87
 9808 209d 03       		.byte	0x3
 9809 209e A001     		.2byte	0x1a0
 9810 20a0 BF130000 		.4byte	0x13bf
 9811 20a4 02       		.uleb128 0x2
 9812 20a5 91       		.byte	0x91
 9813 20a6 6B       		.sleb128 -21
 9814 20a7 35       		.uleb128 0x35
 9815 20a8 470E0000 		.4byte	.LASF326
 9816 20ac 03       		.byte	0x3
 9817 20ad A401     		.2byte	0x1a4
 9818 20af BF100000 		.4byte	0x10bf
 9819 20b3 02       		.uleb128 0x2
 9820 20b4 91       		.byte	0x91
 9821 20b5 74       		.sleb128 -12
 9822 20b6 33       		.uleb128 0x33
 9823 20b7 65787400 		.ascii	"ext\000"
 9824 20bb 03       		.byte	0x3
 9825 20bc A501     		.2byte	0x1a5
 9826 20be 2F1D0000 		.4byte	0x1d2f
 9827 20c2 02       		.uleb128 0x2
 9828 20c3 91       		.byte	0x91
 9829 20c4 70       		.sleb128 -16
 9830 20c5 00       		.byte	0
 9831 20c6 34       		.uleb128 0x34
 9832 20c7 74060000 		.4byte	.LASF419
 9833 20cb 03       		.byte	0x3
 9834 20cc BE01     		.2byte	0x1be
 9835 20ce D5010000 		.4byte	0x1d5
 9836 20d2 00000000 		.4byte	.LFB63
ARM GAS  C:\Users\tmj32\AppData\Local\Temp\ccFKuFvs.s 			page 204


 9837 20d6 D6000000 		.4byte	.LFE63-.LFB63
 9838 20da 01       		.uleb128 0x1
 9839 20db 9C       		.byte	0x9c
 9840 20dc 3B210000 		.4byte	0x213b
 9841 20e0 2A       		.uleb128 0x2a
 9842 20e1 880D0000 		.4byte	.LASF381
 9843 20e5 03       		.byte	0x3
 9844 20e6 BE01     		.2byte	0x1be
 9845 20e8 89130000 		.4byte	0x1389
 9846 20ec 02       		.uleb128 0x2
 9847 20ed 91       		.byte	0x91
 9848 20ee 5C       		.sleb128 -36
 9849 20ef 2A       		.uleb128 0x2a
 9850 20f0 F80E0000 		.4byte	.LASF420
 9851 20f4 03       		.byte	0x3
 9852 20f5 BE01     		.2byte	0x1be
 9853 20f7 57120000 		.4byte	0x1257
 9854 20fb 02       		.uleb128 0x2
 9855 20fc 91       		.byte	0x91
 9856 20fd 5B       		.sleb128 -37
 9857 20fe 35       		.uleb128 0x35
 9858 20ff AD0E0000 		.4byte	.LASF421
 9859 2103 03       		.byte	0x3
 9860 2104 C001     		.2byte	0x1c0
 9861 2106 BF100000 		.4byte	0x10bf
 9862 210a 02       		.uleb128 0x2
 9863 210b 91       		.byte	0x91
 9864 210c 74       		.sleb128 -12
 9865 210d 35       		.uleb128 0x35
 9866 210e 4D040000 		.4byte	.LASF337
 9867 2112 03       		.byte	0x3
 9868 2113 C101     		.2byte	0x1c1
 9869 2115 89130000 		.4byte	0x1389
 9870 2119 02       		.uleb128 0x2
 9871 211a 91       		.byte	0x91
 9872 211b 70       		.sleb128 -16
 9873 211c 35       		.uleb128 0x35
 9874 211d 3C0F0000 		.4byte	.LASF422
 9875 2121 03       		.byte	0x3
 9876 2122 C201     		.2byte	0x1c2
 9877 2124 63030000 		.4byte	0x363
 9878 2128 02       		.uleb128 0x2
 9879 2129 91       		.byte	0x91
 9880 212a 68       		.sleb128 -24
 9881 212b 35       		.uleb128 0x35
 9882 212c CB090000 		.4byte	.LASF423
 9883 2130 03       		.byte	0x3
 9884 2131 C301     		.2byte	0x1c3
 9885 2133 63030000 		.4byte	0x363
 9886 2137 02       		.uleb128 0x2
 9887 2138 91       		.byte	0x91
 9888 2139 60       		.sleb128 -32
 9889 213a 00       		.byte	0
 9890 213b 31       		.uleb128 0x31
 9891 213c F10F0000 		.4byte	.LASF424
 9892 2140 03       		.byte	0x3
 9893 2141 D501     		.2byte	0x1d5
ARM GAS  C:\Users\tmj32\AppData\Local\Temp\ccFKuFvs.s 			page 205


 9894 2143 00000000 		.4byte	.LFB64
 9895 2147 28000000 		.4byte	.LFE64-.LFB64
 9896 214b 01       		.uleb128 0x1
 9897 214c 9C       		.byte	0x9c
 9898 214d 70210000 		.4byte	0x2170
 9899 2151 32       		.uleb128 0x32
 9900 2152 6F626A00 		.ascii	"obj\000"
 9901 2156 03       		.byte	0x3
 9902 2157 D501     		.2byte	0x1d5
 9903 2159 89130000 		.4byte	0x1389
 9904 215d 02       		.uleb128 0x2
 9905 215e 91       		.byte	0x91
 9906 215f 74       		.sleb128 -12
 9907 2160 2A       		.uleb128 0x2a
 9908 2161 EE110000 		.4byte	.LASF425
 9909 2165 03       		.byte	0x3
 9910 2166 D501     		.2byte	0x1d5
 9911 2168 D5010000 		.4byte	0x1d5
 9912 216c 02       		.uleb128 0x2
 9913 216d 91       		.byte	0x91
 9914 216e 73       		.sleb128 -13
 9915 216f 00       		.byte	0
 9916 2170 31       		.uleb128 0x31
 9917 2171 50140000 		.4byte	.LASF426
 9918 2175 03       		.byte	0x3
 9919 2176 E101     		.2byte	0x1e1
 9920 2178 00000000 		.4byte	.LFB65
 9921 217c A8030000 		.4byte	.LFE65-.LFB65
 9922 2180 01       		.uleb128 0x1
 9923 2181 9C       		.byte	0x9c
 9924 2182 B0220000 		.4byte	0x22b0
 9925 2186 2A       		.uleb128 0x2a
 9926 2187 880D0000 		.4byte	.LASF381
 9927 218b 03       		.byte	0x3
 9928 218c E101     		.2byte	0x1e1
 9929 218e 89130000 		.4byte	0x1389
 9930 2192 03       		.uleb128 0x3
 9931 2193 91       		.byte	0x91
 9932 2194 AC7F     		.sleb128 -84
 9933 2196 32       		.uleb128 0x32
 9934 2197 6F626A00 		.ascii	"obj\000"
 9935 219b 03       		.byte	0x3
 9936 219c E101     		.2byte	0x1e1
 9937 219e 211C0000 		.4byte	0x1c21
 9938 21a2 03       		.uleb128 0x3
 9939 21a3 91       		.byte	0x91
 9940 21a4 A87F     		.sleb128 -88
 9941 21a6 2A       		.uleb128 0x2a
 9942 21a7 92150000 		.4byte	.LASF427
 9943 21ab 03       		.byte	0x3
 9944 21ac E101     		.2byte	0x1e1
 9945 21ae 87030000 		.4byte	0x387
 9946 21b2 03       		.uleb128 0x3
 9947 21b3 91       		.byte	0x91
 9948 21b4 A77F     		.sleb128 -89
 9949 21b6 33       		.uleb128 0x33
 9950 21b7 65787400 		.ascii	"ext\000"
ARM GAS  C:\Users\tmj32\AppData\Local\Temp\ccFKuFvs.s 			page 206


 9951 21bb 03       		.byte	0x3
 9952 21bc E301     		.2byte	0x1e3
 9953 21be 2F1D0000 		.4byte	0x1d2f
 9954 21c2 02       		.uleb128 0x2
 9955 21c3 91       		.byte	0x91
 9956 21c4 70       		.sleb128 -16
 9957 21c5 35       		.uleb128 0x35
 9958 21c6 470E0000 		.4byte	.LASF326
 9959 21ca 03       		.byte	0x3
 9960 21cb EE01     		.2byte	0x1ee
 9961 21cd BF100000 		.4byte	0x10bf
 9962 21d1 02       		.uleb128 0x2
 9963 21d2 91       		.byte	0x91
 9964 21d3 6C       		.sleb128 -20
 9965 21d4 35       		.uleb128 0x35
 9966 21d5 E1090000 		.4byte	.LASF428
 9967 21d9 03       		.byte	0x3
 9968 21da EF01     		.2byte	0x1ef
 9969 21dc BF100000 		.4byte	0x10bf
 9970 21e0 02       		.uleb128 0x2
 9971 21e1 91       		.byte	0x91
 9972 21e2 68       		.sleb128 -24
 9973 21e3 35       		.uleb128 0x35
 9974 21e4 46070000 		.4byte	.LASF429
 9975 21e8 03       		.byte	0x3
 9976 21e9 F201     		.2byte	0x1f2
 9977 21eb EF000000 		.4byte	0xef
 9978 21ef 02       		.uleb128 0x2
 9979 21f0 91       		.byte	0x91
 9980 21f1 66       		.sleb128 -26
 9981 21f2 35       		.uleb128 0x35
 9982 21f3 AF070000 		.4byte	.LASF430
 9983 21f7 03       		.byte	0x3
 9984 21f8 F301     		.2byte	0x1f3
 9985 21fa EF000000 		.4byte	0xef
 9986 21fe 02       		.uleb128 0x2
 9987 21ff 91       		.byte	0x91
 9988 2200 64       		.sleb128 -28
 9989 2201 35       		.uleb128 0x35
 9990 2202 25010000 		.4byte	.LASF431
 9991 2206 03       		.byte	0x3
 9992 2207 F401     		.2byte	0x1f4
 9993 2209 EF000000 		.4byte	0xef
 9994 220d 02       		.uleb128 0x2
 9995 220e 91       		.byte	0x91
 9996 220f 76       		.sleb128 -10
 9997 2210 35       		.uleb128 0x35
 9998 2211 1C0A0000 		.4byte	.LASF432
 9999 2215 03       		.byte	0x3
 10000 2216 F501     		.2byte	0x1f5
 10001 2218 EF000000 		.4byte	0xef
 10002 221c 02       		.uleb128 0x2
 10003 221d 91       		.byte	0x91
 10004 221e 62       		.sleb128 -30
 10005 221f 35       		.uleb128 0x35
 10006 2220 8F050000 		.4byte	.LASF433
 10007 2224 03       		.byte	0x3
ARM GAS  C:\Users\tmj32\AppData\Local\Temp\ccFKuFvs.s 			page 207


 10008 2225 F701     		.2byte	0x1f7
 10009 2227 EF000000 		.4byte	0xef
 10010 222b 02       		.uleb128 0x2
 10011 222c 91       		.byte	0x91
 10012 222d 60       		.sleb128 -32
 10013 222e 35       		.uleb128 0x35
 10014 222f 4A090000 		.4byte	.LASF434
 10015 2233 03       		.byte	0x3
 10016 2234 F801     		.2byte	0x1f8
 10017 2236 EF000000 		.4byte	0xef
 10018 223a 02       		.uleb128 0x2
 10019 223b 91       		.byte	0x91
 10020 223c 5E       		.sleb128 -34
 10021 223d 35       		.uleb128 0x35
 10022 223e 04090000 		.4byte	.LASF435
 10023 2242 03       		.byte	0x3
 10024 2243 0902     		.2byte	0x209
 10025 2245 EF000000 		.4byte	0xef
 10026 2249 02       		.uleb128 0x2
 10027 224a 91       		.byte	0x91
 10028 224b 5C       		.sleb128 -36
 10029 224c 35       		.uleb128 0x35
 10030 224d FE080000 		.4byte	.LASF436
 10031 2251 03       		.byte	0x3
 10032 2252 0A02     		.2byte	0x20a
 10033 2254 EF000000 		.4byte	0xef
 10034 2258 02       		.uleb128 0x2
 10035 2259 91       		.byte	0x91
 10036 225a 5A       		.sleb128 -38
 10037 225b 35       		.uleb128 0x35
 10038 225c 0A010000 		.4byte	.LASF437
 10039 2260 03       		.byte	0x3
 10040 2261 0B02     		.2byte	0x20b
 10041 2263 EF000000 		.4byte	0xef
 10042 2267 02       		.uleb128 0x2
 10043 2268 91       		.byte	0x91
 10044 2269 74       		.sleb128 -12
 10045 226a 35       		.uleb128 0x35
 10046 226b 390A0000 		.4byte	.LASF438
 10047 226f 03       		.byte	0x3
 10048 2270 0C02     		.2byte	0x20c
 10049 2272 EF000000 		.4byte	0xef
 10050 2276 02       		.uleb128 0x2
 10051 2277 91       		.byte	0x91
 10052 2278 58       		.sleb128 -40
 10053 2279 35       		.uleb128 0x35
 10054 227a 30150000 		.4byte	.LASF439
 10055 227e 03       		.byte	0x3
 10056 227f 0E02     		.2byte	0x20e
 10057 2281 EF000000 		.4byte	0xef
 10058 2285 02       		.uleb128 0x2
 10059 2286 91       		.byte	0x91
 10060 2287 56       		.sleb128 -42
 10061 2288 35       		.uleb128 0x35
 10062 2289 D00B0000 		.4byte	.LASF440
 10063 228d 03       		.byte	0x3
 10064 228e 0F02     		.2byte	0x20f
ARM GAS  C:\Users\tmj32\AppData\Local\Temp\ccFKuFvs.s 			page 208


 10065 2290 EF000000 		.4byte	0xef
 10066 2294 02       		.uleb128 0x2
 10067 2295 91       		.byte	0x91
 10068 2296 54       		.sleb128 -44
 10069 2297 2F       		.uleb128 0x2f
 10070 2298 1A030000 		.4byte	.LBB4
 10071 229c 78000000 		.4byte	.LBE4-.LBB4
 10072 22a0 33       		.uleb128 0x33
 10073 22a1 6100     		.ascii	"a\000"
 10074 22a3 03       		.byte	0x3
 10075 22a4 2402     		.2byte	0x224
 10076 22a6 CC040000 		.4byte	0x4cc
 10077 22aa 03       		.uleb128 0x3
 10078 22ab 91       		.byte	0x91
 10079 22ac B07F     		.sleb128 -80
 10080 22ae 00       		.byte	0
 10081 22af 00       		.byte	0
 10082 22b0 31       		.uleb128 0x31
 10083 22b1 E0150000 		.4byte	.LASF441
 10084 22b5 03       		.byte	0x3
 10085 22b6 3E02     		.2byte	0x23e
 10086 22b8 00000000 		.4byte	.LFB66
 10087 22bc 7C000000 		.4byte	.LFE66-.LFB66
 10088 22c0 01       		.uleb128 0x1
 10089 22c1 9C       		.byte	0x9c
 10090 22c2 01230000 		.4byte	0x2301
 10091 22c6 2A       		.uleb128 0x2a
 10092 22c7 880D0000 		.4byte	.LASF381
 10093 22cb 03       		.byte	0x3
 10094 22cc 3E02     		.2byte	0x23e
 10095 22ce 89130000 		.4byte	0x1389
 10096 22d2 02       		.uleb128 0x2
 10097 22d3 91       		.byte	0x91
 10098 22d4 4C       		.sleb128 -52
 10099 22d5 2A       		.uleb128 0x2a
 10100 22d6 7F0C0000 		.4byte	.LASF442
 10101 22da 03       		.byte	0x3
 10102 22db 3E02     		.2byte	0x23e
 10103 22dd EF000000 		.4byte	0xef
 10104 22e1 02       		.uleb128 0x2
 10105 22e2 91       		.byte	0x91
 10106 22e3 4A       		.sleb128 -54
 10107 22e4 35       		.uleb128 0x35
 10108 22e5 4D040000 		.4byte	.LASF337
 10109 22e9 03       		.byte	0x3
 10110 22ea 4002     		.2byte	0x240
 10111 22ec 89130000 		.4byte	0x1389
 10112 22f0 02       		.uleb128 0x2
 10113 22f1 91       		.byte	0x91
 10114 22f2 74       		.sleb128 -12
 10115 22f3 33       		.uleb128 0x33
 10116 22f4 6100     		.ascii	"a\000"
 10117 22f6 03       		.byte	0x3
 10118 22f7 4302     		.2byte	0x243
 10119 22f9 CC040000 		.4byte	0x4cc
 10120 22fd 02       		.uleb128 0x2
 10121 22fe 91       		.byte	0x91
ARM GAS  C:\Users\tmj32\AppData\Local\Temp\ccFKuFvs.s 			page 209


 10122 22ff 50       		.sleb128 -48
 10123 2300 00       		.byte	0
 10124 2301 31       		.uleb128 0x31
 10125 2302 CD150000 		.4byte	.LASF443
 10126 2306 03       		.byte	0x3
 10127 2307 5B02     		.2byte	0x25b
 10128 2309 00000000 		.4byte	.LFB67
 10129 230d 7C000000 		.4byte	.LFE67-.LFB67
 10130 2311 01       		.uleb128 0x1
 10131 2312 9C       		.byte	0x9c
 10132 2313 52230000 		.4byte	0x2352
 10133 2317 2A       		.uleb128 0x2a
 10134 2318 880D0000 		.4byte	.LASF381
 10135 231c 03       		.byte	0x3
 10136 231d 5B02     		.2byte	0x25b
 10137 231f 89130000 		.4byte	0x1389
 10138 2323 02       		.uleb128 0x2
 10139 2324 91       		.byte	0x91
 10140 2325 4C       		.sleb128 -52
 10141 2326 2A       		.uleb128 0x2a
 10142 2327 7F0C0000 		.4byte	.LASF442
 10143 232b 03       		.byte	0x3
 10144 232c 5B02     		.2byte	0x25b
 10145 232e EF000000 		.4byte	0xef
 10146 2332 02       		.uleb128 0x2
 10147 2333 91       		.byte	0x91
 10148 2334 4A       		.sleb128 -54
 10149 2335 35       		.uleb128 0x35
 10150 2336 4D040000 		.4byte	.LASF337
 10151 233a 03       		.byte	0x3
 10152 233b 5D02     		.2byte	0x25d
 10153 233d 89130000 		.4byte	0x1389
 10154 2341 02       		.uleb128 0x2
 10155 2342 91       		.byte	0x91
 10156 2343 74       		.sleb128 -12
 10157 2344 33       		.uleb128 0x33
 10158 2345 6100     		.ascii	"a\000"
 10159 2347 03       		.byte	0x3
 10160 2348 6002     		.2byte	0x260
 10161 234a CC040000 		.4byte	0x4cc
 10162 234e 02       		.uleb128 0x2
 10163 234f 91       		.byte	0x91
 10164 2350 50       		.sleb128 -48
 10165 2351 00       		.byte	0
 10166 2352 31       		.uleb128 0x31
 10167 2353 70040000 		.4byte	.LASF444
 10168 2357 03       		.byte	0x3
 10169 2358 7802     		.2byte	0x278
 10170 235a 00000000 		.4byte	.LFB68
 10171 235e 84000000 		.4byte	.LFE68-.LFB68
 10172 2362 01       		.uleb128 0x1
 10173 2363 9C       		.byte	0x9c
 10174 2364 9E230000 		.4byte	0x239e
 10175 2368 2A       		.uleb128 0x2a
 10176 2369 880D0000 		.4byte	.LASF381
 10177 236d 03       		.byte	0x3
 10178 236e 7802     		.2byte	0x278
ARM GAS  C:\Users\tmj32\AppData\Local\Temp\ccFKuFvs.s 			page 210


 10179 2370 89130000 		.4byte	0x1389
 10180 2374 02       		.uleb128 0x2
 10181 2375 91       		.byte	0x91
 10182 2376 4C       		.sleb128 -52
 10183 2377 33       		.uleb128 0x33
 10184 2378 65787400 		.ascii	"ext\000"
 10185 237c 03       		.byte	0x3
 10186 237d 7B02     		.2byte	0x27b
 10187 237f 2F1D0000 		.4byte	0x1d2f
 10188 2383 02       		.uleb128 0x2
 10189 2384 91       		.byte	0x91
 10190 2385 74       		.sleb128 -12
 10191 2386 2F       		.uleb128 0x2f
 10192 2387 20000000 		.4byte	.LBB5
 10193 238b 4E000000 		.4byte	.LBE5-.LBB5
 10194 238f 33       		.uleb128 0x33
 10195 2390 6100     		.ascii	"a\000"
 10196 2392 03       		.byte	0x3
 10197 2393 7D02     		.2byte	0x27d
 10198 2395 CC040000 		.4byte	0x4cc
 10199 2399 02       		.uleb128 0x2
 10200 239a 91       		.byte	0x91
 10201 239b 50       		.sleb128 -48
 10202 239c 00       		.byte	0
 10203 239d 00       		.byte	0
 10204 239e 29       		.uleb128 0x29
 10205 239f F50B0000 		.4byte	.LASF445
 10206 23a3 03       		.byte	0x3
 10207 23a4 9F02     		.2byte	0x29f
 10208 23a6 D5010000 		.4byte	0x1d5
 10209 23aa 00000000 		.4byte	.LFB69
 10210 23ae EC040000 		.4byte	.LFE69-.LFB69
 10211 23b2 01       		.uleb128 0x1
 10212 23b3 9C       		.byte	0x9c
 10213 23b4 92240000 		.4byte	0x2492
 10214 23b8 2A       		.uleb128 0x2a
 10215 23b9 880D0000 		.4byte	.LASF381
 10216 23bd 03       		.byte	0x3
 10217 23be 9F02     		.2byte	0x29f
 10218 23c0 89130000 		.4byte	0x1389
 10219 23c4 03       		.uleb128 0x3
 10220 23c5 91       		.byte	0x91
 10221 23c6 AC7E     		.sleb128 -212
 10222 23c8 2A       		.uleb128 0x2a
 10223 23c9 850B0000 		.4byte	.LASF446
 10224 23cd 03       		.byte	0x3
 10225 23ce 9F02     		.2byte	0x29f
 10226 23d0 14090000 		.4byte	0x914
 10227 23d4 03       		.uleb128 0x3
 10228 23d5 91       		.byte	0x91
 10229 23d6 A87E     		.sleb128 -216
 10230 23d8 2A       		.uleb128 0x2a
 10231 23d9 D4130000 		.4byte	.LASF331
 10232 23dd 03       		.byte	0x3
 10233 23de 9F02     		.2byte	0x29f
 10234 23e0 9C0E0000 		.4byte	0xe9c
 10235 23e4 03       		.uleb128 0x3
ARM GAS  C:\Users\tmj32\AppData\Local\Temp\ccFKuFvs.s 			page 211


 10236 23e5 91       		.byte	0x91
 10237 23e6 A77E     		.sleb128 -217
 10238 23e8 35       		.uleb128 0x35
 10239 23e9 470E0000 		.4byte	.LASF326
 10240 23ed 03       		.byte	0x3
 10241 23ee A502     		.2byte	0x2a5
 10242 23f0 BF100000 		.4byte	0x10bf
 10243 23f4 02       		.uleb128 0x2
 10244 23f5 91       		.byte	0x91
 10245 23f6 6C       		.sleb128 -20
 10246 23f7 35       		.uleb128 0x35
 10247 23f8 100D0000 		.4byte	.LASF447
 10248 23fc 03       		.byte	0x3
 10249 23fd A602     		.2byte	0x2a6
 10250 23ff 02070000 		.4byte	0x702
 10251 2403 03       		.uleb128 0x3
 10252 2404 91       		.byte	0x91
 10253 2405 907F     		.sleb128 -112
 10254 2407 2F       		.uleb128 0x2f
 10255 2408 6E000000 		.4byte	.LBB6
 10256 240c 70040000 		.4byte	.LBE6-.LBB6
 10257 2410 33       		.uleb128 0x33
 10258 2411 65787400 		.ascii	"ext\000"
 10259 2415 03       		.byte	0x3
 10260 2416 B402     		.2byte	0x2b4
 10261 2418 2F1D0000 		.4byte	0x1d2f
 10262 241c 02       		.uleb128 0x2
 10263 241d 91       		.byte	0x91
 10264 241e 68       		.sleb128 -24
 10265 241f 35       		.uleb128 0x35
 10266 2420 2C120000 		.4byte	.LASF448
 10267 2424 03       		.byte	0x3
 10268 2425 B702     		.2byte	0x2b7
 10269 2427 63030000 		.4byte	0x363
 10270 242b 03       		.uleb128 0x3
 10271 242c 91       		.byte	0x91
 10272 242d 887F     		.sleb128 -120
 10273 242f 2F       		.uleb128 0x2f
 10274 2430 02020000 		.4byte	.LBB7
 10275 2434 DC020000 		.4byte	.LBE7-.LBB7
 10276 2438 35       		.uleb128 0x35
 10277 2439 390A0000 		.4byte	.LASF438
 10278 243d 03       		.byte	0x3
 10279 243e CE02     		.2byte	0x2ce
 10280 2440 EF000000 		.4byte	0xef
 10281 2444 02       		.uleb128 0x2
 10282 2445 91       		.byte	0x91
 10283 2446 66       		.sleb128 -26
 10284 2447 35       		.uleb128 0x35
 10285 2448 1C0A0000 		.4byte	.LASF432
 10286 244c 03       		.byte	0x3
 10287 244d CF02     		.2byte	0x2cf
 10288 244f EF000000 		.4byte	0xef
 10289 2453 02       		.uleb128 0x2
 10290 2454 91       		.byte	0x91
 10291 2455 64       		.sleb128 -28
 10292 2456 35       		.uleb128 0x35
ARM GAS  C:\Users\tmj32\AppData\Local\Temp\ccFKuFvs.s 			page 212


 10293 2457 F1050000 		.4byte	.LASF449
 10294 245b 03       		.byte	0x3
 10295 245c D102     		.2byte	0x2d1
 10296 245e 63030000 		.4byte	0x363
 10297 2462 03       		.uleb128 0x3
 10298 2463 91       		.byte	0x91
 10299 2464 807F     		.sleb128 -128
 10300 2466 2F       		.uleb128 0x2f
 10301 2467 86040000 		.4byte	.LBB8
 10302 246b 58000000 		.4byte	.LBE8-.LBB8
 10303 246f 35       		.uleb128 0x35
 10304 2470 B6010000 		.4byte	.LASF450
 10305 2474 03       		.byte	0x3
 10306 2475 EB02     		.2byte	0x2eb
 10307 2477 02070000 		.4byte	0x702
 10308 247b 03       		.uleb128 0x3
 10309 247c 91       		.byte	0x91
 10310 247d B07E     		.sleb128 -208
 10311 247f 33       		.uleb128 0x33
 10312 2480 6F706100 		.ascii	"opa\000"
 10313 2484 03       		.byte	0x3
 10314 2485 EE02     		.2byte	0x2ee
 10315 2487 E4000000 		.4byte	0xe4
 10316 248b 02       		.uleb128 0x2
 10317 248c 91       		.byte	0x91
 10318 248d 60       		.sleb128 -32
 10319 248e 00       		.byte	0
 10320 248f 00       		.byte	0
 10321 2490 00       		.byte	0
 10322 2491 00       		.byte	0
 10323 2492 29       		.uleb128 0x29
 10324 2493 520E0000 		.4byte	.LASF451
 10325 2497 03       		.byte	0x3
 10326 2498 0303     		.2byte	0x303
 10327 249a D5010000 		.4byte	0x1d5
 10328 249e 00000000 		.4byte	.LFB70
 10329 24a2 58000000 		.4byte	.LFE70-.LFB70
 10330 24a6 01       		.uleb128 0x1
 10331 24a7 9C       		.byte	0x9c
 10332 24a8 DA240000 		.4byte	0x24da
 10333 24ac 2A       		.uleb128 0x2a
 10334 24ad 4D040000 		.4byte	.LASF337
 10335 24b1 03       		.byte	0x3
 10336 24b2 0303     		.2byte	0x303
 10337 24b4 89130000 		.4byte	0x1389
 10338 24b8 02       		.uleb128 0x2
 10339 24b9 91       		.byte	0x91
 10340 24ba 74       		.sleb128 -12
 10341 24bb 2A       		.uleb128 0x2a
 10342 24bc 850B0000 		.4byte	.LASF446
 10343 24c0 03       		.byte	0x3
 10344 24c1 0303     		.2byte	0x303
 10345 24c3 14090000 		.4byte	0x914
 10346 24c7 02       		.uleb128 0x2
 10347 24c8 91       		.byte	0x91
 10348 24c9 70       		.sleb128 -16
 10349 24ca 2A       		.uleb128 0x2a
ARM GAS  C:\Users\tmj32\AppData\Local\Temp\ccFKuFvs.s 			page 213


 10350 24cb D4130000 		.4byte	.LASF331
 10351 24cf 03       		.byte	0x3
 10352 24d0 0303     		.2byte	0x303
 10353 24d2 9C0E0000 		.4byte	0xe9c
 10354 24d6 02       		.uleb128 0x2
 10355 24d7 91       		.byte	0x91
 10356 24d8 6F       		.sleb128 -17
 10357 24d9 00       		.byte	0
 10358 24da 29       		.uleb128 0x29
 10359 24db 04130000 		.4byte	.LASF452
 10360 24df 03       		.byte	0x3
 10361 24e0 3303     		.2byte	0x333
 10362 24e2 2C070000 		.4byte	0x72c
 10363 24e6 00000000 		.4byte	.LFB71
 10364 24ea 38040000 		.4byte	.LFE71-.LFB71
 10365 24ee 01       		.uleb128 0x1
 10366 24ef 9C       		.byte	0x9c
 10367 24f0 F6250000 		.4byte	0x25f6
 10368 24f4 2A       		.uleb128 0x2a
 10369 24f5 880D0000 		.4byte	.LASF381
 10370 24f9 03       		.byte	0x3
 10371 24fa 3303     		.2byte	0x333
 10372 24fc 89130000 		.4byte	0x1389
 10373 2500 02       		.uleb128 0x2
 10374 2501 91       		.byte	0x91
 10375 2502 44       		.sleb128 -60
 10376 2503 2A       		.uleb128 0x2a
 10377 2504 C2010000 		.4byte	.LASF453
 10378 2508 03       		.byte	0x3
 10379 2509 3303     		.2byte	0x333
 10380 250b 07100000 		.4byte	0x1007
 10381 250f 02       		.uleb128 0x2
 10382 2510 91       		.byte	0x91
 10383 2511 43       		.sleb128 -61
 10384 2512 2A       		.uleb128 0x2a
 10385 2513 44090000 		.4byte	.LASF454
 10386 2517 03       		.byte	0x3
 10387 2518 3303     		.2byte	0x333
 10388 251a FA000000 		.4byte	0xfa
 10389 251e 03       		.uleb128 0x3
 10390 251f 91       		.byte	0x91
 10391 2520 BC7F     		.sleb128 -68
 10392 2522 33       		.uleb128 0x33
 10393 2523 72657300 		.ascii	"res\000"
 10394 2527 03       		.byte	0x3
 10395 2528 3503     		.2byte	0x335
 10396 252a 2C070000 		.4byte	0x72c
 10397 252e 02       		.uleb128 0x2
 10398 252f 91       		.byte	0x91
 10399 2530 6B       		.sleb128 -21
 10400 2531 33       		.uleb128 0x33
 10401 2532 65787400 		.ascii	"ext\000"
 10402 2536 03       		.byte	0x3
 10403 2537 3C03     		.2byte	0x33c
 10404 2539 2F1D0000 		.4byte	0x1d2f
 10405 253d 02       		.uleb128 0x2
 10406 253e 91       		.byte	0x91
ARM GAS  C:\Users\tmj32\AppData\Local\Temp\ccFKuFvs.s 			page 214


 10407 253f 64       		.sleb128 -28
 10408 2540 35       		.uleb128 0x35
 10409 2541 51000000 		.4byte	.LASF455
 10410 2545 03       		.byte	0x3
 10411 2546 3D03     		.2byte	0x33d
 10412 2548 89130000 		.4byte	0x1389
 10413 254c 02       		.uleb128 0x2
 10414 254d 91       		.byte	0x91
 10415 254e 6C       		.sleb128 -20
 10416 254f 2E       		.uleb128 0x2e
 10417 2550 50000000 		.4byte	.LBB9
 10418 2554 AC010000 		.4byte	.LBE9-.LBB9
 10419 2558 C1250000 		.4byte	0x25c1
 10420 255c 35       		.uleb128 0x35
 10421 255d E60C0000 		.4byte	.LASF456
 10422 2561 03       		.byte	0x3
 10423 2562 4003     		.2byte	0x340
 10424 2564 BF100000 		.4byte	0x10bf
 10425 2568 02       		.uleb128 0x2
 10426 2569 91       		.byte	0x91
 10427 256a 60       		.sleb128 -32
 10428 256b 35       		.uleb128 0x35
 10429 256c E1090000 		.4byte	.LASF428
 10430 2570 03       		.byte	0x3
 10431 2571 4103     		.2byte	0x341
 10432 2573 BF100000 		.4byte	0x10bf
 10433 2577 02       		.uleb128 0x2
 10434 2578 91       		.byte	0x91
 10435 2579 5C       		.sleb128 -36
 10436 257a 35       		.uleb128 0x35
 10437 257b 640D0000 		.4byte	.LASF297
 10438 257f 03       		.byte	0x3
 10439 2580 4203     		.2byte	0x342
 10440 2582 37110000 		.4byte	0x1137
 10441 2586 02       		.uleb128 0x2
 10442 2587 91       		.byte	0x91
 10443 2588 5B       		.sleb128 -37
 10444 2589 35       		.uleb128 0x35
 10445 258a 84120000 		.4byte	.LASF298
 10446 258e 03       		.byte	0x3
 10447 258f 4303     		.2byte	0x343
 10448 2591 37110000 		.4byte	0x1137
 10449 2595 02       		.uleb128 0x2
 10450 2596 91       		.byte	0x91
 10451 2597 5A       		.sleb128 -38
 10452 2598 35       		.uleb128 0x35
 10453 2599 34040000 		.4byte	.LASF299
 10454 259d 03       		.byte	0x3
 10455 259e 4403     		.2byte	0x344
 10456 25a0 37110000 		.4byte	0x1137
 10457 25a4 02       		.uleb128 0x2
 10458 25a5 91       		.byte	0x91
 10459 25a6 59       		.sleb128 -39
 10460 25a7 2F       		.uleb128 0x2f
 10461 25a8 B6000000 		.4byte	.LBB10
 10462 25ac 30010000 		.4byte	.LBE10-.LBB10
 10463 25b0 33       		.uleb128 0x33
ARM GAS  C:\Users\tmj32\AppData\Local\Temp\ccFKuFvs.s 			page 215


 10464 25b1 746D7000 		.ascii	"tmp\000"
 10465 25b5 03       		.byte	0x3
 10466 25b6 4803     		.2byte	0x348
 10467 25b8 89130000 		.4byte	0x1389
 10468 25bc 02       		.uleb128 0x2
 10469 25bd 91       		.byte	0x91
 10470 25be 54       		.sleb128 -44
 10471 25bf 00       		.byte	0
 10472 25c0 00       		.byte	0
 10473 25c1 2E       		.uleb128 0x2e
 10474 25c2 24030000 		.4byte	.LBB11
 10475 25c6 F8000000 		.4byte	.LBE11-.LBB11
 10476 25ca DC250000 		.4byte	0x25dc
 10477 25ce 33       		.uleb128 0x33
 10478 25cf 6300     		.ascii	"c\000"
 10479 25d1 03       		.byte	0x3
 10480 25d2 7703     		.2byte	0x377
 10481 25d4 E4000000 		.4byte	0xe4
 10482 25d8 02       		.uleb128 0x2
 10483 25d9 91       		.byte	0x91
 10484 25da 50       		.sleb128 -48
 10485 25db 00       		.byte	0
 10486 25dc 2F       		.uleb128 0x2f
 10487 25dd 22040000 		.4byte	.LBB12
 10488 25e1 0A000000 		.4byte	.LBE12-.LBB12
 10489 25e5 35       		.uleb128 0x35
 10490 25e6 52090000 		.4byte	.LASF457
 10491 25ea 03       		.byte	0x3
 10492 25eb 8D03     		.2byte	0x38d
 10493 25ed F6250000 		.4byte	0x25f6
 10494 25f1 02       		.uleb128 0x2
 10495 25f2 91       		.byte	0x91
 10496 25f3 4C       		.sleb128 -52
 10497 25f4 00       		.byte	0
 10498 25f5 00       		.byte	0
 10499 25f6 0D       		.uleb128 0xd
 10500 25f7 04       		.byte	0x4
 10501 25f8 D5010000 		.4byte	0x1d5
 10502 25fc 29       		.uleb128 0x29
 10503 25fd CC0C0000 		.4byte	.LASF458
 10504 2601 03       		.byte	0x3
 10505 2602 9B03     		.2byte	0x39b
 10506 2604 2C070000 		.4byte	0x72c
 10507 2608 00000000 		.4byte	.LFB72
 10508 260c 4E070000 		.4byte	.LFE72-.LFB72
 10509 2610 01       		.uleb128 0x1
 10510 2611 9C       		.byte	0x9c
 10511 2612 7F270000 		.4byte	0x277f
 10512 2616 2A       		.uleb128 0x2a
 10513 2617 4D040000 		.4byte	.LASF337
 10514 261b 03       		.byte	0x3
 10515 261c 9B03     		.2byte	0x39b
 10516 261e 89130000 		.4byte	0x1389
 10517 2622 03       		.uleb128 0x3
 10518 2623 91       		.byte	0x91
 10519 2624 A47F     		.sleb128 -92
 10520 2626 2A       		.uleb128 0x2a
ARM GAS  C:\Users\tmj32\AppData\Local\Temp\ccFKuFvs.s 			page 216


 10521 2627 C2010000 		.4byte	.LASF453
 10522 262b 03       		.byte	0x3
 10523 262c 9B03     		.2byte	0x39b
 10524 262e 07100000 		.4byte	0x1007
 10525 2632 03       		.uleb128 0x3
 10526 2633 91       		.byte	0x91
 10527 2634 A37F     		.sleb128 -93
 10528 2636 2A       		.uleb128 0x2a
 10529 2637 44090000 		.4byte	.LASF454
 10530 263b 03       		.byte	0x3
 10531 263c 9B03     		.2byte	0x39b
 10532 263e FA000000 		.4byte	0xfa
 10533 2642 03       		.uleb128 0x3
 10534 2643 91       		.byte	0x91
 10535 2644 9C7F     		.sleb128 -100
 10536 2646 33       		.uleb128 0x33
 10537 2647 72657300 		.ascii	"res\000"
 10538 264b 03       		.byte	0x3
 10539 264c 9D03     		.2byte	0x39d
 10540 264e 2C070000 		.4byte	0x72c
 10541 2652 02       		.uleb128 0x2
 10542 2653 91       		.byte	0x91
 10543 2654 69       		.sleb128 -23
 10544 2655 35       		.uleb128 0x35
 10545 2656 880D0000 		.4byte	.LASF381
 10546 265a 03       		.byte	0x3
 10547 265b A403     		.2byte	0x3a4
 10548 265d 89130000 		.4byte	0x1389
 10549 2661 02       		.uleb128 0x2
 10550 2662 91       		.byte	0x91
 10551 2663 64       		.sleb128 -28
 10552 2664 35       		.uleb128 0x35
 10553 2665 AD0E0000 		.4byte	.LASF421
 10554 2669 03       		.byte	0x3
 10555 266a A503     		.2byte	0x3a5
 10556 266c BF100000 		.4byte	0x10bf
 10557 2670 02       		.uleb128 0x2
 10558 2671 91       		.byte	0x91
 10559 2672 60       		.sleb128 -32
 10560 2673 35       		.uleb128 0x35
 10561 2674 EC070000 		.4byte	.LASF459
 10562 2678 03       		.byte	0x3
 10563 2679 A603     		.2byte	0x3a6
 10564 267b 2F1D0000 		.4byte	0x1d2f
 10565 267f 02       		.uleb128 0x2
 10566 2680 91       		.byte	0x91
 10567 2681 5C       		.sleb128 -36
 10568 2682 2E       		.uleb128 0x2e
 10569 2683 60000000 		.4byte	.LBB13
 10570 2687 90050000 		.4byte	.LBE13-.LBB13
 10571 268b 64270000 		.4byte	0x2764
 10572 268f 35       		.uleb128 0x35
 10573 2690 57100000 		.4byte	.LASF460
 10574 2694 03       		.byte	0x3
 10575 2695 AB03     		.2byte	0x3ab
 10576 2697 EF000000 		.4byte	0xef
 10577 269b 02       		.uleb128 0x2
ARM GAS  C:\Users\tmj32\AppData\Local\Temp\ccFKuFvs.s 			page 217


 10578 269c 91       		.byte	0x91
 10579 269d 6E       		.sleb128 -18
 10580 269e 35       		.uleb128 0x35
 10581 269f 5D100000 		.4byte	.LASF461
 10582 26a3 03       		.byte	0x3
 10583 26a4 AC03     		.2byte	0x3ac
 10584 26a6 EF000000 		.4byte	0xef
 10585 26aa 02       		.uleb128 0x2
 10586 26ab 91       		.byte	0x91
 10587 26ac 6C       		.sleb128 -20
 10588 26ad 35       		.uleb128 0x35
 10589 26ae 14030000 		.4byte	.LASF462
 10590 26b2 03       		.byte	0x3
 10591 26b3 AD03     		.2byte	0x3ad
 10592 26b5 D5010000 		.4byte	0x1d5
 10593 26b9 02       		.uleb128 0x2
 10594 26ba 91       		.byte	0x91
 10595 26bb 6B       		.sleb128 -21
 10596 26bc 35       		.uleb128 0x35
 10597 26bd EE0B0000 		.4byte	.LASF463
 10598 26c1 03       		.byte	0x3
 10599 26c2 AE03     		.2byte	0x3ae
 10600 26c4 D5010000 		.4byte	0x1d5
 10601 26c8 02       		.uleb128 0x2
 10602 26c9 91       		.byte	0x91
 10603 26ca 6A       		.sleb128 -22
 10604 26cb 35       		.uleb128 0x35
 10605 26cc 3C0F0000 		.4byte	.LASF422
 10606 26d0 03       		.byte	0x3
 10607 26d1 AF03     		.2byte	0x3af
 10608 26d3 63030000 		.4byte	0x363
 10609 26d7 02       		.uleb128 0x2
 10610 26d8 91       		.byte	0x91
 10611 26d9 40       		.sleb128 -64
 10612 26da 35       		.uleb128 0x35
 10613 26db CB090000 		.4byte	.LASF423
 10614 26df 03       		.byte	0x3
 10615 26e0 B003     		.2byte	0x3b0
 10616 26e2 63030000 		.4byte	0x363
 10617 26e6 03       		.uleb128 0x3
 10618 26e7 91       		.byte	0x91
 10619 26e8 B87F     		.sleb128 -72
 10620 26ea 35       		.uleb128 0x35
 10621 26eb 45120000 		.4byte	.LASF464
 10622 26ef 03       		.byte	0x3
 10623 26f0 B403     		.2byte	0x3b4
 10624 26f2 3B090000 		.4byte	0x93b
 10625 26f6 02       		.uleb128 0x2
 10626 26f7 91       		.byte	0x91
 10627 26f8 58       		.sleb128 -40
 10628 26f9 35       		.uleb128 0x35
 10629 26fa EE080000 		.4byte	.LASF465
 10630 26fe 03       		.byte	0x3
 10631 26ff B503     		.2byte	0x3b5
 10632 2701 EF000000 		.4byte	0xef
 10633 2705 02       		.uleb128 0x2
 10634 2706 91       		.byte	0x91
ARM GAS  C:\Users\tmj32\AppData\Local\Temp\ccFKuFvs.s 			page 218


 10635 2707 56       		.sleb128 -42
 10636 2708 35       		.uleb128 0x35
 10637 2709 21050000 		.4byte	.LASF466
 10638 270d 03       		.byte	0x3
 10639 270e B603     		.2byte	0x3b6
 10640 2710 EF000000 		.4byte	0xef
 10641 2714 02       		.uleb128 0x2
 10642 2715 91       		.byte	0x91
 10643 2716 54       		.sleb128 -44
 10644 2717 35       		.uleb128 0x35
 10645 2718 C7080000 		.4byte	.LASF467
 10646 271c 03       		.byte	0x3
 10647 271d B703     		.2byte	0x3b7
 10648 271f EF000000 		.4byte	0xef
 10649 2723 02       		.uleb128 0x2
 10650 2724 91       		.byte	0x91
 10651 2725 52       		.sleb128 -46
 10652 2726 35       		.uleb128 0x35
 10653 2727 13130000 		.4byte	.LASF468
 10654 272b 03       		.byte	0x3
 10655 272c B803     		.2byte	0x3b8
 10656 272e EF000000 		.4byte	0xef
 10657 2732 02       		.uleb128 0x2
 10658 2733 91       		.byte	0x91
 10659 2734 50       		.sleb128 -48
 10660 2735 35       		.uleb128 0x35
 10661 2736 B5070000 		.4byte	.LASF469
 10662 273a 03       		.byte	0x3
 10663 273b B903     		.2byte	0x3b9
 10664 273d 89130000 		.4byte	0x1389
 10665 2741 02       		.uleb128 0x2
 10666 2742 91       		.byte	0x91
 10667 2743 4C       		.sleb128 -52
 10668 2744 35       		.uleb128 0x35
 10669 2745 21140000 		.4byte	.LASF470
 10670 2749 03       		.byte	0x3
 10671 274a BB03     		.2byte	0x3bb
 10672 274c 7F270000 		.4byte	0x277f
 10673 2750 02       		.uleb128 0x2
 10674 2751 91       		.byte	0x91
 10675 2752 48       		.sleb128 -56
 10676 2753 35       		.uleb128 0x35
 10677 2754 CE0D0000 		.4byte	.LASF471
 10678 2758 03       		.byte	0x3
 10679 2759 BC03     		.2byte	0x3bc
 10680 275b 23030000 		.4byte	0x323
 10681 275f 03       		.uleb128 0x3
 10682 2760 91       		.byte	0x91
 10683 2761 B47F     		.sleb128 -76
 10684 2763 00       		.byte	0
 10685 2764 2F       		.uleb128 0x2f
 10686 2765 18060000 		.4byte	.LBB14
 10687 2769 1E010000 		.4byte	.LBE14-.LBB14
 10688 276d 35       		.uleb128 0x35
 10689 276e 5E140000 		.4byte	.LASF472
 10690 2772 03       		.byte	0x3
 10691 2773 3504     		.2byte	0x435
ARM GAS  C:\Users\tmj32\AppData\Local\Temp\ccFKuFvs.s 			page 219


 10692 2775 63030000 		.4byte	0x363
 10693 2779 03       		.uleb128 0x3
 10694 277a 91       		.byte	0x91
 10695 277b AC7F     		.sleb128 -84
 10696 277d 00       		.byte	0
 10697 277e 00       		.byte	0
 10698 277f 0D       		.uleb128 0xd
 10699 2780 04       		.byte	0x4
 10700 2781 720E0000 		.4byte	0xe72
 10701 2785 36       		.uleb128 0x36
 10702 2786 E7160000 		.4byte	.LASF474
 10703 278a 03       		.byte	0x3
 10704 278b 5704     		.2byte	0x457
 10705 278d 00000000 		.4byte	.LFB73
 10706 2791 6E000000 		.4byte	.LFE73-.LFB73
 10707 2795 01       		.uleb128 0x1
 10708 2796 9C       		.byte	0x9c
 10709 2797 C9270000 		.4byte	0x27c9
 10710 279b 2A       		.uleb128 0x2a
 10711 279c 4D040000 		.4byte	.LASF337
 10712 27a0 03       		.byte	0x3
 10713 27a1 5704     		.2byte	0x457
 10714 27a3 89130000 		.4byte	0x1389
 10715 27a7 02       		.uleb128 0x2
 10716 27a8 91       		.byte	0x91
 10717 27a9 6C       		.sleb128 -20
 10718 27aa 2A       		.uleb128 0x2a
 10719 27ab 0A0C0000 		.4byte	.LASF475
 10720 27af 03       		.byte	0x3
 10721 27b0 5704     		.2byte	0x457
 10722 27b2 560F0000 		.4byte	0xf56
 10723 27b6 02       		.uleb128 0x2
 10724 27b7 91       		.byte	0x91
 10725 27b8 6B       		.sleb128 -21
 10726 27b9 35       		.uleb128 0x35
 10727 27ba 880D0000 		.4byte	.LASF381
 10728 27be 03       		.byte	0x3
 10729 27bf 5904     		.2byte	0x459
 10730 27c1 89130000 		.4byte	0x1389
 10731 27c5 02       		.uleb128 0x2
 10732 27c6 91       		.byte	0x91
 10733 27c7 74       		.sleb128 -12
 10734 27c8 00       		.byte	0
 10735 27c9 36       		.uleb128 0x36
 10736 27ca B6030000 		.4byte	.LASF476
 10737 27ce 03       		.byte	0x3
 10738 27cf 6904     		.2byte	0x469
 10739 27d1 00000000 		.4byte	.LFB74
 10740 27d5 F6050000 		.4byte	.LFE74-.LFB74
 10741 27d9 01       		.uleb128 0x1
 10742 27da 9C       		.byte	0x9c
 10743 27db 95280000 		.4byte	0x2895
 10744 27df 2A       		.uleb128 0x2a
 10745 27e0 880D0000 		.4byte	.LASF381
 10746 27e4 03       		.byte	0x3
 10747 27e5 6904     		.2byte	0x469
 10748 27e7 89130000 		.4byte	0x1389
ARM GAS  C:\Users\tmj32\AppData\Local\Temp\ccFKuFvs.s 			page 220


 10749 27eb 03       		.uleb128 0x3
 10750 27ec 91       		.byte	0x91
 10751 27ed BC7F     		.sleb128 -68
 10752 27ef 33       		.uleb128 0x33
 10753 27f0 65787400 		.ascii	"ext\000"
 10754 27f4 03       		.byte	0x3
 10755 27f5 6B04     		.2byte	0x46b
 10756 27f7 2F1D0000 		.4byte	0x1d2f
 10757 27fb 02       		.uleb128 0x2
 10758 27fc 91       		.byte	0x91
 10759 27fd 60       		.sleb128 -32
 10760 27fe 35       		.uleb128 0x35
 10761 27ff 470E0000 		.4byte	.LASF326
 10762 2803 03       		.byte	0x3
 10763 2804 6C04     		.2byte	0x46c
 10764 2806 BF100000 		.4byte	0x10bf
 10765 280a 02       		.uleb128 0x2
 10766 280b 91       		.byte	0x91
 10767 280c 5C       		.sleb128 -36
 10768 280d 35       		.uleb128 0x35
 10769 280e 4D040000 		.4byte	.LASF337
 10770 2812 03       		.byte	0x3
 10771 2813 6D04     		.2byte	0x46d
 10772 2815 89130000 		.4byte	0x1389
 10773 2819 02       		.uleb128 0x2
 10774 281a 91       		.byte	0x91
 10775 281b 58       		.sleb128 -40
 10776 281c 35       		.uleb128 0x35
 10777 281d 840C0000 		.4byte	.LASF477
 10778 2821 03       		.byte	0x3
 10779 2822 6E04     		.2byte	0x46e
 10780 2824 EF000000 		.4byte	0xef
 10781 2828 02       		.uleb128 0x2
 10782 2829 91       		.byte	0x91
 10783 282a 66       		.sleb128 -26
 10784 282b 35       		.uleb128 0x35
 10785 282c 95060000 		.4byte	.LASF478
 10786 2830 03       		.byte	0x3
 10787 2831 6F04     		.2byte	0x46f
 10788 2833 EF000000 		.4byte	0xef
 10789 2837 02       		.uleb128 0x2
 10790 2838 91       		.byte	0x91
 10791 2839 56       		.sleb128 -42
 10792 283a 35       		.uleb128 0x35
 10793 283b 84060000 		.4byte	.LASF479
 10794 283f 03       		.byte	0x3
 10795 2840 7004     		.2byte	0x470
 10796 2842 EF000000 		.4byte	0xef
 10797 2846 02       		.uleb128 0x2
 10798 2847 91       		.byte	0x91
 10799 2848 54       		.sleb128 -44
 10800 2849 35       		.uleb128 0x35
 10801 284a FE080000 		.4byte	.LASF436
 10802 284e 03       		.byte	0x3
 10803 284f 7104     		.2byte	0x471
 10804 2851 EF000000 		.4byte	0xef
 10805 2855 02       		.uleb128 0x2
ARM GAS  C:\Users\tmj32\AppData\Local\Temp\ccFKuFvs.s 			page 221


 10806 2856 91       		.byte	0x91
 10807 2857 52       		.sleb128 -46
 10808 2858 35       		.uleb128 0x35
 10809 2859 AF070000 		.4byte	.LASF430
 10810 285d 03       		.byte	0x3
 10811 285e 7204     		.2byte	0x472
 10812 2860 EF000000 		.4byte	0xef
 10813 2864 02       		.uleb128 0x2
 10814 2865 91       		.byte	0x91
 10815 2866 50       		.sleb128 -48
 10816 2867 35       		.uleb128 0x35
 10817 2868 B9150000 		.4byte	.LASF480
 10818 286c 03       		.byte	0x3
 10819 286d 7804     		.2byte	0x478
 10820 286f EF000000 		.4byte	0xef
 10821 2873 02       		.uleb128 0x2
 10822 2874 91       		.byte	0x91
 10823 2875 4E       		.sleb128 -50
 10824 2876 35       		.uleb128 0x35
 10825 2877 19100000 		.4byte	.LASF481
 10826 287b 03       		.byte	0x3
 10827 287c 7904     		.2byte	0x479
 10828 287e EF000000 		.4byte	0xef
 10829 2882 02       		.uleb128 0x2
 10830 2883 91       		.byte	0x91
 10831 2884 4C       		.sleb128 -52
 10832 2885 35       		.uleb128 0x35
 10833 2886 5E140000 		.4byte	.LASF472
 10834 288a 03       		.byte	0x3
 10835 288b 8304     		.2byte	0x483
 10836 288d 63030000 		.4byte	0x363
 10837 2891 02       		.uleb128 0x2
 10838 2892 91       		.byte	0x91
 10839 2893 44       		.sleb128 -60
 10840 2894 00       		.byte	0
 10841 2895 36       		.uleb128 0x36
 10842 2896 BC0C0000 		.4byte	.LASF482
 10843 289a 03       		.byte	0x3
 10844 289b DD04     		.2byte	0x4dd
 10845 289d 00000000 		.4byte	.LFB75
 10846 28a1 28000000 		.4byte	.LFE75-.LFB75
 10847 28a5 01       		.uleb128 0x1
 10848 28a6 9C       		.byte	0x9c
 10849 28a7 D7280000 		.4byte	0x28d7
 10850 28ab 2A       		.uleb128 0x2a
 10851 28ac 880D0000 		.4byte	.LASF381
 10852 28b0 03       		.byte	0x3
 10853 28b1 DD04     		.2byte	0x4dd
 10854 28b3 FA000000 		.4byte	0xfa
 10855 28b7 02       		.uleb128 0x2
 10856 28b8 91       		.byte	0x91
 10857 28b9 6C       		.sleb128 -20
 10858 28ba 32       		.uleb128 0x32
 10859 28bb 7600     		.ascii	"v\000"
 10860 28bd 03       		.byte	0x3
 10861 28be DD04     		.2byte	0x4dd
 10862 28c0 92030000 		.4byte	0x392
ARM GAS  C:\Users\tmj32\AppData\Local\Temp\ccFKuFvs.s 			page 222


 10863 28c4 02       		.uleb128 0x2
 10864 28c5 91       		.byte	0x91
 10865 28c6 6A       		.sleb128 -22
 10866 28c7 33       		.uleb128 0x33
 10867 28c8 65787400 		.ascii	"ext\000"
 10868 28cc 03       		.byte	0x3
 10869 28cd DF04     		.2byte	0x4df
 10870 28cf 2F1D0000 		.4byte	0x1d2f
 10871 28d3 02       		.uleb128 0x2
 10872 28d4 91       		.byte	0x91
 10873 28d5 74       		.sleb128 -12
 10874 28d6 00       		.byte	0
 10875 28d7 36       		.uleb128 0x36
 10876 28d8 19070000 		.4byte	.LASF483
 10877 28dc 03       		.byte	0x3
 10878 28dd E404     		.2byte	0x4e4
 10879 28df 00000000 		.4byte	.LFB76
 10880 28e3 5E000000 		.4byte	.LFE76-.LFB76
 10881 28e7 01       		.uleb128 0x1
 10882 28e8 9C       		.byte	0x9c
 10883 28e9 0A290000 		.4byte	0x290a
 10884 28ed 32       		.uleb128 0x32
 10885 28ee 6100     		.ascii	"a\000"
 10886 28f0 03       		.byte	0x3
 10887 28f1 E404     		.2byte	0x4e4
 10888 28f3 0A290000 		.4byte	0x290a
 10889 28f7 02       		.uleb128 0x2
 10890 28f8 91       		.byte	0x91
 10891 28f9 6C       		.sleb128 -20
 10892 28fa 33       		.uleb128 0x33
 10893 28fb 65787400 		.ascii	"ext\000"
 10894 28ff 03       		.byte	0x3
 10895 2900 E604     		.2byte	0x4e6
 10896 2902 2F1D0000 		.4byte	0x1d2f
 10897 2906 02       		.uleb128 0x2
 10898 2907 91       		.byte	0x91
 10899 2908 74       		.sleb128 -12
 10900 2909 00       		.byte	0
 10901 290a 0D       		.uleb128 0xd
 10902 290b 04       		.byte	0x4
 10903 290c CC040000 		.4byte	0x4cc
 10904 2910 2C       		.uleb128 0x2c
 10905 2911 CC100000 		.4byte	.LASF484
 10906 2915 03       		.byte	0x3
 10907 2916 3C       		.byte	0x3c
 10908 2917 A70E0000 		.4byte	0xea7
 10909 291b 05       		.uleb128 0x5
 10910 291c 03       		.byte	0x3
 10911 291d 00000000 		.4byte	ancestor_design
 10912 2921 2C       		.uleb128 0x2c
 10913 2922 85100000 		.4byte	.LASF485
 10914 2926 03       		.byte	0x3
 10915 2927 3D       		.byte	0x3d
 10916 2928 12100000 		.4byte	0x1012
 10917 292c 05       		.uleb128 0x5
 10918 292d 03       		.byte	0x3
 10919 292e 04000000 		.4byte	ancestor_signal
ARM GAS  C:\Users\tmj32\AppData\Local\Temp\ccFKuFvs.s 			page 223


 10920 2932 37       		.uleb128 0x37
 10921 2933 5F060000 		.4byte	.LASF486
 10922 2937 0A       		.byte	0xa
 10923 2938 0C01     		.2byte	0x10c
 10924 293a 02070000 		.4byte	0x702
 10925 293e 37       		.uleb128 0x37
 10926 293f 0C140000 		.4byte	.LASF487
 10927 2943 0A       		.byte	0xa
 10928 2944 1001     		.2byte	0x110
 10929 2946 02070000 		.4byte	0x702
 10930 294a 37       		.uleb128 0x37
 10931 294b D2120000 		.4byte	.LASF488
 10932 294f 0A       		.byte	0xa
 10933 2950 1101     		.2byte	0x111
 10934 2952 02070000 		.4byte	0x702
 10935 2956 37       		.uleb128 0x37
 10936 2957 88000000 		.4byte	.LASF489
 10937 295b 0A       		.byte	0xa
 10938 295c 1201     		.2byte	0x112
 10939 295e 02070000 		.4byte	0x702
 10940 2962 00       		.byte	0
 10941              		.section	.debug_abbrev,"",%progbits
 10942              	.Ldebug_abbrev0:
 10943 0000 01       		.uleb128 0x1
 10944 0001 11       		.uleb128 0x11
 10945 0002 01       		.byte	0x1
 10946 0003 25       		.uleb128 0x25
 10947 0004 0E       		.uleb128 0xe
 10948 0005 13       		.uleb128 0x13
 10949 0006 0B       		.uleb128 0xb
 10950 0007 03       		.uleb128 0x3
 10951 0008 0E       		.uleb128 0xe
 10952 0009 1B       		.uleb128 0x1b
 10953 000a 0E       		.uleb128 0xe
 10954 000b 55       		.uleb128 0x55
 10955 000c 17       		.uleb128 0x17
 10956 000d 11       		.uleb128 0x11
 10957 000e 01       		.uleb128 0x1
 10958 000f 10       		.uleb128 0x10
 10959 0010 17       		.uleb128 0x17
 10960 0011 00       		.byte	0
 10961 0012 00       		.byte	0
 10962 0013 02       		.uleb128 0x2
 10963 0014 16       		.uleb128 0x16
 10964 0015 00       		.byte	0
 10965 0016 03       		.uleb128 0x3
 10966 0017 0E       		.uleb128 0xe
 10967 0018 3A       		.uleb128 0x3a
 10968 0019 0B       		.uleb128 0xb
 10969 001a 3B       		.uleb128 0x3b
 10970 001b 0B       		.uleb128 0xb
 10971 001c 49       		.uleb128 0x49
 10972 001d 13       		.uleb128 0x13
 10973 001e 00       		.byte	0
 10974 001f 00       		.byte	0
 10975 0020 03       		.uleb128 0x3
 10976 0021 24       		.uleb128 0x24
ARM GAS  C:\Users\tmj32\AppData\Local\Temp\ccFKuFvs.s 			page 224


 10977 0022 00       		.byte	0
 10978 0023 0B       		.uleb128 0xb
 10979 0024 0B       		.uleb128 0xb
 10980 0025 3E       		.uleb128 0x3e
 10981 0026 0B       		.uleb128 0xb
 10982 0027 03       		.uleb128 0x3
 10983 0028 0E       		.uleb128 0xe
 10984 0029 00       		.byte	0
 10985 002a 00       		.byte	0
 10986 002b 04       		.uleb128 0x4
 10987 002c 24       		.uleb128 0x24
 10988 002d 00       		.byte	0
 10989 002e 0B       		.uleb128 0xb
 10990 002f 0B       		.uleb128 0xb
 10991 0030 3E       		.uleb128 0x3e
 10992 0031 0B       		.uleb128 0xb
 10993 0032 03       		.uleb128 0x3
 10994 0033 08       		.uleb128 0x8
 10995 0034 00       		.byte	0
 10996 0035 00       		.byte	0
 10997 0036 05       		.uleb128 0x5
 10998 0037 0F       		.uleb128 0xf
 10999 0038 00       		.byte	0
 11000 0039 0B       		.uleb128 0xb
 11001 003a 0B       		.uleb128 0xb
 11002 003b 00       		.byte	0
 11003 003c 00       		.byte	0
 11004 003d 06       		.uleb128 0x6
 11005 003e 13       		.uleb128 0x13
 11006 003f 01       		.byte	0x1
 11007 0040 0B       		.uleb128 0xb
 11008 0041 0B       		.uleb128 0xb
 11009 0042 3A       		.uleb128 0x3a
 11010 0043 0B       		.uleb128 0xb
 11011 0044 3B       		.uleb128 0x3b
 11012 0045 0B       		.uleb128 0xb
 11013 0046 01       		.uleb128 0x1
 11014 0047 13       		.uleb128 0x13
 11015 0048 00       		.byte	0
 11016 0049 00       		.byte	0
 11017 004a 07       		.uleb128 0x7
 11018 004b 0D       		.uleb128 0xd
 11019 004c 00       		.byte	0
 11020 004d 03       		.uleb128 0x3
 11021 004e 0E       		.uleb128 0xe
 11022 004f 3A       		.uleb128 0x3a
 11023 0050 0B       		.uleb128 0xb
 11024 0051 3B       		.uleb128 0x3b
 11025 0052 0B       		.uleb128 0xb
 11026 0053 49       		.uleb128 0x49
 11027 0054 13       		.uleb128 0x13
 11028 0055 38       		.uleb128 0x38
 11029 0056 0B       		.uleb128 0xb
 11030 0057 00       		.byte	0
 11031 0058 00       		.byte	0
 11032 0059 08       		.uleb128 0x8
 11033 005a 0D       		.uleb128 0xd
ARM GAS  C:\Users\tmj32\AppData\Local\Temp\ccFKuFvs.s 			page 225


 11034 005b 00       		.byte	0
 11035 005c 03       		.uleb128 0x3
 11036 005d 08       		.uleb128 0x8
 11037 005e 3A       		.uleb128 0x3a
 11038 005f 0B       		.uleb128 0xb
 11039 0060 3B       		.uleb128 0x3b
 11040 0061 0B       		.uleb128 0xb
 11041 0062 49       		.uleb128 0x49
 11042 0063 13       		.uleb128 0x13
 11043 0064 38       		.uleb128 0x38
 11044 0065 0B       		.uleb128 0xb
 11045 0066 00       		.byte	0
 11046 0067 00       		.byte	0
 11047 0068 09       		.uleb128 0x9
 11048 0069 13       		.uleb128 0x13
 11049 006a 01       		.byte	0x1
 11050 006b 03       		.uleb128 0x3
 11051 006c 0E       		.uleb128 0xe
 11052 006d 0B       		.uleb128 0xb
 11053 006e 0B       		.uleb128 0xb
 11054 006f 3A       		.uleb128 0x3a
 11055 0070 0B       		.uleb128 0xb
 11056 0071 3B       		.uleb128 0x3b
 11057 0072 0B       		.uleb128 0xb
 11058 0073 01       		.uleb128 0x1
 11059 0074 13       		.uleb128 0x13
 11060 0075 00       		.byte	0
 11061 0076 00       		.byte	0
 11062 0077 0A       		.uleb128 0xa
 11063 0078 0D       		.uleb128 0xd
 11064 0079 00       		.byte	0
 11065 007a 03       		.uleb128 0x3
 11066 007b 0E       		.uleb128 0xe
 11067 007c 3A       		.uleb128 0x3a
 11068 007d 0B       		.uleb128 0xb
 11069 007e 3B       		.uleb128 0x3b
 11070 007f 0B       		.uleb128 0xb
 11071 0080 49       		.uleb128 0x49
 11072 0081 13       		.uleb128 0x13
 11073 0082 0B       		.uleb128 0xb
 11074 0083 0B       		.uleb128 0xb
 11075 0084 0D       		.uleb128 0xd
 11076 0085 0B       		.uleb128 0xb
 11077 0086 0C       		.uleb128 0xc
 11078 0087 0B       		.uleb128 0xb
 11079 0088 38       		.uleb128 0x38
 11080 0089 0B       		.uleb128 0xb
 11081 008a 00       		.byte	0
 11082 008b 00       		.byte	0
 11083 008c 0B       		.uleb128 0xb
 11084 008d 15       		.uleb128 0x15
 11085 008e 01       		.byte	0x1
 11086 008f 27       		.uleb128 0x27
 11087 0090 19       		.uleb128 0x19
 11088 0091 49       		.uleb128 0x49
 11089 0092 13       		.uleb128 0x13
 11090 0093 01       		.uleb128 0x1
ARM GAS  C:\Users\tmj32\AppData\Local\Temp\ccFKuFvs.s 			page 226


 11091 0094 13       		.uleb128 0x13
 11092 0095 00       		.byte	0
 11093 0096 00       		.byte	0
 11094 0097 0C       		.uleb128 0xc
 11095 0098 05       		.uleb128 0x5
 11096 0099 00       		.byte	0
 11097 009a 49       		.uleb128 0x49
 11098 009b 13       		.uleb128 0x13
 11099 009c 00       		.byte	0
 11100 009d 00       		.byte	0
 11101 009e 0D       		.uleb128 0xd
 11102 009f 0F       		.uleb128 0xf
 11103 00a0 00       		.byte	0
 11104 00a1 0B       		.uleb128 0xb
 11105 00a2 0B       		.uleb128 0xb
 11106 00a3 49       		.uleb128 0x49
 11107 00a4 13       		.uleb128 0x13
 11108 00a5 00       		.byte	0
 11109 00a6 00       		.byte	0
 11110 00a7 0E       		.uleb128 0xe
 11111 00a8 26       		.uleb128 0x26
 11112 00a9 00       		.byte	0
 11113 00aa 49       		.uleb128 0x49
 11114 00ab 13       		.uleb128 0x13
 11115 00ac 00       		.byte	0
 11116 00ad 00       		.byte	0
 11117 00ae 0F       		.uleb128 0xf
 11118 00af 04       		.uleb128 0x4
 11119 00b0 01       		.byte	0x1
 11120 00b1 0B       		.uleb128 0xb
 11121 00b2 0B       		.uleb128 0xb
 11122 00b3 49       		.uleb128 0x49
 11123 00b4 13       		.uleb128 0x13
 11124 00b5 3A       		.uleb128 0x3a
 11125 00b6 0B       		.uleb128 0xb
 11126 00b7 3B       		.uleb128 0x3b
 11127 00b8 0B       		.uleb128 0xb
 11128 00b9 01       		.uleb128 0x1
 11129 00ba 13       		.uleb128 0x13
 11130 00bb 00       		.byte	0
 11131 00bc 00       		.byte	0
 11132 00bd 10       		.uleb128 0x10
 11133 00be 28       		.uleb128 0x28
 11134 00bf 00       		.byte	0
 11135 00c0 03       		.uleb128 0x3
 11136 00c1 0E       		.uleb128 0xe
 11137 00c2 1C       		.uleb128 0x1c
 11138 00c3 0B       		.uleb128 0xb
 11139 00c4 00       		.byte	0
 11140 00c5 00       		.byte	0
 11141 00c6 11       		.uleb128 0x11
 11142 00c7 17       		.uleb128 0x17
 11143 00c8 01       		.byte	0x1
 11144 00c9 0B       		.uleb128 0xb
 11145 00ca 0B       		.uleb128 0xb
 11146 00cb 3A       		.uleb128 0x3a
 11147 00cc 0B       		.uleb128 0xb
ARM GAS  C:\Users\tmj32\AppData\Local\Temp\ccFKuFvs.s 			page 227


 11148 00cd 3B       		.uleb128 0x3b
 11149 00ce 0B       		.uleb128 0xb
 11150 00cf 01       		.uleb128 0x1
 11151 00d0 13       		.uleb128 0x13
 11152 00d1 00       		.byte	0
 11153 00d2 00       		.byte	0
 11154 00d3 12       		.uleb128 0x12
 11155 00d4 0D       		.uleb128 0xd
 11156 00d5 00       		.byte	0
 11157 00d6 03       		.uleb128 0x3
 11158 00d7 08       		.uleb128 0x8
 11159 00d8 3A       		.uleb128 0x3a
 11160 00d9 0B       		.uleb128 0xb
 11161 00da 3B       		.uleb128 0x3b
 11162 00db 0B       		.uleb128 0xb
 11163 00dc 49       		.uleb128 0x49
 11164 00dd 13       		.uleb128 0x13
 11165 00de 00       		.byte	0
 11166 00df 00       		.byte	0
 11167 00e0 13       		.uleb128 0x13
 11168 00e1 0D       		.uleb128 0xd
 11169 00e2 00       		.byte	0
 11170 00e3 03       		.uleb128 0x3
 11171 00e4 0E       		.uleb128 0xe
 11172 00e5 3A       		.uleb128 0x3a
 11173 00e6 0B       		.uleb128 0xb
 11174 00e7 3B       		.uleb128 0x3b
 11175 00e8 0B       		.uleb128 0xb
 11176 00e9 49       		.uleb128 0x49
 11177 00ea 13       		.uleb128 0x13
 11178 00eb 00       		.byte	0
 11179 00ec 00       		.byte	0
 11180 00ed 14       		.uleb128 0x14
 11181 00ee 16       		.uleb128 0x16
 11182 00ef 00       		.byte	0
 11183 00f0 03       		.uleb128 0x3
 11184 00f1 0E       		.uleb128 0xe
 11185 00f2 3A       		.uleb128 0x3a
 11186 00f3 0B       		.uleb128 0xb
 11187 00f4 3B       		.uleb128 0x3b
 11188 00f5 05       		.uleb128 0x5
 11189 00f6 49       		.uleb128 0x49
 11190 00f7 13       		.uleb128 0x13
 11191 00f8 00       		.byte	0
 11192 00f9 00       		.byte	0
 11193 00fa 15       		.uleb128 0x15
 11194 00fb 15       		.uleb128 0x15
 11195 00fc 01       		.byte	0x1
 11196 00fd 27       		.uleb128 0x27
 11197 00fe 19       		.uleb128 0x19
 11198 00ff 01       		.uleb128 0x1
 11199 0100 13       		.uleb128 0x13
 11200 0101 00       		.byte	0
 11201 0102 00       		.byte	0
 11202 0103 16       		.uleb128 0x16
 11203 0104 35       		.uleb128 0x35
 11204 0105 00       		.byte	0
ARM GAS  C:\Users\tmj32\AppData\Local\Temp\ccFKuFvs.s 			page 228


 11205 0106 49       		.uleb128 0x49
 11206 0107 13       		.uleb128 0x13
 11207 0108 00       		.byte	0
 11208 0109 00       		.byte	0
 11209 010a 17       		.uleb128 0x17
 11210 010b 13       		.uleb128 0x13
 11211 010c 01       		.byte	0x1
 11212 010d 03       		.uleb128 0x3
 11213 010e 0E       		.uleb128 0xe
 11214 010f 0B       		.uleb128 0xb
 11215 0110 05       		.uleb128 0x5
 11216 0111 3A       		.uleb128 0x3a
 11217 0112 0B       		.uleb128 0xb
 11218 0113 3B       		.uleb128 0x3b
 11219 0114 0B       		.uleb128 0xb
 11220 0115 01       		.uleb128 0x1
 11221 0116 13       		.uleb128 0x13
 11222 0117 00       		.byte	0
 11223 0118 00       		.byte	0
 11224 0119 18       		.uleb128 0x18
 11225 011a 0D       		.uleb128 0xd
 11226 011b 00       		.byte	0
 11227 011c 03       		.uleb128 0x3
 11228 011d 0E       		.uleb128 0xe
 11229 011e 3A       		.uleb128 0x3a
 11230 011f 0B       		.uleb128 0xb
 11231 0120 3B       		.uleb128 0x3b
 11232 0121 0B       		.uleb128 0xb
 11233 0122 49       		.uleb128 0x49
 11234 0123 13       		.uleb128 0x13
 11235 0124 38       		.uleb128 0x38
 11236 0125 05       		.uleb128 0x5
 11237 0126 00       		.byte	0
 11238 0127 00       		.byte	0
 11239 0128 19       		.uleb128 0x19
 11240 0129 0D       		.uleb128 0xd
 11241 012a 00       		.byte	0
 11242 012b 03       		.uleb128 0x3
 11243 012c 0E       		.uleb128 0xe
 11244 012d 3A       		.uleb128 0x3a
 11245 012e 0B       		.uleb128 0xb
 11246 012f 3B       		.uleb128 0x3b
 11247 0130 0B       		.uleb128 0xb
 11248 0131 49       		.uleb128 0x49
 11249 0132 13       		.uleb128 0x13
 11250 0133 0B       		.uleb128 0xb
 11251 0134 0B       		.uleb128 0xb
 11252 0135 0D       		.uleb128 0xd
 11253 0136 0B       		.uleb128 0xb
 11254 0137 0C       		.uleb128 0xc
 11255 0138 0B       		.uleb128 0xb
 11256 0139 38       		.uleb128 0x38
 11257 013a 05       		.uleb128 0x5
 11258 013b 00       		.byte	0
 11259 013c 00       		.byte	0
 11260 013d 1A       		.uleb128 0x1a
 11261 013e 0D       		.uleb128 0xd
ARM GAS  C:\Users\tmj32\AppData\Local\Temp\ccFKuFvs.s 			page 229


 11262 013f 00       		.byte	0
 11263 0140 03       		.uleb128 0x3
 11264 0141 08       		.uleb128 0x8
 11265 0142 3A       		.uleb128 0x3a
 11266 0143 0B       		.uleb128 0xb
 11267 0144 3B       		.uleb128 0x3b
 11268 0145 0B       		.uleb128 0xb
 11269 0146 49       		.uleb128 0x49
 11270 0147 13       		.uleb128 0x13
 11271 0148 0B       		.uleb128 0xb
 11272 0149 0B       		.uleb128 0xb
 11273 014a 0D       		.uleb128 0xd
 11274 014b 0B       		.uleb128 0xb
 11275 014c 0C       		.uleb128 0xc
 11276 014d 0B       		.uleb128 0xb
 11277 014e 38       		.uleb128 0x38
 11278 014f 0B       		.uleb128 0xb
 11279 0150 00       		.byte	0
 11280 0151 00       		.byte	0
 11281 0152 1B       		.uleb128 0x1b
 11282 0153 01       		.uleb128 0x1
 11283 0154 01       		.byte	0x1
 11284 0155 49       		.uleb128 0x49
 11285 0156 13       		.uleb128 0x13
 11286 0157 01       		.uleb128 0x1
 11287 0158 13       		.uleb128 0x13
 11288 0159 00       		.byte	0
 11289 015a 00       		.byte	0
 11290 015b 1C       		.uleb128 0x1c
 11291 015c 21       		.uleb128 0x21
 11292 015d 00       		.byte	0
 11293 015e 49       		.uleb128 0x49
 11294 015f 13       		.uleb128 0x13
 11295 0160 2F       		.uleb128 0x2f
 11296 0161 0B       		.uleb128 0xb
 11297 0162 00       		.byte	0
 11298 0163 00       		.byte	0
 11299 0164 1D       		.uleb128 0x1d
 11300 0165 13       		.uleb128 0x13
 11301 0166 00       		.byte	0
 11302 0167 03       		.uleb128 0x3
 11303 0168 0E       		.uleb128 0xe
 11304 0169 3C       		.uleb128 0x3c
 11305 016a 19       		.uleb128 0x19
 11306 016b 00       		.byte	0
 11307 016c 00       		.byte	0
 11308 016d 1E       		.uleb128 0x1e
 11309 016e 0D       		.uleb128 0xd
 11310 016f 00       		.byte	0
 11311 0170 03       		.uleb128 0x3
 11312 0171 08       		.uleb128 0x8
 11313 0172 3A       		.uleb128 0x3a
 11314 0173 0B       		.uleb128 0xb
 11315 0174 3B       		.uleb128 0x3b
 11316 0175 05       		.uleb128 0x5
 11317 0176 49       		.uleb128 0x49
 11318 0177 13       		.uleb128 0x13
ARM GAS  C:\Users\tmj32\AppData\Local\Temp\ccFKuFvs.s 			page 230


 11319 0178 38       		.uleb128 0x38
 11320 0179 0B       		.uleb128 0xb
 11321 017a 00       		.byte	0
 11322 017b 00       		.byte	0
 11323 017c 1F       		.uleb128 0x1f
 11324 017d 0D       		.uleb128 0xd
 11325 017e 00       		.byte	0
 11326 017f 03       		.uleb128 0x3
 11327 0180 0E       		.uleb128 0xe
 11328 0181 3A       		.uleb128 0x3a
 11329 0182 0B       		.uleb128 0xb
 11330 0183 3B       		.uleb128 0x3b
 11331 0184 05       		.uleb128 0x5
 11332 0185 49       		.uleb128 0x49
 11333 0186 13       		.uleb128 0x13
 11334 0187 38       		.uleb128 0x38
 11335 0188 0B       		.uleb128 0xb
 11336 0189 00       		.byte	0
 11337 018a 00       		.byte	0
 11338 018b 20       		.uleb128 0x20
 11339 018c 13       		.uleb128 0x13
 11340 018d 01       		.byte	0x1
 11341 018e 0B       		.uleb128 0xb
 11342 018f 0B       		.uleb128 0xb
 11343 0190 3A       		.uleb128 0x3a
 11344 0191 0B       		.uleb128 0xb
 11345 0192 3B       		.uleb128 0x3b
 11346 0193 05       		.uleb128 0x5
 11347 0194 01       		.uleb128 0x1
 11348 0195 13       		.uleb128 0x13
 11349 0196 00       		.byte	0
 11350 0197 00       		.byte	0
 11351 0198 21       		.uleb128 0x21
 11352 0199 13       		.uleb128 0x13
 11353 019a 01       		.byte	0x1
 11354 019b 0B       		.uleb128 0xb
 11355 019c 05       		.uleb128 0x5
 11356 019d 3A       		.uleb128 0x3a
 11357 019e 0B       		.uleb128 0xb
 11358 019f 3B       		.uleb128 0x3b
 11359 01a0 0B       		.uleb128 0xb
 11360 01a1 01       		.uleb128 0x1
 11361 01a2 13       		.uleb128 0x13
 11362 01a3 00       		.byte	0
 11363 01a4 00       		.byte	0
 11364 01a5 22       		.uleb128 0x22
 11365 01a6 0D       		.uleb128 0xd
 11366 01a7 00       		.byte	0
 11367 01a8 03       		.uleb128 0x3
 11368 01a9 08       		.uleb128 0x8
 11369 01aa 3A       		.uleb128 0x3a
 11370 01ab 0B       		.uleb128 0xb
 11371 01ac 3B       		.uleb128 0x3b
 11372 01ad 0B       		.uleb128 0xb
 11373 01ae 49       		.uleb128 0x49
 11374 01af 13       		.uleb128 0x13
 11375 01b0 38       		.uleb128 0x38
ARM GAS  C:\Users\tmj32\AppData\Local\Temp\ccFKuFvs.s 			page 231


 11376 01b1 05       		.uleb128 0x5
 11377 01b2 00       		.byte	0
 11378 01b3 00       		.byte	0
 11379 01b4 23       		.uleb128 0x23
 11380 01b5 0D       		.uleb128 0xd
 11381 01b6 00       		.byte	0
 11382 01b7 03       		.uleb128 0x3
 11383 01b8 0E       		.uleb128 0xe
 11384 01b9 3A       		.uleb128 0x3a
 11385 01ba 0B       		.uleb128 0xb
 11386 01bb 3B       		.uleb128 0x3b
 11387 01bc 05       		.uleb128 0x5
 11388 01bd 49       		.uleb128 0x49
 11389 01be 13       		.uleb128 0x13
 11390 01bf 38       		.uleb128 0x38
 11391 01c0 05       		.uleb128 0x5
 11392 01c1 00       		.byte	0
 11393 01c2 00       		.byte	0
 11394 01c3 24       		.uleb128 0x24
 11395 01c4 0D       		.uleb128 0xd
 11396 01c5 00       		.byte	0
 11397 01c6 03       		.uleb128 0x3
 11398 01c7 08       		.uleb128 0x8
 11399 01c8 3A       		.uleb128 0x3a
 11400 01c9 0B       		.uleb128 0xb
 11401 01ca 3B       		.uleb128 0x3b
 11402 01cb 05       		.uleb128 0x5
 11403 01cc 49       		.uleb128 0x49
 11404 01cd 13       		.uleb128 0x13
 11405 01ce 38       		.uleb128 0x38
 11406 01cf 05       		.uleb128 0x5
 11407 01d0 00       		.byte	0
 11408 01d1 00       		.byte	0
 11409 01d2 25       		.uleb128 0x25
 11410 01d3 2E       		.uleb128 0x2e
 11411 01d4 01       		.byte	0x1
 11412 01d5 03       		.uleb128 0x3
 11413 01d6 0E       		.uleb128 0xe
 11414 01d7 3A       		.uleb128 0x3a
 11415 01d8 0B       		.uleb128 0xb
 11416 01d9 3B       		.uleb128 0x3b
 11417 01da 0B       		.uleb128 0xb
 11418 01db 27       		.uleb128 0x27
 11419 01dc 19       		.uleb128 0x19
 11420 01dd 11       		.uleb128 0x11
 11421 01de 01       		.uleb128 0x1
 11422 01df 12       		.uleb128 0x12
 11423 01e0 06       		.uleb128 0x6
 11424 01e1 40       		.uleb128 0x40
 11425 01e2 18       		.uleb128 0x18
 11426 01e3 9642     		.uleb128 0x2116
 11427 01e5 19       		.uleb128 0x19
 11428 01e6 01       		.uleb128 0x1
 11429 01e7 13       		.uleb128 0x13
 11430 01e8 00       		.byte	0
 11431 01e9 00       		.byte	0
 11432 01ea 26       		.uleb128 0x26
ARM GAS  C:\Users\tmj32\AppData\Local\Temp\ccFKuFvs.s 			page 232


 11433 01eb 05       		.uleb128 0x5
 11434 01ec 00       		.byte	0
 11435 01ed 03       		.uleb128 0x3
 11436 01ee 0E       		.uleb128 0xe
 11437 01ef 3A       		.uleb128 0x3a
 11438 01f0 0B       		.uleb128 0xb
 11439 01f1 3B       		.uleb128 0x3b
 11440 01f2 0B       		.uleb128 0xb
 11441 01f3 49       		.uleb128 0x49
 11442 01f4 13       		.uleb128 0x13
 11443 01f5 02       		.uleb128 0x2
 11444 01f6 18       		.uleb128 0x18
 11445 01f7 00       		.byte	0
 11446 01f8 00       		.byte	0
 11447 01f9 27       		.uleb128 0x27
 11448 01fa 05       		.uleb128 0x5
 11449 01fb 00       		.byte	0
 11450 01fc 03       		.uleb128 0x3
 11451 01fd 08       		.uleb128 0x8
 11452 01fe 3A       		.uleb128 0x3a
 11453 01ff 0B       		.uleb128 0xb
 11454 0200 3B       		.uleb128 0x3b
 11455 0201 0B       		.uleb128 0xb
 11456 0202 49       		.uleb128 0x49
 11457 0203 13       		.uleb128 0x13
 11458 0204 02       		.uleb128 0x2
 11459 0205 18       		.uleb128 0x18
 11460 0206 00       		.byte	0
 11461 0207 00       		.byte	0
 11462 0208 28       		.uleb128 0x28
 11463 0209 2E       		.uleb128 0x2e
 11464 020a 01       		.byte	0x1
 11465 020b 03       		.uleb128 0x3
 11466 020c 0E       		.uleb128 0xe
 11467 020d 3A       		.uleb128 0x3a
 11468 020e 0B       		.uleb128 0xb
 11469 020f 3B       		.uleb128 0x3b
 11470 0210 0B       		.uleb128 0xb
 11471 0211 27       		.uleb128 0x27
 11472 0212 19       		.uleb128 0x19
 11473 0213 49       		.uleb128 0x49
 11474 0214 13       		.uleb128 0x13
 11475 0215 11       		.uleb128 0x11
 11476 0216 01       		.uleb128 0x1
 11477 0217 12       		.uleb128 0x12
 11478 0218 06       		.uleb128 0x6
 11479 0219 40       		.uleb128 0x40
 11480 021a 18       		.uleb128 0x18
 11481 021b 9742     		.uleb128 0x2117
 11482 021d 19       		.uleb128 0x19
 11483 021e 01       		.uleb128 0x1
 11484 021f 13       		.uleb128 0x13
 11485 0220 00       		.byte	0
 11486 0221 00       		.byte	0
 11487 0222 29       		.uleb128 0x29
 11488 0223 2E       		.uleb128 0x2e
 11489 0224 01       		.byte	0x1
ARM GAS  C:\Users\tmj32\AppData\Local\Temp\ccFKuFvs.s 			page 233


 11490 0225 03       		.uleb128 0x3
 11491 0226 0E       		.uleb128 0xe
 11492 0227 3A       		.uleb128 0x3a
 11493 0228 0B       		.uleb128 0xb
 11494 0229 3B       		.uleb128 0x3b
 11495 022a 05       		.uleb128 0x5
 11496 022b 27       		.uleb128 0x27
 11497 022c 19       		.uleb128 0x19
 11498 022d 49       		.uleb128 0x49
 11499 022e 13       		.uleb128 0x13
 11500 022f 11       		.uleb128 0x11
 11501 0230 01       		.uleb128 0x1
 11502 0231 12       		.uleb128 0x12
 11503 0232 06       		.uleb128 0x6
 11504 0233 40       		.uleb128 0x40
 11505 0234 18       		.uleb128 0x18
 11506 0235 9642     		.uleb128 0x2116
 11507 0237 19       		.uleb128 0x19
 11508 0238 01       		.uleb128 0x1
 11509 0239 13       		.uleb128 0x13
 11510 023a 00       		.byte	0
 11511 023b 00       		.byte	0
 11512 023c 2A       		.uleb128 0x2a
 11513 023d 05       		.uleb128 0x5
 11514 023e 00       		.byte	0
 11515 023f 03       		.uleb128 0x3
 11516 0240 0E       		.uleb128 0xe
 11517 0241 3A       		.uleb128 0x3a
 11518 0242 0B       		.uleb128 0xb
 11519 0243 3B       		.uleb128 0x3b
 11520 0244 05       		.uleb128 0x5
 11521 0245 49       		.uleb128 0x49
 11522 0246 13       		.uleb128 0x13
 11523 0247 02       		.uleb128 0x2
 11524 0248 18       		.uleb128 0x18
 11525 0249 00       		.byte	0
 11526 024a 00       		.byte	0
 11527 024b 2B       		.uleb128 0x2b
 11528 024c 2E       		.uleb128 0x2e
 11529 024d 01       		.byte	0x1
 11530 024e 3F       		.uleb128 0x3f
 11531 024f 19       		.uleb128 0x19
 11532 0250 03       		.uleb128 0x3
 11533 0251 0E       		.uleb128 0xe
 11534 0252 3A       		.uleb128 0x3a
 11535 0253 0B       		.uleb128 0xb
 11536 0254 3B       		.uleb128 0x3b
 11537 0255 0B       		.uleb128 0xb
 11538 0256 27       		.uleb128 0x27
 11539 0257 19       		.uleb128 0x19
 11540 0258 49       		.uleb128 0x49
 11541 0259 13       		.uleb128 0x13
 11542 025a 11       		.uleb128 0x11
 11543 025b 01       		.uleb128 0x1
 11544 025c 12       		.uleb128 0x12
 11545 025d 06       		.uleb128 0x6
 11546 025e 40       		.uleb128 0x40
ARM GAS  C:\Users\tmj32\AppData\Local\Temp\ccFKuFvs.s 			page 234


 11547 025f 18       		.uleb128 0x18
 11548 0260 9642     		.uleb128 0x2116
 11549 0262 19       		.uleb128 0x19
 11550 0263 01       		.uleb128 0x1
 11551 0264 13       		.uleb128 0x13
 11552 0265 00       		.byte	0
 11553 0266 00       		.byte	0
 11554 0267 2C       		.uleb128 0x2c
 11555 0268 34       		.uleb128 0x34
 11556 0269 00       		.byte	0
 11557 026a 03       		.uleb128 0x3
 11558 026b 0E       		.uleb128 0xe
 11559 026c 3A       		.uleb128 0x3a
 11560 026d 0B       		.uleb128 0xb
 11561 026e 3B       		.uleb128 0x3b
 11562 026f 0B       		.uleb128 0xb
 11563 0270 49       		.uleb128 0x49
 11564 0271 13       		.uleb128 0x13
 11565 0272 02       		.uleb128 0x2
 11566 0273 18       		.uleb128 0x18
 11567 0274 00       		.byte	0
 11568 0275 00       		.byte	0
 11569 0276 2D       		.uleb128 0x2d
 11570 0277 34       		.uleb128 0x34
 11571 0278 00       		.byte	0
 11572 0279 03       		.uleb128 0x3
 11573 027a 08       		.uleb128 0x8
 11574 027b 3A       		.uleb128 0x3a
 11575 027c 0B       		.uleb128 0xb
 11576 027d 3B       		.uleb128 0x3b
 11577 027e 0B       		.uleb128 0xb
 11578 027f 49       		.uleb128 0x49
 11579 0280 13       		.uleb128 0x13
 11580 0281 02       		.uleb128 0x2
 11581 0282 18       		.uleb128 0x18
 11582 0283 00       		.byte	0
 11583 0284 00       		.byte	0
 11584 0285 2E       		.uleb128 0x2e
 11585 0286 0B       		.uleb128 0xb
 11586 0287 01       		.byte	0x1
 11587 0288 11       		.uleb128 0x11
 11588 0289 01       		.uleb128 0x1
 11589 028a 12       		.uleb128 0x12
 11590 028b 06       		.uleb128 0x6
 11591 028c 01       		.uleb128 0x1
 11592 028d 13       		.uleb128 0x13
 11593 028e 00       		.byte	0
 11594 028f 00       		.byte	0
 11595 0290 2F       		.uleb128 0x2f
 11596 0291 0B       		.uleb128 0xb
 11597 0292 01       		.byte	0x1
 11598 0293 11       		.uleb128 0x11
 11599 0294 01       		.uleb128 0x1
 11600 0295 12       		.uleb128 0x12
 11601 0296 06       		.uleb128 0x6
 11602 0297 00       		.byte	0
 11603 0298 00       		.byte	0
ARM GAS  C:\Users\tmj32\AppData\Local\Temp\ccFKuFvs.s 			page 235


 11604 0299 30       		.uleb128 0x30
 11605 029a 2E       		.uleb128 0x2e
 11606 029b 01       		.byte	0x1
 11607 029c 3F       		.uleb128 0x3f
 11608 029d 19       		.uleb128 0x19
 11609 029e 03       		.uleb128 0x3
 11610 029f 0E       		.uleb128 0xe
 11611 02a0 3A       		.uleb128 0x3a
 11612 02a1 0B       		.uleb128 0xb
 11613 02a2 3B       		.uleb128 0x3b
 11614 02a3 0B       		.uleb128 0xb
 11615 02a4 27       		.uleb128 0x27
 11616 02a5 19       		.uleb128 0x19
 11617 02a6 11       		.uleb128 0x11
 11618 02a7 01       		.uleb128 0x1
 11619 02a8 12       		.uleb128 0x12
 11620 02a9 06       		.uleb128 0x6
 11621 02aa 40       		.uleb128 0x40
 11622 02ab 18       		.uleb128 0x18
 11623 02ac 9642     		.uleb128 0x2116
 11624 02ae 19       		.uleb128 0x19
 11625 02af 01       		.uleb128 0x1
 11626 02b0 13       		.uleb128 0x13
 11627 02b1 00       		.byte	0
 11628 02b2 00       		.byte	0
 11629 02b3 31       		.uleb128 0x31
 11630 02b4 2E       		.uleb128 0x2e
 11631 02b5 01       		.byte	0x1
 11632 02b6 3F       		.uleb128 0x3f
 11633 02b7 19       		.uleb128 0x19
 11634 02b8 03       		.uleb128 0x3
 11635 02b9 0E       		.uleb128 0xe
 11636 02ba 3A       		.uleb128 0x3a
 11637 02bb 0B       		.uleb128 0xb
 11638 02bc 3B       		.uleb128 0x3b
 11639 02bd 05       		.uleb128 0x5
 11640 02be 27       		.uleb128 0x27
 11641 02bf 19       		.uleb128 0x19
 11642 02c0 11       		.uleb128 0x11
 11643 02c1 01       		.uleb128 0x1
 11644 02c2 12       		.uleb128 0x12
 11645 02c3 06       		.uleb128 0x6
 11646 02c4 40       		.uleb128 0x40
 11647 02c5 18       		.uleb128 0x18
 11648 02c6 9642     		.uleb128 0x2116
 11649 02c8 19       		.uleb128 0x19
 11650 02c9 01       		.uleb128 0x1
 11651 02ca 13       		.uleb128 0x13
 11652 02cb 00       		.byte	0
 11653 02cc 00       		.byte	0
 11654 02cd 32       		.uleb128 0x32
 11655 02ce 05       		.uleb128 0x5
 11656 02cf 00       		.byte	0
 11657 02d0 03       		.uleb128 0x3
 11658 02d1 08       		.uleb128 0x8
 11659 02d2 3A       		.uleb128 0x3a
 11660 02d3 0B       		.uleb128 0xb
ARM GAS  C:\Users\tmj32\AppData\Local\Temp\ccFKuFvs.s 			page 236


 11661 02d4 3B       		.uleb128 0x3b
 11662 02d5 05       		.uleb128 0x5
 11663 02d6 49       		.uleb128 0x49
 11664 02d7 13       		.uleb128 0x13
 11665 02d8 02       		.uleb128 0x2
 11666 02d9 18       		.uleb128 0x18
 11667 02da 00       		.byte	0
 11668 02db 00       		.byte	0
 11669 02dc 33       		.uleb128 0x33
 11670 02dd 34       		.uleb128 0x34
 11671 02de 00       		.byte	0
 11672 02df 03       		.uleb128 0x3
 11673 02e0 08       		.uleb128 0x8
 11674 02e1 3A       		.uleb128 0x3a
 11675 02e2 0B       		.uleb128 0xb
 11676 02e3 3B       		.uleb128 0x3b
 11677 02e4 05       		.uleb128 0x5
 11678 02e5 49       		.uleb128 0x49
 11679 02e6 13       		.uleb128 0x13
 11680 02e7 02       		.uleb128 0x2
 11681 02e8 18       		.uleb128 0x18
 11682 02e9 00       		.byte	0
 11683 02ea 00       		.byte	0
 11684 02eb 34       		.uleb128 0x34
 11685 02ec 2E       		.uleb128 0x2e
 11686 02ed 01       		.byte	0x1
 11687 02ee 3F       		.uleb128 0x3f
 11688 02ef 19       		.uleb128 0x19
 11689 02f0 03       		.uleb128 0x3
 11690 02f1 0E       		.uleb128 0xe
 11691 02f2 3A       		.uleb128 0x3a
 11692 02f3 0B       		.uleb128 0xb
 11693 02f4 3B       		.uleb128 0x3b
 11694 02f5 05       		.uleb128 0x5
 11695 02f6 27       		.uleb128 0x27
 11696 02f7 19       		.uleb128 0x19
 11697 02f8 49       		.uleb128 0x49
 11698 02f9 13       		.uleb128 0x13
 11699 02fa 11       		.uleb128 0x11
 11700 02fb 01       		.uleb128 0x1
 11701 02fc 12       		.uleb128 0x12
 11702 02fd 06       		.uleb128 0x6
 11703 02fe 40       		.uleb128 0x40
 11704 02ff 18       		.uleb128 0x18
 11705 0300 9642     		.uleb128 0x2116
 11706 0302 19       		.uleb128 0x19
 11707 0303 01       		.uleb128 0x1
 11708 0304 13       		.uleb128 0x13
 11709 0305 00       		.byte	0
 11710 0306 00       		.byte	0
 11711 0307 35       		.uleb128 0x35
 11712 0308 34       		.uleb128 0x34
 11713 0309 00       		.byte	0
 11714 030a 03       		.uleb128 0x3
 11715 030b 0E       		.uleb128 0xe
 11716 030c 3A       		.uleb128 0x3a
 11717 030d 0B       		.uleb128 0xb
ARM GAS  C:\Users\tmj32\AppData\Local\Temp\ccFKuFvs.s 			page 237


 11718 030e 3B       		.uleb128 0x3b
 11719 030f 05       		.uleb128 0x5
 11720 0310 49       		.uleb128 0x49
 11721 0311 13       		.uleb128 0x13
 11722 0312 02       		.uleb128 0x2
 11723 0313 18       		.uleb128 0x18
 11724 0314 00       		.byte	0
 11725 0315 00       		.byte	0
 11726 0316 36       		.uleb128 0x36
 11727 0317 2E       		.uleb128 0x2e
 11728 0318 01       		.byte	0x1
 11729 0319 03       		.uleb128 0x3
 11730 031a 0E       		.uleb128 0xe
 11731 031b 3A       		.uleb128 0x3a
 11732 031c 0B       		.uleb128 0xb
 11733 031d 3B       		.uleb128 0x3b
 11734 031e 05       		.uleb128 0x5
 11735 031f 27       		.uleb128 0x27
 11736 0320 19       		.uleb128 0x19
 11737 0321 11       		.uleb128 0x11
 11738 0322 01       		.uleb128 0x1
 11739 0323 12       		.uleb128 0x12
 11740 0324 06       		.uleb128 0x6
 11741 0325 40       		.uleb128 0x40
 11742 0326 18       		.uleb128 0x18
 11743 0327 9642     		.uleb128 0x2116
 11744 0329 19       		.uleb128 0x19
 11745 032a 01       		.uleb128 0x1
 11746 032b 13       		.uleb128 0x13
 11747 032c 00       		.byte	0
 11748 032d 00       		.byte	0
 11749 032e 37       		.uleb128 0x37
 11750 032f 34       		.uleb128 0x34
 11751 0330 00       		.byte	0
 11752 0331 03       		.uleb128 0x3
 11753 0332 0E       		.uleb128 0xe
 11754 0333 3A       		.uleb128 0x3a
 11755 0334 0B       		.uleb128 0xb
 11756 0335 3B       		.uleb128 0x3b
 11757 0336 05       		.uleb128 0x5
 11758 0337 49       		.uleb128 0x49
 11759 0338 13       		.uleb128 0x13
 11760 0339 3F       		.uleb128 0x3f
 11761 033a 19       		.uleb128 0x19
 11762 033b 3C       		.uleb128 0x3c
 11763 033c 19       		.uleb128 0x19
 11764 033d 00       		.byte	0
 11765 033e 00       		.byte	0
 11766 033f 00       		.byte	0
 11767              		.section	.debug_aranges,"",%progbits
 11768 0000 34010000 		.4byte	0x134
 11769 0004 0200     		.2byte	0x2
 11770 0006 00000000 		.4byte	.Ldebug_info0
 11771 000a 04       		.byte	0x4
 11772 000b 00       		.byte	0
 11773 000c 0000     		.2byte	0
 11774 000e 0000     		.2byte	0
ARM GAS  C:\Users\tmj32\AppData\Local\Temp\ccFKuFvs.s 			page 238


 11775 0010 00000000 		.4byte	.LFB10
 11776 0014 1C000000 		.4byte	.LFE10-.LFB10
 11777 0018 00000000 		.4byte	.LFB11
 11778 001c 2E000000 		.4byte	.LFE11-.LFB11
 11779 0020 00000000 		.4byte	.LFB12
 11780 0024 2E000000 		.4byte	.LFE12-.LFB12
 11781 0028 00000000 		.4byte	.LFB41
 11782 002c 20000000 		.4byte	.LFE41-.LFB41
 11783 0030 00000000 		.4byte	.LFB44
 11784 0034 20000000 		.4byte	.LFE44-.LFB44
 11785 0038 00000000 		.4byte	.LFB45
 11786 003c 20000000 		.4byte	.LFE45-.LFB45
 11787 0040 00000000 		.4byte	.LFB46
 11788 0044 20000000 		.4byte	.LFE46-.LFB46
 11789 0048 00000000 		.4byte	.LFB48
 11790 004c D4020000 		.4byte	.LFE48-.LFB48
 11791 0050 00000000 		.4byte	.LFB49
 11792 0054 1E000000 		.4byte	.LFE49-.LFB49
 11793 0058 00000000 		.4byte	.LFB50
 11794 005c C0000000 		.4byte	.LFE50-.LFB50
 11795 0060 00000000 		.4byte	.LFB51
 11796 0064 22000000 		.4byte	.LFE51-.LFB51
 11797 0068 00000000 		.4byte	.LFB52
 11798 006c 32000000 		.4byte	.LFE52-.LFB52
 11799 0070 00000000 		.4byte	.LFB53
 11800 0074 32000000 		.4byte	.LFE53-.LFB53
 11801 0078 00000000 		.4byte	.LFB54
 11802 007c A2000000 		.4byte	.LFE54-.LFB54
 11803 0080 00000000 		.4byte	.LFB55
 11804 0084 1C000000 		.4byte	.LFE55-.LFB55
 11805 0088 00000000 		.4byte	.LFB56
 11806 008c 1C000000 		.4byte	.LFE56-.LFB56
 11807 0090 00000000 		.4byte	.LFB57
 11808 0094 22000000 		.4byte	.LFE57-.LFB57
 11809 0098 00000000 		.4byte	.LFB58
 11810 009c 2E000000 		.4byte	.LFE58-.LFB58
 11811 00a0 00000000 		.4byte	.LFB59
 11812 00a4 2E000000 		.4byte	.LFE59-.LFB59
 11813 00a8 00000000 		.4byte	.LFB60
 11814 00ac 60000000 		.4byte	.LFE60-.LFB60
 11815 00b0 00000000 		.4byte	.LFB61
 11816 00b4 60000000 		.4byte	.LFE61-.LFB61
 11817 00b8 00000000 		.4byte	.LFB62
 11818 00bc 6C000000 		.4byte	.LFE62-.LFB62
 11819 00c0 00000000 		.4byte	.LFB63
 11820 00c4 D6000000 		.4byte	.LFE63-.LFB63
 11821 00c8 00000000 		.4byte	.LFB64
 11822 00cc 28000000 		.4byte	.LFE64-.LFB64
 11823 00d0 00000000 		.4byte	.LFB65
 11824 00d4 A8030000 		.4byte	.LFE65-.LFB65
 11825 00d8 00000000 		.4byte	.LFB66
 11826 00dc 7C000000 		.4byte	.LFE66-.LFB66
 11827 00e0 00000000 		.4byte	.LFB67
 11828 00e4 7C000000 		.4byte	.LFE67-.LFB67
 11829 00e8 00000000 		.4byte	.LFB68
 11830 00ec 84000000 		.4byte	.LFE68-.LFB68
 11831 00f0 00000000 		.4byte	.LFB69
ARM GAS  C:\Users\tmj32\AppData\Local\Temp\ccFKuFvs.s 			page 239


 11832 00f4 EC040000 		.4byte	.LFE69-.LFB69
 11833 00f8 00000000 		.4byte	.LFB70
 11834 00fc 58000000 		.4byte	.LFE70-.LFB70
 11835 0100 00000000 		.4byte	.LFB71
 11836 0104 38040000 		.4byte	.LFE71-.LFB71
 11837 0108 00000000 		.4byte	.LFB72
 11838 010c 4E070000 		.4byte	.LFE72-.LFB72
 11839 0110 00000000 		.4byte	.LFB73
 11840 0114 6E000000 		.4byte	.LFE73-.LFB73
 11841 0118 00000000 		.4byte	.LFB74
 11842 011c F6050000 		.4byte	.LFE74-.LFB74
 11843 0120 00000000 		.4byte	.LFB75
 11844 0124 28000000 		.4byte	.LFE75-.LFB75
 11845 0128 00000000 		.4byte	.LFB76
 11846 012c 5E000000 		.4byte	.LFE76-.LFB76
 11847 0130 00000000 		.4byte	0
 11848 0134 00000000 		.4byte	0
 11849              		.section	.debug_ranges,"",%progbits
 11850              	.Ldebug_ranges0:
 11851 0000 00000000 		.4byte	.LFB10
 11852 0004 1C000000 		.4byte	.LFE10
 11853 0008 00000000 		.4byte	.LFB11
 11854 000c 2E000000 		.4byte	.LFE11
 11855 0010 00000000 		.4byte	.LFB12
 11856 0014 2E000000 		.4byte	.LFE12
 11857 0018 00000000 		.4byte	.LFB41
 11858 001c 20000000 		.4byte	.LFE41
 11859 0020 00000000 		.4byte	.LFB44
 11860 0024 20000000 		.4byte	.LFE44
 11861 0028 00000000 		.4byte	.LFB45
 11862 002c 20000000 		.4byte	.LFE45
 11863 0030 00000000 		.4byte	.LFB46
 11864 0034 20000000 		.4byte	.LFE46
 11865 0038 00000000 		.4byte	.LFB48
 11866 003c D4020000 		.4byte	.LFE48
 11867 0040 00000000 		.4byte	.LFB49
 11868 0044 1E000000 		.4byte	.LFE49
 11869 0048 00000000 		.4byte	.LFB50
 11870 004c C0000000 		.4byte	.LFE50
 11871 0050 00000000 		.4byte	.LFB51
 11872 0054 22000000 		.4byte	.LFE51
 11873 0058 00000000 		.4byte	.LFB52
 11874 005c 32000000 		.4byte	.LFE52
 11875 0060 00000000 		.4byte	.LFB53
 11876 0064 32000000 		.4byte	.LFE53
 11877 0068 00000000 		.4byte	.LFB54
 11878 006c A2000000 		.4byte	.LFE54
 11879 0070 00000000 		.4byte	.LFB55
 11880 0074 1C000000 		.4byte	.LFE55
 11881 0078 00000000 		.4byte	.LFB56
 11882 007c 1C000000 		.4byte	.LFE56
 11883 0080 00000000 		.4byte	.LFB57
 11884 0084 22000000 		.4byte	.LFE57
 11885 0088 00000000 		.4byte	.LFB58
 11886 008c 2E000000 		.4byte	.LFE58
 11887 0090 00000000 		.4byte	.LFB59
 11888 0094 2E000000 		.4byte	.LFE59
ARM GAS  C:\Users\tmj32\AppData\Local\Temp\ccFKuFvs.s 			page 240


 11889 0098 00000000 		.4byte	.LFB60
 11890 009c 60000000 		.4byte	.LFE60
 11891 00a0 00000000 		.4byte	.LFB61
 11892 00a4 60000000 		.4byte	.LFE61
 11893 00a8 00000000 		.4byte	.LFB62
 11894 00ac 6C000000 		.4byte	.LFE62
 11895 00b0 00000000 		.4byte	.LFB63
 11896 00b4 D6000000 		.4byte	.LFE63
 11897 00b8 00000000 		.4byte	.LFB64
 11898 00bc 28000000 		.4byte	.LFE64
 11899 00c0 00000000 		.4byte	.LFB65
 11900 00c4 A8030000 		.4byte	.LFE65
 11901 00c8 00000000 		.4byte	.LFB66
 11902 00cc 7C000000 		.4byte	.LFE66
 11903 00d0 00000000 		.4byte	.LFB67
 11904 00d4 7C000000 		.4byte	.LFE67
 11905 00d8 00000000 		.4byte	.LFB68
 11906 00dc 84000000 		.4byte	.LFE68
 11907 00e0 00000000 		.4byte	.LFB69
 11908 00e4 EC040000 		.4byte	.LFE69
 11909 00e8 00000000 		.4byte	.LFB70
 11910 00ec 58000000 		.4byte	.LFE70
 11911 00f0 00000000 		.4byte	.LFB71
 11912 00f4 38040000 		.4byte	.LFE71
 11913 00f8 00000000 		.4byte	.LFB72
 11914 00fc 4E070000 		.4byte	.LFE72
 11915 0100 00000000 		.4byte	.LFB73
 11916 0104 6E000000 		.4byte	.LFE73
 11917 0108 00000000 		.4byte	.LFB74
 11918 010c F6050000 		.4byte	.LFE74
 11919 0110 00000000 		.4byte	.LFB75
 11920 0114 28000000 		.4byte	.LFE75
 11921 0118 00000000 		.4byte	.LFB76
 11922 011c 5E000000 		.4byte	.LFE76
 11923 0120 00000000 		.4byte	0
 11924 0124 00000000 		.4byte	0
 11925              		.section	.debug_line,"",%progbits
 11926              	.Ldebug_line0:
 11927 0000 110C0000 		.section	.debug_str,"MS",%progbits,1
 11927      0200B704 
 11927      00000201 
 11927      FB0E0D00 
 11927      01010101 
 11928              	.LASF15:
 11929 0000 696E7438 		.ascii	"int8_t\000"
 11929      5F7400
 11930              	.LASF144:
 11931 0007 636F6C6F 		.ascii	"color_chroma_key\000"
 11931      725F6368 
 11931      726F6D61 
 11931      5F6B6579 
 11931      00
 11932              	.LASF113:
 11933 0018 6C765F6C 		.ascii	"lv_ll_node_t\000"
 11933      6C5F6E6F 
 11933      64655F74 
 11933      00
ARM GAS  C:\Users\tmj32\AppData\Local\Temp\ccFKuFvs.s 			page 241


 11934              	.LASF23:
 11935 0025 6164765F 		.ascii	"adv_w\000"
 11935      7700
 11936              	.LASF360:
 11937 002b 68656164 		.ascii	"header_pr\000"
 11937      65725F70 
 11937      7200
 11938              	.LASF55:
 11939 0035 73697A65 		.ascii	"sizetype\000"
 11939      74797065 
 11939      00
 11940              	.LASF304:
 11941 003e 4C565F4B 		.ascii	"LV_KEY_RIGHT\000"
 11941      45595F52 
 11941      49474854 
 11941      00
 11942              	.LASF69:
 11943 004b 73746172 		.ascii	"start\000"
 11943      7400
 11944              	.LASF455:
 11945 0051 6368696C 		.ascii	"child\000"
 11945      6400
 11946              	.LASF52:
 11947 0057 6C765F63 		.ascii	"lv_color32_t\000"
 11947      6F6C6F72 
 11947      33325F74 
 11947      00
 11948              	.LASF367:
 11949 0064 63656C6C 		.ascii	"cell\000"
 11949      00
 11950              	.LASF60:
 11951 0069 4C565F41 		.ascii	"LV_ANIM_ON\000"
 11951      4E494D5F 
 11951      4F4E00
 11952              	.LASF116:
 11953 0074 7461696C 		.ascii	"tail\000"
 11953      00
 11954              	.LASF286:
 11955 0079 4C565F50 		.ascii	"LV_PROTECT_POS\000"
 11955      524F5445 
 11955      43545F50 
 11955      4F5300
 11956              	.LASF489:
 11957 0088 6C765F73 		.ascii	"lv_style_pretty_color\000"
 11957      74796C65 
 11957      5F707265 
 11957      7474795F 
 11957      636F6C6F 
 11958              	.LASF255:
 11959 009e 4C565F53 		.ascii	"LV_SIGNAL_STYLE_CHG\000"
 11959      49474E41 
 11959      4C5F5354 
 11959      594C455F 
 11959      43484700 
 11960              	.LASF150:
 11961 00b2 6163745F 		.ascii	"act_scr\000"
 11961      73637200 
ARM GAS  C:\Users\tmj32\AppData\Local\Temp\ccFKuFvs.s 			page 242


 11962              	.LASF76:
 11963 00ba 72657065 		.ascii	"repeat\000"
 11963      617400
 11964              	.LASF54:
 11965 00c1 6C765F6F 		.ascii	"lv_opa_t\000"
 11965      70615F74 
 11965      00
 11966              	.LASF19:
 11967 00ca 696E7433 		.ascii	"int32_t\000"
 11967      325F7400 
 11968              	.LASF102:
 11969 00d2 696E7465 		.ascii	"intense\000"
 11969      6E736500 
 11970              	.LASF413:
 11971 00da 6C765F70 		.ascii	"lv_page_get_edge_flash\000"
 11971      6167655F 
 11971      6765745F 
 11971      65646765 
 11971      5F666C61 
 11972              	.LASF346:
 11973 00f1 4C565F50 		.ascii	"LV_PAGE_STYLE_EDGE_FLASH\000"
 11973      4147455F 
 11973      5354594C 
 11973      455F4544 
 11973      47455F46 
 11974              	.LASF437:
 11975 010a 7363726C 		.ascii	"scrlable_x\000"
 11975      61626C65 
 11975      5F7800
 11976              	.LASF244:
 11977 0115 4C565F45 		.ascii	"LV_EVENT_INSERT\000"
 11977      56454E54 
 11977      5F494E53 
 11977      45525400 
 11978              	.LASF431:
 11979 0125 7363726C 		.ascii	"scrlable_y\000"
 11979      61626C65 
 11979      5F7900
 11980              	.LASF57:
 11981 0130 6C765F70 		.ascii	"lv_point_t\000"
 11981      6F696E74 
 11981      5F7400
 11982              	.LASF374:
 11983 013b 6C6D6574 		.ascii	"lmeter\000"
 11983      657200
 11984              	.LASF263:
 11985 0142 4C565F53 		.ascii	"LV_SIGNAL_LONG_PRESS\000"
 11985      49474E41 
 11985      4C5F4C4F 
 11985      4E475F50 
 11985      52455353 
 11986              	.LASF94:
 11987 0157 72616469 		.ascii	"radius\000"
 11987      757300
 11988              	.LASF280:
 11989 015e 6C765F72 		.ascii	"lv_reailgn_t\000"
 11989      6561696C 
ARM GAS  C:\Users\tmj32\AppData\Local\Temp\ccFKuFvs.s 			page 243


 11989      676E5F74 
 11989      00
 11990              	.LASF31:
 11991 016b 6C696E65 		.ascii	"line_height\000"
 11991      5F686569 
 11991      67687400 
 11992              	.LASF67:
 11993 0177 70617468 		.ascii	"path_cb\000"
 11993      5F636200 
 11994              	.LASF165:
 11995 017f 636C6963 		.ascii	"click\000"
 11995      6B00
 11996              	.LASF273:
 11997 0185 6C765F61 		.ascii	"lv_align_t\000"
 11997      6C69676E 
 11997      5F7400
 11998              	.LASF265:
 11999 0190 4C565F53 		.ascii	"LV_SIGNAL_DRAG_BEGIN\000"
 11999      49474E41 
 11999      4C5F4452 
 11999      41475F42 
 11999      4547494E 
 12000              	.LASF362:
 12001 01a5 68696768 		.ascii	"highlighted_days\000"
 12001      6C696768 
 12001      7465645F 
 12001      64617973 
 12001      00
 12002              	.LASF450:
 12003 01b6 666C6173 		.ascii	"flash_style\000"
 12003      685F7374 
 12003      796C6500 
 12004              	.LASF453:
 12005 01c2 7369676E 		.ascii	"sign\000"
 12005      00
 12006              	.LASF249:
 12007 01c7 6C765F65 		.ascii	"lv_event_t\000"
 12007      76656E74 
 12007      5F7400
 12008              	.LASF184:
 12009 01d2 73746174 		.ascii	"state\000"
 12009      6500
 12010              	.LASF319:
 12011 01d8 4C565F53 		.ascii	"LV_SB_MODE_UNHIDE\000"
 12011      425F4D4F 
 12011      44455F55 
 12011      4E484944 
 12011      4500
 12012              	.LASF309:
 12013 01ea 4C565F4B 		.ascii	"LV_KEY_ENTER\000"
 12013      45595F45 
 12013      4E544552 
 12013      00
 12014              	.LASF110:
 12015 01f7 4C565F52 		.ascii	"LV_RES_INV\000"
 12015      45535F49 
 12015      4E5600
ARM GAS  C:\Users\tmj32\AppData\Local\Temp\ccFKuFvs.s 			page 244


 12016              	.LASF259:
 12017 0202 4C565F53 		.ascii	"LV_SIGNAL_PRESSED\000"
 12017      49474E41 
 12017      4C5F5052 
 12017      45535345 
 12017      4400
 12018              	.LASF87:
 12019 0214 74797065 		.ascii	"type\000"
 12019      00
 12020              	.LASF233:
 12021 0219 4C565F45 		.ascii	"LV_EVENT_LONG_PRESSED\000"
 12021      56454E54 
 12021      5F4C4F4E 
 12021      475F5052 
 12021      45535345 
 12022              	.LASF404:
 12023 022f 6C765F70 		.ascii	"lv_page_set_anim_time\000"
 12023      6167655F 
 12023      7365745F 
 12023      616E696D 
 12023      5F74696D 
 12024              	.LASF290:
 12025 0245 4C565F46 		.ascii	"LV_FIT_NONE\000"
 12025      49545F4E 
 12025      4F4E4500 
 12026              	.LASF330:
 12027 0251 7665725F 		.ascii	"ver_draw\000"
 12027      64726177 
 12027      00
 12028              	.LASF352:
 12029 025a 6C696768 		.ascii	"light\000"
 12029      7400
 12030              	.LASF186:
 12031 0260 5F6C765F 		.ascii	"_lv_indev_drv_t\000"
 12031      696E6465 
 12031      765F6472 
 12031      765F7400 
 12032              	.LASF370:
 12033 0270 636F6E74 		.ascii	"cont\000"
 12033      00
 12034              	.LASF350:
 12035 0275 7072696D 		.ascii	"prim\000"
 12035      00
 12036              	.LASF125:
 12037 027a 7072696F 		.ascii	"prio\000"
 12037      00
 12038              	.LASF149:
 12039 027f 7363725F 		.ascii	"scr_ll\000"
 12039      6C6C00
 12040              	.LASF181:
 12041 0286 706F696E 		.ascii	"point\000"
 12041      7400
 12042              	.LASF232:
 12043 028c 4C565F45 		.ascii	"LV_EVENT_SHORT_CLICKED\000"
 12043      56454E54 
 12043      5F53484F 
 12043      52545F43 
ARM GAS  C:\Users\tmj32\AppData\Local\Temp\ccFKuFvs.s 			page 245


 12043      4C49434B 
 12044              	.LASF1:
 12045 02a3 5F5F7569 		.ascii	"__uint8_t\000"
 12045      6E74385F 
 12045      7400
 12046              	.LASF50:
 12047 02ad 616C7068 		.ascii	"alpha\000"
 12047      6100
 12048              	.LASF137:
 12049 02b3 7665725F 		.ascii	"ver_res\000"
 12049      72657300 
 12050              	.LASF218:
 12051 02bb 5F6C765F 		.ascii	"_lv_indev_t\000"
 12051      696E6465 
 12051      765F7400 
 12052              	.LASF169:
 12053 02c7 68696464 		.ascii	"hidden\000"
 12053      656E00
 12054              	.LASF73:
 12055 02ce 72657065 		.ascii	"repeat_pause\000"
 12055      61745F70 
 12055      61757365 
 12055      00
 12056              	.LASF156:
 12057 02db 6C617374 		.ascii	"last_activity_time\000"
 12057      5F616374 
 12057      69766974 
 12057      795F7469 
 12057      6D6500
 12058              	.LASF9:
 12059 02ee 6C6F6E67 		.ascii	"long int\000"
 12059      20696E74 
 12059      00
 12060              	.LASF148:
 12061 02f7 72656672 		.ascii	"refr_task\000"
 12061      5F746173 
 12061      6B00
 12062              	.LASF139:
 12063 0301 726F7461 		.ascii	"rotated\000"
 12063      74656400 
 12064              	.LASF205:
 12065 0309 6C617374 		.ascii	"last_state\000"
 12065      5F737461 
 12065      746500
 12066              	.LASF462:
 12067 0314 72656672 		.ascii	"refr_x\000"
 12067      5F7800
 12068              	.LASF387:
 12069 031b 74696C65 		.ascii	"tileview\000"
 12069      76696577 
 12069      00
 12070              	.LASF307:
 12071 0324 4C565F4B 		.ascii	"LV_KEY_DEL\000"
 12071      45595F44 
 12071      454C00
 12072              	.LASF398:
 12073 032f 636F7079 		.ascii	"copy\000"
ARM GAS  C:\Users\tmj32\AppData\Local\Temp\ccFKuFvs.s 			page 246


 12073      00
 12074              	.LASF391:
 12075 0334 61726561 		.ascii	"area_p\000"
 12075      5F7000
 12076              	.LASF406:
 12077 033b 6C765F70 		.ascii	"lv_page_set_edge_flash\000"
 12077      6167655F 
 12077      7365745F 
 12077      65646765 
 12077      5F666C61 
 12078              	.LASF403:
 12079 0352 73625F6D 		.ascii	"sb_mode\000"
 12079      6F646500 
 12080              	.LASF115:
 12081 035a 68656164 		.ascii	"head\000"
 12081      00
 12082              	.LASF491:
 12083 035f 2E2E5C2E 		.ascii	"..\\..\\..\\lvgl\\version_6.1.2\\lvgl\\src\\lv_objx"
 12083      2E5C2E2E 
 12083      5C6C7667 
 12083      6C5C7665 
 12083      7273696F 
 12084 038b 5C6C765F 		.ascii	"\\lv_page.c\000"
 12084      70616765 
 12084      2E6300
 12085              	.LASF187:
 12086 0396 72656164 		.ascii	"read_cb\000"
 12086      5F636200 
 12087              	.LASF377:
 12088 039e 63686172 		.ascii	"chart\000"
 12088      7400
 12089              	.LASF202:
 12090 03a4 6C617374 		.ascii	"last_pressed\000"
 12090      5F707265 
 12090      73736564 
 12090      00
 12091              	.LASF379:
 12092 03b1 62746E6D 		.ascii	"btnm\000"
 12092      00
 12093              	.LASF476:
 12094 03b6 6C765F70 		.ascii	"lv_page_sb_refresh\000"
 12094      6167655F 
 12094      73625F72 
 12094      65667265 
 12094      736800
 12095              	.LASF340:
 12096 03c9 7363726F 		.ascii	"scroll_prop\000"
 12096      6C6C5F70 
 12096      726F7000 
 12097              	.LASF305:
 12098 03d5 4C565F4B 		.ascii	"LV_KEY_LEFT\000"
 12098      45595F4C 
 12098      45465400 
 12099              	.LASF142:
 12100 03e1 7365745F 		.ascii	"set_px_cb\000"
 12100      70785F63 
 12100      6200
ARM GAS  C:\Users\tmj32\AppData\Local\Temp\ccFKuFvs.s 			page 247


 12101              	.LASF2:
 12102 03eb 7369676E 		.ascii	"signed char\000"
 12102      65642063 
 12102      68617200 
 12103              	.LASF16:
 12104 03f7 75696E74 		.ascii	"uint8_t\000"
 12104      385F7400 
 12105              	.LASF136:
 12106 03ff 686F725F 		.ascii	"hor_res\000"
 12106      72657300 
 12107              	.LASF365:
 12108 0407 746F6461 		.ascii	"today_box\000"
 12108      795F626F 
 12108      7800
 12109              	.LASF318:
 12110 0411 4C565F53 		.ascii	"LV_SB_MODE_HIDE\000"
 12110      425F4D4F 
 12110      44455F48 
 12110      49444500 
 12111              	.LASF349:
 12112 0421 74676C5F 		.ascii	"tgl_pr\000"
 12112      707200
 12113              	.LASF59:
 12114 0428 4C565F41 		.ascii	"LV_ANIM_OFF\000"
 12114      4E494D5F 
 12114      4F464600 
 12115              	.LASF299:
 12116 0434 6669745F 		.ascii	"fit_top\000"
 12116      746F7000 
 12117              	.LASF30:
 12118 043c 6765745F 		.ascii	"get_glyph_bitmap\000"
 12118      676C7970 
 12118      685F6269 
 12118      746D6170 
 12118      00
 12119              	.LASF337:
 12120 044d 7363726C 		.ascii	"scrl\000"
 12120      00
 12121              	.LASF48:
 12122 0452 626C7565 		.ascii	"blue\000"
 12122      00
 12123              	.LASF264:
 12124 0457 4C565F53 		.ascii	"LV_SIGNAL_LONG_PRESS_REP\000"
 12124      49474E41 
 12124      4C5F4C4F 
 12124      4E475F50 
 12124      52455353 
 12125              	.LASF444:
 12126 0470 6C765F70 		.ascii	"lv_page_start_edge_flash\000"
 12126      6167655F 
 12126      73746172 
 12126      745F6564 
 12126      67655F66 
 12127              	.LASF3:
 12128 0489 756E7369 		.ascii	"unsigned char\000"
 12128      676E6564 
 12128      20636861 
ARM GAS  C:\Users\tmj32\AppData\Local\Temp\ccFKuFvs.s 			page 248


 12128      7200
 12129              	.LASF151:
 12130 0497 746F705F 		.ascii	"top_layer\000"
 12130      6C617965 
 12130      7200
 12131              	.LASF257:
 12132 04a1 4C565F53 		.ascii	"LV_SIGNAL_REFR_EXT_DRAW_PAD\000"
 12132      49474E41 
 12132      4C5F5245 
 12132      46525F45 
 12132      58545F44 
 12133              	.LASF172:
 12134 04bd 64726167 		.ascii	"drag_dir\000"
 12134      5F646972 
 12134      00
 12135              	.LASF285:
 12136 04c6 4C565F50 		.ascii	"LV_PROTECT_PARENT\000"
 12136      524F5445 
 12136      43545F50 
 12136      4152454E 
 12136      5400
 12137              	.LASF123:
 12138 04d8 7461736B 		.ascii	"task_cb\000"
 12138      5F636200 
 12139              	.LASF358:
 12140 04e0 6B6E6F62 		.ascii	"knob_on\000"
 12140      5F6F6E00 
 12141              	.LASF26:
 12142 04e8 6F66735F 		.ascii	"ofs_x\000"
 12142      7800
 12143              	.LASF27:
 12144 04ee 6F66735F 		.ascii	"ofs_y\000"
 12144      7900
 12145              	.LASF308:
 12146 04f4 4C565F4B 		.ascii	"LV_KEY_BACKSPACE\000"
 12146      45595F42 
 12146      41434B53 
 12146      50414345 
 12146      00
 12147              	.LASF359:
 12148 0505 68656164 		.ascii	"header\000"
 12148      657200
 12149              	.LASF33:
 12150 050c 5F426F6F 		.ascii	"_Bool\000"
 12150      6C00
 12151              	.LASF272:
 12152 0512 6C765F73 		.ascii	"lv_signal_cb_t\000"
 12152      69676E61 
 12152      6C5F6362 
 12152      5F7400
 12153              	.LASF466:
 12154 0521 64696666 		.ascii	"diff_y\000"
 12154      5F7900
 12155              	.LASF388:
 12156 0528 7461626C 		.ascii	"table\000"
 12156      6500
 12157              	.LASF154:
ARM GAS  C:\Users\tmj32\AppData\Local\Temp\ccFKuFvs.s 			page 249


 12158 052e 696E765F 		.ascii	"inv_area_joined\000"
 12158      61726561 
 12158      5F6A6F69 
 12158      6E656400 
 12159              	.LASF417:
 12160 053e 6C765F70 		.ascii	"lv_page_get_fit_height\000"
 12160      6167655F 
 12160      6765745F 
 12160      6669745F 
 12160      68656967 
 12161              	.LASF342:
 12162 0555 6C765F70 		.ascii	"lv_page_ext_t\000"
 12162      6167655F 
 12162      6578745F 
 12162      7400
 12163              	.LASF56:
 12164 0563 63686172 		.ascii	"char\000"
 12164      00
 12165              	.LASF182:
 12166 0568 62746E5F 		.ascii	"btn_id\000"
 12166      696400
 12167              	.LASF473:
 12168 056f 6C765F61 		.ascii	"lv_area_copy\000"
 12168      7265615F 
 12168      636F7079 
 12168      00
 12169              	.LASF63:
 12170 057c 6C765F61 		.ascii	"lv_anim_exec_xcb_t\000"
 12170      6E696D5F 
 12170      65786563 
 12170      5F786362 
 12170      5F7400
 12171              	.LASF433:
 12172 058f 746F705F 		.ascii	"top_err\000"
 12172      65727200 
 12173              	.LASF225:
 12174 0597 4C565F44 		.ascii	"LV_DESIGN_DRAW_POST\000"
 12174      45534947 
 12174      4E5F4452 
 12174      41575F50 
 12174      4F535400 
 12175              	.LASF105:
 12176 05ab 626F6479 		.ascii	"body\000"
 12176      00
 12177              	.LASF339:
 12178 05b0 616E696D 		.ascii	"anim_time\000"
 12178      5F74696D 
 12178      6500
 12179              	.LASF199:
 12180 05ba 64726167 		.ascii	"drag_throw_vect\000"
 12180      5F746872 
 12180      6F775F76 
 12180      65637400 
 12181              	.LASF412:
 12182 05ca 6C765F70 		.ascii	"lv_page_get_scroll_propagation\000"
 12182      6167655F 
 12182      6765745F 
ARM GAS  C:\Users\tmj32\AppData\Local\Temp\ccFKuFvs.s 			page 250


 12182      7363726F 
 12182      6C6C5F70 
 12183              	.LASF336:
 12184 05e9 6C656674 		.ascii	"left_ip\000"
 12184      5F697000 
 12185              	.LASF449:
 12186 05f1 666C6173 		.ascii	"flash_area\000"
 12186      685F6172 
 12186      656100
 12187              	.LASF120:
 12188 05fc 5F6C765F 		.ascii	"_lv_task_t\000"
 12188      7461736B 
 12188      5F7400
 12189              	.LASF6:
 12190 0607 5F5F7569 		.ascii	"__uint16_t\000"
 12190      6E743136 
 12190      5F7400
 12191              	.LASF364:
 12192 0612 7765656B 		.ascii	"week_box\000"
 12192      5F626F78 
 12192      00
 12193              	.LASF317:
 12194 061b 4C565F53 		.ascii	"LV_SB_MODE_AUTO\000"
 12194      425F4D4F 
 12194      44455F41 
 12194      55544F00 
 12195              	.LASF62:
 12196 062b 6C765F61 		.ascii	"lv_anim_value_t\000"
 12196      6E696D5F 
 12196      76616C75 
 12196      655F7400 
 12197              	.LASF347:
 12198 063b 6C765F70 		.ascii	"lv_page_style_t\000"
 12198      6167655F 
 12198      7374796C 
 12198      655F7400 
 12199              	.LASF226:
 12200 064b 4C565F44 		.ascii	"LV_DESIGN_COVER_CHK\000"
 12200      45534947 
 12200      4E5F434F 
 12200      5645525F 
 12200      43484B00 
 12201              	.LASF486:
 12202 065f 6C765F73 		.ascii	"lv_style_transp\000"
 12202      74796C65 
 12202      5F747261 
 12202      6E737000 
 12203              	.LASF219:
 12204 066f 70726F63 		.ascii	"proc\000"
 12204      00
 12205              	.LASF419:
 12206 0674 6C765F70 		.ascii	"lv_page_on_edge\000"
 12206      6167655F 
 12206      6F6E5F65 
 12206      64676500 
 12207              	.LASF479:
 12208 0684 7363726C 		.ascii	"scrl_h\000"
ARM GAS  C:\Users\tmj32\AppData\Local\Temp\ccFKuFvs.s 			page 251


 12208      5F6800
 12209              	.LASF162:
 12210 068b 64657369 		.ascii	"design_cb\000"
 12210      676E5F63 
 12210      6200
 12211              	.LASF478:
 12212 0695 7363726C 		.ascii	"scrl_w\000"
 12212      5F7700
 12213              	.LASF250:
 12214 069c 6C765F65 		.ascii	"lv_event_cb_t\000"
 12214      76656E74 
 12214      5F63625F 
 12214      7400
 12215              	.LASF133:
 12216 06aa 666C7573 		.ascii	"flushing\000"
 12216      68696E67 
 12216      00
 12217              	.LASF268:
 12218 06b3 4C565F53 		.ascii	"LV_SIGNAL_DEFOCUS\000"
 12218      49474E41 
 12218      4C5F4445 
 12218      464F4355 
 12218      5300
 12219              	.LASF241:
 12220 06c5 4C565F45 		.ascii	"LV_EVENT_FOCUSED\000"
 12220      56454E54 
 12220      5F464F43 
 12220      55534544 
 12220      00
 12221              	.LASF384:
 12222 06d6 64646C69 		.ascii	"ddlist\000"
 12222      737400
 12223              	.LASF68:
 12224 06dd 72656164 		.ascii	"ready_cb\000"
 12224      795F6362 
 12224      00
 12225              	.LASF106:
 12226 06e6 74657874 		.ascii	"text\000"
 12226      00
 12227              	.LASF207:
 12228 06eb 706F696E 		.ascii	"pointer\000"
 12228      74657200 
 12229              	.LASF407:
 12230 06f3 6C765F70 		.ascii	"lv_page_set_style\000"
 12230      6167655F 
 12230      7365745F 
 12230      7374796C 
 12230      6500
 12231              	.LASF237:
 12232 0705 4C565F45 		.ascii	"LV_EVENT_DRAG_BEGIN\000"
 12232      56454E54 
 12232      5F445241 
 12232      475F4245 
 12232      47494E00 
 12233              	.LASF483:
 12234 0719 65646765 		.ascii	"edge_flash_anim_end\000"
 12234      5F666C61 
ARM GAS  C:\Users\tmj32\AppData\Local\Temp\ccFKuFvs.s 			page 252


 12234      73685F61 
 12234      6E696D5F 
 12234      656E6400 
 12235              	.LASF107:
 12236 072d 696D6167 		.ascii	"image\000"
 12236      6500
 12237              	.LASF103:
 12238 0733 726F756E 		.ascii	"rounded\000"
 12238      64656400 
 12239              	.LASF167:
 12240 073b 64726167 		.ascii	"drag_throw\000"
 12240      5F746872 
 12240      6F7700
 12241              	.LASF429:
 12242 0746 6F626A5F 		.ascii	"obj_y\000"
 12242      7900
 12243              	.LASF180:
 12244 074c 6C765F69 		.ascii	"lv_indev_state_t\000"
 12244      6E646576 
 12244      5F737461 
 12244      74655F74 
 12244      00
 12245              	.LASF118:
 12246 075d 6C765F62 		.ascii	"lv_bidi_dir_t\000"
 12246      6964695F 
 12246      6469725F 
 12246      7400
 12247              	.LASF177:
 12248 076b 6578745F 		.ascii	"ext_draw_pad\000"
 12248      64726177 
 12248      5F706164 
 12248      00
 12249              	.LASF193:
 12250 0778 6C6F6E67 		.ascii	"long_press_rep_time\000"
 12250      5F707265 
 12250      73735F72 
 12250      65705F74 
 12250      696D6500 
 12251              	.LASF58:
 12252 078c 6C765F61 		.ascii	"lv_area_t\000"
 12252      7265615F 
 12252      7400
 12253              	.LASF287:
 12254 0796 4C565F50 		.ascii	"LV_PROTECT_FOLLOW\000"
 12254      524F5445 
 12254      43545F46 
 12254      4F4C4C4F 
 12254      5700
 12255              	.LASF138:
 12256 07a8 62756666 		.ascii	"buffer\000"
 12256      657200
 12257              	.LASF430:
 12258 07af 6F626A5F 		.ascii	"obj_h\000"
 12258      6800
 12259              	.LASF469:
 12260 07b5 70616765 		.ascii	"page_parent\000"
 12260      5F706172 
ARM GAS  C:\Users\tmj32\AppData\Local\Temp\ccFKuFvs.s 			page 253


 12260      656E7400 
 12261              	.LASF345:
 12262 07c1 4C565F50 		.ascii	"LV_PAGE_STYLE_SB\000"
 12262      4147455F 
 12262      5354594C 
 12262      455F5342 
 12262      00
 12263              	.LASF235:
 12264 07d2 4C565F45 		.ascii	"LV_EVENT_CLICKED\000"
 12264      56454E54 
 12264      5F434C49 
 12264      434B4544 
 12264      00
 12265              	.LASF329:
 12266 07e3 686F725F 		.ascii	"hor_draw\000"
 12266      64726177 
 12266      00
 12267              	.LASF459:
 12268 07ec 70616765 		.ascii	"page_ext\000"
 12268      5F657874 
 12268      00
 12269              	.LASF89:
 12270 07f5 6C656674 		.ascii	"left\000"
 12270      00
 12271              	.LASF389:
 12272 07fa 6C765F74 		.ascii	"lv_theme_t\000"
 12272      68656D65 
 12272      5F7400
 12273              	.LASF80:
 12274 0805 6C765F61 		.ascii	"lv_anim_ready_cb_t\000"
 12274      6E696D5F 
 12274      72656164 
 12274      795F6362 
 12274      5F7400
 12275              	.LASF246:
 12276 0818 4C565F45 		.ascii	"LV_EVENT_APPLY\000"
 12276      56454E54 
 12276      5F415050 
 12276      4C5900
 12277              	.LASF178:
 12278 0827 7265616C 		.ascii	"realign\000"
 12278      69676E00 
 12279              	.LASF239:
 12280 082f 4C565F45 		.ascii	"LV_EVENT_DRAG_THROW_BEGIN\000"
 12280      56454E54 
 12280      5F445241 
 12280      475F5448 
 12280      524F575F 
 12281              	.LASF223:
 12282 0849 6C765F69 		.ascii	"lv_indev_t\000"
 12282      6E646576 
 12282      5F7400
 12283              	.LASF222:
 12284 0854 62746E5F 		.ascii	"btn_points\000"
 12284      706F696E 
 12284      747300
 12285              	.LASF395:
ARM GAS  C:\Users\tmj32\AppData\Local\Temp\ccFKuFvs.s 			page 254


 12286 085f 6C765F70 		.ascii	"lv_page_get_scrl_fit_left\000"
 12286      6167655F 
 12286      6765745F 
 12286      7363726C 
 12286      5F666974 
 12287              	.LASF258:
 12288 0879 4C565F53 		.ascii	"LV_SIGNAL_GET_TYPE\000"
 12288      49474E41 
 12288      4C5F4745 
 12288      545F5459 
 12288      504500
 12289              	.LASF216:
 12290 088c 77616974 		.ascii	"wait_until_release\000"
 12290      5F756E74 
 12290      696C5F72 
 12290      656C6561 
 12290      736500
 12291              	.LASF324:
 12292 089f 4C565F50 		.ascii	"LV_PAGE_EDGE_BOTTOM\000"
 12292      4147455F 
 12292      45444745 
 12292      5F424F54 
 12292      544F4D00 
 12293              	.LASF132:
 12294 08b3 61726561 		.ascii	"area\000"
 12294      00
 12295              	.LASF341:
 12296 08b8 7363726F 		.ascii	"scroll_prop_ip\000"
 12296      6C6C5F70 
 12296      726F705F 
 12296      697000
 12297              	.LASF467:
 12298 08c7 68706164 		.ascii	"hpad\000"
 12298      00
 12299              	.LASF206:
 12300 08cc 6C617374 		.ascii	"last_key\000"
 12300      5F6B6579 
 12300      00
 12301              	.LASF332:
 12302 08d5 656E6162 		.ascii	"enabled\000"
 12302      6C656400 
 12303              	.LASF109:
 12304 08dd 6C765F73 		.ascii	"lv_style_t\000"
 12304      74796C65 
 12304      5F7400
 12305              	.LASF91:
 12306 08e8 696E6E65 		.ascii	"inner\000"
 12306      7200
 12307              	.LASF465:
 12308 08ee 64696666 		.ascii	"diff_x\000"
 12308      5F7800
 12309              	.LASF215:
 12310 08f5 64697361 		.ascii	"disabled\000"
 12310      626C6564 
 12310      00
 12311              	.LASF436:
 12312 08fe 6F626A5F 		.ascii	"obj_w\000"
ARM GAS  C:\Users\tmj32\AppData\Local\Temp\ccFKuFvs.s 			page 255


 12312      7700
 12313              	.LASF435:
 12314 0904 6F626A5F 		.ascii	"obj_x\000"
 12314      7800
 12315              	.LASF81:
 12316 090a 6C765F61 		.ascii	"lv_anim_t\000"
 12316      6E696D5F 
 12316      7400
 12317              	.LASF292:
 12318 0914 4C565F46 		.ascii	"LV_FIT_FLOOD\000"
 12318      49545F46 
 12318      4C4F4F44 
 12318      00
 12319              	.LASF11:
 12320 0921 6C6F6E67 		.ascii	"long unsigned int\000"
 12320      20756E73 
 12320      69676E65 
 12320      6420696E 
 12320      7400
 12321              	.LASF312:
 12322 0933 4C565F4B 		.ascii	"LV_KEY_HOME\000"
 12322      45595F48 
 12322      4F4D4500 
 12323              	.LASF351:
 12324 093f 68696E74 		.ascii	"hint\000"
 12324      00
 12325              	.LASF454:
 12326 0944 70617261 		.ascii	"param\000"
 12326      6D00
 12327              	.LASF434:
 12328 094a 626F745F 		.ascii	"bot_err\000"
 12328      65727200 
 12329              	.LASF457:
 12330 0952 65646974 		.ascii	"editable\000"
 12330      61626C65 
 12330      00
 12331              	.LASF108:
 12332 095b 6C696E65 		.ascii	"line\000"
 12332      00
 12333              	.LASF267:
 12334 0960 4C565F53 		.ascii	"LV_SIGNAL_FOCUS\000"
 12334      49474E41 
 12334      4C5F464F 
 12334      43555300 
 12335              	.LASF36:
 12336 0970 4C565F4F 		.ascii	"LV_OPA_0\000"
 12336      50415F30 
 12336      00
 12337              	.LASF373:
 12338 0979 736C6964 		.ascii	"slider\000"
 12338      657200
 12339              	.LASF394:
 12340 0980 6C765F70 		.ascii	"lv_page_get_scrl_width\000"
 12340      6167655F 
 12340      6765745F 
 12340      7363726C 
 12340      5F776964 
ARM GAS  C:\Users\tmj32\AppData\Local\Temp\ccFKuFvs.s 			page 256


 12341              	.LASF245:
 12342 0997 4C565F45 		.ascii	"LV_EVENT_REFRESH\000"
 12342      56454E54 
 12342      5F524546 
 12342      52455348 
 12342      00
 12343              	.LASF61:
 12344 09a8 6C765F61 		.ascii	"lv_anim_enable_t\000"
 12344      6E696D5F 
 12344      656E6162 
 12344      6C655F74 
 12344      00
 12345              	.LASF135:
 12346 09b9 5F646973 		.ascii	"_disp_drv_t\000"
 12346      705F6472 
 12346      765F7400 
 12347              	.LASF221:
 12348 09c5 67726F75 		.ascii	"group\000"
 12348      7000
 12349              	.LASF423:
 12350 09cb 7363726C 		.ascii	"scrl_coords\000"
 12350      5F636F6F 
 12350      72647300 
 12351              	.LASF195:
 12352 09d7 6163745F 		.ascii	"act_point\000"
 12352      706F696E 
 12352      7400
 12353              	.LASF428:
 12354 09e1 7374796C 		.ascii	"style_scrl\000"
 12354      655F7363 
 12354      726C00
 12355              	.LASF201:
 12356 09ec 6C617374 		.ascii	"last_obj\000"
 12356      5F6F626A 
 12356      00
 12357              	.LASF179:
 12358 09f5 6C765F69 		.ascii	"lv_indev_type_t\000"
 12358      6E646576 
 12358      5F747970 
 12358      655F7400 
 12359              	.LASF270:
 12360 0a05 4C565F53 		.ascii	"LV_SIGNAL_GET_EDITABLE\000"
 12360      49474E41 
 12360      4C5F4745 
 12360      545F4544 
 12360      49544142 
 12361              	.LASF432:
 12362 0a1c 70616765 		.ascii	"page_h\000"
 12362      5F6800
 12363              	.LASF366:
 12364 0a23 6F6E656C 		.ascii	"oneline\000"
 12364      696E6500 
 12365              	.LASF134:
 12366 0a2b 6C765F64 		.ascii	"lv_disp_buf_t\000"
 12366      6973705F 
 12366      6275665F 
 12366      7400
ARM GAS  C:\Users\tmj32\AppData\Local\Temp\ccFKuFvs.s 			page 257


 12367              	.LASF438:
 12368 0a39 70616765 		.ascii	"page_w\000"
 12368      5F7700
 12369              	.LASF10:
 12370 0a40 5F5F7569 		.ascii	"__uint32_t\000"
 12370      6E743332 
 12370      5F7400
 12371              	.LASF160:
 12372 0a4b 6576656E 		.ascii	"event_cb\000"
 12372      745F6362 
 12372      00
 12373              	.LASF90:
 12374 0a54 72696768 		.ascii	"right\000"
 12374      7400
 12375              	.LASF164:
 12376 0a5a 7374796C 		.ascii	"style_p\000"
 12376      655F7000 
 12377              	.LASF12:
 12378 0a62 6C6F6E67 		.ascii	"long long int\000"
 12378      206C6F6E 
 12378      6720696E 
 12378      7400
 12379              	.LASF492:
 12380 0a70 433A5C55 		.ascii	"C:\\Users\\tmj32\\Documents\\TCNJ\\Senior_Project\\"
 12380      73657273 
 12380      5C746D6A 
 12380      33325C44 
 12380      6F63756D 
 12381 0a9d 4F736369 		.ascii	"Oscilloscope_Senior_Project\\tcom_engineering\\embe"
 12381      6C6C6F73 
 12381      636F7065 
 12381      5F53656E 
 12381      696F725F 
 12382 0ace 645F7377 		.ascii	"d_sw\\tcom_app\\tcom_app_psoc6_lvgl6\\tcom_displ_te"
 12382      5C74636F 
 12382      6D5F6170 
 12382      705C7463 
 12382      6F6D5F61 
 12383 0afe 73745F70 		.ascii	"st_psoc6.cydsn\000"
 12383      736F6336 
 12383      2E637964 
 12383      736E00
 12384              	.LASF325:
 12385 0b0d 6C765F70 		.ascii	"lv_page_edge_t\000"
 12385      6167655F 
 12385      65646765 
 12385      5F7400
 12386              	.LASF85:
 12387 0b1c 77696474 		.ascii	"width\000"
 12387      6800
 12388              	.LASF269:
 12389 0b22 4C565F53 		.ascii	"LV_SIGNAL_CONTROL\000"
 12389      49474E41 
 12389      4C5F434F 
 12389      4E54524F 
 12389      4C00
 12390              	.LASF88:
ARM GAS  C:\Users\tmj32\AppData\Local\Temp\ccFKuFvs.s 			page 258


 12391 0b34 626F7474 		.ascii	"bottom\000"
 12391      6F6D00
 12392              	.LASF158:
 12393 0b3b 6368696C 		.ascii	"child_ll\000"
 12393      645F6C6C 
 12393      00
 12394              	.LASF355:
 12395 0b44 696E6469 		.ascii	"indic\000"
 12395      6300
 12396              	.LASF175:
 12397 0b4a 70726F74 		.ascii	"protect\000"
 12397      65637400 
 12398              	.LASF128:
 12399 0b52 62756631 		.ascii	"buf1\000"
 12399      00
 12400              	.LASF129:
 12401 0b57 62756632 		.ascii	"buf2\000"
 12401      00
 12402              	.LASF314:
 12403 0b5c 4C565F53 		.ascii	"LV_SB_MODE_OFF\000"
 12403      425F4D4F 
 12403      44455F4F 
 12403      464600
 12404              	.LASF196:
 12405 0b6b 6C617374 		.ascii	"last_point\000"
 12405      5F706F69 
 12405      6E7400
 12406              	.LASF200:
 12407 0b76 6163745F 		.ascii	"act_obj\000"
 12407      6F626A00 
 12408              	.LASF296:
 12409 0b7e 6C61796F 		.ascii	"layout\000"
 12409      757400
 12410              	.LASF446:
 12411 0b85 6D61736B 		.ascii	"mask\000"
 12411      00
 12412              	.LASF386:
 12413 0b8a 74616276 		.ascii	"tabview\000"
 12413      69657700 
 12414              	.LASF171:
 12415 0b92 70617265 		.ascii	"parent_event\000"
 12415      6E745F65 
 12415      76656E74 
 12415      00
 12416              	.LASF251:
 12417 0b9f 4C565F53 		.ascii	"LV_SIGNAL_CLEANUP\000"
 12417      49474E41 
 12417      4C5F434C 
 12417      45414E55 
 12417      5000
 12418              	.LASF405:
 12419 0bb1 6C765F70 		.ascii	"lv_page_set_scroll_propagation\000"
 12419      6167655F 
 12419      7365745F 
 12419      7363726F 
 12419      6C6C5F70 
 12420              	.LASF440:
ARM GAS  C:\Users\tmj32\AppData\Local\Temp\ccFKuFvs.s 			page 259


 12421 0bd0 72696768 		.ascii	"right_err\000"
 12421      745F6572 
 12421      7200
 12422              	.LASF277:
 12423 0bda 616C6967 		.ascii	"align\000"
 12423      6E00
 12424              	.LASF35:
 12425 0be0 4C565F4F 		.ascii	"LV_OPA_TRANSP\000"
 12425      50415F54 
 12425      52414E53 
 12425      5000
 12426              	.LASF463:
 12427 0bee 72656672 		.ascii	"refr_y\000"
 12427      5F7900
 12428              	.LASF445:
 12429 0bf5 6C765F70 		.ascii	"lv_page_design\000"
 12429      6167655F 
 12429      64657369 
 12429      676E00
 12430              	.LASF104:
 12431 0c04 676C6173 		.ascii	"glass\000"
 12431      7300
 12432              	.LASF475:
 12433 0c0a 6576656E 		.ascii	"event\000"
 12433      7400
 12434              	.LASF416:
 12435 0c10 7363726C 		.ascii	"scrl_style\000"
 12435      5F737479 
 12435      6C6500
 12436              	.LASF401:
 12437 0c1b 6C765F70 		.ascii	"lv_page_clean\000"
 12437      6167655F 
 12437      636C6561 
 12437      6E00
 12438              	.LASF248:
 12439 0c29 4C565F45 		.ascii	"LV_EVENT_DELETE\000"
 12439      56454E54 
 12439      5F44454C 
 12439      45544500 
 12440              	.LASF301:
 12441 0c39 6C765F63 		.ascii	"lv_cont_ext_t\000"
 12441      6F6E745F 
 12441      6578745F 
 12441      7400
 12442              	.LASF14:
 12443 0c47 756E7369 		.ascii	"unsigned int\000"
 12443      676E6564 
 12443      20696E74 
 12443      00
 12444              	.LASF252:
 12445 0c54 4C565F53 		.ascii	"LV_SIGNAL_CHILD_CHG\000"
 12445      49474E41 
 12445      4C5F4348 
 12445      494C445F 
 12445      43484700 
 12446              	.LASF79:
 12447 0c68 6C765F61 		.ascii	"lv_anim_path_cb_t\000"
ARM GAS  C:\Users\tmj32\AppData\Local\Temp\ccFKuFvs.s 			page 260


 12447      6E696D5F 
 12447      70617468 
 12447      5F63625F 
 12447      7400
 12448              	.LASF189:
 12449 0c7a 64697370 		.ascii	"disp\000"
 12449      00
 12450              	.LASF442:
 12451 0c7f 64697374 		.ascii	"dist\000"
 12451      00
 12452              	.LASF477:
 12453 0c84 73697A65 		.ascii	"size_tmp\000"
 12453      5F746D70 
 12453      00
 12454              	.LASF397:
 12455 0c8d 6C765F70 		.ascii	"lv_page_get_scrl_fit_top\000"
 12455      6167655F 
 12455      6765745F 
 12455      7363726C 
 12455      5F666974 
 12456              	.LASF380:
 12457 0ca6 6D626F78 		.ascii	"mbox\000"
 12457      00
 12458              	.LASF183:
 12459 0cab 656E635F 		.ascii	"enc_diff\000"
 12459      64696666 
 12459      00
 12460              	.LASF348:
 12461 0cb4 74676C5F 		.ascii	"tgl_rel\000"
 12461      72656C00 
 12462              	.LASF482:
 12463 0cbc 65646765 		.ascii	"edge_flash_anim\000"
 12463      5F666C61 
 12463      73685F61 
 12463      6E696D00 
 12464              	.LASF458:
 12465 0ccc 6C765F70 		.ascii	"lv_page_scrollable_signal\000"
 12465      6167655F 
 12465      7363726F 
 12465      6C6C6162 
 12465      6C655F73 
 12466              	.LASF456:
 12467 0ce6 7374796C 		.ascii	"style_bg\000"
 12467      655F6267 
 12467      00
 12468              	.LASF243:
 12469 0cef 4C565F45 		.ascii	"LV_EVENT_VALUE_CHANGED\000"
 12469      56454E54 
 12469      5F56414C 
 12469      55455F43 
 12469      48414E47 
 12470              	.LASF153:
 12471 0d06 696E765F 		.ascii	"inv_areas\000"
 12471      61726561 
 12471      7300
 12472              	.LASF447:
 12473 0d10 7374796C 		.ascii	"style_tmp\000"
ARM GAS  C:\Users\tmj32\AppData\Local\Temp\ccFKuFvs.s 			page 261


 12473      655F746D 
 12473      7000
 12474              	.LASF278:
 12475 0d1a 6175746F 		.ascii	"auto_realign\000"
 12475      5F726561 
 12475      6C69676E 
 12475      00
 12476              	.LASF126:
 12477 0d27 6F6E6365 		.ascii	"once\000"
 12477      00
 12478              	.LASF224:
 12479 0d2c 4C565F44 		.ascii	"LV_DESIGN_DRAW_MAIN\000"
 12479      45534947 
 12479      4E5F4452 
 12479      41575F4D 
 12479      41494E00 
 12480              	.LASF28:
 12481 0d40 6C765F66 		.ascii	"lv_font_glyph_dsc_t\000"
 12481      6F6E745F 
 12481      676C7970 
 12481      685F6473 
 12481      635F7400 
 12482              	.LASF383:
 12483 0d54 6C697374 		.ascii	"list\000"
 12483      00
 12484              	.LASF93:
 12485 0d59 67726164 		.ascii	"grad_color\000"
 12485      5F636F6C 
 12485      6F7200
 12486              	.LASF297:
 12487 0d64 6669745F 		.ascii	"fit_left\000"
 12487      6C656674 
 12487      00
 12488              	.LASF415:
 12489 0d6d 62675F73 		.ascii	"bg_style\000"
 12489      74796C65 
 12489      00
 12490              	.LASF230:
 12491 0d76 4C565F45 		.ascii	"LV_EVENT_PRESSING\000"
 12491      56454E54 
 12491      5F505245 
 12491      5353494E 
 12491      4700
 12492              	.LASF381:
 12493 0d88 70616765 		.ascii	"page\000"
 12493      00
 12494              	.LASF146:
 12495 0d8d 5F646973 		.ascii	"_disp_t\000"
 12495      705F7400 
 12496              	.LASF357:
 12497 0d95 6B6E6F62 		.ascii	"knob_off\000"
 12497      5F6F6666 
 12497      00
 12498              	.LASF375:
 12499 0d9e 67617567 		.ascii	"gauge\000"
 12499      6500
 12500              	.LASF310:
ARM GAS  C:\Users\tmj32\AppData\Local\Temp\ccFKuFvs.s 			page 262


 12501 0da4 4C565F4B 		.ascii	"LV_KEY_NEXT\000"
 12501      45595F4E 
 12501      45585400 
 12502              	.LASF260:
 12503 0db0 4C565F53 		.ascii	"LV_SIGNAL_PRESSING\000"
 12503      49474E41 
 12503      4C5F5052 
 12503      45535349 
 12503      4E4700
 12504              	.LASF46:
 12505 0dc3 4C565F4F 		.ascii	"LV_OPA_100\000"
 12505      50415F31 
 12505      303000
 12506              	.LASF471:
 12507 0dce 64726167 		.ascii	"drag_vect\000"
 12507      5F766563 
 12507      7400
 12508              	.LASF234:
 12509 0dd8 4C565F45 		.ascii	"LV_EVENT_LONG_PRESSED_REPEAT\000"
 12509      56454E54 
 12509      5F4C4F4E 
 12509      475F5052 
 12509      45535345 
 12510              	.LASF315:
 12511 0df5 4C565F53 		.ascii	"LV_SB_MODE_ON\000"
 12511      425F4D4F 
 12511      44455F4F 
 12511      4E00
 12512              	.LASF112:
 12513 0e03 6C765F72 		.ascii	"lv_res_t\000"
 12513      65735F74 
 12513      00
 12514              	.LASF323:
 12515 0e0c 4C565F50 		.ascii	"LV_PAGE_EDGE_RIGHT\000"
 12515      4147455F 
 12515      45444745 
 12515      5F524947 
 12515      485400
 12516              	.LASF130:
 12517 0e1f 6275665F 		.ascii	"buf_act\000"
 12517      61637400 
 12518              	.LASF408:
 12519 0e27 6C765F70 		.ascii	"lv_page_create\000"
 12519      6167655F 
 12519      63726561 
 12519      746500
 12520              	.LASF22:
 12521 0e36 6C6F6E67 		.ascii	"long double\000"
 12521      20646F75 
 12521      626C6500 
 12522              	.LASF131:
 12523 0e42 73697A65 		.ascii	"size\000"
 12523      00
 12524              	.LASF326:
 12525 0e47 7374796C 		.ascii	"style\000"
 12525      6500
 12526              	.LASF197:
ARM GAS  C:\Users\tmj32\AppData\Local\Temp\ccFKuFvs.s 			page 263


 12527 0e4d 76656374 		.ascii	"vect\000"
 12527      00
 12528              	.LASF451:
 12529 0e52 6C765F73 		.ascii	"lv_scrl_design\000"
 12529      63726C5F 
 12529      64657369 
 12529      676E00
 12530              	.LASF163:
 12531 0e61 6578745F 		.ascii	"ext_attr\000"
 12531      61747472 
 12531      00
 12532              	.LASF198:
 12533 0e6a 64726167 		.ascii	"drag_sum\000"
 12533      5F73756D 
 12533      00
 12534              	.LASF283:
 12535 0e73 4C565F50 		.ascii	"LV_PROTECT_NONE\000"
 12535      524F5445 
 12535      43545F4E 
 12535      4F4E4500 
 12536              	.LASF378:
 12537 0e83 63616C65 		.ascii	"calendar\000"
 12537      6E646172 
 12537      00
 12538              	.LASF211:
 12539 0e8c 70725F74 		.ascii	"pr_timestamp\000"
 12539      696D6573 
 12539      74616D70 
 12539      00
 12540              	.LASF411:
 12541 0e99 6C765F70 		.ascii	"lv_page_get_sb_mode\000"
 12541      6167655F 
 12541      6765745F 
 12541      73625F6D 
 12541      6F646500 
 12542              	.LASF421:
 12543 0ead 70616765 		.ascii	"page_style\000"
 12543      5F737479 
 12543      6C6500
 12544              	.LASF227:
 12545 0eb8 6C765F64 		.ascii	"lv_design_mode_t\000"
 12545      65736967 
 12545      6E5F6D6F 
 12545      64655F74 
 12545      00
 12546              	.LASF74:
 12547 0ec9 73756270 		.ascii	"subpx\000"
 12547      7800
 12548              	.LASF238:
 12549 0ecf 4C565F45 		.ascii	"LV_EVENT_DRAG_END\000"
 12549      56454E54 
 12549      5F445241 
 12549      475F454E 
 12549      4400
 12550              	.LASF47:
 12551 0ee1 4C565F4F 		.ascii	"LV_OPA_COVER\000"
 12551      50415F43 
ARM GAS  C:\Users\tmj32\AppData\Local\Temp\ccFKuFvs.s 			page 264


 12551      4F564552 
 12551      00
 12552              	.LASF190:
 12553 0eee 72656164 		.ascii	"read_task\000"
 12553      5F746173 
 12553      6B00
 12554              	.LASF420:
 12555 0ef8 65646765 		.ascii	"edge\000"
 12555      00
 12556              	.LASF261:
 12557 0efd 4C565F53 		.ascii	"LV_SIGNAL_PRESS_LOST\000"
 12557      49474E41 
 12557      4C5F5052 
 12557      4553535F 
 12557      4C4F5354 
 12558              	.LASF313:
 12559 0f12 4C565F4B 		.ascii	"LV_KEY_END\000"
 12559      45595F45 
 12559      4E4400
 12560              	.LASF188:
 12561 0f1d 66656564 		.ascii	"feedback_cb\000"
 12561      6261636B 
 12561      5F636200 
 12562              	.LASF266:
 12563 0f29 4C565F53 		.ascii	"LV_SIGNAL_DRAG_END\000"
 12563      49474E41 
 12563      4C5F4452 
 12563      41475F45 
 12563      4E4400
 12564              	.LASF422:
 12565 0f3c 70616765 		.ascii	"page_coords\000"
 12565      5F636F6F 
 12565      72647300 
 12566              	.LASF229:
 12567 0f48 4C565F45 		.ascii	"LV_EVENT_PRESSED\000"
 12567      56454E54 
 12567      5F505245 
 12567      53534544 
 12567      00
 12568              	.LASF254:
 12569 0f59 4C565F53 		.ascii	"LV_SIGNAL_PARENT_SIZE_CHG\000"
 12569      49474E41 
 12569      4C5F5041 
 12569      52454E54 
 12569      5F53495A 
 12570              	.LASF247:
 12571 0f73 4C565F45 		.ascii	"LV_EVENT_CANCEL\000"
 12571      56454E54 
 12571      5F43414E 
 12571      43454C00 
 12572              	.LASF262:
 12573 0f83 4C565F53 		.ascii	"LV_SIGNAL_RELEASED\000"
 12573      49474E41 
 12573      4C5F5245 
 12573      4C454153 
 12573      454400
 12574              	.LASF418:
ARM GAS  C:\Users\tmj32\AppData\Local\Temp\ccFKuFvs.s 			page 265


 12575 0f96 6C765F70 		.ascii	"lv_page_get_style\000"
 12575      6167655F 
 12575      6765745F 
 12575      7374796C 
 12575      6500
 12576              	.LASF92:
 12577 0fa8 6D61696E 		.ascii	"main_color\000"
 12577      5F636F6C 
 12577      6F7200
 12578              	.LASF0:
 12579 0fb3 5F5F696E 		.ascii	"__int8_t\000"
 12579      74385F74 
 12579      00
 12580              	.LASF209:
 12581 0fbc 5F6C765F 		.ascii	"_lv_indev_proc_t\000"
 12581      696E6465 
 12581      765F7072 
 12581      6F635F74 
 12581      00
 12582              	.LASF271:
 12583 0fcd 6C765F73 		.ascii	"lv_signal_t\000"
 12583      69676E61 
 12583      6C5F7400 
 12584              	.LASF78:
 12585 0fd9 6861735F 		.ascii	"has_run\000"
 12585      72756E00 
 12586              	.LASF192:
 12587 0fe1 6C6F6E67 		.ascii	"long_press_time\000"
 12587      5F707265 
 12587      73735F74 
 12587      696D6500 
 12588              	.LASF424:
 12589 0ff1 6C765F70 		.ascii	"lv_page_glue_obj\000"
 12589      6167655F 
 12589      676C7565 
 12589      5F6F626A 
 12589      00
 12590              	.LASF13:
 12591 1002 6C6F6E67 		.ascii	"long long unsigned int\000"
 12591      206C6F6E 
 12591      6720756E 
 12591      7369676E 
 12591      65642069 
 12592              	.LASF481:
 12593 1019 73625F76 		.ascii	"sb_ver_pad\000"
 12593      65725F70 
 12593      616400
 12594              	.LASF289:
 12595 1024 4C565F50 		.ascii	"LV_PROTECT_CLICK_FOCUS\000"
 12595      524F5445 
 12595      43545F43 
 12595      4C49434B 
 12595      5F464F43 
 12596              	.LASF18:
 12597 103b 75696E74 		.ascii	"uint16_t\000"
 12597      31365F74 
 12597      00
ARM GAS  C:\Users\tmj32\AppData\Local\Temp\ccFKuFvs.s 			page 266


 12598              	.LASF111:
 12599 1044 4C565F52 		.ascii	"LV_RES_OK\000"
 12599      45535F4F 
 12599      4B00
 12600              	.LASF122:
 12601 104e 6C617374 		.ascii	"last_run\000"
 12601      5F72756E 
 12601      00
 12602              	.LASF460:
 12603 1057 6E65775F 		.ascii	"new_x\000"
 12603      7800
 12604              	.LASF461:
 12605 105d 6E65775F 		.ascii	"new_y\000"
 12605      7900
 12606              	.LASF328:
 12607 1063 7665725F 		.ascii	"ver_area\000"
 12607      61726561 
 12607      00
 12608              	.LASF363:
 12609 106c 696E6163 		.ascii	"inactive_days\000"
 12609      74697665 
 12609      5F646179 
 12609      7300
 12610              	.LASF53:
 12611 107a 6C765F63 		.ascii	"lv_color_t\000"
 12611      6F6C6F72 
 12611      5F7400
 12612              	.LASF485:
 12613 1085 616E6365 		.ascii	"ancestor_signal\000"
 12613      73746F72 
 12613      5F736967 
 12613      6E616C00 
 12614              	.LASF276:
 12615 1095 796F6673 		.ascii	"yofs\000"
 12615      00
 12616              	.LASF214:
 12617 109a 72657365 		.ascii	"reset_query\000"
 12617      745F7175 
 12617      65727900 
 12618              	.LASF127:
 12619 10a6 6C765F74 		.ascii	"lv_task_t\000"
 12619      61736B5F 
 12619      7400
 12620              	.LASF393:
 12621 10b0 6C765F61 		.ascii	"lv_area_get_height\000"
 12621      7265615F 
 12621      6765745F 
 12621      68656967 
 12621      687400
 12622              	.LASF295:
 12623 10c3 6C765F66 		.ascii	"lv_fit_t\000"
 12623      69745F74 
 12623      00
 12624              	.LASF484:
 12625 10cc 616E6365 		.ascii	"ancestor_design\000"
 12625      73746F72 
 12625      5F646573 
ARM GAS  C:\Users\tmj32\AppData\Local\Temp\ccFKuFvs.s 			page 267


 12625      69676E00 
 12626              	.LASF66:
 12627 10dc 65786563 		.ascii	"exec_cb\000"
 12627      5F636200 
 12628              	.LASF37:
 12629 10e4 4C565F4F 		.ascii	"LV_OPA_10\000"
 12629      50415F31 
 12629      3000
 12630              	.LASF303:
 12631 10ee 4C565F4B 		.ascii	"LV_KEY_DOWN\000"
 12631      45595F44 
 12631      4F574E00 
 12632              	.LASF300:
 12633 10fa 6669745F 		.ascii	"fit_bottom\000"
 12633      626F7474 
 12633      6F6D00
 12634              	.LASF306:
 12635 1105 4C565F4B 		.ascii	"LV_KEY_ESC\000"
 12635      45595F45 
 12635      534300
 12636              	.LASF344:
 12637 1110 4C565F50 		.ascii	"LV_PAGE_STYLE_SCRL\000"
 12637      4147455F 
 12637      5354594C 
 12637      455F5343 
 12637      524C00
 12638              	.LASF490:
 12639 1123 474E5520 		.ascii	"GNU C11 5.4.1 20160609 (release) [ARM/embedded-5-br"
 12639      43313120 
 12639      352E342E 
 12639      31203230 
 12639      31363036 
 12640 1156 616E6368 		.ascii	"anch revision 237715] -mcpu=cortex-m4 -mfloat-abi=s"
 12640      20726576 
 12640      6973696F 
 12640      6E203233 
 12640      37373135 
 12641 1189 6F667466 		.ascii	"oftfp -mfpu=fpv4-sp-d16 -mthumb -g -O0 -ffunction-s"
 12641      70202D6D 
 12641      6670753D 
 12641      66707634 
 12641      2D73702D 
 12642 11bc 65637469 		.ascii	"ections -ffat-lto-objects\000"
 12642      6F6E7320 
 12642      2D666661 
 12642      742D6C74 
 12642      6F2D6F62 
 12643              	.LASF121:
 12644 11d6 70657269 		.ascii	"period\000"
 12644      6F6400
 12645              	.LASF141:
 12646 11dd 726F756E 		.ascii	"rounder_cb\000"
 12646      6465725F 
 12646      636200
 12647              	.LASF354:
 12648 11e8 6465636F 		.ascii	"decor\000"
 12648      7200
ARM GAS  C:\Users\tmj32\AppData\Local\Temp\ccFKuFvs.s 			page 268


 12649              	.LASF425:
 12650 11ee 676C7565 		.ascii	"glue\000"
 12650      00
 12651              	.LASF371:
 12652 11f3 696D6762 		.ascii	"imgbtn\000"
 12652      746E00
 12653              	.LASF4:
 12654 11fa 5F5F696E 		.ascii	"__int16_t\000"
 12654      7431365F 
 12654      7400
 12655              	.LASF212:
 12656 1204 6C6F6E67 		.ascii	"longpr_rep_timestamp\000"
 12656      70725F72 
 12656      65705F74 
 12656      696D6573 
 12656      74616D70 
 12657              	.LASF369:
 12658 1219 70616E65 		.ascii	"panel\000"
 12658      6C00
 12659              	.LASF204:
 12660 121f 64726167 		.ascii	"drag_in_prog\000"
 12660      5F696E5F 
 12660      70726F67 
 12660      00
 12661              	.LASF448:
 12662 122c 73625F61 		.ascii	"sb_area\000"
 12662      72656100 
 12663              	.LASF390:
 12664 1234 64657374 		.ascii	"dest\000"
 12664      00
 12665              	.LASF51:
 12666 1239 66756C6C 		.ascii	"full\000"
 12666      00
 12667              	.LASF333:
 12668 123e 746F705F 		.ascii	"top_ip\000"
 12668      697000
 12669              	.LASF464:
 12670 1245 6F72695F 		.ascii	"ori_coords\000"
 12670      636F6F72 
 12670      647300
 12671              	.LASF38:
 12672 1250 4C565F4F 		.ascii	"LV_OPA_20\000"
 12672      50415F32 
 12672      3000
 12673              	.LASF84:
 12674 125a 636F6C6F 		.ascii	"color\000"
 12674      7200
 12675              	.LASF70:
 12676 1260 74696D65 		.ascii	"time\000"
 12676      00
 12677              	.LASF203:
 12678 1265 64726167 		.ascii	"drag_limit_out\000"
 12678      5F6C696D 
 12678      69745F6F 
 12678      757400
 12679              	.LASF101:
 12680 1274 6C696E65 		.ascii	"line_space\000"
ARM GAS  C:\Users\tmj32\AppData\Local\Temp\ccFKuFvs.s 			page 269


 12680      5F737061 
 12680      636500
 12681              	.LASF275:
 12682 127f 786F6673 		.ascii	"xofs\000"
 12682      00
 12683              	.LASF298:
 12684 1284 6669745F 		.ascii	"fit_right\000"
 12684      72696768 
 12684      7400
 12685              	.LASF294:
 12686 128e 5F4C565F 		.ascii	"_LV_FIT_NUM\000"
 12686      4649545F 
 12686      4E554D00 
 12687              	.LASF282:
 12688 129a 6C765F6F 		.ascii	"lv_obj_t\000"
 12688      626A5F74 
 12688      00
 12689              	.LASF147:
 12690 12a3 64726976 		.ascii	"driver\000"
 12690      657200
 12691              	.LASF321:
 12692 12aa 4C565F50 		.ascii	"LV_PAGE_EDGE_LEFT\000"
 12692      4147455F 
 12692      45444745 
 12692      5F4C4546 
 12692      5400
 12693              	.LASF83:
 12694 12bc 6C765F73 		.ascii	"lv_shadow_type_t\000"
 12694      6861646F 
 12694      775F7479 
 12694      70655F74 
 12694      00
 12695              	.LASF166:
 12696 12cd 64726167 		.ascii	"drag\000"
 12696      00
 12697              	.LASF488:
 12698 12d2 6C765F73 		.ascii	"lv_style_pretty\000"
 12698      74796C65 
 12698      5F707265 
 12698      74747900 
 12699              	.LASF293:
 12700 12e2 4C565F46 		.ascii	"LV_FIT_FILL\000"
 12700      49545F46 
 12700      494C4C00 
 12701              	.LASF410:
 12702 12ee 6C765F70 		.ascii	"lv_page_get_anim_time\000"
 12702      6167655F 
 12702      6765745F 
 12702      616E696D 
 12702      5F74696D 
 12703              	.LASF452:
 12704 1304 6C765F70 		.ascii	"lv_page_signal\000"
 12704      6167655F 
 12704      7369676E 
 12704      616C00
 12705              	.LASF468:
 12706 1313 76706164 		.ascii	"vpad\000"
ARM GAS  C:\Users\tmj32\AppData\Local\Temp\ccFKuFvs.s 			page 270


 12706      00
 12707              	.LASF157:
 12708 1318 5F6C765F 		.ascii	"_lv_obj_t\000"
 12708      6F626A5F 
 12708      7400
 12709              	.LASF99:
 12710 1322 666F6E74 		.ascii	"font\000"
 12710      00
 12711              	.LASF100:
 12712 1327 6C657474 		.ascii	"letter_space\000"
 12712      65725F73 
 12712      70616365 
 12712      00
 12713              	.LASF39:
 12714 1334 4C565F4F 		.ascii	"LV_OPA_30\000"
 12714      50415F33 
 12714      3000
 12715              	.LASF173:
 12716 133e 62617365 		.ascii	"base_dir\000"
 12716      5F646972 
 12716      00
 12717              	.LASF335:
 12718 1347 72696768 		.ascii	"right_ip\000"
 12718      745F6970 
 12718      00
 12719              	.LASF284:
 12720 1350 4C565F50 		.ascii	"LV_PROTECT_CHILD_CHG\000"
 12720      524F5445 
 12720      43545F43 
 12720      48494C44 
 12720      5F434847 
 12721              	.LASF288:
 12722 1365 4C565F50 		.ascii	"LV_PROTECT_PRESS_LOST\000"
 12722      524F5445 
 12722      43545F50 
 12722      52455353 
 12722      5F4C4F53 
 12723              	.LASF25:
 12724 137b 626F785F 		.ascii	"box_h\000"
 12724      6800
 12725              	.LASF343:
 12726 1381 4C565F50 		.ascii	"LV_PAGE_STYLE_BG\000"
 12726      4147455F 
 12726      5354594C 
 12726      455F4247 
 12726      00
 12727              	.LASF311:
 12728 1392 4C565F4B 		.ascii	"LV_KEY_PREV\000"
 12728      45595F50 
 12728      52455600 
 12729              	.LASF274:
 12730 139e 62617365 		.ascii	"base\000"
 12730      00
 12731              	.LASF24:
 12732 13a3 626F785F 		.ascii	"box_w\000"
 12732      7700
 12733              	.LASF5:
ARM GAS  C:\Users\tmj32\AppData\Local\Temp\ccFKuFvs.s 			page 271


 12734 13a9 73686F72 		.ascii	"short int\000"
 12734      7420696E 
 12734      7400
 12735              	.LASF75:
 12736 13b3 706C6179 		.ascii	"playback\000"
 12736      6261636B 
 12736      00
 12737              	.LASF32:
 12738 13bc 62617365 		.ascii	"base_line\000"
 12738      5F6C696E 
 12738      6500
 12739              	.LASF155:
 12740 13c6 696E765F 		.ascii	"inv_p\000"
 12740      7000
 12741              	.LASF117:
 12742 13cc 6C765F6C 		.ascii	"lv_ll_t\000"
 12742      6C5F7400 
 12743              	.LASF331:
 12744 13d4 6D6F6465 		.ascii	"mode\000"
 12744      00
 12745              	.LASF208:
 12746 13d9 6B657970 		.ascii	"keypad\000"
 12746      616400
 12747              	.LASF40:
 12748 13e0 4C565F4F 		.ascii	"LV_OPA_40\000"
 12748      50415F34 
 12748      3000
 12749              	.LASF17:
 12750 13ea 696E7431 		.ascii	"int16_t\000"
 12750      365F7400 
 12751              	.LASF253:
 12752 13f2 4C565F53 		.ascii	"LV_SIGNAL_CORD_CHG\000"
 12752      49474E41 
 12752      4C5F434F 
 12752      52445F43 
 12752      484700
 12753              	.LASF159:
 12754 1405 636F6F72 		.ascii	"coords\000"
 12754      647300
 12755              	.LASF487:
 12756 140c 6C765F73 		.ascii	"lv_style_plain_color\000"
 12756      74796C65 
 12756      5F706C61 
 12756      696E5F63 
 12756      6F6C6F72 
 12757              	.LASF470:
 12758 1421 696E6465 		.ascii	"indev\000"
 12758      7600
 12759              	.LASF152:
 12760 1427 7379735F 		.ascii	"sys_layer\000"
 12760      6C617965 
 12760      7200
 12761              	.LASF382:
 12762 1431 7370696E 		.ascii	"spinbox\000"
 12762      626F7800 
 12763              	.LASF170:
 12764 1439 6F70615F 		.ascii	"opa_scale_en\000"
ARM GAS  C:\Users\tmj32\AppData\Local\Temp\ccFKuFvs.s 			page 272


 12764      7363616C 
 12764      655F656E 
 12764      00
 12765              	.LASF361:
 12766 1446 6461795F 		.ascii	"day_names\000"
 12766      6E616D65 
 12766      7300
 12767              	.LASF426:
 12768 1450 6C765F70 		.ascii	"lv_page_focus\000"
 12768      6167655F 
 12768      666F6375 
 12768      7300
 12769              	.LASF472:
 12770 145e 73625F61 		.ascii	"sb_area_tmp\000"
 12770      7265615F 
 12770      746D7000 
 12771              	.LASF96:
 12772 146a 73686164 		.ascii	"shadow\000"
 12772      6F7700
 12773              	.LASF217:
 12774 1471 6C765F69 		.ascii	"lv_indev_proc_t\000"
 12774      6E646576 
 12774      5F70726F 
 12774      635F7400 
 12775              	.LASF41:
 12776 1481 4C565F4F 		.ascii	"LV_OPA_50\000"
 12776      50415F35 
 12776      3000
 12777              	.LASF322:
 12778 148b 4C565F50 		.ascii	"LV_PAGE_EDGE_TOP\000"
 12778      4147455F 
 12778      45444745 
 12778      5F544F50 
 12778      00
 12779              	.LASF392:
 12780 149c 6C765F61 		.ascii	"lv_area_get_width\000"
 12780      7265615F 
 12780      6765745F 
 12780      77696474 
 12780      6800
 12781              	.LASF168:
 12782 14ae 64726167 		.ascii	"drag_parent\000"
 12782      5F706172 
 12782      656E7400 
 12783              	.LASF194:
 12784 14ba 6C765F69 		.ascii	"lv_indev_drv_t\000"
 12784      6E646576 
 12784      5F647276 
 12784      5F7400
 12785              	.LASF256:
 12786 14c9 4C565F53 		.ascii	"LV_SIGNAL_BASE_DIR_CHG\000"
 12786      49474E41 
 12786      4C5F4241 
 12786      53455F44 
 12786      49525F43 
 12787              	.LASF71:
 12788 14e0 6163745F 		.ascii	"act_time\000"
ARM GAS  C:\Users\tmj32\AppData\Local\Temp\ccFKuFvs.s 			page 273


 12788      74696D65 
 12788      00
 12789              	.LASF396:
 12790 14e9 6C765F70 		.ascii	"lv_page_get_scrl_fit_right\000"
 12790      6167655F 
 12790      6765745F 
 12790      7363726C 
 12790      5F666974 
 12791              	.LASF242:
 12792 1504 4C565F45 		.ascii	"LV_EVENT_DEFOCUSED\000"
 12792      56454E54 
 12792      5F444546 
 12792      4F435553 
 12792      454400
 12793              	.LASF191:
 12794 1517 64726167 		.ascii	"drag_limit\000"
 12794      5F6C696D 
 12794      697400
 12795              	.LASF145:
 12796 1522 6C765F64 		.ascii	"lv_disp_drv_t\000"
 12796      6973705F 
 12796      6472765F 
 12796      7400
 12797              	.LASF439:
 12798 1530 6C656674 		.ascii	"left_err\000"
 12798      5F657272 
 12798      00
 12799              	.LASF400:
 12800 1539 636F7079 		.ascii	"copy_ext\000"
 12800      5F657874 
 12800      00
 12801              	.LASF414:
 12802 1542 6C765F70 		.ascii	"lv_page_get_fit_width\000"
 12802      6167655F 
 12802      6765745F 
 12802      6669745F 
 12802      77696474 
 12803              	.LASF368:
 12804 1558 636F6E74 		.ascii	"content\000"
 12804      656E7400 
 12805              	.LASF97:
 12806 1560 70616464 		.ascii	"padding\000"
 12806      696E6700 
 12807              	.LASF291:
 12808 1568 4C565F46 		.ascii	"LV_FIT_TIGHT\000"
 12808      49545F54 
 12808      49474854 
 12808      00
 12809              	.LASF161:
 12810 1575 7369676E 		.ascii	"signal_cb\000"
 12810      616C5F63 
 12810      6200
 12811              	.LASF42:
 12812 157f 4C565F4F 		.ascii	"LV_OPA_60\000"
 12812      50415F36 
 12812      3000
 12813              	.LASF20:
ARM GAS  C:\Users\tmj32\AppData\Local\Temp\ccFKuFvs.s 			page 274


 12814 1589 75696E74 		.ascii	"uint32_t\000"
 12814      33325F74 
 12814      00
 12815              	.LASF427:
 12816 1592 616E696D 		.ascii	"anim_en\000"
 12816      5F656E00 
 12817              	.LASF72:
 12818 159a 706C6179 		.ascii	"playback_pause\000"
 12818      6261636B 
 12818      5F706175 
 12818      736500
 12819              	.LASF316:
 12820 15a9 4C565F53 		.ascii	"LV_SB_MODE_DRAG\000"
 12820      425F4D4F 
 12820      44455F44 
 12820      52414700 
 12821              	.LASF480:
 12822 15b9 73625F68 		.ascii	"sb_hor_pad\000"
 12822      6F725F70 
 12822      616400
 12823              	.LASF399:
 12824 15c4 6E65775F 		.ascii	"new_page\000"
 12824      70616765 
 12824      00
 12825              	.LASF443:
 12826 15cd 6C765F70 		.ascii	"lv_page_scroll_ver\000"
 12826      6167655F 
 12826      7363726F 
 12826      6C6C5F76 
 12826      657200
 12827              	.LASF441:
 12828 15e0 6C765F70 		.ascii	"lv_page_scroll_hor\000"
 12828      6167655F 
 12828      7363726F 
 12828      6C6C5F68 
 12828      6F7200
 12829              	.LASF353:
 12830 15f3 6461726B 		.ascii	"dark\000"
 12830      00
 12831              	.LASF49:
 12832 15f8 67726565 		.ascii	"green\000"
 12832      6E00
 12833              	.LASF34:
 12834 15fe 6C765F66 		.ascii	"lv_font_t\000"
 12834      6F6E745F 
 12834      7400
 12835              	.LASF174:
 12836 1608 72657365 		.ascii	"reserved\000"
 12836      72766564 
 12836      00
 12837              	.LASF143:
 12838 1611 6D6F6E69 		.ascii	"monitor_cb\000"
 12838      746F725F 
 12838      636200
 12839              	.LASF43:
 12840 161c 4C565F4F 		.ascii	"LV_OPA_70\000"
 12840      50415F37 
ARM GAS  C:\Users\tmj32\AppData\Local\Temp\ccFKuFvs.s 			page 275


 12840      3000
 12841              	.LASF7:
 12842 1626 73686F72 		.ascii	"short unsigned int\000"
 12842      7420756E 
 12842      7369676E 
 12842      65642069 
 12842      6E7400
 12843              	.LASF320:
 12844 1639 6C765F73 		.ascii	"lv_sb_mode_t\000"
 12844      625F6D6F 
 12844      64655F74 
 12844      00
 12845              	.LASF86:
 12846 1646 70617274 		.ascii	"part\000"
 12846      00
 12847              	.LASF409:
 12848 164b 6C765F70 		.ascii	"lv_page_get_scrl\000"
 12848      6167655F 
 12848      6765745F 
 12848      7363726C 
 12848      00
 12849              	.LASF240:
 12850 165c 4C565F45 		.ascii	"LV_EVENT_KEY\000"
 12850      56454E54 
 12850      5F4B4559 
 12850      00
 12851              	.LASF21:
 12852 1669 6C765F63 		.ascii	"lv_coord_t\000"
 12852      6F6F7264 
 12852      5F7400
 12853              	.LASF185:
 12854 1674 6C765F69 		.ascii	"lv_indev_data_t\000"
 12854      6E646576 
 12854      5F646174 
 12854      615F7400 
 12855              	.LASF334:
 12856 1684 626F7474 		.ascii	"bottom_ip\000"
 12856      6F6D5F69 
 12856      7000
 12857              	.LASF140:
 12858 168e 666C7573 		.ascii	"flush_cb\000"
 12858      685F6362 
 12858      00
 12859              	.LASF124:
 12860 1697 75736572 		.ascii	"user_data\000"
 12860      5F646174 
 12860      6100
 12861              	.LASF231:
 12862 16a1 4C565F45 		.ascii	"LV_EVENT_PRESS_LOST\000"
 12862      56454E54 
 12862      5F505245 
 12862      53535F4C 
 12862      4F535400 
 12863              	.LASF77:
 12864 16b5 706C6179 		.ascii	"playback_now\000"
 12864      6261636B 
 12864      5F6E6F77 
ARM GAS  C:\Users\tmj32\AppData\Local\Temp\ccFKuFvs.s 			page 276


 12864      00
 12865              	.LASF95:
 12866 16c2 626F7264 		.ascii	"border\000"
 12866      657200
 12867              	.LASF372:
 12868 16c9 6C616265 		.ascii	"label\000"
 12868      6C00
 12869              	.LASF29:
 12870 16cf 6765745F 		.ascii	"get_glyph_dsc\000"
 12870      676C7970 
 12870      685F6473 
 12870      6300
 12871              	.LASF8:
 12872 16dd 5F5F696E 		.ascii	"__int32_t\000"
 12872      7433325F 
 12872      7400
 12873              	.LASF474:
 12874 16e7 7363726C 		.ascii	"scrl_def_event_cb\000"
 12874      5F646566 
 12874      5F657665 
 12874      6E745F63 
 12874      6200
 12875              	.LASF281:
 12876 16f9 6C765F64 		.ascii	"lv_drag_dir_t\000"
 12876      7261675F 
 12876      6469725F 
 12876      7400
 12877              	.LASF82:
 12878 1707 6C765F62 		.ascii	"lv_border_part_t\000"
 12878      6F726465 
 12878      725F7061 
 12878      72745F74 
 12878      00
 12879              	.LASF213:
 12880 1718 6C6F6E67 		.ascii	"long_pr_sent\000"
 12880      5F70725F 
 12880      73656E74 
 12880      00
 12881              	.LASF44:
 12882 1725 4C565F4F 		.ascii	"LV_OPA_80\000"
 12882      50415F38 
 12882      3000
 12883              	.LASF376:
 12884 172f 7072656C 		.ascii	"preload\000"
 12884      6F616400 
 12885              	.LASF279:
 12886 1737 6F726967 		.ascii	"origo_align\000"
 12886      6F5F616C 
 12886      69676E00 
 12887              	.LASF356:
 12888 1743 6B6E6F62 		.ascii	"knob\000"
 12888      00
 12889              	.LASF302:
 12890 1748 4C565F4B 		.ascii	"LV_KEY_UP\000"
 12890      45595F55 
 12890      5000
 12891              	.LASF327:
ARM GAS  C:\Users\tmj32\AppData\Local\Temp\ccFKuFvs.s 			page 277


 12892 1752 686F725F 		.ascii	"hor_area\000"
 12892      61726561 
 12892      00
 12893              	.LASF98:
 12894 175b 73656C5F 		.ascii	"sel_color\000"
 12894      636F6C6F 
 12894      7200
 12895              	.LASF119:
 12896 1765 6C765F74 		.ascii	"lv_task_cb_t\000"
 12896      61736B5F 
 12896      63625F74 
 12896      00
 12897              	.LASF64:
 12898 1772 5F6C765F 		.ascii	"_lv_font_struct\000"
 12898      666F6E74 
 12898      5F737472 
 12898      75637400 
 12899              	.LASF210:
 12900 1782 74797065 		.ascii	"types\000"
 12900      7300
 12901              	.LASF65:
 12902 1788 5F6C765F 		.ascii	"_lv_anim_t\000"
 12902      616E696D 
 12902      5F7400
 12903              	.LASF402:
 12904 1793 6C765F70 		.ascii	"lv_page_set_sb_mode\000"
 12904      6167655F 
 12904      7365745F 
 12904      73625F6D 
 12904      6F646500 
 12905              	.LASF114:
 12906 17a7 6E5F7369 		.ascii	"n_size\000"
 12906      7A6500
 12907              	.LASF220:
 12908 17ae 63757273 		.ascii	"cursor\000"
 12908      6F7200
 12909              	.LASF493:
 12910 17b5 5F6C765F 		.ascii	"_lv_group_t\000"
 12910      67726F75 
 12910      705F7400 
 12911              	.LASF236:
 12912 17c1 4C565F45 		.ascii	"LV_EVENT_RELEASED\000"
 12912      56454E54 
 12912      5F52454C 
 12912      45415345 
 12912      4400
 12913              	.LASF228:
 12914 17d3 6C765F64 		.ascii	"lv_design_cb_t\000"
 12914      65736967 
 12914      6E5F6362 
 12914      5F7400
 12915              	.LASF338:
 12916 17e2 65646765 		.ascii	"edge_flash\000"
 12916      5F666C61 
 12916      736800
 12917              	.LASF45:
 12918 17ed 4C565F4F 		.ascii	"LV_OPA_90\000"
ARM GAS  C:\Users\tmj32\AppData\Local\Temp\ccFKuFvs.s 			page 278


 12918      50415F39 
 12918      3000
 12919              	.LASF176:
 12920 17f7 6F70615F 		.ascii	"opa_scale\000"
 12920      7363616C 
 12920      6500
 12921              	.LASF385:
 12922 1801 726F6C6C 		.ascii	"roller\000"
 12922      657200
 12923              		.ident	"GCC: (GNU Tools for ARM Embedded Processors) 5.4.1 20160609 (release) [ARM/embedded-5-bran
