ARM GAS  C:\Users\tmj32\AppData\Local\Temp\ccT5YJ50.s 			page 1


   1              		.syntax unified
   2              		.cpu cortex-m4
   3              		.eabi_attribute 27, 1
   4              		.fpu fpv4-sp-d16
   5              		.eabi_attribute 20, 1
   6              		.eabi_attribute 21, 1
   7              		.eabi_attribute 23, 3
   8              		.eabi_attribute 24, 1
   9              		.eabi_attribute 25, 1
  10              		.eabi_attribute 26, 1
  11              		.eabi_attribute 30, 6
  12              		.eabi_attribute 34, 1
  13              		.eabi_attribute 18, 4
  14              		.thumb
  15              		.syntax unified
  16              		.file	"lv_roller.c"
  17              		.text
  18              	.Ltext0:
  19              		.cfi_sections	.debug_frame
  20              		.section	.text.lv_font_get_line_height,"ax",%progbits
  21              		.align	2
  22              		.thumb
  23              		.thumb_func
  24              		.type	lv_font_get_line_height, %function
  25              	lv_font_get_line_height:
  26              	.LFB0:
  27              		.file 1 "..\\..\\..\\lvgl\\version_6.1.2\\lvgl\\src\\lv_objx\\../lv_core/../lv_font/lv_font.h"
   1:..\..\..\lvgl\version_6.1.2\lvgl\src\lv_objx\../lv_core/../lv_font/lv_font.h **** /**
   2:..\..\..\lvgl\version_6.1.2\lvgl\src\lv_objx\../lv_core/../lv_font/lv_font.h ****  * @file lv_font.h
   3:..\..\..\lvgl\version_6.1.2\lvgl\src\lv_objx\../lv_core/../lv_font/lv_font.h ****  *
   4:..\..\..\lvgl\version_6.1.2\lvgl\src\lv_objx\../lv_core/../lv_font/lv_font.h ****  */
   5:..\..\..\lvgl\version_6.1.2\lvgl\src\lv_objx\../lv_core/../lv_font/lv_font.h **** 
   6:..\..\..\lvgl\version_6.1.2\lvgl\src\lv_objx\../lv_core/../lv_font/lv_font.h **** #ifndef LV_FONT_H
   7:..\..\..\lvgl\version_6.1.2\lvgl\src\lv_objx\../lv_core/../lv_font/lv_font.h **** #define LV_FONT_H
   8:..\..\..\lvgl\version_6.1.2\lvgl\src\lv_objx\../lv_core/../lv_font/lv_font.h **** 
   9:..\..\..\lvgl\version_6.1.2\lvgl\src\lv_objx\../lv_core/../lv_font/lv_font.h **** #ifdef __cplusplus
  10:..\..\..\lvgl\version_6.1.2\lvgl\src\lv_objx\../lv_core/../lv_font/lv_font.h **** extern "C" {
  11:..\..\..\lvgl\version_6.1.2\lvgl\src\lv_objx\../lv_core/../lv_font/lv_font.h **** #endif
  12:..\..\..\lvgl\version_6.1.2\lvgl\src\lv_objx\../lv_core/../lv_font/lv_font.h **** 
  13:..\..\..\lvgl\version_6.1.2\lvgl\src\lv_objx\../lv_core/../lv_font/lv_font.h **** /*********************
  14:..\..\..\lvgl\version_6.1.2\lvgl\src\lv_objx\../lv_core/../lv_font/lv_font.h ****  *      INCLUDES
  15:..\..\..\lvgl\version_6.1.2\lvgl\src\lv_objx\../lv_core/../lv_font/lv_font.h ****  *********************/
  16:..\..\..\lvgl\version_6.1.2\lvgl\src\lv_objx\../lv_core/../lv_font/lv_font.h **** #ifdef LV_CONF_INCLUDE_SIMPLE
  17:..\..\..\lvgl\version_6.1.2\lvgl\src\lv_objx\../lv_core/../lv_font/lv_font.h **** #include "lv_conf.h"
  18:..\..\..\lvgl\version_6.1.2\lvgl\src\lv_objx\../lv_core/../lv_font/lv_font.h **** #else
  19:..\..\..\lvgl\version_6.1.2\lvgl\src\lv_objx\../lv_core/../lv_font/lv_font.h **** #include "../../../lv_conf.h"
  20:..\..\..\lvgl\version_6.1.2\lvgl\src\lv_objx\../lv_core/../lv_font/lv_font.h **** #endif
  21:..\..\..\lvgl\version_6.1.2\lvgl\src\lv_objx\../lv_core/../lv_font/lv_font.h **** 
  22:..\..\..\lvgl\version_6.1.2\lvgl\src\lv_objx\../lv_core/../lv_font/lv_font.h **** #include <stdint.h>
  23:..\..\..\lvgl\version_6.1.2\lvgl\src\lv_objx\../lv_core/../lv_font/lv_font.h **** #include <stddef.h>
  24:..\..\..\lvgl\version_6.1.2\lvgl\src\lv_objx\../lv_core/../lv_font/lv_font.h **** #include <stdbool.h>
  25:..\..\..\lvgl\version_6.1.2\lvgl\src\lv_objx\../lv_core/../lv_font/lv_font.h **** 
  26:..\..\..\lvgl\version_6.1.2\lvgl\src\lv_objx\../lv_core/../lv_font/lv_font.h **** #include "lv_symbol_def.h"
  27:..\..\..\lvgl\version_6.1.2\lvgl\src\lv_objx\../lv_core/../lv_font/lv_font.h **** 
  28:..\..\..\lvgl\version_6.1.2\lvgl\src\lv_objx\../lv_core/../lv_font/lv_font.h **** /*********************
  29:..\..\..\lvgl\version_6.1.2\lvgl\src\lv_objx\../lv_core/../lv_font/lv_font.h ****  *      DEFINES
  30:..\..\..\lvgl\version_6.1.2\lvgl\src\lv_objx\../lv_core/../lv_font/lv_font.h ****  *********************/
ARM GAS  C:\Users\tmj32\AppData\Local\Temp\ccT5YJ50.s 			page 2


  31:..\..\..\lvgl\version_6.1.2\lvgl\src\lv_objx\../lv_core/../lv_font/lv_font.h **** /*Number of fractional digits in the advanced width (`adv_w`) field of `lv_font_glyph_dsc_t`*/
  32:..\..\..\lvgl\version_6.1.2\lvgl\src\lv_objx\../lv_core/../lv_font/lv_font.h **** #define LV_FONT_WIDTH_FRACT_DIGIT       4
  33:..\..\..\lvgl\version_6.1.2\lvgl\src\lv_objx\../lv_core/../lv_font/lv_font.h **** 
  34:..\..\..\lvgl\version_6.1.2\lvgl\src\lv_objx\../lv_core/../lv_font/lv_font.h **** #define LV_FONT_KERN_POSITIVE        0
  35:..\..\..\lvgl\version_6.1.2\lvgl\src\lv_objx\../lv_core/../lv_font/lv_font.h **** #define LV_FONT_KERN_NEGATIVE        1
  36:..\..\..\lvgl\version_6.1.2\lvgl\src\lv_objx\../lv_core/../lv_font/lv_font.h **** 
  37:..\..\..\lvgl\version_6.1.2\lvgl\src\lv_objx\../lv_core/../lv_font/lv_font.h **** /**********************
  38:..\..\..\lvgl\version_6.1.2\lvgl\src\lv_objx\../lv_core/../lv_font/lv_font.h ****  *      TYPEDEFS
  39:..\..\..\lvgl\version_6.1.2\lvgl\src\lv_objx\../lv_core/../lv_font/lv_font.h ****  **********************/
  40:..\..\..\lvgl\version_6.1.2\lvgl\src\lv_objx\../lv_core/../lv_font/lv_font.h **** 
  41:..\..\..\lvgl\version_6.1.2\lvgl\src\lv_objx\../lv_core/../lv_font/lv_font.h **** /*------------------
  42:..\..\..\lvgl\version_6.1.2\lvgl\src\lv_objx\../lv_core/../lv_font/lv_font.h ****  * General types
  43:..\..\..\lvgl\version_6.1.2\lvgl\src\lv_objx\../lv_core/../lv_font/lv_font.h ****  *-----------------*/
  44:..\..\..\lvgl\version_6.1.2\lvgl\src\lv_objx\../lv_core/../lv_font/lv_font.h **** 
  45:..\..\..\lvgl\version_6.1.2\lvgl\src\lv_objx\../lv_core/../lv_font/lv_font.h **** /** Describes the properties of a glyph. */
  46:..\..\..\lvgl\version_6.1.2\lvgl\src\lv_objx\../lv_core/../lv_font/lv_font.h **** typedef struct
  47:..\..\..\lvgl\version_6.1.2\lvgl\src\lv_objx\../lv_core/../lv_font/lv_font.h **** {
  48:..\..\..\lvgl\version_6.1.2\lvgl\src\lv_objx\../lv_core/../lv_font/lv_font.h ****     uint16_t adv_w; /**< The glyph needs this space. Draw the next glyph after this width. 8 bit in
  49:..\..\..\lvgl\version_6.1.2\lvgl\src\lv_objx\../lv_core/../lv_font/lv_font.h ****     uint8_t box_w;  /**< Width of the glyph's bounding box*/
  50:..\..\..\lvgl\version_6.1.2\lvgl\src\lv_objx\../lv_core/../lv_font/lv_font.h ****     uint8_t box_h;  /**< Height of the glyph's bounding box*/
  51:..\..\..\lvgl\version_6.1.2\lvgl\src\lv_objx\../lv_core/../lv_font/lv_font.h ****     int8_t ofs_x;   /**< x offset of the bounding box*/
  52:..\..\..\lvgl\version_6.1.2\lvgl\src\lv_objx\../lv_core/../lv_font/lv_font.h ****     int8_t ofs_y;  /**< y offset of the bounding box*/
  53:..\..\..\lvgl\version_6.1.2\lvgl\src\lv_objx\../lv_core/../lv_font/lv_font.h ****     uint8_t bpp;   /**< Bit-per-pixel: 1, 2, 4, 8*/
  54:..\..\..\lvgl\version_6.1.2\lvgl\src\lv_objx\../lv_core/../lv_font/lv_font.h **** }lv_font_glyph_dsc_t;
  55:..\..\..\lvgl\version_6.1.2\lvgl\src\lv_objx\../lv_core/../lv_font/lv_font.h **** 
  56:..\..\..\lvgl\version_6.1.2\lvgl\src\lv_objx\../lv_core/../lv_font/lv_font.h **** 
  57:..\..\..\lvgl\version_6.1.2\lvgl\src\lv_objx\../lv_core/../lv_font/lv_font.h **** /** The bitmaps might be upscaled by 3 to achieve subpixel rendering. */
  58:..\..\..\lvgl\version_6.1.2\lvgl\src\lv_objx\../lv_core/../lv_font/lv_font.h **** enum {
  59:..\..\..\lvgl\version_6.1.2\lvgl\src\lv_objx\../lv_core/../lv_font/lv_font.h ****     LV_FONT_SUBPX_NONE,
  60:..\..\..\lvgl\version_6.1.2\lvgl\src\lv_objx\../lv_core/../lv_font/lv_font.h ****     LV_FONT_SUBPX_HOR,
  61:..\..\..\lvgl\version_6.1.2\lvgl\src\lv_objx\../lv_core/../lv_font/lv_font.h ****     LV_FONT_SUBPX_VER,
  62:..\..\..\lvgl\version_6.1.2\lvgl\src\lv_objx\../lv_core/../lv_font/lv_font.h ****     LV_FONT_SUBPX_BOTH,
  63:..\..\..\lvgl\version_6.1.2\lvgl\src\lv_objx\../lv_core/../lv_font/lv_font.h **** };
  64:..\..\..\lvgl\version_6.1.2\lvgl\src\lv_objx\../lv_core/../lv_font/lv_font.h **** 
  65:..\..\..\lvgl\version_6.1.2\lvgl\src\lv_objx\../lv_core/../lv_font/lv_font.h **** typedef uint8_t lv_font_subpx_t;
  66:..\..\..\lvgl\version_6.1.2\lvgl\src\lv_objx\../lv_core/../lv_font/lv_font.h **** 
  67:..\..\..\lvgl\version_6.1.2\lvgl\src\lv_objx\../lv_core/../lv_font/lv_font.h **** /** Describe the properties of a font*/
  68:..\..\..\lvgl\version_6.1.2\lvgl\src\lv_objx\../lv_core/../lv_font/lv_font.h **** typedef struct _lv_font_struct
  69:..\..\..\lvgl\version_6.1.2\lvgl\src\lv_objx\../lv_core/../lv_font/lv_font.h **** {
  70:..\..\..\lvgl\version_6.1.2\lvgl\src\lv_objx\../lv_core/../lv_font/lv_font.h ****     /** Get a glyph's  descriptor from a font*/
  71:..\..\..\lvgl\version_6.1.2\lvgl\src\lv_objx\../lv_core/../lv_font/lv_font.h ****     bool (*get_glyph_dsc)(const struct _lv_font_struct *, lv_font_glyph_dsc_t *, uint32_t letter, u
  72:..\..\..\lvgl\version_6.1.2\lvgl\src\lv_objx\../lv_core/../lv_font/lv_font.h **** 
  73:..\..\..\lvgl\version_6.1.2\lvgl\src\lv_objx\../lv_core/../lv_font/lv_font.h ****     /** Get a glyph's bitmap from a font*/
  74:..\..\..\lvgl\version_6.1.2\lvgl\src\lv_objx\../lv_core/../lv_font/lv_font.h ****     const uint8_t * (*get_glyph_bitmap)(const struct _lv_font_struct *, uint32_t);
  75:..\..\..\lvgl\version_6.1.2\lvgl\src\lv_objx\../lv_core/../lv_font/lv_font.h **** 
  76:..\..\..\lvgl\version_6.1.2\lvgl\src\lv_objx\../lv_core/../lv_font/lv_font.h ****     /*Pointer to the font in a font pack (must have the same line height)*/
  77:..\..\..\lvgl\version_6.1.2\lvgl\src\lv_objx\../lv_core/../lv_font/lv_font.h ****     uint8_t line_height;      /**< The real line height where any text fits*/
  78:..\..\..\lvgl\version_6.1.2\lvgl\src\lv_objx\../lv_core/../lv_font/lv_font.h ****     int8_t base_line;        /**< Base line measured from the top of the line_height*/
  79:..\..\..\lvgl\version_6.1.2\lvgl\src\lv_objx\../lv_core/../lv_font/lv_font.h ****     uint8_t subpx  :2;        /**< An element of `lv_font_subpx_t`*/
  80:..\..\..\lvgl\version_6.1.2\lvgl\src\lv_objx\../lv_core/../lv_font/lv_font.h ****     void * dsc;               /**< Store implementation specific or run_time data or caching here*/
  81:..\..\..\lvgl\version_6.1.2\lvgl\src\lv_objx\../lv_core/../lv_font/lv_font.h **** #if LV_USE_USER_DATA
  82:..\..\..\lvgl\version_6.1.2\lvgl\src\lv_objx\../lv_core/../lv_font/lv_font.h ****     lv_font_user_data_t user_data; /**< Custom user data for font. */
  83:..\..\..\lvgl\version_6.1.2\lvgl\src\lv_objx\../lv_core/../lv_font/lv_font.h **** #endif
  84:..\..\..\lvgl\version_6.1.2\lvgl\src\lv_objx\../lv_core/../lv_font/lv_font.h **** 
  85:..\..\..\lvgl\version_6.1.2\lvgl\src\lv_objx\../lv_core/../lv_font/lv_font.h **** 
  86:..\..\..\lvgl\version_6.1.2\lvgl\src\lv_objx\../lv_core/../lv_font/lv_font.h **** } lv_font_t;
  87:..\..\..\lvgl\version_6.1.2\lvgl\src\lv_objx\../lv_core/../lv_font/lv_font.h **** 
ARM GAS  C:\Users\tmj32\AppData\Local\Temp\ccT5YJ50.s 			page 3


  88:..\..\..\lvgl\version_6.1.2\lvgl\src\lv_objx\../lv_core/../lv_font/lv_font.h **** /**********************
  89:..\..\..\lvgl\version_6.1.2\lvgl\src\lv_objx\../lv_core/../lv_font/lv_font.h ****  * GLOBAL PROTOTYPES
  90:..\..\..\lvgl\version_6.1.2\lvgl\src\lv_objx\../lv_core/../lv_font/lv_font.h ****  **********************/
  91:..\..\..\lvgl\version_6.1.2\lvgl\src\lv_objx\../lv_core/../lv_font/lv_font.h **** 
  92:..\..\..\lvgl\version_6.1.2\lvgl\src\lv_objx\../lv_core/../lv_font/lv_font.h **** /**
  93:..\..\..\lvgl\version_6.1.2\lvgl\src\lv_objx\../lv_core/../lv_font/lv_font.h ****  * Return with the bitmap of a font.
  94:..\..\..\lvgl\version_6.1.2\lvgl\src\lv_objx\../lv_core/../lv_font/lv_font.h ****  * @param font_p pointer to a font
  95:..\..\..\lvgl\version_6.1.2\lvgl\src\lv_objx\../lv_core/../lv_font/lv_font.h ****  * @param letter an UNICODE character code
  96:..\..\..\lvgl\version_6.1.2\lvgl\src\lv_objx\../lv_core/../lv_font/lv_font.h ****  * @return  pointer to the bitmap of the letter
  97:..\..\..\lvgl\version_6.1.2\lvgl\src\lv_objx\../lv_core/../lv_font/lv_font.h ****  */
  98:..\..\..\lvgl\version_6.1.2\lvgl\src\lv_objx\../lv_core/../lv_font/lv_font.h **** const uint8_t * lv_font_get_glyph_bitmap(const lv_font_t * font_p, uint32_t letter);
  99:..\..\..\lvgl\version_6.1.2\lvgl\src\lv_objx\../lv_core/../lv_font/lv_font.h **** 
 100:..\..\..\lvgl\version_6.1.2\lvgl\src\lv_objx\../lv_core/../lv_font/lv_font.h **** /**
 101:..\..\..\lvgl\version_6.1.2\lvgl\src\lv_objx\../lv_core/../lv_font/lv_font.h ****  * Get the descriptor of a glyph
 102:..\..\..\lvgl\version_6.1.2\lvgl\src\lv_objx\../lv_core/../lv_font/lv_font.h ****  * @param font_p pointer to font
 103:..\..\..\lvgl\version_6.1.2\lvgl\src\lv_objx\../lv_core/../lv_font/lv_font.h ****  * @param dsc_out store the result descriptor here
 104:..\..\..\lvgl\version_6.1.2\lvgl\src\lv_objx\../lv_core/../lv_font/lv_font.h ****  * @param letter an UNICODE letter code
 105:..\..\..\lvgl\version_6.1.2\lvgl\src\lv_objx\../lv_core/../lv_font/lv_font.h ****  * @return true: descriptor is successfully loaded into `dsc_out`.
 106:..\..\..\lvgl\version_6.1.2\lvgl\src\lv_objx\../lv_core/../lv_font/lv_font.h ****  *         false: the letter was not found, no data is loaded to `dsc_out`
 107:..\..\..\lvgl\version_6.1.2\lvgl\src\lv_objx\../lv_core/../lv_font/lv_font.h ****  */
 108:..\..\..\lvgl\version_6.1.2\lvgl\src\lv_objx\../lv_core/../lv_font/lv_font.h **** bool lv_font_get_glyph_dsc(const lv_font_t * font_p, lv_font_glyph_dsc_t * dsc_out, uint32_t letter
 109:..\..\..\lvgl\version_6.1.2\lvgl\src\lv_objx\../lv_core/../lv_font/lv_font.h **** 
 110:..\..\..\lvgl\version_6.1.2\lvgl\src\lv_objx\../lv_core/../lv_font/lv_font.h **** /**
 111:..\..\..\lvgl\version_6.1.2\lvgl\src\lv_objx\../lv_core/../lv_font/lv_font.h ****  * Get the width of a glyph with kerning
 112:..\..\..\lvgl\version_6.1.2\lvgl\src\lv_objx\../lv_core/../lv_font/lv_font.h ****  * @param font pointer to a font
 113:..\..\..\lvgl\version_6.1.2\lvgl\src\lv_objx\../lv_core/../lv_font/lv_font.h ****  * @param letter an UNICODE letter
 114:..\..\..\lvgl\version_6.1.2\lvgl\src\lv_objx\../lv_core/../lv_font/lv_font.h ****  * @param letter_next the next letter after `letter`. Used for kerning
 115:..\..\..\lvgl\version_6.1.2\lvgl\src\lv_objx\../lv_core/../lv_font/lv_font.h ****  * @return the width of the glyph
 116:..\..\..\lvgl\version_6.1.2\lvgl\src\lv_objx\../lv_core/../lv_font/lv_font.h ****  */
 117:..\..\..\lvgl\version_6.1.2\lvgl\src\lv_objx\../lv_core/../lv_font/lv_font.h **** uint16_t lv_font_get_glyph_width(const lv_font_t * font, uint32_t letter, uint32_t letter_next);
 118:..\..\..\lvgl\version_6.1.2\lvgl\src\lv_objx\../lv_core/../lv_font/lv_font.h **** 
 119:..\..\..\lvgl\version_6.1.2\lvgl\src\lv_objx\../lv_core/../lv_font/lv_font.h **** /**
 120:..\..\..\lvgl\version_6.1.2\lvgl\src\lv_objx\../lv_core/../lv_font/lv_font.h ****  * Get the line height of a font. All characters fit into this height
 121:..\..\..\lvgl\version_6.1.2\lvgl\src\lv_objx\../lv_core/../lv_font/lv_font.h ****  * @param font_p pointer to a font
 122:..\..\..\lvgl\version_6.1.2\lvgl\src\lv_objx\../lv_core/../lv_font/lv_font.h ****  * @return the height of a font
 123:..\..\..\lvgl\version_6.1.2\lvgl\src\lv_objx\../lv_core/../lv_font/lv_font.h ****  */
 124:..\..\..\lvgl\version_6.1.2\lvgl\src\lv_objx\../lv_core/../lv_font/lv_font.h **** static inline uint8_t lv_font_get_line_height(const lv_font_t * font_p)
 125:..\..\..\lvgl\version_6.1.2\lvgl\src\lv_objx\../lv_core/../lv_font/lv_font.h **** {
  28              		.loc 1 125 0
  29              		.cfi_startproc
  30              		@ args = 0, pretend = 0, frame = 8
  31              		@ frame_needed = 1, uses_anonymous_args = 0
  32              		@ link register save eliminated.
  33 0000 80B4     		push	{r7}
  34              		.cfi_def_cfa_offset 4
  35              		.cfi_offset 7, -4
  36 0002 83B0     		sub	sp, sp, #12
  37              		.cfi_def_cfa_offset 16
  38 0004 00AF     		add	r7, sp, #0
  39              		.cfi_def_cfa_register 7
  40 0006 7860     		str	r0, [r7, #4]
 126:..\..\..\lvgl\version_6.1.2\lvgl\src\lv_objx\../lv_core/../lv_font/lv_font.h ****     return font_p->line_height;
  41              		.loc 1 126 0
  42 0008 7B68     		ldr	r3, [r7, #4]
  43 000a 1B7A     		ldrb	r3, [r3, #8]	@ zero_extendqisi2
 127:..\..\..\lvgl\version_6.1.2\lvgl\src\lv_objx\../lv_core/../lv_font/lv_font.h **** }
  44              		.loc 1 127 0
ARM GAS  C:\Users\tmj32\AppData\Local\Temp\ccT5YJ50.s 			page 4


  45 000c 1846     		mov	r0, r3
  46 000e 0C37     		adds	r7, r7, #12
  47              		.cfi_def_cfa_offset 4
  48 0010 BD46     		mov	sp, r7
  49              		.cfi_def_cfa_register 13
  50              		@ sp needed
  51 0012 5DF8047B 		ldr	r7, [sp], #4
  52              		.cfi_restore 7
  53              		.cfi_def_cfa_offset 0
  54 0016 7047     		bx	lr
  55              		.cfi_endproc
  56              	.LFE0:
  57              		.size	lv_font_get_line_height, .-lv_font_get_line_height
  58              		.section	.text.lv_area_copy,"ax",%progbits
  59              		.align	2
  60              		.thumb
  61              		.thumb_func
  62              		.type	lv_area_copy, %function
  63              	lv_area_copy:
  64              	.LFB10:
  65              		.file 2 "..\\..\\..\\lvgl\\version_6.1.2\\lvgl\\src\\lv_objx\\../lv_core/../lv_misc/lv_area.h"
   1:..\..\..\lvgl\version_6.1.2\lvgl\src\lv_objx\../lv_core/../lv_misc/lv_area.h **** /**
   2:..\..\..\lvgl\version_6.1.2\lvgl\src\lv_objx\../lv_core/../lv_misc/lv_area.h ****  * @file lv_area.h
   3:..\..\..\lvgl\version_6.1.2\lvgl\src\lv_objx\../lv_core/../lv_misc/lv_area.h ****  *
   4:..\..\..\lvgl\version_6.1.2\lvgl\src\lv_objx\../lv_core/../lv_misc/lv_area.h ****  */
   5:..\..\..\lvgl\version_6.1.2\lvgl\src\lv_objx\../lv_core/../lv_misc/lv_area.h **** 
   6:..\..\..\lvgl\version_6.1.2\lvgl\src\lv_objx\../lv_core/../lv_misc/lv_area.h **** #ifndef LV_AREA_H
   7:..\..\..\lvgl\version_6.1.2\lvgl\src\lv_objx\../lv_core/../lv_misc/lv_area.h **** #define LV_AREA_H
   8:..\..\..\lvgl\version_6.1.2\lvgl\src\lv_objx\../lv_core/../lv_misc/lv_area.h **** 
   9:..\..\..\lvgl\version_6.1.2\lvgl\src\lv_objx\../lv_core/../lv_misc/lv_area.h **** #ifdef __cplusplus
  10:..\..\..\lvgl\version_6.1.2\lvgl\src\lv_objx\../lv_core/../lv_misc/lv_area.h **** extern "C" {
  11:..\..\..\lvgl\version_6.1.2\lvgl\src\lv_objx\../lv_core/../lv_misc/lv_area.h **** #endif
  12:..\..\..\lvgl\version_6.1.2\lvgl\src\lv_objx\../lv_core/../lv_misc/lv_area.h **** 
  13:..\..\..\lvgl\version_6.1.2\lvgl\src\lv_objx\../lv_core/../lv_misc/lv_area.h **** /*********************
  14:..\..\..\lvgl\version_6.1.2\lvgl\src\lv_objx\../lv_core/../lv_misc/lv_area.h ****  *      INCLUDES
  15:..\..\..\lvgl\version_6.1.2\lvgl\src\lv_objx\../lv_core/../lv_misc/lv_area.h ****  *********************/
  16:..\..\..\lvgl\version_6.1.2\lvgl\src\lv_objx\../lv_core/../lv_misc/lv_area.h **** #include <string.h>
  17:..\..\..\lvgl\version_6.1.2\lvgl\src\lv_objx\../lv_core/../lv_misc/lv_area.h **** #include <stdbool.h>
  18:..\..\..\lvgl\version_6.1.2\lvgl\src\lv_objx\../lv_core/../lv_misc/lv_area.h **** #include <stdint.h>
  19:..\..\..\lvgl\version_6.1.2\lvgl\src\lv_objx\../lv_core/../lv_misc/lv_area.h **** #ifdef LV_CONF_INCLUDE_SIMPLE
  20:..\..\..\lvgl\version_6.1.2\lvgl\src\lv_objx\../lv_core/../lv_misc/lv_area.h **** #include "lv_conf.h"
  21:..\..\..\lvgl\version_6.1.2\lvgl\src\lv_objx\../lv_core/../lv_misc/lv_area.h **** #else
  22:..\..\..\lvgl\version_6.1.2\lvgl\src\lv_objx\../lv_core/../lv_misc/lv_area.h **** #include "../../../lv_conf.h"
  23:..\..\..\lvgl\version_6.1.2\lvgl\src\lv_objx\../lv_core/../lv_misc/lv_area.h **** #endif
  24:..\..\..\lvgl\version_6.1.2\lvgl\src\lv_objx\../lv_core/../lv_misc/lv_area.h **** 
  25:..\..\..\lvgl\version_6.1.2\lvgl\src\lv_objx\../lv_core/../lv_misc/lv_area.h **** /*********************
  26:..\..\..\lvgl\version_6.1.2\lvgl\src\lv_objx\../lv_core/../lv_misc/lv_area.h ****  *      DEFINES
  27:..\..\..\lvgl\version_6.1.2\lvgl\src\lv_objx\../lv_core/../lv_misc/lv_area.h ****  *********************/
  28:..\..\..\lvgl\version_6.1.2\lvgl\src\lv_objx\../lv_core/../lv_misc/lv_area.h **** /*To avoid overflow don't let the max ranges (reduce with 1000) */
  29:..\..\..\lvgl\version_6.1.2\lvgl\src\lv_objx\../lv_core/../lv_misc/lv_area.h **** #define LV_COORD_MAX ((lv_coord_t)((uint32_t)((uint32_t)1 << (8 * sizeof(lv_coord_t) - 1)) - 1000))
  30:..\..\..\lvgl\version_6.1.2\lvgl\src\lv_objx\../lv_core/../lv_misc/lv_area.h **** #define LV_COORD_MIN (-LV_COORD_MAX)
  31:..\..\..\lvgl\version_6.1.2\lvgl\src\lv_objx\../lv_core/../lv_misc/lv_area.h **** 
  32:..\..\..\lvgl\version_6.1.2\lvgl\src\lv_objx\../lv_core/../lv_misc/lv_area.h **** LV_EXPORT_CONST_INT(LV_COORD_MAX);
  33:..\..\..\lvgl\version_6.1.2\lvgl\src\lv_objx\../lv_core/../lv_misc/lv_area.h **** LV_EXPORT_CONST_INT(LV_COORD_MIN);
  34:..\..\..\lvgl\version_6.1.2\lvgl\src\lv_objx\../lv_core/../lv_misc/lv_area.h **** 
  35:..\..\..\lvgl\version_6.1.2\lvgl\src\lv_objx\../lv_core/../lv_misc/lv_area.h **** /**********************
  36:..\..\..\lvgl\version_6.1.2\lvgl\src\lv_objx\../lv_core/../lv_misc/lv_area.h ****  *      TYPEDEFS
ARM GAS  C:\Users\tmj32\AppData\Local\Temp\ccT5YJ50.s 			page 5


  37:..\..\..\lvgl\version_6.1.2\lvgl\src\lv_objx\../lv_core/../lv_misc/lv_area.h ****  **********************/
  38:..\..\..\lvgl\version_6.1.2\lvgl\src\lv_objx\../lv_core/../lv_misc/lv_area.h **** 
  39:..\..\..\lvgl\version_6.1.2\lvgl\src\lv_objx\../lv_core/../lv_misc/lv_area.h **** /**
  40:..\..\..\lvgl\version_6.1.2\lvgl\src\lv_objx\../lv_core/../lv_misc/lv_area.h ****  * Represents a point on the screen.
  41:..\..\..\lvgl\version_6.1.2\lvgl\src\lv_objx\../lv_core/../lv_misc/lv_area.h ****  */
  42:..\..\..\lvgl\version_6.1.2\lvgl\src\lv_objx\../lv_core/../lv_misc/lv_area.h **** typedef struct
  43:..\..\..\lvgl\version_6.1.2\lvgl\src\lv_objx\../lv_core/../lv_misc/lv_area.h **** {
  44:..\..\..\lvgl\version_6.1.2\lvgl\src\lv_objx\../lv_core/../lv_misc/lv_area.h ****     lv_coord_t x;
  45:..\..\..\lvgl\version_6.1.2\lvgl\src\lv_objx\../lv_core/../lv_misc/lv_area.h ****     lv_coord_t y;
  46:..\..\..\lvgl\version_6.1.2\lvgl\src\lv_objx\../lv_core/../lv_misc/lv_area.h **** } lv_point_t;
  47:..\..\..\lvgl\version_6.1.2\lvgl\src\lv_objx\../lv_core/../lv_misc/lv_area.h **** 
  48:..\..\..\lvgl\version_6.1.2\lvgl\src\lv_objx\../lv_core/../lv_misc/lv_area.h **** /** Represents an area of the screen. */
  49:..\..\..\lvgl\version_6.1.2\lvgl\src\lv_objx\../lv_core/../lv_misc/lv_area.h **** typedef struct
  50:..\..\..\lvgl\version_6.1.2\lvgl\src\lv_objx\../lv_core/../lv_misc/lv_area.h **** {
  51:..\..\..\lvgl\version_6.1.2\lvgl\src\lv_objx\../lv_core/../lv_misc/lv_area.h ****     lv_coord_t x1;
  52:..\..\..\lvgl\version_6.1.2\lvgl\src\lv_objx\../lv_core/../lv_misc/lv_area.h ****     lv_coord_t y1;
  53:..\..\..\lvgl\version_6.1.2\lvgl\src\lv_objx\../lv_core/../lv_misc/lv_area.h ****     lv_coord_t x2;
  54:..\..\..\lvgl\version_6.1.2\lvgl\src\lv_objx\../lv_core/../lv_misc/lv_area.h ****     lv_coord_t y2;
  55:..\..\..\lvgl\version_6.1.2\lvgl\src\lv_objx\../lv_core/../lv_misc/lv_area.h **** } lv_area_t;
  56:..\..\..\lvgl\version_6.1.2\lvgl\src\lv_objx\../lv_core/../lv_misc/lv_area.h **** 
  57:..\..\..\lvgl\version_6.1.2\lvgl\src\lv_objx\../lv_core/../lv_misc/lv_area.h **** /**********************
  58:..\..\..\lvgl\version_6.1.2\lvgl\src\lv_objx\../lv_core/../lv_misc/lv_area.h ****  * GLOBAL PROTOTYPES
  59:..\..\..\lvgl\version_6.1.2\lvgl\src\lv_objx\../lv_core/../lv_misc/lv_area.h ****  **********************/
  60:..\..\..\lvgl\version_6.1.2\lvgl\src\lv_objx\../lv_core/../lv_misc/lv_area.h **** 
  61:..\..\..\lvgl\version_6.1.2\lvgl\src\lv_objx\../lv_core/../lv_misc/lv_area.h **** /**
  62:..\..\..\lvgl\version_6.1.2\lvgl\src\lv_objx\../lv_core/../lv_misc/lv_area.h ****  * Initialize an area
  63:..\..\..\lvgl\version_6.1.2\lvgl\src\lv_objx\../lv_core/../lv_misc/lv_area.h ****  * @param area_p pointer to an area
  64:..\..\..\lvgl\version_6.1.2\lvgl\src\lv_objx\../lv_core/../lv_misc/lv_area.h ****  * @param x1 left coordinate of the area
  65:..\..\..\lvgl\version_6.1.2\lvgl\src\lv_objx\../lv_core/../lv_misc/lv_area.h ****  * @param y1 top coordinate of the area
  66:..\..\..\lvgl\version_6.1.2\lvgl\src\lv_objx\../lv_core/../lv_misc/lv_area.h ****  * @param x2 right coordinate of the area
  67:..\..\..\lvgl\version_6.1.2\lvgl\src\lv_objx\../lv_core/../lv_misc/lv_area.h ****  * @param y2 bottom coordinate of the area
  68:..\..\..\lvgl\version_6.1.2\lvgl\src\lv_objx\../lv_core/../lv_misc/lv_area.h ****  */
  69:..\..\..\lvgl\version_6.1.2\lvgl\src\lv_objx\../lv_core/../lv_misc/lv_area.h **** void lv_area_set(lv_area_t * area_p, lv_coord_t x1, lv_coord_t y1, lv_coord_t x2, lv_coord_t y2);
  70:..\..\..\lvgl\version_6.1.2\lvgl\src\lv_objx\../lv_core/../lv_misc/lv_area.h **** 
  71:..\..\..\lvgl\version_6.1.2\lvgl\src\lv_objx\../lv_core/../lv_misc/lv_area.h **** /**
  72:..\..\..\lvgl\version_6.1.2\lvgl\src\lv_objx\../lv_core/../lv_misc/lv_area.h ****  * Copy an area
  73:..\..\..\lvgl\version_6.1.2\lvgl\src\lv_objx\../lv_core/../lv_misc/lv_area.h ****  * @param dest pointer to the destination area
  74:..\..\..\lvgl\version_6.1.2\lvgl\src\lv_objx\../lv_core/../lv_misc/lv_area.h ****  * @param src pointer to the source area
  75:..\..\..\lvgl\version_6.1.2\lvgl\src\lv_objx\../lv_core/../lv_misc/lv_area.h ****  */
  76:..\..\..\lvgl\version_6.1.2\lvgl\src\lv_objx\../lv_core/../lv_misc/lv_area.h **** inline static void lv_area_copy(lv_area_t * dest, const lv_area_t * src)
  77:..\..\..\lvgl\version_6.1.2\lvgl\src\lv_objx\../lv_core/../lv_misc/lv_area.h **** {
  66              		.loc 2 77 0
  67              		.cfi_startproc
  68              		@ args = 0, pretend = 0, frame = 8
  69              		@ frame_needed = 1, uses_anonymous_args = 0
  70 0000 80B5     		push	{r7, lr}
  71              		.cfi_def_cfa_offset 8
  72              		.cfi_offset 7, -8
  73              		.cfi_offset 14, -4
  74 0002 82B0     		sub	sp, sp, #8
  75              		.cfi_def_cfa_offset 16
  76 0004 00AF     		add	r7, sp, #0
  77              		.cfi_def_cfa_register 7
  78 0006 7860     		str	r0, [r7, #4]
  79 0008 3960     		str	r1, [r7]
  78:..\..\..\lvgl\version_6.1.2\lvgl\src\lv_objx\../lv_core/../lv_misc/lv_area.h ****     memcpy(dest, src, sizeof(lv_area_t));
  80              		.loc 2 78 0
ARM GAS  C:\Users\tmj32\AppData\Local\Temp\ccT5YJ50.s 			page 6


  81 000a 0822     		movs	r2, #8
  82 000c 3968     		ldr	r1, [r7]
  83 000e 7868     		ldr	r0, [r7, #4]
  84 0010 FFF7FEFF 		bl	memcpy
  79:..\..\..\lvgl\version_6.1.2\lvgl\src\lv_objx\../lv_core/../lv_misc/lv_area.h **** }
  85              		.loc 2 79 0
  86 0014 00BF     		nop
  87 0016 0837     		adds	r7, r7, #8
  88              		.cfi_def_cfa_offset 8
  89 0018 BD46     		mov	sp, r7
  90              		.cfi_def_cfa_register 13
  91              		@ sp needed
  92 001a 80BD     		pop	{r7, pc}
  93              		.cfi_endproc
  94              	.LFE10:
  95              		.size	lv_area_copy, .-lv_area_copy
  96              		.section	.text.lv_area_get_width,"ax",%progbits
  97              		.align	2
  98              		.thumb
  99              		.thumb_func
 100              		.type	lv_area_get_width, %function
 101              	lv_area_get_width:
 102              	.LFB11:
  80:..\..\..\lvgl\version_6.1.2\lvgl\src\lv_objx\../lv_core/../lv_misc/lv_area.h **** 
  81:..\..\..\lvgl\version_6.1.2\lvgl\src\lv_objx\../lv_core/../lv_misc/lv_area.h **** /**
  82:..\..\..\lvgl\version_6.1.2\lvgl\src\lv_objx\../lv_core/../lv_misc/lv_area.h ****  * Get the width of an area
  83:..\..\..\lvgl\version_6.1.2\lvgl\src\lv_objx\../lv_core/../lv_misc/lv_area.h ****  * @param area_p pointer to an area
  84:..\..\..\lvgl\version_6.1.2\lvgl\src\lv_objx\../lv_core/../lv_misc/lv_area.h ****  * @return the width of the area (if x1 == x2 -> width = 1)
  85:..\..\..\lvgl\version_6.1.2\lvgl\src\lv_objx\../lv_core/../lv_misc/lv_area.h ****  */
  86:..\..\..\lvgl\version_6.1.2\lvgl\src\lv_objx\../lv_core/../lv_misc/lv_area.h **** static inline lv_coord_t lv_area_get_width(const lv_area_t * area_p)
  87:..\..\..\lvgl\version_6.1.2\lvgl\src\lv_objx\../lv_core/../lv_misc/lv_area.h **** {
 103              		.loc 2 87 0
 104              		.cfi_startproc
 105              		@ args = 0, pretend = 0, frame = 8
 106              		@ frame_needed = 1, uses_anonymous_args = 0
 107              		@ link register save eliminated.
 108 0000 80B4     		push	{r7}
 109              		.cfi_def_cfa_offset 4
 110              		.cfi_offset 7, -4
 111 0002 83B0     		sub	sp, sp, #12
 112              		.cfi_def_cfa_offset 16
 113 0004 00AF     		add	r7, sp, #0
 114              		.cfi_def_cfa_register 7
 115 0006 7860     		str	r0, [r7, #4]
  88:..\..\..\lvgl\version_6.1.2\lvgl\src\lv_objx\../lv_core/../lv_misc/lv_area.h ****     return (lv_coord_t)(area_p->x2 - area_p->x1 + 1);
 116              		.loc 2 88 0
 117 0008 7B68     		ldr	r3, [r7, #4]
 118 000a B3F90430 		ldrsh	r3, [r3, #4]
 119 000e 9AB2     		uxth	r2, r3
 120 0010 7B68     		ldr	r3, [r7, #4]
 121 0012 B3F90030 		ldrsh	r3, [r3]
 122 0016 9BB2     		uxth	r3, r3
 123 0018 D31A     		subs	r3, r2, r3
 124 001a 9BB2     		uxth	r3, r3
 125 001c 0133     		adds	r3, r3, #1
 126 001e 9BB2     		uxth	r3, r3
 127 0020 1BB2     		sxth	r3, r3
ARM GAS  C:\Users\tmj32\AppData\Local\Temp\ccT5YJ50.s 			page 7


  89:..\..\..\lvgl\version_6.1.2\lvgl\src\lv_objx\../lv_core/../lv_misc/lv_area.h **** }
 128              		.loc 2 89 0
 129 0022 1846     		mov	r0, r3
 130 0024 0C37     		adds	r7, r7, #12
 131              		.cfi_def_cfa_offset 4
 132 0026 BD46     		mov	sp, r7
 133              		.cfi_def_cfa_register 13
 134              		@ sp needed
 135 0028 5DF8047B 		ldr	r7, [sp], #4
 136              		.cfi_restore 7
 137              		.cfi_def_cfa_offset 0
 138 002c 7047     		bx	lr
 139              		.cfi_endproc
 140              	.LFE11:
 141              		.size	lv_area_get_width, .-lv_area_get_width
 142 002e 00BF     		.section	.text.lv_area_get_height,"ax",%progbits
 143              		.align	2
 144              		.thumb
 145              		.thumb_func
 146              		.type	lv_area_get_height, %function
 147              	lv_area_get_height:
 148              	.LFB12:
  90:..\..\..\lvgl\version_6.1.2\lvgl\src\lv_objx\../lv_core/../lv_misc/lv_area.h **** 
  91:..\..\..\lvgl\version_6.1.2\lvgl\src\lv_objx\../lv_core/../lv_misc/lv_area.h **** /**
  92:..\..\..\lvgl\version_6.1.2\lvgl\src\lv_objx\../lv_core/../lv_misc/lv_area.h ****  * Get the height of an area
  93:..\..\..\lvgl\version_6.1.2\lvgl\src\lv_objx\../lv_core/../lv_misc/lv_area.h ****  * @param area_p pointer to an area
  94:..\..\..\lvgl\version_6.1.2\lvgl\src\lv_objx\../lv_core/../lv_misc/lv_area.h ****  * @return the height of the area (if y1 == y2 -> height = 1)
  95:..\..\..\lvgl\version_6.1.2\lvgl\src\lv_objx\../lv_core/../lv_misc/lv_area.h ****  */
  96:..\..\..\lvgl\version_6.1.2\lvgl\src\lv_objx\../lv_core/../lv_misc/lv_area.h **** static inline lv_coord_t lv_area_get_height(const lv_area_t * area_p)
  97:..\..\..\lvgl\version_6.1.2\lvgl\src\lv_objx\../lv_core/../lv_misc/lv_area.h **** {
 149              		.loc 2 97 0
 150              		.cfi_startproc
 151              		@ args = 0, pretend = 0, frame = 8
 152              		@ frame_needed = 1, uses_anonymous_args = 0
 153              		@ link register save eliminated.
 154 0000 80B4     		push	{r7}
 155              		.cfi_def_cfa_offset 4
 156              		.cfi_offset 7, -4
 157 0002 83B0     		sub	sp, sp, #12
 158              		.cfi_def_cfa_offset 16
 159 0004 00AF     		add	r7, sp, #0
 160              		.cfi_def_cfa_register 7
 161 0006 7860     		str	r0, [r7, #4]
  98:..\..\..\lvgl\version_6.1.2\lvgl\src\lv_objx\../lv_core/../lv_misc/lv_area.h ****     return (lv_coord_t)(area_p->y2 - area_p->y1 + 1);
 162              		.loc 2 98 0
 163 0008 7B68     		ldr	r3, [r7, #4]
 164 000a B3F90630 		ldrsh	r3, [r3, #6]
 165 000e 9AB2     		uxth	r2, r3
 166 0010 7B68     		ldr	r3, [r7, #4]
 167 0012 B3F90230 		ldrsh	r3, [r3, #2]
 168 0016 9BB2     		uxth	r3, r3
 169 0018 D31A     		subs	r3, r2, r3
 170 001a 9BB2     		uxth	r3, r3
 171 001c 0133     		adds	r3, r3, #1
 172 001e 9BB2     		uxth	r3, r3
 173 0020 1BB2     		sxth	r3, r3
  99:..\..\..\lvgl\version_6.1.2\lvgl\src\lv_objx\../lv_core/../lv_misc/lv_area.h **** }
ARM GAS  C:\Users\tmj32\AppData\Local\Temp\ccT5YJ50.s 			page 8


 174              		.loc 2 99 0
 175 0022 1846     		mov	r0, r3
 176 0024 0C37     		adds	r7, r7, #12
 177              		.cfi_def_cfa_offset 4
 178 0026 BD46     		mov	sp, r7
 179              		.cfi_def_cfa_register 13
 180              		@ sp needed
 181 0028 5DF8047B 		ldr	r7, [sp], #4
 182              		.cfi_restore 7
 183              		.cfi_def_cfa_offset 0
 184 002c 7047     		bx	lr
 185              		.cfi_endproc
 186              	.LFE12:
 187              		.size	lv_area_get_height, .-lv_area_get_height
 188 002e 00BF     		.section	.text.lv_cont_set_fit2,"ax",%progbits
 189              		.align	2
 190              		.thumb
 191              		.thumb_func
 192              		.type	lv_cont_set_fit2, %function
 193              	lv_cont_set_fit2:
 194              	.LFB31:
 195              		.file 3 "..\\..\\..\\lvgl\\version_6.1.2\\lvgl\\src\\lv_objx\\../lv_objx/lv_cont.h"
   1:..\..\..\lvgl\version_6.1.2\lvgl\src\lv_objx\../lv_objx/lv_cont.h **** /**
   2:..\..\..\lvgl\version_6.1.2\lvgl\src\lv_objx\../lv_objx/lv_cont.h ****  * @file lv_cont.h
   3:..\..\..\lvgl\version_6.1.2\lvgl\src\lv_objx\../lv_objx/lv_cont.h ****  *
   4:..\..\..\lvgl\version_6.1.2\lvgl\src\lv_objx\../lv_objx/lv_cont.h ****  */
   5:..\..\..\lvgl\version_6.1.2\lvgl\src\lv_objx\../lv_objx/lv_cont.h **** 
   6:..\..\..\lvgl\version_6.1.2\lvgl\src\lv_objx\../lv_objx/lv_cont.h **** #ifndef LV_CONT_H
   7:..\..\..\lvgl\version_6.1.2\lvgl\src\lv_objx\../lv_objx/lv_cont.h **** #define LV_CONT_H
   8:..\..\..\lvgl\version_6.1.2\lvgl\src\lv_objx\../lv_objx/lv_cont.h **** 
   9:..\..\..\lvgl\version_6.1.2\lvgl\src\lv_objx\../lv_objx/lv_cont.h **** #ifdef __cplusplus
  10:..\..\..\lvgl\version_6.1.2\lvgl\src\lv_objx\../lv_objx/lv_cont.h **** extern "C" {
  11:..\..\..\lvgl\version_6.1.2\lvgl\src\lv_objx\../lv_objx/lv_cont.h **** #endif
  12:..\..\..\lvgl\version_6.1.2\lvgl\src\lv_objx\../lv_objx/lv_cont.h **** 
  13:..\..\..\lvgl\version_6.1.2\lvgl\src\lv_objx\../lv_objx/lv_cont.h **** /*********************
  14:..\..\..\lvgl\version_6.1.2\lvgl\src\lv_objx\../lv_objx/lv_cont.h ****  *      INCLUDES
  15:..\..\..\lvgl\version_6.1.2\lvgl\src\lv_objx\../lv_objx/lv_cont.h ****  *********************/
  16:..\..\..\lvgl\version_6.1.2\lvgl\src\lv_objx\../lv_objx/lv_cont.h **** #ifdef LV_CONF_INCLUDE_SIMPLE
  17:..\..\..\lvgl\version_6.1.2\lvgl\src\lv_objx\../lv_objx/lv_cont.h **** #include "lv_conf.h"
  18:..\..\..\lvgl\version_6.1.2\lvgl\src\lv_objx\../lv_objx/lv_cont.h **** #else
  19:..\..\..\lvgl\version_6.1.2\lvgl\src\lv_objx\../lv_objx/lv_cont.h **** #include "../../../lv_conf.h"
  20:..\..\..\lvgl\version_6.1.2\lvgl\src\lv_objx\../lv_objx/lv_cont.h **** #endif
  21:..\..\..\lvgl\version_6.1.2\lvgl\src\lv_objx\../lv_objx/lv_cont.h **** 
  22:..\..\..\lvgl\version_6.1.2\lvgl\src\lv_objx\../lv_objx/lv_cont.h **** #if LV_USE_CONT != 0
  23:..\..\..\lvgl\version_6.1.2\lvgl\src\lv_objx\../lv_objx/lv_cont.h **** 
  24:..\..\..\lvgl\version_6.1.2\lvgl\src\lv_objx\../lv_objx/lv_cont.h **** #include "../lv_core/lv_obj.h"
  25:..\..\..\lvgl\version_6.1.2\lvgl\src\lv_objx\../lv_objx/lv_cont.h **** 
  26:..\..\..\lvgl\version_6.1.2\lvgl\src\lv_objx\../lv_objx/lv_cont.h **** /*********************
  27:..\..\..\lvgl\version_6.1.2\lvgl\src\lv_objx\../lv_objx/lv_cont.h ****  *      DEFINES
  28:..\..\..\lvgl\version_6.1.2\lvgl\src\lv_objx\../lv_objx/lv_cont.h ****  *********************/
  29:..\..\..\lvgl\version_6.1.2\lvgl\src\lv_objx\../lv_objx/lv_cont.h **** 
  30:..\..\..\lvgl\version_6.1.2\lvgl\src\lv_objx\../lv_objx/lv_cont.h **** /**********************
  31:..\..\..\lvgl\version_6.1.2\lvgl\src\lv_objx\../lv_objx/lv_cont.h ****  *      TYPEDEFS
  32:..\..\..\lvgl\version_6.1.2\lvgl\src\lv_objx\../lv_objx/lv_cont.h ****  **********************/
  33:..\..\..\lvgl\version_6.1.2\lvgl\src\lv_objx\../lv_objx/lv_cont.h **** 
  34:..\..\..\lvgl\version_6.1.2\lvgl\src\lv_objx\../lv_objx/lv_cont.h **** /** Container layout options*/
  35:..\..\..\lvgl\version_6.1.2\lvgl\src\lv_objx\../lv_objx/lv_cont.h **** enum {
ARM GAS  C:\Users\tmj32\AppData\Local\Temp\ccT5YJ50.s 			page 9


  36:..\..\..\lvgl\version_6.1.2\lvgl\src\lv_objx\../lv_objx/lv_cont.h ****     LV_LAYOUT_OFF = 0, /**< No layout */
  37:..\..\..\lvgl\version_6.1.2\lvgl\src\lv_objx\../lv_objx/lv_cont.h ****     LV_LAYOUT_CENTER, /**< Center objects */
  38:..\..\..\lvgl\version_6.1.2\lvgl\src\lv_objx\../lv_objx/lv_cont.h ****     LV_LAYOUT_COL_L,  /**< Column left align*/
  39:..\..\..\lvgl\version_6.1.2\lvgl\src\lv_objx\../lv_objx/lv_cont.h ****     LV_LAYOUT_COL_M,  /**< Column middle align*/
  40:..\..\..\lvgl\version_6.1.2\lvgl\src\lv_objx\../lv_objx/lv_cont.h ****     LV_LAYOUT_COL_R,  /**< Column right align*/
  41:..\..\..\lvgl\version_6.1.2\lvgl\src\lv_objx\../lv_objx/lv_cont.h ****     LV_LAYOUT_ROW_T,  /**< Row top align*/
  42:..\..\..\lvgl\version_6.1.2\lvgl\src\lv_objx\../lv_objx/lv_cont.h ****     LV_LAYOUT_ROW_M,  /**< Row middle align*/
  43:..\..\..\lvgl\version_6.1.2\lvgl\src\lv_objx\../lv_objx/lv_cont.h ****     LV_LAYOUT_ROW_B,  /**< Row bottom align*/
  44:..\..\..\lvgl\version_6.1.2\lvgl\src\lv_objx\../lv_objx/lv_cont.h ****     LV_LAYOUT_PRETTY, /**< Put as many object as possible in row and begin a new row*/
  45:..\..\..\lvgl\version_6.1.2\lvgl\src\lv_objx\../lv_objx/lv_cont.h ****     LV_LAYOUT_GRID,   /**< Align same-sized object into a grid*/
  46:..\..\..\lvgl\version_6.1.2\lvgl\src\lv_objx\../lv_objx/lv_cont.h ****     _LV_LAYOUT_NUM
  47:..\..\..\lvgl\version_6.1.2\lvgl\src\lv_objx\../lv_objx/lv_cont.h **** };
  48:..\..\..\lvgl\version_6.1.2\lvgl\src\lv_objx\../lv_objx/lv_cont.h **** typedef uint8_t lv_layout_t;
  49:..\..\..\lvgl\version_6.1.2\lvgl\src\lv_objx\../lv_objx/lv_cont.h **** 
  50:..\..\..\lvgl\version_6.1.2\lvgl\src\lv_objx\../lv_objx/lv_cont.h **** /**
  51:..\..\..\lvgl\version_6.1.2\lvgl\src\lv_objx\../lv_objx/lv_cont.h ****  * How to resize the container around the children.
  52:..\..\..\lvgl\version_6.1.2\lvgl\src\lv_objx\../lv_objx/lv_cont.h ****  */
  53:..\..\..\lvgl\version_6.1.2\lvgl\src\lv_objx\../lv_objx/lv_cont.h **** enum {
  54:..\..\..\lvgl\version_6.1.2\lvgl\src\lv_objx\../lv_objx/lv_cont.h ****     LV_FIT_NONE,  /**< Do not change the size automatically*/
  55:..\..\..\lvgl\version_6.1.2\lvgl\src\lv_objx\../lv_objx/lv_cont.h ****     LV_FIT_TIGHT, /**< Shrink wrap around the children */
  56:..\..\..\lvgl\version_6.1.2\lvgl\src\lv_objx\../lv_objx/lv_cont.h ****     LV_FIT_FLOOD, /**< Align the size to the parent's edge*/
  57:..\..\..\lvgl\version_6.1.2\lvgl\src\lv_objx\../lv_objx/lv_cont.h ****     LV_FIT_FILL,  /**< Align the size to the parent's edge first but if there is an object out of i
  58:..\..\..\lvgl\version_6.1.2\lvgl\src\lv_objx\../lv_objx/lv_cont.h ****                      then get larger */
  59:..\..\..\lvgl\version_6.1.2\lvgl\src\lv_objx\../lv_objx/lv_cont.h ****     _LV_FIT_NUM
  60:..\..\..\lvgl\version_6.1.2\lvgl\src\lv_objx\../lv_objx/lv_cont.h **** };
  61:..\..\..\lvgl\version_6.1.2\lvgl\src\lv_objx\../lv_objx/lv_cont.h **** typedef uint8_t lv_fit_t;
  62:..\..\..\lvgl\version_6.1.2\lvgl\src\lv_objx\../lv_objx/lv_cont.h **** 
  63:..\..\..\lvgl\version_6.1.2\lvgl\src\lv_objx\../lv_objx/lv_cont.h **** typedef struct
  64:..\..\..\lvgl\version_6.1.2\lvgl\src\lv_objx\../lv_objx/lv_cont.h **** {
  65:..\..\..\lvgl\version_6.1.2\lvgl\src\lv_objx\../lv_objx/lv_cont.h ****     /*Inherited from 'base_obj' so no inherited ext. */ /*Ext. of ancestor*/
  66:..\..\..\lvgl\version_6.1.2\lvgl\src\lv_objx\../lv_objx/lv_cont.h ****     /*New data for this type */
  67:..\..\..\lvgl\version_6.1.2\lvgl\src\lv_objx\../lv_objx/lv_cont.h ****     uint8_t layout : 4;     /*A layout from 'lv_layout_t' enum*/
  68:..\..\..\lvgl\version_6.1.2\lvgl\src\lv_objx\../lv_objx/lv_cont.h ****     uint8_t fit_left : 2;   /*A fit type from `lv_fit_t` enum */
  69:..\..\..\lvgl\version_6.1.2\lvgl\src\lv_objx\../lv_objx/lv_cont.h ****     uint8_t fit_right : 2;  /*A fit type from `lv_fit_t` enum */
  70:..\..\..\lvgl\version_6.1.2\lvgl\src\lv_objx\../lv_objx/lv_cont.h ****     uint8_t fit_top : 2;    /*A fit type from `lv_fit_t` enum */
  71:..\..\..\lvgl\version_6.1.2\lvgl\src\lv_objx\../lv_objx/lv_cont.h ****     uint8_t fit_bottom : 2; /*A fit type from `lv_fit_t` enum */
  72:..\..\..\lvgl\version_6.1.2\lvgl\src\lv_objx\../lv_objx/lv_cont.h **** } lv_cont_ext_t;
  73:..\..\..\lvgl\version_6.1.2\lvgl\src\lv_objx\../lv_objx/lv_cont.h **** 
  74:..\..\..\lvgl\version_6.1.2\lvgl\src\lv_objx\../lv_objx/lv_cont.h **** /*Styles*/
  75:..\..\..\lvgl\version_6.1.2\lvgl\src\lv_objx\../lv_objx/lv_cont.h **** enum {
  76:..\..\..\lvgl\version_6.1.2\lvgl\src\lv_objx\../lv_objx/lv_cont.h ****     LV_CONT_STYLE_MAIN,
  77:..\..\..\lvgl\version_6.1.2\lvgl\src\lv_objx\../lv_objx/lv_cont.h **** };
  78:..\..\..\lvgl\version_6.1.2\lvgl\src\lv_objx\../lv_objx/lv_cont.h **** typedef uint8_t lv_cont_style_t;
  79:..\..\..\lvgl\version_6.1.2\lvgl\src\lv_objx\../lv_objx/lv_cont.h **** 
  80:..\..\..\lvgl\version_6.1.2\lvgl\src\lv_objx\../lv_objx/lv_cont.h **** /**********************
  81:..\..\..\lvgl\version_6.1.2\lvgl\src\lv_objx\../lv_objx/lv_cont.h ****  * GLOBAL PROTOTYPES
  82:..\..\..\lvgl\version_6.1.2\lvgl\src\lv_objx\../lv_objx/lv_cont.h ****  **********************/
  83:..\..\..\lvgl\version_6.1.2\lvgl\src\lv_objx\../lv_objx/lv_cont.h **** 
  84:..\..\..\lvgl\version_6.1.2\lvgl\src\lv_objx\../lv_objx/lv_cont.h **** /**
  85:..\..\..\lvgl\version_6.1.2\lvgl\src\lv_objx\../lv_objx/lv_cont.h ****  * Create a container objects
  86:..\..\..\lvgl\version_6.1.2\lvgl\src\lv_objx\../lv_objx/lv_cont.h ****  * @param par pointer to an object, it will be the parent of the new container
  87:..\..\..\lvgl\version_6.1.2\lvgl\src\lv_objx\../lv_objx/lv_cont.h ****  * @param copy pointer to a container object, if not NULL then the new object will be copied from i
  88:..\..\..\lvgl\version_6.1.2\lvgl\src\lv_objx\../lv_objx/lv_cont.h ****  * @return pointer to the created container
  89:..\..\..\lvgl\version_6.1.2\lvgl\src\lv_objx\../lv_objx/lv_cont.h ****  */
  90:..\..\..\lvgl\version_6.1.2\lvgl\src\lv_objx\../lv_objx/lv_cont.h **** lv_obj_t * lv_cont_create(lv_obj_t * par, const lv_obj_t * copy);
  91:..\..\..\lvgl\version_6.1.2\lvgl\src\lv_objx\../lv_objx/lv_cont.h **** 
  92:..\..\..\lvgl\version_6.1.2\lvgl\src\lv_objx\../lv_objx/lv_cont.h **** /*=====================
ARM GAS  C:\Users\tmj32\AppData\Local\Temp\ccT5YJ50.s 			page 10


  93:..\..\..\lvgl\version_6.1.2\lvgl\src\lv_objx\../lv_objx/lv_cont.h ****  * Setter functions
  94:..\..\..\lvgl\version_6.1.2\lvgl\src\lv_objx\../lv_objx/lv_cont.h ****  *====================*/
  95:..\..\..\lvgl\version_6.1.2\lvgl\src\lv_objx\../lv_objx/lv_cont.h **** 
  96:..\..\..\lvgl\version_6.1.2\lvgl\src\lv_objx\../lv_objx/lv_cont.h **** /**
  97:..\..\..\lvgl\version_6.1.2\lvgl\src\lv_objx\../lv_objx/lv_cont.h ****  * Set a layout on a container
  98:..\..\..\lvgl\version_6.1.2\lvgl\src\lv_objx\../lv_objx/lv_cont.h ****  * @param cont pointer to a container object
  99:..\..\..\lvgl\version_6.1.2\lvgl\src\lv_objx\../lv_objx/lv_cont.h ****  * @param layout a layout from 'lv_cont_layout_t'
 100:..\..\..\lvgl\version_6.1.2\lvgl\src\lv_objx\../lv_objx/lv_cont.h ****  */
 101:..\..\..\lvgl\version_6.1.2\lvgl\src\lv_objx\../lv_objx/lv_cont.h **** void lv_cont_set_layout(lv_obj_t * cont, lv_layout_t layout);
 102:..\..\..\lvgl\version_6.1.2\lvgl\src\lv_objx\../lv_objx/lv_cont.h **** 
 103:..\..\..\lvgl\version_6.1.2\lvgl\src\lv_objx\../lv_objx/lv_cont.h **** /**
 104:..\..\..\lvgl\version_6.1.2\lvgl\src\lv_objx\../lv_objx/lv_cont.h ****  * Set the fit policy in all 4 directions separately.
 105:..\..\..\lvgl\version_6.1.2\lvgl\src\lv_objx\../lv_objx/lv_cont.h ****  * It tell how to change the container's size automatically.
 106:..\..\..\lvgl\version_6.1.2\lvgl\src\lv_objx\../lv_objx/lv_cont.h ****  * @param cont pointer to a container object
 107:..\..\..\lvgl\version_6.1.2\lvgl\src\lv_objx\../lv_objx/lv_cont.h ****  * @param left left fit policy from `lv_fit_t`
 108:..\..\..\lvgl\version_6.1.2\lvgl\src\lv_objx\../lv_objx/lv_cont.h ****  * @param right right fit policy from `lv_fit_t`
 109:..\..\..\lvgl\version_6.1.2\lvgl\src\lv_objx\../lv_objx/lv_cont.h ****  * @param top top fit policy from `lv_fit_t`
 110:..\..\..\lvgl\version_6.1.2\lvgl\src\lv_objx\../lv_objx/lv_cont.h ****  * @param bottom bottom fit policy from `lv_fit_t`
 111:..\..\..\lvgl\version_6.1.2\lvgl\src\lv_objx\../lv_objx/lv_cont.h ****  */
 112:..\..\..\lvgl\version_6.1.2\lvgl\src\lv_objx\../lv_objx/lv_cont.h **** void lv_cont_set_fit4(lv_obj_t * cont, lv_fit_t left, lv_fit_t right, lv_fit_t top, lv_fit_t bottom
 113:..\..\..\lvgl\version_6.1.2\lvgl\src\lv_objx\../lv_objx/lv_cont.h **** 
 114:..\..\..\lvgl\version_6.1.2\lvgl\src\lv_objx\../lv_objx/lv_cont.h **** /**
 115:..\..\..\lvgl\version_6.1.2\lvgl\src\lv_objx\../lv_objx/lv_cont.h ****  * Set the fit policy horizontally and vertically separately.
 116:..\..\..\lvgl\version_6.1.2\lvgl\src\lv_objx\../lv_objx/lv_cont.h ****  * It tells how to change the container's size automatically.
 117:..\..\..\lvgl\version_6.1.2\lvgl\src\lv_objx\../lv_objx/lv_cont.h ****  * @param cont pointer to a container object
 118:..\..\..\lvgl\version_6.1.2\lvgl\src\lv_objx\../lv_objx/lv_cont.h ****  * @param hor horizontal fit policy from `lv_fit_t`
 119:..\..\..\lvgl\version_6.1.2\lvgl\src\lv_objx\../lv_objx/lv_cont.h ****  * @param ver vertical fit policy from `lv_fit_t`
 120:..\..\..\lvgl\version_6.1.2\lvgl\src\lv_objx\../lv_objx/lv_cont.h ****  */
 121:..\..\..\lvgl\version_6.1.2\lvgl\src\lv_objx\../lv_objx/lv_cont.h **** static inline void lv_cont_set_fit2(lv_obj_t * cont, lv_fit_t hor, lv_fit_t ver)
 122:..\..\..\lvgl\version_6.1.2\lvgl\src\lv_objx\../lv_objx/lv_cont.h **** {
 196              		.loc 3 122 0
 197              		.cfi_startproc
 198              		@ args = 0, pretend = 0, frame = 8
 199              		@ frame_needed = 1, uses_anonymous_args = 0
 200 0000 80B5     		push	{r7, lr}
 201              		.cfi_def_cfa_offset 8
 202              		.cfi_offset 7, -8
 203              		.cfi_offset 14, -4
 204 0002 84B0     		sub	sp, sp, #16
 205              		.cfi_def_cfa_offset 24
 206 0004 02AF     		add	r7, sp, #8
 207              		.cfi_def_cfa 7, 16
 208 0006 7860     		str	r0, [r7, #4]
 209 0008 0B46     		mov	r3, r1
 210 000a FB70     		strb	r3, [r7, #3]
 211 000c 1346     		mov	r3, r2
 212 000e BB70     		strb	r3, [r7, #2]
 123:..\..\..\lvgl\version_6.1.2\lvgl\src\lv_objx\../lv_objx/lv_cont.h ****     lv_cont_set_fit4(cont, hor, hor, ver, ver);
 213              		.loc 3 123 0
 214 0010 B878     		ldrb	r0, [r7, #2]	@ zero_extendqisi2
 215 0012 FA78     		ldrb	r2, [r7, #3]	@ zero_extendqisi2
 216 0014 F978     		ldrb	r1, [r7, #3]	@ zero_extendqisi2
 217 0016 BB78     		ldrb	r3, [r7, #2]	@ zero_extendqisi2
 218 0018 0093     		str	r3, [sp]
 219 001a 0346     		mov	r3, r0
 220 001c 7868     		ldr	r0, [r7, #4]
 221 001e FFF7FEFF 		bl	lv_cont_set_fit4
ARM GAS  C:\Users\tmj32\AppData\Local\Temp\ccT5YJ50.s 			page 11


 124:..\..\..\lvgl\version_6.1.2\lvgl\src\lv_objx\../lv_objx/lv_cont.h **** }
 222              		.loc 3 124 0
 223 0022 00BF     		nop
 224 0024 0837     		adds	r7, r7, #8
 225              		.cfi_def_cfa_offset 8
 226 0026 BD46     		mov	sp, r7
 227              		.cfi_def_cfa_register 13
 228              		@ sp needed
 229 0028 80BD     		pop	{r7, pc}
 230              		.cfi_endproc
 231              	.LFE31:
 232              		.size	lv_cont_set_fit2, .-lv_cont_set_fit2
 233 002a 00BF     		.section	.text.lv_page_set_scrl_fit2,"ax",%progbits
 234              		.align	2
 235              		.thumb
 236              		.thumb_func
 237              		.type	lv_page_set_scrl_fit2, %function
 238              	lv_page_set_scrl_fit2:
 239              	.LFB36:
 240              		.file 4 "..\\..\\..\\lvgl\\version_6.1.2\\lvgl\\src\\lv_objx\\../lv_objx/lv_page.h"
   1:..\..\..\lvgl\version_6.1.2\lvgl\src\lv_objx\../lv_objx/lv_page.h **** /**
   2:..\..\..\lvgl\version_6.1.2\lvgl\src\lv_objx\../lv_objx/lv_page.h ****  * @file lv_page.h
   3:..\..\..\lvgl\version_6.1.2\lvgl\src\lv_objx\../lv_objx/lv_page.h ****  *
   4:..\..\..\lvgl\version_6.1.2\lvgl\src\lv_objx\../lv_objx/lv_page.h ****  */
   5:..\..\..\lvgl\version_6.1.2\lvgl\src\lv_objx\../lv_objx/lv_page.h **** 
   6:..\..\..\lvgl\version_6.1.2\lvgl\src\lv_objx\../lv_objx/lv_page.h **** #ifndef LV_PAGE_H
   7:..\..\..\lvgl\version_6.1.2\lvgl\src\lv_objx\../lv_objx/lv_page.h **** #define LV_PAGE_H
   8:..\..\..\lvgl\version_6.1.2\lvgl\src\lv_objx\../lv_objx/lv_page.h **** 
   9:..\..\..\lvgl\version_6.1.2\lvgl\src\lv_objx\../lv_objx/lv_page.h **** #ifdef __cplusplus
  10:..\..\..\lvgl\version_6.1.2\lvgl\src\lv_objx\../lv_objx/lv_page.h **** extern "C" {
  11:..\..\..\lvgl\version_6.1.2\lvgl\src\lv_objx\../lv_objx/lv_page.h **** #endif
  12:..\..\..\lvgl\version_6.1.2\lvgl\src\lv_objx\../lv_objx/lv_page.h **** 
  13:..\..\..\lvgl\version_6.1.2\lvgl\src\lv_objx\../lv_objx/lv_page.h **** /*********************
  14:..\..\..\lvgl\version_6.1.2\lvgl\src\lv_objx\../lv_objx/lv_page.h ****  *      INCLUDES
  15:..\..\..\lvgl\version_6.1.2\lvgl\src\lv_objx\../lv_objx/lv_page.h ****  *********************/
  16:..\..\..\lvgl\version_6.1.2\lvgl\src\lv_objx\../lv_objx/lv_page.h **** #ifdef LV_CONF_INCLUDE_SIMPLE
  17:..\..\..\lvgl\version_6.1.2\lvgl\src\lv_objx\../lv_objx/lv_page.h **** #include "lv_conf.h"
  18:..\..\..\lvgl\version_6.1.2\lvgl\src\lv_objx\../lv_objx/lv_page.h **** #else
  19:..\..\..\lvgl\version_6.1.2\lvgl\src\lv_objx\../lv_objx/lv_page.h **** #include "../../../lv_conf.h"
  20:..\..\..\lvgl\version_6.1.2\lvgl\src\lv_objx\../lv_objx/lv_page.h **** #endif
  21:..\..\..\lvgl\version_6.1.2\lvgl\src\lv_objx\../lv_objx/lv_page.h **** 
  22:..\..\..\lvgl\version_6.1.2\lvgl\src\lv_objx\../lv_objx/lv_page.h **** #if LV_USE_PAGE != 0
  23:..\..\..\lvgl\version_6.1.2\lvgl\src\lv_objx\../lv_objx/lv_page.h **** 
  24:..\..\..\lvgl\version_6.1.2\lvgl\src\lv_objx\../lv_objx/lv_page.h **** /*Testing of dependencies*/
  25:..\..\..\lvgl\version_6.1.2\lvgl\src\lv_objx\../lv_objx/lv_page.h **** #if LV_USE_CONT == 0
  26:..\..\..\lvgl\version_6.1.2\lvgl\src\lv_objx\../lv_objx/lv_page.h **** #error "lv_page: lv_cont is required. Enable it in lv_conf.h (LV_USE_CONT  1) "
  27:..\..\..\lvgl\version_6.1.2\lvgl\src\lv_objx\../lv_objx/lv_page.h **** #endif
  28:..\..\..\lvgl\version_6.1.2\lvgl\src\lv_objx\../lv_objx/lv_page.h **** 
  29:..\..\..\lvgl\version_6.1.2\lvgl\src\lv_objx\../lv_objx/lv_page.h **** #include "lv_cont.h"
  30:..\..\..\lvgl\version_6.1.2\lvgl\src\lv_objx\../lv_objx/lv_page.h **** #include "../lv_core/lv_indev.h"
  31:..\..\..\lvgl\version_6.1.2\lvgl\src\lv_objx\../lv_objx/lv_page.h **** #include "../lv_misc/lv_anim.h"
  32:..\..\..\lvgl\version_6.1.2\lvgl\src\lv_objx\../lv_objx/lv_page.h **** 
  33:..\..\..\lvgl\version_6.1.2\lvgl\src\lv_objx\../lv_objx/lv_page.h **** /*********************
  34:..\..\..\lvgl\version_6.1.2\lvgl\src\lv_objx\../lv_objx/lv_page.h ****  *      DEFINES
  35:..\..\..\lvgl\version_6.1.2\lvgl\src\lv_objx\../lv_objx/lv_page.h ****  *********************/
  36:..\..\..\lvgl\version_6.1.2\lvgl\src\lv_objx\../lv_objx/lv_page.h **** 
  37:..\..\..\lvgl\version_6.1.2\lvgl\src\lv_objx\../lv_objx/lv_page.h **** /**********************
ARM GAS  C:\Users\tmj32\AppData\Local\Temp\ccT5YJ50.s 			page 12


  38:..\..\..\lvgl\version_6.1.2\lvgl\src\lv_objx\../lv_objx/lv_page.h ****  *      TYPEDEFS
  39:..\..\..\lvgl\version_6.1.2\lvgl\src\lv_objx\../lv_objx/lv_page.h ****  **********************/
  40:..\..\..\lvgl\version_6.1.2\lvgl\src\lv_objx\../lv_objx/lv_page.h **** 
  41:..\..\..\lvgl\version_6.1.2\lvgl\src\lv_objx\../lv_objx/lv_page.h **** /** Scrollbar modes: shows when should the scrollbars be visible*/
  42:..\..\..\lvgl\version_6.1.2\lvgl\src\lv_objx\../lv_objx/lv_page.h **** enum {
  43:..\..\..\lvgl\version_6.1.2\lvgl\src\lv_objx\../lv_objx/lv_page.h ****     LV_SB_MODE_OFF    = 0x0, /**< Never show scrollbars*/
  44:..\..\..\lvgl\version_6.1.2\lvgl\src\lv_objx\../lv_objx/lv_page.h ****     LV_SB_MODE_ON     = 0x1, /**< Always show scrollbars*/
  45:..\..\..\lvgl\version_6.1.2\lvgl\src\lv_objx\../lv_objx/lv_page.h ****     LV_SB_MODE_DRAG   = 0x2, /**< Show scrollbars when page is being dragged*/
  46:..\..\..\lvgl\version_6.1.2\lvgl\src\lv_objx\../lv_objx/lv_page.h ****     LV_SB_MODE_AUTO   = 0x3, /**< Show scrollbars when the scrollable container is large enough to 
  47:..\..\..\lvgl\version_6.1.2\lvgl\src\lv_objx\../lv_objx/lv_page.h ****     LV_SB_MODE_HIDE   = 0x4, /**< Hide the scroll bar temporally*/
  48:..\..\..\lvgl\version_6.1.2\lvgl\src\lv_objx\../lv_objx/lv_page.h ****     LV_SB_MODE_UNHIDE = 0x5, /**< Unhide the previously hidden scrollbar. Recover it's type too*/
  49:..\..\..\lvgl\version_6.1.2\lvgl\src\lv_objx\../lv_objx/lv_page.h **** };
  50:..\..\..\lvgl\version_6.1.2\lvgl\src\lv_objx\../lv_objx/lv_page.h **** typedef uint8_t lv_sb_mode_t;
  51:..\..\..\lvgl\version_6.1.2\lvgl\src\lv_objx\../lv_objx/lv_page.h **** 
  52:..\..\..\lvgl\version_6.1.2\lvgl\src\lv_objx\../lv_objx/lv_page.h **** /** Edges: describes the four edges of the page*/
  53:..\..\..\lvgl\version_6.1.2\lvgl\src\lv_objx\../lv_objx/lv_page.h **** enum { LV_PAGE_EDGE_LEFT = 0x1, LV_PAGE_EDGE_TOP = 0x2, LV_PAGE_EDGE_RIGHT = 0x4, LV_PAGE_EDGE_BOTT
  54:..\..\..\lvgl\version_6.1.2\lvgl\src\lv_objx\../lv_objx/lv_page.h **** typedef uint8_t lv_page_edge_t;
  55:..\..\..\lvgl\version_6.1.2\lvgl\src\lv_objx\../lv_objx/lv_page.h **** 
  56:..\..\..\lvgl\version_6.1.2\lvgl\src\lv_objx\../lv_objx/lv_page.h **** /*Data of page*/
  57:..\..\..\lvgl\version_6.1.2\lvgl\src\lv_objx\../lv_objx/lv_page.h **** typedef struct
  58:..\..\..\lvgl\version_6.1.2\lvgl\src\lv_objx\../lv_objx/lv_page.h **** {
  59:..\..\..\lvgl\version_6.1.2\lvgl\src\lv_objx\../lv_objx/lv_page.h ****     lv_cont_ext_t bg; /*Ext. of ancestor*/
  60:..\..\..\lvgl\version_6.1.2\lvgl\src\lv_objx\../lv_objx/lv_page.h ****     /*New data for this type */
  61:..\..\..\lvgl\version_6.1.2\lvgl\src\lv_objx\../lv_objx/lv_page.h ****     lv_obj_t * scrl; /*The scrollable object on the background*/
  62:..\..\..\lvgl\version_6.1.2\lvgl\src\lv_objx\../lv_objx/lv_page.h ****     struct
  63:..\..\..\lvgl\version_6.1.2\lvgl\src\lv_objx\../lv_objx/lv_page.h ****     {
  64:..\..\..\lvgl\version_6.1.2\lvgl\src\lv_objx\../lv_objx/lv_page.h ****         const lv_style_t * style; /*Style of scrollbars*/
  65:..\..\..\lvgl\version_6.1.2\lvgl\src\lv_objx\../lv_objx/lv_page.h ****         lv_area_t hor_area;       /*Horizontal scrollbar area relative to the page. (Handled by the
  66:..\..\..\lvgl\version_6.1.2\lvgl\src\lv_objx\../lv_objx/lv_page.h ****         lv_area_t ver_area;       /*Vertical scrollbar area relative to the page (Handled by the li
  67:..\..\..\lvgl\version_6.1.2\lvgl\src\lv_objx\../lv_objx/lv_page.h ****         uint8_t hor_draw : 1;     /*1: horizontal scrollbar is visible now (Handled by the library)
  68:..\..\..\lvgl\version_6.1.2\lvgl\src\lv_objx\../lv_objx/lv_page.h ****         uint8_t ver_draw : 1;     /*1: vertical scrollbar is visible now (Handled by the library)*/
  69:..\..\..\lvgl\version_6.1.2\lvgl\src\lv_objx\../lv_objx/lv_page.h ****         lv_sb_mode_t mode : 3;    /*Scrollbar visibility from 'lv_page_sb_mode_t'*/
  70:..\..\..\lvgl\version_6.1.2\lvgl\src\lv_objx\../lv_objx/lv_page.h ****     } sb;
  71:..\..\..\lvgl\version_6.1.2\lvgl\src\lv_objx\../lv_objx/lv_page.h **** #if LV_USE_ANIMATION
  72:..\..\..\lvgl\version_6.1.2\lvgl\src\lv_objx\../lv_objx/lv_page.h ****     struct
  73:..\..\..\lvgl\version_6.1.2\lvgl\src\lv_objx\../lv_objx/lv_page.h ****     {
  74:..\..\..\lvgl\version_6.1.2\lvgl\src\lv_objx\../lv_objx/lv_page.h ****         lv_anim_value_t state;    /*Store the current size of the edge flash effect*/
  75:..\..\..\lvgl\version_6.1.2\lvgl\src\lv_objx\../lv_objx/lv_page.h ****         const lv_style_t * style; /*Style of edge flash effect (usually homogeneous circle)*/
  76:..\..\..\lvgl\version_6.1.2\lvgl\src\lv_objx\../lv_objx/lv_page.h ****         uint8_t enabled : 1;      /*1: Show a flash animation on the edge*/
  77:..\..\..\lvgl\version_6.1.2\lvgl\src\lv_objx\../lv_objx/lv_page.h ****         uint8_t top_ip : 1;       /*Used internally to show that top most position is reached (flas
  78:..\..\..\lvgl\version_6.1.2\lvgl\src\lv_objx\../lv_objx/lv_page.h ****                                      Progress)*/
  79:..\..\..\lvgl\version_6.1.2\lvgl\src\lv_objx\../lv_objx/lv_page.h ****         uint8_t bottom_ip : 1;    /*Used internally to show that bottom most position is reached (f
  80:..\..\..\lvgl\version_6.1.2\lvgl\src\lv_objx\../lv_objx/lv_page.h ****                                      is In Progress)*/
  81:..\..\..\lvgl\version_6.1.2\lvgl\src\lv_objx\../lv_objx/lv_page.h ****         uint8_t right_ip : 1;     /*Used internally to show that right most position is reached (fl
  82:..\..\..\lvgl\version_6.1.2\lvgl\src\lv_objx\../lv_objx/lv_page.h ****                                      is In Progress)*/
  83:..\..\..\lvgl\version_6.1.2\lvgl\src\lv_objx\../lv_objx/lv_page.h ****         uint8_t left_ip : 1;      /*Used internally to show that left most position is reached (fla
  84:..\..\..\lvgl\version_6.1.2\lvgl\src\lv_objx\../lv_objx/lv_page.h ****                                      In Progress)*/
  85:..\..\..\lvgl\version_6.1.2\lvgl\src\lv_objx\../lv_objx/lv_page.h ****     } edge_flash;
  86:..\..\..\lvgl\version_6.1.2\lvgl\src\lv_objx\../lv_objx/lv_page.h **** 
  87:..\..\..\lvgl\version_6.1.2\lvgl\src\lv_objx\../lv_objx/lv_page.h ****     uint16_t anim_time; /*Scroll animation time*/
  88:..\..\..\lvgl\version_6.1.2\lvgl\src\lv_objx\../lv_objx/lv_page.h **** #endif
  89:..\..\..\lvgl\version_6.1.2\lvgl\src\lv_objx\../lv_objx/lv_page.h **** 
  90:..\..\..\lvgl\version_6.1.2\lvgl\src\lv_objx\../lv_objx/lv_page.h ****     uint8_t scroll_prop : 1;    /*1: Propagate the scrolling the the parent if the edge is reached*
  91:..\..\..\lvgl\version_6.1.2\lvgl\src\lv_objx\../lv_objx/lv_page.h ****     uint8_t scroll_prop_ip : 1; /*1: Scroll propagation is in progress (used by the library)*/
  92:..\..\..\lvgl\version_6.1.2\lvgl\src\lv_objx\../lv_objx/lv_page.h **** } lv_page_ext_t;
  93:..\..\..\lvgl\version_6.1.2\lvgl\src\lv_objx\../lv_objx/lv_page.h **** 
  94:..\..\..\lvgl\version_6.1.2\lvgl\src\lv_objx\../lv_objx/lv_page.h **** enum {
ARM GAS  C:\Users\tmj32\AppData\Local\Temp\ccT5YJ50.s 			page 13


  95:..\..\..\lvgl\version_6.1.2\lvgl\src\lv_objx\../lv_objx/lv_page.h ****     LV_PAGE_STYLE_BG,
  96:..\..\..\lvgl\version_6.1.2\lvgl\src\lv_objx\../lv_objx/lv_page.h ****     LV_PAGE_STYLE_SCRL,
  97:..\..\..\lvgl\version_6.1.2\lvgl\src\lv_objx\../lv_objx/lv_page.h ****     LV_PAGE_STYLE_SB,
  98:..\..\..\lvgl\version_6.1.2\lvgl\src\lv_objx\../lv_objx/lv_page.h ****     LV_PAGE_STYLE_EDGE_FLASH,
  99:..\..\..\lvgl\version_6.1.2\lvgl\src\lv_objx\../lv_objx/lv_page.h **** };
 100:..\..\..\lvgl\version_6.1.2\lvgl\src\lv_objx\../lv_objx/lv_page.h **** typedef uint8_t lv_page_style_t;
 101:..\..\..\lvgl\version_6.1.2\lvgl\src\lv_objx\../lv_objx/lv_page.h **** 
 102:..\..\..\lvgl\version_6.1.2\lvgl\src\lv_objx\../lv_objx/lv_page.h **** /**********************
 103:..\..\..\lvgl\version_6.1.2\lvgl\src\lv_objx\../lv_objx/lv_page.h ****  * GLOBAL PROTOTYPES
 104:..\..\..\lvgl\version_6.1.2\lvgl\src\lv_objx\../lv_objx/lv_page.h ****  **********************/
 105:..\..\..\lvgl\version_6.1.2\lvgl\src\lv_objx\../lv_objx/lv_page.h **** 
 106:..\..\..\lvgl\version_6.1.2\lvgl\src\lv_objx\../lv_objx/lv_page.h **** /**
 107:..\..\..\lvgl\version_6.1.2\lvgl\src\lv_objx\../lv_objx/lv_page.h ****  * Create a page objects
 108:..\..\..\lvgl\version_6.1.2\lvgl\src\lv_objx\../lv_objx/lv_page.h ****  * @param par pointer to an object, it will be the parent of the new page
 109:..\..\..\lvgl\version_6.1.2\lvgl\src\lv_objx\../lv_objx/lv_page.h ****  * @param copy pointer to a page object, if not NULL then the new object will be copied from it
 110:..\..\..\lvgl\version_6.1.2\lvgl\src\lv_objx\../lv_objx/lv_page.h ****  * @return pointer to the created page
 111:..\..\..\lvgl\version_6.1.2\lvgl\src\lv_objx\../lv_objx/lv_page.h ****  */
 112:..\..\..\lvgl\version_6.1.2\lvgl\src\lv_objx\../lv_objx/lv_page.h **** lv_obj_t * lv_page_create(lv_obj_t * par, const lv_obj_t * copy);
 113:..\..\..\lvgl\version_6.1.2\lvgl\src\lv_objx\../lv_objx/lv_page.h **** 
 114:..\..\..\lvgl\version_6.1.2\lvgl\src\lv_objx\../lv_objx/lv_page.h **** /**
 115:..\..\..\lvgl\version_6.1.2\lvgl\src\lv_objx\../lv_objx/lv_page.h ****  * Delete all children of the scrl object, without deleting scrl child.
 116:..\..\..\lvgl\version_6.1.2\lvgl\src\lv_objx\../lv_objx/lv_page.h ****  * @param page pointer to an object
 117:..\..\..\lvgl\version_6.1.2\lvgl\src\lv_objx\../lv_objx/lv_page.h ****  */
 118:..\..\..\lvgl\version_6.1.2\lvgl\src\lv_objx\../lv_objx/lv_page.h **** void lv_page_clean(lv_obj_t * page);
 119:..\..\..\lvgl\version_6.1.2\lvgl\src\lv_objx\../lv_objx/lv_page.h **** 
 120:..\..\..\lvgl\version_6.1.2\lvgl\src\lv_objx\../lv_objx/lv_page.h **** /**
 121:..\..\..\lvgl\version_6.1.2\lvgl\src\lv_objx\../lv_objx/lv_page.h ****  * Get the scrollable object of a page
 122:..\..\..\lvgl\version_6.1.2\lvgl\src\lv_objx\../lv_objx/lv_page.h ****  * @param page pointer to a page object
 123:..\..\..\lvgl\version_6.1.2\lvgl\src\lv_objx\../lv_objx/lv_page.h ****  * @return pointer to a container which is the scrollable part of the page
 124:..\..\..\lvgl\version_6.1.2\lvgl\src\lv_objx\../lv_objx/lv_page.h ****  */
 125:..\..\..\lvgl\version_6.1.2\lvgl\src\lv_objx\../lv_objx/lv_page.h **** lv_obj_t * lv_page_get_scrl(const lv_obj_t * page);
 126:..\..\..\lvgl\version_6.1.2\lvgl\src\lv_objx\../lv_objx/lv_page.h **** 
 127:..\..\..\lvgl\version_6.1.2\lvgl\src\lv_objx\../lv_objx/lv_page.h **** /**
 128:..\..\..\lvgl\version_6.1.2\lvgl\src\lv_objx\../lv_objx/lv_page.h ****  * Get the animation time
 129:..\..\..\lvgl\version_6.1.2\lvgl\src\lv_objx\../lv_objx/lv_page.h ****  * @param page pointer to a page object
 130:..\..\..\lvgl\version_6.1.2\lvgl\src\lv_objx\../lv_objx/lv_page.h ****  * @return the animation time in milliseconds
 131:..\..\..\lvgl\version_6.1.2\lvgl\src\lv_objx\../lv_objx/lv_page.h ****  */
 132:..\..\..\lvgl\version_6.1.2\lvgl\src\lv_objx\../lv_objx/lv_page.h **** uint16_t lv_page_get_anim_time(const lv_obj_t * page);
 133:..\..\..\lvgl\version_6.1.2\lvgl\src\lv_objx\../lv_objx/lv_page.h **** 
 134:..\..\..\lvgl\version_6.1.2\lvgl\src\lv_objx\../lv_objx/lv_page.h **** /*=====================
 135:..\..\..\lvgl\version_6.1.2\lvgl\src\lv_objx\../lv_objx/lv_page.h ****  * Setter functions
 136:..\..\..\lvgl\version_6.1.2\lvgl\src\lv_objx\../lv_objx/lv_page.h ****  *====================*/
 137:..\..\..\lvgl\version_6.1.2\lvgl\src\lv_objx\../lv_objx/lv_page.h **** 
 138:..\..\..\lvgl\version_6.1.2\lvgl\src\lv_objx\../lv_objx/lv_page.h **** /**
 139:..\..\..\lvgl\version_6.1.2\lvgl\src\lv_objx\../lv_objx/lv_page.h ****  * Set the scroll bar mode on a page
 140:..\..\..\lvgl\version_6.1.2\lvgl\src\lv_objx\../lv_objx/lv_page.h ****  * @param page pointer to a page object
 141:..\..\..\lvgl\version_6.1.2\lvgl\src\lv_objx\../lv_objx/lv_page.h ****  * @param sb_mode the new mode from 'lv_page_sb.mode_t' enum
 142:..\..\..\lvgl\version_6.1.2\lvgl\src\lv_objx\../lv_objx/lv_page.h ****  */
 143:..\..\..\lvgl\version_6.1.2\lvgl\src\lv_objx\../lv_objx/lv_page.h **** void lv_page_set_sb_mode(lv_obj_t * page, lv_sb_mode_t sb_mode);
 144:..\..\..\lvgl\version_6.1.2\lvgl\src\lv_objx\../lv_objx/lv_page.h **** 
 145:..\..\..\lvgl\version_6.1.2\lvgl\src\lv_objx\../lv_objx/lv_page.h **** /**
 146:..\..\..\lvgl\version_6.1.2\lvgl\src\lv_objx\../lv_objx/lv_page.h ****  * Set the animation time for the page
 147:..\..\..\lvgl\version_6.1.2\lvgl\src\lv_objx\../lv_objx/lv_page.h ****  * @param page pointer to a page object
 148:..\..\..\lvgl\version_6.1.2\lvgl\src\lv_objx\../lv_objx/lv_page.h ****  * @param anim_time animation time in milliseconds
 149:..\..\..\lvgl\version_6.1.2\lvgl\src\lv_objx\../lv_objx/lv_page.h ****  */
 150:..\..\..\lvgl\version_6.1.2\lvgl\src\lv_objx\../lv_objx/lv_page.h **** void lv_page_set_anim_time(lv_obj_t * page, uint16_t anim_time);
 151:..\..\..\lvgl\version_6.1.2\lvgl\src\lv_objx\../lv_objx/lv_page.h **** 
ARM GAS  C:\Users\tmj32\AppData\Local\Temp\ccT5YJ50.s 			page 14


 152:..\..\..\lvgl\version_6.1.2\lvgl\src\lv_objx\../lv_objx/lv_page.h **** /**
 153:..\..\..\lvgl\version_6.1.2\lvgl\src\lv_objx\../lv_objx/lv_page.h ****  * Enable the scroll propagation feature. If enabled then the page will move its parent if there is
 154:..\..\..\lvgl\version_6.1.2\lvgl\src\lv_objx\../lv_objx/lv_page.h ****  * no more space to scroll.
 155:..\..\..\lvgl\version_6.1.2\lvgl\src\lv_objx\../lv_objx/lv_page.h ****  * @param page pointer to a Page
 156:..\..\..\lvgl\version_6.1.2\lvgl\src\lv_objx\../lv_objx/lv_page.h ****  * @param en true or false to enable/disable scroll propagation
 157:..\..\..\lvgl\version_6.1.2\lvgl\src\lv_objx\../lv_objx/lv_page.h ****  */
 158:..\..\..\lvgl\version_6.1.2\lvgl\src\lv_objx\../lv_objx/lv_page.h **** void lv_page_set_scroll_propagation(lv_obj_t * page, bool en);
 159:..\..\..\lvgl\version_6.1.2\lvgl\src\lv_objx\../lv_objx/lv_page.h **** 
 160:..\..\..\lvgl\version_6.1.2\lvgl\src\lv_objx\../lv_objx/lv_page.h **** /**
 161:..\..\..\lvgl\version_6.1.2\lvgl\src\lv_objx\../lv_objx/lv_page.h ****  * Enable the edge flash effect. (Show an arc when the an edge is reached)
 162:..\..\..\lvgl\version_6.1.2\lvgl\src\lv_objx\../lv_objx/lv_page.h ****  * @param page pointer to a Page
 163:..\..\..\lvgl\version_6.1.2\lvgl\src\lv_objx\../lv_objx/lv_page.h ****  * @param en true or false to enable/disable end flash
 164:..\..\..\lvgl\version_6.1.2\lvgl\src\lv_objx\../lv_objx/lv_page.h ****  */
 165:..\..\..\lvgl\version_6.1.2\lvgl\src\lv_objx\../lv_objx/lv_page.h **** void lv_page_set_edge_flash(lv_obj_t * page, bool en);
 166:..\..\..\lvgl\version_6.1.2\lvgl\src\lv_objx\../lv_objx/lv_page.h **** 
 167:..\..\..\lvgl\version_6.1.2\lvgl\src\lv_objx\../lv_objx/lv_page.h **** /**
 168:..\..\..\lvgl\version_6.1.2\lvgl\src\lv_objx\../lv_objx/lv_page.h ****  * Set the fit policy in all 4 directions separately.
 169:..\..\..\lvgl\version_6.1.2\lvgl\src\lv_objx\../lv_objx/lv_page.h ****  * It tell how to change the page size automatically.
 170:..\..\..\lvgl\version_6.1.2\lvgl\src\lv_objx\../lv_objx/lv_page.h ****  * @param page pointer to a page object
 171:..\..\..\lvgl\version_6.1.2\lvgl\src\lv_objx\../lv_objx/lv_page.h ****  * @param left left fit policy from `lv_fit_t`
 172:..\..\..\lvgl\version_6.1.2\lvgl\src\lv_objx\../lv_objx/lv_page.h ****  * @param right right fit policy from `lv_fit_t`
 173:..\..\..\lvgl\version_6.1.2\lvgl\src\lv_objx\../lv_objx/lv_page.h ****  * @param top bottom fit policy from `lv_fit_t`
 174:..\..\..\lvgl\version_6.1.2\lvgl\src\lv_objx\../lv_objx/lv_page.h ****  * @param bottom bottom fit policy from `lv_fit_t`
 175:..\..\..\lvgl\version_6.1.2\lvgl\src\lv_objx\../lv_objx/lv_page.h ****  */
 176:..\..\..\lvgl\version_6.1.2\lvgl\src\lv_objx\../lv_objx/lv_page.h **** static inline void lv_page_set_scrl_fit4(lv_obj_t * page, lv_fit_t left, lv_fit_t right, lv_fit_t t
 177:..\..\..\lvgl\version_6.1.2\lvgl\src\lv_objx\../lv_objx/lv_page.h **** {
 178:..\..\..\lvgl\version_6.1.2\lvgl\src\lv_objx\../lv_objx/lv_page.h ****     lv_cont_set_fit4(lv_page_get_scrl(page), left, right, top, bottom);
 179:..\..\..\lvgl\version_6.1.2\lvgl\src\lv_objx\../lv_objx/lv_page.h **** }
 180:..\..\..\lvgl\version_6.1.2\lvgl\src\lv_objx\../lv_objx/lv_page.h **** 
 181:..\..\..\lvgl\version_6.1.2\lvgl\src\lv_objx\../lv_objx/lv_page.h **** /**
 182:..\..\..\lvgl\version_6.1.2\lvgl\src\lv_objx\../lv_objx/lv_page.h ****  * Set the fit policy horizontally and vertically separately.
 183:..\..\..\lvgl\version_6.1.2\lvgl\src\lv_objx\../lv_objx/lv_page.h ****  * It tell how to change the page size automatically.
 184:..\..\..\lvgl\version_6.1.2\lvgl\src\lv_objx\../lv_objx/lv_page.h ****  * @param page pointer to a page object
 185:..\..\..\lvgl\version_6.1.2\lvgl\src\lv_objx\../lv_objx/lv_page.h ****  * @param hot horizontal fit policy from `lv_fit_t`
 186:..\..\..\lvgl\version_6.1.2\lvgl\src\lv_objx\../lv_objx/lv_page.h ****  * @param ver vertical fit policy from `lv_fit_t`
 187:..\..\..\lvgl\version_6.1.2\lvgl\src\lv_objx\../lv_objx/lv_page.h ****  */
 188:..\..\..\lvgl\version_6.1.2\lvgl\src\lv_objx\../lv_objx/lv_page.h **** static inline void lv_page_set_scrl_fit2(lv_obj_t * page, lv_fit_t hor, lv_fit_t ver)
 189:..\..\..\lvgl\version_6.1.2\lvgl\src\lv_objx\../lv_objx/lv_page.h **** {
 241              		.loc 4 189 0
 242              		.cfi_startproc
 243              		@ args = 0, pretend = 0, frame = 8
 244              		@ frame_needed = 1, uses_anonymous_args = 0
 245 0000 80B5     		push	{r7, lr}
 246              		.cfi_def_cfa_offset 8
 247              		.cfi_offset 7, -8
 248              		.cfi_offset 14, -4
 249 0002 82B0     		sub	sp, sp, #8
 250              		.cfi_def_cfa_offset 16
 251 0004 00AF     		add	r7, sp, #0
 252              		.cfi_def_cfa_register 7
 253 0006 7860     		str	r0, [r7, #4]
 254 0008 0B46     		mov	r3, r1
 255 000a FB70     		strb	r3, [r7, #3]
 256 000c 1346     		mov	r3, r2
 257 000e BB70     		strb	r3, [r7, #2]
 190:..\..\..\lvgl\version_6.1.2\lvgl\src\lv_objx\../lv_objx/lv_page.h ****     lv_cont_set_fit2(lv_page_get_scrl(page), hor, ver);
 258              		.loc 4 190 0
ARM GAS  C:\Users\tmj32\AppData\Local\Temp\ccT5YJ50.s 			page 15


 259 0010 7868     		ldr	r0, [r7, #4]
 260 0012 FFF7FEFF 		bl	lv_page_get_scrl
 261 0016 BA78     		ldrb	r2, [r7, #2]	@ zero_extendqisi2
 262 0018 FB78     		ldrb	r3, [r7, #3]	@ zero_extendqisi2
 263 001a 1946     		mov	r1, r3
 264 001c FFF7FEFF 		bl	lv_cont_set_fit2
 191:..\..\..\lvgl\version_6.1.2\lvgl\src\lv_objx\../lv_objx/lv_page.h **** }
 265              		.loc 4 191 0
 266 0020 00BF     		nop
 267 0022 0837     		adds	r7, r7, #8
 268              		.cfi_def_cfa_offset 8
 269 0024 BD46     		mov	sp, r7
 270              		.cfi_def_cfa_register 13
 271              		@ sp needed
 272 0026 80BD     		pop	{r7, pc}
 273              		.cfi_endproc
 274              	.LFE36:
 275              		.size	lv_page_set_scrl_fit2, .-lv_page_set_scrl_fit2
 276              		.section	.text.lv_page_get_scrl_fit_left,"ax",%progbits
 277              		.align	2
 278              		.thumb
 279              		.thumb_func
 280              		.type	lv_page_get_scrl_fit_left, %function
 281              	lv_page_get_scrl_fit_left:
 282              	.LFB44:
 192:..\..\..\lvgl\version_6.1.2\lvgl\src\lv_objx\../lv_objx/lv_page.h **** 
 193:..\..\..\lvgl\version_6.1.2\lvgl\src\lv_objx\../lv_objx/lv_page.h **** /**
 194:..\..\..\lvgl\version_6.1.2\lvgl\src\lv_objx\../lv_objx/lv_page.h ****  * Set the fit policyin all 4 direction at once.
 195:..\..\..\lvgl\version_6.1.2\lvgl\src\lv_objx\../lv_objx/lv_page.h ****  * It tell how to change the page size automatically.
 196:..\..\..\lvgl\version_6.1.2\lvgl\src\lv_objx\../lv_objx/lv_page.h ****  * @param page pointer to a button object
 197:..\..\..\lvgl\version_6.1.2\lvgl\src\lv_objx\../lv_objx/lv_page.h ****  * @param fit fit policy from `lv_fit_t`
 198:..\..\..\lvgl\version_6.1.2\lvgl\src\lv_objx\../lv_objx/lv_page.h ****  */
 199:..\..\..\lvgl\version_6.1.2\lvgl\src\lv_objx\../lv_objx/lv_page.h **** static inline void lv_page_set_scrl_fit(lv_obj_t * page, lv_fit_t fit)
 200:..\..\..\lvgl\version_6.1.2\lvgl\src\lv_objx\../lv_objx/lv_page.h **** {
 201:..\..\..\lvgl\version_6.1.2\lvgl\src\lv_objx\../lv_objx/lv_page.h ****     lv_cont_set_fit(lv_page_get_scrl(page), fit);
 202:..\..\..\lvgl\version_6.1.2\lvgl\src\lv_objx\../lv_objx/lv_page.h **** }
 203:..\..\..\lvgl\version_6.1.2\lvgl\src\lv_objx\../lv_objx/lv_page.h **** 
 204:..\..\..\lvgl\version_6.1.2\lvgl\src\lv_objx\../lv_objx/lv_page.h **** /**
 205:..\..\..\lvgl\version_6.1.2\lvgl\src\lv_objx\../lv_objx/lv_page.h ****  * Set width of the scrollable part of a page
 206:..\..\..\lvgl\version_6.1.2\lvgl\src\lv_objx\../lv_objx/lv_page.h ****  * @param page pointer to a page object
 207:..\..\..\lvgl\version_6.1.2\lvgl\src\lv_objx\../lv_objx/lv_page.h ****  * @param w the new width of the scrollable (it ha no effect is horizontal fit is enabled)
 208:..\..\..\lvgl\version_6.1.2\lvgl\src\lv_objx\../lv_objx/lv_page.h ****  */
 209:..\..\..\lvgl\version_6.1.2\lvgl\src\lv_objx\../lv_objx/lv_page.h **** static inline void lv_page_set_scrl_width(lv_obj_t * page, lv_coord_t w)
 210:..\..\..\lvgl\version_6.1.2\lvgl\src\lv_objx\../lv_objx/lv_page.h **** {
 211:..\..\..\lvgl\version_6.1.2\lvgl\src\lv_objx\../lv_objx/lv_page.h ****     lv_obj_set_width(lv_page_get_scrl(page), w);
 212:..\..\..\lvgl\version_6.1.2\lvgl\src\lv_objx\../lv_objx/lv_page.h **** }
 213:..\..\..\lvgl\version_6.1.2\lvgl\src\lv_objx\../lv_objx/lv_page.h **** 
 214:..\..\..\lvgl\version_6.1.2\lvgl\src\lv_objx\../lv_objx/lv_page.h **** /**
 215:..\..\..\lvgl\version_6.1.2\lvgl\src\lv_objx\../lv_objx/lv_page.h ****  * Set height of the scrollable part of a page
 216:..\..\..\lvgl\version_6.1.2\lvgl\src\lv_objx\../lv_objx/lv_page.h ****  * @param page pointer to a page object
 217:..\..\..\lvgl\version_6.1.2\lvgl\src\lv_objx\../lv_objx/lv_page.h ****  * @param h the new height of the scrollable (it ha no effect is vertical fit is enabled)
 218:..\..\..\lvgl\version_6.1.2\lvgl\src\lv_objx\../lv_objx/lv_page.h ****  */
 219:..\..\..\lvgl\version_6.1.2\lvgl\src\lv_objx\../lv_objx/lv_page.h **** static inline void lv_page_set_scrl_height(lv_obj_t * page, lv_coord_t h)
 220:..\..\..\lvgl\version_6.1.2\lvgl\src\lv_objx\../lv_objx/lv_page.h **** {
 221:..\..\..\lvgl\version_6.1.2\lvgl\src\lv_objx\../lv_objx/lv_page.h ****     lv_obj_set_height(lv_page_get_scrl(page), h);
 222:..\..\..\lvgl\version_6.1.2\lvgl\src\lv_objx\../lv_objx/lv_page.h **** }
 223:..\..\..\lvgl\version_6.1.2\lvgl\src\lv_objx\../lv_objx/lv_page.h **** 
ARM GAS  C:\Users\tmj32\AppData\Local\Temp\ccT5YJ50.s 			page 16


 224:..\..\..\lvgl\version_6.1.2\lvgl\src\lv_objx\../lv_objx/lv_page.h **** /**
 225:..\..\..\lvgl\version_6.1.2\lvgl\src\lv_objx\../lv_objx/lv_page.h ****  * Set the layout of the scrollable part of the page
 226:..\..\..\lvgl\version_6.1.2\lvgl\src\lv_objx\../lv_objx/lv_page.h ****  * @param page pointer to a page object
 227:..\..\..\lvgl\version_6.1.2\lvgl\src\lv_objx\../lv_objx/lv_page.h ****  * @param layout a layout from 'lv_cont_layout_t'
 228:..\..\..\lvgl\version_6.1.2\lvgl\src\lv_objx\../lv_objx/lv_page.h ****  */
 229:..\..\..\lvgl\version_6.1.2\lvgl\src\lv_objx\../lv_objx/lv_page.h **** static inline void lv_page_set_scrl_layout(lv_obj_t * page, lv_layout_t layout)
 230:..\..\..\lvgl\version_6.1.2\lvgl\src\lv_objx\../lv_objx/lv_page.h **** {
 231:..\..\..\lvgl\version_6.1.2\lvgl\src\lv_objx\../lv_objx/lv_page.h ****     lv_cont_set_layout(lv_page_get_scrl(page), layout);
 232:..\..\..\lvgl\version_6.1.2\lvgl\src\lv_objx\../lv_objx/lv_page.h **** }
 233:..\..\..\lvgl\version_6.1.2\lvgl\src\lv_objx\../lv_objx/lv_page.h **** 
 234:..\..\..\lvgl\version_6.1.2\lvgl\src\lv_objx\../lv_objx/lv_page.h **** /**
 235:..\..\..\lvgl\version_6.1.2\lvgl\src\lv_objx\../lv_objx/lv_page.h ****  * Set a style of a page
 236:..\..\..\lvgl\version_6.1.2\lvgl\src\lv_objx\../lv_objx/lv_page.h ****  * @param page pointer to a page object
 237:..\..\..\lvgl\version_6.1.2\lvgl\src\lv_objx\../lv_objx/lv_page.h ****  * @param type which style should be set
 238:..\..\..\lvgl\version_6.1.2\lvgl\src\lv_objx\../lv_objx/lv_page.h ****  * @param style pointer to a style
 239:..\..\..\lvgl\version_6.1.2\lvgl\src\lv_objx\../lv_objx/lv_page.h ****  */
 240:..\..\..\lvgl\version_6.1.2\lvgl\src\lv_objx\../lv_objx/lv_page.h **** void lv_page_set_style(lv_obj_t * page, lv_page_style_t type, const lv_style_t * style);
 241:..\..\..\lvgl\version_6.1.2\lvgl\src\lv_objx\../lv_objx/lv_page.h **** 
 242:..\..\..\lvgl\version_6.1.2\lvgl\src\lv_objx\../lv_objx/lv_page.h **** /*=====================
 243:..\..\..\lvgl\version_6.1.2\lvgl\src\lv_objx\../lv_objx/lv_page.h ****  * Getter functions
 244:..\..\..\lvgl\version_6.1.2\lvgl\src\lv_objx\../lv_objx/lv_page.h ****  *====================*/
 245:..\..\..\lvgl\version_6.1.2\lvgl\src\lv_objx\../lv_objx/lv_page.h **** 
 246:..\..\..\lvgl\version_6.1.2\lvgl\src\lv_objx\../lv_objx/lv_page.h **** /**
 247:..\..\..\lvgl\version_6.1.2\lvgl\src\lv_objx\../lv_objx/lv_page.h ****  * Set the scroll bar mode on a page
 248:..\..\..\lvgl\version_6.1.2\lvgl\src\lv_objx\../lv_objx/lv_page.h ****  * @param page pointer to a page object
 249:..\..\..\lvgl\version_6.1.2\lvgl\src\lv_objx\../lv_objx/lv_page.h ****  * @return the mode from 'lv_page_sb.mode_t' enum
 250:..\..\..\lvgl\version_6.1.2\lvgl\src\lv_objx\../lv_objx/lv_page.h ****  */
 251:..\..\..\lvgl\version_6.1.2\lvgl\src\lv_objx\../lv_objx/lv_page.h **** lv_sb_mode_t lv_page_get_sb_mode(const lv_obj_t * page);
 252:..\..\..\lvgl\version_6.1.2\lvgl\src\lv_objx\../lv_objx/lv_page.h **** 
 253:..\..\..\lvgl\version_6.1.2\lvgl\src\lv_objx\../lv_objx/lv_page.h **** /**
 254:..\..\..\lvgl\version_6.1.2\lvgl\src\lv_objx\../lv_objx/lv_page.h ****  * Get the scroll propagation property
 255:..\..\..\lvgl\version_6.1.2\lvgl\src\lv_objx\../lv_objx/lv_page.h ****  * @param page pointer to a Page
 256:..\..\..\lvgl\version_6.1.2\lvgl\src\lv_objx\../lv_objx/lv_page.h ****  * @return true or false
 257:..\..\..\lvgl\version_6.1.2\lvgl\src\lv_objx\../lv_objx/lv_page.h ****  */
 258:..\..\..\lvgl\version_6.1.2\lvgl\src\lv_objx\../lv_objx/lv_page.h **** bool lv_page_get_scroll_propagation(lv_obj_t * page);
 259:..\..\..\lvgl\version_6.1.2\lvgl\src\lv_objx\../lv_objx/lv_page.h **** 
 260:..\..\..\lvgl\version_6.1.2\lvgl\src\lv_objx\../lv_objx/lv_page.h **** /**
 261:..\..\..\lvgl\version_6.1.2\lvgl\src\lv_objx\../lv_objx/lv_page.h ****  * Get the edge flash effect property.
 262:..\..\..\lvgl\version_6.1.2\lvgl\src\lv_objx\../lv_objx/lv_page.h ****  * @param page pointer to a Page
 263:..\..\..\lvgl\version_6.1.2\lvgl\src\lv_objx\../lv_objx/lv_page.h ****  * return true or false
 264:..\..\..\lvgl\version_6.1.2\lvgl\src\lv_objx\../lv_objx/lv_page.h ****  */
 265:..\..\..\lvgl\version_6.1.2\lvgl\src\lv_objx\../lv_objx/lv_page.h **** bool lv_page_get_edge_flash(lv_obj_t * page);
 266:..\..\..\lvgl\version_6.1.2\lvgl\src\lv_objx\../lv_objx/lv_page.h **** 
 267:..\..\..\lvgl\version_6.1.2\lvgl\src\lv_objx\../lv_objx/lv_page.h **** /**
 268:..\..\..\lvgl\version_6.1.2\lvgl\src\lv_objx\../lv_objx/lv_page.h ****  * Get that width which can be set to the children to still not cause overflow (show scrollbars)
 269:..\..\..\lvgl\version_6.1.2\lvgl\src\lv_objx\../lv_objx/lv_page.h ****  * @param page pointer to a page object
 270:..\..\..\lvgl\version_6.1.2\lvgl\src\lv_objx\../lv_objx/lv_page.h ****  * @return the width which still fits into the page
 271:..\..\..\lvgl\version_6.1.2\lvgl\src\lv_objx\../lv_objx/lv_page.h ****  */
 272:..\..\..\lvgl\version_6.1.2\lvgl\src\lv_objx\../lv_objx/lv_page.h **** lv_coord_t lv_page_get_fit_width(lv_obj_t * page);
 273:..\..\..\lvgl\version_6.1.2\lvgl\src\lv_objx\../lv_objx/lv_page.h **** 
 274:..\..\..\lvgl\version_6.1.2\lvgl\src\lv_objx\../lv_objx/lv_page.h **** /**
 275:..\..\..\lvgl\version_6.1.2\lvgl\src\lv_objx\../lv_objx/lv_page.h ****  * Get that height which can be set to the children to still not cause overflow (show scrollbars)
 276:..\..\..\lvgl\version_6.1.2\lvgl\src\lv_objx\../lv_objx/lv_page.h ****  * @param page pointer to a page object
 277:..\..\..\lvgl\version_6.1.2\lvgl\src\lv_objx\../lv_objx/lv_page.h ****  * @return the height which still fits into the page
 278:..\..\..\lvgl\version_6.1.2\lvgl\src\lv_objx\../lv_objx/lv_page.h ****  */
 279:..\..\..\lvgl\version_6.1.2\lvgl\src\lv_objx\../lv_objx/lv_page.h **** lv_coord_t lv_page_get_fit_height(lv_obj_t * page);
 280:..\..\..\lvgl\version_6.1.2\lvgl\src\lv_objx\../lv_objx/lv_page.h **** 
ARM GAS  C:\Users\tmj32\AppData\Local\Temp\ccT5YJ50.s 			page 17


 281:..\..\..\lvgl\version_6.1.2\lvgl\src\lv_objx\../lv_objx/lv_page.h **** /**
 282:..\..\..\lvgl\version_6.1.2\lvgl\src\lv_objx\../lv_objx/lv_page.h ****  * Get width of the scrollable part of a page
 283:..\..\..\lvgl\version_6.1.2\lvgl\src\lv_objx\../lv_objx/lv_page.h ****  * @param page pointer to a page object
 284:..\..\..\lvgl\version_6.1.2\lvgl\src\lv_objx\../lv_objx/lv_page.h ****  * @return the width of the scrollable
 285:..\..\..\lvgl\version_6.1.2\lvgl\src\lv_objx\../lv_objx/lv_page.h ****  */
 286:..\..\..\lvgl\version_6.1.2\lvgl\src\lv_objx\../lv_objx/lv_page.h **** static inline lv_coord_t lv_page_get_scrl_width(const lv_obj_t * page)
 287:..\..\..\lvgl\version_6.1.2\lvgl\src\lv_objx\../lv_objx/lv_page.h **** {
 288:..\..\..\lvgl\version_6.1.2\lvgl\src\lv_objx\../lv_objx/lv_page.h ****     return lv_obj_get_width(lv_page_get_scrl(page));
 289:..\..\..\lvgl\version_6.1.2\lvgl\src\lv_objx\../lv_objx/lv_page.h **** }
 290:..\..\..\lvgl\version_6.1.2\lvgl\src\lv_objx\../lv_objx/lv_page.h **** 
 291:..\..\..\lvgl\version_6.1.2\lvgl\src\lv_objx\../lv_objx/lv_page.h **** /**
 292:..\..\..\lvgl\version_6.1.2\lvgl\src\lv_objx\../lv_objx/lv_page.h ****  * Get height of the scrollable part of a page
 293:..\..\..\lvgl\version_6.1.2\lvgl\src\lv_objx\../lv_objx/lv_page.h ****  * @param page pointer to a page object
 294:..\..\..\lvgl\version_6.1.2\lvgl\src\lv_objx\../lv_objx/lv_page.h ****  * @return the height of the scrollable
 295:..\..\..\lvgl\version_6.1.2\lvgl\src\lv_objx\../lv_objx/lv_page.h ****  */
 296:..\..\..\lvgl\version_6.1.2\lvgl\src\lv_objx\../lv_objx/lv_page.h **** static inline lv_coord_t lv_page_get_scrl_height(const lv_obj_t * page)
 297:..\..\..\lvgl\version_6.1.2\lvgl\src\lv_objx\../lv_objx/lv_page.h **** {
 298:..\..\..\lvgl\version_6.1.2\lvgl\src\lv_objx\../lv_objx/lv_page.h ****     return lv_obj_get_height(lv_page_get_scrl(page));
 299:..\..\..\lvgl\version_6.1.2\lvgl\src\lv_objx\../lv_objx/lv_page.h **** }
 300:..\..\..\lvgl\version_6.1.2\lvgl\src\lv_objx\../lv_objx/lv_page.h **** 
 301:..\..\..\lvgl\version_6.1.2\lvgl\src\lv_objx\../lv_objx/lv_page.h **** /**
 302:..\..\..\lvgl\version_6.1.2\lvgl\src\lv_objx\../lv_objx/lv_page.h ****  * Get the layout of the scrollable part of a page
 303:..\..\..\lvgl\version_6.1.2\lvgl\src\lv_objx\../lv_objx/lv_page.h ****  * @param page pointer to page object
 304:..\..\..\lvgl\version_6.1.2\lvgl\src\lv_objx\../lv_objx/lv_page.h ****  * @return the layout from 'lv_cont_layout_t'
 305:..\..\..\lvgl\version_6.1.2\lvgl\src\lv_objx\../lv_objx/lv_page.h ****  */
 306:..\..\..\lvgl\version_6.1.2\lvgl\src\lv_objx\../lv_objx/lv_page.h **** static inline lv_layout_t lv_page_get_scrl_layout(const lv_obj_t * page)
 307:..\..\..\lvgl\version_6.1.2\lvgl\src\lv_objx\../lv_objx/lv_page.h **** {
 308:..\..\..\lvgl\version_6.1.2\lvgl\src\lv_objx\../lv_objx/lv_page.h ****     return lv_cont_get_layout(lv_page_get_scrl(page));
 309:..\..\..\lvgl\version_6.1.2\lvgl\src\lv_objx\../lv_objx/lv_page.h **** }
 310:..\..\..\lvgl\version_6.1.2\lvgl\src\lv_objx\../lv_objx/lv_page.h **** 
 311:..\..\..\lvgl\version_6.1.2\lvgl\src\lv_objx\../lv_objx/lv_page.h **** /**
 312:..\..\..\lvgl\version_6.1.2\lvgl\src\lv_objx\../lv_objx/lv_page.h ****  * Get the left fit mode
 313:..\..\..\lvgl\version_6.1.2\lvgl\src\lv_objx\../lv_objx/lv_page.h ****  * @param page pointer to a page object
 314:..\..\..\lvgl\version_6.1.2\lvgl\src\lv_objx\../lv_objx/lv_page.h ****  * @return an element of `lv_fit_t`
 315:..\..\..\lvgl\version_6.1.2\lvgl\src\lv_objx\../lv_objx/lv_page.h ****  */
 316:..\..\..\lvgl\version_6.1.2\lvgl\src\lv_objx\../lv_objx/lv_page.h **** static inline lv_fit_t lv_page_get_scrl_fit_left(const lv_obj_t * page)
 317:..\..\..\lvgl\version_6.1.2\lvgl\src\lv_objx\../lv_objx/lv_page.h **** {
 283              		.loc 4 317 0
 284              		.cfi_startproc
 285              		@ args = 0, pretend = 0, frame = 8
 286              		@ frame_needed = 1, uses_anonymous_args = 0
 287 0000 80B5     		push	{r7, lr}
 288              		.cfi_def_cfa_offset 8
 289              		.cfi_offset 7, -8
 290              		.cfi_offset 14, -4
 291 0002 82B0     		sub	sp, sp, #8
 292              		.cfi_def_cfa_offset 16
 293 0004 00AF     		add	r7, sp, #0
 294              		.cfi_def_cfa_register 7
 295 0006 7860     		str	r0, [r7, #4]
 318:..\..\..\lvgl\version_6.1.2\lvgl\src\lv_objx\../lv_objx/lv_page.h ****     return lv_cont_get_fit_left(lv_page_get_scrl(page));
 296              		.loc 4 318 0
 297 0008 7868     		ldr	r0, [r7, #4]
 298 000a FFF7FEFF 		bl	lv_page_get_scrl
 299 000e 0346     		mov	r3, r0
 300 0010 1846     		mov	r0, r3
 301 0012 FFF7FEFF 		bl	lv_cont_get_fit_left
ARM GAS  C:\Users\tmj32\AppData\Local\Temp\ccT5YJ50.s 			page 18


 302 0016 0346     		mov	r3, r0
 319:..\..\..\lvgl\version_6.1.2\lvgl\src\lv_objx\../lv_objx/lv_page.h **** }
 303              		.loc 4 319 0
 304 0018 1846     		mov	r0, r3
 305 001a 0837     		adds	r7, r7, #8
 306              		.cfi_def_cfa_offset 8
 307 001c BD46     		mov	sp, r7
 308              		.cfi_def_cfa_register 13
 309              		@ sp needed
 310 001e 80BD     		pop	{r7, pc}
 311              		.cfi_endproc
 312              	.LFE44:
 313              		.size	lv_page_get_scrl_fit_left, .-lv_page_get_scrl_fit_left
 314              		.section	.text.lv_ddlist_set_anim_time,"ax",%progbits
 315              		.align	2
 316              		.thumb
 317              		.thumb_func
 318              		.type	lv_ddlist_set_anim_time, %function
 319              	lv_ddlist_set_anim_time:
 320              	.LFB51:
 321              		.file 5 "..\\..\\..\\lvgl\\version_6.1.2\\lvgl\\src\\lv_objx\\lv_ddlist.h"
   1:..\..\..\lvgl\version_6.1.2\lvgl\src\lv_objx/lv_ddlist.h **** /**
   2:..\..\..\lvgl\version_6.1.2\lvgl\src\lv_objx/lv_ddlist.h ****  * @file lv_ddlist.h
   3:..\..\..\lvgl\version_6.1.2\lvgl\src\lv_objx/lv_ddlist.h ****  *
   4:..\..\..\lvgl\version_6.1.2\lvgl\src\lv_objx/lv_ddlist.h ****  */
   5:..\..\..\lvgl\version_6.1.2\lvgl\src\lv_objx/lv_ddlist.h **** 
   6:..\..\..\lvgl\version_6.1.2\lvgl\src\lv_objx/lv_ddlist.h **** #ifndef LV_DDLIST_H
   7:..\..\..\lvgl\version_6.1.2\lvgl\src\lv_objx/lv_ddlist.h **** #define LV_DDLIST_H
   8:..\..\..\lvgl\version_6.1.2\lvgl\src\lv_objx/lv_ddlist.h **** 
   9:..\..\..\lvgl\version_6.1.2\lvgl\src\lv_objx/lv_ddlist.h **** #ifdef __cplusplus
  10:..\..\..\lvgl\version_6.1.2\lvgl\src\lv_objx/lv_ddlist.h **** extern "C" {
  11:..\..\..\lvgl\version_6.1.2\lvgl\src\lv_objx/lv_ddlist.h **** #endif
  12:..\..\..\lvgl\version_6.1.2\lvgl\src\lv_objx/lv_ddlist.h **** 
  13:..\..\..\lvgl\version_6.1.2\lvgl\src\lv_objx/lv_ddlist.h **** /*********************
  14:..\..\..\lvgl\version_6.1.2\lvgl\src\lv_objx/lv_ddlist.h ****  *      INCLUDES
  15:..\..\..\lvgl\version_6.1.2\lvgl\src\lv_objx/lv_ddlist.h ****  *********************/
  16:..\..\..\lvgl\version_6.1.2\lvgl\src\lv_objx/lv_ddlist.h **** #ifdef LV_CONF_INCLUDE_SIMPLE
  17:..\..\..\lvgl\version_6.1.2\lvgl\src\lv_objx/lv_ddlist.h **** #include "lv_conf.h"
  18:..\..\..\lvgl\version_6.1.2\lvgl\src\lv_objx/lv_ddlist.h **** #else
  19:..\..\..\lvgl\version_6.1.2\lvgl\src\lv_objx/lv_ddlist.h **** #include "../../../lv_conf.h"
  20:..\..\..\lvgl\version_6.1.2\lvgl\src\lv_objx/lv_ddlist.h **** #endif
  21:..\..\..\lvgl\version_6.1.2\lvgl\src\lv_objx/lv_ddlist.h **** 
  22:..\..\..\lvgl\version_6.1.2\lvgl\src\lv_objx/lv_ddlist.h **** #if LV_USE_DDLIST != 0
  23:..\..\..\lvgl\version_6.1.2\lvgl\src\lv_objx/lv_ddlist.h **** 
  24:..\..\..\lvgl\version_6.1.2\lvgl\src\lv_objx/lv_ddlist.h **** /*Testing of dependencies*/
  25:..\..\..\lvgl\version_6.1.2\lvgl\src\lv_objx/lv_ddlist.h **** #if LV_USE_PAGE == 0
  26:..\..\..\lvgl\version_6.1.2\lvgl\src\lv_objx/lv_ddlist.h **** #error "lv_ddlist: lv_page is required. Enable it in lv_conf.h (LV_USE_PAGE  1) "
  27:..\..\..\lvgl\version_6.1.2\lvgl\src\lv_objx/lv_ddlist.h **** #endif
  28:..\..\..\lvgl\version_6.1.2\lvgl\src\lv_objx/lv_ddlist.h **** 
  29:..\..\..\lvgl\version_6.1.2\lvgl\src\lv_objx/lv_ddlist.h **** #if LV_USE_LABEL == 0
  30:..\..\..\lvgl\version_6.1.2\lvgl\src\lv_objx/lv_ddlist.h **** #error "lv_ddlist: lv_label is required. Enable it in lv_conf.h (LV_USE_LABEL  1) "
  31:..\..\..\lvgl\version_6.1.2\lvgl\src\lv_objx/lv_ddlist.h **** #endif
  32:..\..\..\lvgl\version_6.1.2\lvgl\src\lv_objx/lv_ddlist.h **** 
  33:..\..\..\lvgl\version_6.1.2\lvgl\src\lv_objx/lv_ddlist.h **** #include "../lv_core/lv_obj.h"
  34:..\..\..\lvgl\version_6.1.2\lvgl\src\lv_objx/lv_ddlist.h **** #include "../lv_objx/lv_page.h"
  35:..\..\..\lvgl\version_6.1.2\lvgl\src\lv_objx/lv_ddlist.h **** #include "../lv_objx/lv_label.h"
  36:..\..\..\lvgl\version_6.1.2\lvgl\src\lv_objx/lv_ddlist.h **** 
ARM GAS  C:\Users\tmj32\AppData\Local\Temp\ccT5YJ50.s 			page 19


  37:..\..\..\lvgl\version_6.1.2\lvgl\src\lv_objx/lv_ddlist.h **** /*********************
  38:..\..\..\lvgl\version_6.1.2\lvgl\src\lv_objx/lv_ddlist.h ****  *      DEFINES
  39:..\..\..\lvgl\version_6.1.2\lvgl\src\lv_objx/lv_ddlist.h ****  *********************/
  40:..\..\..\lvgl\version_6.1.2\lvgl\src\lv_objx/lv_ddlist.h **** 
  41:..\..\..\lvgl\version_6.1.2\lvgl\src\lv_objx/lv_ddlist.h **** /**********************
  42:..\..\..\lvgl\version_6.1.2\lvgl\src\lv_objx/lv_ddlist.h ****  *      TYPEDEFS
  43:..\..\..\lvgl\version_6.1.2\lvgl\src\lv_objx/lv_ddlist.h ****  **********************/
  44:..\..\..\lvgl\version_6.1.2\lvgl\src\lv_objx/lv_ddlist.h **** /*Data of drop down list*/
  45:..\..\..\lvgl\version_6.1.2\lvgl\src\lv_objx/lv_ddlist.h **** typedef struct
  46:..\..\..\lvgl\version_6.1.2\lvgl\src\lv_objx/lv_ddlist.h **** {
  47:..\..\..\lvgl\version_6.1.2\lvgl\src\lv_objx/lv_ddlist.h ****     lv_page_ext_t page; /*Ext. of ancestor*/
  48:..\..\..\lvgl\version_6.1.2\lvgl\src\lv_objx/lv_ddlist.h ****     /*New data for this type */
  49:..\..\..\lvgl\version_6.1.2\lvgl\src\lv_objx/lv_ddlist.h ****     lv_obj_t * label;             /*Label for the options*/
  50:..\..\..\lvgl\version_6.1.2\lvgl\src\lv_objx/lv_ddlist.h ****     const lv_style_t * sel_style; /*Style of the selected option*/
  51:..\..\..\lvgl\version_6.1.2\lvgl\src\lv_objx/lv_ddlist.h ****     uint16_t option_cnt;          /*Number of options*/
  52:..\..\..\lvgl\version_6.1.2\lvgl\src\lv_objx/lv_ddlist.h ****     uint16_t sel_opt_id;          /*Index of the current option*/
  53:..\..\..\lvgl\version_6.1.2\lvgl\src\lv_objx/lv_ddlist.h ****     uint16_t sel_opt_id_ori;      /*Store the original index on focus*/
  54:..\..\..\lvgl\version_6.1.2\lvgl\src\lv_objx/lv_ddlist.h ****     uint8_t opened : 1;           /*1: The list is opened (handled by the library)*/
  55:..\..\..\lvgl\version_6.1.2\lvgl\src\lv_objx/lv_ddlist.h ****     uint8_t force_sel : 1;        /*1: Keep the selection highlight even if the list is closed*/
  56:..\..\..\lvgl\version_6.1.2\lvgl\src\lv_objx/lv_ddlist.h ****     uint8_t draw_arrow : 1;       /*1: Draw arrow*/
  57:..\..\..\lvgl\version_6.1.2\lvgl\src\lv_objx/lv_ddlist.h ****     uint8_t stay_open : 1;        /*1: Don't close the list when a new item is selected*/
  58:..\..\..\lvgl\version_6.1.2\lvgl\src\lv_objx/lv_ddlist.h ****     lv_coord_t fix_height;        /*Height of the ddlist when opened. (0: auto-size)*/
  59:..\..\..\lvgl\version_6.1.2\lvgl\src\lv_objx/lv_ddlist.h **** } lv_ddlist_ext_t;
  60:..\..\..\lvgl\version_6.1.2\lvgl\src\lv_objx/lv_ddlist.h **** 
  61:..\..\..\lvgl\version_6.1.2\lvgl\src\lv_objx/lv_ddlist.h **** enum {
  62:..\..\..\lvgl\version_6.1.2\lvgl\src\lv_objx/lv_ddlist.h ****     LV_DDLIST_STYLE_BG,
  63:..\..\..\lvgl\version_6.1.2\lvgl\src\lv_objx/lv_ddlist.h ****     LV_DDLIST_STYLE_SEL,
  64:..\..\..\lvgl\version_6.1.2\lvgl\src\lv_objx/lv_ddlist.h ****     LV_DDLIST_STYLE_SB,
  65:..\..\..\lvgl\version_6.1.2\lvgl\src\lv_objx/lv_ddlist.h **** };
  66:..\..\..\lvgl\version_6.1.2\lvgl\src\lv_objx/lv_ddlist.h **** typedef uint8_t lv_ddlist_style_t;
  67:..\..\..\lvgl\version_6.1.2\lvgl\src\lv_objx/lv_ddlist.h **** 
  68:..\..\..\lvgl\version_6.1.2\lvgl\src\lv_objx/lv_ddlist.h **** /**********************
  69:..\..\..\lvgl\version_6.1.2\lvgl\src\lv_objx/lv_ddlist.h ****  * GLOBAL PROTOTYPES
  70:..\..\..\lvgl\version_6.1.2\lvgl\src\lv_objx/lv_ddlist.h ****  **********************/
  71:..\..\..\lvgl\version_6.1.2\lvgl\src\lv_objx/lv_ddlist.h **** /**
  72:..\..\..\lvgl\version_6.1.2\lvgl\src\lv_objx/lv_ddlist.h ****  * Create a drop down list objects
  73:..\..\..\lvgl\version_6.1.2\lvgl\src\lv_objx/lv_ddlist.h ****  * @param par pointer to an object, it will be the parent of the new drop down list
  74:..\..\..\lvgl\version_6.1.2\lvgl\src\lv_objx/lv_ddlist.h ****  * @param copy pointer to a drop down list object, if not NULL then the new object will be copied
  75:..\..\..\lvgl\version_6.1.2\lvgl\src\lv_objx/lv_ddlist.h ****  * from it
  76:..\..\..\lvgl\version_6.1.2\lvgl\src\lv_objx/lv_ddlist.h ****  * @return pointer to the created drop down list
  77:..\..\..\lvgl\version_6.1.2\lvgl\src\lv_objx/lv_ddlist.h ****  */
  78:..\..\..\lvgl\version_6.1.2\lvgl\src\lv_objx/lv_ddlist.h **** lv_obj_t * lv_ddlist_create(lv_obj_t * par, const lv_obj_t * copy);
  79:..\..\..\lvgl\version_6.1.2\lvgl\src\lv_objx/lv_ddlist.h **** 
  80:..\..\..\lvgl\version_6.1.2\lvgl\src\lv_objx/lv_ddlist.h **** /*=====================
  81:..\..\..\lvgl\version_6.1.2\lvgl\src\lv_objx/lv_ddlist.h ****  * Setter functions
  82:..\..\..\lvgl\version_6.1.2\lvgl\src\lv_objx/lv_ddlist.h ****  *====================*/
  83:..\..\..\lvgl\version_6.1.2\lvgl\src\lv_objx/lv_ddlist.h **** 
  84:..\..\..\lvgl\version_6.1.2\lvgl\src\lv_objx/lv_ddlist.h **** /**
  85:..\..\..\lvgl\version_6.1.2\lvgl\src\lv_objx/lv_ddlist.h ****  * Set the options in a drop down list from a string
  86:..\..\..\lvgl\version_6.1.2\lvgl\src\lv_objx/lv_ddlist.h ****  * @param ddlist pointer to drop down list object
  87:..\..\..\lvgl\version_6.1.2\lvgl\src\lv_objx/lv_ddlist.h ****  * @param options a string with '\n' separated options. E.g. "One\nTwo\nThree"
  88:..\..\..\lvgl\version_6.1.2\lvgl\src\lv_objx/lv_ddlist.h ****  */
  89:..\..\..\lvgl\version_6.1.2\lvgl\src\lv_objx/lv_ddlist.h **** void lv_ddlist_set_options(lv_obj_t * ddlist, const char * options);
  90:..\..\..\lvgl\version_6.1.2\lvgl\src\lv_objx/lv_ddlist.h **** 
  91:..\..\..\lvgl\version_6.1.2\lvgl\src\lv_objx/lv_ddlist.h **** /**
  92:..\..\..\lvgl\version_6.1.2\lvgl\src\lv_objx/lv_ddlist.h ****  * Set the selected option
  93:..\..\..\lvgl\version_6.1.2\lvgl\src\lv_objx/lv_ddlist.h ****  * @param ddlist pointer to drop down list object
ARM GAS  C:\Users\tmj32\AppData\Local\Temp\ccT5YJ50.s 			page 20


  94:..\..\..\lvgl\version_6.1.2\lvgl\src\lv_objx/lv_ddlist.h ****  * @param sel_opt id of the selected option (0 ... number of option - 1);
  95:..\..\..\lvgl\version_6.1.2\lvgl\src\lv_objx/lv_ddlist.h ****  */
  96:..\..\..\lvgl\version_6.1.2\lvgl\src\lv_objx/lv_ddlist.h **** void lv_ddlist_set_selected(lv_obj_t * ddlist, uint16_t sel_opt);
  97:..\..\..\lvgl\version_6.1.2\lvgl\src\lv_objx/lv_ddlist.h **** 
  98:..\..\..\lvgl\version_6.1.2\lvgl\src\lv_objx/lv_ddlist.h **** /**
  99:..\..\..\lvgl\version_6.1.2\lvgl\src\lv_objx/lv_ddlist.h ****  * Set a fix height for the drop down list
 100:..\..\..\lvgl\version_6.1.2\lvgl\src\lv_objx/lv_ddlist.h ****  * If 0 then the opened ddlist will be auto. sized else the set height will be applied.
 101:..\..\..\lvgl\version_6.1.2\lvgl\src\lv_objx/lv_ddlist.h ****  * @param ddlist pointer to a drop down list
 102:..\..\..\lvgl\version_6.1.2\lvgl\src\lv_objx/lv_ddlist.h ****  * @param h the height when the list is opened (0: auto size)
 103:..\..\..\lvgl\version_6.1.2\lvgl\src\lv_objx/lv_ddlist.h ****  */
 104:..\..\..\lvgl\version_6.1.2\lvgl\src\lv_objx/lv_ddlist.h **** void lv_ddlist_set_fix_height(lv_obj_t * ddlist, lv_coord_t h);
 105:..\..\..\lvgl\version_6.1.2\lvgl\src\lv_objx/lv_ddlist.h **** 
 106:..\..\..\lvgl\version_6.1.2\lvgl\src\lv_objx/lv_ddlist.h **** /**
 107:..\..\..\lvgl\version_6.1.2\lvgl\src\lv_objx/lv_ddlist.h ****  * Set a fix width for the drop down list
 108:..\..\..\lvgl\version_6.1.2\lvgl\src\lv_objx/lv_ddlist.h ****  * @param ddlist pointer to a drop down list
 109:..\..\..\lvgl\version_6.1.2\lvgl\src\lv_objx/lv_ddlist.h ****  * @param w the width when the list is opened (0: auto size)
 110:..\..\..\lvgl\version_6.1.2\lvgl\src\lv_objx/lv_ddlist.h ****  */
 111:..\..\..\lvgl\version_6.1.2\lvgl\src\lv_objx/lv_ddlist.h **** void lv_ddlist_set_fix_width(lv_obj_t * ddlist, lv_coord_t w);
 112:..\..\..\lvgl\version_6.1.2\lvgl\src\lv_objx/lv_ddlist.h **** 
 113:..\..\..\lvgl\version_6.1.2\lvgl\src\lv_objx/lv_ddlist.h **** /**
 114:..\..\..\lvgl\version_6.1.2\lvgl\src\lv_objx/lv_ddlist.h ****  * Set arrow draw in a drop down list
 115:..\..\..\lvgl\version_6.1.2\lvgl\src\lv_objx/lv_ddlist.h ****  * @param ddlist pointer to drop down list object
 116:..\..\..\lvgl\version_6.1.2\lvgl\src\lv_objx/lv_ddlist.h ****  * @param en enable/disable a arrow draw. E.g. "true" for draw.
 117:..\..\..\lvgl\version_6.1.2\lvgl\src\lv_objx/lv_ddlist.h ****  */
 118:..\..\..\lvgl\version_6.1.2\lvgl\src\lv_objx/lv_ddlist.h **** void lv_ddlist_set_draw_arrow(lv_obj_t * ddlist, bool en);
 119:..\..\..\lvgl\version_6.1.2\lvgl\src\lv_objx/lv_ddlist.h **** 
 120:..\..\..\lvgl\version_6.1.2\lvgl\src\lv_objx/lv_ddlist.h **** /**
 121:..\..\..\lvgl\version_6.1.2\lvgl\src\lv_objx/lv_ddlist.h ****  * Leave the list opened when a new value is selected
 122:..\..\..\lvgl\version_6.1.2\lvgl\src\lv_objx/lv_ddlist.h ****  * @param ddlist pointer to drop down list object
 123:..\..\..\lvgl\version_6.1.2\lvgl\src\lv_objx/lv_ddlist.h ****  * @param en enable/disable "stay open" feature
 124:..\..\..\lvgl\version_6.1.2\lvgl\src\lv_objx/lv_ddlist.h ****  */
 125:..\..\..\lvgl\version_6.1.2\lvgl\src\lv_objx/lv_ddlist.h **** void lv_ddlist_set_stay_open(lv_obj_t * ddlist, bool en);
 126:..\..\..\lvgl\version_6.1.2\lvgl\src\lv_objx/lv_ddlist.h **** 
 127:..\..\..\lvgl\version_6.1.2\lvgl\src\lv_objx/lv_ddlist.h **** /**
 128:..\..\..\lvgl\version_6.1.2\lvgl\src\lv_objx/lv_ddlist.h ****  * Set the scroll bar mode of a drop down list
 129:..\..\..\lvgl\version_6.1.2\lvgl\src\lv_objx/lv_ddlist.h ****  * @param ddlist pointer to a drop down list object
 130:..\..\..\lvgl\version_6.1.2\lvgl\src\lv_objx/lv_ddlist.h ****  * @param sb_mode the new mode from 'lv_page_sb_mode_t' enum
 131:..\..\..\lvgl\version_6.1.2\lvgl\src\lv_objx/lv_ddlist.h ****  */
 132:..\..\..\lvgl\version_6.1.2\lvgl\src\lv_objx/lv_ddlist.h **** static inline void lv_ddlist_set_sb_mode(lv_obj_t * ddlist, lv_sb_mode_t mode)
 133:..\..\..\lvgl\version_6.1.2\lvgl\src\lv_objx/lv_ddlist.h **** {
 134:..\..\..\lvgl\version_6.1.2\lvgl\src\lv_objx/lv_ddlist.h ****     lv_page_set_sb_mode(ddlist, mode);
 135:..\..\..\lvgl\version_6.1.2\lvgl\src\lv_objx/lv_ddlist.h **** }
 136:..\..\..\lvgl\version_6.1.2\lvgl\src\lv_objx/lv_ddlist.h **** /**
 137:..\..\..\lvgl\version_6.1.2\lvgl\src\lv_objx/lv_ddlist.h ****  * Set the open/close animation time.
 138:..\..\..\lvgl\version_6.1.2\lvgl\src\lv_objx/lv_ddlist.h ****  * @param ddlist pointer to a drop down list
 139:..\..\..\lvgl\version_6.1.2\lvgl\src\lv_objx/lv_ddlist.h ****  * @param anim_time: open/close animation time [ms]
 140:..\..\..\lvgl\version_6.1.2\lvgl\src\lv_objx/lv_ddlist.h ****  */
 141:..\..\..\lvgl\version_6.1.2\lvgl\src\lv_objx/lv_ddlist.h **** static inline void lv_ddlist_set_anim_time(lv_obj_t * ddlist, uint16_t anim_time)
 142:..\..\..\lvgl\version_6.1.2\lvgl\src\lv_objx/lv_ddlist.h **** {
 322              		.loc 5 142 0
 323              		.cfi_startproc
 324              		@ args = 0, pretend = 0, frame = 8
 325              		@ frame_needed = 1, uses_anonymous_args = 0
 326 0000 80B5     		push	{r7, lr}
 327              		.cfi_def_cfa_offset 8
 328              		.cfi_offset 7, -8
 329              		.cfi_offset 14, -4
ARM GAS  C:\Users\tmj32\AppData\Local\Temp\ccT5YJ50.s 			page 21


 330 0002 82B0     		sub	sp, sp, #8
 331              		.cfi_def_cfa_offset 16
 332 0004 00AF     		add	r7, sp, #0
 333              		.cfi_def_cfa_register 7
 334 0006 7860     		str	r0, [r7, #4]
 335 0008 0B46     		mov	r3, r1
 336 000a 7B80     		strh	r3, [r7, #2]	@ movhi
 143:..\..\..\lvgl\version_6.1.2\lvgl\src\lv_objx/lv_ddlist.h ****     lv_page_set_anim_time(ddlist, anim_time);
 337              		.loc 5 143 0
 338 000c 7B88     		ldrh	r3, [r7, #2]
 339 000e 1946     		mov	r1, r3
 340 0010 7868     		ldr	r0, [r7, #4]
 341 0012 FFF7FEFF 		bl	lv_page_set_anim_time
 144:..\..\..\lvgl\version_6.1.2\lvgl\src\lv_objx/lv_ddlist.h **** }
 342              		.loc 5 144 0
 343 0016 00BF     		nop
 344 0018 0837     		adds	r7, r7, #8
 345              		.cfi_def_cfa_offset 8
 346 001a BD46     		mov	sp, r7
 347              		.cfi_def_cfa_register 13
 348              		@ sp needed
 349 001c 80BD     		pop	{r7, pc}
 350              		.cfi_endproc
 351              	.LFE51:
 352              		.size	lv_ddlist_set_anim_time, .-lv_ddlist_set_anim_time
 353 001e 00BF     		.section	.text.lv_ddlist_get_anim_time,"ax",%progbits
 354              		.align	2
 355              		.thumb
 356              		.thumb_func
 357              		.type	lv_ddlist_get_anim_time, %function
 358              	lv_ddlist_get_anim_time:
 359              	.LFB53:
 145:..\..\..\lvgl\version_6.1.2\lvgl\src\lv_objx/lv_ddlist.h **** 
 146:..\..\..\lvgl\version_6.1.2\lvgl\src\lv_objx/lv_ddlist.h **** /**
 147:..\..\..\lvgl\version_6.1.2\lvgl\src\lv_objx/lv_ddlist.h ****  * Set a style of a drop down list
 148:..\..\..\lvgl\version_6.1.2\lvgl\src\lv_objx/lv_ddlist.h ****  * @param ddlist pointer to a drop down list object
 149:..\..\..\lvgl\version_6.1.2\lvgl\src\lv_objx/lv_ddlist.h ****  * @param type which style should be set
 150:..\..\..\lvgl\version_6.1.2\lvgl\src\lv_objx/lv_ddlist.h ****  * @param style pointer to a style
 151:..\..\..\lvgl\version_6.1.2\lvgl\src\lv_objx/lv_ddlist.h ****  *  */
 152:..\..\..\lvgl\version_6.1.2\lvgl\src\lv_objx/lv_ddlist.h **** void lv_ddlist_set_style(lv_obj_t * ddlist, lv_ddlist_style_t type, const lv_style_t * style);
 153:..\..\..\lvgl\version_6.1.2\lvgl\src\lv_objx/lv_ddlist.h **** 
 154:..\..\..\lvgl\version_6.1.2\lvgl\src\lv_objx/lv_ddlist.h **** /**
 155:..\..\..\lvgl\version_6.1.2\lvgl\src\lv_objx/lv_ddlist.h ****  * Set the alignment of the labels in a drop down list
 156:..\..\..\lvgl\version_6.1.2\lvgl\src\lv_objx/lv_ddlist.h ****  * @param ddlist pointer to a drop down list object
 157:..\..\..\lvgl\version_6.1.2\lvgl\src\lv_objx/lv_ddlist.h ****  * @param align alignment of labels
 158:..\..\..\lvgl\version_6.1.2\lvgl\src\lv_objx/lv_ddlist.h ****  */
 159:..\..\..\lvgl\version_6.1.2\lvgl\src\lv_objx/lv_ddlist.h **** void lv_ddlist_set_align(lv_obj_t * ddlist, lv_label_align_t align);
 160:..\..\..\lvgl\version_6.1.2\lvgl\src\lv_objx/lv_ddlist.h **** 
 161:..\..\..\lvgl\version_6.1.2\lvgl\src\lv_objx/lv_ddlist.h **** /*=====================
 162:..\..\..\lvgl\version_6.1.2\lvgl\src\lv_objx/lv_ddlist.h ****  * Getter functions
 163:..\..\..\lvgl\version_6.1.2\lvgl\src\lv_objx/lv_ddlist.h ****  *====================*/
 164:..\..\..\lvgl\version_6.1.2\lvgl\src\lv_objx/lv_ddlist.h **** 
 165:..\..\..\lvgl\version_6.1.2\lvgl\src\lv_objx/lv_ddlist.h **** /**
 166:..\..\..\lvgl\version_6.1.2\lvgl\src\lv_objx/lv_ddlist.h ****  * Get the options of a drop down list
 167:..\..\..\lvgl\version_6.1.2\lvgl\src\lv_objx/lv_ddlist.h ****  * @param ddlist pointer to drop down list object
 168:..\..\..\lvgl\version_6.1.2\lvgl\src\lv_objx/lv_ddlist.h ****  * @return the options separated by '\n'-s (E.g. "Option1\nOption2\nOption3")
 169:..\..\..\lvgl\version_6.1.2\lvgl\src\lv_objx/lv_ddlist.h ****  */
ARM GAS  C:\Users\tmj32\AppData\Local\Temp\ccT5YJ50.s 			page 22


 170:..\..\..\lvgl\version_6.1.2\lvgl\src\lv_objx/lv_ddlist.h **** const char * lv_ddlist_get_options(const lv_obj_t * ddlist);
 171:..\..\..\lvgl\version_6.1.2\lvgl\src\lv_objx/lv_ddlist.h **** 
 172:..\..\..\lvgl\version_6.1.2\lvgl\src\lv_objx/lv_ddlist.h **** /**
 173:..\..\..\lvgl\version_6.1.2\lvgl\src\lv_objx/lv_ddlist.h ****  * Get the selected option
 174:..\..\..\lvgl\version_6.1.2\lvgl\src\lv_objx/lv_ddlist.h ****  * @param ddlist pointer to drop down list object
 175:..\..\..\lvgl\version_6.1.2\lvgl\src\lv_objx/lv_ddlist.h ****  * @return id of the selected option (0 ... number of option - 1);
 176:..\..\..\lvgl\version_6.1.2\lvgl\src\lv_objx/lv_ddlist.h ****  */
 177:..\..\..\lvgl\version_6.1.2\lvgl\src\lv_objx/lv_ddlist.h **** uint16_t lv_ddlist_get_selected(const lv_obj_t * ddlist);
 178:..\..\..\lvgl\version_6.1.2\lvgl\src\lv_objx/lv_ddlist.h **** 
 179:..\..\..\lvgl\version_6.1.2\lvgl\src\lv_objx/lv_ddlist.h **** /**
 180:..\..\..\lvgl\version_6.1.2\lvgl\src\lv_objx/lv_ddlist.h ****  * Get the current selected option as a string
 181:..\..\..\lvgl\version_6.1.2\lvgl\src\lv_objx/lv_ddlist.h ****  * @param ddlist pointer to ddlist object
 182:..\..\..\lvgl\version_6.1.2\lvgl\src\lv_objx/lv_ddlist.h ****  * @param buf pointer to an array to store the string
 183:..\..\..\lvgl\version_6.1.2\lvgl\src\lv_objx/lv_ddlist.h ****  * @param buf_size size of `buf` in bytes. 0: to ignore it.
 184:..\..\..\lvgl\version_6.1.2\lvgl\src\lv_objx/lv_ddlist.h ****  */
 185:..\..\..\lvgl\version_6.1.2\lvgl\src\lv_objx/lv_ddlist.h **** void lv_ddlist_get_selected_str(const lv_obj_t * ddlist, char * buf, uint16_t buf_size);
 186:..\..\..\lvgl\version_6.1.2\lvgl\src\lv_objx/lv_ddlist.h **** 
 187:..\..\..\lvgl\version_6.1.2\lvgl\src\lv_objx/lv_ddlist.h **** /**
 188:..\..\..\lvgl\version_6.1.2\lvgl\src\lv_objx/lv_ddlist.h ****  * Get the fix height value.
 189:..\..\..\lvgl\version_6.1.2\lvgl\src\lv_objx/lv_ddlist.h ****  * @param ddlist pointer to a drop down list object
 190:..\..\..\lvgl\version_6.1.2\lvgl\src\lv_objx/lv_ddlist.h ****  * @return the height if the ddlist is opened (0: auto size)
 191:..\..\..\lvgl\version_6.1.2\lvgl\src\lv_objx/lv_ddlist.h ****  */
 192:..\..\..\lvgl\version_6.1.2\lvgl\src\lv_objx/lv_ddlist.h **** lv_coord_t lv_ddlist_get_fix_height(const lv_obj_t * ddlist);
 193:..\..\..\lvgl\version_6.1.2\lvgl\src\lv_objx/lv_ddlist.h **** 
 194:..\..\..\lvgl\version_6.1.2\lvgl\src\lv_objx/lv_ddlist.h **** /**
 195:..\..\..\lvgl\version_6.1.2\lvgl\src\lv_objx/lv_ddlist.h ****  * Get arrow draw in a drop down list
 196:..\..\..\lvgl\version_6.1.2\lvgl\src\lv_objx/lv_ddlist.h ****  * @param ddlist pointer to drop down list object
 197:..\..\..\lvgl\version_6.1.2\lvgl\src\lv_objx/lv_ddlist.h ****  */
 198:..\..\..\lvgl\version_6.1.2\lvgl\src\lv_objx/lv_ddlist.h **** bool lv_ddlist_get_draw_arrow(lv_obj_t * ddlist);
 199:..\..\..\lvgl\version_6.1.2\lvgl\src\lv_objx/lv_ddlist.h **** 
 200:..\..\..\lvgl\version_6.1.2\lvgl\src\lv_objx/lv_ddlist.h **** /**
 201:..\..\..\lvgl\version_6.1.2\lvgl\src\lv_objx/lv_ddlist.h ****  * Get whether the drop down list stay open after selecting a  value or not
 202:..\..\..\lvgl\version_6.1.2\lvgl\src\lv_objx/lv_ddlist.h ****  * @param ddlist pointer to drop down list object
 203:..\..\..\lvgl\version_6.1.2\lvgl\src\lv_objx/lv_ddlist.h ****  */
 204:..\..\..\lvgl\version_6.1.2\lvgl\src\lv_objx/lv_ddlist.h **** bool lv_ddlist_get_stay_open(lv_obj_t * ddlist);
 205:..\..\..\lvgl\version_6.1.2\lvgl\src\lv_objx/lv_ddlist.h **** 
 206:..\..\..\lvgl\version_6.1.2\lvgl\src\lv_objx/lv_ddlist.h **** /**
 207:..\..\..\lvgl\version_6.1.2\lvgl\src\lv_objx/lv_ddlist.h ****  * Get the scroll bar mode of a drop down list
 208:..\..\..\lvgl\version_6.1.2\lvgl\src\lv_objx/lv_ddlist.h ****  * @param ddlist pointer to a  drop down list object
 209:..\..\..\lvgl\version_6.1.2\lvgl\src\lv_objx/lv_ddlist.h ****  * @return scrollbar mode from 'lv_page_sb_mode_t' enum
 210:..\..\..\lvgl\version_6.1.2\lvgl\src\lv_objx/lv_ddlist.h ****  */
 211:..\..\..\lvgl\version_6.1.2\lvgl\src\lv_objx/lv_ddlist.h **** static inline lv_sb_mode_t lv_ddlist_get_sb_mode(const lv_obj_t * ddlist)
 212:..\..\..\lvgl\version_6.1.2\lvgl\src\lv_objx/lv_ddlist.h **** {
 213:..\..\..\lvgl\version_6.1.2\lvgl\src\lv_objx/lv_ddlist.h ****     return lv_page_get_sb_mode(ddlist);
 214:..\..\..\lvgl\version_6.1.2\lvgl\src\lv_objx/lv_ddlist.h **** }
 215:..\..\..\lvgl\version_6.1.2\lvgl\src\lv_objx/lv_ddlist.h **** 
 216:..\..\..\lvgl\version_6.1.2\lvgl\src\lv_objx/lv_ddlist.h **** /**
 217:..\..\..\lvgl\version_6.1.2\lvgl\src\lv_objx/lv_ddlist.h ****  * Get the open/close animation time.
 218:..\..\..\lvgl\version_6.1.2\lvgl\src\lv_objx/lv_ddlist.h ****  * @param ddlist pointer to a drop down list
 219:..\..\..\lvgl\version_6.1.2\lvgl\src\lv_objx/lv_ddlist.h ****  * @return open/close animation time [ms]
 220:..\..\..\lvgl\version_6.1.2\lvgl\src\lv_objx/lv_ddlist.h ****  */
 221:..\..\..\lvgl\version_6.1.2\lvgl\src\lv_objx/lv_ddlist.h **** static inline uint16_t lv_ddlist_get_anim_time(const lv_obj_t * ddlist)
 222:..\..\..\lvgl\version_6.1.2\lvgl\src\lv_objx/lv_ddlist.h **** {
 360              		.loc 5 222 0
 361              		.cfi_startproc
 362              		@ args = 0, pretend = 0, frame = 8
 363              		@ frame_needed = 1, uses_anonymous_args = 0
ARM GAS  C:\Users\tmj32\AppData\Local\Temp\ccT5YJ50.s 			page 23


 364 0000 80B5     		push	{r7, lr}
 365              		.cfi_def_cfa_offset 8
 366              		.cfi_offset 7, -8
 367              		.cfi_offset 14, -4
 368 0002 82B0     		sub	sp, sp, #8
 369              		.cfi_def_cfa_offset 16
 370 0004 00AF     		add	r7, sp, #0
 371              		.cfi_def_cfa_register 7
 372 0006 7860     		str	r0, [r7, #4]
 223:..\..\..\lvgl\version_6.1.2\lvgl\src\lv_objx/lv_ddlist.h ****     return lv_page_get_anim_time(ddlist);
 373              		.loc 5 223 0
 374 0008 7868     		ldr	r0, [r7, #4]
 375 000a FFF7FEFF 		bl	lv_page_get_anim_time
 376 000e 0346     		mov	r3, r0
 224:..\..\..\lvgl\version_6.1.2\lvgl\src\lv_objx/lv_ddlist.h **** }
 377              		.loc 5 224 0
 378 0010 1846     		mov	r0, r3
 379 0012 0837     		adds	r7, r7, #8
 380              		.cfi_def_cfa_offset 8
 381 0014 BD46     		mov	sp, r7
 382              		.cfi_def_cfa_register 13
 383              		@ sp needed
 384 0016 80BD     		pop	{r7, pc}
 385              		.cfi_endproc
 386              	.LFE53:
 387              		.size	lv_ddlist_get_anim_time, .-lv_ddlist_get_anim_time
 388              		.section	.text.lv_roller_get_anim_time,"ax",%progbits
 389              		.align	2
 390              		.thumb
 391              		.thumb_func
 392              		.type	lv_roller_get_anim_time, %function
 393              	lv_roller_get_anim_time:
 394              	.LFB58:
 395              		.file 6 "..\\..\\..\\lvgl\\version_6.1.2\\lvgl\\src\\lv_objx\\lv_roller.h"
   1:..\..\..\lvgl\version_6.1.2\lvgl\src\lv_objx/lv_roller.h **** /**
   2:..\..\..\lvgl\version_6.1.2\lvgl\src\lv_objx/lv_roller.h ****  * @file lv_roller.h
   3:..\..\..\lvgl\version_6.1.2\lvgl\src\lv_objx/lv_roller.h ****  *
   4:..\..\..\lvgl\version_6.1.2\lvgl\src\lv_objx/lv_roller.h ****  */
   5:..\..\..\lvgl\version_6.1.2\lvgl\src\lv_objx/lv_roller.h **** 
   6:..\..\..\lvgl\version_6.1.2\lvgl\src\lv_objx/lv_roller.h **** #ifndef LV_ROLLER_H
   7:..\..\..\lvgl\version_6.1.2\lvgl\src\lv_objx/lv_roller.h **** #define LV_ROLLER_H
   8:..\..\..\lvgl\version_6.1.2\lvgl\src\lv_objx/lv_roller.h **** 
   9:..\..\..\lvgl\version_6.1.2\lvgl\src\lv_objx/lv_roller.h **** #ifdef __cplusplus
  10:..\..\..\lvgl\version_6.1.2\lvgl\src\lv_objx/lv_roller.h **** extern "C" {
  11:..\..\..\lvgl\version_6.1.2\lvgl\src\lv_objx/lv_roller.h **** #endif
  12:..\..\..\lvgl\version_6.1.2\lvgl\src\lv_objx/lv_roller.h **** 
  13:..\..\..\lvgl\version_6.1.2\lvgl\src\lv_objx/lv_roller.h **** /*********************
  14:..\..\..\lvgl\version_6.1.2\lvgl\src\lv_objx/lv_roller.h ****  *      INCLUDES
  15:..\..\..\lvgl\version_6.1.2\lvgl\src\lv_objx/lv_roller.h ****  *********************/
  16:..\..\..\lvgl\version_6.1.2\lvgl\src\lv_objx/lv_roller.h **** #ifdef LV_CONF_INCLUDE_SIMPLE
  17:..\..\..\lvgl\version_6.1.2\lvgl\src\lv_objx/lv_roller.h **** #include "lv_conf.h"
  18:..\..\..\lvgl\version_6.1.2\lvgl\src\lv_objx/lv_roller.h **** #else
  19:..\..\..\lvgl\version_6.1.2\lvgl\src\lv_objx/lv_roller.h **** #include "../../../lv_conf.h"
  20:..\..\..\lvgl\version_6.1.2\lvgl\src\lv_objx/lv_roller.h **** #endif
  21:..\..\..\lvgl\version_6.1.2\lvgl\src\lv_objx/lv_roller.h **** 
  22:..\..\..\lvgl\version_6.1.2\lvgl\src\lv_objx/lv_roller.h **** #if LV_USE_ROLLER != 0
  23:..\..\..\lvgl\version_6.1.2\lvgl\src\lv_objx/lv_roller.h **** 
ARM GAS  C:\Users\tmj32\AppData\Local\Temp\ccT5YJ50.s 			page 24


  24:..\..\..\lvgl\version_6.1.2\lvgl\src\lv_objx/lv_roller.h **** /*Testing of dependencies*/
  25:..\..\..\lvgl\version_6.1.2\lvgl\src\lv_objx/lv_roller.h **** #if LV_USE_DDLIST == 0
  26:..\..\..\lvgl\version_6.1.2\lvgl\src\lv_objx/lv_roller.h **** #error "lv_roller: lv_ddlist is required. Enable it in lv_conf.h (LV_USE_DDLIST  1) "
  27:..\..\..\lvgl\version_6.1.2\lvgl\src\lv_objx/lv_roller.h **** #endif
  28:..\..\..\lvgl\version_6.1.2\lvgl\src\lv_objx/lv_roller.h **** 
  29:..\..\..\lvgl\version_6.1.2\lvgl\src\lv_objx/lv_roller.h **** #include "../lv_core/lv_obj.h"
  30:..\..\..\lvgl\version_6.1.2\lvgl\src\lv_objx/lv_roller.h **** #include "lv_ddlist.h"
  31:..\..\..\lvgl\version_6.1.2\lvgl\src\lv_objx/lv_roller.h **** #include "lv_label.h"
  32:..\..\..\lvgl\version_6.1.2\lvgl\src\lv_objx/lv_roller.h **** 
  33:..\..\..\lvgl\version_6.1.2\lvgl\src\lv_objx/lv_roller.h **** /*********************
  34:..\..\..\lvgl\version_6.1.2\lvgl\src\lv_objx/lv_roller.h ****  *      DEFINES
  35:..\..\..\lvgl\version_6.1.2\lvgl\src\lv_objx/lv_roller.h ****  *********************/
  36:..\..\..\lvgl\version_6.1.2\lvgl\src\lv_objx/lv_roller.h **** 
  37:..\..\..\lvgl\version_6.1.2\lvgl\src\lv_objx/lv_roller.h **** /**********************
  38:..\..\..\lvgl\version_6.1.2\lvgl\src\lv_objx/lv_roller.h ****  *      TYPEDEFS
  39:..\..\..\lvgl\version_6.1.2\lvgl\src\lv_objx/lv_roller.h ****  **********************/
  40:..\..\..\lvgl\version_6.1.2\lvgl\src\lv_objx/lv_roller.h **** 
  41:..\..\..\lvgl\version_6.1.2\lvgl\src\lv_objx/lv_roller.h **** /** Roller mode. */
  42:..\..\..\lvgl\version_6.1.2\lvgl\src\lv_objx/lv_roller.h **** enum {
  43:..\..\..\lvgl\version_6.1.2\lvgl\src\lv_objx/lv_roller.h ****     LV_ROLLER_MODE_NORMAL, /**< Normal mode (roller ends at the end of the options). */
  44:..\..\..\lvgl\version_6.1.2\lvgl\src\lv_objx/lv_roller.h ****     LV_ROLLER_MODE_INIFINITE, /**< Infinite mode (roller can be scrolled forever). */
  45:..\..\..\lvgl\version_6.1.2\lvgl\src\lv_objx/lv_roller.h **** };
  46:..\..\..\lvgl\version_6.1.2\lvgl\src\lv_objx/lv_roller.h **** 
  47:..\..\..\lvgl\version_6.1.2\lvgl\src\lv_objx/lv_roller.h **** typedef uint8_t lv_roller_mode_t;
  48:..\..\..\lvgl\version_6.1.2\lvgl\src\lv_objx/lv_roller.h **** 
  49:..\..\..\lvgl\version_6.1.2\lvgl\src\lv_objx/lv_roller.h **** 
  50:..\..\..\lvgl\version_6.1.2\lvgl\src\lv_objx/lv_roller.h **** 
  51:..\..\..\lvgl\version_6.1.2\lvgl\src\lv_objx/lv_roller.h **** /*Data of roller*/
  52:..\..\..\lvgl\version_6.1.2\lvgl\src\lv_objx/lv_roller.h **** typedef struct
  53:..\..\..\lvgl\version_6.1.2\lvgl\src\lv_objx/lv_roller.h **** {
  54:..\..\..\lvgl\version_6.1.2\lvgl\src\lv_objx/lv_roller.h ****     lv_ddlist_ext_t ddlist; /*Ext. of ancestor*/
  55:..\..\..\lvgl\version_6.1.2\lvgl\src\lv_objx/lv_roller.h ****     /*New data for this type */
  56:..\..\..\lvgl\version_6.1.2\lvgl\src\lv_objx/lv_roller.h ****     lv_roller_mode_t mode : 1;
  57:..\..\..\lvgl\version_6.1.2\lvgl\src\lv_objx/lv_roller.h **** } lv_roller_ext_t;
  58:..\..\..\lvgl\version_6.1.2\lvgl\src\lv_objx/lv_roller.h **** 
  59:..\..\..\lvgl\version_6.1.2\lvgl\src\lv_objx/lv_roller.h **** enum {
  60:..\..\..\lvgl\version_6.1.2\lvgl\src\lv_objx/lv_roller.h ****     LV_ROLLER_STYLE_BG,
  61:..\..\..\lvgl\version_6.1.2\lvgl\src\lv_objx/lv_roller.h ****     LV_ROLLER_STYLE_SEL,
  62:..\..\..\lvgl\version_6.1.2\lvgl\src\lv_objx/lv_roller.h **** };
  63:..\..\..\lvgl\version_6.1.2\lvgl\src\lv_objx/lv_roller.h **** typedef uint8_t lv_roller_style_t;
  64:..\..\..\lvgl\version_6.1.2\lvgl\src\lv_objx/lv_roller.h **** 
  65:..\..\..\lvgl\version_6.1.2\lvgl\src\lv_objx/lv_roller.h **** /**********************
  66:..\..\..\lvgl\version_6.1.2\lvgl\src\lv_objx/lv_roller.h ****  * GLOBAL PROTOTYPES
  67:..\..\..\lvgl\version_6.1.2\lvgl\src\lv_objx/lv_roller.h ****  **********************/
  68:..\..\..\lvgl\version_6.1.2\lvgl\src\lv_objx/lv_roller.h **** 
  69:..\..\..\lvgl\version_6.1.2\lvgl\src\lv_objx/lv_roller.h **** /**
  70:..\..\..\lvgl\version_6.1.2\lvgl\src\lv_objx/lv_roller.h ****  * Create a roller object
  71:..\..\..\lvgl\version_6.1.2\lvgl\src\lv_objx/lv_roller.h ****  * @param par pointer to an object, it will be the parent of the new roller
  72:..\..\..\lvgl\version_6.1.2\lvgl\src\lv_objx/lv_roller.h ****  * @param copy pointer to a roller object, if not NULL then the new object will be copied from it
  73:..\..\..\lvgl\version_6.1.2\lvgl\src\lv_objx/lv_roller.h ****  * @return pointer to the created roller
  74:..\..\..\lvgl\version_6.1.2\lvgl\src\lv_objx/lv_roller.h ****  */
  75:..\..\..\lvgl\version_6.1.2\lvgl\src\lv_objx/lv_roller.h **** lv_obj_t * lv_roller_create(lv_obj_t * par, const lv_obj_t * copy);
  76:..\..\..\lvgl\version_6.1.2\lvgl\src\lv_objx/lv_roller.h **** 
  77:..\..\..\lvgl\version_6.1.2\lvgl\src\lv_objx/lv_roller.h **** /*=====================
  78:..\..\..\lvgl\version_6.1.2\lvgl\src\lv_objx/lv_roller.h ****  * Setter functions
  79:..\..\..\lvgl\version_6.1.2\lvgl\src\lv_objx/lv_roller.h ****  *====================*/
  80:..\..\..\lvgl\version_6.1.2\lvgl\src\lv_objx/lv_roller.h **** 
ARM GAS  C:\Users\tmj32\AppData\Local\Temp\ccT5YJ50.s 			page 25


  81:..\..\..\lvgl\version_6.1.2\lvgl\src\lv_objx/lv_roller.h **** /**
  82:..\..\..\lvgl\version_6.1.2\lvgl\src\lv_objx/lv_roller.h ****  * Set the options on a roller
  83:..\..\..\lvgl\version_6.1.2\lvgl\src\lv_objx/lv_roller.h ****  * @param roller pointer to roller object
  84:..\..\..\lvgl\version_6.1.2\lvgl\src\lv_objx/lv_roller.h ****  * @param options a string with '\n' separated options. E.g. "One\nTwo\nThree"
  85:..\..\..\lvgl\version_6.1.2\lvgl\src\lv_objx/lv_roller.h ****  * @param mode `LV_ROLLER_MODE_NORMAL` or `LV_ROLLER_MODE_INFINITE`
  86:..\..\..\lvgl\version_6.1.2\lvgl\src\lv_objx/lv_roller.h ****  */
  87:..\..\..\lvgl\version_6.1.2\lvgl\src\lv_objx/lv_roller.h **** void lv_roller_set_options(lv_obj_t * roller, const char * options, lv_roller_mode_t mode);
  88:..\..\..\lvgl\version_6.1.2\lvgl\src\lv_objx/lv_roller.h **** 
  89:..\..\..\lvgl\version_6.1.2\lvgl\src\lv_objx/lv_roller.h **** /**
  90:..\..\..\lvgl\version_6.1.2\lvgl\src\lv_objx/lv_roller.h ****  * Set the align of the roller's options (left, right or center[default])
  91:..\..\..\lvgl\version_6.1.2\lvgl\src\lv_objx/lv_roller.h ****  * @param roller - pointer to a roller object
  92:..\..\..\lvgl\version_6.1.2\lvgl\src\lv_objx/lv_roller.h ****  * @param align - one of lv_label_align_t values (left, right, center)
  93:..\..\..\lvgl\version_6.1.2\lvgl\src\lv_objx/lv_roller.h ****  */
  94:..\..\..\lvgl\version_6.1.2\lvgl\src\lv_objx/lv_roller.h **** void lv_roller_set_align(lv_obj_t * roller, lv_label_align_t align);
  95:..\..\..\lvgl\version_6.1.2\lvgl\src\lv_objx/lv_roller.h **** 
  96:..\..\..\lvgl\version_6.1.2\lvgl\src\lv_objx/lv_roller.h **** /**
  97:..\..\..\lvgl\version_6.1.2\lvgl\src\lv_objx/lv_roller.h ****  * Set the selected option
  98:..\..\..\lvgl\version_6.1.2\lvgl\src\lv_objx/lv_roller.h ****  * @param roller pointer to a roller object
  99:..\..\..\lvgl\version_6.1.2\lvgl\src\lv_objx/lv_roller.h ****  * @param sel_opt id of the selected option (0 ... number of option - 1);
 100:..\..\..\lvgl\version_6.1.2\lvgl\src\lv_objx/lv_roller.h ****  * @param anim LV_ANOM_ON: set with animation; LV_ANIM_OFF set immediately
 101:..\..\..\lvgl\version_6.1.2\lvgl\src\lv_objx/lv_roller.h ****  */
 102:..\..\..\lvgl\version_6.1.2\lvgl\src\lv_objx/lv_roller.h **** void lv_roller_set_selected(lv_obj_t * roller, uint16_t sel_opt, lv_anim_enable_t anim);
 103:..\..\..\lvgl\version_6.1.2\lvgl\src\lv_objx/lv_roller.h **** 
 104:..\..\..\lvgl\version_6.1.2\lvgl\src\lv_objx/lv_roller.h **** /**
 105:..\..\..\lvgl\version_6.1.2\lvgl\src\lv_objx/lv_roller.h ****  * Set the height to show the given number of rows (options)
 106:..\..\..\lvgl\version_6.1.2\lvgl\src\lv_objx/lv_roller.h ****  * @param roller pointer to a roller object
 107:..\..\..\lvgl\version_6.1.2\lvgl\src\lv_objx/lv_roller.h ****  * @param row_cnt number of desired visible rows
 108:..\..\..\lvgl\version_6.1.2\lvgl\src\lv_objx/lv_roller.h ****  */
 109:..\..\..\lvgl\version_6.1.2\lvgl\src\lv_objx/lv_roller.h **** void lv_roller_set_visible_row_count(lv_obj_t * roller, uint8_t row_cnt);
 110:..\..\..\lvgl\version_6.1.2\lvgl\src\lv_objx/lv_roller.h **** 
 111:..\..\..\lvgl\version_6.1.2\lvgl\src\lv_objx/lv_roller.h **** /**
 112:..\..\..\lvgl\version_6.1.2\lvgl\src\lv_objx/lv_roller.h ****  * Set a fix width for the drop down list
 113:..\..\..\lvgl\version_6.1.2\lvgl\src\lv_objx/lv_roller.h ****  * @param roller pointer to a roller obejct
 114:..\..\..\lvgl\version_6.1.2\lvgl\src\lv_objx/lv_roller.h ****  * @param w the width when the list is opened (0: auto size)
 115:..\..\..\lvgl\version_6.1.2\lvgl\src\lv_objx/lv_roller.h ****  */
 116:..\..\..\lvgl\version_6.1.2\lvgl\src\lv_objx/lv_roller.h **** static inline void lv_roller_set_fix_width(lv_obj_t * roller, lv_coord_t w)
 117:..\..\..\lvgl\version_6.1.2\lvgl\src\lv_objx/lv_roller.h **** {
 118:..\..\..\lvgl\version_6.1.2\lvgl\src\lv_objx/lv_roller.h ****     lv_ddlist_set_fix_width(roller, w);
 119:..\..\..\lvgl\version_6.1.2\lvgl\src\lv_objx/lv_roller.h **** }
 120:..\..\..\lvgl\version_6.1.2\lvgl\src\lv_objx/lv_roller.h **** 
 121:..\..\..\lvgl\version_6.1.2\lvgl\src\lv_objx/lv_roller.h **** /**
 122:..\..\..\lvgl\version_6.1.2\lvgl\src\lv_objx/lv_roller.h ****  * Set the open/close animation time.
 123:..\..\..\lvgl\version_6.1.2\lvgl\src\lv_objx/lv_roller.h ****  * @param roller pointer to a roller object
 124:..\..\..\lvgl\version_6.1.2\lvgl\src\lv_objx/lv_roller.h ****  * @param anim_time: open/close animation time [ms]
 125:..\..\..\lvgl\version_6.1.2\lvgl\src\lv_objx/lv_roller.h ****  */
 126:..\..\..\lvgl\version_6.1.2\lvgl\src\lv_objx/lv_roller.h **** static inline void lv_roller_set_anim_time(lv_obj_t * roller, uint16_t anim_time)
 127:..\..\..\lvgl\version_6.1.2\lvgl\src\lv_objx/lv_roller.h **** {
 128:..\..\..\lvgl\version_6.1.2\lvgl\src\lv_objx/lv_roller.h ****     lv_ddlist_set_anim_time(roller, anim_time);
 129:..\..\..\lvgl\version_6.1.2\lvgl\src\lv_objx/lv_roller.h **** }
 130:..\..\..\lvgl\version_6.1.2\lvgl\src\lv_objx/lv_roller.h **** 
 131:..\..\..\lvgl\version_6.1.2\lvgl\src\lv_objx/lv_roller.h **** /**
 132:..\..\..\lvgl\version_6.1.2\lvgl\src\lv_objx/lv_roller.h ****  * Set a style of a roller
 133:..\..\..\lvgl\version_6.1.2\lvgl\src\lv_objx/lv_roller.h ****  * @param roller pointer to a roller object
 134:..\..\..\lvgl\version_6.1.2\lvgl\src\lv_objx/lv_roller.h ****  * @param type which style should be set
 135:..\..\..\lvgl\version_6.1.2\lvgl\src\lv_objx/lv_roller.h ****  * @param style pointer to a style
 136:..\..\..\lvgl\version_6.1.2\lvgl\src\lv_objx/lv_roller.h ****  */
 137:..\..\..\lvgl\version_6.1.2\lvgl\src\lv_objx/lv_roller.h **** void lv_roller_set_style(lv_obj_t * roller, lv_roller_style_t type, const lv_style_t * style);
ARM GAS  C:\Users\tmj32\AppData\Local\Temp\ccT5YJ50.s 			page 26


 138:..\..\..\lvgl\version_6.1.2\lvgl\src\lv_objx/lv_roller.h **** 
 139:..\..\..\lvgl\version_6.1.2\lvgl\src\lv_objx/lv_roller.h **** /*=====================
 140:..\..\..\lvgl\version_6.1.2\lvgl\src\lv_objx/lv_roller.h ****  * Getter functions
 141:..\..\..\lvgl\version_6.1.2\lvgl\src\lv_objx/lv_roller.h ****  *====================*/
 142:..\..\..\lvgl\version_6.1.2\lvgl\src\lv_objx/lv_roller.h **** /**
 143:..\..\..\lvgl\version_6.1.2\lvgl\src\lv_objx/lv_roller.h ****  * Get the id of the selected option
 144:..\..\..\lvgl\version_6.1.2\lvgl\src\lv_objx/lv_roller.h ****  * @param roller pointer to a roller object
 145:..\..\..\lvgl\version_6.1.2\lvgl\src\lv_objx/lv_roller.h ****  * @return id of the selected option (0 ... number of option - 1);
 146:..\..\..\lvgl\version_6.1.2\lvgl\src\lv_objx/lv_roller.h ****  */
 147:..\..\..\lvgl\version_6.1.2\lvgl\src\lv_objx/lv_roller.h **** uint16_t lv_roller_get_selected(const lv_obj_t * roller);
 148:..\..\..\lvgl\version_6.1.2\lvgl\src\lv_objx/lv_roller.h **** 
 149:..\..\..\lvgl\version_6.1.2\lvgl\src\lv_objx/lv_roller.h **** /**
 150:..\..\..\lvgl\version_6.1.2\lvgl\src\lv_objx/lv_roller.h ****  * Get the current selected option as a string
 151:..\..\..\lvgl\version_6.1.2\lvgl\src\lv_objx/lv_roller.h ****  * @param roller pointer to roller object
 152:..\..\..\lvgl\version_6.1.2\lvgl\src\lv_objx/lv_roller.h ****  * @param buf pointer to an array to store the string
 153:..\..\..\lvgl\version_6.1.2\lvgl\src\lv_objx/lv_roller.h ****  * @param buf_size size of `buf` in bytes. 0: to ignore it.
 154:..\..\..\lvgl\version_6.1.2\lvgl\src\lv_objx/lv_roller.h ****  */
 155:..\..\..\lvgl\version_6.1.2\lvgl\src\lv_objx/lv_roller.h **** static inline void lv_roller_get_selected_str(const lv_obj_t * roller, char * buf, uint16_t buf_siz
 156:..\..\..\lvgl\version_6.1.2\lvgl\src\lv_objx/lv_roller.h **** {
 157:..\..\..\lvgl\version_6.1.2\lvgl\src\lv_objx/lv_roller.h ****     lv_ddlist_get_selected_str(roller, buf, buf_size);
 158:..\..\..\lvgl\version_6.1.2\lvgl\src\lv_objx/lv_roller.h **** }
 159:..\..\..\lvgl\version_6.1.2\lvgl\src\lv_objx/lv_roller.h **** 
 160:..\..\..\lvgl\version_6.1.2\lvgl\src\lv_objx/lv_roller.h **** /**
 161:..\..\..\lvgl\version_6.1.2\lvgl\src\lv_objx/lv_roller.h ****  * Get the align attribute. Default alignment after _create is LV_LABEL_ALIGN_CENTER
 162:..\..\..\lvgl\version_6.1.2\lvgl\src\lv_objx/lv_roller.h ****  * @param roller pointer to a roller object
 163:..\..\..\lvgl\version_6.1.2\lvgl\src\lv_objx/lv_roller.h ****  * @return LV_LABEL_ALIGN_LEFT, LV_LABEL_ALIGN_RIGHT or LV_LABEL_ALIGN_CENTER
 164:..\..\..\lvgl\version_6.1.2\lvgl\src\lv_objx/lv_roller.h ****  */
 165:..\..\..\lvgl\version_6.1.2\lvgl\src\lv_objx/lv_roller.h **** lv_label_align_t lv_roller_get_align(const lv_obj_t * roller);
 166:..\..\..\lvgl\version_6.1.2\lvgl\src\lv_objx/lv_roller.h **** 
 167:..\..\..\lvgl\version_6.1.2\lvgl\src\lv_objx/lv_roller.h **** /**
 168:..\..\..\lvgl\version_6.1.2\lvgl\src\lv_objx/lv_roller.h ****  * Get the options of a roller
 169:..\..\..\lvgl\version_6.1.2\lvgl\src\lv_objx/lv_roller.h ****  * @param roller pointer to roller object
 170:..\..\..\lvgl\version_6.1.2\lvgl\src\lv_objx/lv_roller.h ****  * @return the options separated by '\n'-s (E.g. "Option1\nOption2\nOption3")
 171:..\..\..\lvgl\version_6.1.2\lvgl\src\lv_objx/lv_roller.h ****  */
 172:..\..\..\lvgl\version_6.1.2\lvgl\src\lv_objx/lv_roller.h **** static inline const char * lv_roller_get_options(const lv_obj_t * roller)
 173:..\..\..\lvgl\version_6.1.2\lvgl\src\lv_objx/lv_roller.h **** {
 174:..\..\..\lvgl\version_6.1.2\lvgl\src\lv_objx/lv_roller.h ****     return lv_ddlist_get_options(roller);
 175:..\..\..\lvgl\version_6.1.2\lvgl\src\lv_objx/lv_roller.h **** }
 176:..\..\..\lvgl\version_6.1.2\lvgl\src\lv_objx/lv_roller.h **** 
 177:..\..\..\lvgl\version_6.1.2\lvgl\src\lv_objx/lv_roller.h **** /**
 178:..\..\..\lvgl\version_6.1.2\lvgl\src\lv_objx/lv_roller.h ****  * Get the open/close animation time.
 179:..\..\..\lvgl\version_6.1.2\lvgl\src\lv_objx/lv_roller.h ****  * @param roller pointer to a roller
 180:..\..\..\lvgl\version_6.1.2\lvgl\src\lv_objx/lv_roller.h ****  * @return open/close animation time [ms]
 181:..\..\..\lvgl\version_6.1.2\lvgl\src\lv_objx/lv_roller.h ****  */
 182:..\..\..\lvgl\version_6.1.2\lvgl\src\lv_objx/lv_roller.h **** static inline uint16_t lv_roller_get_anim_time(const lv_obj_t * roller)
 183:..\..\..\lvgl\version_6.1.2\lvgl\src\lv_objx/lv_roller.h **** {
 396              		.loc 6 183 0
 397              		.cfi_startproc
 398              		@ args = 0, pretend = 0, frame = 8
 399              		@ frame_needed = 1, uses_anonymous_args = 0
 400 0000 80B5     		push	{r7, lr}
 401              		.cfi_def_cfa_offset 8
 402              		.cfi_offset 7, -8
 403              		.cfi_offset 14, -4
 404 0002 82B0     		sub	sp, sp, #8
 405              		.cfi_def_cfa_offset 16
 406 0004 00AF     		add	r7, sp, #0
ARM GAS  C:\Users\tmj32\AppData\Local\Temp\ccT5YJ50.s 			page 27


 407              		.cfi_def_cfa_register 7
 408 0006 7860     		str	r0, [r7, #4]
 184:..\..\..\lvgl\version_6.1.2\lvgl\src\lv_objx/lv_roller.h ****     return lv_ddlist_get_anim_time(roller);
 409              		.loc 6 184 0
 410 0008 7868     		ldr	r0, [r7, #4]
 411 000a FFF7FEFF 		bl	lv_ddlist_get_anim_time
 412 000e 0346     		mov	r3, r0
 185:..\..\..\lvgl\version_6.1.2\lvgl\src\lv_objx/lv_roller.h **** }
 413              		.loc 6 185 0
 414 0010 1846     		mov	r0, r3
 415 0012 0837     		adds	r7, r7, #8
 416              		.cfi_def_cfa_offset 8
 417 0014 BD46     		mov	sp, r7
 418              		.cfi_def_cfa_register 13
 419              		@ sp needed
 420 0016 80BD     		pop	{r7, pc}
 421              		.cfi_endproc
 422              	.LFE58:
 423              		.size	lv_roller_get_anim_time, .-lv_roller_get_anim_time
 424              		.bss
 425              		.align	2
 426              	ancestor_signal:
 427 0000 00000000 		.space	4
 428              		.align	2
 429              	ancestor_scrl_signal:
 430 0004 00000000 		.space	4
 431              		.section	.text.lv_roller_create,"ax",%progbits
 432              		.align	2
 433              		.global	lv_roller_create
 434              		.thumb
 435              		.thumb_func
 436              		.type	lv_roller_create, %function
 437              	lv_roller_create:
 438              	.LFB59:
 439              		.file 7 "..\\..\\..\\lvgl\\version_6.1.2\\lvgl\\src\\lv_objx\\lv_roller.c"
   1:..\..\..\lvgl\version_6.1.2\lvgl\src\lv_objx/lv_roller.c **** /**
   2:..\..\..\lvgl\version_6.1.2\lvgl\src\lv_objx/lv_roller.c ****  * @file lv_roller.c
   3:..\..\..\lvgl\version_6.1.2\lvgl\src\lv_objx/lv_roller.c ****  *
   4:..\..\..\lvgl\version_6.1.2\lvgl\src\lv_objx/lv_roller.c ****  */
   5:..\..\..\lvgl\version_6.1.2\lvgl\src\lv_objx/lv_roller.c **** 
   6:..\..\..\lvgl\version_6.1.2\lvgl\src\lv_objx/lv_roller.c **** /*********************
   7:..\..\..\lvgl\version_6.1.2\lvgl\src\lv_objx/lv_roller.c ****  *      INCLUDES
   8:..\..\..\lvgl\version_6.1.2\lvgl\src\lv_objx/lv_roller.c ****  *********************/
   9:..\..\..\lvgl\version_6.1.2\lvgl\src\lv_objx/lv_roller.c **** #include "lv_roller.h"
  10:..\..\..\lvgl\version_6.1.2\lvgl\src\lv_objx/lv_roller.c **** #if LV_USE_ROLLER != 0
  11:..\..\..\lvgl\version_6.1.2\lvgl\src\lv_objx/lv_roller.c **** 
  12:..\..\..\lvgl\version_6.1.2\lvgl\src\lv_objx/lv_roller.c **** #include "../lv_core/lv_debug.h"
  13:..\..\..\lvgl\version_6.1.2\lvgl\src\lv_objx/lv_roller.c **** #include "../lv_draw/lv_draw.h"
  14:..\..\..\lvgl\version_6.1.2\lvgl\src\lv_objx/lv_roller.c **** #include "../lv_core/lv_group.h"
  15:..\..\..\lvgl\version_6.1.2\lvgl\src\lv_objx/lv_roller.c **** #include "../lv_themes/lv_theme.h"
  16:..\..\..\lvgl\version_6.1.2\lvgl\src\lv_objx/lv_roller.c **** 
  17:..\..\..\lvgl\version_6.1.2\lvgl\src\lv_objx/lv_roller.c **** /*********************
  18:..\..\..\lvgl\version_6.1.2\lvgl\src\lv_objx/lv_roller.c ****  *      DEFINES
  19:..\..\..\lvgl\version_6.1.2\lvgl\src\lv_objx/lv_roller.c ****  *********************/
  20:..\..\..\lvgl\version_6.1.2\lvgl\src\lv_objx/lv_roller.c **** #define LV_OBJX_NAME "lv_roller"
  21:..\..\..\lvgl\version_6.1.2\lvgl\src\lv_objx/lv_roller.c **** 
  22:..\..\..\lvgl\version_6.1.2\lvgl\src\lv_objx/lv_roller.c **** #if LV_USE_ANIMATION == 0
ARM GAS  C:\Users\tmj32\AppData\Local\Temp\ccT5YJ50.s 			page 28


  23:..\..\..\lvgl\version_6.1.2\lvgl\src\lv_objx/lv_roller.c **** #undef LV_ROLLER_DEF_ANIM_TIME
  24:..\..\..\lvgl\version_6.1.2\lvgl\src\lv_objx/lv_roller.c **** #define LV_ROLLER_DEF_ANIM_TIME 0 /*No animation*/
  25:..\..\..\lvgl\version_6.1.2\lvgl\src\lv_objx/lv_roller.c **** #endif
  26:..\..\..\lvgl\version_6.1.2\lvgl\src\lv_objx/lv_roller.c **** 
  27:..\..\..\lvgl\version_6.1.2\lvgl\src\lv_objx/lv_roller.c **** /**********************
  28:..\..\..\lvgl\version_6.1.2\lvgl\src\lv_objx/lv_roller.c ****  *      TYPEDEFS
  29:..\..\..\lvgl\version_6.1.2\lvgl\src\lv_objx/lv_roller.c ****  **********************/
  30:..\..\..\lvgl\version_6.1.2\lvgl\src\lv_objx/lv_roller.c **** 
  31:..\..\..\lvgl\version_6.1.2\lvgl\src\lv_objx/lv_roller.c **** /**********************
  32:..\..\..\lvgl\version_6.1.2\lvgl\src\lv_objx/lv_roller.c ****  *  STATIC PROTOTYPES
  33:..\..\..\lvgl\version_6.1.2\lvgl\src\lv_objx/lv_roller.c ****  **********************/
  34:..\..\..\lvgl\version_6.1.2\lvgl\src\lv_objx/lv_roller.c **** static bool lv_roller_design(lv_obj_t * roller, const lv_area_t * mask, lv_design_mode_t mode);
  35:..\..\..\lvgl\version_6.1.2\lvgl\src\lv_objx/lv_roller.c **** static lv_res_t lv_roller_scrl_signal(lv_obj_t * roller_scrl, lv_signal_t sign, void * param);
  36:..\..\..\lvgl\version_6.1.2\lvgl\src\lv_objx/lv_roller.c **** static lv_res_t lv_roller_signal(lv_obj_t * roller, lv_signal_t sign, void * param);
  37:..\..\..\lvgl\version_6.1.2\lvgl\src\lv_objx/lv_roller.c **** static void refr_position(lv_obj_t * roller, lv_anim_enable_t animen);
  38:..\..\..\lvgl\version_6.1.2\lvgl\src\lv_objx/lv_roller.c **** static void refr_height(lv_obj_t * roller);
  39:..\..\..\lvgl\version_6.1.2\lvgl\src\lv_objx/lv_roller.c **** static void inf_normalize(void * roller_scrl);
  40:..\..\..\lvgl\version_6.1.2\lvgl\src\lv_objx/lv_roller.c **** #if LV_USE_ANIMATION
  41:..\..\..\lvgl\version_6.1.2\lvgl\src\lv_objx/lv_roller.c **** static void scroll_anim_ready_cb(lv_anim_t * a);
  42:..\..\..\lvgl\version_6.1.2\lvgl\src\lv_objx/lv_roller.c **** #endif
  43:..\..\..\lvgl\version_6.1.2\lvgl\src\lv_objx/lv_roller.c **** static void draw_bg(lv_obj_t * roller, const lv_area_t * mask);
  44:..\..\..\lvgl\version_6.1.2\lvgl\src\lv_objx/lv_roller.c **** 
  45:..\..\..\lvgl\version_6.1.2\lvgl\src\lv_objx/lv_roller.c **** /**********************
  46:..\..\..\lvgl\version_6.1.2\lvgl\src\lv_objx/lv_roller.c ****  *  STATIC VARIABLES
  47:..\..\..\lvgl\version_6.1.2\lvgl\src\lv_objx/lv_roller.c ****  **********************/
  48:..\..\..\lvgl\version_6.1.2\lvgl\src\lv_objx/lv_roller.c **** static lv_signal_cb_t ancestor_signal;
  49:..\..\..\lvgl\version_6.1.2\lvgl\src\lv_objx/lv_roller.c **** static lv_signal_cb_t ancestor_scrl_signal;
  50:..\..\..\lvgl\version_6.1.2\lvgl\src\lv_objx/lv_roller.c **** 
  51:..\..\..\lvgl\version_6.1.2\lvgl\src\lv_objx/lv_roller.c **** /**********************
  52:..\..\..\lvgl\version_6.1.2\lvgl\src\lv_objx/lv_roller.c ****  *      MACROS
  53:..\..\..\lvgl\version_6.1.2\lvgl\src\lv_objx/lv_roller.c ****  **********************/
  54:..\..\..\lvgl\version_6.1.2\lvgl\src\lv_objx/lv_roller.c **** 
  55:..\..\..\lvgl\version_6.1.2\lvgl\src\lv_objx/lv_roller.c **** /**********************
  56:..\..\..\lvgl\version_6.1.2\lvgl\src\lv_objx/lv_roller.c ****  *   GLOBAL FUNCTIONS
  57:..\..\..\lvgl\version_6.1.2\lvgl\src\lv_objx/lv_roller.c ****  **********************/
  58:..\..\..\lvgl\version_6.1.2\lvgl\src\lv_objx/lv_roller.c **** 
  59:..\..\..\lvgl\version_6.1.2\lvgl\src\lv_objx/lv_roller.c **** /**
  60:..\..\..\lvgl\version_6.1.2\lvgl\src\lv_objx/lv_roller.c ****  * Create a roller object
  61:..\..\..\lvgl\version_6.1.2\lvgl\src\lv_objx/lv_roller.c ****  * @param par pointer to an object, it will be the parent of the new roller
  62:..\..\..\lvgl\version_6.1.2\lvgl\src\lv_objx/lv_roller.c ****  * @param copy pointer to a roller object, if not NULL then the new object will be copied from it
  63:..\..\..\lvgl\version_6.1.2\lvgl\src\lv_objx/lv_roller.c ****  * @return pointer to the created roller
  64:..\..\..\lvgl\version_6.1.2\lvgl\src\lv_objx/lv_roller.c ****  */
  65:..\..\..\lvgl\version_6.1.2\lvgl\src\lv_objx/lv_roller.c **** lv_obj_t * lv_roller_create(lv_obj_t * par, const lv_obj_t * copy)
  66:..\..\..\lvgl\version_6.1.2\lvgl\src\lv_objx/lv_roller.c **** {
 440              		.loc 7 66 0
 441              		.cfi_startproc
 442              		@ args = 0, pretend = 0, frame = 32
 443              		@ frame_needed = 1, uses_anonymous_args = 0
 444 0000 80B5     		push	{r7, lr}
 445              		.cfi_def_cfa_offset 8
 446              		.cfi_offset 7, -8
 447              		.cfi_offset 14, -4
 448 0002 88B0     		sub	sp, sp, #32
 449              		.cfi_def_cfa_offset 40
 450 0004 00AF     		add	r7, sp, #0
 451              		.cfi_def_cfa_register 7
 452 0006 7860     		str	r0, [r7, #4]
ARM GAS  C:\Users\tmj32\AppData\Local\Temp\ccT5YJ50.s 			page 29


 453 0008 3960     		str	r1, [r7]
  67:..\..\..\lvgl\version_6.1.2\lvgl\src\lv_objx/lv_roller.c ****     LV_LOG_TRACE("roller create started");
  68:..\..\..\lvgl\version_6.1.2\lvgl\src\lv_objx/lv_roller.c **** 
  69:..\..\..\lvgl\version_6.1.2\lvgl\src\lv_objx/lv_roller.c ****     /*Create the ancestor of roller*/
  70:..\..\..\lvgl\version_6.1.2\lvgl\src\lv_objx/lv_roller.c ****     lv_obj_t * new_roller = lv_ddlist_create(par, copy);
 454              		.loc 7 70 0
 455 000a 3968     		ldr	r1, [r7]
 456 000c 7868     		ldr	r0, [r7, #4]
 457 000e FFF7FEFF 		bl	lv_ddlist_create
 458 0012 F861     		str	r0, [r7, #28]
  71:..\..\..\lvgl\version_6.1.2\lvgl\src\lv_objx/lv_roller.c ****     LV_ASSERT_MEM(new_roller);
  72:..\..\..\lvgl\version_6.1.2\lvgl\src\lv_objx/lv_roller.c ****     if(new_roller == NULL) return NULL;
 459              		.loc 7 72 0
 460 0014 FB69     		ldr	r3, [r7, #28]
 461 0016 002B     		cmp	r3, #0
 462 0018 01D1     		bne	.L18
 463              		.loc 7 72 0 is_stmt 0 discriminator 1
 464 001a 0023     		movs	r3, #0
 465 001c 9DE0     		b	.L19
 466              	.L18:
  73:..\..\..\lvgl\version_6.1.2\lvgl\src\lv_objx/lv_roller.c **** 
  74:..\..\..\lvgl\version_6.1.2\lvgl\src\lv_objx/lv_roller.c ****     if(ancestor_scrl_signal == NULL) ancestor_scrl_signal = lv_obj_get_signal_cb(lv_page_get_scrl(n
 467              		.loc 7 74 0 is_stmt 1
 468 001e 514B     		ldr	r3, .L27
 469 0020 1B68     		ldr	r3, [r3]
 470 0022 002B     		cmp	r3, #0
 471 0024 09D1     		bne	.L20
 472              		.loc 7 74 0 is_stmt 0 discriminator 1
 473 0026 F869     		ldr	r0, [r7, #28]
 474 0028 FFF7FEFF 		bl	lv_page_get_scrl
 475 002c 0346     		mov	r3, r0
 476 002e 1846     		mov	r0, r3
 477 0030 FFF7FEFF 		bl	lv_obj_get_signal_cb
 478 0034 0246     		mov	r2, r0
 479 0036 4B4B     		ldr	r3, .L27
 480 0038 1A60     		str	r2, [r3]
 481              	.L20:
  75:..\..\..\lvgl\version_6.1.2\lvgl\src\lv_objx/lv_roller.c ****     if(ancestor_signal == NULL) ancestor_signal = lv_obj_get_signal_cb(new_roller);
 482              		.loc 7 75 0 is_stmt 1
 483 003a 4B4B     		ldr	r3, .L27+4
 484 003c 1B68     		ldr	r3, [r3]
 485 003e 002B     		cmp	r3, #0
 486 0040 05D1     		bne	.L21
 487              		.loc 7 75 0 is_stmt 0 discriminator 1
 488 0042 F869     		ldr	r0, [r7, #28]
 489 0044 FFF7FEFF 		bl	lv_obj_get_signal_cb
 490 0048 0246     		mov	r2, r0
 491 004a 474B     		ldr	r3, .L27+4
 492 004c 1A60     		str	r2, [r3]
 493              	.L21:
  76:..\..\..\lvgl\version_6.1.2\lvgl\src\lv_objx/lv_roller.c **** 
  77:..\..\..\lvgl\version_6.1.2\lvgl\src\lv_objx/lv_roller.c ****     /*Allocate the roller type specific extended data*/
  78:..\..\..\lvgl\version_6.1.2\lvgl\src\lv_objx/lv_roller.c ****     lv_roller_ext_t * ext = lv_obj_allocate_ext_attr(new_roller, sizeof(lv_roller_ext_t));
 494              		.loc 7 78 0 is_stmt 1
 495 004e 4821     		movs	r1, #72
 496 0050 F869     		ldr	r0, [r7, #28]
 497 0052 FFF7FEFF 		bl	lv_obj_allocate_ext_attr
ARM GAS  C:\Users\tmj32\AppData\Local\Temp\ccT5YJ50.s 			page 30


 498 0056 B861     		str	r0, [r7, #24]
  79:..\..\..\lvgl\version_6.1.2\lvgl\src\lv_objx/lv_roller.c ****     LV_ASSERT_MEM(ext);
  80:..\..\..\lvgl\version_6.1.2\lvgl\src\lv_objx/lv_roller.c ****     if(ext == NULL) return NULL;
 499              		.loc 7 80 0
 500 0058 BB69     		ldr	r3, [r7, #24]
 501 005a 002B     		cmp	r3, #0
 502 005c 01D1     		bne	.L22
 503              		.loc 7 80 0 is_stmt 0 discriminator 1
 504 005e 0023     		movs	r3, #0
 505 0060 7BE0     		b	.L19
 506              	.L22:
  81:..\..\..\lvgl\version_6.1.2\lvgl\src\lv_objx/lv_roller.c ****     ext->ddlist.draw_arrow = 0; /*Do not draw arrow by default*/
 507              		.loc 7 81 0 is_stmt 1
 508 0062 BA69     		ldr	r2, [r7, #24]
 509 0064 92F83E30 		ldrb	r3, [r2, #62]
 510 0068 6FF38203 		bfc	r3, #2, #1
 511 006c 82F83E30 		strb	r3, [r2, #62]
  82:..\..\..\lvgl\version_6.1.2\lvgl\src\lv_objx/lv_roller.c ****     ext->mode = LV_ROLLER_MODE_NORMAL;
 512              		.loc 7 82 0
 513 0070 BA69     		ldr	r2, [r7, #24]
 514 0072 92F84430 		ldrb	r3, [r2, #68]
 515 0076 6FF30003 		bfc	r3, #0, #1
 516 007a 82F84430 		strb	r3, [r2, #68]
  83:..\..\..\lvgl\version_6.1.2\lvgl\src\lv_objx/lv_roller.c **** 
  84:..\..\..\lvgl\version_6.1.2\lvgl\src\lv_objx/lv_roller.c ****     /*The signal and design functions are not copied so set them here*/
  85:..\..\..\lvgl\version_6.1.2\lvgl\src\lv_objx/lv_roller.c ****     lv_obj_set_signal_cb(new_roller, lv_roller_signal);
 517              		.loc 7 85 0
 518 007e 3B49     		ldr	r1, .L27+8
 519 0080 F869     		ldr	r0, [r7, #28]
 520 0082 FFF7FEFF 		bl	lv_obj_set_signal_cb
  86:..\..\..\lvgl\version_6.1.2\lvgl\src\lv_objx/lv_roller.c ****     lv_obj_set_design_cb(new_roller, lv_roller_design);
 521              		.loc 7 86 0
 522 0086 3A49     		ldr	r1, .L27+12
 523 0088 F869     		ldr	r0, [r7, #28]
 524 008a FFF7FEFF 		bl	lv_obj_set_design_cb
  87:..\..\..\lvgl\version_6.1.2\lvgl\src\lv_objx/lv_roller.c **** 
  88:..\..\..\lvgl\version_6.1.2\lvgl\src\lv_objx/lv_roller.c ****     /*Init the new roller roller*/
  89:..\..\..\lvgl\version_6.1.2\lvgl\src\lv_objx/lv_roller.c ****     if(copy == NULL) {
 525              		.loc 7 89 0
 526 008e 3B68     		ldr	r3, [r7]
 527 0090 002B     		cmp	r3, #0
 528 0092 41D1     		bne	.L23
 529              	.LBB2:
  90:..\..\..\lvgl\version_6.1.2\lvgl\src\lv_objx/lv_roller.c ****         lv_obj_t * scrl = lv_page_get_scrl(new_roller);
 530              		.loc 7 90 0
 531 0094 F869     		ldr	r0, [r7, #28]
 532 0096 FFF7FEFF 		bl	lv_page_get_scrl
 533 009a 7861     		str	r0, [r7, #20]
  91:..\..\..\lvgl\version_6.1.2\lvgl\src\lv_objx/lv_roller.c ****         lv_obj_set_drag(scrl, true);                                  /*In ddlist it might be disab
 534              		.loc 7 91 0
 535 009c 0121     		movs	r1, #1
 536 009e 7869     		ldr	r0, [r7, #20]
 537 00a0 FFF7FEFF 		bl	lv_obj_set_drag
  92:..\..\..\lvgl\version_6.1.2\lvgl\src\lv_objx/lv_roller.c ****         lv_page_set_scrl_fit2(new_roller, LV_FIT_TIGHT, LV_FIT_NONE); /*Height is specified directl
 538              		.loc 7 92 0
 539 00a4 0022     		movs	r2, #0
 540 00a6 0121     		movs	r1, #1
ARM GAS  C:\Users\tmj32\AppData\Local\Temp\ccT5YJ50.s 			page 31


 541 00a8 F869     		ldr	r0, [r7, #28]
 542 00aa FFF7FEFF 		bl	lv_page_set_scrl_fit2
  93:..\..\..\lvgl\version_6.1.2\lvgl\src\lv_objx/lv_roller.c ****         lv_ddlist_open(new_roller, false);
 543              		.loc 7 93 0
 544 00ae 0021     		movs	r1, #0
 545 00b0 F869     		ldr	r0, [r7, #28]
 546 00b2 FFF7FEFF 		bl	lv_ddlist_open
  94:..\..\..\lvgl\version_6.1.2\lvgl\src\lv_objx/lv_roller.c ****         lv_ddlist_set_anim_time(new_roller, LV_ROLLER_DEF_ANIM_TIME);
 547              		.loc 7 94 0
 548 00b6 C821     		movs	r1, #200
 549 00b8 F869     		ldr	r0, [r7, #28]
 550 00ba FFF7FEFF 		bl	lv_ddlist_set_anim_time
  95:..\..\..\lvgl\version_6.1.2\lvgl\src\lv_objx/lv_roller.c ****         lv_ddlist_set_stay_open(new_roller, true);
 551              		.loc 7 95 0
 552 00be 0121     		movs	r1, #1
 553 00c0 F869     		ldr	r0, [r7, #28]
 554 00c2 FFF7FEFF 		bl	lv_ddlist_set_stay_open
  96:..\..\..\lvgl\version_6.1.2\lvgl\src\lv_objx/lv_roller.c ****         lv_roller_set_visible_row_count(new_roller, 3);
 555              		.loc 7 96 0
 556 00c6 0321     		movs	r1, #3
 557 00c8 F869     		ldr	r0, [r7, #28]
 558 00ca FFF7FEFF 		bl	lv_roller_set_visible_row_count
  97:..\..\..\lvgl\version_6.1.2\lvgl\src\lv_objx/lv_roller.c ****         lv_label_set_align(ext->ddlist.label, LV_LABEL_ALIGN_CENTER);
 559              		.loc 7 97 0
 560 00ce BB69     		ldr	r3, [r7, #24]
 561 00d0 1B6B     		ldr	r3, [r3, #48]
 562 00d2 0121     		movs	r1, #1
 563 00d4 1846     		mov	r0, r3
 564 00d6 FFF7FEFF 		bl	lv_label_set_align
  98:..\..\..\lvgl\version_6.1.2\lvgl\src\lv_objx/lv_roller.c **** 
  99:..\..\..\lvgl\version_6.1.2\lvgl\src\lv_objx/lv_roller.c ****         lv_obj_set_signal_cb(scrl, lv_roller_scrl_signal);
 565              		.loc 7 99 0
 566 00da 2649     		ldr	r1, .L27+16
 567 00dc 7869     		ldr	r0, [r7, #20]
 568 00de FFF7FEFF 		bl	lv_obj_set_signal_cb
 100:..\..\..\lvgl\version_6.1.2\lvgl\src\lv_objx/lv_roller.c **** 
 101:..\..\..\lvgl\version_6.1.2\lvgl\src\lv_objx/lv_roller.c ****         /*Set the default styles*/
 102:..\..\..\lvgl\version_6.1.2\lvgl\src\lv_objx/lv_roller.c ****         lv_theme_t * th = lv_theme_get_current();
 569              		.loc 7 102 0
 570 00e2 FFF7FEFF 		bl	lv_theme_get_current
 571 00e6 3861     		str	r0, [r7, #16]
 103:..\..\..\lvgl\version_6.1.2\lvgl\src\lv_objx/lv_roller.c ****         if(th) {
 572              		.loc 7 103 0
 573 00e8 3B69     		ldr	r3, [r7, #16]
 574 00ea 002B     		cmp	r3, #0
 575 00ec 10D0     		beq	.L24
 104:..\..\..\lvgl\version_6.1.2\lvgl\src\lv_objx/lv_roller.c ****             lv_roller_set_style(new_roller, LV_ROLLER_STYLE_BG, th->style.roller.bg);
 576              		.loc 7 104 0
 577 00ee 3B69     		ldr	r3, [r7, #16]
 578 00f0 D3F85831 		ldr	r3, [r3, #344]
 579 00f4 1A46     		mov	r2, r3
 580 00f6 0021     		movs	r1, #0
 581 00f8 F869     		ldr	r0, [r7, #28]
 582 00fa FFF7FEFF 		bl	lv_roller_set_style
 105:..\..\..\lvgl\version_6.1.2\lvgl\src\lv_objx/lv_roller.c ****             lv_roller_set_style(new_roller, LV_ROLLER_STYLE_SEL, th->style.roller.sel);
 583              		.loc 7 105 0
 584 00fe 3B69     		ldr	r3, [r7, #16]
ARM GAS  C:\Users\tmj32\AppData\Local\Temp\ccT5YJ50.s 			page 32


 585 0100 D3F85C31 		ldr	r3, [r3, #348]
 586 0104 1A46     		mov	r2, r3
 587 0106 0121     		movs	r1, #1
 588 0108 F869     		ldr	r0, [r7, #28]
 589 010a FFF7FEFF 		bl	lv_roller_set_style
 590 010e 23E0     		b	.L26
 591              	.L24:
 106:..\..\..\lvgl\version_6.1.2\lvgl\src\lv_objx/lv_roller.c ****         } else {
 107:..\..\..\lvgl\version_6.1.2\lvgl\src\lv_objx/lv_roller.c ****             /*Refresh the roller's style*/
 108:..\..\..\lvgl\version_6.1.2\lvgl\src\lv_objx/lv_roller.c ****             lv_obj_refresh_style(new_roller); /*To set scrollable size automatically*/
 592              		.loc 7 108 0
 593 0110 F869     		ldr	r0, [r7, #28]
 594 0112 FFF7FEFF 		bl	lv_obj_refresh_style
 595 0116 1FE0     		b	.L26
 596              	.L23:
 597              	.LBE2:
 598              	.LBB3:
 109:..\..\..\lvgl\version_6.1.2\lvgl\src\lv_objx/lv_roller.c ****         }
 110:..\..\..\lvgl\version_6.1.2\lvgl\src\lv_objx/lv_roller.c ****     }
 111:..\..\..\lvgl\version_6.1.2\lvgl\src\lv_objx/lv_roller.c ****     /*Copy an existing roller*/
 112:..\..\..\lvgl\version_6.1.2\lvgl\src\lv_objx/lv_roller.c ****     else {
 113:..\..\..\lvgl\version_6.1.2\lvgl\src\lv_objx/lv_roller.c ****         lv_roller_ext_t * copy_ext = lv_obj_get_ext_attr(copy);
 599              		.loc 7 113 0
 600 0118 3868     		ldr	r0, [r7]
 601 011a FFF7FEFF 		bl	lv_obj_get_ext_attr
 602 011e F860     		str	r0, [r7, #12]
 114:..\..\..\lvgl\version_6.1.2\lvgl\src\lv_objx/lv_roller.c ****         ext->mode                  = copy_ext->mode;
 603              		.loc 7 114 0
 604 0120 FB68     		ldr	r3, [r7, #12]
 605 0122 93F84430 		ldrb	r3, [r3, #68]
 606 0126 C3F30003 		ubfx	r3, r3, #0, #1
 607 012a D9B2     		uxtb	r1, r3
 608 012c BA69     		ldr	r2, [r7, #24]
 609 012e 92F84430 		ldrb	r3, [r2, #68]
 610 0132 61F30003 		bfi	r3, r1, #0, #1
 611 0136 82F84430 		strb	r3, [r2, #68]
 115:..\..\..\lvgl\version_6.1.2\lvgl\src\lv_objx/lv_roller.c **** 
 116:..\..\..\lvgl\version_6.1.2\lvgl\src\lv_objx/lv_roller.c ****         lv_obj_t * scrl = lv_page_get_scrl(new_roller);
 612              		.loc 7 116 0
 613 013a F869     		ldr	r0, [r7, #28]
 614 013c FFF7FEFF 		bl	lv_page_get_scrl
 615 0140 B860     		str	r0, [r7, #8]
 117:..\..\..\lvgl\version_6.1.2\lvgl\src\lv_objx/lv_roller.c ****         lv_ddlist_open(new_roller, false);
 616              		.loc 7 117 0
 617 0142 0021     		movs	r1, #0
 618 0144 F869     		ldr	r0, [r7, #28]
 619 0146 FFF7FEFF 		bl	lv_ddlist_open
 118:..\..\..\lvgl\version_6.1.2\lvgl\src\lv_objx/lv_roller.c ****         lv_obj_set_signal_cb(scrl, lv_roller_scrl_signal);
 620              		.loc 7 118 0
 621 014a 0A49     		ldr	r1, .L27+16
 622 014c B868     		ldr	r0, [r7, #8]
 623 014e FFF7FEFF 		bl	lv_obj_set_signal_cb
 119:..\..\..\lvgl\version_6.1.2\lvgl\src\lv_objx/lv_roller.c **** 
 120:..\..\..\lvgl\version_6.1.2\lvgl\src\lv_objx/lv_roller.c ****         /*Refresh the roller's style*/
 121:..\..\..\lvgl\version_6.1.2\lvgl\src\lv_objx/lv_roller.c ****         lv_obj_refresh_style(new_roller); /*Refresh the style with new signal function*/
 624              		.loc 7 121 0
 625 0152 F869     		ldr	r0, [r7, #28]
ARM GAS  C:\Users\tmj32\AppData\Local\Temp\ccT5YJ50.s 			page 33


 626 0154 FFF7FEFF 		bl	lv_obj_refresh_style
 627              	.L26:
 628              	.LBE3:
 122:..\..\..\lvgl\version_6.1.2\lvgl\src\lv_objx/lv_roller.c ****     }
 123:..\..\..\lvgl\version_6.1.2\lvgl\src\lv_objx/lv_roller.c **** 
 124:..\..\..\lvgl\version_6.1.2\lvgl\src\lv_objx/lv_roller.c ****     LV_LOG_INFO("roller created");
 125:..\..\..\lvgl\version_6.1.2\lvgl\src\lv_objx/lv_roller.c **** 
 126:..\..\..\lvgl\version_6.1.2\lvgl\src\lv_objx/lv_roller.c ****     return new_roller;
 629              		.loc 7 126 0
 630 0158 FB69     		ldr	r3, [r7, #28]
 631              	.L19:
 127:..\..\..\lvgl\version_6.1.2\lvgl\src\lv_objx/lv_roller.c **** }
 632              		.loc 7 127 0
 633 015a 1846     		mov	r0, r3
 634 015c 2037     		adds	r7, r7, #32
 635              		.cfi_def_cfa_offset 8
 636 015e BD46     		mov	sp, r7
 637              		.cfi_def_cfa_register 13
 638              		@ sp needed
 639 0160 80BD     		pop	{r7, pc}
 640              	.L28:
 641 0162 00BF     		.align	2
 642              	.L27:
 643 0164 04000000 		.word	ancestor_scrl_signal
 644 0168 00000000 		.word	ancestor_signal
 645 016c 00000000 		.word	lv_roller_signal
 646 0170 00000000 		.word	lv_roller_design
 647 0174 00000000 		.word	lv_roller_scrl_signal
 648              		.cfi_endproc
 649              	.LFE59:
 650              		.size	lv_roller_create, .-lv_roller_create
 651              		.section	.text.lv_roller_set_options,"ax",%progbits
 652              		.align	2
 653              		.global	lv_roller_set_options
 654              		.thumb
 655              		.thumb_func
 656              		.type	lv_roller_set_options, %function
 657              	lv_roller_set_options:
 658              	.LFB60:
 128:..\..\..\lvgl\version_6.1.2\lvgl\src\lv_objx/lv_roller.c **** 
 129:..\..\..\lvgl\version_6.1.2\lvgl\src\lv_objx/lv_roller.c **** /*=====================
 130:..\..\..\lvgl\version_6.1.2\lvgl\src\lv_objx/lv_roller.c ****  * Setter functions
 131:..\..\..\lvgl\version_6.1.2\lvgl\src\lv_objx/lv_roller.c ****  *====================*/
 132:..\..\..\lvgl\version_6.1.2\lvgl\src\lv_objx/lv_roller.c **** 
 133:..\..\..\lvgl\version_6.1.2\lvgl\src\lv_objx/lv_roller.c **** /**
 134:..\..\..\lvgl\version_6.1.2\lvgl\src\lv_objx/lv_roller.c ****  * Set the options on a roller
 135:..\..\..\lvgl\version_6.1.2\lvgl\src\lv_objx/lv_roller.c ****  * @param roller pointer to roller object
 136:..\..\..\lvgl\version_6.1.2\lvgl\src\lv_objx/lv_roller.c ****  * @param options a string with '\n' separated options. E.g. "One\nTwo\nThree"
 137:..\..\..\lvgl\version_6.1.2\lvgl\src\lv_objx/lv_roller.c ****  * @param mode `LV_ROLLER_MODE_NORMAL` or `LV_ROLLER_MODE_INFINITE`
 138:..\..\..\lvgl\version_6.1.2\lvgl\src\lv_objx/lv_roller.c ****  */
 139:..\..\..\lvgl\version_6.1.2\lvgl\src\lv_objx/lv_roller.c **** void lv_roller_set_options(lv_obj_t * roller, const char * options, lv_roller_mode_t mode)
 140:..\..\..\lvgl\version_6.1.2\lvgl\src\lv_objx/lv_roller.c **** {
 659              		.loc 7 140 0
 660              		.cfi_startproc
 661              		@ args = 0, pretend = 0, frame = 40
 662              		@ frame_needed = 1, uses_anonymous_args = 0
 663 0000 80B5     		push	{r7, lr}
ARM GAS  C:\Users\tmj32\AppData\Local\Temp\ccT5YJ50.s 			page 34


 664              		.cfi_def_cfa_offset 8
 665              		.cfi_offset 7, -8
 666              		.cfi_offset 14, -4
 667 0002 8AB0     		sub	sp, sp, #40
 668              		.cfi_def_cfa_offset 48
 669 0004 00AF     		add	r7, sp, #0
 670              		.cfi_def_cfa_register 7
 671 0006 F860     		str	r0, [r7, #12]
 672 0008 B960     		str	r1, [r7, #8]
 673 000a 1346     		mov	r3, r2
 674 000c FB71     		strb	r3, [r7, #7]
 141:..\..\..\lvgl\version_6.1.2\lvgl\src\lv_objx/lv_roller.c ****     LV_ASSERT_OBJ(roller, LV_OBJX_NAME);
 142:..\..\..\lvgl\version_6.1.2\lvgl\src\lv_objx/lv_roller.c ****     LV_ASSERT_STR(options);
 143:..\..\..\lvgl\version_6.1.2\lvgl\src\lv_objx/lv_roller.c **** 
 144:..\..\..\lvgl\version_6.1.2\lvgl\src\lv_objx/lv_roller.c ****     lv_roller_ext_t * ext = lv_obj_get_ext_attr(roller);
 675              		.loc 7 144 0
 676 000e F868     		ldr	r0, [r7, #12]
 677 0010 FFF7FEFF 		bl	lv_obj_get_ext_attr
 678 0014 3862     		str	r0, [r7, #32]
 145:..\..\..\lvgl\version_6.1.2\lvgl\src\lv_objx/lv_roller.c **** 
 146:..\..\..\lvgl\version_6.1.2\lvgl\src\lv_objx/lv_roller.c ****     if(mode == LV_ROLLER_MODE_NORMAL) {
 679              		.loc 7 146 0
 680 0016 FB79     		ldrb	r3, [r7, #7]	@ zero_extendqisi2
 681 0018 002B     		cmp	r3, #0
 682 001a 12D1     		bne	.L30
 147:..\..\..\lvgl\version_6.1.2\lvgl\src\lv_objx/lv_roller.c ****         ext->mode = LV_ROLLER_MODE_NORMAL;
 683              		.loc 7 147 0
 684 001c 3A6A     		ldr	r2, [r7, #32]
 685 001e 92F84430 		ldrb	r3, [r2, #68]
 686 0022 6FF30003 		bfc	r3, #0, #1
 687 0026 82F84430 		strb	r3, [r2, #68]
 148:..\..\..\lvgl\version_6.1.2\lvgl\src\lv_objx/lv_roller.c ****         lv_ddlist_set_options(roller, options);
 688              		.loc 7 148 0
 689 002a B968     		ldr	r1, [r7, #8]
 690 002c F868     		ldr	r0, [r7, #12]
 691 002e FFF7FEFF 		bl	lv_ddlist_set_options
 149:..\..\..\lvgl\version_6.1.2\lvgl\src\lv_objx/lv_roller.c **** 
 150:..\..\..\lvgl\version_6.1.2\lvgl\src\lv_objx/lv_roller.c ****         /* Make sure the roller's height and the scrollable's height is refreshed.
 151:..\..\..\lvgl\version_6.1.2\lvgl\src\lv_objx/lv_roller.c ****          * They are refreshed in `LV_SIGNAL_COORD_CHG` but if the new options has the same width
 152:..\..\..\lvgl\version_6.1.2\lvgl\src\lv_objx/lv_roller.c ****          * that signal won't be called. (It's called because of LV_FIT_TIGHT hor fit)*/
 153:..\..\..\lvgl\version_6.1.2\lvgl\src\lv_objx/lv_roller.c ****         refr_height(roller);
 692              		.loc 7 153 0
 693 0032 F868     		ldr	r0, [r7, #12]
 694 0034 FFF7FEFF 		bl	refr_height
 154:..\..\..\lvgl\version_6.1.2\lvgl\src\lv_objx/lv_roller.c ****         refr_position(roller, LV_ANIM_OFF);
 695              		.loc 7 154 0
 696 0038 0021     		movs	r1, #0
 697 003a F868     		ldr	r0, [r7, #12]
 698 003c FFF7FEFF 		bl	refr_position
 155:..\..\..\lvgl\version_6.1.2\lvgl\src\lv_objx/lv_roller.c ****     } else {
 156:..\..\..\lvgl\version_6.1.2\lvgl\src\lv_objx/lv_roller.c ****         ext->mode = LV_ROLLER_MODE_INIFINITE;
 157:..\..\..\lvgl\version_6.1.2\lvgl\src\lv_objx/lv_roller.c **** 
 158:..\..\..\lvgl\version_6.1.2\lvgl\src\lv_objx/lv_roller.c ****         size_t opt_len = strlen(options) + 1; /*+1 to add '\n' after option lists*/
 159:..\..\..\lvgl\version_6.1.2\lvgl\src\lv_objx/lv_roller.c ****         char * opt_extra = lv_mem_alloc(opt_len * LV_ROLLER_INF_PAGES);
 160:..\..\..\lvgl\version_6.1.2\lvgl\src\lv_objx/lv_roller.c ****         uint8_t i;
 161:..\..\..\lvgl\version_6.1.2\lvgl\src\lv_objx/lv_roller.c ****         for(i = 0; i < LV_ROLLER_INF_PAGES; i++) {
 162:..\..\..\lvgl\version_6.1.2\lvgl\src\lv_objx/lv_roller.c ****             strcpy(&opt_extra[opt_len * i], options);
ARM GAS  C:\Users\tmj32\AppData\Local\Temp\ccT5YJ50.s 			page 35


 163:..\..\..\lvgl\version_6.1.2\lvgl\src\lv_objx/lv_roller.c ****             opt_extra[opt_len * (i + 1) - 1] = '\n';
 164:..\..\..\lvgl\version_6.1.2\lvgl\src\lv_objx/lv_roller.c ****         }
 165:..\..\..\lvgl\version_6.1.2\lvgl\src\lv_objx/lv_roller.c ****         opt_extra[opt_len * LV_ROLLER_INF_PAGES - 1] = '\0';
 166:..\..\..\lvgl\version_6.1.2\lvgl\src\lv_objx/lv_roller.c ****         lv_ddlist_set_options(roller, opt_extra);
 167:..\..\..\lvgl\version_6.1.2\lvgl\src\lv_objx/lv_roller.c ****         lv_mem_free(opt_extra);
 168:..\..\..\lvgl\version_6.1.2\lvgl\src\lv_objx/lv_roller.c **** 
 169:..\..\..\lvgl\version_6.1.2\lvgl\src\lv_objx/lv_roller.c ****         /* Make sure the roller's height and the scrollable's height is refreshed.
 170:..\..\..\lvgl\version_6.1.2\lvgl\src\lv_objx/lv_roller.c ****          * They are refreshed in `LV_SIGNAL_COORD_CHG` but if the new options has the same width
 171:..\..\..\lvgl\version_6.1.2\lvgl\src\lv_objx/lv_roller.c ****          * that signal won't be called. (It called because LV_FIT_TIGHT hor fit)*/
 172:..\..\..\lvgl\version_6.1.2\lvgl\src\lv_objx/lv_roller.c ****         refr_height(roller);
 173:..\..\..\lvgl\version_6.1.2\lvgl\src\lv_objx/lv_roller.c **** 
 174:..\..\..\lvgl\version_6.1.2\lvgl\src\lv_objx/lv_roller.c ****         uint16_t real_id_cnt = ext->ddlist.option_cnt / LV_ROLLER_INF_PAGES;
 175:..\..\..\lvgl\version_6.1.2\lvgl\src\lv_objx/lv_roller.c ****         lv_roller_set_selected(roller, ((LV_ROLLER_INF_PAGES / 2) + 1) * real_id_cnt, false); /*Sel
 176:..\..\..\lvgl\version_6.1.2\lvgl\src\lv_objx/lv_roller.c ****     }
 177:..\..\..\lvgl\version_6.1.2\lvgl\src\lv_objx/lv_roller.c **** }
 699              		.loc 7 177 0
 700 0040 5DE0     		b	.L34
 701              	.L30:
 702              	.LBB4:
 156:..\..\..\lvgl\version_6.1.2\lvgl\src\lv_objx/lv_roller.c **** 
 703              		.loc 7 156 0
 704 0042 3A6A     		ldr	r2, [r7, #32]
 705 0044 92F84430 		ldrb	r3, [r2, #68]
 706 0048 43F00103 		orr	r3, r3, #1
 707 004c 82F84430 		strb	r3, [r2, #68]
 158:..\..\..\lvgl\version_6.1.2\lvgl\src\lv_objx/lv_roller.c ****         char * opt_extra = lv_mem_alloc(opt_len * LV_ROLLER_INF_PAGES);
 708              		.loc 7 158 0
 709 0050 B868     		ldr	r0, [r7, #8]
 710 0052 FFF7FEFF 		bl	strlen
 711 0056 0346     		mov	r3, r0
 712 0058 0133     		adds	r3, r3, #1
 713 005a FB61     		str	r3, [r7, #28]
 159:..\..\..\lvgl\version_6.1.2\lvgl\src\lv_objx/lv_roller.c ****         uint8_t i;
 714              		.loc 7 159 0
 715 005c FA69     		ldr	r2, [r7, #28]
 716 005e 1346     		mov	r3, r2
 717 0060 DB00     		lsls	r3, r3, #3
 718 0062 9B1A     		subs	r3, r3, r2
 719 0064 1846     		mov	r0, r3
 720 0066 FFF7FEFF 		bl	lv_mem_alloc
 721 006a B861     		str	r0, [r7, #24]
 161:..\..\..\lvgl\version_6.1.2\lvgl\src\lv_objx/lv_roller.c ****             strcpy(&opt_extra[opt_len * i], options);
 722              		.loc 7 161 0
 723 006c 0023     		movs	r3, #0
 724 006e 87F82730 		strb	r3, [r7, #39]
 725 0072 1BE0     		b	.L32
 726              	.L33:
 162:..\..\..\lvgl\version_6.1.2\lvgl\src\lv_objx/lv_roller.c ****             opt_extra[opt_len * (i + 1) - 1] = '\n';
 727              		.loc 7 162 0 discriminator 3
 728 0074 97F82730 		ldrb	r3, [r7, #39]	@ zero_extendqisi2
 729 0078 FA69     		ldr	r2, [r7, #28]
 730 007a 02FB03F3 		mul	r3, r2, r3
 731 007e BA69     		ldr	r2, [r7, #24]
 732 0080 1344     		add	r3, r3, r2
 733 0082 B968     		ldr	r1, [r7, #8]
 734 0084 1846     		mov	r0, r3
 735 0086 FFF7FEFF 		bl	strcpy
ARM GAS  C:\Users\tmj32\AppData\Local\Temp\ccT5YJ50.s 			page 36


 163:..\..\..\lvgl\version_6.1.2\lvgl\src\lv_objx/lv_roller.c ****         }
 736              		.loc 7 163 0 discriminator 3
 737 008a 97F82730 		ldrb	r3, [r7, #39]	@ zero_extendqisi2
 738 008e 0133     		adds	r3, r3, #1
 739 0090 1A46     		mov	r2, r3
 740 0092 FB69     		ldr	r3, [r7, #28]
 741 0094 03FB02F3 		mul	r3, r3, r2
 742 0098 013B     		subs	r3, r3, #1
 743 009a BA69     		ldr	r2, [r7, #24]
 744 009c 1344     		add	r3, r3, r2
 745 009e 0A22     		movs	r2, #10
 746 00a0 1A70     		strb	r2, [r3]
 161:..\..\..\lvgl\version_6.1.2\lvgl\src\lv_objx/lv_roller.c ****             strcpy(&opt_extra[opt_len * i], options);
 747              		.loc 7 161 0 discriminator 3
 748 00a2 97F82730 		ldrb	r3, [r7, #39]	@ zero_extendqisi2
 749 00a6 0133     		adds	r3, r3, #1
 750 00a8 87F82730 		strb	r3, [r7, #39]
 751              	.L32:
 161:..\..\..\lvgl\version_6.1.2\lvgl\src\lv_objx/lv_roller.c ****             strcpy(&opt_extra[opt_len * i], options);
 752              		.loc 7 161 0 is_stmt 0 discriminator 1
 753 00ac 97F82730 		ldrb	r3, [r7, #39]	@ zero_extendqisi2
 754 00b0 062B     		cmp	r3, #6
 755 00b2 DFD9     		bls	.L33
 165:..\..\..\lvgl\version_6.1.2\lvgl\src\lv_objx/lv_roller.c ****         lv_ddlist_set_options(roller, opt_extra);
 756              		.loc 7 165 0 is_stmt 1
 757 00b4 FA69     		ldr	r2, [r7, #28]
 758 00b6 1346     		mov	r3, r2
 759 00b8 DB00     		lsls	r3, r3, #3
 760 00ba 9B1A     		subs	r3, r3, r2
 761 00bc 013B     		subs	r3, r3, #1
 762 00be BA69     		ldr	r2, [r7, #24]
 763 00c0 1344     		add	r3, r3, r2
 764 00c2 0022     		movs	r2, #0
 765 00c4 1A70     		strb	r2, [r3]
 166:..\..\..\lvgl\version_6.1.2\lvgl\src\lv_objx/lv_roller.c ****         lv_mem_free(opt_extra);
 766              		.loc 7 166 0
 767 00c6 B969     		ldr	r1, [r7, #24]
 768 00c8 F868     		ldr	r0, [r7, #12]
 769 00ca FFF7FEFF 		bl	lv_ddlist_set_options
 167:..\..\..\lvgl\version_6.1.2\lvgl\src\lv_objx/lv_roller.c **** 
 770              		.loc 7 167 0
 771 00ce B869     		ldr	r0, [r7, #24]
 772 00d0 FFF7FEFF 		bl	lv_mem_free
 172:..\..\..\lvgl\version_6.1.2\lvgl\src\lv_objx/lv_roller.c **** 
 773              		.loc 7 172 0
 774 00d4 F868     		ldr	r0, [r7, #12]
 775 00d6 FFF7FEFF 		bl	refr_height
 174:..\..\..\lvgl\version_6.1.2\lvgl\src\lv_objx/lv_roller.c ****         lv_roller_set_selected(roller, ((LV_ROLLER_INF_PAGES / 2) + 1) * real_id_cnt, false); /*Sel
 776              		.loc 7 174 0
 777 00da 3B6A     		ldr	r3, [r7, #32]
 778 00dc 1A8F     		ldrh	r2, [r3, #56]
 779 00de 0A4B     		ldr	r3, .L35
 780 00e0 A3FB0213 		umull	r1, r3, r3, r2
 781 00e4 D21A     		subs	r2, r2, r3
 782 00e6 5208     		lsrs	r2, r2, #1
 783 00e8 1344     		add	r3, r3, r2
 784 00ea 9B08     		lsrs	r3, r3, #2
ARM GAS  C:\Users\tmj32\AppData\Local\Temp\ccT5YJ50.s 			page 37


 785 00ec FB82     		strh	r3, [r7, #22]	@ movhi
 175:..\..\..\lvgl\version_6.1.2\lvgl\src\lv_objx/lv_roller.c ****     }
 786              		.loc 7 175 0
 787 00ee FB8A     		ldrh	r3, [r7, #22]	@ movhi
 788 00f0 9B00     		lsls	r3, r3, #2
 789 00f2 9BB2     		uxth	r3, r3
 790 00f4 0022     		movs	r2, #0
 791 00f6 1946     		mov	r1, r3
 792 00f8 F868     		ldr	r0, [r7, #12]
 793 00fa FFF7FEFF 		bl	lv_roller_set_selected
 794              	.L34:
 795              	.LBE4:
 796              		.loc 7 177 0
 797 00fe 00BF     		nop
 798 0100 2837     		adds	r7, r7, #40
 799              		.cfi_def_cfa_offset 8
 800 0102 BD46     		mov	sp, r7
 801              		.cfi_def_cfa_register 13
 802              		@ sp needed
 803 0104 80BD     		pop	{r7, pc}
 804              	.L36:
 805 0106 00BF     		.align	2
 806              	.L35:
 807 0108 25499224 		.word	613566757
 808              		.cfi_endproc
 809              	.LFE60:
 810              		.size	lv_roller_set_options, .-lv_roller_set_options
 811              		.section	.text.lv_roller_set_align,"ax",%progbits
 812              		.align	2
 813              		.global	lv_roller_set_align
 814              		.thumb
 815              		.thumb_func
 816              		.type	lv_roller_set_align, %function
 817              	lv_roller_set_align:
 818              	.LFB61:
 178:..\..\..\lvgl\version_6.1.2\lvgl\src\lv_objx/lv_roller.c **** 
 179:..\..\..\lvgl\version_6.1.2\lvgl\src\lv_objx/lv_roller.c **** /**
 180:..\..\..\lvgl\version_6.1.2\lvgl\src\lv_objx/lv_roller.c ****  * Set the align of the roller's options (left or center)
 181:..\..\..\lvgl\version_6.1.2\lvgl\src\lv_objx/lv_roller.c ****  * @param roller - pointer to a roller object
 182:..\..\..\lvgl\version_6.1.2\lvgl\src\lv_objx/lv_roller.c ****  * @param align - one of lv_label_align_t values (left, right, center)
 183:..\..\..\lvgl\version_6.1.2\lvgl\src\lv_objx/lv_roller.c ****  */
 184:..\..\..\lvgl\version_6.1.2\lvgl\src\lv_objx/lv_roller.c **** void lv_roller_set_align(lv_obj_t * roller, lv_label_align_t align)
 185:..\..\..\lvgl\version_6.1.2\lvgl\src\lv_objx/lv_roller.c **** {
 819              		.loc 7 185 0
 820              		.cfi_startproc
 821              		@ args = 0, pretend = 0, frame = 16
 822              		@ frame_needed = 1, uses_anonymous_args = 0
 823 0000 80B5     		push	{r7, lr}
 824              		.cfi_def_cfa_offset 8
 825              		.cfi_offset 7, -8
 826              		.cfi_offset 14, -4
 827 0002 86B0     		sub	sp, sp, #24
 828              		.cfi_def_cfa_offset 32
 829 0004 02AF     		add	r7, sp, #8
 830              		.cfi_def_cfa 7, 24
 831 0006 7860     		str	r0, [r7, #4]
 832 0008 0B46     		mov	r3, r1
ARM GAS  C:\Users\tmj32\AppData\Local\Temp\ccT5YJ50.s 			page 38


 833 000a FB70     		strb	r3, [r7, #3]
 186:..\..\..\lvgl\version_6.1.2\lvgl\src\lv_objx/lv_roller.c ****     LV_ASSERT_OBJ(roller, LV_OBJX_NAME);
 187:..\..\..\lvgl\version_6.1.2\lvgl\src\lv_objx/lv_roller.c **** 
 188:..\..\..\lvgl\version_6.1.2\lvgl\src\lv_objx/lv_roller.c ****     lv_roller_ext_t * ext = lv_obj_get_ext_attr(roller);
 834              		.loc 7 188 0
 835 000c 7868     		ldr	r0, [r7, #4]
 836 000e FFF7FEFF 		bl	lv_obj_get_ext_attr
 837 0012 F860     		str	r0, [r7, #12]
 189:..\..\..\lvgl\version_6.1.2\lvgl\src\lv_objx/lv_roller.c **** 
 190:..\..\..\lvgl\version_6.1.2\lvgl\src\lv_objx/lv_roller.c ****     lv_obj_t * label = ext->ddlist.label;
 838              		.loc 7 190 0
 839 0014 FB68     		ldr	r3, [r7, #12]
 840 0016 1B6B     		ldr	r3, [r3, #48]
 841 0018 BB60     		str	r3, [r7, #8]
 191:..\..\..\lvgl\version_6.1.2\lvgl\src\lv_objx/lv_roller.c **** 
 192:..\..\..\lvgl\version_6.1.2\lvgl\src\lv_objx/lv_roller.c ****     if(label == NULL) return; /*Probably the roller is being deleted if the label is NULL.*/
 842              		.loc 7 192 0
 843 001a BB68     		ldr	r3, [r7, #8]
 844 001c 002B     		cmp	r3, #0
 845 001e 2AD0     		beq	.L43
 193:..\..\..\lvgl\version_6.1.2\lvgl\src\lv_objx/lv_roller.c ****     lv_label_set_align(label, align);
 846              		.loc 7 193 0
 847 0020 FB78     		ldrb	r3, [r7, #3]	@ zero_extendqisi2
 848 0022 1946     		mov	r1, r3
 849 0024 B868     		ldr	r0, [r7, #8]
 850 0026 FFF7FEFF 		bl	lv_label_set_align
 194:..\..\..\lvgl\version_6.1.2\lvgl\src\lv_objx/lv_roller.c **** 
 195:..\..\..\lvgl\version_6.1.2\lvgl\src\lv_objx/lv_roller.c ****     switch(lv_label_get_align(label)) {
 851              		.loc 7 195 0
 852 002a B868     		ldr	r0, [r7, #8]
 853 002c FFF7FEFF 		bl	lv_label_get_align
 854 0030 0346     		mov	r3, r0
 855 0032 012B     		cmp	r3, #1
 856 0034 0CD0     		beq	.L40
 857 0036 022B     		cmp	r3, #2
 858 0038 13D0     		beq	.L41
 859 003a 002B     		cmp	r3, #0
 860 003c 1CD1     		bne	.L37
 196:..\..\..\lvgl\version_6.1.2\lvgl\src\lv_objx/lv_roller.c ****         case LV_LABEL_ALIGN_LEFT: lv_obj_align(label, NULL, LV_ALIGN_IN_LEFT_MID, 0, 0); break;
 861              		.loc 7 196 0
 862 003e 0023     		movs	r3, #0
 863 0040 0093     		str	r3, [sp]
 864 0042 0023     		movs	r3, #0
 865 0044 0722     		movs	r2, #7
 866 0046 0021     		movs	r1, #0
 867 0048 B868     		ldr	r0, [r7, #8]
 868 004a FFF7FEFF 		bl	lv_obj_align
 869 004e 13E0     		b	.L37
 870              	.L40:
 197:..\..\..\lvgl\version_6.1.2\lvgl\src\lv_objx/lv_roller.c ****         case LV_LABEL_ALIGN_CENTER: lv_obj_align(label, NULL, LV_ALIGN_CENTER, 0, 0); break;
 871              		.loc 7 197 0
 872 0050 0023     		movs	r3, #0
 873 0052 0093     		str	r3, [sp]
 874 0054 0023     		movs	r3, #0
 875 0056 0022     		movs	r2, #0
 876 0058 0021     		movs	r1, #0
 877 005a B868     		ldr	r0, [r7, #8]
ARM GAS  C:\Users\tmj32\AppData\Local\Temp\ccT5YJ50.s 			page 39


 878 005c FFF7FEFF 		bl	lv_obj_align
 879 0060 0AE0     		b	.L37
 880              	.L41:
 198:..\..\..\lvgl\version_6.1.2\lvgl\src\lv_objx/lv_roller.c ****         case LV_LABEL_ALIGN_RIGHT: lv_obj_align(label, NULL, LV_ALIGN_IN_RIGHT_MID, 0, 0); break;
 881              		.loc 7 198 0
 882 0062 0023     		movs	r3, #0
 883 0064 0093     		str	r3, [sp]
 884 0066 0023     		movs	r3, #0
 885 0068 0822     		movs	r2, #8
 886 006a 0021     		movs	r1, #0
 887 006c B868     		ldr	r0, [r7, #8]
 888 006e FFF7FEFF 		bl	lv_obj_align
 889 0072 00BF     		nop
 890 0074 00E0     		b	.L37
 891              	.L43:
 192:..\..\..\lvgl\version_6.1.2\lvgl\src\lv_objx/lv_roller.c ****     lv_label_set_align(label, align);
 892              		.loc 7 192 0
 893 0076 00BF     		nop
 894              	.L37:
 199:..\..\..\lvgl\version_6.1.2\lvgl\src\lv_objx/lv_roller.c ****     }
 200:..\..\..\lvgl\version_6.1.2\lvgl\src\lv_objx/lv_roller.c **** }
 895              		.loc 7 200 0
 896 0078 1037     		adds	r7, r7, #16
 897              		.cfi_def_cfa_offset 8
 898 007a BD46     		mov	sp, r7
 899              		.cfi_def_cfa_register 13
 900              		@ sp needed
 901 007c 80BD     		pop	{r7, pc}
 902              		.cfi_endproc
 903              	.LFE61:
 904              		.size	lv_roller_set_align, .-lv_roller_set_align
 905 007e 00BF     		.section	.text.lv_roller_set_selected,"ax",%progbits
 906              		.align	2
 907              		.global	lv_roller_set_selected
 908              		.thumb
 909              		.thumb_func
 910              		.type	lv_roller_set_selected, %function
 911              	lv_roller_set_selected:
 912              	.LFB62:
 201:..\..\..\lvgl\version_6.1.2\lvgl\src\lv_objx/lv_roller.c **** 
 202:..\..\..\lvgl\version_6.1.2\lvgl\src\lv_objx/lv_roller.c **** /**
 203:..\..\..\lvgl\version_6.1.2\lvgl\src\lv_objx/lv_roller.c ****  * Set the selected option
 204:..\..\..\lvgl\version_6.1.2\lvgl\src\lv_objx/lv_roller.c ****  * @param roller pointer to a roller object
 205:..\..\..\lvgl\version_6.1.2\lvgl\src\lv_objx/lv_roller.c ****  * @param sel_opt id of the selected option (0 ... number of option - 1);
 206:..\..\..\lvgl\version_6.1.2\lvgl\src\lv_objx/lv_roller.c ****  * @param anim_en LV_ANIM_ON: set with animation; LV_ANOM_OFF set immediately
 207:..\..\..\lvgl\version_6.1.2\lvgl\src\lv_objx/lv_roller.c ****  */
 208:..\..\..\lvgl\version_6.1.2\lvgl\src\lv_objx/lv_roller.c **** void lv_roller_set_selected(lv_obj_t * roller, uint16_t sel_opt, lv_anim_enable_t anim)
 209:..\..\..\lvgl\version_6.1.2\lvgl\src\lv_objx/lv_roller.c **** {
 913              		.loc 7 209 0
 914              		.cfi_startproc
 915              		@ args = 0, pretend = 0, frame = 8
 916              		@ frame_needed = 1, uses_anonymous_args = 0
 917 0000 80B5     		push	{r7, lr}
 918              		.cfi_def_cfa_offset 8
 919              		.cfi_offset 7, -8
 920              		.cfi_offset 14, -4
 921 0002 82B0     		sub	sp, sp, #8
ARM GAS  C:\Users\tmj32\AppData\Local\Temp\ccT5YJ50.s 			page 40


 922              		.cfi_def_cfa_offset 16
 923 0004 00AF     		add	r7, sp, #0
 924              		.cfi_def_cfa_register 7
 925 0006 7860     		str	r0, [r7, #4]
 926 0008 0B46     		mov	r3, r1
 927 000a 7B80     		strh	r3, [r7, #2]	@ movhi
 928 000c 1346     		mov	r3, r2
 929 000e 7B70     		strb	r3, [r7, #1]
 210:..\..\..\lvgl\version_6.1.2\lvgl\src\lv_objx/lv_roller.c ****     LV_ASSERT_OBJ(roller, LV_OBJX_NAME);
 211:..\..\..\lvgl\version_6.1.2\lvgl\src\lv_objx/lv_roller.c **** 
 212:..\..\..\lvgl\version_6.1.2\lvgl\src\lv_objx/lv_roller.c **** #if LV_USE_ANIMATION == 0
 213:..\..\..\lvgl\version_6.1.2\lvgl\src\lv_objx/lv_roller.c ****     anim = LV_ANIM_OFF;
 214:..\..\..\lvgl\version_6.1.2\lvgl\src\lv_objx/lv_roller.c **** #endif
 215:..\..\..\lvgl\version_6.1.2\lvgl\src\lv_objx/lv_roller.c **** 
 216:..\..\..\lvgl\version_6.1.2\lvgl\src\lv_objx/lv_roller.c ****     if(lv_roller_get_selected(roller) == sel_opt) return;
 930              		.loc 7 216 0
 931 0010 7868     		ldr	r0, [r7, #4]
 932 0012 FFF7FEFF 		bl	lv_roller_get_selected
 933 0016 0346     		mov	r3, r0
 934 0018 1A46     		mov	r2, r3
 935 001a 7B88     		ldrh	r3, [r7, #2]
 936 001c 9342     		cmp	r3, r2
 937 001e 0AD0     		beq	.L47
 217:..\..\..\lvgl\version_6.1.2\lvgl\src\lv_objx/lv_roller.c **** 
 218:..\..\..\lvgl\version_6.1.2\lvgl\src\lv_objx/lv_roller.c ****     lv_ddlist_set_selected(roller, sel_opt);
 938              		.loc 7 218 0
 939 0020 7B88     		ldrh	r3, [r7, #2]
 940 0022 1946     		mov	r1, r3
 941 0024 7868     		ldr	r0, [r7, #4]
 942 0026 FFF7FEFF 		bl	lv_ddlist_set_selected
 219:..\..\..\lvgl\version_6.1.2\lvgl\src\lv_objx/lv_roller.c ****     refr_position(roller, anim);
 943              		.loc 7 219 0
 944 002a 7B78     		ldrb	r3, [r7, #1]	@ zero_extendqisi2
 945 002c 1946     		mov	r1, r3
 946 002e 7868     		ldr	r0, [r7, #4]
 947 0030 FFF7FEFF 		bl	refr_position
 948 0034 00E0     		b	.L44
 949              	.L47:
 216:..\..\..\lvgl\version_6.1.2\lvgl\src\lv_objx/lv_roller.c **** 
 950              		.loc 7 216 0
 951 0036 00BF     		nop
 952              	.L44:
 220:..\..\..\lvgl\version_6.1.2\lvgl\src\lv_objx/lv_roller.c **** }
 953              		.loc 7 220 0
 954 0038 0837     		adds	r7, r7, #8
 955              		.cfi_def_cfa_offset 8
 956 003a BD46     		mov	sp, r7
 957              		.cfi_def_cfa_register 13
 958              		@ sp needed
 959 003c 80BD     		pop	{r7, pc}
 960              		.cfi_endproc
 961              	.LFE62:
 962              		.size	lv_roller_set_selected, .-lv_roller_set_selected
 963 003e 00BF     		.section	.text.lv_roller_set_visible_row_count,"ax",%progbits
 964              		.align	2
 965              		.global	lv_roller_set_visible_row_count
 966              		.thumb
ARM GAS  C:\Users\tmj32\AppData\Local\Temp\ccT5YJ50.s 			page 41


 967              		.thumb_func
 968              		.type	lv_roller_set_visible_row_count, %function
 969              	lv_roller_set_visible_row_count:
 970              	.LFB63:
 221:..\..\..\lvgl\version_6.1.2\lvgl\src\lv_objx/lv_roller.c **** 
 222:..\..\..\lvgl\version_6.1.2\lvgl\src\lv_objx/lv_roller.c **** /**
 223:..\..\..\lvgl\version_6.1.2\lvgl\src\lv_objx/lv_roller.c ****  * Set the height to show the given number of rows (options)
 224:..\..\..\lvgl\version_6.1.2\lvgl\src\lv_objx/lv_roller.c ****  * @param roller pointer to a roller object
 225:..\..\..\lvgl\version_6.1.2\lvgl\src\lv_objx/lv_roller.c ****  * @param row_cnt number of desired visible rows
 226:..\..\..\lvgl\version_6.1.2\lvgl\src\lv_objx/lv_roller.c ****  */
 227:..\..\..\lvgl\version_6.1.2\lvgl\src\lv_objx/lv_roller.c **** void lv_roller_set_visible_row_count(lv_obj_t * roller, uint8_t row_cnt)
 228:..\..\..\lvgl\version_6.1.2\lvgl\src\lv_objx/lv_roller.c **** {
 971              		.loc 7 228 0
 972              		.cfi_startproc
 973              		@ args = 0, pretend = 0, frame = 24
 974              		@ frame_needed = 1, uses_anonymous_args = 0
 975 0000 80B5     		push	{r7, lr}
 976              		.cfi_def_cfa_offset 8
 977              		.cfi_offset 7, -8
 978              		.cfi_offset 14, -4
 979 0002 86B0     		sub	sp, sp, #24
 980              		.cfi_def_cfa_offset 32
 981 0004 00AF     		add	r7, sp, #0
 982              		.cfi_def_cfa_register 7
 983 0006 7860     		str	r0, [r7, #4]
 984 0008 0B46     		mov	r3, r1
 985 000a FB70     		strb	r3, [r7, #3]
 229:..\..\..\lvgl\version_6.1.2\lvgl\src\lv_objx/lv_roller.c ****     LV_ASSERT_OBJ(roller, LV_OBJX_NAME);
 230:..\..\..\lvgl\version_6.1.2\lvgl\src\lv_objx/lv_roller.c **** 
 231:..\..\..\lvgl\version_6.1.2\lvgl\src\lv_objx/lv_roller.c ****     lv_roller_ext_t * ext          = lv_obj_get_ext_attr(roller);
 986              		.loc 7 231 0
 987 000c 7868     		ldr	r0, [r7, #4]
 988 000e FFF7FEFF 		bl	lv_obj_get_ext_attr
 989 0012 7861     		str	r0, [r7, #20]
 232:..\..\..\lvgl\version_6.1.2\lvgl\src\lv_objx/lv_roller.c ****     const lv_style_t * style_label = lv_obj_get_style(ext->ddlist.label);
 990              		.loc 7 232 0
 991 0014 7B69     		ldr	r3, [r7, #20]
 992 0016 1B6B     		ldr	r3, [r3, #48]
 993 0018 1846     		mov	r0, r3
 994 001a FFF7FEFF 		bl	lv_obj_get_style
 995 001e 3861     		str	r0, [r7, #16]
 233:..\..\..\lvgl\version_6.1.2\lvgl\src\lv_objx/lv_roller.c ****     uint8_t n_line_space           = (row_cnt > 1) ? row_cnt - 1 : 1;
 996              		.loc 7 233 0
 997 0020 FB78     		ldrb	r3, [r7, #3]	@ zero_extendqisi2
 998 0022 012B     		cmp	r3, #1
 999 0024 03D9     		bls	.L49
 1000              		.loc 7 233 0 is_stmt 0 discriminator 1
 1001 0026 FB78     		ldrb	r3, [r7, #3]
 1002 0028 013B     		subs	r3, r3, #1
 1003 002a DBB2     		uxtb	r3, r3
 1004 002c 00E0     		b	.L50
 1005              	.L49:
 1006              		.loc 7 233 0 discriminator 2
 1007 002e 0123     		movs	r3, #1
 1008              	.L50:
 1009              		.loc 7 233 0 discriminator 4
 1010 0030 FB73     		strb	r3, [r7, #15]
ARM GAS  C:\Users\tmj32\AppData\Local\Temp\ccT5YJ50.s 			page 42


 234:..\..\..\lvgl\version_6.1.2\lvgl\src\lv_objx/lv_roller.c ****     lv_ddlist_set_fix_height(roller, lv_font_get_line_height(style_label->text.font) * row_cnt +
 1011              		.loc 7 234 0 is_stmt 1 discriminator 4
 1012 0032 3B69     		ldr	r3, [r7, #16]
 1013 0034 5B6B     		ldr	r3, [r3, #52]
 1014 0036 1846     		mov	r0, r3
 1015 0038 FFF7FEFF 		bl	lv_font_get_line_height
 1016 003c 0346     		mov	r3, r0
 1017 003e 9AB2     		uxth	r2, r3
 1018 0040 FB78     		ldrb	r3, [r7, #3]	@ zero_extendqisi2
 1019 0042 9BB2     		uxth	r3, r3
 1020 0044 12FB03F3 		smulbb	r3, r2, r3
 1021 0048 9AB2     		uxth	r2, r3
 235:..\..\..\lvgl\version_6.1.2\lvgl\src\lv_objx/lv_roller.c ****                                          style_label->text.line_space * n_line_space);
 1022              		.loc 7 235 0 discriminator 4
 1023 004a 3B69     		ldr	r3, [r7, #16]
 1024 004c B3F93A30 		ldrsh	r3, [r3, #58]
 234:..\..\..\lvgl\version_6.1.2\lvgl\src\lv_objx/lv_roller.c ****     lv_ddlist_set_fix_height(roller, lv_font_get_line_height(style_label->text.font) * row_cnt +
 1025              		.loc 7 234 0 discriminator 4
 1026 0050 99B2     		uxth	r1, r3
 1027 0052 FB7B     		ldrb	r3, [r7, #15]	@ zero_extendqisi2
 1028 0054 9BB2     		uxth	r3, r3
 1029 0056 11FB03F3 		smulbb	r3, r1, r3
 1030 005a 9BB2     		uxth	r3, r3
 1031 005c 1344     		add	r3, r3, r2
 1032 005e 9BB2     		uxth	r3, r3
 1033 0060 1BB2     		sxth	r3, r3
 1034 0062 1946     		mov	r1, r3
 1035 0064 7868     		ldr	r0, [r7, #4]
 1036 0066 FFF7FEFF 		bl	lv_ddlist_set_fix_height
 236:..\..\..\lvgl\version_6.1.2\lvgl\src\lv_objx/lv_roller.c **** }
 1037              		.loc 7 236 0 discriminator 4
 1038 006a 00BF     		nop
 1039 006c 1837     		adds	r7, r7, #24
 1040              		.cfi_def_cfa_offset 8
 1041 006e BD46     		mov	sp, r7
 1042              		.cfi_def_cfa_register 13
 1043              		@ sp needed
 1044 0070 80BD     		pop	{r7, pc}
 1045              		.cfi_endproc
 1046              	.LFE63:
 1047              		.size	lv_roller_set_visible_row_count, .-lv_roller_set_visible_row_count
 1048 0072 00BF     		.section	.text.lv_roller_set_style,"ax",%progbits
 1049              		.align	2
 1050              		.global	lv_roller_set_style
 1051              		.thumb
 1052              		.thumb_func
 1053              		.type	lv_roller_set_style, %function
 1054              	lv_roller_set_style:
 1055              	.LFB64:
 237:..\..\..\lvgl\version_6.1.2\lvgl\src\lv_objx/lv_roller.c **** 
 238:..\..\..\lvgl\version_6.1.2\lvgl\src\lv_objx/lv_roller.c **** /**
 239:..\..\..\lvgl\version_6.1.2\lvgl\src\lv_objx/lv_roller.c ****  * Set a style of a roller
 240:..\..\..\lvgl\version_6.1.2\lvgl\src\lv_objx/lv_roller.c ****  * @param roller pointer to a roller object
 241:..\..\..\lvgl\version_6.1.2\lvgl\src\lv_objx/lv_roller.c ****  * @param type which style should be set
 242:..\..\..\lvgl\version_6.1.2\lvgl\src\lv_objx/lv_roller.c ****  * @param style pointer to a style
 243:..\..\..\lvgl\version_6.1.2\lvgl\src\lv_objx/lv_roller.c ****  */
 244:..\..\..\lvgl\version_6.1.2\lvgl\src\lv_objx/lv_roller.c **** void lv_roller_set_style(lv_obj_t * roller, lv_roller_style_t type, const lv_style_t * style)
ARM GAS  C:\Users\tmj32\AppData\Local\Temp\ccT5YJ50.s 			page 43


 245:..\..\..\lvgl\version_6.1.2\lvgl\src\lv_objx/lv_roller.c **** {
 1056              		.loc 7 245 0
 1057              		.cfi_startproc
 1058              		@ args = 0, pretend = 0, frame = 16
 1059              		@ frame_needed = 1, uses_anonymous_args = 0
 1060 0000 80B5     		push	{r7, lr}
 1061              		.cfi_def_cfa_offset 8
 1062              		.cfi_offset 7, -8
 1063              		.cfi_offset 14, -4
 1064 0002 84B0     		sub	sp, sp, #16
 1065              		.cfi_def_cfa_offset 24
 1066 0004 00AF     		add	r7, sp, #0
 1067              		.cfi_def_cfa_register 7
 1068 0006 F860     		str	r0, [r7, #12]
 1069 0008 0B46     		mov	r3, r1
 1070 000a 7A60     		str	r2, [r7, #4]
 1071 000c FB72     		strb	r3, [r7, #11]
 246:..\..\..\lvgl\version_6.1.2\lvgl\src\lv_objx/lv_roller.c ****     LV_ASSERT_OBJ(roller, LV_OBJX_NAME);
 247:..\..\..\lvgl\version_6.1.2\lvgl\src\lv_objx/lv_roller.c **** 
 248:..\..\..\lvgl\version_6.1.2\lvgl\src\lv_objx/lv_roller.c ****     switch(type) {
 1072              		.loc 7 248 0
 1073 000e FB7A     		ldrb	r3, [r7, #11]	@ zero_extendqisi2
 1074 0010 002B     		cmp	r3, #0
 1075 0012 02D0     		beq	.L53
 1076 0014 012B     		cmp	r3, #1
 1077 0016 05D0     		beq	.L54
 249:..\..\..\lvgl\version_6.1.2\lvgl\src\lv_objx/lv_roller.c ****         case LV_ROLLER_STYLE_BG: lv_obj_set_style(roller, style); break;
 250:..\..\..\lvgl\version_6.1.2\lvgl\src\lv_objx/lv_roller.c ****         case LV_ROLLER_STYLE_SEL: lv_ddlist_set_style(roller, LV_DDLIST_STYLE_SEL, style); break;
 251:..\..\..\lvgl\version_6.1.2\lvgl\src\lv_objx/lv_roller.c ****     }
 252:..\..\..\lvgl\version_6.1.2\lvgl\src\lv_objx/lv_roller.c **** }
 1078              		.loc 7 252 0
 1079 0018 0AE0     		b	.L55
 1080              	.L53:
 249:..\..\..\lvgl\version_6.1.2\lvgl\src\lv_objx/lv_roller.c ****         case LV_ROLLER_STYLE_BG: lv_obj_set_style(roller, style); break;
 1081              		.loc 7 249 0
 1082 001a 7968     		ldr	r1, [r7, #4]
 1083 001c F868     		ldr	r0, [r7, #12]
 1084 001e FFF7FEFF 		bl	lv_obj_set_style
 1085 0022 05E0     		b	.L52
 1086              	.L54:
 250:..\..\..\lvgl\version_6.1.2\lvgl\src\lv_objx/lv_roller.c ****     }
 1087              		.loc 7 250 0
 1088 0024 7A68     		ldr	r2, [r7, #4]
 1089 0026 0121     		movs	r1, #1
 1090 0028 F868     		ldr	r0, [r7, #12]
 1091 002a FFF7FEFF 		bl	lv_ddlist_set_style
 1092 002e 00BF     		nop
 1093              	.L52:
 1094              	.L55:
 1095              		.loc 7 252 0
 1096 0030 00BF     		nop
 1097 0032 1037     		adds	r7, r7, #16
 1098              		.cfi_def_cfa_offset 8
 1099 0034 BD46     		mov	sp, r7
 1100              		.cfi_def_cfa_register 13
 1101              		@ sp needed
 1102 0036 80BD     		pop	{r7, pc}
ARM GAS  C:\Users\tmj32\AppData\Local\Temp\ccT5YJ50.s 			page 44


 1103              		.cfi_endproc
 1104              	.LFE64:
 1105              		.size	lv_roller_set_style, .-lv_roller_set_style
 1106              		.section	.text.lv_roller_get_selected,"ax",%progbits
 1107              		.align	2
 1108              		.global	lv_roller_get_selected
 1109              		.thumb
 1110              		.thumb_func
 1111              		.type	lv_roller_get_selected, %function
 1112              	lv_roller_get_selected:
 1113              	.LFB65:
 253:..\..\..\lvgl\version_6.1.2\lvgl\src\lv_objx/lv_roller.c **** 
 254:..\..\..\lvgl\version_6.1.2\lvgl\src\lv_objx/lv_roller.c **** /*=====================
 255:..\..\..\lvgl\version_6.1.2\lvgl\src\lv_objx/lv_roller.c ****  * Getter functions
 256:..\..\..\lvgl\version_6.1.2\lvgl\src\lv_objx/lv_roller.c ****  *====================*/
 257:..\..\..\lvgl\version_6.1.2\lvgl\src\lv_objx/lv_roller.c **** 
 258:..\..\..\lvgl\version_6.1.2\lvgl\src\lv_objx/lv_roller.c **** /**
 259:..\..\..\lvgl\version_6.1.2\lvgl\src\lv_objx/lv_roller.c ****  * Get the id of the selected option
 260:..\..\..\lvgl\version_6.1.2\lvgl\src\lv_objx/lv_roller.c ****  * @param roller pointer to a roller object
 261:..\..\..\lvgl\version_6.1.2\lvgl\src\lv_objx/lv_roller.c ****  * @return id of the selected option (0 ... number of option - 1);
 262:..\..\..\lvgl\version_6.1.2\lvgl\src\lv_objx/lv_roller.c ****  */
 263:..\..\..\lvgl\version_6.1.2\lvgl\src\lv_objx/lv_roller.c **** uint16_t lv_roller_get_selected(const lv_obj_t * roller)
 264:..\..\..\lvgl\version_6.1.2\lvgl\src\lv_objx/lv_roller.c **** {
 1114              		.loc 7 264 0
 1115              		.cfi_startproc
 1116              		@ args = 0, pretend = 0, frame = 16
 1117              		@ frame_needed = 1, uses_anonymous_args = 0
 1118 0000 80B5     		push	{r7, lr}
 1119              		.cfi_def_cfa_offset 8
 1120              		.cfi_offset 7, -8
 1121              		.cfi_offset 14, -4
 1122 0002 84B0     		sub	sp, sp, #16
 1123              		.cfi_def_cfa_offset 24
 1124 0004 00AF     		add	r7, sp, #0
 1125              		.cfi_def_cfa_register 7
 1126 0006 7860     		str	r0, [r7, #4]
 265:..\..\..\lvgl\version_6.1.2\lvgl\src\lv_objx/lv_roller.c ****     LV_ASSERT_OBJ(roller, LV_OBJX_NAME);
 266:..\..\..\lvgl\version_6.1.2\lvgl\src\lv_objx/lv_roller.c **** 
 267:..\..\..\lvgl\version_6.1.2\lvgl\src\lv_objx/lv_roller.c ****     lv_roller_ext_t * ext = lv_obj_get_ext_attr(roller);
 1127              		.loc 7 267 0
 1128 0008 7868     		ldr	r0, [r7, #4]
 1129 000a FFF7FEFF 		bl	lv_obj_get_ext_attr
 1130 000e F860     		str	r0, [r7, #12]
 268:..\..\..\lvgl\version_6.1.2\lvgl\src\lv_objx/lv_roller.c ****     if(ext->mode == LV_ROLLER_MODE_INIFINITE) {
 1131              		.loc 7 268 0
 1132 0010 FB68     		ldr	r3, [r7, #12]
 1133 0012 93F84430 		ldrb	r3, [r3, #68]	@ zero_extendqisi2
 1134 0016 03F00103 		and	r3, r3, #1
 1135 001a DBB2     		uxtb	r3, r3
 1136 001c 002B     		cmp	r3, #0
 1137 001e 16D0     		beq	.L57
 1138              	.LBB5:
 269:..\..\..\lvgl\version_6.1.2\lvgl\src\lv_objx/lv_roller.c ****         uint16_t real_id_cnt = ext->ddlist.option_cnt / LV_ROLLER_INF_PAGES;
 1139              		.loc 7 269 0
 1140 0020 FB68     		ldr	r3, [r7, #12]
 1141 0022 1A8F     		ldrh	r2, [r3, #56]
 1142 0024 0E4B     		ldr	r3, .L59
ARM GAS  C:\Users\tmj32\AppData\Local\Temp\ccT5YJ50.s 			page 45


 1143 0026 A3FB0213 		umull	r1, r3, r3, r2
 1144 002a D21A     		subs	r2, r2, r3
 1145 002c 5208     		lsrs	r2, r2, #1
 1146 002e 1344     		add	r3, r3, r2
 1147 0030 9B08     		lsrs	r3, r3, #2
 1148 0032 7B81     		strh	r3, [r7, #10]	@ movhi
 270:..\..\..\lvgl\version_6.1.2\lvgl\src\lv_objx/lv_roller.c ****         return lv_ddlist_get_selected(roller) % real_id_cnt;
 1149              		.loc 7 270 0
 1150 0034 7868     		ldr	r0, [r7, #4]
 1151 0036 FFF7FEFF 		bl	lv_ddlist_get_selected
 1152 003a 0346     		mov	r3, r0
 1153 003c 1A46     		mov	r2, r3
 1154 003e 7B89     		ldrh	r3, [r7, #10]
 1155 0040 B2FBF3F1 		udiv	r1, r2, r3
 1156 0044 03FB01F3 		mul	r3, r3, r1
 1157 0048 D31A     		subs	r3, r2, r3
 1158 004a 9BB2     		uxth	r3, r3
 1159 004c 03E0     		b	.L58
 1160              	.L57:
 1161              	.LBE5:
 271:..\..\..\lvgl\version_6.1.2\lvgl\src\lv_objx/lv_roller.c ****     } else {
 272:..\..\..\lvgl\version_6.1.2\lvgl\src\lv_objx/lv_roller.c ****         return lv_ddlist_get_selected(roller);
 1162              		.loc 7 272 0
 1163 004e 7868     		ldr	r0, [r7, #4]
 1164 0050 FFF7FEFF 		bl	lv_ddlist_get_selected
 1165 0054 0346     		mov	r3, r0
 1166              	.L58:
 273:..\..\..\lvgl\version_6.1.2\lvgl\src\lv_objx/lv_roller.c ****     }
 274:..\..\..\lvgl\version_6.1.2\lvgl\src\lv_objx/lv_roller.c **** }
 1167              		.loc 7 274 0
 1168 0056 1846     		mov	r0, r3
 1169 0058 1037     		adds	r7, r7, #16
 1170              		.cfi_def_cfa_offset 8
 1171 005a BD46     		mov	sp, r7
 1172              		.cfi_def_cfa_register 13
 1173              		@ sp needed
 1174 005c 80BD     		pop	{r7, pc}
 1175              	.L60:
 1176 005e 00BF     		.align	2
 1177              	.L59:
 1178 0060 25499224 		.word	613566757
 1179              		.cfi_endproc
 1180              	.LFE65:
 1181              		.size	lv_roller_get_selected, .-lv_roller_get_selected
 1182              		.section	.text.lv_roller_get_align,"ax",%progbits
 1183              		.align	2
 1184              		.global	lv_roller_get_align
 1185              		.thumb
 1186              		.thumb_func
 1187              		.type	lv_roller_get_align, %function
 1188              	lv_roller_get_align:
 1189              	.LFB66:
 275:..\..\..\lvgl\version_6.1.2\lvgl\src\lv_objx/lv_roller.c **** 
 276:..\..\..\lvgl\version_6.1.2\lvgl\src\lv_objx/lv_roller.c **** /**
 277:..\..\..\lvgl\version_6.1.2\lvgl\src\lv_objx/lv_roller.c ****  * Get the align attribute. Default alignment after _create is LV_LABEL_ALIGN_CENTER
 278:..\..\..\lvgl\version_6.1.2\lvgl\src\lv_objx/lv_roller.c ****  * @param roller pointer to a roller object
 279:..\..\..\lvgl\version_6.1.2\lvgl\src\lv_objx/lv_roller.c ****  * @return LV_LABEL_ALIGN_LEFT, LV_LABEL_ALIGN_RIGHT or LV_LABEL_ALIGN_CENTER
ARM GAS  C:\Users\tmj32\AppData\Local\Temp\ccT5YJ50.s 			page 46


 280:..\..\..\lvgl\version_6.1.2\lvgl\src\lv_objx/lv_roller.c ****  */
 281:..\..\..\lvgl\version_6.1.2\lvgl\src\lv_objx/lv_roller.c **** lv_label_align_t lv_roller_get_align(const lv_obj_t * roller)
 282:..\..\..\lvgl\version_6.1.2\lvgl\src\lv_objx/lv_roller.c **** {
 1190              		.loc 7 282 0
 1191              		.cfi_startproc
 1192              		@ args = 0, pretend = 0, frame = 16
 1193              		@ frame_needed = 1, uses_anonymous_args = 0
 1194 0000 80B5     		push	{r7, lr}
 1195              		.cfi_def_cfa_offset 8
 1196              		.cfi_offset 7, -8
 1197              		.cfi_offset 14, -4
 1198 0002 84B0     		sub	sp, sp, #16
 1199              		.cfi_def_cfa_offset 24
 1200 0004 00AF     		add	r7, sp, #0
 1201              		.cfi_def_cfa_register 7
 1202 0006 7860     		str	r0, [r7, #4]
 283:..\..\..\lvgl\version_6.1.2\lvgl\src\lv_objx/lv_roller.c ****     LV_ASSERT_OBJ(roller, LV_OBJX_NAME);
 284:..\..\..\lvgl\version_6.1.2\lvgl\src\lv_objx/lv_roller.c **** 
 285:..\..\..\lvgl\version_6.1.2\lvgl\src\lv_objx/lv_roller.c ****     lv_roller_ext_t * ext = lv_obj_get_ext_attr(roller);
 1203              		.loc 7 285 0
 1204 0008 7868     		ldr	r0, [r7, #4]
 1205 000a FFF7FEFF 		bl	lv_obj_get_ext_attr
 1206 000e F860     		str	r0, [r7, #12]
 286:..\..\..\lvgl\version_6.1.2\lvgl\src\lv_objx/lv_roller.c ****     LV_ASSERT_MEM(ext);
 287:..\..\..\lvgl\version_6.1.2\lvgl\src\lv_objx/lv_roller.c ****     LV_ASSERT_MEM(ext->ddlist.label);
 288:..\..\..\lvgl\version_6.1.2\lvgl\src\lv_objx/lv_roller.c ****     return lv_label_get_align(ext->ddlist.label);
 1207              		.loc 7 288 0
 1208 0010 FB68     		ldr	r3, [r7, #12]
 1209 0012 1B6B     		ldr	r3, [r3, #48]
 1210 0014 1846     		mov	r0, r3
 1211 0016 FFF7FEFF 		bl	lv_label_get_align
 1212 001a 0346     		mov	r3, r0
 289:..\..\..\lvgl\version_6.1.2\lvgl\src\lv_objx/lv_roller.c **** }
 1213              		.loc 7 289 0
 1214 001c 1846     		mov	r0, r3
 1215 001e 1037     		adds	r7, r7, #16
 1216              		.cfi_def_cfa_offset 8
 1217 0020 BD46     		mov	sp, r7
 1218              		.cfi_def_cfa_register 13
 1219              		@ sp needed
 1220 0022 80BD     		pop	{r7, pc}
 1221              		.cfi_endproc
 1222              	.LFE66:
 1223              		.size	lv_roller_get_align, .-lv_roller_get_align
 1224              		.section	.text.lv_roller_get_hor_fit,"ax",%progbits
 1225              		.align	2
 1226              		.global	lv_roller_get_hor_fit
 1227              		.thumb
 1228              		.thumb_func
 1229              		.type	lv_roller_get_hor_fit, %function
 1230              	lv_roller_get_hor_fit:
 1231              	.LFB67:
 290:..\..\..\lvgl\version_6.1.2\lvgl\src\lv_objx/lv_roller.c **** 
 291:..\..\..\lvgl\version_6.1.2\lvgl\src\lv_objx/lv_roller.c **** /**
 292:..\..\..\lvgl\version_6.1.2\lvgl\src\lv_objx/lv_roller.c ****  * Get the auto width set attribute
 293:..\..\..\lvgl\version_6.1.2\lvgl\src\lv_objx/lv_roller.c ****  * @param roller pointer to a roller object
 294:..\..\..\lvgl\version_6.1.2\lvgl\src\lv_objx/lv_roller.c ****  * @return true: auto size enabled; false: manual width settings enabled
ARM GAS  C:\Users\tmj32\AppData\Local\Temp\ccT5YJ50.s 			page 47


 295:..\..\..\lvgl\version_6.1.2\lvgl\src\lv_objx/lv_roller.c ****  */
 296:..\..\..\lvgl\version_6.1.2\lvgl\src\lv_objx/lv_roller.c **** bool lv_roller_get_hor_fit(const lv_obj_t * roller)
 297:..\..\..\lvgl\version_6.1.2\lvgl\src\lv_objx/lv_roller.c **** {
 1232              		.loc 7 297 0
 1233              		.cfi_startproc
 1234              		@ args = 0, pretend = 0, frame = 8
 1235              		@ frame_needed = 1, uses_anonymous_args = 0
 1236 0000 80B5     		push	{r7, lr}
 1237              		.cfi_def_cfa_offset 8
 1238              		.cfi_offset 7, -8
 1239              		.cfi_offset 14, -4
 1240 0002 82B0     		sub	sp, sp, #8
 1241              		.cfi_def_cfa_offset 16
 1242 0004 00AF     		add	r7, sp, #0
 1243              		.cfi_def_cfa_register 7
 1244 0006 7860     		str	r0, [r7, #4]
 298:..\..\..\lvgl\version_6.1.2\lvgl\src\lv_objx/lv_roller.c ****     LV_ASSERT_OBJ(roller, LV_OBJX_NAME);
 299:..\..\..\lvgl\version_6.1.2\lvgl\src\lv_objx/lv_roller.c **** 
 300:..\..\..\lvgl\version_6.1.2\lvgl\src\lv_objx/lv_roller.c ****     return lv_page_get_scrl_fit_left(roller);
 1245              		.loc 7 300 0
 1246 0008 7868     		ldr	r0, [r7, #4]
 1247 000a FFF7FEFF 		bl	lv_page_get_scrl_fit_left
 1248 000e 0346     		mov	r3, r0
 1249 0010 002B     		cmp	r3, #0
 1250 0012 14BF     		ite	ne
 1251 0014 0123     		movne	r3, #1
 1252 0016 0023     		moveq	r3, #0
 1253 0018 DBB2     		uxtb	r3, r3
 301:..\..\..\lvgl\version_6.1.2\lvgl\src\lv_objx/lv_roller.c **** }
 1254              		.loc 7 301 0
 1255 001a 1846     		mov	r0, r3
 1256 001c 0837     		adds	r7, r7, #8
 1257              		.cfi_def_cfa_offset 8
 1258 001e BD46     		mov	sp, r7
 1259              		.cfi_def_cfa_register 13
 1260              		@ sp needed
 1261 0020 80BD     		pop	{r7, pc}
 1262              		.cfi_endproc
 1263              	.LFE67:
 1264              		.size	lv_roller_get_hor_fit, .-lv_roller_get_hor_fit
 1265 0022 00BF     		.section	.text.lv_roller_get_style,"ax",%progbits
 1266              		.align	2
 1267              		.global	lv_roller_get_style
 1268              		.thumb
 1269              		.thumb_func
 1270              		.type	lv_roller_get_style, %function
 1271              	lv_roller_get_style:
 1272              	.LFB68:
 302:..\..\..\lvgl\version_6.1.2\lvgl\src\lv_objx/lv_roller.c **** 
 303:..\..\..\lvgl\version_6.1.2\lvgl\src\lv_objx/lv_roller.c **** /**
 304:..\..\..\lvgl\version_6.1.2\lvgl\src\lv_objx/lv_roller.c ****  * Get a style of a roller
 305:..\..\..\lvgl\version_6.1.2\lvgl\src\lv_objx/lv_roller.c ****  * @param roller pointer to a roller object
 306:..\..\..\lvgl\version_6.1.2\lvgl\src\lv_objx/lv_roller.c ****  * @param type which style should be get
 307:..\..\..\lvgl\version_6.1.2\lvgl\src\lv_objx/lv_roller.c ****  * @return style pointer to a style
 308:..\..\..\lvgl\version_6.1.2\lvgl\src\lv_objx/lv_roller.c ****  *  */
 309:..\..\..\lvgl\version_6.1.2\lvgl\src\lv_objx/lv_roller.c **** const lv_style_t * lv_roller_get_style(const lv_obj_t * roller, lv_roller_style_t type)
 310:..\..\..\lvgl\version_6.1.2\lvgl\src\lv_objx/lv_roller.c **** {
ARM GAS  C:\Users\tmj32\AppData\Local\Temp\ccT5YJ50.s 			page 48


 1273              		.loc 7 310 0
 1274              		.cfi_startproc
 1275              		@ args = 0, pretend = 0, frame = 8
 1276              		@ frame_needed = 1, uses_anonymous_args = 0
 1277 0000 80B5     		push	{r7, lr}
 1278              		.cfi_def_cfa_offset 8
 1279              		.cfi_offset 7, -8
 1280              		.cfi_offset 14, -4
 1281 0002 82B0     		sub	sp, sp, #8
 1282              		.cfi_def_cfa_offset 16
 1283 0004 00AF     		add	r7, sp, #0
 1284              		.cfi_def_cfa_register 7
 1285 0006 7860     		str	r0, [r7, #4]
 1286 0008 0B46     		mov	r3, r1
 1287 000a FB70     		strb	r3, [r7, #3]
 311:..\..\..\lvgl\version_6.1.2\lvgl\src\lv_objx/lv_roller.c ****     LV_ASSERT_OBJ(roller, LV_OBJX_NAME);
 312:..\..\..\lvgl\version_6.1.2\lvgl\src\lv_objx/lv_roller.c **** 
 313:..\..\..\lvgl\version_6.1.2\lvgl\src\lv_objx/lv_roller.c ****     switch(type) {
 1288              		.loc 7 313 0
 1289 000c FB78     		ldrb	r3, [r7, #3]	@ zero_extendqisi2
 1290 000e 002B     		cmp	r3, #0
 1291 0010 02D0     		beq	.L67
 1292 0012 012B     		cmp	r3, #1
 1293 0014 05D0     		beq	.L68
 1294 0016 0AE0     		b	.L70
 1295              	.L67:
 314:..\..\..\lvgl\version_6.1.2\lvgl\src\lv_objx/lv_roller.c ****         case LV_ROLLER_STYLE_BG: return lv_obj_get_style(roller);
 1296              		.loc 7 314 0
 1297 0018 7868     		ldr	r0, [r7, #4]
 1298 001a FFF7FEFF 		bl	lv_obj_get_style
 1299 001e 0346     		mov	r3, r0
 1300 0020 06E0     		b	.L69
 1301              	.L68:
 315:..\..\..\lvgl\version_6.1.2\lvgl\src\lv_objx/lv_roller.c ****         case LV_ROLLER_STYLE_SEL: return lv_ddlist_get_style(roller, LV_DDLIST_STYLE_SEL);
 1302              		.loc 7 315 0
 1303 0022 0121     		movs	r1, #1
 1304 0024 7868     		ldr	r0, [r7, #4]
 1305 0026 FFF7FEFF 		bl	lv_ddlist_get_style
 1306 002a 0346     		mov	r3, r0
 1307 002c 00E0     		b	.L69
 1308              	.L70:
 316:..\..\..\lvgl\version_6.1.2\lvgl\src\lv_objx/lv_roller.c ****         default: return NULL;
 1309              		.loc 7 316 0
 1310 002e 0023     		movs	r3, #0
 1311              	.L69:
 317:..\..\..\lvgl\version_6.1.2\lvgl\src\lv_objx/lv_roller.c ****     }
 318:..\..\..\lvgl\version_6.1.2\lvgl\src\lv_objx/lv_roller.c **** 
 319:..\..\..\lvgl\version_6.1.2\lvgl\src\lv_objx/lv_roller.c ****     /*To avoid warning*/
 320:..\..\..\lvgl\version_6.1.2\lvgl\src\lv_objx/lv_roller.c ****     return NULL;
 321:..\..\..\lvgl\version_6.1.2\lvgl\src\lv_objx/lv_roller.c **** }
 1312              		.loc 7 321 0
 1313 0030 1846     		mov	r0, r3
 1314 0032 0837     		adds	r7, r7, #8
 1315              		.cfi_def_cfa_offset 8
 1316 0034 BD46     		mov	sp, r7
 1317              		.cfi_def_cfa_register 13
 1318              		@ sp needed
ARM GAS  C:\Users\tmj32\AppData\Local\Temp\ccT5YJ50.s 			page 49


 1319 0036 80BD     		pop	{r7, pc}
 1320              		.cfi_endproc
 1321              	.LFE68:
 1322              		.size	lv_roller_get_style, .-lv_roller_get_style
 1323              		.section	.text.lv_roller_design,"ax",%progbits
 1324              		.align	2
 1325              		.thumb
 1326              		.thumb_func
 1327              		.type	lv_roller_design, %function
 1328              	lv_roller_design:
 1329              	.LFB69:
 322:..\..\..\lvgl\version_6.1.2\lvgl\src\lv_objx/lv_roller.c **** 
 323:..\..\..\lvgl\version_6.1.2\lvgl\src\lv_objx/lv_roller.c **** /**********************
 324:..\..\..\lvgl\version_6.1.2\lvgl\src\lv_objx/lv_roller.c ****  *   STATIC FUNCTIONS
 325:..\..\..\lvgl\version_6.1.2\lvgl\src\lv_objx/lv_roller.c ****  **********************/
 326:..\..\..\lvgl\version_6.1.2\lvgl\src\lv_objx/lv_roller.c **** 
 327:..\..\..\lvgl\version_6.1.2\lvgl\src\lv_objx/lv_roller.c **** /**
 328:..\..\..\lvgl\version_6.1.2\lvgl\src\lv_objx/lv_roller.c ****  * Handle the drawing related tasks of the rollers
 329:..\..\..\lvgl\version_6.1.2\lvgl\src\lv_objx/lv_roller.c ****  * @param roller pointer to an object
 330:..\..\..\lvgl\version_6.1.2\lvgl\src\lv_objx/lv_roller.c ****  * @param mask the object will be drawn only in this area
 331:..\..\..\lvgl\version_6.1.2\lvgl\src\lv_objx/lv_roller.c ****  * @param mode LV_DESIGN_COVER_CHK: only check if the object fully covers the 'mask_p' area
 332:..\..\..\lvgl\version_6.1.2\lvgl\src\lv_objx/lv_roller.c ****  *                                  (return 'true' if yes)
 333:..\..\..\lvgl\version_6.1.2\lvgl\src\lv_objx/lv_roller.c ****  *             LV_DESIGN_DRAW: draw the object (always return 'true')
 334:..\..\..\lvgl\version_6.1.2\lvgl\src\lv_objx/lv_roller.c ****  *             LV_DESIGN_DRAW_POST: drawing after every children are drawn
 335:..\..\..\lvgl\version_6.1.2\lvgl\src\lv_objx/lv_roller.c ****  * @param return true/false, depends on 'mode'
 336:..\..\..\lvgl\version_6.1.2\lvgl\src\lv_objx/lv_roller.c ****  */
 337:..\..\..\lvgl\version_6.1.2\lvgl\src\lv_objx/lv_roller.c **** static bool lv_roller_design(lv_obj_t * roller, const lv_area_t * mask, lv_design_mode_t mode)
 338:..\..\..\lvgl\version_6.1.2\lvgl\src\lv_objx/lv_roller.c **** {
 1330              		.loc 7 338 0
 1331              		.cfi_startproc
 1332              		@ args = 0, pretend = 0, frame = 176
 1333              		@ frame_needed = 1, uses_anonymous_args = 0
 1334 0000 B0B5     		push	{r4, r5, r7, lr}
 1335              		.cfi_def_cfa_offset 16
 1336              		.cfi_offset 4, -16
 1337              		.cfi_offset 5, -12
 1338              		.cfi_offset 7, -8
 1339              		.cfi_offset 14, -4
 1340 0002 B2B0     		sub	sp, sp, #200
 1341              		.cfi_def_cfa_offset 216
 1342 0004 06AF     		add	r7, sp, #24
 1343              		.cfi_def_cfa 7, 192
 1344 0006 F860     		str	r0, [r7, #12]
 1345 0008 B960     		str	r1, [r7, #8]
 1346 000a 1346     		mov	r3, r2
 1347 000c FB71     		strb	r3, [r7, #7]
 339:..\..\..\lvgl\version_6.1.2\lvgl\src\lv_objx/lv_roller.c ****     /*Return false if the object is not covers the mask_p area*/
 340:..\..\..\lvgl\version_6.1.2\lvgl\src\lv_objx/lv_roller.c ****     if(mode == LV_DESIGN_COVER_CHK) {
 1348              		.loc 7 340 0
 1349 000e FB79     		ldrb	r3, [r7, #7]	@ zero_extendqisi2
 1350 0010 022B     		cmp	r3, #2
 1351 0012 01D1     		bne	.L72
 341:..\..\..\lvgl\version_6.1.2\lvgl\src\lv_objx/lv_roller.c ****         return false;
 1352              		.loc 7 341 0
 1353 0014 0023     		movs	r3, #0
 1354 0016 7EE1     		b	.L73
 1355              	.L72:
ARM GAS  C:\Users\tmj32\AppData\Local\Temp\ccT5YJ50.s 			page 50


 342:..\..\..\lvgl\version_6.1.2\lvgl\src\lv_objx/lv_roller.c ****     }
 343:..\..\..\lvgl\version_6.1.2\lvgl\src\lv_objx/lv_roller.c ****     /*Draw the object*/
 344:..\..\..\lvgl\version_6.1.2\lvgl\src\lv_objx/lv_roller.c ****     else if(mode == LV_DESIGN_DRAW_MAIN) {
 1356              		.loc 7 344 0
 1357 0018 FB79     		ldrb	r3, [r7, #7]	@ zero_extendqisi2
 1358 001a 002B     		cmp	r3, #0
 1359 001c 40F09080 		bne	.L74
 1360              	.LBB6:
 345:..\..\..\lvgl\version_6.1.2\lvgl\src\lv_objx/lv_roller.c ****         draw_bg(roller, mask);
 1361              		.loc 7 345 0
 1362 0020 B968     		ldr	r1, [r7, #8]
 1363 0022 F868     		ldr	r0, [r7, #12]
 1364 0024 FFF7FEFF 		bl	draw_bg
 346:..\..\..\lvgl\version_6.1.2\lvgl\src\lv_objx/lv_roller.c **** 
 347:..\..\..\lvgl\version_6.1.2\lvgl\src\lv_objx/lv_roller.c ****         const lv_style_t * style = lv_roller_get_style(roller, LV_ROLLER_STYLE_BG);
 1365              		.loc 7 347 0
 1366 0028 0021     		movs	r1, #0
 1367 002a F868     		ldr	r0, [r7, #12]
 1368 002c FFF7FEFF 		bl	lv_roller_get_style
 1369 0030 C7F8A800 		str	r0, [r7, #168]
 348:..\..\..\lvgl\version_6.1.2\lvgl\src\lv_objx/lv_roller.c ****         lv_opa_t opa_scale       = lv_obj_get_opa_scale(roller);
 1370              		.loc 7 348 0
 1371 0034 F868     		ldr	r0, [r7, #12]
 1372 0036 FFF7FEFF 		bl	lv_obj_get_opa_scale
 1373 003a 0346     		mov	r3, r0
 1374 003c 87F8A730 		strb	r3, [r7, #167]
 349:..\..\..\lvgl\version_6.1.2\lvgl\src\lv_objx/lv_roller.c ****         const lv_font_t * font   = style->text.font;
 1375              		.loc 7 349 0
 1376 0040 D7F8A830 		ldr	r3, [r7, #168]
 1377 0044 5B6B     		ldr	r3, [r3, #52]
 1378 0046 C7F8A030 		str	r3, [r7, #160]
 350:..\..\..\lvgl\version_6.1.2\lvgl\src\lv_objx/lv_roller.c ****         lv_roller_ext_t * ext    = lv_obj_get_ext_attr(roller);
 1379              		.loc 7 350 0
 1380 004a F868     		ldr	r0, [r7, #12]
 1381 004c FFF7FEFF 		bl	lv_obj_get_ext_attr
 1382 0050 C7F89C00 		str	r0, [r7, #156]
 351:..\..\..\lvgl\version_6.1.2\lvgl\src\lv_objx/lv_roller.c ****         lv_coord_t font_h        = lv_font_get_line_height(font);
 1383              		.loc 7 351 0
 1384 0054 D7F8A000 		ldr	r0, [r7, #160]
 1385 0058 FFF7FEFF 		bl	lv_font_get_line_height
 1386 005c 0346     		mov	r3, r0
 1387 005e A7F89A30 		strh	r3, [r7, #154]	@ movhi
 352:..\..\..\lvgl\version_6.1.2\lvgl\src\lv_objx/lv_roller.c ****         lv_area_t rect_area;
 353:..\..\..\lvgl\version_6.1.2\lvgl\src\lv_objx/lv_roller.c ****         rect_area.y1 = roller->coords.y1 + lv_obj_get_height(roller) / 2 - font_h / 2 - style->text
 1388              		.loc 7 353 0
 1389 0062 FB68     		ldr	r3, [r7, #12]
 1390 0064 B3F91230 		ldrsh	r3, [r3, #18]
 1391 0068 9CB2     		uxth	r4, r3
 1392 006a F868     		ldr	r0, [r7, #12]
 1393 006c FFF7FEFF 		bl	lv_obj_get_height
 1394 0070 0346     		mov	r3, r0
 1395 0072 DA0F     		lsrs	r2, r3, #31
 1396 0074 1344     		add	r3, r3, r2
 1397 0076 5B10     		asrs	r3, r3, #1
 1398 0078 1BB2     		sxth	r3, r3
 1399 007a 9BB2     		uxth	r3, r3
 1400 007c 2344     		add	r3, r3, r4
ARM GAS  C:\Users\tmj32\AppData\Local\Temp\ccT5YJ50.s 			page 51


 1401 007e 9AB2     		uxth	r2, r3
 1402 0080 B7F99A30 		ldrsh	r3, [r7, #154]
 1403 0084 D90F     		lsrs	r1, r3, #31
 1404 0086 0B44     		add	r3, r3, r1
 1405 0088 5B10     		asrs	r3, r3, #1
 1406 008a 1BB2     		sxth	r3, r3
 1407 008c 9BB2     		uxth	r3, r3
 1408 008e D31A     		subs	r3, r2, r3
 1409 0090 9AB2     		uxth	r2, r3
 1410 0092 D7F8A830 		ldr	r3, [r7, #168]
 1411 0096 B3F93A30 		ldrsh	r3, [r3, #58]
 1412 009a D90F     		lsrs	r1, r3, #31
 1413 009c 0B44     		add	r3, r3, r1
 1414 009e 5B10     		asrs	r3, r3, #1
 1415 00a0 1BB2     		sxth	r3, r3
 1416 00a2 9BB2     		uxth	r3, r3
 1417 00a4 D31A     		subs	r3, r2, r3
 1418 00a6 9BB2     		uxth	r3, r3
 1419 00a8 1BB2     		sxth	r3, r3
 1420 00aa A7F87A30 		strh	r3, [r7, #122]	@ movhi
 354:..\..\..\lvgl\version_6.1.2\lvgl\src\lv_objx/lv_roller.c ****         if((font_h & 0x1) && (style->text.line_space & 0x1)) rect_area.y1--; /*Compensate the two r
 1421              		.loc 7 354 0
 1422 00ae B7F89A30 		ldrh	r3, [r7, #154]
 1423 00b2 03F00103 		and	r3, r3, #1
 1424 00b6 002B     		cmp	r3, #0
 1425 00b8 10D0     		beq	.L75
 1426              		.loc 7 354 0 is_stmt 0 discriminator 1
 1427 00ba D7F8A830 		ldr	r3, [r7, #168]
 1428 00be B3F93A30 		ldrsh	r3, [r3, #58]
 1429 00c2 9BB2     		uxth	r3, r3
 1430 00c4 03F00103 		and	r3, r3, #1
 1431 00c8 002B     		cmp	r3, #0
 1432 00ca 07D0     		beq	.L75
 1433              		.loc 7 354 0 discriminator 2
 1434 00cc B7F97A30 		ldrsh	r3, [r7, #122]
 1435 00d0 9BB2     		uxth	r3, r3
 1436 00d2 013B     		subs	r3, r3, #1
 1437 00d4 9BB2     		uxth	r3, r3
 1438 00d6 1BB2     		sxth	r3, r3
 1439 00d8 A7F87A30 		strh	r3, [r7, #122]	@ movhi
 1440              	.L75:
 355:..\..\..\lvgl\version_6.1.2\lvgl\src\lv_objx/lv_roller.c ****         rect_area.y2 = rect_area.y1 + font_h + style->text.line_space - 1;
 1441              		.loc 7 355 0 is_stmt 1
 1442 00dc B7F97A30 		ldrsh	r3, [r7, #122]
 1443 00e0 9AB2     		uxth	r2, r3
 1444 00e2 B7F89A30 		ldrh	r3, [r7, #154]
 1445 00e6 1344     		add	r3, r3, r2
 1446 00e8 9AB2     		uxth	r2, r3
 1447 00ea D7F8A830 		ldr	r3, [r7, #168]
 1448 00ee B3F93A30 		ldrsh	r3, [r3, #58]
 1449 00f2 9BB2     		uxth	r3, r3
 1450 00f4 1344     		add	r3, r3, r2
 1451 00f6 9BB2     		uxth	r3, r3
 1452 00f8 013B     		subs	r3, r3, #1
 1453 00fa 9BB2     		uxth	r3, r3
 1454 00fc 1BB2     		sxth	r3, r3
 1455 00fe A7F87E30 		strh	r3, [r7, #126]	@ movhi
ARM GAS  C:\Users\tmj32\AppData\Local\Temp\ccT5YJ50.s 			page 52


 356:..\..\..\lvgl\version_6.1.2\lvgl\src\lv_objx/lv_roller.c ****         lv_area_t roller_coords;
 357:..\..\..\lvgl\version_6.1.2\lvgl\src\lv_objx/lv_roller.c ****         lv_obj_get_coords(roller, &roller_coords);
 1456              		.loc 7 357 0
 1457 0102 07F17003 		add	r3, r7, #112
 1458 0106 1946     		mov	r1, r3
 1459 0108 F868     		ldr	r0, [r7, #12]
 1460 010a FFF7FEFF 		bl	lv_obj_get_coords
 358:..\..\..\lvgl\version_6.1.2\lvgl\src\lv_objx/lv_roller.c ****         lv_obj_get_inner_coords(roller, &roller_coords);
 1461              		.loc 7 358 0
 1462 010e 07F17003 		add	r3, r7, #112
 1463 0112 1946     		mov	r1, r3
 1464 0114 F868     		ldr	r0, [r7, #12]
 1465 0116 FFF7FEFF 		bl	lv_obj_get_inner_coords
 359:..\..\..\lvgl\version_6.1.2\lvgl\src\lv_objx/lv_roller.c **** 
 360:..\..\..\lvgl\version_6.1.2\lvgl\src\lv_objx/lv_roller.c ****         rect_area.x1 = roller_coords.x1;
 1466              		.loc 7 360 0
 1467 011a B7F97030 		ldrsh	r3, [r7, #112]
 1468 011e A7F87830 		strh	r3, [r7, #120]	@ movhi
 361:..\..\..\lvgl\version_6.1.2\lvgl\src\lv_objx/lv_roller.c ****         rect_area.x2 = roller_coords.x2;
 1469              		.loc 7 361 0
 1470 0122 B7F97430 		ldrsh	r3, [r7, #116]
 1471 0126 A7F87C30 		strh	r3, [r7, #124]	@ movhi
 362:..\..\..\lvgl\version_6.1.2\lvgl\src\lv_objx/lv_roller.c **** 
 363:..\..\..\lvgl\version_6.1.2\lvgl\src\lv_objx/lv_roller.c ****         lv_draw_rect(&rect_area, mask, ext->ddlist.sel_style, opa_scale);
 1472              		.loc 7 363 0
 1473 012a D7F89C30 		ldr	r3, [r7, #156]
 1474 012e 5A6B     		ldr	r2, [r3, #52]
 1475 0130 97F8A730 		ldrb	r3, [r7, #167]	@ zero_extendqisi2
 1476 0134 07F17800 		add	r0, r7, #120
 1477 0138 B968     		ldr	r1, [r7, #8]
 1478 013a FFF7FEFF 		bl	lv_draw_rect
 1479              	.LBE6:
 1480 013e E9E0     		b	.L76
 1481              	.L74:
 364:..\..\..\lvgl\version_6.1.2\lvgl\src\lv_objx/lv_roller.c ****     }
 365:..\..\..\lvgl\version_6.1.2\lvgl\src\lv_objx/lv_roller.c ****     /*Post draw when the children are drawn*/
 366:..\..\..\lvgl\version_6.1.2\lvgl\src\lv_objx/lv_roller.c ****     else if(mode == LV_DESIGN_DRAW_POST) {
 1482              		.loc 7 366 0
 1483 0140 FB79     		ldrb	r3, [r7, #7]	@ zero_extendqisi2
 1484 0142 012B     		cmp	r3, #1
 1485 0144 40F0E680 		bne	.L76
 1486              	.LBB7:
 367:..\..\..\lvgl\version_6.1.2\lvgl\src\lv_objx/lv_roller.c ****         const lv_style_t * style = lv_roller_get_style(roller, LV_ROLLER_STYLE_BG);
 1487              		.loc 7 367 0
 1488 0148 0021     		movs	r1, #0
 1489 014a F868     		ldr	r0, [r7, #12]
 1490 014c FFF7FEFF 		bl	lv_roller_get_style
 1491 0150 C7F89400 		str	r0, [r7, #148]
 368:..\..\..\lvgl\version_6.1.2\lvgl\src\lv_objx/lv_roller.c ****         lv_roller_ext_t * ext    = lv_obj_get_ext_attr(roller);
 1492              		.loc 7 368 0
 1493 0154 F868     		ldr	r0, [r7, #12]
 1494 0156 FFF7FEFF 		bl	lv_obj_get_ext_attr
 1495 015a C7F89000 		str	r0, [r7, #144]
 369:..\..\..\lvgl\version_6.1.2\lvgl\src\lv_objx/lv_roller.c ****         const lv_font_t * font   = style->text.font;
 1496              		.loc 7 369 0
 1497 015e D7F89430 		ldr	r3, [r7, #148]
 1498 0162 5B6B     		ldr	r3, [r3, #52]
ARM GAS  C:\Users\tmj32\AppData\Local\Temp\ccT5YJ50.s 			page 53


 1499 0164 C7F88C30 		str	r3, [r7, #140]
 370:..\..\..\lvgl\version_6.1.2\lvgl\src\lv_objx/lv_roller.c ****         lv_coord_t font_h        = lv_font_get_line_height(font);
 1500              		.loc 7 370 0
 1501 0168 D7F88C00 		ldr	r0, [r7, #140]
 1502 016c FFF7FEFF 		bl	lv_font_get_line_height
 1503 0170 0346     		mov	r3, r0
 1504 0172 A7F88A30 		strh	r3, [r7, #138]	@ movhi
 371:..\..\..\lvgl\version_6.1.2\lvgl\src\lv_objx/lv_roller.c ****         lv_opa_t opa_scale       = lv_obj_get_opa_scale(roller);
 1505              		.loc 7 371 0
 1506 0176 F868     		ldr	r0, [r7, #12]
 1507 0178 FFF7FEFF 		bl	lv_obj_get_opa_scale
 1508 017c 0346     		mov	r3, r0
 1509 017e 87F88930 		strb	r3, [r7, #137]
 372:..\..\..\lvgl\version_6.1.2\lvgl\src\lv_objx/lv_roller.c **** 
 373:..\..\..\lvgl\version_6.1.2\lvgl\src\lv_objx/lv_roller.c ****         /*Redraw the text on the selected area with a different color*/
 374:..\..\..\lvgl\version_6.1.2\lvgl\src\lv_objx/lv_roller.c ****         lv_area_t rect_area;
 375:..\..\..\lvgl\version_6.1.2\lvgl\src\lv_objx/lv_roller.c ****         rect_area.y1 = roller->coords.y1 + lv_obj_get_height(roller) / 2 - font_h / 2 - style->text
 1510              		.loc 7 375 0
 1511 0182 FB68     		ldr	r3, [r7, #12]
 1512 0184 B3F91230 		ldrsh	r3, [r3, #18]
 1513 0188 9CB2     		uxth	r4, r3
 1514 018a F868     		ldr	r0, [r7, #12]
 1515 018c FFF7FEFF 		bl	lv_obj_get_height
 1516 0190 0346     		mov	r3, r0
 1517 0192 DA0F     		lsrs	r2, r3, #31
 1518 0194 1344     		add	r3, r3, r2
 1519 0196 5B10     		asrs	r3, r3, #1
 1520 0198 1BB2     		sxth	r3, r3
 1521 019a 9BB2     		uxth	r3, r3
 1522 019c 2344     		add	r3, r3, r4
 1523 019e 9AB2     		uxth	r2, r3
 1524 01a0 B7F98A30 		ldrsh	r3, [r7, #138]
 1525 01a4 D90F     		lsrs	r1, r3, #31
 1526 01a6 0B44     		add	r3, r3, r1
 1527 01a8 5B10     		asrs	r3, r3, #1
 1528 01aa 1BB2     		sxth	r3, r3
 1529 01ac 9BB2     		uxth	r3, r3
 1530 01ae D31A     		subs	r3, r2, r3
 1531 01b0 9AB2     		uxth	r2, r3
 1532 01b2 D7F89430 		ldr	r3, [r7, #148]
 1533 01b6 B3F93A30 		ldrsh	r3, [r3, #58]
 1534 01ba D90F     		lsrs	r1, r3, #31
 1535 01bc 0B44     		add	r3, r3, r1
 1536 01be 5B10     		asrs	r3, r3, #1
 1537 01c0 1BB2     		sxth	r3, r3
 1538 01c2 9BB2     		uxth	r3, r3
 1539 01c4 D31A     		subs	r3, r2, r3
 1540 01c6 9BB2     		uxth	r3, r3
 1541 01c8 1BB2     		sxth	r3, r3
 1542 01ca A7F86A30 		strh	r3, [r7, #106]	@ movhi
 376:..\..\..\lvgl\version_6.1.2\lvgl\src\lv_objx/lv_roller.c ****         if((font_h & 0x1) && (style->text.line_space & 0x1)) rect_area.y1--; /*Compensate the two r
 1543              		.loc 7 376 0
 1544 01ce B7F88A30 		ldrh	r3, [r7, #138]
 1545 01d2 03F00103 		and	r3, r3, #1
 1546 01d6 002B     		cmp	r3, #0
 1547 01d8 10D0     		beq	.L77
 1548              		.loc 7 376 0 is_stmt 0 discriminator 1
ARM GAS  C:\Users\tmj32\AppData\Local\Temp\ccT5YJ50.s 			page 54


 1549 01da D7F89430 		ldr	r3, [r7, #148]
 1550 01de B3F93A30 		ldrsh	r3, [r3, #58]
 1551 01e2 9BB2     		uxth	r3, r3
 1552 01e4 03F00103 		and	r3, r3, #1
 1553 01e8 002B     		cmp	r3, #0
 1554 01ea 07D0     		beq	.L77
 1555              		.loc 7 376 0 discriminator 2
 1556 01ec B7F96A30 		ldrsh	r3, [r7, #106]
 1557 01f0 9BB2     		uxth	r3, r3
 1558 01f2 013B     		subs	r3, r3, #1
 1559 01f4 9BB2     		uxth	r3, r3
 1560 01f6 1BB2     		sxth	r3, r3
 1561 01f8 A7F86A30 		strh	r3, [r7, #106]	@ movhi
 1562              	.L77:
 377:..\..\..\lvgl\version_6.1.2\lvgl\src\lv_objx/lv_roller.c ****         rect_area.y2 = rect_area.y1 + font_h + style->text.line_space - 1;
 1563              		.loc 7 377 0 is_stmt 1
 1564 01fc B7F96A30 		ldrsh	r3, [r7, #106]
 1565 0200 9AB2     		uxth	r2, r3
 1566 0202 B7F88A30 		ldrh	r3, [r7, #138]
 1567 0206 1344     		add	r3, r3, r2
 1568 0208 9AB2     		uxth	r2, r3
 1569 020a D7F89430 		ldr	r3, [r7, #148]
 1570 020e B3F93A30 		ldrsh	r3, [r3, #58]
 1571 0212 9BB2     		uxth	r3, r3
 1572 0214 1344     		add	r3, r3, r2
 1573 0216 9BB2     		uxth	r3, r3
 1574 0218 013B     		subs	r3, r3, #1
 1575 021a 9BB2     		uxth	r3, r3
 1576 021c 1BB2     		sxth	r3, r3
 1577 021e A7F86E30 		strh	r3, [r7, #110]	@ movhi
 378:..\..\..\lvgl\version_6.1.2\lvgl\src\lv_objx/lv_roller.c ****         rect_area.x1 = roller->coords.x1;
 1578              		.loc 7 378 0
 1579 0222 FB68     		ldr	r3, [r7, #12]
 1580 0224 B3F91030 		ldrsh	r3, [r3, #16]
 1581 0228 A7F86830 		strh	r3, [r7, #104]	@ movhi
 379:..\..\..\lvgl\version_6.1.2\lvgl\src\lv_objx/lv_roller.c ****         rect_area.x2 = roller->coords.x2;
 1582              		.loc 7 379 0
 1583 022c FB68     		ldr	r3, [r7, #12]
 1584 022e B3F91430 		ldrsh	r3, [r3, #20]
 1585 0232 A7F86C30 		strh	r3, [r7, #108]	@ movhi
 380:..\..\..\lvgl\version_6.1.2\lvgl\src\lv_objx/lv_roller.c ****         lv_area_t mask_sel;
 381:..\..\..\lvgl\version_6.1.2\lvgl\src\lv_objx/lv_roller.c ****         bool area_ok;
 382:..\..\..\lvgl\version_6.1.2\lvgl\src\lv_objx/lv_roller.c ****         area_ok = lv_area_intersect(&mask_sel, mask, &rect_area);
 1586              		.loc 7 382 0
 1587 0236 07F16802 		add	r2, r7, #104
 1588 023a 07F16003 		add	r3, r7, #96
 1589 023e B968     		ldr	r1, [r7, #8]
 1590 0240 1846     		mov	r0, r3
 1591 0242 FFF7FEFF 		bl	lv_area_intersect
 1592 0246 0346     		mov	r3, r0
 1593 0248 87F88830 		strb	r3, [r7, #136]
 383:..\..\..\lvgl\version_6.1.2\lvgl\src\lv_objx/lv_roller.c ****         if(area_ok) {
 1594              		.loc 7 383 0
 1595 024c 97F88830 		ldrb	r3, [r7, #136]	@ zero_extendqisi2
 1596 0250 002B     		cmp	r3, #0
 1597 0252 5FD0     		beq	.L76
 1598              	.LBB8:
ARM GAS  C:\Users\tmj32\AppData\Local\Temp\ccT5YJ50.s 			page 55


 384:..\..\..\lvgl\version_6.1.2\lvgl\src\lv_objx/lv_roller.c ****             const lv_style_t * sel_style = lv_roller_get_style(roller, LV_ROLLER_STYLE_SEL);
 1599              		.loc 7 384 0
 1600 0254 0121     		movs	r1, #1
 1601 0256 F868     		ldr	r0, [r7, #12]
 1602 0258 FFF7FEFF 		bl	lv_roller_get_style
 1603 025c C7F88400 		str	r0, [r7, #132]
 385:..\..\..\lvgl\version_6.1.2\lvgl\src\lv_objx/lv_roller.c ****             lv_style_t new_style;
 386:..\..\..\lvgl\version_6.1.2\lvgl\src\lv_objx/lv_roller.c ****             lv_txt_flag_t txt_align = LV_TXT_FLAG_NONE;
 1604              		.loc 7 386 0
 1605 0260 0023     		movs	r3, #0
 1606 0262 87F8AF30 		strb	r3, [r7, #175]
 1607              	.LBB9:
 387:..\..\..\lvgl\version_6.1.2\lvgl\src\lv_objx/lv_roller.c **** 
 388:..\..\..\lvgl\version_6.1.2\lvgl\src\lv_objx/lv_roller.c ****             {
 389:..\..\..\lvgl\version_6.1.2\lvgl\src\lv_objx/lv_roller.c ****                 lv_label_align_t label_align = lv_label_get_align(ext->ddlist.label);
 1608              		.loc 7 389 0
 1609 0266 D7F89030 		ldr	r3, [r7, #144]
 1610 026a 1B6B     		ldr	r3, [r3, #48]
 1611 026c 1846     		mov	r0, r3
 1612 026e FFF7FEFF 		bl	lv_label_get_align
 1613 0272 0346     		mov	r3, r0
 1614 0274 87F88330 		strb	r3, [r7, #131]
 390:..\..\..\lvgl\version_6.1.2\lvgl\src\lv_objx/lv_roller.c **** 
 391:..\..\..\lvgl\version_6.1.2\lvgl\src\lv_objx/lv_roller.c ****                 if(LV_LABEL_ALIGN_CENTER == label_align) {
 1615              		.loc 7 391 0
 1616 0278 97F88330 		ldrb	r3, [r7, #131]	@ zero_extendqisi2
 1617 027c 012B     		cmp	r3, #1
 1618 027e 06D1     		bne	.L79
 392:..\..\..\lvgl\version_6.1.2\lvgl\src\lv_objx/lv_roller.c ****                     txt_align |= LV_TXT_FLAG_CENTER;
 1619              		.loc 7 392 0
 1620 0280 97F8AF30 		ldrb	r3, [r7, #175]
 1621 0284 43F00403 		orr	r3, r3, #4
 1622 0288 87F8AF30 		strb	r3, [r7, #175]
 1623 028c 09E0     		b	.L80
 1624              	.L79:
 393:..\..\..\lvgl\version_6.1.2\lvgl\src\lv_objx/lv_roller.c ****                 } else if(LV_LABEL_ALIGN_RIGHT == label_align) {
 1625              		.loc 7 393 0
 1626 028e 97F88330 		ldrb	r3, [r7, #131]	@ zero_extendqisi2
 1627 0292 022B     		cmp	r3, #2
 1628 0294 05D1     		bne	.L80
 394:..\..\..\lvgl\version_6.1.2\lvgl\src\lv_objx/lv_roller.c ****                     txt_align |= LV_TXT_FLAG_RIGHT;
 1629              		.loc 7 394 0
 1630 0296 97F8AF30 		ldrb	r3, [r7, #175]
 1631 029a 43F00803 		orr	r3, r3, #8
 1632 029e 87F8AF30 		strb	r3, [r7, #175]
 1633              	.L80:
 1634              	.LBE9:
 395:..\..\..\lvgl\version_6.1.2\lvgl\src\lv_objx/lv_roller.c ****                 }
 396:..\..\..\lvgl\version_6.1.2\lvgl\src\lv_objx/lv_roller.c ****             }
 397:..\..\..\lvgl\version_6.1.2\lvgl\src\lv_objx/lv_roller.c **** 
 398:..\..\..\lvgl\version_6.1.2\lvgl\src\lv_objx/lv_roller.c ****             lv_style_copy(&new_style, style);
 1635              		.loc 7 398 0
 1636 02a2 07F11003 		add	r3, r7, #16
 1637 02a6 D7F89410 		ldr	r1, [r7, #148]
 1638 02aa 1846     		mov	r0, r3
 1639 02ac FFF7FEFF 		bl	lv_style_copy
 399:..\..\..\lvgl\version_6.1.2\lvgl\src\lv_objx/lv_roller.c ****             new_style.text.color = sel_style->text.color;
ARM GAS  C:\Users\tmj32\AppData\Local\Temp\ccT5YJ50.s 			page 56


 1640              		.loc 7 399 0
 1641 02b0 D7F88430 		ldr	r3, [r7, #132]
 1642 02b4 DB6A     		ldr	r3, [r3, #44]
 1643 02b6 FB63     		str	r3, [r7, #60]
 400:..\..\..\lvgl\version_6.1.2\lvgl\src\lv_objx/lv_roller.c ****             new_style.text.opa   = sel_style->text.opa;
 1644              		.loc 7 400 0
 1645 02b8 D7F88430 		ldr	r3, [r7, #132]
 1646 02bc 93F83C30 		ldrb	r3, [r3, #60]	@ zero_extendqisi2
 1647 02c0 87F84C30 		strb	r3, [r7, #76]
 401:..\..\..\lvgl\version_6.1.2\lvgl\src\lv_objx/lv_roller.c ****             lv_draw_label(&ext->ddlist.label->coords, &mask_sel, &new_style, opa_scale,
 1648              		.loc 7 401 0
 1649 02c4 D7F89030 		ldr	r3, [r7, #144]
 1650 02c8 1B6B     		ldr	r3, [r3, #48]
 1651 02ca 03F11004 		add	r4, r3, #16
 402:..\..\..\lvgl\version_6.1.2\lvgl\src\lv_objx/lv_roller.c ****                           lv_label_get_text(ext->ddlist.label), txt_align, NULL, NULL, NULL, lv_obj
 1652              		.loc 7 402 0
 1653 02ce D7F89030 		ldr	r3, [r7, #144]
 1654 02d2 1B6B     		ldr	r3, [r3, #48]
 1655 02d4 1846     		mov	r0, r3
 1656 02d6 FFF7FEFF 		bl	lv_label_get_text
 1657 02da 0546     		mov	r5, r0
 1658 02dc D7F89030 		ldr	r3, [r7, #144]
 1659 02e0 1B6B     		ldr	r3, [r3, #48]
 401:..\..\..\lvgl\version_6.1.2\lvgl\src\lv_objx/lv_roller.c ****             lv_draw_label(&ext->ddlist.label->coords, &mask_sel, &new_style, opa_scale,
 1660              		.loc 7 401 0
 1661 02e2 1846     		mov	r0, r3
 1662 02e4 FFF7FEFF 		bl	lv_obj_get_base_dir
 1663 02e8 0346     		mov	r3, r0
 1664 02ea 97F88900 		ldrb	r0, [r7, #137]	@ zero_extendqisi2
 1665 02ee 07F11002 		add	r2, r7, #16
 1666 02f2 07F16001 		add	r1, r7, #96
 1667 02f6 0593     		str	r3, [sp, #20]
 1668 02f8 0023     		movs	r3, #0
 1669 02fa 0493     		str	r3, [sp, #16]
 1670 02fc 0023     		movs	r3, #0
 1671 02fe 0393     		str	r3, [sp, #12]
 1672 0300 0023     		movs	r3, #0
 1673 0302 0293     		str	r3, [sp, #8]
 1674 0304 97F8AF30 		ldrb	r3, [r7, #175]	@ zero_extendqisi2
 1675 0308 0193     		str	r3, [sp, #4]
 1676 030a 0095     		str	r5, [sp]
 1677 030c 0346     		mov	r3, r0
 1678 030e 2046     		mov	r0, r4
 1679 0310 FFF7FEFF 		bl	lv_draw_label
 1680              	.L76:
 1681              	.LBE8:
 1682              	.LBE7:
 403:..\..\..\lvgl\version_6.1.2\lvgl\src\lv_objx/lv_roller.c ****         }
 404:..\..\..\lvgl\version_6.1.2\lvgl\src\lv_objx/lv_roller.c ****     }
 405:..\..\..\lvgl\version_6.1.2\lvgl\src\lv_objx/lv_roller.c **** 
 406:..\..\..\lvgl\version_6.1.2\lvgl\src\lv_objx/lv_roller.c ****     return true;
 1683              		.loc 7 406 0
 1684 0314 0123     		movs	r3, #1
 1685              	.L73:
 407:..\..\..\lvgl\version_6.1.2\lvgl\src\lv_objx/lv_roller.c **** }
 1686              		.loc 7 407 0
 1687 0316 1846     		mov	r0, r3
ARM GAS  C:\Users\tmj32\AppData\Local\Temp\ccT5YJ50.s 			page 57


 1688 0318 B037     		adds	r7, r7, #176
 1689              		.cfi_def_cfa_offset 16
 1690 031a BD46     		mov	sp, r7
 1691              		.cfi_def_cfa_register 13
 1692              		@ sp needed
 1693 031c B0BD     		pop	{r4, r5, r7, pc}
 1694              		.cfi_endproc
 1695              	.LFE69:
 1696              		.size	lv_roller_design, .-lv_roller_design
 1697 031e 00BF     		.section	.rodata
 1698              		.align	2
 1699              	.LC0:
 1700 0000 6C765F72 		.ascii	"lv_roller\000"
 1700      6F6C6C65 
 1700      7200
 1701              		.section	.text.lv_roller_signal,"ax",%progbits
 1702              		.align	2
 1703              		.thumb
 1704              		.thumb_func
 1705              		.type	lv_roller_signal, %function
 1706              	lv_roller_signal:
 1707              	.LFB70:
 408:..\..\..\lvgl\version_6.1.2\lvgl\src\lv_objx/lv_roller.c **** 
 409:..\..\..\lvgl\version_6.1.2\lvgl\src\lv_objx/lv_roller.c **** /**
 410:..\..\..\lvgl\version_6.1.2\lvgl\src\lv_objx/lv_roller.c ****  * Signal function of the roller
 411:..\..\..\lvgl\version_6.1.2\lvgl\src\lv_objx/lv_roller.c ****  * @param roller pointer to a roller object
 412:..\..\..\lvgl\version_6.1.2\lvgl\src\lv_objx/lv_roller.c ****  * @param sign a signal type from lv_signal_t enum
 413:..\..\..\lvgl\version_6.1.2\lvgl\src\lv_objx/lv_roller.c ****  * @param param pointer to a signal specific variable
 414:..\..\..\lvgl\version_6.1.2\lvgl\src\lv_objx/lv_roller.c ****  * @return LV_RES_OK: the object is not deleted in the function; LV_RES_INV: the object is deleted
 415:..\..\..\lvgl\version_6.1.2\lvgl\src\lv_objx/lv_roller.c ****  */
 416:..\..\..\lvgl\version_6.1.2\lvgl\src\lv_objx/lv_roller.c **** static lv_res_t lv_roller_signal(lv_obj_t * roller, lv_signal_t sign, void * param)
 417:..\..\..\lvgl\version_6.1.2\lvgl\src\lv_objx/lv_roller.c **** {
 1708              		.loc 7 417 0
 1709              		.cfi_startproc
 1710              		@ args = 0, pretend = 0, frame = 32
 1711              		@ frame_needed = 1, uses_anonymous_args = 0
 1712 0000 90B5     		push	{r4, r7, lr}
 1713              		.cfi_def_cfa_offset 12
 1714              		.cfi_offset 4, -12
 1715              		.cfi_offset 7, -8
 1716              		.cfi_offset 14, -4
 1717 0002 89B0     		sub	sp, sp, #36
 1718              		.cfi_def_cfa_offset 48
 1719 0004 00AF     		add	r7, sp, #0
 1720              		.cfi_def_cfa_register 7
 1721 0006 F860     		str	r0, [r7, #12]
 1722 0008 0B46     		mov	r3, r1
 1723 000a 7A60     		str	r2, [r7, #4]
 1724 000c FB72     		strb	r3, [r7, #11]
 418:..\..\..\lvgl\version_6.1.2\lvgl\src\lv_objx/lv_roller.c ****     lv_res_t res = LV_RES_OK;
 1725              		.loc 7 418 0
 1726 000e 0123     		movs	r3, #1
 1727 0010 FB77     		strb	r3, [r7, #31]
 419:..\..\..\lvgl\version_6.1.2\lvgl\src\lv_objx/lv_roller.c **** 
 420:..\..\..\lvgl\version_6.1.2\lvgl\src\lv_objx/lv_roller.c ****     /*Don't let the drop down list to handle the control signals. It works differently*/
 421:..\..\..\lvgl\version_6.1.2\lvgl\src\lv_objx/lv_roller.c ****     if(sign != LV_SIGNAL_CONTROL && sign != LV_SIGNAL_FOCUS && sign != LV_SIGNAL_DEFOCUS) {
 1728              		.loc 7 421 0
ARM GAS  C:\Users\tmj32\AppData\Local\Temp\ccT5YJ50.s 			page 58


 1729 0012 FB7A     		ldrb	r3, [r7, #11]	@ zero_extendqisi2
 1730 0014 122B     		cmp	r3, #18
 1731 0016 12D0     		beq	.L82
 1732              		.loc 7 421 0 is_stmt 0 discriminator 1
 1733 0018 FB7A     		ldrb	r3, [r7, #11]	@ zero_extendqisi2
 1734 001a 102B     		cmp	r3, #16
 1735 001c 0FD0     		beq	.L82
 1736              		.loc 7 421 0 discriminator 2
 1737 001e FB7A     		ldrb	r3, [r7, #11]	@ zero_extendqisi2
 1738 0020 112B     		cmp	r3, #17
 1739 0022 0CD0     		beq	.L82
 422:..\..\..\lvgl\version_6.1.2\lvgl\src\lv_objx/lv_roller.c ****         /* Include the ancient signal function */
 423:..\..\..\lvgl\version_6.1.2\lvgl\src\lv_objx/lv_roller.c ****         res = ancestor_signal(roller, sign, param);
 1740              		.loc 7 423 0 is_stmt 1
 1741 0024 4D4B     		ldr	r3, .L94
 1742 0026 1B68     		ldr	r3, [r3]
 1743 0028 F97A     		ldrb	r1, [r7, #11]	@ zero_extendqisi2
 1744 002a 7A68     		ldr	r2, [r7, #4]
 1745 002c F868     		ldr	r0, [r7, #12]
 1746 002e 9847     		blx	r3
 1747 0030 0346     		mov	r3, r0
 1748 0032 FB77     		strb	r3, [r7, #31]
 424:..\..\..\lvgl\version_6.1.2\lvgl\src\lv_objx/lv_roller.c ****         if(res != LV_RES_OK) return res;
 1749              		.loc 7 424 0
 1750 0034 FB7F     		ldrb	r3, [r7, #31]	@ zero_extendqisi2
 1751 0036 012B     		cmp	r3, #1
 1752 0038 01D0     		beq	.L82
 1753              		.loc 7 424 0 is_stmt 0 discriminator 1
 1754 003a FB7F     		ldrb	r3, [r7, #31]	@ zero_extendqisi2
 1755 003c 89E0     		b	.L83
 1756              	.L82:
 425:..\..\..\lvgl\version_6.1.2\lvgl\src\lv_objx/lv_roller.c ****     }
 426:..\..\..\lvgl\version_6.1.2\lvgl\src\lv_objx/lv_roller.c ****     if(sign == LV_SIGNAL_GET_TYPE) return lv_obj_handle_get_type_signal(param, LV_OBJX_NAME);
 1757              		.loc 7 426 0 is_stmt 1
 1758 003e FB7A     		ldrb	r3, [r7, #11]	@ zero_extendqisi2
 1759 0040 072B     		cmp	r3, #7
 1760 0042 05D1     		bne	.L84
 1761              		.loc 7 426 0 is_stmt 0 discriminator 1
 1762 0044 4649     		ldr	r1, .L94+4
 1763 0046 7868     		ldr	r0, [r7, #4]
 1764 0048 FFF7FEFF 		bl	lv_obj_handle_get_type_signal
 1765 004c 0346     		mov	r3, r0
 1766 004e 80E0     		b	.L83
 1767              	.L84:
 427:..\..\..\lvgl\version_6.1.2\lvgl\src\lv_objx/lv_roller.c **** 
 428:..\..\..\lvgl\version_6.1.2\lvgl\src\lv_objx/lv_roller.c ****     lv_roller_ext_t * ext = lv_obj_get_ext_attr(roller);
 1768              		.loc 7 428 0 is_stmt 1
 1769 0050 F868     		ldr	r0, [r7, #12]
 1770 0052 FFF7FEFF 		bl	lv_obj_get_ext_attr
 1771 0056 B861     		str	r0, [r7, #24]
 429:..\..\..\lvgl\version_6.1.2\lvgl\src\lv_objx/lv_roller.c **** 
 430:..\..\..\lvgl\version_6.1.2\lvgl\src\lv_objx/lv_roller.c ****     if(sign == LV_SIGNAL_STYLE_CHG) {
 1772              		.loc 7 430 0
 1773 0058 FB7A     		ldrb	r3, [r7, #11]	@ zero_extendqisi2
 1774 005a 042B     		cmp	r3, #4
 1775 005c 07D1     		bne	.L85
 431:..\..\..\lvgl\version_6.1.2\lvgl\src\lv_objx/lv_roller.c ****         refr_height(roller);
ARM GAS  C:\Users\tmj32\AppData\Local\Temp\ccT5YJ50.s 			page 59


 1776              		.loc 7 431 0
 1777 005e F868     		ldr	r0, [r7, #12]
 1778 0060 FFF7FEFF 		bl	refr_height
 432:..\..\..\lvgl\version_6.1.2\lvgl\src\lv_objx/lv_roller.c **** 
 433:..\..\..\lvgl\version_6.1.2\lvgl\src\lv_objx/lv_roller.c ****         refr_position(roller, false);
 1779              		.loc 7 433 0
 1780 0064 0021     		movs	r1, #0
 1781 0066 F868     		ldr	r0, [r7, #12]
 1782 0068 FFF7FEFF 		bl	refr_position
 1783 006c 70E0     		b	.L86
 1784              	.L85:
 434:..\..\..\lvgl\version_6.1.2\lvgl\src\lv_objx/lv_roller.c ****     } else if(sign == LV_SIGNAL_CORD_CHG) {
 1785              		.loc 7 434 0
 1786 006e FB7A     		ldrb	r3, [r7, #11]	@ zero_extendqisi2
 1787 0070 022B     		cmp	r3, #2
 1788 0072 2BD1     		bne	.L87
 435:..\..\..\lvgl\version_6.1.2\lvgl\src\lv_objx/lv_roller.c **** 
 436:..\..\..\lvgl\version_6.1.2\lvgl\src\lv_objx/lv_roller.c ****         if(lv_obj_get_width(roller) != lv_area_get_width(param) ||
 1789              		.loc 7 436 0
 1790 0074 F868     		ldr	r0, [r7, #12]
 1791 0076 FFF7FEFF 		bl	lv_obj_get_width
 1792 007a 0346     		mov	r3, r0
 1793 007c 1C46     		mov	r4, r3
 1794 007e 7868     		ldr	r0, [r7, #4]
 1795 0080 FFF7FEFF 		bl	lv_area_get_width
 1796 0084 0346     		mov	r3, r0
 1797 0086 9C42     		cmp	r4, r3
 1798 0088 0AD1     		bne	.L88
 437:..\..\..\lvgl\version_6.1.2\lvgl\src\lv_objx/lv_roller.c ****            lv_obj_get_height(roller) != lv_area_get_height(param)) {
 1799              		.loc 7 437 0 discriminator 1
 1800 008a F868     		ldr	r0, [r7, #12]
 1801 008c FFF7FEFF 		bl	lv_obj_get_height
 1802 0090 0346     		mov	r3, r0
 1803 0092 1C46     		mov	r4, r3
 1804 0094 7868     		ldr	r0, [r7, #4]
 1805 0096 FFF7FEFF 		bl	lv_area_get_height
 1806 009a 0346     		mov	r3, r0
 436:..\..\..\lvgl\version_6.1.2\lvgl\src\lv_objx/lv_roller.c ****            lv_obj_get_height(roller) != lv_area_get_height(param)) {
 1807              		.loc 7 436 0 discriminator 1
 1808 009c 9C42     		cmp	r4, r3
 1809 009e 57D0     		beq	.L86
 1810              	.L88:
 438:..\..\..\lvgl\version_6.1.2\lvgl\src\lv_objx/lv_roller.c **** 
 439:..\..\..\lvgl\version_6.1.2\lvgl\src\lv_objx/lv_roller.c ****             refr_height(roller);
 1811              		.loc 7 439 0
 1812 00a0 F868     		ldr	r0, [r7, #12]
 1813 00a2 FFF7FEFF 		bl	refr_height
 440:..\..\..\lvgl\version_6.1.2\lvgl\src\lv_objx/lv_roller.c **** #if LV_USE_ANIMATION
 441:..\..\..\lvgl\version_6.1.2\lvgl\src\lv_objx/lv_roller.c ****             lv_anim_del(lv_page_get_scrl(roller), (lv_anim_exec_xcb_t)lv_obj_set_y);
 1814              		.loc 7 441 0
 1815 00a6 F868     		ldr	r0, [r7, #12]
 1816 00a8 FFF7FEFF 		bl	lv_page_get_scrl
 1817 00ac 0346     		mov	r3, r0
 1818 00ae 2D49     		ldr	r1, .L94+8
 1819 00b0 1846     		mov	r0, r3
 1820 00b2 FFF7FEFF 		bl	lv_anim_del
 442:..\..\..\lvgl\version_6.1.2\lvgl\src\lv_objx/lv_roller.c **** #endif
ARM GAS  C:\Users\tmj32\AppData\Local\Temp\ccT5YJ50.s 			page 60


 443:..\..\..\lvgl\version_6.1.2\lvgl\src\lv_objx/lv_roller.c ****             lv_ddlist_set_selected(roller, ext->ddlist.sel_opt_id);
 1821              		.loc 7 443 0
 1822 00b6 BB69     		ldr	r3, [r7, #24]
 1823 00b8 5B8F     		ldrh	r3, [r3, #58]
 1824 00ba 1946     		mov	r1, r3
 1825 00bc F868     		ldr	r0, [r7, #12]
 1826 00be FFF7FEFF 		bl	lv_ddlist_set_selected
 444:..\..\..\lvgl\version_6.1.2\lvgl\src\lv_objx/lv_roller.c ****             refr_position(roller, false);
 1827              		.loc 7 444 0
 1828 00c2 0021     		movs	r1, #0
 1829 00c4 F868     		ldr	r0, [r7, #12]
 1830 00c6 FFF7FEFF 		bl	refr_position
 1831 00ca 41E0     		b	.L86
 1832              	.L87:
 445:..\..\..\lvgl\version_6.1.2\lvgl\src\lv_objx/lv_roller.c ****         }
 446:..\..\..\lvgl\version_6.1.2\lvgl\src\lv_objx/lv_roller.c ****     } else if(sign == LV_SIGNAL_FOCUS) {
 1833              		.loc 7 446 0
 1834 00cc FB7A     		ldrb	r3, [r7, #11]	@ zero_extendqisi2
 1835 00ce 102B     		cmp	r3, #16
 1836 00d0 3ED0     		beq	.L86
 447:..\..\..\lvgl\version_6.1.2\lvgl\src\lv_objx/lv_roller.c **** #if LV_USE_GROUP
 448:..\..\..\lvgl\version_6.1.2\lvgl\src\lv_objx/lv_roller.c ****         lv_group_t * g             = lv_obj_get_group(roller);
 449:..\..\..\lvgl\version_6.1.2\lvgl\src\lv_objx/lv_roller.c ****         bool editing               = lv_group_get_editing(g);
 450:..\..\..\lvgl\version_6.1.2\lvgl\src\lv_objx/lv_roller.c ****         lv_indev_type_t indev_type = lv_indev_get_type(lv_indev_get_act());
 451:..\..\..\lvgl\version_6.1.2\lvgl\src\lv_objx/lv_roller.c **** 
 452:..\..\..\lvgl\version_6.1.2\lvgl\src\lv_objx/lv_roller.c ****         /*Encoders need special handling*/
 453:..\..\..\lvgl\version_6.1.2\lvgl\src\lv_objx/lv_roller.c ****         if(indev_type == LV_INDEV_TYPE_ENCODER) {
 454:..\..\..\lvgl\version_6.1.2\lvgl\src\lv_objx/lv_roller.c ****             /*In navigate mode revert the original value*/
 455:..\..\..\lvgl\version_6.1.2\lvgl\src\lv_objx/lv_roller.c ****             if(!editing) {
 456:..\..\..\lvgl\version_6.1.2\lvgl\src\lv_objx/lv_roller.c ****                 if(ext->ddlist.sel_opt_id != ext->ddlist.sel_opt_id_ori) {
 457:..\..\..\lvgl\version_6.1.2\lvgl\src\lv_objx/lv_roller.c ****                     ext->ddlist.sel_opt_id = ext->ddlist.sel_opt_id_ori;
 458:..\..\..\lvgl\version_6.1.2\lvgl\src\lv_objx/lv_roller.c ****                     refr_position(roller, true);
 459:..\..\..\lvgl\version_6.1.2\lvgl\src\lv_objx/lv_roller.c ****                 }
 460:..\..\..\lvgl\version_6.1.2\lvgl\src\lv_objx/lv_roller.c ****             }
 461:..\..\..\lvgl\version_6.1.2\lvgl\src\lv_objx/lv_roller.c ****             /*Save the current state when entered to edit mode*/
 462:..\..\..\lvgl\version_6.1.2\lvgl\src\lv_objx/lv_roller.c ****             else {
 463:..\..\..\lvgl\version_6.1.2\lvgl\src\lv_objx/lv_roller.c ****                 ext->ddlist.sel_opt_id_ori = ext->ddlist.sel_opt_id;
 464:..\..\..\lvgl\version_6.1.2\lvgl\src\lv_objx/lv_roller.c ****             }
 465:..\..\..\lvgl\version_6.1.2\lvgl\src\lv_objx/lv_roller.c ****         } else {
 466:..\..\..\lvgl\version_6.1.2\lvgl\src\lv_objx/lv_roller.c ****             ext->ddlist.sel_opt_id_ori = ext->ddlist.sel_opt_id; /*Save the current value. Used to 
 467:..\..\..\lvgl\version_6.1.2\lvgl\src\lv_objx/lv_roller.c ****                                                                     ENER wont't be pressed*/
 468:..\..\..\lvgl\version_6.1.2\lvgl\src\lv_objx/lv_roller.c ****         }
 469:..\..\..\lvgl\version_6.1.2\lvgl\src\lv_objx/lv_roller.c **** #endif
 470:..\..\..\lvgl\version_6.1.2\lvgl\src\lv_objx/lv_roller.c ****     } else if(sign == LV_SIGNAL_DEFOCUS) {
 1837              		.loc 7 470 0
 1838 00d2 FB7A     		ldrb	r3, [r7, #11]	@ zero_extendqisi2
 1839 00d4 112B     		cmp	r3, #17
 1840 00d6 3BD0     		beq	.L86
 471:..\..\..\lvgl\version_6.1.2\lvgl\src\lv_objx/lv_roller.c **** #if LV_USE_GROUP
 472:..\..\..\lvgl\version_6.1.2\lvgl\src\lv_objx/lv_roller.c ****         /*Revert the original state*/
 473:..\..\..\lvgl\version_6.1.2\lvgl\src\lv_objx/lv_roller.c ****         if(ext->ddlist.sel_opt_id != ext->ddlist.sel_opt_id_ori) {
 474:..\..\..\lvgl\version_6.1.2\lvgl\src\lv_objx/lv_roller.c ****             ext->ddlist.sel_opt_id = ext->ddlist.sel_opt_id_ori;
 475:..\..\..\lvgl\version_6.1.2\lvgl\src\lv_objx/lv_roller.c ****             refr_position(roller, true);
 476:..\..\..\lvgl\version_6.1.2\lvgl\src\lv_objx/lv_roller.c ****         }
 477:..\..\..\lvgl\version_6.1.2\lvgl\src\lv_objx/lv_roller.c **** #endif
 478:..\..\..\lvgl\version_6.1.2\lvgl\src\lv_objx/lv_roller.c ****     } else if(sign == LV_SIGNAL_CONTROL) {
 1841              		.loc 7 478 0
ARM GAS  C:\Users\tmj32\AppData\Local\Temp\ccT5YJ50.s 			page 61


 1842 00d8 FB7A     		ldrb	r3, [r7, #11]	@ zero_extendqisi2
 1843 00da 122B     		cmp	r3, #18
 1844 00dc 38D1     		bne	.L86
 1845              	.LBB10:
 479:..\..\..\lvgl\version_6.1.2\lvgl\src\lv_objx/lv_roller.c ****         char c = *((char *)param);
 1846              		.loc 7 479 0
 1847 00de 7B68     		ldr	r3, [r7, #4]
 1848 00e0 1B78     		ldrb	r3, [r3]
 1849 00e2 FB75     		strb	r3, [r7, #23]
 480:..\..\..\lvgl\version_6.1.2\lvgl\src\lv_objx/lv_roller.c ****         if(c == LV_KEY_RIGHT || c == LV_KEY_DOWN) {
 1850              		.loc 7 480 0
 1851 00e4 FB7D     		ldrb	r3, [r7, #23]	@ zero_extendqisi2
 1852 00e6 132B     		cmp	r3, #19
 1853 00e8 02D0     		beq	.L90
 1854              		.loc 7 480 0 is_stmt 0 discriminator 1
 1855 00ea FB7D     		ldrb	r3, [r7, #23]	@ zero_extendqisi2
 1856 00ec 122B     		cmp	r3, #18
 1857 00ee 16D1     		bne	.L91
 1858              	.L90:
 481:..\..\..\lvgl\version_6.1.2\lvgl\src\lv_objx/lv_roller.c ****             if(ext->ddlist.sel_opt_id + 1 < ext->ddlist.option_cnt) {
 1859              		.loc 7 481 0 is_stmt 1
 1860 00f0 BB69     		ldr	r3, [r7, #24]
 1861 00f2 5B8F     		ldrh	r3, [r3, #58]
 1862 00f4 0133     		adds	r3, r3, #1
 1863 00f6 BA69     		ldr	r2, [r7, #24]
 1864 00f8 128F     		ldrh	r2, [r2, #56]
 1865 00fa 9342     		cmp	r3, r2
 1866 00fc 28DA     		bge	.L86
 1867              	.LBB11:
 482:..\..\..\lvgl\version_6.1.2\lvgl\src\lv_objx/lv_roller.c ****                 uint16_t ori_id = ext->ddlist.sel_opt_id_ori; /*lv_roller_set_selceted will overwri
 1868              		.loc 7 482 0
 1869 00fe BB69     		ldr	r3, [r7, #24]
 1870 0100 9B8F     		ldrh	r3, [r3, #60]	@ movhi
 1871 0102 7B82     		strh	r3, [r7, #18]	@ movhi
 483:..\..\..\lvgl\version_6.1.2\lvgl\src\lv_objx/lv_roller.c ****                 lv_roller_set_selected(roller, ext->ddlist.sel_opt_id + 1, true);
 1872              		.loc 7 483 0
 1873 0104 BB69     		ldr	r3, [r7, #24]
 1874 0106 5B8F     		ldrh	r3, [r3, #58]
 1875 0108 0133     		adds	r3, r3, #1
 1876 010a 9BB2     		uxth	r3, r3
 1877 010c 0122     		movs	r2, #1
 1878 010e 1946     		mov	r1, r3
 1879 0110 F868     		ldr	r0, [r7, #12]
 1880 0112 FFF7FEFF 		bl	lv_roller_set_selected
 484:..\..\..\lvgl\version_6.1.2\lvgl\src\lv_objx/lv_roller.c ****                 ext->ddlist.sel_opt_id_ori = ori_id;
 1881              		.loc 7 484 0
 1882 0116 BB69     		ldr	r3, [r7, #24]
 1883 0118 7A8A     		ldrh	r2, [r7, #18]	@ movhi
 1884 011a 9A87     		strh	r2, [r3, #60]	@ movhi
 1885              	.LBE11:
 481:..\..\..\lvgl\version_6.1.2\lvgl\src\lv_objx/lv_roller.c ****                 uint16_t ori_id = ext->ddlist.sel_opt_id_ori; /*lv_roller_set_selceted will overwri
 1886              		.loc 7 481 0
 1887 011c 18E0     		b	.L86
 1888              	.L91:
 485:..\..\..\lvgl\version_6.1.2\lvgl\src\lv_objx/lv_roller.c ****             }
 486:..\..\..\lvgl\version_6.1.2\lvgl\src\lv_objx/lv_roller.c ****         } else if(c == LV_KEY_LEFT || c == LV_KEY_UP) {
 1889              		.loc 7 486 0
ARM GAS  C:\Users\tmj32\AppData\Local\Temp\ccT5YJ50.s 			page 62


 1890 011e FB7D     		ldrb	r3, [r7, #23]	@ zero_extendqisi2
 1891 0120 142B     		cmp	r3, #20
 1892 0122 02D0     		beq	.L93
 1893              		.loc 7 486 0 is_stmt 0 discriminator 1
 1894 0124 FB7D     		ldrb	r3, [r7, #23]	@ zero_extendqisi2
 1895 0126 112B     		cmp	r3, #17
 1896 0128 12D1     		bne	.L86
 1897              	.L93:
 487:..\..\..\lvgl\version_6.1.2\lvgl\src\lv_objx/lv_roller.c ****             if(ext->ddlist.sel_opt_id > 0) {
 1898              		.loc 7 487 0 is_stmt 1
 1899 012a BB69     		ldr	r3, [r7, #24]
 1900 012c 5B8F     		ldrh	r3, [r3, #58]
 1901 012e 002B     		cmp	r3, #0
 1902 0130 0ED0     		beq	.L86
 1903              	.LBB12:
 488:..\..\..\lvgl\version_6.1.2\lvgl\src\lv_objx/lv_roller.c ****                 uint16_t ori_id = ext->ddlist.sel_opt_id_ori; /*lv_roller_set_selceted will overwri
 1904              		.loc 7 488 0
 1905 0132 BB69     		ldr	r3, [r7, #24]
 1906 0134 9B8F     		ldrh	r3, [r3, #60]	@ movhi
 1907 0136 BB82     		strh	r3, [r7, #20]	@ movhi
 489:..\..\..\lvgl\version_6.1.2\lvgl\src\lv_objx/lv_roller.c ****                 lv_roller_set_selected(roller, ext->ddlist.sel_opt_id - 1, true);
 1908              		.loc 7 489 0
 1909 0138 BB69     		ldr	r3, [r7, #24]
 1910 013a 5B8F     		ldrh	r3, [r3, #58]
 1911 013c 013B     		subs	r3, r3, #1
 1912 013e 9BB2     		uxth	r3, r3
 1913 0140 0122     		movs	r2, #1
 1914 0142 1946     		mov	r1, r3
 1915 0144 F868     		ldr	r0, [r7, #12]
 1916 0146 FFF7FEFF 		bl	lv_roller_set_selected
 490:..\..\..\lvgl\version_6.1.2\lvgl\src\lv_objx/lv_roller.c ****                 ext->ddlist.sel_opt_id_ori = ori_id;
 1917              		.loc 7 490 0
 1918 014a BB69     		ldr	r3, [r7, #24]
 1919 014c BA8A     		ldrh	r2, [r7, #20]	@ movhi
 1920 014e 9A87     		strh	r2, [r3, #60]	@ movhi
 1921              	.L86:
 1922              	.LBE12:
 1923              	.LBE10:
 491:..\..\..\lvgl\version_6.1.2\lvgl\src\lv_objx/lv_roller.c ****             }
 492:..\..\..\lvgl\version_6.1.2\lvgl\src\lv_objx/lv_roller.c ****         }
 493:..\..\..\lvgl\version_6.1.2\lvgl\src\lv_objx/lv_roller.c ****     }
 494:..\..\..\lvgl\version_6.1.2\lvgl\src\lv_objx/lv_roller.c **** 
 495:..\..\..\lvgl\version_6.1.2\lvgl\src\lv_objx/lv_roller.c ****     return res;
 1924              		.loc 7 495 0
 1925 0150 FB7F     		ldrb	r3, [r7, #31]	@ zero_extendqisi2
 1926              	.L83:
 496:..\..\..\lvgl\version_6.1.2\lvgl\src\lv_objx/lv_roller.c **** }
 1927              		.loc 7 496 0
 1928 0152 1846     		mov	r0, r3
 1929 0154 2437     		adds	r7, r7, #36
 1930              		.cfi_def_cfa_offset 12
 1931 0156 BD46     		mov	sp, r7
 1932              		.cfi_def_cfa_register 13
 1933              		@ sp needed
 1934 0158 90BD     		pop	{r4, r7, pc}
 1935              	.L95:
 1936 015a 00BF     		.align	2
ARM GAS  C:\Users\tmj32\AppData\Local\Temp\ccT5YJ50.s 			page 63


 1937              	.L94:
 1938 015c 00000000 		.word	ancestor_signal
 1939 0160 00000000 		.word	.LC0
 1940 0164 00000000 		.word	lv_obj_set_y
 1941              		.cfi_endproc
 1942              	.LFE70:
 1943              		.size	lv_roller_signal, .-lv_roller_signal
 1944              		.section	.text.lv_roller_scrl_signal,"ax",%progbits
 1945              		.align	2
 1946              		.thumb
 1947              		.thumb_func
 1948              		.type	lv_roller_scrl_signal, %function
 1949              	lv_roller_scrl_signal:
 1950              	.LFB71:
 497:..\..\..\lvgl\version_6.1.2\lvgl\src\lv_objx/lv_roller.c **** 
 498:..\..\..\lvgl\version_6.1.2\lvgl\src\lv_objx/lv_roller.c **** /**
 499:..\..\..\lvgl\version_6.1.2\lvgl\src\lv_objx/lv_roller.c ****  * Signal function of the scrollable part of the roller.
 500:..\..\..\lvgl\version_6.1.2\lvgl\src\lv_objx/lv_roller.c ****  * @param roller_scrl ointer to the scrollable part of roller (page)
 501:..\..\..\lvgl\version_6.1.2\lvgl\src\lv_objx/lv_roller.c ****  * @param sign a signal type from lv_signal_t enum
 502:..\..\..\lvgl\version_6.1.2\lvgl\src\lv_objx/lv_roller.c ****  * @param param pointer to a signal specific variable
 503:..\..\..\lvgl\version_6.1.2\lvgl\src\lv_objx/lv_roller.c ****  * @return LV_RES_OK: the object is not deleted in the function; LV_RES_INV: the object is deleted
 504:..\..\..\lvgl\version_6.1.2\lvgl\src\lv_objx/lv_roller.c ****  */
 505:..\..\..\lvgl\version_6.1.2\lvgl\src\lv_objx/lv_roller.c **** static lv_res_t lv_roller_scrl_signal(lv_obj_t * roller_scrl, lv_signal_t sign, void * param)
 506:..\..\..\lvgl\version_6.1.2\lvgl\src\lv_objx/lv_roller.c **** {
 1951              		.loc 7 506 0
 1952              		.cfi_startproc
 1953              		@ args = 0, pretend = 0, frame = 56
 1954              		@ frame_needed = 1, uses_anonymous_args = 0
 1955 0000 80B5     		push	{r7, lr}
 1956              		.cfi_def_cfa_offset 8
 1957              		.cfi_offset 7, -8
 1958              		.cfi_offset 14, -4
 1959 0002 8EB0     		sub	sp, sp, #56
 1960              		.cfi_def_cfa_offset 64
 1961 0004 00AF     		add	r7, sp, #0
 1962              		.cfi_def_cfa_register 7
 1963 0006 F860     		str	r0, [r7, #12]
 1964 0008 0B46     		mov	r3, r1
 1965 000a 7A60     		str	r2, [r7, #4]
 1966 000c FB72     		strb	r3, [r7, #11]
 507:..\..\..\lvgl\version_6.1.2\lvgl\src\lv_objx/lv_roller.c ****     lv_res_t res;
 508:..\..\..\lvgl\version_6.1.2\lvgl\src\lv_objx/lv_roller.c **** 
 509:..\..\..\lvgl\version_6.1.2\lvgl\src\lv_objx/lv_roller.c ****     /* Include the ancient signal function */
 510:..\..\..\lvgl\version_6.1.2\lvgl\src\lv_objx/lv_roller.c ****     res = ancestor_scrl_signal(roller_scrl, sign, param);
 1967              		.loc 7 510 0
 1968 000e 5E4B     		ldr	r3, .L110
 1969 0010 1B68     		ldr	r3, [r3]
 1970 0012 F97A     		ldrb	r1, [r7, #11]	@ zero_extendqisi2
 1971 0014 7A68     		ldr	r2, [r7, #4]
 1972 0016 F868     		ldr	r0, [r7, #12]
 1973 0018 9847     		blx	r3
 1974 001a 0346     		mov	r3, r0
 1975 001c 87F83730 		strb	r3, [r7, #55]
 511:..\..\..\lvgl\version_6.1.2\lvgl\src\lv_objx/lv_roller.c ****     if(res != LV_RES_OK) return res;
 1976              		.loc 7 511 0
 1977 0020 97F83730 		ldrb	r3, [r7, #55]	@ zero_extendqisi2
 1978 0024 012B     		cmp	r3, #1
ARM GAS  C:\Users\tmj32\AppData\Local\Temp\ccT5YJ50.s 			page 64


 1979 0026 02D0     		beq	.L97
 1980              		.loc 7 511 0 is_stmt 0 discriminator 1
 1981 0028 97F83730 		ldrb	r3, [r7, #55]	@ zero_extendqisi2
 1982 002c A8E0     		b	.L109
 1983              	.L97:
 512:..\..\..\lvgl\version_6.1.2\lvgl\src\lv_objx/lv_roller.c ****     if(sign == LV_SIGNAL_GET_TYPE) return lv_obj_handle_get_type_signal(param, LV_OBJX_NAME);
 1984              		.loc 7 512 0 is_stmt 1
 1985 002e FB7A     		ldrb	r3, [r7, #11]	@ zero_extendqisi2
 1986 0030 072B     		cmp	r3, #7
 1987 0032 05D1     		bne	.L99
 1988              		.loc 7 512 0 is_stmt 0 discriminator 1
 1989 0034 5549     		ldr	r1, .L110+4
 1990 0036 7868     		ldr	r0, [r7, #4]
 1991 0038 FFF7FEFF 		bl	lv_obj_handle_get_type_signal
 1992 003c 0346     		mov	r3, r0
 1993 003e 9FE0     		b	.L109
 1994              	.L99:
 513:..\..\..\lvgl\version_6.1.2\lvgl\src\lv_objx/lv_roller.c **** 
 514:..\..\..\lvgl\version_6.1.2\lvgl\src\lv_objx/lv_roller.c ****     lv_indev_t * indev    = lv_indev_get_act();
 1995              		.loc 7 514 0 is_stmt 1
 1996 0040 FFF7FEFF 		bl	lv_indev_get_act
 1997 0044 3863     		str	r0, [r7, #48]
 515:..\..\..\lvgl\version_6.1.2\lvgl\src\lv_objx/lv_roller.c ****     int32_t id            = -1;
 1998              		.loc 7 515 0
 1999 0046 4FF0FF33 		mov	r3, #-1
 2000 004a 7B61     		str	r3, [r7, #20]
 516:..\..\..\lvgl\version_6.1.2\lvgl\src\lv_objx/lv_roller.c ****     lv_obj_t * roller     = lv_obj_get_parent(roller_scrl);
 2001              		.loc 7 516 0
 2002 004c F868     		ldr	r0, [r7, #12]
 2003 004e FFF7FEFF 		bl	lv_obj_get_parent
 2004 0052 F862     		str	r0, [r7, #44]
 517:..\..\..\lvgl\version_6.1.2\lvgl\src\lv_objx/lv_roller.c ****     lv_roller_ext_t * ext = lv_obj_get_ext_attr(roller);
 2005              		.loc 7 517 0
 2006 0054 F86A     		ldr	r0, [r7, #44]
 2007 0056 FFF7FEFF 		bl	lv_obj_get_ext_attr
 2008 005a B862     		str	r0, [r7, #40]
 518:..\..\..\lvgl\version_6.1.2\lvgl\src\lv_objx/lv_roller.c **** 
 519:..\..\..\lvgl\version_6.1.2\lvgl\src\lv_objx/lv_roller.c ****     if(ext->ddlist.label == NULL)
 2009              		.loc 7 519 0
 2010 005c BB6A     		ldr	r3, [r7, #40]
 2011 005e 1B6B     		ldr	r3, [r3, #48]
 2012 0060 002B     		cmp	r3, #0
 2013 0062 01D1     		bne	.L100
 520:..\..\..\lvgl\version_6.1.2\lvgl\src\lv_objx/lv_roller.c ****         return LV_RES_INV; /*On delete the ddlist signal deletes the label so nothing left to do
 2014              		.loc 7 520 0
 2015 0064 0023     		movs	r3, #0
 2016 0066 8BE0     		b	.L109
 2017              	.L100:
 521:..\..\..\lvgl\version_6.1.2\lvgl\src\lv_objx/lv_roller.c ****                               here*/
 522:..\..\..\lvgl\version_6.1.2\lvgl\src\lv_objx/lv_roller.c **** 
 523:..\..\..\lvgl\version_6.1.2\lvgl\src\lv_objx/lv_roller.c ****     const lv_style_t * style_label = lv_obj_get_style(ext->ddlist.label);
 2018              		.loc 7 523 0
 2019 0068 BB6A     		ldr	r3, [r7, #40]
 2020 006a 1B6B     		ldr	r3, [r3, #48]
 2021 006c 1846     		mov	r0, r3
 2022 006e FFF7FEFF 		bl	lv_obj_get_style
 2023 0072 7862     		str	r0, [r7, #36]
ARM GAS  C:\Users\tmj32\AppData\Local\Temp\ccT5YJ50.s 			page 65


 524:..\..\..\lvgl\version_6.1.2\lvgl\src\lv_objx/lv_roller.c ****     const lv_font_t * font         = style_label->text.font;
 2024              		.loc 7 524 0
 2025 0074 7B6A     		ldr	r3, [r7, #36]
 2026 0076 5B6B     		ldr	r3, [r3, #52]
 2027 0078 3B62     		str	r3, [r7, #32]
 525:..\..\..\lvgl\version_6.1.2\lvgl\src\lv_objx/lv_roller.c ****     lv_coord_t font_h              = lv_font_get_line_height(font);
 2028              		.loc 7 525 0
 2029 007a 386A     		ldr	r0, [r7, #32]
 2030 007c FFF7FEFF 		bl	lv_font_get_line_height
 2031 0080 0346     		mov	r3, r0
 2032 0082 FB83     		strh	r3, [r7, #30]	@ movhi
 526:..\..\..\lvgl\version_6.1.2\lvgl\src\lv_objx/lv_roller.c **** 
 527:..\..\..\lvgl\version_6.1.2\lvgl\src\lv_objx/lv_roller.c ****     if(sign == LV_SIGNAL_DRAG_END) {
 2033              		.loc 7 527 0
 2034 0084 FB7A     		ldrb	r3, [r7, #11]	@ zero_extendqisi2
 2035 0086 0F2B     		cmp	r3, #15
 2036 0088 59D1     		bne	.L101
 2037              	.LBB13:
 528:..\..\..\lvgl\version_6.1.2\lvgl\src\lv_objx/lv_roller.c ****         /*If dragged then align the list to have an element in the middle*/
 529:..\..\..\lvgl\version_6.1.2\lvgl\src\lv_objx/lv_roller.c ****         lv_coord_t label_y1   = ext->ddlist.label->coords.y1 - roller->coords.y1;
 2038              		.loc 7 529 0
 2039 008a BB6A     		ldr	r3, [r7, #40]
 2040 008c 1B6B     		ldr	r3, [r3, #48]
 2041 008e B3F91230 		ldrsh	r3, [r3, #18]
 2042 0092 9AB2     		uxth	r2, r3
 2043 0094 FB6A     		ldr	r3, [r7, #44]
 2044 0096 B3F91230 		ldrsh	r3, [r3, #18]
 2045 009a 9BB2     		uxth	r3, r3
 2046 009c D31A     		subs	r3, r2, r3
 2047 009e 9BB2     		uxth	r3, r3
 2048 00a0 BB83     		strh	r3, [r7, #28]	@ movhi
 530:..\..\..\lvgl\version_6.1.2\lvgl\src\lv_objx/lv_roller.c ****         lv_coord_t label_unit = font_h + style_label->text.line_space;
 2049              		.loc 7 530 0
 2050 00a2 7B6A     		ldr	r3, [r7, #36]
 2051 00a4 B3F93A30 		ldrsh	r3, [r3, #58]
 2052 00a8 9AB2     		uxth	r2, r3
 2053 00aa FB8B     		ldrh	r3, [r7, #30]
 2054 00ac 1344     		add	r3, r3, r2
 2055 00ae 9BB2     		uxth	r3, r3
 2056 00b0 7B83     		strh	r3, [r7, #26]	@ movhi
 531:..\..\..\lvgl\version_6.1.2\lvgl\src\lv_objx/lv_roller.c ****         lv_coord_t mid        = (roller->coords.y2 - roller->coords.y1) / 2;
 2057              		.loc 7 531 0
 2058 00b2 FB6A     		ldr	r3, [r7, #44]
 2059 00b4 B3F91630 		ldrsh	r3, [r3, #22]
 2060 00b8 1A46     		mov	r2, r3
 2061 00ba FB6A     		ldr	r3, [r7, #44]
 2062 00bc B3F91230 		ldrsh	r3, [r3, #18]
 2063 00c0 D31A     		subs	r3, r2, r3
 2064 00c2 DA0F     		lsrs	r2, r3, #31
 2065 00c4 1344     		add	r3, r3, r2
 2066 00c6 5B10     		asrs	r3, r3, #1
 2067 00c8 3B83     		strh	r3, [r7, #24]	@ movhi
 532:..\..\..\lvgl\version_6.1.2\lvgl\src\lv_objx/lv_roller.c **** 
 533:..\..\..\lvgl\version_6.1.2\lvgl\src\lv_objx/lv_roller.c ****         id = (mid - label_y1 + style_label->text.line_space / 2) / label_unit;
 2068              		.loc 7 533 0
 2069 00ca B7F91820 		ldrsh	r2, [r7, #24]
 2070 00ce B7F91C30 		ldrsh	r3, [r7, #28]
ARM GAS  C:\Users\tmj32\AppData\Local\Temp\ccT5YJ50.s 			page 66


 2071 00d2 D21A     		subs	r2, r2, r3
 2072 00d4 7B6A     		ldr	r3, [r7, #36]
 2073 00d6 B3F93A30 		ldrsh	r3, [r3, #58]
 2074 00da D90F     		lsrs	r1, r3, #31
 2075 00dc 0B44     		add	r3, r3, r1
 2076 00de 5B10     		asrs	r3, r3, #1
 2077 00e0 1BB2     		sxth	r3, r3
 2078 00e2 1A44     		add	r2, r2, r3
 2079 00e4 B7F91A30 		ldrsh	r3, [r7, #26]
 2080 00e8 92FBF3F3 		sdiv	r3, r2, r3
 2081 00ec 7B61     		str	r3, [r7, #20]
 534:..\..\..\lvgl\version_6.1.2\lvgl\src\lv_objx/lv_roller.c **** 
 535:..\..\..\lvgl\version_6.1.2\lvgl\src\lv_objx/lv_roller.c ****         if(id < 0) id = 0;
 2082              		.loc 7 535 0
 2083 00ee 7B69     		ldr	r3, [r7, #20]
 2084 00f0 002B     		cmp	r3, #0
 2085 00f2 01DA     		bge	.L102
 2086              		.loc 7 535 0 is_stmt 0 discriminator 1
 2087 00f4 0023     		movs	r3, #0
 2088 00f6 7B61     		str	r3, [r7, #20]
 2089              	.L102:
 536:..\..\..\lvgl\version_6.1.2\lvgl\src\lv_objx/lv_roller.c ****         if(id >= ext->ddlist.option_cnt) id = ext->ddlist.option_cnt - 1;
 2090              		.loc 7 536 0 is_stmt 1
 2091 00f8 BB6A     		ldr	r3, [r7, #40]
 2092 00fa 1B8F     		ldrh	r3, [r3, #56]
 2093 00fc 1A46     		mov	r2, r3
 2094 00fe 7B69     		ldr	r3, [r7, #20]
 2095 0100 9A42     		cmp	r2, r3
 2096 0102 03DC     		bgt	.L103
 2097              		.loc 7 536 0 is_stmt 0 discriminator 1
 2098 0104 BB6A     		ldr	r3, [r7, #40]
 2099 0106 1B8F     		ldrh	r3, [r3, #56]
 2100 0108 013B     		subs	r3, r3, #1
 2101 010a 7B61     		str	r3, [r7, #20]
 2102              	.L103:
 537:..\..\..\lvgl\version_6.1.2\lvgl\src\lv_objx/lv_roller.c **** 
 538:..\..\..\lvgl\version_6.1.2\lvgl\src\lv_objx/lv_roller.c ****         ext->ddlist.sel_opt_id     = id;
 2103              		.loc 7 538 0 is_stmt 1
 2104 010c 7B69     		ldr	r3, [r7, #20]
 2105 010e 9AB2     		uxth	r2, r3
 2106 0110 BB6A     		ldr	r3, [r7, #40]
 2107 0112 5A87     		strh	r2, [r3, #58]	@ movhi
 539:..\..\..\lvgl\version_6.1.2\lvgl\src\lv_objx/lv_roller.c ****         ext->ddlist.sel_opt_id_ori = id;
 2108              		.loc 7 539 0
 2109 0114 7B69     		ldr	r3, [r7, #20]
 2110 0116 9AB2     		uxth	r2, r3
 2111 0118 BB6A     		ldr	r3, [r7, #40]
 2112 011a 9A87     		strh	r2, [r3, #60]	@ movhi
 540:..\..\..\lvgl\version_6.1.2\lvgl\src\lv_objx/lv_roller.c ****         res                        = lv_event_send(roller, LV_EVENT_VALUE_CHANGED, &id);
 2113              		.loc 7 540 0
 2114 011c 07F11403 		add	r3, r7, #20
 2115 0120 1A46     		mov	r2, r3
 2116 0122 0E21     		movs	r1, #14
 2117 0124 F86A     		ldr	r0, [r7, #44]
 2118 0126 FFF7FEFF 		bl	lv_event_send
 2119 012a 0346     		mov	r3, r0
 2120 012c 87F83730 		strb	r3, [r7, #55]
ARM GAS  C:\Users\tmj32\AppData\Local\Temp\ccT5YJ50.s 			page 67


 541:..\..\..\lvgl\version_6.1.2\lvgl\src\lv_objx/lv_roller.c ****         if(res != LV_RES_OK) return res;
 2121              		.loc 7 541 0
 2122 0130 97F83730 		ldrb	r3, [r7, #55]	@ zero_extendqisi2
 2123 0134 012B     		cmp	r3, #1
 2124 0136 19D0     		beq	.L105
 2125              		.loc 7 541 0 is_stmt 0 discriminator 1
 2126 0138 97F83730 		ldrb	r3, [r7, #55]	@ zero_extendqisi2
 2127 013c 20E0     		b	.L109
 2128              	.L101:
 2129              	.LBE13:
 542:..\..\..\lvgl\version_6.1.2\lvgl\src\lv_objx/lv_roller.c ****     }
 543:..\..\..\lvgl\version_6.1.2\lvgl\src\lv_objx/lv_roller.c ****     /*If picked an option by clicking then set it*/
 544:..\..\..\lvgl\version_6.1.2\lvgl\src\lv_objx/lv_roller.c ****     else if(sign == LV_SIGNAL_RELEASED) {
 2130              		.loc 7 544 0 is_stmt 1
 2131 013e FB7A     		ldrb	r3, [r7, #11]	@ zero_extendqisi2
 2132 0140 0B2B     		cmp	r3, #11
 2133 0142 0CD1     		bne	.L106
 545:..\..\..\lvgl\version_6.1.2\lvgl\src\lv_objx/lv_roller.c ****         if(!lv_indev_is_dragging(indev)) {
 2134              		.loc 7 545 0
 2135 0144 386B     		ldr	r0, [r7, #48]
 2136 0146 FFF7FEFF 		bl	lv_indev_is_dragging
 2137 014a 0346     		mov	r3, r0
 2138 014c 83F00103 		eor	r3, r3, #1
 2139 0150 DBB2     		uxtb	r3, r3
 2140 0152 002B     		cmp	r3, #0
 2141 0154 0AD0     		beq	.L105
 546:..\..\..\lvgl\version_6.1.2\lvgl\src\lv_objx/lv_roller.c ****             id = ext->ddlist.sel_opt_id;
 2142              		.loc 7 546 0
 2143 0156 BB6A     		ldr	r3, [r7, #40]
 2144 0158 5B8F     		ldrh	r3, [r3, #58]
 2145 015a 7B61     		str	r3, [r7, #20]
 2146 015c 06E0     		b	.L105
 2147              	.L106:
 547:..\..\..\lvgl\version_6.1.2\lvgl\src\lv_objx/lv_roller.c **** #if LV_USE_GROUP
 548:..\..\..\lvgl\version_6.1.2\lvgl\src\lv_objx/lv_roller.c ****             /*In edit mode go to navigate mode if an option is selected*/
 549:..\..\..\lvgl\version_6.1.2\lvgl\src\lv_objx/lv_roller.c ****             lv_group_t * g = lv_obj_get_group(roller);
 550:..\..\..\lvgl\version_6.1.2\lvgl\src\lv_objx/lv_roller.c ****             bool editing   = lv_group_get_editing(g);
 551:..\..\..\lvgl\version_6.1.2\lvgl\src\lv_objx/lv_roller.c ****             if(editing) lv_group_set_editing(g, false);
 552:..\..\..\lvgl\version_6.1.2\lvgl\src\lv_objx/lv_roller.c **** #endif
 553:..\..\..\lvgl\version_6.1.2\lvgl\src\lv_objx/lv_roller.c ****         }
 554:..\..\..\lvgl\version_6.1.2\lvgl\src\lv_objx/lv_roller.c ****     } else if(sign == LV_SIGNAL_PRESSED) {
 2148              		.loc 7 554 0
 2149 015e FB7A     		ldrb	r3, [r7, #11]	@ zero_extendqisi2
 2150 0160 082B     		cmp	r3, #8
 2151 0162 03D1     		bne	.L105
 555:..\..\..\lvgl\version_6.1.2\lvgl\src\lv_objx/lv_roller.c **** #if LV_USE_ANIMATION
 556:..\..\..\lvgl\version_6.1.2\lvgl\src\lv_objx/lv_roller.c ****         lv_anim_del(roller_scrl, (lv_anim_exec_xcb_t)lv_obj_set_y);
 2152              		.loc 7 556 0
 2153 0164 0A49     		ldr	r1, .L110+8
 2154 0166 F868     		ldr	r0, [r7, #12]
 2155 0168 FFF7FEFF 		bl	lv_anim_del
 2156              	.L105:
 557:..\..\..\lvgl\version_6.1.2\lvgl\src\lv_objx/lv_roller.c **** #endif
 558:..\..\..\lvgl\version_6.1.2\lvgl\src\lv_objx/lv_roller.c ****     }
 559:..\..\..\lvgl\version_6.1.2\lvgl\src\lv_objx/lv_roller.c **** 
 560:..\..\..\lvgl\version_6.1.2\lvgl\src\lv_objx/lv_roller.c ****     /*Position the scrollable according to the new selected option*/
 561:..\..\..\lvgl\version_6.1.2\lvgl\src\lv_objx/lv_roller.c ****     if(id != -1) {
ARM GAS  C:\Users\tmj32\AppData\Local\Temp\ccT5YJ50.s 			page 68


 2157              		.loc 7 561 0
 2158 016c 7B69     		ldr	r3, [r7, #20]
 2159 016e B3F1FF3F 		cmp	r3, #-1
 2160 0172 03D0     		beq	.L108
 562:..\..\..\lvgl\version_6.1.2\lvgl\src\lv_objx/lv_roller.c ****         refr_position(roller, true);
 2161              		.loc 7 562 0
 2162 0174 0121     		movs	r1, #1
 2163 0176 F86A     		ldr	r0, [r7, #44]
 2164 0178 FFF7FEFF 		bl	refr_position
 2165              	.L108:
 563:..\..\..\lvgl\version_6.1.2\lvgl\src\lv_objx/lv_roller.c ****     }
 564:..\..\..\lvgl\version_6.1.2\lvgl\src\lv_objx/lv_roller.c **** 
 565:..\..\..\lvgl\version_6.1.2\lvgl\src\lv_objx/lv_roller.c ****     return res;
 2166              		.loc 7 565 0
 2167 017c 97F83730 		ldrb	r3, [r7, #55]	@ zero_extendqisi2
 2168              	.L109:
 566:..\..\..\lvgl\version_6.1.2\lvgl\src\lv_objx/lv_roller.c **** }
 2169              		.loc 7 566 0 discriminator 1
 2170 0180 1846     		mov	r0, r3
 2171 0182 3837     		adds	r7, r7, #56
 2172              		.cfi_def_cfa_offset 8
 2173 0184 BD46     		mov	sp, r7
 2174              		.cfi_def_cfa_register 13
 2175              		@ sp needed
 2176 0186 80BD     		pop	{r7, pc}
 2177              	.L111:
 2178              		.align	2
 2179              	.L110:
 2180 0188 04000000 		.word	ancestor_scrl_signal
 2181 018c 00000000 		.word	.LC0
 2182 0190 00000000 		.word	lv_obj_set_y
 2183              		.cfi_endproc
 2184              	.LFE71:
 2185              		.size	lv_roller_scrl_signal, .-lv_roller_scrl_signal
 2186              		.section	.text.draw_bg,"ax",%progbits
 2187              		.align	2
 2188              		.thumb
 2189              		.thumb_func
 2190              		.type	draw_bg, %function
 2191              	draw_bg:
 2192              	.LFB72:
 567:..\..\..\lvgl\version_6.1.2\lvgl\src\lv_objx/lv_roller.c **** 
 568:..\..\..\lvgl\version_6.1.2\lvgl\src\lv_objx/lv_roller.c **** /**
 569:..\..\..\lvgl\version_6.1.2\lvgl\src\lv_objx/lv_roller.c ****  * Draw a rectangle which has gradient on its top and bottom
 570:..\..\..\lvgl\version_6.1.2\lvgl\src\lv_objx/lv_roller.c ****  * @param roller pointer to a roller object
 571:..\..\..\lvgl\version_6.1.2\lvgl\src\lv_objx/lv_roller.c ****  * @param mask pointer to the current mask (from the design function)
 572:..\..\..\lvgl\version_6.1.2\lvgl\src\lv_objx/lv_roller.c ****  */
 573:..\..\..\lvgl\version_6.1.2\lvgl\src\lv_objx/lv_roller.c **** static void draw_bg(lv_obj_t * roller, const lv_area_t * mask)
 574:..\..\..\lvgl\version_6.1.2\lvgl\src\lv_objx/lv_roller.c **** {
 2193              		.loc 7 574 0
 2194              		.cfi_startproc
 2195              		@ args = 0, pretend = 0, frame = 112
 2196              		@ frame_needed = 1, uses_anonymous_args = 0
 2197 0000 80B5     		push	{r7, lr}
 2198              		.cfi_def_cfa_offset 8
 2199              		.cfi_offset 7, -8
 2200              		.cfi_offset 14, -4
ARM GAS  C:\Users\tmj32\AppData\Local\Temp\ccT5YJ50.s 			page 69


 2201 0002 9CB0     		sub	sp, sp, #112
 2202              		.cfi_def_cfa_offset 120
 2203 0004 00AF     		add	r7, sp, #0
 2204              		.cfi_def_cfa_register 7
 2205 0006 7860     		str	r0, [r7, #4]
 2206 0008 3960     		str	r1, [r7]
 575:..\..\..\lvgl\version_6.1.2\lvgl\src\lv_objx/lv_roller.c ****     const lv_style_t * style = lv_roller_get_style(roller, LV_ROLLER_STYLE_BG);
 2207              		.loc 7 575 0
 2208 000a 0021     		movs	r1, #0
 2209 000c 7868     		ldr	r0, [r7, #4]
 2210 000e FFF7FEFF 		bl	lv_roller_get_style
 2211 0012 F866     		str	r0, [r7, #108]
 576:..\..\..\lvgl\version_6.1.2\lvgl\src\lv_objx/lv_roller.c ****     lv_area_t half_mask;
 577:..\..\..\lvgl\version_6.1.2\lvgl\src\lv_objx/lv_roller.c ****     lv_area_t half_roller;
 578:..\..\..\lvgl\version_6.1.2\lvgl\src\lv_objx/lv_roller.c ****     lv_coord_t h = lv_obj_get_height(roller);
 2212              		.loc 7 578 0
 2213 0014 7868     		ldr	r0, [r7, #4]
 2214 0016 FFF7FEFF 		bl	lv_obj_get_height
 2215 001a 0346     		mov	r3, r0
 2216 001c A7F86A30 		strh	r3, [r7, #106]	@ movhi
 579:..\..\..\lvgl\version_6.1.2\lvgl\src\lv_objx/lv_roller.c ****     bool union_ok;
 580:..\..\..\lvgl\version_6.1.2\lvgl\src\lv_objx/lv_roller.c ****     lv_area_copy(&half_roller, &roller->coords);
 2217              		.loc 7 580 0
 2218 0020 7B68     		ldr	r3, [r7, #4]
 2219 0022 03F11002 		add	r2, r3, #16
 2220 0026 07F15803 		add	r3, r7, #88
 2221 002a 1146     		mov	r1, r2
 2222 002c 1846     		mov	r0, r3
 2223 002e FFF7FEFF 		bl	lv_area_copy
 581:..\..\..\lvgl\version_6.1.2\lvgl\src\lv_objx/lv_roller.c **** 
 582:..\..\..\lvgl\version_6.1.2\lvgl\src\lv_objx/lv_roller.c ****     half_roller.x1 -= roller->ext_draw_pad; /*Add ext size too (e.g. because of shadow draw) */
 2224              		.loc 7 582 0
 2225 0032 B7F95830 		ldrsh	r3, [r7, #88]
 2226 0036 9AB2     		uxth	r2, r3
 2227 0038 7B68     		ldr	r3, [r7, #4]
 2228 003a B3F93030 		ldrsh	r3, [r3, #48]
 2229 003e 9BB2     		uxth	r3, r3
 2230 0040 D31A     		subs	r3, r2, r3
 2231 0042 9BB2     		uxth	r3, r3
 2232 0044 1BB2     		sxth	r3, r3
 2233 0046 A7F85830 		strh	r3, [r7, #88]	@ movhi
 583:..\..\..\lvgl\version_6.1.2\lvgl\src\lv_objx/lv_roller.c ****     half_roller.x2 += roller->ext_draw_pad;
 2234              		.loc 7 583 0
 2235 004a B7F95C30 		ldrsh	r3, [r7, #92]
 2236 004e 9AB2     		uxth	r2, r3
 2237 0050 7B68     		ldr	r3, [r7, #4]
 2238 0052 B3F93030 		ldrsh	r3, [r3, #48]
 2239 0056 9BB2     		uxth	r3, r3
 2240 0058 1344     		add	r3, r3, r2
 2241 005a 9BB2     		uxth	r3, r3
 2242 005c 1BB2     		sxth	r3, r3
 2243 005e A7F85C30 		strh	r3, [r7, #92]	@ movhi
 584:..\..\..\lvgl\version_6.1.2\lvgl\src\lv_objx/lv_roller.c ****     half_roller.y1 -= roller->ext_draw_pad;
 2244              		.loc 7 584 0
 2245 0062 B7F95A30 		ldrsh	r3, [r7, #90]
 2246 0066 9AB2     		uxth	r2, r3
 2247 0068 7B68     		ldr	r3, [r7, #4]
ARM GAS  C:\Users\tmj32\AppData\Local\Temp\ccT5YJ50.s 			page 70


 2248 006a B3F93030 		ldrsh	r3, [r3, #48]
 2249 006e 9BB2     		uxth	r3, r3
 2250 0070 D31A     		subs	r3, r2, r3
 2251 0072 9BB2     		uxth	r3, r3
 2252 0074 1BB2     		sxth	r3, r3
 2253 0076 A7F85A30 		strh	r3, [r7, #90]	@ movhi
 585:..\..\..\lvgl\version_6.1.2\lvgl\src\lv_objx/lv_roller.c ****     half_roller.y2 = roller->coords.y1 + h / 2;
 2254              		.loc 7 585 0
 2255 007a 7B68     		ldr	r3, [r7, #4]
 2256 007c B3F91230 		ldrsh	r3, [r3, #18]
 2257 0080 9AB2     		uxth	r2, r3
 2258 0082 B7F96A30 		ldrsh	r3, [r7, #106]
 2259 0086 D90F     		lsrs	r1, r3, #31
 2260 0088 0B44     		add	r3, r3, r1
 2261 008a 5B10     		asrs	r3, r3, #1
 2262 008c 1BB2     		sxth	r3, r3
 2263 008e 9BB2     		uxth	r3, r3
 2264 0090 1344     		add	r3, r3, r2
 2265 0092 9BB2     		uxth	r3, r3
 2266 0094 1BB2     		sxth	r3, r3
 2267 0096 A7F85E30 		strh	r3, [r7, #94]	@ movhi
 586:..\..\..\lvgl\version_6.1.2\lvgl\src\lv_objx/lv_roller.c **** 
 587:..\..\..\lvgl\version_6.1.2\lvgl\src\lv_objx/lv_roller.c ****     union_ok = lv_area_intersect(&half_mask, &half_roller, mask);
 2268              		.loc 7 587 0
 2269 009a 07F15801 		add	r1, r7, #88
 2270 009e 07F16003 		add	r3, r7, #96
 2271 00a2 3A68     		ldr	r2, [r7]
 2272 00a4 1846     		mov	r0, r3
 2273 00a6 FFF7FEFF 		bl	lv_area_intersect
 2274 00aa 0346     		mov	r3, r0
 2275 00ac 87F86930 		strb	r3, [r7, #105]
 588:..\..\..\lvgl\version_6.1.2\lvgl\src\lv_objx/lv_roller.c **** 
 589:..\..\..\lvgl\version_6.1.2\lvgl\src\lv_objx/lv_roller.c ****     half_roller.x1 += roller->ext_draw_pad; /*Revert ext. size adding*/
 2276              		.loc 7 589 0
 2277 00b0 B7F95830 		ldrsh	r3, [r7, #88]
 2278 00b4 9AB2     		uxth	r2, r3
 2279 00b6 7B68     		ldr	r3, [r7, #4]
 2280 00b8 B3F93030 		ldrsh	r3, [r3, #48]
 2281 00bc 9BB2     		uxth	r3, r3
 2282 00be 1344     		add	r3, r3, r2
 2283 00c0 9BB2     		uxth	r3, r3
 2284 00c2 1BB2     		sxth	r3, r3
 2285 00c4 A7F85830 		strh	r3, [r7, #88]	@ movhi
 590:..\..\..\lvgl\version_6.1.2\lvgl\src\lv_objx/lv_roller.c ****     half_roller.x2 -= roller->ext_draw_pad;
 2286              		.loc 7 590 0
 2287 00c8 B7F95C30 		ldrsh	r3, [r7, #92]
 2288 00cc 9AB2     		uxth	r2, r3
 2289 00ce 7B68     		ldr	r3, [r7, #4]
 2290 00d0 B3F93030 		ldrsh	r3, [r3, #48]
 2291 00d4 9BB2     		uxth	r3, r3
 2292 00d6 D31A     		subs	r3, r2, r3
 2293 00d8 9BB2     		uxth	r3, r3
 2294 00da 1BB2     		sxth	r3, r3
 2295 00dc A7F85C30 		strh	r3, [r7, #92]	@ movhi
 591:..\..\..\lvgl\version_6.1.2\lvgl\src\lv_objx/lv_roller.c ****     half_roller.y1 += roller->ext_draw_pad;
 2296              		.loc 7 591 0
 2297 00e0 B7F95A30 		ldrsh	r3, [r7, #90]
ARM GAS  C:\Users\tmj32\AppData\Local\Temp\ccT5YJ50.s 			page 71


 2298 00e4 9AB2     		uxth	r2, r3
 2299 00e6 7B68     		ldr	r3, [r7, #4]
 2300 00e8 B3F93030 		ldrsh	r3, [r3, #48]
 2301 00ec 9BB2     		uxth	r3, r3
 2302 00ee 1344     		add	r3, r3, r2
 2303 00f0 9BB2     		uxth	r3, r3
 2304 00f2 1BB2     		sxth	r3, r3
 2305 00f4 A7F85A30 		strh	r3, [r7, #90]	@ movhi
 592:..\..\..\lvgl\version_6.1.2\lvgl\src\lv_objx/lv_roller.c ****     half_roller.y2 += style->body.radius;
 2306              		.loc 7 592 0
 2307 00f8 B7F95E30 		ldrsh	r3, [r7, #94]
 2308 00fc 9AB2     		uxth	r2, r3
 2309 00fe FB6E     		ldr	r3, [r7, #108]
 2310 0100 B3F90C30 		ldrsh	r3, [r3, #12]
 2311 0104 9BB2     		uxth	r3, r3
 2312 0106 1344     		add	r3, r3, r2
 2313 0108 9BB2     		uxth	r3, r3
 2314 010a 1BB2     		sxth	r3, r3
 2315 010c A7F85E30 		strh	r3, [r7, #94]	@ movhi
 593:..\..\..\lvgl\version_6.1.2\lvgl\src\lv_objx/lv_roller.c **** 
 594:..\..\..\lvgl\version_6.1.2\lvgl\src\lv_objx/lv_roller.c ****     if(union_ok) {
 2316              		.loc 7 594 0
 2317 0110 97F86930 		ldrb	r3, [r7, #105]	@ zero_extendqisi2
 2318 0114 002B     		cmp	r3, #0
 2319 0116 0AD0     		beq	.L113
 595:..\..\..\lvgl\version_6.1.2\lvgl\src\lv_objx/lv_roller.c ****         lv_draw_rect(&half_roller, &half_mask, style, lv_obj_get_opa_scale(roller));
 2320              		.loc 7 595 0
 2321 0118 7868     		ldr	r0, [r7, #4]
 2322 011a FFF7FEFF 		bl	lv_obj_get_opa_scale
 2323 011e 0346     		mov	r3, r0
 2324 0120 07F16001 		add	r1, r7, #96
 2325 0124 07F15800 		add	r0, r7, #88
 2326 0128 FA6E     		ldr	r2, [r7, #108]
 2327 012a FFF7FEFF 		bl	lv_draw_rect
 2328              	.L113:
 596:..\..\..\lvgl\version_6.1.2\lvgl\src\lv_objx/lv_roller.c ****     }
 597:..\..\..\lvgl\version_6.1.2\lvgl\src\lv_objx/lv_roller.c **** 
 598:..\..\..\lvgl\version_6.1.2\lvgl\src\lv_objx/lv_roller.c ****     half_roller.x1 -= roller->ext_draw_pad; /*Add ext size too (e.g. because of shadow draw) */
 2329              		.loc 7 598 0
 2330 012e B7F95830 		ldrsh	r3, [r7, #88]
 2331 0132 9AB2     		uxth	r2, r3
 2332 0134 7B68     		ldr	r3, [r7, #4]
 2333 0136 B3F93030 		ldrsh	r3, [r3, #48]
 2334 013a 9BB2     		uxth	r3, r3
 2335 013c D31A     		subs	r3, r2, r3
 2336 013e 9BB2     		uxth	r3, r3
 2337 0140 1BB2     		sxth	r3, r3
 2338 0142 A7F85830 		strh	r3, [r7, #88]	@ movhi
 599:..\..\..\lvgl\version_6.1.2\lvgl\src\lv_objx/lv_roller.c ****     half_roller.x2 += roller->ext_draw_pad;
 2339              		.loc 7 599 0
 2340 0146 B7F95C30 		ldrsh	r3, [r7, #92]
 2341 014a 9AB2     		uxth	r2, r3
 2342 014c 7B68     		ldr	r3, [r7, #4]
 2343 014e B3F93030 		ldrsh	r3, [r3, #48]
 2344 0152 9BB2     		uxth	r3, r3
 2345 0154 1344     		add	r3, r3, r2
 2346 0156 9BB2     		uxth	r3, r3
ARM GAS  C:\Users\tmj32\AppData\Local\Temp\ccT5YJ50.s 			page 72


 2347 0158 1BB2     		sxth	r3, r3
 2348 015a A7F85C30 		strh	r3, [r7, #92]	@ movhi
 600:..\..\..\lvgl\version_6.1.2\lvgl\src\lv_objx/lv_roller.c ****     half_roller.y2 = roller->coords.y2 + roller->ext_draw_pad;
 2349              		.loc 7 600 0
 2350 015e 7B68     		ldr	r3, [r7, #4]
 2351 0160 B3F91630 		ldrsh	r3, [r3, #22]
 2352 0164 9AB2     		uxth	r2, r3
 2353 0166 7B68     		ldr	r3, [r7, #4]
 2354 0168 B3F93030 		ldrsh	r3, [r3, #48]
 2355 016c 9BB2     		uxth	r3, r3
 2356 016e 1344     		add	r3, r3, r2
 2357 0170 9BB2     		uxth	r3, r3
 2358 0172 1BB2     		sxth	r3, r3
 2359 0174 A7F85E30 		strh	r3, [r7, #94]	@ movhi
 601:..\..\..\lvgl\version_6.1.2\lvgl\src\lv_objx/lv_roller.c ****     half_roller.y1 = roller->coords.y1 + h / 2;
 2360              		.loc 7 601 0
 2361 0178 7B68     		ldr	r3, [r7, #4]
 2362 017a B3F91230 		ldrsh	r3, [r3, #18]
 2363 017e 9AB2     		uxth	r2, r3
 2364 0180 B7F96A30 		ldrsh	r3, [r7, #106]
 2365 0184 D90F     		lsrs	r1, r3, #31
 2366 0186 0B44     		add	r3, r3, r1
 2367 0188 5B10     		asrs	r3, r3, #1
 2368 018a 1BB2     		sxth	r3, r3
 2369 018c 9BB2     		uxth	r3, r3
 2370 018e 1344     		add	r3, r3, r2
 2371 0190 9BB2     		uxth	r3, r3
 2372 0192 1BB2     		sxth	r3, r3
 2373 0194 A7F85A30 		strh	r3, [r7, #90]	@ movhi
 602:..\..\..\lvgl\version_6.1.2\lvgl\src\lv_objx/lv_roller.c ****     if((h & 0x1) == 0) half_roller.y1++; /*With even height the pixels in the middle would be drawn
 2374              		.loc 7 602 0
 2375 0198 B7F86A30 		ldrh	r3, [r7, #106]
 2376 019c 03F00103 		and	r3, r3, #1
 2377 01a0 002B     		cmp	r3, #0
 2378 01a2 07D1     		bne	.L114
 2379              		.loc 7 602 0 is_stmt 0 discriminator 1
 2380 01a4 B7F95A30 		ldrsh	r3, [r7, #90]
 2381 01a8 9BB2     		uxth	r3, r3
 2382 01aa 0133     		adds	r3, r3, #1
 2383 01ac 9BB2     		uxth	r3, r3
 2384 01ae 1BB2     		sxth	r3, r3
 2385 01b0 A7F85A30 		strh	r3, [r7, #90]	@ movhi
 2386              	.L114:
 603:..\..\..\lvgl\version_6.1.2\lvgl\src\lv_objx/lv_roller.c **** 
 604:..\..\..\lvgl\version_6.1.2\lvgl\src\lv_objx/lv_roller.c ****     union_ok = lv_area_intersect(&half_mask, &half_roller, mask);
 2387              		.loc 7 604 0 is_stmt 1
 2388 01b4 07F15801 		add	r1, r7, #88
 2389 01b8 07F16003 		add	r3, r7, #96
 2390 01bc 3A68     		ldr	r2, [r7]
 2391 01be 1846     		mov	r0, r3
 2392 01c0 FFF7FEFF 		bl	lv_area_intersect
 2393 01c4 0346     		mov	r3, r0
 2394 01c6 87F86930 		strb	r3, [r7, #105]
 605:..\..\..\lvgl\version_6.1.2\lvgl\src\lv_objx/lv_roller.c **** 
 606:..\..\..\lvgl\version_6.1.2\lvgl\src\lv_objx/lv_roller.c ****     half_roller.x1 += roller->ext_draw_pad; /*Revert ext. size adding*/
 2395              		.loc 7 606 0
 2396 01ca B7F95830 		ldrsh	r3, [r7, #88]
ARM GAS  C:\Users\tmj32\AppData\Local\Temp\ccT5YJ50.s 			page 73


 2397 01ce 9AB2     		uxth	r2, r3
 2398 01d0 7B68     		ldr	r3, [r7, #4]
 2399 01d2 B3F93030 		ldrsh	r3, [r3, #48]
 2400 01d6 9BB2     		uxth	r3, r3
 2401 01d8 1344     		add	r3, r3, r2
 2402 01da 9BB2     		uxth	r3, r3
 2403 01dc 1BB2     		sxth	r3, r3
 2404 01de A7F85830 		strh	r3, [r7, #88]	@ movhi
 607:..\..\..\lvgl\version_6.1.2\lvgl\src\lv_objx/lv_roller.c ****     half_roller.x2 -= roller->ext_draw_pad;
 2405              		.loc 7 607 0
 2406 01e2 B7F95C30 		ldrsh	r3, [r7, #92]
 2407 01e6 9AB2     		uxth	r2, r3
 2408 01e8 7B68     		ldr	r3, [r7, #4]
 2409 01ea B3F93030 		ldrsh	r3, [r3, #48]
 2410 01ee 9BB2     		uxth	r3, r3
 2411 01f0 D31A     		subs	r3, r2, r3
 2412 01f2 9BB2     		uxth	r3, r3
 2413 01f4 1BB2     		sxth	r3, r3
 2414 01f6 A7F85C30 		strh	r3, [r7, #92]	@ movhi
 608:..\..\..\lvgl\version_6.1.2\lvgl\src\lv_objx/lv_roller.c ****     half_roller.y2 -= roller->ext_draw_pad;
 2415              		.loc 7 608 0
 2416 01fa B7F95E30 		ldrsh	r3, [r7, #94]
 2417 01fe 9AB2     		uxth	r2, r3
 2418 0200 7B68     		ldr	r3, [r7, #4]
 2419 0202 B3F93030 		ldrsh	r3, [r3, #48]
 2420 0206 9BB2     		uxth	r3, r3
 2421 0208 D31A     		subs	r3, r2, r3
 2422 020a 9BB2     		uxth	r3, r3
 2423 020c 1BB2     		sxth	r3, r3
 2424 020e A7F85E30 		strh	r3, [r7, #94]	@ movhi
 609:..\..\..\lvgl\version_6.1.2\lvgl\src\lv_objx/lv_roller.c ****     half_roller.y1 -= style->body.radius;
 2425              		.loc 7 609 0
 2426 0212 B7F95A30 		ldrsh	r3, [r7, #90]
 2427 0216 9AB2     		uxth	r2, r3
 2428 0218 FB6E     		ldr	r3, [r7, #108]
 2429 021a B3F90C30 		ldrsh	r3, [r3, #12]
 2430 021e 9BB2     		uxth	r3, r3
 2431 0220 D31A     		subs	r3, r2, r3
 2432 0222 9BB2     		uxth	r3, r3
 2433 0224 1BB2     		sxth	r3, r3
 2434 0226 A7F85A30 		strh	r3, [r7, #90]	@ movhi
 610:..\..\..\lvgl\version_6.1.2\lvgl\src\lv_objx/lv_roller.c **** 
 611:..\..\..\lvgl\version_6.1.2\lvgl\src\lv_objx/lv_roller.c ****     if(union_ok) {
 2435              		.loc 7 611 0
 2436 022a 97F86930 		ldrb	r3, [r7, #105]	@ zero_extendqisi2
 2437 022e 002B     		cmp	r3, #0
 2438 0230 18D0     		beq	.L116
 2439              	.LBB14:
 612:..\..\..\lvgl\version_6.1.2\lvgl\src\lv_objx/lv_roller.c ****         lv_style_t style_tmp;
 613:..\..\..\lvgl\version_6.1.2\lvgl\src\lv_objx/lv_roller.c ****         memcpy(&style_tmp, style, sizeof(lv_style_t));
 2440              		.loc 7 613 0
 2441 0232 07F10803 		add	r3, r7, #8
 2442 0236 5022     		movs	r2, #80
 2443 0238 F96E     		ldr	r1, [r7, #108]
 2444 023a 1846     		mov	r0, r3
 2445 023c FFF7FEFF 		bl	memcpy
 614:..\..\..\lvgl\version_6.1.2\lvgl\src\lv_objx/lv_roller.c ****         style_tmp.body.main_color = style->body.grad_color;
ARM GAS  C:\Users\tmj32\AppData\Local\Temp\ccT5YJ50.s 			page 74


 2446              		.loc 7 614 0
 2447 0240 FB6E     		ldr	r3, [r7, #108]
 2448 0242 9B68     		ldr	r3, [r3, #8]
 2449 0244 FB60     		str	r3, [r7, #12]
 615:..\..\..\lvgl\version_6.1.2\lvgl\src\lv_objx/lv_roller.c ****         style_tmp.body.grad_color = style->body.main_color;
 2450              		.loc 7 615 0
 2451 0246 FB6E     		ldr	r3, [r7, #108]
 2452 0248 5B68     		ldr	r3, [r3, #4]
 2453 024a 3B61     		str	r3, [r7, #16]
 616:..\..\..\lvgl\version_6.1.2\lvgl\src\lv_objx/lv_roller.c ****         lv_draw_rect(&half_roller, &half_mask, &style_tmp, lv_obj_get_opa_scale(roller));
 2454              		.loc 7 616 0
 2455 024c 7868     		ldr	r0, [r7, #4]
 2456 024e FFF7FEFF 		bl	lv_obj_get_opa_scale
 2457 0252 0346     		mov	r3, r0
 2458 0254 07F10802 		add	r2, r7, #8
 2459 0258 07F16001 		add	r1, r7, #96
 2460 025c 07F15800 		add	r0, r7, #88
 2461 0260 FFF7FEFF 		bl	lv_draw_rect
 2462              	.L116:
 2463              	.LBE14:
 617:..\..\..\lvgl\version_6.1.2\lvgl\src\lv_objx/lv_roller.c ****     }
 618:..\..\..\lvgl\version_6.1.2\lvgl\src\lv_objx/lv_roller.c **** }
 2464              		.loc 7 618 0
 2465 0264 00BF     		nop
 2466 0266 7037     		adds	r7, r7, #112
 2467              		.cfi_def_cfa_offset 8
 2468 0268 BD46     		mov	sp, r7
 2469              		.cfi_def_cfa_register 13
 2470              		@ sp needed
 2471 026a 80BD     		pop	{r7, pc}
 2472              		.cfi_endproc
 2473              	.LFE72:
 2474              		.size	draw_bg, .-draw_bg
 2475              		.section	.text.refr_position,"ax",%progbits
 2476              		.align	2
 2477              		.thumb
 2478              		.thumb_func
 2479              		.type	refr_position, %function
 2480              	refr_position:
 2481              	.LFB73:
 619:..\..\..\lvgl\version_6.1.2\lvgl\src\lv_objx/lv_roller.c **** 
 620:..\..\..\lvgl\version_6.1.2\lvgl\src\lv_objx/lv_roller.c **** /**
 621:..\..\..\lvgl\version_6.1.2\lvgl\src\lv_objx/lv_roller.c ****  * Refresh the position of the roller. It uses the id stored in: ext->ddlist.selected_option_id
 622:..\..\..\lvgl\version_6.1.2\lvgl\src\lv_objx/lv_roller.c ****  * @param roller pointer to a roller object
 623:..\..\..\lvgl\version_6.1.2\lvgl\src\lv_objx/lv_roller.c ****  * @param anim_en LV_ANIM_ON: refresh with animation; LV_ANOM_OFF: without animation
 624:..\..\..\lvgl\version_6.1.2\lvgl\src\lv_objx/lv_roller.c ****  */
 625:..\..\..\lvgl\version_6.1.2\lvgl\src\lv_objx/lv_roller.c **** static void refr_position(lv_obj_t * roller, lv_anim_enable_t anim_en)
 626:..\..\..\lvgl\version_6.1.2\lvgl\src\lv_objx/lv_roller.c **** {
 2482              		.loc 7 626 0
 2483              		.cfi_startproc
 2484              		@ args = 0, pretend = 0, frame = 80
 2485              		@ frame_needed = 1, uses_anonymous_args = 0
 2486 0000 80B5     		push	{r7, lr}
 2487              		.cfi_def_cfa_offset 8
 2488              		.cfi_offset 7, -8
 2489              		.cfi_offset 14, -4
 2490 0002 94B0     		sub	sp, sp, #80
ARM GAS  C:\Users\tmj32\AppData\Local\Temp\ccT5YJ50.s 			page 75


 2491              		.cfi_def_cfa_offset 88
 2492 0004 00AF     		add	r7, sp, #0
 2493              		.cfi_def_cfa_register 7
 2494 0006 7860     		str	r0, [r7, #4]
 2495 0008 0B46     		mov	r3, r1
 2496 000a FB70     		strb	r3, [r7, #3]
 627:..\..\..\lvgl\version_6.1.2\lvgl\src\lv_objx/lv_roller.c **** #if LV_USE_ANIMATION == 0
 628:..\..\..\lvgl\version_6.1.2\lvgl\src\lv_objx/lv_roller.c ****     anim_en = LV_ANIM_OFF;
 629:..\..\..\lvgl\version_6.1.2\lvgl\src\lv_objx/lv_roller.c **** #endif
 630:..\..\..\lvgl\version_6.1.2\lvgl\src\lv_objx/lv_roller.c **** 
 631:..\..\..\lvgl\version_6.1.2\lvgl\src\lv_objx/lv_roller.c ****     lv_obj_t * roller_scrl         = lv_page_get_scrl(roller);
 2497              		.loc 7 631 0
 2498 000c 7868     		ldr	r0, [r7, #4]
 2499 000e FFF7FEFF 		bl	lv_page_get_scrl
 2500 0012 F864     		str	r0, [r7, #76]
 632:..\..\..\lvgl\version_6.1.2\lvgl\src\lv_objx/lv_roller.c ****     lv_roller_ext_t * ext          = lv_obj_get_ext_attr(roller);
 2501              		.loc 7 632 0
 2502 0014 7868     		ldr	r0, [r7, #4]
 2503 0016 FFF7FEFF 		bl	lv_obj_get_ext_attr
 2504 001a B864     		str	r0, [r7, #72]
 633:..\..\..\lvgl\version_6.1.2\lvgl\src\lv_objx/lv_roller.c ****     const lv_style_t * style_label = lv_obj_get_style(ext->ddlist.label);
 2505              		.loc 7 633 0
 2506 001c BB6C     		ldr	r3, [r7, #72]
 2507 001e 1B6B     		ldr	r3, [r3, #48]
 2508 0020 1846     		mov	r0, r3
 2509 0022 FFF7FEFF 		bl	lv_obj_get_style
 2510 0026 7864     		str	r0, [r7, #68]
 634:..\..\..\lvgl\version_6.1.2\lvgl\src\lv_objx/lv_roller.c ****     const lv_font_t * font         = style_label->text.font;
 2511              		.loc 7 634 0
 2512 0028 7B6C     		ldr	r3, [r7, #68]
 2513 002a 5B6B     		ldr	r3, [r3, #52]
 2514 002c 3B64     		str	r3, [r7, #64]
 635:..\..\..\lvgl\version_6.1.2\lvgl\src\lv_objx/lv_roller.c ****     lv_coord_t font_h              = lv_font_get_line_height(font);
 2515              		.loc 7 635 0
 2516 002e 386C     		ldr	r0, [r7, #64]
 2517 0030 FFF7FEFF 		bl	lv_font_get_line_height
 2518 0034 0346     		mov	r3, r0
 2519 0036 FB87     		strh	r3, [r7, #62]	@ movhi
 636:..\..\..\lvgl\version_6.1.2\lvgl\src\lv_objx/lv_roller.c ****     lv_coord_t h                   = lv_obj_get_height(roller);
 2520              		.loc 7 636 0
 2521 0038 7868     		ldr	r0, [r7, #4]
 2522 003a FFF7FEFF 		bl	lv_obj_get_height
 2523 003e 0346     		mov	r3, r0
 2524 0040 BB87     		strh	r3, [r7, #60]	@ movhi
 637:..\..\..\lvgl\version_6.1.2\lvgl\src\lv_objx/lv_roller.c ****     uint16_t anim_time             = lv_roller_get_anim_time(roller);
 2525              		.loc 7 637 0
 2526 0042 7868     		ldr	r0, [r7, #4]
 2527 0044 FFF7FEFF 		bl	lv_roller_get_anim_time
 2528 0048 0346     		mov	r3, r0
 2529 004a 7B87     		strh	r3, [r7, #58]	@ movhi
 638:..\..\..\lvgl\version_6.1.2\lvgl\src\lv_objx/lv_roller.c **** 
 639:..\..\..\lvgl\version_6.1.2\lvgl\src\lv_objx/lv_roller.c ****     /* Normally the animtaion's `end_cb` sets correct position of the roller is infinite.
 640:..\..\..\lvgl\version_6.1.2\lvgl\src\lv_objx/lv_roller.c ****      * But without animations do it manually*/
 641:..\..\..\lvgl\version_6.1.2\lvgl\src\lv_objx/lv_roller.c ****     if(anim_en == LV_ANIM_OFF || anim_time == 0) {
 2530              		.loc 7 641 0
 2531 004c FB78     		ldrb	r3, [r7, #3]	@ zero_extendqisi2
 2532 004e 002B     		cmp	r3, #0
ARM GAS  C:\Users\tmj32\AppData\Local\Temp\ccT5YJ50.s 			page 76


 2533 0050 02D0     		beq	.L118
 2534              		.loc 7 641 0 is_stmt 0 discriminator 1
 2535 0052 7B8F     		ldrh	r3, [r7, #58]
 2536 0054 002B     		cmp	r3, #0
 2537 0056 02D1     		bne	.L119
 2538              	.L118:
 642:..\..\..\lvgl\version_6.1.2\lvgl\src\lv_objx/lv_roller.c ****         inf_normalize(roller_scrl);
 2539              		.loc 7 642 0 is_stmt 1
 2540 0058 F86C     		ldr	r0, [r7, #76]
 2541 005a FFF7FEFF 		bl	inf_normalize
 2542              	.L119:
 643:..\..\..\lvgl\version_6.1.2\lvgl\src\lv_objx/lv_roller.c ****     }
 644:..\..\..\lvgl\version_6.1.2\lvgl\src\lv_objx/lv_roller.c **** 
 645:..\..\..\lvgl\version_6.1.2\lvgl\src\lv_objx/lv_roller.c ****     int32_t id = ext->ddlist.sel_opt_id;
 2543              		.loc 7 645 0
 2544 005e BB6C     		ldr	r3, [r7, #72]
 2545 0060 5B8F     		ldrh	r3, [r3, #58]
 2546 0062 7B63     		str	r3, [r7, #52]
 646:..\..\..\lvgl\version_6.1.2\lvgl\src\lv_objx/lv_roller.c ****     lv_coord_t line_y1 =
 647:..\..\..\lvgl\version_6.1.2\lvgl\src\lv_objx/lv_roller.c ****         id * (font_h + style_label->text.line_space) + ext->ddlist.label->coords.y1 - roller_scrl->
 2547              		.loc 7 647 0
 2548 0064 B7F93E30 		ldrsh	r3, [r7, #62]
 2549 0068 7A6C     		ldr	r2, [r7, #68]
 2550 006a B2F93A20 		ldrsh	r2, [r2, #58]
 2551 006e 1344     		add	r3, r3, r2
 646:..\..\..\lvgl\version_6.1.2\lvgl\src\lv_objx/lv_roller.c ****     lv_coord_t line_y1 =
 2552              		.loc 7 646 0
 2553 0070 9AB2     		uxth	r2, r3
 2554 0072 7B6B     		ldr	r3, [r7, #52]
 2555 0074 9BB2     		uxth	r3, r3
 2556 0076 12FB03F3 		smulbb	r3, r2, r3
 2557 007a 9AB2     		uxth	r2, r3
 2558              		.loc 7 647 0
 2559 007c BB6C     		ldr	r3, [r7, #72]
 2560 007e 1B6B     		ldr	r3, [r3, #48]
 2561 0080 B3F91230 		ldrsh	r3, [r3, #18]
 646:..\..\..\lvgl\version_6.1.2\lvgl\src\lv_objx/lv_roller.c ****     lv_coord_t line_y1 =
 2562              		.loc 7 646 0
 2563 0084 9BB2     		uxth	r3, r3
 2564 0086 1344     		add	r3, r3, r2
 2565 0088 9AB2     		uxth	r2, r3
 2566              		.loc 7 647 0
 2567 008a FB6C     		ldr	r3, [r7, #76]
 2568 008c B3F91230 		ldrsh	r3, [r3, #18]
 646:..\..\..\lvgl\version_6.1.2\lvgl\src\lv_objx/lv_roller.c ****     lv_coord_t line_y1 =
 2569              		.loc 7 646 0
 2570 0090 9BB2     		uxth	r3, r3
 2571 0092 D31A     		subs	r3, r2, r3
 2572 0094 9BB2     		uxth	r3, r3
 2573 0096 7B86     		strh	r3, [r7, #50]	@ movhi
 648:..\..\..\lvgl\version_6.1.2\lvgl\src\lv_objx/lv_roller.c ****     lv_coord_t new_y = -line_y1 + (h - font_h) / 2;
 2574              		.loc 7 648 0
 2575 0098 B7F93C20 		ldrsh	r2, [r7, #60]
 2576 009c B7F93E30 		ldrsh	r3, [r7, #62]
 2577 00a0 D31A     		subs	r3, r2, r3
 2578 00a2 DA0F     		lsrs	r2, r3, #31
 2579 00a4 1344     		add	r3, r3, r2
ARM GAS  C:\Users\tmj32\AppData\Local\Temp\ccT5YJ50.s 			page 77


 2580 00a6 5B10     		asrs	r3, r3, #1
 2581 00a8 9AB2     		uxth	r2, r3
 2582 00aa 7B8E     		ldrh	r3, [r7, #50]
 2583 00ac D31A     		subs	r3, r2, r3
 2584 00ae 9BB2     		uxth	r3, r3
 2585 00b0 3B86     		strh	r3, [r7, #48]	@ movhi
 649:..\..\..\lvgl\version_6.1.2\lvgl\src\lv_objx/lv_roller.c **** 
 650:..\..\..\lvgl\version_6.1.2\lvgl\src\lv_objx/lv_roller.c ****     if(anim_en == LV_ANIM_OFF || anim_time == 0) {
 2586              		.loc 7 650 0
 2587 00b2 FB78     		ldrb	r3, [r7, #3]	@ zero_extendqisi2
 2588 00b4 002B     		cmp	r3, #0
 2589 00b6 02D0     		beq	.L120
 2590              		.loc 7 650 0 is_stmt 0 discriminator 1
 2591 00b8 7B8F     		ldrh	r3, [r7, #58]
 2592 00ba 002B     		cmp	r3, #0
 2593 00bc 06D1     		bne	.L121
 2594              	.L120:
 651:..\..\..\lvgl\version_6.1.2\lvgl\src\lv_objx/lv_roller.c ****         lv_obj_set_y(roller_scrl, new_y);
 2595              		.loc 7 651 0 is_stmt 1
 2596 00be B7F93030 		ldrsh	r3, [r7, #48]
 2597 00c2 1946     		mov	r1, r3
 2598 00c4 F86C     		ldr	r0, [r7, #76]
 2599 00c6 FFF7FEFF 		bl	lv_obj_set_y
 2600 00ca 28E0     		b	.L122
 2601              	.L121:
 2602              	.LBB15:
 652:..\..\..\lvgl\version_6.1.2\lvgl\src\lv_objx/lv_roller.c ****     } else {
 653:..\..\..\lvgl\version_6.1.2\lvgl\src\lv_objx/lv_roller.c **** #if LV_USE_ANIMATION
 654:..\..\..\lvgl\version_6.1.2\lvgl\src\lv_objx/lv_roller.c ****         lv_anim_t a;
 655:..\..\..\lvgl\version_6.1.2\lvgl\src\lv_objx/lv_roller.c ****         a.var            = roller_scrl;
 2603              		.loc 7 655 0
 2604 00cc FB6C     		ldr	r3, [r7, #76]
 2605 00ce FB60     		str	r3, [r7, #12]
 656:..\..\..\lvgl\version_6.1.2\lvgl\src\lv_objx/lv_roller.c ****         a.start          = lv_obj_get_y(roller_scrl);
 2606              		.loc 7 656 0
 2607 00d0 F86C     		ldr	r0, [r7, #76]
 2608 00d2 FFF7FEFF 		bl	lv_obj_get_y
 2609 00d6 0346     		mov	r3, r0
 2610 00d8 FB61     		str	r3, [r7, #28]
 657:..\..\..\lvgl\version_6.1.2\lvgl\src\lv_objx/lv_roller.c ****         a.end            = new_y;
 2611              		.loc 7 657 0
 2612 00da B7F93030 		ldrsh	r3, [r7, #48]
 2613 00de 3B62     		str	r3, [r7, #32]
 658:..\..\..\lvgl\version_6.1.2\lvgl\src\lv_objx/lv_roller.c ****         a.exec_cb        = (lv_anim_exec_xcb_t)lv_obj_set_y;
 2614              		.loc 7 658 0
 2615 00e0 114B     		ldr	r3, .L123
 2616 00e2 3B61     		str	r3, [r7, #16]
 659:..\..\..\lvgl\version_6.1.2\lvgl\src\lv_objx/lv_roller.c ****         a.path_cb        = lv_anim_path_linear;
 2617              		.loc 7 659 0
 2618 00e4 114B     		ldr	r3, .L123+4
 2619 00e6 7B61     		str	r3, [r7, #20]
 660:..\..\..\lvgl\version_6.1.2\lvgl\src\lv_objx/lv_roller.c ****         a.ready_cb       = scroll_anim_ready_cb;
 2620              		.loc 7 660 0
 2621 00e8 114B     		ldr	r3, .L123+8
 2622 00ea BB61     		str	r3, [r7, #24]
 661:..\..\..\lvgl\version_6.1.2\lvgl\src\lv_objx/lv_roller.c ****         a.act_time       = 0;
 2623              		.loc 7 661 0
ARM GAS  C:\Users\tmj32\AppData\Local\Temp\ccT5YJ50.s 			page 78


 2624 00ec 0023     		movs	r3, #0
 2625 00ee FB84     		strh	r3, [r7, #38]	@ movhi
 662:..\..\..\lvgl\version_6.1.2\lvgl\src\lv_objx/lv_roller.c ****         a.time           = anim_time;
 2626              		.loc 7 662 0
 2627 00f0 7B8F     		ldrh	r3, [r7, #58]	@ movhi
 2628 00f2 BB84     		strh	r3, [r7, #36]	@ movhi
 663:..\..\..\lvgl\version_6.1.2\lvgl\src\lv_objx/lv_roller.c ****         a.playback       = 0;
 2629              		.loc 7 663 0
 2630 00f4 97F82C30 		ldrb	r3, [r7, #44]
 2631 00f8 6FF30003 		bfc	r3, #0, #1
 2632 00fc 87F82C30 		strb	r3, [r7, #44]
 664:..\..\..\lvgl\version_6.1.2\lvgl\src\lv_objx/lv_roller.c ****         a.playback_pause = 0;
 2633              		.loc 7 664 0
 2634 0100 0023     		movs	r3, #0
 2635 0102 3B85     		strh	r3, [r7, #40]	@ movhi
 665:..\..\..\lvgl\version_6.1.2\lvgl\src\lv_objx/lv_roller.c ****         a.repeat         = 0;
 2636              		.loc 7 665 0
 2637 0104 97F82C30 		ldrb	r3, [r7, #44]
 2638 0108 6FF34103 		bfc	r3, #1, #1
 2639 010c 87F82C30 		strb	r3, [r7, #44]
 666:..\..\..\lvgl\version_6.1.2\lvgl\src\lv_objx/lv_roller.c ****         a.repeat_pause   = 0;
 2640              		.loc 7 666 0
 2641 0110 0023     		movs	r3, #0
 2642 0112 7B85     		strh	r3, [r7, #42]	@ movhi
 667:..\..\..\lvgl\version_6.1.2\lvgl\src\lv_objx/lv_roller.c ****         lv_anim_create(&a);
 2643              		.loc 7 667 0
 2644 0114 07F10C03 		add	r3, r7, #12
 2645 0118 1846     		mov	r0, r3
 2646 011a FFF7FEFF 		bl	lv_anim_create
 2647              	.L122:
 2648              	.LBE15:
 668:..\..\..\lvgl\version_6.1.2\lvgl\src\lv_objx/lv_roller.c **** #endif
 669:..\..\..\lvgl\version_6.1.2\lvgl\src\lv_objx/lv_roller.c ****     }
 670:..\..\..\lvgl\version_6.1.2\lvgl\src\lv_objx/lv_roller.c **** }
 2649              		.loc 7 670 0
 2650 011e 00BF     		nop
 2651 0120 5037     		adds	r7, r7, #80
 2652              		.cfi_def_cfa_offset 8
 2653 0122 BD46     		mov	sp, r7
 2654              		.cfi_def_cfa_register 13
 2655              		@ sp needed
 2656 0124 80BD     		pop	{r7, pc}
 2657              	.L124:
 2658 0126 00BF     		.align	2
 2659              	.L123:
 2660 0128 00000000 		.word	lv_obj_set_y
 2661 012c 00000000 		.word	lv_anim_path_linear
 2662 0130 00000000 		.word	scroll_anim_ready_cb
 2663              		.cfi_endproc
 2664              	.LFE73:
 2665              		.size	refr_position, .-refr_position
 2666              		.section	.text.refr_height,"ax",%progbits
 2667              		.align	2
 2668              		.thumb
 2669              		.thumb_func
 2670              		.type	refr_height, %function
 2671              	refr_height:
ARM GAS  C:\Users\tmj32\AppData\Local\Temp\ccT5YJ50.s 			page 79


 2672              	.LFB74:
 671:..\..\..\lvgl\version_6.1.2\lvgl\src\lv_objx/lv_roller.c **** 
 672:..\..\..\lvgl\version_6.1.2\lvgl\src\lv_objx/lv_roller.c **** /**
 673:..\..\..\lvgl\version_6.1.2\lvgl\src\lv_objx/lv_roller.c ****  * Refresh the height of the roller and the scrolable
 674:..\..\..\lvgl\version_6.1.2\lvgl\src\lv_objx/lv_roller.c ****  * @param roller pointer to roller
 675:..\..\..\lvgl\version_6.1.2\lvgl\src\lv_objx/lv_roller.c ****  */
 676:..\..\..\lvgl\version_6.1.2\lvgl\src\lv_objx/lv_roller.c **** static void refr_height(lv_obj_t * roller)
 677:..\..\..\lvgl\version_6.1.2\lvgl\src\lv_objx/lv_roller.c **** {
 2673              		.loc 7 677 0
 2674              		.cfi_startproc
 2675              		@ args = 0, pretend = 0, frame = 24
 2676              		@ frame_needed = 1, uses_anonymous_args = 0
 2677 0000 B0B5     		push	{r4, r5, r7, lr}
 2678              		.cfi_def_cfa_offset 16
 2679              		.cfi_offset 4, -16
 2680              		.cfi_offset 5, -12
 2681              		.cfi_offset 7, -8
 2682              		.cfi_offset 14, -4
 2683 0002 88B0     		sub	sp, sp, #32
 2684              		.cfi_def_cfa_offset 48
 2685 0004 02AF     		add	r7, sp, #8
 2686              		.cfi_def_cfa 7, 40
 2687 0006 7860     		str	r0, [r7, #4]
 678:..\..\..\lvgl\version_6.1.2\lvgl\src\lv_objx/lv_roller.c ****     lv_roller_ext_t * ext = lv_obj_get_ext_attr(roller);
 2688              		.loc 7 678 0
 2689 0008 7868     		ldr	r0, [r7, #4]
 2690 000a FFF7FEFF 		bl	lv_obj_get_ext_attr
 2691 000e 3861     		str	r0, [r7, #16]
 679:..\..\..\lvgl\version_6.1.2\lvgl\src\lv_objx/lv_roller.c ****     lv_align_t obj_align  = LV_ALIGN_IN_LEFT_MID;
 2692              		.loc 7 679 0
 2693 0010 0723     		movs	r3, #7
 2694 0012 FB75     		strb	r3, [r7, #23]
 680:..\..\..\lvgl\version_6.1.2\lvgl\src\lv_objx/lv_roller.c ****     if(ext->ddlist.label) {
 2695              		.loc 7 680 0
 2696 0014 3B69     		ldr	r3, [r7, #16]
 2697 0016 1B6B     		ldr	r3, [r3, #48]
 2698 0018 002B     		cmp	r3, #0
 2699 001a 11D0     		beq	.L126
 2700              	.LBB16:
 681:..\..\..\lvgl\version_6.1.2\lvgl\src\lv_objx/lv_roller.c ****         lv_label_align_t label_align = lv_label_get_align(ext->ddlist.label);
 2701              		.loc 7 681 0
 2702 001c 3B69     		ldr	r3, [r7, #16]
 2703 001e 1B6B     		ldr	r3, [r3, #48]
 2704 0020 1846     		mov	r0, r3
 2705 0022 FFF7FEFF 		bl	lv_label_get_align
 2706 0026 0346     		mov	r3, r0
 2707 0028 FB73     		strb	r3, [r7, #15]
 682:..\..\..\lvgl\version_6.1.2\lvgl\src\lv_objx/lv_roller.c ****         if(LV_LABEL_ALIGN_CENTER == label_align)
 2708              		.loc 7 682 0
 2709 002a FB7B     		ldrb	r3, [r7, #15]	@ zero_extendqisi2
 2710 002c 012B     		cmp	r3, #1
 2711 002e 02D1     		bne	.L127
 683:..\..\..\lvgl\version_6.1.2\lvgl\src\lv_objx/lv_roller.c ****             obj_align = LV_ALIGN_CENTER;
 2712              		.loc 7 683 0
 2713 0030 0023     		movs	r3, #0
 2714 0032 FB75     		strb	r3, [r7, #23]
 2715 0034 04E0     		b	.L126
ARM GAS  C:\Users\tmj32\AppData\Local\Temp\ccT5YJ50.s 			page 80


 2716              	.L127:
 684:..\..\..\lvgl\version_6.1.2\lvgl\src\lv_objx/lv_roller.c ****         else if(LV_LABEL_ALIGN_RIGHT == label_align)
 2717              		.loc 7 684 0
 2718 0036 FB7B     		ldrb	r3, [r7, #15]	@ zero_extendqisi2
 2719 0038 022B     		cmp	r3, #2
 2720 003a 01D1     		bne	.L126
 685:..\..\..\lvgl\version_6.1.2\lvgl\src\lv_objx/lv_roller.c ****             obj_align = LV_ALIGN_IN_RIGHT_MID;
 2721              		.loc 7 685 0
 2722 003c 0823     		movs	r3, #8
 2723 003e FB75     		strb	r3, [r7, #23]
 2724              	.L126:
 2725              	.LBE16:
 686:..\..\..\lvgl\version_6.1.2\lvgl\src\lv_objx/lv_roller.c ****     }
 687:..\..\..\lvgl\version_6.1.2\lvgl\src\lv_objx/lv_roller.c **** 
 688:..\..\..\lvgl\version_6.1.2\lvgl\src\lv_objx/lv_roller.c ****     lv_obj_set_height(lv_page_get_scrl(roller), lv_obj_get_height(ext->ddlist.label) + lv_obj_get_h
 2726              		.loc 7 688 0
 2727 0040 7868     		ldr	r0, [r7, #4]
 2728 0042 FFF7FEFF 		bl	lv_page_get_scrl
 2729 0046 0546     		mov	r5, r0
 2730 0048 3B69     		ldr	r3, [r7, #16]
 2731 004a 1B6B     		ldr	r3, [r3, #48]
 2732 004c 1846     		mov	r0, r3
 2733 004e FFF7FEFF 		bl	lv_obj_get_height
 2734 0052 0346     		mov	r3, r0
 2735 0054 9CB2     		uxth	r4, r3
 2736 0056 7868     		ldr	r0, [r7, #4]
 2737 0058 FFF7FEFF 		bl	lv_obj_get_height
 2738 005c 0346     		mov	r3, r0
 2739 005e 9BB2     		uxth	r3, r3
 2740 0060 2344     		add	r3, r3, r4
 2741 0062 9BB2     		uxth	r3, r3
 2742 0064 1BB2     		sxth	r3, r3
 2743 0066 1946     		mov	r1, r3
 2744 0068 2846     		mov	r0, r5
 2745 006a FFF7FEFF 		bl	lv_obj_set_height
 689:..\..\..\lvgl\version_6.1.2\lvgl\src\lv_objx/lv_roller.c ****     lv_obj_align(ext->ddlist.label, NULL, obj_align, 0, 0);
 2746              		.loc 7 689 0
 2747 006e 3B69     		ldr	r3, [r7, #16]
 2748 0070 186B     		ldr	r0, [r3, #48]
 2749 0072 FA7D     		ldrb	r2, [r7, #23]	@ zero_extendqisi2
 2750 0074 0023     		movs	r3, #0
 2751 0076 0093     		str	r3, [sp]
 2752 0078 0023     		movs	r3, #0
 2753 007a 0021     		movs	r1, #0
 2754 007c FFF7FEFF 		bl	lv_obj_align
 690:..\..\..\lvgl\version_6.1.2\lvgl\src\lv_objx/lv_roller.c **** #if LV_USE_ANIMATION
 691:..\..\..\lvgl\version_6.1.2\lvgl\src\lv_objx/lv_roller.c ****     lv_anim_del(lv_page_get_scrl(roller), (lv_anim_exec_xcb_t)lv_obj_set_y);
 2755              		.loc 7 691 0
 2756 0080 7868     		ldr	r0, [r7, #4]
 2757 0082 FFF7FEFF 		bl	lv_page_get_scrl
 2758 0086 0346     		mov	r3, r0
 2759 0088 0649     		ldr	r1, .L128
 2760 008a 1846     		mov	r0, r3
 2761 008c FFF7FEFF 		bl	lv_anim_del
 692:..\..\..\lvgl\version_6.1.2\lvgl\src\lv_objx/lv_roller.c **** #endif
 693:..\..\..\lvgl\version_6.1.2\lvgl\src\lv_objx/lv_roller.c ****     lv_ddlist_set_selected(roller, ext->ddlist.sel_opt_id);
 2762              		.loc 7 693 0
ARM GAS  C:\Users\tmj32\AppData\Local\Temp\ccT5YJ50.s 			page 81


 2763 0090 3B69     		ldr	r3, [r7, #16]
 2764 0092 5B8F     		ldrh	r3, [r3, #58]
 2765 0094 1946     		mov	r1, r3
 2766 0096 7868     		ldr	r0, [r7, #4]
 2767 0098 FFF7FEFF 		bl	lv_ddlist_set_selected
 694:..\..\..\lvgl\version_6.1.2\lvgl\src\lv_objx/lv_roller.c **** }
 2768              		.loc 7 694 0
 2769 009c 00BF     		nop
 2770 009e 1837     		adds	r7, r7, #24
 2771              		.cfi_def_cfa_offset 16
 2772 00a0 BD46     		mov	sp, r7
 2773              		.cfi_def_cfa_register 13
 2774              		@ sp needed
 2775 00a2 B0BD     		pop	{r4, r5, r7, pc}
 2776              	.L129:
 2777              		.align	2
 2778              	.L128:
 2779 00a4 00000000 		.word	lv_obj_set_y
 2780              		.cfi_endproc
 2781              	.LFE74:
 2782              		.size	refr_height, .-refr_height
 2783              		.section	.text.inf_normalize,"ax",%progbits
 2784              		.align	2
 2785              		.thumb
 2786              		.thumb_func
 2787              		.type	inf_normalize, %function
 2788              	inf_normalize:
 2789              	.LFB75:
 695:..\..\..\lvgl\version_6.1.2\lvgl\src\lv_objx/lv_roller.c **** 
 696:..\..\..\lvgl\version_6.1.2\lvgl\src\lv_objx/lv_roller.c **** /**
 697:..\..\..\lvgl\version_6.1.2\lvgl\src\lv_objx/lv_roller.c ****  * Set the middle page for the roller if inifinte is enabled
 698:..\..\..\lvgl\version_6.1.2\lvgl\src\lv_objx/lv_roller.c ****  * @param scrl pointer to the roller's scrollable (lv_obj_t *)
 699:..\..\..\lvgl\version_6.1.2\lvgl\src\lv_objx/lv_roller.c ****  */
 700:..\..\..\lvgl\version_6.1.2\lvgl\src\lv_objx/lv_roller.c **** static void inf_normalize(void * scrl)
 701:..\..\..\lvgl\version_6.1.2\lvgl\src\lv_objx/lv_roller.c **** {
 2790              		.loc 7 701 0
 2791              		.cfi_startproc
 2792              		@ args = 0, pretend = 0, frame = 40
 2793              		@ frame_needed = 1, uses_anonymous_args = 0
 2794 0000 80B5     		push	{r7, lr}
 2795              		.cfi_def_cfa_offset 8
 2796              		.cfi_offset 7, -8
 2797              		.cfi_offset 14, -4
 2798 0002 8AB0     		sub	sp, sp, #40
 2799              		.cfi_def_cfa_offset 48
 2800 0004 00AF     		add	r7, sp, #0
 2801              		.cfi_def_cfa_register 7
 2802 0006 7860     		str	r0, [r7, #4]
 702:..\..\..\lvgl\version_6.1.2\lvgl\src\lv_objx/lv_roller.c ****     lv_obj_t * roller_scrl = (lv_obj_t *)scrl;
 2803              		.loc 7 702 0
 2804 0008 7B68     		ldr	r3, [r7, #4]
 2805 000a 7B62     		str	r3, [r7, #36]
 703:..\..\..\lvgl\version_6.1.2\lvgl\src\lv_objx/lv_roller.c ****     lv_obj_t * roller      = lv_obj_get_parent(roller_scrl);
 2806              		.loc 7 703 0
 2807 000c 786A     		ldr	r0, [r7, #36]
 2808 000e FFF7FEFF 		bl	lv_obj_get_parent
 2809 0012 3862     		str	r0, [r7, #32]
ARM GAS  C:\Users\tmj32\AppData\Local\Temp\ccT5YJ50.s 			page 82


 704:..\..\..\lvgl\version_6.1.2\lvgl\src\lv_objx/lv_roller.c ****     lv_roller_ext_t * ext  = lv_obj_get_ext_attr(roller);
 2810              		.loc 7 704 0
 2811 0014 386A     		ldr	r0, [r7, #32]
 2812 0016 FFF7FEFF 		bl	lv_obj_get_ext_attr
 2813 001a F861     		str	r0, [r7, #28]
 705:..\..\..\lvgl\version_6.1.2\lvgl\src\lv_objx/lv_roller.c **** 
 706:..\..\..\lvgl\version_6.1.2\lvgl\src\lv_objx/lv_roller.c ****     if(ext->mode == LV_ROLLER_MODE_INIFINITE) {
 2814              		.loc 7 706 0
 2815 001c FB69     		ldr	r3, [r7, #28]
 2816 001e 93F84430 		ldrb	r3, [r3, #68]	@ zero_extendqisi2
 2817 0022 03F00103 		and	r3, r3, #1
 2818 0026 DBB2     		uxtb	r3, r3
 2819 0028 002B     		cmp	r3, #0
 2820 002a 5FD0     		beq	.L132
 2821              	.LBB17:
 707:..\..\..\lvgl\version_6.1.2\lvgl\src\lv_objx/lv_roller.c ****         uint16_t real_id_cnt = ext->ddlist.option_cnt / LV_ROLLER_INF_PAGES;
 2822              		.loc 7 707 0
 2823 002c FB69     		ldr	r3, [r7, #28]
 2824 002e 1A8F     		ldrh	r2, [r3, #56]
 2825 0030 304B     		ldr	r3, .L133
 2826 0032 A3FB0213 		umull	r1, r3, r3, r2
 2827 0036 D21A     		subs	r2, r2, r3
 2828 0038 5208     		lsrs	r2, r2, #1
 2829 003a 1344     		add	r3, r3, r2
 2830 003c 9B08     		lsrs	r3, r3, #2
 2831 003e 7B83     		strh	r3, [r7, #26]	@ movhi
 708:..\..\..\lvgl\version_6.1.2\lvgl\src\lv_objx/lv_roller.c **** 
 709:..\..\..\lvgl\version_6.1.2\lvgl\src\lv_objx/lv_roller.c ****         ext->ddlist.sel_opt_id = ext->ddlist.sel_opt_id % real_id_cnt;
 2832              		.loc 7 709 0
 2833 0040 FB69     		ldr	r3, [r7, #28]
 2834 0042 5B8F     		ldrh	r3, [r3, #58]
 2835 0044 7A8B     		ldrh	r2, [r7, #26]
 2836 0046 B3FBF2F1 		udiv	r1, r3, r2
 2837 004a 02FB01F2 		mul	r2, r2, r1
 2838 004e 9B1A     		subs	r3, r3, r2
 2839 0050 9AB2     		uxth	r2, r3
 2840 0052 FB69     		ldr	r3, [r7, #28]
 2841 0054 5A87     		strh	r2, [r3, #58]	@ movhi
 710:..\..\..\lvgl\version_6.1.2\lvgl\src\lv_objx/lv_roller.c **** 
 711:..\..\..\lvgl\version_6.1.2\lvgl\src\lv_objx/lv_roller.c ****         ext->ddlist.sel_opt_id += (LV_ROLLER_INF_PAGES / 2) * real_id_cnt; /*Select the middle page
 2842              		.loc 7 711 0
 2843 0056 FB69     		ldr	r3, [r7, #28]
 2844 0058 5A8F     		ldrh	r2, [r3, #58]
 2845 005a 7B8B     		ldrh	r3, [r7, #26]	@ movhi
 2846 005c 1946     		mov	r1, r3	@ movhi
 2847 005e 4900     		lsls	r1, r1, #1
 2848 0060 0B44     		add	r3, r3, r1
 2849 0062 9BB2     		uxth	r3, r3
 2850 0064 1344     		add	r3, r3, r2
 2851 0066 9AB2     		uxth	r2, r3
 2852 0068 FB69     		ldr	r3, [r7, #28]
 2853 006a 5A87     		strh	r2, [r3, #58]	@ movhi
 712:..\..\..\lvgl\version_6.1.2\lvgl\src\lv_objx/lv_roller.c **** 
 713:..\..\..\lvgl\version_6.1.2\lvgl\src\lv_objx/lv_roller.c ****         /*Move to the new id*/
 714:..\..\..\lvgl\version_6.1.2\lvgl\src\lv_objx/lv_roller.c ****         const lv_style_t * style_label = lv_obj_get_style(ext->ddlist.label);
 2854              		.loc 7 714 0
 2855 006c FB69     		ldr	r3, [r7, #28]
ARM GAS  C:\Users\tmj32\AppData\Local\Temp\ccT5YJ50.s 			page 83


 2856 006e 1B6B     		ldr	r3, [r3, #48]
 2857 0070 1846     		mov	r0, r3
 2858 0072 FFF7FEFF 		bl	lv_obj_get_style
 2859 0076 7861     		str	r0, [r7, #20]
 715:..\..\..\lvgl\version_6.1.2\lvgl\src\lv_objx/lv_roller.c ****         const lv_font_t * font         = style_label->text.font;
 2860              		.loc 7 715 0
 2861 0078 7B69     		ldr	r3, [r7, #20]
 2862 007a 5B6B     		ldr	r3, [r3, #52]
 2863 007c 3B61     		str	r3, [r7, #16]
 716:..\..\..\lvgl\version_6.1.2\lvgl\src\lv_objx/lv_roller.c ****         lv_coord_t font_h              = lv_font_get_line_height(font);
 2864              		.loc 7 716 0
 2865 007e 3869     		ldr	r0, [r7, #16]
 2866 0080 FFF7FEFF 		bl	lv_font_get_line_height
 2867 0084 0346     		mov	r3, r0
 2868 0086 FB81     		strh	r3, [r7, #14]	@ movhi
 717:..\..\..\lvgl\version_6.1.2\lvgl\src\lv_objx/lv_roller.c ****         lv_coord_t h                   = lv_obj_get_height(roller);
 2869              		.loc 7 717 0
 2870 0088 386A     		ldr	r0, [r7, #32]
 2871 008a FFF7FEFF 		bl	lv_obj_get_height
 2872 008e 0346     		mov	r3, r0
 2873 0090 BB81     		strh	r3, [r7, #12]	@ movhi
 718:..\..\..\lvgl\version_6.1.2\lvgl\src\lv_objx/lv_roller.c **** 
 719:..\..\..\lvgl\version_6.1.2\lvgl\src\lv_objx/lv_roller.c ****         lv_coord_t line_y1 = ext->ddlist.sel_opt_id * (font_h + style_label->text.line_space) +
 2874              		.loc 7 719 0
 2875 0092 FB69     		ldr	r3, [r7, #28]
 2876 0094 5A8F     		ldrh	r2, [r3, #58]
 2877 0096 B7F90E30 		ldrsh	r3, [r7, #14]
 2878 009a 7969     		ldr	r1, [r7, #20]
 2879 009c B1F93A10 		ldrsh	r1, [r1, #58]
 2880 00a0 0B44     		add	r3, r3, r1
 2881 00a2 9BB2     		uxth	r3, r3
 2882 00a4 12FB03F3 		smulbb	r3, r2, r3
 2883 00a8 9AB2     		uxth	r2, r3
 720:..\..\..\lvgl\version_6.1.2\lvgl\src\lv_objx/lv_roller.c ****                              ext->ddlist.label->coords.y1 - roller_scrl->coords.y1;
 2884              		.loc 7 720 0
 2885 00aa FB69     		ldr	r3, [r7, #28]
 2886 00ac 1B6B     		ldr	r3, [r3, #48]
 2887 00ae B3F91230 		ldrsh	r3, [r3, #18]
 719:..\..\..\lvgl\version_6.1.2\lvgl\src\lv_objx/lv_roller.c ****                              ext->ddlist.label->coords.y1 - roller_scrl->coords.y1;
 2888              		.loc 7 719 0
 2889 00b2 9BB2     		uxth	r3, r3
 2890 00b4 1344     		add	r3, r3, r2
 2891 00b6 9AB2     		uxth	r2, r3
 2892              		.loc 7 720 0
 2893 00b8 7B6A     		ldr	r3, [r7, #36]
 2894 00ba B3F91230 		ldrsh	r3, [r3, #18]
 719:..\..\..\lvgl\version_6.1.2\lvgl\src\lv_objx/lv_roller.c ****                              ext->ddlist.label->coords.y1 - roller_scrl->coords.y1;
 2895              		.loc 7 719 0
 2896 00be 9BB2     		uxth	r3, r3
 2897 00c0 D31A     		subs	r3, r2, r3
 2898 00c2 9BB2     		uxth	r3, r3
 2899 00c4 7B81     		strh	r3, [r7, #10]	@ movhi
 721:..\..\..\lvgl\version_6.1.2\lvgl\src\lv_objx/lv_roller.c ****         lv_coord_t new_y = -line_y1 + (h - font_h) / 2;
 2900              		.loc 7 721 0
 2901 00c6 B7F90C20 		ldrsh	r2, [r7, #12]
 2902 00ca B7F90E30 		ldrsh	r3, [r7, #14]
 2903 00ce D31A     		subs	r3, r2, r3
ARM GAS  C:\Users\tmj32\AppData\Local\Temp\ccT5YJ50.s 			page 84


 2904 00d0 DA0F     		lsrs	r2, r3, #31
 2905 00d2 1344     		add	r3, r3, r2
 2906 00d4 5B10     		asrs	r3, r3, #1
 2907 00d6 9AB2     		uxth	r2, r3
 2908 00d8 7B89     		ldrh	r3, [r7, #10]
 2909 00da D31A     		subs	r3, r2, r3
 2910 00dc 9BB2     		uxth	r3, r3
 2911 00de 3B81     		strh	r3, [r7, #8]	@ movhi
 722:..\..\..\lvgl\version_6.1.2\lvgl\src\lv_objx/lv_roller.c ****         lv_obj_set_y(roller_scrl, new_y);
 2912              		.loc 7 722 0
 2913 00e0 B7F90830 		ldrsh	r3, [r7, #8]
 2914 00e4 1946     		mov	r1, r3
 2915 00e6 786A     		ldr	r0, [r7, #36]
 2916 00e8 FFF7FEFF 		bl	lv_obj_set_y
 2917              	.L132:
 2918              	.LBE17:
 723:..\..\..\lvgl\version_6.1.2\lvgl\src\lv_objx/lv_roller.c ****     }
 724:..\..\..\lvgl\version_6.1.2\lvgl\src\lv_objx/lv_roller.c **** }
 2919              		.loc 7 724 0
 2920 00ec 00BF     		nop
 2921 00ee 2837     		adds	r7, r7, #40
 2922              		.cfi_def_cfa_offset 8
 2923 00f0 BD46     		mov	sp, r7
 2924              		.cfi_def_cfa_register 13
 2925              		@ sp needed
 2926 00f2 80BD     		pop	{r7, pc}
 2927              	.L134:
 2928              		.align	2
 2929              	.L133:
 2930 00f4 25499224 		.word	613566757
 2931              		.cfi_endproc
 2932              	.LFE75:
 2933              		.size	inf_normalize, .-inf_normalize
 2934              		.section	.text.scroll_anim_ready_cb,"ax",%progbits
 2935              		.align	2
 2936              		.thumb
 2937              		.thumb_func
 2938              		.type	scroll_anim_ready_cb, %function
 2939              	scroll_anim_ready_cb:
 2940              	.LFB76:
 725:..\..\..\lvgl\version_6.1.2\lvgl\src\lv_objx/lv_roller.c **** 
 726:..\..\..\lvgl\version_6.1.2\lvgl\src\lv_objx/lv_roller.c **** #if LV_USE_ANIMATION
 727:..\..\..\lvgl\version_6.1.2\lvgl\src\lv_objx/lv_roller.c **** static void scroll_anim_ready_cb(lv_anim_t * a)
 728:..\..\..\lvgl\version_6.1.2\lvgl\src\lv_objx/lv_roller.c **** {
 2941              		.loc 7 728 0
 2942              		.cfi_startproc
 2943              		@ args = 0, pretend = 0, frame = 8
 2944              		@ frame_needed = 1, uses_anonymous_args = 0
 2945 0000 80B5     		push	{r7, lr}
 2946              		.cfi_def_cfa_offset 8
 2947              		.cfi_offset 7, -8
 2948              		.cfi_offset 14, -4
 2949 0002 82B0     		sub	sp, sp, #8
 2950              		.cfi_def_cfa_offset 16
 2951 0004 00AF     		add	r7, sp, #0
 2952              		.cfi_def_cfa_register 7
 2953 0006 7860     		str	r0, [r7, #4]
ARM GAS  C:\Users\tmj32\AppData\Local\Temp\ccT5YJ50.s 			page 85


 729:..\..\..\lvgl\version_6.1.2\lvgl\src\lv_objx/lv_roller.c ****     inf_normalize(a->var);
 2954              		.loc 7 729 0
 2955 0008 7B68     		ldr	r3, [r7, #4]
 2956 000a 1B68     		ldr	r3, [r3]
 2957 000c 1846     		mov	r0, r3
 2958 000e FFF7FEFF 		bl	inf_normalize
 730:..\..\..\lvgl\version_6.1.2\lvgl\src\lv_objx/lv_roller.c **** }
 2959              		.loc 7 730 0
 2960 0012 00BF     		nop
 2961 0014 0837     		adds	r7, r7, #8
 2962              		.cfi_def_cfa_offset 8
 2963 0016 BD46     		mov	sp, r7
 2964              		.cfi_def_cfa_register 13
 2965              		@ sp needed
 2966 0018 80BD     		pop	{r7, pc}
 2967              		.cfi_endproc
 2968              	.LFE76:
 2969              		.size	scroll_anim_ready_cb, .-scroll_anim_ready_cb
 2970 001a 00BF     		.text
 2971              	.Letext0:
 2972              		.file 8 "c:\\program files (x86)\\cypress\\psoc creator\\4.3\\psoc creator\\import\\gnu\\arm\\5.4.
 2973              		.file 9 "c:\\program files (x86)\\cypress\\psoc creator\\4.3\\psoc creator\\import\\gnu\\arm\\5.4.
 2974              		.file 10 "..\\..\\..\\lvgl\\version_6.1.2\\lvgl\\src\\lv_objx\\../../../lv_conf.h"
 2975              		.file 11 "c:\\program files (x86)\\cypress\\psoc creator\\4.3\\psoc creator\\import\\gnu\\arm\\5.4
 2976              		.file 12 "..\\..\\..\\lvgl\\version_6.1.2\\lvgl\\src\\lv_objx\\../lv_core/../lv_misc/lv_color.h"
 2977              		.file 13 "..\\..\\..\\lvgl\\version_6.1.2\\lvgl\\src\\lv_objx\\../lv_core/../lv_misc/lv_anim.h"
 2978              		.file 14 "..\\..\\..\\lvgl\\version_6.1.2\\lvgl\\src\\lv_objx\\../lv_core/lv_style.h"
 2979              		.file 15 "..\\..\\..\\lvgl\\version_6.1.2\\lvgl\\src\\lv_objx\\../lv_core/../lv_misc/lv_types.h"
 2980              		.file 16 "..\\..\\..\\lvgl\\version_6.1.2\\lvgl\\src\\lv_objx\\../lv_core/../lv_misc/lv_ll.h"
 2981              		.file 17 "..\\..\\..\\lvgl\\version_6.1.2\\lvgl\\src\\lv_objx\\../lv_core/../lv_misc/lv_bidi.h"
 2982              		.file 18 "..\\..\\..\\lvgl\\version_6.1.2\\lvgl\\src\\lv_objx\\../lv_core/../lv_hal/../lv_misc/lv_
 2983              		.file 19 "..\\..\\..\\lvgl\\version_6.1.2\\lvgl\\src\\lv_objx\\../lv_core/../lv_hal/lv_hal_disp.h"
 2984              		.file 20 "..\\..\\..\\lvgl\\version_6.1.2\\lvgl\\src\\lv_objx\\../lv_core/lv_obj.h"
 2985              		.file 21 "..\\..\\..\\lvgl\\version_6.1.2\\lvgl\\src\\lv_objx\\../lv_core/../lv_hal/lv_hal_indev.h
 2986              		.file 22 "..\\..\\..\\lvgl\\version_6.1.2\\lvgl\\src\\lv_objx\\../lv_objx/../lv_core/../lv_core/lv
 2987              		.file 23 "..\\..\\..\\lvgl\\version_6.1.2\\lvgl\\src\\lv_objx\\../lv_objx/../lv_misc/lv_txt.h"
 2988              		.file 24 "..\\..\\..\\lvgl\\version_6.1.2\\lvgl\\src\\lv_objx\\../lv_objx/lv_label.h"
 2989              		.file 25 "..\\..\\..\\lvgl\\version_6.1.2\\lvgl\\src\\lv_objx\\../lv_themes/lv_theme.h"
 2990              		.section	.debug_info,"",%progbits
 2991              	.Ldebug_info0:
 2992 0000 FB270000 		.4byte	0x27fb
 2993 0004 0400     		.2byte	0x4
 2994 0006 00000000 		.4byte	.Ldebug_abbrev0
 2995 000a 04       		.byte	0x4
 2996 000b 01       		.uleb128 0x1
 2997 000c 75110000 		.4byte	.LASF476
 2998 0010 0C       		.byte	0xc
 2999 0011 B6090000 		.4byte	.LASF477
 3000 0015 290B0000 		.4byte	.LASF478
 3001 0019 00000000 		.4byte	.Ldebug_ranges0+0
 3002 001d 00000000 		.4byte	0
 3003 0021 00000000 		.4byte	.Ldebug_line0
 3004 0025 02       		.uleb128 0x2
 3005 0026 1B100000 		.4byte	.LASF0
 3006 002a 08       		.byte	0x8
 3007 002b 1B       		.byte	0x1b
 3008 002c 30000000 		.4byte	0x30
ARM GAS  C:\Users\tmj32\AppData\Local\Temp\ccT5YJ50.s 			page 86


 3009 0030 03       		.uleb128 0x3
 3010 0031 01       		.byte	0x1
 3011 0032 06       		.byte	0x6
 3012 0033 4E040000 		.4byte	.LASF2
 3013 0037 02       		.uleb128 0x2
 3014 0038 C2020000 		.4byte	.LASF1
 3015 003c 08       		.byte	0x8
 3016 003d 1D       		.byte	0x1d
 3017 003e 42000000 		.4byte	0x42
 3018 0042 03       		.uleb128 0x3
 3019 0043 01       		.byte	0x1
 3020 0044 08       		.byte	0x8
 3021 0045 D0040000 		.4byte	.LASF3
 3022 0049 02       		.uleb128 0x2
 3023 004a 57120000 		.4byte	.LASF4
 3024 004e 08       		.byte	0x8
 3025 004f 29       		.byte	0x29
 3026 0050 54000000 		.4byte	0x54
 3027 0054 03       		.uleb128 0x3
 3028 0055 02       		.byte	0x2
 3029 0056 05       		.byte	0x5
 3030 0057 EB130000 		.4byte	.LASF5
 3031 005b 02       		.uleb128 0x2
 3032 005c 27060000 		.4byte	.LASF6
 3033 0060 08       		.byte	0x8
 3034 0061 2B       		.byte	0x2b
 3035 0062 66000000 		.4byte	0x66
 3036 0066 03       		.uleb128 0x3
 3037 0067 02       		.byte	0x2
 3038 0068 07       		.byte	0x7
 3039 0069 8E160000 		.4byte	.LASF7
 3040 006d 02       		.uleb128 0x2
 3041 006e 40170000 		.4byte	.LASF8
 3042 0072 08       		.byte	0x8
 3043 0073 3F       		.byte	0x3f
 3044 0074 78000000 		.4byte	0x78
 3045 0078 03       		.uleb128 0x3
 3046 0079 04       		.byte	0x4
 3047 007a 05       		.byte	0x5
 3048 007b 38030000 		.4byte	.LASF9
 3049 007f 02       		.uleb128 0x2
 3050 0080 F90A0000 		.4byte	.LASF10
 3051 0084 08       		.byte	0x8
 3052 0085 41       		.byte	0x41
 3053 0086 8A000000 		.4byte	0x8a
 3054 008a 03       		.uleb128 0x3
 3055 008b 04       		.byte	0x4
 3056 008c 07       		.byte	0x7
 3057 008d 88090000 		.4byte	.LASF11
 3058 0091 03       		.uleb128 0x3
 3059 0092 08       		.byte	0x8
 3060 0093 05       		.byte	0x5
 3061 0094 1B0B0000 		.4byte	.LASF12
 3062 0098 03       		.uleb128 0x3
 3063 0099 08       		.byte	0x8
 3064 009a 07       		.byte	0x7
 3065 009b 59100000 		.4byte	.LASF13
ARM GAS  C:\Users\tmj32\AppData\Local\Temp\ccT5YJ50.s 			page 87


 3066 009f 04       		.uleb128 0x4
 3067 00a0 04       		.byte	0x4
 3068 00a1 05       		.byte	0x5
 3069 00a2 696E7400 		.ascii	"int\000"
 3070 00a6 03       		.uleb128 0x3
 3071 00a7 04       		.byte	0x4
 3072 00a8 07       		.byte	0x7
 3073 00a9 060D0000 		.4byte	.LASF14
 3074 00ad 02       		.uleb128 0x2
 3075 00ae 08000000 		.4byte	.LASF15
 3076 00b2 09       		.byte	0x9
 3077 00b3 14       		.byte	0x14
 3078 00b4 25000000 		.4byte	0x25
 3079 00b8 02       		.uleb128 0x2
 3080 00b9 5A040000 		.4byte	.LASF16
 3081 00bd 09       		.byte	0x9
 3082 00be 18       		.byte	0x18
 3083 00bf 37000000 		.4byte	0x37
 3084 00c3 02       		.uleb128 0x2
 3085 00c4 5B140000 		.4byte	.LASF17
 3086 00c8 09       		.byte	0x9
 3087 00c9 20       		.byte	0x20
 3088 00ca 49000000 		.4byte	0x49
 3089 00ce 02       		.uleb128 0x2
 3090 00cf 95100000 		.4byte	.LASF18
 3091 00d3 09       		.byte	0x9
 3092 00d4 24       		.byte	0x24
 3093 00d5 5B000000 		.4byte	0x5b
 3094 00d9 02       		.uleb128 0x2
 3095 00da DF000000 		.4byte	.LASF19
 3096 00de 09       		.byte	0x9
 3097 00df 2C       		.byte	0x2c
 3098 00e0 6D000000 		.4byte	0x6d
 3099 00e4 02       		.uleb128 0x2
 3100 00e5 03160000 		.4byte	.LASF20
 3101 00e9 09       		.byte	0x9
 3102 00ea 30       		.byte	0x30
 3103 00eb 7F000000 		.4byte	0x7f
 3104 00ef 02       		.uleb128 0x2
 3105 00f0 C0160000 		.4byte	.LASF21
 3106 00f4 0A       		.byte	0xa
 3107 00f5 3C       		.byte	0x3c
 3108 00f6 C3000000 		.4byte	0xc3
 3109 00fa 05       		.uleb128 0x5
 3110 00fb 04       		.byte	0x4
 3111 00fc 02       		.uleb128 0x2
 3112 00fd 2D000000 		.4byte	.LASF22
 3113 0101 0B       		.byte	0xb
 3114 0102 D8       		.byte	0xd8
 3115 0103 A6000000 		.4byte	0xa6
 3116 0107 03       		.uleb128 0x3
 3117 0108 08       		.byte	0x8
 3118 0109 04       		.byte	0x4
 3119 010a B90E0000 		.4byte	.LASF23
 3120 010e 06       		.uleb128 0x6
 3121 010f 08       		.byte	0x8
 3122 0110 01       		.byte	0x1
ARM GAS  C:\Users\tmj32\AppData\Local\Temp\ccT5YJ50.s 			page 88


 3123 0111 2E       		.byte	0x2e
 3124 0112 5F010000 		.4byte	0x15f
 3125 0116 07       		.uleb128 0x7
 3126 0117 34000000 		.4byte	.LASF24
 3127 011b 01       		.byte	0x1
 3128 011c 30       		.byte	0x30
 3129 011d CE000000 		.4byte	0xce
 3130 0121 00       		.byte	0
 3131 0122 07       		.uleb128 0x7
 3132 0123 E5130000 		.4byte	.LASF25
 3133 0127 01       		.byte	0x1
 3134 0128 31       		.byte	0x31
 3135 0129 B8000000 		.4byte	0xb8
 3136 012d 02       		.byte	0x2
 3137 012e 07       		.uleb128 0x7
 3138 012f CE130000 		.4byte	.LASF26
 3139 0133 01       		.byte	0x1
 3140 0134 32       		.byte	0x32
 3141 0135 B8000000 		.4byte	0xb8
 3142 0139 03       		.byte	0x3
 3143 013a 07       		.uleb128 0x7
 3144 013b 48050000 		.4byte	.LASF27
 3145 013f 01       		.byte	0x1
 3146 0140 33       		.byte	0x33
 3147 0141 AD000000 		.4byte	0xad
 3148 0145 04       		.byte	0x4
 3149 0146 07       		.uleb128 0x7
 3150 0147 4E050000 		.4byte	.LASF28
 3151 014b 01       		.byte	0x1
 3152 014c 34       		.byte	0x34
 3153 014d AD000000 		.4byte	0xad
 3154 0151 05       		.byte	0x5
 3155 0152 08       		.uleb128 0x8
 3156 0153 62707000 		.ascii	"bpp\000"
 3157 0157 01       		.byte	0x1
 3158 0158 35       		.byte	0x35
 3159 0159 B8000000 		.4byte	0xb8
 3160 015d 06       		.byte	0x6
 3161 015e 00       		.byte	0
 3162 015f 02       		.uleb128 0x2
 3163 0160 DA0D0000 		.4byte	.LASF29
 3164 0164 01       		.byte	0x1
 3165 0165 36       		.byte	0x36
 3166 0166 0E010000 		.4byte	0x10e
 3167 016a 09       		.uleb128 0x9
 3168 016b CF170000 		.4byte	.LASF52
 3169 016f 10       		.byte	0x10
 3170 0170 01       		.byte	0x1
 3171 0171 44       		.byte	0x44
 3172 0172 C2010000 		.4byte	0x1c2
 3173 0176 07       		.uleb128 0x7
 3174 0177 32170000 		.4byte	.LASF30
 3175 017b 01       		.byte	0x1
 3176 017c 47       		.byte	0x47
 3177 017d F8010000 		.4byte	0x1f8
 3178 0181 00       		.byte	0
 3179 0182 07       		.uleb128 0x7
ARM GAS  C:\Users\tmj32\AppData\Local\Temp\ccT5YJ50.s 			page 89


 3180 0183 8F040000 		.4byte	.LASF31
 3181 0187 01       		.byte	0x1
 3182 0188 4A       		.byte	0x4a
 3183 0189 1D020000 		.4byte	0x21d
 3184 018d 04       		.byte	0x4
 3185 018e 07       		.uleb128 0x7
 3186 018f 62010000 		.4byte	.LASF32
 3187 0193 01       		.byte	0x1
 3188 0194 4D       		.byte	0x4d
 3189 0195 B8000000 		.4byte	0xb8
 3190 0199 08       		.byte	0x8
 3191 019a 07       		.uleb128 0x7
 3192 019b FE130000 		.4byte	.LASF33
 3193 019f 01       		.byte	0x1
 3194 01a0 4E       		.byte	0x4e
 3195 01a1 AD000000 		.4byte	0xad
 3196 01a5 09       		.byte	0x9
 3197 01a6 0A       		.uleb128 0xa
 3198 01a7 450F0000 		.4byte	.LASF62
 3199 01ab 01       		.byte	0x1
 3200 01ac 4F       		.byte	0x4f
 3201 01ad B8000000 		.4byte	0xb8
 3202 01b1 01       		.byte	0x1
 3203 01b2 02       		.byte	0x2
 3204 01b3 06       		.byte	0x6
 3205 01b4 0A       		.byte	0xa
 3206 01b5 08       		.uleb128 0x8
 3207 01b6 64736300 		.ascii	"dsc\000"
 3208 01ba 01       		.byte	0x1
 3209 01bb 50       		.byte	0x50
 3210 01bc FA000000 		.4byte	0xfa
 3211 01c0 0C       		.byte	0xc
 3212 01c1 00       		.byte	0
 3213 01c2 0B       		.uleb128 0xb
 3214 01c3 E0010000 		.4byte	0x1e0
 3215 01c7 E0010000 		.4byte	0x1e0
 3216 01cb 0C       		.uleb128 0xc
 3217 01cc E7010000 		.4byte	0x1e7
 3218 01d0 0C       		.uleb128 0xc
 3219 01d1 F2010000 		.4byte	0x1f2
 3220 01d5 0C       		.uleb128 0xc
 3221 01d6 E4000000 		.4byte	0xe4
 3222 01da 0C       		.uleb128 0xc
 3223 01db E4000000 		.4byte	0xe4
 3224 01df 00       		.byte	0
 3225 01e0 03       		.uleb128 0x3
 3226 01e1 01       		.byte	0x1
 3227 01e2 02       		.byte	0x2
 3228 01e3 84050000 		.4byte	.LASF34
 3229 01e7 0D       		.uleb128 0xd
 3230 01e8 04       		.byte	0x4
 3231 01e9 ED010000 		.4byte	0x1ed
 3232 01ed 0E       		.uleb128 0xe
 3233 01ee 6A010000 		.4byte	0x16a
 3234 01f2 0D       		.uleb128 0xd
 3235 01f3 04       		.byte	0x4
 3236 01f4 5F010000 		.4byte	0x15f
ARM GAS  C:\Users\tmj32\AppData\Local\Temp\ccT5YJ50.s 			page 90


 3237 01f8 0D       		.uleb128 0xd
 3238 01f9 04       		.byte	0x4
 3239 01fa C2010000 		.4byte	0x1c2
 3240 01fe 0B       		.uleb128 0xb
 3241 01ff 12020000 		.4byte	0x212
 3242 0203 12020000 		.4byte	0x212
 3243 0207 0C       		.uleb128 0xc
 3244 0208 E7010000 		.4byte	0x1e7
 3245 020c 0C       		.uleb128 0xc
 3246 020d E4000000 		.4byte	0xe4
 3247 0211 00       		.byte	0
 3248 0212 0D       		.uleb128 0xd
 3249 0213 04       		.byte	0x4
 3250 0214 18020000 		.4byte	0x218
 3251 0218 0E       		.uleb128 0xe
 3252 0219 B8000000 		.4byte	0xb8
 3253 021d 0D       		.uleb128 0xd
 3254 021e 04       		.byte	0x4
 3255 021f FE010000 		.4byte	0x1fe
 3256 0223 02       		.uleb128 0x2
 3257 0224 5C160000 		.4byte	.LASF35
 3258 0228 01       		.byte	0x1
 3259 0229 56       		.byte	0x56
 3260 022a 6A010000 		.4byte	0x16a
 3261 022e 06       		.uleb128 0x6
 3262 022f 04       		.byte	0x4
 3263 0230 0C       		.byte	0xc
 3264 0231 F3       		.byte	0xf3
 3265 0232 67020000 		.4byte	0x267
 3266 0236 07       		.uleb128 0x7
 3267 0237 A5040000 		.4byte	.LASF36
 3268 023b 0C       		.byte	0xc
 3269 023c F5       		.byte	0xf5
 3270 023d B8000000 		.4byte	0xb8
 3271 0241 00       		.byte	0
 3272 0242 07       		.uleb128 0x7
 3273 0243 56160000 		.4byte	.LASF37
 3274 0247 0C       		.byte	0xc
 3275 0248 F6       		.byte	0xf6
 3276 0249 B8000000 		.4byte	0xb8
 3277 024d 01       		.byte	0x1
 3278 024e 08       		.uleb128 0x8
 3279 024f 72656400 		.ascii	"red\000"
 3280 0253 0C       		.byte	0xc
 3281 0254 F7       		.byte	0xf7
 3282 0255 B8000000 		.4byte	0xb8
 3283 0259 02       		.byte	0x2
 3284 025a 07       		.uleb128 0x7
 3285 025b E1020000 		.4byte	.LASF38
 3286 025f 0C       		.byte	0xc
 3287 0260 F8       		.byte	0xf8
 3288 0261 B8000000 		.4byte	0xb8
 3289 0265 03       		.byte	0x3
 3290 0266 00       		.byte	0
 3291 0267 0F       		.uleb128 0xf
 3292 0268 04       		.byte	0x4
 3293 0269 0C       		.byte	0xc
ARM GAS  C:\Users\tmj32\AppData\Local\Temp\ccT5YJ50.s 			page 91


 3294 026a F1       		.byte	0xf1
 3295 026b 85020000 		.4byte	0x285
 3296 026f 10       		.uleb128 0x10
 3297 0270 636800   		.ascii	"ch\000"
 3298 0273 0C       		.byte	0xc
 3299 0274 F9       		.byte	0xf9
 3300 0275 2E020000 		.4byte	0x22e
 3301 0279 11       		.uleb128 0x11
 3302 027a B7120000 		.4byte	.LASF39
 3303 027e 0C       		.byte	0xc
 3304 027f FA       		.byte	0xfa
 3305 0280 E4000000 		.4byte	0xe4
 3306 0284 00       		.byte	0
 3307 0285 02       		.uleb128 0x2
 3308 0286 60000000 		.4byte	.LASF40
 3309 028a 0C       		.byte	0xc
 3310 028b FB       		.byte	0xfb
 3311 028c 67020000 		.4byte	0x267
 3312 0290 12       		.uleb128 0x12
 3313 0291 CE100000 		.4byte	.LASF41
 3314 0295 0C       		.byte	0xc
 3315 0296 0801     		.2byte	0x108
 3316 0298 85020000 		.4byte	0x285
 3317 029c 12       		.uleb128 0x12
 3318 029d D6000000 		.4byte	.LASF42
 3319 02a1 0C       		.byte	0xc
 3320 02a2 0D01     		.2byte	0x10d
 3321 02a4 B8000000 		.4byte	0xb8
 3322 02a8 03       		.uleb128 0x3
 3323 02a9 04       		.byte	0x4
 3324 02aa 07       		.byte	0x7
 3325 02ab 44000000 		.4byte	.LASF43
 3326 02af 0D       		.uleb128 0xd
 3327 02b0 04       		.byte	0x4
 3328 02b1 B5020000 		.4byte	0x2b5
 3329 02b5 03       		.uleb128 0x3
 3330 02b6 01       		.byte	0x1
 3331 02b7 08       		.byte	0x8
 3332 02b8 BD050000 		.4byte	.LASF44
 3333 02bc 0D       		.uleb128 0xd
 3334 02bd 04       		.byte	0x4
 3335 02be C2020000 		.4byte	0x2c2
 3336 02c2 0E       		.uleb128 0xe
 3337 02c3 B5020000 		.4byte	0x2b5
 3338 02c7 06       		.uleb128 0x6
 3339 02c8 04       		.byte	0x4
 3340 02c9 02       		.byte	0x2
 3341 02ca 2A       		.byte	0x2a
 3342 02cb E4020000 		.4byte	0x2e4
 3343 02cf 08       		.uleb128 0x8
 3344 02d0 7800     		.ascii	"x\000"
 3345 02d2 02       		.byte	0x2
 3346 02d3 2C       		.byte	0x2c
 3347 02d4 EF000000 		.4byte	0xef
 3348 02d8 00       		.byte	0
 3349 02d9 08       		.uleb128 0x8
 3350 02da 7900     		.ascii	"y\000"
ARM GAS  C:\Users\tmj32\AppData\Local\Temp\ccT5YJ50.s 			page 92


 3351 02dc 02       		.byte	0x2
 3352 02dd 2D       		.byte	0x2d
 3353 02de EF000000 		.4byte	0xef
 3354 02e2 02       		.byte	0x2
 3355 02e3 00       		.byte	0
 3356 02e4 02       		.uleb128 0x2
 3357 02e5 FF000000 		.4byte	.LASF45
 3358 02e9 02       		.byte	0x2
 3359 02ea 2E       		.byte	0x2e
 3360 02eb C7020000 		.4byte	0x2c7
 3361 02ef 06       		.uleb128 0x6
 3362 02f0 08       		.byte	0x8
 3363 02f1 02       		.byte	0x2
 3364 02f2 31       		.byte	0x31
 3365 02f3 24030000 		.4byte	0x324
 3366 02f7 08       		.uleb128 0x8
 3367 02f8 783100   		.ascii	"x1\000"
 3368 02fb 02       		.byte	0x2
 3369 02fc 33       		.byte	0x33
 3370 02fd EF000000 		.4byte	0xef
 3371 0301 00       		.byte	0
 3372 0302 08       		.uleb128 0x8
 3373 0303 793100   		.ascii	"y1\000"
 3374 0306 02       		.byte	0x2
 3375 0307 34       		.byte	0x34
 3376 0308 EF000000 		.4byte	0xef
 3377 030c 02       		.byte	0x2
 3378 030d 08       		.uleb128 0x8
 3379 030e 783200   		.ascii	"x2\000"
 3380 0311 02       		.byte	0x2
 3381 0312 35       		.byte	0x35
 3382 0313 EF000000 		.4byte	0xef
 3383 0317 04       		.byte	0x4
 3384 0318 08       		.uleb128 0x8
 3385 0319 793200   		.ascii	"y2\000"
 3386 031c 02       		.byte	0x2
 3387 031d 36       		.byte	0x36
 3388 031e EF000000 		.4byte	0xef
 3389 0322 06       		.byte	0x6
 3390 0323 00       		.byte	0
 3391 0324 02       		.uleb128 0x2
 3392 0325 C6070000 		.4byte	.LASF46
 3393 0329 02       		.byte	0x2
 3394 032a 37       		.byte	0x37
 3395 032b EF020000 		.4byte	0x2ef
 3396 032f 13       		.uleb128 0x13
 3397 0330 01       		.byte	0x1
 3398 0331 42000000 		.4byte	0x42
 3399 0335 0D       		.byte	0xd
 3400 0336 23       		.byte	0x23
 3401 0337 48030000 		.4byte	0x348
 3402 033b 14       		.uleb128 0x14
 3403 033c 7B040000 		.4byte	.LASF47
 3404 0340 00       		.byte	0
 3405 0341 14       		.uleb128 0x14
 3406 0342 83000000 		.4byte	.LASF48
 3407 0346 01       		.byte	0x1
ARM GAS  C:\Users\tmj32\AppData\Local\Temp\ccT5YJ50.s 			page 93


 3408 0347 00       		.byte	0
 3409 0348 02       		.uleb128 0x2
 3410 0349 4A0A0000 		.4byte	.LASF49
 3411 034d 0D       		.byte	0xd
 3412 034e 28       		.byte	0x28
 3413 034f B8000000 		.4byte	0xb8
 3414 0353 02       		.uleb128 0x2
 3415 0354 67060000 		.4byte	.LASF50
 3416 0358 0D       		.byte	0xd
 3417 0359 2B       		.byte	0x2b
 3418 035a EF000000 		.4byte	0xef
 3419 035e 02       		.uleb128 0x2
 3420 035f D6050000 		.4byte	.LASF51
 3421 0363 0D       		.byte	0xd
 3422 0364 37       		.byte	0x37
 3423 0365 69030000 		.4byte	0x369
 3424 0369 0D       		.uleb128 0xd
 3425 036a 04       		.byte	0x4
 3426 036b 6F030000 		.4byte	0x36f
 3427 036f 15       		.uleb128 0x15
 3428 0370 7F030000 		.4byte	0x37f
 3429 0374 0C       		.uleb128 0xc
 3430 0375 FA000000 		.4byte	0xfa
 3431 0379 0C       		.uleb128 0xc
 3432 037a 53030000 		.4byte	0x353
 3433 037e 00       		.byte	0
 3434 037f 0D       		.uleb128 0xd
 3435 0380 04       		.byte	0x4
 3436 0381 85030000 		.4byte	0x385
 3437 0385 09       		.uleb128 0x9
 3438 0386 E5170000 		.4byte	.LASF53
 3439 038a 24       		.byte	0x24
 3440 038b 0D       		.byte	0xd
 3441 038c 44       		.byte	0x44
 3442 038d 46040000 		.4byte	0x446
 3443 0391 08       		.uleb128 0x8
 3444 0392 76617200 		.ascii	"var\000"
 3445 0396 0D       		.byte	0xd
 3446 0397 46       		.byte	0x46
 3447 0398 FA000000 		.4byte	0xfa
 3448 039c 00       		.byte	0
 3449 039d 07       		.uleb128 0x7
 3450 039e 30110000 		.4byte	.LASF54
 3451 03a2 0D       		.byte	0xd
 3452 03a3 47       		.byte	0x47
 3453 03a4 5E030000 		.4byte	0x35e
 3454 03a8 04       		.byte	0x4
 3455 03a9 07       		.uleb128 0x7
 3456 03aa 6E010000 		.4byte	.LASF55
 3457 03ae 0D       		.byte	0xd
 3458 03af 48       		.byte	0x48
 3459 03b0 46040000 		.4byte	0x446
 3460 03b4 08       		.byte	0x8
 3461 03b5 07       		.uleb128 0x7
 3462 03b6 0C070000 		.4byte	.LASF56
 3463 03ba 0D       		.byte	0xd
 3464 03bb 49       		.byte	0x49
ARM GAS  C:\Users\tmj32\AppData\Local\Temp\ccT5YJ50.s 			page 94


 3465 03bc 71040000 		.4byte	0x471
 3466 03c0 0C       		.byte	0xc
 3467 03c1 07       		.uleb128 0x7
 3468 03c2 5A000000 		.4byte	.LASF57
 3469 03c6 0D       		.byte	0xd
 3470 03c7 4A       		.byte	0x4a
 3471 03c8 D9000000 		.4byte	0xd9
 3472 03cc 10       		.byte	0x10
 3473 03cd 08       		.uleb128 0x8
 3474 03ce 656E6400 		.ascii	"end\000"
 3475 03d2 0D       		.byte	0xd
 3476 03d3 4B       		.byte	0x4b
 3477 03d4 D9000000 		.4byte	0xd9
 3478 03d8 14       		.byte	0x14
 3479 03d9 07       		.uleb128 0x7
 3480 03da DF120000 		.4byte	.LASF58
 3481 03de 0D       		.byte	0xd
 3482 03df 4C       		.byte	0x4c
 3483 03e0 CE000000 		.4byte	0xce
 3484 03e4 18       		.byte	0x18
 3485 03e5 07       		.uleb128 0x7
 3486 03e6 68150000 		.4byte	.LASF59
 3487 03ea 0D       		.byte	0xd
 3488 03eb 4D       		.byte	0x4d
 3489 03ec C3000000 		.4byte	0xc3
 3490 03f0 1A       		.byte	0x1a
 3491 03f1 07       		.uleb128 0x7
 3492 03f2 14160000 		.4byte	.LASF60
 3493 03f6 0D       		.byte	0xd
 3494 03f7 4E       		.byte	0x4e
 3495 03f8 CE000000 		.4byte	0xce
 3496 03fc 1C       		.byte	0x1c
 3497 03fd 07       		.uleb128 0x7
 3498 03fe 18030000 		.4byte	.LASF61
 3499 0402 0D       		.byte	0xd
 3500 0403 4F       		.byte	0x4f
 3501 0404 CE000000 		.4byte	0xce
 3502 0408 1E       		.byte	0x1e
 3503 0409 0A       		.uleb128 0xa
 3504 040a F5130000 		.4byte	.LASF63
 3505 040e 0D       		.byte	0xd
 3506 040f 54       		.byte	0x54
 3507 0410 B8000000 		.4byte	0xb8
 3508 0414 01       		.byte	0x1
 3509 0415 01       		.byte	0x1
 3510 0416 07       		.byte	0x7
 3511 0417 20       		.byte	0x20
 3512 0418 0A       		.uleb128 0xa
 3513 0419 C7000000 		.4byte	.LASF64
 3514 041d 0D       		.byte	0xd
 3515 041e 55       		.byte	0x55
 3516 041f B8000000 		.4byte	0xb8
 3517 0423 01       		.byte	0x1
 3518 0424 01       		.byte	0x1
 3519 0425 06       		.byte	0x6
 3520 0426 20       		.byte	0x20
 3521 0427 0A       		.uleb128 0xa
ARM GAS  C:\Users\tmj32\AppData\Local\Temp\ccT5YJ50.s 			page 95


 3522 0428 02170000 		.4byte	.LASF65
 3523 042c 0D       		.byte	0xd
 3524 042d 57       		.byte	0x57
 3525 042e B8000000 		.4byte	0xb8
 3526 0432 01       		.byte	0x1
 3527 0433 01       		.byte	0x1
 3528 0434 05       		.byte	0x5
 3529 0435 20       		.byte	0x20
 3530 0436 0A       		.uleb128 0xa
 3531 0437 41100000 		.4byte	.LASF66
 3532 043b 0D       		.byte	0xd
 3533 043c 58       		.byte	0x58
 3534 043d E4000000 		.4byte	0xe4
 3535 0441 04       		.byte	0x4
 3536 0442 01       		.byte	0x1
 3537 0443 1C       		.byte	0x1c
 3538 0444 20       		.byte	0x20
 3539 0445 00       		.byte	0
 3540 0446 02       		.uleb128 0x2
 3541 0447 270D0000 		.4byte	.LASF67
 3542 044b 0D       		.byte	0xd
 3543 044c 3E       		.byte	0x3e
 3544 044d 51040000 		.4byte	0x451
 3545 0451 0D       		.uleb128 0xd
 3546 0452 04       		.byte	0x4
 3547 0453 57040000 		.4byte	0x457
 3548 0457 0B       		.uleb128 0xb
 3549 0458 53030000 		.4byte	0x353
 3550 045c 66040000 		.4byte	0x466
 3551 0460 0C       		.uleb128 0xc
 3552 0461 66040000 		.4byte	0x466
 3553 0465 00       		.byte	0
 3554 0466 0D       		.uleb128 0xd
 3555 0467 04       		.byte	0x4
 3556 0468 6C040000 		.4byte	0x46c
 3557 046c 0E       		.uleb128 0xe
 3558 046d 85030000 		.4byte	0x385
 3559 0471 02       		.uleb128 0x2
 3560 0472 1D080000 		.4byte	.LASF68
 3561 0476 0D       		.byte	0xd
 3562 0477 41       		.byte	0x41
 3563 0478 7C040000 		.4byte	0x47c
 3564 047c 0D       		.uleb128 0xd
 3565 047d 04       		.byte	0x4
 3566 047e 82040000 		.4byte	0x482
 3567 0482 15       		.uleb128 0x15
 3568 0483 8D040000 		.4byte	0x48d
 3569 0487 0C       		.uleb128 0xc
 3570 0488 7F030000 		.4byte	0x37f
 3571 048c 00       		.byte	0
 3572 048d 02       		.uleb128 0x2
 3573 048e 71090000 		.4byte	.LASF69
 3574 0492 0D       		.byte	0xd
 3575 0493 59       		.byte	0x59
 3576 0494 85030000 		.4byte	0x385
 3577 0498 02       		.uleb128 0x2
 3578 0499 58170000 		.4byte	.LASF70
ARM GAS  C:\Users\tmj32\AppData\Local\Temp\ccT5YJ50.s 			page 96


 3579 049d 0E       		.byte	0xe
 3580 049e 2C       		.byte	0x2c
 3581 049f B8000000 		.4byte	0xb8
 3582 04a3 02       		.uleb128 0x2
 3583 04a4 39130000 		.4byte	.LASF71
 3584 04a8 0E       		.byte	0xe
 3585 04a9 33       		.byte	0x33
 3586 04aa B8000000 		.4byte	0xb8
 3587 04ae 06       		.uleb128 0x6
 3588 04af 08       		.byte	0x8
 3589 04b0 0E       		.byte	0xe
 3590 04b1 48       		.byte	0x48
 3591 04b2 E7040000 		.4byte	0x4e7
 3592 04b6 07       		.uleb128 0x7
 3593 04b7 D9120000 		.4byte	.LASF72
 3594 04bb 0E       		.byte	0xe
 3595 04bc 4A       		.byte	0x4a
 3596 04bd 90020000 		.4byte	0x290
 3597 04c1 00       		.byte	0
 3598 04c2 07       		.uleb128 0x7
 3599 04c3 DF0B0000 		.4byte	.LASF73
 3600 04c7 0E       		.byte	0xe
 3601 04c8 4B       		.byte	0x4b
 3602 04c9 EF000000 		.4byte	0xef
 3603 04cd 04       		.byte	0x4
 3604 04ce 07       		.uleb128 0x7
 3605 04cf AE160000 		.4byte	.LASF74
 3606 04d3 0E       		.byte	0xe
 3607 04d4 4C       		.byte	0x4c
 3608 04d5 98040000 		.4byte	0x498
 3609 04d9 06       		.byte	0x6
 3610 04da 08       		.uleb128 0x8
 3611 04db 6F706100 		.ascii	"opa\000"
 3612 04df 0E       		.byte	0xe
 3613 04e0 4D       		.byte	0x4d
 3614 04e1 9C020000 		.4byte	0x29c
 3615 04e5 07       		.byte	0x7
 3616 04e6 00       		.byte	0
 3617 04e7 06       		.uleb128 0x6
 3618 04e8 08       		.byte	0x8
 3619 04e9 0E       		.byte	0xe
 3620 04ea 51       		.byte	0x51
 3621 04eb 14050000 		.4byte	0x514
 3622 04ef 07       		.uleb128 0x7
 3623 04f0 D9120000 		.4byte	.LASF72
 3624 04f4 0E       		.byte	0xe
 3625 04f5 53       		.byte	0x53
 3626 04f6 90020000 		.4byte	0x290
 3627 04fa 00       		.byte	0
 3628 04fb 07       		.uleb128 0x7
 3629 04fc DF0B0000 		.4byte	.LASF73
 3630 0500 0E       		.byte	0xe
 3631 0501 54       		.byte	0x54
 3632 0502 EF000000 		.4byte	0xef
 3633 0506 04       		.byte	0x4
 3634 0507 07       		.uleb128 0x7
 3635 0508 2A020000 		.4byte	.LASF75
ARM GAS  C:\Users\tmj32\AppData\Local\Temp\ccT5YJ50.s 			page 97


 3636 050c 0E       		.byte	0xe
 3637 050d 55       		.byte	0x55
 3638 050e A3040000 		.4byte	0x4a3
 3639 0512 06       		.byte	0x6
 3640 0513 00       		.byte	0
 3641 0514 06       		.uleb128 0x6
 3642 0515 0A       		.byte	0xa
 3643 0516 0E       		.byte	0xe
 3644 0517 58       		.byte	0x58
 3645 0518 59050000 		.4byte	0x559
 3646 051c 08       		.uleb128 0x8
 3647 051d 746F7000 		.ascii	"top\000"
 3648 0521 0E       		.byte	0xe
 3649 0522 5A       		.byte	0x5a
 3650 0523 EF000000 		.4byte	0xef
 3651 0527 00       		.byte	0
 3652 0528 07       		.uleb128 0x7
 3653 0529 0D0C0000 		.4byte	.LASF76
 3654 052d 0E       		.byte	0xe
 3655 052e 5B       		.byte	0x5b
 3656 052f EF000000 		.4byte	0xef
 3657 0533 02       		.byte	0x2
 3658 0534 07       		.uleb128 0x7
 3659 0535 0D080000 		.4byte	.LASF77
 3660 0539 0E       		.byte	0xe
 3661 053a 5C       		.byte	0x5c
 3662 053b EF000000 		.4byte	0xef
 3663 053f 04       		.byte	0x4
 3664 0540 07       		.uleb128 0x7
 3665 0541 0D0B0000 		.4byte	.LASF78
 3666 0545 0E       		.byte	0xe
 3667 0546 5D       		.byte	0x5d
 3668 0547 EF000000 		.4byte	0xef
 3669 054b 06       		.byte	0x6
 3670 054c 07       		.uleb128 0x7
 3671 054d 32090000 		.4byte	.LASF79
 3672 0551 0E       		.byte	0xe
 3673 0552 5E       		.byte	0x5e
 3674 0553 EF000000 		.4byte	0xef
 3675 0557 08       		.byte	0x8
 3676 0558 00       		.byte	0
 3677 0559 06       		.uleb128 0x6
 3678 055a 28       		.byte	0x28
 3679 055b 0E       		.byte	0xe
 3680 055c 41       		.byte	0x41
 3681 055d B6050000 		.4byte	0x5b6
 3682 0561 07       		.uleb128 0x7
 3683 0562 FC0F0000 		.4byte	.LASF80
 3684 0566 0E       		.byte	0xe
 3685 0567 43       		.byte	0x43
 3686 0568 90020000 		.4byte	0x290
 3687 056c 00       		.byte	0
 3688 056d 07       		.uleb128 0x7
 3689 056e F30D0000 		.4byte	.LASF81
 3690 0572 0E       		.byte	0xe
 3691 0573 44       		.byte	0x44
 3692 0574 90020000 		.4byte	0x290
ARM GAS  C:\Users\tmj32\AppData\Local\Temp\ccT5YJ50.s 			page 98


 3693 0578 04       		.byte	0x4
 3694 0579 07       		.uleb128 0x7
 3695 057a 4E010000 		.4byte	.LASF82
 3696 057e 0E       		.byte	0xe
 3697 057f 45       		.byte	0x45
 3698 0580 EF000000 		.4byte	0xef
 3699 0584 08       		.byte	0x8
 3700 0585 08       		.uleb128 0x8
 3701 0586 6F706100 		.ascii	"opa\000"
 3702 058a 0E       		.byte	0xe
 3703 058b 46       		.byte	0x46
 3704 058c 9C020000 		.4byte	0x29c
 3705 0590 0A       		.byte	0xa
 3706 0591 07       		.uleb128 0x7
 3707 0592 0F170000 		.4byte	.LASF83
 3708 0596 0E       		.byte	0xe
 3709 0597 4E       		.byte	0x4e
 3710 0598 AE040000 		.4byte	0x4ae
 3711 059c 0C       		.byte	0xc
 3712 059d 07       		.uleb128 0x7
 3713 059e E5140000 		.4byte	.LASF84
 3714 05a2 0E       		.byte	0xe
 3715 05a3 56       		.byte	0x56
 3716 05a4 E7040000 		.4byte	0x4e7
 3717 05a8 14       		.byte	0x14
 3718 05a9 07       		.uleb128 0x7
 3719 05aa C1150000 		.4byte	.LASF85
 3720 05ae 0E       		.byte	0xe
 3721 05af 5F       		.byte	0x5f
 3722 05b0 14050000 		.4byte	0x514
 3723 05b4 1C       		.byte	0x1c
 3724 05b5 00       		.byte	0
 3725 05b6 06       		.uleb128 0x6
 3726 05b7 14       		.byte	0x14
 3727 05b8 0E       		.byte	0xe
 3728 05b9 63       		.byte	0x63
 3729 05ba 07060000 		.4byte	0x607
 3730 05be 07       		.uleb128 0x7
 3731 05bf D9120000 		.4byte	.LASF72
 3732 05c3 0E       		.byte	0xe
 3733 05c4 65       		.byte	0x65
 3734 05c5 90020000 		.4byte	0x290
 3735 05c9 00       		.byte	0
 3736 05ca 07       		.uleb128 0x7
 3737 05cb B8170000 		.4byte	.LASF86
 3738 05cf 0E       		.byte	0xe
 3739 05d0 66       		.byte	0x66
 3740 05d1 90020000 		.4byte	0x290
 3741 05d5 04       		.byte	0x4
 3742 05d6 07       		.uleb128 0x7
 3743 05d7 99130000 		.4byte	.LASF87
 3744 05db 0E       		.byte	0xe
 3745 05dc 67       		.byte	0x67
 3746 05dd 07060000 		.4byte	0x607
 3747 05e1 08       		.byte	0x8
 3748 05e2 07       		.uleb128 0x7
 3749 05e3 9E130000 		.4byte	.LASF88
ARM GAS  C:\Users\tmj32\AppData\Local\Temp\ccT5YJ50.s 			page 99


 3750 05e7 0E       		.byte	0xe
 3751 05e8 68       		.byte	0x68
 3752 05e9 EF000000 		.4byte	0xef
 3753 05ed 0C       		.byte	0xc
 3754 05ee 07       		.uleb128 0x7
 3755 05ef 0A130000 		.4byte	.LASF89
 3756 05f3 0E       		.byte	0xe
 3757 05f4 69       		.byte	0x69
 3758 05f5 EF000000 		.4byte	0xef
 3759 05f9 0E       		.byte	0xe
 3760 05fa 08       		.uleb128 0x8
 3761 05fb 6F706100 		.ascii	"opa\000"
 3762 05ff 0E       		.byte	0xe
 3763 0600 6A       		.byte	0x6a
 3764 0601 9C020000 		.4byte	0x29c
 3765 0605 10       		.byte	0x10
 3766 0606 00       		.byte	0
 3767 0607 0D       		.uleb128 0xd
 3768 0608 04       		.byte	0x4
 3769 0609 0D060000 		.4byte	0x60d
 3770 060d 0E       		.uleb128 0xe
 3771 060e 23020000 		.4byte	0x223
 3772 0612 06       		.uleb128 0x6
 3773 0613 08       		.byte	0x8
 3774 0614 0E       		.byte	0xe
 3775 0615 6E       		.byte	0x6e
 3776 0616 3F060000 		.4byte	0x63f
 3777 061a 07       		.uleb128 0x7
 3778 061b D9120000 		.4byte	.LASF72
 3779 061f 0E       		.byte	0xe
 3780 0620 70       		.byte	0x70
 3781 0621 90020000 		.4byte	0x290
 3782 0625 00       		.byte	0
 3783 0626 07       		.uleb128 0x7
 3784 0627 E7000000 		.4byte	.LASF90
 3785 062b 0E       		.byte	0xe
 3786 062c 71       		.byte	0x71
 3787 062d 9C020000 		.4byte	0x29c
 3788 0631 04       		.byte	0x4
 3789 0632 08       		.uleb128 0x8
 3790 0633 6F706100 		.ascii	"opa\000"
 3791 0637 0E       		.byte	0xe
 3792 0638 72       		.byte	0x72
 3793 0639 9C020000 		.4byte	0x29c
 3794 063d 05       		.byte	0x5
 3795 063e 00       		.byte	0
 3796 063f 06       		.uleb128 0x6
 3797 0640 08       		.byte	0x8
 3798 0641 0E       		.byte	0xe
 3799 0642 76       		.byte	0x76
 3800 0643 7B060000 		.4byte	0x67b
 3801 0647 07       		.uleb128 0x7
 3802 0648 D9120000 		.4byte	.LASF72
 3803 064c 0E       		.byte	0xe
 3804 064d 78       		.byte	0x78
 3805 064e 90020000 		.4byte	0x290
 3806 0652 00       		.byte	0
ARM GAS  C:\Users\tmj32\AppData\Local\Temp\ccT5YJ50.s 			page 100


 3807 0653 07       		.uleb128 0x7
 3808 0654 DF0B0000 		.4byte	.LASF73
 3809 0658 0E       		.byte	0xe
 3810 0659 79       		.byte	0x79
 3811 065a EF000000 		.4byte	0xef
 3812 065e 04       		.byte	0x4
 3813 065f 08       		.uleb128 0x8
 3814 0660 6F706100 		.ascii	"opa\000"
 3815 0664 0E       		.byte	0xe
 3816 0665 7A       		.byte	0x7a
 3817 0666 9C020000 		.4byte	0x29c
 3818 066a 06       		.byte	0x6
 3819 066b 0A       		.uleb128 0xa
 3820 066c 6C070000 		.4byte	.LASF91
 3821 0670 0E       		.byte	0xe
 3822 0671 7B       		.byte	0x7b
 3823 0672 B8000000 		.4byte	0xb8
 3824 0676 01       		.byte	0x1
 3825 0677 01       		.byte	0x1
 3826 0678 07       		.byte	0x7
 3827 0679 07       		.byte	0x7
 3828 067a 00       		.byte	0
 3829 067b 06       		.uleb128 0x6
 3830 067c 50       		.byte	0x50
 3831 067d 0E       		.byte	0xe
 3832 067e 3C       		.byte	0x3c
 3833 067f C3060000 		.4byte	0x6c3
 3834 0683 0A       		.uleb128 0xa
 3835 0684 D70C0000 		.4byte	.LASF92
 3836 0688 0E       		.byte	0xe
 3837 0689 3E       		.byte	0x3e
 3838 068a B8000000 		.4byte	0xb8
 3839 068e 01       		.byte	0x1
 3840 068f 01       		.byte	0x1
 3841 0690 07       		.byte	0x7
 3842 0691 00       		.byte	0
 3843 0692 07       		.uleb128 0x7
 3844 0693 FD050000 		.4byte	.LASF93
 3845 0697 0E       		.byte	0xe
 3846 0698 60       		.byte	0x60
 3847 0699 59050000 		.4byte	0x559
 3848 069d 04       		.byte	0x4
 3849 069e 07       		.uleb128 0x7
 3850 069f 15070000 		.4byte	.LASF94
 3851 06a3 0E       		.byte	0xe
 3852 06a4 6B       		.byte	0x6b
 3853 06a5 B6050000 		.4byte	0x5b6
 3854 06a9 2C       		.byte	0x2c
 3855 06aa 07       		.uleb128 0x7
 3856 06ab 66070000 		.4byte	.LASF95
 3857 06af 0E       		.byte	0xe
 3858 06b0 73       		.byte	0x73
 3859 06b1 12060000 		.4byte	0x612
 3860 06b5 40       		.byte	0x40
 3861 06b6 07       		.uleb128 0x7
 3862 06b7 B1090000 		.4byte	.LASF96
 3863 06bb 0E       		.byte	0xe
ARM GAS  C:\Users\tmj32\AppData\Local\Temp\ccT5YJ50.s 			page 101


 3864 06bc 7C       		.byte	0x7c
 3865 06bd 3F060000 		.4byte	0x63f
 3866 06c1 48       		.byte	0x48
 3867 06c2 00       		.byte	0
 3868 06c3 02       		.uleb128 0x2
 3869 06c4 27090000 		.4byte	.LASF97
 3870 06c8 0E       		.byte	0xe
 3871 06c9 84       		.byte	0x84
 3872 06ca 7B060000 		.4byte	0x67b
 3873 06ce 0D       		.uleb128 0xd
 3874 06cf 04       		.byte	0x4
 3875 06d0 C3060000 		.4byte	0x6c3
 3876 06d4 13       		.uleb128 0x13
 3877 06d5 01       		.byte	0x1
 3878 06d6 42000000 		.4byte	0x42
 3879 06da 0F       		.byte	0xf
 3880 06db 27       		.byte	0x27
 3881 06dc ED060000 		.4byte	0x6ed
 3882 06e0 14       		.uleb128 0x14
 3883 06e1 F6010000 		.4byte	.LASF98
 3884 06e5 00       		.byte	0
 3885 06e6 14       		.uleb128 0x14
 3886 06e7 9E100000 		.4byte	.LASF99
 3887 06eb 01       		.byte	0x1
 3888 06ec 00       		.byte	0
 3889 06ed 02       		.uleb128 0x2
 3890 06ee 960E0000 		.4byte	.LASF100
 3891 06f2 0F       		.byte	0xf
 3892 06f3 2C       		.byte	0x2c
 3893 06f4 B8000000 		.4byte	0xb8
 3894 06f8 02       		.uleb128 0x2
 3895 06f9 20000000 		.4byte	.LASF101
 3896 06fd 10       		.byte	0x10
 3897 06fe 1E       		.byte	0x1e
 3898 06ff B8000000 		.4byte	0xb8
 3899 0703 06       		.uleb128 0x6
 3900 0704 0C       		.byte	0xc
 3901 0705 10       		.byte	0x10
 3902 0706 21       		.byte	0x21
 3903 0707 30070000 		.4byte	0x730
 3904 070b 07       		.uleb128 0x7
 3905 070c F0170000 		.4byte	.LASF102
 3906 0710 10       		.byte	0x10
 3907 0711 23       		.byte	0x23
 3908 0712 E4000000 		.4byte	0xe4
 3909 0716 00       		.byte	0
 3910 0717 07       		.uleb128 0x7
 3911 0718 DD030000 		.4byte	.LASF103
 3912 071c 10       		.byte	0x10
 3913 071d 24       		.byte	0x24
 3914 071e 30070000 		.4byte	0x730
 3915 0722 04       		.byte	0x4
 3916 0723 07       		.uleb128 0x7
 3917 0724 8E000000 		.4byte	.LASF104
 3918 0728 10       		.byte	0x10
 3919 0729 25       		.byte	0x25
 3920 072a 30070000 		.4byte	0x730
ARM GAS  C:\Users\tmj32\AppData\Local\Temp\ccT5YJ50.s 			page 102


 3921 072e 08       		.byte	0x8
 3922 072f 00       		.byte	0
 3923 0730 0D       		.uleb128 0xd
 3924 0731 04       		.byte	0x4
 3925 0732 F8060000 		.4byte	0x6f8
 3926 0736 02       		.uleb128 0x2
 3927 0737 0E140000 		.4byte	.LASF105
 3928 073b 10       		.byte	0x10
 3929 073c 26       		.byte	0x26
 3930 073d 03070000 		.4byte	0x703
 3931 0741 02       		.uleb128 0x2
 3932 0742 90070000 		.4byte	.LASF106
 3933 0746 11       		.byte	0x11
 3934 0747 30       		.byte	0x30
 3935 0748 B8000000 		.4byte	0xb8
 3936 074c 02       		.uleb128 0x2
 3937 074d C2170000 		.4byte	.LASF107
 3938 0751 12       		.byte	0x12
 3939 0752 2B       		.byte	0x2b
 3940 0753 57070000 		.4byte	0x757
 3941 0757 0D       		.uleb128 0xd
 3942 0758 04       		.byte	0x4
 3943 0759 5D070000 		.4byte	0x75d
 3944 075d 15       		.uleb128 0x15
 3945 075e 68070000 		.4byte	0x768
 3946 0762 0C       		.uleb128 0xc
 3947 0763 68070000 		.4byte	0x768
 3948 0767 00       		.byte	0
 3949 0768 0D       		.uleb128 0xd
 3950 0769 04       		.byte	0x4
 3951 076a 6E070000 		.4byte	0x76e
 3952 076e 09       		.uleb128 0x9
 3953 076f 1C060000 		.4byte	.LASF108
 3954 0773 14       		.byte	0x14
 3955 0774 12       		.byte	0x12
 3956 0775 3E       		.byte	0x3e
 3957 0776 C9070000 		.4byte	0x7c9
 3958 077a 07       		.uleb128 0x7
 3959 077b 38120000 		.4byte	.LASF109
 3960 077f 12       		.byte	0x12
 3961 0780 40       		.byte	0x40
 3962 0781 E4000000 		.4byte	0xe4
 3963 0785 00       		.byte	0
 3964 0786 07       		.uleb128 0x7
 3965 0787 A8100000 		.4byte	.LASF110
 3966 078b 12       		.byte	0x12
 3967 078c 41       		.byte	0x41
 3968 078d E4000000 		.4byte	0xe4
 3969 0791 04       		.byte	0x4
 3970 0792 07       		.uleb128 0x7
 3971 0793 38050000 		.4byte	.LASF111
 3972 0797 12       		.byte	0x12
 3973 0798 42       		.byte	0x42
 3974 0799 4C070000 		.4byte	0x74c
 3975 079d 08       		.byte	0x8
 3976 079e 07       		.uleb128 0x7
 3977 079f E4160000 		.4byte	.LASF112
ARM GAS  C:\Users\tmj32\AppData\Local\Temp\ccT5YJ50.s 			page 103


 3978 07a3 12       		.byte	0x12
 3979 07a4 44       		.byte	0x44
 3980 07a5 FA000000 		.4byte	0xfa
 3981 07a9 0C       		.byte	0xc
 3982 07aa 0A       		.uleb128 0xa
 3983 07ab 8D020000 		.4byte	.LASF113
 3984 07af 12       		.byte	0x12
 3985 07b0 46       		.byte	0x46
 3986 07b1 B8000000 		.4byte	0xb8
 3987 07b5 01       		.byte	0x1
 3988 07b6 03       		.byte	0x3
 3989 07b7 05       		.byte	0x5
 3990 07b8 10       		.byte	0x10
 3991 07b9 0A       		.uleb128 0xa
 3992 07ba B80D0000 		.4byte	.LASF114
 3993 07be 12       		.byte	0x12
 3994 07bf 47       		.byte	0x47
 3995 07c0 B8000000 		.4byte	0xb8
 3996 07c4 01       		.byte	0x1
 3997 07c5 01       		.byte	0x1
 3998 07c6 04       		.byte	0x4
 3999 07c7 10       		.byte	0x10
 4000 07c8 00       		.byte	0
 4001 07c9 02       		.uleb128 0x2
 4002 07ca FA100000 		.4byte	.LASF115
 4003 07ce 12       		.byte	0x12
 4004 07cf 48       		.byte	0x48
 4005 07d0 6E070000 		.4byte	0x76e
 4006 07d4 06       		.uleb128 0x6
 4007 07d5 1C       		.byte	0x1c
 4008 07d6 13       		.byte	0x13
 4009 07d7 2F       		.byte	0x2f
 4010 07d8 28080000 		.4byte	0x828
 4011 07dc 07       		.uleb128 0x7
 4012 07dd 2B0C0000 		.4byte	.LASF116
 4013 07e1 13       		.byte	0x13
 4014 07e2 31       		.byte	0x31
 4015 07e3 FA000000 		.4byte	0xfa
 4016 07e7 00       		.byte	0
 4017 07e8 07       		.uleb128 0x7
 4018 07e9 300C0000 		.4byte	.LASF117
 4019 07ed 13       		.byte	0x13
 4020 07ee 32       		.byte	0x32
 4021 07ef FA000000 		.4byte	0xfa
 4022 07f3 04       		.byte	0x4
 4023 07f4 07       		.uleb128 0x7
 4024 07f5 9F0E0000 		.4byte	.LASF118
 4025 07f9 13       		.byte	0x13
 4026 07fa 35       		.byte	0x35
 4027 07fb FA000000 		.4byte	0xfa
 4028 07ff 08       		.byte	0x8
 4029 0800 07       		.uleb128 0x7
 4030 0801 D60E0000 		.4byte	.LASF119
 4031 0805 13       		.byte	0x13
 4032 0806 36       		.byte	0x36
 4033 0807 E4000000 		.4byte	0xe4
 4034 080b 0C       		.byte	0xc
ARM GAS  C:\Users\tmj32\AppData\Local\Temp\ccT5YJ50.s 			page 104


 4035 080c 07       		.uleb128 0x7
 4036 080d E8080000 		.4byte	.LASF120
 4037 0811 13       		.byte	0x13
 4038 0812 37       		.byte	0x37
 4039 0813 24030000 		.4byte	0x324
 4040 0817 10       		.byte	0x10
 4041 0818 0A       		.uleb128 0xa
 4042 0819 C4060000 		.4byte	.LASF121
 4043 081d 13       		.byte	0x13
 4044 081e 38       		.byte	0x38
 4045 081f 28080000 		.4byte	0x828
 4046 0823 04       		.byte	0x4
 4047 0824 01       		.byte	0x1
 4048 0825 1F       		.byte	0x1f
 4049 0826 18       		.byte	0x18
 4050 0827 00       		.byte	0
 4051 0828 16       		.uleb128 0x16
 4052 0829 E4000000 		.4byte	0xe4
 4053 082d 02       		.uleb128 0x2
 4054 082e D20A0000 		.4byte	.LASF122
 4055 0832 13       		.byte	0x13
 4056 0833 39       		.byte	0x39
 4057 0834 D4070000 		.4byte	0x7d4
 4058 0838 09       		.uleb128 0x9
 4059 0839 640A0000 		.4byte	.LASF123
 4060 083d 20       		.byte	0x20
 4061 083e 13       		.byte	0x13
 4062 083f 3E       		.byte	0x3e
 4063 0840 B4080000 		.4byte	0x8b4
 4064 0844 07       		.uleb128 0x7
 4065 0845 62040000 		.4byte	.LASF124
 4066 0849 13       		.byte	0x13
 4067 084a 41       		.byte	0x41
 4068 084b EF000000 		.4byte	0xef
 4069 084f 00       		.byte	0
 4070 0850 07       		.uleb128 0x7
 4071 0851 E7020000 		.4byte	.LASF125
 4072 0855 13       		.byte	0x13
 4073 0856 42       		.byte	0x42
 4074 0857 EF000000 		.4byte	0xef
 4075 085b 02       		.byte	0x2
 4076 085c 07       		.uleb128 0x7
 4077 085d D0070000 		.4byte	.LASF126
 4078 0861 13       		.byte	0x13
 4079 0862 46       		.byte	0x46
 4080 0863 B4080000 		.4byte	0x8b4
 4081 0867 04       		.byte	0x4
 4082 0868 0A       		.uleb128 0xa
 4083 0869 4B030000 		.4byte	.LASF127
 4084 086d 13       		.byte	0x13
 4085 086e 4B       		.byte	0x4b
 4086 086f E4000000 		.4byte	0xe4
 4087 0873 04       		.byte	0x4
 4088 0874 01       		.byte	0x1
 4089 0875 1F       		.byte	0x1f
 4090 0876 08       		.byte	0x8
 4091 0877 07       		.uleb128 0x7
ARM GAS  C:\Users\tmj32\AppData\Local\Temp\ccT5YJ50.s 			page 105


 4092 0878 DB160000 		.4byte	.LASF128
 4093 087c 13       		.byte	0x13
 4094 087d 55       		.byte	0x55
 4095 087e E6080000 		.4byte	0x8e6
 4096 0882 0C       		.byte	0xc
 4097 0883 07       		.uleb128 0x7
 4098 0884 3F120000 		.4byte	.LASF129
 4099 0888 13       		.byte	0x13
 4100 0889 59       		.byte	0x59
 4101 088a 02090000 		.4byte	0x902
 4102 088e 10       		.byte	0x10
 4103 088f 07       		.uleb128 0x7
 4104 0890 44040000 		.4byte	.LASF130
 4105 0894 13       		.byte	0x13
 4106 0895 5E       		.byte	0x5e
 4107 0896 37090000 		.4byte	0x937
 4108 089a 14       		.byte	0x14
 4109 089b 07       		.uleb128 0x7
 4110 089c 83160000 		.4byte	.LASF131
 4111 08a0 13       		.byte	0x13
 4112 08a1 63       		.byte	0x63
 4113 08a2 52090000 		.4byte	0x952
 4114 08a6 18       		.byte	0x18
 4115 08a7 07       		.uleb128 0x7
 4116 08a8 0F000000 		.4byte	.LASF132
 4117 08ac 13       		.byte	0x13
 4118 08ad 71       		.byte	0x71
 4119 08ae 90020000 		.4byte	0x290
 4120 08b2 1C       		.byte	0x1c
 4121 08b3 00       		.byte	0
 4122 08b4 0D       		.uleb128 0xd
 4123 08b5 04       		.byte	0x4
 4124 08b6 2D080000 		.4byte	0x82d
 4125 08ba 15       		.uleb128 0x15
 4126 08bb CF080000 		.4byte	0x8cf
 4127 08bf 0C       		.uleb128 0xc
 4128 08c0 CF080000 		.4byte	0x8cf
 4129 08c4 0C       		.uleb128 0xc
 4130 08c5 D5080000 		.4byte	0x8d5
 4131 08c9 0C       		.uleb128 0xc
 4132 08ca E0080000 		.4byte	0x8e0
 4133 08ce 00       		.byte	0
 4134 08cf 0D       		.uleb128 0xd
 4135 08d0 04       		.byte	0x4
 4136 08d1 38080000 		.4byte	0x838
 4137 08d5 0D       		.uleb128 0xd
 4138 08d6 04       		.byte	0x4
 4139 08d7 DB080000 		.4byte	0x8db
 4140 08db 0E       		.uleb128 0xe
 4141 08dc 24030000 		.4byte	0x324
 4142 08e0 0D       		.uleb128 0xd
 4143 08e1 04       		.byte	0x4
 4144 08e2 90020000 		.4byte	0x290
 4145 08e6 0D       		.uleb128 0xd
 4146 08e7 04       		.byte	0x4
 4147 08e8 BA080000 		.4byte	0x8ba
 4148 08ec 15       		.uleb128 0x15
ARM GAS  C:\Users\tmj32\AppData\Local\Temp\ccT5YJ50.s 			page 106


 4149 08ed FC080000 		.4byte	0x8fc
 4150 08f1 0C       		.uleb128 0xc
 4151 08f2 CF080000 		.4byte	0x8cf
 4152 08f6 0C       		.uleb128 0xc
 4153 08f7 FC080000 		.4byte	0x8fc
 4154 08fb 00       		.byte	0
 4155 08fc 0D       		.uleb128 0xd
 4156 08fd 04       		.byte	0x4
 4157 08fe 24030000 		.4byte	0x324
 4158 0902 0D       		.uleb128 0xd
 4159 0903 04       		.byte	0x4
 4160 0904 EC080000 		.4byte	0x8ec
 4161 0908 15       		.uleb128 0x15
 4162 0909 31090000 		.4byte	0x931
 4163 090d 0C       		.uleb128 0xc
 4164 090e CF080000 		.4byte	0x8cf
 4165 0912 0C       		.uleb128 0xc
 4166 0913 31090000 		.4byte	0x931
 4167 0917 0C       		.uleb128 0xc
 4168 0918 EF000000 		.4byte	0xef
 4169 091c 0C       		.uleb128 0xc
 4170 091d EF000000 		.4byte	0xef
 4171 0921 0C       		.uleb128 0xc
 4172 0922 EF000000 		.4byte	0xef
 4173 0926 0C       		.uleb128 0xc
 4174 0927 90020000 		.4byte	0x290
 4175 092b 0C       		.uleb128 0xc
 4176 092c 9C020000 		.4byte	0x29c
 4177 0930 00       		.byte	0
 4178 0931 0D       		.uleb128 0xd
 4179 0932 04       		.byte	0x4
 4180 0933 B8000000 		.4byte	0xb8
 4181 0937 0D       		.uleb128 0xd
 4182 0938 04       		.byte	0x4
 4183 0939 08090000 		.4byte	0x908
 4184 093d 15       		.uleb128 0x15
 4185 093e 52090000 		.4byte	0x952
 4186 0942 0C       		.uleb128 0xc
 4187 0943 CF080000 		.4byte	0x8cf
 4188 0947 0C       		.uleb128 0xc
 4189 0948 E4000000 		.4byte	0xe4
 4190 094c 0C       		.uleb128 0xc
 4191 094d E4000000 		.4byte	0xe4
 4192 0951 00       		.byte	0
 4193 0952 0D       		.uleb128 0xd
 4194 0953 04       		.byte	0x4
 4195 0954 3D090000 		.4byte	0x93d
 4196 0958 02       		.uleb128 0x2
 4197 0959 86150000 		.4byte	.LASF133
 4198 095d 13       		.byte	0x13
 4199 095e 77       		.byte	0x77
 4200 095f 38080000 		.4byte	0x838
 4201 0963 17       		.uleb128 0x17
 4202 0964 1E0E0000 		.4byte	.LASF134
 4203 0968 6401     		.2byte	0x164
 4204 096a 13       		.byte	0x13
 4205 096b 7F       		.byte	0x7f
ARM GAS  C:\Users\tmj32\AppData\Local\Temp\ccT5YJ50.s 			page 107


 4206 096c EF090000 		.4byte	0x9ef
 4207 0970 07       		.uleb128 0x7
 4208 0971 AB130000 		.4byte	.LASF135
 4209 0975 13       		.byte	0x13
 4210 0976 82       		.byte	0x82
 4211 0977 58090000 		.4byte	0x958
 4212 097b 00       		.byte	0
 4213 097c 07       		.uleb128 0x7
 4214 097d 41030000 		.4byte	.LASF136
 4215 0981 13       		.byte	0x13
 4216 0982 85       		.byte	0x85
 4217 0983 EF090000 		.4byte	0x9ef
 4218 0987 20       		.byte	0x20
 4219 0988 07       		.uleb128 0x7
 4220 0989 92020000 		.4byte	.LASF137
 4221 098d 13       		.byte	0x13
 4222 098e 88       		.byte	0x88
 4223 098f 36070000 		.4byte	0x736
 4224 0993 24       		.byte	0x24
 4225 0994 07       		.uleb128 0x7
 4226 0995 BF000000 		.4byte	.LASF138
 4227 0999 13       		.byte	0x13
 4228 099a 89       		.byte	0x89
 4229 099b 370B0000 		.4byte	0xb37
 4230 099f 30       		.byte	0x30
 4231 09a0 07       		.uleb128 0x7
 4232 09a1 DE040000 		.4byte	.LASF139
 4233 09a5 13       		.byte	0x13
 4234 09a6 8A       		.byte	0x8a
 4235 09a7 370B0000 		.4byte	0xb37
 4236 09ab 34       		.byte	0x34
 4237 09ac 07       		.uleb128 0x7
 4238 09ad 83140000 		.4byte	.LASF140
 4239 09b1 13       		.byte	0x13
 4240 09b2 8B       		.byte	0x8b
 4241 09b3 370B0000 		.4byte	0xb37
 4242 09b7 38       		.byte	0x38
 4243 09b8 07       		.uleb128 0x7
 4244 09b9 8D0D0000 		.4byte	.LASF141
 4245 09bd 13       		.byte	0x13
 4246 09be 8E       		.byte	0x8e
 4247 09bf 3D0B0000 		.4byte	0xb3d
 4248 09c3 3C       		.byte	0x3c
 4249 09c4 18       		.uleb128 0x18
 4250 09c5 9F050000 		.4byte	.LASF142
 4251 09c9 13       		.byte	0x13
 4252 09ca 8F       		.byte	0x8f
 4253 09cb 4D0B0000 		.4byte	0xb4d
 4254 09cf 3C01     		.2byte	0x13c
 4255 09d1 19       		.uleb128 0x19
 4256 09d2 08140000 		.4byte	.LASF143
 4257 09d6 13       		.byte	0x13
 4258 09d7 90       		.byte	0x90
 4259 09d8 E4000000 		.4byte	0xe4
 4260 09dc 04       		.byte	0x4
 4261 09dd 0A       		.byte	0xa
 4262 09de 16       		.byte	0x16
ARM GAS  C:\Users\tmj32\AppData\Local\Temp\ccT5YJ50.s 			page 108


 4263 09df 5C01     		.2byte	0x15c
 4264 09e1 18       		.uleb128 0x18
 4265 09e2 25030000 		.4byte	.LASF144
 4266 09e6 13       		.byte	0x13
 4267 09e7 93       		.byte	0x93
 4268 09e8 E4000000 		.4byte	0xe4
 4269 09ec 6001     		.2byte	0x160
 4270 09ee 00       		.byte	0
 4271 09ef 0D       		.uleb128 0xd
 4272 09f0 04       		.byte	0x4
 4273 09f1 C9070000 		.4byte	0x7c9
 4274 09f5 09       		.uleb128 0x9
 4275 09f6 7A130000 		.4byte	.LASF145
 4276 09fa 40       		.byte	0x40
 4277 09fb 14       		.byte	0x14
 4278 09fc BB       		.byte	0xbb
 4279 09fd 370B0000 		.4byte	0xb37
 4280 0a01 08       		.uleb128 0x8
 4281 0a02 70617200 		.ascii	"par\000"
 4282 0a06 14       		.byte	0x14
 4283 0a07 BD       		.byte	0xbd
 4284 0a08 370B0000 		.4byte	0xb37
 4285 0a0c 00       		.byte	0
 4286 0a0d 07       		.uleb128 0x7
 4287 0a0e 140C0000 		.4byte	.LASF146
 4288 0a12 14       		.byte	0x14
 4289 0a13 BE       		.byte	0xbe
 4290 0a14 36070000 		.4byte	0x736
 4291 0a18 04       		.byte	0x4
 4292 0a19 07       		.uleb128 0x7
 4293 0a1a 76140000 		.4byte	.LASF147
 4294 0a1e 14       		.byte	0x14
 4295 0a1f C0       		.byte	0xc0
 4296 0a20 24030000 		.4byte	0x324
 4297 0a24 10       		.byte	0x10
 4298 0a25 07       		.uleb128 0x7
 4299 0a26 040B0000 		.4byte	.LASF148
 4300 0a2a 14       		.byte	0x14
 4301 0a2b C2       		.byte	0xc2
 4302 0a2c 220F0000 		.4byte	0xf22
 4303 0a30 18       		.byte	0x18
 4304 0a31 07       		.uleb128 0x7
 4305 0a32 E9150000 		.4byte	.LASF149
 4306 0a36 14       		.byte	0x14
 4307 0a37 C3       		.byte	0xc3
 4308 0a38 D30F0000 		.4byte	0xfd3
 4309 0a3c 1C       		.byte	0x1c
 4310 0a3d 07       		.uleb128 0x7
 4311 0a3e A9060000 		.4byte	.LASF150
 4312 0a42 14       		.byte	0x14
 4313 0a43 C4       		.byte	0xc4
 4314 0a44 680E0000 		.4byte	0xe68
 4315 0a48 20       		.byte	0x20
 4316 0a49 07       		.uleb128 0x7
 4317 0a4a FF0E0000 		.4byte	.LASF151
 4318 0a4e 14       		.byte	0x14
 4319 0a4f C6       		.byte	0xc6
ARM GAS  C:\Users\tmj32\AppData\Local\Temp\ccT5YJ50.s 			page 109


 4320 0a50 FA000000 		.4byte	0xfa
 4321 0a54 24       		.byte	0x24
 4322 0a55 07       		.uleb128 0x7
 4323 0a56 130B0000 		.4byte	.LASF152
 4324 0a5a 14       		.byte	0x14
 4325 0a5b C7       		.byte	0xc7
 4326 0a5c 0B110000 		.4byte	0x110b
 4327 0a60 28       		.byte	0x28
 4328 0a61 0A       		.uleb128 0xa
 4329 0a62 76010000 		.4byte	.LASF153
 4330 0a66 14       		.byte	0x14
 4331 0a67 D7       		.byte	0xd7
 4332 0a68 B8000000 		.4byte	0xb8
 4333 0a6c 01       		.byte	0x1
 4334 0a6d 01       		.byte	0x1
 4335 0a6e 07       		.byte	0x7
 4336 0a6f 2C       		.byte	0x2c
 4337 0a70 0A       		.uleb128 0xa
 4338 0a71 5E130000 		.4byte	.LASF154
 4339 0a75 14       		.byte	0x14
 4340 0a76 D8       		.byte	0xd8
 4341 0a77 B8000000 		.4byte	0xb8
 4342 0a7b 01       		.byte	0x1
 4343 0a7c 01       		.byte	0x1
 4344 0a7d 06       		.byte	0x6
 4345 0a7e 2C       		.byte	0x2c
 4346 0a7f 0A       		.uleb128 0xa
 4347 0a80 74070000 		.4byte	.LASF155
 4348 0a84 14       		.byte	0x14
 4349 0a85 D9       		.byte	0xd9
 4350 0a86 B8000000 		.4byte	0xb8
 4351 0a8a 01       		.byte	0x1
 4352 0a8b 01       		.byte	0x1
 4353 0a8c 05       		.byte	0x5
 4354 0a8d 2C       		.byte	0x2c
 4355 0a8e 0A       		.uleb128 0xa
 4356 0a8f 36150000 		.4byte	.LASF156
 4357 0a93 14       		.byte	0x14
 4358 0a94 DA       		.byte	0xda
 4359 0a95 B8000000 		.4byte	0xb8
 4360 0a99 01       		.byte	0x1
 4361 0a9a 01       		.byte	0x1
 4362 0a9b 04       		.byte	0x4
 4363 0a9c 2C       		.byte	0x2c
 4364 0a9d 0A       		.uleb128 0xa
 4365 0a9e 11030000 		.4byte	.LASF157
 4366 0aa2 14       		.byte	0x14
 4367 0aa3 DB       		.byte	0xdb
 4368 0aa4 B8000000 		.4byte	0xb8
 4369 0aa8 01       		.byte	0x1
 4370 0aa9 01       		.byte	0x1
 4371 0aaa 03       		.byte	0x3
 4372 0aab 2C       		.byte	0x2c
 4373 0aac 1A       		.uleb128 0x1a
 4374 0aad 746F7000 		.ascii	"top\000"
 4375 0ab1 14       		.byte	0x14
 4376 0ab2 DC       		.byte	0xdc
ARM GAS  C:\Users\tmj32\AppData\Local\Temp\ccT5YJ50.s 			page 110


 4377 0ab3 B8000000 		.4byte	0xb8
 4378 0ab7 01       		.byte	0x1
 4379 0ab8 01       		.byte	0x1
 4380 0ab9 02       		.byte	0x2
 4381 0aba 2C       		.byte	0x2c
 4382 0abb 0A       		.uleb128 0xa
 4383 0abc 95140000 		.4byte	.LASF158
 4384 0ac0 14       		.byte	0x14
 4385 0ac1 DD       		.byte	0xdd
 4386 0ac2 B8000000 		.4byte	0xb8
 4387 0ac6 01       		.byte	0x1
 4388 0ac7 01       		.byte	0x1
 4389 0ac8 01       		.byte	0x1
 4390 0ac9 2C       		.byte	0x2c
 4391 0aca 0A       		.uleb128 0xa
 4392 0acb 6D0C0000 		.4byte	.LASF159
 4393 0acf 14       		.byte	0x14
 4394 0ad0 DE       		.byte	0xde
 4395 0ad1 B8000000 		.4byte	0xb8
 4396 0ad5 01       		.byte	0x1
 4397 0ad6 01       		.byte	0x1
 4398 0ad7 00       		.byte	0
 4399 0ad8 2C       		.byte	0x2c
 4400 0ad9 0A       		.uleb128 0xa
 4401 0ada 2F050000 		.4byte	.LASF160
 4402 0ade 14       		.byte	0x14
 4403 0adf DF       		.byte	0xdf
 4404 0ae0 00110000 		.4byte	0x1100
 4405 0ae4 01       		.byte	0x1
 4406 0ae5 02       		.byte	0x2
 4407 0ae6 06       		.byte	0x6
 4408 0ae7 2D       		.byte	0x2d
 4409 0ae8 0A       		.uleb128 0xa
 4410 0ae9 B2130000 		.4byte	.LASF161
 4411 0aed 14       		.byte	0x14
 4412 0aee E0       		.byte	0xe0
 4413 0aef 41070000 		.4byte	0x741
 4414 0af3 01       		.byte	0x1
 4415 0af4 02       		.byte	0x2
 4416 0af5 04       		.byte	0x4
 4417 0af6 2D       		.byte	0x2d
 4418 0af7 0A       		.uleb128 0xa
 4419 0af8 66160000 		.4byte	.LASF162
 4420 0afc 14       		.byte	0x14
 4421 0afd E1       		.byte	0xe1
 4422 0afe B8000000 		.4byte	0xb8
 4423 0b02 01       		.byte	0x1
 4424 0b03 03       		.byte	0x3
 4425 0b04 01       		.byte	0x1
 4426 0b05 2D       		.byte	0x2d
 4427 0b06 07       		.uleb128 0x7
 4428 0b07 230C0000 		.4byte	.LASF163
 4429 0b0b 14       		.byte	0x14
 4430 0b0c E2       		.byte	0xe2
 4431 0b0d B8000000 		.4byte	0xb8
 4432 0b11 2E       		.byte	0x2e
 4433 0b12 07       		.uleb128 0x7
ARM GAS  C:\Users\tmj32\AppData\Local\Temp\ccT5YJ50.s 			page 111


 4434 0b13 4C180000 		.4byte	.LASF164
 4435 0b17 14       		.byte	0x14
 4436 0b18 E4       		.byte	0xe4
 4437 0b19 9C020000 		.4byte	0x29c
 4438 0b1d 2F       		.byte	0x2f
 4439 0b1e 07       		.uleb128 0x7
 4440 0b1f 9E070000 		.4byte	.LASF165
 4441 0b23 14       		.byte	0x14
 4442 0b24 E6       		.byte	0xe6
 4443 0b25 EF000000 		.4byte	0xef
 4444 0b29 30       		.byte	0x30
 4445 0b2a 07       		.uleb128 0x7
 4446 0b2b 3F080000 		.4byte	.LASF166
 4447 0b2f 14       		.byte	0x14
 4448 0b30 E9       		.byte	0xe9
 4449 0b31 F5100000 		.4byte	0x10f5
 4450 0b35 34       		.byte	0x34
 4451 0b36 00       		.byte	0
 4452 0b37 0D       		.uleb128 0xd
 4453 0b38 04       		.byte	0x4
 4454 0b39 F5090000 		.4byte	0x9f5
 4455 0b3d 1B       		.uleb128 0x1b
 4456 0b3e 24030000 		.4byte	0x324
 4457 0b42 4D0B0000 		.4byte	0xb4d
 4458 0b46 1C       		.uleb128 0x1c
 4459 0b47 A8020000 		.4byte	0x2a8
 4460 0b4b 1F       		.byte	0x1f
 4461 0b4c 00       		.byte	0
 4462 0b4d 1B       		.uleb128 0x1b
 4463 0b4e B8000000 		.4byte	0xb8
 4464 0b52 5D0B0000 		.4byte	0xb5d
 4465 0b56 1C       		.uleb128 0x1c
 4466 0b57 A8020000 		.4byte	0x2a8
 4467 0b5b 1F       		.byte	0x1f
 4468 0b5c 00       		.byte	0
 4469 0b5d 02       		.uleb128 0x2
 4470 0b5e 980A0000 		.4byte	.LASF167
 4471 0b62 15       		.byte	0x15
 4472 0b63 33       		.byte	0x33
 4473 0b64 B8000000 		.4byte	0xb8
 4474 0b68 02       		.uleb128 0x2
 4475 0b69 7F070000 		.4byte	.LASF168
 4476 0b6d 15       		.byte	0x15
 4477 0b6e 37       		.byte	0x37
 4478 0b6f B8000000 		.4byte	0xb8
 4479 0b73 06       		.uleb128 0x6
 4480 0b74 10       		.byte	0x10
 4481 0b75 15       		.byte	0x15
 4482 0b76 3A       		.byte	0x3a
 4483 0b77 B80B0000 		.4byte	0xbb8
 4484 0b7b 07       		.uleb128 0x7
 4485 0b7c 99020000 		.4byte	.LASF169
 4486 0b80 15       		.byte	0x15
 4487 0b81 3C       		.byte	0x3c
 4488 0b82 E4020000 		.4byte	0x2e4
 4489 0b86 00       		.byte	0
 4490 0b87 08       		.uleb128 0x8
ARM GAS  C:\Users\tmj32\AppData\Local\Temp\ccT5YJ50.s 			page 112


 4491 0b88 6B657900 		.ascii	"key\000"
 4492 0b8c 15       		.byte	0x15
 4493 0b8d 3D       		.byte	0x3d
 4494 0b8e E4000000 		.4byte	0xe4
 4495 0b92 04       		.byte	0x4
 4496 0b93 07       		.uleb128 0x7
 4497 0b94 C2050000 		.4byte	.LASF170
 4498 0b98 15       		.byte	0x15
 4499 0b99 3E       		.byte	0x3e
 4500 0b9a E4000000 		.4byte	0xe4
 4501 0b9e 08       		.byte	0x8
 4502 0b9f 07       		.uleb128 0x7
 4503 0ba0 430D0000 		.4byte	.LASF171
 4504 0ba4 15       		.byte	0x15
 4505 0ba5 3F       		.byte	0x3f
 4506 0ba6 C3000000 		.4byte	0xc3
 4507 0baa 0C       		.byte	0xc
 4508 0bab 07       		.uleb128 0x7
 4509 0bac DB010000 		.4byte	.LASF172
 4510 0bb0 15       		.byte	0x15
 4511 0bb1 41       		.byte	0x41
 4512 0bb2 680B0000 		.4byte	0xb68
 4513 0bb6 0E       		.byte	0xe
 4514 0bb7 00       		.byte	0
 4515 0bb8 02       		.uleb128 0x2
 4516 0bb9 CB160000 		.4byte	.LASF173
 4517 0bbd 15       		.byte	0x15
 4518 0bbe 42       		.byte	0x42
 4519 0bbf 730B0000 		.4byte	0xb73
 4520 0bc3 09       		.uleb128 0x9
 4521 0bc4 73020000 		.4byte	.LASF174
 4522 0bc8 1C       		.byte	0x1c
 4523 0bc9 15       		.byte	0x15
 4524 0bca 45       		.byte	0x45
 4525 0bcb 3C0C0000 		.4byte	0xc3c
 4526 0bcf 07       		.uleb128 0x7
 4527 0bd0 2A020000 		.4byte	.LASF75
 4528 0bd4 15       		.byte	0x15
 4529 0bd5 49       		.byte	0x49
 4530 0bd6 5D0B0000 		.4byte	0xb5d
 4531 0bda 00       		.byte	0
 4532 0bdb 07       		.uleb128 0x7
 4533 0bdc E2030000 		.4byte	.LASF175
 4534 0be0 15       		.byte	0x15
 4535 0be1 4E       		.byte	0x4e
 4536 0be2 5C0C0000 		.4byte	0xc5c
 4537 0be6 04       		.byte	0x4
 4538 0be7 07       		.uleb128 0x7
 4539 0be8 8F0F0000 		.4byte	.LASF176
 4540 0bec 15       		.byte	0x15
 4541 0bed 52       		.byte	0x52
 4542 0bee 720C0000 		.4byte	0xc72
 4543 0bf2 08       		.byte	0x8
 4544 0bf3 07       		.uleb128 0x7
 4545 0bf4 390D0000 		.4byte	.LASF177
 4546 0bf8 15       		.byte	0x15
 4547 0bf9 59       		.byte	0x59
ARM GAS  C:\Users\tmj32\AppData\Local\Temp\ccT5YJ50.s 			page 113


 4548 0bfa 780C0000 		.4byte	0xc78
 4549 0bfe 0C       		.byte	0xc
 4550 0bff 07       		.uleb128 0x7
 4551 0c00 5D0F0000 		.4byte	.LASF178
 4552 0c04 15       		.byte	0x15
 4553 0c05 5C       		.byte	0x5c
 4554 0c06 EF090000 		.4byte	0x9ef
 4555 0c0a 10       		.byte	0x10
 4556 0c0b 07       		.uleb128 0x7
 4557 0c0c 7B150000 		.4byte	.LASF179
 4558 0c10 15       		.byte	0x15
 4559 0c11 5F       		.byte	0x5f
 4560 0c12 B8000000 		.4byte	0xb8
 4561 0c16 14       		.byte	0x14
 4562 0c17 07       		.uleb128 0x7
 4563 0c18 74070000 		.4byte	.LASF155
 4564 0c1c 15       		.byte	0x15
 4565 0c1d 62       		.byte	0x62
 4566 0c1e B8000000 		.4byte	0xb8
 4567 0c22 15       		.byte	0x15
 4568 0c23 07       		.uleb128 0x7
 4569 0c24 49100000 		.4byte	.LASF180
 4570 0c28 15       		.byte	0x15
 4571 0c29 65       		.byte	0x65
 4572 0c2a CE000000 		.4byte	0xce
 4573 0c2e 16       		.byte	0x16
 4574 0c2f 07       		.uleb128 0x7
 4575 0c30 B2070000 		.4byte	.LASF181
 4576 0c34 15       		.byte	0x15
 4577 0c35 68       		.byte	0x68
 4578 0c36 CE000000 		.4byte	0xce
 4579 0c3a 18       		.byte	0x18
 4580 0c3b 00       		.byte	0
 4581 0c3c 0B       		.uleb128 0xb
 4582 0c3d E0010000 		.4byte	0x1e0
 4583 0c41 500C0000 		.4byte	0xc50
 4584 0c45 0C       		.uleb128 0xc
 4585 0c46 500C0000 		.4byte	0xc50
 4586 0c4a 0C       		.uleb128 0xc
 4587 0c4b 560C0000 		.4byte	0xc56
 4588 0c4f 00       		.byte	0
 4589 0c50 0D       		.uleb128 0xd
 4590 0c51 04       		.byte	0x4
 4591 0c52 C30B0000 		.4byte	0xbc3
 4592 0c56 0D       		.uleb128 0xd
 4593 0c57 04       		.byte	0x4
 4594 0c58 B80B0000 		.4byte	0xbb8
 4595 0c5c 0D       		.uleb128 0xd
 4596 0c5d 04       		.byte	0x4
 4597 0c5e 3C0C0000 		.4byte	0xc3c
 4598 0c62 15       		.uleb128 0x15
 4599 0c63 720C0000 		.4byte	0xc72
 4600 0c67 0C       		.uleb128 0xc
 4601 0c68 500C0000 		.4byte	0xc50
 4602 0c6c 0C       		.uleb128 0xc
 4603 0c6d B8000000 		.4byte	0xb8
 4604 0c71 00       		.byte	0
ARM GAS  C:\Users\tmj32\AppData\Local\Temp\ccT5YJ50.s 			page 114


 4605 0c72 0D       		.uleb128 0xd
 4606 0c73 04       		.byte	0x4
 4607 0c74 620C0000 		.4byte	0xc62
 4608 0c78 0D       		.uleb128 0xd
 4609 0c79 04       		.byte	0x4
 4610 0c7a 63090000 		.4byte	0x963
 4611 0c7e 02       		.uleb128 0x2
 4612 0c7f 42150000 		.4byte	.LASF182
 4613 0c83 15       		.byte	0x15
 4614 0c84 69       		.byte	0x69
 4615 0c85 C30B0000 		.4byte	0xbc3
 4616 0c89 06       		.uleb128 0x6
 4617 0c8a 24       		.byte	0x24
 4618 0c8b 15       		.byte	0x15
 4619 0c8c 73       		.byte	0x73
 4620 0c8d 100D0000 		.4byte	0xd10
 4621 0c91 07       		.uleb128 0x7
 4622 0c92 7B0A0000 		.4byte	.LASF183
 4623 0c96 15       		.byte	0x15
 4624 0c97 75       		.byte	0x75
 4625 0c98 E4020000 		.4byte	0x2e4
 4626 0c9c 00       		.byte	0
 4627 0c9d 07       		.uleb128 0x7
 4628 0c9e 350C0000 		.4byte	.LASF184
 4629 0ca2 15       		.byte	0x15
 4630 0ca3 76       		.byte	0x76
 4631 0ca4 E4020000 		.4byte	0x2e4
 4632 0ca8 04       		.byte	0x4
 4633 0ca9 07       		.uleb128 0x7
 4634 0caa E10E0000 		.4byte	.LASF185
 4635 0cae 15       		.byte	0x15
 4636 0caf 77       		.byte	0x77
 4637 0cb0 E4020000 		.4byte	0x2e4
 4638 0cb4 08       		.byte	0x8
 4639 0cb5 07       		.uleb128 0x7
 4640 0cb6 080F0000 		.4byte	.LASF186
 4641 0cba 15       		.byte	0x15
 4642 0cbb 78       		.byte	0x78
 4643 0cbc E4020000 		.4byte	0x2e4
 4644 0cc0 0C       		.byte	0xc
 4645 0cc1 07       		.uleb128 0x7
 4646 0cc2 0C060000 		.4byte	.LASF187
 4647 0cc6 15       		.byte	0x15
 4648 0cc7 79       		.byte	0x79
 4649 0cc8 E4020000 		.4byte	0x2e4
 4650 0ccc 10       		.byte	0x10
 4651 0ccd 07       		.uleb128 0x7
 4652 0cce 510C0000 		.4byte	.LASF188
 4653 0cd2 15       		.byte	0x15
 4654 0cd3 7A       		.byte	0x7a
 4655 0cd4 370B0000 		.4byte	0xb37
 4656 0cd8 14       		.byte	0x14
 4657 0cd9 07       		.uleb128 0x7
 4658 0cda 850A0000 		.4byte	.LASF189
 4659 0cde 15       		.byte	0x15
 4660 0cdf 7B       		.byte	0x7b
 4661 0ce0 370B0000 		.4byte	0xb37
ARM GAS  C:\Users\tmj32\AppData\Local\Temp\ccT5YJ50.s 			page 115


 4662 0ce4 18       		.byte	0x18
 4663 0ce5 07       		.uleb128 0x7
 4664 0ce6 F0030000 		.4byte	.LASF190
 4665 0cea 15       		.byte	0x15
 4666 0ceb 7D       		.byte	0x7d
 4667 0cec 370B0000 		.4byte	0xb37
 4668 0cf0 1C       		.byte	0x1c
 4669 0cf1 0A       		.uleb128 0xa
 4670 0cf2 FB120000 		.4byte	.LASF191
 4671 0cf6 15       		.byte	0x15
 4672 0cf7 80       		.byte	0x80
 4673 0cf8 B8000000 		.4byte	0xb8
 4674 0cfc 01       		.byte	0x1
 4675 0cfd 01       		.byte	0x1
 4676 0cfe 07       		.byte	0x7
 4677 0cff 20       		.byte	0x20
 4678 0d00 0A       		.uleb128 0xa
 4679 0d01 84120000 		.4byte	.LASF192
 4680 0d05 15       		.byte	0x15
 4681 0d06 81       		.byte	0x81
 4682 0d07 B8000000 		.4byte	0xb8
 4683 0d0b 01       		.byte	0x1
 4684 0d0c 01       		.byte	0x1
 4685 0d0d 06       		.byte	0x6
 4686 0d0e 20       		.byte	0x20
 4687 0d0f 00       		.byte	0
 4688 0d10 06       		.uleb128 0x6
 4689 0d11 08       		.byte	0x8
 4690 0d12 15       		.byte	0x15
 4691 0d13 83       		.byte	0x83
 4692 0d14 310D0000 		.4byte	0xd31
 4693 0d18 07       		.uleb128 0x7
 4694 0d19 69030000 		.4byte	.LASF193
 4695 0d1d 15       		.byte	0x15
 4696 0d1e 85       		.byte	0x85
 4697 0d1f 680B0000 		.4byte	0xb68
 4698 0d23 00       		.byte	0
 4699 0d24 07       		.uleb128 0x7
 4700 0d25 FC080000 		.4byte	.LASF194
 4701 0d29 15       		.byte	0x15
 4702 0d2a 86       		.byte	0x86
 4703 0d2b E4000000 		.4byte	0xe4
 4704 0d2f 04       		.byte	0x4
 4705 0d30 00       		.byte	0
 4706 0d31 0F       		.uleb128 0xf
 4707 0d32 24       		.byte	0x24
 4708 0d33 15       		.byte	0x15
 4709 0d34 71       		.byte	0x71
 4710 0d35 500D0000 		.4byte	0xd50
 4711 0d39 11       		.uleb128 0x11
 4712 0d3a 2B070000 		.4byte	.LASF195
 4713 0d3e 15       		.byte	0x15
 4714 0d3f 82       		.byte	0x82
 4715 0d40 890C0000 		.4byte	0xc89
 4716 0d44 11       		.uleb128 0x11
 4717 0d45 3D140000 		.4byte	.LASF196
 4718 0d49 15       		.byte	0x15
ARM GAS  C:\Users\tmj32\AppData\Local\Temp\ccT5YJ50.s 			page 116


 4719 0d4a 87       		.byte	0x87
 4720 0d4b 100D0000 		.4byte	0xd10
 4721 0d4f 00       		.byte	0
 4722 0d50 09       		.uleb128 0x9
 4723 0d51 24100000 		.4byte	.LASF197
 4724 0d55 34       		.byte	0x34
 4725 0d56 15       		.byte	0x15
 4726 0d57 6E       		.byte	0x6e
 4727 0d58 C90D0000 		.4byte	0xdc9
 4728 0d5c 07       		.uleb128 0x7
 4729 0d5d DB010000 		.4byte	.LASF172
 4730 0d61 15       		.byte	0x15
 4731 0d62 70       		.byte	0x70
 4732 0d63 680B0000 		.4byte	0xb68
 4733 0d67 00       		.byte	0
 4734 0d68 07       		.uleb128 0x7
 4735 0d69 DF170000 		.4byte	.LASF198
 4736 0d6d 15       		.byte	0x15
 4737 0d6e 88       		.byte	0x88
 4738 0d6f 310D0000 		.4byte	0xd31
 4739 0d73 04       		.byte	0x4
 4740 0d74 07       		.uleb128 0x7
 4741 0d75 270F0000 		.4byte	.LASF199
 4742 0d79 15       		.byte	0x15
 4743 0d7a 8A       		.byte	0x8a
 4744 0d7b E4000000 		.4byte	0xe4
 4745 0d7f 28       		.byte	0x28
 4746 0d80 07       		.uleb128 0x7
 4747 0d81 61120000 		.4byte	.LASF200
 4748 0d85 15       		.byte	0x15
 4749 0d86 8B       		.byte	0x8b
 4750 0d87 E4000000 		.4byte	0xe4
 4751 0d8b 2C       		.byte	0x2c
 4752 0d8c 0A       		.uleb128 0xa
 4753 0d8d 71170000 		.4byte	.LASF201
 4754 0d91 15       		.byte	0x15
 4755 0d92 8E       		.byte	0x8e
 4756 0d93 B8000000 		.4byte	0xb8
 4757 0d97 01       		.byte	0x1
 4758 0d98 01       		.byte	0x1
 4759 0d99 07       		.byte	0x7
 4760 0d9a 30       		.byte	0x30
 4761 0d9b 0A       		.uleb128 0xa
 4762 0d9c EE100000 		.4byte	.LASF202
 4763 0da0 15       		.byte	0x15
 4764 0da1 8F       		.byte	0x8f
 4765 0da2 B8000000 		.4byte	0xb8
 4766 0da6 01       		.byte	0x1
 4767 0da7 01       		.byte	0x1
 4768 0da8 06       		.byte	0x6
 4769 0da9 30       		.byte	0x30
 4770 0daa 0A       		.uleb128 0xa
 4771 0dab 38090000 		.4byte	.LASF203
 4772 0daf 15       		.byte	0x15
 4773 0db0 90       		.byte	0x90
 4774 0db1 B8000000 		.4byte	0xb8
 4775 0db5 01       		.byte	0x1
ARM GAS  C:\Users\tmj32\AppData\Local\Temp\ccT5YJ50.s 			page 117


 4776 0db6 01       		.byte	0x1
 4777 0db7 05       		.byte	0x5
 4778 0db8 30       		.byte	0x30
 4779 0db9 0A       		.uleb128 0xa
 4780 0dba D5080000 		.4byte	.LASF204
 4781 0dbe 15       		.byte	0x15
 4782 0dbf 91       		.byte	0x91
 4783 0dc0 B8000000 		.4byte	0xb8
 4784 0dc4 01       		.byte	0x1
 4785 0dc5 01       		.byte	0x1
 4786 0dc6 04       		.byte	0x4
 4787 0dc7 30       		.byte	0x30
 4788 0dc8 00       		.byte	0
 4789 0dc9 02       		.uleb128 0x2
 4790 0dca EC140000 		.4byte	.LASF205
 4791 0dce 15       		.byte	0x15
 4792 0dcf 92       		.byte	0x92
 4793 0dd0 500D0000 		.4byte	0xd50
 4794 0dd4 09       		.uleb128 0x9
 4795 0dd5 EF020000 		.4byte	.LASF206
 4796 0dd9 5C       		.byte	0x5c
 4797 0dda 15       		.byte	0x15
 4798 0ddb 99       		.byte	0x99
 4799 0ddc 1D0E0000 		.4byte	0xe1d
 4800 0de0 07       		.uleb128 0x7
 4801 0de1 AB130000 		.4byte	.LASF135
 4802 0de5 15       		.byte	0x15
 4803 0de6 9B       		.byte	0x9b
 4804 0de7 7E0C0000 		.4byte	0xc7e
 4805 0deb 00       		.byte	0
 4806 0dec 07       		.uleb128 0x7
 4807 0ded A4060000 		.4byte	.LASF207
 4808 0df1 15       		.byte	0x15
 4809 0df2 9C       		.byte	0x9c
 4810 0df3 C90D0000 		.4byte	0xdc9
 4811 0df7 1C       		.byte	0x1c
 4812 0df8 07       		.uleb128 0x7
 4813 0df9 F7170000 		.4byte	.LASF208
 4814 0dfd 15       		.byte	0x15
 4815 0dfe 9D       		.byte	0x9d
 4816 0dff 370B0000 		.4byte	0xb37
 4817 0e03 50       		.byte	0x50
 4818 0e04 07       		.uleb128 0x7
 4819 0e05 700A0000 		.4byte	.LASF209
 4820 0e09 15       		.byte	0x15
 4821 0e0a 9E       		.byte	0x9e
 4822 0e0b 220E0000 		.4byte	0xe22
 4823 0e0f 54       		.byte	0x54
 4824 0e10 07       		.uleb128 0x7
 4825 0e11 6C080000 		.4byte	.LASF210
 4826 0e15 15       		.byte	0x15
 4827 0e16 9F       		.byte	0x9f
 4828 0e17 280E0000 		.4byte	0xe28
 4829 0e1b 58       		.byte	0x58
 4830 0e1c 00       		.byte	0
 4831 0e1d 1D       		.uleb128 0x1d
 4832 0e1e 08180000 		.4byte	.LASF479
ARM GAS  C:\Users\tmj32\AppData\Local\Temp\ccT5YJ50.s 			page 118


 4833 0e22 0D       		.uleb128 0xd
 4834 0e23 04       		.byte	0x4
 4835 0e24 1D0E0000 		.4byte	0xe1d
 4836 0e28 0D       		.uleb128 0xd
 4837 0e29 04       		.byte	0x4
 4838 0e2a 2E0E0000 		.4byte	0xe2e
 4839 0e2e 0E       		.uleb128 0xe
 4840 0e2f E4020000 		.4byte	0x2e4
 4841 0e33 02       		.uleb128 0x2
 4842 0e34 61080000 		.4byte	.LASF211
 4843 0e38 15       		.byte	0x15
 4844 0e39 A1       		.byte	0xa1
 4845 0e3a D40D0000 		.4byte	0xdd4
 4846 0e3e 13       		.uleb128 0x13
 4847 0e3f 01       		.byte	0x1
 4848 0e40 42000000 		.4byte	0x42
 4849 0e44 14       		.byte	0x14
 4850 0e45 3D       		.byte	0x3d
 4851 0e46 5D0E0000 		.4byte	0xe5d
 4852 0e4a 14       		.uleb128 0x14
 4853 0e4b C60D0000 		.4byte	.LASF212
 4854 0e4f 00       		.byte	0
 4855 0e50 14       		.uleb128 0x14
 4856 0e51 E9050000 		.4byte	.LASF213
 4857 0e55 01       		.byte	0x1
 4858 0e56 14       		.uleb128 0x14
 4859 0e57 77060000 		.4byte	.LASF214
 4860 0e5b 02       		.byte	0x2
 4861 0e5c 00       		.byte	0
 4862 0e5d 02       		.uleb128 0x2
 4863 0e5e 340F0000 		.4byte	.LASF215
 4864 0e62 14       		.byte	0x14
 4865 0e63 42       		.byte	0x42
 4866 0e64 B8000000 		.4byte	0xb8
 4867 0e68 02       		.uleb128 0x2
 4868 0e69 32180000 		.4byte	.LASF216
 4869 0e6d 14       		.byte	0x14
 4870 0e6e 48       		.byte	0x48
 4871 0e6f 730E0000 		.4byte	0xe73
 4872 0e73 0D       		.uleb128 0xd
 4873 0e74 04       		.byte	0x4
 4874 0e75 790E0000 		.4byte	0xe79
 4875 0e79 0B       		.uleb128 0xb
 4876 0e7a E0010000 		.4byte	0x1e0
 4877 0e7e 920E0000 		.4byte	0xe92
 4878 0e82 0C       		.uleb128 0xc
 4879 0e83 370B0000 		.4byte	0xb37
 4880 0e87 0C       		.uleb128 0xc
 4881 0e88 D5080000 		.4byte	0x8d5
 4882 0e8c 0C       		.uleb128 0xc
 4883 0e8d 5D0E0000 		.4byte	0xe5d
 4884 0e91 00       		.byte	0
 4885 0e92 13       		.uleb128 0x13
 4886 0e93 01       		.byte	0x1
 4887 0e94 42000000 		.4byte	0x42
 4888 0e98 14       		.byte	0x14
 4889 0e99 4A       		.byte	0x4a
ARM GAS  C:\Users\tmj32\AppData\Local\Temp\ccT5YJ50.s 			page 119


 4890 0e9a 170F0000 		.4byte	0xf17
 4891 0e9e 14       		.uleb128 0x14
 4892 0e9f AE0F0000 		.4byte	.LASF217
 4893 0ea3 00       		.byte	0
 4894 0ea4 14       		.uleb128 0x14
 4895 0ea5 070E0000 		.4byte	.LASF218
 4896 0ea9 01       		.byte	0x1
 4897 0eaa 14       		.uleb128 0x14
 4898 0eab EE160000 		.4byte	.LASF219
 4899 0eaf 02       		.byte	0x2
 4900 0eb0 14       		.uleb128 0x14
 4901 0eb1 540E0000 		.4byte	.LASF220
 4902 0eb5 03       		.byte	0x3
 4903 0eb6 14       		.uleb128 0x14
 4904 0eb7 2F020000 		.4byte	.LASF221
 4905 0ebb 04       		.byte	0x4
 4906 0ebc 14       		.uleb128 0x14
 4907 0ebd 6B0E0000 		.4byte	.LASF222
 4908 0ec1 05       		.byte	0x5
 4909 0ec2 14       		.uleb128 0x14
 4910 0ec3 E0070000 		.4byte	.LASF223
 4911 0ec7 06       		.byte	0x6
 4912 0ec8 14       		.uleb128 0x14
 4913 0ec9 14180000 		.4byte	.LASF224
 4914 0ecd 07       		.byte	0x7
 4915 0ece 14       		.uleb128 0x14
 4916 0ecf 52070000 		.4byte	.LASF225
 4917 0ed3 08       		.byte	0x8
 4918 0ed4 14       		.uleb128 0x14
 4919 0ed5 4B0F0000 		.4byte	.LASF226
 4920 0ed9 09       		.byte	0x9
 4921 0eda 14       		.uleb128 0x14
 4922 0edb 47080000 		.4byte	.LASF227
 4923 0edf 0A       		.byte	0xa
 4924 0ee0 14       		.uleb128 0x14
 4925 0ee1 B3160000 		.4byte	.LASF228
 4926 0ee5 0B       		.byte	0xb
 4927 0ee6 14       		.uleb128 0x14
 4928 0ee7 F4060000 		.4byte	.LASF229
 4929 0eeb 0C       		.byte	0xc
 4930 0eec 14       		.uleb128 0x14
 4931 0eed FC140000 		.4byte	.LASF230
 4932 0ef1 0D       		.byte	0xd
 4933 0ef2 14       		.uleb128 0x14
 4934 0ef3 760D0000 		.4byte	.LASF231
 4935 0ef7 0E       		.byte	0xe
 4936 0ef8 14       		.uleb128 0x14
 4937 0ef9 EF000000 		.4byte	.LASF232
 4938 0efd 0F       		.byte	0xf
 4939 0efe 14       		.uleb128 0x14
 4940 0eff 390A0000 		.4byte	.LASF233
 4941 0f03 10       		.byte	0x10
 4942 0f04 14       		.uleb128 0x14
 4943 0f05 30080000 		.4byte	.LASF234
 4944 0f09 11       		.byte	0x11
 4945 0f0a 14       		.uleb128 0x14
 4946 0f0b D90F0000 		.4byte	.LASF235
ARM GAS  C:\Users\tmj32\AppData\Local\Temp\ccT5YJ50.s 			page 120


 4947 0f0f 12       		.byte	0x12
 4948 0f10 14       		.uleb128 0x14
 4949 0f11 E80C0000 		.4byte	.LASF236
 4950 0f15 13       		.byte	0x13
 4951 0f16 00       		.byte	0
 4952 0f17 02       		.uleb128 0x2
 4953 0f18 C6010000 		.4byte	.LASF237
 4954 0f1c 14       		.byte	0x14
 4955 0f1d 61       		.byte	0x61
 4956 0f1e B8000000 		.4byte	0xb8
 4957 0f22 02       		.uleb128 0x2
 4958 0f23 7E170000 		.4byte	.LASF238
 4959 0f27 14       		.byte	0x14
 4960 0f28 68       		.byte	0x68
 4961 0f29 2D0F0000 		.4byte	0xf2d
 4962 0f2d 0D       		.uleb128 0xd
 4963 0f2e 04       		.byte	0x4
 4964 0f2f 330F0000 		.4byte	0xf33
 4965 0f33 15       		.uleb128 0x15
 4966 0f34 430F0000 		.4byte	0xf43
 4967 0f38 0C       		.uleb128 0xc
 4968 0f39 370B0000 		.4byte	0xb37
 4969 0f3d 0C       		.uleb128 0xc
 4970 0f3e 170F0000 		.4byte	0xf17
 4971 0f42 00       		.byte	0
 4972 0f43 13       		.uleb128 0x13
 4973 0f44 01       		.byte	0x1
 4974 0f45 42000000 		.4byte	0x42
 4975 0f49 14       		.byte	0x14
 4976 0f4a 6D       		.byte	0x6d
 4977 0f4b C80F0000 		.4byte	0xfc8
 4978 0f4f 14       		.uleb128 0x14
 4979 0f50 7A0C0000 		.4byte	.LASF239
 4980 0f54 00       		.byte	0
 4981 0f55 14       		.uleb128 0x14
 4982 0f56 130D0000 		.4byte	.LASF240
 4983 0f5a 01       		.byte	0x1
 4984 0f5b 14       		.uleb128 0x14
 4985 0f5c 63140000 		.4byte	.LASF241
 4986 0f60 02       		.byte	0x2
 4987 0f61 14       		.uleb128 0x14
 4988 0f62 BF0F0000 		.4byte	.LASF242
 4989 0f66 03       		.byte	0x3
 4990 0f67 14       		.uleb128 0x14
 4991 0f68 AB000000 		.4byte	.LASF243
 4992 0f6c 04       		.byte	0x4
 4993 0f6d 14       		.uleb128 0x14
 4994 0f6e 51150000 		.4byte	.LASF244
 4995 0f72 05       		.byte	0x5
 4996 0f73 14       		.uleb128 0x14
 4997 0f74 13050000 		.4byte	.LASF245
 4998 0f78 06       		.byte	0x6
 4999 0f79 14       		.uleb128 0x14
 5000 0f7a C2080000 		.4byte	.LASF246
 5001 0f7e 07       		.byte	0x7
 5002 0f7f 14       		.uleb128 0x14
 5003 0f80 18020000 		.4byte	.LASF247
ARM GAS  C:\Users\tmj32\AppData\Local\Temp\ccT5YJ50.s 			page 121


 5004 0f84 08       		.byte	0x8
 5005 0f85 14       		.uleb128 0x14
 5006 0f86 410E0000 		.4byte	.LASF248
 5007 0f8a 09       		.byte	0x9
 5008 0f8b 14       		.uleb128 0x14
 5009 0f8c 670F0000 		.4byte	.LASF249
 5010 0f90 0A       		.byte	0xa
 5011 0f91 14       		.uleb128 0x14
 5012 0f92 E90F0000 		.4byte	.LASF250
 5013 0f96 0B       		.byte	0xb
 5014 0f97 14       		.uleb128 0x14
 5015 0f98 39010000 		.4byte	.LASF251
 5016 0f9c 0C       		.byte	0xc
 5017 0f9d 14       		.uleb128 0x14
 5018 0f9e AA040000 		.4byte	.LASF252
 5019 0fa2 0D       		.byte	0xd
 5020 0fa3 14       		.uleb128 0x14
 5021 0fa4 87010000 		.4byte	.LASF253
 5022 0fa8 0E       		.byte	0xe
 5023 0fa9 14       		.uleb128 0x14
 5024 0faa 9B0F0000 		.4byte	.LASF254
 5025 0fae 0F       		.byte	0xf
 5026 0faf 14       		.uleb128 0x14
 5027 0fb0 EF090000 		.4byte	.LASF255
 5028 0fb4 10       		.byte	0x10
 5029 0fb5 14       		.uleb128 0x14
 5030 0fb6 E2060000 		.4byte	.LASF256
 5031 0fba 11       		.byte	0x11
 5032 0fbb 14       		.uleb128 0x14
 5033 0fbc FB0B0000 		.4byte	.LASF257
 5034 0fc0 12       		.byte	0x12
 5035 0fc1 14       		.uleb128 0x14
 5036 0fc2 A80A0000 		.4byte	.LASF258
 5037 0fc6 13       		.byte	0x13
 5038 0fc7 00       		.byte	0
 5039 0fc8 02       		.uleb128 0x2
 5040 0fc9 35100000 		.4byte	.LASF259
 5041 0fcd 14       		.byte	0x14
 5042 0fce 88       		.byte	0x88
 5043 0fcf B8000000 		.4byte	0xb8
 5044 0fd3 02       		.uleb128 0x2
 5045 0fd4 8A050000 		.4byte	.LASF260
 5046 0fd8 14       		.byte	0x14
 5047 0fd9 8A       		.byte	0x8a
 5048 0fda DE0F0000 		.4byte	0xfde
 5049 0fde 0D       		.uleb128 0xd
 5050 0fdf 04       		.byte	0x4
 5051 0fe0 E40F0000 		.4byte	0xfe4
 5052 0fe4 0B       		.uleb128 0xb
 5053 0fe5 ED060000 		.4byte	0x6ed
 5054 0fe9 FD0F0000 		.4byte	0xffd
 5055 0fed 0C       		.uleb128 0xc
 5056 0fee 370B0000 		.4byte	0xb37
 5057 0ff2 0C       		.uleb128 0xc
 5058 0ff3 C80F0000 		.4byte	0xfc8
 5059 0ff7 0C       		.uleb128 0xc
 5060 0ff8 FA000000 		.4byte	0xfa
ARM GAS  C:\Users\tmj32\AppData\Local\Temp\ccT5YJ50.s 			page 122


 5061 0ffc 00       		.byte	0
 5062 0ffd 13       		.uleb128 0x13
 5063 0ffe 01       		.byte	0x1
 5064 0fff 42000000 		.4byte	0x42
 5065 1003 14       		.byte	0x14
 5066 1004 8D       		.byte	0x8d
 5067 1005 88100000 		.4byte	0x1088
 5068 1009 14       		.uleb128 0x14
 5069 100a 660D0000 		.4byte	.LASF261
 5070 100e 00       		.byte	0
 5071 100f 14       		.uleb128 0x14
 5072 1010 84130000 		.4byte	.LASF262
 5073 1014 01       		.byte	0x1
 5074 1015 14       		.uleb128 0x14
 5075 1016 07100000 		.4byte	.LASF263
 5076 101a 02       		.byte	0x2
 5077 101b 14       		.uleb128 0x14
 5078 101c E50B0000 		.4byte	.LASF264
 5079 1020 03       		.byte	0x3
 5080 1021 14       		.uleb128 0x14
 5081 1022 A40C0000 		.4byte	.LASF265
 5082 1026 04       		.byte	0x4
 5083 1027 14       		.uleb128 0x14
 5084 1028 7D030000 		.4byte	.LASF266
 5085 102c 05       		.byte	0x5
 5086 102d 14       		.uleb128 0x14
 5087 102e E60E0000 		.4byte	.LASF267
 5088 1032 06       		.byte	0x6
 5089 1033 14       		.uleb128 0x14
 5090 1034 21150000 		.4byte	.LASF268
 5091 1038 07       		.byte	0x7
 5092 1039 14       		.uleb128 0x14
 5093 103a C3120000 		.4byte	.LASF269
 5094 103e 08       		.byte	0x8
 5095 103f 14       		.uleb128 0x14
 5096 1040 110F0000 		.4byte	.LASF270
 5097 1044 09       		.byte	0x9
 5098 1045 14       		.uleb128 0x14
 5099 1046 9B150000 		.4byte	.LASF271
 5100 104a 0A       		.byte	0xa
 5101 104b 14       		.uleb128 0x14
 5102 104c 44140000 		.4byte	.LASF272
 5103 1050 0B       		.byte	0xb
 5104 1051 14       		.uleb128 0x14
 5105 1052 E00A0000 		.4byte	.LASF273
 5106 1056 0C       		.byte	0xc
 5107 1057 14       		.uleb128 0x14
 5108 1058 59090000 		.4byte	.LASF274
 5109 105c 0D       		.byte	0xd
 5110 105d 14       		.uleb128 0x14
 5111 105e 8E080000 		.4byte	.LASF275
 5112 1062 0E       		.byte	0xe
 5113 1063 14       		.uleb128 0x14
 5114 1064 23160000 		.4byte	.LASF276
 5115 1068 0F       		.byte	0xf
 5116 1069 14       		.uleb128 0x14
 5117 106a 3B060000 		.4byte	.LASF277
ARM GAS  C:\Users\tmj32\AppData\Local\Temp\ccT5YJ50.s 			page 123


 5118 106e 10       		.byte	0x10
 5119 106f 14       		.uleb128 0x14
 5120 1070 C60B0000 		.4byte	.LASF278
 5121 1074 11       		.byte	0x11
 5122 1075 14       		.uleb128 0x14
 5123 1076 7E100000 		.4byte	.LASF279
 5124 107a 12       		.byte	0x12
 5125 107b 14       		.uleb128 0x14
 5126 107c 01020000 		.4byte	.LASF280
 5127 1080 13       		.byte	0x13
 5128 1081 14       		.uleb128 0x14
 5129 1082 0D090000 		.4byte	.LASF281
 5130 1086 14       		.byte	0x14
 5131 1087 00       		.byte	0
 5132 1088 02       		.uleb128 0x2
 5133 1089 7C010000 		.4byte	.LASF282
 5134 108d 14       		.byte	0x14
 5135 108e A4       		.byte	0xa4
 5136 108f B8000000 		.4byte	0xb8
 5137 1093 06       		.uleb128 0x6
 5138 1094 0C       		.byte	0xc
 5139 1095 14       		.byte	0x14
 5140 1096 A7       		.byte	0xa7
 5141 1097 EA100000 		.4byte	0x10ea
 5142 109b 07       		.uleb128 0x7
 5143 109c E0130000 		.4byte	.LASF283
 5144 10a0 14       		.byte	0x14
 5145 10a1 A9       		.byte	0xa9
 5146 10a2 EA100000 		.4byte	0x10ea
 5147 10a6 00       		.byte	0
 5148 10a7 07       		.uleb128 0x7
 5149 10a8 15130000 		.4byte	.LASF284
 5150 10ac 14       		.byte	0x14
 5151 10ad AA       		.byte	0xaa
 5152 10ae EF000000 		.4byte	0xef
 5153 10b2 04       		.byte	0x4
 5154 10b3 07       		.uleb128 0x7
 5155 10b4 E9100000 		.4byte	.LASF285
 5156 10b8 14       		.byte	0x14
 5157 10b9 AB       		.byte	0xab
 5158 10ba EF000000 		.4byte	0xef
 5159 10be 06       		.byte	0x6
 5160 10bf 07       		.uleb128 0x7
 5161 10c0 970C0000 		.4byte	.LASF286
 5162 10c4 14       		.byte	0x14
 5163 10c5 AC       		.byte	0xac
 5164 10c6 88100000 		.4byte	0x1088
 5165 10ca 08       		.byte	0x8
 5166 10cb 0A       		.uleb128 0xa
 5167 10cc A10D0000 		.4byte	.LASF287
 5168 10d0 14       		.byte	0x14
 5169 10d1 AD       		.byte	0xad
 5170 10d2 B8000000 		.4byte	0xb8
 5171 10d6 01       		.byte	0x1
 5172 10d7 01       		.byte	0x1
 5173 10d8 07       		.byte	0x7
 5174 10d9 09       		.byte	0x9
ARM GAS  C:\Users\tmj32\AppData\Local\Temp\ccT5YJ50.s 			page 124


 5175 10da 0A       		.uleb128 0xa
 5176 10db 94170000 		.4byte	.LASF288
 5177 10df 14       		.byte	0x14
 5178 10e0 AE       		.byte	0xae
 5179 10e1 B8000000 		.4byte	0xb8
 5180 10e5 01       		.byte	0x1
 5181 10e6 01       		.byte	0x1
 5182 10e7 06       		.byte	0x6
 5183 10e8 09       		.byte	0x9
 5184 10e9 00       		.byte	0
 5185 10ea 0D       		.uleb128 0xd
 5186 10eb 04       		.byte	0x4
 5187 10ec F0100000 		.4byte	0x10f0
 5188 10f0 0E       		.uleb128 0xe
 5189 10f1 F5090000 		.4byte	0x9f5
 5190 10f5 02       		.uleb128 0x2
 5191 10f6 55010000 		.4byte	.LASF289
 5192 10fa 14       		.byte	0x14
 5193 10fb B0       		.byte	0xb0
 5194 10fc 93100000 		.4byte	0x1093
 5195 1100 02       		.uleb128 0x2
 5196 1101 4A170000 		.4byte	.LASF290
 5197 1105 14       		.byte	0x14
 5198 1106 B9       		.byte	0xb9
 5199 1107 B8000000 		.4byte	0xb8
 5200 110b 0D       		.uleb128 0xd
 5201 110c 04       		.byte	0x4
 5202 110d 11110000 		.4byte	0x1111
 5203 1111 0E       		.uleb128 0xe
 5204 1112 C3060000 		.4byte	0x6c3
 5205 1116 02       		.uleb128 0x2
 5206 1117 30130000 		.4byte	.LASF291
 5207 111b 14       		.byte	0x14
 5208 111c F0       		.byte	0xf0
 5209 111d F5090000 		.4byte	0x9f5
 5210 1121 13       		.uleb128 0x13
 5211 1122 01       		.byte	0x1
 5212 1123 42000000 		.4byte	0x42
 5213 1127 03       		.byte	0x3
 5214 1128 35       		.byte	0x35
 5215 1129 4C110000 		.4byte	0x114c
 5216 112d 14       		.uleb128 0x14
 5217 112e 58020000 		.4byte	.LASF292
 5218 1132 00       		.byte	0
 5219 1133 14       		.uleb128 0x14
 5220 1134 DC150000 		.4byte	.LASF293
 5221 1138 01       		.byte	0x1
 5222 1139 14       		.uleb128 0x14
 5223 113a 7B090000 		.4byte	.LASF294
 5224 113e 02       		.byte	0x2
 5225 113f 14       		.uleb128 0x14
 5226 1140 63130000 		.4byte	.LASF295
 5227 1144 03       		.byte	0x3
 5228 1145 14       		.uleb128 0x14
 5229 1146 24130000 		.4byte	.LASF296
 5230 114a 04       		.byte	0x4
 5231 114b 00       		.byte	0
ARM GAS  C:\Users\tmj32\AppData\Local\Temp\ccT5YJ50.s 			page 125


 5232 114c 02       		.uleb128 0x2
 5233 114d 17110000 		.4byte	.LASF297
 5234 1151 03       		.byte	0x3
 5235 1152 3D       		.byte	0x3d
 5236 1153 B8000000 		.4byte	0xb8
 5237 1157 06       		.uleb128 0x6
 5238 1158 02       		.byte	0x2
 5239 1159 03       		.byte	0x3
 5240 115a 3F       		.byte	0x3f
 5241 115b AB110000 		.4byte	0x11ab
 5242 115f 0A       		.uleb128 0xa
 5243 1160 590C0000 		.4byte	.LASF298
 5244 1164 03       		.byte	0x3
 5245 1165 43       		.byte	0x43
 5246 1166 B8000000 		.4byte	0xb8
 5247 116a 01       		.byte	0x1
 5248 116b 04       		.byte	0x4
 5249 116c 04       		.byte	0x4
 5250 116d 00       		.byte	0
 5251 116e 0A       		.uleb128 0xa
 5252 116f FE0D0000 		.4byte	.LASF299
 5253 1173 03       		.byte	0x3
 5254 1174 44       		.byte	0x44
 5255 1175 B8000000 		.4byte	0xb8
 5256 1179 01       		.byte	0x1
 5257 117a 02       		.byte	0x2
 5258 117b 02       		.byte	0x2
 5259 117c 00       		.byte	0
 5260 117d 0A       		.uleb128 0xa
 5261 117e 1A130000 		.4byte	.LASF300
 5262 1182 03       		.byte	0x3
 5263 1183 45       		.byte	0x45
 5264 1184 B8000000 		.4byte	0xb8
 5265 1188 01       		.byte	0x1
 5266 1189 02       		.byte	0x2
 5267 118a 00       		.byte	0
 5268 118b 00       		.byte	0
 5269 118c 0A       		.uleb128 0xa
 5270 118d 87040000 		.4byte	.LASF301
 5271 1191 03       		.byte	0x3
 5272 1192 46       		.byte	0x46
 5273 1193 B8000000 		.4byte	0xb8
 5274 1197 01       		.byte	0x1
 5275 1198 02       		.byte	0x2
 5276 1199 06       		.byte	0x6
 5277 119a 01       		.byte	0x1
 5278 119b 0A       		.uleb128 0xa
 5279 119c 44110000 		.4byte	.LASF302
 5280 11a0 03       		.byte	0x3
 5281 11a1 47       		.byte	0x47
 5282 11a2 B8000000 		.4byte	0xb8
 5283 11a6 01       		.byte	0x1
 5284 11a7 02       		.byte	0x2
 5285 11a8 04       		.byte	0x4
 5286 11a9 01       		.byte	0x1
 5287 11aa 00       		.byte	0
 5288 11ab 02       		.uleb128 0x2
ARM GAS  C:\Users\tmj32\AppData\Local\Temp\ccT5YJ50.s 			page 126


 5289 11ac F80C0000 		.4byte	.LASF303
 5290 11b0 03       		.byte	0x3
 5291 11b1 48       		.byte	0x48
 5292 11b2 57110000 		.4byte	0x1157
 5293 11b6 13       		.uleb128 0x13
 5294 11b7 01       		.byte	0x1
 5295 11b8 42000000 		.4byte	0x42
 5296 11bc 16       		.byte	0x16
 5297 11bd 1E       		.byte	0x1e
 5298 11be 0B120000 		.4byte	0x120b
 5299 11c2 14       		.uleb128 0x14
 5300 11c3 A5170000 		.4byte	.LASF304
 5301 11c7 11       		.byte	0x11
 5302 11c8 14       		.uleb128 0x14
 5303 11c9 38110000 		.4byte	.LASF305
 5304 11cd 12       		.byte	0x12
 5305 11ce 14       		.uleb128 0x14
 5306 11cf 4D000000 		.4byte	.LASF306
 5307 11d3 13       		.byte	0x13
 5308 11d4 14       		.uleb128 0x14
 5309 11d5 38040000 		.4byte	.LASF307
 5310 11d9 14       		.byte	0x14
 5311 11da 14       		.uleb128 0x14
 5312 11db 4F110000 		.4byte	.LASF308
 5313 11df 1B       		.byte	0x1b
 5314 11e0 14       		.uleb128 0x14
 5315 11e1 B9030000 		.4byte	.LASF309
 5316 11e5 7F       		.byte	0x7f
 5317 11e6 14       		.uleb128 0x14
 5318 11e7 54050000 		.4byte	.LASF310
 5319 11eb 08       		.byte	0x8
 5320 11ec 14       		.uleb128 0x14
 5321 11ed E9010000 		.4byte	.LASF311
 5322 11f1 0A       		.byte	0xa
 5323 11f2 14       		.uleb128 0x14
 5324 11f3 350E0000 		.4byte	.LASF312
 5325 11f7 09       		.byte	0x9
 5326 11f8 14       		.uleb128 0x14
 5327 11f9 D4130000 		.4byte	.LASF313
 5328 11fd 0B       		.byte	0xb
 5329 11fe 14       		.uleb128 0x14
 5330 11ff 9A090000 		.4byte	.LASF314
 5331 1203 02       		.byte	0x2
 5332 1204 14       		.uleb128 0x14
 5333 1205 840F0000 		.4byte	.LASF315
 5334 1209 03       		.byte	0x3
 5335 120a 00       		.byte	0
 5336 120b 02       		.uleb128 0x2
 5337 120c A1160000 		.4byte	.LASF316
 5338 1210 04       		.byte	0x4
 5339 1211 32       		.byte	0x32
 5340 1212 B8000000 		.4byte	0xb8
 5341 1216 06       		.uleb128 0x6
 5342 1217 18       		.byte	0x18
 5343 1218 04       		.byte	0x4
 5344 1219 3E       		.byte	0x3e
 5345 121a 70120000 		.4byte	0x1270
ARM GAS  C:\Users\tmj32\AppData\Local\Temp\ccT5YJ50.s 			page 127


 5346 121e 07       		.uleb128 0x7
 5347 121f DB0E0000 		.4byte	.LASF317
 5348 1223 04       		.byte	0x4
 5349 1224 40       		.byte	0x40
 5350 1225 0B110000 		.4byte	0x110b
 5351 1229 00       		.byte	0
 5352 122a 07       		.uleb128 0x7
 5353 122b AF170000 		.4byte	.LASF318
 5354 122f 04       		.byte	0x4
 5355 1230 41       		.byte	0x41
 5356 1231 24030000 		.4byte	0x324
 5357 1235 04       		.byte	0x4
 5358 1236 07       		.uleb128 0x7
 5359 1237 B7100000 		.4byte	.LASF319
 5360 123b 04       		.byte	0x4
 5361 123c 42       		.byte	0x42
 5362 123d 24030000 		.4byte	0x324
 5363 1241 0C       		.byte	0xc
 5364 1242 0A       		.uleb128 0xa
 5365 1243 F1070000 		.4byte	.LASF320
 5366 1247 04       		.byte	0x4
 5367 1248 43       		.byte	0x43
 5368 1249 B8000000 		.4byte	0xb8
 5369 124d 01       		.byte	0x1
 5370 124e 01       		.byte	0x1
 5371 124f 07       		.byte	0x7
 5372 1250 14       		.byte	0x14
 5373 1251 0A       		.uleb128 0xa
 5374 1252 64020000 		.4byte	.LASF321
 5375 1256 04       		.byte	0x4
 5376 1257 44       		.byte	0x44
 5377 1258 B8000000 		.4byte	0xb8
 5378 125c 01       		.byte	0x1
 5379 125d 01       		.byte	0x1
 5380 125e 06       		.byte	0x6
 5381 125f 14       		.byte	0x14
 5382 1260 0A       		.uleb128 0xa
 5383 1261 16140000 		.4byte	.LASF322
 5384 1265 04       		.byte	0x4
 5385 1266 45       		.byte	0x45
 5386 1267 0B120000 		.4byte	0x120b
 5387 126b 01       		.byte	0x1
 5388 126c 03       		.byte	0x3
 5389 126d 03       		.byte	0x3
 5390 126e 14       		.byte	0x14
 5391 126f 00       		.byte	0
 5392 1270 06       		.uleb128 0x6
 5393 1271 0C       		.byte	0xc
 5394 1272 04       		.byte	0x4
 5395 1273 48       		.byte	0x48
 5396 1274 DC120000 		.4byte	0x12dc
 5397 1278 07       		.uleb128 0x7
 5398 1279 DB010000 		.4byte	.LASF172
 5399 127d 04       		.byte	0x4
 5400 127e 4A       		.byte	0x4a
 5401 127f 53030000 		.4byte	0x353
 5402 1283 00       		.byte	0
ARM GAS  C:\Users\tmj32\AppData\Local\Temp\ccT5YJ50.s 			page 128


 5403 1284 07       		.uleb128 0x7
 5404 1285 DB0E0000 		.4byte	.LASF317
 5405 1289 04       		.byte	0x4
 5406 128a 4B       		.byte	0x4b
 5407 128b 0B110000 		.4byte	0x110b
 5408 128f 04       		.byte	0x4
 5409 1290 0A       		.uleb128 0xa
 5410 1291 05090000 		.4byte	.LASF323
 5411 1295 04       		.byte	0x4
 5412 1296 4C       		.byte	0x4c
 5413 1297 B8000000 		.4byte	0xb8
 5414 129b 01       		.byte	0x1
 5415 129c 01       		.byte	0x1
 5416 129d 07       		.byte	0x7
 5417 129e 08       		.byte	0x8
 5418 129f 0A       		.uleb128 0xa
 5419 12a0 BC120000 		.4byte	.LASF324
 5420 12a4 04       		.byte	0x4
 5421 12a5 4D       		.byte	0x4d
 5422 12a6 B8000000 		.4byte	0xb8
 5423 12aa 01       		.byte	0x1
 5424 12ab 01       		.byte	0x1
 5425 12ac 06       		.byte	0x6
 5426 12ad 08       		.byte	0x8
 5427 12ae 0A       		.uleb128 0xa
 5428 12af C4130000 		.4byte	.LASF325
 5429 12b3 04       		.byte	0x4
 5430 12b4 4F       		.byte	0x4f
 5431 12b5 B8000000 		.4byte	0xb8
 5432 12b9 01       		.byte	0x1
 5433 12ba 01       		.byte	0x1
 5434 12bb 05       		.byte	0x5
 5435 12bc 08       		.byte	0x8
 5436 12bd 0A       		.uleb128 0xa
 5437 12be BB130000 		.4byte	.LASF326
 5438 12c2 04       		.byte	0x4
 5439 12c3 51       		.byte	0x51
 5440 12c4 B8000000 		.4byte	0xb8
 5441 12c8 01       		.byte	0x1
 5442 12c9 01       		.byte	0x1
 5443 12ca 04       		.byte	0x4
 5444 12cb 08       		.byte	0x8
 5445 12cc 0A       		.uleb128 0xa
 5446 12cd E1010000 		.4byte	.LASF327
 5447 12d1 04       		.byte	0x4
 5448 12d2 53       		.byte	0x53
 5449 12d3 B8000000 		.4byte	0xb8
 5450 12d7 01       		.byte	0x1
 5451 12d8 01       		.byte	0x1
 5452 12d9 03       		.byte	0x3
 5453 12da 08       		.byte	0x8
 5454 12db 00       		.byte	0
 5455 12dc 06       		.uleb128 0x6
 5456 12dd 30       		.byte	0x30
 5457 12de 04       		.byte	0x4
 5458 12df 39       		.byte	0x39
 5459 12e0 3D130000 		.4byte	0x133d
ARM GAS  C:\Users\tmj32\AppData\Local\Temp\ccT5YJ50.s 			page 129


 5460 12e4 08       		.uleb128 0x8
 5461 12e5 626700   		.ascii	"bg\000"
 5462 12e8 04       		.byte	0x4
 5463 12e9 3B       		.byte	0x3b
 5464 12ea AB110000 		.4byte	0x11ab
 5465 12ee 00       		.byte	0
 5466 12ef 07       		.uleb128 0x7
 5467 12f0 A0040000 		.4byte	.LASF328
 5468 12f4 04       		.byte	0x4
 5469 12f5 3D       		.byte	0x3d
 5470 12f6 3D130000 		.4byte	0x133d
 5471 12fa 04       		.byte	0x4
 5472 12fb 08       		.uleb128 0x8
 5473 12fc 736200   		.ascii	"sb\000"
 5474 12ff 04       		.byte	0x4
 5475 1300 46       		.byte	0x46
 5476 1301 16120000 		.4byte	0x1216
 5477 1305 08       		.byte	0x8
 5478 1306 07       		.uleb128 0x7
 5479 1307 41180000 		.4byte	.LASF329
 5480 130b 04       		.byte	0x4
 5481 130c 55       		.byte	0x55
 5482 130d 70120000 		.4byte	0x1270
 5483 1311 20       		.byte	0x20
 5484 1312 07       		.uleb128 0x7
 5485 1313 02060000 		.4byte	.LASF330
 5486 1317 04       		.byte	0x4
 5487 1318 57       		.byte	0x57
 5488 1319 CE000000 		.4byte	0xce
 5489 131d 2C       		.byte	0x2c
 5490 131e 0A       		.uleb128 0xa
 5491 131f 2C040000 		.4byte	.LASF331
 5492 1323 04       		.byte	0x4
 5493 1324 5A       		.byte	0x5a
 5494 1325 B8000000 		.4byte	0xb8
 5495 1329 01       		.byte	0x1
 5496 132a 01       		.byte	0x1
 5497 132b 07       		.byte	0x7
 5498 132c 2E       		.byte	0x2e
 5499 132d 0A       		.uleb128 0xa
 5500 132e ED080000 		.4byte	.LASF332
 5501 1332 04       		.byte	0x4
 5502 1333 5B       		.byte	0x5b
 5503 1334 B8000000 		.4byte	0xb8
 5504 1338 01       		.byte	0x1
 5505 1339 01       		.byte	0x1
 5506 133a 06       		.byte	0x6
 5507 133b 2E       		.byte	0x2e
 5508 133c 00       		.byte	0
 5509 133d 0D       		.uleb128 0xd
 5510 133e 04       		.byte	0x4
 5511 133f 16110000 		.4byte	0x1116
 5512 1343 02       		.uleb128 0x2
 5513 1344 AF050000 		.4byte	.LASF333
 5514 1348 04       		.byte	0x4
 5515 1349 5C       		.byte	0x5c
 5516 134a DC120000 		.4byte	0x12dc
ARM GAS  C:\Users\tmj32\AppData\Local\Temp\ccT5YJ50.s 			page 130


 5517 134e 13       		.uleb128 0x13
 5518 134f 01       		.byte	0x1
 5519 1350 42000000 		.4byte	0x42
 5520 1354 17       		.byte	0x17
 5521 1355 2B       		.byte	0x2b
 5522 1356 79130000 		.4byte	0x1379
 5523 135a 14       		.uleb128 0x14
 5524 135b B3060000 		.4byte	.LASF334
 5525 135f 00       		.byte	0
 5526 1360 14       		.uleb128 0x14
 5527 1361 18040000 		.4byte	.LASF335
 5528 1365 01       		.byte	0x1
 5529 1366 14       		.uleb128 0x14
 5530 1367 260A0000 		.4byte	.LASF336
 5531 136b 02       		.byte	0x2
 5532 136c 14       		.uleb128 0x14
 5533 136d FA070000 		.4byte	.LASF337
 5534 1371 04       		.byte	0x4
 5535 1372 14       		.uleb128 0x14
 5536 1373 C4030000 		.4byte	.LASF338
 5537 1377 08       		.byte	0x8
 5538 1378 00       		.byte	0
 5539 1379 02       		.uleb128 0x2
 5540 137a 1B140000 		.4byte	.LASF339
 5541 137e 17       		.byte	0x17
 5542 137f 32       		.byte	0x32
 5543 1380 B8000000 		.4byte	0xb8
 5544 1384 13       		.uleb128 0x13
 5545 1385 01       		.byte	0x1
 5546 1386 42000000 		.4byte	0x42
 5547 138a 18       		.byte	0x18
 5548 138b 3B       		.byte	0x3b
 5549 138c A9130000 		.4byte	0x13a9
 5550 1390 14       		.uleb128 0x14
 5551 1391 6F160000 		.4byte	.LASF340
 5552 1395 00       		.byte	0
 5553 1396 14       		.uleb128 0x14
 5554 1397 FB020000 		.4byte	.LASF341
 5555 139b 01       		.byte	0x1
 5556 139c 14       		.uleb128 0x14
 5557 139d FE040000 		.4byte	.LASF342
 5558 13a1 02       		.byte	0x2
 5559 13a2 14       		.uleb128 0x14
 5560 13a3 25010000 		.4byte	.LASF343
 5561 13a7 03       		.byte	0x3
 5562 13a8 00       		.byte	0
 5563 13a9 02       		.uleb128 0x2
 5564 13aa 6D000000 		.4byte	.LASF344
 5565 13ae 18       		.byte	0x18
 5566 13af 41       		.byte	0x41
 5567 13b0 B8000000 		.4byte	0xb8
 5568 13b4 06       		.uleb128 0x6
 5569 13b5 44       		.byte	0x44
 5570 13b6 05       		.byte	0x5
 5571 13b7 2D       		.byte	0x2d
 5572 13b8 4D140000 		.4byte	0x144d
 5573 13bc 07       		.uleb128 0x7
ARM GAS  C:\Users\tmj32\AppData\Local\Temp\ccT5YJ50.s 			page 131


 5574 13bd 190E0000 		.4byte	.LASF345
 5575 13c1 05       		.byte	0x5
 5576 13c2 2F       		.byte	0x2f
 5577 13c3 43130000 		.4byte	0x1343
 5578 13c7 00       		.byte	0
 5579 13c8 07       		.uleb128 0x7
 5580 13c9 16170000 		.4byte	.LASF346
 5581 13cd 05       		.byte	0x5
 5582 13ce 31       		.byte	0x31
 5583 13cf 3D130000 		.4byte	0x133d
 5584 13d3 30       		.byte	0x30
 5585 13d4 07       		.uleb128 0x7
 5586 13d5 BC0C0000 		.4byte	.LASF347
 5587 13d9 05       		.byte	0x5
 5588 13da 32       		.byte	0x32
 5589 13db 0B110000 		.4byte	0x110b
 5590 13df 34       		.byte	0x34
 5591 13e0 07       		.uleb128 0x7
 5592 13e1 DD0C0000 		.4byte	.LASF348
 5593 13e5 05       		.byte	0x5
 5594 13e6 33       		.byte	0x33
 5595 13e7 CE000000 		.4byte	0xce
 5596 13eb 38       		.byte	0x38
 5597 13ec 07       		.uleb128 0x7
 5598 13ed BF0A0000 		.4byte	.LASF349
 5599 13f1 05       		.byte	0x5
 5600 13f2 34       		.byte	0x34
 5601 13f3 CE000000 		.4byte	0xce
 5602 13f7 3A       		.byte	0x3a
 5603 13f8 07       		.uleb128 0x7
 5604 13f9 95060000 		.4byte	.LASF350
 5605 13fd 05       		.byte	0x5
 5606 13fe 35       		.byte	0x35
 5607 13ff CE000000 		.4byte	0xce
 5608 1403 3C       		.byte	0x3c
 5609 1404 0A       		.uleb128 0xa
 5610 1405 9D0C0000 		.4byte	.LASF351
 5611 1409 05       		.byte	0x5
 5612 140a 36       		.byte	0x36
 5613 140b B8000000 		.4byte	0xb8
 5614 140f 01       		.byte	0x1
 5615 1410 01       		.byte	0x1
 5616 1411 07       		.byte	0x7
 5617 1412 3E       		.byte	0x3e
 5618 1413 0A       		.uleb128 0xa
 5619 1414 71150000 		.4byte	.LASF352
 5620 1418 05       		.byte	0x5
 5621 1419 37       		.byte	0x37
 5622 141a B8000000 		.4byte	0xb8
 5623 141e 01       		.byte	0x1
 5624 141f 01       		.byte	0x1
 5625 1420 06       		.byte	0x6
 5626 1421 3E       		.byte	0x3e
 5627 1422 0A       		.uleb128 0xa
 5628 1423 6F130000 		.4byte	.LASF353
 5629 1427 05       		.byte	0x5
 5630 1428 38       		.byte	0x38
ARM GAS  C:\Users\tmj32\AppData\Local\Temp\ccT5YJ50.s 			page 132


 5631 1429 B8000000 		.4byte	0xb8
 5632 142d 01       		.byte	0x1
 5633 142e 01       		.byte	0x1
 5634 142f 05       		.byte	0x5
 5635 1430 3E       		.byte	0x3e
 5636 1431 0A       		.uleb128 0xa
 5637 1432 FE170000 		.4byte	.LASF354
 5638 1436 05       		.byte	0x5
 5639 1437 39       		.byte	0x39
 5640 1438 B8000000 		.4byte	0xb8
 5641 143c 01       		.byte	0x1
 5642 143d 01       		.byte	0x1
 5643 143e 04       		.byte	0x4
 5644 143f 3E       		.byte	0x3e
 5645 1440 07       		.uleb128 0x7
 5646 1441 E4120000 		.4byte	.LASF355
 5647 1445 05       		.byte	0x5
 5648 1446 3A       		.byte	0x3a
 5649 1447 EF000000 		.4byte	0xef
 5650 144b 40       		.byte	0x40
 5651 144c 00       		.byte	0
 5652 144d 02       		.uleb128 0x2
 5653 144e 28120000 		.4byte	.LASF356
 5654 1452 05       		.byte	0x5
 5655 1453 3B       		.byte	0x3b
 5656 1454 B4130000 		.4byte	0x13b4
 5657 1458 13       		.uleb128 0x13
 5658 1459 01       		.byte	0x1
 5659 145a 42000000 		.4byte	0x42
 5660 145e 05       		.byte	0x5
 5661 145f 3D       		.byte	0x3d
 5662 1460 77140000 		.4byte	0x1477
 5663 1464 14       		.uleb128 0x14
 5664 1465 3F070000 		.4byte	.LASF357
 5665 1469 00       		.byte	0
 5666 146a 14       		.uleb128 0x14
 5667 146b AD010000 		.4byte	.LASF358
 5668 146f 01       		.byte	0x1
 5669 1470 14       		.uleb128 0x14
 5670 1471 C9150000 		.4byte	.LASF359
 5671 1475 02       		.byte	0x2
 5672 1476 00       		.byte	0
 5673 1477 13       		.uleb128 0x13
 5674 1478 01       		.byte	0x1
 5675 1479 42000000 		.4byte	0x42
 5676 147d 06       		.byte	0x6
 5677 147e 2A       		.byte	0x2a
 5678 147f 90140000 		.4byte	0x1490
 5679 1483 14       		.uleb128 0x14
 5680 1484 1C170000 		.4byte	.LASF360
 5681 1488 00       		.byte	0
 5682 1489 14       		.uleb128 0x14
 5683 148a A9020000 		.4byte	.LASF361
 5684 148e 01       		.byte	0x1
 5685 148f 00       		.byte	0
 5686 1490 02       		.uleb128 0x2
 5687 1491 CC140000 		.4byte	.LASF362
ARM GAS  C:\Users\tmj32\AppData\Local\Temp\ccT5YJ50.s 			page 133


 5688 1495 06       		.byte	0x6
 5689 1496 2F       		.byte	0x2f
 5690 1497 B8000000 		.4byte	0xb8
 5691 149b 06       		.uleb128 0x6
 5692 149c 48       		.byte	0x48
 5693 149d 06       		.byte	0x6
 5694 149e 34       		.byte	0x34
 5695 149f BF140000 		.4byte	0x14bf
 5696 14a3 07       		.uleb128 0x7
 5697 14a4 05070000 		.4byte	.LASF363
 5698 14a8 06       		.byte	0x6
 5699 14a9 36       		.byte	0x36
 5700 14aa 4D140000 		.4byte	0x144d
 5701 14ae 00       		.byte	0
 5702 14af 0A       		.uleb128 0xa
 5703 14b0 16140000 		.4byte	.LASF322
 5704 14b4 06       		.byte	0x6
 5705 14b5 38       		.byte	0x38
 5706 14b6 90140000 		.4byte	0x1490
 5707 14ba 01       		.byte	0x1
 5708 14bb 01       		.byte	0x1
 5709 14bc 07       		.byte	0x7
 5710 14bd 44       		.byte	0x44
 5711 14be 00       		.byte	0
 5712 14bf 02       		.uleb128 0x2
 5713 14c0 F3150000 		.4byte	.LASF364
 5714 14c4 06       		.byte	0x6
 5715 14c5 39       		.byte	0x39
 5716 14c6 9B140000 		.4byte	0x149b
 5717 14ca 13       		.uleb128 0x13
 5718 14cb 01       		.byte	0x1
 5719 14cc 42000000 		.4byte	0x42
 5720 14d0 06       		.byte	0x6
 5721 14d1 3B       		.byte	0x3b
 5722 14d2 E3140000 		.4byte	0x14e3
 5723 14d6 14       		.uleb128 0x14
 5724 14d7 45020000 		.4byte	.LASF365
 5725 14db 00       		.byte	0
 5726 14dc 14       		.uleb128 0x14
 5727 14dd 29140000 		.4byte	.LASF366
 5728 14e1 01       		.byte	0x1
 5729 14e2 00       		.byte	0
 5730 14e3 02       		.uleb128 0x2
 5731 14e4 A70E0000 		.4byte	.LASF367
 5732 14e8 06       		.byte	0x6
 5733 14e9 3F       		.byte	0x3f
 5734 14ea B8000000 		.4byte	0xb8
 5735 14ee 06       		.uleb128 0x6
 5736 14ef 14       		.byte	0x14
 5737 14f0 19       		.byte	0x19
 5738 14f1 34       		.byte	0x34
 5739 14f2 32150000 		.4byte	0x1532
 5740 14f6 08       		.uleb128 0x8
 5741 14f7 72656C00 		.ascii	"rel\000"
 5742 14fb 19       		.byte	0x19
 5743 14fc 36       		.byte	0x36
 5744 14fd CE060000 		.4byte	0x6ce
ARM GAS  C:\Users\tmj32\AppData\Local\Temp\ccT5YJ50.s 			page 134


 5745 1501 00       		.byte	0
 5746 1502 08       		.uleb128 0x8
 5747 1503 707200   		.ascii	"pr\000"
 5748 1506 19       		.byte	0x19
 5749 1507 37       		.byte	0x37
 5750 1508 CE060000 		.4byte	0x6ce
 5751 150c 04       		.byte	0x4
 5752 150d 07       		.uleb128 0x7
 5753 150e 540D0000 		.4byte	.LASF368
 5754 1512 19       		.byte	0x19
 5755 1513 38       		.byte	0x38
 5756 1514 CE060000 		.4byte	0x6ce
 5757 1518 08       		.byte	0x8
 5758 1519 07       		.uleb128 0x7
 5759 151a 74040000 		.4byte	.LASF369
 5760 151e 19       		.byte	0x19
 5761 151f 39       		.byte	0x39
 5762 1520 CE060000 		.4byte	0x6ce
 5763 1524 0C       		.byte	0xc
 5764 1525 08       		.uleb128 0x8
 5765 1526 696E6100 		.ascii	"ina\000"
 5766 152a 19       		.byte	0x19
 5767 152b 3A       		.byte	0x3a
 5768 152c CE060000 		.4byte	0x6ce
 5769 1530 10       		.byte	0x10
 5770 1531 00       		.byte	0
 5771 1532 06       		.uleb128 0x6
 5772 1533 14       		.byte	0x14
 5773 1534 19       		.byte	0x19
 5774 1535 3F       		.byte	0x3f
 5775 1536 76150000 		.4byte	0x1576
 5776 153a 08       		.uleb128 0x8
 5777 153b 72656C00 		.ascii	"rel\000"
 5778 153f 19       		.byte	0x19
 5779 1540 41       		.byte	0x41
 5780 1541 CE060000 		.4byte	0x6ce
 5781 1545 00       		.byte	0
 5782 1546 08       		.uleb128 0x8
 5783 1547 707200   		.ascii	"pr\000"
 5784 154a 19       		.byte	0x19
 5785 154b 42       		.byte	0x42
 5786 154c CE060000 		.4byte	0x6ce
 5787 1550 04       		.byte	0x4
 5788 1551 07       		.uleb128 0x7
 5789 1552 540D0000 		.4byte	.LASF368
 5790 1556 19       		.byte	0x19
 5791 1557 43       		.byte	0x43
 5792 1558 CE060000 		.4byte	0x6ce
 5793 155c 08       		.byte	0x8
 5794 155d 07       		.uleb128 0x7
 5795 155e 74040000 		.4byte	.LASF369
 5796 1562 19       		.byte	0x19
 5797 1563 44       		.byte	0x44
 5798 1564 CE060000 		.4byte	0x6ce
 5799 1568 0C       		.byte	0xc
 5800 1569 08       		.uleb128 0x8
 5801 156a 696E6100 		.ascii	"ina\000"
ARM GAS  C:\Users\tmj32\AppData\Local\Temp\ccT5YJ50.s 			page 135


 5802 156e 19       		.byte	0x19
 5803 156f 45       		.byte	0x45
 5804 1570 CE060000 		.4byte	0x6ce
 5805 1574 10       		.byte	0x10
 5806 1575 00       		.byte	0
 5807 1576 06       		.uleb128 0x6
 5808 1577 0C       		.byte	0xc
 5809 1578 19       		.byte	0x19
 5810 1579 4A       		.byte	0x4a
 5811 157a A3150000 		.4byte	0x15a3
 5812 157e 07       		.uleb128 0x7
 5813 157f 88020000 		.4byte	.LASF370
 5814 1583 19       		.byte	0x19
 5815 1584 4C       		.byte	0x4c
 5816 1585 CE060000 		.4byte	0x6ce
 5817 1589 00       		.byte	0
 5818 158a 08       		.uleb128 0x8
 5819 158b 73656300 		.ascii	"sec\000"
 5820 158f 19       		.byte	0x19
 5821 1590 4D       		.byte	0x4d
 5822 1591 CE060000 		.4byte	0x6ce
 5823 1595 04       		.byte	0x4
 5824 1596 07       		.uleb128 0x7
 5825 1597 A6090000 		.4byte	.LASF371
 5826 159b 19       		.byte	0x19
 5827 159c 4E       		.byte	0x4e
 5828 159d CE060000 		.4byte	0x6ce
 5829 15a1 08       		.byte	0x8
 5830 15a2 00       		.byte	0
 5831 15a3 06       		.uleb128 0x6
 5832 15a4 08       		.byte	0x8
 5833 15a5 19       		.byte	0x19
 5834 15a6 53       		.byte	0x53
 5835 15a7 C4150000 		.4byte	0x15c4
 5836 15ab 07       		.uleb128 0x7
 5837 15ac 6D020000 		.4byte	.LASF372
 5838 15b0 19       		.byte	0x19
 5839 15b1 55       		.byte	0x55
 5840 15b2 CE060000 		.4byte	0x6ce
 5841 15b6 00       		.byte	0
 5842 15b7 07       		.uleb128 0x7
 5843 15b8 51160000 		.4byte	.LASF373
 5844 15bc 19       		.byte	0x19
 5845 15bd 56       		.byte	0x56
 5846 15be CE060000 		.4byte	0x6ce
 5847 15c2 04       		.byte	0x4
 5848 15c3 00       		.byte	0
 5849 15c4 06       		.uleb128 0x6
 5850 15c5 04       		.byte	0x4
 5851 15c6 19       		.byte	0x19
 5852 15c7 5B       		.byte	0x5b
 5853 15c8 D9150000 		.4byte	0x15d9
 5854 15cc 07       		.uleb128 0x7
 5855 15cd 4A120000 		.4byte	.LASF374
 5856 15d1 19       		.byte	0x19
 5857 15d2 5D       		.byte	0x5d
 5858 15d3 CE060000 		.4byte	0x6ce
ARM GAS  C:\Users\tmj32\AppData\Local\Temp\ccT5YJ50.s 			page 136


 5859 15d7 00       		.byte	0
 5860 15d8 00       		.byte	0
 5861 15d9 06       		.uleb128 0x6
 5862 15da 08       		.byte	0x8
 5863 15db 19       		.byte	0x19
 5864 15dc 66       		.byte	0x66
 5865 15dd F9150000 		.4byte	0x15f9
 5866 15e1 08       		.uleb128 0x8
 5867 15e2 626700   		.ascii	"bg\000"
 5868 15e5 19       		.byte	0x19
 5869 15e6 68       		.byte	0x68
 5870 15e7 CE060000 		.4byte	0x6ce
 5871 15eb 00       		.byte	0
 5872 15ec 07       		.uleb128 0x7
 5873 15ed 1D0C0000 		.4byte	.LASF375
 5874 15f1 19       		.byte	0x19
 5875 15f2 69       		.byte	0x69
 5876 15f3 CE060000 		.4byte	0x6ce
 5877 15f7 04       		.byte	0x4
 5878 15f8 00       		.byte	0
 5879 15f9 06       		.uleb128 0x6
 5880 15fa 0C       		.byte	0xc
 5881 15fb 19       		.byte	0x19
 5882 15fc 6E       		.byte	0x6e
 5883 15fd 25160000 		.4byte	0x1625
 5884 1601 08       		.uleb128 0x8
 5885 1602 626700   		.ascii	"bg\000"
 5886 1605 19       		.byte	0x19
 5887 1606 70       		.byte	0x70
 5888 1607 CE060000 		.4byte	0x6ce
 5889 160b 00       		.byte	0
 5890 160c 07       		.uleb128 0x7
 5891 160d 1D0C0000 		.4byte	.LASF375
 5892 1611 19       		.byte	0x19
 5893 1612 71       		.byte	0x71
 5894 1613 CE060000 		.4byte	0x6ce
 5895 1617 04       		.byte	0x4
 5896 1618 07       		.uleb128 0x7
 5897 1619 A0170000 		.4byte	.LASF376
 5898 161d 19       		.byte	0x19
 5899 161e 72       		.byte	0x72
 5900 161f CE060000 		.4byte	0x6ce
 5901 1623 08       		.byte	0x8
 5902 1624 00       		.byte	0
 5903 1625 06       		.uleb128 0x6
 5904 1626 10       		.byte	0x10
 5905 1627 19       		.byte	0x19
 5906 1628 87       		.byte	0x87
 5907 1629 5D160000 		.4byte	0x165d
 5908 162d 08       		.uleb128 0x8
 5909 162e 626700   		.ascii	"bg\000"
 5910 1631 19       		.byte	0x19
 5911 1632 89       		.byte	0x89
 5912 1633 CE060000 		.4byte	0x6ce
 5913 1637 00       		.byte	0
 5914 1638 07       		.uleb128 0x7
 5915 1639 1D0C0000 		.4byte	.LASF375
ARM GAS  C:\Users\tmj32\AppData\Local\Temp\ccT5YJ50.s 			page 137


 5916 163d 19       		.byte	0x19
 5917 163e 8A       		.byte	0x8a
 5918 163f CE060000 		.4byte	0x6ce
 5919 1643 04       		.byte	0x4
 5920 1644 07       		.uleb128 0x7
 5921 1645 260E0000 		.4byte	.LASF377
 5922 1649 19       		.byte	0x19
 5923 164a 8B       		.byte	0x8b
 5924 164b CE060000 		.4byte	0x6ce
 5925 164f 08       		.byte	0x8
 5926 1650 07       		.uleb128 0x7
 5927 1651 40050000 		.4byte	.LASF378
 5928 1655 19       		.byte	0x19
 5929 1656 8C       		.byte	0x8c
 5930 1657 CE060000 		.4byte	0x6ce
 5931 165b 0C       		.byte	0xc
 5932 165c 00       		.byte	0
 5933 165d 06       		.uleb128 0x6
 5934 165e 20       		.byte	0x20
 5935 165f 19       		.byte	0x19
 5936 1660 95       		.byte	0x95
 5937 1661 C5160000 		.4byte	0x16c5
 5938 1665 08       		.uleb128 0x8
 5939 1666 626700   		.ascii	"bg\000"
 5940 1669 19       		.byte	0x19
 5941 166a 97       		.byte	0x97
 5942 166b CE060000 		.4byte	0x6ce
 5943 166f 00       		.byte	0
 5944 1670 07       		.uleb128 0x7
 5945 1671 65050000 		.4byte	.LASF379
 5946 1675 19       		.byte	0x19
 5947 1676 98       		.byte	0x98
 5948 1677 CE060000 		.4byte	0x6ce
 5949 167b 04       		.byte	0x4
 5950 167c 07       		.uleb128 0x7
 5951 167d 3A000000 		.4byte	.LASF380
 5952 1681 19       		.byte	0x19
 5953 1682 99       		.byte	0x99
 5954 1683 CE060000 		.4byte	0x6ce
 5955 1687 08       		.byte	0x8
 5956 1688 07       		.uleb128 0x7
 5957 1689 A2140000 		.4byte	.LASF381
 5958 168d 19       		.byte	0x19
 5959 168e 9A       		.byte	0x9a
 5960 168f CE060000 		.4byte	0x6ce
 5961 1693 0C       		.byte	0xc
 5962 1694 07       		.uleb128 0x7
 5963 1695 9C010000 		.4byte	.LASF382
 5964 1699 19       		.byte	0x19
 5965 169a 9B       		.byte	0x9b
 5966 169b CE060000 		.4byte	0x6ce
 5967 169f 10       		.byte	0x10
 5968 16a0 07       		.uleb128 0x7
 5969 16a1 C0100000 		.4byte	.LASF383
 5970 16a5 19       		.byte	0x19
 5971 16a6 9C       		.byte	0x9c
 5972 16a7 CE060000 		.4byte	0x6ce
ARM GAS  C:\Users\tmj32\AppData\Local\Temp\ccT5YJ50.s 			page 138


 5973 16ab 14       		.byte	0x14
 5974 16ac 07       		.uleb128 0x7
 5975 16ad 32060000 		.4byte	.LASF384
 5976 16b1 19       		.byte	0x19
 5977 16b2 9D       		.byte	0x9d
 5978 16b3 CE060000 		.4byte	0x6ce
 5979 16b7 18       		.byte	0x18
 5980 16b8 07       		.uleb128 0x7
 5981 16b9 6A040000 		.4byte	.LASF385
 5982 16bd 19       		.byte	0x19
 5983 16be 9E       		.byte	0x9e
 5984 16bf CE060000 		.4byte	0x6ce
 5985 16c3 1C       		.byte	0x1c
 5986 16c4 00       		.byte	0
 5987 16c5 06       		.uleb128 0x6
 5988 16c6 14       		.byte	0x14
 5989 16c7 19       		.byte	0x19
 5990 16c8 A6       		.byte	0xa6
 5991 16c9 09170000 		.4byte	0x1709
 5992 16cd 08       		.uleb128 0x8
 5993 16ce 72656C00 		.ascii	"rel\000"
 5994 16d2 19       		.byte	0x19
 5995 16d3 A8       		.byte	0xa8
 5996 16d4 CE060000 		.4byte	0x6ce
 5997 16d8 00       		.byte	0
 5998 16d9 08       		.uleb128 0x8
 5999 16da 707200   		.ascii	"pr\000"
 6000 16dd 19       		.byte	0x19
 6001 16de A9       		.byte	0xa9
 6002 16df CE060000 		.4byte	0x6ce
 6003 16e3 04       		.byte	0x4
 6004 16e4 07       		.uleb128 0x7
 6005 16e5 540D0000 		.4byte	.LASF368
 6006 16e9 19       		.byte	0x19
 6007 16ea AA       		.byte	0xaa
 6008 16eb CE060000 		.4byte	0x6ce
 6009 16ef 08       		.byte	0x8
 6010 16f0 07       		.uleb128 0x7
 6011 16f1 74040000 		.4byte	.LASF369
 6012 16f5 19       		.byte	0x19
 6013 16f6 AB       		.byte	0xab
 6014 16f7 CE060000 		.4byte	0x6ce
 6015 16fb 0C       		.byte	0xc
 6016 16fc 08       		.uleb128 0x8
 6017 16fd 696E6100 		.ascii	"ina\000"
 6018 1701 19       		.byte	0x19
 6019 1702 AC       		.byte	0xac
 6020 1703 CE060000 		.4byte	0x6ce
 6021 1707 10       		.byte	0x10
 6022 1708 00       		.byte	0
 6023 1709 06       		.uleb128 0x6
 6024 170a 18       		.byte	0x18
 6025 170b 19       		.byte	0x19
 6026 170c A3       		.byte	0xa3
 6027 170d 29170000 		.4byte	0x1729
 6028 1711 08       		.uleb128 0x8
 6029 1712 626700   		.ascii	"bg\000"
ARM GAS  C:\Users\tmj32\AppData\Local\Temp\ccT5YJ50.s 			page 139


 6030 1715 19       		.byte	0x19
 6031 1716 A5       		.byte	0xa5
 6032 1717 CE060000 		.4byte	0x6ce
 6033 171b 00       		.byte	0
 6034 171c 08       		.uleb128 0x8
 6035 171d 626F7800 		.ascii	"box\000"
 6036 1721 19       		.byte	0x19
 6037 1722 AD       		.byte	0xad
 6038 1723 C5160000 		.4byte	0x16c5
 6039 1727 04       		.byte	0x4
 6040 1728 00       		.byte	0
 6041 1729 06       		.uleb128 0x6
 6042 172a 14       		.byte	0x14
 6043 172b 19       		.byte	0x19
 6044 172c B5       		.byte	0xb5
 6045 172d 6D170000 		.4byte	0x176d
 6046 1731 08       		.uleb128 0x8
 6047 1732 72656C00 		.ascii	"rel\000"
 6048 1736 19       		.byte	0x19
 6049 1737 B7       		.byte	0xb7
 6050 1738 CE060000 		.4byte	0x6ce
 6051 173c 00       		.byte	0
 6052 173d 08       		.uleb128 0x8
 6053 173e 707200   		.ascii	"pr\000"
 6054 1741 19       		.byte	0x19
 6055 1742 B8       		.byte	0xb8
 6056 1743 CE060000 		.4byte	0x6ce
 6057 1747 04       		.byte	0x4
 6058 1748 07       		.uleb128 0x7
 6059 1749 540D0000 		.4byte	.LASF368
 6060 174d 19       		.byte	0x19
 6061 174e B9       		.byte	0xb9
 6062 174f CE060000 		.4byte	0x6ce
 6063 1753 08       		.byte	0x8
 6064 1754 07       		.uleb128 0x7
 6065 1755 74040000 		.4byte	.LASF369
 6066 1759 19       		.byte	0x19
 6067 175a BA       		.byte	0xba
 6068 175b CE060000 		.4byte	0x6ce
 6069 175f 0C       		.byte	0xc
 6070 1760 08       		.uleb128 0x8
 6071 1761 696E6100 		.ascii	"ina\000"
 6072 1765 19       		.byte	0x19
 6073 1766 BB       		.byte	0xbb
 6074 1767 CE060000 		.4byte	0x6ce
 6075 176b 10       		.byte	0x10
 6076 176c 00       		.byte	0
 6077 176d 06       		.uleb128 0x6
 6078 176e 18       		.byte	0x18
 6079 176f 19       		.byte	0x19
 6080 1770 B2       		.byte	0xb2
 6081 1771 8D170000 		.4byte	0x178d
 6082 1775 08       		.uleb128 0x8
 6083 1776 626700   		.ascii	"bg\000"
 6084 1779 19       		.byte	0x19
 6085 177a B4       		.byte	0xb4
 6086 177b CE060000 		.4byte	0x6ce
ARM GAS  C:\Users\tmj32\AppData\Local\Temp\ccT5YJ50.s 			page 140


 6087 177f 00       		.byte	0
 6088 1780 08       		.uleb128 0x8
 6089 1781 62746E00 		.ascii	"btn\000"
 6090 1785 19       		.byte	0x19
 6091 1786 BC       		.byte	0xbc
 6092 1787 29170000 		.4byte	0x1729
 6093 178b 04       		.byte	0x4
 6094 178c 00       		.byte	0
 6095 178d 06       		.uleb128 0x6
 6096 178e 14       		.byte	0x14
 6097 178f 19       		.byte	0x19
 6098 1790 C4       		.byte	0xc4
 6099 1791 D1170000 		.4byte	0x17d1
 6100 1795 08       		.uleb128 0x8
 6101 1796 72656C00 		.ascii	"rel\000"
 6102 179a 19       		.byte	0x19
 6103 179b C6       		.byte	0xc6
 6104 179c CE060000 		.4byte	0x6ce
 6105 17a0 00       		.byte	0
 6106 17a1 08       		.uleb128 0x8
 6107 17a2 707200   		.ascii	"pr\000"
 6108 17a5 19       		.byte	0x19
 6109 17a6 C7       		.byte	0xc7
 6110 17a7 CE060000 		.4byte	0x6ce
 6111 17ab 04       		.byte	0x4
 6112 17ac 07       		.uleb128 0x7
 6113 17ad 540D0000 		.4byte	.LASF368
 6114 17b1 19       		.byte	0x19
 6115 17b2 C8       		.byte	0xc8
 6116 17b3 CE060000 		.4byte	0x6ce
 6117 17b7 08       		.byte	0x8
 6118 17b8 07       		.uleb128 0x7
 6119 17b9 74040000 		.4byte	.LASF369
 6120 17bd 19       		.byte	0x19
 6121 17be C9       		.byte	0xc9
 6122 17bf CE060000 		.4byte	0x6ce
 6123 17c3 0C       		.byte	0xc
 6124 17c4 08       		.uleb128 0x8
 6125 17c5 696E6100 		.ascii	"ina\000"
 6126 17c9 19       		.byte	0x19
 6127 17ca CA       		.byte	0xca
 6128 17cb CE060000 		.4byte	0x6ce
 6129 17cf 10       		.byte	0x10
 6130 17d0 00       		.byte	0
 6131 17d1 06       		.uleb128 0x6
 6132 17d2 18       		.byte	0x18
 6133 17d3 19       		.byte	0x19
 6134 17d4 C1       		.byte	0xc1
 6135 17d5 F1170000 		.4byte	0x17f1
 6136 17d9 08       		.uleb128 0x8
 6137 17da 626700   		.ascii	"bg\000"
 6138 17dd 19       		.byte	0x19
 6139 17de C3       		.byte	0xc3
 6140 17df CE060000 		.4byte	0x6ce
 6141 17e3 00       		.byte	0
 6142 17e4 08       		.uleb128 0x8
 6143 17e5 62746E00 		.ascii	"btn\000"
ARM GAS  C:\Users\tmj32\AppData\Local\Temp\ccT5YJ50.s 			page 141


 6144 17e9 19       		.byte	0x19
 6145 17ea CB       		.byte	0xcb
 6146 17eb 8D170000 		.4byte	0x178d
 6147 17ef 04       		.byte	0x4
 6148 17f0 00       		.byte	0
 6149 17f1 06       		.uleb128 0x6
 6150 17f2 0C       		.byte	0xc
 6151 17f3 19       		.byte	0x19
 6152 17f4 D3       		.byte	0xd3
 6153 17f5 1C180000 		.4byte	0x181c
 6154 17f9 08       		.uleb128 0x8
 6155 17fa 626700   		.ascii	"bg\000"
 6156 17fd 19       		.byte	0x19
 6157 17fe D5       		.byte	0xd5
 6158 17ff CE060000 		.4byte	0x6ce
 6159 1803 00       		.byte	0
 6160 1804 08       		.uleb128 0x8
 6161 1805 72656C00 		.ascii	"rel\000"
 6162 1809 19       		.byte	0x19
 6163 180a D6       		.byte	0xd6
 6164 180b CE060000 		.4byte	0x6ce
 6165 180f 04       		.byte	0x4
 6166 1810 08       		.uleb128 0x8
 6167 1811 707200   		.ascii	"pr\000"
 6168 1814 19       		.byte	0x19
 6169 1815 D7       		.byte	0xd7
 6170 1816 CE060000 		.4byte	0x6ce
 6171 181a 08       		.byte	0x8
 6172 181b 00       		.byte	0
 6173 181c 06       		.uleb128 0x6
 6174 181d 10       		.byte	0x10
 6175 181e 19       		.byte	0x19
 6176 181f D0       		.byte	0xd0
 6177 1820 3C180000 		.4byte	0x183c
 6178 1824 08       		.uleb128 0x8
 6179 1825 626700   		.ascii	"bg\000"
 6180 1828 19       		.byte	0x19
 6181 1829 D2       		.byte	0xd2
 6182 182a CE060000 		.4byte	0x6ce
 6183 182e 00       		.byte	0
 6184 182f 08       		.uleb128 0x8
 6185 1830 62746E00 		.ascii	"btn\000"
 6186 1834 19       		.byte	0x19
 6187 1835 D8       		.byte	0xd8
 6188 1836 F1170000 		.4byte	0x17f1
 6189 183a 04       		.byte	0x4
 6190 183b 00       		.byte	0
 6191 183c 06       		.uleb128 0x6
 6192 183d 0C       		.byte	0xc
 6193 183e 19       		.byte	0x19
 6194 183f DD       		.byte	0xdd
 6195 1840 67180000 		.4byte	0x1867
 6196 1844 08       		.uleb128 0x8
 6197 1845 626700   		.ascii	"bg\000"
 6198 1848 19       		.byte	0x19
 6199 1849 DF       		.byte	0xdf
 6200 184a CE060000 		.4byte	0x6ce
ARM GAS  C:\Users\tmj32\AppData\Local\Temp\ccT5YJ50.s 			page 142


 6201 184e 00       		.byte	0
 6202 184f 07       		.uleb128 0x7
 6203 1850 A0040000 		.4byte	.LASF328
 6204 1854 19       		.byte	0x19
 6205 1855 E0       		.byte	0xe0
 6206 1856 CE060000 		.4byte	0x6ce
 6207 185a 04       		.byte	0x4
 6208 185b 08       		.uleb128 0x8
 6209 185c 736200   		.ascii	"sb\000"
 6210 185f 19       		.byte	0x19
 6211 1860 E1       		.byte	0xe1
 6212 1861 CE060000 		.4byte	0x6ce
 6213 1865 08       		.byte	0x8
 6214 1866 00       		.byte	0
 6215 1867 06       		.uleb128 0x6
 6216 1868 10       		.byte	0x10
 6217 1869 19       		.byte	0x19
 6218 186a E6       		.byte	0xe6
 6219 186b 9F180000 		.4byte	0x189f
 6220 186f 07       		.uleb128 0x7
 6221 1870 E8080000 		.4byte	.LASF120
 6222 1874 19       		.byte	0x19
 6223 1875 E8       		.byte	0xe8
 6224 1876 CE060000 		.4byte	0x6ce
 6225 187a 00       		.byte	0
 6226 187b 07       		.uleb128 0x7
 6227 187c CA0A0000 		.4byte	.LASF386
 6228 1880 19       		.byte	0x19
 6229 1881 E9       		.byte	0xe9
 6230 1882 CE060000 		.4byte	0x6ce
 6231 1886 04       		.byte	0x4
 6232 1887 07       		.uleb128 0x7
 6233 1888 F7170000 		.4byte	.LASF208
 6234 188c 19       		.byte	0x19
 6235 188d EA       		.byte	0xea
 6236 188e CE060000 		.4byte	0x6ce
 6237 1892 08       		.byte	0x8
 6238 1893 08       		.uleb128 0x8
 6239 1894 736200   		.ascii	"sb\000"
 6240 1897 19       		.byte	0x19
 6241 1898 EB       		.byte	0xeb
 6242 1899 CE060000 		.4byte	0x6ce
 6243 189d 0C       		.byte	0xc
 6244 189e 00       		.byte	0
 6245 189f 06       		.uleb128 0x6
 6246 18a0 0C       		.byte	0xc
 6247 18a1 19       		.byte	0x19
 6248 18a2 F0       		.byte	0xf0
 6249 18a3 CA180000 		.4byte	0x18ca
 6250 18a7 08       		.uleb128 0x8
 6251 18a8 626700   		.ascii	"bg\000"
 6252 18ab 19       		.byte	0x19
 6253 18ac F2       		.byte	0xf2
 6254 18ad CE060000 		.4byte	0x6ce
 6255 18b1 00       		.byte	0
 6256 18b2 07       		.uleb128 0x7
 6257 18b3 F7170000 		.4byte	.LASF208
ARM GAS  C:\Users\tmj32\AppData\Local\Temp\ccT5YJ50.s 			page 143


 6258 18b7 19       		.byte	0x19
 6259 18b8 F3       		.byte	0xf3
 6260 18b9 CE060000 		.4byte	0x6ce
 6261 18bd 04       		.byte	0x4
 6262 18be 08       		.uleb128 0x8
 6263 18bf 736200   		.ascii	"sb\000"
 6264 18c2 19       		.byte	0x19
 6265 18c3 F4       		.byte	0xf4
 6266 18c4 CE060000 		.4byte	0x6ce
 6267 18c8 08       		.byte	0x8
 6268 18c9 00       		.byte	0
 6269 18ca 06       		.uleb128 0x6
 6270 18cb 14       		.byte	0x14
 6271 18cc 19       		.byte	0x19
 6272 18cd FE       		.byte	0xfe
 6273 18ce 13190000 		.4byte	0x1913
 6274 18d2 1E       		.uleb128 0x1e
 6275 18d3 72656C00 		.ascii	"rel\000"
 6276 18d7 19       		.byte	0x19
 6277 18d8 0001     		.2byte	0x100
 6278 18da CE060000 		.4byte	0x6ce
 6279 18de 00       		.byte	0
 6280 18df 1E       		.uleb128 0x1e
 6281 18e0 707200   		.ascii	"pr\000"
 6282 18e3 19       		.byte	0x19
 6283 18e4 0101     		.2byte	0x101
 6284 18e6 CE060000 		.4byte	0x6ce
 6285 18ea 04       		.byte	0x4
 6286 18eb 1F       		.uleb128 0x1f
 6287 18ec 540D0000 		.4byte	.LASF368
 6288 18f0 19       		.byte	0x19
 6289 18f1 0201     		.2byte	0x102
 6290 18f3 CE060000 		.4byte	0x6ce
 6291 18f7 08       		.byte	0x8
 6292 18f8 1F       		.uleb128 0x1f
 6293 18f9 74040000 		.4byte	.LASF369
 6294 18fd 19       		.byte	0x19
 6295 18fe 0301     		.2byte	0x103
 6296 1900 CE060000 		.4byte	0x6ce
 6297 1904 0C       		.byte	0xc
 6298 1905 1E       		.uleb128 0x1e
 6299 1906 696E6100 		.ascii	"ina\000"
 6300 190a 19       		.byte	0x19
 6301 190b 0401     		.2byte	0x104
 6302 190d CE060000 		.4byte	0x6ce
 6303 1911 10       		.byte	0x10
 6304 1912 00       		.byte	0
 6305 1913 06       		.uleb128 0x6
 6306 1914 20       		.byte	0x20
 6307 1915 19       		.byte	0x19
 6308 1916 F9       		.byte	0xf9
 6309 1917 4B190000 		.4byte	0x194b
 6310 191b 08       		.uleb128 0x8
 6311 191c 626700   		.ascii	"bg\000"
 6312 191f 19       		.byte	0x19
 6313 1920 FB       		.byte	0xfb
 6314 1921 CE060000 		.4byte	0x6ce
ARM GAS  C:\Users\tmj32\AppData\Local\Temp\ccT5YJ50.s 			page 144


 6315 1925 00       		.byte	0
 6316 1926 07       		.uleb128 0x7
 6317 1927 A0040000 		.4byte	.LASF328
 6318 192b 19       		.byte	0x19
 6319 192c FC       		.byte	0xfc
 6320 192d CE060000 		.4byte	0x6ce
 6321 1931 04       		.byte	0x4
 6322 1932 08       		.uleb128 0x8
 6323 1933 736200   		.ascii	"sb\000"
 6324 1936 19       		.byte	0x19
 6325 1937 FD       		.byte	0xfd
 6326 1938 CE060000 		.4byte	0x6ce
 6327 193c 08       		.byte	0x8
 6328 193d 1E       		.uleb128 0x1e
 6329 193e 62746E00 		.ascii	"btn\000"
 6330 1942 19       		.byte	0x19
 6331 1943 0501     		.2byte	0x105
 6332 1945 CA180000 		.4byte	0x18ca
 6333 1949 0C       		.byte	0xc
 6334 194a 00       		.byte	0
 6335 194b 20       		.uleb128 0x20
 6336 194c 0C       		.byte	0xc
 6337 194d 19       		.byte	0x19
 6338 194e 0A01     		.2byte	0x10a
 6339 1950 7A190000 		.4byte	0x197a
 6340 1954 1E       		.uleb128 0x1e
 6341 1955 626700   		.ascii	"bg\000"
 6342 1958 19       		.byte	0x19
 6343 1959 0C01     		.2byte	0x10c
 6344 195b CE060000 		.4byte	0x6ce
 6345 195f 00       		.byte	0
 6346 1960 1E       		.uleb128 0x1e
 6347 1961 73656C00 		.ascii	"sel\000"
 6348 1965 19       		.byte	0x19
 6349 1966 0D01     		.2byte	0x10d
 6350 1968 CE060000 		.4byte	0x6ce
 6351 196c 04       		.byte	0x4
 6352 196d 1E       		.uleb128 0x1e
 6353 196e 736200   		.ascii	"sb\000"
 6354 1971 19       		.byte	0x19
 6355 1972 0E01     		.2byte	0x10e
 6356 1974 CE060000 		.4byte	0x6ce
 6357 1978 08       		.byte	0x8
 6358 1979 00       		.byte	0
 6359 197a 20       		.uleb128 0x20
 6360 197b 08       		.byte	0x8
 6361 197c 19       		.byte	0x19
 6362 197d 1301     		.2byte	0x113
 6363 197f 9D190000 		.4byte	0x199d
 6364 1983 1E       		.uleb128 0x1e
 6365 1984 626700   		.ascii	"bg\000"
 6366 1987 19       		.byte	0x19
 6367 1988 1501     		.2byte	0x115
 6368 198a CE060000 		.4byte	0x6ce
 6369 198e 00       		.byte	0
 6370 198f 1E       		.uleb128 0x1e
 6371 1990 73656C00 		.ascii	"sel\000"
ARM GAS  C:\Users\tmj32\AppData\Local\Temp\ccT5YJ50.s 			page 145


 6372 1994 19       		.byte	0x19
 6373 1995 1601     		.2byte	0x116
 6374 1997 CE060000 		.4byte	0x6ce
 6375 199b 04       		.byte	0x4
 6376 199c 00       		.byte	0
 6377 199d 20       		.uleb128 0x20
 6378 199e 14       		.byte	0x14
 6379 199f 19       		.byte	0x19
 6380 19a0 1F01     		.2byte	0x11f
 6381 19a2 E6190000 		.4byte	0x19e6
 6382 19a6 1E       		.uleb128 0x1e
 6383 19a7 626700   		.ascii	"bg\000"
 6384 19aa 19       		.byte	0x19
 6385 19ab 2101     		.2byte	0x121
 6386 19ad CE060000 		.4byte	0x6ce
 6387 19b1 00       		.byte	0
 6388 19b2 1E       		.uleb128 0x1e
 6389 19b3 72656C00 		.ascii	"rel\000"
 6390 19b7 19       		.byte	0x19
 6391 19b8 2201     		.2byte	0x122
 6392 19ba CE060000 		.4byte	0x6ce
 6393 19be 04       		.byte	0x4
 6394 19bf 1E       		.uleb128 0x1e
 6395 19c0 707200   		.ascii	"pr\000"
 6396 19c3 19       		.byte	0x19
 6397 19c4 2301     		.2byte	0x123
 6398 19c6 CE060000 		.4byte	0x6ce
 6399 19ca 08       		.byte	0x8
 6400 19cb 1F       		.uleb128 0x1f
 6401 19cc 540D0000 		.4byte	.LASF368
 6402 19d0 19       		.byte	0x19
 6403 19d1 2401     		.2byte	0x124
 6404 19d3 CE060000 		.4byte	0x6ce
 6405 19d7 0C       		.byte	0xc
 6406 19d8 1F       		.uleb128 0x1f
 6407 19d9 74040000 		.4byte	.LASF369
 6408 19dd 19       		.byte	0x19
 6409 19de 2501     		.2byte	0x125
 6410 19e0 CE060000 		.4byte	0x6ce
 6411 19e4 10       		.byte	0x10
 6412 19e5 00       		.byte	0
 6413 19e6 20       		.uleb128 0x20
 6414 19e7 1C       		.byte	0x1c
 6415 19e8 19       		.byte	0x19
 6416 19e9 1B01     		.2byte	0x11b
 6417 19eb 161A0000 		.4byte	0x1a16
 6418 19ef 1E       		.uleb128 0x1e
 6419 19f0 626700   		.ascii	"bg\000"
 6420 19f3 19       		.byte	0x19
 6421 19f4 1D01     		.2byte	0x11d
 6422 19f6 CE060000 		.4byte	0x6ce
 6423 19fa 00       		.byte	0
 6424 19fb 1F       		.uleb128 0x1f
 6425 19fc 1D0C0000 		.4byte	.LASF375
 6426 1a00 19       		.byte	0x19
 6427 1a01 1E01     		.2byte	0x11e
 6428 1a03 CE060000 		.4byte	0x6ce
ARM GAS  C:\Users\tmj32\AppData\Local\Temp\ccT5YJ50.s 			page 146


 6429 1a07 04       		.byte	0x4
 6430 1a08 1E       		.uleb128 0x1e
 6431 1a09 62746E00 		.ascii	"btn\000"
 6432 1a0d 19       		.byte	0x19
 6433 1a0e 2601     		.2byte	0x126
 6434 1a10 9D190000 		.4byte	0x199d
 6435 1a14 08       		.byte	0x8
 6436 1a15 00       		.byte	0
 6437 1a16 20       		.uleb128 0x20
 6438 1a17 0C       		.byte	0xc
 6439 1a18 19       		.byte	0x19
 6440 1a19 2B01     		.2byte	0x12b
 6441 1a1b 451A0000 		.4byte	0x1a45
 6442 1a1f 1E       		.uleb128 0x1e
 6443 1a20 626700   		.ascii	"bg\000"
 6444 1a23 19       		.byte	0x19
 6445 1a24 2D01     		.2byte	0x12d
 6446 1a26 CE060000 		.4byte	0x6ce
 6447 1a2a 00       		.byte	0
 6448 1a2b 1F       		.uleb128 0x1f
 6449 1a2c A0040000 		.4byte	.LASF328
 6450 1a30 19       		.byte	0x19
 6451 1a31 2E01     		.2byte	0x12e
 6452 1a33 CE060000 		.4byte	0x6ce
 6453 1a37 04       		.byte	0x4
 6454 1a38 1E       		.uleb128 0x1e
 6455 1a39 736200   		.ascii	"sb\000"
 6456 1a3c 19       		.byte	0x19
 6457 1a3d 2F01     		.2byte	0x12f
 6458 1a3f CE060000 		.4byte	0x6ce
 6459 1a43 08       		.byte	0x8
 6460 1a44 00       		.byte	0
 6461 1a45 20       		.uleb128 0x20
 6462 1a46 08       		.byte	0x8
 6463 1a47 19       		.byte	0x19
 6464 1a48 3401     		.2byte	0x134
 6465 1a4a 681A0000 		.4byte	0x1a68
 6466 1a4e 1E       		.uleb128 0x1e
 6467 1a4f 626700   		.ascii	"bg\000"
 6468 1a52 19       		.byte	0x19
 6469 1a53 3601     		.2byte	0x136
 6470 1a55 CE060000 		.4byte	0x6ce
 6471 1a59 00       		.byte	0
 6472 1a5a 1F       		.uleb128 0x1f
 6473 1a5b 7E000000 		.4byte	.LASF387
 6474 1a5f 19       		.byte	0x19
 6475 1a60 3701     		.2byte	0x137
 6476 1a62 CE060000 		.4byte	0x6ce
 6477 1a66 04       		.byte	0x4
 6478 1a67 00       		.byte	0
 6479 1a68 20       		.uleb128 0x20
 6480 1a69 08       		.byte	0x8
 6481 1a6a 19       		.byte	0x19
 6482 1a6b 4201     		.2byte	0x142
 6483 1a6d 8B1A0000 		.4byte	0x1a8b
 6484 1a71 1E       		.uleb128 0x1e
 6485 1a72 72656C00 		.ascii	"rel\000"
ARM GAS  C:\Users\tmj32\AppData\Local\Temp\ccT5YJ50.s 			page 147


 6486 1a76 19       		.byte	0x19
 6487 1a77 4401     		.2byte	0x144
 6488 1a79 CE060000 		.4byte	0x6ce
 6489 1a7d 00       		.byte	0
 6490 1a7e 1E       		.uleb128 0x1e
 6491 1a7f 707200   		.ascii	"pr\000"
 6492 1a82 19       		.byte	0x19
 6493 1a83 4501     		.2byte	0x145
 6494 1a85 CE060000 		.4byte	0x6ce
 6495 1a89 04       		.byte	0x4
 6496 1a8a 00       		.byte	0
 6497 1a8b 20       		.uleb128 0x20
 6498 1a8c 18       		.byte	0x18
 6499 1a8d 19       		.byte	0x19
 6500 1a8e 3C01     		.2byte	0x13c
 6501 1a90 D41A0000 		.4byte	0x1ad4
 6502 1a94 1E       		.uleb128 0x1e
 6503 1a95 626700   		.ascii	"bg\000"
 6504 1a98 19       		.byte	0x19
 6505 1a99 3E01     		.2byte	0x13e
 6506 1a9b CE060000 		.4byte	0x6ce
 6507 1a9f 00       		.byte	0
 6508 1aa0 1E       		.uleb128 0x1e
 6509 1aa1 736200   		.ascii	"sb\000"
 6510 1aa4 19       		.byte	0x19
 6511 1aa5 3F01     		.2byte	0x13f
 6512 1aa7 CE060000 		.4byte	0x6ce
 6513 1aab 04       		.byte	0x4
 6514 1aac 1F       		.uleb128 0x1f
 6515 1aad 65050000 		.4byte	.LASF379
 6516 1ab1 19       		.byte	0x19
 6517 1ab2 4001     		.2byte	0x140
 6518 1ab4 CE060000 		.4byte	0x6ce
 6519 1ab8 08       		.byte	0x8
 6520 1ab9 1F       		.uleb128 0x1f
 6521 1aba B9150000 		.4byte	.LASF388
 6522 1abe 19       		.byte	0x19
 6523 1abf 4101     		.2byte	0x141
 6524 1ac1 CE060000 		.4byte	0x6ce
 6525 1ac5 0C       		.byte	0xc
 6526 1ac6 1E       		.uleb128 0x1e
 6527 1ac7 62746E00 		.ascii	"btn\000"
 6528 1acb 19       		.byte	0x19
 6529 1acc 4601     		.2byte	0x146
 6530 1ace 681A0000 		.4byte	0x1a68
 6531 1ad2 10       		.byte	0x10
 6532 1ad3 00       		.byte	0
 6533 1ad4 21       		.uleb128 0x21
 6534 1ad5 A801     		.2byte	0x1a8
 6535 1ad7 19       		.byte	0x19
 6536 1ad8 29       		.byte	0x29
 6537 1ad9 761C0000 		.4byte	0x1c76
 6538 1add 08       		.uleb128 0x8
 6539 1ade 73637200 		.ascii	"scr\000"
 6540 1ae2 19       		.byte	0x19
 6541 1ae3 2B       		.byte	0x2b
 6542 1ae4 CE060000 		.4byte	0x6ce
ARM GAS  C:\Users\tmj32\AppData\Local\Temp\ccT5YJ50.s 			page 148


 6543 1ae8 00       		.byte	0
 6544 1ae9 08       		.uleb128 0x8
 6545 1aea 626700   		.ascii	"bg\000"
 6546 1aed 19       		.byte	0x19
 6547 1aee 2C       		.byte	0x2c
 6548 1aef CE060000 		.4byte	0x6ce
 6549 1af3 04       		.byte	0x4
 6550 1af4 07       		.uleb128 0x7
 6551 1af5 7E120000 		.4byte	.LASF389
 6552 1af9 19       		.byte	0x19
 6553 1afa 2D       		.byte	0x2d
 6554 1afb CE060000 		.4byte	0x6ce
 6555 1aff 08       		.byte	0x8
 6556 1b00 07       		.uleb128 0x7
 6557 1b01 83020000 		.4byte	.LASF390
 6558 1b05 19       		.byte	0x19
 6559 1b06 30       		.byte	0x30
 6560 1b07 CE060000 		.4byte	0x6ce
 6561 1b0b 0C       		.byte	0xc
 6562 1b0c 08       		.uleb128 0x8
 6563 1b0d 62746E00 		.ascii	"btn\000"
 6564 1b11 19       		.byte	0x19
 6565 1b12 3B       		.byte	0x3b
 6566 1b13 EE140000 		.4byte	0x14ee
 6567 1b17 10       		.byte	0x10
 6568 1b18 07       		.uleb128 0x7
 6569 1b19 50120000 		.4byte	.LASF391
 6570 1b1d 19       		.byte	0x19
 6571 1b1e 46       		.byte	0x46
 6572 1b1f 32150000 		.4byte	0x1532
 6573 1b23 24       		.byte	0x24
 6574 1b24 07       		.uleb128 0x7
 6575 1b25 16170000 		.4byte	.LASF346
 6576 1b29 19       		.byte	0x19
 6577 1b2a 4F       		.byte	0x4f
 6578 1b2b 76150000 		.4byte	0x1576
 6579 1b2f 38       		.byte	0x38
 6580 1b30 08       		.uleb128 0x8
 6581 1b31 696D6700 		.ascii	"img\000"
 6582 1b35 19       		.byte	0x19
 6583 1b36 57       		.byte	0x57
 6584 1b37 A3150000 		.4byte	0x15a3
 6585 1b3b 44       		.byte	0x44
 6586 1b3c 07       		.uleb128 0x7
 6587 1b3d B1090000 		.4byte	.LASF96
 6588 1b41 19       		.byte	0x19
 6589 1b42 5E       		.byte	0x5e
 6590 1b43 C4150000 		.4byte	0x15c4
 6591 1b47 4C       		.byte	0x4c
 6592 1b48 08       		.uleb128 0x8
 6593 1b49 6C656400 		.ascii	"led\000"
 6594 1b4d 19       		.byte	0x19
 6595 1b4e 62       		.byte	0x62
 6596 1b4f CE060000 		.4byte	0x6ce
 6597 1b53 50       		.byte	0x50
 6598 1b54 08       		.uleb128 0x8
 6599 1b55 62617200 		.ascii	"bar\000"
ARM GAS  C:\Users\tmj32\AppData\Local\Temp\ccT5YJ50.s 			page 149


 6600 1b59 19       		.byte	0x19
 6601 1b5a 6A       		.byte	0x6a
 6602 1b5b D9150000 		.4byte	0x15d9
 6603 1b5f 54       		.byte	0x54
 6604 1b60 07       		.uleb128 0x7
 6605 1b61 1F0A0000 		.4byte	.LASF392
 6606 1b65 19       		.byte	0x19
 6607 1b66 73       		.byte	0x73
 6608 1b67 F9150000 		.4byte	0x15f9
 6609 1b6b 5C       		.byte	0x5c
 6610 1b6c 07       		.uleb128 0x7
 6611 1b6d 1E010000 		.4byte	.LASF393
 6612 1b71 19       		.byte	0x19
 6613 1b72 77       		.byte	0x77
 6614 1b73 CE060000 		.4byte	0x6ce
 6615 1b77 68       		.byte	0x68
 6616 1b78 07       		.uleb128 0x7
 6617 1b79 2F0E0000 		.4byte	.LASF394
 6618 1b7d 19       		.byte	0x19
 6619 1b7e 7B       		.byte	0x7b
 6620 1b7f CE060000 		.4byte	0x6ce
 6621 1b83 6C       		.byte	0x6c
 6622 1b84 08       		.uleb128 0x8
 6623 1b85 61726300 		.ascii	"arc\000"
 6624 1b89 19       		.byte	0x19
 6625 1b8a 7F       		.byte	0x7f
 6626 1b8b CE060000 		.4byte	0x6ce
 6627 1b8f 70       		.byte	0x70
 6628 1b90 07       		.uleb128 0x7
 6629 1b91 8C170000 		.4byte	.LASF395
 6630 1b95 19       		.byte	0x19
 6631 1b96 83       		.byte	0x83
 6632 1b97 CE060000 		.4byte	0x6ce
 6633 1b9b 74       		.byte	0x74
 6634 1b9c 08       		.uleb128 0x8
 6635 1b9d 737700   		.ascii	"sw\000"
 6636 1ba0 19       		.byte	0x19
 6637 1ba1 8D       		.byte	0x8d
 6638 1ba2 25160000 		.4byte	0x1625
 6639 1ba6 78       		.byte	0x78
 6640 1ba7 07       		.uleb128 0x7
 6641 1ba8 EA030000 		.4byte	.LASF396
 6642 1bac 19       		.byte	0x19
 6643 1bad 91       		.byte	0x91
 6644 1bae CE060000 		.4byte	0x6ce
 6645 1bb2 88       		.byte	0x88
 6646 1bb3 07       		.uleb128 0x7
 6647 1bb4 D7070000 		.4byte	.LASF397
 6648 1bb8 19       		.byte	0x19
 6649 1bb9 9F       		.byte	0x9f
 6650 1bba 5D160000 		.4byte	0x165d
 6651 1bbe 8C       		.byte	0x8c
 6652 1bbf 08       		.uleb128 0x8
 6653 1bc0 636200   		.ascii	"cb\000"
 6654 1bc3 19       		.byte	0x19
 6655 1bc4 AE       		.byte	0xae
 6656 1bc5 09170000 		.4byte	0x1709
ARM GAS  C:\Users\tmj32\AppData\Local\Temp\ccT5YJ50.s 			page 150


 6657 1bc9 AC       		.byte	0xac
 6658 1bca 07       		.uleb128 0x7
 6659 1bcb FD030000 		.4byte	.LASF398
 6660 1bcf 19       		.byte	0x19
 6661 1bd0 BD       		.byte	0xbd
 6662 1bd1 6D170000 		.4byte	0x176d
 6663 1bd5 C4       		.byte	0xc4
 6664 1bd6 08       		.uleb128 0x8
 6665 1bd7 6B6200   		.ascii	"kb\000"
 6666 1bda 19       		.byte	0x19
 6667 1bdb CC       		.byte	0xcc
 6668 1bdc D1170000 		.4byte	0x17d1
 6669 1be0 DC       		.byte	0xdc
 6670 1be1 07       		.uleb128 0x7
 6671 1be2 3E0D0000 		.4byte	.LASF399
 6672 1be6 19       		.byte	0x19
 6673 1be7 D9       		.byte	0xd9
 6674 1be8 1C180000 		.4byte	0x181c
 6675 1bec F4       		.byte	0xf4
 6676 1bed 18       		.uleb128 0x18
 6677 1bee 190E0000 		.4byte	.LASF345
 6678 1bf2 19       		.byte	0x19
 6679 1bf3 E2       		.byte	0xe2
 6680 1bf4 3C180000 		.4byte	0x183c
 6681 1bf8 0401     		.2byte	0x104
 6682 1bfa 22       		.uleb128 0x22
 6683 1bfb 746100   		.ascii	"ta\000"
 6684 1bfe 19       		.byte	0x19
 6685 1bff EC       		.byte	0xec
 6686 1c00 67180000 		.4byte	0x1867
 6687 1c04 1001     		.2byte	0x110
 6688 1c06 18       		.uleb128 0x18
 6689 1c07 8D140000 		.4byte	.LASF400
 6690 1c0b 19       		.byte	0x19
 6691 1c0c F5       		.byte	0xf5
 6692 1c0d 9F180000 		.4byte	0x189f
 6693 1c11 2001     		.2byte	0x120
 6694 1c13 23       		.uleb128 0x23
 6695 1c14 EE0D0000 		.4byte	.LASF401
 6696 1c18 19       		.byte	0x19
 6697 1c19 0601     		.2byte	0x106
 6698 1c1b 13190000 		.4byte	0x1913
 6699 1c1f 2C01     		.2byte	0x12c
 6700 1c21 23       		.uleb128 0x23
 6701 1c22 05070000 		.4byte	.LASF363
 6702 1c26 19       		.byte	0x19
 6703 1c27 0F01     		.2byte	0x10f
 6704 1c29 4B190000 		.4byte	0x194b
 6705 1c2d 4C01     		.2byte	0x14c
 6706 1c2f 23       		.uleb128 0x23
 6707 1c30 56180000 		.4byte	.LASF402
 6708 1c34 19       		.byte	0x19
 6709 1c35 1701     		.2byte	0x117
 6710 1c37 7A190000 		.4byte	0x197a
 6711 1c3b 5801     		.2byte	0x158
 6712 1c3d 23       		.uleb128 0x23
 6713 1c3e 650C0000 		.4byte	.LASF403
ARM GAS  C:\Users\tmj32\AppData\Local\Temp\ccT5YJ50.s 			page 151


 6714 1c42 19       		.byte	0x19
 6715 1c43 2701     		.2byte	0x127
 6716 1c45 E6190000 		.4byte	0x19e6
 6717 1c49 6001     		.2byte	0x160
 6718 1c4b 23       		.uleb128 0x23
 6719 1c4c 74030000 		.4byte	.LASF404
 6720 1c50 19       		.byte	0x19
 6721 1c51 3001     		.2byte	0x130
 6722 1c53 161A0000 		.4byte	0x1a16
 6723 1c57 7C01     		.2byte	0x17c
 6724 1c59 23       		.uleb128 0x23
 6725 1c5a 99050000 		.4byte	.LASF405
 6726 1c5e 19       		.byte	0x19
 6727 1c5f 3801     		.2byte	0x138
 6728 1c61 451A0000 		.4byte	0x1a45
 6729 1c65 8801     		.2byte	0x188
 6730 1c67 24       		.uleb128 0x24
 6731 1c68 77696E00 		.ascii	"win\000"
 6732 1c6c 19       		.byte	0x19
 6733 1c6d 4701     		.2byte	0x147
 6734 1c6f 8B1A0000 		.4byte	0x1a8b
 6735 1c73 9001     		.2byte	0x190
 6736 1c75 00       		.byte	0
 6737 1c76 21       		.uleb128 0x21
 6738 1c77 A801     		.2byte	0x1a8
 6739 1c79 19       		.byte	0x19
 6740 1c7a 27       		.byte	0x27
 6741 1c7b 8D1C0000 		.4byte	0x1c8d
 6742 1c7f 1F       		.uleb128 0x1f
 6743 1c80 DB0E0000 		.4byte	.LASF317
 6744 1c84 19       		.byte	0x19
 6745 1c85 4901     		.2byte	0x149
 6746 1c87 D41A0000 		.4byte	0x1ad4
 6747 1c8b 00       		.byte	0
 6748 1c8c 00       		.byte	0
 6749 1c8d 12       		.uleb128 0x12
 6750 1c8e 12080000 		.4byte	.LASF406
 6751 1c92 19       		.byte	0x19
 6752 1c93 5401     		.2byte	0x154
 6753 1c95 761C0000 		.4byte	0x1c76
 6754 1c99 25       		.uleb128 0x25
 6755 1c9a 93000000 		.4byte	.LASF409
 6756 1c9e 01       		.byte	0x1
 6757 1c9f 7C       		.byte	0x7c
 6758 1ca0 B8000000 		.4byte	0xb8
 6759 1ca4 00000000 		.4byte	.LFB0
 6760 1ca8 18000000 		.4byte	.LFE0-.LFB0
 6761 1cac 01       		.uleb128 0x1
 6762 1cad 9C       		.byte	0x9c
 6763 1cae C11C0000 		.4byte	0x1cc1
 6764 1cb2 26       		.uleb128 0x26
 6765 1cb3 94150000 		.4byte	.LASF407
 6766 1cb7 01       		.byte	0x1
 6767 1cb8 7C       		.byte	0x7c
 6768 1cb9 07060000 		.4byte	0x607
 6769 1cbd 02       		.uleb128 0x2
 6770 1cbe 91       		.byte	0x91
ARM GAS  C:\Users\tmj32\AppData\Local\Temp\ccT5YJ50.s 			page 152


 6771 1cbf 74       		.sleb128 -12
 6772 1cc0 00       		.byte	0
 6773 1cc1 27       		.uleb128 0x27
 6774 1cc2 C9050000 		.4byte	.LASF413
 6775 1cc6 02       		.byte	0x2
 6776 1cc7 4C       		.byte	0x4c
 6777 1cc8 00000000 		.4byte	.LFB10
 6778 1ccc 1C000000 		.4byte	.LFE10-.LFB10
 6779 1cd0 01       		.uleb128 0x1
 6780 1cd1 9C       		.byte	0x9c
 6781 1cd2 F31C0000 		.4byte	0x1cf3
 6782 1cd6 26       		.uleb128 0x26
 6783 1cd7 9D120000 		.4byte	.LASF408
 6784 1cdb 02       		.byte	0x2
 6785 1cdc 4C       		.byte	0x4c
 6786 1cdd FC080000 		.4byte	0x8fc
 6787 1ce1 02       		.uleb128 0x2
 6788 1ce2 91       		.byte	0x91
 6789 1ce3 74       		.sleb128 -12
 6790 1ce4 28       		.uleb128 0x28
 6791 1ce5 73726300 		.ascii	"src\000"
 6792 1ce9 02       		.byte	0x2
 6793 1cea 4C       		.byte	0x4c
 6794 1ceb D5080000 		.4byte	0x8d5
 6795 1cef 02       		.uleb128 0x2
 6796 1cf0 91       		.byte	0x91
 6797 1cf1 70       		.sleb128 -16
 6798 1cf2 00       		.byte	0
 6799 1cf3 25       		.uleb128 0x25
 6800 1cf4 0F150000 		.4byte	.LASF410
 6801 1cf8 02       		.byte	0x2
 6802 1cf9 56       		.byte	0x56
 6803 1cfa EF000000 		.4byte	0xef
 6804 1cfe 00000000 		.4byte	.LFB11
 6805 1d02 2E000000 		.4byte	.LFE11-.LFB11
 6806 1d06 01       		.uleb128 0x1
 6807 1d07 9C       		.byte	0x9c
 6808 1d08 1B1D0000 		.4byte	0x1d1b
 6809 1d0c 26       		.uleb128 0x26
 6810 1d0d D6030000 		.4byte	.LASF411
 6811 1d11 02       		.byte	0x2
 6812 1d12 56       		.byte	0x56
 6813 1d13 D5080000 		.4byte	0x8d5
 6814 1d17 02       		.uleb128 0x2
 6815 1d18 91       		.byte	0x91
 6816 1d19 74       		.sleb128 -12
 6817 1d1a 00       		.byte	0
 6818 1d1b 25       		.uleb128 0x25
 6819 1d1c 04110000 		.4byte	.LASF412
 6820 1d20 02       		.byte	0x2
 6821 1d21 60       		.byte	0x60
 6822 1d22 EF000000 		.4byte	0xef
 6823 1d26 00000000 		.4byte	.LFB12
 6824 1d2a 2E000000 		.4byte	.LFE12-.LFB12
 6825 1d2e 01       		.uleb128 0x1
 6826 1d2f 9C       		.byte	0x9c
 6827 1d30 431D0000 		.4byte	0x1d43
ARM GAS  C:\Users\tmj32\AppData\Local\Temp\ccT5YJ50.s 			page 153


 6828 1d34 26       		.uleb128 0x26
 6829 1d35 D6030000 		.4byte	.LASF411
 6830 1d39 02       		.byte	0x2
 6831 1d3a 60       		.byte	0x60
 6832 1d3b D5080000 		.4byte	0x8d5
 6833 1d3f 02       		.uleb128 0x2
 6834 1d40 91       		.byte	0x91
 6835 1d41 74       		.sleb128 -12
 6836 1d42 00       		.byte	0
 6837 1d43 27       		.uleb128 0x27
 6838 1d44 1A070000 		.4byte	.LASF414
 6839 1d48 03       		.byte	0x3
 6840 1d49 79       		.byte	0x79
 6841 1d4a 00000000 		.4byte	.LFB31
 6842 1d4e 2A000000 		.4byte	.LFE31-.LFB31
 6843 1d52 01       		.uleb128 0x1
 6844 1d53 9C       		.byte	0x9c
 6845 1d54 831D0000 		.4byte	0x1d83
 6846 1d58 26       		.uleb128 0x26
 6847 1d59 83020000 		.4byte	.LASF390
 6848 1d5d 03       		.byte	0x3
 6849 1d5e 79       		.byte	0x79
 6850 1d5f 3D130000 		.4byte	0x133d
 6851 1d63 02       		.uleb128 0x2
 6852 1d64 91       		.byte	0x91
 6853 1d65 74       		.sleb128 -12
 6854 1d66 28       		.uleb128 0x28
 6855 1d67 686F7200 		.ascii	"hor\000"
 6856 1d6b 03       		.byte	0x3
 6857 1d6c 79       		.byte	0x79
 6858 1d6d 4C110000 		.4byte	0x114c
 6859 1d71 02       		.uleb128 0x2
 6860 1d72 91       		.byte	0x91
 6861 1d73 73       		.sleb128 -13
 6862 1d74 28       		.uleb128 0x28
 6863 1d75 76657200 		.ascii	"ver\000"
 6864 1d79 03       		.byte	0x3
 6865 1d7a 79       		.byte	0x79
 6866 1d7b 4C110000 		.4byte	0x114c
 6867 1d7f 02       		.uleb128 0x2
 6868 1d80 91       		.byte	0x91
 6869 1d81 72       		.sleb128 -14
 6870 1d82 00       		.byte	0
 6871 1d83 27       		.uleb128 0x27
 6872 1d84 51060000 		.4byte	.LASF415
 6873 1d88 04       		.byte	0x4
 6874 1d89 BC       		.byte	0xbc
 6875 1d8a 00000000 		.4byte	.LFB36
 6876 1d8e 28000000 		.4byte	.LFE36-.LFB36
 6877 1d92 01       		.uleb128 0x1
 6878 1d93 9C       		.byte	0x9c
 6879 1d94 C31D0000 		.4byte	0x1dc3
 6880 1d98 26       		.uleb128 0x26
 6881 1d99 190E0000 		.4byte	.LASF345
 6882 1d9d 04       		.byte	0x4
 6883 1d9e BC       		.byte	0xbc
 6884 1d9f 3D130000 		.4byte	0x133d
ARM GAS  C:\Users\tmj32\AppData\Local\Temp\ccT5YJ50.s 			page 154


 6885 1da3 02       		.uleb128 0x2
 6886 1da4 91       		.byte	0x91
 6887 1da5 74       		.sleb128 -12
 6888 1da6 28       		.uleb128 0x28
 6889 1da7 686F7200 		.ascii	"hor\000"
 6890 1dab 04       		.byte	0x4
 6891 1dac BC       		.byte	0xbc
 6892 1dad 4C110000 		.4byte	0x114c
 6893 1db1 02       		.uleb128 0x2
 6894 1db2 91       		.byte	0x91
 6895 1db3 73       		.sleb128 -13
 6896 1db4 28       		.uleb128 0x28
 6897 1db5 76657200 		.ascii	"ver\000"
 6898 1db9 04       		.byte	0x4
 6899 1dba BC       		.byte	0xbc
 6900 1dbb 4C110000 		.4byte	0x114c
 6901 1dbf 02       		.uleb128 0x2
 6902 1dc0 91       		.byte	0x91
 6903 1dc1 72       		.sleb128 -14
 6904 1dc2 00       		.byte	0
 6905 1dc3 29       		.uleb128 0x29
 6906 1dc4 A8080000 		.4byte	.LASF416
 6907 1dc8 04       		.byte	0x4
 6908 1dc9 3C01     		.2byte	0x13c
 6909 1dcb 4C110000 		.4byte	0x114c
 6910 1dcf 00000000 		.4byte	.LFB44
 6911 1dd3 20000000 		.4byte	.LFE44-.LFB44
 6912 1dd7 01       		.uleb128 0x1
 6913 1dd8 9C       		.byte	0x9c
 6914 1dd9 ED1D0000 		.4byte	0x1ded
 6915 1ddd 2A       		.uleb128 0x2a
 6916 1dde 190E0000 		.4byte	.LASF345
 6917 1de2 04       		.byte	0x4
 6918 1de3 3C01     		.2byte	0x13c
 6919 1de5 ED1D0000 		.4byte	0x1ded
 6920 1de9 02       		.uleb128 0x2
 6921 1dea 91       		.byte	0x91
 6922 1deb 74       		.sleb128 -12
 6923 1dec 00       		.byte	0
 6924 1ded 0D       		.uleb128 0xd
 6925 1dee 04       		.byte	0x4
 6926 1def F31D0000 		.4byte	0x1df3
 6927 1df3 0E       		.uleb128 0xe
 6928 1df4 16110000 		.4byte	0x1116
 6929 1df8 27       		.uleb128 0x27
 6930 1df9 6C050000 		.4byte	.LASF417
 6931 1dfd 05       		.byte	0x5
 6932 1dfe 8D       		.byte	0x8d
 6933 1dff 00000000 		.4byte	.LFB51
 6934 1e03 1E000000 		.4byte	.LFE51-.LFB51
 6935 1e07 01       		.uleb128 0x1
 6936 1e08 9C       		.byte	0x9c
 6937 1e09 2A1E0000 		.4byte	0x1e2a
 6938 1e0d 26       		.uleb128 0x26
 6939 1e0e 05070000 		.4byte	.LASF363
 6940 1e12 05       		.byte	0x5
 6941 1e13 8D       		.byte	0x8d
ARM GAS  C:\Users\tmj32\AppData\Local\Temp\ccT5YJ50.s 			page 155


 6942 1e14 3D130000 		.4byte	0x133d
 6943 1e18 02       		.uleb128 0x2
 6944 1e19 91       		.byte	0x91
 6945 1e1a 74       		.sleb128 -12
 6946 1e1b 26       		.uleb128 0x26
 6947 1e1c 02060000 		.4byte	.LASF330
 6948 1e20 05       		.byte	0x5
 6949 1e21 8D       		.byte	0x8d
 6950 1e22 CE000000 		.4byte	0xce
 6951 1e26 02       		.uleb128 0x2
 6952 1e27 91       		.byte	0x91
 6953 1e28 72       		.sleb128 -14
 6954 1e29 00       		.byte	0
 6955 1e2a 2B       		.uleb128 0x2b
 6956 1e2b 41090000 		.4byte	.LASF418
 6957 1e2f 05       		.byte	0x5
 6958 1e30 DD       		.byte	0xdd
 6959 1e31 CE000000 		.4byte	0xce
 6960 1e35 00000000 		.4byte	.LFB53
 6961 1e39 18000000 		.4byte	.LFE53-.LFB53
 6962 1e3d 01       		.uleb128 0x1
 6963 1e3e 9C       		.byte	0x9c
 6964 1e3f 521E0000 		.4byte	0x1e52
 6965 1e43 26       		.uleb128 0x26
 6966 1e44 05070000 		.4byte	.LASF363
 6967 1e48 05       		.byte	0x5
 6968 1e49 DD       		.byte	0xdd
 6969 1e4a ED1D0000 		.4byte	0x1ded
 6970 1e4e 02       		.uleb128 0x2
 6971 1e4f 91       		.byte	0x91
 6972 1e50 74       		.sleb128 -12
 6973 1e51 00       		.byte	0
 6974 1e52 2B       		.uleb128 0x2b
 6975 1e53 39160000 		.4byte	.LASF419
 6976 1e57 06       		.byte	0x6
 6977 1e58 B6       		.byte	0xb6
 6978 1e59 CE000000 		.4byte	0xce
 6979 1e5d 00000000 		.4byte	.LFB58
 6980 1e61 18000000 		.4byte	.LFE58-.LFB58
 6981 1e65 01       		.uleb128 0x1
 6982 1e66 9C       		.byte	0x9c
 6983 1e67 7A1E0000 		.4byte	0x1e7a
 6984 1e6b 26       		.uleb128 0x26
 6985 1e6c 56180000 		.4byte	.LASF402
 6986 1e70 06       		.byte	0x6
 6987 1e71 B6       		.byte	0xb6
 6988 1e72 ED1D0000 		.4byte	0x1ded
 6989 1e76 02       		.uleb128 0x2
 6990 1e77 91       		.byte	0x91
 6991 1e78 74       		.sleb128 -12
 6992 1e79 00       		.byte	0
 6993 1e7a 2C       		.uleb128 0x2c
 6994 1e7b C50E0000 		.4byte	.LASF437
 6995 1e7f 07       		.byte	0x7
 6996 1e80 41       		.byte	0x41
 6997 1e81 3D130000 		.4byte	0x133d
 6998 1e85 00000000 		.4byte	.LFB59
ARM GAS  C:\Users\tmj32\AppData\Local\Temp\ccT5YJ50.s 			page 156


 6999 1e89 78010000 		.4byte	.LFE59-.LFB59
 7000 1e8d 01       		.uleb128 0x1
 7001 1e8e 9C       		.byte	0x9c
 7002 1e8f 1B1F0000 		.4byte	0x1f1b
 7003 1e93 28       		.uleb128 0x28
 7004 1e94 70617200 		.ascii	"par\000"
 7005 1e98 07       		.byte	0x7
 7006 1e99 41       		.byte	0x41
 7007 1e9a 3D130000 		.4byte	0x133d
 7008 1e9e 02       		.uleb128 0x2
 7009 1e9f 91       		.byte	0x91
 7010 1ea0 5C       		.sleb128 -36
 7011 1ea1 26       		.uleb128 0x26
 7012 1ea2 760A0000 		.4byte	.LASF420
 7013 1ea6 07       		.byte	0x7
 7014 1ea7 41       		.byte	0x41
 7015 1ea8 ED1D0000 		.4byte	0x1ded
 7016 1eac 02       		.uleb128 0x2
 7017 1ead 91       		.byte	0x91
 7018 1eae 58       		.sleb128 -40
 7019 1eaf 2D       		.uleb128 0x2d
 7020 1eb0 8C0C0000 		.4byte	.LASF421
 7021 1eb4 07       		.byte	0x7
 7022 1eb5 46       		.byte	0x46
 7023 1eb6 3D130000 		.4byte	0x133d
 7024 1eba 02       		.uleb128 0x2
 7025 1ebb 91       		.byte	0x91
 7026 1ebc 74       		.sleb128 -12
 7027 1ebd 2E       		.uleb128 0x2e
 7028 1ebe 65787400 		.ascii	"ext\000"
 7029 1ec2 07       		.byte	0x7
 7030 1ec3 4E       		.byte	0x4e
 7031 1ec4 1B1F0000 		.4byte	0x1f1b
 7032 1ec8 02       		.uleb128 0x2
 7033 1ec9 91       		.byte	0x91
 7034 1eca 70       		.sleb128 -16
 7035 1ecb 2F       		.uleb128 0x2f
 7036 1ecc 94000000 		.4byte	.LBB2
 7037 1ed0 84000000 		.4byte	.LBE2-.LBB2
 7038 1ed4 F41E0000 		.4byte	0x1ef4
 7039 1ed8 2D       		.uleb128 0x2d
 7040 1ed9 A0040000 		.4byte	.LASF328
 7041 1edd 07       		.byte	0x7
 7042 1ede 5A       		.byte	0x5a
 7043 1edf 3D130000 		.4byte	0x133d
 7044 1ee3 02       		.uleb128 0x2
 7045 1ee4 91       		.byte	0x91
 7046 1ee5 6C       		.sleb128 -20
 7047 1ee6 2E       		.uleb128 0x2e
 7048 1ee7 746800   		.ascii	"th\000"
 7049 1eea 07       		.byte	0x7
 7050 1eeb 66       		.byte	0x66
 7051 1eec 211F0000 		.4byte	0x1f21
 7052 1ef0 02       		.uleb128 0x2
 7053 1ef1 91       		.byte	0x91
 7054 1ef2 68       		.sleb128 -24
 7055 1ef3 00       		.byte	0
ARM GAS  C:\Users\tmj32\AppData\Local\Temp\ccT5YJ50.s 			page 157


 7056 1ef4 30       		.uleb128 0x30
 7057 1ef5 18010000 		.4byte	.LBB3
 7058 1ef9 40000000 		.4byte	.LBE3-.LBB3
 7059 1efd 2D       		.uleb128 0x2d
 7060 1efe B0150000 		.4byte	.LASF422
 7061 1f02 07       		.byte	0x7
 7062 1f03 71       		.byte	0x71
 7063 1f04 1B1F0000 		.4byte	0x1f1b
 7064 1f08 02       		.uleb128 0x2
 7065 1f09 91       		.byte	0x91
 7066 1f0a 64       		.sleb128 -28
 7067 1f0b 2D       		.uleb128 0x2d
 7068 1f0c A0040000 		.4byte	.LASF328
 7069 1f10 07       		.byte	0x7
 7070 1f11 74       		.byte	0x74
 7071 1f12 3D130000 		.4byte	0x133d
 7072 1f16 02       		.uleb128 0x2
 7073 1f17 91       		.byte	0x91
 7074 1f18 60       		.sleb128 -32
 7075 1f19 00       		.byte	0
 7076 1f1a 00       		.byte	0
 7077 1f1b 0D       		.uleb128 0xd
 7078 1f1c 04       		.byte	0x4
 7079 1f1d BF140000 		.4byte	0x14bf
 7080 1f21 0D       		.uleb128 0xd
 7081 1f22 04       		.byte	0x4
 7082 1f23 8D1C0000 		.4byte	0x1c8d
 7083 1f27 31       		.uleb128 0x31
 7084 1f28 02040000 		.4byte	.LASF427
 7085 1f2c 07       		.byte	0x7
 7086 1f2d 8B       		.byte	0x8b
 7087 1f2e 00000000 		.4byte	.LFB60
 7088 1f32 0C010000 		.4byte	.LFE60-.LFB60
 7089 1f36 01       		.uleb128 0x1
 7090 1f37 9C       		.byte	0x9c
 7091 1f38 B51F0000 		.4byte	0x1fb5
 7092 1f3c 26       		.uleb128 0x26
 7093 1f3d 56180000 		.4byte	.LASF402
 7094 1f41 07       		.byte	0x7
 7095 1f42 8B       		.byte	0x8b
 7096 1f43 3D130000 		.4byte	0x133d
 7097 1f47 02       		.uleb128 0x2
 7098 1f48 91       		.byte	0x91
 7099 1f49 5C       		.sleb128 -36
 7100 1f4a 26       		.uleb128 0x26
 7101 1f4b 69170000 		.4byte	.LASF423
 7102 1f4f 07       		.byte	0x7
 7103 1f50 8B       		.byte	0x8b
 7104 1f51 BC020000 		.4byte	0x2bc
 7105 1f55 02       		.uleb128 0x2
 7106 1f56 91       		.byte	0x91
 7107 1f57 58       		.sleb128 -40
 7108 1f58 26       		.uleb128 0x26
 7109 1f59 16140000 		.4byte	.LASF322
 7110 1f5d 07       		.byte	0x7
 7111 1f5e 8B       		.byte	0x8b
 7112 1f5f 90140000 		.4byte	0x1490
ARM GAS  C:\Users\tmj32\AppData\Local\Temp\ccT5YJ50.s 			page 158


 7113 1f63 02       		.uleb128 0x2
 7114 1f64 91       		.byte	0x91
 7115 1f65 57       		.sleb128 -41
 7116 1f66 2E       		.uleb128 0x2e
 7117 1f67 65787400 		.ascii	"ext\000"
 7118 1f6b 07       		.byte	0x7
 7119 1f6c 90       		.byte	0x90
 7120 1f6d 1B1F0000 		.4byte	0x1f1b
 7121 1f71 02       		.uleb128 0x2
 7122 1f72 91       		.byte	0x91
 7123 1f73 70       		.sleb128 -16
 7124 1f74 30       		.uleb128 0x30
 7125 1f75 42000000 		.4byte	.LBB4
 7126 1f79 BC000000 		.4byte	.LBE4-.LBB4
 7127 1f7d 2D       		.uleb128 0x2d
 7128 1f7e 00000000 		.4byte	.LASF424
 7129 1f82 07       		.byte	0x7
 7130 1f83 9E       		.byte	0x9e
 7131 1f84 FC000000 		.4byte	0xfc
 7132 1f88 02       		.uleb128 0x2
 7133 1f89 91       		.byte	0x91
 7134 1f8a 6C       		.sleb128 -20
 7135 1f8b 2D       		.uleb128 0x2d
 7136 1f8c D1010000 		.4byte	.LASF425
 7137 1f90 07       		.byte	0x7
 7138 1f91 9F       		.byte	0x9f
 7139 1f92 AF020000 		.4byte	0x2af
 7140 1f96 02       		.uleb128 0x2
 7141 1f97 91       		.byte	0x91
 7142 1f98 68       		.sleb128 -24
 7143 1f99 2E       		.uleb128 0x2e
 7144 1f9a 6900     		.ascii	"i\000"
 7145 1f9c 07       		.byte	0x7
 7146 1f9d A0       		.byte	0xa0
 7147 1f9e B8000000 		.4byte	0xb8
 7148 1fa2 02       		.uleb128 0x2
 7149 1fa3 91       		.byte	0x91
 7150 1fa4 77       		.sleb128 -9
 7151 1fa5 2D       		.uleb128 0x2d
 7152 1fa6 26180000 		.4byte	.LASF426
 7153 1faa 07       		.byte	0x7
 7154 1fab AE       		.byte	0xae
 7155 1fac CE000000 		.4byte	0xce
 7156 1fb0 02       		.uleb128 0x2
 7157 1fb1 91       		.byte	0x91
 7158 1fb2 66       		.sleb128 -26
 7159 1fb3 00       		.byte	0
 7160 1fb4 00       		.byte	0
 7161 1fb5 31       		.uleb128 0x31
 7162 1fb6 4A130000 		.4byte	.LASF428
 7163 1fba 07       		.byte	0x7
 7164 1fbb B8       		.byte	0xb8
 7165 1fbc 00000000 		.4byte	.LFB61
 7166 1fc0 7E000000 		.4byte	.LFE61-.LFB61
 7167 1fc4 01       		.uleb128 0x1
 7168 1fc5 9C       		.byte	0x9c
 7169 1fc6 03200000 		.4byte	0x2003
ARM GAS  C:\Users\tmj32\AppData\Local\Temp\ccT5YJ50.s 			page 159


 7170 1fca 26       		.uleb128 0x26
 7171 1fcb 56180000 		.4byte	.LASF402
 7172 1fcf 07       		.byte	0x7
 7173 1fd0 B8       		.byte	0xb8
 7174 1fd1 3D130000 		.4byte	0x133d
 7175 1fd5 02       		.uleb128 0x2
 7176 1fd6 91       		.byte	0x91
 7177 1fd7 6C       		.sleb128 -20
 7178 1fd8 26       		.uleb128 0x26
 7179 1fd9 970C0000 		.4byte	.LASF286
 7180 1fdd 07       		.byte	0x7
 7181 1fde B8       		.byte	0xb8
 7182 1fdf A9130000 		.4byte	0x13a9
 7183 1fe3 02       		.uleb128 0x2
 7184 1fe4 91       		.byte	0x91
 7185 1fe5 6B       		.sleb128 -21
 7186 1fe6 2E       		.uleb128 0x2e
 7187 1fe7 65787400 		.ascii	"ext\000"
 7188 1feb 07       		.byte	0x7
 7189 1fec BC       		.byte	0xbc
 7190 1fed 1B1F0000 		.4byte	0x1f1b
 7191 1ff1 02       		.uleb128 0x2
 7192 1ff2 91       		.byte	0x91
 7193 1ff3 74       		.sleb128 -12
 7194 1ff4 2D       		.uleb128 0x2d
 7195 1ff5 16170000 		.4byte	.LASF346
 7196 1ff9 07       		.byte	0x7
 7197 1ffa BE       		.byte	0xbe
 7198 1ffb 3D130000 		.4byte	0x133d
 7199 1fff 02       		.uleb128 0x2
 7200 2000 91       		.byte	0x91
 7201 2001 70       		.sleb128 -16
 7202 2002 00       		.byte	0
 7203 2003 31       		.uleb128 0x31
 7204 2004 77080000 		.4byte	.LASF429
 7205 2008 07       		.byte	0x7
 7206 2009 D0       		.byte	0xd0
 7207 200a 00000000 		.4byte	.LFB62
 7208 200e 3E000000 		.4byte	.LFE62-.LFB62
 7209 2012 01       		.uleb128 0x1
 7210 2013 9C       		.byte	0x9c
 7211 2014 43200000 		.4byte	0x2043
 7212 2018 26       		.uleb128 0x26
 7213 2019 56180000 		.4byte	.LASF402
 7214 201d 07       		.byte	0x7
 7215 201e D0       		.byte	0xd0
 7216 201f 3D130000 		.4byte	0x133d
 7217 2023 02       		.uleb128 0x2
 7218 2024 91       		.byte	0x91
 7219 2025 74       		.sleb128 -12
 7220 2026 26       		.uleb128 0x26
 7221 2027 7C0F0000 		.4byte	.LASF430
 7222 202b 07       		.byte	0x7
 7223 202c D0       		.byte	0xd0
 7224 202d CE000000 		.4byte	0xce
 7225 2031 02       		.uleb128 0x2
 7226 2032 91       		.byte	0x91
ARM GAS  C:\Users\tmj32\AppData\Local\Temp\ccT5YJ50.s 			page 160


 7227 2033 72       		.sleb128 -14
 7228 2034 26       		.uleb128 0x26
 7229 2035 2B110000 		.4byte	.LASF431
 7230 2039 07       		.byte	0x7
 7231 203a D0       		.byte	0xd0
 7232 203b 48030000 		.4byte	0x348
 7233 203f 02       		.uleb128 0x2
 7234 2040 91       		.byte	0x91
 7235 2041 71       		.sleb128 -15
 7236 2042 00       		.byte	0
 7237 2043 31       		.uleb128 0x31
 7238 2044 AC140000 		.4byte	.LASF432
 7239 2048 07       		.byte	0x7
 7240 2049 E3       		.byte	0xe3
 7241 204a 00000000 		.4byte	.LFB63
 7242 204e 72000000 		.4byte	.LFE63-.LFB63
 7243 2052 01       		.uleb128 0x1
 7244 2053 9C       		.byte	0x9c
 7245 2054 9F200000 		.4byte	0x209f
 7246 2058 26       		.uleb128 0x26
 7247 2059 56180000 		.4byte	.LASF402
 7248 205d 07       		.byte	0x7
 7249 205e E3       		.byte	0xe3
 7250 205f 3D130000 		.4byte	0x133d
 7251 2063 02       		.uleb128 0x2
 7252 2064 91       		.byte	0x91
 7253 2065 64       		.sleb128 -28
 7254 2066 26       		.uleb128 0x26
 7255 2067 76120000 		.4byte	.LASF433
 7256 206b 07       		.byte	0x7
 7257 206c E3       		.byte	0xe3
 7258 206d B8000000 		.4byte	0xb8
 7259 2071 02       		.uleb128 0x2
 7260 2072 91       		.byte	0x91
 7261 2073 63       		.sleb128 -29
 7262 2074 2E       		.uleb128 0x2e
 7263 2075 65787400 		.ascii	"ext\000"
 7264 2079 07       		.byte	0x7
 7265 207a E7       		.byte	0xe7
 7266 207b 1B1F0000 		.4byte	0x1f1b
 7267 207f 02       		.uleb128 0x2
 7268 2080 91       		.byte	0x91
 7269 2081 74       		.sleb128 -12
 7270 2082 2D       		.uleb128 0x2d
 7271 2083 33070000 		.4byte	.LASF434
 7272 2087 07       		.byte	0x7
 7273 2088 E8       		.byte	0xe8
 7274 2089 0B110000 		.4byte	0x110b
 7275 208d 02       		.uleb128 0x2
 7276 208e 91       		.byte	0x91
 7277 208f 70       		.sleb128 -16
 7278 2090 2D       		.uleb128 0x2d
 7279 2091 C3040000 		.4byte	.LASF435
 7280 2095 07       		.byte	0x7
 7281 2096 E9       		.byte	0xe9
 7282 2097 B8000000 		.4byte	0xb8
 7283 209b 02       		.uleb128 0x2
ARM GAS  C:\Users\tmj32\AppData\Local\Temp\ccT5YJ50.s 			page 161


 7284 209c 91       		.byte	0x91
 7285 209d 6F       		.sleb128 -17
 7286 209e 00       		.byte	0
 7287 209f 31       		.uleb128 0x31
 7288 20a0 61110000 		.4byte	.LASF436
 7289 20a4 07       		.byte	0x7
 7290 20a5 F4       		.byte	0xf4
 7291 20a6 00000000 		.4byte	.LFB64
 7292 20aa 38000000 		.4byte	.LFE64-.LFB64
 7293 20ae 01       		.uleb128 0x1
 7294 20af 9C       		.byte	0x9c
 7295 20b0 DF200000 		.4byte	0x20df
 7296 20b4 26       		.uleb128 0x26
 7297 20b5 56180000 		.4byte	.LASF402
 7298 20b9 07       		.byte	0x7
 7299 20ba F4       		.byte	0xf4
 7300 20bb 3D130000 		.4byte	0x133d
 7301 20bf 02       		.uleb128 0x2
 7302 20c0 91       		.byte	0x91
 7303 20c1 74       		.sleb128 -12
 7304 20c2 26       		.uleb128 0x26
 7305 20c3 2A020000 		.4byte	.LASF75
 7306 20c7 07       		.byte	0x7
 7307 20c8 F4       		.byte	0xf4
 7308 20c9 E3140000 		.4byte	0x14e3
 7309 20cd 02       		.uleb128 0x2
 7310 20ce 91       		.byte	0x91
 7311 20cf 73       		.sleb128 -13
 7312 20d0 26       		.uleb128 0x26
 7313 20d1 DB0E0000 		.4byte	.LASF317
 7314 20d5 07       		.byte	0x7
 7315 20d6 F4       		.byte	0xf4
 7316 20d7 0B110000 		.4byte	0x110b
 7317 20db 02       		.uleb128 0x2
 7318 20dc 91       		.byte	0x91
 7319 20dd 6C       		.sleb128 -20
 7320 20de 00       		.byte	0
 7321 20df 32       		.uleb128 0x32
 7322 20e0 A2030000 		.4byte	.LASF438
 7323 20e4 07       		.byte	0x7
 7324 20e5 0701     		.2byte	0x107
 7325 20e7 CE000000 		.4byte	0xce
 7326 20eb 00000000 		.4byte	.LFB65
 7327 20ef 64000000 		.4byte	.LFE65-.LFB65
 7328 20f3 01       		.uleb128 0x1
 7329 20f4 9C       		.byte	0x9c
 7330 20f5 31210000 		.4byte	0x2131
 7331 20f9 2A       		.uleb128 0x2a
 7332 20fa 56180000 		.4byte	.LASF402
 7333 20fe 07       		.byte	0x7
 7334 20ff 0701     		.2byte	0x107
 7335 2101 ED1D0000 		.4byte	0x1ded
 7336 2105 02       		.uleb128 0x2
 7337 2106 91       		.byte	0x91
 7338 2107 6C       		.sleb128 -20
 7339 2108 33       		.uleb128 0x33
 7340 2109 65787400 		.ascii	"ext\000"
ARM GAS  C:\Users\tmj32\AppData\Local\Temp\ccT5YJ50.s 			page 162


 7341 210d 07       		.byte	0x7
 7342 210e 0B01     		.2byte	0x10b
 7343 2110 1B1F0000 		.4byte	0x1f1b
 7344 2114 02       		.uleb128 0x2
 7345 2115 91       		.byte	0x91
 7346 2116 74       		.sleb128 -12
 7347 2117 30       		.uleb128 0x30
 7348 2118 20000000 		.4byte	.LBB5
 7349 211c 2E000000 		.4byte	.LBE5-.LBB5
 7350 2120 34       		.uleb128 0x34
 7351 2121 26180000 		.4byte	.LASF426
 7352 2125 07       		.byte	0x7
 7353 2126 0D01     		.2byte	0x10d
 7354 2128 CE000000 		.4byte	0xce
 7355 212c 02       		.uleb128 0x2
 7356 212d 91       		.byte	0x91
 7357 212e 72       		.sleb128 -14
 7358 212f 00       		.byte	0
 7359 2130 00       		.byte	0
 7360 2131 32       		.uleb128 0x32
 7361 2132 0B0A0000 		.4byte	.LASF439
 7362 2136 07       		.byte	0x7
 7363 2137 1901     		.2byte	0x119
 7364 2139 A9130000 		.4byte	0x13a9
 7365 213d 00000000 		.4byte	.LFB66
 7366 2141 24000000 		.4byte	.LFE66-.LFB66
 7367 2145 01       		.uleb128 0x1
 7368 2146 9C       		.byte	0x9c
 7369 2147 6A210000 		.4byte	0x216a
 7370 214b 2A       		.uleb128 0x2a
 7371 214c 56180000 		.4byte	.LASF402
 7372 2150 07       		.byte	0x7
 7373 2151 1901     		.2byte	0x119
 7374 2153 ED1D0000 		.4byte	0x1ded
 7375 2157 02       		.uleb128 0x2
 7376 2158 91       		.byte	0x91
 7377 2159 6C       		.sleb128 -20
 7378 215a 33       		.uleb128 0x33
 7379 215b 65787400 		.ascii	"ext\000"
 7380 215f 07       		.byte	0x7
 7381 2160 1D01     		.2byte	0x11d
 7382 2162 1B1F0000 		.4byte	0x1f1b
 7383 2166 02       		.uleb128 0x2
 7384 2167 91       		.byte	0x91
 7385 2168 74       		.sleb128 -12
 7386 2169 00       		.byte	0
 7387 216a 32       		.uleb128 0x32
 7388 216b E8040000 		.4byte	.LASF440
 7389 216f 07       		.byte	0x7
 7390 2170 2801     		.2byte	0x128
 7391 2172 E0010000 		.4byte	0x1e0
 7392 2176 00000000 		.4byte	.LFB67
 7393 217a 22000000 		.4byte	.LFE67-.LFB67
 7394 217e 01       		.uleb128 0x1
 7395 217f 9C       		.byte	0x9c
 7396 2180 94210000 		.4byte	0x2194
 7397 2184 2A       		.uleb128 0x2a
ARM GAS  C:\Users\tmj32\AppData\Local\Temp\ccT5YJ50.s 			page 163


 7398 2185 56180000 		.4byte	.LASF402
 7399 2189 07       		.byte	0x7
 7400 218a 2801     		.2byte	0x128
 7401 218c ED1D0000 		.4byte	0x1ded
 7402 2190 02       		.uleb128 0x2
 7403 2191 91       		.byte	0x91
 7404 2192 74       		.sleb128 -12
 7405 2193 00       		.byte	0
 7406 2194 32       		.uleb128 0x32
 7407 2195 0A010000 		.4byte	.LASF441
 7408 2199 07       		.byte	0x7
 7409 219a 3501     		.2byte	0x135
 7410 219c 0B110000 		.4byte	0x110b
 7411 21a0 00000000 		.4byte	.LFB68
 7412 21a4 38000000 		.4byte	.LFE68-.LFB68
 7413 21a8 01       		.uleb128 0x1
 7414 21a9 9C       		.byte	0x9c
 7415 21aa CD210000 		.4byte	0x21cd
 7416 21ae 2A       		.uleb128 0x2a
 7417 21af 56180000 		.4byte	.LASF402
 7418 21b3 07       		.byte	0x7
 7419 21b4 3501     		.2byte	0x135
 7420 21b6 ED1D0000 		.4byte	0x1ded
 7421 21ba 02       		.uleb128 0x2
 7422 21bb 91       		.byte	0x91
 7423 21bc 74       		.sleb128 -12
 7424 21bd 2A       		.uleb128 0x2a
 7425 21be 2A020000 		.4byte	.LASF75
 7426 21c2 07       		.byte	0x7
 7427 21c3 3501     		.2byte	0x135
 7428 21c5 E3140000 		.4byte	0x14e3
 7429 21c9 02       		.uleb128 0x2
 7430 21ca 91       		.byte	0x91
 7431 21cb 73       		.sleb128 -13
 7432 21cc 00       		.byte	0
 7433 21cd 29       		.uleb128 0x29
 7434 21ce C60C0000 		.4byte	.LASF442
 7435 21d2 07       		.byte	0x7
 7436 21d3 5101     		.2byte	0x151
 7437 21d5 E0010000 		.4byte	0x1e0
 7438 21d9 00000000 		.4byte	.LFB69
 7439 21dd 1E030000 		.4byte	.LFE69-.LFB69
 7440 21e1 01       		.uleb128 0x1
 7441 21e2 9C       		.byte	0x9c
 7442 21e3 66230000 		.4byte	0x2366
 7443 21e7 2A       		.uleb128 0x2a
 7444 21e8 56180000 		.4byte	.LASF402
 7445 21ec 07       		.byte	0x7
 7446 21ed 5101     		.2byte	0x151
 7447 21ef 3D130000 		.4byte	0x133d
 7448 21f3 03       		.uleb128 0x3
 7449 21f4 91       		.byte	0x91
 7450 21f5 CC7E     		.sleb128 -180
 7451 21f7 2A       		.uleb128 0x2a
 7452 21f8 600C0000 		.4byte	.LASF443
 7453 21fc 07       		.byte	0x7
 7454 21fd 5101     		.2byte	0x151
ARM GAS  C:\Users\tmj32\AppData\Local\Temp\ccT5YJ50.s 			page 164


 7455 21ff D5080000 		.4byte	0x8d5
 7456 2203 03       		.uleb128 0x3
 7457 2204 91       		.byte	0x91
 7458 2205 C87E     		.sleb128 -184
 7459 2207 2A       		.uleb128 0x2a
 7460 2208 16140000 		.4byte	.LASF322
 7461 220c 07       		.byte	0x7
 7462 220d 5101     		.2byte	0x151
 7463 220f 5D0E0000 		.4byte	0xe5d
 7464 2213 03       		.uleb128 0x3
 7465 2214 91       		.byte	0x91
 7466 2215 C77E     		.sleb128 -185
 7467 2217 2F       		.uleb128 0x2f
 7468 2218 20000000 		.4byte	.LBB6
 7469 221c 1E010000 		.4byte	.LBE6-.LBB6
 7470 2220 90220000 		.4byte	0x2290
 7471 2224 34       		.uleb128 0x34
 7472 2225 DB0E0000 		.4byte	.LASF317
 7473 2229 07       		.byte	0x7
 7474 222a 5B01     		.2byte	0x15b
 7475 222c 0B110000 		.4byte	0x110b
 7476 2230 02       		.uleb128 0x2
 7477 2231 91       		.byte	0x91
 7478 2232 68       		.sleb128 -24
 7479 2233 34       		.uleb128 0x34
 7480 2234 4C180000 		.4byte	.LASF164
 7481 2238 07       		.byte	0x7
 7482 2239 5C01     		.2byte	0x15c
 7483 223b 9C020000 		.4byte	0x29c
 7484 223f 02       		.uleb128 0x2
 7485 2240 91       		.byte	0x91
 7486 2241 67       		.sleb128 -25
 7487 2242 34       		.uleb128 0x34
 7488 2243 99130000 		.4byte	.LASF87
 7489 2247 07       		.byte	0x7
 7490 2248 5D01     		.2byte	0x15d
 7491 224a 07060000 		.4byte	0x607
 7492 224e 02       		.uleb128 0x2
 7493 224f 91       		.byte	0x91
 7494 2250 60       		.sleb128 -32
 7495 2251 33       		.uleb128 0x33
 7496 2252 65787400 		.ascii	"ext\000"
 7497 2256 07       		.byte	0x7
 7498 2257 5E01     		.2byte	0x15e
 7499 2259 1B1F0000 		.4byte	0x1f1b
 7500 225d 02       		.uleb128 0x2
 7501 225e 91       		.byte	0x91
 7502 225f 5C       		.sleb128 -36
 7503 2260 34       		.uleb128 0x34
 7504 2261 5A110000 		.4byte	.LASF444
 7505 2265 07       		.byte	0x7
 7506 2266 5F01     		.2byte	0x15f
 7507 2268 EF000000 		.4byte	0xef
 7508 226c 02       		.uleb128 0x2
 7509 226d 91       		.byte	0x91
 7510 226e 5A       		.sleb128 -38
 7511 226f 34       		.uleb128 0x34
ARM GAS  C:\Users\tmj32\AppData\Local\Temp\ccT5YJ50.s 			page 165


 7512 2270 AE0D0000 		.4byte	.LASF445
 7513 2274 07       		.byte	0x7
 7514 2275 6001     		.2byte	0x160
 7515 2277 24030000 		.4byte	0x324
 7516 227b 03       		.uleb128 0x3
 7517 227c 91       		.byte	0x91
 7518 227d B87F     		.sleb128 -72
 7519 227f 34       		.uleb128 0x34
 7520 2280 70100000 		.4byte	.LASF446
 7521 2284 07       		.byte	0x7
 7522 2285 6401     		.2byte	0x164
 7523 2287 24030000 		.4byte	0x324
 7524 228b 03       		.uleb128 0x3
 7525 228c 91       		.byte	0x91
 7526 228d B07F     		.sleb128 -80
 7527 228f 00       		.byte	0
 7528 2290 30       		.uleb128 0x30
 7529 2291 48010000 		.4byte	.LBB7
 7530 2295 CC010000 		.4byte	.LBE7-.LBB7
 7531 2299 34       		.uleb128 0x34
 7532 229a DB0E0000 		.4byte	.LASF317
 7533 229e 07       		.byte	0x7
 7534 229f 6F01     		.2byte	0x16f
 7535 22a1 0B110000 		.4byte	0x110b
 7536 22a5 02       		.uleb128 0x2
 7537 22a6 91       		.byte	0x91
 7538 22a7 54       		.sleb128 -44
 7539 22a8 33       		.uleb128 0x33
 7540 22a9 65787400 		.ascii	"ext\000"
 7541 22ad 07       		.byte	0x7
 7542 22ae 7001     		.2byte	0x170
 7543 22b0 1B1F0000 		.4byte	0x1f1b
 7544 22b4 02       		.uleb128 0x2
 7545 22b5 91       		.byte	0x91
 7546 22b6 50       		.sleb128 -48
 7547 22b7 34       		.uleb128 0x34
 7548 22b8 99130000 		.4byte	.LASF87
 7549 22bc 07       		.byte	0x7
 7550 22bd 7101     		.2byte	0x171
 7551 22bf 07060000 		.4byte	0x607
 7552 22c3 02       		.uleb128 0x2
 7553 22c4 91       		.byte	0x91
 7554 22c5 4C       		.sleb128 -52
 7555 22c6 34       		.uleb128 0x34
 7556 22c7 5A110000 		.4byte	.LASF444
 7557 22cb 07       		.byte	0x7
 7558 22cc 7201     		.2byte	0x172
 7559 22ce EF000000 		.4byte	0xef
 7560 22d2 02       		.uleb128 0x2
 7561 22d3 91       		.byte	0x91
 7562 22d4 4A       		.sleb128 -54
 7563 22d5 34       		.uleb128 0x34
 7564 22d6 4C180000 		.4byte	.LASF164
 7565 22da 07       		.byte	0x7
 7566 22db 7301     		.2byte	0x173
 7567 22dd 9C020000 		.4byte	0x29c
 7568 22e1 02       		.uleb128 0x2
ARM GAS  C:\Users\tmj32\AppData\Local\Temp\ccT5YJ50.s 			page 166


 7569 22e2 91       		.byte	0x91
 7570 22e3 49       		.sleb128 -55
 7571 22e4 34       		.uleb128 0x34
 7572 22e5 AE0D0000 		.4byte	.LASF445
 7573 22e9 07       		.byte	0x7
 7574 22ea 7601     		.2byte	0x176
 7575 22ec 24030000 		.4byte	0x324
 7576 22f0 03       		.uleb128 0x3
 7577 22f1 91       		.byte	0x91
 7578 22f2 A87F     		.sleb128 -88
 7579 22f4 34       		.uleb128 0x34
 7580 22f5 D8020000 		.4byte	.LASF447
 7581 22f9 07       		.byte	0x7
 7582 22fa 7C01     		.2byte	0x17c
 7583 22fc 24030000 		.4byte	0x324
 7584 2300 03       		.uleb128 0x3
 7585 2301 91       		.byte	0x91
 7586 2302 A07F     		.sleb128 -96
 7587 2304 34       		.uleb128 0x34
 7588 2305 4C0D0000 		.4byte	.LASF448
 7589 2309 07       		.byte	0x7
 7590 230a 7D01     		.2byte	0x17d
 7591 230c E0010000 		.4byte	0x1e0
 7592 2310 02       		.uleb128 0x2
 7593 2311 91       		.byte	0x91
 7594 2312 48       		.sleb128 -56
 7595 2313 30       		.uleb128 0x30
 7596 2314 54020000 		.4byte	.LBB8
 7597 2318 C0000000 		.4byte	.LBE8-.LBB8
 7598 231c 34       		.uleb128 0x34
 7599 231d BC0C0000 		.4byte	.LASF347
 7600 2321 07       		.byte	0x7
 7601 2322 8001     		.2byte	0x180
 7602 2324 0B110000 		.4byte	0x110b
 7603 2328 02       		.uleb128 0x2
 7604 2329 91       		.byte	0x91
 7605 232a 44       		.sleb128 -60
 7606 232b 34       		.uleb128 0x34
 7607 232c 8B060000 		.4byte	.LASF449
 7608 2330 07       		.byte	0x7
 7609 2331 8101     		.2byte	0x181
 7610 2333 C3060000 		.4byte	0x6c3
 7611 2337 03       		.uleb128 0x3
 7612 2338 91       		.byte	0x91
 7613 2339 D07E     		.sleb128 -176
 7614 233b 34       		.uleb128 0x34
 7615 233c 5C0D0000 		.4byte	.LASF450
 7616 2340 07       		.byte	0x7
 7617 2341 8201     		.2byte	0x182
 7618 2343 79130000 		.4byte	0x1379
 7619 2347 02       		.uleb128 0x2
 7620 2348 91       		.byte	0x91
 7621 2349 6F       		.sleb128 -17
 7622 234a 30       		.uleb128 0x30
 7623 234b 66020000 		.4byte	.LBB9
 7624 234f 3C000000 		.4byte	.LBE9-.LBB9
 7625 2353 34       		.uleb128 0x34
ARM GAS  C:\Users\tmj32\AppData\Local\Temp\ccT5YJ50.s 			page 167


 7626 2354 CC020000 		.4byte	.LASF451
 7627 2358 07       		.byte	0x7
 7628 2359 8501     		.2byte	0x185
 7629 235b A9130000 		.4byte	0x13a9
 7630 235f 02       		.uleb128 0x2
 7631 2360 91       		.byte	0x91
 7632 2361 43       		.sleb128 -61
 7633 2362 00       		.byte	0
 7634 2363 00       		.byte	0
 7635 2364 00       		.byte	0
 7636 2365 00       		.byte	0
 7637 2366 29       		.uleb128 0x29
 7638 2367 400C0000 		.4byte	.LASF452
 7639 236b 07       		.byte	0x7
 7640 236c A001     		.2byte	0x1a0
 7641 236e ED060000 		.4byte	0x6ed
 7642 2372 00000000 		.4byte	.LFB70
 7643 2376 68010000 		.4byte	.LFE70-.LFB70
 7644 237a 01       		.uleb128 0x1
 7645 237b 9C       		.byte	0x9c
 7646 237c 19240000 		.4byte	0x2419
 7647 2380 2A       		.uleb128 0x2a
 7648 2381 56180000 		.4byte	.LASF402
 7649 2385 07       		.byte	0x7
 7650 2386 A001     		.2byte	0x1a0
 7651 2388 3D130000 		.4byte	0x133d
 7652 238c 02       		.uleb128 0x2
 7653 238d 91       		.byte	0x91
 7654 238e 5C       		.sleb128 -36
 7655 238f 2A       		.uleb128 0x2a
 7656 2390 C1010000 		.4byte	.LASF453
 7657 2394 07       		.byte	0x7
 7658 2395 A001     		.2byte	0x1a0
 7659 2397 C80F0000 		.4byte	0xfc8
 7660 239b 02       		.uleb128 0x2
 7661 239c 91       		.byte	0x91
 7662 239d 5B       		.sleb128 -37
 7663 239e 2A       		.uleb128 0x2a
 7664 239f AB090000 		.4byte	.LASF454
 7665 23a3 07       		.byte	0x7
 7666 23a4 A001     		.2byte	0x1a0
 7667 23a6 FA000000 		.4byte	0xfa
 7668 23aa 02       		.uleb128 0x2
 7669 23ab 91       		.byte	0x91
 7670 23ac 54       		.sleb128 -44
 7671 23ad 33       		.uleb128 0x33
 7672 23ae 72657300 		.ascii	"res\000"
 7673 23b2 07       		.byte	0x7
 7674 23b3 A201     		.2byte	0x1a2
 7675 23b5 ED060000 		.4byte	0x6ed
 7676 23b9 02       		.uleb128 0x2
 7677 23ba 91       		.byte	0x91
 7678 23bb 6F       		.sleb128 -17
 7679 23bc 33       		.uleb128 0x33
 7680 23bd 65787400 		.ascii	"ext\000"
 7681 23c1 07       		.byte	0x7
 7682 23c2 AC01     		.2byte	0x1ac
ARM GAS  C:\Users\tmj32\AppData\Local\Temp\ccT5YJ50.s 			page 168


 7683 23c4 1B1F0000 		.4byte	0x1f1b
 7684 23c8 02       		.uleb128 0x2
 7685 23c9 91       		.byte	0x91
 7686 23ca 68       		.sleb128 -24
 7687 23cb 30       		.uleb128 0x30
 7688 23cc DE000000 		.4byte	.LBB10
 7689 23d0 72000000 		.4byte	.LBE10-.LBB10
 7690 23d4 33       		.uleb128 0x33
 7691 23d5 6300     		.ascii	"c\000"
 7692 23d7 07       		.byte	0x7
 7693 23d8 DF01     		.2byte	0x1df
 7694 23da B5020000 		.4byte	0x2b5
 7695 23de 02       		.uleb128 0x2
 7696 23df 91       		.byte	0x91
 7697 23e0 67       		.sleb128 -25
 7698 23e1 2F       		.uleb128 0x2f
 7699 23e2 FE000000 		.4byte	.LBB11
 7700 23e6 1E000000 		.4byte	.LBE11-.LBB11
 7701 23ea FE230000 		.4byte	0x23fe
 7702 23ee 34       		.uleb128 0x34
 7703 23ef AB070000 		.4byte	.LASF455
 7704 23f3 07       		.byte	0x7
 7705 23f4 E201     		.2byte	0x1e2
 7706 23f6 CE000000 		.4byte	0xce
 7707 23fa 02       		.uleb128 0x2
 7708 23fb 91       		.byte	0x91
 7709 23fc 62       		.sleb128 -30
 7710 23fd 00       		.byte	0
 7711 23fe 30       		.uleb128 0x30
 7712 23ff 32010000 		.4byte	.LBB12
 7713 2403 1E000000 		.4byte	.LBE12-.LBB12
 7714 2407 34       		.uleb128 0x34
 7715 2408 AB070000 		.4byte	.LASF455
 7716 240c 07       		.byte	0x7
 7717 240d E801     		.2byte	0x1e8
 7718 240f CE000000 		.4byte	0xce
 7719 2413 02       		.uleb128 0x2
 7720 2414 91       		.byte	0x91
 7721 2415 64       		.sleb128 -28
 7722 2416 00       		.byte	0
 7723 2417 00       		.byte	0
 7724 2418 00       		.byte	0
 7725 2419 29       		.uleb128 0x29
 7726 241a 53030000 		.4byte	.LASF456
 7727 241e 07       		.byte	0x7
 7728 241f F901     		.2byte	0x1f9
 7729 2421 ED060000 		.4byte	0x6ed
 7730 2425 00000000 		.4byte	.LFB71
 7731 2429 94010000 		.4byte	.LFE71-.LFB71
 7732 242d 01       		.uleb128 0x1
 7733 242e 9C       		.byte	0x9c
 7734 242f 0F250000 		.4byte	0x250f
 7735 2433 2A       		.uleb128 0x2a
 7736 2434 91120000 		.4byte	.LASF457
 7737 2438 07       		.byte	0x7
 7738 2439 F901     		.2byte	0x1f9
 7739 243b 3D130000 		.4byte	0x133d
ARM GAS  C:\Users\tmj32\AppData\Local\Temp\ccT5YJ50.s 			page 169


 7740 243f 02       		.uleb128 0x2
 7741 2440 91       		.byte	0x91
 7742 2441 4C       		.sleb128 -52
 7743 2442 2A       		.uleb128 0x2a
 7744 2443 C1010000 		.4byte	.LASF453
 7745 2447 07       		.byte	0x7
 7746 2448 F901     		.2byte	0x1f9
 7747 244a C80F0000 		.4byte	0xfc8
 7748 244e 02       		.uleb128 0x2
 7749 244f 91       		.byte	0x91
 7750 2450 4B       		.sleb128 -53
 7751 2451 2A       		.uleb128 0x2a
 7752 2452 AB090000 		.4byte	.LASF454
 7753 2456 07       		.byte	0x7
 7754 2457 F901     		.2byte	0x1f9
 7755 2459 FA000000 		.4byte	0xfa
 7756 245d 02       		.uleb128 0x2
 7757 245e 91       		.byte	0x91
 7758 245f 44       		.sleb128 -60
 7759 2460 33       		.uleb128 0x33
 7760 2461 72657300 		.ascii	"res\000"
 7761 2465 07       		.byte	0x7
 7762 2466 FB01     		.2byte	0x1fb
 7763 2468 ED060000 		.4byte	0x6ed
 7764 246c 02       		.uleb128 0x2
 7765 246d 91       		.byte	0x91
 7766 246e 77       		.sleb128 -9
 7767 246f 34       		.uleb128 0x34
 7768 2470 7D140000 		.4byte	.LASF458
 7769 2474 07       		.byte	0x7
 7770 2475 0202     		.2byte	0x202
 7771 2477 0F250000 		.4byte	0x250f
 7772 247b 02       		.uleb128 0x2
 7773 247c 91       		.byte	0x91
 7774 247d 70       		.sleb128 -16
 7775 247e 33       		.uleb128 0x33
 7776 247f 696400   		.ascii	"id\000"
 7777 2482 07       		.byte	0x7
 7778 2483 0302     		.2byte	0x203
 7779 2485 D9000000 		.4byte	0xd9
 7780 2489 02       		.uleb128 0x2
 7781 248a 91       		.byte	0x91
 7782 248b 54       		.sleb128 -44
 7783 248c 34       		.uleb128 0x34
 7784 248d 56180000 		.4byte	.LASF402
 7785 2491 07       		.byte	0x7
 7786 2492 0402     		.2byte	0x204
 7787 2494 3D130000 		.4byte	0x133d
 7788 2498 02       		.uleb128 0x2
 7789 2499 91       		.byte	0x91
 7790 249a 6C       		.sleb128 -20
 7791 249b 33       		.uleb128 0x33
 7792 249c 65787400 		.ascii	"ext\000"
 7793 24a0 07       		.byte	0x7
 7794 24a1 0502     		.2byte	0x205
 7795 24a3 1B1F0000 		.4byte	0x1f1b
 7796 24a7 02       		.uleb128 0x2
ARM GAS  C:\Users\tmj32\AppData\Local\Temp\ccT5YJ50.s 			page 170


 7797 24a8 91       		.byte	0x91
 7798 24a9 68       		.sleb128 -24
 7799 24aa 34       		.uleb128 0x34
 7800 24ab 33070000 		.4byte	.LASF434
 7801 24af 07       		.byte	0x7
 7802 24b0 0B02     		.2byte	0x20b
 7803 24b2 0B110000 		.4byte	0x110b
 7804 24b6 02       		.uleb128 0x2
 7805 24b7 91       		.byte	0x91
 7806 24b8 64       		.sleb128 -28
 7807 24b9 34       		.uleb128 0x34
 7808 24ba 99130000 		.4byte	.LASF87
 7809 24be 07       		.byte	0x7
 7810 24bf 0C02     		.2byte	0x20c
 7811 24c1 07060000 		.4byte	0x607
 7812 24c5 02       		.uleb128 0x2
 7813 24c6 91       		.byte	0x91
 7814 24c7 60       		.sleb128 -32
 7815 24c8 34       		.uleb128 0x34
 7816 24c9 5A110000 		.4byte	.LASF444
 7817 24cd 07       		.byte	0x7
 7818 24ce 0D02     		.2byte	0x20d
 7819 24d0 EF000000 		.4byte	0xef
 7820 24d4 02       		.uleb128 0x2
 7821 24d5 91       		.byte	0x91
 7822 24d6 5E       		.sleb128 -34
 7823 24d7 30       		.uleb128 0x30
 7824 24d8 8A000000 		.4byte	.LBB13
 7825 24dc B4000000 		.4byte	.LBE13-.LBB13
 7826 24e0 34       		.uleb128 0x34
 7827 24e1 5B0A0000 		.4byte	.LASF459
 7828 24e5 07       		.byte	0x7
 7829 24e6 1102     		.2byte	0x211
 7830 24e8 EF000000 		.4byte	0xef
 7831 24ec 02       		.uleb128 0x2
 7832 24ed 91       		.byte	0x91
 7833 24ee 5C       		.sleb128 -36
 7834 24ef 34       		.uleb128 0x34
 7835 24f0 20110000 		.4byte	.LASF460
 7836 24f4 07       		.byte	0x7
 7837 24f5 1202     		.2byte	0x212
 7838 24f7 EF000000 		.4byte	0xef
 7839 24fb 02       		.uleb128 0x2
 7840 24fc 91       		.byte	0x91
 7841 24fd 5A       		.sleb128 -38
 7842 24fe 33       		.uleb128 0x33
 7843 24ff 6D696400 		.ascii	"mid\000"
 7844 2503 07       		.byte	0x7
 7845 2504 1302     		.2byte	0x213
 7846 2506 EF000000 		.4byte	0xef
 7847 250a 02       		.uleb128 0x2
 7848 250b 91       		.byte	0x91
 7849 250c 58       		.sleb128 -40
 7850 250d 00       		.byte	0
 7851 250e 00       		.byte	0
 7852 250f 0D       		.uleb128 0xd
 7853 2510 04       		.byte	0x4
ARM GAS  C:\Users\tmj32\AppData\Local\Temp\ccT5YJ50.s 			page 171


 7854 2511 330E0000 		.4byte	0xe33
 7855 2515 35       		.uleb128 0x35
 7856 2516 CE000000 		.4byte	.LASF461
 7857 251a 07       		.byte	0x7
 7858 251b 3D02     		.2byte	0x23d
 7859 251d 00000000 		.4byte	.LFB72
 7860 2521 6C020000 		.4byte	.LFE72-.LFB72
 7861 2525 01       		.uleb128 0x1
 7862 2526 9C       		.byte	0x9c
 7863 2527 AF250000 		.4byte	0x25af
 7864 252b 2A       		.uleb128 0x2a
 7865 252c 56180000 		.4byte	.LASF402
 7866 2530 07       		.byte	0x7
 7867 2531 3D02     		.2byte	0x23d
 7868 2533 3D130000 		.4byte	0x133d
 7869 2537 03       		.uleb128 0x3
 7870 2538 91       		.byte	0x91
 7871 2539 8C7F     		.sleb128 -116
 7872 253b 2A       		.uleb128 0x2a
 7873 253c 600C0000 		.4byte	.LASF443
 7874 2540 07       		.byte	0x7
 7875 2541 3D02     		.2byte	0x23d
 7876 2543 D5080000 		.4byte	0x8d5
 7877 2547 03       		.uleb128 0x3
 7878 2548 91       		.byte	0x91
 7879 2549 887F     		.sleb128 -120
 7880 254b 34       		.uleb128 0x34
 7881 254c DB0E0000 		.4byte	.LASF317
 7882 2550 07       		.byte	0x7
 7883 2551 3F02     		.2byte	0x23f
 7884 2553 0B110000 		.4byte	0x110b
 7885 2557 02       		.uleb128 0x2
 7886 2558 91       		.byte	0x91
 7887 2559 74       		.sleb128 -12
 7888 255a 34       		.uleb128 0x34
 7889 255b 8E0A0000 		.4byte	.LASF462
 7890 255f 07       		.byte	0x7
 7891 2560 4002     		.2byte	0x240
 7892 2562 24030000 		.4byte	0x324
 7893 2566 02       		.uleb128 0x2
 7894 2567 91       		.byte	0x91
 7895 2568 68       		.sleb128 -24
 7896 2569 34       		.uleb128 0x34
 7897 256a EF120000 		.4byte	.LASF463
 7898 256e 07       		.byte	0x7
 7899 256f 4102     		.2byte	0x241
 7900 2571 24030000 		.4byte	0x324
 7901 2575 02       		.uleb128 0x2
 7902 2576 91       		.byte	0x91
 7903 2577 60       		.sleb128 -32
 7904 2578 33       		.uleb128 0x33
 7905 2579 6800     		.ascii	"h\000"
 7906 257b 07       		.byte	0x7
 7907 257c 4202     		.2byte	0x242
 7908 257e EF000000 		.4byte	0xef
 7909 2582 02       		.uleb128 0x2
 7910 2583 91       		.byte	0x91
ARM GAS  C:\Users\tmj32\AppData\Local\Temp\ccT5YJ50.s 			page 172


 7911 2584 72       		.sleb128 -14
 7912 2585 34       		.uleb128 0x34
 7913 2586 BD0D0000 		.4byte	.LASF464
 7914 258a 07       		.byte	0x7
 7915 258b 4302     		.2byte	0x243
 7916 258d E0010000 		.4byte	0x1e0
 7917 2591 02       		.uleb128 0x2
 7918 2592 91       		.byte	0x91
 7919 2593 71       		.sleb128 -15
 7920 2594 30       		.uleb128 0x30
 7921 2595 32020000 		.4byte	.LBB14
 7922 2599 32000000 		.4byte	.LBE14-.LBB14
 7923 259d 34       		.uleb128 0x34
 7924 259e 970D0000 		.4byte	.LASF465
 7925 25a2 07       		.byte	0x7
 7926 25a3 6402     		.2byte	0x264
 7927 25a5 C3060000 		.4byte	0x6c3
 7928 25a9 03       		.uleb128 0x3
 7929 25aa 91       		.byte	0x91
 7930 25ab 907F     		.sleb128 -112
 7931 25ad 00       		.byte	0
 7932 25ae 00       		.byte	0
 7933 25af 35       		.uleb128 0x35
 7934 25b0 880E0000 		.4byte	.LASF466
 7935 25b4 07       		.byte	0x7
 7936 25b5 7102     		.2byte	0x271
 7937 25b7 00000000 		.4byte	.LFB73
 7938 25bb 34010000 		.4byte	.LFE73-.LFB73
 7939 25bf 01       		.uleb128 0x1
 7940 25c0 9C       		.byte	0x9c
 7941 25c1 91260000 		.4byte	0x2691
 7942 25c5 2A       		.uleb128 0x2a
 7943 25c6 56180000 		.4byte	.LASF402
 7944 25ca 07       		.byte	0x7
 7945 25cb 7102     		.2byte	0x271
 7946 25cd 3D130000 		.4byte	0x133d
 7947 25d1 03       		.uleb128 0x3
 7948 25d2 91       		.byte	0x91
 7949 25d3 AC7F     		.sleb128 -84
 7950 25d5 2A       		.uleb128 0x2a
 7951 25d6 0C160000 		.4byte	.LASF467
 7952 25da 07       		.byte	0x7
 7953 25db 7102     		.2byte	0x271
 7954 25dd 48030000 		.4byte	0x348
 7955 25e1 03       		.uleb128 0x3
 7956 25e2 91       		.byte	0x91
 7957 25e3 AB7F     		.sleb128 -85
 7958 25e5 34       		.uleb128 0x34
 7959 25e6 91120000 		.4byte	.LASF457
 7960 25ea 07       		.byte	0x7
 7961 25eb 7702     		.2byte	0x277
 7962 25ed 3D130000 		.4byte	0x133d
 7963 25f1 02       		.uleb128 0x2
 7964 25f2 91       		.byte	0x91
 7965 25f3 74       		.sleb128 -12
 7966 25f4 33       		.uleb128 0x33
 7967 25f5 65787400 		.ascii	"ext\000"
ARM GAS  C:\Users\tmj32\AppData\Local\Temp\ccT5YJ50.s 			page 173


 7968 25f9 07       		.byte	0x7
 7969 25fa 7802     		.2byte	0x278
 7970 25fc 1B1F0000 		.4byte	0x1f1b
 7971 2600 02       		.uleb128 0x2
 7972 2601 91       		.byte	0x91
 7973 2602 70       		.sleb128 -16
 7974 2603 34       		.uleb128 0x34
 7975 2604 33070000 		.4byte	.LASF434
 7976 2608 07       		.byte	0x7
 7977 2609 7902     		.2byte	0x279
 7978 260b 0B110000 		.4byte	0x110b
 7979 260f 02       		.uleb128 0x2
 7980 2610 91       		.byte	0x91
 7981 2611 6C       		.sleb128 -20
 7982 2612 34       		.uleb128 0x34
 7983 2613 99130000 		.4byte	.LASF87
 7984 2617 07       		.byte	0x7
 7985 2618 7A02     		.2byte	0x27a
 7986 261a 07060000 		.4byte	0x607
 7987 261e 02       		.uleb128 0x2
 7988 261f 91       		.byte	0x91
 7989 2620 68       		.sleb128 -24
 7990 2621 34       		.uleb128 0x34
 7991 2622 5A110000 		.4byte	.LASF444
 7992 2626 07       		.byte	0x7
 7993 2627 7B02     		.2byte	0x27b
 7994 2629 EF000000 		.4byte	0xef
 7995 262d 02       		.uleb128 0x2
 7996 262e 91       		.byte	0x91
 7997 262f 66       		.sleb128 -26
 7998 2630 33       		.uleb128 0x33
 7999 2631 6800     		.ascii	"h\000"
 8000 2633 07       		.byte	0x7
 8001 2634 7C02     		.2byte	0x27c
 8002 2636 EF000000 		.4byte	0xef
 8003 263a 02       		.uleb128 0x2
 8004 263b 91       		.byte	0x91
 8005 263c 64       		.sleb128 -28
 8006 263d 34       		.uleb128 0x34
 8007 263e 02060000 		.4byte	.LASF330
 8008 2642 07       		.byte	0x7
 8009 2643 7D02     		.2byte	0x27d
 8010 2645 CE000000 		.4byte	0xce
 8011 2649 02       		.uleb128 0x2
 8012 264a 91       		.byte	0x91
 8013 264b 62       		.sleb128 -30
 8014 264c 33       		.uleb128 0x33
 8015 264d 696400   		.ascii	"id\000"
 8016 2650 07       		.byte	0x7
 8017 2651 8502     		.2byte	0x285
 8018 2653 D9000000 		.4byte	0xd9
 8019 2657 02       		.uleb128 0x2
 8020 2658 91       		.byte	0x91
 8021 2659 5C       		.sleb128 -36
 8022 265a 34       		.uleb128 0x34
 8023 265b DD140000 		.4byte	.LASF468
 8024 265f 07       		.byte	0x7
ARM GAS  C:\Users\tmj32\AppData\Local\Temp\ccT5YJ50.s 			page 174


 8025 2660 8602     		.2byte	0x286
 8026 2662 EF000000 		.4byte	0xef
 8027 2666 02       		.uleb128 0x2
 8028 2667 91       		.byte	0x91
 8029 2668 5A       		.sleb128 -38
 8030 2669 34       		.uleb128 0x34
 8031 266a B1100000 		.4byte	.LASF469
 8032 266e 07       		.byte	0x7
 8033 266f 8802     		.2byte	0x288
 8034 2671 EF000000 		.4byte	0xef
 8035 2675 02       		.uleb128 0x2
 8036 2676 91       		.byte	0x91
 8037 2677 58       		.sleb128 -40
 8038 2678 30       		.uleb128 0x30
 8039 2679 CC000000 		.4byte	.LBB15
 8040 267d 52000000 		.4byte	.LBE15-.LBB15
 8041 2681 33       		.uleb128 0x33
 8042 2682 6100     		.ascii	"a\000"
 8043 2684 07       		.byte	0x7
 8044 2685 8E02     		.2byte	0x28e
 8045 2687 8D040000 		.4byte	0x48d
 8046 268b 03       		.uleb128 0x3
 8047 268c 91       		.byte	0x91
 8048 268d B47F     		.sleb128 -76
 8049 268f 00       		.byte	0
 8050 2690 00       		.byte	0
 8051 2691 35       		.uleb128 0x35
 8052 2692 FF090000 		.4byte	.LASF470
 8053 2696 07       		.byte	0x7
 8054 2697 A402     		.2byte	0x2a4
 8055 2699 00000000 		.4byte	.LFB74
 8056 269d A8000000 		.4byte	.LFE74-.LFB74
 8057 26a1 01       		.uleb128 0x1
 8058 26a2 9C       		.byte	0x9c
 8059 26a3 EE260000 		.4byte	0x26ee
 8060 26a7 2A       		.uleb128 0x2a
 8061 26a8 56180000 		.4byte	.LASF402
 8062 26ac 07       		.byte	0x7
 8063 26ad A402     		.2byte	0x2a4
 8064 26af 3D130000 		.4byte	0x133d
 8065 26b3 02       		.uleb128 0x2
 8066 26b4 91       		.byte	0x91
 8067 26b5 5C       		.sleb128 -36
 8068 26b6 33       		.uleb128 0x33
 8069 26b7 65787400 		.ascii	"ext\000"
 8070 26bb 07       		.byte	0x7
 8071 26bc A602     		.2byte	0x2a6
 8072 26be 1B1F0000 		.4byte	0x1f1b
 8073 26c2 02       		.uleb128 0x2
 8074 26c3 91       		.byte	0x91
 8075 26c4 68       		.sleb128 -24
 8076 26c5 34       		.uleb128 0x34
 8077 26c6 9F020000 		.4byte	.LASF471
 8078 26ca 07       		.byte	0x7
 8079 26cb A702     		.2byte	0x2a7
 8080 26cd 88100000 		.4byte	0x1088
 8081 26d1 02       		.uleb128 0x2
ARM GAS  C:\Users\tmj32\AppData\Local\Temp\ccT5YJ50.s 			page 175


 8082 26d2 91       		.byte	0x91
 8083 26d3 6F       		.sleb128 -17
 8084 26d4 30       		.uleb128 0x30
 8085 26d5 1C000000 		.4byte	.LBB16
 8086 26d9 24000000 		.4byte	.LBE16-.LBB16
 8087 26dd 34       		.uleb128 0x34
 8088 26de CC020000 		.4byte	.LASF451
 8089 26e2 07       		.byte	0x7
 8090 26e3 A902     		.2byte	0x2a9
 8091 26e5 A9130000 		.4byte	0x13a9
 8092 26e9 02       		.uleb128 0x2
 8093 26ea 91       		.byte	0x91
 8094 26eb 67       		.sleb128 -25
 8095 26ec 00       		.byte	0
 8096 26ed 00       		.byte	0
 8097 26ee 35       		.uleb128 0x35
 8098 26ef 94030000 		.4byte	.LASF472
 8099 26f3 07       		.byte	0x7
 8100 26f4 BC02     		.2byte	0x2bc
 8101 26f6 00000000 		.4byte	.LFB75
 8102 26fa F8000000 		.4byte	.LFE75-.LFB75
 8103 26fe 01       		.uleb128 0x1
 8104 26ff 9C       		.byte	0x9c
 8105 2700 B2270000 		.4byte	0x27b2
 8106 2704 2A       		.uleb128 0x2a
 8107 2705 A0040000 		.4byte	.LASF328
 8108 2709 07       		.byte	0x7
 8109 270a BC02     		.2byte	0x2bc
 8110 270c FA000000 		.4byte	0xfa
 8111 2710 02       		.uleb128 0x2
 8112 2711 91       		.byte	0x91
 8113 2712 54       		.sleb128 -44
 8114 2713 34       		.uleb128 0x34
 8115 2714 91120000 		.4byte	.LASF457
 8116 2718 07       		.byte	0x7
 8117 2719 BE02     		.2byte	0x2be
 8118 271b 3D130000 		.4byte	0x133d
 8119 271f 02       		.uleb128 0x2
 8120 2720 91       		.byte	0x91
 8121 2721 74       		.sleb128 -12
 8122 2722 34       		.uleb128 0x34
 8123 2723 56180000 		.4byte	.LASF402
 8124 2727 07       		.byte	0x7
 8125 2728 BF02     		.2byte	0x2bf
 8126 272a 3D130000 		.4byte	0x133d
 8127 272e 02       		.uleb128 0x2
 8128 272f 91       		.byte	0x91
 8129 2730 70       		.sleb128 -16
 8130 2731 33       		.uleb128 0x33
 8131 2732 65787400 		.ascii	"ext\000"
 8132 2736 07       		.byte	0x7
 8133 2737 C002     		.2byte	0x2c0
 8134 2739 1B1F0000 		.4byte	0x1f1b
 8135 273d 02       		.uleb128 0x2
 8136 273e 91       		.byte	0x91
 8137 273f 6C       		.sleb128 -20
 8138 2740 30       		.uleb128 0x30
ARM GAS  C:\Users\tmj32\AppData\Local\Temp\ccT5YJ50.s 			page 176


 8139 2741 2C000000 		.4byte	.LBB17
 8140 2745 C0000000 		.4byte	.LBE17-.LBB17
 8141 2749 34       		.uleb128 0x34
 8142 274a 26180000 		.4byte	.LASF426
 8143 274e 07       		.byte	0x7
 8144 274f C302     		.2byte	0x2c3
 8145 2751 CE000000 		.4byte	0xce
 8146 2755 02       		.uleb128 0x2
 8147 2756 91       		.byte	0x91
 8148 2757 6A       		.sleb128 -22
 8149 2758 34       		.uleb128 0x34
 8150 2759 33070000 		.4byte	.LASF434
 8151 275d 07       		.byte	0x7
 8152 275e CA02     		.2byte	0x2ca
 8153 2760 0B110000 		.4byte	0x110b
 8154 2764 02       		.uleb128 0x2
 8155 2765 91       		.byte	0x91
 8156 2766 64       		.sleb128 -28
 8157 2767 34       		.uleb128 0x34
 8158 2768 99130000 		.4byte	.LASF87
 8159 276c 07       		.byte	0x7
 8160 276d CB02     		.2byte	0x2cb
 8161 276f 07060000 		.4byte	0x607
 8162 2773 02       		.uleb128 0x2
 8163 2774 91       		.byte	0x91
 8164 2775 60       		.sleb128 -32
 8165 2776 34       		.uleb128 0x34
 8166 2777 5A110000 		.4byte	.LASF444
 8167 277b 07       		.byte	0x7
 8168 277c CC02     		.2byte	0x2cc
 8169 277e EF000000 		.4byte	0xef
 8170 2782 02       		.uleb128 0x2
 8171 2783 91       		.byte	0x91
 8172 2784 5E       		.sleb128 -34
 8173 2785 33       		.uleb128 0x33
 8174 2786 6800     		.ascii	"h\000"
 8175 2788 07       		.byte	0x7
 8176 2789 CD02     		.2byte	0x2cd
 8177 278b EF000000 		.4byte	0xef
 8178 278f 02       		.uleb128 0x2
 8179 2790 91       		.byte	0x91
 8180 2791 5C       		.sleb128 -36
 8181 2792 34       		.uleb128 0x34
 8182 2793 DD140000 		.4byte	.LASF468
 8183 2797 07       		.byte	0x7
 8184 2798 CF02     		.2byte	0x2cf
 8185 279a EF000000 		.4byte	0xef
 8186 279e 02       		.uleb128 0x2
 8187 279f 91       		.byte	0x91
 8188 27a0 5A       		.sleb128 -38
 8189 27a1 34       		.uleb128 0x34
 8190 27a2 B1100000 		.4byte	.LASF469
 8191 27a6 07       		.byte	0x7
 8192 27a7 D102     		.2byte	0x2d1
 8193 27a9 EF000000 		.4byte	0xef
 8194 27ad 02       		.uleb128 0x2
 8195 27ae 91       		.byte	0x91
ARM GAS  C:\Users\tmj32\AppData\Local\Temp\ccT5YJ50.s 			page 177


 8196 27af 58       		.sleb128 -40
 8197 27b0 00       		.byte	0
 8198 27b1 00       		.byte	0
 8199 27b2 35       		.uleb128 0x35
 8200 27b3 A2120000 		.4byte	.LASF473
 8201 27b7 07       		.byte	0x7
 8202 27b8 D702     		.2byte	0x2d7
 8203 27ba 00000000 		.4byte	.LFB76
 8204 27be 1A000000 		.4byte	.LFE76-.LFB76
 8205 27c2 01       		.uleb128 0x1
 8206 27c3 9C       		.byte	0x9c
 8207 27c4 D6270000 		.4byte	0x27d6
 8208 27c8 36       		.uleb128 0x36
 8209 27c9 6100     		.ascii	"a\000"
 8210 27cb 07       		.byte	0x7
 8211 27cc D702     		.2byte	0x2d7
 8212 27ce D6270000 		.4byte	0x27d6
 8213 27d2 02       		.uleb128 0x2
 8214 27d3 91       		.byte	0x91
 8215 27d4 74       		.sleb128 -12
 8216 27d5 00       		.byte	0
 8217 27d6 0D       		.uleb128 0xd
 8218 27d7 04       		.byte	0x4
 8219 27d8 8D040000 		.4byte	0x48d
 8220 27dc 2D       		.uleb128 0x2d
 8221 27dd D9100000 		.4byte	.LASF474
 8222 27e1 07       		.byte	0x7
 8223 27e2 30       		.byte	0x30
 8224 27e3 D30F0000 		.4byte	0xfd3
 8225 27e7 05       		.uleb128 0x5
 8226 27e8 03       		.byte	0x3
 8227 27e9 00000000 		.4byte	ancestor_signal
 8228 27ed 2D       		.uleb128 0x2d
 8229 27ee CD060000 		.4byte	.LASF475
 8230 27f2 07       		.byte	0x7
 8231 27f3 31       		.byte	0x31
 8232 27f4 D30F0000 		.4byte	0xfd3
 8233 27f8 05       		.uleb128 0x5
 8234 27f9 03       		.byte	0x3
 8235 27fa 04000000 		.4byte	ancestor_scrl_signal
 8236 27fe 00       		.byte	0
 8237              		.section	.debug_abbrev,"",%progbits
 8238              	.Ldebug_abbrev0:
 8239 0000 01       		.uleb128 0x1
 8240 0001 11       		.uleb128 0x11
 8241 0002 01       		.byte	0x1
 8242 0003 25       		.uleb128 0x25
 8243 0004 0E       		.uleb128 0xe
 8244 0005 13       		.uleb128 0x13
 8245 0006 0B       		.uleb128 0xb
 8246 0007 03       		.uleb128 0x3
 8247 0008 0E       		.uleb128 0xe
 8248 0009 1B       		.uleb128 0x1b
 8249 000a 0E       		.uleb128 0xe
 8250 000b 55       		.uleb128 0x55
 8251 000c 17       		.uleb128 0x17
 8252 000d 11       		.uleb128 0x11
ARM GAS  C:\Users\tmj32\AppData\Local\Temp\ccT5YJ50.s 			page 178


 8253 000e 01       		.uleb128 0x1
 8254 000f 10       		.uleb128 0x10
 8255 0010 17       		.uleb128 0x17
 8256 0011 00       		.byte	0
 8257 0012 00       		.byte	0
 8258 0013 02       		.uleb128 0x2
 8259 0014 16       		.uleb128 0x16
 8260 0015 00       		.byte	0
 8261 0016 03       		.uleb128 0x3
 8262 0017 0E       		.uleb128 0xe
 8263 0018 3A       		.uleb128 0x3a
 8264 0019 0B       		.uleb128 0xb
 8265 001a 3B       		.uleb128 0x3b
 8266 001b 0B       		.uleb128 0xb
 8267 001c 49       		.uleb128 0x49
 8268 001d 13       		.uleb128 0x13
 8269 001e 00       		.byte	0
 8270 001f 00       		.byte	0
 8271 0020 03       		.uleb128 0x3
 8272 0021 24       		.uleb128 0x24
 8273 0022 00       		.byte	0
 8274 0023 0B       		.uleb128 0xb
 8275 0024 0B       		.uleb128 0xb
 8276 0025 3E       		.uleb128 0x3e
 8277 0026 0B       		.uleb128 0xb
 8278 0027 03       		.uleb128 0x3
 8279 0028 0E       		.uleb128 0xe
 8280 0029 00       		.byte	0
 8281 002a 00       		.byte	0
 8282 002b 04       		.uleb128 0x4
 8283 002c 24       		.uleb128 0x24
 8284 002d 00       		.byte	0
 8285 002e 0B       		.uleb128 0xb
 8286 002f 0B       		.uleb128 0xb
 8287 0030 3E       		.uleb128 0x3e
 8288 0031 0B       		.uleb128 0xb
 8289 0032 03       		.uleb128 0x3
 8290 0033 08       		.uleb128 0x8
 8291 0034 00       		.byte	0
 8292 0035 00       		.byte	0
 8293 0036 05       		.uleb128 0x5
 8294 0037 0F       		.uleb128 0xf
 8295 0038 00       		.byte	0
 8296 0039 0B       		.uleb128 0xb
 8297 003a 0B       		.uleb128 0xb
 8298 003b 00       		.byte	0
 8299 003c 00       		.byte	0
 8300 003d 06       		.uleb128 0x6
 8301 003e 13       		.uleb128 0x13
 8302 003f 01       		.byte	0x1
 8303 0040 0B       		.uleb128 0xb
 8304 0041 0B       		.uleb128 0xb
 8305 0042 3A       		.uleb128 0x3a
 8306 0043 0B       		.uleb128 0xb
 8307 0044 3B       		.uleb128 0x3b
 8308 0045 0B       		.uleb128 0xb
 8309 0046 01       		.uleb128 0x1
ARM GAS  C:\Users\tmj32\AppData\Local\Temp\ccT5YJ50.s 			page 179


 8310 0047 13       		.uleb128 0x13
 8311 0048 00       		.byte	0
 8312 0049 00       		.byte	0
 8313 004a 07       		.uleb128 0x7
 8314 004b 0D       		.uleb128 0xd
 8315 004c 00       		.byte	0
 8316 004d 03       		.uleb128 0x3
 8317 004e 0E       		.uleb128 0xe
 8318 004f 3A       		.uleb128 0x3a
 8319 0050 0B       		.uleb128 0xb
 8320 0051 3B       		.uleb128 0x3b
 8321 0052 0B       		.uleb128 0xb
 8322 0053 49       		.uleb128 0x49
 8323 0054 13       		.uleb128 0x13
 8324 0055 38       		.uleb128 0x38
 8325 0056 0B       		.uleb128 0xb
 8326 0057 00       		.byte	0
 8327 0058 00       		.byte	0
 8328 0059 08       		.uleb128 0x8
 8329 005a 0D       		.uleb128 0xd
 8330 005b 00       		.byte	0
 8331 005c 03       		.uleb128 0x3
 8332 005d 08       		.uleb128 0x8
 8333 005e 3A       		.uleb128 0x3a
 8334 005f 0B       		.uleb128 0xb
 8335 0060 3B       		.uleb128 0x3b
 8336 0061 0B       		.uleb128 0xb
 8337 0062 49       		.uleb128 0x49
 8338 0063 13       		.uleb128 0x13
 8339 0064 38       		.uleb128 0x38
 8340 0065 0B       		.uleb128 0xb
 8341 0066 00       		.byte	0
 8342 0067 00       		.byte	0
 8343 0068 09       		.uleb128 0x9
 8344 0069 13       		.uleb128 0x13
 8345 006a 01       		.byte	0x1
 8346 006b 03       		.uleb128 0x3
 8347 006c 0E       		.uleb128 0xe
 8348 006d 0B       		.uleb128 0xb
 8349 006e 0B       		.uleb128 0xb
 8350 006f 3A       		.uleb128 0x3a
 8351 0070 0B       		.uleb128 0xb
 8352 0071 3B       		.uleb128 0x3b
 8353 0072 0B       		.uleb128 0xb
 8354 0073 01       		.uleb128 0x1
 8355 0074 13       		.uleb128 0x13
 8356 0075 00       		.byte	0
 8357 0076 00       		.byte	0
 8358 0077 0A       		.uleb128 0xa
 8359 0078 0D       		.uleb128 0xd
 8360 0079 00       		.byte	0
 8361 007a 03       		.uleb128 0x3
 8362 007b 0E       		.uleb128 0xe
 8363 007c 3A       		.uleb128 0x3a
 8364 007d 0B       		.uleb128 0xb
 8365 007e 3B       		.uleb128 0x3b
 8366 007f 0B       		.uleb128 0xb
ARM GAS  C:\Users\tmj32\AppData\Local\Temp\ccT5YJ50.s 			page 180


 8367 0080 49       		.uleb128 0x49
 8368 0081 13       		.uleb128 0x13
 8369 0082 0B       		.uleb128 0xb
 8370 0083 0B       		.uleb128 0xb
 8371 0084 0D       		.uleb128 0xd
 8372 0085 0B       		.uleb128 0xb
 8373 0086 0C       		.uleb128 0xc
 8374 0087 0B       		.uleb128 0xb
 8375 0088 38       		.uleb128 0x38
 8376 0089 0B       		.uleb128 0xb
 8377 008a 00       		.byte	0
 8378 008b 00       		.byte	0
 8379 008c 0B       		.uleb128 0xb
 8380 008d 15       		.uleb128 0x15
 8381 008e 01       		.byte	0x1
 8382 008f 27       		.uleb128 0x27
 8383 0090 19       		.uleb128 0x19
 8384 0091 49       		.uleb128 0x49
 8385 0092 13       		.uleb128 0x13
 8386 0093 01       		.uleb128 0x1
 8387 0094 13       		.uleb128 0x13
 8388 0095 00       		.byte	0
 8389 0096 00       		.byte	0
 8390 0097 0C       		.uleb128 0xc
 8391 0098 05       		.uleb128 0x5
 8392 0099 00       		.byte	0
 8393 009a 49       		.uleb128 0x49
 8394 009b 13       		.uleb128 0x13
 8395 009c 00       		.byte	0
 8396 009d 00       		.byte	0
 8397 009e 0D       		.uleb128 0xd
 8398 009f 0F       		.uleb128 0xf
 8399 00a0 00       		.byte	0
 8400 00a1 0B       		.uleb128 0xb
 8401 00a2 0B       		.uleb128 0xb
 8402 00a3 49       		.uleb128 0x49
 8403 00a4 13       		.uleb128 0x13
 8404 00a5 00       		.byte	0
 8405 00a6 00       		.byte	0
 8406 00a7 0E       		.uleb128 0xe
 8407 00a8 26       		.uleb128 0x26
 8408 00a9 00       		.byte	0
 8409 00aa 49       		.uleb128 0x49
 8410 00ab 13       		.uleb128 0x13
 8411 00ac 00       		.byte	0
 8412 00ad 00       		.byte	0
 8413 00ae 0F       		.uleb128 0xf
 8414 00af 17       		.uleb128 0x17
 8415 00b0 01       		.byte	0x1
 8416 00b1 0B       		.uleb128 0xb
 8417 00b2 0B       		.uleb128 0xb
 8418 00b3 3A       		.uleb128 0x3a
 8419 00b4 0B       		.uleb128 0xb
 8420 00b5 3B       		.uleb128 0x3b
 8421 00b6 0B       		.uleb128 0xb
 8422 00b7 01       		.uleb128 0x1
 8423 00b8 13       		.uleb128 0x13
ARM GAS  C:\Users\tmj32\AppData\Local\Temp\ccT5YJ50.s 			page 181


 8424 00b9 00       		.byte	0
 8425 00ba 00       		.byte	0
 8426 00bb 10       		.uleb128 0x10
 8427 00bc 0D       		.uleb128 0xd
 8428 00bd 00       		.byte	0
 8429 00be 03       		.uleb128 0x3
 8430 00bf 08       		.uleb128 0x8
 8431 00c0 3A       		.uleb128 0x3a
 8432 00c1 0B       		.uleb128 0xb
 8433 00c2 3B       		.uleb128 0x3b
 8434 00c3 0B       		.uleb128 0xb
 8435 00c4 49       		.uleb128 0x49
 8436 00c5 13       		.uleb128 0x13
 8437 00c6 00       		.byte	0
 8438 00c7 00       		.byte	0
 8439 00c8 11       		.uleb128 0x11
 8440 00c9 0D       		.uleb128 0xd
 8441 00ca 00       		.byte	0
 8442 00cb 03       		.uleb128 0x3
 8443 00cc 0E       		.uleb128 0xe
 8444 00cd 3A       		.uleb128 0x3a
 8445 00ce 0B       		.uleb128 0xb
 8446 00cf 3B       		.uleb128 0x3b
 8447 00d0 0B       		.uleb128 0xb
 8448 00d1 49       		.uleb128 0x49
 8449 00d2 13       		.uleb128 0x13
 8450 00d3 00       		.byte	0
 8451 00d4 00       		.byte	0
 8452 00d5 12       		.uleb128 0x12
 8453 00d6 16       		.uleb128 0x16
 8454 00d7 00       		.byte	0
 8455 00d8 03       		.uleb128 0x3
 8456 00d9 0E       		.uleb128 0xe
 8457 00da 3A       		.uleb128 0x3a
 8458 00db 0B       		.uleb128 0xb
 8459 00dc 3B       		.uleb128 0x3b
 8460 00dd 05       		.uleb128 0x5
 8461 00de 49       		.uleb128 0x49
 8462 00df 13       		.uleb128 0x13
 8463 00e0 00       		.byte	0
 8464 00e1 00       		.byte	0
 8465 00e2 13       		.uleb128 0x13
 8466 00e3 04       		.uleb128 0x4
 8467 00e4 01       		.byte	0x1
 8468 00e5 0B       		.uleb128 0xb
 8469 00e6 0B       		.uleb128 0xb
 8470 00e7 49       		.uleb128 0x49
 8471 00e8 13       		.uleb128 0x13
 8472 00e9 3A       		.uleb128 0x3a
 8473 00ea 0B       		.uleb128 0xb
 8474 00eb 3B       		.uleb128 0x3b
 8475 00ec 0B       		.uleb128 0xb
 8476 00ed 01       		.uleb128 0x1
 8477 00ee 13       		.uleb128 0x13
 8478 00ef 00       		.byte	0
 8479 00f0 00       		.byte	0
 8480 00f1 14       		.uleb128 0x14
ARM GAS  C:\Users\tmj32\AppData\Local\Temp\ccT5YJ50.s 			page 182


 8481 00f2 28       		.uleb128 0x28
 8482 00f3 00       		.byte	0
 8483 00f4 03       		.uleb128 0x3
 8484 00f5 0E       		.uleb128 0xe
 8485 00f6 1C       		.uleb128 0x1c
 8486 00f7 0B       		.uleb128 0xb
 8487 00f8 00       		.byte	0
 8488 00f9 00       		.byte	0
 8489 00fa 15       		.uleb128 0x15
 8490 00fb 15       		.uleb128 0x15
 8491 00fc 01       		.byte	0x1
 8492 00fd 27       		.uleb128 0x27
 8493 00fe 19       		.uleb128 0x19
 8494 00ff 01       		.uleb128 0x1
 8495 0100 13       		.uleb128 0x13
 8496 0101 00       		.byte	0
 8497 0102 00       		.byte	0
 8498 0103 16       		.uleb128 0x16
 8499 0104 35       		.uleb128 0x35
 8500 0105 00       		.byte	0
 8501 0106 49       		.uleb128 0x49
 8502 0107 13       		.uleb128 0x13
 8503 0108 00       		.byte	0
 8504 0109 00       		.byte	0
 8505 010a 17       		.uleb128 0x17
 8506 010b 13       		.uleb128 0x13
 8507 010c 01       		.byte	0x1
 8508 010d 03       		.uleb128 0x3
 8509 010e 0E       		.uleb128 0xe
 8510 010f 0B       		.uleb128 0xb
 8511 0110 05       		.uleb128 0x5
 8512 0111 3A       		.uleb128 0x3a
 8513 0112 0B       		.uleb128 0xb
 8514 0113 3B       		.uleb128 0x3b
 8515 0114 0B       		.uleb128 0xb
 8516 0115 01       		.uleb128 0x1
 8517 0116 13       		.uleb128 0x13
 8518 0117 00       		.byte	0
 8519 0118 00       		.byte	0
 8520 0119 18       		.uleb128 0x18
 8521 011a 0D       		.uleb128 0xd
 8522 011b 00       		.byte	0
 8523 011c 03       		.uleb128 0x3
 8524 011d 0E       		.uleb128 0xe
 8525 011e 3A       		.uleb128 0x3a
 8526 011f 0B       		.uleb128 0xb
 8527 0120 3B       		.uleb128 0x3b
 8528 0121 0B       		.uleb128 0xb
 8529 0122 49       		.uleb128 0x49
 8530 0123 13       		.uleb128 0x13
 8531 0124 38       		.uleb128 0x38
 8532 0125 05       		.uleb128 0x5
 8533 0126 00       		.byte	0
 8534 0127 00       		.byte	0
 8535 0128 19       		.uleb128 0x19
 8536 0129 0D       		.uleb128 0xd
 8537 012a 00       		.byte	0
ARM GAS  C:\Users\tmj32\AppData\Local\Temp\ccT5YJ50.s 			page 183


 8538 012b 03       		.uleb128 0x3
 8539 012c 0E       		.uleb128 0xe
 8540 012d 3A       		.uleb128 0x3a
 8541 012e 0B       		.uleb128 0xb
 8542 012f 3B       		.uleb128 0x3b
 8543 0130 0B       		.uleb128 0xb
 8544 0131 49       		.uleb128 0x49
 8545 0132 13       		.uleb128 0x13
 8546 0133 0B       		.uleb128 0xb
 8547 0134 0B       		.uleb128 0xb
 8548 0135 0D       		.uleb128 0xd
 8549 0136 0B       		.uleb128 0xb
 8550 0137 0C       		.uleb128 0xc
 8551 0138 0B       		.uleb128 0xb
 8552 0139 38       		.uleb128 0x38
 8553 013a 05       		.uleb128 0x5
 8554 013b 00       		.byte	0
 8555 013c 00       		.byte	0
 8556 013d 1A       		.uleb128 0x1a
 8557 013e 0D       		.uleb128 0xd
 8558 013f 00       		.byte	0
 8559 0140 03       		.uleb128 0x3
 8560 0141 08       		.uleb128 0x8
 8561 0142 3A       		.uleb128 0x3a
 8562 0143 0B       		.uleb128 0xb
 8563 0144 3B       		.uleb128 0x3b
 8564 0145 0B       		.uleb128 0xb
 8565 0146 49       		.uleb128 0x49
 8566 0147 13       		.uleb128 0x13
 8567 0148 0B       		.uleb128 0xb
 8568 0149 0B       		.uleb128 0xb
 8569 014a 0D       		.uleb128 0xd
 8570 014b 0B       		.uleb128 0xb
 8571 014c 0C       		.uleb128 0xc
 8572 014d 0B       		.uleb128 0xb
 8573 014e 38       		.uleb128 0x38
 8574 014f 0B       		.uleb128 0xb
 8575 0150 00       		.byte	0
 8576 0151 00       		.byte	0
 8577 0152 1B       		.uleb128 0x1b
 8578 0153 01       		.uleb128 0x1
 8579 0154 01       		.byte	0x1
 8580 0155 49       		.uleb128 0x49
 8581 0156 13       		.uleb128 0x13
 8582 0157 01       		.uleb128 0x1
 8583 0158 13       		.uleb128 0x13
 8584 0159 00       		.byte	0
 8585 015a 00       		.byte	0
 8586 015b 1C       		.uleb128 0x1c
 8587 015c 21       		.uleb128 0x21
 8588 015d 00       		.byte	0
 8589 015e 49       		.uleb128 0x49
 8590 015f 13       		.uleb128 0x13
 8591 0160 2F       		.uleb128 0x2f
 8592 0161 0B       		.uleb128 0xb
 8593 0162 00       		.byte	0
 8594 0163 00       		.byte	0
ARM GAS  C:\Users\tmj32\AppData\Local\Temp\ccT5YJ50.s 			page 184


 8595 0164 1D       		.uleb128 0x1d
 8596 0165 13       		.uleb128 0x13
 8597 0166 00       		.byte	0
 8598 0167 03       		.uleb128 0x3
 8599 0168 0E       		.uleb128 0xe
 8600 0169 3C       		.uleb128 0x3c
 8601 016a 19       		.uleb128 0x19
 8602 016b 00       		.byte	0
 8603 016c 00       		.byte	0
 8604 016d 1E       		.uleb128 0x1e
 8605 016e 0D       		.uleb128 0xd
 8606 016f 00       		.byte	0
 8607 0170 03       		.uleb128 0x3
 8608 0171 08       		.uleb128 0x8
 8609 0172 3A       		.uleb128 0x3a
 8610 0173 0B       		.uleb128 0xb
 8611 0174 3B       		.uleb128 0x3b
 8612 0175 05       		.uleb128 0x5
 8613 0176 49       		.uleb128 0x49
 8614 0177 13       		.uleb128 0x13
 8615 0178 38       		.uleb128 0x38
 8616 0179 0B       		.uleb128 0xb
 8617 017a 00       		.byte	0
 8618 017b 00       		.byte	0
 8619 017c 1F       		.uleb128 0x1f
 8620 017d 0D       		.uleb128 0xd
 8621 017e 00       		.byte	0
 8622 017f 03       		.uleb128 0x3
 8623 0180 0E       		.uleb128 0xe
 8624 0181 3A       		.uleb128 0x3a
 8625 0182 0B       		.uleb128 0xb
 8626 0183 3B       		.uleb128 0x3b
 8627 0184 05       		.uleb128 0x5
 8628 0185 49       		.uleb128 0x49
 8629 0186 13       		.uleb128 0x13
 8630 0187 38       		.uleb128 0x38
 8631 0188 0B       		.uleb128 0xb
 8632 0189 00       		.byte	0
 8633 018a 00       		.byte	0
 8634 018b 20       		.uleb128 0x20
 8635 018c 13       		.uleb128 0x13
 8636 018d 01       		.byte	0x1
 8637 018e 0B       		.uleb128 0xb
 8638 018f 0B       		.uleb128 0xb
 8639 0190 3A       		.uleb128 0x3a
 8640 0191 0B       		.uleb128 0xb
 8641 0192 3B       		.uleb128 0x3b
 8642 0193 05       		.uleb128 0x5
 8643 0194 01       		.uleb128 0x1
 8644 0195 13       		.uleb128 0x13
 8645 0196 00       		.byte	0
 8646 0197 00       		.byte	0
 8647 0198 21       		.uleb128 0x21
 8648 0199 13       		.uleb128 0x13
 8649 019a 01       		.byte	0x1
 8650 019b 0B       		.uleb128 0xb
 8651 019c 05       		.uleb128 0x5
ARM GAS  C:\Users\tmj32\AppData\Local\Temp\ccT5YJ50.s 			page 185


 8652 019d 3A       		.uleb128 0x3a
 8653 019e 0B       		.uleb128 0xb
 8654 019f 3B       		.uleb128 0x3b
 8655 01a0 0B       		.uleb128 0xb
 8656 01a1 01       		.uleb128 0x1
 8657 01a2 13       		.uleb128 0x13
 8658 01a3 00       		.byte	0
 8659 01a4 00       		.byte	0
 8660 01a5 22       		.uleb128 0x22
 8661 01a6 0D       		.uleb128 0xd
 8662 01a7 00       		.byte	0
 8663 01a8 03       		.uleb128 0x3
 8664 01a9 08       		.uleb128 0x8
 8665 01aa 3A       		.uleb128 0x3a
 8666 01ab 0B       		.uleb128 0xb
 8667 01ac 3B       		.uleb128 0x3b
 8668 01ad 0B       		.uleb128 0xb
 8669 01ae 49       		.uleb128 0x49
 8670 01af 13       		.uleb128 0x13
 8671 01b0 38       		.uleb128 0x38
 8672 01b1 05       		.uleb128 0x5
 8673 01b2 00       		.byte	0
 8674 01b3 00       		.byte	0
 8675 01b4 23       		.uleb128 0x23
 8676 01b5 0D       		.uleb128 0xd
 8677 01b6 00       		.byte	0
 8678 01b7 03       		.uleb128 0x3
 8679 01b8 0E       		.uleb128 0xe
 8680 01b9 3A       		.uleb128 0x3a
 8681 01ba 0B       		.uleb128 0xb
 8682 01bb 3B       		.uleb128 0x3b
 8683 01bc 05       		.uleb128 0x5
 8684 01bd 49       		.uleb128 0x49
 8685 01be 13       		.uleb128 0x13
 8686 01bf 38       		.uleb128 0x38
 8687 01c0 05       		.uleb128 0x5
 8688 01c1 00       		.byte	0
 8689 01c2 00       		.byte	0
 8690 01c3 24       		.uleb128 0x24
 8691 01c4 0D       		.uleb128 0xd
 8692 01c5 00       		.byte	0
 8693 01c6 03       		.uleb128 0x3
 8694 01c7 08       		.uleb128 0x8
 8695 01c8 3A       		.uleb128 0x3a
 8696 01c9 0B       		.uleb128 0xb
 8697 01ca 3B       		.uleb128 0x3b
 8698 01cb 05       		.uleb128 0x5
 8699 01cc 49       		.uleb128 0x49
 8700 01cd 13       		.uleb128 0x13
 8701 01ce 38       		.uleb128 0x38
 8702 01cf 05       		.uleb128 0x5
 8703 01d0 00       		.byte	0
 8704 01d1 00       		.byte	0
 8705 01d2 25       		.uleb128 0x25
 8706 01d3 2E       		.uleb128 0x2e
 8707 01d4 01       		.byte	0x1
 8708 01d5 03       		.uleb128 0x3
ARM GAS  C:\Users\tmj32\AppData\Local\Temp\ccT5YJ50.s 			page 186


 8709 01d6 0E       		.uleb128 0xe
 8710 01d7 3A       		.uleb128 0x3a
 8711 01d8 0B       		.uleb128 0xb
 8712 01d9 3B       		.uleb128 0x3b
 8713 01da 0B       		.uleb128 0xb
 8714 01db 27       		.uleb128 0x27
 8715 01dc 19       		.uleb128 0x19
 8716 01dd 49       		.uleb128 0x49
 8717 01de 13       		.uleb128 0x13
 8718 01df 11       		.uleb128 0x11
 8719 01e0 01       		.uleb128 0x1
 8720 01e1 12       		.uleb128 0x12
 8721 01e2 06       		.uleb128 0x6
 8722 01e3 40       		.uleb128 0x40
 8723 01e4 18       		.uleb128 0x18
 8724 01e5 9742     		.uleb128 0x2117
 8725 01e7 19       		.uleb128 0x19
 8726 01e8 01       		.uleb128 0x1
 8727 01e9 13       		.uleb128 0x13
 8728 01ea 00       		.byte	0
 8729 01eb 00       		.byte	0
 8730 01ec 26       		.uleb128 0x26
 8731 01ed 05       		.uleb128 0x5
 8732 01ee 00       		.byte	0
 8733 01ef 03       		.uleb128 0x3
 8734 01f0 0E       		.uleb128 0xe
 8735 01f1 3A       		.uleb128 0x3a
 8736 01f2 0B       		.uleb128 0xb
 8737 01f3 3B       		.uleb128 0x3b
 8738 01f4 0B       		.uleb128 0xb
 8739 01f5 49       		.uleb128 0x49
 8740 01f6 13       		.uleb128 0x13
 8741 01f7 02       		.uleb128 0x2
 8742 01f8 18       		.uleb128 0x18
 8743 01f9 00       		.byte	0
 8744 01fa 00       		.byte	0
 8745 01fb 27       		.uleb128 0x27
 8746 01fc 2E       		.uleb128 0x2e
 8747 01fd 01       		.byte	0x1
 8748 01fe 03       		.uleb128 0x3
 8749 01ff 0E       		.uleb128 0xe
 8750 0200 3A       		.uleb128 0x3a
 8751 0201 0B       		.uleb128 0xb
 8752 0202 3B       		.uleb128 0x3b
 8753 0203 0B       		.uleb128 0xb
 8754 0204 27       		.uleb128 0x27
 8755 0205 19       		.uleb128 0x19
 8756 0206 11       		.uleb128 0x11
 8757 0207 01       		.uleb128 0x1
 8758 0208 12       		.uleb128 0x12
 8759 0209 06       		.uleb128 0x6
 8760 020a 40       		.uleb128 0x40
 8761 020b 18       		.uleb128 0x18
 8762 020c 9642     		.uleb128 0x2116
 8763 020e 19       		.uleb128 0x19
 8764 020f 01       		.uleb128 0x1
 8765 0210 13       		.uleb128 0x13
ARM GAS  C:\Users\tmj32\AppData\Local\Temp\ccT5YJ50.s 			page 187


 8766 0211 00       		.byte	0
 8767 0212 00       		.byte	0
 8768 0213 28       		.uleb128 0x28
 8769 0214 05       		.uleb128 0x5
 8770 0215 00       		.byte	0
 8771 0216 03       		.uleb128 0x3
 8772 0217 08       		.uleb128 0x8
 8773 0218 3A       		.uleb128 0x3a
 8774 0219 0B       		.uleb128 0xb
 8775 021a 3B       		.uleb128 0x3b
 8776 021b 0B       		.uleb128 0xb
 8777 021c 49       		.uleb128 0x49
 8778 021d 13       		.uleb128 0x13
 8779 021e 02       		.uleb128 0x2
 8780 021f 18       		.uleb128 0x18
 8781 0220 00       		.byte	0
 8782 0221 00       		.byte	0
 8783 0222 29       		.uleb128 0x29
 8784 0223 2E       		.uleb128 0x2e
 8785 0224 01       		.byte	0x1
 8786 0225 03       		.uleb128 0x3
 8787 0226 0E       		.uleb128 0xe
 8788 0227 3A       		.uleb128 0x3a
 8789 0228 0B       		.uleb128 0xb
 8790 0229 3B       		.uleb128 0x3b
 8791 022a 05       		.uleb128 0x5
 8792 022b 27       		.uleb128 0x27
 8793 022c 19       		.uleb128 0x19
 8794 022d 49       		.uleb128 0x49
 8795 022e 13       		.uleb128 0x13
 8796 022f 11       		.uleb128 0x11
 8797 0230 01       		.uleb128 0x1
 8798 0231 12       		.uleb128 0x12
 8799 0232 06       		.uleb128 0x6
 8800 0233 40       		.uleb128 0x40
 8801 0234 18       		.uleb128 0x18
 8802 0235 9642     		.uleb128 0x2116
 8803 0237 19       		.uleb128 0x19
 8804 0238 01       		.uleb128 0x1
 8805 0239 13       		.uleb128 0x13
 8806 023a 00       		.byte	0
 8807 023b 00       		.byte	0
 8808 023c 2A       		.uleb128 0x2a
 8809 023d 05       		.uleb128 0x5
 8810 023e 00       		.byte	0
 8811 023f 03       		.uleb128 0x3
 8812 0240 0E       		.uleb128 0xe
 8813 0241 3A       		.uleb128 0x3a
 8814 0242 0B       		.uleb128 0xb
 8815 0243 3B       		.uleb128 0x3b
 8816 0244 05       		.uleb128 0x5
 8817 0245 49       		.uleb128 0x49
 8818 0246 13       		.uleb128 0x13
 8819 0247 02       		.uleb128 0x2
 8820 0248 18       		.uleb128 0x18
 8821 0249 00       		.byte	0
 8822 024a 00       		.byte	0
ARM GAS  C:\Users\tmj32\AppData\Local\Temp\ccT5YJ50.s 			page 188


 8823 024b 2B       		.uleb128 0x2b
 8824 024c 2E       		.uleb128 0x2e
 8825 024d 01       		.byte	0x1
 8826 024e 03       		.uleb128 0x3
 8827 024f 0E       		.uleb128 0xe
 8828 0250 3A       		.uleb128 0x3a
 8829 0251 0B       		.uleb128 0xb
 8830 0252 3B       		.uleb128 0x3b
 8831 0253 0B       		.uleb128 0xb
 8832 0254 27       		.uleb128 0x27
 8833 0255 19       		.uleb128 0x19
 8834 0256 49       		.uleb128 0x49
 8835 0257 13       		.uleb128 0x13
 8836 0258 11       		.uleb128 0x11
 8837 0259 01       		.uleb128 0x1
 8838 025a 12       		.uleb128 0x12
 8839 025b 06       		.uleb128 0x6
 8840 025c 40       		.uleb128 0x40
 8841 025d 18       		.uleb128 0x18
 8842 025e 9642     		.uleb128 0x2116
 8843 0260 19       		.uleb128 0x19
 8844 0261 01       		.uleb128 0x1
 8845 0262 13       		.uleb128 0x13
 8846 0263 00       		.byte	0
 8847 0264 00       		.byte	0
 8848 0265 2C       		.uleb128 0x2c
 8849 0266 2E       		.uleb128 0x2e
 8850 0267 01       		.byte	0x1
 8851 0268 3F       		.uleb128 0x3f
 8852 0269 19       		.uleb128 0x19
 8853 026a 03       		.uleb128 0x3
 8854 026b 0E       		.uleb128 0xe
 8855 026c 3A       		.uleb128 0x3a
 8856 026d 0B       		.uleb128 0xb
 8857 026e 3B       		.uleb128 0x3b
 8858 026f 0B       		.uleb128 0xb
 8859 0270 27       		.uleb128 0x27
 8860 0271 19       		.uleb128 0x19
 8861 0272 49       		.uleb128 0x49
 8862 0273 13       		.uleb128 0x13
 8863 0274 11       		.uleb128 0x11
 8864 0275 01       		.uleb128 0x1
 8865 0276 12       		.uleb128 0x12
 8866 0277 06       		.uleb128 0x6
 8867 0278 40       		.uleb128 0x40
 8868 0279 18       		.uleb128 0x18
 8869 027a 9642     		.uleb128 0x2116
 8870 027c 19       		.uleb128 0x19
 8871 027d 01       		.uleb128 0x1
 8872 027e 13       		.uleb128 0x13
 8873 027f 00       		.byte	0
 8874 0280 00       		.byte	0
 8875 0281 2D       		.uleb128 0x2d
 8876 0282 34       		.uleb128 0x34
 8877 0283 00       		.byte	0
 8878 0284 03       		.uleb128 0x3
 8879 0285 0E       		.uleb128 0xe
ARM GAS  C:\Users\tmj32\AppData\Local\Temp\ccT5YJ50.s 			page 189


 8880 0286 3A       		.uleb128 0x3a
 8881 0287 0B       		.uleb128 0xb
 8882 0288 3B       		.uleb128 0x3b
 8883 0289 0B       		.uleb128 0xb
 8884 028a 49       		.uleb128 0x49
 8885 028b 13       		.uleb128 0x13
 8886 028c 02       		.uleb128 0x2
 8887 028d 18       		.uleb128 0x18
 8888 028e 00       		.byte	0
 8889 028f 00       		.byte	0
 8890 0290 2E       		.uleb128 0x2e
 8891 0291 34       		.uleb128 0x34
 8892 0292 00       		.byte	0
 8893 0293 03       		.uleb128 0x3
 8894 0294 08       		.uleb128 0x8
 8895 0295 3A       		.uleb128 0x3a
 8896 0296 0B       		.uleb128 0xb
 8897 0297 3B       		.uleb128 0x3b
 8898 0298 0B       		.uleb128 0xb
 8899 0299 49       		.uleb128 0x49
 8900 029a 13       		.uleb128 0x13
 8901 029b 02       		.uleb128 0x2
 8902 029c 18       		.uleb128 0x18
 8903 029d 00       		.byte	0
 8904 029e 00       		.byte	0
 8905 029f 2F       		.uleb128 0x2f
 8906 02a0 0B       		.uleb128 0xb
 8907 02a1 01       		.byte	0x1
 8908 02a2 11       		.uleb128 0x11
 8909 02a3 01       		.uleb128 0x1
 8910 02a4 12       		.uleb128 0x12
 8911 02a5 06       		.uleb128 0x6
 8912 02a6 01       		.uleb128 0x1
 8913 02a7 13       		.uleb128 0x13
 8914 02a8 00       		.byte	0
 8915 02a9 00       		.byte	0
 8916 02aa 30       		.uleb128 0x30
 8917 02ab 0B       		.uleb128 0xb
 8918 02ac 01       		.byte	0x1
 8919 02ad 11       		.uleb128 0x11
 8920 02ae 01       		.uleb128 0x1
 8921 02af 12       		.uleb128 0x12
 8922 02b0 06       		.uleb128 0x6
 8923 02b1 00       		.byte	0
 8924 02b2 00       		.byte	0
 8925 02b3 31       		.uleb128 0x31
 8926 02b4 2E       		.uleb128 0x2e
 8927 02b5 01       		.byte	0x1
 8928 02b6 3F       		.uleb128 0x3f
 8929 02b7 19       		.uleb128 0x19
 8930 02b8 03       		.uleb128 0x3
 8931 02b9 0E       		.uleb128 0xe
 8932 02ba 3A       		.uleb128 0x3a
 8933 02bb 0B       		.uleb128 0xb
 8934 02bc 3B       		.uleb128 0x3b
 8935 02bd 0B       		.uleb128 0xb
 8936 02be 27       		.uleb128 0x27
ARM GAS  C:\Users\tmj32\AppData\Local\Temp\ccT5YJ50.s 			page 190


 8937 02bf 19       		.uleb128 0x19
 8938 02c0 11       		.uleb128 0x11
 8939 02c1 01       		.uleb128 0x1
 8940 02c2 12       		.uleb128 0x12
 8941 02c3 06       		.uleb128 0x6
 8942 02c4 40       		.uleb128 0x40
 8943 02c5 18       		.uleb128 0x18
 8944 02c6 9642     		.uleb128 0x2116
 8945 02c8 19       		.uleb128 0x19
 8946 02c9 01       		.uleb128 0x1
 8947 02ca 13       		.uleb128 0x13
 8948 02cb 00       		.byte	0
 8949 02cc 00       		.byte	0
 8950 02cd 32       		.uleb128 0x32
 8951 02ce 2E       		.uleb128 0x2e
 8952 02cf 01       		.byte	0x1
 8953 02d0 3F       		.uleb128 0x3f
 8954 02d1 19       		.uleb128 0x19
 8955 02d2 03       		.uleb128 0x3
 8956 02d3 0E       		.uleb128 0xe
 8957 02d4 3A       		.uleb128 0x3a
 8958 02d5 0B       		.uleb128 0xb
 8959 02d6 3B       		.uleb128 0x3b
 8960 02d7 05       		.uleb128 0x5
 8961 02d8 27       		.uleb128 0x27
 8962 02d9 19       		.uleb128 0x19
 8963 02da 49       		.uleb128 0x49
 8964 02db 13       		.uleb128 0x13
 8965 02dc 11       		.uleb128 0x11
 8966 02dd 01       		.uleb128 0x1
 8967 02de 12       		.uleb128 0x12
 8968 02df 06       		.uleb128 0x6
 8969 02e0 40       		.uleb128 0x40
 8970 02e1 18       		.uleb128 0x18
 8971 02e2 9642     		.uleb128 0x2116
 8972 02e4 19       		.uleb128 0x19
 8973 02e5 01       		.uleb128 0x1
 8974 02e6 13       		.uleb128 0x13
 8975 02e7 00       		.byte	0
 8976 02e8 00       		.byte	0
 8977 02e9 33       		.uleb128 0x33
 8978 02ea 34       		.uleb128 0x34
 8979 02eb 00       		.byte	0
 8980 02ec 03       		.uleb128 0x3
 8981 02ed 08       		.uleb128 0x8
 8982 02ee 3A       		.uleb128 0x3a
 8983 02ef 0B       		.uleb128 0xb
 8984 02f0 3B       		.uleb128 0x3b
 8985 02f1 05       		.uleb128 0x5
 8986 02f2 49       		.uleb128 0x49
 8987 02f3 13       		.uleb128 0x13
 8988 02f4 02       		.uleb128 0x2
 8989 02f5 18       		.uleb128 0x18
 8990 02f6 00       		.byte	0
 8991 02f7 00       		.byte	0
 8992 02f8 34       		.uleb128 0x34
 8993 02f9 34       		.uleb128 0x34
ARM GAS  C:\Users\tmj32\AppData\Local\Temp\ccT5YJ50.s 			page 191


 8994 02fa 00       		.byte	0
 8995 02fb 03       		.uleb128 0x3
 8996 02fc 0E       		.uleb128 0xe
 8997 02fd 3A       		.uleb128 0x3a
 8998 02fe 0B       		.uleb128 0xb
 8999 02ff 3B       		.uleb128 0x3b
 9000 0300 05       		.uleb128 0x5
 9001 0301 49       		.uleb128 0x49
 9002 0302 13       		.uleb128 0x13
 9003 0303 02       		.uleb128 0x2
 9004 0304 18       		.uleb128 0x18
 9005 0305 00       		.byte	0
 9006 0306 00       		.byte	0
 9007 0307 35       		.uleb128 0x35
 9008 0308 2E       		.uleb128 0x2e
 9009 0309 01       		.byte	0x1
 9010 030a 03       		.uleb128 0x3
 9011 030b 0E       		.uleb128 0xe
 9012 030c 3A       		.uleb128 0x3a
 9013 030d 0B       		.uleb128 0xb
 9014 030e 3B       		.uleb128 0x3b
 9015 030f 05       		.uleb128 0x5
 9016 0310 27       		.uleb128 0x27
 9017 0311 19       		.uleb128 0x19
 9018 0312 11       		.uleb128 0x11
 9019 0313 01       		.uleb128 0x1
 9020 0314 12       		.uleb128 0x12
 9021 0315 06       		.uleb128 0x6
 9022 0316 40       		.uleb128 0x40
 9023 0317 18       		.uleb128 0x18
 9024 0318 9642     		.uleb128 0x2116
 9025 031a 19       		.uleb128 0x19
 9026 031b 01       		.uleb128 0x1
 9027 031c 13       		.uleb128 0x13
 9028 031d 00       		.byte	0
 9029 031e 00       		.byte	0
 9030 031f 36       		.uleb128 0x36
 9031 0320 05       		.uleb128 0x5
 9032 0321 00       		.byte	0
 9033 0322 03       		.uleb128 0x3
 9034 0323 08       		.uleb128 0x8
 9035 0324 3A       		.uleb128 0x3a
 9036 0325 0B       		.uleb128 0xb
 9037 0326 3B       		.uleb128 0x3b
 9038 0327 05       		.uleb128 0x5
 9039 0328 49       		.uleb128 0x49
 9040 0329 13       		.uleb128 0x13
 9041 032a 02       		.uleb128 0x2
 9042 032b 18       		.uleb128 0x18
 9043 032c 00       		.byte	0
 9044 032d 00       		.byte	0
 9045 032e 00       		.byte	0
 9046              		.section	.debug_aranges,"",%progbits
 9047 0000 F4000000 		.4byte	0xf4
 9048 0004 0200     		.2byte	0x2
 9049 0006 00000000 		.4byte	.Ldebug_info0
 9050 000a 04       		.byte	0x4
ARM GAS  C:\Users\tmj32\AppData\Local\Temp\ccT5YJ50.s 			page 192


 9051 000b 00       		.byte	0
 9052 000c 0000     		.2byte	0
 9053 000e 0000     		.2byte	0
 9054 0010 00000000 		.4byte	.LFB0
 9055 0014 18000000 		.4byte	.LFE0-.LFB0
 9056 0018 00000000 		.4byte	.LFB10
 9057 001c 1C000000 		.4byte	.LFE10-.LFB10
 9058 0020 00000000 		.4byte	.LFB11
 9059 0024 2E000000 		.4byte	.LFE11-.LFB11
 9060 0028 00000000 		.4byte	.LFB12
 9061 002c 2E000000 		.4byte	.LFE12-.LFB12
 9062 0030 00000000 		.4byte	.LFB31
 9063 0034 2A000000 		.4byte	.LFE31-.LFB31
 9064 0038 00000000 		.4byte	.LFB36
 9065 003c 28000000 		.4byte	.LFE36-.LFB36
 9066 0040 00000000 		.4byte	.LFB44
 9067 0044 20000000 		.4byte	.LFE44-.LFB44
 9068 0048 00000000 		.4byte	.LFB51
 9069 004c 1E000000 		.4byte	.LFE51-.LFB51
 9070 0050 00000000 		.4byte	.LFB53
 9071 0054 18000000 		.4byte	.LFE53-.LFB53
 9072 0058 00000000 		.4byte	.LFB58
 9073 005c 18000000 		.4byte	.LFE58-.LFB58
 9074 0060 00000000 		.4byte	.LFB59
 9075 0064 78010000 		.4byte	.LFE59-.LFB59
 9076 0068 00000000 		.4byte	.LFB60
 9077 006c 0C010000 		.4byte	.LFE60-.LFB60
 9078 0070 00000000 		.4byte	.LFB61
 9079 0074 7E000000 		.4byte	.LFE61-.LFB61
 9080 0078 00000000 		.4byte	.LFB62
 9081 007c 3E000000 		.4byte	.LFE62-.LFB62
 9082 0080 00000000 		.4byte	.LFB63
 9083 0084 72000000 		.4byte	.LFE63-.LFB63
 9084 0088 00000000 		.4byte	.LFB64
 9085 008c 38000000 		.4byte	.LFE64-.LFB64
 9086 0090 00000000 		.4byte	.LFB65
 9087 0094 64000000 		.4byte	.LFE65-.LFB65
 9088 0098 00000000 		.4byte	.LFB66
 9089 009c 24000000 		.4byte	.LFE66-.LFB66
 9090 00a0 00000000 		.4byte	.LFB67
 9091 00a4 22000000 		.4byte	.LFE67-.LFB67
 9092 00a8 00000000 		.4byte	.LFB68
 9093 00ac 38000000 		.4byte	.LFE68-.LFB68
 9094 00b0 00000000 		.4byte	.LFB69
 9095 00b4 1E030000 		.4byte	.LFE69-.LFB69
 9096 00b8 00000000 		.4byte	.LFB70
 9097 00bc 68010000 		.4byte	.LFE70-.LFB70
 9098 00c0 00000000 		.4byte	.LFB71
 9099 00c4 94010000 		.4byte	.LFE71-.LFB71
 9100 00c8 00000000 		.4byte	.LFB72
 9101 00cc 6C020000 		.4byte	.LFE72-.LFB72
 9102 00d0 00000000 		.4byte	.LFB73
 9103 00d4 34010000 		.4byte	.LFE73-.LFB73
 9104 00d8 00000000 		.4byte	.LFB74
 9105 00dc A8000000 		.4byte	.LFE74-.LFB74
 9106 00e0 00000000 		.4byte	.LFB75
 9107 00e4 F8000000 		.4byte	.LFE75-.LFB75
ARM GAS  C:\Users\tmj32\AppData\Local\Temp\ccT5YJ50.s 			page 193


 9108 00e8 00000000 		.4byte	.LFB76
 9109 00ec 1A000000 		.4byte	.LFE76-.LFB76
 9110 00f0 00000000 		.4byte	0
 9111 00f4 00000000 		.4byte	0
 9112              		.section	.debug_ranges,"",%progbits
 9113              	.Ldebug_ranges0:
 9114 0000 00000000 		.4byte	.LFB0
 9115 0004 18000000 		.4byte	.LFE0
 9116 0008 00000000 		.4byte	.LFB10
 9117 000c 1C000000 		.4byte	.LFE10
 9118 0010 00000000 		.4byte	.LFB11
 9119 0014 2E000000 		.4byte	.LFE11
 9120 0018 00000000 		.4byte	.LFB12
 9121 001c 2E000000 		.4byte	.LFE12
 9122 0020 00000000 		.4byte	.LFB31
 9123 0024 2A000000 		.4byte	.LFE31
 9124 0028 00000000 		.4byte	.LFB36
 9125 002c 28000000 		.4byte	.LFE36
 9126 0030 00000000 		.4byte	.LFB44
 9127 0034 20000000 		.4byte	.LFE44
 9128 0038 00000000 		.4byte	.LFB51
 9129 003c 1E000000 		.4byte	.LFE51
 9130 0040 00000000 		.4byte	.LFB53
 9131 0044 18000000 		.4byte	.LFE53
 9132 0048 00000000 		.4byte	.LFB58
 9133 004c 18000000 		.4byte	.LFE58
 9134 0050 00000000 		.4byte	.LFB59
 9135 0054 78010000 		.4byte	.LFE59
 9136 0058 00000000 		.4byte	.LFB60
 9137 005c 0C010000 		.4byte	.LFE60
 9138 0060 00000000 		.4byte	.LFB61
 9139 0064 7E000000 		.4byte	.LFE61
 9140 0068 00000000 		.4byte	.LFB62
 9141 006c 3E000000 		.4byte	.LFE62
 9142 0070 00000000 		.4byte	.LFB63
 9143 0074 72000000 		.4byte	.LFE63
 9144 0078 00000000 		.4byte	.LFB64
 9145 007c 38000000 		.4byte	.LFE64
 9146 0080 00000000 		.4byte	.LFB65
 9147 0084 64000000 		.4byte	.LFE65
 9148 0088 00000000 		.4byte	.LFB66
 9149 008c 24000000 		.4byte	.LFE66
 9150 0090 00000000 		.4byte	.LFB67
 9151 0094 22000000 		.4byte	.LFE67
 9152 0098 00000000 		.4byte	.LFB68
 9153 009c 38000000 		.4byte	.LFE68
 9154 00a0 00000000 		.4byte	.LFB69
 9155 00a4 1E030000 		.4byte	.LFE69
 9156 00a8 00000000 		.4byte	.LFB70
 9157 00ac 68010000 		.4byte	.LFE70
 9158 00b0 00000000 		.4byte	.LFB71
 9159 00b4 94010000 		.4byte	.LFE71
 9160 00b8 00000000 		.4byte	.LFB72
 9161 00bc 6C020000 		.4byte	.LFE72
 9162 00c0 00000000 		.4byte	.LFB73
 9163 00c4 34010000 		.4byte	.LFE73
 9164 00c8 00000000 		.4byte	.LFB74
ARM GAS  C:\Users\tmj32\AppData\Local\Temp\ccT5YJ50.s 			page 194


 9165 00cc A8000000 		.4byte	.LFE74
 9166 00d0 00000000 		.4byte	.LFB75
 9167 00d4 F8000000 		.4byte	.LFE75
 9168 00d8 00000000 		.4byte	.LFB76
 9169 00dc 1A000000 		.4byte	.LFE76
 9170 00e0 00000000 		.4byte	0
 9171 00e4 00000000 		.4byte	0
 9172              		.section	.debug_line,"",%progbits
 9173              	.Ldebug_line0:
 9174 0000 9A090000 		.section	.debug_str,"MS",%progbits,1
 9174      02007405 
 9174      00000201 
 9174      FB0E0D00 
 9174      01010101 
 9175              	.LASF424:
 9176 0000 6F70745F 		.ascii	"opt_len\000"
 9176      6C656E00 
 9177              	.LASF15:
 9178 0008 696E7438 		.ascii	"int8_t\000"
 9178      5F7400
 9179              	.LASF132:
 9180 000f 636F6C6F 		.ascii	"color_chroma_key\000"
 9180      725F6368 
 9180      726F6D61 
 9180      5F6B6579 
 9180      00
 9181              	.LASF101:
 9182 0020 6C765F6C 		.ascii	"lv_ll_node_t\000"
 9182      6C5F6E6F 
 9182      64655F74 
 9182      00
 9183              	.LASF22:
 9184 002d 73697A65 		.ascii	"size_t\000"
 9184      5F7400
 9185              	.LASF24:
 9186 0034 6164765F 		.ascii	"adv_w\000"
 9186      7700
 9187              	.LASF380:
 9188 003a 68656164 		.ascii	"header_pr\000"
 9188      65725F70 
 9188      7200
 9189              	.LASF43:
 9190 0044 73697A65 		.ascii	"sizetype\000"
 9190      74797065 
 9190      00
 9191              	.LASF306:
 9192 004d 4C565F4B 		.ascii	"LV_KEY_RIGHT\000"
 9192      45595F52 
 9192      49474854 
 9192      00
 9193              	.LASF57:
 9194 005a 73746172 		.ascii	"start\000"
 9194      7400
 9195              	.LASF40:
 9196 0060 6C765F63 		.ascii	"lv_color32_t\000"
 9196      6F6C6F72 
 9196      33325F74 
ARM GAS  C:\Users\tmj32\AppData\Local\Temp\ccT5YJ50.s 			page 195


 9196      00
 9197              	.LASF344:
 9198 006d 6C765F6C 		.ascii	"lv_label_align_t\000"
 9198      6162656C 
 9198      5F616C69 
 9198      676E5F74 
 9198      00
 9199              	.LASF387:
 9200 007e 63656C6C 		.ascii	"cell\000"
 9200      00
 9201              	.LASF48:
 9202 0083 4C565F41 		.ascii	"LV_ANIM_ON\000"
 9202      4E494D5F 
 9202      4F4E00
 9203              	.LASF104:
 9204 008e 7461696C 		.ascii	"tail\000"
 9204      00
 9205              	.LASF409:
 9206 0093 6C765F66 		.ascii	"lv_font_get_line_height\000"
 9206      6F6E745F 
 9206      6765745F 
 9206      6C696E65 
 9206      5F686569 
 9207              	.LASF243:
 9208 00ab 4C565F53 		.ascii	"LV_SIGNAL_STYLE_CHG\000"
 9208      49474E41 
 9208      4C5F5354 
 9208      594C455F 
 9208      43484700 
 9209              	.LASF138:
 9210 00bf 6163745F 		.ascii	"act_scr\000"
 9210      73637200 
 9211              	.LASF64:
 9212 00c7 72657065 		.ascii	"repeat\000"
 9212      617400
 9213              	.LASF461:
 9214 00ce 64726177 		.ascii	"draw_bg\000"
 9214      5F626700 
 9215              	.LASF42:
 9216 00d6 6C765F6F 		.ascii	"lv_opa_t\000"
 9216      70615F74 
 9216      00
 9217              	.LASF19:
 9218 00df 696E7433 		.ascii	"int32_t\000"
 9218      325F7400 
 9219              	.LASF90:
 9220 00e7 696E7465 		.ascii	"intense\000"
 9220      6E736500 
 9221              	.LASF232:
 9222 00ef 4C565F45 		.ascii	"LV_EVENT_INSERT\000"
 9222      56454E54 
 9222      5F494E53 
 9222      45525400 
 9223              	.LASF45:
 9224 00ff 6C765F70 		.ascii	"lv_point_t\000"
 9224      6F696E74 
 9224      5F7400
ARM GAS  C:\Users\tmj32\AppData\Local\Temp\ccT5YJ50.s 			page 196


 9225              	.LASF441:
 9226 010a 6C765F72 		.ascii	"lv_roller_get_style\000"
 9226      6F6C6C65 
 9226      725F6765 
 9226      745F7374 
 9226      796C6500 
 9227              	.LASF393:
 9228 011e 6C6D6574 		.ascii	"lmeter\000"
 9228      657200
 9229              	.LASF343:
 9230 0125 4C565F4C 		.ascii	"LV_LABEL_ALIGN_AUTO\000"
 9230      4142454C 
 9230      5F414C49 
 9230      474E5F41 
 9230      55544F00 
 9231              	.LASF251:
 9232 0139 4C565F53 		.ascii	"LV_SIGNAL_LONG_PRESS\000"
 9232      49474E41 
 9232      4C5F4C4F 
 9232      4E475F50 
 9232      52455353 
 9233              	.LASF82:
 9234 014e 72616469 		.ascii	"radius\000"
 9234      757300
 9235              	.LASF289:
 9236 0155 6C765F72 		.ascii	"lv_reailgn_t\000"
 9236      6561696C 
 9236      676E5F74 
 9236      00
 9237              	.LASF32:
 9238 0162 6C696E65 		.ascii	"line_height\000"
 9238      5F686569 
 9238      67687400 
 9239              	.LASF55:
 9240 016e 70617468 		.ascii	"path_cb\000"
 9240      5F636200 
 9241              	.LASF153:
 9242 0176 636C6963 		.ascii	"click\000"
 9242      6B00
 9243              	.LASF282:
 9244 017c 6C765F61 		.ascii	"lv_align_t\000"
 9244      6C69676E 
 9244      5F7400
 9245              	.LASF253:
 9246 0187 4C565F53 		.ascii	"LV_SIGNAL_DRAG_BEGIN\000"
 9246      49474E41 
 9246      4C5F4452 
 9246      41475F42 
 9246      4547494E 
 9247              	.LASF382:
 9248 019c 68696768 		.ascii	"highlighted_days\000"
 9248      6C696768 
 9248      7465645F 
 9248      64617973 
 9248      00
 9249              	.LASF358:
 9250 01ad 4C565F44 		.ascii	"LV_DDLIST_STYLE_SEL\000"
ARM GAS  C:\Users\tmj32\AppData\Local\Temp\ccT5YJ50.s 			page 197


 9250      444C4953 
 9250      545F5354 
 9250      594C455F 
 9250      53454C00 
 9251              	.LASF453:
 9252 01c1 7369676E 		.ascii	"sign\000"
 9252      00
 9253              	.LASF237:
 9254 01c6 6C765F65 		.ascii	"lv_event_t\000"
 9254      76656E74 
 9254      5F7400
 9255              	.LASF425:
 9256 01d1 6F70745F 		.ascii	"opt_extra\000"
 9256      65787472 
 9256      6100
 9257              	.LASF172:
 9258 01db 73746174 		.ascii	"state\000"
 9258      6500
 9259              	.LASF327:
 9260 01e1 6C656674 		.ascii	"left_ip\000"
 9260      5F697000 
 9261              	.LASF311:
 9262 01e9 4C565F4B 		.ascii	"LV_KEY_ENTER\000"
 9262      45595F45 
 9262      4E544552 
 9262      00
 9263              	.LASF98:
 9264 01f6 4C565F52 		.ascii	"LV_RES_INV\000"
 9264      45535F49 
 9264      4E5600
 9265              	.LASF280:
 9266 0201 4C565F41 		.ascii	"LV_ALIGN_OUT_RIGHT_MID\000"
 9266      4C49474E 
 9266      5F4F5554 
 9266      5F524947 
 9266      48545F4D 
 9267              	.LASF247:
 9268 0218 4C565F53 		.ascii	"LV_SIGNAL_PRESSED\000"
 9268      49474E41 
 9268      4C5F5052 
 9268      45535345 
 9268      4400
 9269              	.LASF75:
 9270 022a 74797065 		.ascii	"type\000"
 9270      00
 9271              	.LASF221:
 9272 022f 4C565F45 		.ascii	"LV_EVENT_LONG_PRESSED\000"
 9272      56454E54 
 9272      5F4C4F4E 
 9272      475F5052 
 9272      45535345 
 9273              	.LASF365:
 9274 0245 4C565F52 		.ascii	"LV_ROLLER_STYLE_BG\000"
 9274      4F4C4C45 
 9274      525F5354 
 9274      594C455F 
 9274      424700
ARM GAS  C:\Users\tmj32\AppData\Local\Temp\ccT5YJ50.s 			page 198


 9275              	.LASF292:
 9276 0258 4C565F46 		.ascii	"LV_FIT_NONE\000"
 9276      49545F4E 
 9276      4F4E4500 
 9277              	.LASF321:
 9278 0264 7665725F 		.ascii	"ver_draw\000"
 9278      64726177 
 9278      00
 9279              	.LASF372:
 9280 026d 6C696768 		.ascii	"light\000"
 9280      7400
 9281              	.LASF174:
 9282 0273 5F6C765F 		.ascii	"_lv_indev_drv_t\000"
 9282      696E6465 
 9282      765F6472 
 9282      765F7400 
 9283              	.LASF390:
 9284 0283 636F6E74 		.ascii	"cont\000"
 9284      00
 9285              	.LASF370:
 9286 0288 7072696D 		.ascii	"prim\000"
 9286      00
 9287              	.LASF113:
 9288 028d 7072696F 		.ascii	"prio\000"
 9288      00
 9289              	.LASF137:
 9290 0292 7363725F 		.ascii	"scr_ll\000"
 9290      6C6C00
 9291              	.LASF169:
 9292 0299 706F696E 		.ascii	"point\000"
 9292      7400
 9293              	.LASF471:
 9294 029f 6F626A5F 		.ascii	"obj_align\000"
 9294      616C6967 
 9294      6E00
 9295              	.LASF361:
 9296 02a9 4C565F52 		.ascii	"LV_ROLLER_MODE_INIFINITE\000"
 9296      4F4C4C45 
 9296      525F4D4F 
 9296      44455F49 
 9296      4E494649 
 9297              	.LASF1:
 9298 02c2 5F5F7569 		.ascii	"__uint8_t\000"
 9298      6E74385F 
 9298      7400
 9299              	.LASF451:
 9300 02cc 6C616265 		.ascii	"label_align\000"
 9300      6C5F616C 
 9300      69676E00 
 9301              	.LASF447:
 9302 02d8 6D61736B 		.ascii	"mask_sel\000"
 9302      5F73656C 
 9302      00
 9303              	.LASF38:
 9304 02e1 616C7068 		.ascii	"alpha\000"
 9304      6100
 9305              	.LASF125:
ARM GAS  C:\Users\tmj32\AppData\Local\Temp\ccT5YJ50.s 			page 199


 9306 02e7 7665725F 		.ascii	"ver_res\000"
 9306      72657300 
 9307              	.LASF206:
 9308 02ef 5F6C765F 		.ascii	"_lv_indev_t\000"
 9308      696E6465 
 9308      765F7400 
 9309              	.LASF341:
 9310 02fb 4C565F4C 		.ascii	"LV_LABEL_ALIGN_CENTER\000"
 9310      4142454C 
 9310      5F414C49 
 9310      474E5F43 
 9310      454E5445 
 9311              	.LASF157:
 9312 0311 68696464 		.ascii	"hidden\000"
 9312      656E00
 9313              	.LASF61:
 9314 0318 72657065 		.ascii	"repeat_pause\000"
 9314      61745F70 
 9314      61757365 
 9314      00
 9315              	.LASF144:
 9316 0325 6C617374 		.ascii	"last_activity_time\000"
 9316      5F616374 
 9316      69766974 
 9316      795F7469 
 9316      6D6500
 9317              	.LASF9:
 9318 0338 6C6F6E67 		.ascii	"long int\000"
 9318      20696E74 
 9318      00
 9319              	.LASF136:
 9320 0341 72656672 		.ascii	"refr_task\000"
 9320      5F746173 
 9320      6B00
 9321              	.LASF127:
 9322 034b 726F7461 		.ascii	"rotated\000"
 9322      74656400 
 9323              	.LASF456:
 9324 0353 6C765F72 		.ascii	"lv_roller_scrl_signal\000"
 9324      6F6C6C65 
 9324      725F7363 
 9324      726C5F73 
 9324      69676E61 
 9325              	.LASF193:
 9326 0369 6C617374 		.ascii	"last_state\000"
 9326      5F737461 
 9326      746500
 9327              	.LASF404:
 9328 0374 74696C65 		.ascii	"tileview\000"
 9328      76696577 
 9328      00
 9329              	.LASF266:
 9330 037d 4C565F41 		.ascii	"LV_ALIGN_IN_BOTTOM_MID\000"
 9330      4C49474E 
 9330      5F494E5F 
 9330      424F5454 
 9330      4F4D5F4D 
ARM GAS  C:\Users\tmj32\AppData\Local\Temp\ccT5YJ50.s 			page 200


 9331              	.LASF472:
 9332 0394 696E665F 		.ascii	"inf_normalize\000"
 9332      6E6F726D 
 9332      616C697A 
 9332      6500
 9333              	.LASF438:
 9334 03a2 6C765F72 		.ascii	"lv_roller_get_selected\000"
 9334      6F6C6C65 
 9334      725F6765 
 9334      745F7365 
 9334      6C656374 
 9335              	.LASF309:
 9336 03b9 4C565F4B 		.ascii	"LV_KEY_DEL\000"
 9336      45595F44 
 9336      454C00
 9337              	.LASF338:
 9338 03c4 4C565F54 		.ascii	"LV_TXT_FLAG_RIGHT\000"
 9338      58545F46 
 9338      4C41475F 
 9338      52494748 
 9338      5400
 9339              	.LASF411:
 9340 03d6 61726561 		.ascii	"area_p\000"
 9340      5F7000
 9341              	.LASF103:
 9342 03dd 68656164 		.ascii	"head\000"
 9342      00
 9343              	.LASF175:
 9344 03e2 72656164 		.ascii	"read_cb\000"
 9344      5F636200 
 9345              	.LASF396:
 9346 03ea 63686172 		.ascii	"chart\000"
 9346      7400
 9347              	.LASF190:
 9348 03f0 6C617374 		.ascii	"last_pressed\000"
 9348      5F707265 
 9348      73736564 
 9348      00
 9349              	.LASF398:
 9350 03fd 62746E6D 		.ascii	"btnm\000"
 9350      00
 9351              	.LASF427:
 9352 0402 6C765F72 		.ascii	"lv_roller_set_options\000"
 9352      6F6C6C65 
 9352      725F7365 
 9352      745F6F70 
 9352      74696F6E 
 9353              	.LASF335:
 9354 0418 4C565F54 		.ascii	"LV_TXT_FLAG_RECOLOR\000"
 9354      58545F46 
 9354      4C41475F 
 9354      5245434F 
 9354      4C4F5200 
 9355              	.LASF331:
 9356 042c 7363726F 		.ascii	"scroll_prop\000"
 9356      6C6C5F70 
 9356      726F7000 
ARM GAS  C:\Users\tmj32\AppData\Local\Temp\ccT5YJ50.s 			page 201


 9357              	.LASF307:
 9358 0438 4C565F4B 		.ascii	"LV_KEY_LEFT\000"
 9358      45595F4C 
 9358      45465400 
 9359              	.LASF130:
 9360 0444 7365745F 		.ascii	"set_px_cb\000"
 9360      70785F63 
 9360      6200
 9361              	.LASF2:
 9362 044e 7369676E 		.ascii	"signed char\000"
 9362      65642063 
 9362      68617200 
 9363              	.LASF16:
 9364 045a 75696E74 		.ascii	"uint8_t\000"
 9364      385F7400 
 9365              	.LASF124:
 9366 0462 686F725F 		.ascii	"hor_res\000"
 9366      72657300 
 9367              	.LASF385:
 9368 046a 746F6461 		.ascii	"today_box\000"
 9368      795F626F 
 9368      7800
 9369              	.LASF369:
 9370 0474 74676C5F 		.ascii	"tgl_pr\000"
 9370      707200
 9371              	.LASF47:
 9372 047b 4C565F41 		.ascii	"LV_ANIM_OFF\000"
 9372      4E494D5F 
 9372      4F464600 
 9373              	.LASF301:
 9374 0487 6669745F 		.ascii	"fit_top\000"
 9374      746F7000 
 9375              	.LASF31:
 9376 048f 6765745F 		.ascii	"get_glyph_bitmap\000"
 9376      676C7970 
 9376      685F6269 
 9376      746D6170 
 9376      00
 9377              	.LASF328:
 9378 04a0 7363726C 		.ascii	"scrl\000"
 9378      00
 9379              	.LASF36:
 9380 04a5 626C7565 		.ascii	"blue\000"
 9380      00
 9381              	.LASF252:
 9382 04aa 4C565F53 		.ascii	"LV_SIGNAL_LONG_PRESS_REP\000"
 9382      49474E41 
 9382      4C5F4C4F 
 9382      4E475F50 
 9382      52455353 
 9383              	.LASF435:
 9384 04c3 6E5F6C69 		.ascii	"n_line_space\000"
 9384      6E655F73 
 9384      70616365 
 9384      00
 9385              	.LASF3:
 9386 04d0 756E7369 		.ascii	"unsigned char\000"
ARM GAS  C:\Users\tmj32\AppData\Local\Temp\ccT5YJ50.s 			page 202


 9386      676E6564 
 9386      20636861 
 9386      7200
 9387              	.LASF139:
 9388 04de 746F705F 		.ascii	"top_layer\000"
 9388      6C617965 
 9388      7200
 9389              	.LASF440:
 9390 04e8 6C765F72 		.ascii	"lv_roller_get_hor_fit\000"
 9390      6F6C6C65 
 9390      725F6765 
 9390      745F686F 
 9390      725F6669 
 9391              	.LASF342:
 9392 04fe 4C565F4C 		.ascii	"LV_LABEL_ALIGN_RIGHT\000"
 9392      4142454C 
 9392      5F414C49 
 9392      474E5F52 
 9392      49474854 
 9393              	.LASF245:
 9394 0513 4C565F53 		.ascii	"LV_SIGNAL_REFR_EXT_DRAW_PAD\000"
 9394      49474E41 
 9394      4C5F5245 
 9394      46525F45 
 9394      58545F44 
 9395              	.LASF160:
 9396 052f 64726167 		.ascii	"drag_dir\000"
 9396      5F646972 
 9396      00
 9397              	.LASF111:
 9398 0538 7461736B 		.ascii	"task_cb\000"
 9398      5F636200 
 9399              	.LASF378:
 9400 0540 6B6E6F62 		.ascii	"knob_on\000"
 9400      5F6F6E00 
 9401              	.LASF27:
 9402 0548 6F66735F 		.ascii	"ofs_x\000"
 9402      7800
 9403              	.LASF28:
 9404 054e 6F66735F 		.ascii	"ofs_y\000"
 9404      7900
 9405              	.LASF310:
 9406 0554 4C565F4B 		.ascii	"LV_KEY_BACKSPACE\000"
 9406      45595F42 
 9406      41434B53 
 9406      50414345 
 9406      00
 9407              	.LASF379:
 9408 0565 68656164 		.ascii	"header\000"
 9408      657200
 9409              	.LASF417:
 9410 056c 6C765F64 		.ascii	"lv_ddlist_set_anim_time\000"
 9410      646C6973 
 9410      745F7365 
 9410      745F616E 
 9410      696D5F74 
 9411              	.LASF34:
ARM GAS  C:\Users\tmj32\AppData\Local\Temp\ccT5YJ50.s 			page 203


 9412 0584 5F426F6F 		.ascii	"_Bool\000"
 9412      6C00
 9413              	.LASF260:
 9414 058a 6C765F73 		.ascii	"lv_signal_cb_t\000"
 9414      69676E61 
 9414      6C5F6362 
 9414      5F7400
 9415              	.LASF405:
 9416 0599 7461626C 		.ascii	"table\000"
 9416      6500
 9417              	.LASF142:
 9418 059f 696E765F 		.ascii	"inv_area_joined\000"
 9418      61726561 
 9418      5F6A6F69 
 9418      6E656400 
 9419              	.LASF333:
 9420 05af 6C765F70 		.ascii	"lv_page_ext_t\000"
 9420      6167655F 
 9420      6578745F 
 9420      7400
 9421              	.LASF44:
 9422 05bd 63686172 		.ascii	"char\000"
 9422      00
 9423              	.LASF170:
 9424 05c2 62746E5F 		.ascii	"btn_id\000"
 9424      696400
 9425              	.LASF413:
 9426 05c9 6C765F61 		.ascii	"lv_area_copy\000"
 9426      7265615F 
 9426      636F7079 
 9426      00
 9427              	.LASF51:
 9428 05d6 6C765F61 		.ascii	"lv_anim_exec_xcb_t\000"
 9428      6E696D5F 
 9428      65786563 
 9428      5F786362 
 9428      5F7400
 9429              	.LASF213:
 9430 05e9 4C565F44 		.ascii	"LV_DESIGN_DRAW_POST\000"
 9430      45534947 
 9430      4E5F4452 
 9430      41575F50 
 9430      4F535400 
 9431              	.LASF93:
 9432 05fd 626F6479 		.ascii	"body\000"
 9432      00
 9433              	.LASF330:
 9434 0602 616E696D 		.ascii	"anim_time\000"
 9434      5F74696D 
 9434      6500
 9435              	.LASF187:
 9436 060c 64726167 		.ascii	"drag_throw_vect\000"
 9436      5F746872 
 9436      6F775F76 
 9436      65637400 
 9437              	.LASF108:
 9438 061c 5F6C765F 		.ascii	"_lv_task_t\000"
ARM GAS  C:\Users\tmj32\AppData\Local\Temp\ccT5YJ50.s 			page 204


 9438      7461736B 
 9438      5F7400
 9439              	.LASF6:
 9440 0627 5F5F7569 		.ascii	"__uint16_t\000"
 9440      6E743136 
 9440      5F7400
 9441              	.LASF384:
 9442 0632 7765656B 		.ascii	"week_box\000"
 9442      5F626F78 
 9442      00
 9443              	.LASF277:
 9444 063b 4C565F41 		.ascii	"LV_ALIGN_OUT_LEFT_MID\000"
 9444      4C49474E 
 9444      5F4F5554 
 9444      5F4C4546 
 9444      545F4D49 
 9445              	.LASF415:
 9446 0651 6C765F70 		.ascii	"lv_page_set_scrl_fit2\000"
 9446      6167655F 
 9446      7365745F 
 9446      7363726C 
 9446      5F666974 
 9447              	.LASF50:
 9448 0667 6C765F61 		.ascii	"lv_anim_value_t\000"
 9448      6E696D5F 
 9448      76616C75 
 9448      655F7400 
 9449              	.LASF214:
 9450 0677 4C565F44 		.ascii	"LV_DESIGN_COVER_CHK\000"
 9450      45534947 
 9450      4E5F434F 
 9450      5645525F 
 9450      43484B00 
 9451              	.LASF449:
 9452 068b 6E65775F 		.ascii	"new_style\000"
 9452      7374796C 
 9452      6500
 9453              	.LASF350:
 9454 0695 73656C5F 		.ascii	"sel_opt_id_ori\000"
 9454      6F70745F 
 9454      69645F6F 
 9454      726900
 9455              	.LASF207:
 9456 06a4 70726F63 		.ascii	"proc\000"
 9456      00
 9457              	.LASF150:
 9458 06a9 64657369 		.ascii	"design_cb\000"
 9458      676E5F63 
 9458      6200
 9459              	.LASF334:
 9460 06b3 4C565F54 		.ascii	"LV_TXT_FLAG_NONE\000"
 9460      58545F46 
 9460      4C41475F 
 9460      4E4F4E45 
 9460      00
 9461              	.LASF121:
 9462 06c4 666C7573 		.ascii	"flushing\000"
ARM GAS  C:\Users\tmj32\AppData\Local\Temp\ccT5YJ50.s 			page 205


 9462      68696E67 
 9462      00
 9463              	.LASF475:
 9464 06cd 616E6365 		.ascii	"ancestor_scrl_signal\000"
 9464      73746F72 
 9464      5F736372 
 9464      6C5F7369 
 9464      676E616C 
 9465              	.LASF256:
 9466 06e2 4C565F53 		.ascii	"LV_SIGNAL_DEFOCUS\000"
 9466      49474E41 
 9466      4C5F4445 
 9466      464F4355 
 9466      5300
 9467              	.LASF229:
 9468 06f4 4C565F45 		.ascii	"LV_EVENT_FOCUSED\000"
 9468      56454E54 
 9468      5F464F43 
 9468      55534544 
 9468      00
 9469              	.LASF363:
 9470 0705 64646C69 		.ascii	"ddlist\000"
 9470      737400
 9471              	.LASF56:
 9472 070c 72656164 		.ascii	"ready_cb\000"
 9472      795F6362 
 9472      00
 9473              	.LASF94:
 9474 0715 74657874 		.ascii	"text\000"
 9474      00
 9475              	.LASF414:
 9476 071a 6C765F63 		.ascii	"lv_cont_set_fit2\000"
 9476      6F6E745F 
 9476      7365745F 
 9476      66697432 
 9476      00
 9477              	.LASF195:
 9478 072b 706F696E 		.ascii	"pointer\000"
 9478      74657200 
 9479              	.LASF434:
 9480 0733 7374796C 		.ascii	"style_label\000"
 9480      655F6C61 
 9480      62656C00 
 9481              	.LASF357:
 9482 073f 4C565F44 		.ascii	"LV_DDLIST_STYLE_BG\000"
 9482      444C4953 
 9482      545F5354 
 9482      594C455F 
 9482      424700
 9483              	.LASF225:
 9484 0752 4C565F45 		.ascii	"LV_EVENT_DRAG_BEGIN\000"
 9484      56454E54 
 9484      5F445241 
 9484      475F4245 
 9484      47494E00 
 9485              	.LASF95:
 9486 0766 696D6167 		.ascii	"image\000"
ARM GAS  C:\Users\tmj32\AppData\Local\Temp\ccT5YJ50.s 			page 206


 9486      6500
 9487              	.LASF91:
 9488 076c 726F756E 		.ascii	"rounded\000"
 9488      64656400 
 9489              	.LASF155:
 9490 0774 64726167 		.ascii	"drag_throw\000"
 9490      5F746872 
 9490      6F7700
 9491              	.LASF168:
 9492 077f 6C765F69 		.ascii	"lv_indev_state_t\000"
 9492      6E646576 
 9492      5F737461 
 9492      74655F74 
 9492      00
 9493              	.LASF106:
 9494 0790 6C765F62 		.ascii	"lv_bidi_dir_t\000"
 9494      6964695F 
 9494      6469725F 
 9494      7400
 9495              	.LASF165:
 9496 079e 6578745F 		.ascii	"ext_draw_pad\000"
 9496      64726177 
 9496      5F706164 
 9496      00
 9497              	.LASF455:
 9498 07ab 6F72695F 		.ascii	"ori_id\000"
 9498      696400
 9499              	.LASF181:
 9500 07b2 6C6F6E67 		.ascii	"long_press_rep_time\000"
 9500      5F707265 
 9500      73735F72 
 9500      65705F74 
 9500      696D6500 
 9501              	.LASF46:
 9502 07c6 6C765F61 		.ascii	"lv_area_t\000"
 9502      7265615F 
 9502      7400
 9503              	.LASF126:
 9504 07d0 62756666 		.ascii	"buffer\000"
 9504      657200
 9505              	.LASF397:
 9506 07d7 63616C65 		.ascii	"calendar\000"
 9506      6E646172 
 9506      00
 9507              	.LASF223:
 9508 07e0 4C565F45 		.ascii	"LV_EVENT_CLICKED\000"
 9508      56454E54 
 9508      5F434C49 
 9508      434B4544 
 9508      00
 9509              	.LASF320:
 9510 07f1 686F725F 		.ascii	"hor_draw\000"
 9510      64726177 
 9510      00
 9511              	.LASF337:
 9512 07fa 4C565F54 		.ascii	"LV_TXT_FLAG_CENTER\000"
 9512      58545F46 
ARM GAS  C:\Users\tmj32\AppData\Local\Temp\ccT5YJ50.s 			page 207


 9512      4C41475F 
 9512      43454E54 
 9512      455200
 9513              	.LASF77:
 9514 080d 6C656674 		.ascii	"left\000"
 9514      00
 9515              	.LASF406:
 9516 0812 6C765F74 		.ascii	"lv_theme_t\000"
 9516      68656D65 
 9516      5F7400
 9517              	.LASF68:
 9518 081d 6C765F61 		.ascii	"lv_anim_ready_cb_t\000"
 9518      6E696D5F 
 9518      72656164 
 9518      795F6362 
 9518      5F7400
 9519              	.LASF234:
 9520 0830 4C565F45 		.ascii	"LV_EVENT_APPLY\000"
 9520      56454E54 
 9520      5F415050 
 9520      4C5900
 9521              	.LASF166:
 9522 083f 7265616C 		.ascii	"realign\000"
 9522      69676E00 
 9523              	.LASF227:
 9524 0847 4C565F45 		.ascii	"LV_EVENT_DRAG_THROW_BEGIN\000"
 9524      56454E54 
 9524      5F445241 
 9524      475F5448 
 9524      524F575F 
 9525              	.LASF211:
 9526 0861 6C765F69 		.ascii	"lv_indev_t\000"
 9526      6E646576 
 9526      5F7400
 9527              	.LASF210:
 9528 086c 62746E5F 		.ascii	"btn_points\000"
 9528      706F696E 
 9528      747300
 9529              	.LASF429:
 9530 0877 6C765F72 		.ascii	"lv_roller_set_selected\000"
 9530      6F6C6C65 
 9530      725F7365 
 9530      745F7365 
 9530      6C656374 
 9531              	.LASF275:
 9532 088e 4C565F41 		.ascii	"LV_ALIGN_OUT_BOTTOM_RIGHT\000"
 9532      4C49474E 
 9532      5F4F5554 
 9532      5F424F54 
 9532      544F4D5F 
 9533              	.LASF416:
 9534 08a8 6C765F70 		.ascii	"lv_page_get_scrl_fit_left\000"
 9534      6167655F 
 9534      6765745F 
 9534      7363726C 
 9534      5F666974 
 9535              	.LASF246:
ARM GAS  C:\Users\tmj32\AppData\Local\Temp\ccT5YJ50.s 			page 208


 9536 08c2 4C565F53 		.ascii	"LV_SIGNAL_GET_TYPE\000"
 9536      49474E41 
 9536      4C5F4745 
 9536      545F5459 
 9536      504500
 9537              	.LASF204:
 9538 08d5 77616974 		.ascii	"wait_until_release\000"
 9538      5F756E74 
 9538      696C5F72 
 9538      656C6561 
 9538      736500
 9539              	.LASF120:
 9540 08e8 61726561 		.ascii	"area\000"
 9540      00
 9541              	.LASF332:
 9542 08ed 7363726F 		.ascii	"scroll_prop_ip\000"
 9542      6C6C5F70 
 9542      726F705F 
 9542      697000
 9543              	.LASF194:
 9544 08fc 6C617374 		.ascii	"last_key\000"
 9544      5F6B6579 
 9544      00
 9545              	.LASF323:
 9546 0905 656E6162 		.ascii	"enabled\000"
 9546      6C656400 
 9547              	.LASF281:
 9548 090d 4C565F41 		.ascii	"LV_ALIGN_OUT_RIGHT_BOTTOM\000"
 9548      4C49474E 
 9548      5F4F5554 
 9548      5F524947 
 9548      48545F42 
 9549              	.LASF97:
 9550 0927 6C765F73 		.ascii	"lv_style_t\000"
 9550      74796C65 
 9550      5F7400
 9551              	.LASF79:
 9552 0932 696E6E65 		.ascii	"inner\000"
 9552      7200
 9553              	.LASF203:
 9554 0938 64697361 		.ascii	"disabled\000"
 9554      626C6564 
 9554      00
 9555              	.LASF418:
 9556 0941 6C765F64 		.ascii	"lv_ddlist_get_anim_time\000"
 9556      646C6973 
 9556      745F6765 
 9556      745F616E 
 9556      696D5F74 
 9557              	.LASF274:
 9558 0959 4C565F41 		.ascii	"LV_ALIGN_OUT_BOTTOM_MID\000"
 9558      4C49474E 
 9558      5F4F5554 
 9558      5F424F54 
 9558      544F4D5F 
 9559              	.LASF69:
 9560 0971 6C765F61 		.ascii	"lv_anim_t\000"
ARM GAS  C:\Users\tmj32\AppData\Local\Temp\ccT5YJ50.s 			page 209


 9560      6E696D5F 
 9560      7400
 9561              	.LASF294:
 9562 097b 4C565F46 		.ascii	"LV_FIT_FLOOD\000"
 9562      49545F46 
 9562      4C4F4F44 
 9562      00
 9563              	.LASF11:
 9564 0988 6C6F6E67 		.ascii	"long unsigned int\000"
 9564      20756E73 
 9564      69676E65 
 9564      6420696E 
 9564      7400
 9565              	.LASF314:
 9566 099a 4C565F4B 		.ascii	"LV_KEY_HOME\000"
 9566      45595F48 
 9566      4F4D4500 
 9567              	.LASF371:
 9568 09a6 68696E74 		.ascii	"hint\000"
 9568      00
 9569              	.LASF454:
 9570 09ab 70617261 		.ascii	"param\000"
 9570      6D00
 9571              	.LASF96:
 9572 09b1 6C696E65 		.ascii	"line\000"
 9572      00
 9573              	.LASF477:
 9574 09b6 2E2E5C2E 		.ascii	"..\\..\\..\\lvgl\\version_6.1.2\\lvgl\\src\\lv_objx"
 9574      2E5C2E2E 
 9574      5C6C7667 
 9574      6C5C7665 
 9574      7273696F 
 9575 09e2 5C6C765F 		.ascii	"\\lv_roller.c\000"
 9575      726F6C6C 
 9575      65722E63 
 9575      00
 9576              	.LASF255:
 9577 09ef 4C565F53 		.ascii	"LV_SIGNAL_FOCUS\000"
 9577      49474E41 
 9577      4C5F464F 
 9577      43555300 
 9578              	.LASF470:
 9579 09ff 72656672 		.ascii	"refr_height\000"
 9579      5F686569 
 9579      67687400 
 9580              	.LASF439:
 9581 0a0b 6C765F72 		.ascii	"lv_roller_get_align\000"
 9581      6F6C6C65 
 9581      725F6765 
 9581      745F616C 
 9581      69676E00 
 9582              	.LASF392:
 9583 0a1f 736C6964 		.ascii	"slider\000"
 9583      657200
 9584              	.LASF336:
 9585 0a26 4C565F54 		.ascii	"LV_TXT_FLAG_EXPAND\000"
 9585      58545F46 
ARM GAS  C:\Users\tmj32\AppData\Local\Temp\ccT5YJ50.s 			page 210


 9585      4C41475F 
 9585      45585041 
 9585      4E4400
 9586              	.LASF233:
 9587 0a39 4C565F45 		.ascii	"LV_EVENT_REFRESH\000"
 9587      56454E54 
 9587      5F524546 
 9587      52455348 
 9587      00
 9588              	.LASF49:
 9589 0a4a 6C765F61 		.ascii	"lv_anim_enable_t\000"
 9589      6E696D5F 
 9589      656E6162 
 9589      6C655F74 
 9589      00
 9590              	.LASF459:
 9591 0a5b 6C616265 		.ascii	"label_y1\000"
 9591      6C5F7931 
 9591      00
 9592              	.LASF123:
 9593 0a64 5F646973 		.ascii	"_disp_drv_t\000"
 9593      705F6472 
 9593      765F7400 
 9594              	.LASF209:
 9595 0a70 67726F75 		.ascii	"group\000"
 9595      7000
 9596              	.LASF420:
 9597 0a76 636F7079 		.ascii	"copy\000"
 9597      00
 9598              	.LASF183:
 9599 0a7b 6163745F 		.ascii	"act_point\000"
 9599      706F696E 
 9599      7400
 9600              	.LASF189:
 9601 0a85 6C617374 		.ascii	"last_obj\000"
 9601      5F6F626A 
 9601      00
 9602              	.LASF462:
 9603 0a8e 68616C66 		.ascii	"half_mask\000"
 9603      5F6D6173 
 9603      6B00
 9604              	.LASF167:
 9605 0a98 6C765F69 		.ascii	"lv_indev_type_t\000"
 9605      6E646576 
 9605      5F747970 
 9605      655F7400 
 9606              	.LASF258:
 9607 0aa8 4C565F53 		.ascii	"LV_SIGNAL_GET_EDITABLE\000"
 9607      49474E41 
 9607      4C5F4745 
 9607      545F4544 
 9607      49544142 
 9608              	.LASF349:
 9609 0abf 73656C5F 		.ascii	"sel_opt_id\000"
 9609      6F70745F 
 9609      696400
 9610              	.LASF386:
ARM GAS  C:\Users\tmj32\AppData\Local\Temp\ccT5YJ50.s 			page 211


 9611 0aca 6F6E656C 		.ascii	"oneline\000"
 9611      696E6500 
 9612              	.LASF122:
 9613 0ad2 6C765F64 		.ascii	"lv_disp_buf_t\000"
 9613      6973705F 
 9613      6275665F 
 9613      7400
 9614              	.LASF273:
 9615 0ae0 4C565F41 		.ascii	"LV_ALIGN_OUT_BOTTOM_LEFT\000"
 9615      4C49474E 
 9615      5F4F5554 
 9615      5F424F54 
 9615      544F4D5F 
 9616              	.LASF10:
 9617 0af9 5F5F7569 		.ascii	"__uint32_t\000"
 9617      6E743332 
 9617      5F7400
 9618              	.LASF148:
 9619 0b04 6576656E 		.ascii	"event_cb\000"
 9619      745F6362 
 9619      00
 9620              	.LASF78:
 9621 0b0d 72696768 		.ascii	"right\000"
 9621      7400
 9622              	.LASF152:
 9623 0b13 7374796C 		.ascii	"style_p\000"
 9623      655F7000 
 9624              	.LASF12:
 9625 0b1b 6C6F6E67 		.ascii	"long long int\000"
 9625      206C6F6E 
 9625      6720696E 
 9625      7400
 9626              	.LASF478:
 9627 0b29 433A5C55 		.ascii	"C:\\Users\\tmj32\\Documents\\TCNJ\\Senior_Project\\"
 9627      73657273 
 9627      5C746D6A 
 9627      33325C44 
 9627      6F63756D 
 9628 0b56 4F736369 		.ascii	"Oscilloscope_Senior_Project\\tcom_engineering\\embe"
 9628      6C6C6F73 
 9628      636F7065 
 9628      5F53656E 
 9628      696F725F 
 9629 0b87 645F7377 		.ascii	"d_sw\\tcom_app\\tcom_app_psoc6_lvgl6\\tcom_displ_te"
 9629      5C74636F 
 9629      6D5F6170 
 9629      705C7463 
 9629      6F6D5F61 
 9630 0bb7 73745F70 		.ascii	"st_psoc6.cydsn\000"
 9630      736F6336 
 9630      2E637964 
 9630      736E00
 9631              	.LASF278:
 9632 0bc6 4C565F41 		.ascii	"LV_ALIGN_OUT_LEFT_BOTTOM\000"
 9632      4C49474E 
 9632      5F4F5554 
 9632      5F4C4546 
ARM GAS  C:\Users\tmj32\AppData\Local\Temp\ccT5YJ50.s 			page 212


 9632      545F424F 
 9633              	.LASF73:
 9634 0bdf 77696474 		.ascii	"width\000"
 9634      6800
 9635              	.LASF264:
 9636 0be5 4C565F41 		.ascii	"LV_ALIGN_IN_TOP_RIGHT\000"
 9636      4C49474E 
 9636      5F494E5F 
 9636      544F505F 
 9636      52494748 
 9637              	.LASF257:
 9638 0bfb 4C565F53 		.ascii	"LV_SIGNAL_CONTROL\000"
 9638      49474E41 
 9638      4C5F434F 
 9638      4E54524F 
 9638      4C00
 9639              	.LASF76:
 9640 0c0d 626F7474 		.ascii	"bottom\000"
 9640      6F6D00
 9641              	.LASF146:
 9642 0c14 6368696C 		.ascii	"child_ll\000"
 9642      645F6C6C 
 9642      00
 9643              	.LASF375:
 9644 0c1d 696E6469 		.ascii	"indic\000"
 9644      6300
 9645              	.LASF163:
 9646 0c23 70726F74 		.ascii	"protect\000"
 9646      65637400 
 9647              	.LASF116:
 9648 0c2b 62756631 		.ascii	"buf1\000"
 9648      00
 9649              	.LASF117:
 9650 0c30 62756632 		.ascii	"buf2\000"
 9650      00
 9651              	.LASF184:
 9652 0c35 6C617374 		.ascii	"last_point\000"
 9652      5F706F69 
 9652      6E7400
 9653              	.LASF452:
 9654 0c40 6C765F72 		.ascii	"lv_roller_signal\000"
 9654      6F6C6C65 
 9654      725F7369 
 9654      676E616C 
 9654      00
 9655              	.LASF188:
 9656 0c51 6163745F 		.ascii	"act_obj\000"
 9656      6F626A00 
 9657              	.LASF298:
 9658 0c59 6C61796F 		.ascii	"layout\000"
 9658      757400
 9659              	.LASF443:
 9660 0c60 6D61736B 		.ascii	"mask\000"
 9660      00
 9661              	.LASF403:
 9662 0c65 74616276 		.ascii	"tabview\000"
 9662      69657700 
ARM GAS  C:\Users\tmj32\AppData\Local\Temp\ccT5YJ50.s 			page 213


 9663              	.LASF159:
 9664 0c6d 70617265 		.ascii	"parent_event\000"
 9664      6E745F65 
 9664      76656E74 
 9664      00
 9665              	.LASF239:
 9666 0c7a 4C565F53 		.ascii	"LV_SIGNAL_CLEANUP\000"
 9666      49474E41 
 9666      4C5F434C 
 9666      45414E55 
 9666      5000
 9667              	.LASF421:
 9668 0c8c 6E65775F 		.ascii	"new_roller\000"
 9668      726F6C6C 
 9668      657200
 9669              	.LASF286:
 9670 0c97 616C6967 		.ascii	"align\000"
 9670      6E00
 9671              	.LASF351:
 9672 0c9d 6F70656E 		.ascii	"opened\000"
 9672      656400
 9673              	.LASF265:
 9674 0ca4 4C565F41 		.ascii	"LV_ALIGN_IN_BOTTOM_LEFT\000"
 9674      4C49474E 
 9674      5F494E5F 
 9674      424F5454 
 9674      4F4D5F4C 
 9675              	.LASF347:
 9676 0cbc 73656C5F 		.ascii	"sel_style\000"
 9676      7374796C 
 9676      6500
 9677              	.LASF442:
 9678 0cc6 6C765F72 		.ascii	"lv_roller_design\000"
 9678      6F6C6C65 
 9678      725F6465 
 9678      7369676E 
 9678      00
 9679              	.LASF92:
 9680 0cd7 676C6173 		.ascii	"glass\000"
 9680      7300
 9681              	.LASF348:
 9682 0cdd 6F707469 		.ascii	"option_cnt\000"
 9682      6F6E5F63 
 9682      6E7400
 9683              	.LASF236:
 9684 0ce8 4C565F45 		.ascii	"LV_EVENT_DELETE\000"
 9684      56454E54 
 9684      5F44454C 
 9684      45544500 
 9685              	.LASF303:
 9686 0cf8 6C765F63 		.ascii	"lv_cont_ext_t\000"
 9686      6F6E745F 
 9686      6578745F 
 9686      7400
 9687              	.LASF14:
 9688 0d06 756E7369 		.ascii	"unsigned int\000"
 9688      676E6564 
ARM GAS  C:\Users\tmj32\AppData\Local\Temp\ccT5YJ50.s 			page 214


 9688      20696E74 
 9688      00
 9689              	.LASF240:
 9690 0d13 4C565F53 		.ascii	"LV_SIGNAL_CHILD_CHG\000"
 9690      49474E41 
 9690      4C5F4348 
 9690      494C445F 
 9690      43484700 
 9691              	.LASF67:
 9692 0d27 6C765F61 		.ascii	"lv_anim_path_cb_t\000"
 9692      6E696D5F 
 9692      70617468 
 9692      5F63625F 
 9692      7400
 9693              	.LASF177:
 9694 0d39 64697370 		.ascii	"disp\000"
 9694      00
 9695              	.LASF399:
 9696 0d3e 6D626F78 		.ascii	"mbox\000"
 9696      00
 9697              	.LASF171:
 9698 0d43 656E635F 		.ascii	"enc_diff\000"
 9698      64696666 
 9698      00
 9699              	.LASF448:
 9700 0d4c 61726561 		.ascii	"area_ok\000"
 9700      5F6F6B00 
 9701              	.LASF368:
 9702 0d54 74676C5F 		.ascii	"tgl_rel\000"
 9702      72656C00 
 9703              	.LASF450:
 9704 0d5c 7478745F 		.ascii	"txt_align\000"
 9704      616C6967 
 9704      6E00
 9705              	.LASF261:
 9706 0d66 4C565F41 		.ascii	"LV_ALIGN_CENTER\000"
 9706      4C49474E 
 9706      5F43454E 
 9706      54455200 
 9707              	.LASF231:
 9708 0d76 4C565F45 		.ascii	"LV_EVENT_VALUE_CHANGED\000"
 9708      56454E54 
 9708      5F56414C 
 9708      55455F43 
 9708      48414E47 
 9709              	.LASF141:
 9710 0d8d 696E765F 		.ascii	"inv_areas\000"
 9710      61726561 
 9710      7300
 9711              	.LASF465:
 9712 0d97 7374796C 		.ascii	"style_tmp\000"
 9712      655F746D 
 9712      7000
 9713              	.LASF287:
 9714 0da1 6175746F 		.ascii	"auto_realign\000"
 9714      5F726561 
 9714      6C69676E 
ARM GAS  C:\Users\tmj32\AppData\Local\Temp\ccT5YJ50.s 			page 215


 9714      00
 9715              	.LASF445:
 9716 0dae 72656374 		.ascii	"rect_area\000"
 9716      5F617265 
 9716      6100
 9717              	.LASF114:
 9718 0db8 6F6E6365 		.ascii	"once\000"
 9718      00
 9719              	.LASF464:
 9720 0dbd 756E696F 		.ascii	"union_ok\000"
 9720      6E5F6F6B 
 9720      00
 9721              	.LASF212:
 9722 0dc6 4C565F44 		.ascii	"LV_DESIGN_DRAW_MAIN\000"
 9722      45534947 
 9722      4E5F4452 
 9722      41575F4D 
 9722      41494E00 
 9723              	.LASF29:
 9724 0dda 6C765F66 		.ascii	"lv_font_glyph_dsc_t\000"
 9724      6F6E745F 
 9724      676C7970 
 9724      685F6473 
 9724      635F7400 
 9725              	.LASF401:
 9726 0dee 6C697374 		.ascii	"list\000"
 9726      00
 9727              	.LASF81:
 9728 0df3 67726164 		.ascii	"grad_color\000"
 9728      5F636F6C 
 9728      6F7200
 9729              	.LASF299:
 9730 0dfe 6669745F 		.ascii	"fit_left\000"
 9730      6C656674 
 9730      00
 9731              	.LASF218:
 9732 0e07 4C565F45 		.ascii	"LV_EVENT_PRESSING\000"
 9732      56454E54 
 9732      5F505245 
 9732      5353494E 
 9732      4700
 9733              	.LASF345:
 9734 0e19 70616765 		.ascii	"page\000"
 9734      00
 9735              	.LASF134:
 9736 0e1e 5F646973 		.ascii	"_disp_t\000"
 9736      705F7400 
 9737              	.LASF377:
 9738 0e26 6B6E6F62 		.ascii	"knob_off\000"
 9738      5F6F6666 
 9738      00
 9739              	.LASF394:
 9740 0e2f 67617567 		.ascii	"gauge\000"
 9740      6500
 9741              	.LASF312:
 9742 0e35 4C565F4B 		.ascii	"LV_KEY_NEXT\000"
 9742      45595F4E 
ARM GAS  C:\Users\tmj32\AppData\Local\Temp\ccT5YJ50.s 			page 216


 9742      45585400 
 9743              	.LASF248:
 9744 0e41 4C565F53 		.ascii	"LV_SIGNAL_PRESSING\000"
 9744      49474E41 
 9744      4C5F5052 
 9744      45535349 
 9744      4E4700
 9745              	.LASF220:
 9746 0e54 4C565F45 		.ascii	"LV_EVENT_SHORT_CLICKED\000"
 9746      56454E54 
 9746      5F53484F 
 9746      52545F43 
 9746      4C49434B 
 9747              	.LASF222:
 9748 0e6b 4C565F45 		.ascii	"LV_EVENT_LONG_PRESSED_REPEAT\000"
 9748      56454E54 
 9748      5F4C4F4E 
 9748      475F5052 
 9748      45535345 
 9749              	.LASF466:
 9750 0e88 72656672 		.ascii	"refr_position\000"
 9750      5F706F73 
 9750      6974696F 
 9750      6E00
 9751              	.LASF100:
 9752 0e96 6C765F72 		.ascii	"lv_res_t\000"
 9752      65735F74 
 9752      00
 9753              	.LASF118:
 9754 0e9f 6275665F 		.ascii	"buf_act\000"
 9754      61637400 
 9755              	.LASF367:
 9756 0ea7 6C765F72 		.ascii	"lv_roller_style_t\000"
 9756      6F6C6C65 
 9756      725F7374 
 9756      796C655F 
 9756      7400
 9757              	.LASF23:
 9758 0eb9 6C6F6E67 		.ascii	"long double\000"
 9758      20646F75 
 9758      626C6500 
 9759              	.LASF437:
 9760 0ec5 6C765F72 		.ascii	"lv_roller_create\000"
 9760      6F6C6C65 
 9760      725F6372 
 9760      65617465 
 9760      00
 9761              	.LASF119:
 9762 0ed6 73697A65 		.ascii	"size\000"
 9762      00
 9763              	.LASF317:
 9764 0edb 7374796C 		.ascii	"style\000"
 9764      6500
 9765              	.LASF185:
 9766 0ee1 76656374 		.ascii	"vect\000"
 9766      00
 9767              	.LASF267:
ARM GAS  C:\Users\tmj32\AppData\Local\Temp\ccT5YJ50.s 			page 217


 9768 0ee6 4C565F41 		.ascii	"LV_ALIGN_IN_BOTTOM_RIGHT\000"
 9768      4C49474E 
 9768      5F494E5F 
 9768      424F5454 
 9768      4F4D5F52 
 9769              	.LASF151:
 9770 0eff 6578745F 		.ascii	"ext_attr\000"
 9770      61747472 
 9770      00
 9771              	.LASF186:
 9772 0f08 64726167 		.ascii	"drag_sum\000"
 9772      5F73756D 
 9772      00
 9773              	.LASF270:
 9774 0f11 4C565F41 		.ascii	"LV_ALIGN_OUT_TOP_LEFT\000"
 9774      4C49474E 
 9774      5F4F5554 
 9774      5F544F50 
 9774      5F4C4546 
 9775              	.LASF199:
 9776 0f27 70725F74 		.ascii	"pr_timestamp\000"
 9776      696D6573 
 9776      74616D70 
 9776      00
 9777              	.LASF215:
 9778 0f34 6C765F64 		.ascii	"lv_design_mode_t\000"
 9778      65736967 
 9778      6E5F6D6F 
 9778      64655F74 
 9778      00
 9779              	.LASF62:
 9780 0f45 73756270 		.ascii	"subpx\000"
 9780      7800
 9781              	.LASF226:
 9782 0f4b 4C565F45 		.ascii	"LV_EVENT_DRAG_END\000"
 9782      56454E54 
 9782      5F445241 
 9782      475F454E 
 9782      4400
 9783              	.LASF178:
 9784 0f5d 72656164 		.ascii	"read_task\000"
 9784      5F746173 
 9784      6B00
 9785              	.LASF249:
 9786 0f67 4C565F53 		.ascii	"LV_SIGNAL_PRESS_LOST\000"
 9786      49474E41 
 9786      4C5F5052 
 9786      4553535F 
 9786      4C4F5354 
 9787              	.LASF430:
 9788 0f7c 73656C5F 		.ascii	"sel_opt\000"
 9788      6F707400 
 9789              	.LASF315:
 9790 0f84 4C565F4B 		.ascii	"LV_KEY_END\000"
 9790      45595F45 
 9790      4E4400
 9791              	.LASF176:
ARM GAS  C:\Users\tmj32\AppData\Local\Temp\ccT5YJ50.s 			page 218


 9792 0f8f 66656564 		.ascii	"feedback_cb\000"
 9792      6261636B 
 9792      5F636200 
 9793              	.LASF254:
 9794 0f9b 4C565F53 		.ascii	"LV_SIGNAL_DRAG_END\000"
 9794      49474E41 
 9794      4C5F4452 
 9794      41475F45 
 9794      4E4400
 9795              	.LASF217:
 9796 0fae 4C565F45 		.ascii	"LV_EVENT_PRESSED\000"
 9796      56454E54 
 9796      5F505245 
 9796      53534544 
 9796      00
 9797              	.LASF242:
 9798 0fbf 4C565F53 		.ascii	"LV_SIGNAL_PARENT_SIZE_CHG\000"
 9798      49474E41 
 9798      4C5F5041 
 9798      52454E54 
 9798      5F53495A 
 9799              	.LASF235:
 9800 0fd9 4C565F45 		.ascii	"LV_EVENT_CANCEL\000"
 9800      56454E54 
 9800      5F43414E 
 9800      43454C00 
 9801              	.LASF250:
 9802 0fe9 4C565F53 		.ascii	"LV_SIGNAL_RELEASED\000"
 9802      49474E41 
 9802      4C5F5245 
 9802      4C454153 
 9802      454400
 9803              	.LASF80:
 9804 0ffc 6D61696E 		.ascii	"main_color\000"
 9804      5F636F6C 
 9804      6F7200
 9805              	.LASF263:
 9806 1007 4C565F41 		.ascii	"LV_ALIGN_IN_TOP_MID\000"
 9806      4C49474E 
 9806      5F494E5F 
 9806      544F505F 
 9806      4D494400 
 9807              	.LASF0:
 9808 101b 5F5F696E 		.ascii	"__int8_t\000"
 9808      74385F74 
 9808      00
 9809              	.LASF197:
 9810 1024 5F6C765F 		.ascii	"_lv_indev_proc_t\000"
 9810      696E6465 
 9810      765F7072 
 9810      6F635F74 
 9810      00
 9811              	.LASF259:
 9812 1035 6C765F73 		.ascii	"lv_signal_t\000"
 9812      69676E61 
 9812      6C5F7400 
 9813              	.LASF66:
ARM GAS  C:\Users\tmj32\AppData\Local\Temp\ccT5YJ50.s 			page 219


 9814 1041 6861735F 		.ascii	"has_run\000"
 9814      72756E00 
 9815              	.LASF180:
 9816 1049 6C6F6E67 		.ascii	"long_press_time\000"
 9816      5F707265 
 9816      73735F74 
 9816      696D6500 
 9817              	.LASF13:
 9818 1059 6C6F6E67 		.ascii	"long long unsigned int\000"
 9818      206C6F6E 
 9818      6720756E 
 9818      7369676E 
 9818      65642069 
 9819              	.LASF446:
 9820 1070 726F6C6C 		.ascii	"roller_coords\000"
 9820      65725F63 
 9820      6F6F7264 
 9820      7300
 9821              	.LASF279:
 9822 107e 4C565F41 		.ascii	"LV_ALIGN_OUT_RIGHT_TOP\000"
 9822      4C49474E 
 9822      5F4F5554 
 9822      5F524947 
 9822      48545F54 
 9823              	.LASF18:
 9824 1095 75696E74 		.ascii	"uint16_t\000"
 9824      31365F74 
 9824      00
 9825              	.LASF99:
 9826 109e 4C565F52 		.ascii	"LV_RES_OK\000"
 9826      45535F4F 
 9826      4B00
 9827              	.LASF110:
 9828 10a8 6C617374 		.ascii	"last_run\000"
 9828      5F72756E 
 9828      00
 9829              	.LASF469:
 9830 10b1 6E65775F 		.ascii	"new_y\000"
 9830      7900
 9831              	.LASF319:
 9832 10b7 7665725F 		.ascii	"ver_area\000"
 9832      61726561 
 9832      00
 9833              	.LASF383:
 9834 10c0 696E6163 		.ascii	"inactive_days\000"
 9834      74697665 
 9834      5F646179 
 9834      7300
 9835              	.LASF41:
 9836 10ce 6C765F63 		.ascii	"lv_color_t\000"
 9836      6F6C6F72 
 9836      5F7400
 9837              	.LASF474:
 9838 10d9 616E6365 		.ascii	"ancestor_signal\000"
 9838      73746F72 
 9838      5F736967 
 9838      6E616C00 
ARM GAS  C:\Users\tmj32\AppData\Local\Temp\ccT5YJ50.s 			page 220


 9839              	.LASF285:
 9840 10e9 796F6673 		.ascii	"yofs\000"
 9840      00
 9841              	.LASF202:
 9842 10ee 72657365 		.ascii	"reset_query\000"
 9842      745F7175 
 9842      65727900 
 9843              	.LASF115:
 9844 10fa 6C765F74 		.ascii	"lv_task_t\000"
 9844      61736B5F 
 9844      7400
 9845              	.LASF412:
 9846 1104 6C765F61 		.ascii	"lv_area_get_height\000"
 9846      7265615F 
 9846      6765745F 
 9846      68656967 
 9846      687400
 9847              	.LASF297:
 9848 1117 6C765F66 		.ascii	"lv_fit_t\000"
 9848      69745F74 
 9848      00
 9849              	.LASF460:
 9850 1120 6C616265 		.ascii	"label_unit\000"
 9850      6C5F756E 
 9850      697400
 9851              	.LASF431:
 9852 112b 616E696D 		.ascii	"anim\000"
 9852      00
 9853              	.LASF54:
 9854 1130 65786563 		.ascii	"exec_cb\000"
 9854      5F636200 
 9855              	.LASF305:
 9856 1138 4C565F4B 		.ascii	"LV_KEY_DOWN\000"
 9856      45595F44 
 9856      4F574E00 
 9857              	.LASF302:
 9858 1144 6669745F 		.ascii	"fit_bottom\000"
 9858      626F7474 
 9858      6F6D00
 9859              	.LASF308:
 9860 114f 4C565F4B 		.ascii	"LV_KEY_ESC\000"
 9860      45595F45 
 9860      534300
 9861              	.LASF444:
 9862 115a 666F6E74 		.ascii	"font_h\000"
 9862      5F6800
 9863              	.LASF436:
 9864 1161 6C765F72 		.ascii	"lv_roller_set_style\000"
 9864      6F6C6C65 
 9864      725F7365 
 9864      745F7374 
 9864      796C6500 
 9865              	.LASF476:
 9866 1175 474E5520 		.ascii	"GNU C11 5.4.1 20160609 (release) [ARM/embedded-5-br"
 9866      43313120 
 9866      352E342E 
 9866      31203230 
ARM GAS  C:\Users\tmj32\AppData\Local\Temp\ccT5YJ50.s 			page 221


 9866      31363036 
 9867 11a8 616E6368 		.ascii	"anch revision 237715] -mcpu=cortex-m4 -mfloat-abi=s"
 9867      20726576 
 9867      6973696F 
 9867      6E203233 
 9867      37373135 
 9868 11db 6F667466 		.ascii	"oftfp -mfpu=fpv4-sp-d16 -mthumb -g -O0 -ffunction-s"
 9868      70202D6D 
 9868      6670753D 
 9868      66707634 
 9868      2D73702D 
 9869 120e 65637469 		.ascii	"ections -ffat-lto-objects\000"
 9869      6F6E7320 
 9869      2D666661 
 9869      742D6C74 
 9869      6F2D6F62 
 9870              	.LASF356:
 9871 1228 6C765F64 		.ascii	"lv_ddlist_ext_t\000"
 9871      646C6973 
 9871      745F6578 
 9871      745F7400 
 9872              	.LASF109:
 9873 1238 70657269 		.ascii	"period\000"
 9873      6F6400
 9874              	.LASF129:
 9875 123f 726F756E 		.ascii	"rounder_cb\000"
 9875      6465725F 
 9875      636200
 9876              	.LASF374:
 9877 124a 6465636F 		.ascii	"decor\000"
 9877      7200
 9878              	.LASF391:
 9879 1250 696D6762 		.ascii	"imgbtn\000"
 9879      746E00
 9880              	.LASF4:
 9881 1257 5F5F696E 		.ascii	"__int16_t\000"
 9881      7431365F 
 9881      7400
 9882              	.LASF200:
 9883 1261 6C6F6E67 		.ascii	"longpr_rep_timestamp\000"
 9883      70725F72 
 9883      65705F74 
 9883      696D6573 
 9883      74616D70 
 9884              	.LASF433:
 9885 1276 726F775F 		.ascii	"row_cnt\000"
 9885      636E7400 
 9886              	.LASF389:
 9887 127e 70616E65 		.ascii	"panel\000"
 9887      6C00
 9888              	.LASF192:
 9889 1284 64726167 		.ascii	"drag_in_prog\000"
 9889      5F696E5F 
 9889      70726F67 
 9889      00
 9890              	.LASF457:
 9891 1291 726F6C6C 		.ascii	"roller_scrl\000"
ARM GAS  C:\Users\tmj32\AppData\Local\Temp\ccT5YJ50.s 			page 222


 9891      65725F73 
 9891      63726C00 
 9892              	.LASF408:
 9893 129d 64657374 		.ascii	"dest\000"
 9893      00
 9894              	.LASF473:
 9895 12a2 7363726F 		.ascii	"scroll_anim_ready_cb\000"
 9895      6C6C5F61 
 9895      6E696D5F 
 9895      72656164 
 9895      795F6362 
 9896              	.LASF39:
 9897 12b7 66756C6C 		.ascii	"full\000"
 9897      00
 9898              	.LASF324:
 9899 12bc 746F705F 		.ascii	"top_ip\000"
 9899      697000
 9900              	.LASF269:
 9901 12c3 4C565F41 		.ascii	"LV_ALIGN_IN_RIGHT_MID\000"
 9901      4C49474E 
 9901      5F494E5F 
 9901      52494748 
 9901      545F4D49 
 9902              	.LASF72:
 9903 12d9 636F6C6F 		.ascii	"color\000"
 9903      7200
 9904              	.LASF58:
 9905 12df 74696D65 		.ascii	"time\000"
 9905      00
 9906              	.LASF355:
 9907 12e4 6669785F 		.ascii	"fix_height\000"
 9907      68656967 
 9907      687400
 9908              	.LASF463:
 9909 12ef 68616C66 		.ascii	"half_roller\000"
 9909      5F726F6C 
 9909      6C657200 
 9910              	.LASF191:
 9911 12fb 64726167 		.ascii	"drag_limit_out\000"
 9911      5F6C696D 
 9911      69745F6F 
 9911      757400
 9912              	.LASF89:
 9913 130a 6C696E65 		.ascii	"line_space\000"
 9913      5F737061 
 9913      636500
 9914              	.LASF284:
 9915 1315 786F6673 		.ascii	"xofs\000"
 9915      00
 9916              	.LASF300:
 9917 131a 6669745F 		.ascii	"fit_right\000"
 9917      72696768 
 9917      7400
 9918              	.LASF296:
 9919 1324 5F4C565F 		.ascii	"_LV_FIT_NUM\000"
 9919      4649545F 
 9919      4E554D00 
ARM GAS  C:\Users\tmj32\AppData\Local\Temp\ccT5YJ50.s 			page 223


 9920              	.LASF291:
 9921 1330 6C765F6F 		.ascii	"lv_obj_t\000"
 9921      626A5F74 
 9921      00
 9922              	.LASF71:
 9923 1339 6C765F73 		.ascii	"lv_shadow_type_t\000"
 9923      6861646F 
 9923      775F7479 
 9923      70655F74 
 9923      00
 9924              	.LASF428:
 9925 134a 6C765F72 		.ascii	"lv_roller_set_align\000"
 9925      6F6C6C65 
 9925      725F7365 
 9925      745F616C 
 9925      69676E00 
 9926              	.LASF154:
 9927 135e 64726167 		.ascii	"drag\000"
 9927      00
 9928              	.LASF295:
 9929 1363 4C565F46 		.ascii	"LV_FIT_FILL\000"
 9929      49545F46 
 9929      494C4C00 
 9930              	.LASF353:
 9931 136f 64726177 		.ascii	"draw_arrow\000"
 9931      5F617272 
 9931      6F7700
 9932              	.LASF145:
 9933 137a 5F6C765F 		.ascii	"_lv_obj_t\000"
 9933      6F626A5F 
 9933      7400
 9934              	.LASF262:
 9935 1384 4C565F41 		.ascii	"LV_ALIGN_IN_TOP_LEFT\000"
 9935      4C49474E 
 9935      5F494E5F 
 9935      544F505F 
 9935      4C454654 
 9936              	.LASF87:
 9937 1399 666F6E74 		.ascii	"font\000"
 9937      00
 9938              	.LASF88:
 9939 139e 6C657474 		.ascii	"letter_space\000"
 9939      65725F73 
 9939      70616365 
 9939      00
 9940              	.LASF135:
 9941 13ab 64726976 		.ascii	"driver\000"
 9941      657200
 9942              	.LASF161:
 9943 13b2 62617365 		.ascii	"base_dir\000"
 9943      5F646972 
 9943      00
 9944              	.LASF326:
 9945 13bb 72696768 		.ascii	"right_ip\000"
 9945      745F6970 
 9945      00
 9946              	.LASF325:
ARM GAS  C:\Users\tmj32\AppData\Local\Temp\ccT5YJ50.s 			page 224


 9947 13c4 626F7474 		.ascii	"bottom_ip\000"
 9947      6F6D5F69 
 9947      7000
 9948              	.LASF26:
 9949 13ce 626F785F 		.ascii	"box_h\000"
 9949      6800
 9950              	.LASF313:
 9951 13d4 4C565F4B 		.ascii	"LV_KEY_PREV\000"
 9951      45595F50 
 9951      52455600 
 9952              	.LASF283:
 9953 13e0 62617365 		.ascii	"base\000"
 9953      00
 9954              	.LASF25:
 9955 13e5 626F785F 		.ascii	"box_w\000"
 9955      7700
 9956              	.LASF5:
 9957 13eb 73686F72 		.ascii	"short int\000"
 9957      7420696E 
 9957      7400
 9958              	.LASF63:
 9959 13f5 706C6179 		.ascii	"playback\000"
 9959      6261636B 
 9959      00
 9960              	.LASF33:
 9961 13fe 62617365 		.ascii	"base_line\000"
 9961      5F6C696E 
 9961      6500
 9962              	.LASF143:
 9963 1408 696E765F 		.ascii	"inv_p\000"
 9963      7000
 9964              	.LASF105:
 9965 140e 6C765F6C 		.ascii	"lv_ll_t\000"
 9965      6C5F7400 
 9966              	.LASF322:
 9967 1416 6D6F6465 		.ascii	"mode\000"
 9967      00
 9968              	.LASF339:
 9969 141b 6C765F74 		.ascii	"lv_txt_flag_t\000"
 9969      78745F66 
 9969      6C61675F 
 9969      7400
 9970              	.LASF366:
 9971 1429 4C565F52 		.ascii	"LV_ROLLER_STYLE_SEL\000"
 9971      4F4C4C45 
 9971      525F5354 
 9971      594C455F 
 9971      53454C00 
 9972              	.LASF196:
 9973 143d 6B657970 		.ascii	"keypad\000"
 9973      616400
 9974              	.LASF272:
 9975 1444 4C565F41 		.ascii	"LV_ALIGN_OUT_TOP_RIGHT\000"
 9975      4C49474E 
 9975      5F4F5554 
 9975      5F544F50 
 9975      5F524947 
ARM GAS  C:\Users\tmj32\AppData\Local\Temp\ccT5YJ50.s 			page 225


 9976              	.LASF17:
 9977 145b 696E7431 		.ascii	"int16_t\000"
 9977      365F7400 
 9978              	.LASF241:
 9979 1463 4C565F53 		.ascii	"LV_SIGNAL_CORD_CHG\000"
 9979      49474E41 
 9979      4C5F434F 
 9979      52445F43 
 9979      484700
 9980              	.LASF147:
 9981 1476 636F6F72 		.ascii	"coords\000"
 9981      647300
 9982              	.LASF458:
 9983 147d 696E6465 		.ascii	"indev\000"
 9983      7600
 9984              	.LASF140:
 9985 1483 7379735F 		.ascii	"sys_layer\000"
 9985      6C617965 
 9985      7200
 9986              	.LASF400:
 9987 148d 7370696E 		.ascii	"spinbox\000"
 9987      626F7800 
 9988              	.LASF158:
 9989 1495 6F70615F 		.ascii	"opa_scale_en\000"
 9989      7363616C 
 9989      655F656E 
 9989      00
 9990              	.LASF381:
 9991 14a2 6461795F 		.ascii	"day_names\000"
 9991      6E616D65 
 9991      7300
 9992              	.LASF432:
 9993 14ac 6C765F72 		.ascii	"lv_roller_set_visible_row_count\000"
 9993      6F6C6C65 
 9993      725F7365 
 9993      745F7669 
 9993      7369626C 
 9994              	.LASF362:
 9995 14cc 6C765F72 		.ascii	"lv_roller_mode_t\000"
 9995      6F6C6C65 
 9995      725F6D6F 
 9995      64655F74 
 9995      00
 9996              	.LASF468:
 9997 14dd 6C696E65 		.ascii	"line_y1\000"
 9997      5F793100 
 9998              	.LASF84:
 9999 14e5 73686164 		.ascii	"shadow\000"
 9999      6F7700
 10000              	.LASF205:
 10001 14ec 6C765F69 		.ascii	"lv_indev_proc_t\000"
 10001      6E646576 
 10001      5F70726F 
 10001      635F7400 
 10002              	.LASF230:
 10003 14fc 4C565F45 		.ascii	"LV_EVENT_DEFOCUSED\000"
 10003      56454E54 
ARM GAS  C:\Users\tmj32\AppData\Local\Temp\ccT5YJ50.s 			page 226


 10003      5F444546 
 10003      4F435553 
 10003      454400
 10004              	.LASF410:
 10005 150f 6C765F61 		.ascii	"lv_area_get_width\000"
 10005      7265615F 
 10005      6765745F 
 10005      77696474 
 10005      6800
 10006              	.LASF268:
 10007 1521 4C565F41 		.ascii	"LV_ALIGN_IN_LEFT_MID\000"
 10007      4C49474E 
 10007      5F494E5F 
 10007      4C454654 
 10007      5F4D4944 
 10008              	.LASF156:
 10009 1536 64726167 		.ascii	"drag_parent\000"
 10009      5F706172 
 10009      656E7400 
 10010              	.LASF182:
 10011 1542 6C765F69 		.ascii	"lv_indev_drv_t\000"
 10011      6E646576 
 10011      5F647276 
 10011      5F7400
 10012              	.LASF244:
 10013 1551 4C565F53 		.ascii	"LV_SIGNAL_BASE_DIR_CHG\000"
 10013      49474E41 
 10013      4C5F4241 
 10013      53455F44 
 10013      49525F43 
 10014              	.LASF59:
 10015 1568 6163745F 		.ascii	"act_time\000"
 10015      74696D65 
 10015      00
 10016              	.LASF352:
 10017 1571 666F7263 		.ascii	"force_sel\000"
 10017      655F7365 
 10017      6C00
 10018              	.LASF179:
 10019 157b 64726167 		.ascii	"drag_limit\000"
 10019      5F6C696D 
 10019      697400
 10020              	.LASF133:
 10021 1586 6C765F64 		.ascii	"lv_disp_drv_t\000"
 10021      6973705F 
 10021      6472765F 
 10021      7400
 10022              	.LASF407:
 10023 1594 666F6E74 		.ascii	"font_p\000"
 10023      5F7000
 10024              	.LASF271:
 10025 159b 4C565F41 		.ascii	"LV_ALIGN_OUT_TOP_MID\000"
 10025      4C49474E 
 10025      5F4F5554 
 10025      5F544F50 
 10025      5F4D4944 
 10026              	.LASF422:
ARM GAS  C:\Users\tmj32\AppData\Local\Temp\ccT5YJ50.s 			page 227


 10027 15b0 636F7079 		.ascii	"copy_ext\000"
 10027      5F657874 
 10027      00
 10028              	.LASF388:
 10029 15b9 636F6E74 		.ascii	"content\000"
 10029      656E7400 
 10030              	.LASF85:
 10031 15c1 70616464 		.ascii	"padding\000"
 10031      696E6700 
 10032              	.LASF359:
 10033 15c9 4C565F44 		.ascii	"LV_DDLIST_STYLE_SB\000"
 10033      444C4953 
 10033      545F5354 
 10033      594C455F 
 10033      534200
 10034              	.LASF293:
 10035 15dc 4C565F46 		.ascii	"LV_FIT_TIGHT\000"
 10035      49545F54 
 10035      49474854 
 10035      00
 10036              	.LASF149:
 10037 15e9 7369676E 		.ascii	"signal_cb\000"
 10037      616C5F63 
 10037      6200
 10038              	.LASF364:
 10039 15f3 6C765F72 		.ascii	"lv_roller_ext_t\000"
 10039      6F6C6C65 
 10039      725F6578 
 10039      745F7400 
 10040              	.LASF20:
 10041 1603 75696E74 		.ascii	"uint32_t\000"
 10041      33325F74 
 10041      00
 10042              	.LASF467:
 10043 160c 616E696D 		.ascii	"anim_en\000"
 10043      5F656E00 
 10044              	.LASF60:
 10045 1614 706C6179 		.ascii	"playback_pause\000"
 10045      6261636B 
 10045      5F706175 
 10045      736500
 10046              	.LASF276:
 10047 1623 4C565F41 		.ascii	"LV_ALIGN_OUT_LEFT_TOP\000"
 10047      4C49474E 
 10047      5F4F5554 
 10047      5F4C4546 
 10047      545F544F 
 10048              	.LASF419:
 10049 1639 6C765F72 		.ascii	"lv_roller_get_anim_time\000"
 10049      6F6C6C65 
 10049      725F6765 
 10049      745F616E 
 10049      696D5F74 
 10050              	.LASF373:
 10051 1651 6461726B 		.ascii	"dark\000"
 10051      00
 10052              	.LASF37:
ARM GAS  C:\Users\tmj32\AppData\Local\Temp\ccT5YJ50.s 			page 228


 10053 1656 67726565 		.ascii	"green\000"
 10053      6E00
 10054              	.LASF35:
 10055 165c 6C765F66 		.ascii	"lv_font_t\000"
 10055      6F6E745F 
 10055      7400
 10056              	.LASF162:
 10057 1666 72657365 		.ascii	"reserved\000"
 10057      72766564 
 10057      00
 10058              	.LASF340:
 10059 166f 4C565F4C 		.ascii	"LV_LABEL_ALIGN_LEFT\000"
 10059      4142454C 
 10059      5F414C49 
 10059      474E5F4C 
 10059      45465400 
 10060              	.LASF131:
 10061 1683 6D6F6E69 		.ascii	"monitor_cb\000"
 10061      746F725F 
 10061      636200
 10062              	.LASF7:
 10063 168e 73686F72 		.ascii	"short unsigned int\000"
 10063      7420756E 
 10063      7369676E 
 10063      65642069 
 10063      6E7400
 10064              	.LASF316:
 10065 16a1 6C765F73 		.ascii	"lv_sb_mode_t\000"
 10065      625F6D6F 
 10065      64655F74 
 10065      00
 10066              	.LASF74:
 10067 16ae 70617274 		.ascii	"part\000"
 10067      00
 10068              	.LASF228:
 10069 16b3 4C565F45 		.ascii	"LV_EVENT_KEY\000"
 10069      56454E54 
 10069      5F4B4559 
 10069      00
 10070              	.LASF21:
 10071 16c0 6C765F63 		.ascii	"lv_coord_t\000"
 10071      6F6F7264 
 10071      5F7400
 10072              	.LASF173:
 10073 16cb 6C765F69 		.ascii	"lv_indev_data_t\000"
 10073      6E646576 
 10073      5F646174 
 10073      615F7400 
 10074              	.LASF128:
 10075 16db 666C7573 		.ascii	"flush_cb\000"
 10075      685F6362 
 10075      00
 10076              	.LASF112:
 10077 16e4 75736572 		.ascii	"user_data\000"
 10077      5F646174 
 10077      6100
 10078              	.LASF219:
ARM GAS  C:\Users\tmj32\AppData\Local\Temp\ccT5YJ50.s 			page 229


 10079 16ee 4C565F45 		.ascii	"LV_EVENT_PRESS_LOST\000"
 10079      56454E54 
 10079      5F505245 
 10079      53535F4C 
 10079      4F535400 
 10080              	.LASF65:
 10081 1702 706C6179 		.ascii	"playback_now\000"
 10081      6261636B 
 10081      5F6E6F77 
 10081      00
 10082              	.LASF83:
 10083 170f 626F7264 		.ascii	"border\000"
 10083      657200
 10084              	.LASF346:
 10085 1716 6C616265 		.ascii	"label\000"
 10085      6C00
 10086              	.LASF360:
 10087 171c 4C565F52 		.ascii	"LV_ROLLER_MODE_NORMAL\000"
 10087      4F4C4C45 
 10087      525F4D4F 
 10087      44455F4E 
 10087      4F524D41 
 10088              	.LASF30:
 10089 1732 6765745F 		.ascii	"get_glyph_dsc\000"
 10089      676C7970 
 10089      685F6473 
 10089      6300
 10090              	.LASF8:
 10091 1740 5F5F696E 		.ascii	"__int32_t\000"
 10091      7433325F 
 10091      7400
 10092              	.LASF290:
 10093 174a 6C765F64 		.ascii	"lv_drag_dir_t\000"
 10093      7261675F 
 10093      6469725F 
 10093      7400
 10094              	.LASF70:
 10095 1758 6C765F62 		.ascii	"lv_border_part_t\000"
 10095      6F726465 
 10095      725F7061 
 10095      72745F74 
 10095      00
 10096              	.LASF423:
 10097 1769 6F707469 		.ascii	"options\000"
 10097      6F6E7300 
 10098              	.LASF201:
 10099 1771 6C6F6E67 		.ascii	"long_pr_sent\000"
 10099      5F70725F 
 10099      73656E74 
 10099      00
 10100              	.LASF238:
 10101 177e 6C765F65 		.ascii	"lv_event_cb_t\000"
 10101      76656E74 
 10101      5F63625F 
 10101      7400
 10102              	.LASF395:
 10103 178c 7072656C 		.ascii	"preload\000"
ARM GAS  C:\Users\tmj32\AppData\Local\Temp\ccT5YJ50.s 			page 230


 10103      6F616400 
 10104              	.LASF288:
 10105 1794 6F726967 		.ascii	"origo_align\000"
 10105      6F5F616C 
 10105      69676E00 
 10106              	.LASF376:
 10107 17a0 6B6E6F62 		.ascii	"knob\000"
 10107      00
 10108              	.LASF304:
 10109 17a5 4C565F4B 		.ascii	"LV_KEY_UP\000"
 10109      45595F55 
 10109      5000
 10110              	.LASF318:
 10111 17af 686F725F 		.ascii	"hor_area\000"
 10111      61726561 
 10111      00
 10112              	.LASF86:
 10113 17b8 73656C5F 		.ascii	"sel_color\000"
 10113      636F6C6F 
 10113      7200
 10114              	.LASF107:
 10115 17c2 6C765F74 		.ascii	"lv_task_cb_t\000"
 10115      61736B5F 
 10115      63625F74 
 10115      00
 10116              	.LASF52:
 10117 17cf 5F6C765F 		.ascii	"_lv_font_struct\000"
 10117      666F6E74 
 10117      5F737472 
 10117      75637400 
 10118              	.LASF198:
 10119 17df 74797065 		.ascii	"types\000"
 10119      7300
 10120              	.LASF53:
 10121 17e5 5F6C765F 		.ascii	"_lv_anim_t\000"
 10121      616E696D 
 10121      5F7400
 10122              	.LASF102:
 10123 17f0 6E5F7369 		.ascii	"n_size\000"
 10123      7A6500
 10124              	.LASF208:
 10125 17f7 63757273 		.ascii	"cursor\000"
 10125      6F7200
 10126              	.LASF354:
 10127 17fe 73746179 		.ascii	"stay_open\000"
 10127      5F6F7065 
 10127      6E00
 10128              	.LASF479:
 10129 1808 5F6C765F 		.ascii	"_lv_group_t\000"
 10129      67726F75 
 10129      705F7400 
 10130              	.LASF224:
 10131 1814 4C565F45 		.ascii	"LV_EVENT_RELEASED\000"
 10131      56454E54 
 10131      5F52454C 
 10131      45415345 
 10131      4400
ARM GAS  C:\Users\tmj32\AppData\Local\Temp\ccT5YJ50.s 			page 231


 10132              	.LASF426:
 10133 1826 7265616C 		.ascii	"real_id_cnt\000"
 10133      5F69645F 
 10133      636E7400 
 10134              	.LASF216:
 10135 1832 6C765F64 		.ascii	"lv_design_cb_t\000"
 10135      65736967 
 10135      6E5F6362 
 10135      5F7400
 10136              	.LASF329:
 10137 1841 65646765 		.ascii	"edge_flash\000"
 10137      5F666C61 
 10137      736800
 10138              	.LASF164:
 10139 184c 6F70615F 		.ascii	"opa_scale\000"
 10139      7363616C 
 10139      6500
 10140              	.LASF402:
 10141 1856 726F6C6C 		.ascii	"roller\000"
 10141      657200
 10142              		.ident	"GCC: (GNU Tools for ARM Embedded Processors) 5.4.1 20160609 (release) [ARM/embedded-5-bran
