ARM GAS  C:\Users\tmj32\AppData\Local\Temp\cc8pVFHq.s 			page 1


   1              		.syntax unified
   2              		.cpu cortex-m4
   3              		.eabi_attribute 27, 1
   4              		.fpu fpv4-sp-d16
   5              		.eabi_attribute 20, 1
   6              		.eabi_attribute 21, 1
   7              		.eabi_attribute 23, 3
   8              		.eabi_attribute 24, 1
   9              		.eabi_attribute 25, 1
  10              		.eabi_attribute 26, 1
  11              		.eabi_attribute 30, 6
  12              		.eabi_attribute 34, 1
  13              		.eabi_attribute 18, 4
  14              		.thumb
  15              		.syntax unified
  16              		.file	"lv_refr.c"
  17              		.text
  18              	.Ltext0:
  19              		.cfi_sections	.debug_frame
  20              		.section	.text.lv_area_copy,"ax",%progbits
  21              		.align	2
  22              		.thumb
  23              		.thumb_func
  24              		.type	lv_area_copy, %function
  25              	lv_area_copy:
  26              	.LFB10:
  27              		.file 1 "..\\..\\..\\lvgl\\version_6.1.2\\lvgl\\src\\lv_core\\../lv_misc/lv_area.h"
   1:..\..\..\lvgl\version_6.1.2\lvgl\src\lv_core\../lv_misc/lv_area.h **** /**
   2:..\..\..\lvgl\version_6.1.2\lvgl\src\lv_core\../lv_misc/lv_area.h ****  * @file lv_area.h
   3:..\..\..\lvgl\version_6.1.2\lvgl\src\lv_core\../lv_misc/lv_area.h ****  *
   4:..\..\..\lvgl\version_6.1.2\lvgl\src\lv_core\../lv_misc/lv_area.h ****  */
   5:..\..\..\lvgl\version_6.1.2\lvgl\src\lv_core\../lv_misc/lv_area.h **** 
   6:..\..\..\lvgl\version_6.1.2\lvgl\src\lv_core\../lv_misc/lv_area.h **** #ifndef LV_AREA_H
   7:..\..\..\lvgl\version_6.1.2\lvgl\src\lv_core\../lv_misc/lv_area.h **** #define LV_AREA_H
   8:..\..\..\lvgl\version_6.1.2\lvgl\src\lv_core\../lv_misc/lv_area.h **** 
   9:..\..\..\lvgl\version_6.1.2\lvgl\src\lv_core\../lv_misc/lv_area.h **** #ifdef __cplusplus
  10:..\..\..\lvgl\version_6.1.2\lvgl\src\lv_core\../lv_misc/lv_area.h **** extern "C" {
  11:..\..\..\lvgl\version_6.1.2\lvgl\src\lv_core\../lv_misc/lv_area.h **** #endif
  12:..\..\..\lvgl\version_6.1.2\lvgl\src\lv_core\../lv_misc/lv_area.h **** 
  13:..\..\..\lvgl\version_6.1.2\lvgl\src\lv_core\../lv_misc/lv_area.h **** /*********************
  14:..\..\..\lvgl\version_6.1.2\lvgl\src\lv_core\../lv_misc/lv_area.h ****  *      INCLUDES
  15:..\..\..\lvgl\version_6.1.2\lvgl\src\lv_core\../lv_misc/lv_area.h ****  *********************/
  16:..\..\..\lvgl\version_6.1.2\lvgl\src\lv_core\../lv_misc/lv_area.h **** #include <string.h>
  17:..\..\..\lvgl\version_6.1.2\lvgl\src\lv_core\../lv_misc/lv_area.h **** #include <stdbool.h>
  18:..\..\..\lvgl\version_6.1.2\lvgl\src\lv_core\../lv_misc/lv_area.h **** #include <stdint.h>
  19:..\..\..\lvgl\version_6.1.2\lvgl\src\lv_core\../lv_misc/lv_area.h **** #ifdef LV_CONF_INCLUDE_SIMPLE
  20:..\..\..\lvgl\version_6.1.2\lvgl\src\lv_core\../lv_misc/lv_area.h **** #include "lv_conf.h"
  21:..\..\..\lvgl\version_6.1.2\lvgl\src\lv_core\../lv_misc/lv_area.h **** #else
  22:..\..\..\lvgl\version_6.1.2\lvgl\src\lv_core\../lv_misc/lv_area.h **** #include "../../../lv_conf.h"
  23:..\..\..\lvgl\version_6.1.2\lvgl\src\lv_core\../lv_misc/lv_area.h **** #endif
  24:..\..\..\lvgl\version_6.1.2\lvgl\src\lv_core\../lv_misc/lv_area.h **** 
  25:..\..\..\lvgl\version_6.1.2\lvgl\src\lv_core\../lv_misc/lv_area.h **** /*********************
  26:..\..\..\lvgl\version_6.1.2\lvgl\src\lv_core\../lv_misc/lv_area.h ****  *      DEFINES
  27:..\..\..\lvgl\version_6.1.2\lvgl\src\lv_core\../lv_misc/lv_area.h ****  *********************/
  28:..\..\..\lvgl\version_6.1.2\lvgl\src\lv_core\../lv_misc/lv_area.h **** /*To avoid overflow don't let the max ranges (reduce with 1000) */
  29:..\..\..\lvgl\version_6.1.2\lvgl\src\lv_core\../lv_misc/lv_area.h **** #define LV_COORD_MAX ((lv_coord_t)((uint32_t)((uint32_t)1 << (8 * sizeof(lv_coord_t) - 1)) - 1000))
  30:..\..\..\lvgl\version_6.1.2\lvgl\src\lv_core\../lv_misc/lv_area.h **** #define LV_COORD_MIN (-LV_COORD_MAX)
ARM GAS  C:\Users\tmj32\AppData\Local\Temp\cc8pVFHq.s 			page 2


  31:..\..\..\lvgl\version_6.1.2\lvgl\src\lv_core\../lv_misc/lv_area.h **** 
  32:..\..\..\lvgl\version_6.1.2\lvgl\src\lv_core\../lv_misc/lv_area.h **** LV_EXPORT_CONST_INT(LV_COORD_MAX);
  33:..\..\..\lvgl\version_6.1.2\lvgl\src\lv_core\../lv_misc/lv_area.h **** LV_EXPORT_CONST_INT(LV_COORD_MIN);
  34:..\..\..\lvgl\version_6.1.2\lvgl\src\lv_core\../lv_misc/lv_area.h **** 
  35:..\..\..\lvgl\version_6.1.2\lvgl\src\lv_core\../lv_misc/lv_area.h **** /**********************
  36:..\..\..\lvgl\version_6.1.2\lvgl\src\lv_core\../lv_misc/lv_area.h ****  *      TYPEDEFS
  37:..\..\..\lvgl\version_6.1.2\lvgl\src\lv_core\../lv_misc/lv_area.h ****  **********************/
  38:..\..\..\lvgl\version_6.1.2\lvgl\src\lv_core\../lv_misc/lv_area.h **** 
  39:..\..\..\lvgl\version_6.1.2\lvgl\src\lv_core\../lv_misc/lv_area.h **** /**
  40:..\..\..\lvgl\version_6.1.2\lvgl\src\lv_core\../lv_misc/lv_area.h ****  * Represents a point on the screen.
  41:..\..\..\lvgl\version_6.1.2\lvgl\src\lv_core\../lv_misc/lv_area.h ****  */
  42:..\..\..\lvgl\version_6.1.2\lvgl\src\lv_core\../lv_misc/lv_area.h **** typedef struct
  43:..\..\..\lvgl\version_6.1.2\lvgl\src\lv_core\../lv_misc/lv_area.h **** {
  44:..\..\..\lvgl\version_6.1.2\lvgl\src\lv_core\../lv_misc/lv_area.h ****     lv_coord_t x;
  45:..\..\..\lvgl\version_6.1.2\lvgl\src\lv_core\../lv_misc/lv_area.h ****     lv_coord_t y;
  46:..\..\..\lvgl\version_6.1.2\lvgl\src\lv_core\../lv_misc/lv_area.h **** } lv_point_t;
  47:..\..\..\lvgl\version_6.1.2\lvgl\src\lv_core\../lv_misc/lv_area.h **** 
  48:..\..\..\lvgl\version_6.1.2\lvgl\src\lv_core\../lv_misc/lv_area.h **** /** Represents an area of the screen. */
  49:..\..\..\lvgl\version_6.1.2\lvgl\src\lv_core\../lv_misc/lv_area.h **** typedef struct
  50:..\..\..\lvgl\version_6.1.2\lvgl\src\lv_core\../lv_misc/lv_area.h **** {
  51:..\..\..\lvgl\version_6.1.2\lvgl\src\lv_core\../lv_misc/lv_area.h ****     lv_coord_t x1;
  52:..\..\..\lvgl\version_6.1.2\lvgl\src\lv_core\../lv_misc/lv_area.h ****     lv_coord_t y1;
  53:..\..\..\lvgl\version_6.1.2\lvgl\src\lv_core\../lv_misc/lv_area.h ****     lv_coord_t x2;
  54:..\..\..\lvgl\version_6.1.2\lvgl\src\lv_core\../lv_misc/lv_area.h ****     lv_coord_t y2;
  55:..\..\..\lvgl\version_6.1.2\lvgl\src\lv_core\../lv_misc/lv_area.h **** } lv_area_t;
  56:..\..\..\lvgl\version_6.1.2\lvgl\src\lv_core\../lv_misc/lv_area.h **** 
  57:..\..\..\lvgl\version_6.1.2\lvgl\src\lv_core\../lv_misc/lv_area.h **** /**********************
  58:..\..\..\lvgl\version_6.1.2\lvgl\src\lv_core\../lv_misc/lv_area.h ****  * GLOBAL PROTOTYPES
  59:..\..\..\lvgl\version_6.1.2\lvgl\src\lv_core\../lv_misc/lv_area.h ****  **********************/
  60:..\..\..\lvgl\version_6.1.2\lvgl\src\lv_core\../lv_misc/lv_area.h **** 
  61:..\..\..\lvgl\version_6.1.2\lvgl\src\lv_core\../lv_misc/lv_area.h **** /**
  62:..\..\..\lvgl\version_6.1.2\lvgl\src\lv_core\../lv_misc/lv_area.h ****  * Initialize an area
  63:..\..\..\lvgl\version_6.1.2\lvgl\src\lv_core\../lv_misc/lv_area.h ****  * @param area_p pointer to an area
  64:..\..\..\lvgl\version_6.1.2\lvgl\src\lv_core\../lv_misc/lv_area.h ****  * @param x1 left coordinate of the area
  65:..\..\..\lvgl\version_6.1.2\lvgl\src\lv_core\../lv_misc/lv_area.h ****  * @param y1 top coordinate of the area
  66:..\..\..\lvgl\version_6.1.2\lvgl\src\lv_core\../lv_misc/lv_area.h ****  * @param x2 right coordinate of the area
  67:..\..\..\lvgl\version_6.1.2\lvgl\src\lv_core\../lv_misc/lv_area.h ****  * @param y2 bottom coordinate of the area
  68:..\..\..\lvgl\version_6.1.2\lvgl\src\lv_core\../lv_misc/lv_area.h ****  */
  69:..\..\..\lvgl\version_6.1.2\lvgl\src\lv_core\../lv_misc/lv_area.h **** void lv_area_set(lv_area_t * area_p, lv_coord_t x1, lv_coord_t y1, lv_coord_t x2, lv_coord_t y2);
  70:..\..\..\lvgl\version_6.1.2\lvgl\src\lv_core\../lv_misc/lv_area.h **** 
  71:..\..\..\lvgl\version_6.1.2\lvgl\src\lv_core\../lv_misc/lv_area.h **** /**
  72:..\..\..\lvgl\version_6.1.2\lvgl\src\lv_core\../lv_misc/lv_area.h ****  * Copy an area
  73:..\..\..\lvgl\version_6.1.2\lvgl\src\lv_core\../lv_misc/lv_area.h ****  * @param dest pointer to the destination area
  74:..\..\..\lvgl\version_6.1.2\lvgl\src\lv_core\../lv_misc/lv_area.h ****  * @param src pointer to the source area
  75:..\..\..\lvgl\version_6.1.2\lvgl\src\lv_core\../lv_misc/lv_area.h ****  */
  76:..\..\..\lvgl\version_6.1.2\lvgl\src\lv_core\../lv_misc/lv_area.h **** inline static void lv_area_copy(lv_area_t * dest, const lv_area_t * src)
  77:..\..\..\lvgl\version_6.1.2\lvgl\src\lv_core\../lv_misc/lv_area.h **** {
  28              		.loc 1 77 0
  29              		.cfi_startproc
  30              		@ args = 0, pretend = 0, frame = 8
  31              		@ frame_needed = 1, uses_anonymous_args = 0
  32 0000 80B5     		push	{r7, lr}
  33              		.cfi_def_cfa_offset 8
  34              		.cfi_offset 7, -8
  35              		.cfi_offset 14, -4
  36 0002 82B0     		sub	sp, sp, #8
  37              		.cfi_def_cfa_offset 16
ARM GAS  C:\Users\tmj32\AppData\Local\Temp\cc8pVFHq.s 			page 3


  38 0004 00AF     		add	r7, sp, #0
  39              		.cfi_def_cfa_register 7
  40 0006 7860     		str	r0, [r7, #4]
  41 0008 3960     		str	r1, [r7]
  78:..\..\..\lvgl\version_6.1.2\lvgl\src\lv_core\../lv_misc/lv_area.h ****     memcpy(dest, src, sizeof(lv_area_t));
  42              		.loc 1 78 0
  43 000a 0822     		movs	r2, #8
  44 000c 3968     		ldr	r1, [r7]
  45 000e 7868     		ldr	r0, [r7, #4]
  46 0010 FFF7FEFF 		bl	memcpy
  79:..\..\..\lvgl\version_6.1.2\lvgl\src\lv_core\../lv_misc/lv_area.h **** }
  47              		.loc 1 79 0
  48 0014 00BF     		nop
  49 0016 0837     		adds	r7, r7, #8
  50              		.cfi_def_cfa_offset 8
  51 0018 BD46     		mov	sp, r7
  52              		.cfi_def_cfa_register 13
  53              		@ sp needed
  54 001a 80BD     		pop	{r7, pc}
  55              		.cfi_endproc
  56              	.LFE10:
  57              		.size	lv_area_copy, .-lv_area_copy
  58              		.section	.text.lv_area_get_width,"ax",%progbits
  59              		.align	2
  60              		.thumb
  61              		.thumb_func
  62              		.type	lv_area_get_width, %function
  63              	lv_area_get_width:
  64              	.LFB11:
  80:..\..\..\lvgl\version_6.1.2\lvgl\src\lv_core\../lv_misc/lv_area.h **** 
  81:..\..\..\lvgl\version_6.1.2\lvgl\src\lv_core\../lv_misc/lv_area.h **** /**
  82:..\..\..\lvgl\version_6.1.2\lvgl\src\lv_core\../lv_misc/lv_area.h ****  * Get the width of an area
  83:..\..\..\lvgl\version_6.1.2\lvgl\src\lv_core\../lv_misc/lv_area.h ****  * @param area_p pointer to an area
  84:..\..\..\lvgl\version_6.1.2\lvgl\src\lv_core\../lv_misc/lv_area.h ****  * @return the width of the area (if x1 == x2 -> width = 1)
  85:..\..\..\lvgl\version_6.1.2\lvgl\src\lv_core\../lv_misc/lv_area.h ****  */
  86:..\..\..\lvgl\version_6.1.2\lvgl\src\lv_core\../lv_misc/lv_area.h **** static inline lv_coord_t lv_area_get_width(const lv_area_t * area_p)
  87:..\..\..\lvgl\version_6.1.2\lvgl\src\lv_core\../lv_misc/lv_area.h **** {
  65              		.loc 1 87 0
  66              		.cfi_startproc
  67              		@ args = 0, pretend = 0, frame = 8
  68              		@ frame_needed = 1, uses_anonymous_args = 0
  69              		@ link register save eliminated.
  70 0000 80B4     		push	{r7}
  71              		.cfi_def_cfa_offset 4
  72              		.cfi_offset 7, -4
  73 0002 83B0     		sub	sp, sp, #12
  74              		.cfi_def_cfa_offset 16
  75 0004 00AF     		add	r7, sp, #0
  76              		.cfi_def_cfa_register 7
  77 0006 7860     		str	r0, [r7, #4]
  88:..\..\..\lvgl\version_6.1.2\lvgl\src\lv_core\../lv_misc/lv_area.h ****     return (lv_coord_t)(area_p->x2 - area_p->x1 + 1);
  78              		.loc 1 88 0
  79 0008 7B68     		ldr	r3, [r7, #4]
  80 000a B3F90430 		ldrsh	r3, [r3, #4]
  81 000e 9AB2     		uxth	r2, r3
  82 0010 7B68     		ldr	r3, [r7, #4]
  83 0012 B3F90030 		ldrsh	r3, [r3]
ARM GAS  C:\Users\tmj32\AppData\Local\Temp\cc8pVFHq.s 			page 4


  84 0016 9BB2     		uxth	r3, r3
  85 0018 D31A     		subs	r3, r2, r3
  86 001a 9BB2     		uxth	r3, r3
  87 001c 0133     		adds	r3, r3, #1
  88 001e 9BB2     		uxth	r3, r3
  89 0020 1BB2     		sxth	r3, r3
  89:..\..\..\lvgl\version_6.1.2\lvgl\src\lv_core\../lv_misc/lv_area.h **** }
  90              		.loc 1 89 0
  91 0022 1846     		mov	r0, r3
  92 0024 0C37     		adds	r7, r7, #12
  93              		.cfi_def_cfa_offset 4
  94 0026 BD46     		mov	sp, r7
  95              		.cfi_def_cfa_register 13
  96              		@ sp needed
  97 0028 5DF8047B 		ldr	r7, [sp], #4
  98              		.cfi_restore 7
  99              		.cfi_def_cfa_offset 0
 100 002c 7047     		bx	lr
 101              		.cfi_endproc
 102              	.LFE11:
 103              		.size	lv_area_get_width, .-lv_area_get_width
 104 002e 00BF     		.section	.text.lv_area_get_height,"ax",%progbits
 105              		.align	2
 106              		.thumb
 107              		.thumb_func
 108              		.type	lv_area_get_height, %function
 109              	lv_area_get_height:
 110              	.LFB12:
  90:..\..\..\lvgl\version_6.1.2\lvgl\src\lv_core\../lv_misc/lv_area.h **** 
  91:..\..\..\lvgl\version_6.1.2\lvgl\src\lv_core\../lv_misc/lv_area.h **** /**
  92:..\..\..\lvgl\version_6.1.2\lvgl\src\lv_core\../lv_misc/lv_area.h ****  * Get the height of an area
  93:..\..\..\lvgl\version_6.1.2\lvgl\src\lv_core\../lv_misc/lv_area.h ****  * @param area_p pointer to an area
  94:..\..\..\lvgl\version_6.1.2\lvgl\src\lv_core\../lv_misc/lv_area.h ****  * @return the height of the area (if y1 == y2 -> height = 1)
  95:..\..\..\lvgl\version_6.1.2\lvgl\src\lv_core\../lv_misc/lv_area.h ****  */
  96:..\..\..\lvgl\version_6.1.2\lvgl\src\lv_core\../lv_misc/lv_area.h **** static inline lv_coord_t lv_area_get_height(const lv_area_t * area_p)
  97:..\..\..\lvgl\version_6.1.2\lvgl\src\lv_core\../lv_misc/lv_area.h **** {
 111              		.loc 1 97 0
 112              		.cfi_startproc
 113              		@ args = 0, pretend = 0, frame = 8
 114              		@ frame_needed = 1, uses_anonymous_args = 0
 115              		@ link register save eliminated.
 116 0000 80B4     		push	{r7}
 117              		.cfi_def_cfa_offset 4
 118              		.cfi_offset 7, -4
 119 0002 83B0     		sub	sp, sp, #12
 120              		.cfi_def_cfa_offset 16
 121 0004 00AF     		add	r7, sp, #0
 122              		.cfi_def_cfa_register 7
 123 0006 7860     		str	r0, [r7, #4]
  98:..\..\..\lvgl\version_6.1.2\lvgl\src\lv_core\../lv_misc/lv_area.h ****     return (lv_coord_t)(area_p->y2 - area_p->y1 + 1);
 124              		.loc 1 98 0
 125 0008 7B68     		ldr	r3, [r7, #4]
 126 000a B3F90630 		ldrsh	r3, [r3, #6]
 127 000e 9AB2     		uxth	r2, r3
 128 0010 7B68     		ldr	r3, [r7, #4]
 129 0012 B3F90230 		ldrsh	r3, [r3, #2]
 130 0016 9BB2     		uxth	r3, r3
ARM GAS  C:\Users\tmj32\AppData\Local\Temp\cc8pVFHq.s 			page 5


 131 0018 D31A     		subs	r3, r2, r3
 132 001a 9BB2     		uxth	r3, r3
 133 001c 0133     		adds	r3, r3, #1
 134 001e 9BB2     		uxth	r3, r3
 135 0020 1BB2     		sxth	r3, r3
  99:..\..\..\lvgl\version_6.1.2\lvgl\src\lv_core\../lv_misc/lv_area.h **** }
 136              		.loc 1 99 0
 137 0022 1846     		mov	r0, r3
 138 0024 0C37     		adds	r7, r7, #12
 139              		.cfi_def_cfa_offset 4
 140 0026 BD46     		mov	sp, r7
 141              		.cfi_def_cfa_register 13
 142              		@ sp needed
 143 0028 5DF8047B 		ldr	r7, [sp], #4
 144              		.cfi_restore 7
 145              		.cfi_def_cfa_offset 0
 146 002c 7047     		bx	lr
 147              		.cfi_endproc
 148              	.LFE12:
 149              		.size	lv_area_get_height, .-lv_area_get_height
 150 002e 00BF     		.bss
 151              		.align	2
 152              	px_num:
 153 0000 00000000 		.space	4
 154              		.align	2
 155              	disp_refr:
 156 0004 00000000 		.space	4
 157              		.section	.text.lv_refr_init,"ax",%progbits
 158              		.align	2
 159              		.global	lv_refr_init
 160              		.thumb
 161              		.thumb_func
 162              		.type	lv_refr_init, %function
 163              	lv_refr_init:
 164              	.LFB35:
 165              		.file 2 "..\\..\\..\\lvgl\\version_6.1.2\\lvgl\\src\\lv_core\\lv_refr.c"
   1:..\..\..\lvgl\version_6.1.2\lvgl\src\lv_core/lv_refr.c **** /**
   2:..\..\..\lvgl\version_6.1.2\lvgl\src\lv_core/lv_refr.c ****  * @file lv_refr.c
   3:..\..\..\lvgl\version_6.1.2\lvgl\src\lv_core/lv_refr.c ****  *
   4:..\..\..\lvgl\version_6.1.2\lvgl\src\lv_core/lv_refr.c ****  */
   5:..\..\..\lvgl\version_6.1.2\lvgl\src\lv_core/lv_refr.c **** 
   6:..\..\..\lvgl\version_6.1.2\lvgl\src\lv_core/lv_refr.c **** /*********************
   7:..\..\..\lvgl\version_6.1.2\lvgl\src\lv_core/lv_refr.c ****  *      INCLUDES
   8:..\..\..\lvgl\version_6.1.2\lvgl\src\lv_core/lv_refr.c ****  *********************/
   9:..\..\..\lvgl\version_6.1.2\lvgl\src\lv_core/lv_refr.c **** #include <stddef.h>
  10:..\..\..\lvgl\version_6.1.2\lvgl\src\lv_core/lv_refr.c **** #include "lv_refr.h"
  11:..\..\..\lvgl\version_6.1.2\lvgl\src\lv_core/lv_refr.c **** #include "lv_disp.h"
  12:..\..\..\lvgl\version_6.1.2\lvgl\src\lv_core/lv_refr.c **** #include "../lv_hal/lv_hal_tick.h"
  13:..\..\..\lvgl\version_6.1.2\lvgl\src\lv_core/lv_refr.c **** #include "../lv_hal/lv_hal_disp.h"
  14:..\..\..\lvgl\version_6.1.2\lvgl\src\lv_core/lv_refr.c **** #include "../lv_misc/lv_task.h"
  15:..\..\..\lvgl\version_6.1.2\lvgl\src\lv_core/lv_refr.c **** #include "../lv_misc/lv_mem.h"
  16:..\..\..\lvgl\version_6.1.2\lvgl\src\lv_core/lv_refr.c **** #include "../lv_misc/lv_gc.h"
  17:..\..\..\lvgl\version_6.1.2\lvgl\src\lv_core/lv_refr.c **** #include "../lv_draw/lv_draw.h"
  18:..\..\..\lvgl\version_6.1.2\lvgl\src\lv_core/lv_refr.c **** 
  19:..\..\..\lvgl\version_6.1.2\lvgl\src\lv_core/lv_refr.c **** #if defined(LV_GC_INCLUDE)
  20:..\..\..\lvgl\version_6.1.2\lvgl\src\lv_core/lv_refr.c **** #include LV_GC_INCLUDE
  21:..\..\..\lvgl\version_6.1.2\lvgl\src\lv_core/lv_refr.c **** #endif /* LV_ENABLE_GC */
ARM GAS  C:\Users\tmj32\AppData\Local\Temp\cc8pVFHq.s 			page 6


  22:..\..\..\lvgl\version_6.1.2\lvgl\src\lv_core/lv_refr.c **** 
  23:..\..\..\lvgl\version_6.1.2\lvgl\src\lv_core/lv_refr.c **** /*********************
  24:..\..\..\lvgl\version_6.1.2\lvgl\src\lv_core/lv_refr.c ****  *      DEFINES
  25:..\..\..\lvgl\version_6.1.2\lvgl\src\lv_core/lv_refr.c ****  *********************/
  26:..\..\..\lvgl\version_6.1.2\lvgl\src\lv_core/lv_refr.c **** /* Draw translucent random colored areas on the invalidated (redrawn) areas*/
  27:..\..\..\lvgl\version_6.1.2\lvgl\src\lv_core/lv_refr.c **** #define MASK_AREA_DEBUG 0
  28:..\..\..\lvgl\version_6.1.2\lvgl\src\lv_core/lv_refr.c **** 
  29:..\..\..\lvgl\version_6.1.2\lvgl\src\lv_core/lv_refr.c **** /**********************
  30:..\..\..\lvgl\version_6.1.2\lvgl\src\lv_core/lv_refr.c ****  *      TYPEDEFS
  31:..\..\..\lvgl\version_6.1.2\lvgl\src\lv_core/lv_refr.c ****  **********************/
  32:..\..\..\lvgl\version_6.1.2\lvgl\src\lv_core/lv_refr.c **** 
  33:..\..\..\lvgl\version_6.1.2\lvgl\src\lv_core/lv_refr.c **** /**********************
  34:..\..\..\lvgl\version_6.1.2\lvgl\src\lv_core/lv_refr.c ****  *  STATIC PROTOTYPES
  35:..\..\..\lvgl\version_6.1.2\lvgl\src\lv_core/lv_refr.c ****  **********************/
  36:..\..\..\lvgl\version_6.1.2\lvgl\src\lv_core/lv_refr.c **** static void lv_refr_join_area(void);
  37:..\..\..\lvgl\version_6.1.2\lvgl\src\lv_core/lv_refr.c **** static void lv_refr_areas(void);
  38:..\..\..\lvgl\version_6.1.2\lvgl\src\lv_core/lv_refr.c **** static void lv_refr_area(const lv_area_t * area_p);
  39:..\..\..\lvgl\version_6.1.2\lvgl\src\lv_core/lv_refr.c **** static void lv_refr_area_part(const lv_area_t * area_p);
  40:..\..\..\lvgl\version_6.1.2\lvgl\src\lv_core/lv_refr.c **** static lv_obj_t * lv_refr_get_top_obj(const lv_area_t * area_p, lv_obj_t * obj);
  41:..\..\..\lvgl\version_6.1.2\lvgl\src\lv_core/lv_refr.c **** static void lv_refr_obj_and_children(lv_obj_t * top_p, const lv_area_t * mask_p);
  42:..\..\..\lvgl\version_6.1.2\lvgl\src\lv_core/lv_refr.c **** static void lv_refr_obj(lv_obj_t * obj, const lv_area_t * mask_ori_p);
  43:..\..\..\lvgl\version_6.1.2\lvgl\src\lv_core/lv_refr.c **** static void lv_refr_vdb_flush(void);
  44:..\..\..\lvgl\version_6.1.2\lvgl\src\lv_core/lv_refr.c **** 
  45:..\..\..\lvgl\version_6.1.2\lvgl\src\lv_core/lv_refr.c **** /**********************
  46:..\..\..\lvgl\version_6.1.2\lvgl\src\lv_core/lv_refr.c ****  *  STATIC VARIABLES
  47:..\..\..\lvgl\version_6.1.2\lvgl\src\lv_core/lv_refr.c ****  **********************/
  48:..\..\..\lvgl\version_6.1.2\lvgl\src\lv_core/lv_refr.c **** static uint32_t px_num;
  49:..\..\..\lvgl\version_6.1.2\lvgl\src\lv_core/lv_refr.c **** static lv_disp_t * disp_refr; /*Display being refreshed*/
  50:..\..\..\lvgl\version_6.1.2\lvgl\src\lv_core/lv_refr.c **** 
  51:..\..\..\lvgl\version_6.1.2\lvgl\src\lv_core/lv_refr.c **** /**********************
  52:..\..\..\lvgl\version_6.1.2\lvgl\src\lv_core/lv_refr.c ****  *      MACROS
  53:..\..\..\lvgl\version_6.1.2\lvgl\src\lv_core/lv_refr.c ****  **********************/
  54:..\..\..\lvgl\version_6.1.2\lvgl\src\lv_core/lv_refr.c **** 
  55:..\..\..\lvgl\version_6.1.2\lvgl\src\lv_core/lv_refr.c **** /**********************
  56:..\..\..\lvgl\version_6.1.2\lvgl\src\lv_core/lv_refr.c ****  *   GLOBAL FUNCTIONS
  57:..\..\..\lvgl\version_6.1.2\lvgl\src\lv_core/lv_refr.c ****  **********************/
  58:..\..\..\lvgl\version_6.1.2\lvgl\src\lv_core/lv_refr.c **** 
  59:..\..\..\lvgl\version_6.1.2\lvgl\src\lv_core/lv_refr.c **** /**
  60:..\..\..\lvgl\version_6.1.2\lvgl\src\lv_core/lv_refr.c ****  * Initialize the screen refresh subsystem
  61:..\..\..\lvgl\version_6.1.2\lvgl\src\lv_core/lv_refr.c ****  */
  62:..\..\..\lvgl\version_6.1.2\lvgl\src\lv_core/lv_refr.c **** void lv_refr_init(void)
  63:..\..\..\lvgl\version_6.1.2\lvgl\src\lv_core/lv_refr.c **** {
 166              		.loc 2 63 0
 167              		.cfi_startproc
 168              		@ args = 0, pretend = 0, frame = 0
 169              		@ frame_needed = 1, uses_anonymous_args = 0
 170              		@ link register save eliminated.
 171 0000 80B4     		push	{r7}
 172              		.cfi_def_cfa_offset 4
 173              		.cfi_offset 7, -4
 174 0002 00AF     		add	r7, sp, #0
 175              		.cfi_def_cfa_register 7
  64:..\..\..\lvgl\version_6.1.2\lvgl\src\lv_core/lv_refr.c ****     /*Nothing to do*/
  65:..\..\..\lvgl\version_6.1.2\lvgl\src\lv_core/lv_refr.c **** }
 176              		.loc 2 65 0
 177 0004 00BF     		nop
 178 0006 BD46     		mov	sp, r7
ARM GAS  C:\Users\tmj32\AppData\Local\Temp\cc8pVFHq.s 			page 7


 179              		.cfi_def_cfa_register 13
 180              		@ sp needed
 181 0008 5DF8047B 		ldr	r7, [sp], #4
 182              		.cfi_restore 7
 183              		.cfi_def_cfa_offset 0
 184 000c 7047     		bx	lr
 185              		.cfi_endproc
 186              	.LFE35:
 187              		.size	lv_refr_init, .-lv_refr_init
 188 000e 00BF     		.section	.text.lv_refr_now,"ax",%progbits
 189              		.align	2
 190              		.global	lv_refr_now
 191              		.thumb
 192              		.thumb_func
 193              		.type	lv_refr_now, %function
 194              	lv_refr_now:
 195              	.LFB36:
  66:..\..\..\lvgl\version_6.1.2\lvgl\src\lv_core/lv_refr.c **** 
  67:..\..\..\lvgl\version_6.1.2\lvgl\src\lv_core/lv_refr.c **** /**
  68:..\..\..\lvgl\version_6.1.2\lvgl\src\lv_core/lv_refr.c ****  * Redraw the invalidated areas now.
  69:..\..\..\lvgl\version_6.1.2\lvgl\src\lv_core/lv_refr.c ****  * Normally the redrawing is periodically executed in `lv_task_handler` but a long blocking process
  70:..\..\..\lvgl\version_6.1.2\lvgl\src\lv_core/lv_refr.c ****  * can prevent the call of `lv_task_handler`. In this case if the the GUI is updated in the process
  71:..\..\..\lvgl\version_6.1.2\lvgl\src\lv_core/lv_refr.c ****  * (e.g. progress bar) this function can be called when the screen should be updated.
  72:..\..\..\lvgl\version_6.1.2\lvgl\src\lv_core/lv_refr.c ****  * @param disp pointer to display to refresh. NULL to refresh all displays.
  73:..\..\..\lvgl\version_6.1.2\lvgl\src\lv_core/lv_refr.c ****  */
  74:..\..\..\lvgl\version_6.1.2\lvgl\src\lv_core/lv_refr.c **** void lv_refr_now(lv_disp_t * disp)
  75:..\..\..\lvgl\version_6.1.2\lvgl\src\lv_core/lv_refr.c **** {
 196              		.loc 2 75 0
 197              		.cfi_startproc
 198              		@ args = 0, pretend = 0, frame = 16
 199              		@ frame_needed = 1, uses_anonymous_args = 0
 200 0000 80B5     		push	{r7, lr}
 201              		.cfi_def_cfa_offset 8
 202              		.cfi_offset 7, -8
 203              		.cfi_offset 14, -4
 204 0002 84B0     		sub	sp, sp, #16
 205              		.cfi_def_cfa_offset 24
 206 0004 00AF     		add	r7, sp, #0
 207              		.cfi_def_cfa_register 7
 208 0006 7860     		str	r0, [r7, #4]
  76:..\..\..\lvgl\version_6.1.2\lvgl\src\lv_core/lv_refr.c ****     if(disp) {
 209              		.loc 2 76 0
 210 0008 7B68     		ldr	r3, [r7, #4]
 211 000a 002B     		cmp	r3, #0
 212 000c 05D0     		beq	.L8
  77:..\..\..\lvgl\version_6.1.2\lvgl\src\lv_core/lv_refr.c ****         lv_disp_refr_task(disp->refr_task);
 213              		.loc 2 77 0
 214 000e 7B68     		ldr	r3, [r7, #4]
 215 0010 1B6A     		ldr	r3, [r3, #32]
 216 0012 1846     		mov	r0, r3
 217 0014 FFF7FEFF 		bl	lv_disp_refr_task
  78:..\..\..\lvgl\version_6.1.2\lvgl\src\lv_core/lv_refr.c ****     } else {
  79:..\..\..\lvgl\version_6.1.2\lvgl\src\lv_core/lv_refr.c ****         lv_disp_t * d;
  80:..\..\..\lvgl\version_6.1.2\lvgl\src\lv_core/lv_refr.c ****         d = lv_disp_get_next(NULL);
  81:..\..\..\lvgl\version_6.1.2\lvgl\src\lv_core/lv_refr.c ****         while(d) {
  82:..\..\..\lvgl\version_6.1.2\lvgl\src\lv_core/lv_refr.c ****             lv_disp_refr_task(d->refr_task);
  83:..\..\..\lvgl\version_6.1.2\lvgl\src\lv_core/lv_refr.c ****             d = lv_disp_get_next(d);
ARM GAS  C:\Users\tmj32\AppData\Local\Temp\cc8pVFHq.s 			page 8


  84:..\..\..\lvgl\version_6.1.2\lvgl\src\lv_core/lv_refr.c ****         }
  85:..\..\..\lvgl\version_6.1.2\lvgl\src\lv_core/lv_refr.c ****     }
  86:..\..\..\lvgl\version_6.1.2\lvgl\src\lv_core/lv_refr.c **** }
 218              		.loc 2 86 0
 219 0018 10E0     		b	.L12
 220              	.L8:
 221              	.LBB2:
  80:..\..\..\lvgl\version_6.1.2\lvgl\src\lv_core/lv_refr.c ****         while(d) {
 222              		.loc 2 80 0
 223 001a 0020     		movs	r0, #0
 224 001c FFF7FEFF 		bl	lv_disp_get_next
 225 0020 F860     		str	r0, [r7, #12]
  81:..\..\..\lvgl\version_6.1.2\lvgl\src\lv_core/lv_refr.c ****             lv_disp_refr_task(d->refr_task);
 226              		.loc 2 81 0
 227 0022 08E0     		b	.L10
 228              	.L11:
  82:..\..\..\lvgl\version_6.1.2\lvgl\src\lv_core/lv_refr.c ****             d = lv_disp_get_next(d);
 229              		.loc 2 82 0
 230 0024 FB68     		ldr	r3, [r7, #12]
 231 0026 1B6A     		ldr	r3, [r3, #32]
 232 0028 1846     		mov	r0, r3
 233 002a FFF7FEFF 		bl	lv_disp_refr_task
  83:..\..\..\lvgl\version_6.1.2\lvgl\src\lv_core/lv_refr.c ****         }
 234              		.loc 2 83 0
 235 002e F868     		ldr	r0, [r7, #12]
 236 0030 FFF7FEFF 		bl	lv_disp_get_next
 237 0034 F860     		str	r0, [r7, #12]
 238              	.L10:
  81:..\..\..\lvgl\version_6.1.2\lvgl\src\lv_core/lv_refr.c ****             lv_disp_refr_task(d->refr_task);
 239              		.loc 2 81 0
 240 0036 FB68     		ldr	r3, [r7, #12]
 241 0038 002B     		cmp	r3, #0
 242 003a F3D1     		bne	.L11
 243              	.L12:
 244              	.LBE2:
 245              		.loc 2 86 0
 246 003c 00BF     		nop
 247 003e 1037     		adds	r7, r7, #16
 248              		.cfi_def_cfa_offset 8
 249 0040 BD46     		mov	sp, r7
 250              		.cfi_def_cfa_register 13
 251              		@ sp needed
 252 0042 80BD     		pop	{r7, pc}
 253              		.cfi_endproc
 254              	.LFE36:
 255              		.size	lv_refr_now, .-lv_refr_now
 256              		.section	.text.lv_inv_area,"ax",%progbits
 257              		.align	2
 258              		.global	lv_inv_area
 259              		.thumb
 260              		.thumb_func
 261              		.type	lv_inv_area, %function
 262              	lv_inv_area:
 263              	.LFB37:
  87:..\..\..\lvgl\version_6.1.2\lvgl\src\lv_core/lv_refr.c **** 
  88:..\..\..\lvgl\version_6.1.2\lvgl\src\lv_core/lv_refr.c **** /**
  89:..\..\..\lvgl\version_6.1.2\lvgl\src\lv_core/lv_refr.c ****  * Invalidate an area on display to redraw it
ARM GAS  C:\Users\tmj32\AppData\Local\Temp\cc8pVFHq.s 			page 9


  90:..\..\..\lvgl\version_6.1.2\lvgl\src\lv_core/lv_refr.c ****  * @param area_p pointer to area which should be invalidated (NULL: delete the invalidated areas)
  91:..\..\..\lvgl\version_6.1.2\lvgl\src\lv_core/lv_refr.c ****  * @param disp pointer to display where the area should be invalidated (NULL can be used if there i
  92:..\..\..\lvgl\version_6.1.2\lvgl\src\lv_core/lv_refr.c ****  * only one display)
  93:..\..\..\lvgl\version_6.1.2\lvgl\src\lv_core/lv_refr.c ****  */
  94:..\..\..\lvgl\version_6.1.2\lvgl\src\lv_core/lv_refr.c **** void lv_inv_area(lv_disp_t * disp, const lv_area_t * area_p)
  95:..\..\..\lvgl\version_6.1.2\lvgl\src\lv_core/lv_refr.c **** {
 264              		.loc 2 95 0
 265              		.cfi_startproc
 266              		@ args = 0, pretend = 0, frame = 32
 267              		@ frame_needed = 1, uses_anonymous_args = 0
 268 0000 80B5     		push	{r7, lr}
 269              		.cfi_def_cfa_offset 8
 270              		.cfi_offset 7, -8
 271              		.cfi_offset 14, -4
 272 0002 88B0     		sub	sp, sp, #32
 273              		.cfi_def_cfa_offset 40
 274 0004 00AF     		add	r7, sp, #0
 275              		.cfi_def_cfa_register 7
 276 0006 7860     		str	r0, [r7, #4]
 277 0008 3960     		str	r1, [r7]
  96:..\..\..\lvgl\version_6.1.2\lvgl\src\lv_core/lv_refr.c ****     if(!disp) disp = lv_disp_get_default();
 278              		.loc 2 96 0
 279 000a 7B68     		ldr	r3, [r7, #4]
 280 000c 002B     		cmp	r3, #0
 281 000e 02D1     		bne	.L14
 282              		.loc 2 96 0 is_stmt 0 discriminator 1
 283 0010 FFF7FEFF 		bl	lv_disp_get_default
 284 0014 7860     		str	r0, [r7, #4]
 285              	.L14:
  97:..\..\..\lvgl\version_6.1.2\lvgl\src\lv_core/lv_refr.c ****     if(!disp) return;
 286              		.loc 2 97 0 is_stmt 1
 287 0016 7B68     		ldr	r3, [r7, #4]
 288 0018 002B     		cmp	r3, #0
 289 001a 00F09B80 		beq	.L26
  98:..\..\..\lvgl\version_6.1.2\lvgl\src\lv_core/lv_refr.c **** 
  99:..\..\..\lvgl\version_6.1.2\lvgl\src\lv_core/lv_refr.c ****     /*Clear the invalidate buffer if the parameter is NULL*/
 100:..\..\..\lvgl\version_6.1.2\lvgl\src\lv_core/lv_refr.c ****     if(area_p == NULL) {
 290              		.loc 2 100 0
 291 001e 3B68     		ldr	r3, [r7]
 292 0020 002B     		cmp	r3, #0
 293 0022 07D1     		bne	.L17
 101:..\..\..\lvgl\version_6.1.2\lvgl\src\lv_core/lv_refr.c ****         disp->inv_p = 0;
 294              		.loc 2 101 0
 295 0024 7A68     		ldr	r2, [r7, #4]
 296 0026 B2F85C31 		ldrh	r3, [r2, #348]	@ movhi
 297 002a 6FF30903 		bfc	r3, #0, #10
 298 002e A2F85C31 		strh	r3, [r2, #348]	@ movhi
 102:..\..\..\lvgl\version_6.1.2\lvgl\src\lv_core/lv_refr.c ****         return;
 299              		.loc 2 102 0
 300 0032 92E0     		b	.L13
 301              	.L17:
 103:..\..\..\lvgl\version_6.1.2\lvgl\src\lv_core/lv_refr.c ****     }
 104:..\..\..\lvgl\version_6.1.2\lvgl\src\lv_core/lv_refr.c **** 
 105:..\..\..\lvgl\version_6.1.2\lvgl\src\lv_core/lv_refr.c ****     lv_area_t scr_area;
 106:..\..\..\lvgl\version_6.1.2\lvgl\src\lv_core/lv_refr.c ****     scr_area.x1 = 0;
 302              		.loc 2 106 0
 303 0034 0023     		movs	r3, #0
ARM GAS  C:\Users\tmj32\AppData\Local\Temp\cc8pVFHq.s 			page 10


 304 0036 BB82     		strh	r3, [r7, #20]	@ movhi
 107:..\..\..\lvgl\version_6.1.2\lvgl\src\lv_core/lv_refr.c ****     scr_area.y1 = 0;
 305              		.loc 2 107 0
 306 0038 0023     		movs	r3, #0
 307 003a FB82     		strh	r3, [r7, #22]	@ movhi
 108:..\..\..\lvgl\version_6.1.2\lvgl\src\lv_core/lv_refr.c ****     scr_area.x2 = lv_disp_get_hor_res(disp) - 1;
 308              		.loc 2 108 0
 309 003c 7868     		ldr	r0, [r7, #4]
 310 003e FFF7FEFF 		bl	lv_disp_get_hor_res
 311 0042 0346     		mov	r3, r0
 312 0044 9BB2     		uxth	r3, r3
 313 0046 013B     		subs	r3, r3, #1
 314 0048 9BB2     		uxth	r3, r3
 315 004a 1BB2     		sxth	r3, r3
 316 004c 3B83     		strh	r3, [r7, #24]	@ movhi
 109:..\..\..\lvgl\version_6.1.2\lvgl\src\lv_core/lv_refr.c ****     scr_area.y2 = lv_disp_get_ver_res(disp) - 1;
 317              		.loc 2 109 0
 318 004e 7868     		ldr	r0, [r7, #4]
 319 0050 FFF7FEFF 		bl	lv_disp_get_ver_res
 320 0054 0346     		mov	r3, r0
 321 0056 9BB2     		uxth	r3, r3
 322 0058 013B     		subs	r3, r3, #1
 323 005a 9BB2     		uxth	r3, r3
 324 005c 1BB2     		sxth	r3, r3
 325 005e 7B83     		strh	r3, [r7, #26]	@ movhi
 110:..\..\..\lvgl\version_6.1.2\lvgl\src\lv_core/lv_refr.c **** 
 111:..\..\..\lvgl\version_6.1.2\lvgl\src\lv_core/lv_refr.c ****     lv_area_t com_area;
 112:..\..\..\lvgl\version_6.1.2\lvgl\src\lv_core/lv_refr.c ****     bool suc;
 113:..\..\..\lvgl\version_6.1.2\lvgl\src\lv_core/lv_refr.c **** 
 114:..\..\..\lvgl\version_6.1.2\lvgl\src\lv_core/lv_refr.c ****     suc = lv_area_intersect(&com_area, area_p, &scr_area);
 326              		.loc 2 114 0
 327 0060 07F11402 		add	r2, r7, #20
 328 0064 07F10C03 		add	r3, r7, #12
 329 0068 3968     		ldr	r1, [r7]
 330 006a 1846     		mov	r0, r3
 331 006c FFF7FEFF 		bl	lv_area_intersect
 332 0070 0346     		mov	r3, r0
 333 0072 7B77     		strb	r3, [r7, #29]
 115:..\..\..\lvgl\version_6.1.2\lvgl\src\lv_core/lv_refr.c **** 
 116:..\..\..\lvgl\version_6.1.2\lvgl\src\lv_core/lv_refr.c ****     /*The area is truncated to the screen*/
 117:..\..\..\lvgl\version_6.1.2\lvgl\src\lv_core/lv_refr.c ****     if(suc != false) {
 334              		.loc 2 117 0
 335 0074 7B7F     		ldrb	r3, [r7, #29]	@ zero_extendqisi2
 336 0076 002B     		cmp	r3, #0
 337 0078 6FD0     		beq	.L13
 338              	.LBB3:
 118:..\..\..\lvgl\version_6.1.2\lvgl\src\lv_core/lv_refr.c ****         if(disp->driver.rounder_cb) disp->driver.rounder_cb(&disp->driver, &com_area);
 339              		.loc 2 118 0
 340 007a 7B68     		ldr	r3, [r7, #4]
 341 007c 1B69     		ldr	r3, [r3, #16]
 342 007e 002B     		cmp	r3, #0
 343 0080 06D0     		beq	.L19
 344              		.loc 2 118 0 is_stmt 0 discriminator 1
 345 0082 7B68     		ldr	r3, [r7, #4]
 346 0084 1B69     		ldr	r3, [r3, #16]
 347 0086 7A68     		ldr	r2, [r7, #4]
 348 0088 07F10C01 		add	r1, r7, #12
ARM GAS  C:\Users\tmj32\AppData\Local\Temp\cc8pVFHq.s 			page 11


 349 008c 1046     		mov	r0, r2
 350 008e 9847     		blx	r3
 351              	.L19:
 119:..\..\..\lvgl\version_6.1.2\lvgl\src\lv_core/lv_refr.c **** 
 120:..\..\..\lvgl\version_6.1.2\lvgl\src\lv_core/lv_refr.c ****         /*Save only if this area is not in one of the saved areas*/
 121:..\..\..\lvgl\version_6.1.2\lvgl\src\lv_core/lv_refr.c ****         uint16_t i;
 122:..\..\..\lvgl\version_6.1.2\lvgl\src\lv_core/lv_refr.c ****         for(i = 0; i < disp->inv_p; i++) {
 352              		.loc 2 122 0 is_stmt 1
 353 0090 0023     		movs	r3, #0
 354 0092 FB83     		strh	r3, [r7, #30]	@ movhi
 355 0094 11E0     		b	.L20
 356              	.L22:
 123:..\..\..\lvgl\version_6.1.2\lvgl\src\lv_core/lv_refr.c ****             if(lv_area_is_in(&com_area, &disp->inv_areas[i]) != false) return;
 357              		.loc 2 123 0
 358 0096 FB8B     		ldrh	r3, [r7, #30]
 359 0098 0733     		adds	r3, r3, #7
 360 009a DB00     		lsls	r3, r3, #3
 361 009c 7A68     		ldr	r2, [r7, #4]
 362 009e 1344     		add	r3, r3, r2
 363 00a0 1A1D     		adds	r2, r3, #4
 364 00a2 07F10C03 		add	r3, r7, #12
 365 00a6 1146     		mov	r1, r2
 366 00a8 1846     		mov	r0, r3
 367 00aa FFF7FEFF 		bl	lv_area_is_in
 368 00ae 0346     		mov	r3, r0
 369 00b0 002B     		cmp	r3, #0
 370 00b2 51D1     		bne	.L27
 122:..\..\..\lvgl\version_6.1.2\lvgl\src\lv_core/lv_refr.c ****             if(lv_area_is_in(&com_area, &disp->inv_areas[i]) != false) return;
 371              		.loc 2 122 0 discriminator 2
 372 00b4 FB8B     		ldrh	r3, [r7, #30]
 373 00b6 0133     		adds	r3, r3, #1
 374 00b8 FB83     		strh	r3, [r7, #30]	@ movhi
 375              	.L20:
 122:..\..\..\lvgl\version_6.1.2\lvgl\src\lv_core/lv_refr.c ****             if(lv_area_is_in(&com_area, &disp->inv_areas[i]) != false) return;
 376              		.loc 2 122 0 is_stmt 0 discriminator 1
 377 00ba FB8B     		ldrh	r3, [r7, #30]
 378 00bc 7A68     		ldr	r2, [r7, #4]
 379 00be B2F85C21 		ldrh	r2, [r2, #348]	@ movhi
 380 00c2 C2F30902 		ubfx	r2, r2, #0, #10
 381 00c6 92B2     		uxth	r2, r2
 382 00c8 9342     		cmp	r3, r2
 383 00ca E4DB     		blt	.L22
 124:..\..\..\lvgl\version_6.1.2\lvgl\src\lv_core/lv_refr.c ****         }
 125:..\..\..\lvgl\version_6.1.2\lvgl\src\lv_core/lv_refr.c **** 
 126:..\..\..\lvgl\version_6.1.2\lvgl\src\lv_core/lv_refr.c ****         /*Save the area*/
 127:..\..\..\lvgl\version_6.1.2\lvgl\src\lv_core/lv_refr.c ****         if(disp->inv_p < LV_INV_BUF_SIZE) {
 384              		.loc 2 127 0 is_stmt 1
 385 00cc 7B68     		ldr	r3, [r7, #4]
 386 00ce B3F85C31 		ldrh	r3, [r3, #348]	@ movhi
 387 00d2 C3F30903 		ubfx	r3, r3, #0, #10
 388 00d6 9BB2     		uxth	r3, r3
 389 00d8 1F2B     		cmp	r3, #31
 390 00da 11DC     		bgt	.L23
 128:..\..\..\lvgl\version_6.1.2\lvgl\src\lv_core/lv_refr.c ****             lv_area_copy(&disp->inv_areas[disp->inv_p], &com_area);
 391              		.loc 2 128 0
 392 00dc 7B68     		ldr	r3, [r7, #4]
 393 00de B3F85C31 		ldrh	r3, [r3, #348]	@ movhi
ARM GAS  C:\Users\tmj32\AppData\Local\Temp\cc8pVFHq.s 			page 12


 394 00e2 C3F30903 		ubfx	r3, r3, #0, #10
 395 00e6 9BB2     		uxth	r3, r3
 396 00e8 0733     		adds	r3, r3, #7
 397 00ea DB00     		lsls	r3, r3, #3
 398 00ec 7A68     		ldr	r2, [r7, #4]
 399 00ee 1344     		add	r3, r3, r2
 400 00f0 0433     		adds	r3, r3, #4
 401 00f2 07F10C02 		add	r2, r7, #12
 402 00f6 1146     		mov	r1, r2
 403 00f8 1846     		mov	r0, r3
 404 00fa FFF7FEFF 		bl	lv_area_copy
 405 00fe 17E0     		b	.L24
 406              	.L23:
 129:..\..\..\lvgl\version_6.1.2\lvgl\src\lv_core/lv_refr.c ****         } else { /*If no place for the area add the screen*/
 130:..\..\..\lvgl\version_6.1.2\lvgl\src\lv_core/lv_refr.c ****             disp->inv_p = 0;
 407              		.loc 2 130 0
 408 0100 7A68     		ldr	r2, [r7, #4]
 409 0102 B2F85C31 		ldrh	r3, [r2, #348]	@ movhi
 410 0106 6FF30903 		bfc	r3, #0, #10
 411 010a A2F85C31 		strh	r3, [r2, #348]	@ movhi
 131:..\..\..\lvgl\version_6.1.2\lvgl\src\lv_core/lv_refr.c ****             lv_area_copy(&disp->inv_areas[disp->inv_p], &scr_area);
 412              		.loc 2 131 0
 413 010e 7B68     		ldr	r3, [r7, #4]
 414 0110 B3F85C31 		ldrh	r3, [r3, #348]	@ movhi
 415 0114 C3F30903 		ubfx	r3, r3, #0, #10
 416 0118 9BB2     		uxth	r3, r3
 417 011a 0733     		adds	r3, r3, #7
 418 011c DB00     		lsls	r3, r3, #3
 419 011e 7A68     		ldr	r2, [r7, #4]
 420 0120 1344     		add	r3, r3, r2
 421 0122 0433     		adds	r3, r3, #4
 422 0124 07F11402 		add	r2, r7, #20
 423 0128 1146     		mov	r1, r2
 424 012a 1846     		mov	r0, r3
 425 012c FFF7FEFF 		bl	lv_area_copy
 426              	.L24:
 132:..\..\..\lvgl\version_6.1.2\lvgl\src\lv_core/lv_refr.c ****         }
 133:..\..\..\lvgl\version_6.1.2\lvgl\src\lv_core/lv_refr.c ****         disp->inv_p++;
 427              		.loc 2 133 0
 428 0130 7B68     		ldr	r3, [r7, #4]
 429 0132 B3F85C31 		ldrh	r3, [r3, #348]	@ movhi
 430 0136 C3F30903 		ubfx	r3, r3, #0, #10
 431 013a 9BB2     		uxth	r3, r3
 432 013c 0133     		adds	r3, r3, #1
 433 013e C3F30903 		ubfx	r3, r3, #0, #10
 434 0142 99B2     		uxth	r1, r3
 435 0144 7A68     		ldr	r2, [r7, #4]
 436 0146 B2F85C31 		ldrh	r3, [r2, #348]	@ movhi
 437 014a 61F30903 		bfi	r3, r1, #0, #10
 438 014e A2F85C31 		strh	r3, [r2, #348]	@ movhi
 439 0152 02E0     		b	.L13
 440              	.L26:
 441              	.LBE3:
  97:..\..\..\lvgl\version_6.1.2\lvgl\src\lv_core/lv_refr.c **** 
 442              		.loc 2 97 0
 443 0154 00BF     		nop
 444 0156 00E0     		b	.L13
ARM GAS  C:\Users\tmj32\AppData\Local\Temp\cc8pVFHq.s 			page 13


 445              	.L27:
 446              	.LBB4:
 123:..\..\..\lvgl\version_6.1.2\lvgl\src\lv_core/lv_refr.c ****         }
 447              		.loc 2 123 0
 448 0158 00BF     		nop
 449              	.L13:
 450              	.LBE4:
 134:..\..\..\lvgl\version_6.1.2\lvgl\src\lv_core/lv_refr.c ****     }
 135:..\..\..\lvgl\version_6.1.2\lvgl\src\lv_core/lv_refr.c **** }
 451              		.loc 2 135 0
 452 015a 2037     		adds	r7, r7, #32
 453              		.cfi_def_cfa_offset 8
 454 015c BD46     		mov	sp, r7
 455              		.cfi_def_cfa_register 13
 456              		@ sp needed
 457 015e 80BD     		pop	{r7, pc}
 458              		.cfi_endproc
 459              	.LFE37:
 460              		.size	lv_inv_area, .-lv_inv_area
 461              		.section	.text.lv_refr_get_disp_refreshing,"ax",%progbits
 462              		.align	2
 463              		.global	lv_refr_get_disp_refreshing
 464              		.thumb
 465              		.thumb_func
 466              		.type	lv_refr_get_disp_refreshing, %function
 467              	lv_refr_get_disp_refreshing:
 468              	.LFB38:
 136:..\..\..\lvgl\version_6.1.2\lvgl\src\lv_core/lv_refr.c **** 
 137:..\..\..\lvgl\version_6.1.2\lvgl\src\lv_core/lv_refr.c **** /**
 138:..\..\..\lvgl\version_6.1.2\lvgl\src\lv_core/lv_refr.c ****  * Get the display which is being refreshed
 139:..\..\..\lvgl\version_6.1.2\lvgl\src\lv_core/lv_refr.c ****  * @return the display being refreshed
 140:..\..\..\lvgl\version_6.1.2\lvgl\src\lv_core/lv_refr.c ****  */
 141:..\..\..\lvgl\version_6.1.2\lvgl\src\lv_core/lv_refr.c **** lv_disp_t * lv_refr_get_disp_refreshing(void)
 142:..\..\..\lvgl\version_6.1.2\lvgl\src\lv_core/lv_refr.c **** {
 469              		.loc 2 142 0
 470              		.cfi_startproc
 471              		@ args = 0, pretend = 0, frame = 0
 472              		@ frame_needed = 1, uses_anonymous_args = 0
 473              		@ link register save eliminated.
 474 0000 80B4     		push	{r7}
 475              		.cfi_def_cfa_offset 4
 476              		.cfi_offset 7, -4
 477 0002 00AF     		add	r7, sp, #0
 478              		.cfi_def_cfa_register 7
 143:..\..\..\lvgl\version_6.1.2\lvgl\src\lv_core/lv_refr.c ****     return disp_refr;
 479              		.loc 2 143 0
 480 0004 034B     		ldr	r3, .L30
 481 0006 1B68     		ldr	r3, [r3]
 144:..\..\..\lvgl\version_6.1.2\lvgl\src\lv_core/lv_refr.c **** }
 482              		.loc 2 144 0
 483 0008 1846     		mov	r0, r3
 484 000a BD46     		mov	sp, r7
 485              		.cfi_def_cfa_register 13
 486              		@ sp needed
 487 000c 5DF8047B 		ldr	r7, [sp], #4
 488              		.cfi_restore 7
 489              		.cfi_def_cfa_offset 0
ARM GAS  C:\Users\tmj32\AppData\Local\Temp\cc8pVFHq.s 			page 14


 490 0010 7047     		bx	lr
 491              	.L31:
 492 0012 00BF     		.align	2
 493              	.L30:
 494 0014 04000000 		.word	disp_refr
 495              		.cfi_endproc
 496              	.LFE38:
 497              		.size	lv_refr_get_disp_refreshing, .-lv_refr_get_disp_refreshing
 498              		.section	.text.lv_refr_set_disp_refreshing,"ax",%progbits
 499              		.align	2
 500              		.global	lv_refr_set_disp_refreshing
 501              		.thumb
 502              		.thumb_func
 503              		.type	lv_refr_set_disp_refreshing, %function
 504              	lv_refr_set_disp_refreshing:
 505              	.LFB39:
 145:..\..\..\lvgl\version_6.1.2\lvgl\src\lv_core/lv_refr.c **** 
 146:..\..\..\lvgl\version_6.1.2\lvgl\src\lv_core/lv_refr.c **** /**
 147:..\..\..\lvgl\version_6.1.2\lvgl\src\lv_core/lv_refr.c ****  * Set the display which is being refreshed.
 148:..\..\..\lvgl\version_6.1.2\lvgl\src\lv_core/lv_refr.c ****  * It shouldn1t be used directly by the user.
 149:..\..\..\lvgl\version_6.1.2\lvgl\src\lv_core/lv_refr.c ****  * It can be used to trick the drawing functions about there is an active display.
 150:..\..\..\lvgl\version_6.1.2\lvgl\src\lv_core/lv_refr.c ****  * @param the display being refreshed
 151:..\..\..\lvgl\version_6.1.2\lvgl\src\lv_core/lv_refr.c ****  */
 152:..\..\..\lvgl\version_6.1.2\lvgl\src\lv_core/lv_refr.c **** void lv_refr_set_disp_refreshing(lv_disp_t * disp)
 153:..\..\..\lvgl\version_6.1.2\lvgl\src\lv_core/lv_refr.c **** {
 506              		.loc 2 153 0
 507              		.cfi_startproc
 508              		@ args = 0, pretend = 0, frame = 8
 509              		@ frame_needed = 1, uses_anonymous_args = 0
 510              		@ link register save eliminated.
 511 0000 80B4     		push	{r7}
 512              		.cfi_def_cfa_offset 4
 513              		.cfi_offset 7, -4
 514 0002 83B0     		sub	sp, sp, #12
 515              		.cfi_def_cfa_offset 16
 516 0004 00AF     		add	r7, sp, #0
 517              		.cfi_def_cfa_register 7
 518 0006 7860     		str	r0, [r7, #4]
 154:..\..\..\lvgl\version_6.1.2\lvgl\src\lv_core/lv_refr.c ****     disp_refr = disp;
 519              		.loc 2 154 0
 520 0008 044A     		ldr	r2, .L33
 521 000a 7B68     		ldr	r3, [r7, #4]
 522 000c 1360     		str	r3, [r2]
 155:..\..\..\lvgl\version_6.1.2\lvgl\src\lv_core/lv_refr.c **** }
 523              		.loc 2 155 0
 524 000e 00BF     		nop
 525 0010 0C37     		adds	r7, r7, #12
 526              		.cfi_def_cfa_offset 4
 527 0012 BD46     		mov	sp, r7
 528              		.cfi_def_cfa_register 13
 529              		@ sp needed
 530 0014 5DF8047B 		ldr	r7, [sp], #4
 531              		.cfi_restore 7
 532              		.cfi_def_cfa_offset 0
 533 0018 7047     		bx	lr
 534              	.L34:
 535 001a 00BF     		.align	2
ARM GAS  C:\Users\tmj32\AppData\Local\Temp\cc8pVFHq.s 			page 15


 536              	.L33:
 537 001c 04000000 		.word	disp_refr
 538              		.cfi_endproc
 539              	.LFE39:
 540              		.size	lv_refr_set_disp_refreshing, .-lv_refr_set_disp_refreshing
 541              		.section	.text.lv_disp_refr_task,"ax",%progbits
 542              		.align	2
 543              		.global	lv_disp_refr_task
 544              		.thumb
 545              		.thumb_func
 546              		.type	lv_disp_refr_task, %function
 547              	lv_disp_refr_task:
 548              	.LFB40:
 156:..\..\..\lvgl\version_6.1.2\lvgl\src\lv_core/lv_refr.c **** 
 157:..\..\..\lvgl\version_6.1.2\lvgl\src\lv_core/lv_refr.c **** /**
 158:..\..\..\lvgl\version_6.1.2\lvgl\src\lv_core/lv_refr.c ****  * Called periodically to handle the refreshing
 159:..\..\..\lvgl\version_6.1.2\lvgl\src\lv_core/lv_refr.c ****  * @param task pointer to the task itself
 160:..\..\..\lvgl\version_6.1.2\lvgl\src\lv_core/lv_refr.c ****  */
 161:..\..\..\lvgl\version_6.1.2\lvgl\src\lv_core/lv_refr.c **** void lv_disp_refr_task(lv_task_t * task)
 162:..\..\..\lvgl\version_6.1.2\lvgl\src\lv_core/lv_refr.c **** {
 549              		.loc 2 162 0
 550              		.cfi_startproc
 551              		@ args = 0, pretend = 0, frame = 40
 552              		@ frame_needed = 1, uses_anonymous_args = 0
 553 0000 B0B5     		push	{r4, r5, r7, lr}
 554              		.cfi_def_cfa_offset 16
 555              		.cfi_offset 4, -16
 556              		.cfi_offset 5, -12
 557              		.cfi_offset 7, -8
 558              		.cfi_offset 14, -4
 559 0002 8AB0     		sub	sp, sp, #40
 560              		.cfi_def_cfa_offset 56
 561 0004 00AF     		add	r7, sp, #0
 562              		.cfi_def_cfa_register 7
 563 0006 7860     		str	r0, [r7, #4]
 163:..\..\..\lvgl\version_6.1.2\lvgl\src\lv_core/lv_refr.c ****     LV_LOG_TRACE("lv_refr_task: started");
 164:..\..\..\lvgl\version_6.1.2\lvgl\src\lv_core/lv_refr.c **** 
 165:..\..\..\lvgl\version_6.1.2\lvgl\src\lv_core/lv_refr.c ****     uint32_t start = lv_tick_get();
 564              		.loc 2 165 0
 565 0008 FFF7FEFF 		bl	lv_tick_get
 566 000c F861     		str	r0, [r7, #28]
 166:..\..\..\lvgl\version_6.1.2\lvgl\src\lv_core/lv_refr.c **** 
 167:..\..\..\lvgl\version_6.1.2\lvgl\src\lv_core/lv_refr.c ****     disp_refr = task->user_data;
 567              		.loc 2 167 0
 568 000e 7B68     		ldr	r3, [r7, #4]
 569 0010 DB68     		ldr	r3, [r3, #12]
 570 0012 6D4A     		ldr	r2, .L46
 571 0014 1360     		str	r3, [r2]
 168:..\..\..\lvgl\version_6.1.2\lvgl\src\lv_core/lv_refr.c **** 
 169:..\..\..\lvgl\version_6.1.2\lvgl\src\lv_core/lv_refr.c ****     lv_refr_join_area();
 572              		.loc 2 169 0
 573 0016 FFF7FEFF 		bl	lv_refr_join_area
 170:..\..\..\lvgl\version_6.1.2\lvgl\src\lv_core/lv_refr.c **** 
 171:..\..\..\lvgl\version_6.1.2\lvgl\src\lv_core/lv_refr.c ****     lv_refr_areas();
 574              		.loc 2 171 0
 575 001a FFF7FEFF 		bl	lv_refr_areas
 172:..\..\..\lvgl\version_6.1.2\lvgl\src\lv_core/lv_refr.c **** 
ARM GAS  C:\Users\tmj32\AppData\Local\Temp\cc8pVFHq.s 			page 16


 173:..\..\..\lvgl\version_6.1.2\lvgl\src\lv_core/lv_refr.c ****     /*If refresh happened ...*/
 174:..\..\..\lvgl\version_6.1.2\lvgl\src\lv_core/lv_refr.c ****     if(disp_refr->inv_p != 0) {
 576              		.loc 2 174 0
 577 001e 6A4B     		ldr	r3, .L46
 578 0020 1B68     		ldr	r3, [r3]
 579 0022 B3F85C31 		ldrh	r3, [r3, #348]
 580 0026 C3F30903 		ubfx	r3, r3, #0, #10
 581 002a 9BB2     		uxth	r3, r3
 582 002c 002B     		cmp	r3, #0
 583 002e 00F0C480 		beq	.L36
 175:..\..\..\lvgl\version_6.1.2\lvgl\src\lv_core/lv_refr.c ****         /*In true double buffered mode copy the refreshed areas to the new VDB to keep it up to
 176:..\..\..\lvgl\version_6.1.2\lvgl\src\lv_core/lv_refr.c ****          * date*/
 177:..\..\..\lvgl\version_6.1.2\lvgl\src\lv_core/lv_refr.c ****         if(lv_disp_is_true_double_buf(disp_refr)) {
 584              		.loc 2 177 0
 585 0032 654B     		ldr	r3, .L46
 586 0034 1B68     		ldr	r3, [r3]
 587 0036 1846     		mov	r0, r3
 588 0038 FFF7FEFF 		bl	lv_disp_is_true_double_buf
 589 003c 0346     		mov	r3, r0
 590 003e 002B     		cmp	r3, #0
 591 0040 00F08D80 		beq	.L37
 592              	.LBB5:
 178:..\..\..\lvgl\version_6.1.2\lvgl\src\lv_core/lv_refr.c ****             lv_disp_buf_t * vdb = lv_disp_get_buf(disp_refr);
 593              		.loc 2 178 0
 594 0044 604B     		ldr	r3, .L46
 595 0046 1B68     		ldr	r3, [r3]
 596 0048 1846     		mov	r0, r3
 597 004a FFF7FEFF 		bl	lv_disp_get_buf
 598 004e B861     		str	r0, [r7, #24]
 179:..\..\..\lvgl\version_6.1.2\lvgl\src\lv_core/lv_refr.c **** 
 180:..\..\..\lvgl\version_6.1.2\lvgl\src\lv_core/lv_refr.c ****             /*Flush the content of the VDB*/
 181:..\..\..\lvgl\version_6.1.2\lvgl\src\lv_core/lv_refr.c ****             lv_refr_vdb_flush();
 599              		.loc 2 181 0
 600 0050 FFF7FEFF 		bl	lv_refr_vdb_flush
 182:..\..\..\lvgl\version_6.1.2\lvgl\src\lv_core/lv_refr.c **** 
 183:..\..\..\lvgl\version_6.1.2\lvgl\src\lv_core/lv_refr.c ****             /* With true double buffering the flushing should be only the address change of the
 184:..\..\..\lvgl\version_6.1.2\lvgl\src\lv_core/lv_refr.c ****              * current frame buffer. Wait until the address change is ready and copy the changed
 185:..\..\..\lvgl\version_6.1.2\lvgl\src\lv_core/lv_refr.c ****              * content to the other frame buffer (new active VDB) to keep the buffers synchronized*
 186:..\..\..\lvgl\version_6.1.2\lvgl\src\lv_core/lv_refr.c ****             while(vdb->flushing)
 601              		.loc 2 186 0
 602 0054 00BF     		nop
 603              	.L38:
 604              		.loc 2 186 0 is_stmt 0 discriminator 1
 605 0056 BB69     		ldr	r3, [r7, #24]
 606 0058 9B69     		ldr	r3, [r3, #24]
 607 005a C3F30003 		ubfx	r3, r3, #0, #1
 608 005e DBB2     		uxtb	r3, r3
 609 0060 002B     		cmp	r3, #0
 610 0062 F8D1     		bne	.L38
 187:..\..\..\lvgl\version_6.1.2\lvgl\src\lv_core/lv_refr.c ****                 ;
 188:..\..\..\lvgl\version_6.1.2\lvgl\src\lv_core/lv_refr.c **** 
 189:..\..\..\lvgl\version_6.1.2\lvgl\src\lv_core/lv_refr.c ****             uint8_t * buf_act = (uint8_t *)vdb->buf_act;
 611              		.loc 2 189 0 is_stmt 1
 612 0064 BB69     		ldr	r3, [r7, #24]
 613 0066 9B68     		ldr	r3, [r3, #8]
 614 0068 7B61     		str	r3, [r7, #20]
 190:..\..\..\lvgl\version_6.1.2\lvgl\src\lv_core/lv_refr.c ****             uint8_t * buf_ina = (uint8_t *)vdb->buf_act == vdb->buf1 ? vdb->buf2 : vdb->buf1;
ARM GAS  C:\Users\tmj32\AppData\Local\Temp\cc8pVFHq.s 			page 17


 615              		.loc 2 190 0
 616 006a BB69     		ldr	r3, [r7, #24]
 617 006c 9A68     		ldr	r2, [r3, #8]
 618 006e BB69     		ldr	r3, [r7, #24]
 619 0070 1B68     		ldr	r3, [r3]
 620 0072 9A42     		cmp	r2, r3
 621 0074 02D1     		bne	.L39
 622              		.loc 2 190 0 is_stmt 0 discriminator 1
 623 0076 BB69     		ldr	r3, [r7, #24]
 624 0078 5B68     		ldr	r3, [r3, #4]
 625 007a 01E0     		b	.L40
 626              	.L39:
 627              		.loc 2 190 0 discriminator 2
 628 007c BB69     		ldr	r3, [r7, #24]
 629 007e 1B68     		ldr	r3, [r3]
 630              	.L40:
 631              		.loc 2 190 0 discriminator 4
 632 0080 3B61     		str	r3, [r7, #16]
 191:..\..\..\lvgl\version_6.1.2\lvgl\src\lv_core/lv_refr.c **** 
 192:..\..\..\lvgl\version_6.1.2\lvgl\src\lv_core/lv_refr.c ****             lv_coord_t hres = lv_disp_get_hor_res(disp_refr);
 633              		.loc 2 192 0 is_stmt 1 discriminator 4
 634 0082 514B     		ldr	r3, .L46
 635 0084 1B68     		ldr	r3, [r3]
 636 0086 1846     		mov	r0, r3
 637 0088 FFF7FEFF 		bl	lv_disp_get_hor_res
 638 008c 0346     		mov	r3, r0
 639 008e FB81     		strh	r3, [r7, #14]	@ movhi
 193:..\..\..\lvgl\version_6.1.2\lvgl\src\lv_core/lv_refr.c ****             uint16_t a;
 194:..\..\..\lvgl\version_6.1.2\lvgl\src\lv_core/lv_refr.c ****             for(a = 0; a < disp_refr->inv_p; a++) {
 640              		.loc 2 194 0 discriminator 4
 641 0090 0023     		movs	r3, #0
 642 0092 FB84     		strh	r3, [r7, #38]	@ movhi
 643 0094 59E0     		b	.L41
 644              	.L45:
 195:..\..\..\lvgl\version_6.1.2\lvgl\src\lv_core/lv_refr.c ****                 if(disp_refr->inv_area_joined[a] == 0) {
 645              		.loc 2 195 0
 646 0096 4C4B     		ldr	r3, .L46
 647 0098 1A68     		ldr	r2, [r3]
 648 009a FB8C     		ldrh	r3, [r7, #38]
 649 009c 1344     		add	r3, r3, r2
 650 009e 93F83C31 		ldrb	r3, [r3, #316]	@ zero_extendqisi2
 651 00a2 002B     		cmp	r3, #0
 652 00a4 4ED1     		bne	.L42
 653              	.LBB6:
 196:..\..\..\lvgl\version_6.1.2\lvgl\src\lv_core/lv_refr.c ****                     lv_coord_t y;
 197:..\..\..\lvgl\version_6.1.2\lvgl\src\lv_core/lv_refr.c ****                     uint32_t start_offs =
 198:..\..\..\lvgl\version_6.1.2\lvgl\src\lv_core/lv_refr.c ****                         (hres * disp_refr->inv_areas[a].y1 + disp_refr->inv_areas[a].x1) * sizeof(l
 654              		.loc 2 198 0
 655 00a6 B7F90E20 		ldrsh	r2, [r7, #14]
 656 00aa 474B     		ldr	r3, .L46
 657 00ac 1968     		ldr	r1, [r3]
 658 00ae FB8C     		ldrh	r3, [r7, #38]
 659 00b0 0733     		adds	r3, r3, #7
 660 00b2 DB00     		lsls	r3, r3, #3
 661 00b4 0B44     		add	r3, r3, r1
 662 00b6 B3F90630 		ldrsh	r3, [r3, #6]
 663 00ba 03FB02F2 		mul	r2, r3, r2
ARM GAS  C:\Users\tmj32\AppData\Local\Temp\cc8pVFHq.s 			page 18


 664 00be 424B     		ldr	r3, .L46
 665 00c0 1968     		ldr	r1, [r3]
 666 00c2 FB8C     		ldrh	r3, [r7, #38]
 667 00c4 0733     		adds	r3, r3, #7
 668 00c6 DB00     		lsls	r3, r3, #3
 669 00c8 0B44     		add	r3, r3, r1
 670 00ca B3F90430 		ldrsh	r3, [r3, #4]
 671 00ce 1344     		add	r3, r3, r2
 197:..\..\..\lvgl\version_6.1.2\lvgl\src\lv_core/lv_refr.c ****                         (hres * disp_refr->inv_areas[a].y1 + disp_refr->inv_areas[a].x1) * sizeof(l
 672              		.loc 2 197 0
 673 00d0 9B00     		lsls	r3, r3, #2
 674 00d2 3B62     		str	r3, [r7, #32]
 199:..\..\..\lvgl\version_6.1.2\lvgl\src\lv_core/lv_refr.c ****                     uint32_t line_length = lv_area_get_width(&disp_refr->inv_areas[a]) * sizeof(lv_
 675              		.loc 2 199 0
 676 00d4 3C4B     		ldr	r3, .L46
 677 00d6 1A68     		ldr	r2, [r3]
 678 00d8 FB8C     		ldrh	r3, [r7, #38]
 679 00da 0733     		adds	r3, r3, #7
 680 00dc DB00     		lsls	r3, r3, #3
 681 00de 1344     		add	r3, r3, r2
 682 00e0 0433     		adds	r3, r3, #4
 683 00e2 1846     		mov	r0, r3
 684 00e4 FFF7FEFF 		bl	lv_area_get_width
 685 00e8 0346     		mov	r3, r0
 686 00ea 9B00     		lsls	r3, r3, #2
 687 00ec BB60     		str	r3, [r7, #8]
 200:..\..\..\lvgl\version_6.1.2\lvgl\src\lv_core/lv_refr.c **** 
 201:..\..\..\lvgl\version_6.1.2\lvgl\src\lv_core/lv_refr.c ****                     for(y = disp_refr->inv_areas[a].y1; y <= disp_refr->inv_areas[a].y2; y++) {
 688              		.loc 2 201 0
 689 00ee 364B     		ldr	r3, .L46
 690 00f0 1A68     		ldr	r2, [r3]
 691 00f2 FB8C     		ldrh	r3, [r7, #38]
 692 00f4 0733     		adds	r3, r3, #7
 693 00f6 DB00     		lsls	r3, r3, #3
 694 00f8 1344     		add	r3, r3, r2
 695 00fa DB88     		ldrh	r3, [r3, #6]	@ movhi
 696 00fc BB84     		strh	r3, [r7, #36]	@ movhi
 697 00fe 15E0     		b	.L43
 698              	.L44:
 202:..\..\..\lvgl\version_6.1.2\lvgl\src\lv_core/lv_refr.c ****                         memcpy(buf_act + start_offs, buf_ina + start_offs, line_length);
 699              		.loc 2 202 0 discriminator 3
 700 0100 7A69     		ldr	r2, [r7, #20]
 701 0102 3B6A     		ldr	r3, [r7, #32]
 702 0104 D018     		adds	r0, r2, r3
 703 0106 3A69     		ldr	r2, [r7, #16]
 704 0108 3B6A     		ldr	r3, [r7, #32]
 705 010a 1344     		add	r3, r3, r2
 706 010c BA68     		ldr	r2, [r7, #8]
 707 010e 1946     		mov	r1, r3
 708 0110 FFF7FEFF 		bl	memcpy
 203:..\..\..\lvgl\version_6.1.2\lvgl\src\lv_core/lv_refr.c ****                         start_offs += hres * sizeof(lv_color_t);
 709              		.loc 2 203 0 discriminator 3
 710 0114 B7F90E30 		ldrsh	r3, [r7, #14]
 711 0118 9B00     		lsls	r3, r3, #2
 712 011a 3A6A     		ldr	r2, [r7, #32]
 713 011c 1344     		add	r3, r3, r2
 714 011e 3B62     		str	r3, [r7, #32]
ARM GAS  C:\Users\tmj32\AppData\Local\Temp\cc8pVFHq.s 			page 19


 201:..\..\..\lvgl\version_6.1.2\lvgl\src\lv_core/lv_refr.c ****                         memcpy(buf_act + start_offs, buf_ina + start_offs, line_length);
 715              		.loc 2 201 0 discriminator 3
 716 0120 B7F92430 		ldrsh	r3, [r7, #36]
 717 0124 9BB2     		uxth	r3, r3
 718 0126 0133     		adds	r3, r3, #1
 719 0128 9BB2     		uxth	r3, r3
 720 012a BB84     		strh	r3, [r7, #36]	@ movhi
 721              	.L43:
 201:..\..\..\lvgl\version_6.1.2\lvgl\src\lv_core/lv_refr.c ****                         memcpy(buf_act + start_offs, buf_ina + start_offs, line_length);
 722              		.loc 2 201 0 is_stmt 0 discriminator 1
 723 012c 264B     		ldr	r3, .L46
 724 012e 1A68     		ldr	r2, [r3]
 725 0130 FB8C     		ldrh	r3, [r7, #38]
 726 0132 0733     		adds	r3, r3, #7
 727 0134 DB00     		lsls	r3, r3, #3
 728 0136 1344     		add	r3, r3, r2
 729 0138 B3F90A30 		ldrsh	r3, [r3, #10]
 730 013c B7F92420 		ldrsh	r2, [r7, #36]
 731 0140 9A42     		cmp	r2, r3
 732 0142 DDDD     		ble	.L44
 733              	.L42:
 734              	.LBE6:
 194:..\..\..\lvgl\version_6.1.2\lvgl\src\lv_core/lv_refr.c ****                 if(disp_refr->inv_area_joined[a] == 0) {
 735              		.loc 2 194 0 is_stmt 1 discriminator 2
 736 0144 FB8C     		ldrh	r3, [r7, #38]
 737 0146 0133     		adds	r3, r3, #1
 738 0148 FB84     		strh	r3, [r7, #38]	@ movhi
 739              	.L41:
 194:..\..\..\lvgl\version_6.1.2\lvgl\src\lv_core/lv_refr.c ****                 if(disp_refr->inv_area_joined[a] == 0) {
 740              		.loc 2 194 0 is_stmt 0 discriminator 1
 741 014a FB8C     		ldrh	r3, [r7, #38]
 742 014c 1E4A     		ldr	r2, .L46
 743 014e 1268     		ldr	r2, [r2]
 744 0150 B2F85C21 		ldrh	r2, [r2, #348]	@ movhi
 745 0154 C2F30902 		ubfx	r2, r2, #0, #10
 746 0158 92B2     		uxth	r2, r2
 747 015a 9342     		cmp	r3, r2
 748 015c 9BDB     		blt	.L45
 749              	.L37:
 750              	.LBE5:
 204:..\..\..\lvgl\version_6.1.2\lvgl\src\lv_core/lv_refr.c ****                     }
 205:..\..\..\lvgl\version_6.1.2\lvgl\src\lv_core/lv_refr.c ****                 }
 206:..\..\..\lvgl\version_6.1.2\lvgl\src\lv_core/lv_refr.c ****             }
 207:..\..\..\lvgl\version_6.1.2\lvgl\src\lv_core/lv_refr.c ****         } /*End of true double buffer handling*/
 208:..\..\..\lvgl\version_6.1.2\lvgl\src\lv_core/lv_refr.c **** 
 209:..\..\..\lvgl\version_6.1.2\lvgl\src\lv_core/lv_refr.c ****         /*Clean up*/
 210:..\..\..\lvgl\version_6.1.2\lvgl\src\lv_core/lv_refr.c ****         memset(disp_refr->inv_areas, 0, sizeof(disp_refr->inv_areas));
 751              		.loc 2 210 0 is_stmt 1
 752 015e 1A4B     		ldr	r3, .L46
 753 0160 1B68     		ldr	r3, [r3]
 754 0162 3C33     		adds	r3, r3, #60
 755 0164 4FF48072 		mov	r2, #256
 756 0168 0021     		movs	r1, #0
 757 016a 1846     		mov	r0, r3
 758 016c FFF7FEFF 		bl	memset
 211:..\..\..\lvgl\version_6.1.2\lvgl\src\lv_core/lv_refr.c ****         memset(disp_refr->inv_area_joined, 0, sizeof(disp_refr->inv_area_joined));
 759              		.loc 2 211 0
ARM GAS  C:\Users\tmj32\AppData\Local\Temp\cc8pVFHq.s 			page 20


 760 0170 154B     		ldr	r3, .L46
 761 0172 1B68     		ldr	r3, [r3]
 762 0174 03F59E73 		add	r3, r3, #316
 763 0178 2022     		movs	r2, #32
 764 017a 0021     		movs	r1, #0
 765 017c 1846     		mov	r0, r3
 766 017e FFF7FEFF 		bl	memset
 212:..\..\..\lvgl\version_6.1.2\lvgl\src\lv_core/lv_refr.c ****         disp_refr->inv_p = 0;
 767              		.loc 2 212 0
 768 0182 114B     		ldr	r3, .L46
 769 0184 1A68     		ldr	r2, [r3]
 770 0186 B2F85C31 		ldrh	r3, [r2, #348]	@ movhi
 771 018a 6FF30903 		bfc	r3, #0, #10
 772 018e A2F85C31 		strh	r3, [r2, #348]	@ movhi
 213:..\..\..\lvgl\version_6.1.2\lvgl\src\lv_core/lv_refr.c **** 
 214:..\..\..\lvgl\version_6.1.2\lvgl\src\lv_core/lv_refr.c ****         /*Call monitor cb if present*/
 215:..\..\..\lvgl\version_6.1.2\lvgl\src\lv_core/lv_refr.c ****         if(disp_refr->driver.monitor_cb) {
 773              		.loc 2 215 0
 774 0192 0D4B     		ldr	r3, .L46
 775 0194 1B68     		ldr	r3, [r3]
 776 0196 9B69     		ldr	r3, [r3, #24]
 777 0198 002B     		cmp	r3, #0
 778 019a 0ED0     		beq	.L36
 216:..\..\..\lvgl\version_6.1.2\lvgl\src\lv_core/lv_refr.c ****             disp_refr->driver.monitor_cb(&disp_refr->driver, lv_tick_elaps(start), px_num);
 779              		.loc 2 216 0
 780 019c 0A4B     		ldr	r3, .L46
 781 019e 1B68     		ldr	r3, [r3]
 782 01a0 9C69     		ldr	r4, [r3, #24]
 783 01a2 094B     		ldr	r3, .L46
 784 01a4 1B68     		ldr	r3, [r3]
 785 01a6 1D46     		mov	r5, r3
 786 01a8 F869     		ldr	r0, [r7, #28]
 787 01aa FFF7FEFF 		bl	lv_tick_elaps
 788 01ae 0146     		mov	r1, r0
 789 01b0 064B     		ldr	r3, .L46+4
 790 01b2 1B68     		ldr	r3, [r3]
 791 01b4 1A46     		mov	r2, r3
 792 01b6 2846     		mov	r0, r5
 793 01b8 A047     		blx	r4
 794              	.L36:
 217:..\..\..\lvgl\version_6.1.2\lvgl\src\lv_core/lv_refr.c ****         }
 218:..\..\..\lvgl\version_6.1.2\lvgl\src\lv_core/lv_refr.c ****     }
 219:..\..\..\lvgl\version_6.1.2\lvgl\src\lv_core/lv_refr.c **** 
 220:..\..\..\lvgl\version_6.1.2\lvgl\src\lv_core/lv_refr.c ****     lv_draw_free_buf();
 795              		.loc 2 220 0
 796 01ba FFF7FEFF 		bl	lv_draw_free_buf
 221:..\..\..\lvgl\version_6.1.2\lvgl\src\lv_core/lv_refr.c **** 
 222:..\..\..\lvgl\version_6.1.2\lvgl\src\lv_core/lv_refr.c ****     LV_LOG_TRACE("lv_refr_task: ready");
 223:..\..\..\lvgl\version_6.1.2\lvgl\src\lv_core/lv_refr.c **** }
 797              		.loc 2 223 0
 798 01be 00BF     		nop
 799 01c0 2837     		adds	r7, r7, #40
 800              		.cfi_def_cfa_offset 16
 801 01c2 BD46     		mov	sp, r7
 802              		.cfi_def_cfa_register 13
 803              		@ sp needed
 804 01c4 B0BD     		pop	{r4, r5, r7, pc}
ARM GAS  C:\Users\tmj32\AppData\Local\Temp\cc8pVFHq.s 			page 21


 805              	.L47:
 806 01c6 00BF     		.align	2
 807              	.L46:
 808 01c8 04000000 		.word	disp_refr
 809 01cc 00000000 		.word	px_num
 810              		.cfi_endproc
 811              	.LFE40:
 812              		.size	lv_disp_refr_task, .-lv_disp_refr_task
 813              		.section	.text.lv_refr_join_area,"ax",%progbits
 814              		.align	2
 815              		.thumb
 816              		.thumb_func
 817              		.type	lv_refr_join_area, %function
 818              	lv_refr_join_area:
 819              	.LFB41:
 224:..\..\..\lvgl\version_6.1.2\lvgl\src\lv_core/lv_refr.c **** 
 225:..\..\..\lvgl\version_6.1.2\lvgl\src\lv_core/lv_refr.c **** /**********************
 226:..\..\..\lvgl\version_6.1.2\lvgl\src\lv_core/lv_refr.c ****  *   STATIC FUNCTIONS
 227:..\..\..\lvgl\version_6.1.2\lvgl\src\lv_core/lv_refr.c ****  **********************/
 228:..\..\..\lvgl\version_6.1.2\lvgl\src\lv_core/lv_refr.c **** 
 229:..\..\..\lvgl\version_6.1.2\lvgl\src\lv_core/lv_refr.c **** /**
 230:..\..\..\lvgl\version_6.1.2\lvgl\src\lv_core/lv_refr.c ****  * Join the areas which has got common parts
 231:..\..\..\lvgl\version_6.1.2\lvgl\src\lv_core/lv_refr.c ****  */
 232:..\..\..\lvgl\version_6.1.2\lvgl\src\lv_core/lv_refr.c **** static void lv_refr_join_area(void)
 233:..\..\..\lvgl\version_6.1.2\lvgl\src\lv_core/lv_refr.c **** {
 820              		.loc 2 233 0
 821              		.cfi_startproc
 822              		@ args = 0, pretend = 0, frame = 16
 823              		@ frame_needed = 1, uses_anonymous_args = 0
 824 0000 B0B5     		push	{r4, r5, r7, lr}
 825              		.cfi_def_cfa_offset 16
 826              		.cfi_offset 4, -16
 827              		.cfi_offset 5, -12
 828              		.cfi_offset 7, -8
 829              		.cfi_offset 14, -4
 830 0002 84B0     		sub	sp, sp, #16
 831              		.cfi_def_cfa_offset 32
 832 0004 00AF     		add	r7, sp, #0
 833              		.cfi_def_cfa_register 7
 234:..\..\..\lvgl\version_6.1.2\lvgl\src\lv_core/lv_refr.c ****     uint32_t join_from;
 235:..\..\..\lvgl\version_6.1.2\lvgl\src\lv_core/lv_refr.c ****     uint32_t join_in;
 236:..\..\..\lvgl\version_6.1.2\lvgl\src\lv_core/lv_refr.c ****     lv_area_t joined_area;
 237:..\..\..\lvgl\version_6.1.2\lvgl\src\lv_core/lv_refr.c ****     for(join_in = 0; join_in < disp_refr->inv_p; join_in++) {
 834              		.loc 2 237 0
 835 0006 0023     		movs	r3, #0
 836 0008 BB60     		str	r3, [r7, #8]
 837 000a 8AE0     		b	.L49
 838              	.L58:
 238:..\..\..\lvgl\version_6.1.2\lvgl\src\lv_core/lv_refr.c ****         if(disp_refr->inv_area_joined[join_in] != 0) continue;
 839              		.loc 2 238 0
 840 000c 4D4B     		ldr	r3, .L62
 841 000e 1A68     		ldr	r2, [r3]
 842 0010 BB68     		ldr	r3, [r7, #8]
 843 0012 1344     		add	r3, r3, r2
 844 0014 03F59E73 		add	r3, r3, #316
 845 0018 1B78     		ldrb	r3, [r3]	@ zero_extendqisi2
 846 001a 002B     		cmp	r3, #0
ARM GAS  C:\Users\tmj32\AppData\Local\Temp\cc8pVFHq.s 			page 22


 847 001c 7DD1     		bne	.L59
 239:..\..\..\lvgl\version_6.1.2\lvgl\src\lv_core/lv_refr.c **** 
 240:..\..\..\lvgl\version_6.1.2\lvgl\src\lv_core/lv_refr.c ****         /*Check all areas to join them in 'join_in'*/
 241:..\..\..\lvgl\version_6.1.2\lvgl\src\lv_core/lv_refr.c ****         for(join_from = 0; join_from < disp_refr->inv_p; join_from++) {
 848              		.loc 2 241 0
 849 001e 0023     		movs	r3, #0
 850 0020 FB60     		str	r3, [r7, #12]
 851 0022 6EE0     		b	.L52
 852              	.L57:
 242:..\..\..\lvgl\version_6.1.2\lvgl\src\lv_core/lv_refr.c ****             /*Handle only unjoined areas and ignore itself*/
 243:..\..\..\lvgl\version_6.1.2\lvgl\src\lv_core/lv_refr.c ****             if(disp_refr->inv_area_joined[join_from] != 0 || join_in == join_from) {
 853              		.loc 2 243 0
 854 0024 474B     		ldr	r3, .L62
 855 0026 1A68     		ldr	r2, [r3]
 856 0028 FB68     		ldr	r3, [r7, #12]
 857 002a 1344     		add	r3, r3, r2
 858 002c 03F59E73 		add	r3, r3, #316
 859 0030 1B78     		ldrb	r3, [r3]	@ zero_extendqisi2
 860 0032 002B     		cmp	r3, #0
 861 0034 5FD1     		bne	.L60
 862              		.loc 2 243 0 is_stmt 0 discriminator 1
 863 0036 BA68     		ldr	r2, [r7, #8]
 864 0038 FB68     		ldr	r3, [r7, #12]
 865 003a 9A42     		cmp	r2, r3
 866 003c 5BD0     		beq	.L60
 244:..\..\..\lvgl\version_6.1.2\lvgl\src\lv_core/lv_refr.c ****                 continue;
 245:..\..\..\lvgl\version_6.1.2\lvgl\src\lv_core/lv_refr.c ****             }
 246:..\..\..\lvgl\version_6.1.2\lvgl\src\lv_core/lv_refr.c **** 
 247:..\..\..\lvgl\version_6.1.2\lvgl\src\lv_core/lv_refr.c ****             /*Check if the areas are on each other*/
 248:..\..\..\lvgl\version_6.1.2\lvgl\src\lv_core/lv_refr.c ****             if(lv_area_is_on(&disp_refr->inv_areas[join_in], &disp_refr->inv_areas[join_from]) == f
 867              		.loc 2 248 0 is_stmt 1
 868 003e 414B     		ldr	r3, .L62
 869 0040 1A68     		ldr	r2, [r3]
 870 0042 BB68     		ldr	r3, [r7, #8]
 871 0044 0733     		adds	r3, r3, #7
 872 0046 DB00     		lsls	r3, r3, #3
 873 0048 1344     		add	r3, r3, r2
 874 004a 181D     		adds	r0, r3, #4
 875 004c 3D4B     		ldr	r3, .L62
 876 004e 1A68     		ldr	r2, [r3]
 877 0050 FB68     		ldr	r3, [r7, #12]
 878 0052 0733     		adds	r3, r3, #7
 879 0054 DB00     		lsls	r3, r3, #3
 880 0056 1344     		add	r3, r3, r2
 881 0058 0433     		adds	r3, r3, #4
 882 005a 1946     		mov	r1, r3
 883 005c FFF7FEFF 		bl	lv_area_is_on
 884 0060 0346     		mov	r3, r0
 885 0062 83F00103 		eor	r3, r3, #1
 886 0066 DBB2     		uxtb	r3, r3
 887 0068 002B     		cmp	r3, #0
 888 006a 46D1     		bne	.L61
 249:..\..\..\lvgl\version_6.1.2\lvgl\src\lv_core/lv_refr.c ****                 continue;
 250:..\..\..\lvgl\version_6.1.2\lvgl\src\lv_core/lv_refr.c ****             }
 251:..\..\..\lvgl\version_6.1.2\lvgl\src\lv_core/lv_refr.c **** 
 252:..\..\..\lvgl\version_6.1.2\lvgl\src\lv_core/lv_refr.c ****             lv_area_join(&joined_area, &disp_refr->inv_areas[join_in], &disp_refr->inv_areas[join_f
 889              		.loc 2 252 0
ARM GAS  C:\Users\tmj32\AppData\Local\Temp\cc8pVFHq.s 			page 23


 890 006c 354B     		ldr	r3, .L62
 891 006e 1A68     		ldr	r2, [r3]
 892 0070 BB68     		ldr	r3, [r7, #8]
 893 0072 0733     		adds	r3, r3, #7
 894 0074 DB00     		lsls	r3, r3, #3
 895 0076 1344     		add	r3, r3, r2
 896 0078 191D     		adds	r1, r3, #4
 897 007a 324B     		ldr	r3, .L62
 898 007c 1A68     		ldr	r2, [r3]
 899 007e FB68     		ldr	r3, [r7, #12]
 900 0080 0733     		adds	r3, r3, #7
 901 0082 DB00     		lsls	r3, r3, #3
 902 0084 1344     		add	r3, r3, r2
 903 0086 1A1D     		adds	r2, r3, #4
 904 0088 3B46     		mov	r3, r7
 905 008a 1846     		mov	r0, r3
 906 008c FFF7FEFF 		bl	lv_area_join
 253:..\..\..\lvgl\version_6.1.2\lvgl\src\lv_core/lv_refr.c **** 
 254:..\..\..\lvgl\version_6.1.2\lvgl\src\lv_core/lv_refr.c ****             /*Join two area only if the joined area size is smaller*/
 255:..\..\..\lvgl\version_6.1.2\lvgl\src\lv_core/lv_refr.c ****             if(lv_area_get_size(&joined_area) < (lv_area_get_size(&disp_refr->inv_areas[join_in]) +
 907              		.loc 2 255 0
 908 0090 3B46     		mov	r3, r7
 909 0092 1846     		mov	r0, r3
 910 0094 FFF7FEFF 		bl	lv_area_get_size
 911 0098 0446     		mov	r4, r0
 912 009a 2A4B     		ldr	r3, .L62
 913 009c 1A68     		ldr	r2, [r3]
 914 009e BB68     		ldr	r3, [r7, #8]
 915 00a0 0733     		adds	r3, r3, #7
 916 00a2 DB00     		lsls	r3, r3, #3
 917 00a4 1344     		add	r3, r3, r2
 918 00a6 0433     		adds	r3, r3, #4
 919 00a8 1846     		mov	r0, r3
 920 00aa FFF7FEFF 		bl	lv_area_get_size
 921 00ae 0546     		mov	r5, r0
 256:..\..\..\lvgl\version_6.1.2\lvgl\src\lv_core/lv_refr.c ****                                                  lv_area_get_size(&disp_refr->inv_areas[join_from])
 922              		.loc 2 256 0
 923 00b0 244B     		ldr	r3, .L62
 924 00b2 1A68     		ldr	r2, [r3]
 925 00b4 FB68     		ldr	r3, [r7, #12]
 926 00b6 0733     		adds	r3, r3, #7
 927 00b8 DB00     		lsls	r3, r3, #3
 928 00ba 1344     		add	r3, r3, r2
 929 00bc 0433     		adds	r3, r3, #4
 930 00be 1846     		mov	r0, r3
 931 00c0 FFF7FEFF 		bl	lv_area_get_size
 932 00c4 0346     		mov	r3, r0
 255:..\..\..\lvgl\version_6.1.2\lvgl\src\lv_core/lv_refr.c ****                                                  lv_area_get_size(&disp_refr->inv_areas[join_from])
 933              		.loc 2 255 0
 934 00c6 2B44     		add	r3, r3, r5
 935 00c8 9C42     		cmp	r4, r3
 936 00ca 17D2     		bcs	.L55
 257:..\..\..\lvgl\version_6.1.2\lvgl\src\lv_core/lv_refr.c ****                 lv_area_copy(&disp_refr->inv_areas[join_in], &joined_area);
 937              		.loc 2 257 0
 938 00cc 1D4B     		ldr	r3, .L62
 939 00ce 1A68     		ldr	r2, [r3]
 940 00d0 BB68     		ldr	r3, [r7, #8]
ARM GAS  C:\Users\tmj32\AppData\Local\Temp\cc8pVFHq.s 			page 24


 941 00d2 0733     		adds	r3, r3, #7
 942 00d4 DB00     		lsls	r3, r3, #3
 943 00d6 1344     		add	r3, r3, r2
 944 00d8 0433     		adds	r3, r3, #4
 945 00da 3A46     		mov	r2, r7
 946 00dc 1146     		mov	r1, r2
 947 00de 1846     		mov	r0, r3
 948 00e0 FFF7FEFF 		bl	lv_area_copy
 258:..\..\..\lvgl\version_6.1.2\lvgl\src\lv_core/lv_refr.c **** 
 259:..\..\..\lvgl\version_6.1.2\lvgl\src\lv_core/lv_refr.c ****                 /*Mark 'join_form' is joined into 'join_in'*/
 260:..\..\..\lvgl\version_6.1.2\lvgl\src\lv_core/lv_refr.c ****                 disp_refr->inv_area_joined[join_from] = 1;
 949              		.loc 2 260 0
 950 00e4 174B     		ldr	r3, .L62
 951 00e6 1A68     		ldr	r2, [r3]
 952 00e8 FB68     		ldr	r3, [r7, #12]
 953 00ea 1344     		add	r3, r3, r2
 954 00ec 03F59E73 		add	r3, r3, #316
 955 00f0 0122     		movs	r2, #1
 956 00f2 1A70     		strb	r2, [r3]
 957 00f4 02E0     		b	.L55
 958              	.L60:
 244:..\..\..\lvgl\version_6.1.2\lvgl\src\lv_core/lv_refr.c ****             }
 959              		.loc 2 244 0
 960 00f6 00BF     		nop
 961 00f8 00E0     		b	.L55
 962              	.L61:
 249:..\..\..\lvgl\version_6.1.2\lvgl\src\lv_core/lv_refr.c ****             }
 963              		.loc 2 249 0
 964 00fa 00BF     		nop
 965              	.L55:
 241:..\..\..\lvgl\version_6.1.2\lvgl\src\lv_core/lv_refr.c ****             /*Handle only unjoined areas and ignore itself*/
 966              		.loc 2 241 0 discriminator 2
 967 00fc FB68     		ldr	r3, [r7, #12]
 968 00fe 0133     		adds	r3, r3, #1
 969 0100 FB60     		str	r3, [r7, #12]
 970              	.L52:
 241:..\..\..\lvgl\version_6.1.2\lvgl\src\lv_core/lv_refr.c ****             /*Handle only unjoined areas and ignore itself*/
 971              		.loc 2 241 0 is_stmt 0 discriminator 1
 972 0102 104B     		ldr	r3, .L62
 973 0104 1B68     		ldr	r3, [r3]
 974 0106 B3F85C31 		ldrh	r3, [r3, #348]	@ movhi
 975 010a C3F30903 		ubfx	r3, r3, #0, #10
 976 010e 9BB2     		uxth	r3, r3
 977 0110 1A46     		mov	r2, r3
 978 0112 FB68     		ldr	r3, [r7, #12]
 979 0114 9A42     		cmp	r2, r3
 980 0116 85D8     		bhi	.L57
 981 0118 00E0     		b	.L51
 982              	.L59:
 238:..\..\..\lvgl\version_6.1.2\lvgl\src\lv_core/lv_refr.c **** 
 983              		.loc 2 238 0 is_stmt 1
 984 011a 00BF     		nop
 985              	.L51:
 237:..\..\..\lvgl\version_6.1.2\lvgl\src\lv_core/lv_refr.c ****         if(disp_refr->inv_area_joined[join_in] != 0) continue;
 986              		.loc 2 237 0 discriminator 2
 987 011c BB68     		ldr	r3, [r7, #8]
 988 011e 0133     		adds	r3, r3, #1
ARM GAS  C:\Users\tmj32\AppData\Local\Temp\cc8pVFHq.s 			page 25


 989 0120 BB60     		str	r3, [r7, #8]
 990              	.L49:
 237:..\..\..\lvgl\version_6.1.2\lvgl\src\lv_core/lv_refr.c ****         if(disp_refr->inv_area_joined[join_in] != 0) continue;
 991              		.loc 2 237 0 is_stmt 0 discriminator 1
 992 0122 084B     		ldr	r3, .L62
 993 0124 1B68     		ldr	r3, [r3]
 994 0126 B3F85C31 		ldrh	r3, [r3, #348]	@ movhi
 995 012a C3F30903 		ubfx	r3, r3, #0, #10
 996 012e 9BB2     		uxth	r3, r3
 997 0130 1A46     		mov	r2, r3
 998 0132 BB68     		ldr	r3, [r7, #8]
 999 0134 9A42     		cmp	r2, r3
 1000 0136 3FF669AF 		bhi	.L58
 261:..\..\..\lvgl\version_6.1.2\lvgl\src\lv_core/lv_refr.c ****             }
 262:..\..\..\lvgl\version_6.1.2\lvgl\src\lv_core/lv_refr.c ****         }
 263:..\..\..\lvgl\version_6.1.2\lvgl\src\lv_core/lv_refr.c ****     }
 264:..\..\..\lvgl\version_6.1.2\lvgl\src\lv_core/lv_refr.c **** }
 1001              		.loc 2 264 0 is_stmt 1
 1002 013a 00BF     		nop
 1003 013c 1037     		adds	r7, r7, #16
 1004              		.cfi_def_cfa_offset 16
 1005 013e BD46     		mov	sp, r7
 1006              		.cfi_def_cfa_register 13
 1007              		@ sp needed
 1008 0140 B0BD     		pop	{r4, r5, r7, pc}
 1009              	.L63:
 1010 0142 00BF     		.align	2
 1011              	.L62:
 1012 0144 04000000 		.word	disp_refr
 1013              		.cfi_endproc
 1014              	.LFE41:
 1015              		.size	lv_refr_join_area, .-lv_refr_join_area
 1016              		.section	.text.lv_refr_areas,"ax",%progbits
 1017              		.align	2
 1018              		.thumb
 1019              		.thumb_func
 1020              		.type	lv_refr_areas, %function
 1021              	lv_refr_areas:
 1022              	.LFB42:
 265:..\..\..\lvgl\version_6.1.2\lvgl\src\lv_core/lv_refr.c **** 
 266:..\..\..\lvgl\version_6.1.2\lvgl\src\lv_core/lv_refr.c **** /**
 267:..\..\..\lvgl\version_6.1.2\lvgl\src\lv_core/lv_refr.c ****  * Refresh the joined areas
 268:..\..\..\lvgl\version_6.1.2\lvgl\src\lv_core/lv_refr.c ****  */
 269:..\..\..\lvgl\version_6.1.2\lvgl\src\lv_core/lv_refr.c **** static void lv_refr_areas(void)
 270:..\..\..\lvgl\version_6.1.2\lvgl\src\lv_core/lv_refr.c **** {
 1023              		.loc 2 270 0
 1024              		.cfi_startproc
 1025              		@ args = 0, pretend = 0, frame = 8
 1026              		@ frame_needed = 1, uses_anonymous_args = 0
 1027 0000 80B5     		push	{r7, lr}
 1028              		.cfi_def_cfa_offset 8
 1029              		.cfi_offset 7, -8
 1030              		.cfi_offset 14, -4
 1031 0002 82B0     		sub	sp, sp, #8
 1032              		.cfi_def_cfa_offset 16
 1033 0004 00AF     		add	r7, sp, #0
 1034              		.cfi_def_cfa_register 7
ARM GAS  C:\Users\tmj32\AppData\Local\Temp\cc8pVFHq.s 			page 26


 271:..\..\..\lvgl\version_6.1.2\lvgl\src\lv_core/lv_refr.c ****     px_num = 0;
 1035              		.loc 2 271 0
 1036 0006 204B     		ldr	r3, .L68
 1037 0008 0022     		movs	r2, #0
 1038 000a 1A60     		str	r2, [r3]
 272:..\..\..\lvgl\version_6.1.2\lvgl\src\lv_core/lv_refr.c ****     uint32_t i;
 273:..\..\..\lvgl\version_6.1.2\lvgl\src\lv_core/lv_refr.c **** 
 274:..\..\..\lvgl\version_6.1.2\lvgl\src\lv_core/lv_refr.c ****     for(i = 0; i < disp_refr->inv_p; i++) {
 1039              		.loc 2 274 0
 1040 000c 0023     		movs	r3, #0
 1041 000e 7B60     		str	r3, [r7, #4]
 1042 0010 2AE0     		b	.L65
 1043              	.L67:
 275:..\..\..\lvgl\version_6.1.2\lvgl\src\lv_core/lv_refr.c ****         /*Refresh the unjoined areas*/
 276:..\..\..\lvgl\version_6.1.2\lvgl\src\lv_core/lv_refr.c ****         if(disp_refr->inv_area_joined[i] == 0) {
 1044              		.loc 2 276 0
 1045 0012 1E4B     		ldr	r3, .L68+4
 1046 0014 1A68     		ldr	r2, [r3]
 1047 0016 7B68     		ldr	r3, [r7, #4]
 1048 0018 1344     		add	r3, r3, r2
 1049 001a 03F59E73 		add	r3, r3, #316
 1050 001e 1B78     		ldrb	r3, [r3]	@ zero_extendqisi2
 1051 0020 002B     		cmp	r3, #0
 1052 0022 1ED1     		bne	.L66
 277:..\..\..\lvgl\version_6.1.2\lvgl\src\lv_core/lv_refr.c **** 
 278:..\..\..\lvgl\version_6.1.2\lvgl\src\lv_core/lv_refr.c ****             lv_refr_area(&disp_refr->inv_areas[i]);
 1053              		.loc 2 278 0
 1054 0024 194B     		ldr	r3, .L68+4
 1055 0026 1A68     		ldr	r2, [r3]
 1056 0028 7B68     		ldr	r3, [r7, #4]
 1057 002a 0733     		adds	r3, r3, #7
 1058 002c DB00     		lsls	r3, r3, #3
 1059 002e 1344     		add	r3, r3, r2
 1060 0030 0433     		adds	r3, r3, #4
 1061 0032 1846     		mov	r0, r3
 1062 0034 FFF7FEFF 		bl	lv_refr_area
 279:..\..\..\lvgl\version_6.1.2\lvgl\src\lv_core/lv_refr.c **** 
 280:..\..\..\lvgl\version_6.1.2\lvgl\src\lv_core/lv_refr.c ****             if(disp_refr->driver.monitor_cb) px_num += lv_area_get_size(&disp_refr->inv_areas[i]);
 1063              		.loc 2 280 0
 1064 0038 144B     		ldr	r3, .L68+4
 1065 003a 1B68     		ldr	r3, [r3]
 1066 003c 9B69     		ldr	r3, [r3, #24]
 1067 003e 002B     		cmp	r3, #0
 1068 0040 0FD0     		beq	.L66
 1069              		.loc 2 280 0 is_stmt 0 discriminator 1
 1070 0042 124B     		ldr	r3, .L68+4
 1071 0044 1A68     		ldr	r2, [r3]
 1072 0046 7B68     		ldr	r3, [r7, #4]
 1073 0048 0733     		adds	r3, r3, #7
 1074 004a DB00     		lsls	r3, r3, #3
 1075 004c 1344     		add	r3, r3, r2
 1076 004e 0433     		adds	r3, r3, #4
 1077 0050 1846     		mov	r0, r3
 1078 0052 FFF7FEFF 		bl	lv_area_get_size
 1079 0056 0246     		mov	r2, r0
 1080 0058 0B4B     		ldr	r3, .L68
 1081 005a 1B68     		ldr	r3, [r3]
ARM GAS  C:\Users\tmj32\AppData\Local\Temp\cc8pVFHq.s 			page 27


 1082 005c 1344     		add	r3, r3, r2
 1083 005e 0A4A     		ldr	r2, .L68
 1084 0060 1360     		str	r3, [r2]
 1085              	.L66:
 274:..\..\..\lvgl\version_6.1.2\lvgl\src\lv_core/lv_refr.c ****         /*Refresh the unjoined areas*/
 1086              		.loc 2 274 0 is_stmt 1 discriminator 2
 1087 0062 7B68     		ldr	r3, [r7, #4]
 1088 0064 0133     		adds	r3, r3, #1
 1089 0066 7B60     		str	r3, [r7, #4]
 1090              	.L65:
 274:..\..\..\lvgl\version_6.1.2\lvgl\src\lv_core/lv_refr.c ****         /*Refresh the unjoined areas*/
 1091              		.loc 2 274 0 is_stmt 0 discriminator 1
 1092 0068 084B     		ldr	r3, .L68+4
 1093 006a 1B68     		ldr	r3, [r3]
 1094 006c B3F85C31 		ldrh	r3, [r3, #348]	@ movhi
 1095 0070 C3F30903 		ubfx	r3, r3, #0, #10
 1096 0074 9BB2     		uxth	r3, r3
 1097 0076 1A46     		mov	r2, r3
 1098 0078 7B68     		ldr	r3, [r7, #4]
 1099 007a 9A42     		cmp	r2, r3
 1100 007c C9D8     		bhi	.L67
 281:..\..\..\lvgl\version_6.1.2\lvgl\src\lv_core/lv_refr.c ****         }
 282:..\..\..\lvgl\version_6.1.2\lvgl\src\lv_core/lv_refr.c ****     }
 283:..\..\..\lvgl\version_6.1.2\lvgl\src\lv_core/lv_refr.c **** }
 1101              		.loc 2 283 0 is_stmt 1
 1102 007e 00BF     		nop
 1103 0080 0837     		adds	r7, r7, #8
 1104              		.cfi_def_cfa_offset 8
 1105 0082 BD46     		mov	sp, r7
 1106              		.cfi_def_cfa_register 13
 1107              		@ sp needed
 1108 0084 80BD     		pop	{r7, pc}
 1109              	.L69:
 1110 0086 00BF     		.align	2
 1111              	.L68:
 1112 0088 00000000 		.word	px_num
 1113 008c 04000000 		.word	disp_refr
 1114              		.cfi_endproc
 1115              	.LFE42:
 1116              		.size	lv_refr_areas, .-lv_refr_areas
 1117              		.section	.text.lv_refr_area,"ax",%progbits
 1118              		.align	2
 1119              		.thumb
 1120              		.thumb_func
 1121              		.type	lv_refr_area, %function
 1122              	lv_refr_area:
 1123              	.LFB43:
 284:..\..\..\lvgl\version_6.1.2\lvgl\src\lv_core/lv_refr.c **** 
 285:..\..\..\lvgl\version_6.1.2\lvgl\src\lv_core/lv_refr.c **** /**
 286:..\..\..\lvgl\version_6.1.2\lvgl\src\lv_core/lv_refr.c ****  * Refresh an area if there is Virtual Display Buffer
 287:..\..\..\lvgl\version_6.1.2\lvgl\src\lv_core/lv_refr.c ****  * @param area_p  pointer to an area to refresh
 288:..\..\..\lvgl\version_6.1.2\lvgl\src\lv_core/lv_refr.c ****  */
 289:..\..\..\lvgl\version_6.1.2\lvgl\src\lv_core/lv_refr.c **** static void lv_refr_area(const lv_area_t * area_p)
 290:..\..\..\lvgl\version_6.1.2\lvgl\src\lv_core/lv_refr.c **** {
 1124              		.loc 2 290 0
 1125              		.cfi_startproc
 1126              		@ args = 0, pretend = 0, frame = 48
ARM GAS  C:\Users\tmj32\AppData\Local\Temp\cc8pVFHq.s 			page 28


 1127              		@ frame_needed = 1, uses_anonymous_args = 0
 1128 0000 90B5     		push	{r4, r7, lr}
 1129              		.cfi_def_cfa_offset 12
 1130              		.cfi_offset 4, -12
 1131              		.cfi_offset 7, -8
 1132              		.cfi_offset 14, -4
 1133 0002 8DB0     		sub	sp, sp, #52
 1134              		.cfi_def_cfa_offset 64
 1135 0004 00AF     		add	r7, sp, #0
 1136              		.cfi_def_cfa_register 7
 1137 0006 7860     		str	r0, [r7, #4]
 291:..\..\..\lvgl\version_6.1.2\lvgl\src\lv_core/lv_refr.c ****     /*True double buffering: there are two screen sized buffers. Just redraw directly into a
 292:..\..\..\lvgl\version_6.1.2\lvgl\src\lv_core/lv_refr.c ****      * buffer*/
 293:..\..\..\lvgl\version_6.1.2\lvgl\src\lv_core/lv_refr.c ****     if(lv_disp_is_true_double_buf(disp_refr)) {
 1138              		.loc 2 293 0
 1139 0008 7F4B     		ldr	r3, .L86
 1140 000a 1B68     		ldr	r3, [r3]
 1141 000c 1846     		mov	r0, r3
 1142 000e FFF7FEFF 		bl	lv_disp_is_true_double_buf
 1143 0012 0346     		mov	r3, r0
 1144 0014 002B     		cmp	r3, #0
 1145 0016 27D0     		beq	.L71
 1146              	.LBB7:
 294:..\..\..\lvgl\version_6.1.2\lvgl\src\lv_core/lv_refr.c ****         lv_disp_buf_t * vdb = lv_disp_get_buf(disp_refr);
 1147              		.loc 2 294 0
 1148 0018 7B4B     		ldr	r3, .L86
 1149 001a 1B68     		ldr	r3, [r3]
 1150 001c 1846     		mov	r0, r3
 1151 001e FFF7FEFF 		bl	lv_disp_get_buf
 1152 0022 3862     		str	r0, [r7, #32]
 295:..\..\..\lvgl\version_6.1.2\lvgl\src\lv_core/lv_refr.c ****         vdb->area.x1        = 0;
 1153              		.loc 2 295 0
 1154 0024 3B6A     		ldr	r3, [r7, #32]
 1155 0026 0022     		movs	r2, #0
 1156 0028 1A82     		strh	r2, [r3, #16]	@ movhi
 296:..\..\..\lvgl\version_6.1.2\lvgl\src\lv_core/lv_refr.c ****         vdb->area.x2        = lv_disp_get_hor_res(disp_refr) - 1;
 1157              		.loc 2 296 0
 1158 002a 774B     		ldr	r3, .L86
 1159 002c 1B68     		ldr	r3, [r3]
 1160 002e 1846     		mov	r0, r3
 1161 0030 FFF7FEFF 		bl	lv_disp_get_hor_res
 1162 0034 0346     		mov	r3, r0
 1163 0036 9BB2     		uxth	r3, r3
 1164 0038 013B     		subs	r3, r3, #1
 1165 003a 9BB2     		uxth	r3, r3
 1166 003c 1AB2     		sxth	r2, r3
 1167 003e 3B6A     		ldr	r3, [r7, #32]
 1168 0040 9A82     		strh	r2, [r3, #20]	@ movhi
 297:..\..\..\lvgl\version_6.1.2\lvgl\src\lv_core/lv_refr.c ****         vdb->area.y1        = 0;
 1169              		.loc 2 297 0
 1170 0042 3B6A     		ldr	r3, [r7, #32]
 1171 0044 0022     		movs	r2, #0
 1172 0046 5A82     		strh	r2, [r3, #18]	@ movhi
 298:..\..\..\lvgl\version_6.1.2\lvgl\src\lv_core/lv_refr.c ****         vdb->area.y2        = lv_disp_get_ver_res(disp_refr) - 1;
 1173              		.loc 2 298 0
 1174 0048 6F4B     		ldr	r3, .L86
 1175 004a 1B68     		ldr	r3, [r3]
ARM GAS  C:\Users\tmj32\AppData\Local\Temp\cc8pVFHq.s 			page 29


 1176 004c 1846     		mov	r0, r3
 1177 004e FFF7FEFF 		bl	lv_disp_get_ver_res
 1178 0052 0346     		mov	r3, r0
 1179 0054 9BB2     		uxth	r3, r3
 1180 0056 013B     		subs	r3, r3, #1
 1181 0058 9BB2     		uxth	r3, r3
 1182 005a 1AB2     		sxth	r2, r3
 1183 005c 3B6A     		ldr	r3, [r7, #32]
 1184 005e DA82     		strh	r2, [r3, #22]	@ movhi
 299:..\..\..\lvgl\version_6.1.2\lvgl\src\lv_core/lv_refr.c ****         lv_refr_area_part(area_p);
 1185              		.loc 2 299 0
 1186 0060 7868     		ldr	r0, [r7, #4]
 1187 0062 FFF7FEFF 		bl	lv_refr_area_part
 1188              	.LBE7:
 1189 0066 CBE0     		b	.L70
 1190              	.L71:
 1191              	.LBB8:
 300:..\..\..\lvgl\version_6.1.2\lvgl\src\lv_core/lv_refr.c ****     }
 301:..\..\..\lvgl\version_6.1.2\lvgl\src\lv_core/lv_refr.c ****     /*The buffer is smaller: refresh the area in parts*/
 302:..\..\..\lvgl\version_6.1.2\lvgl\src\lv_core/lv_refr.c ****     else {
 303:..\..\..\lvgl\version_6.1.2\lvgl\src\lv_core/lv_refr.c ****         lv_disp_buf_t * vdb = lv_disp_get_buf(disp_refr);
 1192              		.loc 2 303 0
 1193 0068 674B     		ldr	r3, .L86
 1194 006a 1B68     		ldr	r3, [r3]
 1195 006c 1846     		mov	r0, r3
 1196 006e FFF7FEFF 		bl	lv_disp_get_buf
 1197 0072 F861     		str	r0, [r7, #28]
 304:..\..\..\lvgl\version_6.1.2\lvgl\src\lv_core/lv_refr.c ****         /*Calculate the max row num*/
 305:..\..\..\lvgl\version_6.1.2\lvgl\src\lv_core/lv_refr.c ****         lv_coord_t w = lv_area_get_width(area_p);
 1198              		.loc 2 305 0
 1199 0074 7868     		ldr	r0, [r7, #4]
 1200 0076 FFF7FEFF 		bl	lv_area_get_width
 1201 007a 0346     		mov	r3, r0
 1202 007c 7B83     		strh	r3, [r7, #26]	@ movhi
 306:..\..\..\lvgl\version_6.1.2\lvgl\src\lv_core/lv_refr.c ****         lv_coord_t h = lv_area_get_height(area_p);
 1203              		.loc 2 306 0
 1204 007e 7868     		ldr	r0, [r7, #4]
 1205 0080 FFF7FEFF 		bl	lv_area_get_height
 1206 0084 0346     		mov	r3, r0
 1207 0086 3B83     		strh	r3, [r7, #24]	@ movhi
 307:..\..\..\lvgl\version_6.1.2\lvgl\src\lv_core/lv_refr.c ****         lv_coord_t y2 =
 308:..\..\..\lvgl\version_6.1.2\lvgl\src\lv_core/lv_refr.c ****             area_p->y2 >= lv_disp_get_ver_res(disp_refr) ? y2 = lv_disp_get_ver_res(disp_refr) - 1 
 1208              		.loc 2 308 0
 1209 0088 7B68     		ldr	r3, [r7, #4]
 1210 008a B3F90640 		ldrsh	r4, [r3, #6]
 1211 008e 5E4B     		ldr	r3, .L86
 1212 0090 1B68     		ldr	r3, [r3]
 1213 0092 1846     		mov	r0, r3
 1214 0094 FFF7FEFF 		bl	lv_disp_get_ver_res
 1215 0098 0346     		mov	r3, r0
 307:..\..\..\lvgl\version_6.1.2\lvgl\src\lv_core/lv_refr.c ****         lv_coord_t y2 =
 1216              		.loc 2 307 0
 1217 009a 9C42     		cmp	r4, r3
 1218 009c 0CDB     		blt	.L73
 1219              		.loc 2 308 0 discriminator 1
 1220 009e 5A4B     		ldr	r3, .L86
 1221 00a0 1B68     		ldr	r3, [r3]
ARM GAS  C:\Users\tmj32\AppData\Local\Temp\cc8pVFHq.s 			page 30


 1222 00a2 1846     		mov	r0, r3
 1223 00a4 FFF7FEFF 		bl	lv_disp_get_ver_res
 1224 00a8 0346     		mov	r3, r0
 1225 00aa 9BB2     		uxth	r3, r3
 1226 00ac 013B     		subs	r3, r3, #1
 1227 00ae 9BB2     		uxth	r3, r3
 1228 00b0 FB82     		strh	r3, [r7, #22]	@ movhi
 307:..\..\..\lvgl\version_6.1.2\lvgl\src\lv_core/lv_refr.c ****         lv_coord_t y2 =
 1229              		.loc 2 307 0 discriminator 1
 1230 00b2 B7F91630 		ldrsh	r3, [r7, #22]
 1231 00b6 02E0     		b	.L74
 1232              	.L73:
 307:..\..\..\lvgl\version_6.1.2\lvgl\src\lv_core/lv_refr.c ****         lv_coord_t y2 =
 1233              		.loc 2 307 0 is_stmt 0 discriminator 2
 1234 00b8 7B68     		ldr	r3, [r7, #4]
 1235 00ba B3F90630 		ldrsh	r3, [r3, #6]
 1236              	.L74:
 307:..\..\..\lvgl\version_6.1.2\lvgl\src\lv_core/lv_refr.c ****         lv_coord_t y2 =
 1237              		.loc 2 307 0 discriminator 4
 1238 00be FB82     		strh	r3, [r7, #22]	@ movhi
 309:..\..\..\lvgl\version_6.1.2\lvgl\src\lv_core/lv_refr.c **** 
 310:..\..\..\lvgl\version_6.1.2\lvgl\src\lv_core/lv_refr.c ****         int32_t max_row = (uint32_t)vdb->size / w;
 1239              		.loc 2 310 0 is_stmt 1 discriminator 4
 1240 00c0 FB69     		ldr	r3, [r7, #28]
 1241 00c2 DA68     		ldr	r2, [r3, #12]
 1242 00c4 B7F91A30 		ldrsh	r3, [r7, #26]
 1243 00c8 B2FBF3F3 		udiv	r3, r2, r3
 1244 00cc FB62     		str	r3, [r7, #44]
 311:..\..\..\lvgl\version_6.1.2\lvgl\src\lv_core/lv_refr.c **** 
 312:..\..\..\lvgl\version_6.1.2\lvgl\src\lv_core/lv_refr.c ****         if(max_row > h) max_row = h;
 1245              		.loc 2 312 0 discriminator 4
 1246 00ce B7F91820 		ldrsh	r2, [r7, #24]
 1247 00d2 FB6A     		ldr	r3, [r7, #44]
 1248 00d4 9A42     		cmp	r2, r3
 1249 00d6 02DA     		bge	.L75
 1250              		.loc 2 312 0 is_stmt 0 discriminator 1
 1251 00d8 B7F91830 		ldrsh	r3, [r7, #24]
 1252 00dc FB62     		str	r3, [r7, #44]
 1253              	.L75:
 313:..\..\..\lvgl\version_6.1.2\lvgl\src\lv_core/lv_refr.c **** 
 314:..\..\..\lvgl\version_6.1.2\lvgl\src\lv_core/lv_refr.c ****         /*Round down the lines of VDB if rounding is added*/
 315:..\..\..\lvgl\version_6.1.2\lvgl\src\lv_core/lv_refr.c ****         if(disp_refr->driver.rounder_cb) {
 1254              		.loc 2 315 0 is_stmt 1
 1255 00de 4A4B     		ldr	r3, .L86
 1256 00e0 1B68     		ldr	r3, [r3]
 1257 00e2 1B69     		ldr	r3, [r3, #16]
 1258 00e4 002B     		cmp	r3, #0
 1259 00e6 34D0     		beq	.L76
 1260              	.LBB9:
 316:..\..\..\lvgl\version_6.1.2\lvgl\src\lv_core/lv_refr.c ****             lv_area_t tmp;
 317:..\..\..\lvgl\version_6.1.2\lvgl\src\lv_core/lv_refr.c ****             tmp.x1 = 0;
 1261              		.loc 2 317 0
 1262 00e8 0023     		movs	r3, #0
 1263 00ea BB81     		strh	r3, [r7, #12]	@ movhi
 318:..\..\..\lvgl\version_6.1.2\lvgl\src\lv_core/lv_refr.c ****             tmp.x2 = 0;
 1264              		.loc 2 318 0
 1265 00ec 0023     		movs	r3, #0
ARM GAS  C:\Users\tmj32\AppData\Local\Temp\cc8pVFHq.s 			page 31


 1266 00ee 3B82     		strh	r3, [r7, #16]	@ movhi
 319:..\..\..\lvgl\version_6.1.2\lvgl\src\lv_core/lv_refr.c ****             tmp.y1 = 0;
 1267              		.loc 2 319 0
 1268 00f0 0023     		movs	r3, #0
 1269 00f2 FB81     		strh	r3, [r7, #14]	@ movhi
 320:..\..\..\lvgl\version_6.1.2\lvgl\src\lv_core/lv_refr.c **** 
 321:..\..\..\lvgl\version_6.1.2\lvgl\src\lv_core/lv_refr.c ****             lv_coord_t h_tmp = max_row;
 1270              		.loc 2 321 0
 1271 00f4 FB6A     		ldr	r3, [r7, #44]
 1272 00f6 7B85     		strh	r3, [r7, #42]	@ movhi
 1273              	.L79:
 322:..\..\..\lvgl\version_6.1.2\lvgl\src\lv_core/lv_refr.c ****             do {
 323:..\..\..\lvgl\version_6.1.2\lvgl\src\lv_core/lv_refr.c ****                 tmp.y2 = h_tmp - 1;
 1274              		.loc 2 323 0
 1275 00f8 7B8D     		ldrh	r3, [r7, #42]
 1276 00fa 013B     		subs	r3, r3, #1
 1277 00fc 9BB2     		uxth	r3, r3
 1278 00fe 1BB2     		sxth	r3, r3
 1279 0100 7B82     		strh	r3, [r7, #18]	@ movhi
 324:..\..\..\lvgl\version_6.1.2\lvgl\src\lv_core/lv_refr.c ****                 disp_refr->driver.rounder_cb(&disp_refr->driver, &tmp);
 1280              		.loc 2 324 0
 1281 0102 414B     		ldr	r3, .L86
 1282 0104 1B68     		ldr	r3, [r3]
 1283 0106 1B69     		ldr	r3, [r3, #16]
 1284 0108 3F4A     		ldr	r2, .L86
 1285 010a 1268     		ldr	r2, [r2]
 1286 010c 1046     		mov	r0, r2
 1287 010e 07F10C02 		add	r2, r7, #12
 1288 0112 1146     		mov	r1, r2
 1289 0114 9847     		blx	r3
 325:..\..\..\lvgl\version_6.1.2\lvgl\src\lv_core/lv_refr.c **** 
 326:..\..\..\lvgl\version_6.1.2\lvgl\src\lv_core/lv_refr.c ****                 /*If this height fits into `max_row` then fine*/
 327:..\..\..\lvgl\version_6.1.2\lvgl\src\lv_core/lv_refr.c ****                 if(lv_area_get_height(&tmp) <= max_row) break;
 1290              		.loc 2 327 0
 1291 0116 07F10C03 		add	r3, r7, #12
 1292 011a 1846     		mov	r0, r3
 1293 011c FFF7FEFF 		bl	lv_area_get_height
 1294 0120 0346     		mov	r3, r0
 1295 0122 1A46     		mov	r2, r3
 1296 0124 FB6A     		ldr	r3, [r7, #44]
 1297 0126 9A42     		cmp	r2, r3
 1298 0128 0ADD     		ble	.L84
 328:..\..\..\lvgl\version_6.1.2\lvgl\src\lv_core/lv_refr.c **** 
 329:..\..\..\lvgl\version_6.1.2\lvgl\src\lv_core/lv_refr.c ****                 /*Decrement the height of the area until it fits into `max_row` after rounding*/
 330:..\..\..\lvgl\version_6.1.2\lvgl\src\lv_core/lv_refr.c ****                 h_tmp--;
 1299              		.loc 2 330 0
 1300 012a B7F92A30 		ldrsh	r3, [r7, #42]
 1301 012e 9BB2     		uxth	r3, r3
 1302 0130 013B     		subs	r3, r3, #1
 1303 0132 9BB2     		uxth	r3, r3
 1304 0134 7B85     		strh	r3, [r7, #42]	@ movhi
 331:..\..\..\lvgl\version_6.1.2\lvgl\src\lv_core/lv_refr.c ****             } while(h_tmp > 0);
 1305              		.loc 2 331 0
 1306 0136 B7F92A30 		ldrsh	r3, [r7, #42]
 1307 013a 002B     		cmp	r3, #0
 1308 013c DCDC     		bgt	.L79
 1309 013e 00E0     		b	.L78
ARM GAS  C:\Users\tmj32\AppData\Local\Temp\cc8pVFHq.s 			page 32


 1310              	.L84:
 327:..\..\..\lvgl\version_6.1.2\lvgl\src\lv_core/lv_refr.c **** 
 1311              		.loc 2 327 0
 1312 0140 00BF     		nop
 1313              	.L78:
 332:..\..\..\lvgl\version_6.1.2\lvgl\src\lv_core/lv_refr.c **** 
 333:..\..\..\lvgl\version_6.1.2\lvgl\src\lv_core/lv_refr.c ****             if(h_tmp <= 0) {
 1314              		.loc 2 333 0
 1315 0142 B7F92A30 		ldrsh	r3, [r7, #42]
 1316 0146 002B     		cmp	r3, #0
 1317 0148 59DD     		ble	.L85
 334:..\..\..\lvgl\version_6.1.2\lvgl\src\lv_core/lv_refr.c ****                 LV_LOG_WARN("Can't set VDB height using the round function. (Wrong round_cb or to "
 335:..\..\..\lvgl\version_6.1.2\lvgl\src\lv_core/lv_refr.c ****                             "small VDB)");
 336:..\..\..\lvgl\version_6.1.2\lvgl\src\lv_core/lv_refr.c ****                 return;
 337:..\..\..\lvgl\version_6.1.2\lvgl\src\lv_core/lv_refr.c ****             } else {
 338:..\..\..\lvgl\version_6.1.2\lvgl\src\lv_core/lv_refr.c ****                 max_row = tmp.y2 + 1;
 1318              		.loc 2 338 0
 1319 014a B7F91230 		ldrsh	r3, [r7, #18]
 1320 014e 0133     		adds	r3, r3, #1
 1321 0150 FB62     		str	r3, [r7, #44]
 1322              	.L76:
 1323              	.LBE9:
 339:..\..\..\lvgl\version_6.1.2\lvgl\src\lv_core/lv_refr.c ****             }
 340:..\..\..\lvgl\version_6.1.2\lvgl\src\lv_core/lv_refr.c ****         }
 341:..\..\..\lvgl\version_6.1.2\lvgl\src\lv_core/lv_refr.c **** 
 342:..\..\..\lvgl\version_6.1.2\lvgl\src\lv_core/lv_refr.c ****         /*Always use the full row*/
 343:..\..\..\lvgl\version_6.1.2\lvgl\src\lv_core/lv_refr.c ****         lv_coord_t row;
 344:..\..\..\lvgl\version_6.1.2\lvgl\src\lv_core/lv_refr.c ****         lv_coord_t row_last = 0;
 1324              		.loc 2 344 0
 1325 0152 0023     		movs	r3, #0
 1326 0154 FB84     		strh	r3, [r7, #38]	@ movhi
 345:..\..\..\lvgl\version_6.1.2\lvgl\src\lv_core/lv_refr.c ****         for(row = area_p->y1; row + max_row - 1 <= y2; row += max_row) {
 1327              		.loc 2 345 0
 1328 0156 7B68     		ldr	r3, [r7, #4]
 1329 0158 5B88     		ldrh	r3, [r3, #2]	@ movhi
 1330 015a 3B85     		strh	r3, [r7, #40]	@ movhi
 1331 015c 2CE0     		b	.L81
 1332              	.L83:
 346:..\..\..\lvgl\version_6.1.2\lvgl\src\lv_core/lv_refr.c ****             /*Calc. the next y coordinates of VDB*/
 347:..\..\..\lvgl\version_6.1.2\lvgl\src\lv_core/lv_refr.c ****             vdb->area.x1 = area_p->x1;
 1333              		.loc 2 347 0
 1334 015e 7B68     		ldr	r3, [r7, #4]
 1335 0160 B3F90020 		ldrsh	r2, [r3]
 1336 0164 FB69     		ldr	r3, [r7, #28]
 1337 0166 1A82     		strh	r2, [r3, #16]	@ movhi
 348:..\..\..\lvgl\version_6.1.2\lvgl\src\lv_core/lv_refr.c ****             vdb->area.x2 = area_p->x2;
 1338              		.loc 2 348 0
 1339 0168 7B68     		ldr	r3, [r7, #4]
 1340 016a B3F90420 		ldrsh	r2, [r3, #4]
 1341 016e FB69     		ldr	r3, [r7, #28]
 1342 0170 9A82     		strh	r2, [r3, #20]	@ movhi
 349:..\..\..\lvgl\version_6.1.2\lvgl\src\lv_core/lv_refr.c ****             vdb->area.y1 = row;
 1343              		.loc 2 349 0
 1344 0172 FB69     		ldr	r3, [r7, #28]
 1345 0174 3A8D     		ldrh	r2, [r7, #40]	@ movhi
 1346 0176 5A82     		strh	r2, [r3, #18]	@ movhi
 350:..\..\..\lvgl\version_6.1.2\lvgl\src\lv_core/lv_refr.c ****             vdb->area.y2 = row + max_row - 1;
ARM GAS  C:\Users\tmj32\AppData\Local\Temp\cc8pVFHq.s 			page 33


 1347              		.loc 2 350 0
 1348 0178 FB6A     		ldr	r3, [r7, #44]
 1349 017a 9AB2     		uxth	r2, r3
 1350 017c 3B8D     		ldrh	r3, [r7, #40]
 1351 017e 1344     		add	r3, r3, r2
 1352 0180 9BB2     		uxth	r3, r3
 1353 0182 013B     		subs	r3, r3, #1
 1354 0184 9BB2     		uxth	r3, r3
 1355 0186 1AB2     		sxth	r2, r3
 1356 0188 FB69     		ldr	r3, [r7, #28]
 1357 018a DA82     		strh	r2, [r3, #22]	@ movhi
 351:..\..\..\lvgl\version_6.1.2\lvgl\src\lv_core/lv_refr.c ****             if(vdb->area.y2 > y2) vdb->area.y2 = y2;
 1358              		.loc 2 351 0
 1359 018c FB69     		ldr	r3, [r7, #28]
 1360 018e B3F91630 		ldrsh	r3, [r3, #22]
 1361 0192 B7F91620 		ldrsh	r2, [r7, #22]
 1362 0196 9A42     		cmp	r2, r3
 1363 0198 02DA     		bge	.L82
 1364              		.loc 2 351 0 is_stmt 0 discriminator 1
 1365 019a FB69     		ldr	r3, [r7, #28]
 1366 019c FA8A     		ldrh	r2, [r7, #22]	@ movhi
 1367 019e DA82     		strh	r2, [r3, #22]	@ movhi
 1368              	.L82:
 352:..\..\..\lvgl\version_6.1.2\lvgl\src\lv_core/lv_refr.c ****             row_last = vdb->area.y2;
 1369              		.loc 2 352 0 is_stmt 1 discriminator 2
 1370 01a0 FB69     		ldr	r3, [r7, #28]
 1371 01a2 DB8A     		ldrh	r3, [r3, #22]	@ movhi
 1372 01a4 FB84     		strh	r3, [r7, #38]	@ movhi
 353:..\..\..\lvgl\version_6.1.2\lvgl\src\lv_core/lv_refr.c ****             lv_refr_area_part(area_p);
 1373              		.loc 2 353 0 discriminator 2
 1374 01a6 7868     		ldr	r0, [r7, #4]
 1375 01a8 FFF7FEFF 		bl	lv_refr_area_part
 345:..\..\..\lvgl\version_6.1.2\lvgl\src\lv_core/lv_refr.c ****             /*Calc. the next y coordinates of VDB*/
 1376              		.loc 2 345 0 discriminator 2
 1377 01ac FB6A     		ldr	r3, [r7, #44]
 1378 01ae 9AB2     		uxth	r2, r3
 1379 01b0 3B8D     		ldrh	r3, [r7, #40]
 1380 01b2 1344     		add	r3, r3, r2
 1381 01b4 9BB2     		uxth	r3, r3
 1382 01b6 3B85     		strh	r3, [r7, #40]	@ movhi
 1383              	.L81:
 345:..\..\..\lvgl\version_6.1.2\lvgl\src\lv_core/lv_refr.c ****             /*Calc. the next y coordinates of VDB*/
 1384              		.loc 2 345 0 is_stmt 0 discriminator 1
 1385 01b8 B7F92820 		ldrsh	r2, [r7, #40]
 1386 01bc FB6A     		ldr	r3, [r7, #44]
 1387 01be 1344     		add	r3, r3, r2
 1388 01c0 5A1E     		subs	r2, r3, #1
 1389 01c2 B7F91630 		ldrsh	r3, [r7, #22]
 1390 01c6 9A42     		cmp	r2, r3
 1391 01c8 C9DD     		ble	.L83
 354:..\..\..\lvgl\version_6.1.2\lvgl\src\lv_core/lv_refr.c ****         }
 355:..\..\..\lvgl\version_6.1.2\lvgl\src\lv_core/lv_refr.c **** 
 356:..\..\..\lvgl\version_6.1.2\lvgl\src\lv_core/lv_refr.c ****         /*If the last y coordinates are not handled yet ...*/
 357:..\..\..\lvgl\version_6.1.2\lvgl\src\lv_core/lv_refr.c ****         if(y2 != row_last) {
 1392              		.loc 2 357 0 is_stmt 1
 1393 01ca B7F91620 		ldrsh	r2, [r7, #22]
 1394 01ce B7F92630 		ldrsh	r3, [r7, #38]
ARM GAS  C:\Users\tmj32\AppData\Local\Temp\cc8pVFHq.s 			page 34


 1395 01d2 9A42     		cmp	r2, r3
 1396 01d4 14D0     		beq	.L70
 358:..\..\..\lvgl\version_6.1.2\lvgl\src\lv_core/lv_refr.c ****             /*Calc. the next y coordinates of VDB*/
 359:..\..\..\lvgl\version_6.1.2\lvgl\src\lv_core/lv_refr.c ****             vdb->area.x1 = area_p->x1;
 1397              		.loc 2 359 0
 1398 01d6 7B68     		ldr	r3, [r7, #4]
 1399 01d8 B3F90020 		ldrsh	r2, [r3]
 1400 01dc FB69     		ldr	r3, [r7, #28]
 1401 01de 1A82     		strh	r2, [r3, #16]	@ movhi
 360:..\..\..\lvgl\version_6.1.2\lvgl\src\lv_core/lv_refr.c ****             vdb->area.x2 = area_p->x2;
 1402              		.loc 2 360 0
 1403 01e0 7B68     		ldr	r3, [r7, #4]
 1404 01e2 B3F90420 		ldrsh	r2, [r3, #4]
 1405 01e6 FB69     		ldr	r3, [r7, #28]
 1406 01e8 9A82     		strh	r2, [r3, #20]	@ movhi
 361:..\..\..\lvgl\version_6.1.2\lvgl\src\lv_core/lv_refr.c ****             vdb->area.y1 = row;
 1407              		.loc 2 361 0
 1408 01ea FB69     		ldr	r3, [r7, #28]
 1409 01ec 3A8D     		ldrh	r2, [r7, #40]	@ movhi
 1410 01ee 5A82     		strh	r2, [r3, #18]	@ movhi
 362:..\..\..\lvgl\version_6.1.2\lvgl\src\lv_core/lv_refr.c ****             vdb->area.y2 = y2;
 1411              		.loc 2 362 0
 1412 01f0 FB69     		ldr	r3, [r7, #28]
 1413 01f2 FA8A     		ldrh	r2, [r7, #22]	@ movhi
 1414 01f4 DA82     		strh	r2, [r3, #22]	@ movhi
 363:..\..\..\lvgl\version_6.1.2\lvgl\src\lv_core/lv_refr.c **** 
 364:..\..\..\lvgl\version_6.1.2\lvgl\src\lv_core/lv_refr.c ****             /*Refresh this part too*/
 365:..\..\..\lvgl\version_6.1.2\lvgl\src\lv_core/lv_refr.c ****             lv_refr_area_part(area_p);
 1415              		.loc 2 365 0
 1416 01f6 7868     		ldr	r0, [r7, #4]
 1417 01f8 FFF7FEFF 		bl	lv_refr_area_part
 1418 01fc 00E0     		b	.L70
 1419              	.L85:
 1420              	.LBB10:
 336:..\..\..\lvgl\version_6.1.2\lvgl\src\lv_core/lv_refr.c ****             } else {
 1421              		.loc 2 336 0
 1422 01fe 00BF     		nop
 1423              	.L70:
 1424              	.LBE10:
 1425              	.LBE8:
 366:..\..\..\lvgl\version_6.1.2\lvgl\src\lv_core/lv_refr.c ****         }
 367:..\..\..\lvgl\version_6.1.2\lvgl\src\lv_core/lv_refr.c ****     }
 368:..\..\..\lvgl\version_6.1.2\lvgl\src\lv_core/lv_refr.c **** }
 1426              		.loc 2 368 0
 1427 0200 3437     		adds	r7, r7, #52
 1428              		.cfi_def_cfa_offset 12
 1429 0202 BD46     		mov	sp, r7
 1430              		.cfi_def_cfa_register 13
 1431              		@ sp needed
 1432 0204 90BD     		pop	{r4, r7, pc}
 1433              	.L87:
 1434 0206 00BF     		.align	2
 1435              	.L86:
 1436 0208 04000000 		.word	disp_refr
 1437              		.cfi_endproc
 1438              	.LFE43:
 1439              		.size	lv_refr_area, .-lv_refr_area
ARM GAS  C:\Users\tmj32\AppData\Local\Temp\cc8pVFHq.s 			page 35


 1440              		.section	.text.lv_refr_area_part,"ax",%progbits
 1441              		.align	2
 1442              		.thumb
 1443              		.thumb_func
 1444              		.type	lv_refr_area_part, %function
 1445              	lv_refr_area_part:
 1446              	.LFB44:
 369:..\..\..\lvgl\version_6.1.2\lvgl\src\lv_core/lv_refr.c **** 
 370:..\..\..\lvgl\version_6.1.2\lvgl\src\lv_core/lv_refr.c **** /**
 371:..\..\..\lvgl\version_6.1.2\lvgl\src\lv_core/lv_refr.c ****  * Refresh a part of an area which is on the actual Virtual Display Buffer
 372:..\..\..\lvgl\version_6.1.2\lvgl\src\lv_core/lv_refr.c ****  * @param area_p pointer to an area to refresh
 373:..\..\..\lvgl\version_6.1.2\lvgl\src\lv_core/lv_refr.c ****  */
 374:..\..\..\lvgl\version_6.1.2\lvgl\src\lv_core/lv_refr.c **** static void lv_refr_area_part(const lv_area_t * area_p)
 375:..\..\..\lvgl\version_6.1.2\lvgl\src\lv_core/lv_refr.c **** {
 1447              		.loc 2 375 0
 1448              		.cfi_startproc
 1449              		@ args = 0, pretend = 0, frame = 24
 1450              		@ frame_needed = 1, uses_anonymous_args = 0
 1451 0000 80B5     		push	{r7, lr}
 1452              		.cfi_def_cfa_offset 8
 1453              		.cfi_offset 7, -8
 1454              		.cfi_offset 14, -4
 1455 0002 86B0     		sub	sp, sp, #24
 1456              		.cfi_def_cfa_offset 32
 1457 0004 00AF     		add	r7, sp, #0
 1458              		.cfi_def_cfa_register 7
 1459 0006 7860     		str	r0, [r7, #4]
 376:..\..\..\lvgl\version_6.1.2\lvgl\src\lv_core/lv_refr.c **** 
 377:..\..\..\lvgl\version_6.1.2\lvgl\src\lv_core/lv_refr.c ****     lv_disp_buf_t * vdb = lv_disp_get_buf(disp_refr);
 1460              		.loc 2 377 0
 1461 0008 2E4B     		ldr	r3, .L93
 1462 000a 1B68     		ldr	r3, [r3]
 1463 000c 1846     		mov	r0, r3
 1464 000e FFF7FEFF 		bl	lv_disp_get_buf
 1465 0012 7861     		str	r0, [r7, #20]
 378:..\..\..\lvgl\version_6.1.2\lvgl\src\lv_core/lv_refr.c **** 
 379:..\..\..\lvgl\version_6.1.2\lvgl\src\lv_core/lv_refr.c ****     /*In non double buffered mode, before rendering the next part wait until the previous image is
 380:..\..\..\lvgl\version_6.1.2\lvgl\src\lv_core/lv_refr.c ****      * flushed*/
 381:..\..\..\lvgl\version_6.1.2\lvgl\src\lv_core/lv_refr.c ****     if(lv_disp_is_double_buf(disp_refr) == false) {
 1466              		.loc 2 381 0
 1467 0014 2B4B     		ldr	r3, .L93
 1468 0016 1B68     		ldr	r3, [r3]
 1469 0018 1846     		mov	r0, r3
 1470 001a FFF7FEFF 		bl	lv_disp_is_double_buf
 1471 001e 0346     		mov	r3, r0
 1472 0020 83F00103 		eor	r3, r3, #1
 1473 0024 DBB2     		uxtb	r3, r3
 1474 0026 002B     		cmp	r3, #0
 1475 0028 07D0     		beq	.L89
 382:..\..\..\lvgl\version_6.1.2\lvgl\src\lv_core/lv_refr.c ****         while(vdb->flushing)
 1476              		.loc 2 382 0
 1477 002a 00BF     		nop
 1478              	.L90:
 1479              		.loc 2 382 0 is_stmt 0 discriminator 1
 1480 002c 7B69     		ldr	r3, [r7, #20]
 1481 002e 9B69     		ldr	r3, [r3, #24]
 1482 0030 C3F30003 		ubfx	r3, r3, #0, #1
ARM GAS  C:\Users\tmj32\AppData\Local\Temp\cc8pVFHq.s 			page 36


 1483 0034 DBB2     		uxtb	r3, r3
 1484 0036 002B     		cmp	r3, #0
 1485 0038 F8D1     		bne	.L90
 1486              	.L89:
 383:..\..\..\lvgl\version_6.1.2\lvgl\src\lv_core/lv_refr.c ****             ;
 384:..\..\..\lvgl\version_6.1.2\lvgl\src\lv_core/lv_refr.c ****     }
 385:..\..\..\lvgl\version_6.1.2\lvgl\src\lv_core/lv_refr.c **** 
 386:..\..\..\lvgl\version_6.1.2\lvgl\src\lv_core/lv_refr.c ****     lv_obj_t * top_p;
 387:..\..\..\lvgl\version_6.1.2\lvgl\src\lv_core/lv_refr.c **** 
 388:..\..\..\lvgl\version_6.1.2\lvgl\src\lv_core/lv_refr.c ****     /*Get the new mask from the original area and the act. VDB
 389:..\..\..\lvgl\version_6.1.2\lvgl\src\lv_core/lv_refr.c ****      It will be a part of 'area_p'*/
 390:..\..\..\lvgl\version_6.1.2\lvgl\src\lv_core/lv_refr.c ****     lv_area_t start_mask;
 391:..\..\..\lvgl\version_6.1.2\lvgl\src\lv_core/lv_refr.c ****     lv_area_intersect(&start_mask, area_p, &vdb->area);
 1487              		.loc 2 391 0 is_stmt 1
 1488 003a 7B69     		ldr	r3, [r7, #20]
 1489 003c 03F11002 		add	r2, r3, #16
 1490 0040 07F10803 		add	r3, r7, #8
 1491 0044 7968     		ldr	r1, [r7, #4]
 1492 0046 1846     		mov	r0, r3
 1493 0048 FFF7FEFF 		bl	lv_area_intersect
 392:..\..\..\lvgl\version_6.1.2\lvgl\src\lv_core/lv_refr.c **** 
 393:..\..\..\lvgl\version_6.1.2\lvgl\src\lv_core/lv_refr.c ****     /*Get the most top object which is not covered by others*/
 394:..\..\..\lvgl\version_6.1.2\lvgl\src\lv_core/lv_refr.c ****     top_p = lv_refr_get_top_obj(&start_mask, lv_disp_get_scr_act(disp_refr));
 1494              		.loc 2 394 0
 1495 004c 1D4B     		ldr	r3, .L93
 1496 004e 1B68     		ldr	r3, [r3]
 1497 0050 1846     		mov	r0, r3
 1498 0052 FFF7FEFF 		bl	lv_disp_get_scr_act
 1499 0056 0246     		mov	r2, r0
 1500 0058 07F10803 		add	r3, r7, #8
 1501 005c 1146     		mov	r1, r2
 1502 005e 1846     		mov	r0, r3
 1503 0060 FFF7FEFF 		bl	lv_refr_get_top_obj
 1504 0064 3861     		str	r0, [r7, #16]
 395:..\..\..\lvgl\version_6.1.2\lvgl\src\lv_core/lv_refr.c **** 
 396:..\..\..\lvgl\version_6.1.2\lvgl\src\lv_core/lv_refr.c ****     /*Do the refreshing from the top object*/
 397:..\..\..\lvgl\version_6.1.2\lvgl\src\lv_core/lv_refr.c ****     lv_refr_obj_and_children(top_p, &start_mask);
 1505              		.loc 2 397 0
 1506 0066 07F10803 		add	r3, r7, #8
 1507 006a 1946     		mov	r1, r3
 1508 006c 3869     		ldr	r0, [r7, #16]
 1509 006e FFF7FEFF 		bl	lv_refr_obj_and_children
 398:..\..\..\lvgl\version_6.1.2\lvgl\src\lv_core/lv_refr.c **** 
 399:..\..\..\lvgl\version_6.1.2\lvgl\src\lv_core/lv_refr.c ****     /*Also refresh top and sys layer unconditionally*/
 400:..\..\..\lvgl\version_6.1.2\lvgl\src\lv_core/lv_refr.c ****     lv_refr_obj_and_children(lv_disp_get_layer_top(disp_refr), &start_mask);
 1510              		.loc 2 400 0
 1511 0072 144B     		ldr	r3, .L93
 1512 0074 1B68     		ldr	r3, [r3]
 1513 0076 1846     		mov	r0, r3
 1514 0078 FFF7FEFF 		bl	lv_disp_get_layer_top
 1515 007c 0246     		mov	r2, r0
 1516 007e 07F10803 		add	r3, r7, #8
 1517 0082 1946     		mov	r1, r3
 1518 0084 1046     		mov	r0, r2
 1519 0086 FFF7FEFF 		bl	lv_refr_obj_and_children
 401:..\..\..\lvgl\version_6.1.2\lvgl\src\lv_core/lv_refr.c ****     lv_refr_obj_and_children(lv_disp_get_layer_sys(disp_refr), &start_mask);
 1520              		.loc 2 401 0
ARM GAS  C:\Users\tmj32\AppData\Local\Temp\cc8pVFHq.s 			page 37


 1521 008a 0E4B     		ldr	r3, .L93
 1522 008c 1B68     		ldr	r3, [r3]
 1523 008e 1846     		mov	r0, r3
 1524 0090 FFF7FEFF 		bl	lv_disp_get_layer_sys
 1525 0094 0246     		mov	r2, r0
 1526 0096 07F10803 		add	r3, r7, #8
 1527 009a 1946     		mov	r1, r3
 1528 009c 1046     		mov	r0, r2
 1529 009e FFF7FEFF 		bl	lv_refr_obj_and_children
 402:..\..\..\lvgl\version_6.1.2\lvgl\src\lv_core/lv_refr.c **** 
 403:..\..\..\lvgl\version_6.1.2\lvgl\src\lv_core/lv_refr.c ****     /* In true double buffered mode flush only once when all areas were rendered.
 404:..\..\..\lvgl\version_6.1.2\lvgl\src\lv_core/lv_refr.c ****      * In normal mode flush after every area */
 405:..\..\..\lvgl\version_6.1.2\lvgl\src\lv_core/lv_refr.c ****     if(lv_disp_is_true_double_buf(disp_refr) == false) {
 1530              		.loc 2 405 0
 1531 00a2 084B     		ldr	r3, .L93
 1532 00a4 1B68     		ldr	r3, [r3]
 1533 00a6 1846     		mov	r0, r3
 1534 00a8 FFF7FEFF 		bl	lv_disp_is_true_double_buf
 1535 00ac 0346     		mov	r3, r0
 1536 00ae 83F00103 		eor	r3, r3, #1
 1537 00b2 DBB2     		uxtb	r3, r3
 1538 00b4 002B     		cmp	r3, #0
 1539 00b6 01D0     		beq	.L92
 406:..\..\..\lvgl\version_6.1.2\lvgl\src\lv_core/lv_refr.c ****         lv_refr_vdb_flush();
 1540              		.loc 2 406 0
 1541 00b8 FFF7FEFF 		bl	lv_refr_vdb_flush
 1542              	.L92:
 407:..\..\..\lvgl\version_6.1.2\lvgl\src\lv_core/lv_refr.c ****     }
 408:..\..\..\lvgl\version_6.1.2\lvgl\src\lv_core/lv_refr.c **** }
 1543              		.loc 2 408 0
 1544 00bc 00BF     		nop
 1545 00be 1837     		adds	r7, r7, #24
 1546              		.cfi_def_cfa_offset 8
 1547 00c0 BD46     		mov	sp, r7
 1548              		.cfi_def_cfa_register 13
 1549              		@ sp needed
 1550 00c2 80BD     		pop	{r7, pc}
 1551              	.L94:
 1552              		.align	2
 1553              	.L93:
 1554 00c4 04000000 		.word	disp_refr
 1555              		.cfi_endproc
 1556              	.LFE44:
 1557              		.size	lv_refr_area_part, .-lv_refr_area_part
 1558              		.section	.text.lv_refr_get_top_obj,"ax",%progbits
 1559              		.align	2
 1560              		.thumb
 1561              		.thumb_func
 1562              		.type	lv_refr_get_top_obj, %function
 1563              	lv_refr_get_top_obj:
 1564              	.LFB45:
 409:..\..\..\lvgl\version_6.1.2\lvgl\src\lv_core/lv_refr.c **** 
 410:..\..\..\lvgl\version_6.1.2\lvgl\src\lv_core/lv_refr.c **** /**
 411:..\..\..\lvgl\version_6.1.2\lvgl\src\lv_core/lv_refr.c ****  * Search the most top object which fully covers an area
 412:..\..\..\lvgl\version_6.1.2\lvgl\src\lv_core/lv_refr.c ****  * @param area_p pointer to an area
 413:..\..\..\lvgl\version_6.1.2\lvgl\src\lv_core/lv_refr.c ****  * @param obj the first object to start the searching (typically a screen)
 414:..\..\..\lvgl\version_6.1.2\lvgl\src\lv_core/lv_refr.c ****  * @return
ARM GAS  C:\Users\tmj32\AppData\Local\Temp\cc8pVFHq.s 			page 38


 415:..\..\..\lvgl\version_6.1.2\lvgl\src\lv_core/lv_refr.c ****  */
 416:..\..\..\lvgl\version_6.1.2\lvgl\src\lv_core/lv_refr.c **** static lv_obj_t * lv_refr_get_top_obj(const lv_area_t * area_p, lv_obj_t * obj)
 417:..\..\..\lvgl\version_6.1.2\lvgl\src\lv_core/lv_refr.c **** {
 1565              		.loc 2 417 0
 1566              		.cfi_startproc
 1567              		@ args = 0, pretend = 0, frame = 24
 1568              		@ frame_needed = 1, uses_anonymous_args = 0
 1569 0000 80B5     		push	{r7, lr}
 1570              		.cfi_def_cfa_offset 8
 1571              		.cfi_offset 7, -8
 1572              		.cfi_offset 14, -4
 1573 0002 86B0     		sub	sp, sp, #24
 1574              		.cfi_def_cfa_offset 32
 1575 0004 00AF     		add	r7, sp, #0
 1576              		.cfi_def_cfa_register 7
 1577 0006 7860     		str	r0, [r7, #4]
 1578 0008 3960     		str	r1, [r7]
 418:..\..\..\lvgl\version_6.1.2\lvgl\src\lv_core/lv_refr.c ****     lv_obj_t * found_p = NULL;
 1579              		.loc 2 418 0
 1580 000a 0023     		movs	r3, #0
 1581 000c 7B61     		str	r3, [r7, #20]
 419:..\..\..\lvgl\version_6.1.2\lvgl\src\lv_core/lv_refr.c **** 
 420:..\..\..\lvgl\version_6.1.2\lvgl\src\lv_core/lv_refr.c ****     /*If this object is fully cover the draw area check the children too */
 421:..\..\..\lvgl\version_6.1.2\lvgl\src\lv_core/lv_refr.c ****     if(lv_area_is_in(area_p, &obj->coords) && obj->hidden == 0) {
 1582              		.loc 2 421 0
 1583 000e 3B68     		ldr	r3, [r7]
 1584 0010 1033     		adds	r3, r3, #16
 1585 0012 1946     		mov	r1, r3
 1586 0014 7868     		ldr	r0, [r7, #4]
 1587 0016 FFF7FEFF 		bl	lv_area_is_in
 1588 001a 0346     		mov	r3, r0
 1589 001c 002B     		cmp	r3, #0
 1590 001e 3ED0     		beq	.L96
 1591              		.loc 2 421 0 is_stmt 0 discriminator 1
 1592 0020 3B68     		ldr	r3, [r7]
 1593 0022 93F82C30 		ldrb	r3, [r3, #44]	@ zero_extendqisi2
 1594 0026 03F01003 		and	r3, r3, #16
 1595 002a DBB2     		uxtb	r3, r3
 1596 002c 002B     		cmp	r3, #0
 1597 002e 36D1     		bne	.L96
 1598              	.LBB11:
 422:..\..\..\lvgl\version_6.1.2\lvgl\src\lv_core/lv_refr.c ****         lv_obj_t * i;
 423:..\..\..\lvgl\version_6.1.2\lvgl\src\lv_core/lv_refr.c ****         LV_LL_READ(obj->child_ll, i)
 1599              		.loc 2 423 0 is_stmt 1
 1600 0030 3B68     		ldr	r3, [r7]
 1601 0032 0433     		adds	r3, r3, #4
 1602 0034 1846     		mov	r0, r3
 1603 0036 FFF7FEFF 		bl	lv_ll_get_head
 1604 003a 3861     		str	r0, [r7, #16]
 1605 003c 0EE0     		b	.L97
 1606              	.L100:
 424:..\..\..\lvgl\version_6.1.2\lvgl\src\lv_core/lv_refr.c ****         {
 425:..\..\..\lvgl\version_6.1.2\lvgl\src\lv_core/lv_refr.c ****             found_p = lv_refr_get_top_obj(area_p, i);
 1607              		.loc 2 425 0
 1608 003e 3969     		ldr	r1, [r7, #16]
 1609 0040 7868     		ldr	r0, [r7, #4]
 1610 0042 FFF7DDFF 		bl	lv_refr_get_top_obj
ARM GAS  C:\Users\tmj32\AppData\Local\Temp\cc8pVFHq.s 			page 39


 1611 0046 7861     		str	r0, [r7, #20]
 426:..\..\..\lvgl\version_6.1.2\lvgl\src\lv_core/lv_refr.c **** 
 427:..\..\..\lvgl\version_6.1.2\lvgl\src\lv_core/lv_refr.c ****             /*If a children is ok then break*/
 428:..\..\..\lvgl\version_6.1.2\lvgl\src\lv_core/lv_refr.c ****             if(found_p != NULL) {
 1612              		.loc 2 428 0
 1613 0048 7B69     		ldr	r3, [r7, #20]
 1614 004a 002B     		cmp	r3, #0
 1615 004c 0AD1     		bne	.L102
 423:..\..\..\lvgl\version_6.1.2\lvgl\src\lv_core/lv_refr.c ****         {
 1616              		.loc 2 423 0 discriminator 2
 1617 004e 3B68     		ldr	r3, [r7]
 1618 0050 0433     		adds	r3, r3, #4
 1619 0052 3969     		ldr	r1, [r7, #16]
 1620 0054 1846     		mov	r0, r3
 1621 0056 FFF7FEFF 		bl	lv_ll_get_next
 1622 005a 3861     		str	r0, [r7, #16]
 1623              	.L97:
 423:..\..\..\lvgl\version_6.1.2\lvgl\src\lv_core/lv_refr.c ****         {
 1624              		.loc 2 423 0 is_stmt 0 discriminator 1
 1625 005c 3B69     		ldr	r3, [r7, #16]
 1626 005e 002B     		cmp	r3, #0
 1627 0060 EDD1     		bne	.L100
 1628 0062 00E0     		b	.L99
 1629              	.L102:
 429:..\..\..\lvgl\version_6.1.2\lvgl\src\lv_core/lv_refr.c ****                 break;
 1630              		.loc 2 429 0 is_stmt 1
 1631 0064 00BF     		nop
 1632              	.L99:
 430:..\..\..\lvgl\version_6.1.2\lvgl\src\lv_core/lv_refr.c ****             }
 431:..\..\..\lvgl\version_6.1.2\lvgl\src\lv_core/lv_refr.c ****         }
 432:..\..\..\lvgl\version_6.1.2\lvgl\src\lv_core/lv_refr.c **** 
 433:..\..\..\lvgl\version_6.1.2\lvgl\src\lv_core/lv_refr.c ****         /*If no better children check this object*/
 434:..\..\..\lvgl\version_6.1.2\lvgl\src\lv_core/lv_refr.c ****         if(found_p == NULL) {
 1633              		.loc 2 434 0
 1634 0066 7B69     		ldr	r3, [r7, #20]
 1635 0068 002B     		cmp	r3, #0
 1636 006a 18D1     		bne	.L96
 1637              	.LBB12:
 435:..\..\..\lvgl\version_6.1.2\lvgl\src\lv_core/lv_refr.c ****             const lv_style_t * style = lv_obj_get_style(obj);
 1638              		.loc 2 435 0
 1639 006c 3868     		ldr	r0, [r7]
 1640 006e FFF7FEFF 		bl	lv_obj_get_style
 1641 0072 F860     		str	r0, [r7, #12]
 436:..\..\..\lvgl\version_6.1.2\lvgl\src\lv_core/lv_refr.c ****             if(style->body.opa == LV_OPA_COVER && obj->design_cb(obj, area_p, LV_DESIGN_COVER_CHK) 
 1642              		.loc 2 436 0
 1643 0074 FB68     		ldr	r3, [r7, #12]
 1644 0076 9B7B     		ldrb	r3, [r3, #14]	@ zero_extendqisi2
 1645 0078 FF2B     		cmp	r3, #255
 1646 007a 10D1     		bne	.L96
 1647              		.loc 2 436 0 is_stmt 0 discriminator 1
 1648 007c 3B68     		ldr	r3, [r7]
 1649 007e 1B6A     		ldr	r3, [r3, #32]
 1650 0080 0222     		movs	r2, #2
 1651 0082 7968     		ldr	r1, [r7, #4]
 1652 0084 3868     		ldr	r0, [r7]
 1653 0086 9847     		blx	r3
 1654 0088 0346     		mov	r3, r0
ARM GAS  C:\Users\tmj32\AppData\Local\Temp\cc8pVFHq.s 			page 40


 1655 008a 002B     		cmp	r3, #0
 1656 008c 07D0     		beq	.L96
 437:..\..\..\lvgl\version_6.1.2\lvgl\src\lv_core/lv_refr.c ****                lv_obj_get_opa_scale(obj) == LV_OPA_COVER) {
 1657              		.loc 2 437 0 is_stmt 1 discriminator 2
 1658 008e 3868     		ldr	r0, [r7]
 1659 0090 FFF7FEFF 		bl	lv_obj_get_opa_scale
 1660 0094 0346     		mov	r3, r0
 436:..\..\..\lvgl\version_6.1.2\lvgl\src\lv_core/lv_refr.c ****             if(style->body.opa == LV_OPA_COVER && obj->design_cb(obj, area_p, LV_DESIGN_COVER_CHK) 
 1661              		.loc 2 436 0 discriminator 2
 1662 0096 FF2B     		cmp	r3, #255
 1663 0098 01D1     		bne	.L96
 438:..\..\..\lvgl\version_6.1.2\lvgl\src\lv_core/lv_refr.c ****                 found_p = obj;
 1664              		.loc 2 438 0
 1665 009a 3B68     		ldr	r3, [r7]
 1666 009c 7B61     		str	r3, [r7, #20]
 1667              	.L96:
 1668              	.LBE12:
 1669              	.LBE11:
 439:..\..\..\lvgl\version_6.1.2\lvgl\src\lv_core/lv_refr.c ****             }
 440:..\..\..\lvgl\version_6.1.2\lvgl\src\lv_core/lv_refr.c ****         }
 441:..\..\..\lvgl\version_6.1.2\lvgl\src\lv_core/lv_refr.c ****     }
 442:..\..\..\lvgl\version_6.1.2\lvgl\src\lv_core/lv_refr.c **** 
 443:..\..\..\lvgl\version_6.1.2\lvgl\src\lv_core/lv_refr.c ****     return found_p;
 1670              		.loc 2 443 0
 1671 009e 7B69     		ldr	r3, [r7, #20]
 444:..\..\..\lvgl\version_6.1.2\lvgl\src\lv_core/lv_refr.c **** }
 1672              		.loc 2 444 0
 1673 00a0 1846     		mov	r0, r3
 1674 00a2 1837     		adds	r7, r7, #24
 1675              		.cfi_def_cfa_offset 8
 1676 00a4 BD46     		mov	sp, r7
 1677              		.cfi_def_cfa_register 13
 1678              		@ sp needed
 1679 00a6 80BD     		pop	{r7, pc}
 1680              		.cfi_endproc
 1681              	.LFE45:
 1682              		.size	lv_refr_get_top_obj, .-lv_refr_get_top_obj
 1683              		.section	.text.lv_refr_obj_and_children,"ax",%progbits
 1684              		.align	2
 1685              		.thumb
 1686              		.thumb_func
 1687              		.type	lv_refr_obj_and_children, %function
 1688              	lv_refr_obj_and_children:
 1689              	.LFB46:
 445:..\..\..\lvgl\version_6.1.2\lvgl\src\lv_core/lv_refr.c **** 
 446:..\..\..\lvgl\version_6.1.2\lvgl\src\lv_core/lv_refr.c **** /**
 447:..\..\..\lvgl\version_6.1.2\lvgl\src\lv_core/lv_refr.c ****  * Make the refreshing from an object. Draw all its children and the youngers too.
 448:..\..\..\lvgl\version_6.1.2\lvgl\src\lv_core/lv_refr.c ****  * @param top_p pointer to an objects. Start the drawing from it.
 449:..\..\..\lvgl\version_6.1.2\lvgl\src\lv_core/lv_refr.c ****  * @param mask_p pointer to an area, the objects will be drawn only here
 450:..\..\..\lvgl\version_6.1.2\lvgl\src\lv_core/lv_refr.c ****  */
 451:..\..\..\lvgl\version_6.1.2\lvgl\src\lv_core/lv_refr.c **** static void lv_refr_obj_and_children(lv_obj_t * top_p, const lv_area_t * mask_p)
 452:..\..\..\lvgl\version_6.1.2\lvgl\src\lv_core/lv_refr.c **** {
 1690              		.loc 2 452 0
 1691              		.cfi_startproc
 1692              		@ args = 0, pretend = 0, frame = 24
 1693              		@ frame_needed = 1, uses_anonymous_args = 0
 1694 0000 80B5     		push	{r7, lr}
ARM GAS  C:\Users\tmj32\AppData\Local\Temp\cc8pVFHq.s 			page 41


 1695              		.cfi_def_cfa_offset 8
 1696              		.cfi_offset 7, -8
 1697              		.cfi_offset 14, -4
 1698 0002 86B0     		sub	sp, sp, #24
 1699              		.cfi_def_cfa_offset 32
 1700 0004 00AF     		add	r7, sp, #0
 1701              		.cfi_def_cfa_register 7
 1702 0006 7860     		str	r0, [r7, #4]
 1703 0008 3960     		str	r1, [r7]
 453:..\..\..\lvgl\version_6.1.2\lvgl\src\lv_core/lv_refr.c ****     /* Normally always will be a top_obj (at least the screen)
 454:..\..\..\lvgl\version_6.1.2\lvgl\src\lv_core/lv_refr.c ****      * but in special cases (e.g. if the screen has alpha) it won't.
 455:..\..\..\lvgl\version_6.1.2\lvgl\src\lv_core/lv_refr.c ****      * In this case use the screen directly */
 456:..\..\..\lvgl\version_6.1.2\lvgl\src\lv_core/lv_refr.c ****     if(top_p == NULL) top_p = lv_disp_get_scr_act(disp_refr);
 1704              		.loc 2 456 0
 1705 000a 7B68     		ldr	r3, [r7, #4]
 1706 000c 002B     		cmp	r3, #0
 1707 000e 05D1     		bne	.L104
 1708              		.loc 2 456 0 is_stmt 0 discriminator 1
 1709 0010 1C4B     		ldr	r3, .L109
 1710 0012 1B68     		ldr	r3, [r3]
 1711 0014 1846     		mov	r0, r3
 1712 0016 FFF7FEFF 		bl	lv_disp_get_scr_act
 1713 001a 7860     		str	r0, [r7, #4]
 1714              	.L104:
 457:..\..\..\lvgl\version_6.1.2\lvgl\src\lv_core/lv_refr.c **** 
 458:..\..\..\lvgl\version_6.1.2\lvgl\src\lv_core/lv_refr.c ****     /*Refresh the top object and its children*/
 459:..\..\..\lvgl\version_6.1.2\lvgl\src\lv_core/lv_refr.c ****     lv_refr_obj(top_p, mask_p);
 1715              		.loc 2 459 0 is_stmt 1
 1716 001c 3968     		ldr	r1, [r7]
 1717 001e 7868     		ldr	r0, [r7, #4]
 1718 0020 FFF7FEFF 		bl	lv_refr_obj
 460:..\..\..\lvgl\version_6.1.2\lvgl\src\lv_core/lv_refr.c **** 
 461:..\..\..\lvgl\version_6.1.2\lvgl\src\lv_core/lv_refr.c ****     /*Draw the 'younger' sibling objects because they can be on top_obj */
 462:..\..\..\lvgl\version_6.1.2\lvgl\src\lv_core/lv_refr.c ****     lv_obj_t * par;
 463:..\..\..\lvgl\version_6.1.2\lvgl\src\lv_core/lv_refr.c ****     lv_obj_t * border_p = top_p;
 1719              		.loc 2 463 0
 1720 0024 7B68     		ldr	r3, [r7, #4]
 1721 0026 3B61     		str	r3, [r7, #16]
 464:..\..\..\lvgl\version_6.1.2\lvgl\src\lv_core/lv_refr.c **** 
 465:..\..\..\lvgl\version_6.1.2\lvgl\src\lv_core/lv_refr.c ****     par = lv_obj_get_parent(top_p);
 1722              		.loc 2 465 0
 1723 0028 7868     		ldr	r0, [r7, #4]
 1724 002a FFF7FEFF 		bl	lv_obj_get_parent
 1725 002e 7861     		str	r0, [r7, #20]
 466:..\..\..\lvgl\version_6.1.2\lvgl\src\lv_core/lv_refr.c **** 
 467:..\..\..\lvgl\version_6.1.2\lvgl\src\lv_core/lv_refr.c ****     /*Do until not reach the screen*/
 468:..\..\..\lvgl\version_6.1.2\lvgl\src\lv_core/lv_refr.c ****     while(par != NULL) {
 1726              		.loc 2 468 0
 1727 0030 21E0     		b	.L105
 1728              	.L108:
 1729              	.LBB13:
 469:..\..\..\lvgl\version_6.1.2\lvgl\src\lv_core/lv_refr.c ****         /*object before border_p has to be redrawn*/
 470:..\..\..\lvgl\version_6.1.2\lvgl\src\lv_core/lv_refr.c ****         lv_obj_t * i = lv_ll_get_prev(&(par->child_ll), border_p);
 1730              		.loc 2 470 0
 1731 0032 7B69     		ldr	r3, [r7, #20]
 1732 0034 0433     		adds	r3, r3, #4
 1733 0036 3969     		ldr	r1, [r7, #16]
ARM GAS  C:\Users\tmj32\AppData\Local\Temp\cc8pVFHq.s 			page 42


 1734 0038 1846     		mov	r0, r3
 1735 003a FFF7FEFF 		bl	lv_ll_get_prev
 1736 003e F860     		str	r0, [r7, #12]
 471:..\..\..\lvgl\version_6.1.2\lvgl\src\lv_core/lv_refr.c **** 
 472:..\..\..\lvgl\version_6.1.2\lvgl\src\lv_core/lv_refr.c ****         while(i != NULL) {
 1737              		.loc 2 472 0
 1738 0040 0AE0     		b	.L106
 1739              	.L107:
 473:..\..\..\lvgl\version_6.1.2\lvgl\src\lv_core/lv_refr.c ****             /*Refresh the objects*/
 474:..\..\..\lvgl\version_6.1.2\lvgl\src\lv_core/lv_refr.c ****             lv_refr_obj(i, mask_p);
 1740              		.loc 2 474 0
 1741 0042 3968     		ldr	r1, [r7]
 1742 0044 F868     		ldr	r0, [r7, #12]
 1743 0046 FFF7FEFF 		bl	lv_refr_obj
 475:..\..\..\lvgl\version_6.1.2\lvgl\src\lv_core/lv_refr.c ****             i = lv_ll_get_prev(&(par->child_ll), i);
 1744              		.loc 2 475 0
 1745 004a 7B69     		ldr	r3, [r7, #20]
 1746 004c 0433     		adds	r3, r3, #4
 1747 004e F968     		ldr	r1, [r7, #12]
 1748 0050 1846     		mov	r0, r3
 1749 0052 FFF7FEFF 		bl	lv_ll_get_prev
 1750 0056 F860     		str	r0, [r7, #12]
 1751              	.L106:
 472:..\..\..\lvgl\version_6.1.2\lvgl\src\lv_core/lv_refr.c ****             /*Refresh the objects*/
 1752              		.loc 2 472 0
 1753 0058 FB68     		ldr	r3, [r7, #12]
 1754 005a 002B     		cmp	r3, #0
 1755 005c F1D1     		bne	.L107
 476:..\..\..\lvgl\version_6.1.2\lvgl\src\lv_core/lv_refr.c ****         }
 477:..\..\..\lvgl\version_6.1.2\lvgl\src\lv_core/lv_refr.c **** 
 478:..\..\..\lvgl\version_6.1.2\lvgl\src\lv_core/lv_refr.c ****         /*Call the post draw design function of the parents of the to object*/
 479:..\..\..\lvgl\version_6.1.2\lvgl\src\lv_core/lv_refr.c ****         par->design_cb(par, mask_p, LV_DESIGN_DRAW_POST);
 1756              		.loc 2 479 0
 1757 005e 7B69     		ldr	r3, [r7, #20]
 1758 0060 1B6A     		ldr	r3, [r3, #32]
 1759 0062 0122     		movs	r2, #1
 1760 0064 3968     		ldr	r1, [r7]
 1761 0066 7869     		ldr	r0, [r7, #20]
 1762 0068 9847     		blx	r3
 480:..\..\..\lvgl\version_6.1.2\lvgl\src\lv_core/lv_refr.c **** 
 481:..\..\..\lvgl\version_6.1.2\lvgl\src\lv_core/lv_refr.c ****         /*The new border will be there last parents,
 482:..\..\..\lvgl\version_6.1.2\lvgl\src\lv_core/lv_refr.c ****          *so the 'younger' brothers of parent will be refreshed*/
 483:..\..\..\lvgl\version_6.1.2\lvgl\src\lv_core/lv_refr.c ****         border_p = par;
 1763              		.loc 2 483 0
 1764 006a 7B69     		ldr	r3, [r7, #20]
 1765 006c 3B61     		str	r3, [r7, #16]
 484:..\..\..\lvgl\version_6.1.2\lvgl\src\lv_core/lv_refr.c ****         /*Go a level deeper*/
 485:..\..\..\lvgl\version_6.1.2\lvgl\src\lv_core/lv_refr.c ****         par = lv_obj_get_parent(par);
 1766              		.loc 2 485 0
 1767 006e 7869     		ldr	r0, [r7, #20]
 1768 0070 FFF7FEFF 		bl	lv_obj_get_parent
 1769 0074 7861     		str	r0, [r7, #20]
 1770              	.L105:
 1771              	.LBE13:
 468:..\..\..\lvgl\version_6.1.2\lvgl\src\lv_core/lv_refr.c ****         /*object before border_p has to be redrawn*/
 1772              		.loc 2 468 0
 1773 0076 7B69     		ldr	r3, [r7, #20]
ARM GAS  C:\Users\tmj32\AppData\Local\Temp\cc8pVFHq.s 			page 43


 1774 0078 002B     		cmp	r3, #0
 1775 007a DAD1     		bne	.L108
 486:..\..\..\lvgl\version_6.1.2\lvgl\src\lv_core/lv_refr.c ****     }
 487:..\..\..\lvgl\version_6.1.2\lvgl\src\lv_core/lv_refr.c **** }
 1776              		.loc 2 487 0
 1777 007c 00BF     		nop
 1778 007e 1837     		adds	r7, r7, #24
 1779              		.cfi_def_cfa_offset 8
 1780 0080 BD46     		mov	sp, r7
 1781              		.cfi_def_cfa_register 13
 1782              		@ sp needed
 1783 0082 80BD     		pop	{r7, pc}
 1784              	.L110:
 1785              		.align	2
 1786              	.L109:
 1787 0084 04000000 		.word	disp_refr
 1788              		.cfi_endproc
 1789              	.LFE46:
 1790              		.size	lv_refr_obj_and_children, .-lv_refr_obj_and_children
 1791              		.section	.text.lv_refr_obj,"ax",%progbits
 1792              		.align	2
 1793              		.thumb
 1794              		.thumb_func
 1795              		.type	lv_refr_obj, %function
 1796              	lv_refr_obj:
 1797              	.LFB47:
 488:..\..\..\lvgl\version_6.1.2\lvgl\src\lv_core/lv_refr.c **** 
 489:..\..\..\lvgl\version_6.1.2\lvgl\src\lv_core/lv_refr.c **** /**
 490:..\..\..\lvgl\version_6.1.2\lvgl\src\lv_core/lv_refr.c ****  * Refresh an object an all of its children. (Called recursively)
 491:..\..\..\lvgl\version_6.1.2\lvgl\src\lv_core/lv_refr.c ****  * @param obj pointer to an object to refresh
 492:..\..\..\lvgl\version_6.1.2\lvgl\src\lv_core/lv_refr.c ****  * @param mask_ori_p pointer to an area, the objects will be drawn only here
 493:..\..\..\lvgl\version_6.1.2\lvgl\src\lv_core/lv_refr.c ****  */
 494:..\..\..\lvgl\version_6.1.2\lvgl\src\lv_core/lv_refr.c **** static void lv_refr_obj(lv_obj_t * obj, const lv_area_t * mask_ori_p)
 495:..\..\..\lvgl\version_6.1.2\lvgl\src\lv_core/lv_refr.c **** {
 1798              		.loc 2 495 0
 1799              		.cfi_startproc
 1800              		@ args = 0, pretend = 0, frame = 56
 1801              		@ frame_needed = 1, uses_anonymous_args = 0
 1802 0000 80B5     		push	{r7, lr}
 1803              		.cfi_def_cfa_offset 8
 1804              		.cfi_offset 7, -8
 1805              		.cfi_offset 14, -4
 1806 0002 8EB0     		sub	sp, sp, #56
 1807              		.cfi_def_cfa_offset 64
 1808 0004 00AF     		add	r7, sp, #0
 1809              		.cfi_def_cfa_register 7
 1810 0006 7860     		str	r0, [r7, #4]
 1811 0008 3960     		str	r1, [r7]
 496:..\..\..\lvgl\version_6.1.2\lvgl\src\lv_core/lv_refr.c ****     /*Do not refresh hidden objects*/
 497:..\..\..\lvgl\version_6.1.2\lvgl\src\lv_core/lv_refr.c ****     if(obj->hidden != 0) return;
 1812              		.loc 2 497 0
 1813 000a 7B68     		ldr	r3, [r7, #4]
 1814 000c 93F82C30 		ldrb	r3, [r3, #44]	@ zero_extendqisi2
 1815 0010 03F01003 		and	r3, r3, #16
 1816 0014 DBB2     		uxtb	r3, r3
 1817 0016 002B     		cmp	r3, #0
 1818 0018 40F0AC80 		bne	.L119
ARM GAS  C:\Users\tmj32\AppData\Local\Temp\cc8pVFHq.s 			page 44


 498:..\..\..\lvgl\version_6.1.2\lvgl\src\lv_core/lv_refr.c **** 
 499:..\..\..\lvgl\version_6.1.2\lvgl\src\lv_core/lv_refr.c ****     bool union_ok; /* Store the return value of area_union */
 500:..\..\..\lvgl\version_6.1.2\lvgl\src\lv_core/lv_refr.c ****     /* Truncate the original mask to the coordinates of the parent
 501:..\..\..\lvgl\version_6.1.2\lvgl\src\lv_core/lv_refr.c ****      * because the parent and its children are visible only here */
 502:..\..\..\lvgl\version_6.1.2\lvgl\src\lv_core/lv_refr.c ****     lv_area_t obj_mask;
 503:..\..\..\lvgl\version_6.1.2\lvgl\src\lv_core/lv_refr.c ****     lv_area_t obj_ext_mask;
 504:..\..\..\lvgl\version_6.1.2\lvgl\src\lv_core/lv_refr.c ****     lv_area_t obj_area;
 505:..\..\..\lvgl\version_6.1.2\lvgl\src\lv_core/lv_refr.c ****     lv_coord_t ext_size = obj->ext_draw_pad;
 1819              		.loc 2 505 0
 1820 001c 7B68     		ldr	r3, [r7, #4]
 1821 001e 1B8E     		ldrh	r3, [r3, #48]	@ movhi
 1822 0020 7B86     		strh	r3, [r7, #50]	@ movhi
 506:..\..\..\lvgl\version_6.1.2\lvgl\src\lv_core/lv_refr.c ****     lv_obj_get_coords(obj, &obj_area);
 1823              		.loc 2 506 0
 1824 0022 07F11803 		add	r3, r7, #24
 1825 0026 1946     		mov	r1, r3
 1826 0028 7868     		ldr	r0, [r7, #4]
 1827 002a FFF7FEFF 		bl	lv_obj_get_coords
 507:..\..\..\lvgl\version_6.1.2\lvgl\src\lv_core/lv_refr.c ****     obj_area.x1 -= ext_size;
 1828              		.loc 2 507 0
 1829 002e B7F91830 		ldrsh	r3, [r7, #24]
 1830 0032 9AB2     		uxth	r2, r3
 1831 0034 7B8E     		ldrh	r3, [r7, #50]
 1832 0036 D31A     		subs	r3, r2, r3
 1833 0038 9BB2     		uxth	r3, r3
 1834 003a 1BB2     		sxth	r3, r3
 1835 003c 3B83     		strh	r3, [r7, #24]	@ movhi
 508:..\..\..\lvgl\version_6.1.2\lvgl\src\lv_core/lv_refr.c ****     obj_area.y1 -= ext_size;
 1836              		.loc 2 508 0
 1837 003e B7F91A30 		ldrsh	r3, [r7, #26]
 1838 0042 9AB2     		uxth	r2, r3
 1839 0044 7B8E     		ldrh	r3, [r7, #50]
 1840 0046 D31A     		subs	r3, r2, r3
 1841 0048 9BB2     		uxth	r3, r3
 1842 004a 1BB2     		sxth	r3, r3
 1843 004c 7B83     		strh	r3, [r7, #26]	@ movhi
 509:..\..\..\lvgl\version_6.1.2\lvgl\src\lv_core/lv_refr.c ****     obj_area.x2 += ext_size;
 1844              		.loc 2 509 0
 1845 004e B7F91C30 		ldrsh	r3, [r7, #28]
 1846 0052 9AB2     		uxth	r2, r3
 1847 0054 7B8E     		ldrh	r3, [r7, #50]
 1848 0056 1344     		add	r3, r3, r2
 1849 0058 9BB2     		uxth	r3, r3
 1850 005a 1BB2     		sxth	r3, r3
 1851 005c BB83     		strh	r3, [r7, #28]	@ movhi
 510:..\..\..\lvgl\version_6.1.2\lvgl\src\lv_core/lv_refr.c ****     obj_area.y2 += ext_size;
 1852              		.loc 2 510 0
 1853 005e B7F91E30 		ldrsh	r3, [r7, #30]
 1854 0062 9AB2     		uxth	r2, r3
 1855 0064 7B8E     		ldrh	r3, [r7, #50]
 1856 0066 1344     		add	r3, r3, r2
 1857 0068 9BB2     		uxth	r3, r3
 1858 006a 1BB2     		sxth	r3, r3
 1859 006c FB83     		strh	r3, [r7, #30]	@ movhi
 511:..\..\..\lvgl\version_6.1.2\lvgl\src\lv_core/lv_refr.c ****     union_ok = lv_area_intersect(&obj_ext_mask, mask_ori_p, &obj_area);
 1860              		.loc 2 511 0
 1861 006e 07F11802 		add	r2, r7, #24
ARM GAS  C:\Users\tmj32\AppData\Local\Temp\cc8pVFHq.s 			page 45


 1862 0072 07F12003 		add	r3, r7, #32
 1863 0076 3968     		ldr	r1, [r7]
 1864 0078 1846     		mov	r0, r3
 1865 007a FFF7FEFF 		bl	lv_area_intersect
 1866 007e 0346     		mov	r3, r0
 1867 0080 87F83130 		strb	r3, [r7, #49]
 512:..\..\..\lvgl\version_6.1.2\lvgl\src\lv_core/lv_refr.c **** 
 513:..\..\..\lvgl\version_6.1.2\lvgl\src\lv_core/lv_refr.c ****     /*Draw the parent and its children only if they ore on 'mask_parent'*/
 514:..\..\..\lvgl\version_6.1.2\lvgl\src\lv_core/lv_refr.c ****     if(union_ok != false) {
 1868              		.loc 2 514 0
 1869 0084 97F83130 		ldrb	r3, [r7, #49]	@ zero_extendqisi2
 1870 0088 002B     		cmp	r3, #0
 1871 008a 74D0     		beq	.L111
 515:..\..\..\lvgl\version_6.1.2\lvgl\src\lv_core/lv_refr.c **** 
 516:..\..\..\lvgl\version_6.1.2\lvgl\src\lv_core/lv_refr.c ****         /* Redraw the object */
 517:..\..\..\lvgl\version_6.1.2\lvgl\src\lv_core/lv_refr.c ****         obj->design_cb(obj, &obj_ext_mask, LV_DESIGN_DRAW_MAIN);
 1872              		.loc 2 517 0
 1873 008c 7B68     		ldr	r3, [r7, #4]
 1874 008e 1B6A     		ldr	r3, [r3, #32]
 1875 0090 07F12001 		add	r1, r7, #32
 1876 0094 0022     		movs	r2, #0
 1877 0096 7868     		ldr	r0, [r7, #4]
 1878 0098 9847     		blx	r3
 518:..\..\..\lvgl\version_6.1.2\lvgl\src\lv_core/lv_refr.c **** 
 519:..\..\..\lvgl\version_6.1.2\lvgl\src\lv_core/lv_refr.c **** #if MASK_AREA_DEBUG
 520:..\..\..\lvgl\version_6.1.2\lvgl\src\lv_core/lv_refr.c ****         static lv_color_t debug_color = LV_COLOR_RED;
 521:..\..\..\lvgl\version_6.1.2\lvgl\src\lv_core/lv_refr.c ****         lv_draw_fill(&obj_ext_mask, &obj_ext_mask, debug_color, LV_OPA_50);
 522:..\..\..\lvgl\version_6.1.2\lvgl\src\lv_core/lv_refr.c ****         debug_color.full *= 17;
 523:..\..\..\lvgl\version_6.1.2\lvgl\src\lv_core/lv_refr.c ****         debug_color.full += 0xA1;
 524:..\..\..\lvgl\version_6.1.2\lvgl\src\lv_core/lv_refr.c **** #endif
 525:..\..\..\lvgl\version_6.1.2\lvgl\src\lv_core/lv_refr.c ****         /*Create a new 'obj_mask' without 'ext_size' because the children can't be visible there*/
 526:..\..\..\lvgl\version_6.1.2\lvgl\src\lv_core/lv_refr.c ****         lv_obj_get_coords(obj, &obj_area);
 1879              		.loc 2 526 0
 1880 009a 07F11803 		add	r3, r7, #24
 1881 009e 1946     		mov	r1, r3
 1882 00a0 7868     		ldr	r0, [r7, #4]
 1883 00a2 FFF7FEFF 		bl	lv_obj_get_coords
 527:..\..\..\lvgl\version_6.1.2\lvgl\src\lv_core/lv_refr.c ****         union_ok = lv_area_intersect(&obj_mask, mask_ori_p, &obj_area);
 1884              		.loc 2 527 0
 1885 00a6 07F11802 		add	r2, r7, #24
 1886 00aa 07F12803 		add	r3, r7, #40
 1887 00ae 3968     		ldr	r1, [r7]
 1888 00b0 1846     		mov	r0, r3
 1889 00b2 FFF7FEFF 		bl	lv_area_intersect
 1890 00b6 0346     		mov	r3, r0
 1891 00b8 87F83130 		strb	r3, [r7, #49]
 528:..\..\..\lvgl\version_6.1.2\lvgl\src\lv_core/lv_refr.c ****         if(union_ok != false) {
 1892              		.loc 2 528 0
 1893 00bc 97F83130 		ldrb	r3, [r7, #49]	@ zero_extendqisi2
 1894 00c0 002B     		cmp	r3, #0
 1895 00c2 4FD0     		beq	.L115
 1896              	.LBB14:
 529:..\..\..\lvgl\version_6.1.2\lvgl\src\lv_core/lv_refr.c ****             lv_area_t mask_child; /*Mask from obj and its child*/
 530:..\..\..\lvgl\version_6.1.2\lvgl\src\lv_core/lv_refr.c ****             lv_obj_t * child_p;
 531:..\..\..\lvgl\version_6.1.2\lvgl\src\lv_core/lv_refr.c ****             lv_area_t child_area;
 532:..\..\..\lvgl\version_6.1.2\lvgl\src\lv_core/lv_refr.c ****             LV_LL_READ_BACK(obj->child_ll, child_p)
 1897              		.loc 2 532 0
ARM GAS  C:\Users\tmj32\AppData\Local\Temp\cc8pVFHq.s 			page 46


 1898 00c4 7B68     		ldr	r3, [r7, #4]
 1899 00c6 0433     		adds	r3, r3, #4
 1900 00c8 1846     		mov	r0, r3
 1901 00ca FFF7FEFF 		bl	lv_ll_get_tail
 1902 00ce 7863     		str	r0, [r7, #52]
 1903 00d0 45E0     		b	.L116
 1904              	.L118:
 533:..\..\..\lvgl\version_6.1.2\lvgl\src\lv_core/lv_refr.c ****             {
 534:..\..\..\lvgl\version_6.1.2\lvgl\src\lv_core/lv_refr.c ****                 lv_obj_get_coords(child_p, &child_area);
 1905              		.loc 2 534 0
 1906 00d2 07F10803 		add	r3, r7, #8
 1907 00d6 1946     		mov	r1, r3
 1908 00d8 786B     		ldr	r0, [r7, #52]
 1909 00da FFF7FEFF 		bl	lv_obj_get_coords
 535:..\..\..\lvgl\version_6.1.2\lvgl\src\lv_core/lv_refr.c ****                 ext_size = child_p->ext_draw_pad;
 1910              		.loc 2 535 0
 1911 00de 7B6B     		ldr	r3, [r7, #52]
 1912 00e0 1B8E     		ldrh	r3, [r3, #48]	@ movhi
 1913 00e2 7B86     		strh	r3, [r7, #50]	@ movhi
 536:..\..\..\lvgl\version_6.1.2\lvgl\src\lv_core/lv_refr.c ****                 child_area.x1 -= ext_size;
 1914              		.loc 2 536 0
 1915 00e4 B7F90830 		ldrsh	r3, [r7, #8]
 1916 00e8 9AB2     		uxth	r2, r3
 1917 00ea 7B8E     		ldrh	r3, [r7, #50]
 1918 00ec D31A     		subs	r3, r2, r3
 1919 00ee 9BB2     		uxth	r3, r3
 1920 00f0 1BB2     		sxth	r3, r3
 1921 00f2 3B81     		strh	r3, [r7, #8]	@ movhi
 537:..\..\..\lvgl\version_6.1.2\lvgl\src\lv_core/lv_refr.c ****                 child_area.y1 -= ext_size;
 1922              		.loc 2 537 0
 1923 00f4 B7F90A30 		ldrsh	r3, [r7, #10]
 1924 00f8 9AB2     		uxth	r2, r3
 1925 00fa 7B8E     		ldrh	r3, [r7, #50]
 1926 00fc D31A     		subs	r3, r2, r3
 1927 00fe 9BB2     		uxth	r3, r3
 1928 0100 1BB2     		sxth	r3, r3
 1929 0102 7B81     		strh	r3, [r7, #10]	@ movhi
 538:..\..\..\lvgl\version_6.1.2\lvgl\src\lv_core/lv_refr.c ****                 child_area.x2 += ext_size;
 1930              		.loc 2 538 0
 1931 0104 B7F90C30 		ldrsh	r3, [r7, #12]
 1932 0108 9AB2     		uxth	r2, r3
 1933 010a 7B8E     		ldrh	r3, [r7, #50]
 1934 010c 1344     		add	r3, r3, r2
 1935 010e 9BB2     		uxth	r3, r3
 1936 0110 1BB2     		sxth	r3, r3
 1937 0112 BB81     		strh	r3, [r7, #12]	@ movhi
 539:..\..\..\lvgl\version_6.1.2\lvgl\src\lv_core/lv_refr.c ****                 child_area.y2 += ext_size;
 1938              		.loc 2 539 0
 1939 0114 B7F90E30 		ldrsh	r3, [r7, #14]
 1940 0118 9AB2     		uxth	r2, r3
 1941 011a 7B8E     		ldrh	r3, [r7, #50]
 1942 011c 1344     		add	r3, r3, r2
 1943 011e 9BB2     		uxth	r3, r3
 1944 0120 1BB2     		sxth	r3, r3
 1945 0122 FB81     		strh	r3, [r7, #14]	@ movhi
 540:..\..\..\lvgl\version_6.1.2\lvgl\src\lv_core/lv_refr.c ****                 /* Get the union (common parts) of original mask (from obj)
 541:..\..\..\lvgl\version_6.1.2\lvgl\src\lv_core/lv_refr.c ****                  * and its child */
ARM GAS  C:\Users\tmj32\AppData\Local\Temp\cc8pVFHq.s 			page 47


 542:..\..\..\lvgl\version_6.1.2\lvgl\src\lv_core/lv_refr.c ****                 union_ok = lv_area_intersect(&mask_child, &obj_mask, &child_area);
 1946              		.loc 2 542 0
 1947 0124 07F10802 		add	r2, r7, #8
 1948 0128 07F12801 		add	r1, r7, #40
 1949 012c 07F11003 		add	r3, r7, #16
 1950 0130 1846     		mov	r0, r3
 1951 0132 FFF7FEFF 		bl	lv_area_intersect
 1952 0136 0346     		mov	r3, r0
 1953 0138 87F83130 		strb	r3, [r7, #49]
 543:..\..\..\lvgl\version_6.1.2\lvgl\src\lv_core/lv_refr.c **** 
 544:..\..\..\lvgl\version_6.1.2\lvgl\src\lv_core/lv_refr.c ****                 /*If the parent and the child has common area then refresh the child */
 545:..\..\..\lvgl\version_6.1.2\lvgl\src\lv_core/lv_refr.c ****                 if(union_ok) {
 1954              		.loc 2 545 0
 1955 013c 97F83130 		ldrb	r3, [r7, #49]	@ zero_extendqisi2
 1956 0140 002B     		cmp	r3, #0
 1957 0142 05D0     		beq	.L117
 546:..\..\..\lvgl\version_6.1.2\lvgl\src\lv_core/lv_refr.c ****                     /*Refresh the next children*/
 547:..\..\..\lvgl\version_6.1.2\lvgl\src\lv_core/lv_refr.c ****                     lv_refr_obj(child_p, &mask_child);
 1958              		.loc 2 547 0
 1959 0144 07F11003 		add	r3, r7, #16
 1960 0148 1946     		mov	r1, r3
 1961 014a 786B     		ldr	r0, [r7, #52]
 1962 014c FFF758FF 		bl	lv_refr_obj
 1963              	.L117:
 532:..\..\..\lvgl\version_6.1.2\lvgl\src\lv_core/lv_refr.c ****             {
 1964              		.loc 2 532 0 discriminator 2
 1965 0150 7B68     		ldr	r3, [r7, #4]
 1966 0152 0433     		adds	r3, r3, #4
 1967 0154 796B     		ldr	r1, [r7, #52]
 1968 0156 1846     		mov	r0, r3
 1969 0158 FFF7FEFF 		bl	lv_ll_get_prev
 1970 015c 7863     		str	r0, [r7, #52]
 1971              	.L116:
 532:..\..\..\lvgl\version_6.1.2\lvgl\src\lv_core/lv_refr.c ****             {
 1972              		.loc 2 532 0 is_stmt 0 discriminator 1
 1973 015e 7B6B     		ldr	r3, [r7, #52]
 1974 0160 002B     		cmp	r3, #0
 1975 0162 B6D1     		bne	.L118
 1976              	.L115:
 1977              	.LBE14:
 548:..\..\..\lvgl\version_6.1.2\lvgl\src\lv_core/lv_refr.c ****                 }
 549:..\..\..\lvgl\version_6.1.2\lvgl\src\lv_core/lv_refr.c ****             }
 550:..\..\..\lvgl\version_6.1.2\lvgl\src\lv_core/lv_refr.c ****         }
 551:..\..\..\lvgl\version_6.1.2\lvgl\src\lv_core/lv_refr.c **** 
 552:..\..\..\lvgl\version_6.1.2\lvgl\src\lv_core/lv_refr.c ****         /* If all the children are redrawn make 'post draw' design */
 553:..\..\..\lvgl\version_6.1.2\lvgl\src\lv_core/lv_refr.c ****         obj->design_cb(obj, &obj_ext_mask, LV_DESIGN_DRAW_POST);
 1978              		.loc 2 553 0 is_stmt 1
 1979 0164 7B68     		ldr	r3, [r7, #4]
 1980 0166 1B6A     		ldr	r3, [r3, #32]
 1981 0168 07F12001 		add	r1, r7, #32
 1982 016c 0122     		movs	r2, #1
 1983 016e 7868     		ldr	r0, [r7, #4]
 1984 0170 9847     		blx	r3
 1985 0172 00E0     		b	.L111
 1986              	.L119:
 497:..\..\..\lvgl\version_6.1.2\lvgl\src\lv_core/lv_refr.c **** 
 1987              		.loc 2 497 0
ARM GAS  C:\Users\tmj32\AppData\Local\Temp\cc8pVFHq.s 			page 48


 1988 0174 00BF     		nop
 1989              	.L111:
 554:..\..\..\lvgl\version_6.1.2\lvgl\src\lv_core/lv_refr.c ****     }
 555:..\..\..\lvgl\version_6.1.2\lvgl\src\lv_core/lv_refr.c **** }
 1990              		.loc 2 555 0
 1991 0176 3837     		adds	r7, r7, #56
 1992              		.cfi_def_cfa_offset 8
 1993 0178 BD46     		mov	sp, r7
 1994              		.cfi_def_cfa_register 13
 1995              		@ sp needed
 1996 017a 80BD     		pop	{r7, pc}
 1997              		.cfi_endproc
 1998              	.LFE47:
 1999              		.size	lv_refr_obj, .-lv_refr_obj
 2000              		.section	.text.lv_refr_vdb_flush,"ax",%progbits
 2001              		.align	2
 2002              		.thumb
 2003              		.thumb_func
 2004              		.type	lv_refr_vdb_flush, %function
 2005              	lv_refr_vdb_flush:
 2006              	.LFB48:
 556:..\..\..\lvgl\version_6.1.2\lvgl\src\lv_core/lv_refr.c **** 
 557:..\..\..\lvgl\version_6.1.2\lvgl\src\lv_core/lv_refr.c **** /**
 558:..\..\..\lvgl\version_6.1.2\lvgl\src\lv_core/lv_refr.c ****  * Flush the content of the VDB
 559:..\..\..\lvgl\version_6.1.2\lvgl\src\lv_core/lv_refr.c ****  */
 560:..\..\..\lvgl\version_6.1.2\lvgl\src\lv_core/lv_refr.c **** static void lv_refr_vdb_flush(void)
 561:..\..\..\lvgl\version_6.1.2\lvgl\src\lv_core/lv_refr.c **** {
 2007              		.loc 2 561 0
 2008              		.cfi_startproc
 2009              		@ args = 0, pretend = 0, frame = 8
 2010              		@ frame_needed = 1, uses_anonymous_args = 0
 2011 0000 80B5     		push	{r7, lr}
 2012              		.cfi_def_cfa_offset 8
 2013              		.cfi_offset 7, -8
 2014              		.cfi_offset 14, -4
 2015 0002 82B0     		sub	sp, sp, #8
 2016              		.cfi_def_cfa_offset 16
 2017 0004 00AF     		add	r7, sp, #0
 2018              		.cfi_def_cfa_register 7
 562:..\..\..\lvgl\version_6.1.2\lvgl\src\lv_core/lv_refr.c ****     lv_disp_buf_t * vdb = lv_disp_get_buf(disp_refr);
 2019              		.loc 2 562 0
 2020 0006 234B     		ldr	r3, .L127
 2021 0008 1B68     		ldr	r3, [r3]
 2022 000a 1846     		mov	r0, r3
 2023 000c FFF7FEFF 		bl	lv_disp_get_buf
 2024 0010 7860     		str	r0, [r7, #4]
 563:..\..\..\lvgl\version_6.1.2\lvgl\src\lv_core/lv_refr.c **** 
 564:..\..\..\lvgl\version_6.1.2\lvgl\src\lv_core/lv_refr.c ****     /*In double buffered mode wait until the other buffer is flushed before flushing the current
 565:..\..\..\lvgl\version_6.1.2\lvgl\src\lv_core/lv_refr.c ****      * one*/
 566:..\..\..\lvgl\version_6.1.2\lvgl\src\lv_core/lv_refr.c ****     if(lv_disp_is_double_buf(disp_refr)) {
 2025              		.loc 2 566 0
 2026 0012 204B     		ldr	r3, .L127
 2027 0014 1B68     		ldr	r3, [r3]
 2028 0016 1846     		mov	r0, r3
 2029 0018 FFF7FEFF 		bl	lv_disp_is_double_buf
 2030 001c 0346     		mov	r3, r0
 2031 001e 002B     		cmp	r3, #0
ARM GAS  C:\Users\tmj32\AppData\Local\Temp\cc8pVFHq.s 			page 49


 2032 0020 07D0     		beq	.L121
 567:..\..\..\lvgl\version_6.1.2\lvgl\src\lv_core/lv_refr.c ****         while(vdb->flushing)
 2033              		.loc 2 567 0
 2034 0022 00BF     		nop
 2035              	.L122:
 2036              		.loc 2 567 0 is_stmt 0 discriminator 1
 2037 0024 7B68     		ldr	r3, [r7, #4]
 2038 0026 9B69     		ldr	r3, [r3, #24]
 2039 0028 C3F30003 		ubfx	r3, r3, #0, #1
 2040 002c DBB2     		uxtb	r3, r3
 2041 002e 002B     		cmp	r3, #0
 2042 0030 F8D1     		bne	.L122
 2043              	.L121:
 568:..\..\..\lvgl\version_6.1.2\lvgl\src\lv_core/lv_refr.c ****             ;
 569:..\..\..\lvgl\version_6.1.2\lvgl\src\lv_core/lv_refr.c ****     }
 570:..\..\..\lvgl\version_6.1.2\lvgl\src\lv_core/lv_refr.c **** 
 571:..\..\..\lvgl\version_6.1.2\lvgl\src\lv_core/lv_refr.c ****     vdb->flushing = 1;
 2044              		.loc 2 571 0 is_stmt 1
 2045 0032 7A68     		ldr	r2, [r7, #4]
 2046 0034 137E     		ldrb	r3, [r2, #24]
 2047 0036 43F00103 		orr	r3, r3, #1
 2048 003a 1376     		strb	r3, [r2, #24]
 572:..\..\..\lvgl\version_6.1.2\lvgl\src\lv_core/lv_refr.c **** 
 573:..\..\..\lvgl\version_6.1.2\lvgl\src\lv_core/lv_refr.c ****     /*Flush the rendered content to the display*/
 574:..\..\..\lvgl\version_6.1.2\lvgl\src\lv_core/lv_refr.c ****     lv_disp_t * disp = lv_refr_get_disp_refreshing();
 2049              		.loc 2 574 0
 2050 003c FFF7FEFF 		bl	lv_refr_get_disp_refreshing
 2051 0040 3860     		str	r0, [r7]
 575:..\..\..\lvgl\version_6.1.2\lvgl\src\lv_core/lv_refr.c ****     if(disp->driver.flush_cb) disp->driver.flush_cb(&disp->driver, &vdb->area, vdb->buf_act);
 2052              		.loc 2 575 0
 2053 0042 3B68     		ldr	r3, [r7]
 2054 0044 DB68     		ldr	r3, [r3, #12]
 2055 0046 002B     		cmp	r3, #0
 2056 0048 08D0     		beq	.L123
 2057              		.loc 2 575 0 is_stmt 0 discriminator 1
 2058 004a 3B68     		ldr	r3, [r7]
 2059 004c DB68     		ldr	r3, [r3, #12]
 2060 004e 3868     		ldr	r0, [r7]
 2061 0050 7A68     		ldr	r2, [r7, #4]
 2062 0052 02F11001 		add	r1, r2, #16
 2063 0056 7A68     		ldr	r2, [r7, #4]
 2064 0058 9268     		ldr	r2, [r2, #8]
 2065 005a 9847     		blx	r3
 2066              	.L123:
 576:..\..\..\lvgl\version_6.1.2\lvgl\src\lv_core/lv_refr.c **** 
 577:..\..\..\lvgl\version_6.1.2\lvgl\src\lv_core/lv_refr.c ****     if(vdb->buf1 && vdb->buf2) {
 2067              		.loc 2 577 0 is_stmt 1
 2068 005c 7B68     		ldr	r3, [r7, #4]
 2069 005e 1B68     		ldr	r3, [r3]
 2070 0060 002B     		cmp	r3, #0
 2071 0062 12D0     		beq	.L126
 2072              		.loc 2 577 0 is_stmt 0 discriminator 1
 2073 0064 7B68     		ldr	r3, [r7, #4]
 2074 0066 5B68     		ldr	r3, [r3, #4]
 2075 0068 002B     		cmp	r3, #0
 2076 006a 0ED0     		beq	.L126
 578:..\..\..\lvgl\version_6.1.2\lvgl\src\lv_core/lv_refr.c ****         if(vdb->buf_act == vdb->buf1)
ARM GAS  C:\Users\tmj32\AppData\Local\Temp\cc8pVFHq.s 			page 50


 2077              		.loc 2 578 0 is_stmt 1
 2078 006c 7B68     		ldr	r3, [r7, #4]
 2079 006e 9A68     		ldr	r2, [r3, #8]
 2080 0070 7B68     		ldr	r3, [r7, #4]
 2081 0072 1B68     		ldr	r3, [r3]
 2082 0074 9A42     		cmp	r2, r3
 2083 0076 04D1     		bne	.L125
 579:..\..\..\lvgl\version_6.1.2\lvgl\src\lv_core/lv_refr.c ****             vdb->buf_act = vdb->buf2;
 2084              		.loc 2 579 0
 2085 0078 7B68     		ldr	r3, [r7, #4]
 2086 007a 5A68     		ldr	r2, [r3, #4]
 2087 007c 7B68     		ldr	r3, [r7, #4]
 2088 007e 9A60     		str	r2, [r3, #8]
 580:..\..\..\lvgl\version_6.1.2\lvgl\src\lv_core/lv_refr.c ****         else
 581:..\..\..\lvgl\version_6.1.2\lvgl\src\lv_core/lv_refr.c ****             vdb->buf_act = vdb->buf1;
 582:..\..\..\lvgl\version_6.1.2\lvgl\src\lv_core/lv_refr.c ****     }
 583:..\..\..\lvgl\version_6.1.2\lvgl\src\lv_core/lv_refr.c **** }
 2089              		.loc 2 583 0
 2090 0080 03E0     		b	.L126
 2091              	.L125:
 581:..\..\..\lvgl\version_6.1.2\lvgl\src\lv_core/lv_refr.c ****     }
 2092              		.loc 2 581 0
 2093 0082 7B68     		ldr	r3, [r7, #4]
 2094 0084 1A68     		ldr	r2, [r3]
 2095 0086 7B68     		ldr	r3, [r7, #4]
 2096 0088 9A60     		str	r2, [r3, #8]
 2097              	.L126:
 2098              		.loc 2 583 0
 2099 008a 00BF     		nop
 2100 008c 0837     		adds	r7, r7, #8
 2101              		.cfi_def_cfa_offset 8
 2102 008e BD46     		mov	sp, r7
 2103              		.cfi_def_cfa_register 13
 2104              		@ sp needed
 2105 0090 80BD     		pop	{r7, pc}
 2106              	.L128:
 2107 0092 00BF     		.align	2
 2108              	.L127:
 2109 0094 04000000 		.word	disp_refr
 2110              		.cfi_endproc
 2111              	.LFE48:
 2112              		.size	lv_refr_vdb_flush, .-lv_refr_vdb_flush
 2113              		.text
 2114              	.Letext0:
 2115              		.file 3 "c:\\program files (x86)\\cypress\\psoc creator\\4.3\\psoc creator\\import\\gnu\\arm\\5.4.
 2116              		.file 4 "c:\\program files (x86)\\cypress\\psoc creator\\4.3\\psoc creator\\import\\gnu\\arm\\5.4.
 2117              		.file 5 "..\\..\\..\\lvgl\\version_6.1.2\\lvgl\\src\\lv_core\\../../../lv_conf.h"
 2118              		.file 6 "..\\..\\..\\lvgl\\version_6.1.2\\lvgl\\src\\lv_core\\../lv_font/lv_font.h"
 2119              		.file 7 "..\\..\\..\\lvgl\\version_6.1.2\\lvgl\\src\\lv_core\\../lv_misc/lv_color.h"
 2120              		.file 8 "..\\..\\..\\lvgl\\version_6.1.2\\lvgl\\src\\lv_core\\lv_style.h"
 2121              		.file 9 "..\\..\\..\\lvgl\\version_6.1.2\\lvgl\\src\\lv_core\\../lv_misc/lv_types.h"
 2122              		.file 10 "..\\..\\..\\lvgl\\version_6.1.2\\lvgl\\src\\lv_core\\../lv_misc/lv_ll.h"
 2123              		.file 11 "..\\..\\..\\lvgl\\version_6.1.2\\lvgl\\src\\lv_core\\../lv_misc/lv_bidi.h"
 2124              		.file 12 "..\\..\\..\\lvgl\\version_6.1.2\\lvgl\\src\\lv_core\\../lv_hal/../lv_misc/lv_task.h"
 2125              		.file 13 "..\\..\\..\\lvgl\\version_6.1.2\\lvgl\\src\\lv_core\\../lv_hal/lv_hal_disp.h"
 2126              		.file 14 "..\\..\\..\\lvgl\\version_6.1.2\\lvgl\\src\\lv_core\\lv_obj.h"