ARM GAS  C:\Users\tmj32\AppData\Local\Temp\ccT5YJ50.s 			page 1


   1              		.syntax unified
   2              		.cpu cortex-m4
   3              		.eabi_attribute 27, 1
   4              		.fpu fpv4-sp-d16
   5              		.eabi_attribute 20, 1
   6              		.eabi_attribute 21, 1
   7              		.eabi_attribute 23, 3
   8              		.eabi_attribute 24, 1
   9              		.eabi_attribute 25, 1
  10              		.eabi_attribute 26, 1
  11              		.eabi_attribute 30, 6
  12              		.eabi_attribute 34, 1
  13              		.eabi_attribute 18, 4
  14              		.thumb
  15              		.syntax unified
  16              		.file	"lv_roller.c"
  17              		.text
  18              	.Ltext0:
  19              		.cfi_sections	.debug_frame
  20              		.section	.text.lv_font_get_line_height,"ax",%progbits
  21              		.align	2
  22              		.thumb
  23              		.thumb_func
  24              		.type	lv_font_get_line_height, %function
  25              	lv_font_get_line_height:
  26              	.LFB0:
  27              		.file 1 "..\\..\\..\\lvgl\\version_6.1.2\\lvgl\\src\\lv_objx\\../lv_core/../lv_font/lv_font.h"
   1:..\..\..\lvgl\version_6.1.2\lvgl\src\lv_objx\../lv_core/../lv_font/lv_font.h **** /**
   2:..\..\..\lvgl\version_6.1.2\lvgl\src\lv_objx\../lv_core/../lv_font/lv_font.h ****  * @file lv_font.h
   3:..\..\..\lvgl\version_6.1.2\lvgl\src\lv_objx\../lv_core/../lv_font/lv_font.h ****  *
   4:..\..\..\lvgl\version_6.1.2\lvgl\src\lv_objx\../lv_core/../lv_font/lv_font.h ****  */
   5:..\..\..\lvgl\version_6.1.2\lvgl\src\lv_objx\../lv_core/../lv_font/lv_font.h **** 
   6:..\..\..\lvgl\version_6.1.2\lvgl\src\lv_objx\../lv_core/../lv_font/lv_font.h **** #ifndef LV_FONT_H
   7:..\..\..\lvgl\version_6.1.2\lvgl\src\lv_objx\../lv_core/../lv_font/lv_font.h **** #define LV_FONT_H
   8:..\..\..\lvgl\version_6.1.2\lvgl\src\lv_objx\../lv_core/../lv_font/lv_font.h **** 
   9:..\..\..\lvgl\version_6.1.2\lvgl\src\lv_objx\../lv_core/../lv_font/lv_font.h **** #ifdef __cplusplus
  10:..\..\..\lvgl\version_6.1.2\lvgl\src\lv_objx\../lv_core/../lv_font/lv_font.h **** extern "C" {
  11:..\..\..\lvgl\version_6.1.2\lvgl\src\lv_objx\../lv_core/../lv_font/lv_font.h **** #endif
  12:..\..\..\lvgl\version_6.1.2\lvgl\src\lv_objx\../lv_core/../lv_font/lv_font.h **** 
  13:..\..\..\lvgl\version_6.1.2\lvgl\src\lv_objx\../lv_core/../lv_font/lv_font.h **** /*********************
  14:..\..\..\lvgl\version_6.1.2\lvgl\src\lv_objx\../lv_core/../lv_font/lv_font.h ****  *      INCLUDES
  15:..\..\..\lvgl\version_6.1.2\lvgl\src\lv_objx\../lv_core/../lv_font/lv_font.h ****  *********************/
  16:..\..\..\lvgl\version_6.1.2\lvgl\src\lv_objx\../lv_core/../lv_font/lv_font.h **** #ifdef LV_CONF_INCLUDE_SIMPLE
  17:..\..\..\lvgl\version_6.1.2\lvgl\src\lv_objx\../lv_core/../lv_font/lv_font.h **** #include "lv_conf.h"
  18:..\..\..\lvgl\version_6.1.2\lvgl\src\lv_objx\../lv_core/../lv_font/lv_font.h **** #else
  19:..\..\..\lvgl\version_6.1.2\lvgl\src\lv_objx\../lv_core/../lv_font/lv_font.h **** #include "../../../lv_conf.h"
  20:..\..\..\lvgl\version_6.1.2\lvgl\src\lv_objx\../lv_core/../lv_font/lv_font.h **** #endif
  21:..\..\..\lvgl\version_6.1.2\lvgl\src\lv_objx\../lv_core/../lv_font/lv_font.h **** 
  22:..\..\..\lvgl\version_6.1.2\lvgl\src\lv_objx\../lv_core/../lv_font/lv_font.h **** #include <stdint.h>
  23:..\..\..\lvgl\version_6.1.2\lvgl\src\lv_objx\../lv_core/../lv_font/lv_font.h **** #include <stddef.h>
  24:..\..\..\lvgl\version_6.1.2\lvgl\src\lv_objx\../lv_core/../lv_font/lv_font.h **** #include <stdbool.h>
  25:..\..\..\lvgl\version_6.1.2\lvgl\src\lv_objx\../lv_core/../lv_font/lv_font.h **** 
  26:..\..\..\lvgl\version_6.1.2\lvgl\src\lv_objx\../lv_core/../lv_font/lv_font.h **** #include "lv_symbol_def.h"
  27:..\..\..\lvgl\version_6.1.2\lvgl\src\lv_objx\../lv_core/../lv_font/lv_font.h **** 
  28:..\..\..\lvgl\version_6.1.2\lvgl\src\lv_objx\../lv_core/../lv_font/lv_font.h **** /*********************
  29:..\..\..\lvgl\version_6.1.2\lvgl\src\lv_objx\../lv_core/../lv_font/lv_font.h ****  *      DEFINES
  30:..\..\..\lvgl\version_6.1.2\lvgl\src\lv_objx\../lv_core/../lv_font/lv_font.h ****  *********************/
ARM GAS  C:\Users\tmj32\AppData\Local\Temp\ccT5YJ50.s 			page 2


  31:..\..\..\lvgl\version_6.1.2\lvgl\src\lv_objx\../lv_core/../lv_font/lv_font.h **** /*Number of fractional digits in the advanced width (`adv_w`) field of `lv_font_glyph_dsc_t`*/
  32:..\..\..\lvgl\version_6.1.2\lvgl\src\lv_objx\../lv_core/../lv_font/lv_font.h **** #define LV_FONT_WIDTH_FRACT_DIGIT       4
  33:..\..\..\lvgl\version_6.1.2\lvgl\src\lv_objx\../lv_core/../lv_font/lv_font.h **** 
  34:..\..\..\lvgl\version_6.1.2\lvgl\src\lv_objx\../lv_core/../lv_font/lv_font.h **** #define LV_FONT_KERN_POSITIVE        0
  35:..\..\..\lvgl\version_6.1.2\lvgl\src\lv_objx\../lv_core/../lv_font/lv_font.h **** #define LV_FONT_KERN_NEGATIVE        1
  36:..\..\..\lvgl\version_6.1.2\lvgl\src\lv_objx\../lv_core/../lv_font/lv_font.h **** 
  37:..\..\..\lvgl\version_6.1.2\lvgl\src\lv_objx\../lv_core/../lv_font/lv_font.h **** /**********************
  38:..\..\..\lvgl\version_6.1.2\lvgl\src\lv_objx\../lv_core/../lv_font/lv_font.h ****  *      TYPEDEFS
  39:..\..\..\lvgl\version_6.1.2\lvgl\src\lv_objx\../lv_core/../lv_font/lv_font.h ****  **********************/
  40:..\..\..\lvgl\version_6.1.2\lvgl\src\lv_objx\../lv_core/../lv_font/lv_font.h **** 
  41:..\..\..\lvgl\version_6.1.2\lvgl\src\lv_objx\../lv_core/../lv_font/lv_font.h **** /*------------------
  42:..\..\..\lvgl\version_6.1.2\lvgl\src\lv_objx\../lv_core/../lv_font/lv_font.h ****  * General types
  43:..\..\..\lvgl\version_6.1.2\lvgl\src\lv_objx\../lv_core/../lv_font/lv_font.h ****  *-----------------*/
  44:..\..\..\lvgl\version_6.1.2\lvgl\src\lv_objx\../lv_core/../lv_font/lv_font.h **** 
  45:..\..\..\lvgl\version_6.1.2\lvgl\src\lv_objx\../lv_core/../lv_font/lv_font.h **** /** Describes the properties of a glyph. */
  46:..\..\..\lvgl\version_6.1.2\lvgl\src\lv_objx\../lv_core/../lv_font/lv_font.h **** typedef struct
  47:..\..\..\lvgl\version_6.1.2\lvgl\src\lv_objx\../lv_core/../lv_font/lv_font.h **** {
  48:..\..\..\lvgl\version_6.1.2\lvgl\src\lv_objx\../lv_core/../lv_font/lv_font.h ****     uint16_t adv_w; /**< The glyph needs this space. Draw the next glyph after this width. 8 bit in
  49:..\..\..\lvgl\version_6.1.2\lvgl\src\lv_objx\../lv_core/../lv_font/lv_font.h ****     uint8_t box_w;  /**< Width of the glyph's bounding box*/
  50:..\..\..\lvgl\version_6.1.2\lvgl\src\lv_objx\../lv_core/../lv_font/lv_font.h ****     uint8_t box_h;  /**< Height of the glyph's bounding box*/
  51:..\..\..\lvgl\version_6.1.2\lvgl\src\lv_objx\../lv_core/../lv_font/lv_font.h ****     int8_t ofs_x;   /**< x offset of the bounding box*/
  52:..\..\..\lvgl\version_6.1.2\lvgl\src\lv_objx\../lv_core/../lv_font/lv_font.h ****     int8_t ofs_y;  /**< y offset of the bounding box*/
  53:..\..\..\lvgl\version_6.1.2\lvgl\src\lv_objx\../lv_core/../lv_font/lv_font.h ****     uint8_t bpp;   /**< Bit-per-pixel: 1, 2, 4, 8*/
  54:..\..\..\lvgl\version_6.1.2\lvgl\src\lv_objx\../lv_core/../lv_font/lv_font.h **** }lv_font_glyph_dsc_t;
  55:..\..\..\lvgl\version_6.1.2\lvgl\src\lv_objx\../lv_core/../lv_font/lv_font.h **** 
  56:..\..\..\lvgl\version_6.1.2\lvgl\src\lv_objx\../lv_core/../lv_font/lv_font.h **** 
  57:..\..\..\lvgl\version_6.1.2\lvgl\src\lv_objx\../lv_core/../lv_font/lv_font.h **** /** The bitmaps might be upscaled by 3 to achieve subpixel rendering. */
  58:..\..\..\lvgl\version_6.1.2\lvgl\src\lv_objx\../lv_core/../lv_font/lv_font.h **** enum {
  59:..\..\..\lvgl\version_6.1.2\lvgl\src\lv_objx\../lv_core/../lv_font/lv_font.h ****     LV_FONT_SUBPX_NONE,
  60:..\..\..\lvgl\version_6.1.2\lvgl\src\lv_objx\../lv_core/../lv_font/lv_font.h ****     LV_FONT_SUBPX_HOR,
  61:..\..\..\lvgl\version_6.1.2\lvgl\src\lv_objx\../lv_core/../lv_font/lv_font.h ****     LV_FONT_SUBPX_VER,
  62:..\..\..\lvgl\version_6.1.2\lvgl\src\lv_objx\../lv_core/../lv_font/lv_font.h ****     LV_FONT_SUBPX_BOTH,
  63:..\..\..\lvgl\version_6.1.2\lvgl\src\lv_objx\../lv_core/../lv_font/lv_font.h **** };
  64:..\..\..\lvgl\version_6.1.2\lvgl\src\lv_objx\../lv_core/../lv_font/lv_font.h **** 
  65:..\..\..\lvgl\version_6.1.2\lvgl\src\lv_objx\../lv_core/../lv_font/lv_font.h **** typedef uint8_t lv_font_subpx_t;
  66:..\..\..\lvgl\version_6.1.2\lvgl\src\lv_objx\../lv_core/../lv_font/lv_font.h **** 
  67:..\..\..\lvgl\version_6.1.2\lvgl\src\lv_objx\../lv_core/../lv_font/lv_font.h **** /** Describe the properties of a font*/
  68:..\..\..\lvgl\version_6.1.2\lvgl\src\lv_objx\../lv_core/../lv_font/lv_font.h **** typedef struct _lv_font_struct
  69:..\..\..\lvgl\version_6.1.2\lvgl\src\lv_objx\../lv_core/../lv_font/lv_font.h **** {
  70:..\..\..\lvgl\version_6.1.2\lvgl\src\lv_objx\../lv_core/../lv_font/lv_font.h ****     /** Get a glyph's  descriptor from a font*/
  71:..\..\..\lvgl\version_6.1.2\lvgl\src\lv_objx\../lv_core/../lv_font/lv_font.h ****     bool (*get_glyph_dsc)(const struct _lv_font_struct *, lv_font_glyph_dsc_t *, uint32_t letter, u
  72:..\..\..\lvgl\version_6.1.2\lvgl\src\lv_objx\../lv_core/../lv_font/lv_font.h **** 
  73:..\..\..\lvgl\version_6.1.2\lvgl\src\lv_objx\../lv_core/../lv_font/lv_font.h ****     /** Get a glyph's bitmap from a font*/
  74:..\..\..\lvgl\version_6.1.2\lvgl\src\lv_objx\../lv_core/../lv_font/lv_font.h ****     const uint8_t * (*get_glyph_bitmap)(const struct _lv_font_struct *, uint32_t);
  75:..\..\..\lvgl\version_6.1.2\lvgl\src\lv_objx\../lv_core/../lv_font/lv_font.h **** 
  76:..\..\..\lvgl\version_6.1.2\lvgl\src\lv_objx\../lv_core/../lv_font/lv_font.h ****     /*Pointer to the font in a font pack (must have the same line height)*/
  77:..\..\..\lvgl\version_6.1.2\lvgl\src\lv_objx\../lv_core/../lv_font/lv_font.h ****     uint8_t line_height;      /**< The real line height where any text fits*/
  78:..\..\..\lvgl\version_6.1.2\lvgl\src\lv_objx\../lv_core/../lv_font/lv_font.h ****     int8_t base_line;        /**< Base line measured from the top of the line_height*/
  79:..\..\..\lvgl\version_6.1.2\lvgl\src\lv_objx\../lv_core/../lv_font/lv_font.h ****     uint8_t subpx  :2;        /**< An element of `lv_font_subpx_t`*/
  80:..\..\..\lvgl\version_6.1.2\lvgl\src\lv_objx\../lv_core/../lv_font/lv_font.h ****     void * dsc;               /**< Store implementation specific or run_time data or caching here*/
  81:..\..\..\lvgl\version_6.1.2\lvgl\src\lv_objx\../lv_core/../lv_font/lv_font.h **** #if LV_USE_USER_DATA
  82:..\..\..\lvgl\version_6.1.2\lvgl\src\lv_objx\../lv_core/../lv_font/lv_font.h ****     lv_font_user_data_t user_data; /**< Custom user data for font. */
  83:..\..\..\lvgl\version_6.1.2\lvgl\src\lv_objx\../lv_core/../lv_font/lv_font.h **** #endif
  84:..\..\..\lvgl\version_6.1.2\lvgl\src\lv_objx\../lv_core/../lv_font/lv_font.h **** 
  85:..\..\..\lvgl\version_6.1.2\lvgl\src\lv_objx\../lv_core/../lv_font/lv_font.h **** 
  86:..\..\..\lvgl\version_6.1.2\lvgl\src\lv_objx\../lv_core/../lv_font/lv_font.h **** } lv_font_t;
  87:..\..\..\lvgl\version_6.1.2\lvgl\src\lv_objx\../lv_core/../lv_font/lv_font.h **** 
ARM GAS  C:\Users\tmj32\AppData\Local\Temp\ccT5YJ50.s 			page 3


  88:..\..\..\lvgl\version_6.1.2\lvgl\src\lv_objx\../lv_core/../lv_font/lv_font.h **** /**********************
  89:..\..\..\lvgl\version_6.1.2\lvgl\src\lv_objx\../lv_core/../lv_font/lv_font.h ****  * GLOBAL PROTOTYPES
  90:..\..\..\lvgl\version_6.1.2\lvgl\src\lv_objx\../lv_core/../lv_font/lv_font.h ****  **********************/
  91:..\..\..\lvgl\version_6.1.2\lvgl\src\lv_objx\../lv_core/../lv_font/lv_font.h **** 
  92:..\..\..\lvgl\version_6.1.2\lvgl\src\lv_objx\../lv_core/../lv_font/lv_font.h **** /**
  93:..\..\..\lvgl\version_6.1.2\lvgl\src\lv_objx\../lv_core/../lv_font/lv_font.h ****  * Return with the bitmap of a font.
  94:..\..\..\lvgl\version_6.1.2\lvgl\src\lv_objx\../lv_core/../lv_font/lv_font.h ****  * @param font_p pointer to a font
  95:..\..\..\lvgl\version_6.1.2\lvgl\src\lv_objx\../lv_core/../lv_font/lv_font.h ****  * @param letter an UNICODE character code
  96:..\..\..\lvgl\version_6.1.2\lvgl\src\lv_objx\../lv_core/../lv_font/lv_font.h ****  * @return  pointer to the bitmap of the letter
  97:..\..\..\lvgl\version_6.1.2\lvgl\src\lv_objx\../lv_core/../lv_font/lv_font.h ****  */
  98:..\..\..\lvgl\version_6.1.2\lvgl\src\lv_objx\../lv_core/../lv_font/lv_font.h **** const uint8_t * lv_font_get_glyph_bitmap(const lv_font_t * font_p, uint32_t letter);
  99:..\..\..\lvgl\version_6.1.2\lvgl\src\lv_objx\../lv_core/../lv_font/lv_font.h **** 
 100:..\..\..\lvgl\version_6.1.2\lvgl\src\lv_objx\../lv_core/../lv_font/lv_font.h **** /**
 101:..\..\..\lvgl\version_6.1.2\lvgl\src\lv_objx\../lv_core/../lv_font/lv_font.h ****  * Get the descriptor of a glyph
 102:..\..\..\lvgl\version_6.1.2\lvgl\src\lv_objx\../lv_core/../lv_font/lv_font.h ****  * @param font_p pointer to font
 103:..\..\..\lvgl\version_6.1.2\lvgl\src\lv_objx\../lv_core/../lv_font/lv_font.h ****  * @param dsc_out store the result descriptor here
 104:..\..\..\lvgl\version_6.1.2\lvgl\src\lv_objx\../lv_core/../lv_font/lv_font.h ****  * @param letter an UNICODE letter code
 105:..\..\..\lvgl\version_6.1.2\lvgl\src\lv_objx\../lv_core/../lv_font/lv_font.h ****  * @return true: descriptor is successfully loaded into `dsc_out`.
 106:..\..\..\lvgl\version_6.1.2\lvgl\src\lv_objx\../lv_core/../lv_font/lv_font.h ****  *         false: the letter was not found, no data is loaded to `dsc_out`
 107:..\..\..\lvgl\version_6.1.2\lvgl\src\lv_objx\../lv_core/../lv_font/lv_font.h ****  */
 108:..\..\..\lvgl\version_6.1.2\lvgl\src\lv_objx\../lv_core/../lv_font/lv_font.h **** bool lv_font_get_glyph_dsc(const lv_font_t * font_p, lv_font_glyph_dsc_t * dsc_out, uint32_t letter
 109:..\..\..\lvgl\version_6.1.2\lvgl\src\lv_objx\../lv_core/../lv_font/lv_font.h **** 
 110:..\..\..\lvgl\version_6.1.2\lvgl\src\lv_objx\../lv_core/../lv_font/lv_font.h **** /**
 111:..\..\..\lvgl\version_6.1.2\lvgl\src\lv_objx\../lv_core/../lv_font/lv_font.h ****  * Get the width of a glyph with kerning
 112:..\..\..\lvgl\version_6.1.2\lvgl\src\lv_objx\../lv_core/../lv_font/lv_font.h ****  * @param font pointer to a font
 113:..\..\..\lvgl\version_6.1.2\lvgl\src\lv_objx\../lv_core/../lv_font/lv_font.h ****  * @param letter an UNICODE letter
 114:..\..\..\lvgl\version_6.1.2\lvgl\src\lv_objx\../lv_core/../lv_font/lv_font.h ****  * @param letter_next the next letter after `letter`. Used for kerning
 115:..\..\..\lvgl\version_6.1.2\lvgl\src\lv_objx\../lv_core/../lv_font/lv_font.h ****  * @return the width of the glyph
 116:..\..\..\lvgl\version_6.1.2\lvgl\src\lv_objx\../lv_core/../lv_font/lv_font.h ****  */
 117:..\..\..\lvgl\version_6.1.2\lvgl\src\lv_objx\../lv_core/../lv_font/lv_font.h **** uint16_t lv_font_get_glyph_width(const lv_font_t * font, uint32_t letter, uint32_t letter_next);
 118:..\..\..\lvgl\version_6.1.2\lvgl\src\lv_objx\../lv_core/../lv_font/lv_font.h **** 
 119:..\..\..\lvgl\version_6.1.2\lvgl\src\lv_objx\../lv_core/../lv_font/lv_font.h **** /**
 120:..\..\..\lvgl\version_6.1.2\lvgl\src\lv_objx\../lv_core/../lv_font/lv_font.h ****  * Get the line height of a font. All characters fit into this height
 121:..\..\..\lvgl\version_6.1.2\lvgl\src\lv_objx\../lv_core/../lv_font/lv_font.h ****  * @param font_p pointer to a font
 122:..\..\..\lvgl\version_6.1.2\lvgl\src\lv_objx\../lv_core/../lv_font/lv_font.h ****  * @return the height of a font
 123:..\..\..\lvgl\version_6.1.2\lvgl\src\lv_objx\../lv_core/../lv_font/lv_font.h ****  */
 124:..\..\..\lvgl\version_6.1.2\lvgl\src\lv_objx\../lv_core/../lv_font/lv_font.h **** static inline uint8_t lv_font_get_line_height(const lv_font_t * font_p)
 125:..\..\..\lvgl\version_6.1.2\lvgl\src\lv_objx\../lv_core/../lv_font/lv_font.h **** {
  28              		.loc 1 125 0
  29              		.cfi_startproc
  30              		@ args = 0, pretend = 0, frame = 8
  31              		@ frame_needed = 1, uses_anonymous_args = 0
  32              		@ link register save eliminated.
  33 0000 80B4     		push	{r7}
  34              		.cfi_def_cfa_offset 4
  35              		.cfi_offset 7, -4
  36 0002 83B0     		sub	sp, sp, #12
  37              		.cfi_def_cfa_offset 16
  38 0004 00AF     		add	r7, sp, #0
  39              		.cfi_def_cfa_register 7
  40 0006 7860     		str	r0, [r7, #4]
 126:..\..\..\lvgl\version_6.1.2\lvgl\src\lv_objx\../lv_core/../lv_font/lv_font.h ****     return font_p->line_height;
  41              		.loc 1 126 0
  42 0008 7B68     		ldr	r3, [r7, #4]
  43 000a 1B7A     		ldrb	r3, [r3, #8]	@ zero_extendqisi2
 127:..\..\..\lvgl\version_6.1.2\lvgl\src\lv_objx\../lv_core/../lv_font/lv_font.h **** }
  44              		.loc 1 127 0
ARM GAS  C:\Users\tmj32\AppData\Local\Temp\ccT5YJ50.s 			page 4


  45 000c 1846     		mov	r0, r3
  46 000e 0C37     		adds	r7, r7, #12
  47              		.cfi_def_cfa_offset 4
  48 0010 BD46     		mov	sp, r7
  49              		.cfi_def_cfa_register 13
  50              		@ sp needed
  51 0012 5DF8047B 		ldr	r7, [sp], #4
  52              		.cfi_restore 7
  53              		.cfi_def_cfa_offset 0
  54 0016 7047     		bx	lr
  55              		.cfi_endproc
  56              	.LFE0:
  57              		.size	lv_font_get_line_height, .-lv_font_get_line_height
  58              		.section	.text.lv_area_copy,"ax",%progbits
  59              		.align	2
  60              		.thumb
  61              		.thumb_func
  62              		.type	lv_area_copy, %function
  63              	lv_area_copy:
  64              	.LFB10:
  65              		.file 2 "..\\..\\..\\lvgl\\version_6.1.2\\lvgl\\src\\lv_objx\\../lv_core/../lv_misc/lv_area.h"
   1:..\..\..\lvgl\version_6.1.2\lvgl\src\lv_objx\../lv_core/../lv_misc/lv_area.h **** /**
   2:..\..\..\lvgl\version_6.1.2\lvgl\src\lv_objx\../lv_core/../lv_misc/lv_area.h ****  * @file lv_area.h
   3:..\..\..\lvgl\version_6.1.2\lvgl\src\lv_objx\../lv_core/../lv_misc/lv_area.h ****  *
   4:..\..\..\lvgl\version_6.1.2\lvgl\src\lv_objx\../lv_core/../lv_misc/lv_area.h ****  */
   5:..\..\..\lvgl\version_6.1.2\lvgl\src\lv_objx\../lv_core/../lv_misc/lv_area.h **** 
   6:..\..\..\lvgl\version_6.1.2\lvgl\src\lv_objx\../lv_core/../lv_misc/lv_area.h **** #ifndef LV_AREA_H
   7:..\..\..\lvgl\version_6.1.2\lvgl\src\lv_objx\../lv_core/../lv_misc/lv_area.h **** #define LV_AREA_H
   8:..\..\..\lvgl\version_6.1.2\lvgl\src\lv_objx\../lv_core/../lv_misc/lv_area.h **** 
   9:..\..\..\lvgl\version_6.1.2\lvgl\src\lv_objx\../lv_core/../lv_misc/lv_area.h **** #ifdef __cplusplus
  10:..\..\..\lvgl\version_6.1.2\lvgl\src\lv_objx\../lv_core/../lv_misc/lv_area.h **** extern "C" {
  11:..\..\..\lvgl\version_6.1.2\lvgl\src\lv_objx\../lv_core/../lv_misc/lv_area.h **** #endif
  12:..\..\..\lvgl\version_6.1.2\lvgl\src\lv_objx\../lv_core/../lv_misc/lv_area.h **** 
  13:..\..\..\lvgl\version_6.1.2\lvgl\src\lv_objx\../lv_core/../lv_misc/lv_area.h **** /*********************
  14:..\..\..\lvgl\version_6.1.2\lvgl\src\lv_objx\../lv_core/../lv_misc/lv_area.h ****  *      INCLUDES
  15:..\..\..\lvgl\version_6.1.2\lvgl\src\lv_objx\../lv_core/../lv_misc/lv_area.h ****  *********************/
  16:..\..\..\lvgl\version_6.1.2\lvgl\src\lv_objx\../lv_core/../lv_misc/lv_area.h **** #include <string.h>
  17:..\..\..\lvgl\version_6.1.2\lvgl\src\lv_objx\../lv_core/../lv_misc/lv_area.h **** #include <stdbool.h>
  18:..\..\..\lvgl\version_6.1.2\lvgl\src\lv_objx\../lv_core/../lv_misc/lv_area.h **** #include <stdint.h>
  19:..\..\..\lvgl\version_6.1.2\lvgl\src\lv_objx\../lv_core/../lv_misc/lv_area.h **** #ifdef LV_CONF_INCLUDE_SIMPLE
  20:..\..\..\lvgl\version_6.1.2\lvgl\src\lv_objx\../lv_core/../lv_misc/lv_area.h **** #include "lv_conf.h"
  21:..\..\..\lvgl\version_6.1.2\lvgl\src\lv_objx\../lv_core/../lv_misc/lv_area.h **** #else
  22:..\..\..\lvgl\version_6.1.2\lvgl\src\lv_objx\../lv_core/../lv_misc/lv_area.h **** #include "../../../lv_conf.h"
  23:..\..\..\lvgl\version_6.1.2\lvgl\src\lv_objx\../lv_core/../lv_misc/lv_area.h **** #endif
  24:..\..\..\lvgl\version_6.1.2\lvgl\src\lv_objx\../lv_core/../lv_misc/lv_area.h **** 
  25:..\..\..\lvgl\version_6.1.2\lvgl\src\lv_objx\../lv_core/../lv_misc/lv_area.h **** /*********************
  26:..\..\..\lvgl\version_6.1.2\lvgl\src\lv_objx\../lv_core/../lv_misc/lv_area.h ****  *      DEFINES
  27:..\..\..\lvgl\version_6.1.2\lvgl\src\lv_objx\../lv_core/../lv_misc/lv_area.h ****  *********************/
  28:..\..\..\lvgl\version_6.1.2\lvgl\src\lv_objx\../lv_core/../lv_misc/lv_area.h **** /*To avoid overflow don't let the max ranges (reduce with 1000) */
  29:..\..\..\lvgl\version_6.1.2\lvgl\src\lv_objx\../lv_core/../lv_misc/lv_area.h **** #define LV_COORD_MAX ((lv_coord_t)((uint32_t)((uint32_t)1 << (8 * sizeof(lv_coord_t) - 1)) - 1000))
  30:..\..\..\lvgl\version_6.1.2\lvgl\src\lv_objx\../lv_core/../lv_misc/lv_area.h **** #define LV_COORD_MIN (-LV_COORD_MAX)
  31:..\..\..\lvgl\version_6.1.2\lvgl\src\lv_objx\../lv_core/../lv_misc/lv_area.h **** 
  32:..\..\..\lvgl\version_6.1.2\lvgl\src\lv_objx\../lv_core/../lv_misc/lv_area.h **** LV_EXPORT_CONST_INT(LV_COORD_MAX);
  33:..\..\..\lvgl\version_6.1.2\lvgl\src\lv_objx\../lv_core/../lv_misc/lv_area.h **** LV_EXPORT_CONST_INT(LV_COORD_MIN);
  34:..\..\..\lvgl\version_6.1.2\lvgl\src\lv_objx\../lv_core/../lv_misc/lv_area.h **** 
  35:..\..\..\lvgl\version_6.1.2\lvgl\src\lv_objx\../lv_core/../lv_misc/lv_area.h **** /**********************
  36:..\..\..\lvgl\version_6.1.2\lvgl\src\lv_objx\../lv_core/../lv_misc/lv_area.h ****  *      TYPEDEFS
ARM GAS  C:\Users\tmj32\AppData\Local\Temp\ccT5YJ50.s 			page 5


  37:..\..\..\lvgl\version_6.1.2\lvgl\src\lv_objx\../lv_core/../lv_misc/lv_area.h ****  **********************/
  38:..\..\..\lvgl\version_6.1.2\lvgl\src\lv_objx\../lv_core/../lv_misc/lv_area.h **** 
  39:..\..\..\lvgl\version_6.1.2\lvgl\src\lv_objx\../lv_core/../lv_misc/lv_area.h **** /**
  40:..\..\..\lvgl\version_6.1.2\lvgl\src\lv_objx\../lv_core/../lv_misc/lv_area.h ****  * Represents a point on the screen.
  41:..\..\..\lvgl\version_6.1.2\lvgl\src\lv_objx\../lv_core/../lv_misc/lv_area.h ****  */
  42:..\..\..\lvgl\version_6.1.2\lvgl\src\lv_objx\../lv_core/../lv_misc/lv_area.h **** typedef struct
  43:..\..\..\lvgl\version_6.1.2\lvgl\src\lv_objx\../lv_core/../lv_misc/lv_area.h **** {
  44:..\..\..\lvgl\version_6.1.2\lvgl\src\lv_objx\../lv_core/../lv_misc/lv_area.h ****     lv_coord_t x;
  45:..\..\..\lvgl\version_6.1.2\lvgl\src\lv_objx\../lv_core/../lv_misc/lv_area.h ****     lv_coord_t y;
  46:..\..\..\lvgl\version_6.1.2\lvgl\src\lv_objx\../lv_core/../lv_misc/lv_area.h **** } lv_point_t;
  47:..\..\..\lvgl\version_6.1.2\lvgl\src\lv_objx\../lv_core/../lv_misc/lv_area.h **** 
  48:..\..\..\lvgl\version_6.1.2\lvgl\src\lv_objx\../lv_core/../lv_misc/lv_area.h **** /** Represents an area of the screen. */
  49:..\..\..\lvgl\version_6.1.2\lvgl\src\lv_objx\../lv_core/../lv_misc/lv_area.h **** typedef struct
  50:..\..\..\lvgl\version_6.1.2\lvgl\src\lv_objx\../lv_core/../lv_misc/lv_area.h **** {
  51:..\..\..\lvgl\version_6.1.2\lvgl\src\lv_objx\../lv_core/../lv_misc/lv_area.h ****     lv_coord_t x1;
  52:..\..\..\lvgl\version_6.1.2\lvgl\src\lv_objx\../lv_core/../lv_misc/lv_area.h ****     lv_coord_t y1;
  53:..\..\..\lvgl\version_6.1.2\lvgl\src\lv_objx\../lv_core/../lv_misc/lv_area.h ****     lv_coord_t x2;
  54:..\..\..\lvgl\version_6.1.2\lvgl\src\lv_objx\../lv_core/../lv_misc/lv_area.h ****     lv_coord_t y2;
  55:..\..\..\lvgl\version_6.1.2\lvgl\src\lv_objx\../lv_core/../lv_misc/lv_area.h **** } lv_area_t;
  56:..\..\..\lvgl\version_6.1.2\lvgl\src\lv_objx\../lv_core/../lv_misc/lv_area.h **** 
  57:..\..\..\lvgl\version_6.1.2\lvgl\src\lv_objx\../lv_core/../lv_misc/lv_area.h **** /**********************
  58:..\..\..\lvgl\version_6.1.2\lvgl\src\lv_objx\../lv_core/../lv_misc/lv_area.h ****  * GLOBAL PROTOTYPES
  59:..\..\..\lvgl\version_6.1.2\lvgl\src\lv_objx\../lv_core/../lv_misc/lv_area.h ****  **********************/
  60:..\..\..\lvgl\version_6.1.2\lvgl\src\lv_objx\../lv_core/../lv_misc/lv_area.h **** 
  61:..\..\..\lvgl\version_6.1.2\lvgl\src\lv_objx\../lv_core/../lv_misc/lv_area.h **** /**
  62:..\..\..\lvgl\version_6.1.2\lvgl\src\lv_objx\../lv_core/../lv_misc/lv_area.h ****  * Initialize an area
  63:..\..\..\lvgl\version_6.1.2\lvgl\src\lv_objx\../lv_core/../lv_misc/lv_area.h ****  * @param area_p pointer to an area
  64:..\..\..\lvgl\version_6.1.2\lvgl\src\lv_objx\../lv_core/../lv_misc/lv_area.h ****  * @param x1 left coordinate of the area
  65:..\..\..\lvgl\version_6.1.2\lvgl\src\lv_objx\../lv_core/../lv_misc/lv_area.h ****  * @param y1 top coordinate of the area
  66:..\..\..\lvgl\version_6.1.2\lvgl\src\lv_objx\../lv_core/../lv_misc/lv_area.h ****  * @param x2 right coordinate of the area
  67:..\..\..\lvgl\version_6.1.2\lvgl\src\lv_objx\../lv_core/../lv_misc/lv_area.h ****  * @param y2 bottom coordinate of the area
  68:..\..\..\lvgl\version_6.1.2\lvgl\src\lv_objx\../lv_core/../lv_misc/lv_area.h ****  */
  69:..\..\..\lvgl\version_6.1.2\lvgl\src\lv_objx\../lv_core/../lv_misc/lv_area.h **** void lv_area_set(lv_area_t * area_p, lv_coord_t x1, lv_coord_t y1, lv_coord_t x2, lv_coord_t y2);
  70:..\..\..\lvgl\version_6.1.2\lvgl\src\lv_objx\../lv_core/../lv_misc/lv_area.h **** 
  71:..\..\..\lvgl\version_6.1.2\lvgl\src\lv_objx\../lv_core/../lv_misc/lv_area.h **** /**
  72:..\..\..\lvgl\version_6.1.2\lvgl\src\lv_objx\../lv_core/../lv_misc/lv_area.h ****  * Copy an area
  73:..\..\..\lvgl\version_6.1.2\lvgl\src\lv_objx\../lv_core/../lv_misc/lv_area.h ****  * @param dest pointer to the destination area
  74:..\..\..\lvgl\version_6.1.2\lvgl\src\lv_objx\../lv_core/../lv_misc/lv_area.h ****  * @param src pointer to the source area
  75:..\..\..\lvgl\version_6.1.2\lvgl\src\lv_objx\../lv_core/../lv_misc/lv_area.h ****  */
  76:..\..\..\lvgl\version_6.1.2\lvgl\src\lv_objx\../lv_core/../lv_misc/lv_area.h **** inline static void lv_area_copy(lv_area_t * dest, const lv_area_t * src)
  77:..\..\..\lvgl\version_6.1.2\lvgl\src\lv_objx\../lv_core/../lv_misc/lv_area.h **** {
  66              		.loc 2 77 0
  67              		.cfi_startproc
  68              		@ args = 0, pretend = 0, frame = 8
  69              		@ frame_needed = 1, uses_anonymous_args = 0
  70 0000 80B5     		push	{r7, lr}
  71              		.cfi_def_cfa_offset 8
  72              		.cfi_offset 7, -8
  73              		.cfi_offset 14, -4
  74 0002 82B0     		sub	sp, sp, #8
  75              		.cfi_def_cfa_offset 16
  76 0004 00AF     		add	r7, sp, #0
  77              		.cfi_def_cfa_register 7
  78 0006 7860     		str	r0, [r7, #4]
  79 0008 3960     		str	r1, [r7]
  78:..\..\..\lvgl\version_6.1.2\lvgl\src\lv_objx\../lv_core/../lv_misc/lv_area.h ****     memcpy(dest, src, sizeof(lv_area_t));
  80              		.loc 2 78 0
ARM GAS  C:\Users\tmj32\AppData\Local\Temp\ccT5YJ50.s 			page 6


  81 000a 0822     		movs	r2, #8
  82 000c 3968     		ldr	r1, [r7]
  83 000e 7868     		ldr	r0, [r7, #4]
  84 0010 FFF7FEFF 		bl	memcpy
  79:..\..\..\lvgl\version_6.1.2\lvgl\src\lv_objx\../lv_core/../lv_misc/lv_area.h **** }
  85              		.loc 2 79 0
  86 0014 00BF     		nop
  87 0016 0837     		adds	r7, r7, #8
  88              		.cfi_def_cfa_offset 8
  89 0018 BD46     		mov	sp, r7
  90              		.cfi_def_cfa_register 13
  91              		@ sp needed
  92 001a 80BD     		pop	{r7, pc}
  93              		.cfi_endproc
  94              	.LFE10:
  95              		.size	lv_area_copy, .-lv_area_copy
  96              		.section	.text.lv_area_get_width,"ax",%progbits
  97              		.align	2
  98              		.thumb
  99              		.thumb_func
 100              		.type	lv_area_get_width, %function
 101              	lv_area_get_width:
 102              	.LFB11:
  80:..\..\..\lvgl\version_6.1.2\lvgl\src\lv_objx\../lv_core/../lv_misc/lv_area.h **** 
  81:..\..\..\lvgl\version_6.1.2\lvgl\src\lv_objx\../lv_core/../lv_misc/lv_area.h **** /**
  82:..\..\..\lvgl\version_6.1.2\lvgl\src\lv_objx\../lv_core/../lv_misc/lv_area.h ****  * Get the width of an area
  83:..\..\..\lvgl\version_6.1.2\lvgl\src\lv_objx\../lv_core/../lv_misc/lv_area.h ****  * @param area_p pointer to an area
  84:..\..\..\lvgl\version_6.1.2\lvgl\src\lv_objx\../lv_core/../lv_misc/lv_area.h ****  * @return the width of the area (if x1 == x2 -> width = 1)
  85:..\..\..\lvgl\version_6.1.2\lvgl\src\lv_objx\../lv_core/../lv_misc/lv_area.h ****  */
  86:..\..\..\lvgl\version_6.1.2\lvgl\src\lv_objx\../lv_core/../lv_misc/lv_area.h **** static inline lv_coord_t lv_area_get_width(const lv_area_t * area_p)
  87:..\..\..\lvgl\version_6.1.2\lvgl\src\lv_objx\../lv_core/../lv_misc/lv_area.h **** {
 103              		.loc 2 87 0
 104              		.cfi_startproc
 105              		@ args = 0, pretend = 0, frame = 8
 106              		@ frame_needed = 1, uses_anonymous_args = 0
 107              		@ link register save eliminated.
 108 0000 80B4     		push	{r7}
 109              		.cfi_def_cfa_offset 4
 110              		.cfi_offset 7, -4
 111 0002 83B0     		sub	sp, sp, #12
 112              		.cfi_def_cfa_offset 16
 113 0004 00AF     		add	r7, sp, #0
 114              		.cfi_def_cfa_register 7
 115 0006 7860     		str	r0, [r7, #4]
  88:..\..\..\lvgl\version_6.1.2\lvgl\src\lv_objx\../lv_core/../lv_misc/lv_area.h ****     return (lv_coord_t)(area_p->x2 - area_p->x1 + 1);
 116              		.loc 2 88 0
 117 0008 7B68     		ldr	r3, [r7, #4]
 118 000a B3F90430 		ldrsh	r3, [r3, #4]
 119 000e 9AB2     		uxth	r2, r3
 120 0010 7B68     		ldr	r3, [r7, #4]
 121 0012 B3F90030 		ldrsh	r3, [r3]
 122 0016 9BB2     		uxth	r3, r3
 123 0018 D31A     		subs	r3, r2, r3
 124 001a 9BB2     		uxth	r3, r3
 125 001c 0133     		adds	r3, r3, #1
 126 001e 9BB2     		uxth	r3, r3
 127 0020 1BB2     		sxth	r3, r3
ARM GAS  C:\Users\tmj32\AppData\Local\Temp\ccT5YJ50.s 			page 7


  89:..\..\..\lvgl\version_6.1.2\lvgl\src\lv_objx\../lv_core/../lv_misc/lv_area.h **** }
 128              		.loc 2 89 0
 129 0022 1846     		mov	r0, r3
 130 0024 0C37     		adds	r7, r7, #12
 131              		.cfi_def_cfa_offset 4
 132 0026 BD46     		mov	sp, r7
 133              		.cfi_def_cfa_register 13
 134              		@ sp needed
 135 0028 5DF8047B 		ldr	r7, [sp], #4
 136              		.cfi_restore 7
 137              		.cfi_def_cfa_offset 0
 138 002c 7047     		bx	lr
 139              		.cfi_endproc
 140              	.LFE11:
 141              		.size	lv_area_get_width, .-lv_area_get_width
 142 002e 00BF     		.section	.text.lv_area_get_height,"ax",%progbits
 143              		.align	2
 144              		.thumb
 145              		.thumb_func
 146              		.type	lv_area_get_height, %function
 147              	lv_area_get_height:
 148              	.LFB12:
  90:..\..\..\lvgl\version_6.1.2\lvgl\src\lv_objx\../lv_core/../lv_misc/lv_area.h **** 
  91:..\..\..\lvgl\version_6.1.2\lvgl\src\lv_objx\../lv_core/../lv_misc/lv_area.h **** /**
  92:..\..\..\lvgl\version_6.1.2\lvgl\src\lv_objx\../lv_core/../lv_misc/lv_area.h ****  * Get the height of an area
  93:..\..\..\lvgl\version_6.1.2\lvgl\src\lv_objx\../lv_core/../lv_misc/lv_area.h ****  * @param area_p pointer to an area
  94:..\..\..\lvgl\version_6.1.2\lvgl\src\lv_objx\../lv_core/../lv_misc/lv_area.h ****  * @return the height of the area (if y1 == y2 -> height = 1)
  95:..\..\..\lvgl\version_6.1.2\lvgl\src\lv_objx\../lv_core/../lv_misc/lv_area.h ****  */
  96:..\..\..\lvgl\version_6.1.2\lvgl\src\lv_objx\../lv_core/../lv_misc/lv_area.h **** static inline lv_coord_t lv_area_get_height(const lv_area_t * area_p)
  97:..\..\..\lvgl\version_6.1.2\lvgl\src\lv_objx\../lv_core/../lv_misc/lv_area.h **** {
 149              		.loc 2 97 0
 150              		.cfi_startproc
 151              		@ args = 0, pretend = 0, frame = 8
 152              		@ frame_needed = 1, uses_anonymous_args = 0
 153              		@ link register save eliminated.
 154 0000 80B4     		push	{r7}
 155              		.cfi_def_cfa_offset 4
 156              		.cfi_offset 7, -4
 157 0002 83B0     		sub	sp, sp, #12
 158              		.cfi_def_cfa_offset 16
 159 0004 00AF     		add	r7, sp, #0
 160              		.cfi_def_cfa_register 7
 161 0006 7860     		str	r0, [r7, #4]
  98:..\..\..\lvgl\version_6.1.2\lvgl\src\lv_objx\../lv_core/../lv_misc/lv_area.h ****     return (lv_coord_t)(area_p->y2 - area_p->y1 + 1);
 162              		.loc 2 98 0
 163 0008 7B68     		ldr	r3, [r7, #4]
 164 000a B3F90630 		ldrsh	r3, [r3, #6]
 165 000e 9AB2     		uxth	r2, r3
 166 0010 7B68     		ldr	r3, [r7, #4]
 167 0012 B3F90230 		ldrsh	r3, [r3, #2]
 168 0016 9BB2     		uxth	r3, r3
 169 0018 D31A     		subs	r3, r2, r3
 170 001a 9BB2     		uxth	r3, r3
 171 001c 0133     		adds	r3, r3, #1
 172 001e 9BB2     		uxth	r3, r3
 173 0020 1BB2     		sxth	r3, r3
  99:..\..\..\lvgl\version_6.1.2\lvgl\src\lv_objx\../lv_core/../lv_misc/lv_area.h **** }
ARM GAS  C:\Users\tmj32\AppData\Local\Temp\ccT5YJ50.s 			page 8


 174              		.loc 2 99 0
 175 0022 1846     		mov	r0, r3
 176 0024 0C37     		adds	r7, r7, #12
 177              		.cfi_def_cfa_offset 4
 178 0026 BD46     		mov	sp, r7
 179              		.cfi_def_cfa_register 13
 180              		@ sp needed
 181 0028 5DF8047B 		ldr	r7, [sp], #4
 182              		.cfi_restore 7
 183              		.cfi_def_cfa_offset 0
 184 002c 7047     		bx	lr
 185              		.cfi_endproc
 186              	.LFE12:
 187              		.size	lv_area_get_height, .-lv_area_get_height
 188 002e 00BF     		.section	.text.lv_cont_set_fit2,"ax",%progbits
 189              		.align	2
 190              		.thumb
 191              		.thumb_func
 192              		.type	lv_cont_set_fit2, %function
 193              	lv_cont_set_fit2:
 194              	.LFB31:
 195              		.file 3 "..\\..\\..\\lvgl\\version_6.1.2\\lvgl\\src\\lv_objx\\../lv_objx/lv_cont.h"
   1:..\..\..\lvgl\version_6.1.2\lvgl\src\lv_objx\../lv_objx/lv_cont.h **** /**
   2:..\..\..\lvgl\version_6.1.2\lvgl\src\lv_objx\../lv_objx/lv_cont.h ****  * @file lv_cont.h
   3:..\..\..\lvgl\version_6.1.2\lvgl\src\lv_objx\../lv_objx/lv_cont.h ****  *
   4:..\..\..\lvgl\version_6.1.2\lvgl\src\lv_objx\../lv_objx/lv_cont.h ****  */
   5:..\..\..\lvgl\version_6.1.2\lvgl\src\lv_objx\../lv_objx/lv_cont.h **** 
   6:..\..\..\lvgl\version_6.1.2\lvgl\src\lv_objx\../lv_objx/lv_cont.h **** #ifndef LV_CONT_H
   7:..\..\..\lvgl\version_6.1.2\lvgl\src\lv_objx\../lv_objx/lv_cont.h **** #define LV_CONT_H
   8:..\..\..\lvgl\version_6.1.2\lvgl\src\lv_objx\../lv_objx/lv_cont.h **** 
   9:..\..\..\lvgl\version_6.1.2\lvgl\src\lv_objx\../lv_objx/lv_cont.h **** #ifdef __cplusplus
  10:..\..\..\lvgl\version_6.1.2\lvgl\src\lv_objx\../lv_objx/lv_cont.h **** extern "C" {
  11:..\..\..\lvgl\version_6.1.2\lvgl\src\lv_objx\../lv_objx/lv_cont.h **** #endif
  12:..\..\..\lvgl\version_6.1.2\lvgl\src\lv_objx\../lv_objx/lv_cont.h **** 
  13:..\..\..\lvgl\version_6.1.2\lvgl\src\lv_objx\../lv_objx/lv_cont.h **** /*********************
  14:..\..\..\lvgl\version_6.1.2\lvgl\src\lv_objx\../lv_objx/lv_cont.h ****  *      INCLUDES
  15:..\..\..\lvgl\version_6.1.2\lvgl\src\lv_objx\../lv_objx/lv_cont.h ****  *********************/
  16:..\..\..\lvgl\version_6.1.2\lvgl\src\lv_objx\../lv_objx/lv_cont.h **** #ifdef LV_CONF_INCLUDE_SIMPLE
  17:..\..\..\lvgl\version_6.1.2\lvgl\src\lv_objx\../lv_objx/lv_cont.h **** #include "lv_conf.h"
  18:..\..\..\lvgl\version_6.1.2\lvgl\src\lv_objx\../lv_objx/lv_cont.h **** #else
  19:..\..\..\lvgl\version_6.1.2\lvgl\src\lv_objx\../lv_objx/lv_cont.h **** #include "../../../lv_conf.h"
  20:..\..\..\lvgl\version_6.1.2\lvgl\src\lv_objx\../lv_objx/lv_cont.h **** #endif
  21:..\..\..\lvgl\version_6.1.2\lvgl\src\lv_objx\../lv_objx/lv_cont.h **** 
  22:..\..\..\lvgl\version_6.1.2\lvgl\src\lv_objx\../lv_objx/lv_cont.h **** #if LV_USE_CONT != 0
  23:..\..\..\lvgl\version_6.1.2\lvgl\src\lv_objx\../lv_objx/lv_cont.h **** 
  24:..\..\..\lvgl\version_6.1.2\lvgl\src\lv_objx\../lv_objx/lv_cont.h **** #include "../lv_core/lv_obj.h"
  25:..\..\..\lvgl\version_6.1.2\lvgl\src\lv_objx\../lv_objx/lv_cont.h **** 
  26:..\..\..\lvgl\version_6.1.2\lvgl\src\lv_objx\../lv_objx/lv_cont.h **** /*********************
  27:..\..\..\lvgl\version_6.1.2\lvgl\src\lv_objx\../lv_objx/lv_cont.h ****  *      DEFINES
  28:..\..\..\lvgl\version_6.1.2\lvgl\src\lv_objx\../lv_objx/lv_cont.h ****  *********************/
  29:..\..\..\lvgl\version_6.1.2\lvgl\src\lv_objx\../lv_objx/lv_cont.h **** 
  30:..\..\..\lvgl\version_6.1.2\lvgl\src\lv_objx\../lv_objx/lv_cont.h **** /**********************
  31:..\..\..\lvgl\version_6.1.2\lvgl\src\lv_objx\../lv_objx/lv_cont.h ****  *      TYPEDEFS
  32:..\..\..\lvgl\version_6.1.2\lvgl\src\lv_objx\../lv_objx/lv_cont.h ****  **********************/
  33:..\..\..\lvgl\version_6.1.2\lvgl\src\lv_objx\../lv_objx/lv_cont.h **** 
  34:..\..\..\lvgl\version_6.1.2\lvgl\src\lv_objx\../lv_objx/lv_cont.h **** /** Container layout options*/
  35:..\..\..\lvgl\version_6.1.2\lvgl\src\lv_objx\../lv_objx/lv_cont.h **** enum {
ARM GAS  C:\Users\tmj32\AppData\Local\Temp\ccT5YJ50.s 			page 9


  36:..\..\..\lvgl\version_6.1.2\lvgl\src\lv_objx\../lv_objx/lv_cont.h ****     LV_LAYOUT_OFF = 0, /**< No layout */
  37:..\..\..\lvgl\version_6.1.2\lvgl\src\lv_objx\../lv_objx/lv_cont.h ****     LV_LAYOUT_CENTER, /**< Center objects */
  38:..\..\..\lvgl\version_6.1.2\lvgl\src\lv_objx\../lv_objx/lv_cont.h ****     LV_LAYOUT_COL_L,  /**< Column left align*/
  39:..\..\..\lvgl\version_6.1.2\lvgl\src\lv_objx\../lv_objx/lv_cont.h ****     LV_LAYOUT_COL_M,  /**< Column middle align*/
  40:..\..\..\lvgl\version_6.1.2\lvgl\src\lv_objx\../lv_objx/lv_cont.h ****     LV_LAYOUT_COL_R,  /**< Column right align*/
  41:..\..\..\lvgl\version_6.1.2\lvgl\src\lv_objx\../lv_objx/lv_cont.h ****     LV_LAYOUT_ROW_T,  /**< Row top align*/
  42:..\..\..\lvgl\version_6.1.2\lvgl\src\lv_objx\../lv_objx/lv_cont.h ****     LV_LAYOUT_ROW_M,  /**< Row middle align*/
  43:..\..\..\lvgl\version_6.1.2\lvgl\src\lv_objx\../lv_objx/lv_cont.h ****     LV_LAYOUT_ROW_B,  /**< Row bottom align*/
  44:..\..\..\lvgl\version_6.1.2\lvgl\src\lv_objx\../lv_objx/lv_cont.h ****     LV_LAYOUT_PRETTY, /**< Put as many object as possible in row and begin a new row*/
  45:..\..\..\lvgl\version_6.1.2\lvgl\src\lv_objx\../lv_objx/lv_cont.h ****     LV_LAYOUT_GRID,   /**< Align same-sized object into a grid*/
  46:..\..\..\lvgl\version_6.1.2\lvgl\src\lv_objx\../lv_objx/lv_cont.h ****     _LV_LAYOUT_NUM
  47:..\..\..\lvgl\version_6.1.2\lvgl\src\lv_objx\../lv_objx/lv_cont.h **** };
  48:..\..\..\lvgl\version_6.1.2\lvgl\src\lv_objx\../lv_objx/lv_cont.h **** typedef uint8_t lv_layout_t;
  49:..\..\..\lvgl\version_6.1.2\lvgl\src\lv_objx\../lv_objx/lv_cont.h **** 
  50:..\..\..\lvgl\version_6.1.2\lvgl\src\lv_objx\../lv_objx/lv_cont.h **** /**
  51:..\..\..\lvgl\version_6.1.2\lvgl\src\lv_objx\../lv_objx/lv_cont.h ****  * How to resize the container around the children.
  52:..\..\..\lvgl\version_6.1.2\lvgl\src\lv_objx\../lv_objx/lv_cont.h ****  */
  53:..\..\..\lvgl\version_6.1.2\lvgl\src\lv_objx\../lv_objx/lv_cont.h **** enum {
  54:..\..\..\lvgl\version_6.1.2\lvgl\src\lv_objx\../lv_objx/lv_cont.h ****     LV_FIT_NONE,  /**< Do not change the size automatically*/
  55:..\..\..\lvgl\version_6.1.2\lvgl\src\lv_objx\../lv_objx/lv_cont.h ****     LV_FIT_TIGHT, /**< Shrink wrap around the children */
  56:..\..\..\lvgl\version_6.1.2\lvgl\src\lv_objx\../lv_objx/lv_cont.h ****     LV_FIT_FLOOD, /**< Align the size to the parent's edge*/
  57:..\..\..\lvgl\version_6.1.2\lvgl\src\lv_objx\../lv_objx/lv_cont.h ****     LV_FIT_FILL,  /**< Align the size to the parent's edge first but if there is an object out of i
  58:..\..\..\lvgl\version_6.1.2\lvgl\src\lv_objx\../lv_objx/lv_cont.h ****                      then get larger */
  59:..\..\..\lvgl\version_6.1.2\lvgl\src\lv_objx\../lv_objx/lv_cont.h ****     _LV_FIT_NUM
  60:..\..\..\lvgl\version_6.1.2\lvgl\src\lv_objx\../lv_objx/lv_cont.h **** };
  61:..\..\..\lvgl\version_6.1.2\lvgl\src\lv_objx\../lv_objx/lv_cont.h **** typedef uint8_t lv_fit_t;
  62:..\..\..\lvgl\version_6.1.2\lvgl\src\lv_objx\../lv_objx/lv_cont.h **** 
  63:..\..\..\lvgl\version_6.1.2\lvgl\src\lv_objx\../lv_objx/lv_cont.h **** typedef struct
  64:..\..\..\lvgl\version_6.1.2\lvgl\src\lv_objx\../lv_objx/lv_cont.h **** {
  65:..\..\..\lvgl\version_6.1.2\lvgl\src\lv_objx\../lv_objx/lv_cont.h ****     /*Inherited from 'base_obj' so no inherited ext. */ /*Ext. of ancestor*/
  66:..\..\..\lvgl\version_6.1.2\lvgl\src\lv_objx\../lv_objx/lv_cont.h ****     /*New data for this type */
  67:..\..\..\lvgl\version_6.1.2\lvgl\src\lv_objx\../lv_objx/lv_cont.h ****     uint8_t layout : 4;     /*A layout from 'lv_layout_t' enum*/
  68:..\..\..\lvgl\version_6.1.2\lvgl\src\lv_objx\../lv_objx/lv_cont.h ****     uint8_t fit_left : 2;   /*A fit type from `lv_fit_t` enum */
  69:..\..\..\lvgl\version_6.1.2\lvgl\src\lv_objx\../lv_objx/lv_cont.h ****     uint8_t fit_right : 2;  /*A fit type from `lv_fit_t` enum */
  70:..\..\..\lvgl\version_6.1.2\lvgl\src\lv_objx\../lv_objx/lv_cont.h ****     uint8_t fit_top : 2;    /*A fit type from `lv_fit_t` enum */
  71:..\..\..\lvgl\version_6.1.2\lvgl\src\lv_objx\../lv_objx/lv_cont.h ****     uint8_t fit_bottom : 2; /*A fit type from `lv_fit_t` enum */
  72:..\..\..\lvgl\version_6.1.2\lvgl\src\lv_objx\../lv_objx/lv_cont.h **** } lv_cont_ext_t;
  73:..\..\..\lvgl\version_6.1.2\lvgl\src\lv_objx\../lv_objx/lv_cont.h **** 
  74:..\..\..\lvgl\version_6.1.2\lvgl\src\lv_objx\../lv_objx/lv_cont.h **** /*Styles*/
  75:..\..\..\lvgl\version_6.1.2\lvgl\src\lv_objx\../lv_objx/lv_cont.h **** enum {
  76:..\..\..\lvgl\version_6.1.2\lvgl\src\lv_objx\../lv_objx/lv_cont.h ****     LV_CONT_STYLE_MAIN,
  77:..\..\..\lvgl\version_6.1.2\lvgl\src\lv_objx\../lv_objx/lv_cont.h **** };
  78:..\..\..\lvgl\version_6.1.2\lvgl\src\lv_objx\../lv_objx/lv_cont.h **** typedef uint8_t lv_cont_style_t;
  79:..\..\..\lvgl\version_6.1.2\lvgl\src\lv_objx\../lv_objx/lv_cont.h **** 
  80:..\..\..\lvgl\version_6.1.2\lvgl\src\lv_objx\../lv_objx/lv_cont.h **** /**********************
  81:..\..\..\lvgl\version_6.1.2\lvgl\src\lv_objx\../lv_objx/lv_cont.h ****  * GLOBAL PROTOTYPES
  82:..\..\..\lvgl\version_6.1.2\lvgl\src\lv_objx\../lv_objx/lv_cont.h ****  **********************/
  83:..\..\..\lvgl\version_6.1.2\lvgl\src\lv_objx\../lv_objx/lv_cont.h **** 
  84:..\..\..\lvgl\version_6.1.2\lvgl\src\lv_objx\../lv_objx/lv_cont.h **** /**
  85:..\..\..\lvgl\version_6.1.2\lvgl\src\lv_objx\../lv_objx/lv_cont.h ****  * Create a container objects
  86:..\..\..\lvgl\version_6.1.2\lvgl\src\lv_objx\../lv_objx/lv_cont.h ****  * @param par pointer to an object, it will be the parent of the new container
  87:..\..\..\lvgl\version_6.1.2\lvgl\src\lv_objx\../lv_objx/lv_cont.h ****  * @param copy pointer to a container object, if not NULL then the new object will be copied from i
  88:..\..\..\lvgl\version_6.1.2\lvgl\src\lv_objx\../lv_objx/lv_cont.h ****  * @return pointer to the created container
  89:..\..\..\lvgl\version_6.1.2\lvgl\src\lv_objx\../lv_objx/lv_cont.h ****  */
  90:..\..\..\lvgl\version_6.1.2\lvgl\src\lv_objx\../lv_objx/lv_cont.h **** lv_obj_t * lv_cont_create(lv_obj_t * par, const lv_obj_t * copy);
  91:..\..\..\lvgl\version_6.1.2\lvgl\src\lv_objx\../lv_objx/lv_cont.h **** 
  92:..\..\..\lvgl\version_6.1.2\lvgl\src\lv_objx\../lv_objx/lv_cont.h **** /*=====================
ARM GAS  C:\Users\tmj32\AppData\Local\Temp\ccT5YJ50.s 			page 10


  93:..\..\..\lvgl\version_6.1.2\lvgl\src\lv_objx\../lv_objx/lv_cont.h ****  * Setter functions
  94:..\..\..\lvgl\version_6.1.2\lvgl\src\lv_objx\../lv_objx/lv_cont.h ****  *====================*/
  95:..\..\..\lvgl\version_6.1.2\lvgl\src\lv_objx\../lv_objx/lv_cont.h **** 
  96:..\..\..\lvgl\version_6.1.2\lvgl\src\lv_objx\../lv_objx/lv_cont.h **** /**
  97:..\..\..\lvgl\version_6.1.2\lvgl\src\lv_objx\../lv_objx/lv_cont.h ****  * Set a layout on a container
  98:..\..\..\lvgl\version_6.1.2\lvgl\src\lv_objx\../lv_objx/lv_cont.h ****  * @param cont pointer to a container object
  99:..\..\..\lvgl\version_6.1.2\lvgl\src\lv_objx\../lv_objx/lv_cont.h ****  * @param layout a layout from 'lv_cont_layout_t'
 100:..\..\..\lvgl\version_6.1.2\lvgl\src\lv_objx\../lv_objx/lv_cont.h ****  */
 101:..\..\..\lvgl\version_6.1.2\lvgl\src\lv_objx\../lv_objx/lv_cont.h **** void lv_cont_set_layout(lv_obj_t * cont, lv_layout_t layout);
 102:..\..\..\lvgl\version_6.1.2\lvgl\src\lv_objx\../lv_objx/lv_cont.h **** 
 103:..\..\..\lvgl\version_6.1.2\lvgl\src\lv_objx\../lv_objx/lv_cont.h **** /**
 104:..\..\..\lvgl\version_6.1.2\lvgl\src\lv_objx\../lv_objx/lv_cont.h ****  * Set the fit policy in all 4 directions separately.
 105:..\..\..\lvgl\version_6.1.2\lvgl\src\lv_objx\../lv_objx/lv_cont.h ****  * It tell how to change the container's size automatically.
 106:..\..\..\lvgl\version_6.1.2\lvgl\src\lv_objx\../lv_objx/lv_cont.h ****  * @param cont pointer to a container object
 107:..\..\..\lvgl\version_6.1.2\lvgl\src\lv_objx\../lv_objx/lv_cont.h ****  * @param left left fit policy from `lv_fit_t`
 108:..\..\..\lvgl\version_6.1.2\lvgl\src\lv_objx\../lv_objx/lv_cont.h ****  * @param right right fit policy from `lv_fit_t`
 109:..\..\..\lvgl\version_6.1.2\lvgl\src\lv_objx\../lv_objx/lv_cont.h ****  * @param top top fit policy from `lv_fit_t`
 110:..\..\..\lvgl\version_6.1.2\lvgl\src\lv_objx\../lv_objx/lv_cont.h ****  * @param bottom bottom fit policy from `lv_fit_t`
 111:..\..\..\lvgl\version_6.1.2\lvgl\src\lv_objx\../lv_objx/lv_cont.h ****  */
 112:..\..\..\lvgl\version_6.1.2\lvgl\src\lv_objx\../lv_objx/lv_cont.h **** void lv_cont_set_fit4(lv_obj_t * cont, lv_fit_t left, lv_fit_t right, lv_fit_t top, lv_fit_t bottom
 113:..\..\..\lvgl\version_6.1.2\lvgl\src\lv_objx\../lv_objx/lv_cont.h **** 
 114:..\..\..\lvgl\version_6.1.2\lvgl\src\lv_objx\../lv_objx/lv_cont.h **** /**
 115:..\..\..\lvgl\version_6.1.2\lvgl\src\lv_objx\../lv_objx/lv_cont.h ****  * Set the fit policy horizontally and vertically separately.
 116:..\..\..\lvgl\version_6.1.2\lvgl\src\lv_objx\../lv_objx/lv_cont.h ****  * It tells how to change the container's size automatically.
 117:..\..\..\lvgl\version_6.1.2\lvgl\src\lv_objx\../lv_objx/lv_cont.h ****  * @param cont pointer to a container object
 118:..\..\..\lvgl\version_6.1.2\lvgl\src\lv_objx\../lv_objx/lv_cont.h ****  * @param hor horizontal fit policy from `lv_fit_t`
 119:..\..\..\lvgl\version_6.1.2\lvgl\src\lv_objx\../lv_objx/lv_cont.h ****  * @param ver vertical fit policy from `lv_fit_t`
 120:..\..\..\lvgl\version_6.1.2\lvgl\src\lv_objx\../lv_objx/lv_cont.h ****  */
 121:..\..\..\lvgl\version_6.1.2\lvgl\src\lv_objx\../lv_objx/lv_cont.h **** static inline void lv_cont_set_fit2(lv_obj_t * cont, lv_fit_t hor, lv_fit_t ver)
 122:..\..\..\lvgl\version_6.1.2\lvgl\src\lv_objx\../lv_objx/lv_cont.h **** {
 196              		.loc 3 122 0
 197              		.cfi_startproc
 198              		@ args = 0, pretend = 0, frame = 8
 199              		@ frame_needed = 1, uses_anonymous_args = 0
 200 0000 80B5     		push	{r7, lr}
 201              		.cfi_def_cfa_offset 8
 202              		.cfi_offset 7, -8
 203              		.cfi_offset 14, -4
 204 0002 84B0     		sub	sp, sp, #16
 205              		.cfi_def_cfa_offset 24
 206 0004 02AF     		add	r7, sp, #8
 207              		.cfi_def_cfa 7, 16
 208 0006 7860     		str	r0, [r7, #4]
 209 0008 0B46     		mov	r3, r1
 210 000a FB70     		strb	r3, [r7, #3]
 211 000c 1346     		mov	r3, r2
 212 000e BB70     		strb	r3, [r7, #2]
 123:..\..\..\lvgl\version_6.1.2\lvgl\src\lv_objx\../lv_objx/lv_cont.h ****     lv_cont_set_fit4(cont, hor, hor, ver, ver);
 213              		.loc 3 123 0
 214 0010 B878     		ldrb	r0, [r7, #2]	@ zero_extendqisi2
 215 0012 FA78     		ldrb	r2, [r7, #3]	@ zero_extendqisi2
 216 0014 F978     		ldrb	r1, [r7, #3]	@ zero_extendqisi2
 217 0016 BB78     		ldrb	r3, [r7, #2]	@ zero_extendqisi2
 218 0018 0093     		str	r3, [sp]
 219 001a 0346     		mov	r3, r0
 220 001c 7868     		ldr	r0, [r7, #4]
 221 001e FFF7FEFF 		bl	lv_cont_set_fit4
ARM GAS  C:\Users\tmj32\AppData\Local\Temp\ccT5YJ50.s 			page 11


 124:..\..\..\lvgl\version_6.1.2\lvgl\src\lv_objx\../lv_objx/lv_cont.h **** }
 222              		.loc 3 124 0
 223 0022 00BF     		nop
 224 0024 0837     		adds	r7, r7, #8
 225              		.cfi_def_cfa_offset 8
 226 0026 BD46     		mov	sp, r7
 227              		.cfi_def_cfa_register 13
 228              		@ sp needed
 229 0028 80BD     		pop	{r7, pc}
 230              		.cfi_endproc
 231              	.LFE31:
 232              		.size	lv_cont_set_fit2, .-lv_cont_set_fit2
 233 002a 00BF     		.section	.text.lv_page_set_scrl_fit2,"ax",%progbits
 234              		.align	2
 235              		.thumb
 236              		.thumb_func
 237              		.type	lv_page_set_scrl_fit2, %function
 238              	lv_page_set_scrl_fit2:
 239              	.LFB36:
 240              		.file 4 "..\\..\\..\\lvgl\\version_6.1.2\\lvgl\\src\\lv_objx\\../lv_objx/lv_page.h"
   1:..\..\..\lvgl\version_6.1.2\lvgl\src\lv_objx\../lv_objx/lv_page.h **** /**
   2:..\..\..\lvgl\version_6.1.2\lvgl\src\lv_objx\../lv_objx/lv_page.h ****  * @file lv_page.h
   3:..\..\..\lvgl\version_6.1.2\lvgl\src\lv_objx\../lv_objx/lv_page.h ****  *
   4:..\..\..\lvgl\version_6.1.2\lvgl\src\lv_objx\../lv_objx/lv_page.h ****  */
   5:..\..\..\lvgl\version_6.1.2\lvgl\src\lv_objx\../lv_objx/lv_page.h **** 
   6:..\..\..\lvgl\version_6.1.2\lvgl\src\lv_objx\../lv_objx/lv_page.h **** #ifndef LV_PAGE_H
   7:..\..\..\lvgl\version_6.1.2\lvgl\src\lv_objx\../lv_objx/lv_page.h **** #define LV_PAGE_H
   8:..\..\..\lvgl\version_6.1.2\lvgl\src\lv_objx\../lv_objx/lv_page.h **** 
   9:..\..\..\lvgl\version_6.1.2\lvgl\src\lv_objx\../lv_objx/lv_page.h **** #ifdef __cplusplus
  10:..\..\..\lvgl\version_6.1.2\lvgl\src\lv_objx\../lv_objx/lv_page.h **** extern "C" {
  11:..\..\..\lvgl\version_6.1.2\lvgl\src\lv_objx\../lv_objx/lv_page.h **** #endif
  12:..\..\..\lvgl\version_6.1.2\lvgl\src\lv_objx\../lv_objx/lv_page.h **** 
  13:..\..\..\lvgl\version_6.1.2\lvgl\src\lv_objx\../lv_objx/lv_page.h **** /*********************
  14:..\..\..\lvgl\version_6.1.2\lvgl\src\lv_objx\../lv_objx/lv_page.h ****  *      INCLUDES
  15:..\..\..\lvgl\version_6.1.2\lvgl\src\lv_objx\../lv_objx/lv_page.h ****  *********************/
  16:..\..\..\lvgl\version_6.1.2\lvgl\src\lv_objx\../lv_objx/lv_page.h **** #ifdef LV_CONF_INCLUDE_SIMPLE
  17:..\..\..\lvgl\version_6.1.2\lvgl\src\lv_objx\../lv_objx/lv_page.h **** #include "lv_conf.h"
  18:..\..\..\lvgl\version_6.1.2\lvgl\src\lv_objx\../lv_objx/lv_page.h **** #else
  19:..\..\..\lvgl\version_6.1.2\lvgl\src\lv_objx\../lv_objx/lv_page.h **** #include "../../../lv_conf.h"
  20:..\..\..\lvgl\version_6.1.2\lvgl\src\lv_objx\../lv_objx/lv_page.h **** #endif
  21:..\..\..\lvgl\version_6.1.2\lvgl\src\lv_objx\../lv_objx/lv_page.h **** 
  22:..\..\..\lvgl\version_6.1.2\lvgl\src\lv_objx\../lv_objx/lv_page.h **** #if LV_USE_PAGE != 0
  23:..\..\..\lvgl\version_6.1.2\lvgl\src\lv_objx\../lv_objx/lv_page.h **** 
  24:..\..\..\lvgl\version_6.1.2\lvgl\src\lv_objx\../lv_objx/lv_page.h **** /*Testing of dependencies*/
  25:..\..\..\lvgl\version_6.1.2\lvgl\src\lv_objx\../lv_objx/lv_page.h **** #if LV_USE_CONT == 0
  26:..\..\..\lvgl\version_6.1.2\lvgl\src\lv_objx\../lv_objx/lv_page.h **** #error "lv_page: lv_cont is required. Enable it in lv_conf.h (LV_USE_CONT  1) "
  27:..\..\..\lvgl\version_6.1.2\lvgl\src\lv_objx\../lv_objx/lv_page.h **** #endif
  28:..\..\..\lvgl\version_6.1.2\lvgl\src\lv_objx\../lv_objx/lv_page.h **** 
  29:..\..\..\lvgl\version_6.1.2\lvgl\src\lv_objx\../lv_objx/lv_page.h **** #include "lv_cont.h"
  30:..\..\..\lvgl\version_6.1.2\lvgl\src\lv_objx\../lv_objx/lv_page.h **** #include "../lv_core/lv_indev.h"
  31:..\..\..\lvgl\version_6.1.2\lvgl\src\lv_objx\../lv_objx/lv_page.h **** #include "../lv_misc/lv_anim.h"
  32:..\..\..\lvgl\version_6.1.2\lvgl\src\lv_objx\../lv_objx/lv_page.h **** 
  33:..\..\..\lvgl\version_6.1.2\lvgl\src\lv_objx\../lv_objx/lv_page.h **** /*********************
  34:..\..\..\lvgl\version_6.1.2\lvgl\src\lv_objx\../lv_objx/lv_page.h ****  *      DEFINES
  35:..\..\..\lvgl\version_6.1.2\lvgl\src\lv_objx\../lv_objx/lv_page.h ****  *********************/
  36:..\..\..\lvgl\version_6.1.2\lvgl\src\lv_objx\../lv_objx/lv_page.h **** 
  37:..\..\..\lvgl\version_6.1.2\lvgl\src\lv_objx\../lv_objx/lv_page.h **** /**********************
ARM GAS  C:\Users\tmj32\AppData\Local\Temp\ccT5YJ50.s 			page 12


  38:..\..\..\lvgl\version_6.1.2\lvgl\src\lv_objx\../lv_objx/lv_page.h ****  *      TYPEDEFS
  39:..\..\..\lvgl\version_6.1.2\lvgl\src\lv_objx\../lv_objx/lv_page.h ****  **********************/
  40:..\..\..\lvgl\version_6.1.2\lvgl\src\lv_objx\../lv_objx/lv_page.h **** 
  41:..\..\..\lvgl\version_6.1.2\lvgl\src\lv_objx\../lv_objx/lv_page.h **** /** Scrollbar modes: shows when should the scrollbars be visible*/
  42:..\..\..\lvgl\version_6.1.2\lvgl\src\lv_objx\../lv_objx/lv_page.h **** enum {
  43:..\..\..\lvgl\version_6.1.2\lvgl\src\lv_objx\../lv_objx/lv_page.h ****     LV_SB_MODE_OFF    = 0x0, /**< Never show scrollbars*/
  44:..\..\..\lvgl\version_6.1.2\lvgl\src\lv_objx\../lv_objx/lv_page.h ****     LV_SB_MODE_ON     = 0x1, /**< Always show scrollbars*/
  45:..\..\..\lvgl\version_6.1.2\lvgl\src\lv_objx\../lv_objx/lv_page.h ****     LV_SB_MODE_DRAG   = 0x2, /**< Show scrollbars when page is being dragged*/
  46:..\..\..\lvgl\version_6.1.2\lvgl\src\lv_objx\../lv_objx/lv_page.h ****     LV_SB_MODE_AUTO   = 0x3, /**< Show scrollbars when the scrollable container is large enough to 
  47:..\..\..\lvgl\version_6.1.2\lvgl\src\lv_objx\../lv_objx/lv_page.h ****     LV_SB_MODE_HIDE   = 0x4, /**< Hide the scroll bar temporally*/
  48:..\..\..\lvgl\version_6.1.2\lvgl\src\lv_objx\../lv_objx/lv_page.h ****     LV_SB_MODE_UNHIDE = 0x5, /**< Unhide the previously hidden scrollbar. Recover it's type too*/
  49:..\..\..\lvgl\version_6.1.2\lvgl\src\lv_objx\../lv_objx/lv_page.h **** };
  50:..\..\..\lvgl\version_6.1.2\lvgl\src\lv_objx\../lv_objx/lv_page.h **** typedef uint8_t lv_sb_mode_t;
  51:..\..\..\lvgl\version_6.1.2\lvgl\src\lv_objx\../lv_objx/lv_page.h **** 
  52:..\..\..\lvgl\version_6.1.2\lvgl\src\lv_objx\../lv_objx/lv_page.h **** /** Edges: describes the four edges of the page*/
  53:..\..\..\lvgl\version_6.1.2\lvgl\src\lv_objx\../lv_objx/lv_page.h **** enum { LV_PAGE_EDGE_LEFT = 0x1, LV_PAGE_EDGE_TOP = 0x2, LV_PAGE_EDGE_RIGHT = 0x4, LV_PAGE_EDGE_BOTT
  54:..\..\..\lvgl\version_6.1.2\lvgl\src\lv_objx\../lv_objx/lv_page.h **** typedef uint8_t lv_page_edge_t;
  55:..\..\..\lvgl\version_6.1.2\lvgl\src\lv_objx\../lv_objx/lv_page.h **** 
  56:..\..\..\lvgl\version_6.1.2\lvgl\src\lv_objx\../lv_objx/lv_page.h **** /*Data of page*/
  57:..\..\..\lvgl\version_6.1.2\lvgl\src\lv_objx\../lv_objx/lv_page.h **** typedef struct
  58:..\..\..\lvgl\version_6.1.2\lvgl\src\lv_objx\../lv_objx/lv_page.h **** {
  59:..\..\..\lvgl\version_6.1.2\lvgl\src\lv_objx\../lv_objx/lv_page.h ****     lv_cont_ext_t bg; /*Ext. of ancestor*/
  60:..\..\..\lvgl\version_6.1.2\lvgl\src\lv_objx\../lv_objx/lv_page.h ****     /*New data for this type */
  61:..\..\..\lvgl\version_6.1.2\lvgl\src\lv_objx\../lv_objx/lv_page.h ****     lv_obj_t * scrl; /*The scrollable object on the background*/
  62:..\..\..\lvgl\version_6.1.2\lvgl\src\lv_objx\../lv_objx/lv_page.h ****     struct
  63:..\..\..\lvgl\version_6.1.2\lvgl\src\lv_objx\../lv_objx/lv_page.h ****     {
  64:..\..\..\lvgl\version_6.1.2\lvgl\src\lv_objx\../lv_objx/lv_page.h ****         const lv_style_t * style; /*Style of scrollbars*/
  65:..\..\..\lvgl\version_6.1.2\lvgl\src\lv_objx\../lv_objx/lv_page.h ****         lv_area_t hor_area;       /*Horizontal scrollbar area relative to the page. (Handled by the
  66:..\..\..\lvgl\version_6.1.2\lvgl\src\lv_objx\../lv_objx/lv_page.h ****         lv_area_t ver_area;       /*Vertical scrollbar area relative to the page (Handled by the li
  67:..\..\..\lvgl\version_6.1.2\lvgl\src\lv_objx\../lv_objx/lv_page.h ****         uint8_t hor_draw : 1;     /*1: horizontal scrollbar is visible now (Handled by the library)
  68:..\..\..\lvgl\version_6.1.2\lvgl\src\lv_objx\../lv_objx/lv_page.h ****         uint8_t ver_draw : 1;     /*1: vertical scrollbar is visible now (Handled by the library)*/
  69:..\..\..\lvgl\version_6.1.2\lvgl\src\lv_objx\../lv_objx/lv_page.h ****         lv_sb_mode_t mode : 3;    /*Scrollbar visibility from 'lv_page_sb_mode_t'*/
  70:..\..\..\lvgl\version_6.1.2\lvgl\src\lv_objx\../lv_objx/lv_page.h ****     } sb;
  71:..\..\..\lvgl\version_6.1.2\lvgl\src\lv_objx\../lv_objx/lv_page.h **** #if LV_USE_ANIMATION
  72:..\..\..\lvgl\version_6.1.2\lvgl\src\lv_objx\../lv_objx/lv_page.h ****     struct
  73:..\..\..\lvgl\version_6.1.2\lvgl\src\lv_objx\../lv_objx/lv_page.h ****     {
  74:..\..\..\lvgl\version_6.1.2\lvgl\src\lv_objx\../lv_objx/lv_page.h ****         lv_anim_value_t state;    /*Store the current size of the edge flash effect*/
  75:..\..\..\lvgl\version_6.1.2\lvgl\src\lv_objx\../lv_objx/lv_page.h ****         const lv_style_t * style; /*Style of edge flash effect (usually homogeneous circle)*/
  76:..\..\..\lvgl\version_6.1.2\lvgl\src\lv_objx\../lv_objx/lv_page.h ****         uint8_t enabled : 1;      /*1: Show a flash animation on the edge*/
  77:..\..\..\lvgl\version_6.1.2\lvgl\src\lv_objx\../lv_objx/lv_page.h ****         uint8_t top_ip : 1;       /*Used internally to show that top most position is reached (flas
  78:..\..\..\lvgl\version_6.1.2\lvgl\src\lv_objx\../lv_objx/lv_page.h ****                                      Progress)*/
  79:..\..\..\lvgl\version_6.1.2\lvgl\src\lv_objx\../lv_objx/lv_page.h ****         uint8_t bottom_ip : 1;    /*Used internally to show that bottom most position is reached (f
  80:..\..\..\lvgl\version_6.1.2\lvgl\src\lv_objx\../lv_objx/lv_page.h ****                                      is In Progress)*/
  81:..\..\..\lvgl\version_6.1.2\lvgl\src\lv_objx\../lv_objx/lv_page.h ****         uint8_t right_ip : 1;     /*Used internally to show that right most position is reached (fl
  82:..\..\..\lvgl\version_6.1.2\lvgl\src\lv_objx\../lv_objx/lv_page.h ****                                      is In Progress)*/
  83:..\..\..\lvgl\version_6.1.2\lvgl\src\lv_objx\../lv_objx/lv_page.h ****         uint8_t left_ip : 1;      /*Used internally to show that left most position is reached (fla
  84:..\..\..\lvgl\version_6.1.2\lvgl\src\lv_objx\../lv_objx/lv_page.h ****                                      In Progress)*/
  85:..\..\..\lvgl\version_6.1.2\lvgl\src\lv_objx\../lv_objx/lv_page.h ****     } edge_flash;
  86:..\..\..\lvgl\version_6.1.2\lvgl\src\lv_objx\../lv_objx/lv_page.h **** 
  87:..\..\..\lvgl\version_6.1.2\lvgl\src\lv_objx\../lv_objx/lv_page.h ****     uint16_t anim_time; /*Scroll animation time*/
  88:..\..\..\lvgl\version_6.1.2\lvgl\src\lv_objx\../lv_objx/lv_page.h **** #endif
  89:..\..\..\lvgl\version_6.1.2\lvgl\src\lv_objx\../lv_objx/lv_page.h **** 
  90:..\..\..\lvgl\version_6.1.2\lvgl\src\lv_objx\../lv_objx/lv_page.h ****     uint8_t scroll_prop : 1;    /*1: Propagate the scrolling the the parent if the edge is reached*
  91:..\..\..\lvgl\version_6.1.2\lvgl\src\lv_objx\../lv_objx/lv_page.h ****     uint8_t scroll_prop_ip : 1; /*1: Scroll propagation is in progress (used by the library)*/
  92:..\..\..\lvgl\version_6.1.2\lvgl\src\lv_objx\../lv_objx/lv_page.h **** } lv_page_ext_t;
  93:..\..\..\lvgl\version_6.1.2\lvgl\src\lv_objx\../lv_objx/lv_page.h **** 
  94:..\..\..\lvgl\version_6.1.2\lvgl\src\lv_objx\../lv_objx/lv_page.h **** enum {
ARM GAS  C:\Users\tmj32\AppData\Local\Temp\ccT5YJ50.s 			page 13


  95:..\..\..\lvgl\version_6.1.2\lvgl\src\lv_objx\../lv_objx/lv_page.h ****     LV_PAGE_STYLE_BG,
  96:..\..\..\lvgl\version_6.1.2\lvgl\src\lv_objx\../lv_objx/lv_page.h ****     LV_PAGE_STYLE_SCRL,
  97:..\..\..\lvgl\version_6.1.2\lvgl\src\lv_objx\../lv_objx/lv_page.h ****     LV_PAGE_STYLE_SB,
  98:..\..\..\lvgl\version_6.1.2\lvgl\src\lv_objx\../lv_objx/lv_page.h ****     LV_PAGE_STYLE_EDGE_FLASH,
  99:..\..\..\lvgl\version_6.1.2\lvgl\src\lv_objx\../lv_objx/lv_page.h **** };
 100:..\..\..\lvgl\version_6.1.2\lvgl\src\lv_objx\../lv_objx/lv_page.h **** typedef uint8_t lv_page_style_t;
 101:..\..\..\lvgl\version_6.1.2\lvgl\src\lv_objx\../lv_objx/lv_page.h **** 
 102:..\..\..\lvgl\version_6.1.2\lvgl\src\lv_objx\../lv_objx/lv_page.h **** /**********************
 103:..\..\..\lvgl\version_6.1.2\lvgl\src\lv_objx\../lv_objx/lv_page.h ****  * GLOBAL PROTOTYPES
 104:..\..\..\lvgl\version_6.1.2\lvgl\src\lv_objx\../lv_objx/lv_page.h ****  **********************/
 105:..\..\..\lvgl\version_6.1.2\lvgl\src\lv_objx\../lv_objx/lv_page.h **** 
 106:..\..\..\lvgl\version_6.1.2\lvgl\src\lv_objx\../lv_objx/lv_page.h **** /**
 107:..\..\..\lvgl\version_6.1.2\lvgl\src\lv_objx\../lv_objx/lv_page.h ****  * Create a page objects
 108:..\..\..\lvgl\version_6.1.2\lvgl\src\lv_objx\../lv_objx/lv_page.h ****  * @param par pointer to an object, it will be the parent of the new page
 109:..\..\..\lvgl\version_6.1.2\lvgl\src\lv_objx\../lv_objx/lv_page.h ****  * @param copy pointer to a page object, if not NULL then the new object will be copied from it
 110:..\..\..\lvgl\version_6.1.2\lvgl\src\lv_objx\../lv_objx/lv_page.h ****  * @return pointer to the created page
 111:..\..\..\lvgl\version_6.1.2\lvgl\src\lv_objx\../lv_objx/lv_page.h ****  */
 112:..\..\..\lvgl\version_6.1.2\lvgl\src\lv_objx\../lv_objx/lv_page.h **** lv_obj_t * lv_page_create(lv_obj_t * par, const lv_obj_t * copy);
 113:..\..\..\lvgl\version_6.1.2\lvgl\src\lv_objx\../lv_objx/lv_page.h **** 
 114:..\..\..\lvgl\version_6.1.2\lvgl\src\lv_objx\../lv_objx/lv_page.h **** /**
 115:..\..\..\lvgl\version_6.1.2\lvgl\src\lv_objx\../lv_objx/lv_page.h ****  * Delete all children of the scrl object, without deleting scrl child.
 116:..\..\..\lvgl\version_6.1.2\lvgl\src\lv_objx\../lv_objx/lv_page.h ****  * @param page pointer to an object
 117:..\..\..\lvgl\version_6.1.2\lvgl\src\lv_objx\../lv_objx/lv_page.h ****  */
 118:..\..\..\lvgl\version_6.1.2\lvgl\src\lv_objx\../lv_objx/lv_page.h **** void lv_page_clean(lv_obj_t * page);
 119:..\..\..\lvgl\version_6.1.2\lvgl\src\lv_objx\../lv_objx/lv_page.h **** 
 120:..\..\..\lvgl\version_6.1.2\lvgl\src\lv_objx\../lv_objx/lv_page.h **** /**
 121:..\..\..\lvgl\version_6.1.2\lvgl\src\lv_objx\../lv_objx/lv_page.h ****  * Get the scrollable object of a page
 122:..\..\..\lvgl\version_6.1.2\lvgl\src\lv_objx\../lv_objx/lv_page.h ****  * @param page pointer to a page object
 123:..\..\..\lvgl\version_6.1.2\lvgl\src\lv_objx\../lv_objx/lv_page.h ****  * @return pointer to a container which is the scrollable part of the page
 124:..\..\..\lvgl\version_6.1.2\lvgl\src\lv_objx\../lv_objx/lv_page.h ****  */
 125:..\..\..\lvgl\version_6.1.2\lvgl\src\lv_objx\../lv_objx/lv_page.h **** lv_obj_t * lv_page_get_scrl(const lv_obj_t * page);
 126:..\..\..\lvgl\version_6.1.2\lvgl\src\lv_objx\../lv_objx/lv_page.h **** 
 127:..\..\..\lvgl\version_6.1.2\lvgl\src\lv_objx\../lv_objx/lv_page.h **** /**
 128:..\..\..\lvgl\version_6.1.2\lvgl\src\lv_objx\../lv_objx/lv_page.h ****  * Get the animation time
 129:..\..\..\lvgl\version_6.1.2\lvgl\src\lv_objx\../lv_objx/lv_page.h ****  * @param page pointer to a page object
 130:..\..\..\lvgl\version_6.1.2\lvgl\src\lv_objx\../lv_objx/lv_page.h ****  * @return the animation time in milliseconds
 131:..\..\..\lvgl\version_6.1.2\lvgl\src\lv_objx\../lv_objx/lv_page.h ****  */
 132:..\..\..\lvgl\version_6.1.2\lvgl\src\lv_objx\../lv_objx/lv_page.h **** uint16_t lv_page_get_anim_time(const lv_obj_t * page);
 133:..\..\..\lvgl\version_6.1.2\lvgl\src\lv_objx\../lv_objx/lv_page.h **** 
 134:..\..\..\lvgl\version_6.1.2\lvgl\src\lv_objx\../lv_objx/lv_page.h **** /*=====================
 135:..\..\..\lvgl\version_6.1.2\lvgl\src\lv_objx\../lv_objx/lv_page.h ****  * Setter functions
 136:..\..\..\lvgl\version_6.1.2\lvgl\src\lv_objx\../lv_objx/lv_page.h ****  *====================*/
 137:..\..\..\lvgl\version_6.1.2\lvgl\src\lv_objx\../lv_objx/lv_page.h **** 
 138:..\..\..\lvgl\version_6.1.2\lvgl\src\lv_objx\../lv_objx/lv_page.h **** /**
 139:..\..\..\lvgl\version_6.1.2\lvgl\src\lv_objx\../lv_objx/lv_page.h ****  * Set the scroll bar mode on a page
 140:..\..\..\lvgl\version_6.1.2\lvgl\src\lv_objx\../lv_objx/lv_page.h ****  * @param page pointer to a page object
 141:..\..\..\lvgl\version_6.1.2\lvgl\src\lv_objx\../lv_objx/lv_page.h ****  * @param sb_mode the new mode from 'lv_page_sb.mode_t' enum
 142:..\..\..\lvgl\version_6.1.2\lvgl\src\lv_objx\../lv_objx/lv_page.h ****  */
 143:..\..\..\lvgl\version_6.1.2\lvgl\src\lv_objx\../lv_objx/lv_page.h **** void lv_page_set_sb_mode(lv_obj_t * page, lv_sb_mode_t sb_mode);
 144:..\..\..\lvgl\version_6.1.2\lvgl\src\lv_objx\../lv_objx/lv_page.h **** 
 145:..\..\..\lvgl\version_6.1.2\lvgl\src\lv_objx\../lv_objx/lv_page.h **** /**
 146:..\..\..\lvgl\version_6.1.2\lvgl\src\lv_objx\../lv_objx/lv_page.h ****  * Set the animation time for the page
 147:..\..\..\lvgl\version_6.1.2\lvgl\src\lv_objx\../lv_objx/lv_page.h ****  * @param page pointer to a page object
 148:..\..\..\lvgl\version_6.1.2\lvgl\src\lv_objx\../lv_objx/lv_page.h ****  * @param anim_time animation time in milliseconds
 149:..\..\..\lvgl\version_6.1.2\lvgl\src\lv_objx\../lv_objx/lv_page.h ****  */
 150:..\..\..\lvgl\version_6.1.2\lvgl\src\lv_objx\../lv_objx/lv_page.h **** void lv_page_set_anim_time(lv_obj_t * page, uint16_t anim_time);
 151:..\..\..\lvgl\version_6.1.2\lvgl\src\lv_objx\../lv_objx/lv_page.h **** 
ARM GAS  C:\Users\tmj32\AppData\Local\Temp\ccT5YJ50.s 			page 14


 152:..\..\..\lvgl\version_6.1.2\lvgl\src\lv_objx\../lv_objx/lv_page.h **** /**
 153:..\..\..\lvgl\version_6.1.2\lvgl\src\lv_objx\../lv_objx/lv_page.h ****  * Enable the scroll propagation feature. If enabled then the page will move its parent if there is
 154:..\..\..\lvgl\version_6.1.2\lvgl\src\lv_objx\../lv_objx/lv_page.h ****  * no more space to scroll.
 155:..\..\..\lvgl\version_6.1.2\lvgl\src\lv_objx\../lv_objx/lv_page.h ****  * @param page pointer to a Page
 156:..\..\..\lvgl\version_6.1.2\lvgl\src\lv_objx\../lv_objx/lv_page.h ****  * @param en true or false to enable/disable scroll propagation
 157:..\..\..\lvgl\version_6.1.2\lvgl\src\lv_objx\../lv_objx/lv_page.h ****  */
 158:..\..\..\lvgl\version_6.1.2\lvgl\src\lv_objx\../lv_objx/lv_page.h **** void lv_page_set_scroll_propagation(lv_obj_t * page, bool en);
 159:..\..\..\lvgl\version_6.1.2\lvgl\src\lv_objx\../lv_objx/lv_page.h **** 
 160:..\..\..\lvgl\version_6.1.2\lvgl\src\lv_objx\../lv_objx/lv_page.h **** /**
 161:..\..\..\lvgl\version_6.1.2\lvgl\src\lv_objx\../lv_objx/lv_page.h ****  * Enable the edge flash effect. (Show an arc when the an edge is reached)
 162:..\..\..\lvgl\version_6.1.2\lvgl\src\lv_objx\../lv_objx/lv_page.h ****  * @param page pointer to a Page
 163:..\..\..\lvgl\version_6.1.2\lvgl\src\lv_objx\../lv_objx/lv_page.h ****  * @param en true or false to enable/disable end flash
 164:..\..\..\lvgl\version_6.1.2\lvgl\src\lv_objx\../lv_objx/lv_page.h ****  */
 165:..\..\..\lvgl\version_6.1.2\lvgl\src\lv_objx\../lv_objx/lv_page.h **** void lv_page_set_edge_flash(lv_obj_t * page, bool en);
 166:..\..\..\lvgl\version_6.1.2\lvgl\src\lv_objx\../lv_objx/lv_page.h **** 
 167:..\..\..\lvgl\version_6.1.2\lvgl\src\lv_objx\../lv_objx/lv_page.h **** /**
 168:..\..\..\lvgl\version_6.1.2\lvgl\src\lv_objx\../lv_objx/lv_page.h ****  * Set the fit policy in all 4 directions separately.
 169:..\..\..\lvgl\version_6.1.2\lvgl\src\lv_objx\../lv_objx/lv_page.h ****  * It tell how to change the page size automatically.
 170:..\..\..\lvgl\version_6.1.2\lvgl\src\lv_objx\../lv_objx/lv_page.h ****  * @param page pointer to a page object
 171:..\..\..\lvgl\version_6.1.2\lvgl\src\lv_objx\../lv_objx/lv_page.h ****  * @param left left fit policy from `lv_fit_t`
 172:..\..\..\lvgl\version_6.1.2\lvgl\src\lv_objx\../lv_objx/lv_page.h ****  * @param right right fit policy from `lv_fit_t`
 173:..\..\..\lvgl\version_6.1.2\lvgl\src\lv_objx\../lv_objx/lv_page.h ****  * @param top bottom fit policy from `lv_fit_t`
 174:..\..\..\lvgl\version_6.1.2\lvgl\src\lv_objx\../lv_objx/lv_page.h ****  * @param bottom bottom fit policy from `lv_fit_t`
 175:..\..\..\lvgl\version_6.1.2\lvgl\src\lv_objx\../lv_objx/lv_page.h ****  */
 176:..\..\..\lvgl\version_6.1.2\lvgl\src\lv_objx\../lv_objx/lv_page.h **** static inline void lv_page_set_scrl_fit4(lv_obj_t * page, lv_fit_t left, lv_fit_t right, lv_fit_t t
 177:..\..\..\lvgl\version_6.1.2\lvgl\src\lv_objx\../lv_objx/lv_page.h **** {
 178:..\..\..\lvgl\version_6.1.2\lvgl\src\lv_objx\../lv_objx/lv_page.h ****     lv_cont_set_fit4(lv_page_get_scrl(page), left, right, top, bottom);
 179:..\..\..\lvgl\version_6.1.2\lvgl\src\lv_objx\../lv_objx/lv_page.h **** }
 180:..\..\..\lvgl\version_6.1.2\lvgl\src\lv_objx\../lv_objx/lv_page.h **** 
 181:..\..\..\lvgl\version_6.1.2\lvgl\src\lv_objx\../lv_objx/lv_page.h **** /**
 182:..\..\..\lvgl\version_6.1.2\lvgl\src\lv_objx\../lv_objx/lv_page.h ****  * Set the fit policy horizontally and vertically separately.
 183:..\..\..\lvgl\version_6.1.2\lvgl\src\lv_objx\../lv_objx/lv_page.h ****  * It tell how to change the page size automatically.
 184:..\..\..\lvgl\version_6.1.2\lvgl\src\lv_objx\../lv_objx/lv_page.h ****  * @param page pointer to a page object
 185:..\..\..\lvgl\version_6.1.2\lvgl\src\lv_objx\../lv_objx/lv_page.h ****  * @param hot horizontal fit policy from `lv_fit_t`
 186:..\..\..\lvgl\version_6.1.2\lvgl\src\lv_objx\../lv_objx/lv_page.h ****  * @param ver vertical fit policy from `lv_fit_t`
 187:..\..\..\lvgl\version_6.1.2\lvgl\src\lv_objx\../lv_objx/lv_page.h ****  */
 188:..\..\..\lvgl\version_6.1.2\lvgl\src\lv_objx\../lv_objx/lv_page.h **** static inline void lv_page_set_scrl_fit2(lv_obj_t * page, lv_fit_t hor, lv_fit_t ver)
 189:..\..\..\lvgl\version_6.1.2\lvgl\src\lv_objx\../lv_objx/lv_page.h **** {
 241              		.loc 4 189 0
 242              		.cfi_startproc
 243              		@ args = 0, pretend = 0, frame = 8
 244              		@ frame_needed = 1, uses_anonymous_args = 0
 245 0000 80B5     		push	{r7, lr}
 246              		.cfi_def_cfa_offset 8
 247              		.cfi_offset 7, -8
 248              		.cfi_offset 14, -4
 249 0002 82B0     		sub	sp, sp, #8
 250              		.cfi_def_cfa_offset 16
 251 0004 00AF     		add	r7, sp, #0
 252              		.cfi_def_cfa_register 7
 253 0006 7860     		str	r0, [r7, #4]
 254 0008 0B46     		mov	r3, r1
 255 000a FB70     		strb	r3, [r7, #3]
 256 000c 1346     		mov	r3, r2
 257 000e BB70     		strb	r3, [r7, #2]
 190:..\..\..\lvgl\version_6.1.2\lvgl\src\lv_objx\../lv_objx/lv_page.h ****     lv_cont_set_fit2(lv_page_get_scrl(page), hor, ver);
 258              		.loc 4 190 0
ARM GAS  C:\Users\tmj32\AppData\Local\Temp\ccT5YJ50.s 			page 15


 259 0010 7868     		ldr	r0, [r7, #4]
 260 0012 FFF7FEFF 		bl	lv_page_get_scrl
 261 0016 BA78     		ldrb	r2, [r7, #2]	@ zero_extendqisi2
 262 0018 FB78     		ldrb	r3, [r7, #3]	@ zero_extendqisi2
 263 001a 1946     		mov	r1, r3
 264 001c FFF7FEFF 		bl	lv_cont_set_fit2
 191:..\..\..\lvgl\version_6.1.2\lvgl\src\lv_objx\../lv_objx/lv_page.h **** }
 265              		.loc 4 191 0
 266 0020 00BF     		nop
 267 0022 0837     		adds	r7, r7, #8
 268              		.cfi_def_cfa_offset 8
 269 0024 BD46     		mov	sp, r7
 270              		.cfi_def_cfa_register 13
 271              		@ sp needed
 272 0026 80BD     		pop	{r7, pc}
 273              		.cfi_endproc
 274              	.LFE36:
 275              		.size	lv_page_set_scrl_fit2, .-lv_page_set_scrl_fit2
 276              		.section	.text.lv_page_get_scrl_fit_left,"ax",%progbits
 277              		.align	2
 278              		.thumb
 279              		.thumb_func
 280              		.type	lv_page_get_scrl_fit_left, %function
 281              	lv_page_get_scrl_fit_left:
 282              	.LFB44:
 192:..\..\..\lvgl\version_6.1.2\lvgl\src\lv_objx\../lv_objx/lv_page.h **** 
 193:..\..\..\lvgl\version_6.1.2\lvgl\src\lv_objx\../lv_objx/lv_page.h **** /**
 194:..\..\..\lvgl\version_6.1.2\lvgl\src\lv_objx\../lv_objx/lv_page.h ****  * Set the fit policyin all 4 direction at once.
 195:..\..\..\lvgl\version_6.1.2\lvgl\src\lv_objx\../lv_objx/lv_page.h ****  * It tell how to change the page size automatically.
 196:..\..\..\lvgl\version_6.1.2\lvgl\src\lv_objx\../lv_objx/lv_page.h ****  * @param page pointer to a button object
 197:..\..\..\lvgl\version_6.1.2\lvgl\src\lv_objx\../lv_objx/lv_page.h ****  * @param fit fit policy from `lv_fit_t`
 198:..\..\..\lvgl\version_6.1.2\lvgl\src\lv_objx\../lv_objx/lv_page.h ****  */
 199:..\..\..\lvgl\version_6.1.2\lvgl\src\lv_objx\../lv_objx/lv_page.h **** static inline void lv_page_set_scrl_fit(lv_obj_t * page, lv_fit_t fit)
 200:..\..\..\lvgl\version_6.1.2\lvgl\src\lv_objx\../lv_objx/lv_page.h **** {
 201:..\..\..\lvgl\version_6.1.2\lvgl\src\lv_objx\../lv_objx/lv_page.h ****     lv_cont_set_fit(lv_page_get_scrl(page), fit);
 202:..\..\..\lvgl\version_6.1.2\lvgl\src\lv_objx\../lv_objx/lv_page.h **** }
 203:..\..\..\lvgl\version_6.1.2\lvgl\src\lv_objx\../lv_objx/lv_page.h **** 
 204:..\..\..\lvgl\version_6.1.2\lvgl\src\lv_objx\../lv_objx/lv_page.h **** /**
 205:..\..\..\lvgl\version_6.1.2\lvgl\src\lv_objx\../lv_objx/lv_page.h ****  * Set width of the scrollable part of a page
 206:..\..\..\lvgl\version_6.1.2\lvgl\src\lv_objx\../lv_objx/lv_page.h ****  * @param page pointer to a page object
 207:..\..\..\lvgl\version_6.1.2\lvgl\src\lv_objx\../lv_objx/lv_page.h ****  * @param w the new width of the scrollable (it ha no effect is horizontal fit is enabled)
 208:..\..\..\lvgl\version_6.1.2\lvgl\src\lv_objx\../lv_objx/lv_page.h ****  */
 209:..\..\..\lvgl\version_6.1.2\lvgl\src\lv_objx\../lv_objx/lv_page.h **** static inline void lv_page_set_scrl_width(lv_obj_t * page, lv_coord_t w)
 210:..\..\..\lvgl\version_6.1.2\lvgl\src\lv_objx\../lv_objx/lv_page.h **** {
 211:..\..\..\lvgl\version_6.1.2\lvgl\src\lv_objx\../lv_objx/lv_page.h ****     lv_obj_set_width(lv_page_get_scrl(page), w);
 212:..\..\..\lvgl\version_6.1.2\lvgl\src\lv_objx\../lv_objx/lv_page.h **** }
 213:..\..\..\lvgl\version_6.1.2\lvgl\src\lv_objx\../lv_objx/lv_page.h **** 
 214:..\..\..\lvgl\version_6.1.2\lvgl\src\lv_objx\../lv_objx/lv_page.h **** /**
 215:..\..\..\lvgl\version_6.1.2\lvgl\src\lv_objx\../lv_objx/lv_page.h ****  * Set height of the scrollable part of a page
 216:..\..\..\lvgl\version_6.1.2\lvgl\src\lv_objx\../lv_objx/lv_page.h ****  * @param page pointer to a page object
 217:..\..\..\lvgl\version_6.1.2\lvgl\src\lv_objx\../lv_objx/lv_page.h ****  * @param h the new height of the scrollable (it ha no effect is vertical fit is enabled)
 218:..\..\..\lvgl\version_6.1.2\lvgl\src\lv_objx\../lv_objx/lv_page.h ****  */
 219:..\..\..\lvgl\version_6.1.2\lvgl\src\lv_objx\../lv_objx/lv_page.h **** static inline void lv_page_set_scrl_height(lv_obj_t * page, lv_coord_t h)
 220:..\..\..\lvgl\version_6.1.2\lvgl\src\lv_objx\../lv_objx/lv_page.h **** {
 221:..\..\..\lvgl\version_6.1.2\lvgl\src\lv_objx\../lv_objx/lv_page.h ****     lv_obj_set_height(lv_page_get_scrl(page), h);
 222:..\..\..\lvgl\version_6.1.2\lvgl\src\lv_objx\../lv_objx/lv_page.h **** }
 223:..\..\..\lvgl\version_6.1.2\lvgl\src\lv_objx\../lv_objx/lv_page.h **** 
ARM GAS  C:\Users\tmj32\AppData\Local\Temp\ccT5YJ50.s 			page 16


 224:..\..\..\lvgl\version_6.1.2\lvgl\src\lv_objx\../lv_objx/lv_page.h **** /**
 225:..\..\..\lvgl\version_6.1.2\lvgl\src\lv_objx\../lv_objx/lv_page.h ****  * Set the layout of the scrollable part of the page
 226:..\..\..\lvgl\version_6.1.2\lvgl\src\lv_objx\../lv_objx/lv_page.h ****  * @param page pointer to a page object
 227:..\..\..\lvgl\version_6.1.2\lvgl\src\lv_objx\../lv_objx/lv_page.h ****  * @param layout a layout from 'lv_cont_layout_t'
 228:..\..\..\lvgl\version_6.1.2\lvgl\src\lv_objx\../lv_objx/lv_page.h ****  */
 229:..\..\..\lvgl\version_6.1.2\lvgl\src\lv_objx\../lv_objx/lv_page.h **** static inline void lv_page_set_scrl_layout(lv_obj_t * page, lv_layout_t layout)
 230:..\..\..\lvgl\version_6.1.2\lvgl\src\lv_objx\../lv_objx/lv_page.h **** {
 231:..\..\..\lvgl\version_6.1.2\lvgl\src\lv_objx\../lv_objx/lv_page.h ****     lv_cont_set_layout(lv_page_get_scrl(page), layout);
 232:..\..\..\lvgl\version_6.1.2\lvgl\src\lv_objx\../lv_objx/lv_page.h **** }
 233:..\..\..\lvgl\version_6.1.2\lvgl\src\lv_objx\../lv_objx/lv_page.h **** 
 234:..\..\..\lvgl\version_6.1.2\lvgl\src\lv_objx\../lv_objx/lv_page.h **** /**
 235:..\..\..\lvgl\version_6.1.2\lvgl\src\lv_objx\../lv_objx/lv_page.h ****  * Set a style of a page
 236:..\..\..\lvgl\version_6.1.2\lvgl\src\lv_objx\../lv_objx/lv_page.h ****  * @param page pointer to a page object
 237:..\..\..\lvgl\version_6.1.2\lvgl\src\lv_objx\../lv_objx/lv_page.h ****  * @param type which style should be set
 238:..\..\..\lvgl\version_6.1.2\lvgl\src\lv_objx\../lv_objx/lv_page.h ****  * @param style pointer to a style
 239:..\..\..\lvgl\version_6.1.2\lvgl\src\lv_objx\../lv_objx/lv_page.h ****  */
 240:..\..\..\lvgl\version_6.1.2\lvgl\src\lv_objx\../lv_objx/lv_page.h **** void lv_page_set_style(lv_obj_t * page, lv_page_style_t type, const lv_style_t * style);
 241:..\..\..\lvgl\version_6.1.2\lvgl\src\lv_objx\../lv_objx/lv_page.h **** 
 242:..\..\..\lvgl\version_6.1.2\lvgl\src\lv_objx\../lv_objx/lv_page.h **** /*=====================
 243:..\..\..\lvgl\version_6.1.2\lvgl\src\lv_objx\../lv_objx/lv_page.h ****  * Getter functions
 244:..\..\..\lvgl\version_6.1.2\lvgl\src\lv_objx\../lv_objx/lv_page.h ****  *====================*/
 245:..\..\..\lvgl\version_6.1.2\lvgl\src\lv_objx\../lv_objx/lv_page.h **** 
 246:..\..\..\lvgl\version_6.1.2\lvgl\src\lv_objx\../lv_objx/lv_page.h **** /**
 247:..\..\..\lvgl\version_6.1.2\lvgl\src\lv_objx\../lv_objx/lv_page.h ****  * Set the scroll bar mode on a page
 248:..\..\..\lvgl\version_6.1.2\lvgl\src\lv_objx\../lv_objx/lv_page.h ****  * @param page pointer to a page object
 249:..\..\..\lvgl\version_6.1.2\lvgl\src\lv_objx\../lv_objx/lv_page.h ****  * @return the mode from 'lv_page_sb.mode_t' enum
 250:..\..\..\lvgl\version_6.1.2\lvgl\src\lv_objx\../lv_objx/lv_page.h ****  */
 251:..\..\..\lvgl\version_6.1.2\lvgl\src\lv_objx\../lv_objx/lv_page.h **** lv_sb_mode_t lv_page_get_sb_mode(const lv_obj_t * page);
 252:..\..\..\lvgl\version_6.1.2\lvgl\src\lv_objx\../lv_objx/lv_page.h **** 
 253:..\..\..\lvgl\version_6.1.2\lvgl\src\lv_objx\../lv_objx/lv_page.h **** /**
 254:..\..\..\lvgl\version_6.1.2\lvgl\src\lv_objx\../lv_objx/lv_page.h ****  * Get the scroll propagation property
 255:..\..\..\lvgl\version_6.1.2\lvgl\src\lv_objx\../lv_objx/lv_page.h ****  * @param page pointer to a Page
 256:..\..\..\lvgl\version_6.1.2\lvgl\src\lv_objx\../lv_objx/lv_page.h ****  * @return true or false
 257:..\..\..\lvgl\version_6.1.2\lvgl\src\lv_objx\../lv_objx/lv_page.h ****  */
 258:..\..\..\lvgl\version_6.1.2\lvgl\src\lv_objx\../lv_objx/lv_page.h **** bool lv_page_get_scroll_propagation(lv_obj_t * page);
 259:..\..\..\lvgl\version_6.1.2\lvgl\src\lv_objx\../lv_objx/lv_page.h **** 
 260:..\..\..\lvgl\version_6.1.2\lvgl\src\lv_objx\../lv_objx/lv_page.h **** /**
 261:..\..\..\lvgl\version_6.1.2\lvgl\src\lv_objx\../lv_objx/lv_page.h ****  * Get the edge flash effect property.
 262:..\..\..\lvgl\version_6.1.2\lvgl\src\lv_objx\../lv_objx/lv_page.h ****  * @param page pointer to a Page
 263:..\..\..\lvgl\version_6.1.2\lvgl\src\lv_objx\../lv_objx/lv_page.h ****  * return true or false
 264:..\..\..\lvgl\version_6.1.2\lvgl\src\lv_objx\../lv_objx/lv_page.h ****  */
 265:..\..\..\lvgl\version_6.1.2\lvgl\src\lv_objx\../lv_objx/lv_page.h **** bool lv_page_get_edge_flash(lv_obj_t * page);
 266:..\..\..\lvgl\version_6.1.2\lvgl\src\lv_objx\../lv_objx/lv_page.h **** 
 267:..\..\..\lvgl\version_6.1.2\lvgl\src\lv_objx\../lv_objx/lv_page.h **** /**
 268:..\..\..\lvgl\version_6.1.2\lvgl\src\lv_objx\../lv_objx/lv_page.h ****  * Get that width which can be set to the children to still not cause overflow (show scrollbars)
 269:..\..\..\lvgl\version_6.1.2\lvgl\src\lv_objx\../lv_objx/lv_page.h ****  * @param page pointer to a page object
 270:..\..\..\lvgl\version_6.1.2\lvgl\src\lv_objx\../lv_objx/lv_page.h ****  * @return the width which still fits into the page
 271:..\..\..\lvgl\version_6.1.2\lvgl\src\lv_objx\../lv_objx/lv_page.h ****  */
 272:..\..\..\lvgl\version_6.1.2\lvgl\src\lv_objx\../lv_objx/lv_page.h **** lv_coord_t lv_page_get_fit_width(lv_obj_t * page);
 273:..\..\..\lvgl\version_6.1.2\lvgl\src\lv_objx\../lv_objx/lv_page.h **** 
 274:..\..\..\lvgl\version_6.1.2\lvgl\src\lv_objx\../lv_objx/lv_page.h **** /**
 275:..\..\..\lvgl\version_6.1.2\lvgl\src\lv_objx\../lv_objx/lv_page.h ****  * Get that height which can be set to the children to still not cause overflow (show scrollbars)
 276:..\..\..\lvgl\version_6.1.2\lvgl\src\lv_objx\../lv_objx/lv_page.h ****  * @param page pointer to a page object
 277:..\..\..\lvgl\version_6.1.2\lvgl\src\lv_objx\../lv_objx/lv_page.h ****  * @return the height which still fits into the page
 278:..\..\..\lvgl\version_6.1.2\lvgl\src\lv_objx\../lv_objx/lv_page.h ****  */
 279:..\..\..\lvgl\version_6.1.2\lvgl\src\lv_objx\../lv_objx/lv_page.h **** lv_coord_t lv_page_get_fit_height(lv_obj_t * page);
 280:..\..\..\lvgl\version_6.1.2\lvgl\src\lv_objx\../lv_objx/lv_page.h **** 
ARM GAS  C:\Users\tmj32\AppData\Local\Temp\ccT5YJ50.s 			page 17


 281:..\..\..\lvgl\version_6.1.2\lvgl\src\lv_objx\../lv_objx/lv_page.h **** /**
 282:..\..\..\lvgl\version_6.1.2\lvgl\src\lv_objx\../lv_objx/lv_page.h ****  * Get width of the scrollable part of a page
 283:..\..\..\lvgl\version_6.1.2\lvgl\src\lv_objx\../lv_objx/lv_page.h ****  * @param page pointer to a page object
 284:..\..\..\lvgl\version_6.1.2\lvgl\src\lv_objx\../lv_objx/lv_page.h ****  * @return the width of the scrollable
 285:..\..\..\lvgl\version_6.1.2\lvgl\src\lv_objx\../lv_objx/lv_page.h ****  */
 286:..\..\..\lvgl\version_6.1.2\lvgl\src\lv_objx\../lv_objx/lv_page.h **** static inline lv_coord_t lv_page_get_scrl_width(const lv_obj_t * page)
 287:..\..\..\lvgl\version_6.1.2\lvgl\src\lv_objx\../lv_objx/lv_page.h **** {
 288:..\..\..\lvgl\version_6.1.2\lvgl\src\lv_objx\../lv_objx/lv_page.h ****     return lv_obj_get_width(lv_page_get_scrl(page));
 289:..\..\..\lvgl\version_6.1.2\lvgl\src\lv_objx\../lv_objx/lv_page.h **** }
 290:..\..\..\lvgl\version_6.1.2\lvgl\src\lv_objx\../lv_objx/lv_page.h **** 
 291:..\..\..\lvgl\version_6.1.2\lvgl\src\lv_objx\../lv_objx/lv_page.h **** /**
 292:..\..\..\lvgl\version_6.1.2\lvgl\src\lv_objx\../lv_objx/lv_page.h ****  * Get height of the scrollable part of a page
 293:..\..\..\lvgl\version_6.1.2\lvgl\src\lv_objx\../lv_objx/lv_page.h ****  * @param page pointer to a page object
 294:..\..\..\lvgl\version_6.1.2\lvgl\src\lv_objx\../lv_objx/lv_page.h ****  * @return the height of the scrollable
 295:..\..\..\lvgl\version_6.1.2\lvgl\src\lv_objx\../lv_objx/lv_page.h ****  */
 296:..\..\..\lvgl\version_6.1.2\lvgl\src\lv_objx\../lv_objx/lv_page.h **** static inline lv_coord_t lv_page_get_scrl_height(const lv_obj_t * page)
 297:..\..\..\lvgl\version_6.1.2\lvgl\src\lv_objx\../lv_objx/lv_page.h **** {
 298:..\..\..\lvgl\version_6.1.2\lvgl\src\lv_objx\../lv_objx/lv_page.h ****     return lv_obj_get_height(lv_page_get_scrl(page));
 299:..\..\..\lvgl\version_6.1.2\lvgl\src\lv_objx\../lv_objx/lv_page.h **** }
 300:..\..\..\lvgl\version_6.1.2\lvgl\src\lv_objx\../lv_objx/lv_page.h **** 
 301:..\..\..\lvgl\version_6.1.2\lvgl\src\lv_objx\../lv_objx/lv_page.h **** /**
 302:..\..\..\lvgl\version_6.1.2\lvgl\src\lv_objx\../lv_objx/lv_page.h ****  * Get the layout of the scrollable part of a page
 303:..\..\..\lvgl\version_6.1.2\lvgl\src\lv_objx\../lv_objx/lv_page.h ****  * @param page pointer to page object
 304:..\..\..\lvgl\version_6.1.2\lvgl\src\lv_objx\../lv_objx/lv_page.h ****  * @return the layout from 'lv_cont_layout_t'
 305:..\..\..\lvgl\version_6.1.2\lvgl\src\lv_objx\../lv_objx/lv_page.h ****  */
 306:..\..\..\lvgl\version_6.1.2\lvgl\src\lv_objx\../lv_objx/lv_page.h **** static inline lv_layout_t lv_page_get_scrl_layout(const lv_obj_t * page)
 307:..\..\..\lvgl\version_6.1.2\lvgl\src\lv_objx\../lv_objx/lv_page.h **** {
 308:..\..\..\lvgl\version_6.1.2\lvgl\src\lv_objx\../lv_objx/lv_page.h ****     return lv_cont_get_layout(lv_page_get_scrl(page));
 309:..\..\..\lvgl\version_6.1.2\lvgl\src\lv_objx\../lv_objx/lv_page.h **** }
 310:..\..\..\lvgl\version_6.1.2\lvgl\src\lv_objx\../lv_objx/lv_page.h **** 
 311:..\..\..\lvgl\version_6.1.2\lvgl\src\lv_objx\../lv_objx/lv_page.h **** /**
 312:..\..\..\lvgl\version_6.1.2\lvgl\src\lv_objx\../lv_objx/lv_page.h ****  * Get the left fit mode
 313:..\..\..\lvgl\version_6.1.2\lvgl\src\lv_objx\../lv_objx/lv_page.h ****  * @param page pointer to a page object
 314:..\..\..\lvgl\version_6.1.2\lvgl\src\lv_objx\../lv_objx/lv_page.h ****  * @return an element of `lv_fit_t`
 315:..\..\..\lvgl\version_6.1.2\lvgl\src\lv_objx\../lv_objx/lv_page.h ****  */
 316:..\..\..\lvgl\version_6.1.2\lvgl\src\lv_objx\../lv_objx/lv_page.h **** static inline lv_fit_t lv_page_get_scrl_fit_left(const lv_obj_t * page)
 317:..\..\..\lvgl\version_6.1.2\lvgl\src\lv_objx\../lv_objx/lv_page.h **** {
 283              		.loc 4 317 0
 284              		.cfi_startproc
 285              		@ args = 0, pretend = 0, frame = 8
 286              		@ frame_needed = 1, uses_anonymous_args = 0
 287 0000 80B5     		push	{r7, lr}
 288              		.cfi_def_cfa_offset 8
 289              		.cfi_offset 7, -8
 290              		.cfi_offset 14, -4
 291 0002 82B0     		sub	sp, sp, #8
 292              		.cfi_def_cfa_offset 16
 293 0004 00AF     		add	r7, sp, #0
 294              		.cfi_def_cfa_register 7
 295 0006 7860     		str	r0, [r7, #4]
 318:..\..\..\lvgl\version_6.1.2\lvgl\src\lv_objx\../lv_objx/lv_page.h ****     return lv_cont_get_fit_left(lv_page_get_scrl(page));
 296              		.loc 4 318 0
 297 0008 7868     		ldr	r0, [r7, #4]
 298 000a FFF7FEFF 		bl	lv_page_get_scrl
 299 000e 0346     		mov	r3, r0
 300 0010 1846     		mov	r0, r3
 301 0012 FFF7FEFF 		bl	lv_cont_get_fit_left
ARM GAS  C:\Users\tmj32\AppData\Local\Temp\ccT5YJ50.s 			page 18


 302 0016 0346     		mov	r3, r0
 319:..\..\..\lvgl\version_6.1.2\lvgl\src\lv_objx\../lv_objx/lv_page.h **** }
 303              		.loc 4 319 0
 304 0018 1846     		mov	r0, r3
 305 001a 0837     		adds	r7, r7, #8
 306              		.cfi_def_cfa_offset 8
 307 001c BD46     		mov	sp, r7
 308              		.cfi_def_cfa_register 13
 309              		@ sp needed
 310 001e 80BD     		pop	{r7, pc}
 311              		.cfi_endproc
 312              	.LFE44:
 313              		.size	lv_page_get_scrl_fit_left, .-lv_page_get_scrl_fit_left
 314              		.section	.text.lv_ddlist_set_anim_time,"ax",%progbits
 315              		.align	2
 316              		.thumb
 317              		.thumb_func
 318              		.type	lv_ddlist_set_anim_time, %function
 319              	lv_ddlist_set_anim_time:
 320              	.LFB51:
 321              		.file 5 "..\\..\\..\\lvgl\\version_6.1.2\\lvgl\\src\\lv_objx\\lv_ddlist.h"
   1:..\..\..\lvgl\version_6.1.2\lvgl\src\lv_objx/lv_ddlist.h **** /**
   2:..\..\..\lvgl\version_6.1.2\lvgl\src\lv_objx/lv_ddlist.h ****  * @file lv_ddlist.h
   3:..\..\..\lvgl\version_6.1.2\lvgl\src\lv_objx/lv_ddlist.h ****  *
   4:..\..\..\lvgl\version_6.1.2\lvgl\src\lv_objx/lv_ddlist.h ****  */
   5:..\..\..\lvgl\version_6.1.2\lvgl\src\lv_objx/lv_ddlist.h **** 
   6:..\..\..\lvgl\version_6.1.2\lvgl\src\lv_objx/lv_ddlist.h **** #ifndef LV_DDLIST_H
   7:..\..\..\lvgl\version_6.1.2\lvgl\src\lv_objx/lv_ddlist.h **** #define LV_DDLIST_H
   8:..\..\..\lvgl\version_6.1.2\lvgl\src\lv_objx/lv_ddlist.h **** 
   9:..\..\..\lvgl\version_6.1.2\lvgl\src\lv_objx/lv_ddlist.h **** #ifdef __cplusplus
  10:..\..\..\lvgl\version_6.1.2\lvgl\src\lv_objx/lv_ddlist.h **** extern "C" {
  11:..\..\..\lvgl\version_6.1.2\lvgl\src\lv_objx/lv_ddlist.h **** #endif
  12:..\..\..\lvgl\version_6.1.2\lvgl\src\lv_objx/lv_ddlist.h **** 
  13:..\..\..\lvgl\version_6.1.2\lvgl\src\lv_objx/lv_ddlist.h **** /*********************
  14:..\..\..\lvgl\version_6.1.2\lvgl\src\lv_objx/lv_ddlist.h ****  *      INCLUDES
  15:..\..\..\lvgl\version_6.1.2\lvgl\src\lv_objx/lv_ddlist.h ****  *********************/
  16:..\..\..\lvgl\version_6.1.2\lvgl\src\lv_objx/lv_ddlist.h **** #ifdef LV_CONF_INCLUDE_SIMPLE
  17:..\..\..\lvgl\version_6.1.2\lvgl\src\lv_objx/lv_ddlist.h **** #include "lv_conf.h"
  18:..\..\..\lvgl\version_6.1.2\lvgl\src\lv_objx/lv_ddlist.h **** #else
  19:..\..\..\lvgl\version_6.1.2\lvgl\src\lv_objx/lv_ddlist.h **** #include "../../../lv_conf.h"
  20:..\..\..\lvgl\version_6.1.2\lvgl\src\lv_objx/lv_ddlist.h **** #endif
  21:..\..\..\lvgl\version_6.1.2\lvgl\src\lv_objx/lv_ddlist.h **** 
  22:..\..\..\lvgl\version_6.1.2\lvgl\src\lv_objx/lv_ddlist.h **** #if LV_USE_DDLIST != 0
  23:..\..\..\lvgl\version_6.1.2\lvgl\src\lv_objx/lv_ddlist.h **** 
  24:..\..\..\lvgl\version_6.1.2\lvgl\src\lv_objx/lv_ddlist.h **** /*Testing of dependencies*/
  25:..\..\..\lvgl\version_6.1.2\lvgl\src\lv_objx/lv_ddlist.h **** #if LV_USE_PAGE == 0
  26:..\..\..\lvgl\version_6.1.2\lvgl\src\lv_objx/lv_ddlist.h **** #error "lv_ddlist: lv_page is required. Enable it in lv_conf.h (LV_USE_PAGE  1) "
  27:..\..\..\lvgl\version_6.1.2\lvgl\src\lv_objx/lv_ddlist.h **** #endif
  28:..\..\..\lvgl\version_6.1.2\lvgl\src\lv_objx/lv_ddlist.h **** 
  29:..\..\..\lvgl\version_6.1.2\lvgl\src\lv_objx/lv_ddlist.h **** #if LV_USE_LABEL == 0
  30:..\..\..\lvgl\version_6.1.2\lvgl\src\lv_objx/lv_ddlist.h **** #error "lv_ddlist: lv_label is required. Enable it in lv_conf.h (LV_USE_LABEL  1) "
  31:..\..\..\lvgl\version_6.1.2\lvgl\src\lv_objx/lv_ddlist.h **** #endif
  32:..\..\..\lvgl\version_6.1.2\lvgl\src\lv_objx/lv_ddlist.h **** 
  33:..\..\..\lvgl\version_6.1.2\lvgl\src\lv_objx/lv_ddlist.h **** #include "../lv_core/lv_obj.h"
  34:..\..\..\lvgl\version_6.1.2\lvgl\src\lv_objx/lv_ddlist.h **** #include "../lv_objx/lv_page.h"
  35:..\..\..\lvgl\version_6.1.2\lvgl\src\lv_objx/lv_ddlist.h **** #include "../lv_objx/lv_label.h"
  36:..\..\..\lvgl\version_6.1.2\lvgl\src\lv_objx/lv_ddlist.h **** 
ARM GAS  C:\Users\tmj32\AppData\Local\Temp\ccT5YJ50.s 			page 19


  37:..\..\..\lvgl\version_6.1.2\lvgl\src\lv_objx/lv_ddlist.h **** /*********************
  38:..\..\..\lvgl\version_6.1.2\lvgl\src\lv_objx/lv_ddlist.h ****  *      DEFINES
  39:..\..\..\lvgl\version_6.1.2\lvgl\src\lv_objx/lv_ddlist.h ****  *********************/
  40:..\..\..\lvgl\version_6.1.2\lvgl\src\lv_objx/lv_ddlist.h **** 
  41:..\..\..\lvgl\version_6.1.2\lvgl\src\lv_objx/lv_ddlist.h **** /**********************
  42:..\..\..\lvgl\version_6.1.2\lvgl\src\lv_objx/lv_ddlist.h ****  *      TYPEDEFS
  43:..\..\..\lvgl\version_6.1.2\lvgl\src\lv_objx/lv_ddlist.h ****  **********************/
  44:..\..\..\lvgl\version_6.1.2\lvgl\src\lv_objx/lv_ddlist.h **** /*Data of drop down list*/
  45:..\..\..\lvgl\version_6.1.2\lvgl\src\lv_objx/lv_ddlist.h **** typedef struct
  46:..\..\..\lvgl\version_6.1.2\lvgl\src\lv_objx/lv_ddlist.h **** {
  47:..\..\..\lvgl\version_6.1.2\lvgl\src\lv_objx/lv_ddlist.h ****     lv_page_ext_t page; /*Ext. of ancestor*/
  48:..\..\..\lvgl\version_6.1.2\lvgl\src\lv_objx/lv_ddlist.h ****     /*New data for this type */
  49:..\..\..\lvgl\version_6.1.2\lvgl\src\lv_objx/lv_ddlist.h ****     lv_obj_t * label;             /*Label for the options*/
  50:..\..\..\lvgl\version_6.1.2\lvgl\src\lv_objx/lv_ddlist.h ****     const lv_style_t * sel_style; /*Style of the selected option*/
  51:..\..\..\lvgl\version_6.1.2\lvgl\src\lv_objx/lv_ddlist.h ****     uint16_t option_cnt;          /*Number of options*/
  52:..\..\..\lvgl\version_6.1.2\lvgl\src\lv_objx/lv_ddlist.h ****     uint16_t sel_opt_id;          /*Index of the current option*/
  53:..\..\..\lvgl\version_6.1.2\lvgl\src\lv_objx/lv_ddlist.h ****     uint16_t sel_opt_id_ori;      /*Store the original index on focus*/
  54:..\..\..\lvgl\version_6.1.2\lvgl\src\lv_objx/lv_ddlist.h ****     uint8_t opened : 1;           /*1: The list is opened (handled by the library)*/
  55:..\..\..\lvgl\version_6.1.2\lvgl\src\lv_objx/lv_ddlist.h ****     uint8_t force_sel : 1;        /*1: Keep the selection highlight even if the list is closed*/
  56:..\..\..\lvgl\version_6.1.2\lvgl\src\lv_objx/lv_ddlist.h ****     uint8_t draw_arrow : 1;       /*1: Draw arrow*/
  57:..\..\..\lvgl\version_6.1.2\lvgl\src\lv_objx/lv_ddlist.h ****     uint8_t stay_open : 1;        /*1: Don't close the list when a new item is selected*/
  58:..\..\..\lvgl\version_6.1.2\lvgl\src\lv_objx/lv_ddlist.h ****     lv_coord_t fix_height;        /*Height of the ddlist when opened. (0: auto-size)*/
  59:..\..\..\lvgl\version_6.1.2\lvgl\src\lv_objx/lv_ddlist.h **** } lv_ddlist_ext_t;
  60:..\..\..\lvgl\version_6.1.2\lvgl\src\lv_objx/lv_ddlist.h **** 
  61:..\..\..\lvgl\version_6.1.2\lvgl\src\lv_objx/lv_ddlist.h **** enum {
  62:..\..\..\lvgl\version_6.1.2\lvgl\src\lv_objx/lv_ddlist.h ****     LV_DDLIST_STYLE_BG,
  63:..\..\..\lvgl\version_6.1.2\lvgl\src\lv_objx/lv_ddlist.h ****     LV_DDLIST_STYLE_SEL,
  64:..\..\..\lvgl\version_6.1.2\lvgl\src\lv_objx/lv_ddlist.h ****     LV_DDLIST_STYLE_SB,
  65:..\..\..\lvgl\version_6.1.2\lvgl\src\lv_objx/lv_ddlist.h **** };
  66:..\..\..\lvgl\version_6.1.2\lvgl\src\lv_objx/lv_ddlist.h **** typedef uint8_t lv_ddlist_style_t;
  67:..\..\..\lvgl\version_6.1.2\lvgl\src\lv_objx/lv_ddlist.h **** 
  68:..\..\..\lvgl\version_6.1.2\lvgl\src\lv_objx/lv_ddlist.h **** /**********************
  69:..\..\..\lvgl\version_6.1.2\lvgl\src\lv_objx/lv_ddlist.h ****  * GLOBAL PROTOTYPES
  70:..\..\..\lvgl\version_6.1.2\lvgl\src\lv_objx/lv_ddlist.h ****  **********************/
  71:..\..\..\lvgl\version_6.1.2\lvgl\src\lv_objx/lv_ddlist.h **** /**
  72:..\..\..\lvgl\version_6.1.2\lvgl\src\lv_objx/lv_ddlist.h ****  * Create a drop down list objects
  73:..\..\..\lvgl\version_6.1.2\lvgl\src\lv_objx/lv_ddlist.h ****  * @param par pointer to an object, it will be the parent of the new drop down list
  74:..\..\..\lvgl\version_6.1.2\lvgl\src\lv_objx/lv_ddlist.h ****  * @param copy pointer to a drop down list object, if not NULL then the new object will be copied
  75:..\..\..\lvgl\version_6.1.2\lvgl\src\lv_objx/lv_ddlist.h ****  * from it
  76:..\..\..\lvgl\version_6.1.2\lvgl\src\lv_objx/lv_ddlist.h ****  * @return pointer to the created drop down list
  77:..\..\..\lvgl\version_6.1.2\lvgl\src\lv_objx/lv_ddlist.h ****  */
  78:..\..\..\lvgl\version_6.1.2\lvgl\src\lv_objx/lv_ddlist.h **** lv_obj_t * lv_ddlist_create(lv_obj_t * par, const lv_obj_t * copy);
  79:..\..\..\lvgl\version_6.1.2\lvgl\src\lv_objx/lv_ddlist.h **** 
  80:..\..\..\lvgl\version_6.1.2\lvgl\src\lv_objx/lv_ddlist.h **** /*=====================
  81:..\..\..\lvgl\version_6.1.2\lvgl\src\lv_objx/lv_ddlist.h ****  * Setter functions
  82:..\..\..\lvgl\version_6.1.2\lvgl\src\lv_objx/lv_ddlist.h ****  *====================*/
  83:..\..\..\lvgl\version_6.1.2\lvgl\src\lv_objx/lv_ddlist.h **** 
  84:..\..\..\lvgl\version_6.1.2\lvgl\src\lv_objx/lv_ddlist.h **** /**
  85:..\..\..\lvgl\version_6.1.2\lvgl\src\lv_objx/lv_ddlist.h ****  * Set the options in a drop down list from a string
  86:..\..\..\lvgl\version_6.1.2\lvgl\src\lv_objx/lv_ddlist.h ****  * @param ddlist pointer to drop down list object
  87:..\..\..\lvgl\version_6.1.2\lvgl\src\lv_objx/lv_ddlist.h ****  * @param options a string with '\n' separated options. E.g. "One\nTwo\nThree"
  88:..\..\..\lvgl\version_6.1.2\lvgl\src\lv_objx/lv_ddlist.h ****  */
  89:..\..\..\lvgl\version_6.1.2\lvgl\src\lv_objx/lv_ddlist.h **** void lv_ddlist_set_options(lv_obj_t * ddlist, const char * options);
  90:..\..\..\lvgl\version_6.1.2\lvgl\src\lv_objx/lv_ddlist.h **** 
  91:..\..\..\lvgl\version_6.1.2\lvgl\src\lv_objx/lv_ddlist.h **** /**
  92:..\..\..\lvgl\version_6.1.2\lvgl\src\lv_objx/lv_ddlist.h ****  * Set the selected option
  93:..\..\..\lvgl\version_6.1.2\lvgl\src\lv_objx/lv_ddlist.h ****  * @param ddlist pointer to drop down list object
ARM GAS  C:\Users\tmj32\AppData\Local\Temp\ccT5YJ50.s 			page 20


  94:..\..\..\lvgl\version_6.1.2\lvgl\src\lv_objx/lv_ddlist.h ****  * @param sel_opt id of the selected option (0 ... number of option - 1);
  95:..\..\..\lvgl\version_6.1.2\lvgl\src\lv_objx/lv_ddlist.h ****  */
  96:..\..\..\lvgl\version_6.1.2\lvgl\src\lv_objx/lv_ddlist.h **** void lv_ddlist_set_selected(lv_obj_t * ddlist, uint16_t sel_opt);
  97:..\..\..\lvgl\version_6.1.2\lvgl\src\lv_objx/lv_ddlist.h **** 
  98:..\..\..\lvgl\version_6.1.2\lvgl\src\lv_objx/lv_ddlist.h **** /**
  99:..\..\..\lvgl\version_6.1.2\lvgl\src\lv_objx/lv_ddlist.h ****  * Set a fix height for the drop down list
 100:..\..\..\lvgl\version_6.1.2\lvgl\src\lv_objx/lv_ddlist.h ****  * If 0 then the opened ddlist will be auto. sized else the set height will be applied.
 101:..\..\..\lvgl\version_6.1.2\lvgl\src\lv_objx/lv_ddlist.h ****  * @param ddlist pointer to a drop down list
 102:..\..\..\lvgl\version_6.1.2\lvgl\src\lv_objx/lv_ddlist.h ****  * @param h the height when the list is opened (0: auto size)
 103:..\..\..\lvgl\version_6.1.2\lvgl\src\lv_objx/lv_ddlist.h ****  */
 104:..\..\..\lvgl\version_6.1.2\lvgl\src\lv_objx/lv_ddlist.h **** void lv_ddlist_set_fix_height(lv_obj_t * ddlist, lv_coord_t h);
 105:..\..\..\lvgl\version_6.1.2\lvgl\src\lv_objx/lv_ddlist.h **** 
 106:..\..\..\lvgl\version_6.1.2\lvgl\src\lv_objx/lv_ddlist.h **** /**
 107:..\..\..\lvgl\version_6.1.2\lvgl\src\lv_objx/lv_ddlist.h ****  * Set a fix width for the drop down list
 108:..\..\..\lvgl\version_6.1.2\lvgl\src\lv_objx/lv_ddlist.h ****  * @param ddlist pointer to a drop down list
 109:..\..\..\lvgl\version_6.1.2\lvgl\src\lv_objx/lv_ddlist.h ****  * @param w the width when the list is opened (0: auto size)
 110:..\..\..\lvgl\version_6.1.2\lvgl\src\lv_objx/lv_ddlist.h ****  */
 111:..\..\..\lvgl\version_6.1.2\lvgl\src\lv_objx/lv_ddlist.h **** void lv_ddlist_set_fix_width(lv_obj_t * ddlist, lv_coord_t w);
 112:..\..\..\lvgl\version_6.1.2\lvgl\src\lv_objx/lv_ddlist.h **** 
 113:..\..\..\lvgl\version_6.1.2\lvgl\src\lv_objx/lv_ddlist.h **** /**
 114:..\..\..\lvgl\version_6.1.2\lvgl\src\lv_objx/lv_ddlist.h ****  * Set arrow draw in a drop down list
 115:..\..\..\lvgl\version_6.1.2\lvgl\src\lv_objx/lv_ddlist.h ****  * @param ddlist pointer to drop down list object
 116:..\..\..\lvgl\version_6.1.2\lvgl\src\lv_objx/lv_ddlist.h ****  * @param en enable/disable a arrow draw. E.g. "true" for draw.
 117:..\..\..\lvgl\version_6.1.2\lvgl\src\lv_objx/lv_ddlist.h ****  */
 118:..\..\..\lvgl\version_6.1.2\lvgl\src\lv_objx/lv_ddlist.h **** void lv_ddlist_set_draw_arrow(lv_obj_t * ddlist, bool en);
 119:..\..\..\lvgl\version_6.1.2\lvgl\src\lv_objx/lv_ddlist.h **** 
 120:..\..\..\lvgl\version_6.1.2\lvgl\src\lv_objx/lv_ddlist.h **** /**
 121:..\..\..\lvgl\version_6.1.2\lvgl\src\lv_objx/lv_ddlist.h ****  * Leave the list opened when a new value is selected
 122:..\..\..\lvgl\version_6.1.2\lvgl\src\lv_objx/lv_ddlist.h ****  * @param ddlist pointer to drop down list object
 123:..\..\..\lvgl\version_6.1.2\lvgl\src\lv_objx/lv_ddlist.h ****  * @param en enable/disable "stay open" feature
 124:..\..\..\lvgl\version_6.1.2\lvgl\src\lv_objx/lv_ddlist.h ****  */
 125:..\..\..\lvgl\version_6.1.2\lvgl\src\lv_objx/lv_ddlist.h **** void lv_ddlist_set_stay_open(lv_obj_t * ddlist, bool en);
 126:..\..\..\lvgl\version_6.1.2\lvgl\src\lv_objx/lv_ddlist.h **** 
 127:..\..\..\lvgl\version_6.1.2\lvgl\src\lv_objx/lv_ddlist.h **** /**
 128:..\..\..\lvgl\version_6.1.2\lvgl\src\lv_objx/lv_ddlist.h ****  * Set the scroll bar mode of a drop down list
 129:..\..\..\lvgl\version_6.1.2\lvgl\src\lv_objx/lv_ddlist.h ****  * @param ddlist pointer to a drop down list object
 130:..\..\..\lvgl\version_6.1.2\lvgl\src\lv_objx/lv_ddlist.h ****  * @param sb_mode the new mode from 'lv_page_sb_mode_t' enum
 131:..\..\..\lvgl\version_6.1.2\lvgl\src\lv_objx/lv_ddlist.h ****  */
 132:..\..\..\lvgl\version_6.1.2\lvgl\src\lv_objx/lv_ddlist.h **** static inline void lv_ddlist_set_sb_mode(lv_obj_t * ddlist, lv_sb_mode_t mode)
 133:..\..\..\lvgl\version_6.1.2\lvgl\src\lv_objx/lv_ddlist.h **** {
 134:..\..\..\lvgl\version_6.1.2\lvgl\src\lv_objx/lv_ddlist.h ****     lv_page_set_sb_mode(ddlist, mode);
 135:..\..\..\lvgl\version_6.1.2\lvgl\src\lv_objx/lv_ddlist.h **** }
 136:..\..\..\lvgl\version_6.1.2\lvgl\src\lv_objx/lv_ddlist.h **** /**
 137:..\..\..\lvgl\version_6.1.2\lvgl\src\lv_objx/lv_ddlist.h ****  * Set the open/close animation time.
 138:..\..\..\lvgl\version_6.1.2\lvgl\src\lv_objx/lv_ddlist.h ****  * @param ddlist pointer to a drop down list
 139:..\..\..\lvgl\version_6.1.2\lvgl\src\lv_objx/lv_ddlist.h ****  * @param anim_time: open/close animation time [ms]
 140:..\..\..\lvgl\version_6.1.2\lvgl\src\lv_objx/lv_ddlist.h ****  */
 141:..\..\..\lvgl\version_6.1.2\lvgl\src\lv_objx/lv_ddlist.h **** static inline void lv_ddlist_set_anim_time(lv_obj_t * ddlist, uint16_t anim_time)
 142:..\..\..\lvgl\version_6.1.2\lvgl\src\lv_objx/lv_ddlist.h **** {
 322              		.loc 5 142 0
 323              		.cfi_startproc
 324              		@ args = 0, pretend = 0, frame = 8
 325              		@ frame_needed = 1, uses_anonymous_args = 0
 326 0000 80B5     		push	{r7, lr}
 327              		.cfi_def_cfa_offset 8
 328              		.cfi_offset 7, -8
 329              		.cfi_offset 14, -4
ARM GAS  C:\Users\tmj32\AppData\Local\Temp\ccT5YJ50.s 			page 21


 330 0002 82B0     		sub	sp, sp, #8
 331              		.cfi_def_cfa_offset 16
 332 0004 00AF     		add	r7, sp, #0
 333              		.cfi_def_cfa_register 7
 334 0006 7860     		str	r0, [r7, #4]
 335 0008 0B46     		mov	r3, r1
 336 000a 7B80     		strh	r3, [r7, #2]	@ movhi
 143:..\..\..\lvgl\version_6.1.2\lvgl\src\lv_objx/lv_ddlist.h ****     lv_page_set_anim_time(ddlist, anim_time);
 337              		.loc 5 143 0
 338 000c 7B88     		ldrh	r3, [r7, #2]
 339 000e 1946     		mov	r1, r3
 340 0010 7868     		ldr	r0, [r7, #4]
 341 0012 FFF7FEFF 		bl	lv_page_set_anim_time
 144:..\..\..\lvgl\version_6.1.2\lvgl\src\lv_objx/lv_ddlist.h **** }
 342              		.loc 5 144 0
 343 0016 00BF     		nop
 344 0018 0837     		adds	r7, r7, #8
 345              		.cfi_def_cfa_offset 8
 346 001a BD46     		mov	sp, r7
 347              		.cfi_def_cfa_register 13
 348              		@ sp needed
 349 001c 80BD     		pop	{r7, pc}
 350              		.cfi_endproc
 351              	.LFE51:
 352              		.size	lv_ddlist_set_anim_time, .-lv_ddlist_set_anim_time
 353 001e 00BF     		.section	.text.lv_ddlist_get_anim_time,"ax",%progbits
 354              		.align	2
 355              		.thumb
 356              		.thumb_func
 357              		.type	lv_ddlist_get_anim_time, %function
 358              	lv_ddlist_get_anim_time:
 359              	.LFB53:
 145:..\..\..\lvgl\version_6.1.2\lvgl\src\lv_objx/lv_ddlist.h **** 
 146:..\..\..\lvgl\version_6.1.2\lvgl\src\lv_objx/lv_ddlist.h **** /**
 147:..\..\..\lvgl\version_6.1.2\lvgl\src\lv_objx/lv_ddlist.h ****  * Set a style of a drop down list
 148:..\..\..\lvgl\version_6.1.2\lvgl\src\lv_objx/lv_ddlist.h ****  * @param ddlist pointer to a drop down list object
 149:..\..\..\lvgl\version_6.1.2\lvgl\src\lv_objx/lv_ddlist.h ****  * @param type which style should be set
 150:..\..\..\lvgl\version_6.1.2\lvgl\src\lv_objx/lv_ddlist.h ****  * @param style pointer to a style
 151:..\..\..\lvgl\version_6.1.2\lvgl\src\lv_objx/lv_ddlist.h ****  *  */
 152:..\..\..\lvgl\version_6.1.2\lvgl\src\lv_objx/lv_ddlist.h **** void lv_ddlist_set_style(lv_obj_t * ddlist, lv_ddlist_style_t type, const lv_style_t * style);
 153:..\..\..\lvgl\version_6.1.2\lvgl\src\lv_objx/lv_ddlist.h **** 
 154:..\..\..\lvgl\version_6.1.2\lvgl\src\lv_objx/lv_ddlist.h **** /**
 155:..\..\..\lvgl\version_6.1.2\lvgl\src\lv_objx/lv_ddlist.h ****  * Set the alignment of the labels in a drop down list
 156:..\..\..\lvgl\version_6.1.2\lvgl\src\lv_objx/lv_ddlist.h ****  * @param ddlist pointer to a drop down list object
 157:..\..\..\lvgl\version_6.1.2\lvgl\src\lv_objx/lv_ddlist.h ****  * @param align alignment of labels
 158:..\..\..\lvgl\version_6.1.2\lvgl\src\lv_objx/lv_ddlist.h ****  */
 159:..\..\..\lvgl\version_6.1.2\lvgl\src\lv_objx/lv_ddlist.h **** void lv_ddlist_set_align(lv_obj_t * ddlist, lv_label_align_t align);
 160:..\..\..\lvgl\version_6.1.2\lvgl\src\lv_objx/lv_ddlist.h **** 
 161:..\..\..\lvgl\version_6.1.2\lvgl\src\lv_objx/lv_ddlist.h **** /*=====================
 162:..\..\..\lvgl\version_6.1.2\lvgl\src\lv_objx/lv_ddlist.h ****  * Getter functions
 163:..\..\..\lvgl\version_6.1.2\lvgl\src\lv_objx/lv_ddlist.h ****  *====================*/
 164:..\..\..\lvgl\version_6.1.2\lvgl\src\lv_objx/lv_ddlist.h **** 
 165:..\..\..\lvgl\version_6.1.2\lvgl\src\lv_objx/lv_ddlist.h **** /**
 166:..\..\..\lvgl\version_6.1.2\lvgl\src\lv_objx/lv_ddlist.h ****  * Get the options of a drop down list
 167:..\..\..\lvgl\version_6.1.2\lvgl\src\lv_objx/lv_ddlist.h ****  * @param ddlist pointer to drop down list object
 168:..\..\..\lvgl\version_6.1.2\lvgl\src\lv_objx/lv_ddlist.h ****  * @return the options separated by '\n'-s (E.g. "Option1\nOption2\nOption3")
 169:..\..\..\lvgl\version_6.1.2\lvgl\src\lv_objx/lv_ddlist.h ****  */
ARM GAS  C:\Users\tmj32\AppData\Local\Temp\ccT5YJ50.s 			page 22


 170:..\..\..\lvgl\version_6.1.2\lvgl\src\lv_objx/lv_ddlist.h **** const char * lv_ddlist_get_options(const lv_obj_t * ddlist);
 171:..\..\..\lvgl\version_6.1.2\lvgl\src\lv_objx/lv_ddlist.h **** 
 172:..\..\..\lvgl\version_6.1.2\lvgl\src\lv_objx/lv_ddlist.h **** /**
 173:..\..\..\lvgl\version_6.1.2\lvgl\src\lv_objx/lv_ddlist.h ****  * Get the selected option
 174:..\..\..\lvgl\version_6.1.2\lvgl\src\lv_objx/lv_ddlist.h ****  * @param ddlist pointer to drop down list object
 175:..\..\..\lvgl\version_6.1.2\lvgl\src\lv_objx/lv_ddlist.h ****  * @return id of the selected option (0 ... number of option - 1);
 176:..\..\..\lvgl\version_6.1.2\lvgl\src\lv_objx/lv_ddlist.h ****  */
 177:..\..\..\lvgl\version_6.1.2\lvgl\src\lv_objx/lv_ddlist.h **** uint16_t lv_ddlist_get_selected(const lv_obj_t * ddlist);
 178:..\..\..\lvgl\version_6.1.2\lvgl\src\lv_objx/lv_ddlist.h **** 
 179:..\..\..\lvgl\version_6.1.2\lvgl\src\lv_objx/lv_ddlist.h **** /**
 180:..\..\..\lvgl\version_6.1.2\lvgl\src\lv_objx/lv_ddlist.h ****  * Get the current selected option as a string
 181:..\..\..\lvgl\version_6.1.2\lvgl\src\lv_objx/lv_ddlist.h ****  * @param ddlist pointer to ddlist object
 182:..\..\..\lvgl\version_6.1.2\lvgl\src\lv_objx/lv_ddlist.h ****  * @param buf pointer to an array to store the string
 183:..\..\..\lvgl\version_6.1.2\lvgl\src\lv_objx/lv_ddlist.h ****  * @param buf_size size of `buf` in bytes. 0: to ignore it.
 184:..\..\..\lvgl\version_6.1.2\lvgl\src\lv_objx/lv_ddlist.h ****  */
 185:..\..\..\lvgl\version_6.1.2\lvgl\src\lv_objx/lv_ddlist.h **** void lv_ddlist_get_selected_str(const lv_obj_t * ddlist, char * buf, uint16_t buf_size);
 186:..\..\..\lvgl\version_6.1.2\lvgl\src\lv_objx/lv_ddlist.h **** 
 187:..\..\..\lvgl\version_6.1.2\lvgl\src\lv_objx/lv_ddlist.h **** /**
 188:..\..\..\lvgl\version_6.1.2\lvgl\src\lv_objx/lv_ddlist.h ****  * Get the fix height value.
 189:..\..\..\lvgl\version_6.1.2\lvgl\src\lv_objx/lv_ddlist.h ****  * @param ddlist pointer to a drop down list object
 190:..\..\..\lvgl\version_6.1.2\lvgl\src\lv_objx/lv_ddlist.h ****  * @return the height if the ddlist is opened (0: auto size)
 191:..\..\..\lvgl\version_6.1.2\lvgl\src\lv_objx/lv_ddlist.h ****  */
 192:..\..\..\lvgl\version_6.1.2\lvgl\src\lv_objx/lv_ddlist.h **** lv_coord_t lv_ddlist_get_fix_height(const lv_obj_t * ddlist);
 193:..\..\..\lvgl\version_6.1.2\lvgl\src\lv_objx/lv_ddlist.h **** 
 194:..\..\..\lvgl\version_6.1.2\lvgl\src\lv_objx/lv_ddlist.h **** /**
 195:..\..\..\lvgl\version_6.1.2\lvgl\src\lv_objx/lv_ddlist.h ****  * Get arrow draw in a drop down list
 196:..\..\..\lvgl\version_6.1.2\lvgl\src\lv_objx/lv_ddlist.h ****  * @param ddlist pointer to drop down list object
 197:..\..\..\lvgl\version_6.1.2\lvgl\src\lv_objx/lv_ddlist.h ****  */
 198:..\..\..\lvgl\version_6.1.2\lvgl\src\lv_objx/lv_ddlist.h **** bool lv_ddlist_get_draw_arrow(lv_obj_t * ddlist);
 199:..\..\..\lvgl\version_6.1.2\lvgl\src\lv_objx/lv_ddlist.h **** 
 200:..\..\..\lvgl\version_6.1.2\lvgl\src\lv_objx/lv_ddlist.h **** /**
 201:..\..\..\lvgl\version_6.1.2\lvgl\src\lv_objx/lv_ddlist.h ****  * Get whether the drop down list stay open after selecting a  value or not
 202:..\..\..\lvgl\version_6.1.2\lvgl\src\lv_objx/lv_ddlist.h ****  * @param ddlist pointer to drop down list object
 203:..\..\..\lvgl\version_6.1.2\lvgl\src\lv_objx/lv_ddlist.h ****  */
 204:..\..\..\lvgl\version_6.1.2\lvgl\src\lv_objx/lv_ddlist.h **** bool lv_ddlist_get_stay_open(lv_obj_t * ddlist);
 205:..\..\..\lvgl\version_6.1.2\lvgl\src\lv_objx/lv_ddlist.h **** 
 206:..\..\..\lvgl\version_6.1.2\lvgl\src\lv_objx/lv_ddlist.h **** /**
 207:..\..\..\lvgl\version_6.1.2\lvgl\src\lv_objx/lv_ddlist.h ****  * Get the scroll bar mode of a drop down list
 208:..\..\..\lvgl\version_6.1.2\lvgl\src\lv_objx/lv_ddlist.h ****  * @param ddlist pointer to a  drop down list object
 209:..\..\..\lvgl\version_6.1.2\lvgl\src\lv_objx/lv_ddlist.h ****  * @return scrollbar mode from 'lv_page_sb_mode_t' enum
 210:..\..\..\lvgl\version_6.1.2\lvgl\src\lv_objx/lv_ddlist.h ****  */
 211:..\..\..\lvgl\version_6.1.2\lvgl\src\lv_objx/lv_ddlist.h **** static inline lv_sb_mode_t lv_ddlist_get_sb_mode(const lv_obj_t * ddlist)
 212:..\..\..\lvgl\version_6.1.2\lvgl\src\lv_objx/lv_ddlist.h **** {
 213:..\..\..\lvgl\version_6.1.2\lvgl\src\lv_objx/lv_ddlist.h ****     return lv_page_get_sb_mode(ddlist);
 214:..\..\..\lvgl\version_6.1.2\lvgl\src\lv_objx/lv_ddlist.h **** }
 215:..\..\..\lvgl\version_6.1.2\lvgl\src\lv_objx/lv_ddlist.h **** 
 216:..\..\..\lvgl\version_6.1.2\lvgl\src\lv_objx/lv_ddlist.h **** /**
 217:..\..\..\lvgl\version_6.1.2\lvgl\src\lv_objx/lv_ddlist.h ****  * Get the open/close animation time.
 218:..\..\..\lvgl\version_6.1.2\lvgl\src\lv_objx/lv_ddlist.h ****  * @param ddlist pointer to a drop down list
 219:..\..\..\lvgl\version_6.1.2\lvgl\src\lv_objx/lv_ddlist.h ****  * @return open/close animation time [ms]
 220:..\..\..\lvgl\version_6.1.2\lvgl\src\lv_objx/lv_ddlist.h ****  */
 221:..\..\..\lvgl\version_6.1.2\lvgl\src\lv_objx/lv_ddlist.h **** static inline uint16_t lv_ddlist_get_anim_time(const lv_obj_t * ddlist)
 222:..\..\..\lvgl\version_6.1.2\lvgl\src\lv_objx/lv_ddlist.h **** {
 360              		.loc 5 222 0
 361              		.cfi_startproc
 362              		@ args = 0, pretend = 0, frame = 8
 363              		@ frame_needed = 1, uses_anonymous_args = 0
ARM GAS  C:\Users\tmj32\AppData\Local\Temp\ccT5YJ50.s 			page 23


 364 0000 80B5     		push	{r7, lr}
 365              		.cfi_def_cfa_offset 8
 366              		.cfi_offset 7, -8
 367              		.cfi_offset 14, -4
 368 0002 82B0     		sub	sp, sp, #8
 369              		.cfi_def_cfa_offset 16
 370 0004 00AF     		add	r7, sp, #0
 371              		.cfi_def_cfa_register 7
 372 0006 7860     		str	r0, [r7, #4]
 223:..\..\..\lvgl\version_6.1.2\lvgl\src\lv_objx/lv_ddlist.h ****     return lv_page_get_anim_time(ddlist);
 373              		.loc 5 223 0
 374 0008 7868     		ldr	r0, [r7, #4]
 375 000a FFF7FEFF 		bl	lv_page_get_anim_time
 376 000e 0346     		mov	r3, r0
 224:..\..\..\lvgl\version_6.1.2\lvgl\src\lv_objx/lv_ddlist.h **** }
 377              		.loc 5 224 0
 378 0010 1846     		mov	r0, r3
 379 0012 0837     		adds	r7, r7, #8
 380              		.cfi_def_cfa_offset 8
 381 0014 BD46     		mov	sp, r7
 382              		.cfi_def_cfa_register 13
 383              		@ sp needed
 384 0016 80BD     		pop	{r7, pc}
 385              		.cfi_endproc
 386              	.LFE53:
 387              		.size	lv_ddlist_get_anim_time, .-lv_ddlist_get_anim_time
 388              		.section	.text.lv_roller_get_anim_time,"ax",%progbits
 389              		.align	2
 390              		.thumb
 391              		.thumb_func
 392              		.type	lv_roller_get_anim_time, %function
 393              	lv_roller_get_anim_time:
 394              	.LFB58:
 395              		.file 6 "..\\..\\..\\lvgl\\version_6.1.2\\lvgl\\src\\lv_objx\\lv_roller.h"
   1:..\..\..\lvgl\version_6.1.2\lvgl\src\lv_objx/lv_roller.h **** /**
   2:..\..\..\lvgl\version_6.1.2\lvgl\src\lv_objx/lv_roller.h ****  * @file lv_roller.h
   3:..\..\..\lvgl\version_6.1.2\lvgl\src\lv_objx/lv_roller.h ****  *
   4:..\..\..\lvgl\version_6.1.2\lvgl\src\lv_objx/lv_roller.h ****  */
   5:..\..\..\lvgl\version_6.1.2\lvgl\src\lv_objx/lv_roller.h **** 
   6:..\..\..\lvgl\version_6.1.2\lvgl\src\lv_objx/lv_roller.h **** #ifndef LV_ROLLER_H
   7:..\..\..\lvgl\version_6.1.2\lvgl\src\lv_objx/lv_roller.h **** #define LV_ROLLER_H
   8:..\..\..\lvgl\version_6.1.2\lvgl\src\lv_objx/lv_roller.h **** 
   9:..\..\..\lvgl\version_6.1.2\lvgl\src\lv_objx/lv_roller.h **** #ifdef __cplusplus
  10:..\..\..\lvgl\version_6.1.2\lvgl\src\lv_objx/lv_roller.h **** extern "C" {
  11:..\..\..\lvgl\version_6.1.2\lvgl\src\lv_objx/lv_roller.h **** #endif
  12:..\..\..\lvgl\version_6.1.2\lvgl\src\lv_objx/lv_roller.h **** 
  13:..\..\..\lvgl\version_6.1.2\lvgl\src\lv_objx/lv_roller.h **** /*********************
  14:..\..\..\lvgl\version_6.1.2\lvgl\src\lv_objx/lv_roller.h ****  *      INCLUDES
  15:..\..\..\lvgl\version_6.1.2\lvgl\src\lv_objx/lv_roller.h ****  *********************/
  16:..\..\..\lvgl\version_6.1.2\lvgl\src\lv_objx/lv_roller.h **** #ifdef LV_CONF_INCLUDE_SIMPLE
  17:..\..\..\lvgl\version_6.1.2\lvgl\src\lv_objx/lv_roller.h **** #include "lv_conf.h"
  18:..\..\..\lvgl\version_6.1.2\lvgl\src\lv_objx/lv_roller.h **** #else
  19:..\..\..\lvgl\version_6.1.2\lvgl\src\lv_objx/lv_roller.h **** #include "../../../lv_conf.h"
  20:..\..\..\lvgl\version_6.1.2\lvgl\src\lv_objx/lv_roller.h **** #endif
  21:..\..\..\lvgl\version_6.1.2\lvgl\src\lv_objx/lv_roller.h **** 
  22:..\..\..\lvgl\version_6.1.2\lvgl\src\lv_objx/lv_roller.h **** #if LV_USE_ROLLER != 0
  23:..\..\..\lvgl\version_6.1.2\lvgl\src\lv_objx/lv_roller.h **** 
ARM GAS  C:\Users\tmj32\AppData\Local\Temp\ccT5YJ50.s 			page 24


  24:..\..\..\lvgl\version_6.1.2\lvgl\src\lv_objx/lv_roller.h **** /*Testing of dependencies*/
  25:..\..\..\lvgl\version_6.1.2\lvgl\src\lv_objx/lv_roller.h **** #if LV_USE_DDLIST == 0
  26:..\..\..\lvgl\version_6.1.2\lvgl\src\lv_objx/lv_roller.h **** #error "lv_roller: lv_ddlist is required. Enable it in lv_conf.h (LV_USE_DDLIST  1) "
  27:..\..\..\lvgl\version_6.1.2\lvgl\src\lv_objx/lv_roller.h **** #endif
  28:..\..\..\lvgl\version_6.1.2\lvgl\src\lv_objx/lv_roller.h **** 
  29:..\..\..\lvgl\version_6.1.2\lvgl\src\lv_objx/lv_roller.h **** #include "../lv_core/lv_obj.h"
  30:..\..\..\lvgl\version_6.1.2\lvgl\src\lv_objx/lv_roller.h **** #include "lv_ddlist.h"
  31:..\..\..\lvgl\version_6.1.2\lvgl\src\lv_objx/lv_roller.h **** #include "lv_label.h"
  32:..\..\..\lvgl\version_6.1.2\lvgl\src\lv_objx/lv_roller.h **** 
  33:..\..\..\lvgl\version_6.1.2\lvgl\src\lv_objx/lv_roller.h **** /*********************
  34:..\..\..\lvgl\version_6.1.2\lvgl\src\lv_objx/lv_roller.h ****  *      DEFINES
  35:..\..\..\lvgl\version_6.1.2\lvgl\src\lv_objx/lv_roller.h ****  *********************/
  36:..\..\..\lvgl\version_6.1.2\lvgl\src\lv_objx/lv_roller.h **** 
  37:..\..\..\lvgl\version_6.1.2\lvgl\src\lv_objx/lv_roller.h **** /**********************
  38:..\..\..\lvgl\version_6.1.2\lvgl\src\lv_objx/lv_roller.h ****  *      TYPEDEFS
  39:..\..\..\lvgl\version_6.1.2\lvgl\src\lv_objx/lv_roller.h ****  **********************/
  40:..\..\..\lvgl\version_6.1.2\lvgl\src\lv_objx/lv_roller.h **** 
  41:..\..\..\lvgl\version_6.1.2\lvgl\src\lv_objx/lv_roller.h **** /** Roller mode. */
  42:..\..\..\lvgl\version_6.1.2\lvgl\src\lv_objx/lv_roller.h **** enum {
  43:..\..\..\lvgl\version_6.1.2\lvgl\src\lv_objx/lv_roller.h ****     LV_ROLLER_MODE_NORMAL, /**< Normal mode (roller ends at the end of the options). */
  44:..\..\..\lvgl\version_6.1.2\lvgl\src\lv_objx/lv_roller.h ****     LV_ROLLER_MODE_INIFINITE, /**< Infinite mode (roller can be scrolled forever). */
  45:..\..\..\lvgl\version_6.1.2\lvgl\src\lv_objx/lv_roller.h **** };
  46:..\..\..\lvgl\version_6.1.2\lvgl\src\lv_objx/lv_roller.h **** 
  47:..\..\..\lvgl\version_6.1.2\lvgl\src\lv_objx/lv_roller.h **** typedef uint8_t lv_roller_mode_t;
  48:..\..\..\lvgl\version_6.1.2\lvgl\src\lv_objx/lv_roller.h **** 
  49:..\..\..\lvgl\version_6.1.2\lvgl\src\lv_objx/lv_roller.h **** 
  50:..\..\..\lvgl\version_6.1.2\lvgl\src\lv_objx/lv_roller.h **** 
  51:..\..\..\lvgl\version_6.1.2\lvgl\src\lv_objx/lv_roller.h **** /*Data of roller*/
  52:..\..\..\lvgl\version_6.1.2\lvgl\src\lv_objx/lv_roller.h **** typedef struct
  53:..\..\..\lvgl\version_6.1.2\lvgl\src\lv_objx/lv_roller.h **** {
  54:..\..\..\lvgl\version_6.1.2\lvgl\src\lv_objx/lv_roller.h ****     lv_ddlist_ext_t ddlist; /*Ext. of ancestor*/
  55:..\..\..\lvgl\version_6.1.2\lvgl\src\lv_objx/lv_roller.h ****     /*New data for this type */
  56:..\..\..\lvgl\version_6.1.2\lvgl\src\lv_objx/lv_roller.h ****     lv_roller_mode_t mode : 1;
  57:..\..\..\lvgl\version_6.1.2\lvgl\src\lv_objx/lv_roller.h **** } lv_roller_ext_t;
  58:..\..\..\lvgl\version_6.1.2\lvgl\src\lv_objx/lv_roller.h **** 
  59:..\..\..\lvgl\version_6.1.2\lvgl\src\lv_objx/lv_roller.h **** enum {
  60:..\..\..\lvgl\version_6.1.2\lvgl\src\lv_objx/lv_roller.h ****     LV_ROLLER_STYLE_BG,
  61:..\..\..\lvgl\version_6.1.2\lvgl\src\lv_objx/lv_roller.h ****     LV_ROLLER_STYLE_SEL,
  62:..\..\..\lvgl\version_6.1.2\lvgl\src\lv_objx/lv_roller.h **** };
  63:..\..\..\lvgl\version_6.1.2\lvgl\src\lv_objx/lv_roller.h **** typedef uint8_t lv_roller_style_t;
  64:..\..\..\lvgl\version_6.1.2\lvgl\src\lv_objx/lv_roller.h **** 
  65:..\..\..\lvgl\version_6.1.2\lvgl\src\lv_objx/lv_roller.h **** /**********************
  66:..\..\..\lvgl\version_6.1.2\lvgl\src\lv_objx/lv_roller.h ****  * GLOBAL PROTOTYPES
  67:..\..\..\lvgl\version_6.1.2\lvgl\src\lv_objx/lv_roller.h ****  **********************/
  68:..\..\..\lvgl\version_6.1.2\lvgl\src\lv_objx/lv_roller.h **** 
  69:..\..\..\lvgl\version_6.1.2\lvgl\src\lv_objx/lv_roller.h **** /**
  70:..\..\..\lvgl\version_6.1.2\lvgl\src\lv_objx/lv_roller.h ****  * Create a roller object
  71:..\..\..\lvgl\version_6.1.2\lvgl\src\lv_objx/lv_roller.h ****  * @param par pointer to an object, it will be the parent of the new roller
  72:..\..\..\lvgl\version_6.1.2\lvgl\src\lv_objx/lv_roller.h ****  * @param copy pointer to a roller object, if not NULL then the new object will be copied from it
  73:..\..\..\lvgl\version_6.1.2\lvgl\src\lv_objx/lv_roller.h ****  * @return pointer to the created roller
  74:..\..\..\lvgl\version_6.1.2\lvgl\src\lv_objx/lv_roller.h ****  */
  75:..\..\..\lvgl\version_6.1.2\lvgl\src\lv_objx/lv_roller.h **** lv_obj_t * lv_roller_create(lv_obj_t * par, const lv_obj_t * copy);
  76:..\..\..\lvgl\version_6.1.2\lvgl\src\lv_objx/lv_roller.h **** 
  77:..\..\..\lvgl\version_6.1.2\lvgl\src\lv_objx/lv_roller.h **** /*=====================
  78:..\..\..\lvgl\version_6.1.2\lvgl\src\lv_objx/lv_roller.h ****  * Setter functions
  79:..\..\..\lvgl\version_6.1.2\lvgl\src\lv_objx/lv_roller.h ****  *====================*/
  80:..\..\..\lvgl\version_6.1.2\lvgl\src\lv_objx/lv_roller.h **** 
ARM GAS  C:\Users\tmj32\AppData\Local\Temp\ccT5YJ50.s 			page 25


  81:..\..\..\lvgl\version_6.1.2\lvgl\src\lv_objx/lv_roller.h **** /**
  82:..\..\..\lvgl\version_6.1.2\lvgl\src\lv_objx/lv_roller.h ****  * Set the options on a roller
  83:..\..\..\lvgl\version_6.1.2\lvgl\src\lv_objx/lv_roller.h ****  * @param roller pointer to roller object
  84:..\..\..\lvgl\version_6.1.2\lvgl\src\lv_objx/lv_roller.h ****  * @param options a string with '\n' separated options. E.g. "One\nTwo\nThree"
  85:..\..\..\lvgl\version_6.1.2\lvgl\src\lv_objx/lv_roller.h ****  * @param mode `LV_ROLLER_MODE_NORMAL` or `LV_ROLLER_MODE_INFINITE`
  86:..\..\..\lvgl\version_6.1.2\lvgl\src\lv_objx/lv_roller.h ****  */
  87:..\..\..\lvgl\version_6.1.2\lvgl\src\lv_objx/lv_roller.h **** void lv_roller_set_options(lv_obj_t * roller, const char * options, lv_roller_mode_t mode);
  88:..\..\..\lvgl\version_6.1.2\lvgl\src\lv_objx/lv_roller.h **** 
  89:..\..\..\lvgl\version_6.1.2\lvgl\src\lv_objx/lv_roller.h **** /**
  90:..\..\..\lvgl\version_6.1.2\lvgl\src\lv_objx/lv_roller.h ****  * Set the align of the roller's options (left, right or center[default])
  91:..\..\..\lvgl\version_6.1.2\lvgl\src\lv_objx/lv_roller.h ****  * @param roller - pointer to a roller object
  92:..\..\..\lvgl\version_6.1.2\lvgl\src\lv_objx/lv_roller.h ****  * @param align - one of lv_label_align_t values (left, right, center)
  93:..\..\..\lvgl\version_6.1.2\lvgl\src\lv_objx/lv_roller.h ****  */
  94:..\..\..\lvgl\version_6.1.2\lvgl\src\lv_objx/lv_roller.h **** void lv_roller_set_align(lv_obj_t * roller, lv_label_align_t align);
  95:..\..\..\lvgl\version_6.1.2\lvgl\src\lv_objx/lv_roller.h **** 
  96:..\..\..\lvgl\version_6.1.2\lvgl\src\lv_objx/lv_roller.h **** /**
  97:..\..\..\lvgl\version_6.1.2\lvgl\src\lv_objx/lv_roller.h ****  * Set the selected option
  98:..\..\..\lvgl\version_6.1.2\lvgl\src\lv_objx/lv_roller.h ****  * @param roller pointer to a roller object
  99:..\..\..\lvgl\version_6.1.2\lvgl\src\lv_objx/lv_roller.h ****  * @param sel_opt id of the selected option (0 ... number of option - 1);
 100:..\..\..\lvgl\version_6.1.2\lvgl\src\lv_objx/lv_roller.h ****  * @param anim LV_ANOM_ON: set with animation; LV_ANIM_OFF set immediately
 101:..\..\..\lvgl\version_6.1.2\lvgl\src\lv_objx/lv_roller.h ****  */
 102:..\..\..\lvgl\version_6.1.2\lvgl\src\lv_objx/lv_roller.h **** void lv_roller_set_selected(lv_obj_t * roller, uint16_t sel_opt, lv_anim_enable_t anim);
 103:..\..\..\lvgl\version_6.1.2\lvgl\src\lv_objx/lv_roller.h **** 
 104:..\..\..\lvgl\version_6.1.2\lvgl\src\lv_objx/lv_roller.h **** /**
 105:..\..\..\lvgl\version_6.1.2\lvgl\src\lv_objx/lv_roller.h ****  * Set the height to show the given number of rows (options)
 106:..\..\..\lvgl\version_6.1.2\lvgl\src\lv_objx/lv_roller.h ****  * @param roller pointer to a roller object
 107:..\..\..\lvgl\version_6.1.2\lvgl\src\lv_objx/lv_roller.h ****  * @param row_cnt number of desired visible rows
 108:..\..\..\lvgl\version_6.1.2\lvgl\src\lv_objx/lv_roller.h ****  */
 109:..\..\..\lvgl\version_6.1.2\lvgl\src\lv_objx/lv_roller.h **** void lv_roller_set_visible_row_count(lv_obj_t * roller, uint8_t row_cnt);
 110:..\..\..\lvgl\version_6.1.2\lvgl\src\lv_objx/lv_roller.h **** 
 111:..\..\..\lvgl\version_6.1.2\lvgl\src\lv_objx/lv_roller.h **** /**
 112:..\..\..\lvgl\version_6.1.2\lvgl\src\lv_objx/lv_roller.h ****  * Set a fix width for the drop down list
 113:..\..\..\lvgl\version_6.1.2\lvgl\src\lv_objx/lv_roller.h ****  * @param roller pointer to a roller obejct
 114:..\..\..\lvgl\version_6.1.2\lvgl\src\lv_objx/lv_roller.h ****  * @param w the width when the list is opened (0: auto size)
 115:..\..\..\lvgl\version_6.1.2\lvgl\src\lv_objx/lv_roller.h ****  */
 116:..\..\..\lvgl\version_6.1.2\lvgl\src\lv_objx/lv_roller.h **** static inline void lv_roller_set_fix_width(lv_obj_t * roller, lv_coord_t w)
 117:..\..\..\lvgl\version_6.1.2\lvgl\src\lv_objx/lv_roller.h **** {
 118:..\..\..\lvgl\version_6.1.2\lvgl\src\lv_objx/lv_roller.h ****     lv_ddlist_set_fix_width(roller, w);
 119:..\..\..\lvgl\version_6.1.2\lvgl\src\lv_objx/lv_roller.h **** }
 120:..\..\..\lvgl\version_6.1.2\lvgl\src\lv_objx/lv_roller.h **** 
 121:..\..\..\lvgl\version_6.1.2\lvgl\src\lv_objx/lv_roller.h **** /**
 122:..\..\..\lvgl\version_6.1.2\lvgl\src\lv_objx/lv_roller.h ****  * Set the open/close animation time.
 123:..\..\..\lvgl\version_6.1.2\lvgl\src\lv_objx/lv_roller.h ****  * @param roller pointer to a roller object
 124:..\..\..\lvgl\version_6.1.2\lvgl\src\lv_objx/lv_roller.h ****  * @param anim_time: open/close animation time [ms]
 125:..\..\..\lvgl\version_6.1.2\lvgl\src\lv_objx/lv_roller.h ****  */
 126:..\..\..\lvgl\version_6.1.2\lvgl\src\lv_objx/lv_roller.h **** static inline void lv_roller_set_anim_time(lv_obj_t * roller, uint16_t anim_time)
 127:..\..\..\lvgl\version_6.1.2\lvgl\src\lv_objx/lv_roller.h **** {
 128:..\..\..\lvgl\version_6.1.2\lvgl\src\lv_objx/lv_roller.h ****     lv_ddlist_set_anim_time(roller, anim_time);
 129:..\..\..\lvgl\version_6.1.2\lvgl\src\lv_objx/lv_roller.h **** }
 130:..\..\..\lvgl\version_6.1.2\lvgl\src\lv_objx/lv_roller.h **** 
 131:..\..\..\lvgl\version_6.1.2\lvgl\src\lv_objx/lv_roller.h **** /**
 132:..\..\..\lvgl\version_6.1.2\lvgl\src\lv_objx/lv_roller.h ****  * Set a style of a roller
 133:..\..\..\lvgl\version_6.1.2\lvgl\src\lv_objx/lv_roller.h ****  * @param roller pointer to a roller object
 134:..\..\..\lvgl\version_6.1.2\lvgl\src\lv_objx/lv_roller.h ****  * @param type which style should be set
 135:..\..\..\lvgl\version_6.1.2\lvgl\src\lv_objx/lv_roller.h ****  * @param style pointer to a style
 136:..\..\..\lvgl\version_6.1.2\lvgl\src\lv_objx/lv_roller.h ****  */
 137:..\..\..\lvgl\version_6.1.2\lvgl\src\lv_objx/lv_roller.h **** void lv_roller_set_style(lv_obj_t * roller, lv_roller_style_t type, const lv_style_t * style);
ARM GAS  C:\Users\tmj32\AppData\Local\Temp\ccT5YJ50.s 			page 26


 138:..\..\..\lvgl\version_6.1.2\lvgl\src\lv_objx/lv_roller.h **** 
 139:..\..\..\lvgl\version_6.1.2\lvgl\src\lv_objx/lv_roller.h **** /*=====================
 140:..\..\..\lvgl\version_6.1.2\lvgl\src\lv_objx/lv_roller.h ****  * Getter functions
 141:..\..\..\lvgl\version_6.1.2\lvgl\src\lv_objx/lv_roller.h ****  *====================*/
 142:..\..\..\lvgl\version_6.1.2\lvgl\src\lv_objx/lv_roller.h **** /**
 143:..\..\..\lvgl\version_6.1.2\lvgl\src\lv_objx/lv_roller.h ****  * Get the id of the selected option
 144:..\..\..\lvgl\version_6.1.2\lvgl\src\lv_objx/lv_roller.h ****  * @param roller pointer to a roller object
 145:..\..\..\lvgl\version_6.1.2\lvgl\src\lv_objx/lv_roller.h ****  * @return id of the selected option (0 ... number of option - 1);
 146:..\..\..\lvgl\version_6.1.2\lvgl\src\lv_objx/lv_roller.h ****  */
 147:..\..\..\lvgl\version_6.1.2\lvgl\src\lv_objx/lv_roller.h **** uint16_t lv_roller_get_selected(const lv_obj_t * roller);
 148:..\..\..\lvgl\version_6.1.2\lvgl\src\lv_objx/lv_roller.h **** 
 149:..\..\..\lvgl\version_6.1.2\lvgl\src\lv_objx/lv_roller.h **** /**
 150:..\..\..\lvgl\version_6.1.2\lvgl\src\lv_objx/lv_roller.h ****  * Get the current selected option as a string
 151:..\..\..\lvgl\version_6.1.2\lvgl\src\lv_objx/lv_roller.h ****  * @param roller pointer to roller object
 152:..\..\..\lvgl\version_6.1.2\lvgl\src\lv_objx/lv_roller.h ****  * @param buf pointer to an array to store the string
 153:..\..\..\lvgl\version_6.1.2\lvgl\src\lv_objx/lv_roller.h ****  * @param buf_size size of `buf` in bytes. 0: to ignore it.
 154:..\..\..\lvgl\version_6.1.2\lvgl\src\lv_objx/lv_roller.h ****  */
 155:..\..\..\lvgl\version_6.1.2\lvgl\src\lv_objx/lv_roller.h **** static inline void lv_roller_get_selected_str(const lv_obj_t * roller, char * buf, uint16_t buf_siz
 156:..\..\..\lvgl\version_6.1.2\lvgl\src\lv_objx/lv_roller.h **** {
 157:..\..\..\lvgl\version_6.1.2\lvgl\src\lv_objx/lv_roller.h ****     lv_ddlist_get_selected_str(roller, buf, buf_size);
 158:..\..\..\lvgl\version_6.1.2\lvgl\src\lv_objx/lv_roller.h **** }
 159:..\..\..\lvgl\version_6.1.2\lvgl\src\lv_objx/lv_roller.h **** 
 160:..\..\..\lvgl\version_6.1.2\lvgl\src\lv_objx/lv_roller.h **** /**
 161:..\..\..\lvgl\version_6.1.2\lvgl\src\lv_objx/lv_roller.h ****  * Get the align attribute. Default alignment after _create is LV_LABEL_ALIGN_CENTER
 162:..\..\..\lvgl\version_6.1.2\lvgl\src\lv_objx/lv_roller.h ****  * @param roller pointer to a roller object
 163:..\..\..\lvgl\version_6.1.2\lvgl\src\lv_objx/lv_roller.h ****  * @return LV_LABEL_ALIGN_LEFT, LV_LABEL_ALIGN_RIGHT or LV_LABEL_ALIGN_CENTER
 164:..\..\..\lvgl\version_6.1.2\lvgl\src\lv_objx/lv_roller.h ****  */
 165:..\..\..\lvgl\version_6.1.2\lvgl\src\lv_objx/lv_roller.h **** lv_label_align_t lv_roller_get_align(const lv_obj_t * roller);
 166:..\..\..\lvgl\version_6.1.2\lvgl\src\lv_objx/lv_roller.h **** 
 167:..\..\..\lvgl\version_6.1.2\lvgl\src\lv_objx/lv_roller.h **** /**
 168:..\..\..\lvgl\version_6.1.2\lvgl\src\lv_objx/lv_roller.h ****  * Get the options of a roller
 169:..\..\..\lvgl\version_6.1.2\lvgl\src\lv_objx/lv_roller.h ****  * @param roller pointer to roller object
 170:..\..\..\lvgl\version_6.1.2\lvgl\src\lv_objx/lv_roller.h ****  * @return the options separated by '\n'-s (E.g. "Option1\nOption2\nOption3")
 171:..\..\..\lvgl\version_6.1.2\lvgl\src\lv_objx/lv_roller.h ****  */
 172:..\..\..\lvgl\version_6.1.2\lvgl\src\lv_objx/lv_roller.h **** static inline const char * lv_roller_get_options(const lv_obj_t * roller)
 173:..\..\..\lvgl\version_6.1.2\lvgl\src\lv_objx/lv_roller.h **** {
 174:..\..\..\lvgl\version_6.1.2\lvgl\src\lv_objx/lv_roller.h ****     return lv_ddlist_get_options(roller);
 175:..\..\..\lvgl\version_6.1.2\lvgl\src\lv_objx/lv_roller.h **** }
 176:..\..\..\lvgl\version_6.1.2\lvgl\src\lv_objx/lv_roller.h **** 
 177:..\..\..\lvgl\version_6.1.2\lvgl\src\lv_objx/lv_roller.h **** /**
 178:..\..\..\lvgl\version_6.1.2\lvgl\src\lv_objx/lv_roller.h ****  * Get the open/close animation time.
 179:..\..\..\lvgl\version_6.1.2\lvgl\src\lv_objx/lv_roller.h ****  * @param roller pointer to a roller
 180:..\..\..\lvgl\version_6.1.2\lvgl\src\lv_objx/lv_roller.h ****  * @return open/close animation time [ms]
 181:..\..\..\lvgl\version_6.1.2\lvgl\src\lv_objx/lv_roller.h ****  */
 182:..\..\..\lvgl\version_6.1.2\lvgl\src\lv_objx/lv_roller.h **** static inline uint16_t lv_roller_get_anim_time(const lv_obj_t * roller)
 183:..\..\..\lvgl\version_6.1.2\lvgl\src\lv_objx/lv_roller.h **** {
 396              		.loc 6 183 0
 397              		.cfi_startproc
 398              		@ args = 0, pretend = 0, frame = 8
 399              		@ frame_needed = 1, uses_anonymous_args = 0
 400 0000 80B5     		push	{r7, lr}
 401              		.cfi_def_cfa_offset 8
 402              		.cfi_offset 7, -8
 403              		.cfi_offset 14, -4
 404 0002 82B0     		sub	sp, sp, #8
 405              		.cfi_def_cfa_offset 16
 406 0004 00AF     		add	r7, sp, #0
ARM GAS  C:\Users\tmj32\AppData\Local\Temp\ccT5YJ50.s 			page 27


 407              		.cfi_def_cfa_register 7
 408 0006 7860     		str	r0, [r7, #4]
 184:..\..\..\lvgl\version_6.1.2\lvgl\src\lv_objx/lv_roller.h ****     return lv_ddlist_get_anim_time(roller);
 409              		.loc 6 184 0
 410 0008 7868     		ldr	r0, [r7, #4]
 411 000a FFF7FEFF 		bl	lv_ddlist_get_anim_time
 412 000e 0346     		mov	r3, r0
 185:..\..\..\lvgl\version_6.1.2\lvgl\src\lv_objx/lv_roller.h **** }
 413              		.loc 6 185 0
 414 0010 1846     		mov	r0, r3
 415 0012 0837     		adds	r7, r7, #8
 416              		.cfi_def_cfa_offset 8
 417 0014 BD46     		mov	sp, r7
 418              		.cfi_def_cfa_register 13
 419              		@ sp needed
 420 0016 80BD     		pop	{r7, pc}
 421              		.cfi_endproc
 422              	.LFE58:
 423              		.size	lv_roller_get_anim_time, .-lv_roller_get_anim_time
 424              		.bss
 425              		.align	2
 426              	ancestor_signal:
 427 0000 00000000 		.space	4
 428              		.align	2
 429              	ancestor_scrl_signal:
 430 0004 00000000 		.space	4
 431              		.section	.text.lv_roller_create,"ax",%progbits
 432              		.align	2
 433              		.global	lv_roller_create
 434              		.thumb
 435              		.thumb_func
 436              		.type	lv_roller_create, %function
 437              	lv_roller_create:
 438              	.LFB59:
 439              		.file 7 "..\\..\\..\\lvgl\\version_6.1.2\\lvgl\\src\\lv_objx\\lv_roller.c"
   1:..\..\..\lvgl\version_6.1.2\lvgl\src\lv_objx/lv_roller.c **** /**
   2:..\..\..\lvgl\version_6.1.2\lvgl\src\lv_objx/lv_roller.c ****  * @file lv_roller.c
   3:..\..\..\lvgl\version_6.1.2\lvgl\src\lv_objx/lv_roller.c ****  *
   4:..\..\..\lvgl\version_6.1.2\lvgl\src\lv_objx/lv_roller.c ****  */
   5:..\..\..\lvgl\version_6.1.2\lvgl\src\lv_objx/lv_roller.c **** 
   6:..\..\..\lvgl\version_6.1.2\lvgl\src\lv_objx/lv_roller.c **** /*********************
   7:..\..\..\lvgl\version_6.1.2\lvgl\src\lv_objx/lv_roller.c ****  *      INCLUDES
   8:..\..\..\lvgl\version_6.1.2\lvgl\src\lv_objx/lv_roller.c ****  *********************/
   9:..\..\..\lvgl\version_6.1.2\lvgl\src\lv_objx/lv_roller.c **** #include "lv_roller.h"
  10:..\..\..\lvgl\version_6.1.2\lvgl\src\lv_objx/lv_roller.c **** #if LV_USE_ROLLER != 0
  11:..\..\..\lvgl\version_6.1.2\lvgl\src\lv_objx/lv_roller.c **** 
  12:..\..\..\lvgl\version_6.1.2\lvgl\src\lv_objx/lv_roller.c **** #include "../lv_core/lv_debug.h"
  13:..\..\..\lvgl\version_6.1.2\lvgl\src\lv_objx/lv_roller.c **** #include "../lv_draw/lv_draw.h"
  14:..\..\..\lvgl\version_6.1.2\lvgl\src\lv_objx/lv_roller.c **** #include "../lv_core/lv_group.h"
  15:..\..\..\lvgl\version_6.1.2\lvgl\src\lv_objx/lv_roller.c **** #include "../lv_themes/lv_theme.h"
  16:..\..\..\lvgl\version_6.1.2\lvgl\src\lv_objx/lv_roller.c **** 
  17:..\..\..\lvgl\version_6.1.2\lvgl\src\lv_objx/lv_roller.c **** /*********************
  18:..\..\..\lvgl\version_6.1.2\lvgl\src\lv_objx/lv_roller.c ****  *      DEFINES
  19:..\..\..\lvgl\version_6.1.2\lvgl\src\lv_objx/lv_roller.c ****  *********************/
  20:..\..\..\lvgl\version_6.1.2\lvgl\src\lv_objx/lv_roller.c **** #define LV_OBJX_NAME "lv_roller"
  21:..\..\..\lvgl\version_6.1.2\lvgl\src\lv_objx/lv_roller.c **** 
  22:..\..\..\lvgl\version_6.1.2\lvgl\src\lv_objx/lv_roller.c **** #if LV_USE_ANIMATION == 0
ARM GAS  C:\Users\tmj32\AppData\Local\Temp\ccT5YJ50.s 			page 28


  23:..\..\..\lvgl\version_6.1.2\lvgl\src\lv_objx/lv_roller.c **** #undef LV_ROLLER_DEF_ANIM_TIME
  24:..\..\..\lvgl\version_6.1.2\lvgl\src\lv_objx/lv_roller.c **** #define LV_ROLLER_DEF_ANIM_TIME 0 /*No animation*/
  25:..\..\..\lvgl\version_6.1.2\lvgl\src\lv_objx/lv_roller.c **** #endif
  26:..\..\..\lvgl\version_6.1.2\lvgl\src\lv_objx/lv_roller.c **** 
  27:..\..\..\lvgl\version_6.1.2\lvgl\src\lv_objx/lv_roller.c **** /**********************
  28:..\..\..\lvgl\version_6.1.2\lvgl\src\lv_objx/lv_roller.c ****  *      TYPEDEFS
  29:..\..\..\lvgl\version_6.1.2\lvgl\src\lv_objx/lv_roller.c ****  **********************/
  30:..\..\..\lvgl\version_6.1.2\lvgl\src\lv_objx/lv_roller.c **** 
  31:..\..\..\lvgl\version_6.1.2\lvgl\src\lv_objx/lv_roller.c **** /**********************
  32:..\..\..\lvgl\version_6.1.2\lvgl\src\lv_objx/lv_roller.c ****  *  STATIC PROTOTYPES
  33:..\..\..\lvgl\version_6.1.2\lvgl\src\lv_objx/lv_roller.c ****  **********************/
  34:..\..\..\lvgl\version_6.1.2\lvgl\src\lv_objx/lv_roller.c **** static bool lv_roller_design(lv_obj_t * roller, const lv_area_t * mask, lv_design_mode_t mode);
  35:..\..\..\lvgl\version_6.1.2\lvgl\src\lv_objx/lv_roller.c **** static lv_res_t lv_roller_scrl_signal(lv_obj_t * roller_scrl, lv_signal_t sign, void * param);
  36:..\..\..\lvgl\version_6.1.2\lvgl\src\lv_objx/lv_roller.c **** static lv_res_t lv_roller_signal(lv_obj_t * roller, lv_signal_t sign, void * param);
  37:..\..\..\lvgl\version_6.1.2\lvgl\src\lv_objx/lv_roller.c **** static void refr_position(lv_obj_t * roller, lv_anim_enable_t animen);
  38:..\..\..\lvgl\version_6.1.2\lvgl\src\lv_objx/lv_roller.c **** static void refr_height(lv_obj_t * roller);
  39:..\..\..\lvgl\version_6.1.2\lvgl\src\lv_objx/lv_roller.c **** static void inf_normalize(void * roller_scrl);
  40:..\..\..\lvgl\version_6.1.2\lvgl\src\lv_objx/lv_roller.c **** #if LV_USE_ANIMATION
  41:..\..\..\lvgl\version_6.1.2\lvgl\src\lv_objx/lv_roller.c **** static void scroll_anim_ready_cb(lv_anim_t * a);
  42:..\..\..\lvgl\version_6.1.2\lvgl\src\lv_objx/lv_roller.c **** #endif
  43:..\..\..\lvgl\version_6.1.2\lvgl\src\lv_objx/lv_roller.c **** static void draw_bg(lv_obj_t * roller, const lv_area_t * mask);
  44:..\..\..\lvgl\version_6.1.2\lvgl\src\lv_objx/lv_roller.c **** 
  45:..\..\..\lvgl\version_6.1.2\lvgl\src\lv_objx/lv_roller.c **** /**********************
  46:..\..\..\lvgl\version_6.1.2\lvgl\src\lv_objx/lv_roller.c ****  *  STATIC VARIABLES
  47:..\..\..\lvgl\version_6.1.2\lvgl\src\lv_objx/lv_roller.c ****  **********************/
  48:..\..\..\lvgl\version_6.1.2\lvgl\src\lv_objx/lv_roller.c **** static lv_signal_cb_t ancestor_signal;
  49:..\..\..\lvgl\version_6.1.2\lvgl\src\lv_objx/lv_roller.c **** static lv_signal_cb_t ancestor_scrl_signal;
  50:..\..\..\lvgl\version_6.1.2\lvgl\src\lv_objx/lv_roller.c **** 
  51:..\..\..\lvgl\version_6.1.2\lvgl\src\lv_objx/lv_roller.c **** /**********************
  52:..\..\..\lvgl\version_6.1.2\lvgl\src\lv_objx/lv_roller.c ****  *      MACROS
  53:..\..\..\lvgl\version_6.1.2\lvgl\src\lv_objx/lv_roller.c ****  **********************/
  54:..\..\..\lvgl\version_6.1.2\lvgl\src\lv_objx/lv_roller.c **** 
  55:..\..\..\lvgl\version_6.1.2\lvgl\src\lv_objx/lv_roller.c **** /**********************
  56:..\..\..\lvgl\version_6.1.2\lvgl\src\lv_objx/lv_roller.c ****  *   GLOBAL FUNCTIONS
  57:..\..\..\lvgl\version_6.1.2\lvgl\src\lv_objx/lv_roller.c ****  **********************/
  58:..\..\..\lvgl\version_6.1.2\lvgl\src\lv_objx/lv_roller.c **** 
  59:..\..\..\lvgl\version_6.1.2\lvgl\src\lv_objx/lv_roller.c **** /**
  60:..\..\..\lvgl\version_6.1.2\lvgl\src\lv_objx/lv_roller.c ****  * Create a roller object
  61:..\..\..\lvgl\version_6.1.2\lvgl\src\lv_objx/lv_roller.c ****  * @param par pointer to an object, it will be the parent of the new roller
  62:..\..\..\lvgl\version_6.1.2\lvgl\src\lv_objx/lv_roller.c ****  * @param copy pointer to a roller object, if not NULL then the new object will be copied from it
  63:..\..\..\lvgl\version_6.1.2\lvgl\src\lv_objx/lv_roller.c ****  * @return pointer to the created roller
  64:..\..\..\lvgl\version_6.1.2\lvgl\src\lv_objx/lv_roller.c ****  */
  65:..\..\..\lvgl\version_6.1.2\lvgl\src\lv_objx/lv_roller.c **** lv_obj_t * lv_roller_create(lv_obj_t * par, const lv_obj_t * copy)
  66:..\..\..\lvgl\version_6.1.2\lvgl\src\lv_objx/lv_roller.c **** {
 440              		.loc 7 66 0
 441              		.cfi_startproc
 442              		@ args = 0, pretend = 0, frame = 32
 443              		@ frame_needed = 1, uses_anonymous_args = 0
 444 0000 80B5     		push	{r7, lr}
 445              		.cfi_def_cfa_offset 8
 446              		.cfi_offset 7, -8
 447              		.cfi_offset 14, -4
 448 0002 88B0     		sub	sp, sp, #32
 449              		.cfi_def_cfa_offset 40
 450 0004 00AF     		add	r7, sp, #0
 451              		.cfi_def_cfa_register 7
 452 0006 7860     		str	r0, [r7, #4]
ARM GAS  C:\Users\tmj32\AppData\Local\Temp\ccT5YJ50.s 			page 29


 453 0008 3960     		str	r1, [r7]
  67:..\..\..\lvgl\version_6.1.2\lvgl\src\lv_objx/lv_roller.c ****     LV_LOG_TRACE("roller create started");
  68:..\..\..\lvgl\version_6.1.2\lvgl\src\lv_objx/lv_roller.c **** 
  69:..\..\..\lvgl\version_6.1.2\lvgl\src\lv_objx/lv_roller.c ****     /*Create the ancestor of roller*/
  70:..\..\..\lvgl\version_6.1.2\lvgl\src\lv_objx/lv_roller.c ****     lv_obj_t * new_roller = lv_ddlist_create(par, copy);
 454              		.loc 7 70 0
 455 000a 3968     		ldr	r1, [r7]
 456 000c 7868     		ldr	r0, [r7, #4]
 457 000e FFF7FEFF 		bl	lv_ddlist_create
 458 0012 F861     		str	r0, [r7, #28]
  71:..\..\..\lvgl\version_6.1.2\lvgl\src\lv_objx/lv_roller.c ****     LV_ASSERT_MEM(new_roller);
  72:..\..\..\lvgl\version_6.1.2\lvgl\src\lv_objx/lv_roller.c ****     if(new_roller == NULL) return NULL;
 459              		.loc 7 72 0
 460 0014 FB69     		ldr	r3, [r7, #28]
 461 0016 002B     		cmp	r3, #0
 462 0018 01D1     		bne	.L18
 463              		.loc 7 72 0 is_stmt 0 discriminator 1
 464 001a 0023     		movs	r3, #0
 465 001c 9DE0     		b	.L19
 466              	.L18:
  73:..\..\..\lvgl\version_6.1.2\lvgl\src\lv_objx/lv_roller.c **** 
  74:..\..\..\lvgl\version_6.1.2\lvgl\src\lv_objx/lv_roller.c ****     if(ancestor_scrl_signal == NULL) ancestor_scrl_signal = lv_obj_get_signal_cb(lv_page_get_scrl(n
 467              		.loc 7 74 0 is_stmt 1
 468 001e 514B     		ldr	r3, .L27
 469 0020 1B68     		ldr	r3, [r3]
 470 0022 002B     		cmp	r3, #0
 471 0024 09D1     		bne	.L20
 472              		.loc 7 74 0 is_stmt 0 discriminator 1
 473 0026 F869     		ldr	r0, [r7, #28]
 474 0028 FFF7FEFF 		bl	lv_page_get_scrl
 475 002c 0346     		mov	r3, r0
 476 002e 1846     		mov	r0, r3
 477 0030 FFF7FEFF 		bl	lv_obj_get_signal_cb
 478 0034 0246     		mov	r2, r0
 479 0036 4B4B     		ldr	r3, .L27
 480 0038 1A60     		str	r2, [r3]
 481              	.L20:
  75:..\..\..\lvgl\version_6.1.2\lvgl\src\lv_objx/lv_roller.c ****     if(ancestor_signal == NULL) ancestor_signal = lv_obj_get_signal_cb(new_roller);
 482              		.loc 7 75 0 is_stmt 1
 483 003a 4B4B     		ldr	r3, .L27+4
 484 003c 1B68     		ldr	r3, [r3]
 485 003e 002B     		cmp	r3, #0
 486 0040 05D1     		bne	.L21
 487              		.loc 7 75 0 is_stmt 0 discriminator 1
 488 0042 F869     		ldr	r0, [r7, #28]
 489 0044 FFF7FEFF 		bl	lv_obj_get_signal_cb
 490 0048 0246     		mov	r2, r0
 491 004a 474B     		ldr	r3, .L27+4
 492 004c 1A60     		str	r2, [r3]
 493              	.L21:
  76:..\..\..\lvgl\version_6.1.2\lvgl\src\lv_objx/lv_roller.c **** 
  77:..\..\..\lvgl\version_6.1.2\lvgl\src\lv_objx/lv_roller.c ****     /*Allocate the roller type specific extended data*/
  78:..\..\..\lvgl\version_6.1.2\lvgl\src\lv_objx/lv_roller.c ****     lv_roller_ext_t * ext = lv_obj_allocate_ext_attr(new_roller, sizeof(lv_roller_ext_t));
 494              		.loc 7 78 0 is_stmt 1
 495 004e 4821     		movs	r1, #72
 496 0050 F869     		ldr	r0, [r7, #28]
 497 0052 FFF7FEFF 		bl	lv_obj_allocate_ext_attr
ARM GAS  C:\Users\tmj32\AppData\Local\Temp\ccT5YJ50.s 			page 30


 498 0056 B861     		str	r0, [r7, #24]
  79:..\..\..\lvgl\version_6.1.2\lvgl\src\lv_objx/lv_roller.c ****     LV_ASSERT_MEM(ext);
  80:..\..\..\lvgl\version_6.1.2\lvgl\src\lv_objx/lv_roller.c ****     if(ext == NULL) return NULL;
 499              		.loc 7 80 0
 500 0058 BB69     		ldr	r3, [r7, #24]
 501 005a 002B     		cmp	r3, #0
 502 005c 01D1     		bne	.L22
 503              		.loc 7 80 0 is_stmt 0 discriminator 1
 504 005e 0023     		movs	r3, #0
 505 0060 7BE0     		b	.L19
 506              	.L22:
  81:..\..\..\lvgl\version_6.1.2\lvgl\src\lv_objx/lv_roller.c ****     ext->ddlist.draw_arrow = 0; /*Do not draw arrow by default*/
 507              		.loc 7 81 0 is_stmt 1
 508 0062 BA69     		ldr	r2, [r7, #24]
 509 0064 92F83E30 		ldrb	r3, [r2, #62]
 510 0068 6FF38203 		bfc	r3, #2, #1
 511 006c 82F83E30 		strb	r3, [r2, #62]
  82:..\..\..\lvgl\version_6.1.2\lvgl\src\lv_objx/lv_roller.c ****     ext->mode = LV_ROLLER_MODE_NORMAL;
 512              		.loc 7 82 0
 513 0070 BA69     		ldr	r2, [r7, #24]
 514 0072 92F84430 		ldrb	r3, [r2, #68]
 515 0076 6FF30003 		bfc	r3, #0, #1
 516 007a 82F84430 		strb	r3, [r2, #68]
  83:..\..\..\lvgl\version_6.1.2\lvgl\src\lv_objx/lv_roller.c **** 
  84:..\..\..\lvgl\version_6.1.2\lvgl\src\lv_objx/lv_roller.c ****     /*The signal and design functions are not copied so set them here*/
  85:..\..\..\lvgl\version_6.1.2\lvgl\src\lv_objx/lv_roller.c ****     lv_obj_set_signal_cb(new_roller, lv_roller_signal);
 517              		.loc 7 85 0
 518 007e 3B49     		ldr	r1, .L27+8
 519 0080 F869     		ldr	r0, [r7, #28]
 520 0082 FFF7FEFF 		bl	lv_obj_set_signal_cb
  86:..\..\..\lvgl\version_6.1.2\lvgl\src\lv_objx/lv_roller.c ****     lv_obj_set_design_cb(new_roller, lv_roller_design);
 521              		.loc 7 86 0
 522 0086 3A49     		ldr	r1, .L27+12
 523 0088 F869     		ldr	r0, [r7, #28]
 524 008a FFF7FEFF 		bl	lv_obj_set_design_cb
  87:..\..\..\lvgl\version_6.1.2\lvgl\src\lv_objx/lv_roller.c **** 
  88:..\..\..\lvgl\version_6.1.2\lvgl\src\lv_objx/lv_roller.c ****     /*Init the new roller roller*/
  89:..\..\..\lvgl\version_6.1.2\lvgl\src\lv_objx/lv_roller.c ****     if(copy == NULL) {
 525              		.loc 7 89 0
 526 008e 3B68     		ldr	r3, [r7]
 527 0090 002B     		cmp	r3, #0
 528 0092 41D1     		bne	.L23
 529              	.LBB2:
  90:..\..\..\lvgl\version_6.1.2\lvgl\src\lv_objx/lv_roller.c ****         lv_obj_t * scrl = lv_page_get_scrl(new_roller);
 530              		.loc 7 90 0
 531 0094 F869     		ldr	r0, [r7, #28]
 532 0096 FFF7FEFF 		bl	lv_page_get_scrl
 533 009a 7861     		str	r0, [r7, #20]
  91:..\..\..\lvgl\version_6.1.2\lvgl\src\lv_objx/lv_roller.c ****         lv_obj_set_drag(scrl, true);                                  /*In ddlist it might be disab
 534              		.loc 7 91 0
 535 009c 0121     		movs	r1, #1
 536 009e 7869     		ldr	r0, [r7, #20]
 537 00a0 FFF7FEFF 		bl	lv_obj_set_drag
  92:..\..\..\lvgl\version_6.1.2\lvgl\src\lv_objx/lv_roller.c ****         lv_page_set_scrl_fit2(new_roller, LV_FIT_TIGHT, LV_FIT_NONE); /*Height is specified directl
 538              		.loc 7 92 0
 539 00a4 0022     		movs	r2, #0
 540 00a6 0121     		movs	r1, #1
ARM GAS  C:\Users\tmj32\AppData\Local\Temp\ccT5YJ50.s 			page 31


 541 00a8 F869     		ldr	r0, [r7, #28]
 542 00aa FFF7FEFF 		bl	lv_page_set_scrl_fit2
  93:..\..\..\lvgl\version_6.1.2\lvgl\src\lv_objx/lv_roller.c ****         lv_ddlist_open(new_roller, false);
 543              		.loc 7 93 0
 544 00ae 0021     		movs	r1, #0
 545 00b0 F869     		ldr	r0, [r7, #28]
 546 00b2 FFF7FEFF 		bl	lv_ddlist_open
  94:..\..\..\lvgl\version_6.1.2\lvgl\src\lv_objx/lv_roller.c ****         lv_ddlist_set_anim_time(new_roller, LV_ROLLER_DEF_ANIM_TIME);
 547              		.loc 7 94 0
 548 00b6 C821     		movs	r1, #200
 549 00b8 F869     		ldr	r0, [r7, #28]
 550 00ba FFF7FEFF 		bl	lv_ddlist_set_anim_time
  95:..\..\..\lvgl\version_6.1.2\lvgl\src\lv_objx/lv_roller.c ****         lv_ddlist_set_stay_open(new_roller, true);
 551              		.loc 7 95 0
 552 00be 0121     		movs	r1, #1
 553 00c0 F869     		ldr	r0, [r7, #28]
 554 00c2 FFF7FEFF 		bl	lv_ddlist_set_stay_open
  96:..\..\..\lvgl\version_6.1.2\lvgl\src\lv_objx/lv_roller.c ****         lv_roller_set_visible_row_count(new_roller, 3);
 555              		.loc 7 96 0
 556 00c6 0321     		movs	r1, #3
 557 00c8 F869     		ldr	r0, [r7, #28]
 558 00ca FFF7FEFF 		bl	lv_roller_set_visible_row_count
  97:..\..\..\lvgl\version_6.1.2\lvgl\src\lv_objx/lv_roller.c ****         lv_label_set_align(ext->ddlist.label, LV_LABEL_ALIGN_CENTER);
 559              		.loc 7 97 0
 560 00ce BB69     		ldr	r3, [r7, #24]
 561 00d0 1B6B     		ldr	r3, [r3, #48]
 562 00d2 0121     		movs	r1, #1
 563 00d4 1846     		mov	r0, r3
 564 00d6 FFF7FEFF 		bl	lv_label_set_align
  98:..\..\..\lvgl\version_6.1.2\lvgl\src\lv_objx/lv_roller.c **** 
  99:..\..\..\lvgl\version_6.1.2\lvgl\src\lv_objx/lv_roller.c ****         lv_obj_set_signal_cb(scrl, lv_roller_scrl_signal);
 565              		.loc 7 99 0
 566 00da 2649     		ldr	r1, .L27+16
 567 00dc 7869     		ldr	r0, [r7, #20]
 568 00de FFF7FEFF 		bl	lv_obj_set_signal_cb
 100:..\..\..\lvgl\version_6.1.2\lvgl\src\lv_objx/lv_roller.c **** 
 101:..\..\..\lvgl\version_6.1.2\lvgl\src\lv_objx/lv_roller.c ****         /*Set the default styles*/
 102:..\..\..\lvgl\version_6.1.2\lvgl\src\lv_objx/lv_roller.c ****         lv_theme_t * th = lv_theme_get_current();
 569              		.loc 7 102 0
 570 00e2 FFF7FEFF 		bl	lv_theme_get_current
 571 00e6 3861     		str	r0, [r7, #16]
 103:..\..\..\lvgl\version_6.1.2\lvgl\src\lv_objx/lv_roller.c ****         if(th) {
 572              		.loc 7 103 0
 573 00e8 3B69     		ldr	r3, [r7, #16]
 574 00ea 002B     		cmp	r3, #0
 575 00ec 10D0     		beq	.L24
 104:..\..\..\lvgl\version_6.1.2\lvgl\src\lv_objx/lv_roller.c ****             lv_roller_set_style(new_roller, LV_ROLLER_STYLE_BG, th->style.roller.bg);
 576              		.loc 7 104 0
 577 00ee 3B69     		ldr	r3, [r7, #16]
 578 00f0 D3F85831 		ldr	r3, [r3, #344]
 579 00f4 1A46     		mov	r2, r3
 580 00f6 0021     		movs	r1, #0
 581 00f8 F869     		ldr	r0, [r7, #28]
 582 00fa FFF7FEFF 		bl	lv_roller_set_style
 105:..\..\..\lvgl\version_6.1.2\lvgl\src\lv_objx/lv_roller.c ****             lv_roller_set_style(new_roller, LV_ROLLER_STYLE_SEL, th->style.roller.sel);
 583              		.loc 7 105 0
 584 00fe 3B69     		ldr	r3, [r7, #16]
ARM GAS  C:\Users\tmj32\AppData\Local\Temp\ccT5YJ50.s 			page 32


 585 0100 D3F85C31 		ldr	r3, [r3, #348]
 586 0104 1A46     		mov	r2, r3
 587 0106 0121     		movs	r1, #1
 588 0108 F869     		ldr	r0, [r7, #28]
 589 010a FFF7FEFF 		bl	lv_roller_set_style
 590 010e 23E0     		b	.L26
 591              	.L24:
 106:..\..\..\lvgl\version_6.1.2\lvgl\src\lv_objx/lv_roller.c ****         } else {
 107:..\..\..\lvgl\version_6.1.2\lvgl\src\lv_objx/lv_roller.c ****             /*Refresh the roller's style*/
 108:..\..\..\lvgl\version_6.1.2\lvgl\src\lv_objx/lv_roller.c ****             lv_obj_refresh_style(new_roller); /*To set scrollable size automatically*/
 592              		.loc 7 108 0
 593 0110 F869     		ldr	r0, [r7, #28]
 594 0112 FFF7FEFF 		bl	lv_obj_refresh_style
 595 0116 1FE0     		b	.L26
 596              	.L23:
 597              	.LBE2:
 598              	.LBB3:
 109:..\..\..\lvgl\version_6.1.2\lvgl\src\lv_objx/lv_roller.c ****         }
 110:..\..\..\lvgl\version_6.1.2\lvgl\src\lv_objx/lv_roller.c ****     }
 111:..\..\..\lvgl\version_6.1.2\lvgl\src\lv_objx/lv_roller.c ****     /*Copy an existing roller*/
 112:..\..\..\lvgl\version_6.1.2\lvgl\src\lv_objx/lv_roller.c ****     else {
 113:..\..\..\lvgl\version_6.1.2\lvgl\src\lv_objx/lv_roller.c ****         lv_roller_ext_t * copy_ext = lv_obj_get_ext_attr(copy);
 599              		.loc 7 113 0
 600 0118 3868     		ldr	r0, [r7]
 601 011a FFF7FEFF 		bl	lv_obj_get_ext_attr
 602 011e F860     		str	r0, [r7, #12]
 114:..\..\..\lvgl\version_6.1.2\lvgl\src\lv_objx/lv_roller.c ****         ext->mode                  = copy_ext->mode;
 603              		.loc 7 114 0
 604 0120 FB68     		ldr	r3, [r7, #12]
 605 0122 93F84430 		ldrb	r3, [r3, #68]
 606 0126 C3F30003 		ubfx	r3, r3, #0, #1
 607 012a D9B2     		uxtb	r1, r3
 608 012c BA69     		ldr	r2, [r7, #24]
 609 012e 92F84430 		ldrb	r3, [r2, #68]
 610 0132 61F30003 		bfi	r3, r1, #0, #1
 611 0136 82F84430 		strb	r3, [r2, #68]
 115:..\..\..\lvgl\version_6.1.2\lvgl\src\lv_objx/lv_roller.c **** 
 116:..\..\..\lvgl\version_6.1.2\lvgl\src\lv_objx/lv_roller.c ****         lv_obj_t * scrl = lv_page_get_scrl(new_roller);
 612              		.loc 7 116 0
 613 013a F869     		ldr	r0, [r7, #28]
 614 013c FFF7FEFF 		bl	lv_page_get_scrl
 615 0140 B860     		str	r0, [r7, #8]
 117:..\..\..\lvgl\version_6.1.2\lvgl\src\lv_objx/lv_roller.c ****         lv_ddlist_open(new_roller, false);
 616              		.loc 7 117 0
 617 0142 0021     		movs	r1, #0
 618 0144 F869     		ldr	r0, [r7, #28]
 619 0146 FFF7FEFF 		bl	lv_ddlist_open
 118:..\..\..\lvgl\version_6.1.2\lvgl\src\lv_objx/lv_roller.c ****         lv_obj_set_signal_cb(scrl, lv_roller_scrl_signal);
 620              		.loc 7 118 0
 621 014a 0A49     		ldr	r1, .L27+16
 622 014c B868     		ldr	r0, [r7, #8]
 623 014e FFF7FEFF 		bl	lv_obj_set_signal_cb
 119:..\..\..\lvgl\version_6.1.2\lvgl\src\lv_objx/lv_roller.c **** 
 120:..\..\..\lvgl\version_6.1.2\lvgl\src\lv_objx/lv_roller.c ****         /*Refresh the roller's style*/
 121:..\..\..\lvgl\version_6.1.2\lvgl\src\lv_objx/lv_roller.c ****         lv_obj_refresh_style(new_roller); /*Refresh the style with new signal function*/
 624              		.loc 7 121 0
 625 0152 F869     		ldr	r0, [r7, #28]
ARM GAS  C:\Users\tmj32\AppData\Local\Temp\ccT5YJ50.s 			page 33


 626 0154 FFF7FEFF 		bl	lv_obj_refresh_style
 627              	.L26:
 628              	.LBE3:
 122:..\..\..\lvgl\version_6.1.2\lvgl\src\lv_objx/lv_roller.c ****     }
 123:..\..\..\lvgl\version_6.1.2\lvgl\src\lv_objx/lv_roller.c **** 
 124:..\..\..\lvgl\version_6.1.2\lvgl\src\lv_objx/lv_roller.c ****     LV_LOG_INFO("roller created");
 125:..\..\..\lvgl\version_6.1.2\lvgl\src\lv_objx/lv_roller.c **** 
 126:..\..\..\lvgl\version_6.1.2\lvgl\src\lv_objx/lv_roller.c ****     return new_roller;
 629              		.loc 7 126 0
 630 0158 FB69     		ldr	r3, [r7, #28]
 631              	.L19:
 127:..\..\..\lvgl\version_6.1.2\lvgl\src\lv_objx/lv_roller.c **** }
 632              		.loc 7 127 0
 633 015a 1846     		mov	r0, r3
 634 015c 2037     		adds	r7, r7, #32
 635              		.cfi_def_cfa_offset 8
 636 015e BD46     		mov	sp, r7
 637              		.cfi_def_cfa_register 13
 638              		@ sp needed
 639 0160 80BD     		pop	{r7, pc}
 640              	.L28:
 641 0162 00BF     		.align	2
 642              	.L27:
 643 0164 04000000 		.word	ancestor_scrl_signal
 644 0168 00000000 		.word	ancestor_signal
 645 016c 00000000 		.word	lv_roller_signal
 646 0170 00000000 		.word	lv_roller_design
 647 0174 00000000 		.word	lv_roller_scrl_signal
 648              		.cfi_endproc
 649              	.LFE59:
 650              		.size	lv_roller_create, .-lv_roller_create
 651              		.section	.text.lv_roller_set_options,"ax",%progbits
 652              		.align	2
 653              		.global	lv_roller_set_options
 654              		.thumb
 655              		.thumb_func
 656              		.type	lv_roller_set_options, %function
 657              	lv_roller_set_options:
 658              	.LFB60:
 128:..\..\..\lvgl\version_6.1.2\lvgl\src\lv_objx/lv_roller.c **** 
 129:..\..\..\lvgl\version_6.1.2\lvgl\src\lv_objx/lv_roller.c **** /*=====================
 130:..\..\..\lvgl\version_6.1.2\lvgl\src\lv_objx/lv_roller.c ****  * Setter functions
 131:..\..\..\lvgl\version_6.1.2\lvgl\src\lv_objx/lv_roller.c ****  *====================*/
 132:..\..\..\lvgl\version_6.1.2\lvgl\src\lv_objx/lv_roller.c **** 
 133:..\..\..\lvgl\version_6.1.2\lvgl\src\lv_objx/lv_roller.c **** /**
 134:..\..\..\lvgl\version_6.1.2\lvgl\src\lv_objx/lv_roller.c ****  * Set the options on a roller
 135:..\..\..\lvgl\version_6.1.2\lvgl\src\lv_objx/lv_roller.c ****  * @param roller pointer to roller object
 136:..\..\..\lvgl\version_6.1.2\lvgl\src\lv_objx/lv_roller.c ****  * @param options a string with '\n' separated options. E.g. "One\nTwo\nThree"
 137:..\..\..\lvgl\version_6.1.2\lvgl\src\lv_objx/lv_roller.c ****  * @param mode `LV_ROLLER_MODE_NORMAL` or `LV_ROLLER_MODE_INFINITE`
 138:..\..\..\lvgl\version_6.1.2\lvgl\src\lv_objx/lv_roller.c ****  */
 139:..\..\..\lvgl\version_6.1.2\lvgl\src\lv_objx/lv_roller.c **** void lv_roller_set_options(lv_obj_t * roller, const char * options, lv_roller_mode_t mode)
 140:..\..\..\lvgl\version_6.1.2\lvgl\src\lv_objx/lv_roller.c **** {
 659              		.loc 7 140 0
 660              		.cfi_startproc
 661              		@ args = 0, pretend = 0, frame = 40
 662              		@ frame_needed = 1, uses_anonymous_args = 0
 663 0000 80B5     		push	{r7, lr}
ARM GAS  C:\Users\tmj32\AppData\Local\Temp\ccT5YJ50.s 			page 34


 664              		.cfi_def_cfa_offset 8
 665              		.cfi_offset 7, -8
 666              		.cfi_offset 14, -4
 667 0002 8AB0     		sub	sp, sp, #40
 668              		.cfi_def_cfa_offset 48
 669 0004 00AF     		add	r7, sp, #0
 670              		.cfi_def_cfa_register 7
 671 0006 F860     		str	r0, [r7, #12]
 672 0008 B960     		str	r1, [r7, #8]
 673 000a 1346     		mov	r3, r2
 674 000c FB71     		strb	r3, [r7, #7]
 141:..\..\..\lvgl\version_6.1.2\lvgl\src\lv_objx/lv_roller.c ****     LV_ASSERT_OBJ(roller, LV_OBJX_NAME);
 142:..\..\..\lvgl\version_6.1.2\lvgl\src\lv_objx/lv_roller.c ****     LV_ASSERT_STR(options);
 143:..\..\..\lvgl\version_6.1.2\lvgl\src\lv_objx/lv_roller.c **** 
 144:..\..\..\lvgl\version_6.1.2\lvgl\src\lv_objx/lv_roller.c ****     lv_roller_ext_t * ext = lv_obj_get_ext_attr(roller);
 675              		.loc 7 144 0
 676 000e F868     		ldr	r0, [r7, #12]
 677 0010 FFF7FEFF 		bl	lv_obj_get_ext_attr
 678 0014 3862     		str	r0, [r7, #32]
 145:..\..\..\lvgl\version_6.1.2\lvgl\src\lv_objx/lv_roller.c **** 
 146:..\..\..\lvgl\version_6.1.2\lvgl\src\lv_objx/lv_roller.c ****     if(mode == LV_ROLLER_MODE_NORMAL) {
 679              		.loc 7 146 0
 680 0016 FB79     		ldrb	r3, [r7, #7]	@ zero_extendqisi2
 681 0018 002B     		cmp	r3, #0
 682 001a 12D1     		bne	.L30
 147:..\..\..\lvgl\version_6.1.2\lvgl\src\lv_objx/lv_roller.c ****         ext->mode = LV_ROLLER_MODE_NORMAL;
 683              		.loc 7 147 0
 684 001c 3A6A     		ldr	r2, [r7, #32]
 685 001e 92F84430 		ldrb	r3, [r2, #68]
 686 0022 6FF30003 		bfc	r3, #0, #1
 687 0026 82F84430 		strb	r3, [r2, #68]
 148:..\..\..\lvgl\version_6.1.2\lvgl\src\lv_objx/lv_roller.c ****         lv_ddlist_set_options(roller, options);
 688              		.loc 7 148 0
 689 002a B968     		ldr	r1, [r7, #8]
 690 002c F868     		ldr	r0, [r7, #12]
 691 002e FFF7FEFF 		bl	lv_ddlist_set_options
 149:..\..\..\lvgl\version_6.1.2\lvgl\src\lv_objx/lv_roller.c **** 
 150:..\..\..\lvgl\version_6.1.2\lvgl\src\lv_objx/lv_roller.c ****         /* Make sure the roller's height and the scrollable's height is refreshed.
 151:..\..\..\lvgl\version_6.1.2\lvgl\src\lv_objx/lv_roller.c ****          * They are refreshed in `LV_SIGNAL_COORD_CHG` but if the new options has the same width
 152:..\..\..\lvgl\version_6.1.2\lvgl\src\lv_objx/lv_roller.c ****          * that signal won't be called. (It's called because of LV_FIT_TIGHT hor fit)*/
 153:..\..\..\lvgl\version_6.1.2\lvgl\src\lv_objx/lv_roller.c ****         refr_height(roller);
 692              		.loc 7 153 0
 693 0032 F868     		ldr	r0, [r7, #12]
 694 0034 FFF7FEFF 		bl	refr_height
 154:..\..\..\lvgl\version_6.1.2\lvgl\src\lv_objx/lv_roller.c ****         refr_position(roller, LV_ANIM_OFF);
 695              		.loc 7 154 0
 696 0038 0021     		movs	r1, #0
 697 003a F868     		ldr	r0, [r7, #12]
 698 003c FFF7FEFF 		bl	refr_position
 155:..\..\..\lvgl\version_6.1.2\lvgl\src\lv_objx/lv_roller.c ****     } else {
 156:..\..\..\lvgl\version_6.1.2\lvgl\src\lv_objx/lv_roller.c ****         ext->mode = LV_ROLLER_MODE_INIFINITE;
 157:..\..\..\lvgl\version_6.1.2\lvgl\src\lv_objx/lv_roller.c **** 
 158:..\..\..\lvgl\version_6.1.2\lvgl\src\lv_objx/lv_roller.c ****         size_t opt_len = strlen(options) + 1; /*+1 to add '\n' after option lists*/
 159:..\..\..\lvgl\version_6.1.2\lvgl\src\lv_objx/lv_roller.c ****         char * opt_extra = lv_mem_alloc(opt_len * LV_ROLLER_INF_PAGES);
 160:..\..\..\lvgl\version_6.1.2\lvgl\src\lv_objx/lv_roller.c ****         uint8_t i;
 161:..\..\..\lvgl\version_6.1.2\lvgl\src\lv_objx/lv_roller.c ****         for(i = 0; i < LV_ROLLER_INF_PAGES; i++) {
 162:..\..\..\lvgl\version_6.1.2\lvgl\src\lv_objx/lv_roller.c ****             strcpy(&opt_extra[opt_len * i], options);
ARM GAS  C:\Users\tmj32\AppData\Local\Temp\ccT5YJ50.s 			page 35


 163:..\..\..\lvgl\version_6.1.2\lvgl\src\lv_objx/lv_roller.c ****             opt_extra[opt_len * (i + 1) - 1] = '\n';
 164:..\..\..\lvgl\version_6.1.2\lvgl\src\lv_objx/lv_roller.c ****         }
 165:..\..\..\lvgl\version_6.1.2\lvgl\src\lv_objx/lv_roller.c ****         opt_extra[opt_len * LV_ROLLER_INF_PAGES - 1] = '\0';
 166:..\..\..\lvgl\version_6.1.2\lvgl\src\lv_objx/lv_roller.c ****         lv_ddlist_set_options(roller, opt_extra);
 167:..\..\..\lvgl\version_6.1.2\lvgl\src\lv_objx/lv_roller.c ****         lv_mem_free(opt_extra);
 168:..\..\..\lvgl\version_6.1.2\lvgl\src\lv_objx/lv_roller.c **** 
 169:..\..\..\lvgl\version_6.1.2\lvgl\src\lv_objx/lv_roller.c ****         /* Make sure the roller's height and the scrollable's height is refreshed.
 170:..\..\..\lvgl\version_6.1.2\lvgl\src\lv_objx/lv_roller.c ****          * They are refreshed in `LV_SIGNAL_COORD_CHG` but if the new options has the same width
 171:..\..\..\lvgl\version_6.1.2\lvgl\src\lv_objx/lv_roller.c ****          * that signal won't be called. (It called because LV_FIT_TIGHT hor fit)*/
 172:..\..\..\lvgl\version_6.1.2\lvgl\src\lv_objx/lv_roller.c ****         refr_height(roller);
 173:..\..\..\lvgl\version_6.1.2\lvgl\src\lv_objx/lv_roller.c **** 
 174:..\..\..\lvgl\version_6.1.2\lvgl\src\lv_objx/lv_roller.c ****         uint16_t real_id_cnt = ext->ddlist.option_cnt / LV_ROLLER_INF_PAGES;
 175:..\..\..\lvgl\version_6.1.2\lvgl\src\lv_objx/lv_roller.c ****         lv_roller_set_selected(roller, ((LV_ROLLER_INF_PAGES / 2) + 1) * real_id_cnt, false); /*Sel
 176:..\..\..\lvgl\version_6.1.2\lvgl\src\lv_objx/lv_roller.c ****     }
 177:..\..\..\lvgl\version_6.1.2\lvgl\src\lv_objx/lv_roller.c **** }
 699              		.loc 7 177 0
 700 0040 5DE0     		b	.L34
 701              	.L30:
 702              	.LBB4:
 156:..\..\..\lvgl\version_6.1.2\lvgl\src\lv_objx/lv_roller.c **** 
 703              		.loc 7 156 0
 704 0042 3A6A     		ldr	r2, [r7, #32]
 705 0044 92F84430 		ldrb	r3, [r2, #68]
 706 0048 43F00103 		orr	r3, r3, #1
 707 004c 82F84430 		strb	r3, [r2, #68]
 158:..\..\..\lvgl\version_6.1.2\lvgl\src\lv_objx/lv_roller.c ****         char * opt_extra = lv_mem_alloc(opt_len * LV_ROLLER_INF_PAGES);
 708              		.loc 7 158 0
 709 0050 B868     		ldr	r0, [r7, #8]
 710 0052 FFF7FEFF 		bl	strlen
 711 0056 0346     		mov	r3, r0
 712 0058 0133     		adds	r3, r3, #1
 713 005a FB61     		str	r3, [r7, #28]
 159:..\..\..\lvgl\version_6.1.2\lvgl\src\lv_objx/lv_roller.c ****         uint8_t i;
 714              		.loc 7 159 0
 715 005c FA69     		ldr	r2, [r7, #28]
 716 005e 1346     		mov	r3, r2
 717 0060 DB00     		lsls	r3, r3, #3
 718 0062 9B1A     		subs	r3, r3, r2
 719 0064 1846     		mov	r0, r3
 720 0066 FFF7FEFF 		bl	lv_mem_alloc
 721 006a B861     		str	r0, [r7, #24]
 161:..\..\..\lvgl\version_6.1.2\lvgl\src\lv_objx/lv_roller.c ****             strcpy(&opt_extra[opt_len * i], options);
 722              		.loc 7 161 0
 723 006c 0023     		movs	r3, #0
 724 006e 87F82730 		strb	r3, [r7, #39]
 725 0072 1BE0     		b	.L32
 726              	.L33:
 162:..\..\..\lvgl\version_6.1.2\lvgl\src\lv_objx/lv_roller.c ****             opt_extra[opt_len * (i + 1) - 1] = '\n';
 727              		.loc 7 162 0 discriminator 3
 728 0074 97F82730 		ldrb	r3, [r7, #39]	@ zero_extendqisi2
 729 0078 FA69     		ldr	r2, [r7, #28]
 730 007a 02FB03F3 		mul	r3, r2, r3
 731 007e BA69     		ldr	r2, [r7, #24]
 732 0080 1344     		add	r3, r3, r2
 733 0082 B968     		ldr	r1, [r7, #8]
 734 0084 1846     		mov	r0, r3
 735 0086 FFF7FEFF 		bl	strcpy
ARM GAS  C:\Users\tmj32\AppData\Local\Temp\ccT5YJ50.s 			page 36


 163:..\..\..\lvgl\version_6.1.2\lvgl\src\lv_objx/lv_roller.c ****         }
 736              		.loc 7 163 0 discriminator 3
 737 008a 97F82730 		ldrb	r3, [r7, #39]	@ zero_extendqisi2
 738 008e 0133     		adds	r3, r3, #1
 739 0090 1A46     		mov	r2, r3
 740 0092 FB69     		ldr	r3, [r7, #28]
 741 0094 03FB02F3 		mul	r3, r3, r2
 742 0098 013B     		subs	r3, r3, #1
 743 009a BA69     		ldr	r2, [r7, #24]
 744 009c 1344     		add	r3, r3, r2
 745 009e 0A22     		movs	r2, #10
 746 00a0 1A70     		strb	r2, [r3]
 161:..\..\..\lvgl\version_6.1.2\lvgl\src\lv_objx/lv_roller.c ****             strcpy(&opt_extra[opt_len * i], options);
 747              		.loc 7 161 0 discriminator 3
 748 00a2 97F82730 		ldrb	r3, [r7, #39]	@ zero_extendqisi2
 749 00a6 0133     		adds	r3, r3, #1
 750 00a8 87F82730 		strb	r3, [r7, #39]
 751              	.L32:
 161:..\..\..\lvgl\version_6.1.2\lvgl\src\lv_objx/lv_roller.c ****             strcpy(&opt_extra[opt_len * i], options);
 752              		.loc 7 161 0 is_stmt 0 discriminator 1
 753 00ac 97F82730 		ldrb	r3, [r7, #39]	@ zero_extendqisi2
 754 00b0 062B     		cmp	r3, #6
 755 00b2 DFD9     		bls	.L33
 165:..\..\..\lvgl\version_6.1.2\lvgl\src\lv_objx/lv_roller.c ****         lv_ddlist_set_options(roller, opt_extra);
 756              		.loc 7 165 0 is_stmt 1
 757 00b4 FA69     		ldr	r2, [r7, #28]
 758 00b6 1346     		mov	r3, r2
 759 00b8 DB00     		lsls	r3, r3, #3
 760 00ba 9B1A     		subs	r3, r3, r2
 761 00bc 013B     		subs	r3, r3, #1
 762 00be BA69     		ldr	r2, [r7, #24]
 763 00c0 1344     		add	r3, r3, r2
 764 00c2 0022     		movs	r2, #0
 765 00c4 1A70     		strb	r2, [r3]
 166:..\..\..\lvgl\version_6.1.2\lvgl\src\lv_objx/lv_roller.c ****         lv_mem_free(opt_extra);
 766              		.loc 7 166 0
 767 00c6 B969     		ldr	r1, [r7, #24]
 768 00c8 F868     		ldr	r0, [r7, #12]
 769 00ca FFF7FEFF 		bl	lv_ddlist_set_options
 167:..\..\..\lvgl\version_6.1.2\lvgl\src\lv_objx/lv_roller.c **** 
 770              		.loc 7 167 0
 771 00ce B869     		ldr	r0, [r7, #24]
 772 00d0 FFF7FEFF 		bl	lv_mem_free
 172:..\..\..\lvgl\version_6.1.2\lvgl\src\lv_objx/lv_roller.c **** 
 773              		.loc 7 172 0
 774 00d4 F868     		ldr	r0, [r7, #12]
 775 00d6 FFF7FEFF 		bl	refr_height
 174:..\..\..\lvgl\version_6.1.2\lvgl\src\lv_objx/lv_roller.c ****         lv_roller_set_selected(roller, ((LV_ROLLER_INF_PAGES / 2) + 1) * real_id_cnt, false); /*Sel
 776              		.loc 7 174 0
 777 00da 3B6A     		ldr	r3, [r7, #32]
 778 00dc 1A8F     		ldrh	r2, [r3, #56]
 779 00de 0A4B     		ldr	r3, .L35
 780 00e0 A3FB0213 		umull	r1, r3, r3, r2
 781 00e4 D21A     		subs	r2, r2, r3
 782 00e6 5208     		lsrs	r2, r2, #1
 783 00e8 1344     		add	r3, r3, r2
 784 00ea 9B08     		lsrs	r3, r3, #2
ARM GAS  C:\Users\tmj32\AppData\Local\Temp\ccT5YJ50.s 			page 37


 785 00ec FB82     		strh	r3, [r7, #22]	@ movhi
 175:..\..\..\lvgl\version_6.1.2\lvgl\src\lv_objx/lv_roller.c ****     }
 786              		.loc 7 175 0
 787 00ee FB8A     		ldrh	r3, [r7, #22]	@ movhi
 788 00f0 9B00     		lsls	r3, r3, #2
 789 00f2 9BB2     		uxth	r3, r3
 790 00f4 0022     		movs	r2, #0
 791 00f6 1946     		mov	r1, r3
 792 00f8 F868     		ldr	r0, [r7, #12]
 793 00fa FFF7FEFF 		bl	lv_roller_set_selected
 794              	.L34:
 795              	.LBE4:
 796              		.loc 7 177 0
 797 00fe 00BF     		nop
 798 0100 2837     		adds	r7, r7, #40
 799              		.cfi_def_cfa_offset 8
 800 0102 BD46     		mov	sp, r7
 801              		.cfi_def_cfa_register 13
 802              		@ sp needed
 803 0104 80BD     		pop	{r7, pc}
 804              	.L36:
 805 0106 00BF     		.align	2
 806              	.L35:
 807 0108 25499224 		.word	613566757
 808              		.cfi_endproc
 809              	.LFE60:
 810              		.size	lv_roller_set_options, .-lv_roller_set_options
 811              		.section	.text.lv_roller_set_align,"ax",%progbits
 812              		.align	2
 813              		.global	lv_roller_set_align
 814              		.thumb
 815              		.thumb_func
 816              		.type	lv_roller_set_align, %function
 817              	lv_roller_set_align:
 818              	.LFB61:
 178:..\..\..\lvgl\version_6.1.2\lvgl\src\lv_objx/lv_roller.c **** 
 179:..\..\..\lvgl\version_6.1.2\lvgl\src\lv_objx/lv_roller.c **** /**
 180:..\..\..\lvgl\version_6.1.2\lvgl\src\lv_objx/lv_roller.c ****  * Set the align of the roller's options (left or center)
 181:..\..\..\lvgl\version_6.1.2\lvgl\src\lv_objx/lv_roller.c ****  * @param roller - pointer to a roller object
 182:..\..\..\lvgl\version_6.1.2\lvgl\src\lv_objx/lv_roller.c ****  * @param align - one of lv_label_align_t values (left, right, center)
 183:..\..\..\lvgl\version_6.1.2\lvgl\src\lv_objx/lv_roller.c ****  */
 184:..\..\..\lvgl\version_6.1.2\lvgl\src\lv_objx/lv_roller.c **** void lv_roller_set_align(lv_obj_t * roller, lv_label_align_t align)
 185:..\..\..\lvgl\version_6.1.2\lvgl\src\lv_objx/lv_roller.c **** {
 819              		.loc 7 185 0
 820              		.cfi_startproc
 821              		@ args = 0, pretend = 0, frame = 16
 822              		@ frame_needed = 1, uses_anonymous_args = 0
 823 0000 80B5     		push	{r7, lr}
 824              		.cfi_def_cfa_offset 8
 825              		.cfi_offset 7, -8
 826              		.cfi_offset 14, -4
 827 0002 86B0     		sub	sp, sp, #24
 828              		.cfi_def_cfa_offset 32
 829 0004 02AF     		add	r7, sp, #8
 830              		.cfi_def_cfa 7, 24
 831 0006 7860     		str	r0, [r7, #4]
 832 0008 0B46     		mov	r3, r1
ARM GAS  C:\Users\tmj32\AppData\Local\Temp\ccT5YJ50.s 			page 38


 833 000a FB70     		strb	r3, [r7, #3]
 186:..\..\..\lvgl\version_6.1.2\lvgl\src\lv_objx/lv_roller.c ****     LV_ASSERT_OBJ(roller, LV_OBJX_NAME);
 187:..\..\..\lvgl\version_6.1.2\lvgl\src\lv_objx/lv_roller.c **** 
 188:..\..\..\lvgl\version_6.1.2\lvgl\src\lv_objx/lv_roller.c ****     lv_roller_ext_t * ext = lv_obj_get_ext_attr(roller);
 834              		.loc 7 188 0
 835 000c 7868     		ldr	r0, [r7, #4]
 836 000e FFF7FEFF 		bl	lv_obj_get_ext_attr
 837 0012 F860     		str	r0, [r7, #12]
 189:..\..\..\lvgl\version_6.1.2\lvgl\src\lv_objx/lv_roller.c **** 
 190:..\..\..\lvgl\version_6.1.2\lvgl\src\lv_objx/lv_roller.c ****     lv_obj_t * label = ext->ddlist.label;
 838              		.loc 7 190 0
 839 0014 FB68     		ldr	r3, [r7, #12]
 840 0016 1B6B     		ldr	r3, [r3, #48]
 841 0018 BB60     		str	r3, [r7, #8]
 191:..\..\..\lvgl\version_6.1.2\lvgl\src\lv_objx/lv_roller.c **** 
 192:..\..\..\lvgl\version_6.1.2\lvgl\src\lv_objx/lv_roller.c ****     if(label == NULL) return; /*Probably the roller is being deleted if the label is NULL.*/
 842              		.loc 7 192 0
 843 001a BB68     		ldr	r3, [r7, #8]
 844 001c 002B     		cmp	r3, #0
 845 001e 2AD0     		beq	.L43
 193:..\..\..\lvgl\version_6.1.2\lvgl\src\lv_objx/lv_roller.c ****     lv_label_set_align(label, align);
 846              		.loc 7 193 0
 847 0020 FB78     		ldrb	r3, [r7, #3]	@ zero_extendqisi2
 848 0022 1946     		mov	r1, r3
 849 0024 B868     		ldr	r0, [r7, #8]
 850 0026 FFF7FEFF 		bl	lv_label_set_align
 194:..\..\..\lvgl\version_6.1.2\lvgl\src\lv_objx/lv_roller.c **** 
 195:..\..\..\lvgl\version_6.1.2\lvgl\src\lv_objx/lv_roller.c ****     switch(lv_label_get_align(label)) {
 851              		.loc 7 195 0
 852 002a B868     		ldr	r0, [r7, #8]
 853 002c FFF7FEFF 		bl	lv_label_get_align
 854 0030 0346     		mov	r3, r0
 855 0032 012B     		cmp	r3, #1
 856 0034 0CD0     		beq	.L40
 857 0036 022B     		cmp	r3, #2
 858 0038 13D0     		beq	.L41
 859 003a 002B     		cmp	r3, #0
 860 003c 1CD1     		bne	.L37
 196:..\..\..\lvgl\version_6.1.2\lvgl\src\lv_objx/lv_roller.c ****         case LV_LABEL_ALIGN_LEFT: lv_obj_align(label, NULL, LV_ALIGN_IN_LEFT_MID, 0, 0); break;
 861              		.loc 7 196 0
 862 003e 0023     		movs	r3, #0
 863 0040 0093     		str	r3, [sp]
 864 0042 0023     		movs	r3, #0
 865 0044 0722     		movs	r2, #7
 866 0046 0021     		movs	r1, #0
 867 0048 B868     		ldr	r0, [r7, #8]
 868 004a FFF7FEFF 		bl	lv_obj_align
 869 004e 13E0     		b	.L37
 870              	.L40:
 197:..\..\..\lvgl\version_6.1.2\lvgl\src\lv_objx/lv_roller.c ****         case LV_LABEL_ALIGN_CENTER: lv_obj_align(label, NULL, LV_ALIGN_CENTER, 0, 0); break;
 871              		.loc 7 197 0
 872 0050 0023     		movs	r3, #0
 873 0052 0093     		str	r3, [sp]
 874 0054 0023     		movs	r3, #0
 875 0056 0022     		movs	r2, #0
 876 0058 0021     		movs	r1, #0
 877 005a B868     		ldr	r0, [r7, #8]
ARM GAS  C:\Users\tmj32\AppData\Local\Temp\ccT5YJ50.s 			page 39


 878 005c FFF7FEFF 		bl	lv_obj_align
 879 0060 0AE0     		b	.L37
 880              	.L41:
 198:..\..\..\lvgl\version_6.1.2\lvgl\src\lv_objx/lv_roller.c ****         case LV_LABEL_ALIGN_RIGHT: lv_obj_align(label, NULL, LV_ALIGN_IN_RIGHT_MID, 0, 0); break;
 881              		.loc 7 198 0
 882 0062 0023     		movs	r3, #0
 883 0064 0093     		str	r3, [sp]
 884 0066 0023     		movs	r3, #0
 885 0068 0822     		movs	r2, #8
 886 006a 0021     		movs	r1, #0
 887 006c B868     		ldr	r0, [r7, #8]
 888 006e FFF7FEFF 		bl	lv_obj_align
 889 0072 00BF     		nop
 890 0074 00E0     		b	.L37
 891              	.L43:
 192:..\..\..\lvgl\version_6.1.2\lvgl\src\lv_objx/lv_roller.c ****     lv_label_set_align(label, align);
 892              		.loc 7 192 0
 893 0076 00BF     		nop
 894              	.L37:
 199:..\..\..\lvgl\version_6.1.2\lvgl\src\lv_objx/lv_roller.c ****     }
 200:..\..\..\lvgl\version_6.1.2\lvgl\src\lv_objx/lv_roller.c **** }
 895              		.loc 7 200 0
 896 0078 1037     		adds	r7, r7, #16
 897              		.cfi_def_cfa_offset 8
 898 007a BD46     		mov	sp, r7
 899              		.cfi_def_cfa_register 13
 900              		@ sp needed
 901 007c 80BD     		pop	{r7, pc}
 902              		.cfi_endproc
 903              	.LFE61:
 904              		.size	lv_roller_set_align, .-lv_roller_set_align
 905 007e 00BF     		.section	.text.lv_roller_set_selected,"ax",%progbits
 906              		.align	2
 907              		.global	lv_roller_set_selected
 908              		.thumb
 909              		.thumb_func
 910              		.type	lv_roller_set_selected, %function
 911              	lv_roller_set_selected:
 912              	.LFB62:
 201:..\..\..\lvgl\version_6.1.2\lvgl\src\lv_objx/lv_roller.c **** 
 202:..\..\..\lvgl\version_6.1.2\lvgl\src\lv_objx/lv_roller.c **** /**
 203:..\..\..\lvgl\version_6.1.2\lvgl\src\lv_objx/lv_roller.c ****  * Set the selected option
 204:..\..\..\lvgl\version_6.1.2\lvgl\src\lv_objx/lv_roller.c ****  * @param roller pointer to a roller object
 205:..\..\..\lvgl\version_6.1.2\lvgl\src\lv_objx/lv_roller.c ****  * @param sel_opt id of the selected option (0 ... number of option - 1);
 206:..\..\..\lvgl\version_6.1.2\lvgl\src\lv_objx/lv_roller.c ****  * @param anim_en LV_ANIM_ON: set with animation; LV_ANOM_OFF set immediately
 207:..\..\..\lvgl\version_6.1.2\lvgl\src\lv_objx/lv_roller.c ****  */
 208:..\..\..\lvgl\version_6.1.2\lvgl\src\lv_objx/lv_roller.c **** void lv_roller_set_selected(lv_obj_t * roller, uint16_t sel_opt, lv_anim_enable_t anim)
 209:..\..\..\lvgl\version_6.1.2\lvgl\src\lv_objx/lv_roller.c **** {
 913              		.loc 7 209 0
 914              		.cfi_startproc
 915              		@ args = 0, pretend = 0, frame = 8
 916              		@ frame_needed = 1, uses_anonymous_args = 0
 917 0000 80B5     		push	{r7, lr}
 918              		.cfi_def_cfa_offset 8
 919              		.cfi_offset 7, -8
 920              		.cfi_offset 14, -4
 921 0002 82B0     		sub	sp, sp, #8
ARM GAS  C:\Users\tmj32\AppData\Local\Temp\ccT5YJ50.s 			page 40


 922              		.cfi_def_cfa_offset 16
 923 0004 00AF     		add	r7, sp, #0
 924              		.cfi_def_cfa_register 7
 925 0006 7860     		str	r0, [r7, #4]
 926 0008 0B46     		mov	r3, r1
 927 000a 7B80     		strh	r3, [r7, #2]	@ movhi
 928 000c 1346     		mov	r3, r2
 929 000e 7B70     		strb	r3, [r7, #1]
 210:..\..\..\lvgl\version_6.1.2\lvgl\src\lv_objx/lv_roller.c ****     LV_ASSERT_OBJ(roller, LV_OBJX_NAME);
 211:..\..\..\lvgl\version_6.1.2\lvgl\src\lv_objx/lv_roller.c **** 
 212:..\..\..\lvgl\version_6.1.2\lvgl\src\lv_objx/lv_roller.c **** #if LV_USE_ANIMATION == 0
 213:..\..\..\lvgl\version_6.1.2\lvgl\src\lv_objx/lv_roller.c ****     anim = LV_ANIM_OFF;
 214:..\..\..\lvgl\version_6.1.2\lvgl\src\lv_objx/lv_roller.c **** #endif
 215:..\..\..\lvgl\version_6.1.2\lvgl\src\lv_objx/lv_roller.c **** 
 216:..\..\..\lvgl\version_6.1.2\lvgl\src\lv_objx/lv_roller.c ****     if(lv_roller_get_selected(roller) == sel_opt) return;
 930              		.loc 7 216 0
 931 0010 7868     		ldr	r0, [r7, #4]
 932 0012 FFF7FEFF 		bl	lv_roller_get_selected
 933 0016 0346     		mov	r3, r0
 934 0018 1A46     		mov	r2, r3
 935 001a 7B88     		ldrh	r3, [r7, #2]
 936 001c 9342     		cmp	r3, r2
 937 001e 0AD0     		beq	.L47
 217:..\..\..\lvgl\version_6.1.2\lvgl\src\lv_objx/lv_roller.c **** 
 218:..\..\..\lvgl\version_6.1.2\lvgl\src\lv_objx/lv_roller.c ****     lv_ddlist_set_selected(roller, sel_opt);
 938              		.loc 7 218 0
 939 0020 7B88     		ldrh	r3, [r7, #2]
 940 0022 1946     		mov	r1, r3
 941 0024 7868     		ldr	r0, [r7, #4]
 942 0026 FFF7FEFF 		bl	lv_ddlist_set_selected
 219:..\..\..\lvgl\version_6.1.2\lvgl\src\lv_objx/lv_roller.c ****     refr_position(roller, anim);
 943              		.loc 7 219 0
 944 002a 7B78     		ldrb	r3, [r7, #1]	@ zero_extendqisi2
 945 002c 1946     		mov	r1, r3
 946 002e 7868     		ldr	r0, [r7, #4]
 947 0030 FFF7FEFF 		bl	refr_position
 948 0034 00E0     		b	.L44
 949              	.L47:
 216:..\..\..\lvgl\version_6.1.2\lvgl\src\lv_objx/lv_roller.c **** 
 950              		.loc 7 216 0
 951 0036 00BF     		nop
 952              	.L44:
 220:..\..\..\lvgl\version_6.1.2\lvgl\src\lv_objx/lv_roller.c **** }
 953              		.loc 7 220 0
 954 0038 0837     		adds	r7, r7, #8
 955              		.cfi_def_cfa_offset 8
 956 003a BD46     		mov	sp, r7
 957              		.cfi_def_cfa_register 13
 958              		@ sp needed
 959 003c 80BD     		pop	{r7, pc}
 960              		.cfi_endproc
 961              	.LFE62:
 962              		.size	lv_roller_set_selected, .-lv_roller_set_selected
 963 003e 00BF     		.section	.text.lv_roller_set_visible_row_count,"ax",%progbits
 964              		.align	2
 965              		.global	lv_roller_set_visible_row_count
 966              		.thumb
ARM GAS  C:\Users\tmj32\AppData\Local\Temp\ccT5YJ50.s 			page 41


 967              		.thumb_func
 968              		.type	lv_roller_set_visible_row_count, %function
 969              	lv_roller_set_visible_row_count:
 970              	.LFB63:
 221:..\..\..\lvgl\version_6.1.2\lvgl\src\lv_objx/lv_roller.c **** 
 222:..\..\..\lvgl\version_6.1.2\lvgl\src\lv_objx/lv_roller.c **** /**
 223:..\..\..\lvgl\version_6.1.2\lvgl\src\lv_objx/lv_roller.c ****  * Set the height to show the given number of rows (options)
 224:..\..\..\lvgl\version_6.1.2\lvgl\src\lv_objx/lv_roller.c ****  * @param roller pointer to a roller object
 225:..\..\..\lvgl\version_6.1.2\lvgl\src\lv_objx/lv_roller.c ****  * @param row_cnt number of desired visible rows
 226:..\..\..\lvgl\version_6.1.2\lvgl\src\lv_objx/lv_roller.c ****  */
 227:..\..\..\lvgl\version_6.1.2\lvgl\src\lv_objx/lv_roller.c **** void lv_roller_set_visible_row_count(lv_obj_t * roller, uint8_t row_cnt)
 228:..\..\..\lvgl\version_6.1.2\lvgl\src\lv_objx/lv_roller.c **** {
 971              		.loc 7 228 0
 972              		.cfi_startproc
 973              		@ args = 0, pretend = 0, frame = 24
 974              		@ frame_needed = 1, uses_anonymous_args = 0
 975 0000 80B5     		push	{r7, lr}
 976              		.cfi_def_cfa_offset 8
 977              		.cfi_offset 7, -8
 978              		.cfi_offset 14, -4
 979 0002 86B0     		sub	sp, sp, #24
 980              		.cfi_def_cfa_offset 32
 981 0004 00AF     		add	r7, sp, #0
 982              		.cfi_def_cfa_register 7
 983 0006 7860     		str	r0, [r7, #4]
 984 0008 0B46     		mov	r3, r1
 985 000a FB70     		strb	r3, [r7, #3]
 229:..\..\..\lvgl\version_6.1.2\lvgl\src\lv_objx/lv_roller.c ****     LV_ASSERT_OBJ(roller, LV_OBJX_NAME);
 230:..\..\..\lvgl\version_6.1.2\lvgl\src\lv_objx/lv_roller.c **** 
 231:..\..\..\lvgl\version_6.1.2\lvgl\src\lv_objx/lv_roller.c ****     lv_roller_ext_t * ext          = lv_obj_get_ext_attr(roller);
 986              		.loc 7 231 0
 987 000c 7868     		ldr	r0, [r7, #4]
 988 000e FFF7FEFF 		bl	lv_obj_get_ext_attr
 989 0012 7861     		str	r0, [r7, #20]
 232:..\..\..\lvgl\version_6.1.2\lvgl\src\lv_objx/lv_roller.c ****     const lv_style_t * style_label = lv_obj_get_style(ext->ddlist.label);
 990              		.loc 7 232 0
 991 0014 7B69     		ldr	r3, [r7, #20]
 992 0016 1B6B     		ldr	r3, [r3, #48]
 993 0018 1846     		mov	r0, r3
 994 001a FFF7FEFF 		bl	lv_obj_get_style
 995 001e 3861     		str	r0, [r7, #16]
 233:..\..\..\lvgl\version_6.1.2\lvgl\src\lv_objx/lv_roller.c ****     uint8_t n_line_space           = (row_cnt > 1) ? row_cnt - 1 : 1;
 996              		.loc 7 233 0
 997 0020 FB78     		ldrb	r3, [r7, #3]	@ zero_extendqisi2
 998 0022 012B     		cmp	r3, #1
 999 0024 03D9     		bls	.L49
 1000              		.loc 7 233 0 is_stmt 0 discriminator 1
 1001 0026 FB78     		ldrb	r3, [r7, #3]
 1002 0028 013B     		subs	r3, r3, #1
 1003 002a DBB2     		uxtb	r3, r3
 1004 002c 00E0     		b	.L50
 1005              	.L49:
 1006              		.loc 7 233 0 discriminator 2
 1007 002e 0123     		movs	r3, #1
 1008              	.L50:
 1009              		.loc 7 233 0 discriminator 4
 1010 0030 FB73     		strb	r3, [r7, #15]
ARM GAS  C:\Users\tmj32\AppData\Local\Temp\ccT5YJ50.s 			page 42


 234:..\..\..\lvgl\version_6.1.2\lvgl\src\lv_objx/lv_roller.c ****     lv_ddlist_set_fix_height(roller, lv_font_get_line_height(style_label->text.font) * row_cnt +
 1011              		.loc 7 234 0 is_stmt 1 discriminator 4
 1012 0032 3B69     		ldr	r3, [r7, #16]
 1013 0034 5B6B     		ldr	r3, [r3, #52]
 1014 0036 1846     		mov	r0, r3
 1015 0038 FFF7FEFF 		bl	lv_font_get_line_height
 1016 003c 0346     		mov	r3, r0
 1017 003e 9AB2     		uxth	r2, r3
 1018 0040 FB78     		ldrb	r3, [r7, #3]	@ zero_extendqisi2
 1019 0042 9BB2     		uxth	r3, r3
 1020 0044 12FB03F3 		smulbb	r3, r2, r3
 1021 0048 9AB2     		uxth	r2, r3
 235:..\..\..\lvgl\version_6.1.2\lvgl\src\lv_objx/lv_roller.c ****                                          style_label->text.line_space * n_line_space);
 1022              		.loc 7 235 0 discriminator 4
 1023 004a 3B69     		ldr	r3, [r7, #16]
 1024 004c B3F93A30 		ldrsh	r3, [r3, #58]
 234:..\..\..\lvgl\version_6.1.2\lvgl\src\lv_objx/lv_roller.c ****     lv_ddlist_set_fix_height(roller, lv_font_get_line_height(style_label->text.font) * row_cnt +
 1025              		.loc 7 234 0 discriminator 4
 1026 0050 99B2     		uxth	r1, r3
 1027 0052 FB7B     		ldrb	r3, [r7, #15]	@ zero_extendqisi2
 1028 0054 9BB2     		uxth	r3, r3
 1029 0056 11FB03F3 		smulbb	r3, r1, r3
 1030 005a 9BB2     		uxth	r3, r3
 1031 005c 1344     		add	r3, r3, r2
 1032 005e 9BB2     		uxth	r3, r3
 1033 0060 1BB2     		sxth	r3, r3
 1034 0062 1946     		mov	r1, r3
 1035 0064 7868     		ldr	r0, [r7, #4]
 1036 0066 FFF7FEFF 		bl	lv_ddlist_set_fix_height
 236:..\..\..\lvgl\version_6.1.2\lvgl\src\lv_objx/lv_roller.c **** }
 1037              		.loc 7 236 0 discriminator 4
 1038 006a 00BF     		nop
 1039 006c 1837     		adds	r7, r7, #24
 1040              		.cfi_def_cfa_offset 8
 1041 006e BD46     		mov	sp, r7
 1042              		.cfi_def_cfa_register 13
 1043              		@ sp needed
 1044 0070 80BD     		pop	{r7, pc}
 1045              		.cfi_endproc
 1046              	.LFE63:
 1047              		.size	lv_roller_set_visible_row_count, .-lv_roller_set_visible_row_count
 1048 0072 00BF     		.section	.text.lv_roller_set_style,"ax",%progbits
 1049              		.align	2
 1050              		.global	lv_roller_set_style
 1051              		.thumb
 1052              		.thumb_func
 1053              		.type	lv_roller_set_style, %function
 1054              	lv_roller_set_style:
 1055              	.LFB64:
 237:..\..\..\lvgl\version_6.1.2\lvgl\src\lv_objx/lv_roller.c **** 
 238:..\..\..\lvgl\version_6.1.2\lvgl\src\lv_objx/lv_roller.c **** /**
 239:..\..\..\lvgl\version_6.1.2\lvgl\src\lv_objx/lv_roller.c ****  * Set a style of a roller
 240:..\..\..\lvgl\version_6.1.2\lvgl\src\lv_objx/lv_roller.c ****  * @param roller pointer to a roller object
 241:..\..\..\lvgl\version_6.1.2\lvgl\src\lv_objx/lv_roller.c ****  * @param type which style should be set
 242:..\..\..\lvgl\version_6.1.2\lvgl\src\lv_objx/lv_roller.c ****  * @param style pointer to a style
 243:..\..\..\lvgl\version_6.1.2\lvgl\src\lv_objx/lv_roller.c ****  */
 244:..\..\..\lvgl\version_6.1.2\lvgl\src\lv_objx/lv_roller.c **** void lv_roller_set_style(lv_obj_t * roller, lv_roller_style_t type, const lv_style_t * style)
ARM GAS  C:\Users\tmj32\AppData\Local\Temp\ccT5YJ50.s 			page 43


 245:..\..\..\lvgl\version_6.1.2\lvgl\src\lv_objx/lv_roller.c **** {
 1056              		.loc 7 245 0
 1057              		.cfi_startproc
 1058              		@ args = 0, pretend = 0, frame = 16
 1059              		@ frame_needed = 1, uses_anonymous_args = 0
 1060 0000 80B5     		push	{r7, lr}
 1061              		.cfi_def_cfa_offset 8
 1062              		.cfi_offset 7, -8
 1063              		.cfi_offset 14, -4
 1064 0002 84B0     		sub	sp, sp, #16
 1065              		.cfi_def_cfa_offset 24
 1066 0004 00AF     		add	r7, sp, #0
 1067              		.cfi_def_cfa_register 7
 1068 0006 F860     		str	r0, [r7, #12]
 1069 0008 0B46     		mov	r3, r1
 1070 000a 7A60     		str	r2, [r7, #4]
 1071 000c FB72     		strb	r3, [r7, #11]
 246:..\..\..\lvgl\version_6.1.2\lvgl\src\lv_objx/lv_roller.c ****     LV_ASSERT_OBJ(roller, LV_OBJX_NAME);
 247:..\..\..\lvgl\version_6.1.2\lvgl\src\lv_objx/lv_roller.c **** 
 248:..\..\..\lvgl\version_6.1.2\lvgl\src\lv_objx/lv_roller.c ****     switch(type) {
 1072              		.loc 7 248 0
 1073 000e FB7A     		ldrb	r3, [r7, #11]	@ zero_extendqisi2
 1074 0010 002B     		cmp	r3, #0
 1075 0012 02D0     		beq	.L53
 1076 0014 012B     		cmp	r3, #1
 1077 0016 05D0     		beq	.L54
 249:..\..\..\lvgl\version_6.1.2\lvgl\src\lv_objx/lv_roller.c ****         case LV_ROLLER_STYLE_BG: lv_obj_set_style(roller, style); break;
 250:..\..\..\lvgl\version_6.1.2\lvgl\src\lv_objx/lv_roller.c ****         case LV_ROLLER_STYLE_SEL: lv_ddlist_set_style(roller, LV_DDLIST_STYLE_SEL, style); break;
 251:..\..\..\lvgl\version_6.1.2\lvgl\src\lv_objx/lv_roller.c ****     }
 252:..\..\..\lvgl\version_6.1.2\lvgl\src\lv_objx/lv_roller.c **** }
 1078              		.loc 7 252 0
 1079 0018 0AE0     		b	.L55
 1080              	.L53:
 249:..\..\..\lvgl\version_6.1.2\lvgl\src\lv_objx/lv_roller.c ****         case LV_ROLLER_STYLE_BG: lv_obj_set_style(roller, style); break;
 1081              		.loc 7 249 0
 1082 001a 7968     		ldr	r1, [r7, #4]
 1083 001c F868     		ldr	r0, [r7, #12]
 1084 001e FFF7FEFF 		bl	lv_obj_set_style
 1085 0022 05E0     		b	.L52
 1086              	.L54:
 250:..\..\..\lvgl\version_6.1.2\lvgl\src\lv_objx/lv_roller.c ****     }
 1087              		.loc 7 250 0
 1088 0024 7A68     		ldr	r2, [r7, #4]
 1089 0026 0121     		movs	r1, #1
 1090 0028 F868     		ldr	r0, [r7, #12]
 1091 002a FFF7FEFF 		bl	lv_ddlist_set_style
 1092 002e 00BF     		nop
 1093              	.L52:
 1094              	.L55:
 1095              		.loc 7 252 0
 1096 0030 00BF     		nop
 1097 0032 1037     		adds	r7, r7, #16
 1098              		.cfi_def_cfa_offset 8
 1099 0034 BD46     		mov	sp, r7
 1100              		.cfi_def_cfa_register 13
 1101              		@ sp needed
 1102 0036 80BD     		pop	{r7, pc}
ARM GAS  C:\Users\tmj32\AppData\Local\Temp\ccT5YJ50.s 			page 44


 1103              		.cfi_endproc
 1104              	.LFE64:
 1105              		.size	lv_roller_set_style, .-lv_roller_set_style
 1106              		.section	.text.lv_roller_get_selected,"ax",%progbits
 1107              		.align	2
 1108              		.global	lv_roller_get_selected
 1109              		.thumb
 1110              		.thumb_func
 1111              		.type	lv_roller_get_selected, %function
 1112              	lv_roller_get_selected:
 1113              	.LFB65:
 253:..\..\..\lvgl\version_6.1.2\lvgl\src\lv_objx/lv_roller.c **** 
 254:..\..\..\lvgl\version_6.1.2\lvgl\src\lv_objx/lv_roller.c **** /*=====================
 255:..\..\..\lvgl\version_6.1.2\lvgl\src\lv_objx/lv_roller.c ****  * Getter functions
 256:..\..\..\lvgl\version_6.1.2\lvgl\src\lv_objx/lv_roller.c ****  *====================*/
 257:..\..\..\lvgl\version_6.1.2\lvgl\src\lv_objx/lv_roller.c **** 
 258:..\..\..\lvgl\version_6.1.2\lvgl\src\lv_objx/lv_roller.c **** /**
 259:..\..\..\lvgl\version_6.1.2\lvgl\src\lv_objx/lv_roller.c ****  * Get the id of the selected option
 260:..\..\..\lvgl\version_6.1.2\lvgl\src\lv_objx/lv_roller.c ****  * @param roller pointer to a roller object
 261:..\..\..\lvgl\version_6.1.2\lvgl\src\lv_objx/lv_roller.c ****  * @return id of the selected option (0 ... number of option - 1);
 262:..\..\..\lvgl\version_6.1.2\lvgl\src\lv_objx/lv_roller.c ****  */
 263:..\..\..\lvgl\version_6.1.2\lvgl\src\lv_objx/lv_roller.c **** uint16_t lv_roller_get_selected(const lv_obj_t * roller)
 264:..\..\..\lvgl\version_6.1.2\lvgl\src\lv_objx/lv_roller.c **** {
 1114              		.loc 7 264 0
 1115              		.cfi_startproc
 1116              		@ args = 0, pretend = 0, frame = 16
 1117              		@ frame_needed = 1, uses_anonymous_args = 0
 1118 0000 80B5     		push	{r7, lr}
 1119              		.cfi_def_cfa_offset 8
 1120              		.cfi_offset 7, -8
 1121              		.cfi_offset 14, -4
 1122 0002 84B0     		sub	sp, sp, #16
 1123              		.cfi_def_cfa_offset 24
 1124 0004 00AF     		add	r7, sp, #0
 1125              		.cfi_def_cfa_register 7
 1126 0006 7860     		str	r0, [r7, #4]
 265:..\..\..\lvgl\version_6.1.2\lvgl\src\lv_objx/lv_roller.c ****     LV_ASSERT_OBJ(roller, LV_OBJX_NAME);
 266:..\..\..\lvgl\version_6.1.2\lvgl\src\lv_objx/lv_roller.c **** 
 267:..\..\..\lvgl\version_6.1.2\lvgl\src\lv_objx/lv_roller.c ****     lv_roller_ext_t * ext = lv_obj_get_ext_attr(roller);
 1127              		.loc 7 267 0
 1128 0008 7868     		ldr	r0, [r7, #4]
 1129 000a FFF7FEFF 		bl	lv_obj_get_ext_attr
 1130 000e F860     		str	r0, [r7, #12]
 268:..\..\..\lvgl\version_6.1.2\lvgl\src\lv_objx/lv_roller.c ****     if(ext->mode == LV_ROLLER_MODE_INIFINITE) {
 1131              		.loc 7 268 0
 1132 0010 FB68     		ldr	r3, [r7, #12]
 1133 0012 93F84430 		ldrb	r3, [r3, #68]	@ zero_extendqisi2
 1134 0016 03F00103 		and	r3, r3, #1
 1135 001a DBB2     		uxtb	r3, r3
 1136 001c 002B     		cmp	r3, #0
 1137 001e 16D0     		beq	.L57
 1138              	.LBB5:
 269:..\..\..\lvgl\version_6.1.2\lvgl\src\lv_objx/lv_roller.c ****         uint16_t real_id_cnt = ext->ddlist.option_cnt / LV_ROLLER_INF_PAGES;
 1139              		.loc 7 269 0
 1140 0020 FB68     		ldr	r3, [r7, #12]
 1141 0022 1A8F     		ldrh	r2, [r3, #56]
 1142 0024 0E4B     		ldr	r3, .L59
ARM GAS  C:\Users\tmj32\AppData\Local\Temp\ccT5YJ50.s 			page 45


 1143 0026 A3FB0213 		umull	r1, r3, r3, r2
 1144 002a D21A     		subs	r2, r2, r3
 1145 002c 5208     		lsrs	r2, r2, #1
 1146 002e 1344     		add	r3, r3, r2
 1147 0030 9B08     		lsrs	r3, r3, #2
 1148 0032 7B81     		strh	r3, [r7, #10]	@ movhi
 270:..\..\..\lvgl\version_6.1.2\lvgl\src\lv_objx/lv_roller.c ****         return lv_ddlist_get_selected(roller) % real_id_cnt;
 1149              		.loc 7 270 0
 1150 0034 7868     		ldr	r0, [r7, #4]
 1151 0036 FFF7FEFF 		bl	lv_ddlist_get_selected
 1152 003a 0346     		mov	r3, r0
 1153 003c 1A46     		mov	r2, r3
 1154 003e 7B89     		ldrh	r3, [r7, #10]
 1155 0040 B2FBF3F1 		udiv	r1, r2, r3
 1156 0044 03FB01F3 		mul	r3, r3, r1
 1157 0048 D31A     		subs	r3, r2, r3
 1158 004a 9BB2     		uxth	r3, r3
 1159 004c 03E0     		b	.L58
 1160              	.L57:
 1161              	.LBE5:
 271:..\..\..\lvgl\version_6.1.2\lvgl\src\lv_objx/lv_roller.c ****     } else {
 272:..\..\..\lvgl\version_6.1.2\lvgl\src\lv_objx/lv_roller.c ****         return lv_ddlist_get_selected(roller);
 1162              		.loc 7 272 0
 1163 004e 7868     		ldr	r0, [r7, #4]
 1164 0050 FFF7FEFF 		bl	lv_ddlist_get_selected
 1165 0054 0346     		mov	r3, r0
 1166              	.L58:
 273:..\..\..\lvgl\version_6.1.2\lvgl\src\lv_objx/lv_roller.c ****     }
 274:..\..\..\lvgl\version_6.1.2\lvgl\src\lv_objx/lv_roller.c **** }
 1167              		.loc 7 274 0
 1168 0056 1846     		mov	r0, r3
 1169 0058 1037     		adds	r7, r7, #16
 1170              		.cfi_def_cfa_offset 8
 1171 005a BD46     		mov	sp, r7
 1172              		.cfi_def_cfa_register 13
 1173              		@ sp needed
 1174 005c 80BD     		pop	{r7, pc}
 1175              	.L60:
 1176 005e 00BF     		.align	2
 1177              	.L59:
 1178 0060 25499224 		.word	613566757
 1179              		.cfi_endproc
 1180              	.LFE65:
 1181              		.size	lv_roller_get_selected, .-lv_roller_get_selected
 1182              		.section	.text.lv_roller_get_align,"ax",%progbits
 1183              		.align	2
 1184              		.global	lv_roller_get_align
 1185              		.thumb
 1186              		.thumb_func
 1187              		.type	lv_roller_get_align, %function
 1188              	lv_roller_get_align:
 1189              	.LFB66:
 275:..\..\..\lvgl\version_6.1.2\lvgl\src\lv_objx/lv_roller.c **** 
 276:..\..\..\lvgl\version_6.1.2\lvgl\src\lv_objx/lv_roller.c **** /**
 277:..\..\..\lvgl\version_6.1.2\lvgl\src\lv_objx/lv_roller.c ****  * Get the align attribute. Default alignment after _create is LV_LABEL_ALIGN_CENTER
 278:..\..\..\lvgl\version_6.1.2\lvgl\src\lv_objx/lv_roller.c ****  * @param roller pointer to a roller object
 279:..\..\..\lvgl\version_6.1.2\lvgl\src\lv_objx/lv_roller.c ****  * @return LV_LABEL_ALIGN_LEFT, LV_LABEL_ALIGN_RIGHT or LV_LABEL_ALIGN_CENTER
ARM GAS  C:\Users\tmj32\AppData\Local\Temp\ccT5YJ50.s 			page 46


 280:..\..\..\lvgl\version_6.1.2\lvgl\src\lv_objx/lv_roller.c ****  */
 281:..\..\..\lvgl\version_6.1.2\lvgl\src\lv_objx/lv_roller.c **** lv_label_align_t lv_roller_get_align(const lv_obj_t * roller)
 282:..\..\..\lvgl\version_6.1.2\lvgl\src\lv_objx/lv_roller.c **** {
 1190              		.loc 7 282 0
 1191              		.cfi_startproc
 1192              		@ args = 0, pretend = 0, frame = 16
 1193              		@ frame_needed = 1, uses_anonymous_args = 0
 1194 0000 80B5     		push	{r7, lr}
 1195              		.cfi_def_cfa_offset 8
 1196              		.cfi_offset 7, -8
 1197              		.cfi_offset 14, -4
 1198 0002 84B0     		sub	sp, sp, #16
 1199              		.cfi_def_cfa_offset 24
 1200 0004 00AF     		add	r7, sp, #0
 1201              		.cfi_def_cfa_register 7
 1202 0006 7860     		str	r0, [r7, #4]
 283:..\..\..\lvgl\version_6.1.2\lvgl\src\lv_objx/lv_roller.c ****     LV_ASSERT_OBJ(roller, LV_OBJX_NAME);
 284:..\..\..\lvgl\version_6.1.2\lvgl\src\lv_objx/lv_roller.c **** 
 285:..\..\..\lvgl\version_6.1.2\lvgl\src\lv_objx/lv_roller.c ****     lv_roller_ext_t * ext = lv_obj_get_ext_attr(roller);
 1203              		.loc 7 285 0
 1204 0008 7868     		ldr	r0, [r7, #4]
 1205 000a FFF7FEFF 		bl	lv_obj_get_ext_attr
 1206 000e F860     		str	r0, [r7, #12]
 286:..\..\..\lvgl\version_6.1.2\lvgl\src\lv_objx/lv_roller.c ****     LV_ASSERT_MEM(ext);
 287:..\..\..\lvgl\version_6.1.2\lvgl\src\lv_objx/lv_roller.c ****     LV_ASSERT_MEM(ext->ddlist.label);
 288:..\..\..\lvgl\version_6.1.2\lvgl\src\lv_objx/lv_roller.c ****     return lv_label_get_align(ext->ddlist.label);
 1207              		.loc 7 288 0
 1208 0010 FB68     		ldr	r3, [r7, #12]
 1209 0012 1B6B     		ldr	r3, [r3, #48]
 1210 0014 1846     		mov	r0, r3
 1211 0016 FFF7FEFF 		bl	lv_label_get_align
 1212 001a 0346     		mov	r3, r0
 289:..\..\..\lvgl\version_6.1.2\lvgl\src\lv_objx/lv_roller.c **** }
 1213              		.loc 7 289 0
 1214 001c 1846     		mov	r0, r3
 1215 001e 1037     		adds	r7, r7, #16
 1216              		.cfi_def_cfa_offset 8
 1217 0020 BD46     		mov	sp, r7
 1218              		.cfi_def_cfa_register 13
 1219              		@ sp needed
 1220 0022 80BD     		pop	{r7, pc}
 1221              		.cfi_endproc
 1222              	.LFE66:
 1223              		.size	lv_roller_get_align, .-lv_roller_get_align
 1224              		.section	.text.lv_roller_get_hor_fit,"ax",%progbits
 1225              		.align	2
 1226              		.global	lv_roller_get_hor_fit
 1227              		.thumb
 1228              		.thumb_func
 1229              		.type	lv_roller_get_hor_fit, %function
 1230              	lv_roller_get_hor_fit:
 1231              	.LFB67:
 290:..\..\..\lvgl\version_6.1.2\lvgl\src\lv_objx/lv_roller.c **** 
 291:..\..\..\lvgl\version_6.1.2\lvgl\src\lv_objx/lv_roller.c **** /**
 292:..\..\..\lvgl\version_6.1.2\lvgl\src\lv_objx/lv_roller.c ****  * Get the auto width set attribute
 293:..\..\..\lvgl\version_6.1.2\lvgl\src\lv_objx/lv_roller.c ****  * @param roller pointer to a roller object
 294:..\..\..\lvgl\version_6.1.2\lvgl\src\lv_objx/lv_roller.c ****  * @return true: auto size enabled; false: manual width settings enabled
ARM GAS  C:\Users\tmj32\AppData\Local\Temp\ccT5YJ50.s 			page 47


 295:..\..\..\lvgl\version_6.1.2\lvgl\src\lv_objx/lv_roller.c ****  */
 296:..\..\..\lvgl\version_6.1.2\lvgl\src\lv_objx/lv_roller.c **** bool lv_roller_get_hor_fit(const lv_obj_t * roller)
 297:..\..\..\lvgl\version_6.1.2\lvgl\src\lv_objx/lv_roller.c **** {
 1232              		.loc 7 297 0
 1233              		.cfi_startproc
 1234              		@ args = 0, pretend = 0, frame = 8
 1235              		@ frame_needed = 1, uses_anonymous_args = 0
 1236 0000 80B5     		push	{r7, lr}
 1237              		.cfi_def_cfa_offset 8
 1238              		.cfi_offset 7, -8
 1239              		.cfi_offset 14, -4
 1240 0002 82B0     		sub	sp, sp, #8
 1241              		.cfi_def_cfa_offset 16
 1242 0004 00AF     		add	r7, sp, #0
 1243              		.cfi_def_cfa_register 7
 1244 0006 7860     		str	r0, [r7, #4]
 298:..\..\..\lvgl\version_6.1.2\lvgl\src\lv_objx/lv_roller.c ****     LV_ASSERT_OBJ(roller, LV_OBJX_NAME);
 299:..\..\..\lvgl\version_6.1.2\lvgl\src\lv_objx/lv_roller.c **** 
 300:..\..\..\lvgl\version_6.1.2\lvgl\src\lv_objx/lv_roller.c ****     return lv_page_get_scrl_fit_left(roller);
 1245              		.loc 7 300 0
 1246 0008 7868     		ldr	r0, [r7, #4]
 1247 000a FFF7FEFF 		bl	lv_page_get_scrl_fit_left
 1248 000e 0346     		mov	r3, r0
 1249 0010 002B     		cmp	r3, #0
 1250 0012 14BF     		ite	ne
 1251 0014 0123     		movne	r3, #1
 1252 0016 0023     		moveq	r3, #0
 1253 0018 DBB2     		uxtb	r3, r3
 301:..\..\..\lvgl\version_6.1.2\lvgl\src\lv_objx/lv_roller.c **** }
 1254              		.loc 7 301 0
 1255 001a 1846     		mov	r0, r3
 1256 001c 0837     		adds	r7, r7, #8
 1257              		.cfi_def_cfa_offset 8
 1258 001e BD46     		mov	sp, r7
 1259              		.cfi_def_cfa_register 13
 1260              		@ sp needed
 1261 0020 80BD     		pop	{r7, pc}
 1262              		.cfi_endproc
 1263              	.LFE67:
 1264              		.size	lv_roller_get_hor_fit, .-lv_roller_get_hor_fit
 1265 0022 00BF     		.section	.text.lv_roller_get_style,"ax",%progbits
 1266              		.align	2
 1267              		.global	lv_roller_get_style
 1268              		.thumb
 1269              		.thumb_func
 1270              		.type	lv_roller_get_style, %function
 1271              	lv_roller_get_style:
 1272              	.LFB68:
 302:..\..\..\lvgl\version_6.1.2\lvgl\src\lv_objx/lv_roller.c **** 
 303:..\..\..\lvgl\version_6.1.2\lvgl\src\lv_objx/lv_roller.c **** /**
 304:..\..\..\lvgl\version_6.1.2\lvgl\src\lv_objx/lv_roller.c ****  * Get a style of a roller
 305:..\..\..\lvgl\version_6.1.2\lvgl\src\lv_objx/lv_roller.c ****  * @param roller pointer to a roller object
 306:..\..\..\lvgl\version_6.1.2\lvgl\src\lv_objx/lv_roller.c ****  * @param type which style should be get
 307:..\..\..\lvgl\version_6.1.2\lvgl\src\lv_objx/lv_roller.c ****  * @return style pointer to a style
 308:..\..\..\lvgl\version_6.1.2\lvgl\src\lv_objx/lv_roller.c ****  *  */
 309:..\..\..\lvgl\version_6.1.2\lvgl\src\lv_objx/lv_roller.c **** const lv_style_t * lv_roller_get_style(const lv_obj_t * roller, lv_roller_style_t type)
 310:..\..\..\lvgl\version_6.1.2\lvgl\src\lv_objx/lv_roller.c **** {
ARM GAS  C:\Users\tmj32\AppData\Local\Temp\ccT5YJ50.s 			page 48


 1273              		.loc 7 310 0
 1274              		.cfi_startproc
 1275              		@ args = 0, pretend = 0, frame = 8
 1276              		@ frame_needed = 1, uses_anonymous_args = 0
 1277 0000 80B5     		push	{r7, lr}
 1278              		.cfi_def_cfa_offset 8
 1279              		.cfi_offset 7, -8
 1280              		.cfi_offset 14, -4
 1281 0002 82B0     		sub	sp, sp, #8
 1282              		.cfi_def_cfa_offset 16
 1283 0004 00AF     		add	r7, sp, #0
 1284              		.cfi_def_cfa_register 7
 1285 0006 7860     		str	r0, [r7, #4]
 1286 0008 0B46     		mov	r3, r1
 1287 000a FB70     		strb	r3, [r7, #3]
 311:..\..\..\lvgl\version_6.1.2\lvgl\src\lv_objx/lv_roller.c ****     LV_ASSERT_OBJ(roller, LV_OBJX_NAME);
 312:..\..\..\lvgl\version_6.1.2\lvgl\src\lv_objx/lv_roller.c **** 
 313:..\..\..\lvgl\version_6.1.2\lvgl\src\lv_objx/lv_roller.c ****     switch(type) {
 1288              		.loc 7 313 0
 1289 000c FB78     		ldrb	r3, [r7, #3]	@ zero_extendqisi2
 1290 000e 002B     		cmp	r3, #0
 1291 0010 02D0     		beq	.L67
 1292 0012 012B     		cmp	r3, #1
 1293 0014 05D0     		beq	.L68
 1294 0016 0AE0     		b	.L70
 1295              	.L67:
 314:..\..\..\lvgl\version_6.1.2\lvgl\src\lv_objx/lv_roller.c ****         case LV_ROLLER_STYLE_BG: return lv_obj_get_style(roller);
 1296              		.loc 7 314 0
 1297 0018 7868     		ldr	r0, [r7, #4]
 1298 001a FFF7FEFF 		bl	lv_obj_get_style
 1299 001e 0346     		mov	r3, r0
 1300 0020 06E0     		b	.L69
 1301              	.L68:
 315:..\..\..\lvgl\version_6.1.2\lvgl\src\lv_objx/lv_roller.c ****         case LV_ROLLER_STYLE_SEL: return lv_ddlist_get_style(roller, LV_DDLIST_STYLE_SEL);
 1302              		.loc 7 315 0
 1303 0022 0121     		movs	r1, #1
 1304 0024 7868     		ldr	r0, [r7, #4]
 1305 0026 FFF7FEFF 		bl	lv_ddlist_get_style
 1306 002a 0346     		mov	r3, r0
 1307 002c 00E0     		b	.L69
 1308              	.L70:
 316:..\..\..\lvgl\version_6.1.2\lvgl\src\lv_objx/lv_roller.c ****         default: return NULL;
 1309              		.loc 7 316 0
 1310 002e 0023     		movs	r3, #0
 1311              	.L69:
 317:..\..\..\lvgl\version_6.1.2\lvgl\src\lv_objx/lv_roller.c ****     }
 318:..\..\..\lvgl\version_6.1.2\lvgl\src\lv_objx/lv_roller.c **** 
 319:..\..\..\lvgl\version_6.1.2\lvgl\src\lv_objx/lv_roller.c ****     /*To avoid warning*/
 320:..\..\..\lvgl\version_6.1.2\lvgl\src\lv_objx/lv_roller.c ****     return NULL;
 321:..\..\..\lvgl\version_6.1.2\lvgl\src\lv_objx/lv_roller.c **** }
 1312              		.loc 7 321 0
 1313 0030 1846     		mov	r0, r3
 1314 0032 0837     		adds	r7, r7, #8
 1315              		.cfi_def_cfa_offset 8
 1316 0034 BD46     		mov	sp, r7
 1317              		.cfi_def_cfa_register 13
 1318              		@ sp needed
ARM GAS  C:\Users\tmj32\AppData\Local\Temp\ccT5YJ50.s 			page 49


 1319 0036 80BD     		pop	{r7, pc}
 1320              		.cfi_endproc
 1321              	.LFE68:
 1322              		.size	lv_roller_get_style, .-lv_roller_get_style
 1323              		.section	.text.lv_roller_design,"ax",%progbits
 1324              		.align	2
 1325              		.thumb
 1326              		.thumb_func
 1327              		.type	lv_roller_design, %function
 1328              	lv_roller_design:
 1329              	.LFB69:
 322:..\..\..\lvgl\version_6.1.2\lvgl\src\lv_objx/lv_roller.c **** 
 323:..\..\..\lvgl\version_6.1.2\lvgl\src\lv_objx/lv_roller.c **** /**********************
 324:..\..\..\lvgl\version_6.1.2\lvgl\src\lv_objx/lv_roller.c ****  *   STATIC FUNCTIONS
 325:..\..\..\lvgl\version_6.1.2\lvgl\src\lv_objx/lv_roller.c ****  **********************/
 326:..\..\..\lvgl\version_6.1.2\lvgl\src\lv_objx/lv_roller.c **** 
 327:..\..\..\lvgl\version_6.1.2\lvgl\src\lv_objx/lv_roller.c **** /**
 328:..\..\..\lvgl\version_6.1.2\lvgl\src\lv_objx/lv_roller.c ****  * Handle the drawing related tasks of the rollers
 329:..\..\..\lvgl\version_6.1.2\lvgl\src\lv_objx/lv_roller.c ****  * @param roller pointer to an object
 330:..\..\..\lvgl\version_6.1.2\lvgl\src\lv_objx/lv_roller.c ****  * @param mask the object will be drawn only in this area
 331:..\..\..\lvgl\version_6.1.2\lvgl\src\lv_objx/lv_roller.c ****  * @param mode LV_DESIGN_COVER_CHK: only check if the object fully covers the 'mask_p' area
 332:..\..\..\lvgl\version_6.1.2\lvgl\src\lv_objx/lv_roller.c ****  *                                  (return 'true' if yes)
 333:..\..\..\lvgl\version_6.1.2\lvgl\src\lv_objx/lv_roller.c ****  *             LV_DESIGN_DRAW: draw the object (always return 'true')
 334:..\..\..\lvgl\version_6.1.2\lvgl\src\lv_objx/lv_roller.c ****  *             LV_DESIGN_DRAW_POST: drawing after every children are drawn
 335:..\..\..\lvgl\version_6.1.2\lvgl\src\lv_objx/lv_roller.c ****  * @param return true/false, depends on 'mode'
 336:..\..\..\lvgl\version_6.1.2\lvgl\src\lv_objx/lv_roller.c ****  */
 337:..\..\..\lvgl\version_6.1.2\lvgl\src\lv_objx/lv_roller.c **** static bool lv_roller_design(lv_obj_t * roller, const lv_area_t * mask, lv_design_mode_t mode)
 338:..\..\..\lvgl\version_6.1.2\lvgl\src\lv_objx/lv_roller.c **** {
 1330              		.loc 7 338 0
 1331              		.cfi_startproc
 1332              		@ args = 0, pretend = 0, frame = 176
 1333              		@ frame_needed = 1, uses_anonymous_args = 0
 1334 0000 B0B5     		push	{r4, r5, r7, lr}
 1335              		.cfi_def_cfa_offset 16
 1336              		.cfi_offset 4, -16
 1337              		.cfi_offset 5, -12
 1338              		.cfi_offset 7, -8
 1339              		.cfi_offset 14, -4
 1340 0002 B2B0     		sub	sp, sp, #200
 1341              		.cfi_def_cfa_offset 216
 1342 0004 06AF     		add	r7, sp, #24
 1343              		.cfi_def_cfa 7, 192
 1344 0006 F860     		str	r0, [r7, #12]
 1345 0008 B960     		str	r1, [r7, #8]
 1346 000a 1346     		mov	r3, r2
 1347 000c FB71     		strb	r3, [r7, #7]
 339:..\..\..\lvgl\version_6.1.2\lvgl\src\lv_objx/lv_roller.c ****     /*Return false if the object is not covers the mask_p area*/
 340:..\..\..\lvgl\version_6.1.2\lvgl\src\lv_objx/lv_roller.c ****     if(mode == LV_DESIGN_COVER_CHK) {
 1348              		.loc 7 340 0
 1349 000e FB79     		ldrb	r3, [r7, #7]	@ zero_extendqisi2
 1350 0010 022B     		cmp	r3, #2
 1351 0012 01D1     		bne	.L72
 341:..\..\..\lvgl\version_6.1.2\lvgl\src\lv_objx/lv_roller.c ****         return false;
 1352              		.loc 7 341 0
 1353 0014 0023     		movs	r3, #0
 1354 0016 7EE1     		b	.L73
 1355              	.L72:
ARM GAS  C:\Users\tmj32\AppData\Local\Temp\ccT5YJ50.s 			page 50


 342:..\..\..\lvgl\version_6.1.2\lvgl\src\lv_objx/lv_roller.c ****     }
 343:..\..\..\lvgl\version_6.1.2\lvgl\src\lv_objx/lv_roller.c ****     /*Draw the object*/
 344:..\..\..\lvgl\version_6.1.2\lvgl\src\lv_objx/lv_roller.c ****     else if(mode == LV_DESIGN_DRAW_MAIN) {
 1356              		.loc 7 344 0
 1357 0018 FB79     		ldrb	r3, [r7, #7]	@ zero_extendqisi2
 1358 001a 002B     		cmp	r3, #0
 1359 001c 40F09080 		bne	.L74
 1360              	.LBB6:
 345:..\..\..\lvgl\version_6.1.2\lvgl\src\lv_objx/lv_roller.c ****         draw_bg(roller, mask);
 1361              		.loc 7 345 0
 1362 0020 B968     		ldr	r1, [r7, #8]
 1363 0022 F868     		ldr	r0, [r7, #12]
 1364 0024 FFF7FEFF 		bl	draw_bg
 346:..\..\..\lvgl\version_6.1.2\lvgl\src\lv_objx/lv_roller.c **** 
 347:..\..\..\lvgl\version_6.1.2\lvgl\src\lv_objx/lv_roller.c ****         const lv_style_t * style = lv_roller_get_style(roller, LV_ROLLER_STYLE_BG);
 1365              		.loc 7 347 0
 1366 0028 0021     		movs	r1, #0
 1367 002a F868     		ldr	r0, [r7, #12]
 1368 002c FFF7FEFF 		bl	lv_roller_get_style
 1369 0030 C7F8A800 		str	r0, [r7, #168]
 348:..\..\..\lvgl\version_6.1.2\lvgl\src\lv_objx/lv_roller.c ****         lv_opa_t opa_scale       = lv_obj_get_opa_scale(roller);
 1370              		.loc 7 348 0
 1371 0034 F868     		ldr	r0, [r7, #12]
 1372 0036 FFF7FEFF 		bl	lv_obj_get_opa_scale
 1373 003a 0346     		mov	r3, r0
 1374 003c 87F8A730 		strb	r3, [r7, #167]
 349:..\..\..\lvgl\version_6.1.2\lvgl\src\lv_objx/lv_roller.c ****         const lv_font_t * font   = style->text.font;
 1375              		.loc 7 349 0
 1376 0040 D7F8A830 		ldr	r3, [r7, #168]
 1377 0044 5B6B     		ldr	r3, [r3, #52]
 1378 0046 C7F8A030 		str	r3, [r7, #160]
 350:..\..\..\lvgl\version_6.1.2\lvgl\src\lv_objx/lv_roller.c ****         lv_roller_ext_t * ext    = lv_obj_get_ext_attr(roller);
 1379              		.loc 7 350 0
 1380 004a F868     		ldr	r0, [r7, #12]
 1381 004c FFF7FEFF 		bl	lv_obj_get_ext_attr
 1382 0050 C7F89C00 		str	r0, [r7, #156]
 351:..\..\..\lvgl\version_6.1.2\lvgl\src\lv_objx/lv_roller.c ****         lv_coord_t font_h        = lv_font_get_line_height(font);
 1383              		.loc 7 351 0
 1384 0054 D7F8A000 		ldr	r0, [r7, #160]
 1385 0058 FFF7FEFF 		bl	lv_font_get_line_height
 1386 005c 0346     		mov	r3, r0
 1387 005e A7F89A30 		strh	r3, [r7, #154]	@ movhi
 352:..\..\..\lvgl\version_6.1.2\lvgl\src\lv_objx/lv_roller.c ****         lv_area_t rect_area;
 353:..\..\..\lvgl\version_6.1.2\lvgl\src\lv_objx/lv_roller.c ****         rect_area.y1 = roller->coords.y1 + lv_obj_get_height(roller) / 2 - font_h / 2 - style->text
 1388              		.loc 7 353 0
 1389 0062 FB68     		ldr	r3, [r7, #12]
 1390 0064 B3F91230 		ldrsh	r3, [r3, #18]
 1391 0068 9CB2     		uxth	r4, r3
 1392 006a F868     		ldr	r0, [r7, #12]
 1393 006c FFF7FEFF 		bl	lv_obj_get_height
 1394 0070 0346     		mov	r3, r0
 1395 0072 DA0F     		lsrs	r2, r3, #31
 1396 0074 1344     		add	r3, r3, r2
 1397 0076 5B10     		asrs	r3, r3, #1
 1398 0078 1BB2     		sxth	r3, r3
 1399 007a 9BB2     		uxth	r3, r3
 1400 007c 2344     		add	r3, r3, r4
ARM GAS  C:\Users\tmj32\AppData\Local\Temp\ccT5YJ50.s 			page 51


 1401 007e 9AB2     		uxth	r2, r3
 1402 0080 B7F99A30 		ldrsh	r3, [r7, #154]
 1403 0084 D90F     		lsrs	r1, r3, #31
 1404 0086 0B44     		add	r3, r3, r1
 1405 0088 5B10     		asrs	r3, r3, #1
 1406 008a 1BB2     		sxth	r3, r3
 1407 008c 9BB2     		uxth	r3, r3
 1408 008e D31A     		subs	r3, r2, r3
 1409 0090 9AB2     		uxth	r2, r3
 1410 0092 D7F8A830 		ldr	r3, [r7, #168]
 1411 0096 B3F93A30 		ldrsh	r3, [r3, #58]
 1412 009a D90F     		lsrs	r1, r3, #31
 1413 009c 0B44     		add	r3, r3, r1
 1414 009e 5B10     		asrs	r3, r3, #1
 1415 00a0 1BB2     		sxth	r3, r3
 1416 00a2 9BB2     		uxth	r3, r3
 1417 00a4 D31A     		subs	r3, r2, r3
 1418 00a6 9BB2     		uxth	r3, r3
 1419 00a8 1BB2     		sxth	r3, r3
 1420 00aa A7F87A30 		strh	r3, [r7, #122]	@ movhi
 354:..\..\..\lvgl\version_6.1.2\lvgl\src\lv_objx/lv_roller.c ****         if((font_h & 0x1) && (style->text.line_space & 0x1)) rect_area.y1--; /*Compensate the two r
 1421              		.loc 7 354 0
 1422 00ae B7F89A30 		ldrh	r3, [r7, #154]
 1423 00b2 03F00103 		and	r3, r3, #1
 1424 00b6 002B     		cmp	r3, #0
 1425 00b8 10D0     		beq	.L75
 1426              		.loc 7 354 0 is_stmt 0 discriminator 1
 1427 00ba D7F8A830 		ldr	r3, [r7, #168]
 1428 00be B3F93A30 		ldrsh	r3, [r3, #58]
 1429 00c2 9BB2     		uxth	r3, r3
 1430 00c4 03F00103 		and	r3, r3, #1
 1431 00c8 002B     		cmp	r3, #0
 1432 00ca 07D0     		beq	.L75
 1433              		.loc 7 354 0 discriminator 2
 1434 00cc B7F97A30 		ldrsh	r3, [r7, #122]
 1435 00d0 9BB2     		uxth	r3, r3
 1436 00d2 013B     		subs	r3, r3, #1
 1437 00d4 9BB2     		uxth	r3, r3
 1438 00d6 1BB2     		sxth	r3, r3
 1439 00d8 A7F87A30 		strh	r3, [r7, #122]	@ movhi
 1440              	.L75:
 355:..\..\..\lvgl\version_6.1.2\lvgl\src\lv_objx/lv_roller.c ****         rect_area.y2 = rect_area.y1 + font_h + style->text.line_space - 1;
 1441              		.loc 7 355 0 is_stmt 1
 1442 00dc B7F97A30 		ldrsh	r3, [r7, #122]
 1443 00e0 9AB2     		uxth	r2, r3
 1444 00e2 B7F89A30 		ldrh	r3, [r7, #154]
 1445 00e6 1344     		add	r3, r3, r2
 1446 00e8 9AB2     		uxth	r2, r3
 1447 00ea D7F8A830 		ldr	r3, [r7, #168]
 1448 00ee B3F93A30 		ldrsh	r3, [r3, #58]
 1449 00f2 9BB2     		uxth	r3, r3
 1450 00f4 1344     		add	r3, r3, r2
 1451 00f6 9BB2     		uxth	r3, r3
 1452 00f8 013B     		subs	r3, r3, #1
 1453 00fa 9BB2     		uxth	r3, r3
 1454 00fc 1BB2     		sxth	r3, r3
 1455 00fe A7F87E30 		strh	r3, [r7, #126]	@ movhi
ARM GAS  C:\Users\tmj32\AppData\Local\Temp\ccT5YJ50.s 			page 52


 356:..\..\..\lvgl\version_6.1.2\lvgl\src\lv_objx/lv_roller.c ****         lv_area_t roller_coords;
 357:..\..\..\lvgl\version_6.1.2\lvgl\src\lv_objx/lv_roller.c ****         lv_obj_get_coords(roller, &roller_coords);
 1456              		.loc 7 357 0
 1457 0102 07F17003 		add	r3, r7, #112
 1458 0106 1946     		mov	r1, r3
 1459 0108 F868     		ldr	r0, [r7, #12]
 1460 010a FFF7FEFF 		bl	lv_obj_get_coords
 358:..\..\..\lvgl\version_6.1.2\lvgl\src\lv_objx/lv_roller.c ****         lv_obj_get_inner_coords(roller, &roller_coords);
 1461              		.loc 7 358 0
 1462 010e 07F17003 		add	r3, r7, #112
 1463 0112 1946     		mov	r1, r3
 1464 0114 F868     		ldr	r0, [r7, #12]
 1465 0116 FFF7FEFF 		bl	lv_obj_get_inner_coords
 359:..\..\..\lvgl\version_6.1.2\lvgl\src\lv_objx/lv_roller.c **** 
 360:..\..\..\lvgl\version_6.1.2\lvgl\src\lv_objx/lv_roller.c ****         rect_area.x1 = roller_coords.x1;
 1466              		.loc 7 360 0
 1467 011a B7F97030 		ldrsh	r3, [r7, #112]
 1468 011e A7F87830 		strh	r3, [r7, #120]	@ movhi
 361:..\..\..\lvgl\version_6.1.2\lvgl\src\lv_objx/lv_roller.c ****         rect_area.x2 = roller_coords.x2;
 1469              		.loc 7 361 0
 1470 0122 B7F97430 		ldrsh	r3, [r7, #116]
 1471 0126 A7F87C30 		strh	r3, [r7, #124]	@ movhi
 362:..\..\..\lvgl\version_6.1.2\lvgl\src\lv_objx/lv_roller.c **** 
 363:..\..\..\lvgl\version_6.1.2\lvgl\src\lv_objx/lv_roller.c ****         lv_draw_rect(&rect_area, mask, ext->ddlist.sel_style, opa_scale);
 1472              		.loc 7 363 0
 1473 012a D7F89C30 		ldr	r3, [r7, #156]
 1474 012e 5A6B     		ldr	r2, [r3, #52]
 1475 0130 97F8A730 		ldrb	r3, [r7, #167]	@ zero_extendqisi2
 1476 0134 07F17800 		add	r0, r7, #120
 1477 0138 B968     		ldr	r1, [r7, #8]
 1478 013a FFF7FEFF 		bl	lv_draw_rect
 1479              	.LBE6:
 1480 013e E9E0     		b	.L76
 1481              	.L74:
 364:..\..\..\lvgl\version_6.1.2\lvgl\src\lv_objx/lv_roller.c ****     }
 365:..\..\..\lvgl\version_6.1.2\lvgl\src\lv_objx/lv_roller.c ****     /*Post draw when the children are drawn*/
 366:..\..\..\lvgl\version_6.1.2\lvgl\src\lv_objx/lv_roller.c ****     else if(mode == LV_DESIGN_DRAW_POST) {
 1482              		.loc 7 366 0
 1483 0140 FB79     		ldrb	r3, [r7, #7]	@ zero_extendqisi2
 1484 0142 012B     		cmp	r3, #1
 1485 0144 40F0E680 		bne	.L76
 1486              	.LBB7:
 367:..\..\..\lvgl\version_6.1.2\lvgl\src\lv_objx/lv_roller.c ****         const lv_style_t * style = lv_roller_get_style(roller, LV_ROLLER_STYLE_BG);
 1487              		.loc 7 367 0
 1488 0148 0021     		movs	r1, #0
 1489 014a F868     		ldr	r0, [r7, #12]
 1490 014c FFF7FEFF 		bl	lv_roller_get_style
 1491 0150 C7F89400 		str	r0, [r7, #148]
 368:..\..\..\lvgl\version_6.1.2\lvgl\src\lv_objx/lv_roller.c ****         lv_roller_ext_t * ext    = lv_obj_get_ext_attr(roller);
 1492              		.loc 7 368 0
 1493 0154 F868     		ldr	r0, [r7, #12]
 1494 0156 FFF7FEFF 		bl	lv_obj_get_ext_attr
 1495 015a C7F89000 		str	r0, [r7, #144]
 369:..\..\..\lvgl\version_6.1.2\lvgl\src\lv_objx/lv_roller.c ****         const lv_font_t * font   = style->text.font;
 1496              		.loc 7 369 0
 1497 015e D7F89430 		ldr	r3, [r7, #148]
 1498 0162 5B6B     		ldr	r3, [r3, #52]
ARM GAS  C:\Users\tmj32\AppData\Local\Temp\ccT5YJ50.s 			page 53


 1499 0164 C7F88C30 		str	r3, [r7, #140]
 370:..\..\..\lvgl\version_6.1.2\lvgl\src\lv_objx/lv_roller.c ****         lv_coord_t font_h        = lv_font_get_line_height(font);
 1500              		.loc 7 370 0
 1501 0168 D7F88C00 		ldr	r0, [r7, #140]
 1502 016c FFF7FEFF 		bl	lv_font_get_line_height
 1503 0170 0346     		mov	r3, r0
 1504 0172 A7F88A30 		strh	r3, [r7, #138]	@ movhi
 371:..\..\..\lvgl\version_6.1.2\lvgl\src\lv_objx/lv_roller.c ****         lv_opa_t opa_scale       = lv_obj_get_opa_scale(roller);
 1505              		.loc 7 371 0
 1506 0176 F868     		ldr	r0, [r7, #12]
 1507 0178 FFF7FEFF 		bl	lv_obj_get_opa_scale
 1508 017c 0346     		mov	r3, r0
 1509 017e 87F88930 		strb	r3, [r7, #137]
 372:..\..\..\lvgl\version_6.1.2\lvgl\src\lv_objx/lv_roller.c **** 
 373:..\..\..\lvgl\version_6.1.2\lvgl\src\lv_objx/lv_roller.c ****         /*Redraw the text on the selected area with a different color*/
 374:..\..\..\lvgl\version_6.1.2\lvgl\src\lv_objx/lv_roller.c ****         lv_area_t rect_area;
 375:..\..\..\lvgl\version_6.1.2\lvgl\src\lv_objx/lv_roller.c ****         rect_area.y1 = roller->coords.y1 + lv_obj_get_height(roller) / 2 - font_h / 2 - style->text
 1510              		.loc 7 375 0
 1511 0182 FB68     		ldr	r3, [r7, #12]
 1512 0184 B3F91230 		ldrsh	r3, [r3, #18]
 1513 0188 9CB2     		uxth	r4, r3
 1514 018a F868     		ldr	r0, [r7, #12]
 1515 018c FFF7FEFF 		bl	lv_obj_get_height
 1516 0190 0346     		mov	r3, r0
 1517 0192 DA0F     		lsrs	r2, r3, #31
 1518 0194 1344     		add	r3, r3, r2
 1519 0196 5B10     		asrs	r3, r3, #1
 1520 0198 1BB2     		sxth	r3, r3
 1521 019a 9BB2     		uxth	r3, r3
 1522 019c 2344     		add	r3, r3, r4
 1523 019e 9AB2     		uxth	r2, r3
 1524 01a0 B7F98A30 		ldrsh	r3, [r7, #138]
 1525 01a4 D90F     		lsrs	r1, r3, #31
 1526 01a6 0B44     		add	r3, r3, r1
 1527 01a8 5B10     		asrs	r3, r3, #1
 1528 01aa 1BB2     		sxth	r3, r3
 1529 01ac 9BB2     		uxth	r3, r3
 1530 01ae D31A     		subs	r3, r2, r3
 1531 01b0 9AB2     		uxth	r2, r3
 1532 01b2 D7F89430 		ldr	r3, [r7, #148]
 1533 01b6 B3F93A30 		ldrsh	r3, [r3, #58]
 1534 01ba D90F     		lsrs	r1, r3, #31
 1535 01bc 0B44     		add	r3, r3, r1
 1536 01be 5B10     		asrs	r3, r3, #1
 1537 01c0 1BB2     		sxth	r3, r3
 1538 01c2 9BB2     		uxth	r3, r3
 1539 01c4 D31A     		subs	r3, r2, r3
 1540 01c6 9BB2     		uxth	r3, r3
 1541 01c8 1BB2     		sxth	r3, r3
 1542 01ca A7F86A30 		strh	r3, [r7, #106]	@ movhi
 376:..\..\..\lvgl\version_6.1.2\lvgl\src\lv_objx/lv_roller.c ****         if((font_h & 0x1) && (style->text.line_space & 0x1)) rect_area.y1--; /*Compensate the two r
 1543              		.loc 7 376 0
 1544 01ce B7F88A30 		ldrh	r3, [r7, #138]
 1545 01d2 03F00103 		and	r3, r3, #1
 1546 01d6 002B     		cmp	r3, #0
 1547 01d8 10D0     		beq	.L77
 1548              		.loc 7 376 0 is_stmt 0 discriminator 1
ARM GAS  C:\Users\tmj32\AppData\Local\Temp\ccT5YJ50.s 			page 54


 1549 01da D7F89430 		ldr	r3, [r7, #148]
 1550 01de B3F93A30 		ldrsh	r3, [r3, #58]
 1551 01e2 9BB2     		uxth	r3, r3
 1552 01e4 03F00103 		and	r3, r3, #1
 1553 01e8 002B     		cmp	r3, #0
 1554 01ea 07D0     		beq	.L77
 1555              		.loc 7 376 0 discriminator 2
 1556 01ec B7F96A30 		ldrsh	r3, [r7, #106]
 1557 01f0 9BB2     		uxth	r3, r3
 1558 01f2 013B     		subs	r3, r3, #1
 1559 01f4 9BB2     		uxth	r3, r3
 1560 01f6 1BB2     		sxth	r3, r3
 1561 01f8 A7F86A30 		strh	r3, [r7, #106]	@ movhi
 1562              	.L77:
 377:..\..\..\lvgl\version_6.1.2\lvgl\src\lv_objx/lv_roller.c ****         rect_area.y2 = rect_area.y1 + font_h + style->text.line_space - 1;
 1563              		.loc 7 377 0 is_stmt 1
 1564 01fc B7F96A30 		ldrsh	r3, [r7, #106]
 1565 0200 9AB2     		uxth	r2, r3
 1566 0202 B7F88A30 		ldrh	r3, [r7, #138]
 1567 0206 1344     		add	r3, r3, r2
 1568 0208 9AB2     		uxth	r2, r3
 1569 020a D7F89430 		ldr	r3, [r7, #148]
 1570 020e B3F93A30 		ldrsh	r3, [r3, #58]
 1571 0212 9BB2     		uxth	r3, r3
 1572 0214 1344     		add	r3, r3, r2
 1573 0216 9BB2     		uxth	r3, r3
 1574 0218 013B     		subs	r3, r3, #1
 1575 021a 9BB2     		uxth	r3, r3
 1576 021c 1BB2     		sxth	r3, r3
 1577 021e A7F86E30 		strh	r3, [r7, #110]	@ movhi
 378:..\..\..\lvgl\version_6.1.2\lvgl\src\lv_objx/lv_roller.c ****         rect_area.x1 = roller->coords.x1;
 1578              		.loc 7 378 0
 1579 0222 FB68     		ldr	r3, [r7, #12]
 1580 0224 B3F91030 		ldrsh	r3, [r3, #16]
 1581 0228 A7F86830 		strh	r3, [r7, #104]	@ movhi
 379:..\..\..\lvgl\version_6.1.2\lvgl\src\lv_objx/lv_roller.c ****         rect_area.x2 = roller->coords.x2;
 1582              		.loc 7 379 0
 1583 022c FB68     		ldr	r3, [r7, #12]
 1584 022e B3F91430 		ldrsh	r3, [r3, #20]
 1585 0232 A7F86C30 		strh	r3, [r7, #108]	@ movhi
 380:..\..\..\lvgl\version_6.1.2\lvgl\src\lv_objx/lv_roller.c ****         lv_area_t mask_sel;
 381:..\..\..\lvgl\version_6.1.2\lvgl\src\lv_objx/lv_roller.c ****         bool area_ok;
 382:..\..\..\lvgl\version_6.1.2\lvgl\src\lv_objx/lv_roller.c ****         area_ok = lv_area_intersect(&mask_sel, mask, &rect_area);
 1586              		.loc 7 382 0
 1587 0236 07F16802 		add	r2, r7, #104
 1588 023a 07F16003 		add	r3, r7, #96
 1589 023e B968     		ldr	r1, [r7, #8]
 1590 0240 1846     		mov	r0, r3
 1591 0242 FFF7FEFF 		bl	lv_area_intersect
 1592 0246 0346     		mov	r3, r0
 1593 0248 87F88830 		strb	r3, [r7, #136]
 383:..\..\..\lvgl\version_6.1.2\lvgl\src\lv_objx/lv_roller.c ****         if(area_ok) {
 1594              		.loc 7 383 0
 1595 024c 97F88830 		ldrb	r3, [r7, #136]	@ zero_extendqisi2
 1596 0250 002B     		cmp	r3, #0
 1597 0252 5FD0     		beq	.L76
 1598              	.LBB8:
ARM GAS  C:\Users\tmj32\AppData\Local\Temp\ccT5YJ50.s 			page 55


 384:..\..\..\lvgl\version_6.1.2\lvgl\src\lv_objx/lv_roller.c ****             const lv_style_t * sel_style = lv_roller_get_style(roller, LV_ROLLER_STYLE_SEL);
 1599              		.loc 7 384 0
 1600 0254 0121     		movs	r1, #1
 1601 0256 F868     		ldr	r0, [r7, #12]
 1602 0258 FFF7FEFF 		bl	lv_roller_get_style
 1603 025c C7F88400 		str	r0, [r7, #132]
 385:..\..\..\lvgl\version_6.1.2\lvgl\src\lv_objx/lv_roller.c ****             lv_style_t new_style;
 386:..\..\..\lvgl\version_6.1.2\lvgl\src\lv_objx/lv_roller.c ****             lv_txt_flag_t txt_align = LV_TXT_FLAG_NONE;
 1604              		.loc 7 386 0
 1605 0260 0023     		movs	r3, #0
 1606 0262 87F8AF30 		strb	r3, [r7, #175]
 1607              	.LBB9:
 387:..\..\..\lvgl\version_6.1.2\lvgl\src\lv_objx/lv_roller.c **** 
 388:..\..\..\lvgl\version_6.1.2\lvgl\src\lv_objx/lv_roller.c ****             {
 389:..\..\..\lvgl\version_6.1.2\lvgl\src\lv_objx/lv_roller.c ****                 lv_label_align_t label_align = lv_label_get_align(ext->ddlist.label);
 1608              		.loc 7 389 0
 1609 0266 D7F89030 		ldr	r3, [r7, #144]
 1610 026a 1B6B     		ldr	r3, [r3, #48]
 1611 026c 1846     		mov	r0, r3
 1612 026e FFF7FEFF 		bl	lv_label_get_align
 1613 0272 0346     		mov	r3, r0
 1614 0274 87F88330 		strb	r3, [r7, #131]
 390:..\..\..\lvgl\version_6.1.2\lvgl\src\lv_objx/lv_roller.c **** 
 391:..\..\..\lvgl\version_6.1.2\lvgl\src\lv_objx/lv_roller.c ****                 if(LV_LABEL_ALIGN_CENTER == label_align) {
 1615              		.loc 7 391 0
 1616 0278 97F88330 		ldrb	r3, [r7, #131]	@ zero_extendqisi2
 1617 027c 012B     		cmp	r3, #1
 1618 027e 06D1     		bne	.L79
 392:..\..\..\lvgl\version_6.1.2\lvgl\src\lv_objx/lv_roller.c ****                     txt_align |= LV_TXT_FLAG_CENTER;
 1619              		.loc 7 392 0
 1620 0280 97F8AF30 		ldrb	r3, [r7, #175]
 1621 0284 43F00403 		orr	r3, r3, #4
 1622 0288 87F8AF30 		strb	r3, [r7, #175]
 1623 028c 09E0     		b	.L80
 1624              	.L79:
 393:..\..\..\lvgl\version_6.1.2\lvgl\src\lv_objx/lv_roller.c ****                 } else if(LV_LABEL_ALIGN_RIGHT == label_align) {
 1625              		.loc 7 393 0
 1626 028e 97F88330 		ldrb	r3, [r7, #131]	@ zero_extendqisi2
 1627 0292 022B     		cmp	r3, #2
 1628 0294 05D1     		bne	.L80
 394:..\..\..\lvgl\version_6.1.2\lvgl\src\lv_objx/lv_roller.c ****                     txt_align |= LV_TXT_FLAG_RIGHT;
 1629              		.loc 7 394 0
 1630 0296 97F8AF30 		ldrb	r3, [r7, #175]
 1631 029a 43F00803 		orr	r3, r3, #8
 1632 029e 87F8AF30 		strb	r3, [r7, #175]
 1633              	.L80:
 1634              	.LBE9:
 395:..\..\..\lvgl\version_6.1.2\lvgl\src\lv_objx/lv_roller.c ****                 }
 396:..\..\..\lvgl\version_6.1.2\lvgl\src\lv_objx/lv_roller.c ****             }
 397:..\..\..\lvgl\version_6.1.2\lvgl\src\lv_objx/lv_roller.c **** 
 398:..\..\..\lvgl\version_6.1.2\lvgl\src\lv_objx/lv_roller.c ****             lv_style_copy(&new_style, style);
 1635              		.loc 7 398 0
 1636 02a2 07F11003 		add	r3, r7, #16
 1637 02a6 D7F89410 		ldr	r1, [r7, #148]
 1638 02aa 1846     		mov	r0, r3
 1639 02ac FFF7FEFF 		bl	lv_style_copy
 399:..\..\..\lvgl\version_6.1.2\lvgl\src\lv_objx/lv_roller.c ****             new_style.text.color = sel_style->text.color;
ARM GAS  C:\Users\tmj32\AppData\Local\Temp\ccT5YJ50.s 			page 56


 1640              		.loc 7 399 0
 1641 02b0 D7F88430 		ldr	r3, [r7, #132]
 1642 02b4 DB6A     		ldr	r3, [r3, #44]
 1643 02b6 FB63     		str	r3, [r7, #60]
 400:..\..\..\lvgl\version_6.1.2\lvgl\src\lv_objx/lv_roller.c ****             new_style.text.opa   = sel_style->text.opa;
 1644              		.loc 7 400 0
 1645 02b8 D7F88430 		ldr	r3, [r7, #132]
 1646 02bc 93F83C30 		ldrb	r3, [r3, #60]	@ zero_extendqisi2
 1647 02c0 87F84C30 		strb	r3, [r7, #76]
 401:..\..\..\lvgl\version_6.1.2\lvgl\src\lv_objx/lv_roller.c ****             lv_draw_label(&ext->ddlist.label->coords, &mask_sel, &new_style, opa_scale,
 1648              		.loc 7 401 0
 1649 02c4 D7F89030 		ldr	r3, [r7, #144]
 1650 02c8 1B6B     		ldr	r3, [r3, #48]
 1651 02ca 03F11004 		add	r4, r3, #16
 402:..\..\..\lvgl\version_6.1.2\lvgl\src\lv_objx/lv_roller.c ****                           lv_label_get_text(ext->ddlist.label), txt_align, NULL, NULL, NULL, lv_obj
 1652              		.loc 7 402 0
 1653 02ce D7F89030 		ldr	r3, [r7, #144]
 1654 02d2 1B6B     		ldr	r3, [r3, #48]
 1655 02d4 1846     		mov	r0, r3
 1656 02d6 FFF7FEFF 		bl	lv_label_get_text
 1657 02da 0546     		mov	r5, r0
 1658 02dc D7F89030 		ldr	r3, [r7, #144]
 1659 02e0 1B6B     		ldr	r3, [r3, #48]
 401:..\..\..\lvgl\version_6.1.2\lvgl\src\lv_objx/lv_roller.c ****             lv_draw_label(&ext->ddlist.label->coords, &mask_sel, &new_style, opa_scale,
 1660              		.loc 7 401 0
 1661 02e2 1846     		mov	r0, r3
 1662 02e4 FFF7FEFF 		bl	lv_obj_get_base_dir
 1663 02e8 0346     		mov	r3, r0
 1664 02ea 97F88900 		ldrb	r0, [r7, #137]	@ zero_extendqisi2
 1665 02ee 07F11002 		add	r2, r7, #16
 1666 02f2 07F16001 		add	r1, r7, #96
 1667 02f6 0593     		str	r3, [sp, #20]
 1668 02f8 0023     		movs	r3, #0
 1669 02fa 0493     		str	r3, [sp, #16]
 1670 02fc 0023     		movs	r3, #0
 1671 02fe 0393     		str	r3, [sp, #12]
 1672 0300 0023     		movs	r3, #0
 1673 0302 0293     		str	r3, [sp, #8]
 1674 0304 97F8AF30 		ldrb	r3, [r7, #175]	@ zero_extendqisi2
 1675 0308 0193     		str	r3, [sp, #4]
 1676 030a 0095     		str	r5, [sp]
 1677 030c 0346     		mov	r3, r0
 1678 030e 2046     		mov	r0, r4
 1679 0310 FFF7FEFF 		bl	lv_draw_label
 1680              	.L76:
 1681              	.LBE8:
 1682              	.LBE7:
 403:..\..\..\lvgl\version_6.1.2\lvgl\src\lv_objx/lv_roller.c ****         }
 404:..\..\..\lvgl\version_6.1.2\lvgl\src\lv_objx/lv_roller.c ****     }
 405:..\..\..\lvgl\version_6.1.2\lvgl\src\lv_objx/lv_roller.c **** 
 406:..\..\..\lvgl\version_6.1.2\lvgl\src\lv_objx/lv_roller.c ****     return true;
 1683              		.loc 7 406 0
 1684 0314 0123     		movs	r3, #1
 1685              	.L73:
 407:..\..\..\lvgl\version_6.1.2\lvgl\src\lv_objx/lv_roller.c **** }
 1686              		.loc 7 407 0
 1687 0316 1846     		mov	r0, r3
ARM GAS  C:\Users\tmj32\AppData\Local\Temp\ccT5YJ50.s 			page 57


 1688 0318 B037     		adds	r7, r7, #176
 1689              		.cfi_def_cfa_offset 16
 1690 031a BD46     		mov	sp, r7
 1691              		.cfi_def_cfa_register 13
 1692              		@ sp needed
 1693 031c B0BD     		pop	{r4, r5, r7, pc}
 1694              		.cfi_endproc
 1695              	.LFE69:
 1696              		.size	lv_roller_design, .-lv_roller_design
 1697 031e 00BF     		.section	.rodata
 1698              		.align	2
 1699              	.LC0:
 1700 0000 6C765F72 		.ascii	"lv_roller\000"
 1700      6F6C6C65 
 1700      7200
 1701              		.section	.text.lv_roller_signal,"ax",%progbits
 1702              		.align	2
 1703              		.thumb
 1704              		.thumb_func
 1705              		.type	lv_roller_signal, %function
 1706              	lv_roller_signal:
 1707              	.LFB70:
 408:..\..\..\lvgl\version_6.1.2\lvgl\src\lv_objx/lv_roller.c **** 
 409:..\..\..\lvgl\version_6.1.2\lvgl\src\lv_objx/lv_roller.c **** /**
 410:..\..\..\lvgl\version_6.1.2\lvgl\src\lv_objx/lv_roller.c ****  * Signal function of the roller
 411:..\..\..\lvgl\version_6.1.2\lvgl\src\lv_objx/lv_roller.c ****  * @param roller pointer to a roller object
 412:..\..\..\lvgl\version_6.1.2\lvgl\src\lv_objx/lv_roller.c ****  * @param sign a signal type from lv_signal_t enum
 413:..\..\..\lvgl\version_6.1.2\lvgl\src\lv_objx/lv_roller.c ****  * @param param pointer to a signal specific variable
 414:..\..\..\lvgl\version_6.1.2\lvgl\src\lv_objx/lv_roller.c ****  * @return LV_RES_OK: the object is not deleted in the function; LV_RES_INV: the object is deleted
 415:..\..\..\lvgl\version_6.1.2\lvgl\src\lv_objx/lv_roller.c ****  */
 416:..\..\..\lvgl\version_6.1.2\lvgl\src\lv_objx/lv_roller.c **** static lv_res_t lv_roller_signal(lv_obj_t * roller, lv_signal_t sign, void * param)
 417:..\..\..\lvgl\version_6.1.2\lvgl\src\lv_objx/lv_roller.c **** {
 1708              		.loc 7 417 0
 1709              		.cfi_startproc
 1710              		@ args = 0, pretend = 0, frame = 32
 1711              		@ frame_needed = 1, uses_anonymous_args = 0
 1712 0000 90B5     		push	{r4, r7, lr}
 1713              		.cfi_def_cfa_offset 12
 1714              		.cfi_offset 4, -12
 1715              		.cfi_offset 7, -8
 1716              		.cfi_offset 14, -4
 1717 0002 89B0     		sub	sp, sp, #36
 1718              		.cfi_def_cfa_offset 48
 1719 0004 00AF     		add	r7, sp, #0
 1720              		.cfi_def_cfa_register 7
 1721 0006 F860     		str	r0, [r7, #12]
 1722 0008 0B46     		mov	r3, r1
 1723 000a 7A60     		str	r2, [r7, #4]
 1724 000c FB72     		strb	r3, [r7, #11]
 418:..\..\..\lvgl\version_6.1.2\lvgl\src\lv_objx/lv_roller.c ****     lv_res_t res = LV_RES_OK;
 1725              		.loc 7 418 0
 1726 000e 0123     		movs	r3, #1
 1727 0010 FB77     		strb	r3, [r7, #31]
 419:..\..\..\lvgl\version_6.1.2\lvgl\src\lv_objx/lv_roller.c **** 
 420:..\..\..\lvgl\version_6.1.2\lvgl\src\lv_objx/lv_roller.c ****     /*Don't let the drop down list to handle the control signals. It works differently*/
 421:..\..\..\lvgl\version_6.1.2\lvgl\src\lv_objx/lv_roller.c ****     if(sign != LV_SIGNAL_CONTROL && sign != LV_SIGNAL_FOCUS && sign != LV_SIGNAL_DEFOCUS) {
 1728              		.loc 7 421 0
ARM GAS  C:\Users\tmj32\AppData\Local\Temp\ccT5YJ50.s 			page 58


 1729 0012 FB7A     		ldrb	r3, [r7, #11]	@ zero_extendqisi2
 1730 0014 122B     		cmp	r3, #18
 1731 0016 12D0     		beq	.L82
 1732              		.loc 7 421 0 is_stmt 0 discriminator 1
 1733 0018 FB7A     		ldrb	r3, [r7, #11]	@ zero_extendqisi2
 1734 001a 102B     		cmp	r3, #16
 1735 001c 0FD0     		beq	.L82
 1736              		.loc 7 421 0 discriminator 2
 1737 001e FB7A     		ldrb	r3, [r7, #11]	@ zero_extendqisi2
 1738 0020 112B     		cmp	r3, #17
 1739 0022 0CD0     		beq	.L82
 422:..\..\..\lvgl\version_6.1.2\lvgl\src\lv_objx/lv_roller.c ****         /* Include the ancient signal function */
 423:..\..\..\lvgl\version_6.1.2\lvgl\src\lv_objx/lv_roller.c ****         res = ancestor_signal(roller, sign, param);
 1740              		.loc 7 423 0 is_stmt 1
 1741 0024 4D4B     		ldr	r3, .L94
 1742 0026 1B68     		ldr	r3, [r3]
 1743 0028 F97A     		ldrb	r1, [r7, #11]	@ zero_extendqisi2
 1744 002a 7A68     		ldr	r2, [r7, #4]
 1745 002c F868     		ldr	r0, [r7, #12]
 1746 002e 9847     		blx	r3
 1747 0030 0346     		mov	r3, r0
 1748 0032 FB77     		strb	r3, [r7, #31]
 424:..\..\..\lvgl\version_6.1.2\lvgl\src\lv_objx/lv_roller.c ****         if(res != LV_RES_OK) return res;
 1749              		.loc 7 424 0
 1750 0034 FB7F     		ldrb	r3, [r7, #31]	@ zero_extendqisi2
 1751 0036 012B     		cmp	r3, #1
 1752 0038 01D0     		beq	.L82
 1753              		.loc 7 424 0 is_stmt 0 discriminator 1
 1754 003a FB7F     		ldrb	r3, [r7, #31]	@ zero_extendqisi2
 1755 003c 89E0     		b	.L83
 1756              	.L82:
 425:..\..\..\lvgl\version_6.1.2\lvgl\src\lv_objx/lv_roller.c ****     }
 426:..\..\..\lvgl\version_6.1.2\lvgl\src\lv_objx/lv_roller.c ****     if(sign == LV_SIGNAL_GET_TYPE) return lv_obj_handle_get_type_signal(param, LV_OBJX_NAME);
 1757              		.loc 7 426 0 is_stmt 1
 1758 003e FB7A     		ldrb	r3, [r7, #11]	@ zero_extendqisi2
 1759 0040 072B     		cmp	r3, #7
 1760 0042 05D1     		bne	.L84
 1761              		.loc 7 426 0 is_stmt 0 discriminator 1
 1762 0044 4649     		ldr	r1, .L94+4
 1763 0046 7868     		ldr	r0, [r7, #4]
 1764 0048 FFF7FEFF 		bl	lv_obj_handle_get_type_signal
 1765 004c 0346     		mov	r3, r0
 1766 004e 80E0     		b	.L83
 1767              	.L84:
 427:..\..\..\lvgl\version_6.1.2\lvgl\src\lv_objx/lv_roller.c **** 
 428:..\..\..\lvgl\version_6.1.2\lvgl\src\lv_objx/lv_roller.c ****     lv_roller_ext_t * ext = lv_obj_get_ext_attr(roller);
 1768              		.loc 7 428 0 is_stmt 1
 1769 0050 F868     		ldr	r0, [r7, #12]
 1770 0052 FFF7FEFF 		bl	lv_obj_get_ext_attr
 1771 0056 B861     		str	r0, [r7, #24]
 429:..\..\..\lvgl\version_6.1.2\lvgl\src\lv_objx/lv_roller.c **** 
 430:..\..\..\lvgl\version_6.1.2\lvgl\src\lv_objx/lv_roller.c ****     if(sign == LV_SIGNAL_STYLE_CHG) {
 1772              		.loc 7 430 0
 1773 0058 FB7A     		ldrb	r3, [r7, #11]	@ zero_extendqisi2
 1774 005a 042B     		cmp	r3, #4
 1775 005c 07D1     		bne	.L85
 431:..\..\..\lvgl\version_6.1.2\lvgl\src\lv_objx/lv_roller.c ****         refr_height(roller);
ARM GAS  C:\Users\tmj32\AppData\Local\Temp\ccT5YJ50.s 			page 59


 1776              		.loc 7 431 0
 1777 005e F868     		ldr	r0, [r7, #12]
 1778 0060 FFF7FEFF 		bl	refr_height
 432:..\..\..\lvgl\version_6.1.2\lvgl\src\lv_objx/lv_roller.c **** 
 433:..\..\..\lvgl\version_6.1.2\lvgl\src\lv_objx/lv_roller.c ****         refr_position(roller, false);
 1779              		.loc 7 433 0
 1780 0064 0021     		movs	r1, #0
 1781 0066 F868     		ldr	r0, [r7, #12]
 1782 0068 FFF7FEFF 		bl	refr_position
 1783 006c 70E0     		b	.L86
 1784              	.L85:
 434:..\..\..\lvgl\version_6.1.2\lvgl\src\lv_objx/lv_roller.c ****     } else if(sign == LV_SIGNAL_CORD_CHG) {
 1785              		.loc 7 434 0
 1786 006e FB7A     		ldrb	r3, [r7, #11]	@ zero_extendqisi2
 1787 0070 022B     		cmp	r3, #2
 1788 0072 2BD1     		bne	.L87
 435:..\..\..\lvgl\version_6.1.2\lvgl\src\lv_objx/lv_roller.c **** 
 436:..\..\..\lvgl\version_6.1.2\lvgl\src\lv_objx/lv_roller.c ****         if(lv_obj_get_width(roller) != lv_area_get_width(param) ||
 1789              		.loc 7 436 0
 1790 0074 F868     		ldr	r0, [r7, #12]
 1791 0076 FFF7FEFF 		bl	lv_obj_get_width
 1792 007a 0346     		mov	r3, r0
 1793 007c 1C46     		mov	r4, r3
 1794 007e 7868     		ldr	r0, [r7, #4]
 1795 0080 FFF7FEFF 		bl	lv_area_get_width
 1796 0084 0346     		mov	r3, r0
 1797 0086 9C42     		cmp	r4, r3
 1798 0088 0AD1     		bne	.L88
 437:..\..\..\lvgl\version_6.1.2\lvgl\src\lv_objx/lv_roller.c ****            lv_obj_get_height(roller) != lv_area_get_height(param)) {
 1799              		.loc 7 437 0 discriminator 1
 1800 008a F868     		ldr	r0, [r7, #12]
 1801 008c FFF7FEFF 		bl	lv_obj_get_height
 1802 0090 0346     		mov	r3, r0
 1803 0092 1C46     		mov	r4, r3
 1804 0094 7868     		ldr	r0, [r7, #4]
 1805 0096 FFF7FEFF 		bl	lv_area_get_height
 1806 009a 0346     		mov	r3, r0
 436:..\..\..\lvgl\version_6.1.2\lvgl\src\lv_objx/lv_roller.c ****            lv_obj_get_height(roller) != lv_area_get_height(param)) {
 1807              		.loc 7 436 0 discriminator 1
 1808 009c 9C42     		cmp	r4, r3
 1809 009e 57D0     		beq	.L86
 1810              	.L88:
 438:..\..\..\lvgl\version_6.1.2\lvgl\src\lv_objx/lv_roller.c **** 
 439:..\..\..\lvgl\version_6.1.2\lvgl\src\lv_objx/lv_roller.c ****             refr_height(roller);
 1811              		.loc 7 439 0
 1812 00a0 F868     		ldr	r0, [r7, #12]
 1813 00a2 FFF7FEFF 		bl	refr_height
 440:..\..\..\lvgl\version_6.1.2\lvgl\src\lv_objx/lv_roller.c **** #if LV_USE_ANIMATION
 441:..\..\..\lvgl\version_6.1.2\lvgl\src\lv_objx/lv_roller.c ****             lv_anim_del(lv_page_get_scrl(roller), (lv_anim_exec_xcb_t)lv_obj_set_y);
 1814              		.loc 7 441 0
 1815 00a6 F868     		ldr	r0, [r7, #12]
 1816 00a8 FFF7FEFF 		bl	lv_page_get_scrl
 1817 00ac 0346     		mov	r3, r0
 1818 00ae 2D49     		ldr	r1, .L94+8
 1819 00b0 1846     		mov	r0, r3
 1820 00b2 FFF7FEFF 		bl	lv_anim_del
 442:..\..\..\lvgl\version_6.1.2\lvgl\src\lv_objx/lv_roller.c **** #endif
ARM GAS  C:\Users\tmj32\AppData\Local\Temp\ccT5YJ50.s 			page 60


 443:..\..\..\lvgl\version_6.1.2\lvgl\src\lv_objx/lv_roller.c ****             lv_ddlist_set_selected(roller, ext->ddlist.sel_opt_id);
 1821              		.loc 7 443 0
 1822 00b6 BB69     		ldr	r3, [r7, #24]
 1823 00b8 5B8F     		ldrh	r3, [r3, #58]
 1824 00ba 1946     		mov	r1, r3
 1825 00bc F868     		ldr	r0, [r7, #12]
 1826 00be FFF7FEFF 		bl	lv_ddlist_set_selected
 444:..\..\..\lvgl\version_6.1.2\lvgl\src\lv_objx/lv_roller.c ****             refr_position(roller, false);
 1827              		.loc 7 444 0
 1828 00c2 0021     		movs	r1, #0
 1829 00c4 F868     		ldr	r0, [r7, #12]
 1830 00c6 FFF7FEFF 		bl	refr_position
 1831 00ca 41E0     		b	.L86
 1832              	.L87:
 445:..\..\..\lvgl\version_6.1.2\lvgl\src\lv_objx/lv_roller.c ****         }
 446:..\..\..\lvgl\version_6.1.2\lvgl\src\lv_objx/lv_roller.c ****     } else if(sign == LV_SIGNAL_FOCUS) {
 1833              		.loc 7 446 0
 1834 00cc FB7A     		ldrb	r3, [r7, #11]	@ zero_extendqisi2
 1835 00ce 102B     		cmp	r3, #16
 1836 00d0 3ED0     		beq	.L86
 447:..\..\..\lvgl\version_6.1.2\lvgl\src\lv_objx/lv_roller.c **** #if LV_USE_GROUP
 448:..\..\..\lvgl\version_6.1.2\lvgl\src\lv_objx/lv_roller.c ****         lv_group_t * g             = lv_obj_get_group(roller);
 449:..\..\..\lvgl\version_6.1.2\lvgl\src\lv_objx/lv_roller.c ****         bool editing               = lv_group_get_editing(g);
 450:..\..\..\lvgl\version_6.1.2\lvgl\src\lv_objx/lv_roller.c ****         lv_indev_type_t indev_type = lv_indev_get_type(lv_indev_get_act());
 451:..\..\..\lvgl\version_6.1.2\lvgl\src\lv_objx/lv_roller.c **** 
 452:..\..\..\lvgl\version_6.1.2\lvgl\src\lv_objx/lv_roller.c ****         /*Encoders need special handling*/
 453:..\..\..\lvgl\version_6.1.2\lvgl\src\lv_objx/lv_roller.c ****         if(indev_type == LV_INDEV_TYPE_ENCODER) {
 454:..\..\..\lvgl\version_6.1.2\lvgl\src\lv_objx/lv_roller.c ****             /*In navigate mode revert the original value*/
 455:..\..\..\lvgl\version_6.1.2\lvgl\src\lv_objx/lv_roller.c ****             if(!editing) {
 456:..\..\..\lvgl\version_6.1.2\lvgl\src\lv_objx/lv_roller.c ****                 if(ext->ddlist.sel_opt_id != ext->ddlist.sel_opt_id_ori) {
 457:..\..\..\lvgl\version_6.1.2\lvgl\src\lv_objx/lv_roller.c ****                     ext->ddlist.sel_opt_id = ext->ddlist.sel_opt_id_ori;
 458:..\..\..\lvgl\version_6.1.2\lvgl\src\lv_objx/lv_roller.c ****                     refr_position(roller, true);
 459:..\..\..\lvgl\version_6.1.2\lvgl\src\lv_objx/lv_roller.c ****                 }
 460:..\..\..\lvgl\version_6.1.2\lvgl\src\lv_objx/lv_roller.c ****             }
 461:..\..\..\lvgl\version_6.1.2\lvgl\src\lv_objx/lv_roller.c ****             /*Save the current state when entered to edit mode*/
 462:..\..\..\lvgl\version_6.1.2\lvgl\src\lv_objx/lv_roller.c ****             else {
 463:..\..\..\lvgl\version_6.1.2\lvgl\src\lv_objx/lv_roller.c ****                 ext->ddlist.sel_opt_id_ori = ext->ddlist.sel_opt_id;
 464:..\..\..\lvgl\version_6.1.2\lvgl\src\lv_objx/lv_roller.c ****             }
 465:..\..\..\lvgl\version_6.1.2\lvgl\src\lv_objx/lv_roller.c ****         } else {
 466:..\..\..\lvgl\version_6.1.2\lvgl\src\lv_objx/lv_roller.c ****             ext->ddlist.sel_opt_id_ori = ext->ddlist.sel_opt_id; /*Save the current value. Used to 
 467:..\..\..\lvgl\version_6.1.2\lvgl\src\lv_objx/lv_roller.c ****                                                                     ENER wont't be pressed*/
 468:..\..\..\lvgl\version_6.1.2\lvgl\src\lv_objx/lv_roller.c ****         }
 469:..\..\..\lvgl\version_6.1.2\lvgl\src\lv_objx/lv_roller.c **** #endif
 470:..\..\..\lvgl\version_6.1.2\lvgl\src\lv_objx/lv_roller.c ****     } else if(sign == LV_SIGNAL_DEFOCUS) {
 1837              		.loc 7 470 0
 1838 00d2 FB7A     		ldrb	r3, [r7, #11]	@ zero_extendqisi2
 1839 00d4 112B     		cmp	r3, #17
 1840 00d6 3BD0     		beq	.L86
 471:..\..\..\lvgl\version_6.1.2\lvgl\src\lv_objx/lv_roller.c **** #if LV_USE_GROUP
 472:..\..\..\lvgl\version_6.1.2\lvgl\src\lv_objx/lv_roller.c ****         /*Revert the original state*/
 473:..\..\..\lvgl\version_6.1.2\lvgl\src\lv_objx/lv_roller.c ****         if(ext->ddlist.sel_opt_id != ext->ddlist.sel_opt_id_ori) {
 474:..\..\..\lvgl\version_6.1.2\lvgl\src\lv_objx/lv_roller.c ****             ext->ddlist.sel_opt_id = ext->ddlist.sel_opt_id_ori;
 475:..\..\..\lvgl\version_6.1.2\lvgl\src\lv_objx/lv_roller.c ****             refr_position(roller, true);
 476:..\..\..\lvgl\version_6.1.2\lvgl\src\lv_objx/lv_roller.c ****         }
 477:..\..\..\lvgl\version_6.1.2\lvgl\src\lv_objx/lv_roller.c **** #endif
 478:..\..\..\lvgl\version_6.1.2\lvgl\src\lv_objx/lv_roller.c ****     } else if(sign == LV_SIGNAL_CONTROL) {
 1841              		.loc 7 478 0
ARM GAS  C:\Users\tmj32\AppData\Local\Temp\ccT5YJ50.s 			page 61


 1842 00d8 FB7A     		ldrb	r3, [r7, #11]	@ zero_extendqisi2
 1843 00da 122B     		cmp	r3, #18
 1844 00dc 38D1     		bne	.L86
 1845              	.LBB10:
 479:..\..\..\lvgl\version_6.1.2\lvgl\src\lv_objx/lv_roller.c ****         char c = *((char *)param);
 1846              		.loc 7 479 0
 1847 00de 7B68     		ldr	r3, [r7, #4]
 1848 00e0 1B78     		ldrb	r3, [r3]
 1849 00e2 FB75     		strb	r3, [r7, #23]
 480:..\..\..\lvgl\version_6.1.2\lvgl\src\lv_objx/lv_roller.c ****         if(c == LV_KEY_RIGHT || c == LV_KEY_DOWN) {
 1850              		.loc 7 480 0
 1851 00e4 FB7D     		ldrb	r3, [r7, #23]	@ zero_extendqisi2
 1852 00e6 132B     		cmp	r3, #19
 1853 00e8 02D0     		beq	.L90
 1854              		.loc 7 480 0 is_stmt 0 discriminator 1
 1855 00ea FB7D     		ldrb	r3, [r7, #23]	@ zero_extendqisi2
 1856 00ec 122B     		cmp	r3, #18
 1857 00ee 16D1     		bne	.L91
 1858              	.L90:
 481:..\..\..\lvgl\version_6.1.2\lvgl\src\lv_objx/lv_roller.c ****             if(ext->ddlist.sel_opt_id + 1 < ext->ddlist.option_cnt) {
 1859              		.loc 7 481 0 is_stmt 1
 1860 00f0 BB69     		ldr	r3, [r7, #24]
 1861 00f2 5B8F     		ldrh	r3, [r3, #58]
 1862 00f4 0133     		adds	r3, r3, #1
 1863 00f6 BA69     		ldr	r2, [r7, #24]
 1864 00f8 128F     		ldrh	r2, [r2, #56]
 1865 00fa 9342     		cmp	r3, r2
 1866 00fc 28DA     		bge	.L86
 1867              	.LBB11:
 482:..\..\..\lvgl\version_6.1.2\lvgl\src\lv_objx/lv_roller.c ****                 uint16_t ori_id = ext->ddlist.sel_opt_id_ori; /*lv_roller_set_selceted will overwri
 1868              		.loc 7 482 0
 1869 00fe BB69     		ldr	r3, [r7, #24]
 1870 0100 9B8F     		ldrh	r3, [r3, #60]	@ movhi
 1871 0102 7B82     		strh	r3, [r7, #18]	@ movhi
 483:..\..\..\lvgl\version_6.1.2\lvgl\src\lv_objx/lv_roller.c ****                 lv_roller_set_selected(roller, ext->ddlist.sel_opt_id + 1, true);
 1872              		.loc 7 483 0
 1873 0104 BB69     		ldr	r3, [r7, #24]
 1874 0106 5B8F     		ldrh	r3, [r3, #58]
 1875 0108 0133     		adds	r3, r3, #1
 1876 010a 9BB2     		uxth	r3, r3
 1877 010c 0122     		movs	r2, #1
 1878 010e 1946     		mov	r1, r3
 1879 0110 F868     		ldr	r0, [r7, #12]
 1880 0112 FFF7FEFF 		bl	lv_roller_set_selected
 484:..\..\..\lvgl\version_6.1.2\lvgl\src\lv_objx/lv_roller.c ****                 ext->ddlist.sel_opt_id_ori = ori_id;
 1881              		.loc 7 484 0
 1882 0116 BB69     		ldr	r3, [r7, #24]
 1883 0118 7A8A     		ldrh	r2, [r7, #18]	@ movhi
 1884 011a 9A87     		strh	r2, [r3, #60]	@ movhi
 1885              	.LBE11:
 481:..\..\..\lvgl\version_6.1.2\lvgl\src\lv_objx/lv_roller.c ****                 uint16_t ori_id = ext->ddlist.sel_opt_id_ori; /*lv_roller_set_selceted will overwri
 1886              		.loc 7 481 0
 1887 011c 18E0     		b	.L86
 1888              	.L91:
 485:..\..\..\lvgl\version_6.1.2\lvgl\src\lv_objx/lv_roller.c ****             }
 486:..\..\..\lvgl\version_6.1.2\lvgl\src\lv_objx/lv_roller.c ****         } else if(c == LV_KEY_LEFT || c == LV_KEY_UP) {
 1889              		.loc 7 486 0
ARM GAS  C:\Users\tmj32\AppData\Local\Temp\ccT5YJ50.s 			page 62


 1890 011e FB7D     		ldrb	r3, [r7, #23]	@ zero_extendqisi2
 1891 0120 142B     		cmp	r3, #20
 1892 0122 02D0     		beq	.L93
 1893              		.loc 7 486 0 is_stmt 0 discriminator 1
 1894 0124 FB7D     		ldrb	r3, [r7, #23]	@ zero_extendqisi2
 1895 0126 112B     		cmp	r3, #17
 1896 0128 12D1     		bne	.L86
 1897              	.L93:
 487:..\..\..\lvgl\version_6.1.2\lvgl\src\lv_objx/lv_roller.c ****             if(ext->ddlist.sel_opt_id > 0) {
 1898              		.loc 7 487 0 is_stmt 1
 1899 012a BB69     		ldr	r3, [r7, #24]
 1900 012c 5B8F     		ldrh	r3, [r3, #58]
 1901 012e 002B     		cmp	r3, #0
 1902 0130 0ED0     		beq	.L86
 1903              	.LBB12:
 488:..\..\..\lvgl\version_6.1.2\lvgl\src\lv_objx/lv_roller.c ****                 uint16_t ori_id = ext->ddlist.sel_opt_id_ori; /*lv_roller_set_selceted will overwri
 1904              		.loc 7 488 0
 1905 0132 BB69     		ldr	r3, [r7, #24]
 1906 0134 9B8F     		ldrh	r3, [r3, #60]	@ movhi
 1907 0136 BB82     		strh	r3, [r7, #20]	@ movhi
 489:..\..\..\lvgl\version_6.1.2\lvgl\src\lv_objx/lv_roller.c ****                 lv_roller_set_selected(roller, ext->ddlist.sel_opt_id - 1, true);
 1908              		.loc 7 489 0
 1909 0138 BB69     		ldr	r3, [r7, #24]
 1910 013a 5B8F     		ldrh	r3, [r3, #58]
 1911 013c 013B     		subs	r3, r3, #1
 1912 013e 9BB2     		uxth	r3, r3
 1913 0140 0122     		movs	r2, #1
 1914 0142 1946     		mov	r1, r3
 1915 0144 F868     		ldr	r0, [r7, #12]
 1916 0146 FFF7FEFF 		bl	lv_roller_set_selected
 490:..\..\..\lvgl\version_6.1.2\lvgl\src\lv_objx/lv_roller.c ****                 ext->ddlist.sel_opt_id_ori = ori_id;
 1917              		.loc 7 490 0
 1918 014a BB69     		ldr	r3, [r7, #24]
 1919 014c BA8A     		ldrh	r2, [r7, #20]	@ movhi
 1920 014e 9A87     		strh	r2, [r3, #60]	@ movhi
 1921              	.L86:
 1922              	.LBE12:
 1923              	.LBE10:
 491:..\..\..\lvgl\version_6.1.2\lvgl\src\lv_objx/lv_roller.c ****             }
 492:..\..\..\lvgl\version_6.1.2\lvgl\src\lv_objx/lv_roller.c ****         }
 493:..\..\..\lvgl\version_6.1.2\lvgl\src\lv_objx/lv_roller.c ****     }
 494:..\..\..\lvgl\version_6.1.2\lvgl\src\lv_objx/lv_roller.c **** 
 495:..\..\..\lvgl\version_6.1.2\lvgl\src\lv_objx/lv_roller.c ****     return res;
 1924              		.loc 7 495 0
 1925 0150 FB7F     		ldrb	r3, [r7, #31]	@ zero_extendqisi2
 1926              	.L83:
 496:..\..\..\lvgl\version_6.1.2\lvgl\src\lv_objx/lv_roller.c **** }
 1927              		.loc 7 496 0
 1928 0152 1846     		mov	r0, r3
 1929 0154 2437     		adds	r7, r7, #36
 1930              		.cfi_def_cfa_offset 12
 1931 0156 BD46     		mov	sp, r7
 1932              		.cfi_def_cfa_register 13
 1933              		@ sp needed
 1934 0158 90BD     		pop	{r4, r7, pc}
 1935              	.L95:
 1936 015a 00BF     		.align	2
ARM GAS  C:\Users\tmj32\AppData\Local\Temp\ccT5YJ50.s 			page 63


 1937              	.L94:
 1938 015c 00000000 		.word	ancestor_signal
 1939 0160 00000000 		.word	.LC0
 1940 0164 00000000 		.word	lv_obj_set_y
 1941              		.cfi_endproc
 1942              	.LFE70:
 1943              		.size	lv_roller_signal, .-lv_roller_signal
 1944              		.section	.text.lv_roller_scrl_signal,"ax",%progbits
 1945              		.align	2
 1946              		.thumb
 1947              		.thumb_func
 1948              		.type	lv_roller_scrl_signal, %function
 1949              	lv_roller_scrl_signal:
 1950              	.LFB71:
 497:..\..\..\lvgl\version_6.1.2\lvgl\src\lv_objx/lv_roller.c **** 
 498:..\..\..\lvgl\version_6.1.2\lvgl\src\lv_objx/lv_roller.c **** /**
 499:..\..\..\lvgl\version_6.1.2\lvgl\src\lv_objx/lv_roller.c ****  * Signal function of the scrollable part of the roller.
 500:..\..\..\lvgl\version_6.1.2\lvgl\src\lv_objx/lv_roller.c ****  * @param roller_scrl ointer to the scrollable part of roller (page)
 501:..\..\..\lvgl\version_6.1.2\lvgl\src\lv_objx/lv_roller.c ****  * @param sign a signal type from lv_signal_t enum
 502:..\..\..\lvgl\version_6.1.2\lvgl\src\lv_objx/lv_roller.c ****  * @param param pointer to a signal specific variable
 503:..\..\..\lvgl\version_6.1.2\lvgl\src\lv_objx/lv_roller.c ****  * @return LV_RES_OK: the object is not deleted in the function; LV_RES_INV: the object is deleted
 504:..\..\..\lvgl\version_6.1.2\lvgl\src\lv_objx/lv_roller.c ****  */
 505:..\..\..\lvgl\version_6.1.2\lvgl\src\lv_objx/lv_roller.c **** static lv_res_t lv_roller_scrl_signal(lv_obj_t * roller_scrl, lv_signal_t sign, void * param)
 506:..\..\..\lvgl\version_6.1.2\lvgl\src\lv_objx/lv_roller.c **** {
 1951              		.loc 7 506 0
 1952              		.cfi_startproc
 1953              		@ args = 0, pretend = 0, frame = 56
 1954              		@ frame_needed = 1, uses_anonymous_args = 0
 1955 0000 80B5     		push	{r7, lr}
 1956              		.cfi_def_cfa_offset 8
 1957              		.cfi_offset 7, -8
 1958              		.cfi_offset 14, -4
 1959 0002 8EB0     		sub	sp, sp, #56
 1960              		.cfi_def_cfa_offset 64
 1961 0004 00AF     		add	r7, sp, #0
 1962              		.cfi_def_cfa_register 7
 1963 0006 F860     		str	r0, [r7, #12]
 1964 0008 0B46     		mov	r3, r1
 1965 000a 7A60     		str	r2, [r7, #4]
 1966 000c FB72     		strb	r3, [r7, #11]
 507:..\..\..\lvgl\version_6.1.2\lvgl\src\lv_objx/lv_roller.c ****     lv_res_t res;
 508:..\..\..\lvgl\version_6.1.2\lvgl\src\lv_objx/lv_roller.c **** 
 509:..\..\..\lvgl\version_6.1.2\lvgl\src\lv_objx/lv_roller.c ****     /* Include the ancient signal function */
 510:..\..\..\lvgl\version_6.1.2\lvgl\src\lv_objx/lv_roller.c ****     res = ancestor_scrl_signal(roller_scrl, sign, param);
 1967              		.loc 7 510 0
 1968 000e 5E4B     		ldr	r3, .L110
 1969 0010 1B68     		ldr	r3, [r3]
 1970 0012 F97A     		ldrb	r1, [r7, #11]	@ zero_extendqisi2
 1971 0014 7A68     		ldr	r2, [r7, #4]
 1972 0016 F868     		ldr	r0, [r7, #12]
 1973 0018 9847     		blx	r3
 1974 001a 0346     		mov	r3, r0
 1975 001c 87F83730 		strb	r3, [r7, #55]
 511:..\..\..\lvgl\version_6.1.2\lvgl\src\lv_objx/lv_roller.c ****     if(res != LV_RES_OK) return res;
 1976              		.loc 7 511 0
 1977 0020 97F83730 		ldrb	r3, [r7, #55]	@ zero_extendqisi2
 1978 0024 012B     		cmp	r3, #1
ARM GAS  C:\Users\tmj32\AppData\Local\Temp\ccT5YJ50.s 			page 64


 1979 0026 02D0     		beq	.L97
 1980              		.loc 7 511 0 is_stmt 0 discriminator 1
 1981 0028 97F83730 		ldrb	r3, [r7, #55]	@ zero_extendqisi2
 1982 002c A8E0     		b	.L109
 1983              	.L97:
 512:..\..\..\lvgl\version_6.1.2\lvgl\src\lv_objx/lv_roller.c ****     if(sign == LV_SIGNAL_GET_TYPE) return lv_obj_handle_get_type_signal(param, LV_OBJX_NAME);
 1984              		.loc 7 512 0 is_stmt 1
 1985 002e FB7A     		ldrb	r3, [r7, #11]	@ zero_extendqisi2
 1986 0030 072B     		cmp	r3, #7
 1987 0032 05D1     		bne	.L99
 1988              		.loc 7 512 0 is_stmt 0 discriminator 1
 1989 0034 5549     		ldr	r1, .L110+4
 1990 0036 7868     		ldr	r0, [r7, #4]
 1991 0038 FFF7FEFF 		bl	lv_obj_handle_get_type_signal
 1992 003c 0346     		mov	r3, r0
 1993 003e 9FE0     		b	.L109
 1994              	.L99:
 513:..\..\..\lvgl\version_6.1.2\lvgl\src\lv_objx/lv_roller.c **** 
 514:..\..\..\lvgl\version_6.1.2\lvgl\src\lv_objx/lv_roller.c ****     lv_indev_t * indev    = lv_indev_get_act();
 1995              		.loc 7 514 0 is_stmt 1
 1996 0040 FFF7FEFF 		bl	lv_indev_get_act
 1997 0044 3863     		str	r0, [r7, #48]
 515:..\..\..\lvgl\version_6.1.2\lvgl\src\lv_objx/lv_roller.c ****     int32_t id            = -1;
 1998              		.loc 7 515 0
 1999 0046 4FF0FF33 		mov	r3, #-1
 2000 004a 7B61     		str	r3, [r7, #20]
 516:..\..\..\lvgl\version_6.1.2\lvgl\src\lv_objx/lv_roller.c ****     lv_obj_t * roller     = lv_obj_get_parent(roller_scrl);
 2001              		.loc 7 516 0
 2002 004c F868     		ldr	r0, [r7, #12]
