ARM GAS  C:\Users\tmj32\AppData\Local\Temp\cc8pVFHq.s 			page 1


   1              		.syntax unified
   2              		.cpu cortex-m4
   3              		.eabi_attribute 27, 1
   4              		.fpu fpv4-sp-d16
   5              		.eabi_attribute 20, 1
   6              		.eabi_attribute 21, 1
   7              		.eabi_attribute 23, 3
   8              		.eabi_attribute 24, 1
   9              		.eabi_attribute 25, 1
  10              		.eabi_attribute 26, 1
  11              		.eabi_attribute 30, 6
  12              		.eabi_attribute 34, 1
  13              		.eabi_attribute 18, 4
  14              		.thumb
  15              		.syntax unified
  16              		.file	"lv_refr.c"
  17              		.text
  18              	.Ltext0:
  19              		.cfi_sections	.debug_frame
  20              		.section	.text.lv_area_copy,"ax",%progbits
  21              		.align	2
  22              		.thumb
  23              		.thumb_func
  24              		.type	lv_area_copy, %function
  25              	lv_area_copy:
  26              	.LFB10:
  27              		.file 1 "..\\..\\..\\lvgl\\version_6.1.2\\lvgl\\src\\lv_core\\../lv_misc/lv_area.h"
   1:..\..\..\lvgl\version_6.1.2\lvgl\src\lv_core\../lv_misc/lv_area.h **** /**
   2:..\..\..\lvgl\version_6.1.2\lvgl\src\lv_core\../lv_misc/lv_area.h ****  * @file lv_area.h
   3:..\..\..\lvgl\version_6.1.2\lvgl\src\lv_core\../lv_misc/lv_area.h ****  *
   4:..\..\..\lvgl\version_6.1.2\lvgl\src\lv_core\../lv_misc/lv_area.h ****  */
   5:..\..\..\lvgl\version_6.1.2\lvgl\src\lv_core\../lv_misc/lv_area.h **** 
   6:..\..\..\lvgl\version_6.1.2\lvgl\src\lv_core\../lv_misc/lv_area.h **** #ifndef LV_AREA_H
   7:..\..\..\lvgl\version_6.1.2\lvgl\src\lv_core\../lv_misc/lv_area.h **** #define LV_AREA_H
   8:..\..\..\lvgl\version_6.1.2\lvgl\src\lv_core\../lv_misc/lv_area.h **** 
   9:..\..\..\lvgl\version_6.1.2\lvgl\src\lv_core\../lv_misc/lv_area.h **** #ifdef __cplusplus
  10:..\..\..\lvgl\version_6.1.2\lvgl\src\lv_core\../lv_misc/lv_area.h **** extern "C" {
  11:..\..\..\lvgl\version_6.1.2\lvgl\src\lv_core\../lv_misc/lv_area.h **** #endif
  12:..\..\..\lvgl\version_6.1.2\lvgl\src\lv_core\../lv_misc/lv_area.h **** 
  13:..\..\..\lvgl\version_6.1.2\lvgl\src\lv_core\../lv_misc/lv_area.h **** /*********************
  14:..\..\..\lvgl\version_6.1.2\lvgl\src\lv_core\../lv_misc/lv_area.h ****  *      INCLUDES
  15:..\..\..\lvgl\version_6.1.2\lvgl\src\lv_core\../lv_misc/lv_area.h ****  *********************/
  16:..\..\..\lvgl\version_6.1.2\lvgl\src\lv_core\../lv_misc/lv_area.h **** #include <string.h>
  17:..\..\..\lvgl\version_6.1.2\lvgl\src\lv_core\../lv_misc/lv_area.h **** #include <stdbool.h>
  18:..\..\..\lvgl\version_6.1.2\lvgl\src\lv_core\../lv_misc/lv_area.h **** #include <stdint.h>
  19:..\..\..\lvgl\version_6.1.2\lvgl\src\lv_core\../lv_misc/lv_area.h **** #ifdef LV_CONF_INCLUDE_SIMPLE
  20:..\..\..\lvgl\version_6.1.2\lvgl\src\lv_core\../lv_misc/lv_area.h **** #include "lv_conf.h"
  21:..\..\..\lvgl\version_6.1.2\lvgl\src\lv_core\../lv_misc/lv_area.h **** #else
  22:..\..\..\lvgl\version_6.1.2\lvgl\src\lv_core\../lv_misc/lv_area.h **** #include "../../../lv_conf.h"
  23:..\..\..\lvgl\version_6.1.2\lvgl\src\lv_core\../lv_misc/lv_area.h **** #endif
  24:..\..\..\lvgl\version_6.1.2\lvgl\src\lv_core\../lv_misc/lv_area.h **** 
  25:..\..\..\lvgl\version_6.1.2\lvgl\src\lv_core\../lv_misc/lv_area.h **** /*********************
  26:..\..\..\lvgl\version_6.1.2\lvgl\src\lv_core\../lv_misc/lv_area.h ****  *      DEFINES
  27:..\..\..\lvgl\version_6.1.2\lvgl\src\lv_core\../lv_misc/lv_area.h ****  *********************/
  28:..\..\..\lvgl\version_6.1.2\lvgl\src\lv_core\../lv_misc/lv_area.h **** /*To avoid overflow don't let the max ranges (reduce with 1000) */
  29:..\..\..\lvgl\version_6.1.2\lvgl\src\lv_core\../lv_misc/lv_area.h **** #define LV_COORD_MAX ((lv_coord_t)((uint32_t)((uint32_t)1 << (8 * sizeof(lv_coord_t) - 1)) - 1000))
  30:..\..\..\lvgl\version_6.1.2\lvgl\src\lv_core\../lv_misc/lv_area.h **** #define LV_COORD_MIN (-LV_COORD_MAX)
ARM GAS  C:\Users\tmj32\AppData\Local\Temp\cc8pVFHq.s 			page 2


  31:..\..\..\lvgl\version_6.1.2\lvgl\src\lv_core\../lv_misc/lv_area.h **** 
  32:..\..\..\lvgl\version_6.1.2\lvgl\src\lv_core\../lv_misc/lv_area.h **** LV_EXPORT_CONST_INT(LV_COORD_MAX);
  33:..\..\..\lvgl\version_6.1.2\lvgl\src\lv_core\../lv_misc/lv_area.h **** LV_EXPORT_CONST_INT(LV_COORD_MIN);
  34:..\..\..\lvgl\version_6.1.2\lvgl\src\lv_core\../lv_misc/lv_area.h **** 
  35:..\..\..\lvgl\version_6.1.2\lvgl\src\lv_core\../lv_misc/lv_area.h **** /**********************
  36:..\..\..\lvgl\version_6.1.2\lvgl\src\lv_core\../lv_misc/lv_area.h ****  *      TYPEDEFS
  37:..\..\..\lvgl\version_6.1.2\lvgl\src\lv_core\../lv_misc/lv_area.h ****  **********************/
  38:..\..\..\lvgl\version_6.1.2\lvgl\src\lv_core\../lv_misc/lv_area.h **** 
  39:..\..\..\lvgl\version_6.1.2\lvgl\src\lv_core\../lv_misc/lv_area.h **** /**
  40:..\..\..\lvgl\version_6.1.2\lvgl\src\lv_core\../lv_misc/lv_area.h ****  * Represents a point on the screen.
  41:..\..\..\lvgl\version_6.1.2\lvgl\src\lv_core\../lv_misc/lv_area.h ****  */
  42:..\..\..\lvgl\version_6.1.2\lvgl\src\lv_core\../lv_misc/lv_area.h **** typedef struct
  43:..\..\..\lvgl\version_6.1.2\lvgl\src\lv_core\../lv_misc/lv_area.h **** {
  44:..\..\..\lvgl\version_6.1.2\lvgl\src\lv_core\../lv_misc/lv_area.h ****     lv_coord_t x;
  45:..\..\..\lvgl\version_6.1.2\lvgl\src\lv_core\../lv_misc/lv_area.h ****     lv_coord_t y;
  46:..\..\..\lvgl\version_6.1.2\lvgl\src\lv_core\../lv_misc/lv_area.h **** } lv_point_t;
  47:..\..\..\lvgl\version_6.1.2\lvgl\src\lv_core\../lv_misc/lv_area.h **** 
  48:..\..\..\lvgl\version_6.1.2\lvgl\src\lv_core\../lv_misc/lv_area.h **** /** Represents an area of the screen. */
  49:..\..\..\lvgl\version_6.1.2\lvgl\src\lv_core\../lv_misc/lv_area.h **** typedef struct
  50:..\..\..\lvgl\version_6.1.2\lvgl\src\lv_core\../lv_misc/lv_area.h **** {
  51:..\..\..\lvgl\version_6.1.2\lvgl\src\lv_core\../lv_misc/lv_area.h ****     lv_coord_t x1;
  52:..\..\..\lvgl\version_6.1.2\lvgl\src\lv_core\../lv_misc/lv_area.h ****     lv_coord_t y1;
  53:..\..\..\lvgl\version_6.1.2\lvgl\src\lv_core\../lv_misc/lv_area.h ****     lv_coord_t x2;
  54:..\..\..\lvgl\version_6.1.2\lvgl\src\lv_core\../lv_misc/lv_area.h ****     lv_coord_t y2;
  55:..\..\..\lvgl\version_6.1.2\lvgl\src\lv_core\../lv_misc/lv_area.h **** } lv_area_t;
  56:..\..\..\lvgl\version_6.1.2\lvgl\src\lv_core\../lv_misc/lv_area.h **** 
  57:..\..\..\lvgl\version_6.1.2\lvgl\src\lv_core\../lv_misc/lv_area.h **** /**********************
  58:..\..\..\lvgl\version_6.1.2\lvgl\src\lv_core\../lv_misc/lv_area.h ****  * GLOBAL PROTOTYPES
  59:..\..\..\lvgl\version_6.1.2\lvgl\src\lv_core\../lv_misc/lv_area.h ****  **********************/
  60:..\..\..\lvgl\version_6.1.2\lvgl\src\lv_core\../lv_misc/lv_area.h **** 
  61:..\..\..\lvgl\version_6.1.2\lvgl\src\lv_core\../lv_misc/lv_area.h **** /**
  62:..\..\..\lvgl\version_6.1.2\lvgl\src\lv_core\../lv_misc/lv_area.h ****  * Initialize an area
  63:..\..\..\lvgl\version_6.1.2\lvgl\src\lv_core\../lv_misc/lv_area.h ****  * @param area_p pointer to an area
  64:..\..\..\lvgl\version_6.1.2\lvgl\src\lv_core\../lv_misc/lv_area.h ****  * @param x1 left coordinate of the area
  65:..\..\..\lvgl\version_6.1.2\lvgl\src\lv_core\../lv_misc/lv_area.h ****  * @param y1 top coordinate of the area
  66:..\..\..\lvgl\version_6.1.2\lvgl\src\lv_core\../lv_misc/lv_area.h ****  * @param x2 right coordinate of the area
  67:..\..\..\lvgl\version_6.1.2\lvgl\src\lv_core\../lv_misc/lv_area.h ****  * @param y2 bottom coordinate of the area
  68:..\..\..\lvgl\version_6.1.2\lvgl\src\lv_core\../lv_misc/lv_area.h ****  */
  69:..\..\..\lvgl\version_6.1.2\lvgl\src\lv_core\../lv_misc/lv_area.h **** void lv_area_set(lv_area_t * area_p, lv_coord_t x1, lv_coord_t y1, lv_coord_t x2, lv_coord_t y2);
  70:..\..\..\lvgl\version_6.1.2\lvgl\src\lv_core\../lv_misc/lv_area.h **** 
  71:..\..\..\lvgl\version_6.1.2\lvgl\src\lv_core\../lv_misc/lv_area.h **** /**
  72:..\..\..\lvgl\version_6.1.2\lvgl\src\lv_core\../lv_misc/lv_area.h ****  * Copy an area
  73:..\..\..\lvgl\version_6.1.2\lvgl\src\lv_core\../lv_misc/lv_area.h ****  * @param dest pointer to the destination area
  74:..\..\..\lvgl\version_6.1.2\lvgl\src\lv_core\../lv_misc/lv_area.h ****  * @param src pointer to the source area
  75:..\..\..\lvgl\version_6.1.2\lvgl\src\lv_core\../lv_misc/lv_area.h ****  */
  76:..\..\..\lvgl\version_6.1.2\lvgl\src\lv_core\../lv_misc/lv_area.h **** inline static void lv_area_copy(lv_area_t * dest, const lv_area_t * src)
  77:..\..\..\lvgl\version_6.1.2\lvgl\src\lv_core\../lv_misc/lv_area.h **** {
  28              		.loc 1 77 0
  29              		.cfi_startproc
  30              		@ args = 0, pretend = 0, frame = 8
  31              		@ frame_needed = 1, uses_anonymous_args = 0
  32 0000 80B5     		push	{r7, lr}
  33              		.cfi_def_cfa_offset 8
  34              		.cfi_offset 7, -8
  35              		.cfi_offset 14, -4
  36 0002 82B0     		sub	sp, sp, #8
  37              		.cfi_def_cfa_offset 16
ARM GAS  C:\Users\tmj32\AppData\Local\Temp\cc8pVFHq.s 			page 3


  38 0004 00AF     		add	r7, sp, #0
  39              		.cfi_def_cfa_register 7
  40 0006 7860     		str	r0, [r7, #4]
  41 0008 3960     		str	r1, [r7]
  78:..\..\..\lvgl\version_6.1.2\lvgl\src\lv_core\../lv_misc/lv_area.h ****     memcpy(dest, src, sizeof(lv_area_t));
  42              		.loc 1 78 0
  43 000a 0822     		movs	r2, #8
  44 000c 3968     		ldr	r1, [r7]
  45 000e 7868     		ldr	r0, [r7, #4]
  46 0010 FFF7FEFF 		bl	memcpy
  79:..\..\..\lvgl\version_6.1.2\lvgl\src\lv_core\../lv_misc/lv_area.h **** }
  47              		.loc 1 79 0
  48 0014 00BF     		nop
  49 0016 0837     		adds	r7, r7, #8
  50              		.cfi_def_cfa_offset 8
  51 0018 BD46     		mov	sp, r7
  52              		.cfi_def_cfa_register 13
  53              		@ sp needed
  54 001a 80BD     		pop	{r7, pc}
  55              		.cfi_endproc
  56              	.LFE10:
  57              		.size	lv_area_copy, .-lv_area_copy
  58              		.section	.text.lv_area_get_width,"ax",%progbits
  59              		.align	2
  60              		.thumb
  61              		.thumb_func
  62              		.type	lv_area_get_width, %function
  63              	lv_area_get_width:
  64              	.LFB11:
  80:..\..\..\lvgl\version_6.1.2\lvgl\src\lv_core\../lv_misc/lv_area.h **** 
  81:..\..\..\lvgl\version_6.1.2\lvgl\src\lv_core\../lv_misc/lv_area.h **** /**
  82:..\..\..\lvgl\version_6.1.2\lvgl\src\lv_core\../lv_misc/lv_area.h ****  * Get the width of an area
  83:..\..\..\lvgl\version_6.1.2\lvgl\src\lv_core\../lv_misc/lv_area.h ****  * @param area_p pointer to an area
  84:..\..\..\lvgl\version_6.1.2\lvgl\src\lv_core\../lv_misc/lv_area.h ****  * @return the width of the area (if x1 == x2 -> width = 1)
  85:..\..\..\lvgl\version_6.1.2\lvgl\src\lv_core\../lv_misc/lv_area.h ****  */
  86:..\..\..\lvgl\version_6.1.2\lvgl\src\lv_core\../lv_misc/lv_area.h **** static inline lv_coord_t lv_area_get_width(const lv_area_t * area_p)
  87:..\..\..\lvgl\version_6.1.2\lvgl\src\lv_core\../lv_misc/lv_area.h **** {
  65              		.loc 1 87 0
  66              		.cfi_startproc
  67              		@ args = 0, pretend = 0, frame = 8
  68              		@ frame_needed = 1, uses_anonymous_args = 0
  69              		@ link register save eliminated.
  70 0000 80B4     		push	{r7}
  71              		.cfi_def_cfa_offset 4
  72              		.cfi_offset 7, -4
  73 0002 83B0     		sub	sp, sp, #12
  74              		.cfi_def_cfa_offset 16
  75 0004 00AF     		add	r7, sp, #0
  76              		.cfi_def_cfa_register 7
  77 0006 7860     		str	r0, [r7, #4]
  88:..\..\..\lvgl\version_6.1.2\lvgl\src\lv_core\../lv_misc/lv_area.h ****     return (lv_coord_t)(area_p->x2 - area_p->x1 + 1);
  78              		.loc 1 88 0
  79 0008 7B68     		ldr	r3, [r7, #4]
  80 000a B3F90430 		ldrsh	r3, [r3, #4]
  81 000e 9AB2     		uxth	r2, r3
  82 0010 7B68     		ldr	r3, [r7, #4]
  83 0012 B3F90030 		ldrsh	r3, [r3]
ARM GAS  C:\Users\tmj32\AppData\Local\Temp\cc8pVFHq.s 			page 4


  84 0016 9BB2     		uxth	r3, r3
  85 0018 D31A     		subs	r3, r2, r3
  86 001a 9BB2     		uxth	r3, r3
  87 001c 0133     		adds	r3, r3, #1
  88 001e 9BB2     		uxth	r3, r3
  89 0020 1BB2     		sxth	r3, r3
  89:..\..\..\lvgl\version_6.1.2\lvgl\src\lv_core\../lv_misc/lv_area.h **** }
  90              		.loc 1 89 0
  91 0022 1846     		mov	r0, r3
  92 0024 0C37     		adds	r7, r7, #12
  93              		.cfi_def_cfa_offset 4
  94 0026 BD46     		mov	sp, r7
  95              		.cfi_def_cfa_register 13
  96              		@ sp needed
  97 0028 5DF8047B 		ldr	r7, [sp], #4
  98              		.cfi_restore 7
  99              		.cfi_def_cfa_offset 0
 100 002c 7047     		bx	lr
 101              		.cfi_endproc
 102              	.LFE11:
 103              		.size	lv_area_get_width, .-lv_area_get_width
 104 002e 00BF     		.section	.text.lv_area_get_height,"ax",%progbits
 105              		.align	2
 106              		.thumb
 107              		.thumb_func
 108              		.type	lv_area_get_height, %function
 109              	lv_area_get_height:
 110              	.LFB12:
  90:..\..\..\lvgl\version_6.1.2\lvgl\src\lv_core\../lv_misc/lv_area.h **** 
  91:..\..\..\lvgl\version_6.1.2\lvgl\src\lv_core\../lv_misc/lv_area.h **** /**
  92:..\..\..\lvgl\version_6.1.2\lvgl\src\lv_core\../lv_misc/lv_area.h ****  * Get the height of an area
  93:..\..\..\lvgl\version_6.1.2\lvgl\src\lv_core\../lv_misc/lv_area.h ****  * @param area_p pointer to an area
  94:..\..\..\lvgl\version_6.1.2\lvgl\src\lv_core\../lv_misc/lv_area.h ****  * @return the height of the area (if y1 == y2 -> height = 1)
  95:..\..\..\lvgl\version_6.1.2\lvgl\src\lv_core\../lv_misc/lv_area.h ****  */
  96:..\..\..\lvgl\version_6.1.2\lvgl\src\lv_core\../lv_misc/lv_area.h **** static inline lv_coord_t lv_area_get_height(const lv_area_t * area_p)
  97:..\..\..\lvgl\version_6.1.2\lvgl\src\lv_core\../lv_misc/lv_area.h **** {
 111              		.loc 1 97 0
 112              		.cfi_startproc
 113              		@ args = 0, pretend = 0, frame = 8
 114              		@ frame_needed = 1, uses_anonymous_args = 0
 115              		@ link register save eliminated.
 116 0000 80B4     		push	{r7}
 117              		.cfi_def_cfa_offset 4
 118              		.cfi_offset 7, -4
 119 0002 83B0     		sub	sp, sp, #12
 120              		.cfi_def_cfa_offset 16
 121 0004 00AF     		add	r7, sp, #0
 122              		.cfi_def_cfa_register 7
 123 0006 7860     		str	r0, [r7, #4]
  98:..\..\..\lvgl\version_6.1.2\lvgl\src\lv_core\../lv_misc/lv_area.h ****     return (lv_coord_t)(area_p->y2 - area_p->y1 + 1);
 124              		.loc 1 98 0
 125 0008 7B68     		ldr	r3, [r7, #4]
 126 000a B3F90630 		ldrsh	r3, [r3, #6]
 127 000e 9AB2     		uxth	r2, r3
 128 0010 7B68     		ldr	r3, [r7, #4]
 129 0012 B3F90230 		ldrsh	r3, [r3, #2]
 130 0016 9BB2     		uxth	r3, r3
ARM GAS  C:\Users\tmj32\AppData\Local\Temp\cc8pVFHq.s 			page 5


 131 0018 D31A     		subs	r3, r2, r3
 132 001a 9BB2     		uxth	r3, r3
 133 001c 0133     		adds	r3, r3, #1
 134 001e 9BB2     		uxth	r3, r3
 135 0020 1BB2     		sxth	r3, r3
  99:..\..\..\lvgl\version_6.1.2\lvgl\src\lv_core\../lv_misc/lv_area.h **** }
 136              		.loc 1 99 0
 137 0022 1846     		mov	r0, r3
 138 0024 0C37     		adds	r7, r7, #12
 139              		.cfi_def_cfa_offset 4
 140 0026 BD46     		mov	sp, r7
 141              		.cfi_def_cfa_register 13
 142              		@ sp needed
 143 0028 5DF8047B 		ldr	r7, [sp], #4
 144              		.cfi_restore 7
 145              		.cfi_def_cfa_offset 0
 146 002c 7047     		bx	lr
 147              		.cfi_endproc
 148              	.LFE12:
 149              		.size	lv_area_get_height, .-lv_area_get_height
 150 002e 00BF     		.bss
 151              		.align	2
 152              	px_num:
 153 0000 00000000 		.space	4
 154              		.align	2
 155              	disp_refr:
 156 0004 00000000 		.space	4
 157              		.section	.text.lv_refr_init,"ax",%progbits
 158              		.align	2
 159              		.global	lv_refr_init
 160              		.thumb
 161              		.thumb_func
 162              		.type	lv_refr_init, %function
 163              	lv_refr_init:
 164              	.LFB35:
 165              		.file 2 "..\\..\\..\\lvgl\\version_6.1.2\\lvgl\\src\\lv_core\\lv_refr.c"
   1:..\..\..\lvgl\version_6.1.2\lvgl\src\lv_core/lv_refr.c **** /**
   2:..\..\..\lvgl\version_6.1.2\lvgl\src\lv_core/lv_refr.c ****  * @file lv_refr.c
   3:..\..\..\lvgl\version_6.1.2\lvgl\src\lv_core/lv_refr.c ****  *
   4:..\..\..\lvgl\version_6.1.2\lvgl\src\lv_core/lv_refr.c ****  */
   5:..\..\..\lvgl\version_6.1.2\lvgl\src\lv_core/lv_refr.c **** 
   6:..\..\..\lvgl\version_6.1.2\lvgl\src\lv_core/lv_refr.c **** /*********************
   7:..\..\..\lvgl\version_6.1.2\lvgl\src\lv_core/lv_refr.c ****  *      INCLUDES
   8:..\..\..\lvgl\version_6.1.2\lvgl\src\lv_core/lv_refr.c ****  *********************/
   9:..\..\..\lvgl\version_6.1.2\lvgl\src\lv_core/lv_refr.c **** #include <stddef.h>
  10:..\..\..\lvgl\version_6.1.2\lvgl\src\lv_core/lv_refr.c **** #include "lv_refr.h"
  11:..\..\..\lvgl\version_6.1.2\lvgl\src\lv_core/lv_refr.c **** #include "lv_disp.h"
  12:..\..\..\lvgl\version_6.1.2\lvgl\src\lv_core/lv_refr.c **** #include "../lv_hal/lv_hal_tick.h"
  13:..\..\..\lvgl\version_6.1.2\lvgl\src\lv_core/lv_refr.c **** #include "../lv_hal/lv_hal_disp.h"
  14:..\..\..\lvgl\version_6.1.2\lvgl\src\lv_core/lv_refr.c **** #include "../lv_misc/lv_task.h"
  15:..\..\..\lvgl\version_6.1.2\lvgl\src\lv_core/lv_refr.c **** #include "../lv_misc/lv_mem.h"
  16:..\..\..\lvgl\version_6.1.2\lvgl\src\lv_core/lv_refr.c **** #include "../lv_misc/lv_gc.h"
  17:..\..\..\lvgl\version_6.1.2\lvgl\src\lv_core/lv_refr.c **** #include "../lv_draw/lv_draw.h"
  18:..\..\..\lvgl\version_6.1.2\lvgl\src\lv_core/lv_refr.c **** 
  19:..\..\..\lvgl\version_6.1.2\lvgl\src\lv_core/lv_refr.c **** #if defined(LV_GC_INCLUDE)
  20:..\..\..\lvgl\version_6.1.2\lvgl\src\lv_core/lv_refr.c **** #include LV_GC_INCLUDE
  21:..\..\..\lvgl\version_6.1.2\lvgl\src\lv_core/lv_refr.c **** #endif /* LV_ENABLE_GC */
ARM GAS  C:\Users\tmj32\AppData\Local\Temp\cc8pVFHq.s 			page 6


  22:..\..\..\lvgl\version_6.1.2\lvgl\src\lv_core/lv_refr.c **** 
  23:..\..\..\lvgl\version_6.1.2\lvgl\src\lv_core/lv_refr.c **** /*********************
  24:..\..\..\lvgl\version_6.1.2\lvgl\src\lv_core/lv_refr.c ****  *      DEFINES
  25:..\..\..\lvgl\version_6.1.2\lvgl\src\lv_core/lv_refr.c ****  *********************/
  26:..\..\..\lvgl\version_6.1.2\lvgl\src\lv_core/lv_refr.c **** /* Draw translucent random colored areas on the invalidated (redrawn) areas*/
  27:..\..\..\lvgl\version_6.1.2\lvgl\src\lv_core/lv_refr.c **** #define MASK_AREA_DEBUG 0
  28:..\..\..\lvgl\version_6.1.2\lvgl\src\lv_core/lv_refr.c **** 
  29:..\..\..\lvgl\version_6.1.2\lvgl\src\lv_core/lv_refr.c **** /**********************
  30:..\..\..\lvgl\version_6.1.2\lvgl\src\lv_core/lv_refr.c ****  *      TYPEDEFS
  31:..\..\..\lvgl\version_6.1.2\lvgl\src\lv_core/lv_refr.c ****  **********************/
  32:..\..\..\lvgl\version_6.1.2\lvgl\src\lv_core/lv_refr.c **** 
  33:..\..\..\lvgl\version_6.1.2\lvgl\src\lv_core/lv_refr.c **** /**********************
  34:..\..\..\lvgl\version_6.1.2\lvgl\src\lv_core/lv_refr.c ****  *  STATIC PROTOTYPES
  35:..\..\..\lvgl\version_6.1.2\lvgl\src\lv_core/lv_refr.c ****  **********************/
  36:..\..\..\lvgl\version_6.1.2\lvgl\src\lv_core/lv_refr.c **** static void lv_refr_join_area(void);
  37:..\..\..\lvgl\version_6.1.2\lvgl\src\lv_core/lv_refr.c **** static void lv_refr_areas(void);
  38:..\..\..\lvgl\version_6.1.2\lvgl\src\lv_core/lv_refr.c **** static void lv_refr_area(const lv_area_t * area_p);
  39:..\..\..\lvgl\version_6.1.2\lvgl\src\lv_core/lv_refr.c **** static void lv_refr_area_part(const lv_area_t * area_p);
  40:..\..\..\lvgl\version_6.1.2\lvgl\src\lv_core/lv_refr.c **** static lv_obj_t * lv_refr_get_top_obj(const lv_area_t * area_p, lv_obj_t * obj);
  41:..\..\..\lvgl\version_6.1.2\lvgl\src\lv_core/lv_refr.c **** static void lv_refr_obj_and_children(lv_obj_t * top_p, const lv_area_t * mask_p);
  42:..\..\..\lvgl\version_6.1.2\lvgl\src\lv_core/lv_refr.c **** static void lv_refr_obj(lv_obj_t * obj, const lv_area_t * mask_ori_p);
  43:..\..\..\lvgl\version_6.1.2\lvgl\src\lv_core/lv_refr.c **** static void lv_refr_vdb_flush(void);
  44:..\..\..\lvgl\version_6.1.2\lvgl\src\lv_core/lv_refr.c **** 
  45:..\..\..\lvgl\version_6.1.2\lvgl\src\lv_core/lv_refr.c **** /**********************
  46:..\..\..\lvgl\version_6.1.2\lvgl\src\lv_core/lv_refr.c ****  *  STATIC VARIABLES
  47:..\..\..\lvgl\version_6.1.2\lvgl\src\lv_core/lv_refr.c ****  **********************/
  48:..\..\..\lvgl\version_6.1.2\lvgl\src\lv_core/lv_refr.c **** static uint32_t px_num;
  49:..\..\..\lvgl\version_6.1.2\lvgl\src\lv_core/lv_refr.c **** static lv_disp_t * disp_refr; /*Display being refreshed*/
  50:..\..\..\lvgl\version_6.1.2\lvgl\src\lv_core/lv_refr.c **** 
  51:..\..\..\lvgl\version_6.1.2\lvgl\src\lv_core/lv_refr.c **** /**********************
  52:..\..\..\lvgl\version_6.1.2\lvgl\src\lv_core/lv_refr.c ****  *      MACROS
  53:..\..\..\lvgl\version_6.1.2\lvgl\src\lv_core/lv_refr.c ****  **********************/
  54:..\..\..\lvgl\version_6.1.2\lvgl\src\lv_core/lv_refr.c **** 
  55:..\..\..\lvgl\version_6.1.2\lvgl\src\lv_core/lv_refr.c **** /**********************
  56:..\..\..\lvgl\version_6.1.2\lvgl\src\lv_core/lv_refr.c ****  *   GLOBAL FUNCTIONS
  57:..\..\..\lvgl\version_6.1.2\lvgl\src\lv_core/lv_refr.c ****  **********************/
  58:..\..\..\lvgl\version_6.1.2\lvgl\src\lv_core/lv_refr.c **** 
  59:..\..\..\lvgl\version_6.1.2\lvgl\src\lv_core/lv_refr.c **** /**
  60:..\..\..\lvgl\version_6.1.2\lvgl\src\lv_core/lv_refr.c ****  * Initialize the screen refresh subsystem
  61:..\..\..\lvgl\version_6.1.2\lvgl\src\lv_core/lv_refr.c ****  */
  62:..\..\..\lvgl\version_6.1.2\lvgl\src\lv_core/lv_refr.c **** void lv_refr_init(void)
  63:..\..\..\lvgl\version_6.1.2\lvgl\src\lv_core/lv_refr.c **** {
 166              		.loc 2 63 0
 167              		.cfi_startproc
 168              		@ args = 0, pretend = 0, frame = 0
 169              		@ frame_needed = 1, uses_anonymous_args = 0
 170              		@ link register save eliminated.
 171 0000 80B4     		push	{r7}
 172              		.cfi_def_cfa_offset 4
 173              		.cfi_offset 7, -4
 174 0002 00AF     		add	r7, sp, #0
 175              		.cfi_def_cfa_register 7
  64:..\..\..\lvgl\version_6.1.2\lvgl\src\lv_core/lv_refr.c ****     /*Nothing to do*/
  65:..\..\..\lvgl\version_6.1.2\lvgl\src\lv_core/lv_refr.c **** }
 176              		.loc 2 65 0
 177 0004 00BF     		nop
 178 0006 BD46     		mov	sp, r7
ARM GAS  C:\Users\tmj32\AppData\Local\Temp\cc8pVFHq.s 			page 7


 179              		.cfi_def_cfa_register 13
 180              		@ sp needed
 181 0008 5DF8047B 		ldr	r7, [sp], #4
 182              		.cfi_restore 7
 183              		.cfi_def_cfa_offset 0
 184 000c 7047     		bx	lr
 185              		.cfi_endproc
 186              	.LFE35:
 187              		.size	lv_refr_init, .-lv_refr_init
 188 000e 00BF     		.section	.text.lv_refr_now,"ax",%progbits
 189              		.align	2
 190              		.global	lv_refr_now
 191              		.thumb
 192              		.thumb_func
 193              		.type	lv_refr_now, %function
 194              	lv_refr_now:
 195              	.LFB36:
  66:..\..\..\lvgl\version_6.1.2\lvgl\src\lv_core/lv_refr.c **** 
  67:..\..\..\lvgl\version_6.1.2\lvgl\src\lv_core/lv_refr.c **** /**
  68:..\..\..\lvgl\version_6.1.2\lvgl\src\lv_core/lv_refr.c ****  * Redraw the invalidated areas now.
  69:..\..\..\lvgl\version_6.1.2\lvgl\src\lv_core/lv_refr.c ****  * Normally the redrawing is periodically executed in `lv_task_handler` but a long blocking process
  70:..\..\..\lvgl\version_6.1.2\lvgl\src\lv_core/lv_refr.c ****  * can prevent the call of `lv_task_handler`. In this case if the the GUI is updated in the process
  71:..\..\..\lvgl\version_6.1.2\lvgl\src\lv_core/lv_refr.c ****  * (e.g. progress bar) this function can be called when the screen should be updated.
  72:..\..\..\lvgl\version_6.1.2\lvgl\src\lv_core/lv_refr.c ****  * @param disp pointer to display to refresh. NULL to refresh all displays.
  73:..\..\..\lvgl\version_6.1.2\lvgl\src\lv_core/lv_refr.c ****  */
  74:..\..\..\lvgl\version_6.1.2\lvgl\src\lv_core/lv_refr.c **** void lv_refr_now(lv_disp_t * disp)
  75:..\..\..\lvgl\version_6.1.2\lvgl\src\lv_core/lv_refr.c **** {
 196              		.loc 2 75 0
 197              		.cfi_startproc
 198              		@ args = 0, pretend = 0, frame = 16
 199              		@ frame_needed = 1, uses_anonymous_args = 0
 200 0000 80B5     		push	{r7, lr}
 201              		.cfi_def_cfa_offset 8
 202              		.cfi_offset 7, -8
 203              		.cfi_offset 14, -4
 204 0002 84B0     		sub	sp, sp, #16
 205              		.cfi_def_cfa_offset 24
 206 0004 00AF     		add	r7, sp, #0
 207              		.cfi_def_cfa_register 7
 208 0006 7860     		str	r0, [r7, #4]
  76:..\..\..\lvgl\version_6.1.2\lvgl\src\lv_core/lv_refr.c ****     if(disp) {
 209              		.loc 2 76 0
 210 0008 7B68     		ldr	r3, [r7, #4]
 211 000a 002B     		cmp	r3, #0
 212 000c 05D0     		beq	.L8
  77:..\..\..\lvgl\version_6.1.2\lvgl\src\lv_core/lv_refr.c ****         lv_disp_refr_task(disp->refr_task);
 213              		.loc 2 77 0
 214 000e 7B68     		ldr	r3, [r7, #4]
 215 0010 1B6A     		ldr	r3, [r3, #32]
 216 0012 1846     		mov	r0, r3
 217 0014 FFF7FEFF 		bl	lv_disp_refr_task
  78:..\..\..\lvgl\version_6.1.2\lvgl\src\lv_core/lv_refr.c ****     } else {
  79:..\..\..\lvgl\version_6.1.2\lvgl\src\lv_core/lv_refr.c ****         lv_disp_t * d;
  80:..\..\..\lvgl\version_6.1.2\lvgl\src\lv_core/lv_refr.c ****         d = lv_disp_get_next(NULL);
  81:..\..\..\lvgl\version_6.1.2\lvgl\src\lv_core/lv_refr.c ****         while(d) {
  82:..\..\..\lvgl\version_6.1.2\lvgl\src\lv_core/lv_refr.c ****             lv_disp_refr_task(d->refr_task);
  83:..\..\..\lvgl\version_6.1.2\lvgl\src\lv_core/lv_refr.c ****             d = lv_disp_get_next(d);
ARM GAS  C:\Users\tmj32\AppData\Local\Temp\cc8pVFHq.s 			page 8


  84:..\..\..\lvgl\version_6.1.2\lvgl\src\lv_core/lv_refr.c ****         }
  85:..\..\..\lvgl\version_6.1.2\lvgl\src\lv_core/lv_refr.c ****     }
  86:..\..\..\lvgl\version_6.1.2\lvgl\src\lv_core/lv_refr.c **** }
 218              		.loc 2 86 0
 219 0018 10E0     		b	.L12
 220              	.L8:
 221              	.LBB2:
  80:..\..\..\lvgl\version_6.1.2\lvgl\src\lv_core/lv_refr.c ****         while(d) {
 222              		.loc 2 80 0
 223 001a 0020     		movs	r0, #0
 224 001c FFF7FEFF 		bl	lv_disp_get_next
 225 0020 F860     		str	r0, [r7, #12]
  81:..\..\..\lvgl\version_6.1.2\lvgl\src\lv_core/lv_refr.c ****             lv_disp_refr_task(d->refr_task);
 226              		.loc 2 81 0
 227 0022 08E0     		b	.L10
 228              	.L11:
  82:..\..\..\lvgl\version_6.1.2\lvgl\src\lv_core/lv_refr.c ****             d = lv_disp_get_next(d);
 229              		.loc 2 82 0
 230 0024 FB68     		ldr	r3, [r7, #12]
 231 0026 1B6A     		ldr	r3, [r3, #32]
 232 0028 1846     		mov	r0, r3
 233 002a FFF7FEFF 		bl	lv_disp_refr_task
  83:..\..\..\lvgl\version_6.1.2\lvgl\src\lv_core/lv_refr.c ****         }
 234              		.loc 2 83 0
 235 002e F868     		ldr	r0, [r7, #12]
 236 0030 FFF7FEFF 		bl	lv_disp_get_next
 237 0034 F860     		str	r0, [r7, #12]
 238              	.L10:
  81:..\..\..\lvgl\version_6.1.2\lvgl\src\lv_core/lv_refr.c ****             lv_disp_refr_task(d->refr_task);
 239              		.loc 2 81 0
 240 0036 FB68     		ldr	r3, [r7, #12]
 241 0038 002B     		cmp	r3, #0
 242 003a F3D1     		bne	.L11
 243              	.L12:
 244              	.LBE2:
 245              		.loc 2 86 0
 246 003c 00BF     		nop
 247 003e 1037     		adds	r7, r7, #16
 248              		.cfi_def_cfa_offset 8
 249 0040 BD46     		mov	sp, r7
 250              		.cfi_def_cfa_register 13
 251              		@ sp needed
 252 0042 80BD     		pop	{r7, pc}
 253              		.cfi_endproc
 254              	.LFE36:
 255              		.size	lv_refr_now, .-lv_refr_now
 256              		.section	.text.lv_inv_area,"ax",%progbits
 257              		.align	2
 258              		.global	lv_inv_area
 259              		.thumb
 260              		.thumb_func
 261              		.type	lv_inv_area, %function
 262              	lv_inv_area:
 263              	.LFB37:
  87:..\..\..\lvgl\version_6.1.2\lvgl\src\lv_core/lv_refr.c **** 
  88:..\..\..\lvgl\version_6.1.2\lvgl\src\lv_core/lv_refr.c **** /**
  89:..\..\..\lvgl\version_6.1.2\lvgl\src\lv_core/lv_refr.c ****  * Invalidate an area on display to redraw it
ARM GAS  C:\Users\tmj32\AppData\Local\Temp\cc8pVFHq.s 			page 9


  90:..\..\..\lvgl\version_6.1.2\lvgl\src\lv_core/lv_refr.c ****  * @param area_p pointer to area which should be invalidated (NULL: delete the invalidated areas)
  91:..\..\..\lvgl\version_6.1.2\lvgl\src\lv_core/lv_refr.c ****  * @param disp pointer to display where the area should be invalidated (NULL can be used if there i
  92:..\..\..\lvgl\version_6.1.2\lvgl\src\lv_core/lv_refr.c ****  * only one display)
  93:..\..\..\lvgl\version_6.1.2\lvgl\src\lv_core/lv_refr.c ****  */
  94:..\..\..\lvgl\version_6.1.2\lvgl\src\lv_core/lv_refr.c **** void lv_inv_area(lv_disp_t * disp, const lv_area_t * area_p)
  95:..\..\..\lvgl\version_6.1.2\lvgl\src\lv_core/lv_refr.c **** {
 264              		.loc 2 95 0
 265              		.cfi_startproc
 266              		@ args = 0, pretend = 0, frame = 32
 267              		@ frame_needed = 1, uses_anonymous_args = 0
 268 0000 80B5     		push	{r7, lr}
 269              		.cfi_def_cfa_offset 8
 270              		.cfi_offset 7, -8
 271              		.cfi_offset 14, -4
 272 0002 88B0     		sub	sp, sp, #32
 273              		.cfi_def_cfa_offset 40
 274 0004 00AF     		add	r7, sp, #0
 275              		.cfi_def_cfa_register 7
 276 0006 7860     		str	r0, [r7, #4]
 277 0008 3960     		str	r1, [r7]
  96:..\..\..\lvgl\version_6.1.2\lvgl\src\lv_core/lv_refr.c ****     if(!disp) disp = lv_disp_get_default();
 278              		.loc 2 96 0
 279 000a 7B68     		ldr	r3, [r7, #4]
 280 000c 002B     		cmp	r3, #0
 281 000e 02D1     		bne	.L14
 282              		.loc 2 96 0 is_stmt 0 discriminator 1
 283 0010 FFF7FEFF 		bl	lv_disp_get_default
 284 0014 7860     		str	r0, [r7, #4]
 285              	.L14:
  97:..\..\..\lvgl\version_6.1.2\lvgl\src\lv_core/lv_refr.c ****     if(!disp) return;
 286              		.loc 2 97 0 is_stmt 1
 287 0016 7B68     		ldr	r3, [r7, #4]
 288 0018 002B     		cmp	r3, #0
 289 001a 00F09B80 		beq	.L26
  98:..\..\..\lvgl\version_6.1.2\lvgl\src\lv_core/lv_refr.c **** 
  99:..\..\..\lvgl\version_6.1.2\lvgl\src\lv_core/lv_refr.c ****     /*Clear the invalidate buffer if the parameter is NULL*/
 100:..\..\..\lvgl\version_6.1.2\lvgl\src\lv_core/lv_refr.c ****     if(area_p == NULL) {
 290              		.loc 2 100 0
 291 001e 3B68     		ldr	r3, [r7]
 292 0020 002B     		cmp	r3, #0
 293 0022 07D1     		bne	.L17
 101:..\..\..\lvgl\version_6.1.2\lvgl\src\lv_core/lv_refr.c ****         disp->inv_p = 0;
 294              		.loc 2 101 0
 295 0024 7A68     		ldr	r2, [r7, #4]
 296 0026 B2F85C31 		ldrh	r3, [r2, #348]	@ movhi
 297 002a 6FF30903 		bfc	r3, #0, #10
 298 002e A2F85C31 		strh	r3, [r2, #348]	@ movhi
 102:..\..\..\lvgl\version_6.1.2\lvgl\src\lv_core/lv_refr.c ****         return;
 299              		.loc 2 102 0
 300 0032 92E0     		b	.L13
 301              	.L17:
 103:..\..\..\lvgl\version_6.1.2\lvgl\src\lv_core/lv_refr.c ****     }
 104:..\..\..\lvgl\version_6.1.2\lvgl\src\lv_core/lv_refr.c **** 
 105:..\..\..\lvgl\version_6.1.2\lvgl\src\lv_core/lv_refr.c ****     lv_area_t scr_area;
 106:..\..\..\lvgl\version_6.1.2\lvgl\src\lv_core/lv_refr.c ****     scr_area.x1 = 0;
 302              		.loc 2 106 0
 303 0034 0023     		movs	r3, #0
ARM GAS  C:\Users\tmj32\AppData\Local\Temp\cc8pVFHq.s 			page 10


 304 0036 BB82     		strh	r3, [r7, #20]	@ movhi
 107:..\..\..\lvgl\version_6.1.2\lvgl\src\lv_core/lv_refr.c ****     scr_area.y1 = 0;
 305              		.loc 2 107 0
 306 0038 0023     		movs	r3, #0
 307 003a FB82     		strh	r3, [r7, #22]	@ movhi
 108:..\..\..\lvgl\version_6.1.2\lvgl\src\lv_core/lv_refr.c ****     scr_area.x2 = lv_disp_get_hor_res(disp) - 1;
 308              		.loc 2 108 0
 309 003c 7868     		ldr	r0, [r7, #4]
 310 003e FFF7FEFF 		bl	lv_disp_get_hor_res
 311 0042 0346     		mov	r3, r0
 312 0044 9BB2     		uxth	r3, r3
 313 0046 013B     		subs	r3, r3, #1
 314 0048 9BB2     		uxth	r3, r3
 315 004a 1BB2     		sxth	r3, r3
 316 004c 3B83     		strh	r3, [r7, #24]	@ movhi
 109:..\..\..\lvgl\version_6.1.2\lvgl\src\lv_core/lv_refr.c ****     scr_area.y2 = lv_disp_get_ver_res(disp) - 1;
 317              		.loc 2 109 0
 318 004e 7868     		ldr	r0, [r7, #4]
 319 0050 FFF7FEFF 		bl	lv_disp_get_ver_res
 320 0054 0346     		mov	r3, r0
 321 0056 9BB2     		uxth	r3, r3
 322 0058 013B     		subs	r3, r3, #1
 323 005a 9BB2     		uxth	r3, r3
 324 005c 1BB2     		sxth	r3, r3
 325 005e 7B83     		strh	r3, [r7, #26]	@ movhi
 110:..\..\..\lvgl\version_6.1.2\lvgl\src\lv_core/lv_refr.c **** 
 111:..\..\..\lvgl\version_6.1.2\lvgl\src\lv_core/lv_refr.c ****     lv_area_t com_area;
 112:..\..\..\lvgl\version_6.1.2\lvgl\src\lv_core/lv_refr.c ****     bool suc;
 113:..\..\..\lvgl\version_6.1.2\lvgl\src\lv_core/lv_refr.c **** 
 114:..\..\..\lvgl\version_6.1.2\lvgl\src\lv_core/lv_refr.c ****     suc = lv_area_intersect(&com_area, area_p, &scr_area);
 326              		.loc 2 114 0
 327 0060 07F11402 		add	r2, r7, #20
 328 0064 07F10C03 		add	r3, r7, #12
 329 0068 3968     		ldr	r1, [r7]
 330 006a 1846     		mov	r0, r3
 331 006c FFF7FEFF 		bl	lv_area_intersect
 332 0070 0346     		mov	r3, r0
 333 0072 7B77     		strb	r3, [r7, #29]
 115:..\..\..\lvgl\version_6.1.2\lvgl\src\lv_core/lv_refr.c **** 
 116:..\..\..\lvgl\version_6.1.2\lvgl\src\lv_core/lv_refr.c ****     /*The area is truncated to the screen*/
 117:..\..\..\lvgl\version_6.1.2\lvgl\src\lv_core/lv_refr.c ****     if(suc != false) {
 334              		.loc 2 117 0
 335 0074 7B7F     		ldrb	r3, [r7, #29]	@ zero_extendqisi2
 336 0076 002B     		cmp	r3, #0
 337 0078 6FD0     		beq	.L13
 338              	.LBB3:
 118:..\..\..\lvgl\version_6.1.2\lvgl\src\lv_core/lv_refr.c ****         if(disp->driver.rounder_cb) disp->driver.rounder_cb(&disp->driver, &com_area);
 339              		.loc 2 118 0
 340 007a 7B68     		ldr	r3, [r7, #4]
 341 007c 1B69     		ldr	r3, [r3, #16]
 342 007e 002B     		cmp	r3, #0
 343 0080 06D0     		beq	.L19
 344              		.loc 2 118 0 is_stmt 0 discriminator 1
 345 0082 7B68     		ldr	r3, [r7, #4]
 346 0084 1B69     		ldr	r3, [r3, #16]
 347 0086 7A68     		ldr	r2, [r7, #4]
 348 0088 07F10C01 		add	r1, r7, #12
ARM GAS  C:\Users\tmj32\AppData\Local\Temp\cc8pVFHq.s 			page 11


 349 008c 1046     		mov	r0, r2
 350 008e 9847     		blx	r3
 351              	.L19:
 119:..\..\..\lvgl\version_6.1.2\lvgl\src\lv_core/lv_refr.c **** 
 120:..\..\..\lvgl\version_6.1.2\lvgl\src\lv_core/lv_refr.c ****         /*Save only if this area is not in one of the saved areas*/
 121:..\..\..\lvgl\version_6.1.2\lvgl\src\lv_core/lv_refr.c ****         uint16_t i;
 122:..\..\..\lvgl\version_6.1.2\lvgl\src\lv_core/lv_refr.c ****         for(i = 0; i < disp->inv_p; i++) {
 352              		.loc 2 122 0 is_stmt 1
 353 0090 0023     		movs	r3, #0
 354 0092 FB83     		strh	r3, [r7, #30]	@ movhi
 355 0094 11E0     		b	.L20
 356              	.L22:
 123:..\..\..\lvgl\version_6.1.2\lvgl\src\lv_core/lv_refr.c ****             if(lv_area_is_in(&com_area, &disp->inv_areas[i]) != false) return;
 357              		.loc 2 123 0
 358 0096 FB8B     		ldrh	r3, [r7, #30]
 359 0098 0733     		adds	r3, r3, #7
 360 009a DB00     		lsls	r3, r3, #3
 361 009c 7A68     		ldr	r2, [r7, #4]
 362 009e 1344     		add	r3, r3, r2
 363 00a0 1A1D     		adds	r2, r3, #4
 364 00a2 07F10C03 		add	r3, r7, #12
 365 00a6 1146     		mov	r1, r2
 366 00a8 1846     		mov	r0, r3
 367 00aa FFF7FEFF 		bl	lv_area_is_in
 368 00ae 0346     		mov	r3, r0
 369 00b0 002B     		cmp	r3, #0
 370 00b2 51D1     		bne	.L27
 122:..\..\..\lvgl\version_6.1.2\lvgl\src\lv_core/lv_refr.c ****             if(lv_area_is_in(&com_area, &disp->inv_areas[i]) != false) return;
 371              		.loc 2 122 0 discriminator 2
 372 00b4 FB8B     		ldrh	r3, [r7, #30]
 373 00b6 0133     		adds	r3, r3, #1
 374 00b8 FB83     		strh	r3, [r7, #30]	@ movhi
 375              	.L20:
 122:..\..\..\lvgl\version_6.1.2\lvgl\src\lv_core/lv_refr.c ****             if(lv_area_is_in(&com_area, &disp->inv_areas[i]) != false) return;
 376              		.loc 2 122 0 is_stmt 0 discriminator 1
 377 00ba FB8B     		ldrh	r3, [r7, #30]
 378 00bc 7A68     		ldr	r2, [r7, #4]
 379 00be B2F85C21 		ldrh	r2, [r2, #348]	@ movhi
 380 00c2 C2F30902 		ubfx	r2, r2, #0, #10
 381 00c6 92B2     		uxth	r2, r2
 382 00c8 9342     		cmp	r3, r2
 383 00ca E4DB     		blt	.L22
 124:..\..\..\lvgl\version_6.1.2\lvgl\src\lv_core/lv_refr.c ****         }
 125:..\..\..\lvgl\version_6.1.2\lvgl\src\lv_core/lv_refr.c **** 
 126:..\..\..\lvgl\version_6.1.2\lvgl\src\lv_core/lv_refr.c ****         /*Save the area*/
 127:..\..\..\lvgl\version_6.1.2\lvgl\src\lv_core/lv_refr.c ****         if(disp->inv_p < LV_INV_BUF_SIZE) {
 384              		.loc 2 127 0 is_stmt 1
 385 00cc 7B68     		ldr	r3, [r7, #4]
 386 00ce B3F85C31 		ldrh	r3, [r3, #348]	@ movhi
 387 00d2 C3F30903 		ubfx	r3, r3, #0, #10
 388 00d6 9BB2     		uxth	r3, r3
 389 00d8 1F2B     		cmp	r3, #31
 390 00da 11DC     		bgt	.L23
 128:..\..\..\lvgl\version_6.1.2\lvgl\src\lv_core/lv_refr.c ****             lv_area_copy(&disp->inv_areas[disp->inv_p], &com_area);
 391              		.loc 2 128 0
 392 00dc 7B68     		ldr	r3, [r7, #4]
 393 00de B3F85C31 		ldrh	r3, [r3, #348]	@ movhi
ARM GAS  C:\Users\tmj32\AppData\Local\Temp\cc8pVFHq.s 			page 12


 394 00e2 C3F30903 		ubfx	r3, r3, #0, #10
 395 00e6 9BB2     		uxth	r3, r3
 396 00e8 0733     		adds	r3, r3, #7
 397 00ea DB00     		lsls	r3, r3, #3
 398 00ec 7A68     		ldr	r2, [r7, #4]
 399 00ee 1344     		add	r3, r3, r2
 400 00f0 0433     		adds	r3, r3, #4
 401 00f2 07F10C02 		add	r2, r7, #12
 402 00f6 1146     		mov	r1, r2
 403 00f8 1846     		mov	r0, r3
 404 00fa FFF7FEFF 		bl	lv_area_copy
 405 00fe 17E0     		b	.L24
 406              	.L23:
 129:..\..\..\lvgl\version_6.1.2\lvgl\src\lv_core/lv_refr.c ****         } else { /*If no place for the area add the screen*/
 130:..\..\..\lvgl\version_6.1.2\lvgl\src\lv_core/lv_refr.c ****             disp->inv_p = 0;
 407              		.loc 2 130 0
 408 0100 7A68     		ldr	r2, [r7, #4]
 409 0102 B2F85C31 		ldrh	r3, [r2, #348]	@ movhi
 410 0106 6FF30903 		bfc	r3, #0, #10
 411 010a A2F85C31 		strh	r3, [r2, #348]	@ movhi
 131:..\..\..\lvgl\version_6.1.2\lvgl\src\lv_core/lv_refr.c ****             lv_area_copy(&disp->inv_areas[disp->inv_p], &scr_area);
 412              		.loc 2 131 0
 413 010e 7B68     		ldr	r3, [r7, #4]
 414 0110 B3F85C31 		ldrh	r3, [r3, #348]	@ movhi
 415 0114 C3F30903 		ubfx	r3, r3, #0, #10
 416 0118 9BB2     		uxth	r3, r3
 417 011a 0733     		adds	r3, r3, #7
 418 011c DB00     		lsls	r3, r3, #3
 419 011e 7A68     		ldr	r2, [r7, #4]
 420 0120 1344     		add	r3, r3, r2
 421 0122 0433     		adds	r3, r3, #4
 422 0124 07F11402 		add	r2, r7, #20
 423 0128 1146     		mov	r1, r2
 424 012a 1846     		mov	r0, r3
 425 012c FFF7FEFF 		bl	lv_area_copy
 426              	.L24:
 132:..\..\..\lvgl\version_6.1.2\lvgl\src\lv_core/lv_refr.c ****         }
 133:..\..\..\lvgl\version_6.1.2\lvgl\src\lv_core/lv_refr.c ****         disp->inv_p++;
 427              		.loc 2 133 0
 428 0130 7B68     		ldr	r3, [r7, #4]
 429 0132 B3F85C31 		ldrh	r3, [r3, #348]	@ movhi
 430 0136 C3F30903 		ubfx	r3, r3, #0, #10
 431 013a 9BB2     		uxth	r3, r3
 432 013c 0133     		adds	r3, r3, #1
 433 013e C3F30903 		ubfx	r3, r3, #0, #10
 434 0142 99B2     		uxth	r1, r3
 435 0144 7A68     		ldr	r2, [r7, #4]
 436 0146 B2F85C31 		ldrh	r3, [r2, #348]	@ movhi
 437 014a 61F30903 		bfi	r3, r1, #0, #10
 438 014e A2F85C31 		strh	r3, [r2, #348]	@ movhi
 439 0152 02E0     		b	.L13
 440              	.L26:
 441              	.LBE3:
  97:..\..\..\lvgl\version_6.1.2\lvgl\src\lv_core/lv_refr.c **** 
 442              		.loc 2 97 0
 443 0154 00BF     		nop
 444 0156 00E0     		b	.L13
ARM GAS  C:\Users\tmj32\AppData\Local\Temp\cc8pVFHq.s 			page 13


 445              	.L27:
 446              	.LBB4:
 123:..\..\..\lvgl\version_6.1.2\lvgl\src\lv_core/lv_refr.c ****         }
 447              		.loc 2 123 0
 448 0158 00BF     		nop
 449              	.L13:
 450              	.LBE4:
 134:..\..\..\lvgl\version_6.1.2\lvgl\src\lv_core/lv_refr.c ****     }
 135:..\..\..\lvgl\version_6.1.2\lvgl\src\lv_core/lv_refr.c **** }
 451              		.loc 2 135 0
 452 015a 2037     		adds	r7, r7, #32
 453              		.cfi_def_cfa_offset 8
 454 015c BD46     		mov	sp, r7
 455              		.cfi_def_cfa_register 13
 456              		@ sp needed
 457 015e 80BD     		pop	{r7, pc}
 458              		.cfi_endproc
 459              	.LFE37:
 460              		.size	lv_inv_area, .-lv_inv_area
 461              		.section	.text.lv_refr_get_disp_refreshing,"ax",%progbits
 462              		.align	2
 463              		.global	lv_refr_get_disp_refreshing
 464              		.thumb
 465              		.thumb_func
 466              		.type	lv_refr_get_disp_refreshing, %function
 467              	lv_refr_get_disp_refreshing:
 468              	.LFB38:
 136:..\..\..\lvgl\version_6.1.2\lvgl\src\lv_core/lv_refr.c **** 
 137:..\..\..\lvgl\version_6.1.2\lvgl\src\lv_core/lv_refr.c **** /**
 138:..\..\..\lvgl\version_6.1.2\lvgl\src\lv_core/lv_refr.c ****  * Get the display which is being refreshed
 139:..\..\..\lvgl\version_6.1.2\lvgl\src\lv_core/lv_refr.c ****  * @return the display being refreshed
 140:..\..\..\lvgl\version_6.1.2\lvgl\src\lv_core/lv_refr.c ****  */
 141:..\..\..\lvgl\version_6.1.2\lvgl\src\lv_core/lv_refr.c **** lv_disp_t * lv_refr_get_disp_refreshing(void)
 142:..\..\..\lvgl\version_6.1.2\lvgl\src\lv_core/lv_refr.c **** {
 469              		.loc 2 142 0
 470              		.cfi_startproc
 471              		@ args = 0, pretend = 0, frame = 0
 472              		@ frame_needed = 1, uses_anonymous_args = 0
 473              		@ link register save eliminated.
 474 0000 80B4     		push	{r7}
 475              		.cfi_def_cfa_offset 4
 476              		.cfi_offset 7, -4
 477 0002 00AF     		add	r7, sp, #0
 478              		.cfi_def_cfa_register 7
 143:..\..\..\lvgl\version_6.1.2\lvgl\src\lv_core/lv_refr.c ****     return disp_refr;
 479              		.loc 2 143 0
 480 0004 034B     		ldr	r3, .L30
 481 0006 1B68     		ldr	r3, [r3]
 144:..\..\..\lvgl\version_6.1.2\lvgl\src\lv_core/lv_refr.c **** }
 482              		.loc 2 144 0
 483 0008 1846     		mov	r0, r3
 484 000a BD46     		mov	sp, r7
 485              		.cfi_def_cfa_register 13
 486              		@ sp needed
 487 000c 5DF8047B 		ldr	r7, [sp], #4
 488              		.cfi_restore 7
 489              		.cfi_def_cfa_offset 0
ARM GAS  C:\Users\tmj32\AppData\Local\Temp\cc8pVFHq.s 			page 14


 490 0010 7047     		bx	lr
 491              	.L31:
 492 0012 00BF     		.align	2
 493              	.L30:
 494 0014 04000000 		.word	disp_refr
 495              		.cfi_endproc
 496              	.LFE38:
 497              		.size	lv_refr_get_disp_refreshing, .-lv_refr_get_disp_refreshing
 498              		.section	.text.lv_refr_set_disp_refreshing,"ax",%progbits
 499              		.align	2
 500              		.global	lv_refr_set_disp_refreshing
 501              		.thumb
 502              		.thumb_func
 503              		.type	lv_refr_set_disp_refreshing, %function
 504              	lv_refr_set_disp_refreshing:
 505              	.LFB39:
 145:..\..\..\lvgl\version_6.1.2\lvgl\src\lv_core/lv_refr.c **** 
 146:..\..\..\lvgl\version_6.1.2\lvgl\src\lv_core/lv_refr.c **** /**
 147:..\..\..\lvgl\version_6.1.2\lvgl\src\lv_core/lv_refr.c ****  * Set the display which is being refreshed.
 148:..\..\..\lvgl\version_6.1.2\lvgl\src\lv_core/lv_refr.c ****  * It shouldn1t be used directly by the user.
 149:..\..\..\lvgl\version_6.1.2\lvgl\src\lv_core/lv_refr.c ****  * It can be used to trick the drawing functions about there is an active display.
 150:..\..\..\lvgl\version_6.1.2\lvgl\src\lv_core/lv_refr.c ****  * @param the display being refreshed
 151:..\..\..\lvgl\version_6.1.2\lvgl\src\lv_core/lv_refr.c ****  */
 152:..\..\..\lvgl\version_6.1.2\lvgl\src\lv_core/lv_refr.c **** void lv_refr_set_disp_refreshing(lv_disp_t * disp)
 153:..\..\..\lvgl\version_6.1.2\lvgl\src\lv_core/lv_refr.c **** {
 506              		.loc 2 153 0
 507              		.cfi_startproc
 508              		@ args = 0, pretend = 0, frame = 8
 509              		@ frame_needed = 1, uses_anonymous_args = 0
 510              		@ link register save eliminated.
 511 0000 80B4     		push	{r7}
 512              		.cfi_def_cfa_offset 4
 513              		.cfi_offset 7, -4
 514 0002 83B0     		sub	sp, sp, #12
 515              		.cfi_def_cfa_offset 16
 516 0004 00AF     		add	r7, sp, #0
 517              		.cfi_def_cfa_register 7
 518 0006 7860     		str	r0, [r7, #4]
 154:..\..\..\lvgl\version_6.1.2\lvgl\src\lv_core/lv_refr.c ****     disp_refr = disp;
 519              		.loc 2 154 0
 520 0008 044A     		ldr	r2, .L33
 521 000a 7B68     		ldr	r3, [r7, #4]
 522 000c 1360     		str	r3, [r2]
 155:..\..\..\lvgl\version_6.1.2\lvgl\src\lv_core/lv_refr.c **** }
 523              		.loc 2 155 0
 524 000e 00BF     		nop
 525 0010 0C37     		adds	r7, r7, #12
 526              		.cfi_def_cfa_offset 4
 527 0012 BD46     		mov	sp, r7
 528              		.cfi_def_cfa_register 13
 529              		@ sp needed
 530 0014 5DF8047B 		ldr	r7, [sp], #4
 531              		.cfi_restore 7
 532              		.cfi_def_cfa_offset 0
 533 0018 7047     		bx	lr
 534              	.L34:
 535 001a 00BF     		.align	2
ARM GAS  C:\Users\tmj32\AppData\Local\Temp\cc8pVFHq.s 			page 15


 536              	.L33:
 537 001c 04000000 		.word	disp_refr
 538              		.cfi_endproc
 539              	.LFE39:
 540              		.size	lv_refr_set_disp_refreshing, .-lv_refr_set_disp_refreshing
 541              		.section	.text.lv_disp_refr_task,"ax",%progbits
 542              		.align	2
 543              		.global	lv_disp_refr_task
 544              		.thumb
 545              		.thumb_func
 546              		.type	lv_disp_refr_task, %function
 547              	lv_disp_refr_task:
 548              	.LFB40:
 156:..\..\..\lvgl\version_6.1.2\lvgl\src\lv_core/lv_refr.c **** 
 157:..\..\..\lvgl\version_6.1.2\lvgl\src\lv_core/lv_refr.c **** /**
 158:..\..\..\lvgl\version_6.1.2\lvgl\src\lv_core/lv_refr.c ****  * Called periodically to handle the refreshing
 159:..\..\..\lvgl\version_6.1.2\lvgl\src\lv_core/lv_refr.c ****  * @param task pointer to the task itself
 160:..\..\..\lvgl\version_6.1.2\lvgl\src\lv_core/lv_refr.c ****  */
 161:..\..\..\lvgl\version_6.1.2\lvgl\src\lv_core/lv_refr.c **** void lv_disp_refr_task(lv_task_t * task)
 162:..\..\..\lvgl\version_6.1.2\lvgl\src\lv_core/lv_refr.c **** {
 549              		.loc 2 162 0
 550              		.cfi_startproc
 551              		@ args = 0, pretend = 0, frame = 40
 552              		@ frame_needed = 1, uses_anonymous_args = 0
 553 0000 B0B5     		push	{r4, r5, r7, lr}
 554              		.cfi_def_cfa_offset 16
 555              		.cfi_offset 4, -16
 556              		.cfi_offset 5, -12
 557              		.cfi_offset 7, -8
 558              		.cfi_offset 14, -4
 559 0002 8AB0     		sub	sp, sp, #40
 560              		.cfi_def_cfa_offset 56
 561 0004 00AF     		add	r7, sp, #0
 562              		.cfi_def_cfa_register 7
 563 0006 7860     		str	r0, [r7, #4]
 163:..\..\..\lvgl\version_6.1.2\lvgl\src\lv_core/lv_refr.c ****     LV_LOG_TRACE("lv_refr_task: started");
 164:..\..\..\lvgl\version_6.1.2\lvgl\src\lv_core/lv_refr.c **** 
 165:..\..\..\lvgl\version_6.1.2\lvgl\src\lv_core/lv_refr.c ****     uint32_t start = lv_tick_get();
 564              		.loc 2 165 0
 565 0008 FFF7FEFF 		bl	lv_tick_get
 566 000c F861     		str	r0, [r7, #28]
 166:..\..\..\lvgl\version_6.1.2\lvgl\src\lv_core/lv_refr.c **** 
 167:..\..\..\lvgl\version_6.1.2\lvgl\src\lv_core/lv_refr.c ****     disp_refr = task->user_data;
 567              		.loc 2 167 0
 568 000e 7B68     		ldr	r3, [r7, #4]
 569 0010 DB68     		ldr	r3, [r3, #12]
 570 0012 6D4A     		ldr	r2, .L46
 571 0014 1360     		str	r3, [r2]
 168:..\..\..\lvgl\version_6.1.2\lvgl\src\lv_core/lv_refr.c **** 
 169:..\..\..\lvgl\version_6.1.2\lvgl\src\lv_core/lv_refr.c ****     lv_refr_join_area();
 572              		.loc 2 169 0
 573 0016 FFF7FEFF 		bl	lv_refr_join_area
 170:..\..\..\lvgl\version_6.1.2\lvgl\src\lv_core/lv_refr.c **** 
 171:..\..\..\lvgl\version_6.1.2\lvgl\src\lv_core/lv_refr.c ****     lv_refr_areas();
 574              		.loc 2 171 0
 575 001a FFF7FEFF 		bl	lv_refr_areas
 172:..\..\..\lvgl\version_6.1.2\lvgl\src\lv_core/lv_refr.c **** 
ARM GAS  C:\Users\tmj32\AppData\Local\Temp\cc8pVFHq.s 			page 16


 173:..\..\..\lvgl\version_6.1.2\lvgl\src\lv_core/lv_refr.c ****     /*If refresh happened ...*/
 174:..\..\..\lvgl\version_6.1.2\lvgl\src\lv_core/lv_refr.c ****     if(disp_refr->inv_p != 0) {
 576              		.loc 2 174 0
 577 001e 6A4B     		ldr	r3, .L46
 578 0020 1B68     		ldr	r3, [r3]
 579 0022 B3F85C31 		ldrh	r3, [r3, #348]
 580 0026 C3F30903 		ubfx	r3, r3, #0, #10
 581 002a 9BB2     		uxth	r3, r3
 582 002c 002B     		cmp	r3, #0
 583 002e 00F0C480 		beq	.L36
 175:..\..\..\lvgl\version_6.1.2\lvgl\src\lv_core/lv_refr.c ****         /*In true double buffered mode copy the refreshed areas to the new VDB to keep it up to
 176:..\..\..\lvgl\version_6.1.2\lvgl\src\lv_core/lv_refr.c ****          * date*/
 177:..\..\..\lvgl\version_6.1.2\lvgl\src\lv_core/lv_refr.c ****         if(lv_disp_is_true_double_buf(disp_refr)) {
 584              		.loc 2 177 0
 585 0032 654B     		ldr	r3, .L46
 586 0034 1B68     		ldr	r3, [r3]
 587 0036 1846     		mov	r0, r3
 588 0038 FFF7FEFF 		bl	lv_disp_is_true_double_buf
 589 003c 0346     		mov	r3, r0
 590 003e 002B     		cmp	r3, #0
 591 0040 00F08D80 		beq	.L37
 592              	.LBB5:
 178:..\..\..\lvgl\version_6.1.2\lvgl\src\lv_core/lv_refr.c ****             lv_disp_buf_t * vdb = lv_disp_get_buf(disp_refr);
 593              		.loc 2 178 0
 594 0044 604B     		ldr	r3, .L46
 595 0046 1B68     		ldr	r3, [r3]
 596 0048 1846     		mov	r0, r3
 597 004a FFF7FEFF 		bl	lv_disp_get_buf
 598 004e B861     		str	r0, [r7, #24]
 179:..\..\..\lvgl\version_6.1.2\lvgl\src\lv_core/lv_refr.c **** 
 180:..\..\..\lvgl\version_6.1.2\lvgl\src\lv_core/lv_refr.c ****             /*Flush the content of the VDB*/
 181:..\..\..\lvgl\version_6.1.2\lvgl\src\lv_core/lv_refr.c ****             lv_refr_vdb_flush();
 599              		.loc 2 181 0
 600 0050 FFF7FEFF 		bl	lv_refr_vdb_flush
 182:..\..\..\lvgl\version_6.1.2\lvgl\src\lv_core/lv_refr.c **** 
 183:..\..\..\lvgl\version_6.1.2\lvgl\src\lv_core/lv_refr.c ****             /* With true double buffering the flushing should be only the address change of the
 184:..\..\..\lvgl\version_6.1.2\lvgl\src\lv_core/lv_refr.c ****              * current frame buffer. Wait until the address change is ready and copy the changed
 185:..\..\..\lvgl\version_6.1.2\lvgl\src\lv_core/lv_refr.c ****              * content to the other frame buffer (new active VDB) to keep the buffers synchronized*
 186:..\..\..\lvgl\version_6.1.2\lvgl\src\lv_core/lv_refr.c ****             while(vdb->flushing)
 601              		.loc 2 186 0
 602 0054 00BF     		nop
 603              	.L38:
 604              		.loc 2 186 0 is_stmt 0 discriminator 1
 605 0056 BB69     		ldr	r3, [r7, #24]
 606 0058 9B69     		ldr	r3, [r3, #24]
 607 005a C3F30003 		ubfx	r3, r3, #0, #1
 608 005e DBB2     		uxtb	r3, r3
 609 0060 002B     		cmp	r3, #0
 610 0062 F8D1     		bne	.L38
 187:..\..\..\lvgl\version_6.1.2\lvgl\src\lv_core/lv_refr.c ****                 ;
 188:..\..\..\lvgl\version_6.1.2\lvgl\src\lv_core/lv_refr.c **** 
 189:..\..\..\lvgl\version_6.1.2\lvgl\src\lv_core/lv_refr.c ****             uint8_t * buf_act = (uint8_t *)vdb->buf_act;
 611              		.loc 2 189 0 is_stmt 1
 612 0064 BB69     		ldr	r3, [r7, #24]
 613 0066 9B68     		ldr	r3, [r3, #8]
 614 0068 7B61     		str	r3, [r7, #20]
 190:..\..\..\lvgl\version_6.1.2\lvgl\src\lv_core/lv_refr.c ****             uint8_t * buf_ina = (uint8_t *)vdb->buf_act == vdb->buf1 ? vdb->buf2 : vdb->buf1;
ARM GAS  C:\Users\tmj32\AppData\Local\Temp\cc8pVFHq.s 			page 17


 615              		.loc 2 190 0
 616 006a BB69     		ldr	r3, [r7, #24]
 617 006c 9A68     		ldr	r2, [r3, #8]
 618 006e BB69     		ldr	r3, [r7, #24]
 619 0070 1B68     		ldr	r3, [r3]
 620 0072 9A42     		cmp	r2, r3
 621 0074 02D1     		bne	.L39
 622              		.loc 2 190 0 is_stmt 0 discriminator 1
 623 0076 BB69     		ldr	r3, [r7, #24]
 624 0078 5B68     		ldr	r3, [r3, #4]
 625 007a 01E0     		b	.L40
 626              	.L39:
 627              		.loc 2 190 0 discriminator 2
 628 007c BB69     		ldr	r3, [r7, #24]
 629 007e 1B68     		ldr	r3, [r3]
 630              	.L40:
 631              		.loc 2 190 0 discriminator 4
 632 0080 3B61     		str	r3, [r7, #16]
 191:..\..\..\lvgl\version_6.1.2\lvgl\src\lv_core/lv_refr.c **** 
 192:..\..\..\lvgl\version_6.1.2\lvgl\src\lv_core/lv_refr.c ****             lv_coord_t hres = lv_disp_get_hor_res(disp_refr);
 633              		.loc 2 192 0 is_stmt 1 discriminator 4
 634 0082 514B     		ldr	r3, .L46
 635 0084 1B68     		ldr	r3, [r3]
 636 0086 1846     		mov	r0, r3
 637 0088 FFF7FEFF 		bl	lv_disp_get_hor_res
 638 008c 0346     		mov	r3, r0
 639 008e FB81     		strh	r3, [r7, #14]	@ movhi
 193:..\..\..\lvgl\version_6.1.2\lvgl\src\lv_core/lv_refr.c ****             uint16_t a;
 194:..\..\..\lvgl\version_6.1.2\lvgl\src\lv_core/lv_refr.c ****             for(a = 0; a < disp_refr->inv_p; a++) {
 640              		.loc 2 194 0 discriminator 4
 641 0090 0023     		movs	r3, #0
 642 0092 FB84     		strh	r3, [r7, #38]	@ movhi
 643 0094 59E0     		b	.L41
 644              	.L45:
 195:..\..\..\lvgl\version_6.1.2\lvgl\src\lv_core/lv_refr.c ****                 if(disp_refr->inv_area_joined[a] == 0) {
 645              		.loc 2 195 0
 646 0096 4C4B     		ldr	r3, .L46
 647 0098 1A68     		ldr	r2, [r3]
 648 009a FB8C     		ldrh	r3, [r7, #38]
 649 009c 1344     		add	r3, r3, r2
 650 009e 93F83C31 		ldrb	r3, [r3, #316]	@ zero_extendqisi2
 651 00a2 002B     		cmp	r3, #0
 652 00a4 4ED1     		bne	.L42
 653              	.LBB6:
 196:..\..\..\lvgl\version_6.1.2\lvgl\src\lv_core/lv_refr.c ****                     lv_coord_t y;
 197:..\..\..\lvgl\version_6.1.2\lvgl\src\lv_core/lv_refr.c ****                     uint32_t start_offs =
 198:..\..\..\lvgl\version_6.1.2\lvgl\src\lv_core/lv_refr.c ****                         (hres * disp_refr->inv_areas[a].y1 + disp_refr->inv_areas[a].x1) * sizeof(l
 654              		.loc 2 198 0
 655 00a6 B7F90E20 		ldrsh	r2, [r7, #14]
 656 00aa 474B     		ldr	r3, .L46
 657 00ac 1968     		ldr	r1, [r3]
 658 00ae FB8C     		ldrh	r3, [r7, #38]
 659 00b0 0733     		adds	r3, r3, #7
 660 00b2 DB00     		lsls	r3, r3, #3
 661 00b4 0B44     		add	r3, r3, r1
 662 00b6 B3F90630 		ldrsh	r3, [r3, #6]
 663 00ba 03FB02F2 		mul	r2, r3, r2
ARM GAS  C:\Users\tmj32\AppData\Local\Temp\cc8pVFHq.s 			page 18


 664 00be 424B     		ldr	r3, .L46
 665 00c0 1968     		ldr	r1, [r3]
 666 00c2 FB8C     		ldrh	r3, [r7, #38]
 667 00c4 0733     		adds	r3, r3, #7
 668 00c6 DB00     		lsls	r3, r3, #3
 669 00c8 0B44     		add	r3, r3, r1
 670 00ca B3F90430 		ldrsh	r3, [r3, #4]
 671 00ce 1344     		add	r3, r3, r2
 197:..\..\..\lvgl\version_6.1.2\lvgl\src\lv_core/lv_refr.c ****                         (hres * disp_refr->inv_areas[a].y1 + disp_refr->inv_areas[a].x1) * sizeof(l
 672              		.loc 2 197 0
 673 00d0 9B00     		lsls	r3, r3, #2
 674 00d2 3B62     		str	r3, [r7, #32]
 199:..\..\..\lvgl\version_6.1.2\lvgl\src\lv_core/lv_refr.c ****                     uint32_t line_length = lv_area_get_width(&disp_refr->inv_areas[a]) * sizeof(lv_
 675              		.loc 2 199 0
 676 00d4 3C4B     		ldr	r3, .L46
 677 00d6 1A68     		ldr	r2, [r3]
 678 00d8 FB8C     		ldrh	r3, [r7, #38]
 679 00da 0733     		adds	r3, r3, #7
 680 00dc DB00     		lsls	r3, r3, #3
 681 00de 1344     		add	r3, r3, r2
 682 00e0 0433     		adds	r3, r3, #4
 683 00e2 1846     		mov	r0, r3
 684 00e4 FFF7FEFF 		bl	lv_area_get_width
 685 00e8 0346     		mov	r3, r0
 686 00ea 9B00     		lsls	r3, r3, #2
 687 00ec BB60     		str	r3, [r7, #8]
 200:..\..\..\lvgl\version_6.1.2\lvgl\src\lv_core/lv_refr.c **** 
 201:..\..\..\lvgl\version_6.1.2\lvgl\src\lv_core/lv_refr.c ****                     for(y = disp_refr->inv_areas[a].y1; y <= disp_refr->inv_areas[a].y2; y++) {
 688              		.loc 2 201 0
 689 00ee 364B     		ldr	r3, .L46
 690 00f0 1A68     		ldr	r2, [r3]
 691 00f2 FB8C     		ldrh	r3, [r7, #38]
 692 00f4 0733     		adds	r3, r3, #7
 693 00f6 DB00     		lsls	r3, r3, #3
 694 00f8 1344     		add	r3, r3, r2
 695 00fa DB88     		ldrh	r3, [r3, #6]	@ movhi
 696 00fc BB84     		strh	r3, [r7, #36]	@ movhi
 697 00fe 15E0     		b	.L43
 698              	.L44:
 202:..\..\..\lvgl\version_6.1.2\lvgl\src\lv_core/lv_refr.c ****                         memcpy(buf_act + start_offs, buf_ina + start_offs, line_length);
 699              		.loc 2 202 0 discriminator 3
 700 0100 7A69     		ldr	r2, [r7, #20]
 701 0102 3B6A     		ldr	r3, [r7, #32]
 702 0104 D018     		adds	r0, r2, r3
 703 0106 3A69     		ldr	r2, [r7, #16]
 704 0108 3B6A     		ldr	r3, [r7, #32]
 705 010a 1344     		add	r3, r3, r2
 706 010c BA68     		ldr	r2, [r7, #8]
 707 010e 1946     		mov	r1, r3
 708 0110 FFF7FEFF 		bl	memcpy
 203:..\..\..\lvgl\version_6.1.2\lvgl\src\lv_core/lv_refr.c ****                         start_offs += hres * sizeof(lv_color_t);
 709              		.loc 2 203 0 discriminator 3
 710 0114 B7F90E30 		ldrsh	r3, [r7, #14]
 711 0118 9B00     		lsls	r3, r3, #2
 712 011a 3A6A     		ldr	r2, [r7, #32]
 713 011c 1344     		add	r3, r3, r2
 714 011e 3B62     		str	r3, [r7, #32]
ARM GAS  C:\Users\tmj32\AppData\Local\Temp\cc8pVFHq.s 			page 19


 201:..\..\..\lvgl\version_6.1.2\lvgl\src\lv_core/lv_refr.c ****                         memcpy(buf_act + start_offs, buf_ina + start_offs, line_length);
 715              		.loc 2 201 0 discriminator 3
 716 0120 B7F92430 		ldrsh	r3, [r7, #36]
 717 0124 9BB2     		uxth	r3, r3
 718 0126 0133     		adds	r3, r3, #1
 719 0128 9BB2     		uxth	r3, r3
 720 012a BB84     		strh	r3, [r7, #36]	@ movhi
 721              	.L43:
 201:..\..\..\lvgl\version_6.1.2\lvgl\src\lv_core/lv_refr.c ****                         memcpy(buf_act + start_offs, buf_ina + start_offs, line_length);
 722              		.loc 2 201 0 is_stmt 0 discriminator 1
 723 012c 264B     		ldr	r3, .L46
 724 012e 1A68     		ldr	r2, [r3]
 725 0130 FB8C     		ldrh	r3, [r7, #38]
 726 0132 0733     		adds	r3, r3, #7
 727 0134 DB00     		lsls	r3, r3, #3
 728 0136 1344     		add	r3, r3, r2
 729 0138 B3F90A30 		ldrsh	r3, [r3, #10]
 730 013c B7F92420 		ldrsh	r2, [r7, #36]
 731 0140 9A42     		cmp	r2, r3
 732 0142 DDDD     		ble	.L44
 733              	.L42:
 734              	.LBE6:
 194:..\..\..\lvgl\version_6.1.2\lvgl\src\lv_core/lv_refr.c ****                 if(disp_refr->inv_area_joined[a] == 0) {
 735              		.loc 2 194 0 is_stmt 1 discriminator 2
 736 0144 FB8C     		ldrh	r3, [r7, #38]
 737 0146 0133     		adds	r3, r3, #1
 738 0148 FB84     		strh	r3, [r7, #38]	@ movhi
 739              	.L41:
 194:..\..\..\lvgl\version_6.1.2\lvgl\src\lv_core/lv_refr.c ****                 if(disp_refr->inv_area_joined[a] == 0) {
 740              		.loc 2 194 0 is_stmt 0 discriminator 1
 741 014a FB8C     		ldrh	r3, [r7, #38]
 742 014c 1E4A     		ldr	r2, .L46
 743 014e 1268     		ldr	r2, [r2]
 744 0150 B2F85C21 		ldrh	r2, [r2, #348]	@ movhi
 745 0154 C2F30902 		ubfx	r2, r2, #0, #10
 746 0158 92B2     		uxth	r2, r2
 747 015a 9342     		cmp	r3, r2
 748 015c 9BDB     		blt	.L45
 749              	.L37:
 750              	.LBE5:
 204:..\..\..\lvgl\version_6.1.2\lvgl\src\lv_core/lv_refr.c ****                     }
 205:..\..\..\lvgl\version_6.1.2\lvgl\src\lv_core/lv_refr.c ****                 }
 206:..\..\..\lvgl\version_6.1.2\lvgl\src\lv_core/lv_refr.c ****             }
 207:..\..\..\lvgl\version_6.1.2\lvgl\src\lv_core/lv_refr.c ****         } /*End of true double buffer handling*/
 208:..\..\..\lvgl\version_6.1.2\lvgl\src\lv_core/lv_refr.c **** 
 209:..\..\..\lvgl\version_6.1.2\lvgl\src\lv_core/lv_refr.c ****         /*Clean up*/
 210:..\..\..\lvgl\version_6.1.2\lvgl\src\lv_core/lv_refr.c ****         memset(disp_refr->inv_areas, 0, sizeof(disp_refr->inv_areas));
 751              		.loc 2 210 0 is_stmt 1
 752 015e 1A4B     		ldr	r3, .L46
 753 0160 1B68     		ldr	r3, [r3]
 754 0162 3C33     		adds	r3, r3, #60
 755 0164 4FF48072 		mov	r2, #256
 756 0168 0021     		movs	r1, #0
 757 016a 1846     		mov	r0, r3
 758 016c FFF7FEFF 		bl	memset
 211:..\..\..\lvgl\version_6.1.2\lvgl\src\lv_core/lv_refr.c ****         memset(disp_refr->inv_area_joined, 0, sizeof(disp_refr->inv_area_joined));
 759              		.loc 2 211 0
ARM GAS  C:\Users\tmj32\AppData\Local\Temp\cc8pVFHq.s 			page 20


 760 0170 154B     		ldr	r3, .L46
 761 0172 1B68     		ldr	r3, [r3]
 762 0174 03F59E73 		add	r3, r3, #316
 763 0178 2022     		movs	r2, #32
 764 017a 0021     		movs	r1, #0
 765 017c 1846     		mov	r0, r3
 766 017e FFF7FEFF 		bl	memset
 212:..\..\..\lvgl\version_6.1.2\lvgl\src\lv_core/lv_refr.c ****         disp_refr->inv_p = 0;
 767              		.loc 2 212 0
 768 0182 114B     		ldr	r3, .L46
 769 0184 1A68     		ldr	r2, [r3]
 770 0186 B2F85C31 		ldrh	r3, [r2, #348]	@ movhi
 771 018a 6FF30903 		bfc	r3, #0, #10
 772 018e A2F85C31 		strh	r3, [r2, #348]	@ movhi
 213:..\..\..\lvgl\version_6.1.2\lvgl\src\lv_core/lv_refr.c **** 
 214:..\..\..\lvgl\version_6.1.2\lvgl\src\lv_core/lv_refr.c ****         /*Call monitor cb if present*/
 215:..\..\..\lvgl\version_6.1.2\lvgl\src\lv_core/lv_refr.c ****         if(disp_refr->driver.monitor_cb) {
 773              		.loc 2 215 0
 774 0192 0D4B     		ldr	r3, .L46
 775 0194 1B68     		ldr	r3, [r3]
 776 0196 9B69     		ldr	r3, [r3, #24]
 777 0198 002B     		cmp	r3, #0
 778 019a 0ED0     		beq	.L36
 216:..\..\..\lvgl\version_6.1.2\lvgl\src\lv_core/lv_refr.c ****             disp_refr->driver.monitor_cb(&disp_refr->driver, lv_tick_elaps(start), px_num);
 779              		.loc 2 216 0
 780 019c 0A4B     		ldr	r3, .L46
 781 019e 1B68     		ldr	r3, [r3]
 782 01a0 9C69     		ldr	r4, [r3, #24]
 783 01a2 094B     		ldr	r3, .L46
 784 01a4 1B68     		ldr	r3, [r3]
 785 01a6 1D46     		mov	r5, r3
 786 01a8 F869     		ldr	r0, [r7, #28]
 787 01aa FFF7FEFF 		bl	lv_tick_elaps
 788 01ae 0146     		mov	r1, r0
 789 01b0 064B     		ldr	r3, .L46+4
 790 01b2 1B68     		ldr	r3, [r3]
 791 01b4 1A46     		mov	r2, r3
 792 01b6 2846     		mov	r0, r5
 793 01b8 A047     		blx	r4
 794              	.L36:
 217:..\..\..\lvgl\version_6.1.2\lvgl\src\lv_core/lv_refr.c ****         }
 218:..\..\..\lvgl\version_6.1.2\lvgl\src\lv_core/lv_refr.c ****     }
 219:..\..\..\lvgl\version_6.1.2\lvgl\src\lv_core/lv_refr.c **** 
 220:..\..\..\lvgl\version_6.1.2\lvgl\src\lv_core/lv_refr.c ****     lv_draw_free_buf();
 795              		.loc 2 220 0
 796 01ba FFF7FEFF 		bl	lv_draw_free_buf
 221:..\..\..\lvgl\version_6.1.2\lvgl\src\lv_core/lv_refr.c **** 
 222:..\..\..\lvgl\version_6.1.2\lvgl\src\lv_core/lv_refr.c ****     LV_LOG_TRACE("lv_refr_task: ready");
 223:..\..\..\lvgl\version_6.1.2\lvgl\src\lv_core/lv_refr.c **** }
 797              		.loc 2 223 0
 798 01be 00BF     		nop
 799 01c0 2837     		adds	r7, r7, #40
 800              		.cfi_def_cfa_offset 16
 801 01c2 BD46     		mov	sp, r7
 802              		.cfi_def_cfa_register 13
 803              		@ sp needed
 804 01c4 B0BD     		pop	{r4, r5, r7, pc}
ARM GAS  C:\Users\tmj32\AppData\Local\Temp\cc8pVFHq.s 			page 21


 805              	.L47:
 806 01c6 00BF     		.align	2
 807              	.L46:
 808 01c8 04000000 		.word	disp_refr
 809 01cc 00000000 		.word	px_num
 810              		.cfi_endproc
 811              	.LFE40:
 812              		.size	lv_disp_refr_task, .-lv_disp_refr_task
 813              		.section	.text.lv_refr_join_area,"ax",%progbits
 814              		.align	2
 815              		.thumb
 816              		.thumb_func
 817              		.type	lv_refr_join_area, %function
 818              	lv_refr_join_area:
 819              	.LFB41:
 224:..\..\..\lvgl\version_6.1.2\lvgl\src\lv_core/lv_refr.c **** 
 225:..\..\..\lvgl\version_6.1.2\lvgl\src\lv_core/lv_refr.c **** /**********************
 226:..\..\..\lvgl\version_6.1.2\lvgl\src\lv_core/lv_refr.c ****  *   STATIC FUNCTIONS
 227:..\..\..\lvgl\version_6.1.2\lvgl\src\lv_core/lv_refr.c ****  **********************/
 228:..\..\..\lvgl\version_6.1.2\lvgl\src\lv_core/lv_refr.c **** 
 229:..\..\..\lvgl\version_6.1.2\lvgl\src\lv_core/lv_refr.c **** /**
 230:..\..\..\lvgl\version_6.1.2\lvgl\src\lv_core/lv_refr.c ****  * Join the areas which has got common parts
 231:..\..\..\lvgl\version_6.1.2\lvgl\src\lv_core/lv_refr.c ****  */
 232:..\..\..\lvgl\version_6.1.2\lvgl\src\lv_core/lv_refr.c **** static void lv_refr_join_area(void)
 233:..\..\..\lvgl\version_6.1.2\lvgl\src\lv_core/lv_refr.c **** {
 820              		.loc 2 233 0
 821              		.cfi_startproc
 822              		@ args = 0, pretend = 0, frame = 16
 823              		@ frame_needed = 1, uses_anonymous_args = 0
 824 0000 B0B5     		push	{r4, r5, r7, lr}
 825              		.cfi_def_cfa_offset 16
 826              		.cfi_offset 4, -16
 827              		.cfi_offset 5, -12
 828              		.cfi_offset 7, -8
 829              		.cfi_offset 14, -4
 830 0002 84B0     		sub	sp, sp, #16
 831              		.cfi_def_cfa_offset 32
 832 0004 00AF     		add	r7, sp, #0
 833              		.cfi_def_cfa_register 7
 234:..\..\..\lvgl\version_6.1.2\lvgl\src\lv_core/lv_refr.c ****     uint32_t join_from;
 235:..\..\..\lvgl\version_6.1.2\lvgl\src\lv_core/lv_refr.c ****     uint32_t join_in;
 236:..\..\..\lvgl\version_6.1.2\lvgl\src\lv_core/lv_refr.c ****     lv_area_t joined_area;
 237:..\..\..\lvgl\version_6.1.2\lvgl\src\lv_core/lv_refr.c ****     for(join_in = 0; join_in < disp_refr->inv_p; join_in++) {
 834              		.loc 2 237 0
 835 0006 0023     		movs	r3, #0
 836 0008 BB60     		str	r3, [r7, #8]
 837 000a 8AE0     		b	.L49
 838              	.L58:
 238:..\..\..\lvgl\version_6.1.2\lvgl\src\lv_core/lv_refr.c ****         if(disp_refr->inv_area_joined[join_in] != 0) continue;
 839              		.loc 2 238 0
 840 000c 4D4B     		ldr	r3, .L62
 841 000e 1A68     		ldr	r2, [r3]
 842 0010 BB68     		ldr	r3, [r7, #8]
 843 0012 1344     		add	r3, r3, r2
 844 0014 03F59E73 		add	r3, r3, #316
 845 0018 1B78     		ldrb	r3, [r3]	@ zero_extendqisi2
 846 001a 002B     		cmp	r3, #0
ARM GAS  C:\Users\tmj32\AppData\Local\Temp\cc8pVFHq.s 			page 22


 847 001c 7DD1     		bne	.L59
 239:..\..\..\lvgl\version_6.1.2\lvgl\src\lv_core/lv_refr.c **** 
 240:..\..\..\lvgl\version_6.1.2\lvgl\src\lv_core/lv_refr.c ****         /*Check all areas to join them in 'join_in'*/
 241:..\..\..\lvgl\version_6.1.2\lvgl\src\lv_core/lv_refr.c ****         for(join_from = 0; join_from < disp_refr->inv_p; join_from++) {
 848              		.loc 2 241 0
 849 001e 0023     		movs	r3, #0
 850 0020 FB60     		str	r3, [r7, #12]
 851 0022 6EE0     		b	.L52
 852              	.L57:
 242:..\..\..\lvgl\version_6.1.2\lvgl\src\lv_core/lv_refr.c ****             /*Handle only unjoined areas and ignore itself*/
 243:..\..\..\lvgl\version_6.1.2\lvgl\src\lv_core/lv_refr.c ****             if(disp_refr->inv_area_joined[join_from] != 0 || join_in == join_from) {
 853              		.loc 2 243 0
 854 0024 474B     		ldr	r3, .L62
 855 0026 1A68     		ldr	r2, [r3]
 856 0028 FB68     		ldr	r3, [r7, #12]
 857 002a 1344     		add	r3, r3, r2
 858 002c 03F59E73 		add	r3, r3, #316
 859 0030 1B78     		ldrb	r3, [r3]	@ zero_extendqisi2
 860 0032 002B     		cmp	r3, #0
 861 0034 5FD1     		bne	.L60
 862              		.loc 2 243 0 is_stmt 0 discriminator 1
 863 0036 BA68     		ldr	r2, [r7, #8]
 864 0038 FB68     		ldr	r3, [r7, #12]
 865 003a 9A42     		cmp	r2, r3
 866 003c 5BD0     		beq	.L60
 244:..\..\..\lvgl\version_6.1.2\lvgl\src\lv_core/lv_refr.c ****                 continue;
 245:..\..\..\lvgl\version_6.1.2\lvgl\src\lv_core/lv_refr.c ****             }
 246:..\..\..\lvgl\version_6.1.2\lvgl\src\lv_core/lv_refr.c **** 
 247:..\..\..\lvgl\version_6.1.2\lvgl\src\lv_core/lv_refr.c ****             /*Check if the areas are on each other*/
 248:..\..\..\lvgl\version_6.1.2\lvgl\src\lv_core/lv_refr.c ****             if(lv_area_is_on(&disp_refr->inv_areas[join_in], &disp_refr->inv_areas[join_from]) == f
 867              		.loc 2 248 0 is_stmt 1
 868 003e 414B     		ldr	r3, .L62
 869 0040 1A68     		ldr	r2, [r3]
 870 0042 BB68     		ldr	r3, [r7, #8]
 871 0044 0733     		adds	r3, r3, #7
 872 0046 DB00     		lsls	r3, r3, #3
 873 0048 1344     		add	r3, r3, r2
 874 004a 181D     		adds	r0, r3, #4
 875 004c 3D4B     		ldr	r3, .L62
 876 004e 1A68     		ldr	r2, [r3]
 877 0050 FB68     		ldr	r3, [r7, #12]
 878 0052 0733     		adds	r3, r3, #7
 879 0054 DB00     		lsls	r3, r3, #3
 880 0056 1344     		add	r3, r3, r2
 881 0058 0433     		adds	r3, r3, #4
 882 005a 1946     		mov	r1, r3
 883 005c FFF7FEFF 		bl	lv_area_is_on
 884 0060 0346     		mov	r3, r0
 885 0062 83F00103 		eor	r3, r3, #1
 886 0066 DBB2     		uxtb	r3, r3
 887 0068 002B     		cmp	r3, #0
 888 006a 46D1     		bne	.L61
 249:..\..\..\lvgl\version_6.1.2\lvgl\src\lv_core/lv_refr.c ****                 continue;
 250:..\..\..\lvgl\version_6.1.2\lvgl\src\lv_core/lv_refr.c ****             }
 251:..\..\..\lvgl\version_6.1.2\lvgl\src\lv_core/lv_refr.c **** 
 252:..\..\..\lvgl\version_6.1.2\lvgl\src\lv_core/lv_refr.c ****             lv_area_join(&joined_area, &disp_refr->inv_areas[join_in], &disp_refr->inv_areas[join_f
 889              		.loc 2 252 0
ARM GAS  C:\Users\tmj32\AppData\Local\Temp\cc8pVFHq.s 			page 23


 890 006c 354B     		ldr	r3, .L62
 891 006e 1A68     		ldr	r2, [r3]
 892 0070 BB68     		ldr	r3, [r7, #8]
 893 0072 0733     		adds	r3, r3, #7
 894 0074 DB00     		lsls	r3, r3, #3
 895 0076 1344     		add	r3, r3, r2
 896 0078 191D     		adds	r1, r3, #4
 897 007a 324B     		ldr	r3, .L62
 898 007c 1A68     		ldr	r2, [r3]
 899 007e FB68     		ldr	r3, [r7, #12]
 900 0080 0733     		adds	r3, r3, #7
 901 0082 DB00     		lsls	r3, r3, #3
 902 0084 1344     		add	r3, r3, r2
 903 0086 1A1D     		adds	r2, r3, #4
 904 0088 3B46     		mov	r3, r7
 905 008a 1846     		mov	r0, r3
 906 008c FFF7FEFF 		bl	lv_area_join
 253:..\..\..\lvgl\version_6.1.2\lvgl\src\lv_core/lv_refr.c **** 
 254:..\..\..\lvgl\version_6.1.2\lvgl\src\lv_core/lv_refr.c ****             /*Join two area only if the joined area size is smaller*/
 255:..\..\..\lvgl\version_6.1.2\lvgl\src\lv_core/lv_refr.c ****             if(lv_area_get_size(&joined_area) < (lv_area_get_size(&disp_refr->inv_areas[join_in]) +
 907              		.loc 2 255 0
 908 0090 3B46     		mov	r3, r7
 909 0092 1846     		mov	r0, r3
 910 0094 FFF7FEFF 		bl	lv_area_get_size
 911 0098 0446     		mov	r4, r0
 912 009a 2A4B     		ldr	r3, .L62
 913 009c 1A68     		ldr	r2, [r3]
 914 009e BB68     		ldr	r3, [r7, #8]
 915 00a0 0733     		adds	r3, r3, #7
 916 00a2 DB00     		lsls	r3, r3, #3
 917 00a4 1344     		add	r3, r3, r2
 918 00a6 0433     		adds	r3, r3, #4
 919 00a8 1846     		mov	r0, r3
 920 00aa FFF7FEFF 		bl	lv_area_get_size
 921 00ae 0546     		mov	r5, r0
 256:..\..\..\lvgl\version_6.1.2\lvgl\src\lv_core/lv_refr.c ****                                                  lv_area_get_size(&disp_refr->inv_areas[join_from])
 922              		.loc 2 256 0
 923 00b0 244B     		ldr	r3, .L62
 924 00b2 1A68     		ldr	r2, [r3]
 925 00b4 FB68     		ldr	r3, [r7, #12]
 926 00b6 0733     		adds	r3, r3, #7
 927 00b8 DB00     		lsls	r3, r3, #3
 928 00ba 1344     		add	r3, r3, r2
 929 00bc 0433     		adds	r3, r3, #4
 930 00be 1846     		mov	r0, r3
 931 00c0 FFF7FEFF 		bl	lv_area_get_size
 932 00c4 0346     		mov	r3, r0
 255:..\..\..\lvgl\version_6.1.2\lvgl\src\lv_core/lv_refr.c ****                                                  lv_area_get_size(&disp_refr->inv_areas[join_from])
 933              		.loc 2 255 0
 934 00c6 2B44     		add	r3, r3, r5
 935 00c8 9C42     		cmp	r4, r3
 936 00ca 17D2     		bcs	.L55
 257:..\..\..\lvgl\version_6.1.2\lvgl\src\lv_core/lv_refr.c ****                 lv_area_copy(&disp_refr->inv_areas[join_in], &joined_area);
 937              		.loc 2 257 0
 938 00cc 1D4B     		ldr	r3, .L62
 939 00ce 1A68     		ldr	r2, [r3]
 940 00d0 BB68     		ldr	r3, [r7, #8]
ARM GAS  C:\Users\tmj32\AppData\Local\Temp\cc8pVFHq.s 			page 24


 941 00d2 0733     		adds	r3, r3, #7
 942 00d4 DB00     		lsls	r3, r3, #3
 943 00d6 1344     		add	r3, r3, r2
 944 00d8 0433     		adds	r3, r3, #4
 945 00da 3A46     		mov	r2, r7
 946 00dc 1146     		mov	r1, r2
 947 00de 1846     		mov	r0, r3
 948 00e0 FFF7FEFF 		bl	lv_area_copy
 258:..\..\..\lvgl\version_6.1.2\lvgl\src\lv_core/lv_refr.c **** 
 259:..\..\..\lvgl\version_6.1.2\lvgl\src\lv_core/lv_refr.c ****                 /*Mark 'join_form' is joined into 'join_in'*/
 260:..\..\..\lvgl\version_6.1.2\lvgl\src\lv_core/lv_refr.c ****                 disp_refr->inv_area_joined[join_from] = 1;
 949              		.loc 2 260 0
 950 00e4 174B     		ldr	r3, .L62
 951 00e6 1A68     		ldr	r2, [r3]
 952 00e8 FB68     		ldr	r3, [r7, #12]
 953 00ea 1344     		add	r3, r3, r2
 954 00ec 03F59E73 		add	r3, r3, #316
 955 00f0 0122     		movs	r2, #1
 956 00f2 1A70     		strb	r2, [r3]
 957 00f4 02E0     		b	.L55
 958              	.L60:
 244:..\..\..\lvgl\version_6.1.2\lvgl\src\lv_core/lv_refr.c ****             }
 959              		.loc 2 244 0
 960 00f6 00BF     		nop
 961 00f8 00E0     		b	.L55
 962              	.L61:
 249:..\..\..\lvgl\version_6.1.2\lvgl\src\lv_core/lv_refr.c ****             }
 963              		.loc 2 249 0
 964 00fa 00BF     		nop
 965              	.L55:
 241:..\..\..\lvgl\version_6.1.2\lvgl\src\lv_core/lv_refr.c ****             /*Handle only unjoined areas and ignore itself*/
 966              		.loc 2 241 0 discriminator 2
 967 00fc FB68     		ldr	r3, [r7, #12]
 968 00fe 0133     		adds	r3, r3, #1
 969 0100 FB60     		str	r3, [r7, #12]
 970              	.L52:
 241:..\..\..\lvgl\version_6.1.2\lvgl\src\lv_core/lv_refr.c ****             /*Handle only unjoined areas and ignore itself*/
 971              		.loc 2 241 0 is_stmt 0 discriminator 1
 972 0102 104B     		ldr	r3, .L62
 973 0104 1B68     		ldr	r3, [r3]
 974 0106 B3F85C31 		ldrh	r3, [r3, #348]	@ movhi
 975 010a C3F30903 		ubfx	r3, r3, #0, #10
 976 010e 9BB2     		uxth	r3, r3
 977 0110 1A46     		mov	r2, r3
 978 0112 FB68     		ldr	r3, [r7, #12]
 979 0114 9A42     		cmp	r2, r3
 980 0116 85D8     		bhi	.L57
 981 0118 00E0     		b	.L51
 982              	.L59:
 238:..\..\..\lvgl\version_6.1.2\lvgl\src\lv_core/lv_refr.c **** 
 983              		.loc 2 238 0 is_stmt 1
 984 011a 00BF     		nop
 985              	.L51:
 237:..\..\..\lvgl\version_6.1.2\lvgl\src\lv_core/lv_refr.c ****         if(disp_refr->inv_area_joined[join_in] != 0) continue;
 986              		.loc 2 237 0 discriminator 2
 987 011c BB68     		ldr	r3, [r7, #8]
 988 011e 0133     		adds	r3, r3, #1
ARM GAS  C:\Users\tmj32\AppData\Local\Temp\cc8pVFHq.s 			page 25


 989 0120 BB60     		str	r3, [r7, #8]
 990              	.L49:
 237:..\..\..\lvgl\version_6.1.2\lvgl\src\lv_core/lv_refr.c ****         if(disp_refr->inv_area_joined[join_in] != 0) continue;
 991              		.loc 2 237 0 is_stmt 0 discriminator 1
 992 0122 084B     		ldr	r3, .L62
 993 0124 1B68     		ldr	r3, [r3]
 994 0126 B3F85C31 		ldrh	r3, [r3, #348]	@ movhi
 995 012a C3F30903 		ubfx	r3, r3, #0, #10
 996 012e 9BB2     		uxth	r3, r3
 997 0130 1A46     		mov	r2, r3
 998 0132 BB68     		ldr	r3, [r7, #8]
 999 0134 9A42     		cmp	r2, r3
 1000 0136 3FF669AF 		bhi	.L58
 261:..\..\..\lvgl\version_6.1.2\lvgl\src\lv_core/lv_refr.c ****             }
 262:..\..\..\lvgl\version_6.1.2\lvgl\src\lv_core/lv_refr.c ****         }
 263:..\..\..\lvgl\version_6.1.2\lvgl\src\lv_core/lv_refr.c ****     }
 264:..\..\..\lvgl\version_6.1.2\lvgl\src\lv_core/lv_refr.c **** }
 1001              		.loc 2 264 0 is_stmt 1
 1002 013a 00BF     		nop
 1003 013c 1037     		adds	r7, r7, #16
 1004              		.cfi_def_cfa_offset 16
 1005 013e BD46     		mov	sp, r7
 1006              		.cfi_def_cfa_register 13
 1007              		@ sp needed
 1008 0140 B0BD     		pop	{r4, r5, r7, pc}
 1009              	.L63:
 1010 0142 00BF     		.align	2
 1011              	.L62:
 1012 0144 04000000 		.word	disp_refr
 1013              		.cfi_endproc
 1014              	.LFE41:
 1015              		.size	lv_refr_join_area, .-lv_refr_join_area
 1016              		.section	.text.lv_refr_areas,"ax",%progbits
 1017              		.align	2
 1018              		.thumb
 1019              		.thumb_func
 1020              		.type	lv_refr_areas, %function
 1021              	lv_refr_areas:
 1022              	.LFB42:
 265:..\..\..\lvgl\version_6.1.2\lvgl\src\lv_core/lv_refr.c **** 
 266:..\..\..\lvgl\version_6.1.2\lvgl\src\lv_core/lv_refr.c **** /**
 267:..\..\..\lvgl\version_6.1.2\lvgl\src\lv_core/lv_refr.c ****  * Refresh the joined areas
 268:..\..\..\lvgl\version_6.1.2\lvgl\src\lv_core/lv_refr.c ****  */
 269:..\..\..\lvgl\version_6.1.2\lvgl\src\lv_core/lv_refr.c **** static void lv_refr_areas(void)
 270:..\..\..\lvgl\version_6.1.2\lvgl\src\lv_core/lv_refr.c **** {
 1023              		.loc 2 270 0
 1024              		.cfi_startproc
 1025              		@ args = 0, pretend = 0, frame = 8
 1026              		@ frame_needed = 1, uses_anonymous_args = 0
 1027 0000 80B5     		push	{r7, lr}
 1028              		.cfi_def_cfa_offset 8
 1029              		.cfi_offset 7, -8
 1030              		.cfi_offset 14, -4
 1031 0002 82B0     		sub	sp, sp, #8
 1032              		.cfi_def_cfa_offset 16
 1033 0004 00AF     		add	r7, sp, #0
 1034              		.cfi_def_cfa_register 7
ARM GAS  C:\Users\tmj32\AppData\Local\Temp\cc8pVFHq.s 			page 26


 271:..\..\..\lvgl\version_6.1.2\lvgl\src\lv_core/lv_refr.c ****     px_num = 0;
 1035              		.loc 2 271 0
 1036 0006 204B     		ldr	r3, .L68
 1037 0008 0022     		movs	r2, #0
 1038 000a 1A60     		str	r2, [r3]
 272:..\..\..\lvgl\version_6.1.2\lvgl\src\lv_core/lv_refr.c ****     uint32_t i;
 273:..\..\..\lvgl\version_6.1.2\lvgl\src\lv_core/lv_refr.c **** 
 274:..\..\..\lvgl\version_6.1.2\lvgl\src\lv_core/lv_refr.c ****     for(i = 0; i < disp_refr->inv_p; i++) {
 1039              		.loc 2 274 0
 1040 000c 0023     		movs	r3, #0
 1041 000e 7B60     		str	r3, [r7, #4]
 1042 0010 2AE0     		b	.L65
 1043              	.L67:
 275:..\..\..\lvgl\version_6.1.2\lvgl\src\lv_core/lv_refr.c ****         /*Refresh the unjoined areas*/
 276:..\..\..\lvgl\version_6.1.2\lvgl\src\lv_core/lv_refr.c ****         if(disp_refr->inv_area_joined[i] == 0) {
 1044              		.loc 2 276 0
 1045 0012 1E4B     		ldr	r3, .L68+4
 1046 0014 1A68     		ldr	r2, [r3]
 1047 0016 7B68     		ldr	r3, [r7, #4]
 1048 0018 1344     		add	r3, r3, r2
 1049 001a 03F59E73 		add	r3, r3, #316
 1050 001e 1B78     		ldrb	r3, [r3]	@ zero_extendqisi2
 1051 0020 002B     		cmp	r3, #0
 1052 0022 1ED1     		bne	.L66
 277:..\..\..\lvgl\version_6.1.2\lvgl\src\lv_core/lv_refr.c **** 
 278:..\..\..\lvgl\version_6.1.2\lvgl\src\lv_core/lv_refr.c ****             lv_refr_area(&disp_refr->inv_areas[i]);
 1053              		.loc 2 278 0
 1054 0024 194B     		ldr	r3, .L68+4
 1055 0026 1A68     		ldr	r2, [r3]
 1056 0028 7B68     		ldr	r3, [r7, #4]
 1057 002a 0733     		adds	r3, r3, #7
 1058 002c DB00     		lsls	r3, r3, #3
 1059 002e 1344     		add	r3, r3, r2
 1060 0030 0433     		adds	r3, r3, #4
 1061 0032 1846     		mov	r0, r3
 1062 0034 FFF7FEFF 		bl	lv_refr_area
 279:..\..\..\lvgl\version_6.1.2\lvgl\src\lv_core/lv_refr.c **** 
 280:..\..\..\lvgl\version_6.1.2\lvgl\src\lv_core/lv_refr.c ****             if(disp_refr->driver.monitor_cb) px_num += lv_area_get_size(&disp_refr->inv_areas[i]);
 1063              		.loc 2 280 0
 1064 0038 144B     		ldr	r3, .L68+4
 1065 003a 1B68     		ldr	r3, [r3]
 1066 003c 9B69     		ldr	r3, [r3, #24]
 1067 003e 002B     		cmp	r3, #0
 1068 0040 0FD0     		beq	.L66
 1069              		.loc 2 280 0 is_stmt 0 discriminator 1
 1070 0042 124B     		ldr	r3, .L68+4
 1071 0044 1A68     		ldr	r2, [r3]
 1072 0046 7B68     		ldr	r3, [r7, #4]
 1073 0048 0733     		adds	r3, r3, #7
 1074 004a DB00     		lsls	r3, r3, #3
 1075 004c 1344     		add	r3, r3, r2
 1076 004e 0433     		adds	r3, r3, #4
 1077 0050 1846     		mov	r0, r3
 1078 0052 FFF7FEFF 		bl	lv_area_get_size
 1079 0056 0246     		mov	r2, r0
 1080 0058 0B4B     		ldr	r3, .L68
 1081 005a 1B68     		ldr	r3, [r3]
ARM GAS  C:\Users\tmj32\AppData\Local\Temp\cc8pVFHq.s 			page 27


 1082 005c 1344     		add	r3, r3, r2
 1083 005e 0A4A     		ldr	r2, .L68
 1084 0060 1360     		str	r3, [r2]
 1085              	.L66:
 274:..\..\..\lvgl\version_6.1.2\lvgl\src\lv_core/lv_refr.c ****         /*Refresh the unjoined areas*/
 1086              		.loc 2 274 0 is_stmt 1 discriminator 2
 1087 0062 7B68     		ldr	r3, [r7, #4]
 1088 0064 0133     		adds	r3, r3, #1
 1089 0066 7B60     		str	r3, [r7, #4]
 1090              	.L65:
 274:..\..\..\lvgl\version_6.1.2\lvgl\src\lv_core/lv_refr.c ****         /*Refresh the unjoined areas*/
 1091              		.loc 2 274 0 is_stmt 0 discriminator 1
 1092 0068 084B     		ldr	r3, .L68+4
 1093 006a 1B68     		ldr	r3, [r3]
 1094 006c B3F85C31 		ldrh	r3, [r3, #348]	@ movhi
 1095 0070 C3F30903 		ubfx	r3, r3, #0, #10
 1096 0074 9BB2     		uxth	r3, r3
 1097 0076 1A46     		mov	r2, r3
 1098 0078 7B68     		ldr	r3, [r7, #4]
 1099 007a 9A42     		cmp	r2, r3
 1100 007c C9D8     		bhi	.L67
 281:..\..\..\lvgl\version_6.1.2\lvgl\src\lv_core/lv_refr.c ****         }
 282:..\..\..\lvgl\version_6.1.2\lvgl\src\lv_core/lv_refr.c ****     }
 283:..\..\..\lvgl\version_6.1.2\lvgl\src\lv_core/lv_refr.c **** }
 1101              		.loc 2 283 0 is_stmt 1
 1102 007e 00BF     		nop
 1103 0080 0837     		adds	r7, r7, #8
 1104              		.cfi_def_cfa_offset 8
 1105 0082 BD46     		mov	sp, r7
 1106              		.cfi_def_cfa_register 13
 1107              		@ sp needed
 1108 0084 80BD     		pop	{r7, pc}
 1109              	.L69:
 1110 0086 00BF     		.align	2
 1111              	.L68:
 1112 0088 00000000 		.word	px_num
 1113 008c 04000000 		.word	disp_refr
 1114              		.cfi_endproc
 1115              	.LFE42:
 1116              		.size	lv_refr_areas, .-lv_refr_areas
 1117              		.section	.text.lv_refr_area,"ax",%progbits
 1118              		.align	2
 1119              		.thumb
 1120              		.thumb_func
 1121              		.type	lv_refr_area, %function
 1122              	lv_refr_area:
 1123              	.LFB43:
 284:..\..\..\lvgl\version_6.1.2\lvgl\src\lv_core/lv_refr.c **** 
 285:..\..\..\lvgl\version_6.1.2\lvgl\src\lv_core/lv_refr.c **** /**
 286:..\..\..\lvgl\version_6.1.2\lvgl\src\lv_core/lv_refr.c ****  * Refresh an area if there is Virtual Display Buffer
 287:..\..\..\lvgl\version_6.1.2\lvgl\src\lv_core/lv_refr.c ****  * @param area_p  pointer to an area to refresh
 288:..\..\..\lvgl\version_6.1.2\lvgl\src\lv_core/lv_refr.c ****  */
 289:..\..\..\lvgl\version_6.1.2\lvgl\src\lv_core/lv_refr.c **** static void lv_refr_area(const lv_area_t * area_p)
 290:..\..\..\lvgl\version_6.1.2\lvgl\src\lv_core/lv_refr.c **** {
 1124              		.loc 2 290 0
 1125              		.cfi_startproc
 1126              		@ args = 0, pretend = 0, frame = 48
ARM GAS  C:\Users\tmj32\AppData\Local\Temp\cc8pVFHq.s 			page 28


 1127              		@ frame_needed = 1, uses_anonymous_args = 0
 1128 0000 90B5     		push	{r4, r7, lr}
 1129              		.cfi_def_cfa_offset 12
 1130              		.cfi_offset 4, -12
 1131              		.cfi_offset 7, -8
 1132              		.cfi_offset 14, -4
 1133 0002 8DB0     		sub	sp, sp, #52
 1134              		.cfi_def_cfa_offset 64
 1135 0004 00AF     		add	r7, sp, #0
 1136              		.cfi_def_cfa_register 7
 1137 0006 7860     		str	r0, [r7, #4]
 291:..\..\..\lvgl\version_6.1.2\lvgl\src\lv_core/lv_refr.c ****     /*True double buffering: there are two screen sized buffers. Just redraw directly into a
 292:..\..\..\lvgl\version_6.1.2\lvgl\src\lv_core/lv_refr.c ****      * buffer*/
 293:..\..\..\lvgl\version_6.1.2\lvgl\src\lv_core/lv_refr.c ****     if(lv_disp_is_true_double_buf(disp_refr)) {
 1138              		.loc 2 293 0
 1139 0008 7F4B     		ldr	r3, .L86
 1140 000a 1B68     		ldr	r3, [r3]
 1141 000c 1846     		mov	r0, r3
 1142 000e FFF7FEFF 		bl	lv_disp_is_true_double_buf
 1143 0012 0346     		mov	r3, r0
 1144 0014 002B     		cmp	r3, #0
 1145 0016 27D0     		beq	.L71
 1146              	.LBB7:
 294:..\..\..\lvgl\version_6.1.2\lvgl\src\lv_core/lv_refr.c ****         lv_disp_buf_t * vdb = lv_disp_get_buf(disp_refr);
 1147              		.loc 2 294 0
 1148 0018 7B4B     		ldr	r3, .L86
 1149 001a 1B68     		ldr	r3, [r3]
 1150 001c 1846     		mov	r0, r3
 1151 001e FFF7FEFF 		bl	lv_disp_get_buf
 1152 0022 3862     		str	r0, [r7, #32]
 295:..\..\..\lvgl\version_6.1.2\lvgl\src\lv_core/lv_refr.c ****         vdb->area.x1        = 0;
 1153              		.loc 2 295 0
 1154 0024 3B6A     		ldr	r3, [r7, #32]
 1155 0026 0022     		movs	r2, #0
 1156 0028 1A82     		strh	r2, [r3, #16]	@ movhi
 296:..\..\..\lvgl\version_6.1.2\lvgl\src\lv_core/lv_refr.c ****         vdb->area.x2        = lv_disp_get_hor_res(disp_refr) - 1;
 1157              		.loc 2 296 0
 1158 002a 774B     		ldr	r3, .L86
 1159 002c 1B68     		ldr	r3, [r3]
 1160 002e 1846     		mov	r0, r3
 1161 0030 FFF7FEFF 		bl	lv_disp_get_hor_res
 1162 0034 0346     		mov	r3, r0
 1163 0036 9BB2     		uxth	r3, r3
 1164 0038 013B     		subs	r3, r3, #1
 1165 003a 9BB2     		uxth	r3, r3
 1166 003c 1AB2     		sxth	r2, r3
 1167 003e 3B6A     		ldr	r3, [r7, #32]
 1168 0040 9A82     		strh	r2, [r3, #20]	@ movhi
 297:..\..\..\lvgl\version_6.1.2\lvgl\src\lv_core/lv_refr.c ****         vdb->area.y1        = 0;
 1169              		.loc 2 297 0
 1170 0042 3B6A     		ldr	r3, [r7, #32]
 1171 0044 0022     		movs	r2, #0
 1172 0046 5A82     		strh	r2, [r3, #18]	@ movhi
 298:..\..\..\lvgl\version_6.1.2\lvgl\src\lv_core/lv_refr.c ****         vdb->area.y2        = lv_disp_get_ver_res(disp_refr) - 1;
 1173              		.loc 2 298 0
 1174 0048 6F4B     		ldr	r3, .L86
 1175 004a 1B68     		ldr	r3, [r3]
ARM GAS  C:\Users\tmj32\AppData\Local\Temp\cc8pVFHq.s 			page 29


 1176 004c 1846     		mov	r0, r3
 1177 004e FFF7FEFF 		bl	lv_disp_get_ver_res
 1178 0052 0346     		mov	r3, r0
 1179 0054 9BB2     		uxth	r3, r3
 1180 0056 013B     		subs	r3, r3, #1
 1181 0058 9BB2     		uxth	r3, r3
 1182 005a 1AB2     		sxth	r2, r3
 1183 005c 3B6A     		ldr	r3, [r7, #32]
 1184 005e DA82     		strh	r2, [r3, #22]	@ movhi
 299:..\..\..\lvgl\version_6.1.2\lvgl\src\lv_core/lv_refr.c ****         lv_refr_area_part(area_p);
 1185              		.loc 2 299 0
 1186 0060 7868     		ldr	r0, [r7, #4]
 1187 0062 FFF7FEFF 		bl	lv_refr_area_part
 1188              	.LBE7:
 1189 0066 CBE0     		b	.L70
 1190              	.L71:
 1191              	.LBB8:
 300:..\..\..\lvgl\version_6.1.2\lvgl\src\lv_core/lv_refr.c ****     }
 301:..\..\..\lvgl\version_6.1.2\lvgl\src\lv_core/lv_refr.c ****     /*The buffer is smaller: refresh the area in parts*/
 302:..\..\..\lvgl\version_6.1.2\lvgl\src\lv_core/lv_refr.c ****     else {
 303:..\..\..\lvgl\version_6.1.2\lvgl\src\lv_core/lv_refr.c ****         lv_disp_buf_t * vdb = lv_disp_get_buf(disp_refr);
 1192              		.loc 2 303 0
 1193 0068 674B     		ldr	r3, .L86
 1194 006a 1B68     		ldr	r3, [r3]
 1195 006c 1846     		mov	r0, r3
 1196 006e FFF7FEFF 		bl	lv_disp_get_buf
 1197 0072 F861     		str	r0, [r7, #28]
 304:..\..\..\lvgl\version_6.1.2\lvgl\src\lv_core/lv_refr.c ****         /*Calculate the max row num*/
 305:..\..\..\lvgl\version_6.1.2\lvgl\src\lv_core/lv_refr.c ****         lv_coord_t w = lv_area_get_width(area_p);
 1198              		.loc 2 305 0
 1199 0074 7868     		ldr	r0, [r7, #4]
 1200 0076 FFF7FEFF 		bl	lv_area_get_width
 1201 007a 0346     		mov	r3, r0
 1202 007c 7B83     		strh	r3, [r7, #26]	@ movhi
 306:..\..\..\lvgl\version_6.1.2\lvgl\src\lv_core/lv_refr.c ****         lv_coord_t h = lv_area_get_height(area_p);
 1203              		.loc 2 306 0
 1204 007e 7868     		ldr	r0, [r7, #4]
 1205 0080 FFF7FEFF 		bl	lv_area_get_height
 1206 0084 0346     		mov	r3, r0
 1207 0086 3B83     		strh	r3, [r7, #24]	@ movhi
 307:..\..\..\lvgl\version_6.1.2\lvgl\src\lv_core/lv_refr.c ****         lv_coord_t y2 =
 308:..\..\..\lvgl\version_6.1.2\lvgl\src\lv_core/lv_refr.c ****             area_p->y2 >= lv_disp_get_ver_res(disp_refr) ? y2 = lv_disp_get_ver_res(disp_refr) - 1 
 1208              		.loc 2 308 0
 1209 0088 7B68     		ldr	r3, [r7, #4]
 1210 008a B3F90640 		ldrsh	r4, [r3, #6]
 1211 008e 5E4B     		ldr	r3, .L86
 1212 0090 1B68     		ldr	r3, [r3]
 1213 0092 1846     		mov	r0, r3
 1214 0094 FFF7FEFF 		bl	lv_disp_get_ver_res
 1215 0098 0346     		mov	r3, r0
 307:..\..\..\lvgl\version_6.1.2\lvgl\src\lv_core/lv_refr.c ****         lv_coord_t y2 =
 1216              		.loc 2 307 0
 1217 009a 9C42     		cmp	r4, r3
 1218 009c 0CDB     		blt	.L73
 1219              		.loc 2 308 0 discriminator 1
 1220 009e 5A4B     		ldr	r3, .L86
 1221 00a0 1B68     		ldr	r3, [r3]
ARM GAS  C:\Users\tmj32\AppData\Local\Temp\cc8pVFHq.s 			page 30


 1222 00a2 1846     		mov	r0, r3
 1223 00a4 FFF7FEFF 		bl	lv_disp_get_ver_res
 1224 00a8 0346     		mov	r3, r0
 1225 00aa 9BB2     		uxth	r3, r3
 1226 00ac 013B     		subs	r3, r3, #1
 1227 00ae 9BB2     		uxth	r3, r3
 1228 00b0 FB82     		strh	r3, [r7, #22]	@ movhi
 307:..\..\..\lvgl\version_6.1.2\lvgl\src\lv_core/lv_refr.c ****         lv_coord_t y2 =
 1229              		.loc 2 307 0 discriminator 1
 1230 00b2 B7F91630 		ldrsh	r3, [r7, #22]
 1231 00b6 02E0     		b	.L74
 1232              	.L73:
 307:..\..\..\lvgl\version_6.1.2\lvgl\src\lv_core/lv_refr.c ****         lv_coord_t y2 =
 1233              		.loc 2 307 0 is_stmt 0 discriminator 2
 1234 00b8 7B68     		ldr	r3, [r7, #4]
 1235 00ba B3F90630 		ldrsh	r3, [r3, #6]
 1236              	.L74:
 307:..\..\..\lvgl\version_6.1.2\lvgl\src\lv_core/lv_refr.c ****         lv_coord_t y2 =
 1237              		.loc 2 307 0 discriminator 4
 1238 00be FB82     		strh	r3, [r7, #22]	@ movhi
 309:..\..\..\lvgl\version_6.1.2\lvgl\src\lv_core/lv_refr.c **** 
 310:..\..\..\lvgl\version_6.1.2\lvgl\src\lv_core/lv_refr.c ****         int32_t max_row = (uint32_t)vdb->size / w;
 1239              		.loc 2 310 0 is_stmt 1 discriminator 4
 1240 00c0 FB69     		ldr	r3, [r7, #28]
 1241 00c2 DA68     		ldr	r2, [r3, #12]
 1242 00c4 B7F91A30 		ldrsh	r3, [r7, #26]
 1243 00c8 B2FBF3F3 		udiv	r3, r2, r3
 1244 00cc FB62     		str	r3, [r7, #44]
 311:..\..\..\lvgl\version_6.1.2\lvgl\src\lv_core/lv_refr.c **** 
 312:..\..\..\lvgl\version_6.1.2\lvgl\src\lv_core/lv_refr.c ****         if(max_row > h) max_row = h;
 1245              		.loc 2 312 0 discriminator 4
 1246 00ce B7F91820 		ldrsh	r2, [r7, #24]
 1247 00d2 FB6A     		ldr	r3, [r7, #44]
 1248 00d4 9A42     		cmp	r2, r3
 1249 00d6 02DA     		bge	.L75
 1250              		.loc 2 312 0 is_stmt 0 discriminator 1
 1251 00d8 B7F91830 		ldrsh	r3, [r7, #24]
 1252 00dc FB62     		str	r3, [r7, #44]
 1253              	.L75:
 313:..\..\..\lvgl\version_6.1.2\lvgl\src\lv_core/lv_refr.c **** 
 314:..\..\..\lvgl\version_6.1.2\lvgl\src\lv_core/lv_refr.c ****         /*Round down the lines of VDB if rounding is added*/
 315:..\..\..\lvgl\version_6.1.2\lvgl\src\lv_core/lv_refr.c ****         if(disp_refr->driver.rounder_cb) {
 1254              		.loc 2 315 0 is_stmt 1
 1255 00de 4A4B     		ldr	r3, .L86
 1256 00e0 1B68     		ldr	r3, [r3]
 1257 00e2 1B69     		ldr	r3, [r3, #16]
 1258 00e4 002B     		cmp	r3, #0
 1259 00e6 34D0     		beq	.L76
 1260              	.LBB9:
 316:..\..\..\lvgl\version_6.1.2\lvgl\src\lv_core/lv_refr.c ****             lv_area_t tmp;
 317:..\..\..\lvgl\version_6.1.2\lvgl\src\lv_core/lv_refr.c ****             tmp.x1 = 0;
 1261              		.loc 2 317 0
 1262 00e8 0023     		movs	r3, #0
 1263 00ea BB81     		strh	r3, [r7, #12]	@ movhi
 318:..\..\..\lvgl\version_6.1.2\lvgl\src\lv_core/lv_refr.c ****             tmp.x2 = 0;
 1264              		.loc 2 318 0
 1265 00ec 0023     		movs	r3, #0
ARM GAS  C:\Users\tmj32\AppData\Local\Temp\cc8pVFHq.s 			page 31


 1266 00ee 3B82     		strh	r3, [r7, #16]	@ movhi
 319:..\..\..\lvgl\version_6.1.2\lvgl\src\lv_core/lv_refr.c ****             tmp.y1 = 0;
 1267              		.loc 2 319 0
 1268 00f0 0023     		movs	r3, #0
 1269 00f2 FB81     		strh	r3, [r7, #14]	@ movhi
 320:..\..\..\lvgl\version_6.1.2\lvgl\src\lv_core/lv_refr.c **** 
 321:..\..\..\lvgl\version_6.1.2\lvgl\src\lv_core/lv_refr.c ****             lv_coord_t h_tmp = max_row;
 1270              		.loc 2 321 0
 1271 00f4 FB6A     		ldr	r3, [r7, #44]
 1272 00f6 7B85     		strh	r3, [r7, #42]	@ movhi
 1273              	.L79:
 322:..\..\..\lvgl\version_6.1.2\lvgl\src\lv_core/lv_refr.c ****             do {
 323:..\..\..\lvgl\version_6.1.2\lvgl\src\lv_core/lv_refr.c ****                 tmp.y2 = h_tmp - 1;
 1274              		.loc 2 323 0
 1275 00f8 7B8D     		ldrh	r3, [r7, #42]
 1276 00fa 013B     		subs	r3, r3, #1
 1277 00fc 9BB2     		uxth	r3, r3
 1278 00fe 1BB2     		sxth	r3, r3
 1279 0100 7B82     		strh	r3, [r7, #18]	@ movhi
 324:..\..\..\lvgl\version_6.1.2\lvgl\src\lv_core/lv_refr.c ****                 disp_refr->driver.rounder_cb(&disp_refr->driver, &tmp);
 1280              		.loc 2 324 0
 1281 0102 414B     		ldr	r3, .L86
 1282 0104 1B68     		ldr	r3, [r3]
 1283 0106 1B69     		ldr	r3, [r3, #16]
 1284 0108 3F4A     		ldr	r2, .L86
 1285 010a 1268     		ldr	r2, [r2]
 1286 010c 1046     		mov	r0, r2
 1287 010e 07F10C02 		add	r2, r7, #12
 1288 0112 1146     		mov	r1, r2
 1289 0114 9847     		blx	r3
 325:..\..\..\lvgl\version_6.1.2\lvgl\src\lv_core/lv_refr.c **** 
 326:..\..\..\lvgl\version_6.1.2\lvgl\src\lv_core/lv_refr.c ****                 /*If this height fits into `max_row` then fine*/
 327:..\..\..\lvgl\version_6.1.2\lvgl\src\lv_core/lv_refr.c ****                 if(lv_area_get_height(&tmp) <= max_row) break;
 1290              		.loc 2 327 0
 1291 0116 07F10C03 		add	r3, r7, #12
 1292 011a 1846     		mov	r0, r3
 1293 011c FFF7FEFF 		bl	lv_area_get_height
 1294 0120 0346     		mov	r3, r0
 1295 0122 1A46     		mov	r2, r3
 1296 0124 FB6A     		ldr	r3, [r7, #44]
 1297 0126 9A42     		cmp	r2, r3
 1298 0128 0ADD     		ble	.L84
 328:..\..\..\lvgl\version_6.1.2\lvgl\src\lv_core/lv_refr.c **** 
 329:..\..\..\lvgl\version_6.1.2\lvgl\src\lv_core/lv_refr.c ****                 /*Decrement the height of the area until it fits into `max_row` after rounding*/
 330:..\..\..\lvgl\version_6.1.2\lvgl\src\lv_core/lv_refr.c ****                 h_tmp--;
 1299              		.loc 2 330 0
 1300 012a B7F92A30 		ldrsh	r3, [r7, #42]
 1301 012e 9BB2     		uxth	r3, r3
 1302 0130 013B     		subs	r3, r3, #1
 1303 0132 9BB2     		uxth	r3, r3
 1304 0134 7B85     		strh	r3, [r7, #42]	@ movhi
 331:..\..\..\lvgl\version_6.1.2\lvgl\src\lv_core/lv_refr.c ****             } while(h_tmp > 0);
 1305              		.loc 2 331 0
 1306 0136 B7F92A30 		ldrsh	r3, [r7, #42]
 1307 013a 002B     		cmp	r3, #0
 1308 013c DCDC     		bgt	.L79
 1309 013e 00E0     		b	.L78
ARM GAS  C:\Users\tmj32\AppData\Local\Temp\cc8pVFHq.s 			page 32


 1310              	.L84:
 327:..\..\..\lvgl\version_6.1.2\lvgl\src\lv_core/lv_refr.c **** 
 1311              		.loc 2 327 0
 1312 0140 00BF     		nop
 1313              	.L78:
 332:..\..\..\lvgl\version_6.1.2\lvgl\src\lv_core/lv_refr.c **** 
 333:..\..\..\lvgl\version_6.1.2\lvgl\src\lv_core/lv_refr.c ****             if(h_tmp <= 0) {
 1314              		.loc 2 333 0
 1315 0142 B7F92A30 		ldrsh	r3, [r7, #42]
 1316 0146 002B     		cmp	r3, #0
 1317 0148 59DD     		ble	.L85
 334:..\..\..\lvgl\version_6.1.2\lvgl\src\lv_core/lv_refr.c ****                 LV_LOG_WARN("Can't set VDB height using the round function. (Wrong round_cb or to "
 335:..\..\..\lvgl\version_6.1.2\lvgl\src\lv_core/lv_refr.c ****                             "small VDB)");
 336:..\..\..\lvgl\version_6.1.2\lvgl\src\lv_core/lv_refr.c ****                 return;
 337:..\..\..\lvgl\version_6.1.2\lvgl\src\lv_core/lv_refr.c ****             } else {
 338:..\..\..\lvgl\version_6.1.2\lvgl\src\lv_core/lv_refr.c ****                 max_row = tmp.y2 + 1;
 1318              		.loc 2 338 0
 1319 014a B7F91230 		ldrsh	r3, [r7, #18]
 1320 014e 0133     		adds	r3, r3, #1
 1321 0150 FB62     		str	r3, [r7, #44]
 1322              	.L76:
 1323              	.LBE9:
 339:..\..\..\lvgl\version_6.1.2\lvgl\src\lv_core/lv_refr.c ****             }
 340:..\..\..\lvgl\version_6.1.2\lvgl\src\lv_core/lv_refr.c ****         }
 341:..\..\..\lvgl\version_6.1.2\lvgl\src\lv_core/lv_refr.c **** 
 342:..\..\..\lvgl\version_6.1.2\lvgl\src\lv_core/lv_refr.c ****         /*Always use the full row*/
 343:..\..\..\lvgl\version_6.1.2\lvgl\src\lv_core/lv_refr.c ****         lv_coord_t row;
 344:..\..\..\lvgl\version_6.1.2\lvgl\src\lv_core/lv_refr.c ****         lv_coord_t row_last = 0;
 1324              		.loc 2 344 0
 1325 0152 0023     		movs	r3, #0
 1326 0154 FB84     		strh	r3, [r7, #38]	@ movhi
 345:..\..\..\lvgl\version_6.1.2\lvgl\src\lv_core/lv_refr.c ****         for(row = area_p->y1; row + max_row - 1 <= y2; row += max_row) {
 1327              		.loc 2 345 0
 1328 0156 7B68     		ldr	r3, [r7, #4]
 1329 0158 5B88     		ldrh	r3, [r3, #2]	@ movhi
 1330 015a 3B85     		strh	r3, [r7, #40]	@ movhi
 1331 015c 2CE0     		b	.L81
 1332              	.L83:
 346:..\..\..\lvgl\version_6.1.2\lvgl\src\lv_core/lv_refr.c ****             /*Calc. the next y coordinates of VDB*/
 347:..\..\..\lvgl\version_6.1.2\lvgl\src\lv_core/lv_refr.c ****             vdb->area.x1 = area_p->x1;
 1333              		.loc 2 347 0
 1334 015e 7B68     		ldr	r3, [r7, #4]
 1335 0160 B3F90020 		ldrsh	r2, [r3]
 1336 0164 FB69     		ldr	r3, [r7, #28]
 1337 0166 1A82     		strh	r2, [r3, #16]	@ movhi
 348:..\..\..\lvgl\version_6.1.2\lvgl\src\lv_core/lv_refr.c ****             vdb->area.x2 = area_p->x2;
 1338              		.loc 2 348 0
 1339 0168 7B68     		ldr	r3, [r7, #4]
 1340 016a B3F90420 		ldrsh	r2, [r3, #4]
 1341 016e FB69     		ldr	r3, [r7, #28]
 1342 0170 9A82     		strh	r2, [r3, #20]	@ movhi
 349:..\..\..\lvgl\version_6.1.2\lvgl\src\lv_core/lv_refr.c ****             vdb->area.y1 = row;
 1343              		.loc 2 349 0
 1344 0172 FB69     		ldr	r3, [r7, #28]
 1345 0174 3A8D     		ldrh	r2, [r7, #40]	@ movhi
 1346 0176 5A82     		strh	r2, [r3, #18]	@ movhi
 350:..\..\..\lvgl\version_6.1.2\lvgl\src\lv_core/lv_refr.c ****             vdb->area.y2 = row + max_row - 1;
ARM GAS  C:\Users\tmj32\AppData\Local\Temp\cc8pVFHq.s 			page 33


 1347              		.loc 2 350 0
 1348 0178 FB6A     		ldr	r3, [r7, #44]
 1349 017a 9AB2     		uxth	r2, r3
 1350 017c 3B8D     		ldrh	r3, [r7, #40]
 1351 017e 1344     		add	r3, r3, r2
 1352 0180 9BB2     		uxth	r3, r3
 1353 0182 013B     		subs	r3, r3, #1
 1354 0184 9BB2     		uxth	r3, r3
 1355 0186 1AB2     		sxth	r2, r3
 1356 0188 FB69     		ldr	r3, [r7, #28]
 1357 018a DA82     		strh	r2, [r3, #22]	@ movhi
 351:..\..\..\lvgl\version_6.1.2\lvgl\src\lv_core/lv_refr.c ****             if(vdb->area.y2 > y2) vdb->area.y2 = y2;
 1358              		.loc 2 351 0
 1359 018c FB69     		ldr	r3, [r7, #28]
 1360 018e B3F91630 		ldrsh	r3, [r3, #22]
 1361 0192 B7F91620 		ldrsh	r2, [r7, #22]
 1362 0196 9A42     		cmp	r2, r3
 1363 0198 02DA     		bge	.L82
 1364              		.loc 2 351 0 is_stmt 0 discriminator 1
 1365 019a FB69     		ldr	r3, [r7, #28]
 1366 019c FA8A     		ldrh	r2, [r7, #22]	@ movhi
 1367 019e DA82     		strh	r2, [r3, #22]	@ movhi
 1368              	.L82:
 352:..\..\..\lvgl\version_6.1.2\lvgl\src\lv_core/lv_refr.c ****             row_last = vdb->area.y2;
 1369              		.loc 2 352 0 is_stmt 1 discriminator 2
 1370 01a0 FB69     		ldr	r3, [r7, #28]
 1371 01a2 DB8A     		ldrh	r3, [r3, #22]	@ movhi
 1372 01a4 FB84     		strh	r3, [r7, #38]	@ movhi
 353:..\..\..\lvgl\version_6.1.2\lvgl\src\lv_core/lv_refr.c ****             lv_refr_area_part(area_p);
 1373              		.loc 2 353 0 discriminator 2
 1374 01a6 7868     		ldr	r0, [r7, #4]
 1375 01a8 FFF7FEFF 		bl	lv_refr_area_part
 345:..\..\..\lvgl\version_6.1.2\lvgl\src\lv_core/lv_refr.c ****             /*Calc. the next y coordinates of VDB*/
 1376              		.loc 2 345 0 discriminator 2
 1377 01ac FB6A     		ldr	r3, [r7, #44]
 1378 01ae 9AB2     		uxth	r2, r3
 1379 01b0 3B8D     		ldrh	r3, [r7, #40]
 1380 01b2 1344     		add	r3, r3, r2
 1381 01b4 9BB2     		uxth	r3, r3
 1382 01b6 3B85     		strh	r3, [r7, #40]	@ movhi
 1383              	.L81:
 345:..\..\..\lvgl\version_6.1.2\lvgl\src\lv_core/lv_refr.c ****             /*Calc. the next y coordinates of VDB*/
 1384              		.loc 2 345 0 is_stmt 0 discriminator 1
 1385 01b8 B7F92820 		ldrsh	r2, [r7, #40]
 1386 01bc FB6A     		ldr	r3, [r7, #44]
 1387 01be 1344     		add	r3, r3, r2
 1388 01c0 5A1E     		subs	r2, r3, #1
 1389 01c2 B7F91630 		ldrsh	r3, [r7, #22]
 1390 01c6 9A42     		cmp	r2, r3
 1391 01c8 C9DD     		ble	.L83
 354:..\..\..\lvgl\version_6.1.2\lvgl\src\lv_core/lv_refr.c ****         }
 355:..\..\..\lvgl\version_6.1.2\lvgl\src\lv_core/lv_refr.c **** 
 356:..\..\..\lvgl\version_6.1.2\lvgl\src\lv_core/lv_refr.c ****         /*If the last y coordinates are not handled yet ...*/
 357:..\..\..\lvgl\version_6.1.2\lvgl\src\lv_core/lv_refr.c ****         if(y2 != row_last) {
 1392              		.loc 2 357 0 is_stmt 1
 1393 01ca B7F91620 		ldrsh	r2, [r7, #22]
 1394 01ce B7F92630 		ldrsh	r3, [r7, #38]
ARM GAS  C:\Users\tmj32\AppData\Local\Temp\cc8pVFHq.s 			page 34


 1395 01d2 9A42     		cmp	r2, r3
 1396 01d4 14D0     		beq	.L70
 358:..\..\..\lvgl\version_6.1.2\lvgl\src\lv_core/lv_refr.c ****             /*Calc. the next y coordinates of VDB*/
 359:..\..\..\lvgl\version_6.1.2\lvgl\src\lv_core/lv_refr.c ****             vdb->area.x1 = area_p->x1;
 1397              		.loc 2 359 0
 1398 01d6 7B68     		ldr	r3, [r7, #4]
 1399 01d8 B3F90020 		ldrsh	r2, [r3]
 1400 01dc FB69     		ldr	r3, [r7, #28]
 1401 01de 1A82     		strh	r2, [r3, #16]	@ movhi
 360:..\..\..\lvgl\version_6.1.2\lvgl\src\lv_core/lv_refr.c ****             vdb->area.x2 = area_p->x2;
 1402              		.loc 2 360 0
 1403 01e0 7B68     		ldr	r3, [r7, #4]
 1404 01e2 B3F90420 		ldrsh	r2, [r3, #4]
 1405 01e6 FB69     		ldr	r3, [r7, #28]
 1406 01e8 9A82     		strh	r2, [r3, #20]	@ movhi
 361:..\..\..\lvgl\version_6.1.2\lvgl\src\lv_core/lv_refr.c ****             vdb->area.y1 = row;
 1407              		.loc 2 361 0
 1408 01ea FB69     		ldr	r3, [r7, #28]
 1409 01ec 3A8D     		ldrh	r2, [r7, #40]	@ movhi
 1410 01ee 5A82     		strh	r2, [r3, #18]	@ movhi
 362:..\..\..\lvgl\version_6.1.2\lvgl\src\lv_core/lv_refr.c ****             vdb->area.y2 = y2;
 1411              		.loc 2 362 0
 1412 01f0 FB69     		ldr	r3, [r7, #28]
 1413 01f2 FA8A     		ldrh	r2, [r7, #22]	@ movhi
 1414 01f4 DA82     		strh	r2, [r3, #22]	@ movhi
 363:..\..\..\lvgl\version_6.1.2\lvgl\src\lv_core/lv_refr.c **** 
 364:..\..\..\lvgl\version_6.1.2\lvgl\src\lv_core/lv_refr.c ****             /*Refresh this part too*/
 365:..\..\..\lvgl\version_6.1.2\lvgl\src\lv_core/lv_refr.c ****             lv_refr_area_part(area_p);
 1415              		.loc 2 365 0
 1416 01f6 7868     		ldr	r0, [r7, #4]
 1417 01f8 FFF7FEFF 		bl	lv_refr_area_part
 1418 01fc 00E0     		b	.L70
 1419              	.L85:
 1420              	.LBB10:
 336:..\..\..\lvgl\version_6.1.2\lvgl\src\lv_core/lv_refr.c ****             } else {
 1421              		.loc 2 336 0
 1422 01fe 00BF     		nop
 1423              	.L70:
 1424              	.LBE10:
 1425              	.LBE8:
 366:..\..\..\lvgl\version_6.1.2\lvgl\src\lv_core/lv_refr.c ****         }
 367:..\..\..\lvgl\version_6.1.2\lvgl\src\lv_core/lv_refr.c ****     }
 368:..\..\..\lvgl\version_6.1.2\lvgl\src\lv_core/lv_refr.c **** }
 1426              		.loc 2 368 0
 1427 0200 3437     		adds	r7, r7, #52
 1428              		.cfi_def_cfa_offset 12
 1429 0202 BD46     		mov	sp, r7
 1430              		.cfi_def_cfa_register 13
 1431              		@ sp needed
 1432 0204 90BD     		pop	{r4, r7, pc}
 1433              	.L87:
 1434 0206 00BF     		.align	2
 1435              	.L86:
 1436 0208 04000000 		.word	disp_refr
 1437              		.cfi_endproc
 1438              	.LFE43:
 1439              		.size	lv_refr_area, .-lv_refr_area
ARM GAS  C:\Users\tmj32\AppData\Local\Temp\cc8pVFHq.s 			page 35


 1440              		.section	.text.lv_refr_area_part,"ax",%progbits
 1441              		.align	2
 1442              		.thumb
 1443              		.thumb_func
 1444              		.type	lv_refr_area_part, %function
 1445              	lv_refr_area_part:
 1446              	.LFB44:
 369:..\..\..\lvgl\version_6.1.2\lvgl\src\lv_core/lv_refr.c **** 
 370:..\..\..\lvgl\version_6.1.2\lvgl\src\lv_core/lv_refr.c **** /**
 371:..\..\..\lvgl\version_6.1.2\lvgl\src\lv_core/lv_refr.c ****  * Refresh a part of an area which is on the actual Virtual Display Buffer
 372:..\..\..\lvgl\version_6.1.2\lvgl\src\lv_core/lv_refr.c ****  * @param area_p pointer to an area to refresh
 373:..\..\..\lvgl\version_6.1.2\lvgl\src\lv_core/lv_refr.c ****  */
 374:..\..\..\lvgl\version_6.1.2\lvgl\src\lv_core/lv_refr.c **** static void lv_refr_area_part(const lv_area_t * area_p)
 375:..\..\..\lvgl\version_6.1.2\lvgl\src\lv_core/lv_refr.c **** {
 1447              		.loc 2 375 0
 1448              		.cfi_startproc
 1449              		@ args = 0, pretend = 0, frame = 24
 1450              		@ frame_needed = 1, uses_anonymous_args = 0
 1451 0000 80B5     		push	{r7, lr}
 1452              		.cfi_def_cfa_offset 8
 1453              		.cfi_offset 7, -8
 1454              		.cfi_offset 14, -4
 1455 0002 86B0     		sub	sp, sp, #24
 1456              		.cfi_def_cfa_offset 32
 1457 0004 00AF     		add	r7, sp, #0
 1458              		.cfi_def_cfa_register 7
 1459 0006 7860     		str	r0, [r7, #4]
 376:..\..\..\lvgl\version_6.1.2\lvgl\src\lv_core/lv_refr.c **** 
 377:..\..\..\lvgl\version_6.1.2\lvgl\src\lv_core/lv_refr.c ****     lv_disp_buf_t * vdb = lv_disp_get_buf(disp_refr);
 1460              		.loc 2 377 0
 1461 0008 2E4B     		ldr	r3, .L93
 1462 000a 1B68     		ldr	r3, [r3]
 1463 000c 1846     		mov	r0, r3
 1464 000e FFF7FEFF 		bl	lv_disp_get_buf
 1465 0012 7861     		str	r0, [r7, #20]
 378:..\..\..\lvgl\version_6.1.2\lvgl\src\lv_core/lv_refr.c **** 
 379:..\..\..\lvgl\version_6.1.2\lvgl\src\lv_core/lv_refr.c ****     /*In non double buffered mode, before rendering the next part wait until the previous image is
 380:..\..\..\lvgl\version_6.1.2\lvgl\src\lv_core/lv_refr.c ****      * flushed*/
 381:..\..\..\lvgl\version_6.1.2\lvgl\src\lv_core/lv_refr.c ****     if(lv_disp_is_double_buf(disp_refr) == false) {
 1466              		.loc 2 381 0
 1467 0014 2B4B     		ldr	r3, .L93
 1468 0016 1B68     		ldr	r3, [r3]
 1469 0018 1846     		mov	r0, r3
 1470 001a FFF7FEFF 		bl	lv_disp_is_double_buf
 1471 001e 0346     		mov	r3, r0
 1472 0020 83F00103 		eor	r3, r3, #1
 1473 0024 DBB2     		uxtb	r3, r3
 1474 0026 002B     		cmp	r3, #0
 1475 0028 07D0     		beq	.L89
 382:..\..\..\lvgl\version_6.1.2\lvgl\src\lv_core/lv_refr.c ****         while(vdb->flushing)
 1476              		.loc 2 382 0
 1477 002a 00BF     		nop
 1478              	.L90:
 1479              		.loc 2 382 0 is_stmt 0 discriminator 1
 1480 002c 7B69     		ldr	r3, [r7, #20]
 1481 002e 9B69     		ldr	r3, [r3, #24]
 1482 0030 C3F30003 		ubfx	r3, r3, #0, #1
ARM GAS  C:\Users\tmj32\AppData\Local\Temp\cc8pVFHq.s 			page 36


 1483 0034 DBB2     		uxtb	r3, r3
 1484 0036 002B     		cmp	r3, #0
 1485 0038 F8D1     		bne	.L90
 1486              	.L89:
 383:..\..\..\lvgl\version_6.1.2\lvgl\src\lv_core/lv_refr.c ****             ;
 384:..\..\..\lvgl\version_6.1.2\lvgl\src\lv_core/lv_refr.c ****     }
 385:..\..\..\lvgl\version_6.1.2\lvgl\src\lv_core/lv_refr.c **** 
 386:..\..\..\lvgl\version_6.1.2\lvgl\src\lv_core/lv_refr.c ****     lv_obj_t * top_p;
 387:..\..\..\lvgl\version_6.1.2\lvgl\src\lv_core/lv_refr.c **** 
 388:..\..\..\lvgl\version_6.1.2\lvgl\src\lv_core/lv_refr.c ****     /*Get the new mask from the original area and the act. VDB
 389:..\..\..\lvgl\version_6.1.2\lvgl\src\lv_core/lv_refr.c ****      It will be a part of 'area_p'*/
 390:..\..\..\lvgl\version_6.1.2\lvgl\src\lv_core/lv_refr.c ****     lv_area_t start_mask;
 391:..\..\..\lvgl\version_6.1.2\lvgl\src\lv_core/lv_refr.c ****     lv_area_intersect(&start_mask, area_p, &vdb->area);
 1487              		.loc 2 391 0 is_stmt 1
 1488 003a 7B69     		ldr	r3, [r7, #20]
 1489 003c 03F11002 		add	r2, r3, #16
 1490 0040 07F10803 		add	r3, r7, #8
 1491 0044 7968     		ldr	r1, [r7, #4]
 1492 0046 1846     		mov	r0, r3
 1493 0048 FFF7FEFF 		bl	lv_area_intersect
 392:..\..\..\lvgl\version_6.1.2\lvgl\src\lv_core/lv_refr.c **** 
 393:..\..\..\lvgl\version_6.1.2\lvgl\src\lv_core/lv_refr.c ****     /*Get the most top object which is not covered by others*/
 394:..\..\..\lvgl\version_6.1.2\lvgl\src\lv_core/lv_refr.c ****     top_p = lv_refr_get_top_obj(&start_mask, lv_disp_get_scr_act(disp_refr));
 1494              		.loc 2 394 0
 1495 004c 1D4B     		ldr	r3, .L93
 1496 004e 1B68     		ldr	r3, [r3]
 1497 0050 1846     		mov	r0, r3
 1498 0052 FFF7FEFF 		bl	lv_disp_get_scr_act
 1499 0056 0246     		mov	r2, r0
 1500 0058 07F10803 		add	r3, r7, #8
 1501 005c 1146     		mov	r1, r2
 1502 005e 1846     		mov	r0, r3
 1503 0060 FFF7FEFF 		bl	lv_refr_get_top_obj
 1504 0064 3861     		str	r0, [r7, #16]
 395:..\..\..\lvgl\version_6.1.2\lvgl\src\lv_core/lv_refr.c **** 
 396:..\..\..\lvgl\version_6.1.2\lvgl\src\lv_core/lv_refr.c ****     /*Do the refreshing from the top object*/
 397:..\..\..\lvgl\version_6.1.2\lvgl\src\lv_core/lv_refr.c ****     lv_refr_obj_and_children(top_p, &start_mask);
 1505              		.loc 2 397 0
 1506 0066 07F10803 		add	r3, r7, #8
 1507 006a 1946     		mov	r1, r3
 1508 006c 3869     		ldr	r0, [r7, #16]
 1509 006e FFF7FEFF 		bl	lv_refr_obj_and_children
 398:..\..\..\lvgl\version_6.1.2\lvgl\src\lv_core/lv_refr.c **** 
 399:..\..\..\lvgl\version_6.1.2\lvgl\src\lv_core/lv_refr.c ****     /*Also refresh top and sys layer unconditionally*/
 400:..\..\..\lvgl\version_6.1.2\lvgl\src\lv_core/lv_refr.c ****     lv_refr_obj_and_children(lv_disp_get_layer_top(disp_refr), &start_mask);
 1510              		.loc 2 400 0
 1511 0072 144B     		ldr	r3, .L93
 1512 0074 1B68     		ldr	r3, [r3]
 1513 0076 1846     		mov	r0, r3
 1514 0078 FFF7FEFF 		bl	lv_disp_get_layer_top
 1515 007c 0246     		mov	r2, r0
 1516 007e 07F10803 		add	r3, r7, #8
 1517 0082 1946     		mov	r1, r3
 1518 0084 1046     		mov	r0, r2
 1519 0086 FFF7FEFF 		bl	lv_refr_obj_and_children
 401:..\..\..\lvgl\version_6.1.2\lvgl\src\lv_core/lv_refr.c ****     lv_refr_obj_and_children(lv_disp_get_layer_sys(disp_refr), &start_mask);
 1520              		.loc 2 401 0
ARM GAS  C:\Users\tmj32\AppData\Local\Temp\cc8pVFHq.s 			page 37


 1521 008a 0E4B     		ldr	r3, .L93
 1522 008c 1B68     		ldr	r3, [r3]
 1523 008e 1846     		mov	r0, r3
 1524 0090 FFF7FEFF 		bl	lv_disp_get_layer_sys
 1525 0094 0246     		mov	r2, r0
 1526 0096 07F10803 		add	r3, r7, #8
 1527 009a 1946     		mov	r1, r3
 1528 009c 1046     		mov	r0, r2
 1529 009e FFF7FEFF 		bl	lv_refr_obj_and_children
 402:..\..\..\lvgl\version_6.1.2\lvgl\src\lv_core/lv_refr.c **** 
 403:..\..\..\lvgl\version_6.1.2\lvgl\src\lv_core/lv_refr.c ****     /* In true double buffered mode flush only once when all areas were rendered.
 404:..\..\..\lvgl\version_6.1.2\lvgl\src\lv_core/lv_refr.c ****      * In normal mode flush after every area */
 405:..\..\..\lvgl\version_6.1.2\lvgl\src\lv_core/lv_refr.c ****     if(lv_disp_is_true_double_buf(disp_refr) == false) {
 1530              		.loc 2 405 0
 1531 00a2 084B     		ldr	r3, .L93
 1532 00a4 1B68     		ldr	r3, [r3]
 1533 00a6 1846     		mov	r0, r3
 1534 00a8 FFF7FEFF 		bl	lv_disp_is_true_double_buf
 1535 00ac 0346     		mov	r3, r0
 1536 00ae 83F00103 		eor	r3, r3, #1
 1537 00b2 DBB2     		uxtb	r3, r3
 1538 00b4 002B     		cmp	r3, #0
 1539 00b6 01D0     		beq	.L92
 406:..\..\..\lvgl\version_6.1.2\lvgl\src\lv_core/lv_refr.c ****         lv_refr_vdb_flush();
 1540              		.loc 2 406 0
 1541 00b8 FFF7FEFF 		bl	lv_refr_vdb_flush
 1542              	.L92:
 407:..\..\..\lvgl\version_6.1.2\lvgl\src\lv_core/lv_refr.c ****     }
 408:..\..\..\lvgl\version_6.1.2\lvgl\src\lv_core/lv_refr.c **** }
 1543              		.loc 2 408 0
 1544 00bc 00BF     		nop
 1545 00be 1837     		adds	r7, r7, #24
 1546              		.cfi_def_cfa_offset 8
 1547 00c0 BD46     		mov	sp, r7
 1548              		.cfi_def_cfa_register 13
 1549              		@ sp needed
 1550 00c2 80BD     		pop	{r7, pc}
 1551              	.L94:
 1552              		.align	2
 1553              	.L93:
 1554 00c4 04000000 		.word	disp_refr
 1555              		.cfi_endproc
 1556              	.LFE44:
 1557              		.size	lv_refr_area_part, .-lv_refr_area_part
 1558              		.section	.text.lv_refr_get_top_obj,"ax",%progbits
 1559              		.align	2
 1560              		.thumb
 1561              		.thumb_func
 1562              		.type	lv_refr_get_top_obj, %function
 1563              	lv_refr_get_top_obj:
 1564              	.LFB45:
 409:..\..\..\lvgl\version_6.1.2\lvgl\src\lv_core/lv_refr.c **** 
 410:..\..\..\lvgl\version_6.1.2\lvgl\src\lv_core/lv_refr.c **** /**
 411:..\..\..\lvgl\version_6.1.2\lvgl\src\lv_core/lv_refr.c ****  * Search the most top object which fully covers an area
 412:..\..\..\lvgl\version_6.1.2\lvgl\src\lv_core/lv_refr.c ****  * @param area_p pointer to an area
 413:..\..\..\lvgl\version_6.1.2\lvgl\src\lv_core/lv_refr.c ****  * @param obj the first object to start the searching (typically a screen)
 414:..\..\..\lvgl\version_6.1.2\lvgl\src\lv_core/lv_refr.c ****  * @return
ARM GAS  C:\Users\tmj32\AppData\Local\Temp\cc8pVFHq.s 			page 38


 415:..\..\..\lvgl\version_6.1.2\lvgl\src\lv_core/lv_refr.c ****  */
 416:..\..\..\lvgl\version_6.1.2\lvgl\src\lv_core/lv_refr.c **** static lv_obj_t * lv_refr_get_top_obj(const lv_area_t * area_p, lv_obj_t * obj)
 417:..\..\..\lvgl\version_6.1.2\lvgl\src\lv_core/lv_refr.c **** {
 1565              		.loc 2 417 0
 1566              		.cfi_startproc
 1567              		@ args = 0, pretend = 0, frame = 24
 1568              		@ frame_needed = 1, uses_anonymous_args = 0
 1569 0000 80B5     		push	{r7, lr}
 1570              		.cfi_def_cfa_offset 8
 1571              		.cfi_offset 7, -8
 1572              		.cfi_offset 14, -4
 1573 0002 86B0     		sub	sp, sp, #24
 1574              		.cfi_def_cfa_offset 32
 1575 0004 00AF     		add	r7, sp, #0
 1576              		.cfi_def_cfa_register 7
 1577 0006 7860     		str	r0, [r7, #4]
 1578 0008 3960     		str	r1, [r7]
 418:..\..\..\lvgl\version_6.1.2\lvgl\src\lv_core/lv_refr.c ****     lv_obj_t * found_p = NULL;
 1579              		.loc 2 418 0
 1580 000a 0023     		movs	r3, #0
 1581 000c 7B61     		str	r3, [r7, #20]
 419:..\..\..\lvgl\version_6.1.2\lvgl\src\lv_core/lv_refr.c **** 
 420:..\..\..\lvgl\version_6.1.2\lvgl\src\lv_core/lv_refr.c ****     /*If this object is fully cover the draw area check the children too */
 421:..\..\..\lvgl\version_6.1.2\lvgl\src\lv_core/lv_refr.c ****     if(lv_area_is_in(area_p, &obj->coords) && obj->hidden == 0) {
 1582              		.loc 2 421 0
 1583 000e 3B68     		ldr	r3, [r7]
 1584 0010 1033     		adds	r3, r3, #16
 1585 0012 1946     		mov	r1, r3
 1586 0014 7868     		ldr	r0, [r7, #4]
 1587 0016 FFF7FEFF 		bl	lv_area_is_in
 1588 001a 0346     		mov	r3, r0
 1589 001c 002B     		cmp	r3, #0
 1590 001e 3ED0     		beq	.L96
 1591              		.loc 2 421 0 is_stmt 0 discriminator 1
 1592 0020 3B68     		ldr	r3, [r7]
 1593 0022 93F82C30 		ldrb	r3, [r3, #44]	@ zero_extendqisi2
 1594 0026 03F01003 		and	r3, r3, #16
 1595 002a DBB2     		uxtb	r3, r3
 1596 002c 002B     		cmp	r3, #0
 1597 002e 36D1     		bne	.L96
 1598              	.LBB11:
 422:..\..\..\lvgl\version_6.1.2\lvgl\src\lv_core/lv_refr.c ****         lv_obj_t * i;
 423:..\..\..\lvgl\version_6.1.2\lvgl\src\lv_core/lv_refr.c ****         LV_LL_READ(obj->child_ll, i)
 1599              		.loc 2 423 0 is_stmt 1
 1600 0030 3B68     		ldr	r3, [r7]
 1601 0032 0433     		adds	r3, r3, #4
 1602 0034 1846     		mov	r0, r3
 1603 0036 FFF7FEFF 		bl	lv_ll_get_head
 1604 003a 3861     		str	r0, [r7, #16]
 1605 003c 0EE0     		b	.L97
 1606              	.L100:
 424:..\..\..\lvgl\version_6.1.2\lvgl\src\lv_core/lv_refr.c ****         {
 425:..\..\..\lvgl\version_6.1.2\lvgl\src\lv_core/lv_refr.c ****             found_p = lv_refr_get_top_obj(area_p, i);
 1607              		.loc 2 425 0
 1608 003e 3969     		ldr	r1, [r7, #16]
 1609 0040 7868     		ldr	r0, [r7, #4]
 1610 0042 FFF7DDFF 		bl	lv_refr_get_top_obj
ARM GAS  C:\Users\tmj32\AppData\Local\Temp\cc8pVFHq.s 			page 39


 1611 0046 7861     		str	r0, [r7, #20]
 426:..\..\..\lvgl\version_6.1.2\lvgl\src\lv_core/lv_refr.c **** 
 427:..\..\..\lvgl\version_6.1.2\lvgl\src\lv_core/lv_refr.c ****             /*If a children is ok then break*/
 428:..\..\..\lvgl\version_6.1.2\lvgl\src\lv_core/lv_refr.c ****             if(found_p != NULL) {
 1612              		.loc 2 428 0
 1613 0048 7B69     		ldr	r3, [r7, #20]
 1614 004a 002B     		cmp	r3, #0
 1615 004c 0AD1     		bne	.L102
 423:..\..\..\lvgl\version_6.1.2\lvgl\src\lv_core/lv_refr.c ****         {
 1616              		.loc 2 423 0 discriminator 2
 1617 004e 3B68     		ldr	r3, [r7]
 1618 0050 0433     		adds	r3, r3, #4
 1619 0052 3969     		ldr	r1, [r7, #16]
 1620 0054 1846     		mov	r0, r3
 1621 0056 FFF7FEFF 		bl	lv_ll_get_next
 1622 005a 3861     		str	r0, [r7, #16]
 1623              	.L97:
 423:..\..\..\lvgl\version_6.1.2\lvgl\src\lv_core/lv_refr.c ****         {
 1624              		.loc 2 423 0 is_stmt 0 discriminator 1
 1625 005c 3B69     		ldr	r3, [r7, #16]
 1626 005e 002B     		cmp	r3, #0
 1627 0060 EDD1     		bne	.L100
 1628 0062 00E0     		b	.L99
 1629              	.L102:
 429:..\..\..\lvgl\version_6.1.2\lvgl\src\lv_core/lv_refr.c ****                 break;
 1630              		.loc 2 429 0 is_stmt 1
 1631 0064 00BF     		nop
 1632              	.L99:
 430:..\..\..\lvgl\version_6.1.2\lvgl\src\lv_core/lv_refr.c ****             }
 431:..\..\..\lvgl\version_6.1.2\lvgl\src\lv_core/lv_refr.c ****         }
 432:..\..\..\lvgl\version_6.1.2\lvgl\src\lv_core/lv_refr.c **** 
 433:..\..\..\lvgl\version_6.1.2\lvgl\src\lv_core/lv_refr.c ****         /*If no better children check this object*/
 434:..\..\..\lvgl\version_6.1.2\lvgl\src\lv_core/lv_refr.c ****         if(found_p == NULL) {
 1633              		.loc 2 434 0
 1634 0066 7B69     		ldr	r3, [r7, #20]
 1635 0068 002B     		cmp	r3, #0
 1636 006a 18D1     		bne	.L96
 1637              	.LBB12:
 435:..\..\..\lvgl\version_6.1.2\lvgl\src\lv_core/lv_refr.c ****             const lv_style_t * style = lv_obj_get_style(obj);
 1638              		.loc 2 435 0
 1639 006c 3868     		ldr	r0, [r7]
 1640 006e FFF7FEFF 		bl	lv_obj_get_style
 1641 0072 F860     		str	r0, [r7, #12]
 436:..\..\..\lvgl\version_6.1.2\lvgl\src\lv_core/lv_refr.c ****             if(style->body.opa == LV_OPA_COVER && obj->design_cb(obj, area_p, LV_DESIGN_COVER_CHK) 
 1642              		.loc 2 436 0
 1643 0074 FB68     		ldr	r3, [r7, #12]
 1644 0076 9B7B     		ldrb	r3, [r3, #14]	@ zero_extendqisi2
 1645 0078 FF2B     		cmp	r3, #255
 1646 007a 10D1     		bne	.L96
 1647              		.loc 2 436 0 is_stmt 0 discriminator 1
 1648 007c 3B68     		ldr	r3, [r7]
 1649 007e 1B6A     		ldr	r3, [r3, #32]
 1650 0080 0222     		movs	r2, #2
 1651 0082 7968     		ldr	r1, [r7, #4]
 1652 0084 3868     		ldr	r0, [r7]
 1653 0086 9847     		blx	r3
 1654 0088 0346     		mov	r3, r0
ARM GAS  C:\Users\tmj32\AppData\Local\Temp\cc8pVFHq.s 			page 40


 1655 008a 002B     		cmp	r3, #0
 1656 008c 07D0     		beq	.L96
 437:..\..\..\lvgl\version_6.1.2\lvgl\src\lv_core/lv_refr.c ****                lv_obj_get_opa_scale(obj) == LV_OPA_COVER) {
 1657              		.loc 2 437 0 is_stmt 1 discriminator 2
 1658 008e 3868     		ldr	r0, [r7]
 1659 0090 FFF7FEFF 		bl	lv_obj_get_opa_scale
 1660 0094 0346     		mov	r3, r0
 436:..\..\..\lvgl\version_6.1.2\lvgl\src\lv_core/lv_refr.c ****             if(style->body.opa == LV_OPA_COVER && obj->design_cb(obj, area_p, LV_DESIGN_COVER_CHK) 
 1661              		.loc 2 436 0 discriminator 2
 1662 0096 FF2B     		cmp	r3, #255
 1663 0098 01D1     		bne	.L96
 438:..\..\..\lvgl\version_6.1.2\lvgl\src\lv_core/lv_refr.c ****                 found_p = obj;
 1664              		.loc 2 438 0
 1665 009a 3B68     		ldr	r3, [r7]
 1666 009c 7B61     		str	r3, [r7, #20]
 1667              	.L96:
 1668              	.LBE12:
 1669              	.LBE11:
 439:..\..\..\lvgl\version_6.1.2\lvgl\src\lv_core/lv_refr.c ****             }
 440:..\..\..\lvgl\version_6.1.2\lvgl\src\lv_core/lv_refr.c ****         }
 441:..\..\..\lvgl\version_6.1.2\lvgl\src\lv_core/lv_refr.c ****     }
 442:..\..\..\lvgl\version_6.1.2\lvgl\src\lv_core/lv_refr.c **** 
 443:..\..\..\lvgl\version_6.1.2\lvgl\src\lv_core/lv_refr.c ****     return found_p;
 1670              		.loc 2 443 0
 1671 009e 7B69     		ldr	r3, [r7, #20]
 444:..\..\..\lvgl\version_6.1.2\lvgl\src\lv_core/lv_refr.c **** }
 1672              		.loc 2 444 0
 1673 00a0 1846     		mov	r0, r3
 1674 00a2 1837     		adds	r7, r7, #24
 1675              		.cfi_def_cfa_offset 8
 1676 00a4 BD46     		mov	sp, r7
 1677              		.cfi_def_cfa_register 13
 1678              		@ sp needed
 1679 00a6 80BD     		pop	{r7, pc}
 1680              		.cfi_endproc
 1681              	.LFE45:
 1682              		.size	lv_refr_get_top_obj, .-lv_refr_get_top_obj
 1683              		.section	.text.lv_refr_obj_and_children,"ax",%progbits
 1684              		.align	2
 1685              		.thumb
 1686              		.thumb_func
 1687              		.type	lv_refr_obj_and_children, %function
 1688              	lv_refr_obj_and_children:
 1689              	.LFB46:
 445:..\..\..\lvgl\version_6.1.2\lvgl\src\lv_core/lv_refr.c **** 
 446:..\..\..\lvgl\version_6.1.2\lvgl\src\lv_core/lv_refr.c **** /**
 447:..\..\..\lvgl\version_6.1.2\lvgl\src\lv_core/lv_refr.c ****  * Make the refreshing from an object. Draw all its children and the youngers too.
 448:..\..\..\lvgl\version_6.1.2\lvgl\src\lv_core/lv_refr.c ****  * @param top_p pointer to an objects. Start the drawing from it.
 449:..\..\..\lvgl\version_6.1.2\lvgl\src\lv_core/lv_refr.c ****  * @param mask_p pointer to an area, the objects will be drawn only here
 450:..\..\..\lvgl\version_6.1.2\lvgl\src\lv_core/lv_refr.c ****  */
 451:..\..\..\lvgl\version_6.1.2\lvgl\src\lv_core/lv_refr.c **** static void lv_refr_obj_and_children(lv_obj_t * top_p, const lv_area_t * mask_p)
 452:..\..\..\lvgl\version_6.1.2\lvgl\src\lv_core/lv_refr.c **** {
 1690              		.loc 2 452 0
 1691              		.cfi_startproc
 1692              		@ args = 0, pretend = 0, frame = 24
 1693              		@ frame_needed = 1, uses_anonymous_args = 0
 1694 0000 80B5     		push	{r7, lr}
ARM GAS  C:\Users\tmj32\AppData\Local\Temp\cc8pVFHq.s 			page 41


 1695              		.cfi_def_cfa_offset 8
 1696              		.cfi_offset 7, -8
 1697              		.cfi_offset 14, -4
 1698 0002 86B0     		sub	sp, sp, #24
 1699              		.cfi_def_cfa_offset 32
 1700 0004 00AF     		add	r7, sp, #0
 1701              		.cfi_def_cfa_register 7
 1702 0006 7860     		str	r0, [r7, #4]
 1703 0008 3960     		str	r1, [r7]
 453:..\..\..\lvgl\version_6.1.2\lvgl\src\lv_core/lv_refr.c ****     /* Normally always will be a top_obj (at least the screen)
 454:..\..\..\lvgl\version_6.1.2\lvgl\src\lv_core/lv_refr.c ****      * but in special cases (e.g. if the screen has alpha) it won't.
 455:..\..\..\lvgl\version_6.1.2\lvgl\src\lv_core/lv_refr.c ****      * In this case use the screen directly */
 456:..\..\..\lvgl\version_6.1.2\lvgl\src\lv_core/lv_refr.c ****     if(top_p == NULL) top_p = lv_disp_get_scr_act(disp_refr);
 1704              		.loc 2 456 0
 1705 000a 7B68     		ldr	r3, [r7, #4]
 1706 000c 002B     		cmp	r3, #0
 1707 000e 05D1     		bne	.L104
 1708              		.loc 2 456 0 is_stmt 0 discriminator 1
 1709 0010 1C4B     		ldr	r3, .L109
 1710 0012 1B68     		ldr	r3, [r3]
 1711 0014 1846     		mov	r0, r3
 1712 0016 FFF7FEFF 		bl	lv_disp_get_scr_act
 1713 001a 7860     		str	r0, [r7, #4]
 1714              	.L104:
 457:..\..\..\lvgl\version_6.1.2\lvgl\src\lv_core/lv_refr.c **** 
 458:..\..\..\lvgl\version_6.1.2\lvgl\src\lv_core/lv_refr.c ****     /*Refresh the top object and its children*/
 459:..\..\..\lvgl\version_6.1.2\lvgl\src\lv_core/lv_refr.c ****     lv_refr_obj(top_p, mask_p);
 1715              		.loc 2 459 0 is_stmt 1
 1716 001c 3968     		ldr	r1, [r7]
 1717 001e 7868     		ldr	r0, [r7, #4]
 1718 0020 FFF7FEFF 		bl	lv_refr_obj
 460:..\..\..\lvgl\version_6.1.2\lvgl\src\lv_core/lv_refr.c **** 
 461:..\..\..\lvgl\version_6.1.2\lvgl\src\lv_core/lv_refr.c ****     /*Draw the 'younger' sibling objects because they can be on top_obj */
 462:..\..\..\lvgl\version_6.1.2\lvgl\src\lv_core/lv_refr.c ****     lv_obj_t * par;
 463:..\..\..\lvgl\version_6.1.2\lvgl\src\lv_core/lv_refr.c ****     lv_obj_t * border_p = top_p;
 1719              		.loc 2 463 0
 1720 0024 7B68     		ldr	r3, [r7, #4]
 1721 0026 3B61     		str	r3, [r7, #16]
 464:..\..\..\lvgl\version_6.1.2\lvgl\src\lv_core/lv_refr.c **** 
 465:..\..\..\lvgl\version_6.1.2\lvgl\src\lv_core/lv_refr.c ****     par = lv_obj_get_parent(top_p);
 1722              		.loc 2 465 0
 1723 0028 7868     		ldr	r0, [r7, #4]
 1724 002a FFF7FEFF 		bl	lv_obj_get_parent
 1725 002e 7861     		str	r0, [r7, #20]
 466:..\..\..\lvgl\version_6.1.2\lvgl\src\lv_core/lv_refr.c **** 
 467:..\..\..\lvgl\version_6.1.2\lvgl\src\lv_core/lv_refr.c ****     /*Do until not reach the screen*/
 468:..\..\..\lvgl\version_6.1.2\lvgl\src\lv_core/lv_refr.c ****     while(par != NULL) {
 1726              		.loc 2 468 0
 1727 0030 21E0     		b	.L105
 1728              	.L108:
 1729              	.LBB13:
 469:..\..\..\lvgl\version_6.1.2\lvgl\src\lv_core/lv_refr.c ****         /*object before border_p has to be redrawn*/
 470:..\..\..\lvgl\version_6.1.2\lvgl\src\lv_core/lv_refr.c ****         lv_obj_t * i = lv_ll_get_prev(&(par->child_ll), border_p);
 1730              		.loc 2 470 0
 1731 0032 7B69     		ldr	r3, [r7, #20]
 1732 0034 0433     		adds	r3, r3, #4
 1733 0036 3969     		ldr	r1, [r7, #16]
ARM GAS  C:\Users\tmj32\AppData\Local\Temp\cc8pVFHq.s 			page 42


 1734 0038 1846     		mov	r0, r3
 1735 003a FFF7FEFF 		bl	lv_ll_get_prev
 1736 003e F860     		str	r0, [r7, #12]
 471:..\..\..\lvgl\version_6.1.2\lvgl\src\lv_core/lv_refr.c **** 
 472:..\..\..\lvgl\version_6.1.2\lvgl\src\lv_core/lv_refr.c ****         while(i != NULL) {
 1737              		.loc 2 472 0
 1738 0040 0AE0     		b	.L106
 1739              	.L107:
 473:..\..\..\lvgl\version_6.1.2\lvgl\src\lv_core/lv_refr.c ****             /*Refresh the objects*/
 474:..\..\..\lvgl\version_6.1.2\lvgl\src\lv_core/lv_refr.c ****             lv_refr_obj(i, mask_p);
 1740              		.loc 2 474 0
 1741 0042 3968     		ldr	r1, [r7]
 1742 0044 F868     		ldr	r0, [r7, #12]
 1743 0046 FFF7FEFF 		bl	lv_refr_obj
 475:..\..\..\lvgl\version_6.1.2\lvgl\src\lv_core/lv_refr.c ****             i = lv_ll_get_prev(&(par->child_ll), i);
 1744              		.loc 2 475 0
 1745 004a 7B69     		ldr	r3, [r7, #20]
 1746 004c 0433     		adds	r3, r3, #4
 1747 004e F968     		ldr	r1, [r7, #12]
 1748 0050 1846     		mov	r0, r3
 1749 0052 FFF7FEFF 		bl	lv_ll_get_prev
 1750 0056 F860     		str	r0, [r7, #12]
 1751              	.L106:
 472:..\..\..\lvgl\version_6.1.2\lvgl\src\lv_core/lv_refr.c ****             /*Refresh the objects*/
 1752              		.loc 2 472 0
 1753 0058 FB68     		ldr	r3, [r7, #12]
 1754 005a 002B     		cmp	r3, #0
 1755 005c F1D1     		bne	.L107
 476:..\..\..\lvgl\version_6.1.2\lvgl\src\lv_core/lv_refr.c ****         }
 477:..\..\..\lvgl\version_6.1.2\lvgl\src\lv_core/lv_refr.c **** 
 478:..\..\..\lvgl\version_6.1.2\lvgl\src\lv_core/lv_refr.c ****         /*Call the post draw design function of the parents of the to object*/
 479:..\..\..\lvgl\version_6.1.2\lvgl\src\lv_core/lv_refr.c ****         par->design_cb(par, mask_p, LV_DESIGN_DRAW_POST);
 1756              		.loc 2 479 0
 1757 005e 7B69     		ldr	r3, [r7, #20]
 1758 0060 1B6A     		ldr	r3, [r3, #32]
 1759 0062 0122     		movs	r2, #1
 1760 0064 3968     		ldr	r1, [r7]
 1761 0066 7869     		ldr	r0, [r7, #20]
 1762 0068 9847     		blx	r3
 480:..\..\..\lvgl\version_6.1.2\lvgl\src\lv_core/lv_refr.c **** 
 481:..\..\..\lvgl\version_6.1.2\lvgl\src\lv_core/lv_refr.c ****         /*The new border will be there last parents,
 482:..\..\..\lvgl\version_6.1.2\lvgl\src\lv_core/lv_refr.c ****          *so the 'younger' brothers of parent will be refreshed*/
 483:..\..\..\lvgl\version_6.1.2\lvgl\src\lv_core/lv_refr.c ****         border_p = par;
 1763              		.loc 2 483 0
 1764 006a 7B69     		ldr	r3, [r7, #20]
 1765 006c 3B61     		str	r3, [r7, #16]
 484:..\..\..\lvgl\version_6.1.2\lvgl\src\lv_core/lv_refr.c ****         /*Go a level deeper*/
 485:..\..\..\lvgl\version_6.1.2\lvgl\src\lv_core/lv_refr.c ****         par = lv_obj_get_parent(par);
 1766              		.loc 2 485 0
 1767 006e 7869     		ldr	r0, [r7, #20]
 1768 0070 FFF7FEFF 		bl	lv_obj_get_parent
 1769 0074 7861     		str	r0, [r7, #20]
 1770              	.L105:
 1771              	.LBE13:
 468:..\..\..\lvgl\version_6.1.2\lvgl\src\lv_core/lv_refr.c ****         /*object before border_p has to be redrawn*/
 1772              		.loc 2 468 0
 1773 0076 7B69     		ldr	r3, [r7, #20]
ARM GAS  C:\Users\tmj32\AppData\Local\Temp\cc8pVFHq.s 			page 43


 1774 0078 002B     		cmp	r3, #0
 1775 007a DAD1     		bne	.L108
 486:..\..\..\lvgl\version_6.1.2\lvgl\src\lv_core/lv_refr.c ****     }
 487:..\..\..\lvgl\version_6.1.2\lvgl\src\lv_core/lv_refr.c **** }
 1776              		.loc 2 487 0
 1777 007c 00BF     		nop
 1778 007e 1837     		adds	r7, r7, #24
 1779              		.cfi_def_cfa_offset 8
 1780 0080 BD46     		mov	sp, r7
 1781              		.cfi_def_cfa_register 13
 1782              		@ sp needed
 1783 0082 80BD     		pop	{r7, pc}
 1784              	.L110:
 1785              		.align	2
 1786              	.L109:
 1787 0084 04000000 		.word	disp_refr
 1788              		.cfi_endproc
 1789              	.LFE46:
 1790              		.size	lv_refr_obj_and_children, .-lv_refr_obj_and_children
 1791              		.section	.text.lv_refr_obj,"ax",%progbits
 1792              		.align	2
 1793              		.thumb
 1794              		.thumb_func
 1795              		.type	lv_refr_obj, %function
 1796              	lv_refr_obj:
 1797              	.LFB47:
 488:..\..\..\lvgl\version_6.1.2\lvgl\src\lv_core/lv_refr.c **** 
 489:..\..\..\lvgl\version_6.1.2\lvgl\src\lv_core/lv_refr.c **** /**
 490:..\..\..\lvgl\version_6.1.2\lvgl\src\lv_core/lv_refr.c ****  * Refresh an object an all of its children. (Called recursively)
 491:..\..\..\lvgl\version_6.1.2\lvgl\src\lv_core/lv_refr.c ****  * @param obj pointer to an object to refresh
 492:..\..\..\lvgl\version_6.1.2\lvgl\src\lv_core/lv_refr.c ****  * @param mask_ori_p pointer to an area, the objects will be drawn only here
 493:..\..\..\lvgl\version_6.1.2\lvgl\src\lv_core/lv_refr.c ****  */
 494:..\..\..\lvgl\version_6.1.2\lvgl\src\lv_core/lv_refr.c **** static void lv_refr_obj(lv_obj_t * obj, const lv_area_t * mask_ori_p)
 495:..\..\..\lvgl\version_6.1.2\lvgl\src\lv_core/lv_refr.c **** {
 1798              		.loc 2 495 0
 1799              		.cfi_startproc
 1800              		@ args = 0, pretend = 0, frame = 56
 1801              		@ frame_needed = 1, uses_anonymous_args = 0
 1802 0000 80B5     		push	{r7, lr}
 1803              		.cfi_def_cfa_offset 8
 1804              		.cfi_offset 7, -8
 1805              		.cfi_offset 14, -4
 1806 0002 8EB0     		sub	sp, sp, #56
 1807              		.cfi_def_cfa_offset 64
 1808 0004 00AF     		add	r7, sp, #0
 1809              		.cfi_def_cfa_register 7
 1810 0006 7860     		str	r0, [r7, #4]
 1811 0008 3960     		str	r1, [r7]
 496:..\..\..\lvgl\version_6.1.2\lvgl\src\lv_core/lv_refr.c ****     /*Do not refresh hidden objects*/
 497:..\..\..\lvgl\version_6.1.2\lvgl\src\lv_core/lv_refr.c ****     if(obj->hidden != 0) return;
 1812              		.loc 2 497 0
 1813 000a 7B68     		ldr	r3, [r7, #4]
 1814 000c 93F82C30 		ldrb	r3, [r3, #44]	@ zero_extendqisi2
 1815 0010 03F01003 		and	r3, r3, #16
 1816 0014 DBB2     		uxtb	r3, r3
 1817 0016 002B     		cmp	r3, #0
 1818 0018 40F0AC80 		bne	.L119
ARM GAS  C:\Users\tmj32\AppData\Local\Temp\cc8pVFHq.s 			page 44


 498:..\..\..\lvgl\version_6.1.2\lvgl\src\lv_core/lv_refr.c **** 
 499:..\..\..\lvgl\version_6.1.2\lvgl\src\lv_core/lv_refr.c ****     bool union_ok; /* Store the return value of area_union */
 500:..\..\..\lvgl\version_6.1.2\lvgl\src\lv_core/lv_refr.c ****     /* Truncate the original mask to the coordinates of the parent
 501:..\..\..\lvgl\version_6.1.2\lvgl\src\lv_core/lv_refr.c ****      * because the parent and its children are visible only here */
 502:..\..\..\lvgl\version_6.1.2\lvgl\src\lv_core/lv_refr.c ****     lv_area_t obj_mask;
 503:..\..\..\lvgl\version_6.1.2\lvgl\src\lv_core/lv_refr.c ****     lv_area_t obj_ext_mask;
 504:..\..\..\lvgl\version_6.1.2\lvgl\src\lv_core/lv_refr.c ****     lv_area_t obj_area;
 505:..\..\..\lvgl\version_6.1.2\lvgl\src\lv_core/lv_refr.c ****     lv_coord_t ext_size = obj->ext_draw_pad;
 1819              		.loc 2 505 0
 1820 001c 7B68     		ldr	r3, [r7, #4]
 1821 001e 1B8E     		ldrh	r3, [r3, #48]	@ movhi
 1822 0020 7B86     		strh	r3, [r7, #50]	@ movhi
 506:..\..\..\lvgl\version_6.1.2\lvgl\src\lv_core/lv_refr.c ****     lv_obj_get_coords(obj, &obj_area);
 1823              		.loc 2 506 0
 1824 0022 07F11803 		add	r3, r7, #24
 1825 0026 1946     		mov	r1, r3
 1826 0028 7868     		ldr	r0, [r7, #4]
 1827 002a FFF7FEFF 		bl	lv_obj_get_coords
 507:..\..\..\lvgl\version_6.1.2\lvgl\src\lv_core/lv_refr.c ****     obj_area.x1 -= ext_size;
 1828              		.loc 2 507 0
 1829 002e B7F91830 		ldrsh	r3, [r7, #24]
 1830 0032 9AB2     		uxth	r2, r3
 1831 0034 7B8E     		ldrh	r3, [r7, #50]
 1832 0036 D31A     		subs	r3, r2, r3
 1833 0038 9BB2     		uxth	r3, r3
 1834 003a 1BB2     		sxth	r3, r3
 1835 003c 3B83     		strh	r3, [r7, #24]	@ movhi
 508:..\..\..\lvgl\version_6.1.2\lvgl\src\lv_core/lv_refr.c ****     obj_area.y1 -= ext_size;
 1836              		.loc 2 508 0
 1837 003e B7F91A30 		ldrsh	r3, [r7, #26]
 1838 0042 9AB2     		uxth	r2, r3
 1839 0044 7B8E     		ldrh	r3, [r7, #50]
 1840 0046 D31A     		subs	r3, r2, r3
 1841 0048 9BB2     		uxth	r3, r3
 1842 004a 1BB2     		sxth	r3, r3
 1843 004c 7B83     		strh	r3, [r7, #26]	@ movhi
 509:..\..\..\lvgl\version_6.1.2\lvgl\src\lv_core/lv_refr.c ****     obj_area.x2 += ext_size;
 1844              		.loc 2 509 0
 1845 004e B7F91C30 		ldrsh	r3, [r7, #28]
 1846 0052 9AB2     		uxth	r2, r3
 1847 0054 7B8E     		ldrh	r3, [r7, #50]
 1848 0056 1344     		add	r3, r3, r2
 1849 0058 9BB2     		uxth	r3, r3
 1850 005a 1BB2     		sxth	r3, r3
 1851 005c BB83     		strh	r3, [r7, #28]	@ movhi
 510:..\..\..\lvgl\version_6.1.2\lvgl\src\lv_core/lv_refr.c ****     obj_area.y2 += ext_size;
 1852              		.loc 2 510 0
 1853 005e B7F91E30 		ldrsh	r3, [r7, #30]
 1854 0062 9AB2     		uxth	r2, r3
 1855 0064 7B8E     		ldrh	r3, [r7, #50]
 1856 0066 1344     		add	r3, r3, r2
 1857 0068 9BB2     		uxth	r3, r3
 1858 006a 1BB2     		sxth	r3, r3
 1859 006c FB83     		strh	r3, [r7, #30]	@ movhi
 511:..\..\..\lvgl\version_6.1.2\lvgl\src\lv_core/lv_refr.c ****     union_ok = lv_area_intersect(&obj_ext_mask, mask_ori_p, &obj_area);
 1860              		.loc 2 511 0
 1861 006e 07F11802 		add	r2, r7, #24
ARM GAS  C:\Users\tmj32\AppData\Local\Temp\cc8pVFHq.s 			page 45


 1862 0072 07F12003 		add	r3, r7, #32
 1863 0076 3968     		ldr	r1, [r7]
 1864 0078 1846     		mov	r0, r3
 1865 007a FFF7FEFF 		bl	lv_area_intersect
 1866 007e 0346     		mov	r3, r0
 1867 0080 87F83130 		strb	r3, [r7, #49]
 512:..\..\..\lvgl\version_6.1.2\lvgl\src\lv_core/lv_refr.c **** 
 513:..\..\..\lvgl\version_6.1.2\lvgl\src\lv_core/lv_refr.c ****     /*Draw the parent and its children only if they ore on 'mask_parent'*/
 514:..\..\..\lvgl\version_6.1.2\lvgl\src\lv_core/lv_refr.c ****     if(union_ok != false) {
 1868              		.loc 2 514 0
 1869 0084 97F83130 		ldrb	r3, [r7, #49]	@ zero_extendqisi2
 1870 0088 002B     		cmp	r3, #0
 1871 008a 74D0     		beq	.L111
 515:..\..\..\lvgl\version_6.1.2\lvgl\src\lv_core/lv_refr.c **** 
 516:..\..\..\lvgl\version_6.1.2\lvgl\src\lv_core/lv_refr.c ****         /* Redraw the object */
 517:..\..\..\lvgl\version_6.1.2\lvgl\src\lv_core/lv_refr.c ****         obj->design_cb(obj, &obj_ext_mask, LV_DESIGN_DRAW_MAIN);
 1872              		.loc 2 517 0
 1873 008c 7B68     		ldr	r3, [r7, #4]
 1874 008e 1B6A     		ldr	r3, [r3, #32]
 1875 0090 07F12001 		add	r1, r7, #32
 1876 0094 0022     		movs	r2, #0
 1877 0096 7868     		ldr	r0, [r7, #4]
 1878 0098 9847     		blx	r3
 518:..\..\..\lvgl\version_6.1.2\lvgl\src\lv_core/lv_refr.c **** 
 519:..\..\..\lvgl\version_6.1.2\lvgl\src\lv_core/lv_refr.c **** #if MASK_AREA_DEBUG
 520:..\..\..\lvgl\version_6.1.2\lvgl\src\lv_core/lv_refr.c ****         static lv_color_t debug_color = LV_COLOR_RED;
 521:..\..\..\lvgl\version_6.1.2\lvgl\src\lv_core/lv_refr.c ****         lv_draw_fill(&obj_ext_mask, &obj_ext_mask, debug_color, LV_OPA_50);
 522:..\..\..\lvgl\version_6.1.2\lvgl\src\lv_core/lv_refr.c ****         debug_color.full *= 17;
 523:..\..\..\lvgl\version_6.1.2\lvgl\src\lv_core/lv_refr.c ****         debug_color.full += 0xA1;
 524:..\..\..\lvgl\version_6.1.2\lvgl\src\lv_core/lv_refr.c **** #endif
 525:..\..\..\lvgl\version_6.1.2\lvgl\src\lv_core/lv_refr.c ****         /*Create a new 'obj_mask' without 'ext_size' because the children can't be visible there*/
 526:..\..\..\lvgl\version_6.1.2\lvgl\src\lv_core/lv_refr.c ****         lv_obj_get_coords(obj, &obj_area);
 1879              		.loc 2 526 0
 1880 009a 07F11803 		add	r3, r7, #24
 1881 009e 1946     		mov	r1, r3
 1882 00a0 7868     		ldr	r0, [r7, #4]
 1883 00a2 FFF7FEFF 		bl	lv_obj_get_coords
 527:..\..\..\lvgl\version_6.1.2\lvgl\src\lv_core/lv_refr.c ****         union_ok = lv_area_intersect(&obj_mask, mask_ori_p, &obj_area);
 1884              		.loc 2 527 0
 1885 00a6 07F11802 		add	r2, r7, #24
 1886 00aa 07F12803 		add	r3, r7, #40
 1887 00ae 3968     		ldr	r1, [r7]
 1888 00b0 1846     		mov	r0, r3
 1889 00b2 FFF7FEFF 		bl	lv_area_intersect
 1890 00b6 0346     		mov	r3, r0
 1891 00b8 87F83130 		strb	r3, [r7, #49]
 528:..\..\..\lvgl\version_6.1.2\lvgl\src\lv_core/lv_refr.c ****         if(union_ok != false) {
 1892              		.loc 2 528 0
 1893 00bc 97F83130 		ldrb	r3, [r7, #49]	@ zero_extendqisi2
 1894 00c0 002B     		cmp	r3, #0
 1895 00c2 4FD0     		beq	.L115
 1896              	.LBB14:
 529:..\..\..\lvgl\version_6.1.2\lvgl\src\lv_core/lv_refr.c ****             lv_area_t mask_child; /*Mask from obj and its child*/
 530:..\..\..\lvgl\version_6.1.2\lvgl\src\lv_core/lv_refr.c ****             lv_obj_t * child_p;
 531:..\..\..\lvgl\version_6.1.2\lvgl\src\lv_core/lv_refr.c ****             lv_area_t child_area;
 532:..\..\..\lvgl\version_6.1.2\lvgl\src\lv_core/lv_refr.c ****             LV_LL_READ_BACK(obj->child_ll, child_p)
 1897              		.loc 2 532 0
ARM GAS  C:\Users\tmj32\AppData\Local\Temp\cc8pVFHq.s 			page 46


 1898 00c4 7B68     		ldr	r3, [r7, #4]
 1899 00c6 0433     		adds	r3, r3, #4
 1900 00c8 1846     		mov	r0, r3
 1901 00ca FFF7FEFF 		bl	lv_ll_get_tail
 1902 00ce 7863     		str	r0, [r7, #52]
 1903 00d0 45E0     		b	.L116
 1904              	.L118:
 533:..\..\..\lvgl\version_6.1.2\lvgl\src\lv_core/lv_refr.c ****             {
 534:..\..\..\lvgl\version_6.1.2\lvgl\src\lv_core/lv_refr.c ****                 lv_obj_get_coords(child_p, &child_area);
 1905              		.loc 2 534 0
 1906 00d2 07F10803 		add	r3, r7, #8
 1907 00d6 1946     		mov	r1, r3
 1908 00d8 786B     		ldr	r0, [r7, #52]
 1909 00da FFF7FEFF 		bl	lv_obj_get_coords
 535:..\..\..\lvgl\version_6.1.2\lvgl\src\lv_core/lv_refr.c ****                 ext_size = child_p->ext_draw_pad;
 1910              		.loc 2 535 0
 1911 00de 7B6B     		ldr	r3, [r7, #52]
 1912 00e0 1B8E     		ldrh	r3, [r3, #48]	@ movhi
 1913 00e2 7B86     		strh	r3, [r7, #50]	@ movhi
 536:..\..\..\lvgl\version_6.1.2\lvgl\src\lv_core/lv_refr.c ****                 child_area.x1 -= ext_size;
 1914              		.loc 2 536 0
 1915 00e4 B7F90830 		ldrsh	r3, [r7, #8]
 1916 00e8 9AB2     		uxth	r2, r3
 1917 00ea 7B8E     		ldrh	r3, [r7, #50]
 1918 00ec D31A     		subs	r3, r2, r3
 1919 00ee 9BB2     		uxth	r3, r3
 1920 00f0 1BB2     		sxth	r3, r3
 1921 00f2 3B81     		strh	r3, [r7, #8]	@ movhi
 537:..\..\..\lvgl\version_6.1.2\lvgl\src\lv_core/lv_refr.c ****                 child_area.y1 -= ext_size;
 1922              		.loc 2 537 0
 1923 00f4 B7F90A30 		ldrsh	r3, [r7, #10]
 1924 00f8 9AB2     		uxth	r2, r3
 1925 00fa 7B8E     		ldrh	r3, [r7, #50]
 1926 00fc D31A     		subs	r3, r2, r3
 1927 00fe 9BB2     		uxth	r3, r3
 1928 0100 1BB2     		sxth	r3, r3
 1929 0102 7B81     		strh	r3, [r7, #10]	@ movhi
 538:..\..\..\lvgl\version_6.1.2\lvgl\src\lv_core/lv_refr.c ****                 child_area.x2 += ext_size;
 1930              		.loc 2 538 0
 1931 0104 B7F90C30 		ldrsh	r3, [r7, #12]
 1932 0108 9AB2     		uxth	r2, r3
 1933 010a 7B8E     		ldrh	r3, [r7, #50]
 1934 010c 1344     		add	r3, r3, r2
 1935 010e 9BB2     		uxth	r3, r3
 1936 0110 1BB2     		sxth	r3, r3
 1937 0112 BB81     		strh	r3, [r7, #12]	@ movhi
 539:..\..\..\lvgl\version_6.1.2\lvgl\src\lv_core/lv_refr.c ****                 child_area.y2 += ext_size;
 1938              		.loc 2 539 0
 1939 0114 B7F90E30 		ldrsh	r3, [r7, #14]
 1940 0118 9AB2     		uxth	r2, r3
 1941 011a 7B8E     		ldrh	r3, [r7, #50]
 1942 011c 1344     		add	r3, r3, r2
 1943 011e 9BB2     		uxth	r3, r3
 1944 0120 1BB2     		sxth	r3, r3
 1945 0122 FB81     		strh	r3, [r7, #14]	@ movhi
 540:..\..\..\lvgl\version_6.1.2\lvgl\src\lv_core/lv_refr.c ****                 /* Get the union (common parts) of original mask (from obj)
 541:..\..\..\lvgl\version_6.1.2\lvgl\src\lv_core/lv_refr.c ****                  * and its child */
ARM GAS  C:\Users\tmj32\AppData\Local\Temp\cc8pVFHq.s 			page 47


 542:..\..\..\lvgl\version_6.1.2\lvgl\src\lv_core/lv_refr.c ****                 union_ok = lv_area_intersect(&mask_child, &obj_mask, &child_area);
 1946              		.loc 2 542 0
 1947 0124 07F10802 		add	r2, r7, #8
 1948 0128 07F12801 		add	r1, r7, #40
 1949 012c 07F11003 		add	r3, r7, #16
 1950 0130 1846     		mov	r0, r3
 1951 0132 FFF7FEFF 		bl	lv_area_intersect
 1952 0136 0346     		mov	r3, r0
 1953 0138 87F83130 		strb	r3, [r7, #49]
 543:..\..\..\lvgl\version_6.1.2\lvgl\src\lv_core/lv_refr.c **** 
 544:..\..\..\lvgl\version_6.1.2\lvgl\src\lv_core/lv_refr.c ****                 /*If the parent and the child has common area then refresh the child */
 545:..\..\..\lvgl\version_6.1.2\lvgl\src\lv_core/lv_refr.c ****                 if(union_ok) {
 1954              		.loc 2 545 0
 1955 013c 97F83130 		ldrb	r3, [r7, #49]	@ zero_extendqisi2
 1956 0140 002B     		cmp	r3, #0
 1957 0142 05D0     		beq	.L117
 546:..\..\..\lvgl\version_6.1.2\lvgl\src\lv_core/lv_refr.c ****                     /*Refresh the next children*/
 547:..\..\..\lvgl\version_6.1.2\lvgl\src\lv_core/lv_refr.c ****                     lv_refr_obj(child_p, &mask_child);
 1958              		.loc 2 547 0
 1959 0144 07F11003 		add	r3, r7, #16
 1960 0148 1946     		mov	r1, r3
 1961 014a 786B     		ldr	r0, [r7, #52]
 1962 014c FFF758FF 		bl	lv_refr_obj
 1963              	.L117:
 532:..\..\..\lvgl\version_6.1.2\lvgl\src\lv_core/lv_refr.c ****             {
 1964              		.loc 2 532 0 discriminator 2
 1965 0150 7B68     		ldr	r3, [r7, #4]
 1966 0152 0433     		adds	r3, r3, #4
 1967 0154 796B     		ldr	r1, [r7, #52]
 1968 0156 1846     		mov	r0, r3
 1969 0158 FFF7FEFF 		bl	lv_ll_get_prev
 1970 015c 7863     		str	r0, [r7, #52]
 1971              	.L116:
 532:..\..\..\lvgl\version_6.1.2\lvgl\src\lv_core/lv_refr.c ****             {
 1972              		.loc 2 532 0 is_stmt 0 discriminator 1
 1973 015e 7B6B     		ldr	r3, [r7, #52]
 1974 0160 002B     		cmp	r3, #0
 1975 0162 B6D1     		bne	.L118
 1976              	.L115:
 1977              	.LBE14:
 548:..\..\..\lvgl\version_6.1.2\lvgl\src\lv_core/lv_refr.c ****                 }
 549:..\..\..\lvgl\version_6.1.2\lvgl\src\lv_core/lv_refr.c ****             }
 550:..\..\..\lvgl\version_6.1.2\lvgl\src\lv_core/lv_refr.c ****         }
 551:..\..\..\lvgl\version_6.1.2\lvgl\src\lv_core/lv_refr.c **** 
 552:..\..\..\lvgl\version_6.1.2\lvgl\src\lv_core/lv_refr.c ****         /* If all the children are redrawn make 'post draw' design */
 553:..\..\..\lvgl\version_6.1.2\lvgl\src\lv_core/lv_refr.c ****         obj->design_cb(obj, &obj_ext_mask, LV_DESIGN_DRAW_POST);
 1978              		.loc 2 553 0 is_stmt 1
 1979 0164 7B68     		ldr	r3, [r7, #4]
 1980 0166 1B6A     		ldr	r3, [r3, #32]
 1981 0168 07F12001 		add	r1, r7, #32
 1982 016c 0122     		movs	r2, #1
 1983 016e 7868     		ldr	r0, [r7, #4]
 1984 0170 9847     		blx	r3
 1985 0172 00E0     		b	.L111
 1986              	.L119:
 497:..\..\..\lvgl\version_6.1.2\lvgl\src\lv_core/lv_refr.c **** 
 1987              		.loc 2 497 0
ARM GAS  C:\Users\tmj32\AppData\Local\Temp\cc8pVFHq.s 			page 48


 1988 0174 00BF     		nop
 1989              	.L111:
 554:..\..\..\lvgl\version_6.1.2\lvgl\src\lv_core/lv_refr.c ****     }
 555:..\..\..\lvgl\version_6.1.2\lvgl\src\lv_core/lv_refr.c **** }
 1990              		.loc 2 555 0
 1991 0176 3837     		adds	r7, r7, #56
 1992              		.cfi_def_cfa_offset 8
 1993 0178 BD46     		mov	sp, r7
 1994              		.cfi_def_cfa_register 13
 1995              		@ sp needed
 1996 017a 80BD     		pop	{r7, pc}
 1997              		.cfi_endproc
 1998              	.LFE47:
 1999              		.size	lv_refr_obj, .-lv_refr_obj
 2000              		.section	.text.lv_refr_vdb_flush,"ax",%progbits
 2001              		.align	2
 2002              		.thumb
 2003              		.thumb_func
 2004              		.type	lv_refr_vdb_flush, %function
 2005              	lv_refr_vdb_flush:
 2006              	.LFB48:
 556:..\..\..\lvgl\version_6.1.2\lvgl\src\lv_core/lv_refr.c **** 
 557:..\..\..\lvgl\version_6.1.2\lvgl\src\lv_core/lv_refr.c **** /**
 558:..\..\..\lvgl\version_6.1.2\lvgl\src\lv_core/lv_refr.c ****  * Flush the content of the VDB
 559:..\..\..\lvgl\version_6.1.2\lvgl\src\lv_core/lv_refr.c ****  */
 560:..\..\..\lvgl\version_6.1.2\lvgl\src\lv_core/lv_refr.c **** static void lv_refr_vdb_flush(void)
 561:..\..\..\lvgl\version_6.1.2\lvgl\src\lv_core/lv_refr.c **** {
 2007              		.loc 2 561 0
 2008              		.cfi_startproc
 2009              		@ args = 0, pretend = 0, frame = 8
 2010              		@ frame_needed = 1, uses_anonymous_args = 0
 2011 0000 80B5     		push	{r7, lr}
 2012              		.cfi_def_cfa_offset 8
 2013              		.cfi_offset 7, -8
 2014              		.cfi_offset 14, -4
 2015 0002 82B0     		sub	sp, sp, #8
 2016              		.cfi_def_cfa_offset 16
 2017 0004 00AF     		add	r7, sp, #0
 2018              		.cfi_def_cfa_register 7
 562:..\..\..\lvgl\version_6.1.2\lvgl\src\lv_core/lv_refr.c ****     lv_disp_buf_t * vdb = lv_disp_get_buf(disp_refr);
 2019              		.loc 2 562 0
 2020 0006 234B     		ldr	r3, .L127
 2021 0008 1B68     		ldr	r3, [r3]
 2022 000a 1846     		mov	r0, r3
 2023 000c FFF7FEFF 		bl	lv_disp_get_buf
 2024 0010 7860     		str	r0, [r7, #4]
 563:..\..\..\lvgl\version_6.1.2\lvgl\src\lv_core/lv_refr.c **** 
 564:..\..\..\lvgl\version_6.1.2\lvgl\src\lv_core/lv_refr.c ****     /*In double buffered mode wait until the other buffer is flushed before flushing the current
 565:..\..\..\lvgl\version_6.1.2\lvgl\src\lv_core/lv_refr.c ****      * one*/
 566:..\..\..\lvgl\version_6.1.2\lvgl\src\lv_core/lv_refr.c ****     if(lv_disp_is_double_buf(disp_refr)) {
 2025              		.loc 2 566 0
 2026 0012 204B     		ldr	r3, .L127
 2027 0014 1B68     		ldr	r3, [r3]
 2028 0016 1846     		mov	r0, r3
 2029 0018 FFF7FEFF 		bl	lv_disp_is_double_buf
 2030 001c 0346     		mov	r3, r0
 2031 001e 002B     		cmp	r3, #0
ARM GAS  C:\Users\tmj32\AppData\Local\Temp\cc8pVFHq.s 			page 49


 2032 0020 07D0     		beq	.L121
 567:..\..\..\lvgl\version_6.1.2\lvgl\src\lv_core/lv_refr.c ****         while(vdb->flushing)
 2033              		.loc 2 567 0
 2034 0022 00BF     		nop
 2035              	.L122:
 2036              		.loc 2 567 0 is_stmt 0 discriminator 1
 2037 0024 7B68     		ldr	r3, [r7, #4]
 2038 0026 9B69     		ldr	r3, [r3, #24]
 2039 0028 C3F30003 		ubfx	r3, r3, #0, #1
 2040 002c DBB2     		uxtb	r3, r3
 2041 002e 002B     		cmp	r3, #0
 2042 0030 F8D1     		bne	.L122
 2043              	.L121:
 568:..\..\..\lvgl\version_6.1.2\lvgl\src\lv_core/lv_refr.c ****             ;
 569:..\..\..\lvgl\version_6.1.2\lvgl\src\lv_core/lv_refr.c ****     }
 570:..\..\..\lvgl\version_6.1.2\lvgl\src\lv_core/lv_refr.c **** 
 571:..\..\..\lvgl\version_6.1.2\lvgl\src\lv_core/lv_refr.c ****     vdb->flushing = 1;
 2044              		.loc 2 571 0 is_stmt 1
 2045 0032 7A68     		ldr	r2, [r7, #4]
 2046 0034 137E     		ldrb	r3, [r2, #24]
 2047 0036 43F00103 		orr	r3, r3, #1
 2048 003a 1376     		strb	r3, [r2, #24]
 572:..\..\..\lvgl\version_6.1.2\lvgl\src\lv_core/lv_refr.c **** 
 573:..\..\..\lvgl\version_6.1.2\lvgl\src\lv_core/lv_refr.c ****     /*Flush the rendered content to the display*/
 574:..\..\..\lvgl\version_6.1.2\lvgl\src\lv_core/lv_refr.c ****     lv_disp_t * disp = lv_refr_get_disp_refreshing();
 2049              		.loc 2 574 0
 2050 003c FFF7FEFF 		bl	lv_refr_get_disp_refreshing
 2051 0040 3860     		str	r0, [r7]
 575:..\..\..\lvgl\version_6.1.2\lvgl\src\lv_core/lv_refr.c ****     if(disp->driver.flush_cb) disp->driver.flush_cb(&disp->driver, &vdb->area, vdb->buf_act);
 2052              		.loc 2 575 0
 2053 0042 3B68     		ldr	r3, [r7]
 2054 0044 DB68     		ldr	r3, [r3, #12]
 2055 0046 002B     		cmp	r3, #0
 2056 0048 08D0     		beq	.L123
 2057              		.loc 2 575 0 is_stmt 0 discriminator 1
 2058 004a 3B68     		ldr	r3, [r7]
 2059 004c DB68     		ldr	r3, [r3, #12]
 2060 004e 3868     		ldr	r0, [r7]
 2061 0050 7A68     		ldr	r2, [r7, #4]
 2062 0052 02F11001 		add	r1, r2, #16
 2063 0056 7A68     		ldr	r2, [r7, #4]
 2064 0058 9268     		ldr	r2, [r2, #8]
 2065 005a 9847     		blx	r3
 2066              	.L123:
 576:..\..\..\lvgl\version_6.1.2\lvgl\src\lv_core/lv_refr.c **** 
 577:..\..\..\lvgl\version_6.1.2\lvgl\src\lv_core/lv_refr.c ****     if(vdb->buf1 && vdb->buf2) {
 2067              		.loc 2 577 0 is_stmt 1
 2068 005c 7B68     		ldr	r3, [r7, #4]
 2069 005e 1B68     		ldr	r3, [r3]
 2070 0060 002B     		cmp	r3, #0
 2071 0062 12D0     		beq	.L126
 2072              		.loc 2 577 0 is_stmt 0 discriminator 1
 2073 0064 7B68     		ldr	r3, [r7, #4]
 2074 0066 5B68     		ldr	r3, [r3, #4]
 2075 0068 002B     		cmp	r3, #0
 2076 006a 0ED0     		beq	.L126
 578:..\..\..\lvgl\version_6.1.2\lvgl\src\lv_core/lv_refr.c ****         if(vdb->buf_act == vdb->buf1)
ARM GAS  C:\Users\tmj32\AppData\Local\Temp\cc8pVFHq.s 			page 50


 2077              		.loc 2 578 0 is_stmt 1
 2078 006c 7B68     		ldr	r3, [r7, #4]
 2079 006e 9A68     		ldr	r2, [r3, #8]
 2080 0070 7B68     		ldr	r3, [r7, #4]
 2081 0072 1B68     		ldr	r3, [r3]
 2082 0074 9A42     		cmp	r2, r3
 2083 0076 04D1     		bne	.L125
 579:..\..\..\lvgl\version_6.1.2\lvgl\src\lv_core/lv_refr.c ****             vdb->buf_act = vdb->buf2;
 2084              		.loc 2 579 0
 2085 0078 7B68     		ldr	r3, [r7, #4]
 2086 007a 5A68     		ldr	r2, [r3, #4]
 2087 007c 7B68     		ldr	r3, [r7, #4]
 2088 007e 9A60     		str	r2, [r3, #8]
 580:..\..\..\lvgl\version_6.1.2\lvgl\src\lv_core/lv_refr.c ****         else
 581:..\..\..\lvgl\version_6.1.2\lvgl\src\lv_core/lv_refr.c ****             vdb->buf_act = vdb->buf1;
 582:..\..\..\lvgl\version_6.1.2\lvgl\src\lv_core/lv_refr.c ****     }
 583:..\..\..\lvgl\version_6.1.2\lvgl\src\lv_core/lv_refr.c **** }
 2089              		.loc 2 583 0
 2090 0080 03E0     		b	.L126
 2091              	.L125:
 581:..\..\..\lvgl\version_6.1.2\lvgl\src\lv_core/lv_refr.c ****     }
 2092              		.loc 2 581 0
 2093 0082 7B68     		ldr	r3, [r7, #4]
 2094 0084 1A68     		ldr	r2, [r3]
 2095 0086 7B68     		ldr	r3, [r7, #4]
 2096 0088 9A60     		str	r2, [r3, #8]
 2097              	.L126:
 2098              		.loc 2 583 0
 2099 008a 00BF     		nop
 2100 008c 0837     		adds	r7, r7, #8
 2101              		.cfi_def_cfa_offset 8
 2102 008e BD46     		mov	sp, r7
 2103              		.cfi_def_cfa_register 13
 2104              		@ sp needed
 2105 0090 80BD     		pop	{r7, pc}
 2106              	.L128:
 2107 0092 00BF     		.align	2
 2108              	.L127:
 2109 0094 04000000 		.word	disp_refr
 2110              		.cfi_endproc
 2111              	.LFE48:
 2112              		.size	lv_refr_vdb_flush, .-lv_refr_vdb_flush
 2113              		.text
 2114              	.Letext0:
 2115              		.file 3 "c:\\program files (x86)\\cypress\\psoc creator\\4.3\\psoc creator\\import\\gnu\\arm\\5.4.
 2116              		.file 4 "c:\\program files (x86)\\cypress\\psoc creator\\4.3\\psoc creator\\import\\gnu\\arm\\5.4.
 2117              		.file 5 "..\\..\\..\\lvgl\\version_6.1.2\\lvgl\\src\\lv_core\\../../../lv_conf.h"
 2118              		.file 6 "..\\..\\..\\lvgl\\version_6.1.2\\lvgl\\src\\lv_core\\../lv_font/lv_font.h"
 2119              		.file 7 "..\\..\\..\\lvgl\\version_6.1.2\\lvgl\\src\\lv_core\\../lv_misc/lv_color.h"
 2120              		.file 8 "..\\..\\..\\lvgl\\version_6.1.2\\lvgl\\src\\lv_core\\lv_style.h"
 2121              		.file 9 "..\\..\\..\\lvgl\\version_6.1.2\\lvgl\\src\\lv_core\\../lv_misc/lv_types.h"
 2122              		.file 10 "..\\..\\..\\lvgl\\version_6.1.2\\lvgl\\src\\lv_core\\../lv_misc/lv_ll.h"
 2123              		.file 11 "..\\..\\..\\lvgl\\version_6.1.2\\lvgl\\src\\lv_core\\../lv_misc/lv_bidi.h"
 2124              		.file 12 "..\\..\\..\\lvgl\\version_6.1.2\\lvgl\\src\\lv_core\\../lv_hal/../lv_misc/lv_task.h"
 2125              		.file 13 "..\\..\\..\\lvgl\\version_6.1.2\\lvgl\\src\\lv_core\\../lv_hal/lv_hal_disp.h"
 2126              		.file 14 "..\\..\\..\\lvgl\\version_6.1.2\\lvgl\\src\\lv_core\\lv_obj.h"
 2127              		.section	.debug_info,"",%progbits
ARM GAS  C:\Users\tmj32\AppData\Local\Temp\cc8pVFHq.s 			page 51


 2128              	.Ldebug_info0:
 2129 0000 F0100000 		.4byte	0x10f0
 2130 0004 0400     		.2byte	0x4
 2131 0006 00000000 		.4byte	.Ldebug_abbrev0
 2132 000a 04       		.byte	0x4
 2133 000b 01       		.uleb128 0x1
 2134 000c 8C090000 		.4byte	.LASF224
 2135 0010 0C       		.byte	0xc
 2136 0011 EB030000 		.4byte	.LASF225
 2137 0015 64040000 		.4byte	.LASF226
 2138 0019 30000000 		.4byte	.Ldebug_ranges0+0x30
 2139 001d 00000000 		.4byte	0
 2140 0021 00000000 		.4byte	.Ldebug_line0
 2141 0025 02       		.uleb128 0x2
 2142 0026 04       		.byte	0x4
 2143 0027 05       		.byte	0x5
 2144 0028 696E7400 		.ascii	"int\000"
 2145 002c 03       		.uleb128 0x3
 2146 002d 04       		.byte	0x4
 2147 002e 07       		.byte	0x7
 2148 002f 19030000 		.4byte	.LASF0
 2149 0033 03       		.uleb128 0x3
 2150 0034 08       		.byte	0x8
 2151 0035 05       		.byte	0x5
 2152 0036 A0010000 		.4byte	.LASF1
 2153 003a 03       		.uleb128 0x3
 2154 003b 08       		.byte	0x8
 2155 003c 04       		.byte	0x4
 2156 003d 95050000 		.4byte	.LASF2
 2157 0041 04       		.uleb128 0x4
 2158 0042 48010000 		.4byte	.LASF4
 2159 0046 03       		.byte	0x3
 2160 0047 1B       		.byte	0x1b
 2161 0048 4C000000 		.4byte	0x4c
 2162 004c 03       		.uleb128 0x3
 2163 004d 01       		.byte	0x1
 2164 004e 06       		.byte	0x6
 2165 004f 89000000 		.4byte	.LASF3
 2166 0053 04       		.uleb128 0x4
 2167 0054 95000000 		.4byte	.LASF5
 2168 0058 03       		.byte	0x3
 2169 0059 1D       		.byte	0x1d
 2170 005a 5E000000 		.4byte	0x5e
 2171 005e 03       		.uleb128 0x3
 2172 005f 01       		.byte	0x1
 2173 0060 08       		.byte	0x8
 2174 0061 B3060000 		.4byte	.LASF6
 2175 0065 04       		.uleb128 0x4
 2176 0066 DF020000 		.4byte	.LASF7
 2177 006a 03       		.byte	0x3
 2178 006b 29       		.byte	0x29
 2179 006c 70000000 		.4byte	0x70
 2180 0070 03       		.uleb128 0x3
 2181 0071 02       		.byte	0x2
 2182 0072 05       		.byte	0x5
 2183 0073 6B020000 		.4byte	.LASF8
 2184 0077 04       		.uleb128 0x4
ARM GAS  C:\Users\tmj32\AppData\Local\Temp\cc8pVFHq.s 			page 52


 2185 0078 EF070000 		.4byte	.LASF9
 2186 007c 03       		.byte	0x3
 2187 007d 2B       		.byte	0x2b
 2188 007e 82000000 		.4byte	0x82
 2189 0082 03       		.uleb128 0x3
 2190 0083 02       		.byte	0x2
 2191 0084 07       		.byte	0x7
 2192 0085 6F080000 		.4byte	.LASF10
 2193 0089 04       		.uleb128 0x4
 2194 008a 5A040000 		.4byte	.LASF11
 2195 008e 03       		.byte	0x3
 2196 008f 3F       		.byte	0x3f
 2197 0090 94000000 		.4byte	0x94
 2198 0094 03       		.uleb128 0x3
 2199 0095 04       		.byte	0x4
 2200 0096 05       		.byte	0x5
 2201 0097 2B020000 		.4byte	.LASF12
 2202 009b 04       		.uleb128 0x4
 2203 009c CA020000 		.4byte	.LASF13
 2204 00a0 03       		.byte	0x3
 2205 00a1 41       		.byte	0x41
 2206 00a2 A6000000 		.4byte	0xa6
 2207 00a6 03       		.uleb128 0x3
 2208 00a7 04       		.byte	0x4
 2209 00a8 07       		.byte	0x7
 2210 00a9 4A030000 		.4byte	.LASF14
 2211 00ad 03       		.uleb128 0x3
 2212 00ae 08       		.byte	0x8
 2213 00af 07       		.byte	0x7
 2214 00b0 FA000000 		.4byte	.LASF15
 2215 00b4 04       		.uleb128 0x4
 2216 00b5 94080000 		.4byte	.LASF16
 2217 00b9 04       		.byte	0x4
 2218 00ba 14       		.byte	0x14
 2219 00bb 41000000 		.4byte	0x41
 2220 00bf 04       		.uleb128 0x4
 2221 00c0 18070000 		.4byte	.LASF17
 2222 00c4 04       		.byte	0x4
 2223 00c5 18       		.byte	0x18
 2224 00c6 53000000 		.4byte	0x53
 2225 00ca 04       		.uleb128 0x4
 2226 00cb 550A0000 		.4byte	.LASF18
 2227 00cf 04       		.byte	0x4
 2228 00d0 20       		.byte	0x20
 2229 00d1 65000000 		.4byte	0x65
 2230 00d5 04       		.uleb128 0x4
 2231 00d6 75020000 		.4byte	.LASF19
 2232 00da 04       		.byte	0x4
 2233 00db 24       		.byte	0x24
 2234 00dc 77000000 		.4byte	0x77
 2235 00e0 04       		.uleb128 0x4
 2236 00e1 AB060000 		.4byte	.LASF20
 2237 00e5 04       		.byte	0x4
 2238 00e6 2C       		.byte	0x2c
 2239 00e7 89000000 		.4byte	0x89
 2240 00eb 04       		.uleb128 0x4
 2241 00ec BB080000 		.4byte	.LASF21
ARM GAS  C:\Users\tmj32\AppData\Local\Temp\cc8pVFHq.s 			page 53


 2242 00f0 04       		.byte	0x4
 2243 00f1 30       		.byte	0x30
 2244 00f2 9B000000 		.4byte	0x9b
 2245 00f6 04       		.uleb128 0x4
 2246 00f7 27060000 		.4byte	.LASF22
 2247 00fb 05       		.byte	0x5
 2248 00fc 3C       		.byte	0x3c
 2249 00fd CA000000 		.4byte	0xca
 2250 0101 05       		.uleb128 0x5
 2251 0102 04       		.byte	0x4
 2252 0103 06       		.uleb128 0x6
 2253 0104 08       		.byte	0x8
 2254 0105 06       		.byte	0x6
 2255 0106 2E       		.byte	0x2e
 2256 0107 54010000 		.4byte	0x154
 2257 010b 07       		.uleb128 0x7
 2258 010c 5F080000 		.4byte	.LASF23
 2259 0110 06       		.byte	0x6
 2260 0111 30       		.byte	0x30
 2261 0112 D5000000 		.4byte	0xd5
 2262 0116 00       		.byte	0
 2263 0117 07       		.uleb128 0x7
 2264 0118 CE080000 		.4byte	.LASF24
 2265 011c 06       		.byte	0x6
 2266 011d 31       		.byte	0x31
 2267 011e BF000000 		.4byte	0xbf
 2268 0122 02       		.byte	0x2
 2269 0123 07       		.uleb128 0x7
 2270 0124 AE080000 		.4byte	.LASF25
 2271 0128 06       		.byte	0x6
 2272 0129 32       		.byte	0x32
 2273 012a BF000000 		.4byte	0xbf
 2274 012e 03       		.byte	0x3
 2275 012f 07       		.uleb128 0x7
 2276 0130 56090000 		.4byte	.LASF26
 2277 0134 06       		.byte	0x6
 2278 0135 33       		.byte	0x33
 2279 0136 B4000000 		.4byte	0xb4
 2280 013a 04       		.byte	0x4
 2281 013b 07       		.uleb128 0x7
 2282 013c 5C090000 		.4byte	.LASF27
 2283 0140 06       		.byte	0x6
 2284 0141 34       		.byte	0x34
 2285 0142 B4000000 		.4byte	0xb4
 2286 0146 05       		.byte	0x5
 2287 0147 08       		.uleb128 0x8
 2288 0148 62707000 		.ascii	"bpp\000"
 2289 014c 06       		.byte	0x6
 2290 014d 35       		.byte	0x35
 2291 014e BF000000 		.4byte	0xbf
 2292 0152 06       		.byte	0x6
 2293 0153 00       		.byte	0
 2294 0154 04       		.uleb128 0x4
 2295 0155 3D020000 		.4byte	.LASF28
 2296 0159 06       		.byte	0x6
 2297 015a 36       		.byte	0x36
 2298 015b 03010000 		.4byte	0x103
ARM GAS  C:\Users\tmj32\AppData\Local\Temp\cc8pVFHq.s 			page 54


 2299 015f 09       		.uleb128 0x9
 2300 0160 D4080000 		.4byte	.LASF95
 2301 0164 10       		.byte	0x10
 2302 0165 06       		.byte	0x6
 2303 0166 44       		.byte	0x44
 2304 0167 B7010000 		.4byte	0x1b7
 2305 016b 07       		.uleb128 0x7
 2306 016c 35030000 		.4byte	.LASF29
 2307 0170 06       		.byte	0x6
 2308 0171 47       		.byte	0x47
 2309 0172 ED010000 		.4byte	0x1ed
 2310 0176 00       		.byte	0
 2311 0177 07       		.uleb128 0x7
 2312 0178 2A000000 		.4byte	.LASF30
 2313 017c 06       		.byte	0x6
 2314 017d 4A       		.byte	0x4a
 2315 017e 12020000 		.4byte	0x212
 2316 0182 04       		.byte	0x4
 2317 0183 07       		.uleb128 0x7
 2318 0184 9F030000 		.4byte	.LASF31
 2319 0188 06       		.byte	0x6
 2320 0189 4D       		.byte	0x4d
 2321 018a BF000000 		.4byte	0xbf
 2322 018e 08       		.byte	0x8
 2323 018f 07       		.uleb128 0x7
 2324 0190 71060000 		.4byte	.LASF32
 2325 0194 06       		.byte	0x6
 2326 0195 4E       		.byte	0x4e
 2327 0196 B4000000 		.4byte	0xb4
 2328 019a 09       		.byte	0x9
 2329 019b 0A       		.uleb128 0xa
 2330 019c BF030000 		.4byte	.LASF79
 2331 01a0 06       		.byte	0x6
 2332 01a1 4F       		.byte	0x4f
 2333 01a2 BF000000 		.4byte	0xbf
 2334 01a6 01       		.byte	0x1
 2335 01a7 02       		.byte	0x2
 2336 01a8 06       		.byte	0x6
 2337 01a9 0A       		.byte	0xa
 2338 01aa 08       		.uleb128 0x8
 2339 01ab 64736300 		.ascii	"dsc\000"
 2340 01af 06       		.byte	0x6
 2341 01b0 50       		.byte	0x50
 2342 01b1 01010000 		.4byte	0x101
 2343 01b5 0C       		.byte	0xc
 2344 01b6 00       		.byte	0
 2345 01b7 0B       		.uleb128 0xb
 2346 01b8 D5010000 		.4byte	0x1d5
 2347 01bc D5010000 		.4byte	0x1d5
 2348 01c0 0C       		.uleb128 0xc
 2349 01c1 DC010000 		.4byte	0x1dc
 2350 01c5 0C       		.uleb128 0xc
 2351 01c6 E7010000 		.4byte	0x1e7
 2352 01ca 0C       		.uleb128 0xc
 2353 01cb EB000000 		.4byte	0xeb
 2354 01cf 0C       		.uleb128 0xc
 2355 01d0 EB000000 		.4byte	0xeb
ARM GAS  C:\Users\tmj32\AppData\Local\Temp\cc8pVFHq.s 			page 55


 2356 01d4 00       		.byte	0
 2357 01d5 03       		.uleb128 0x3
 2358 01d6 01       		.byte	0x1
 2359 01d7 02       		.byte	0x2
 2360 01d8 A5060000 		.4byte	.LASF33
 2361 01dc 0D       		.uleb128 0xd
 2362 01dd 04       		.byte	0x4
 2363 01de E2010000 		.4byte	0x1e2
 2364 01e2 0E       		.uleb128 0xe
 2365 01e3 5F010000 		.4byte	0x15f
 2366 01e7 0D       		.uleb128 0xd
 2367 01e8 04       		.byte	0x4
 2368 01e9 54010000 		.4byte	0x154
 2369 01ed 0D       		.uleb128 0xd
 2370 01ee 04       		.byte	0x4
 2371 01ef B7010000 		.4byte	0x1b7
 2372 01f3 0B       		.uleb128 0xb
 2373 01f4 07020000 		.4byte	0x207
 2374 01f8 07020000 		.4byte	0x207
 2375 01fc 0C       		.uleb128 0xc
 2376 01fd DC010000 		.4byte	0x1dc
 2377 0201 0C       		.uleb128 0xc
 2378 0202 EB000000 		.4byte	0xeb
 2379 0206 00       		.byte	0
 2380 0207 0D       		.uleb128 0xd
 2381 0208 04       		.byte	0x4
 2382 0209 0D020000 		.4byte	0x20d
 2383 020d 0E       		.uleb128 0xe
 2384 020e BF000000 		.4byte	0xbf
 2385 0212 0D       		.uleb128 0xd
 2386 0213 04       		.byte	0x4
 2387 0214 F3010000 		.4byte	0x1f3
 2388 0218 04       		.uleb128 0x4
 2389 0219 11010000 		.4byte	.LASF34
 2390 021d 06       		.byte	0x6
 2391 021e 56       		.byte	0x56
 2392 021f 5F010000 		.4byte	0x15f
 2393 0223 0F       		.uleb128 0xf
 2394 0224 01       		.byte	0x1
 2395 0225 5E000000 		.4byte	0x5e
 2396 0229 07       		.byte	0x7
 2397 022a 3E       		.byte	0x3e
 2398 022b 7E020000 		.4byte	0x27e
 2399 022f 10       		.uleb128 0x10
 2400 0230 87050000 		.4byte	.LASF35
 2401 0234 00       		.byte	0
 2402 0235 10       		.uleb128 0x10
 2403 0236 8B020000 		.4byte	.LASF36
 2404 023a 00       		.byte	0
 2405 023b 10       		.uleb128 0x10
 2406 023c 9B060000 		.4byte	.LASF37
 2407 0240 19       		.byte	0x19
 2408 0241 10       		.uleb128 0x10
 2409 0242 C0070000 		.4byte	.LASF38
 2410 0246 33       		.byte	0x33
 2411 0247 10       		.uleb128 0x10
 2412 0248 50000000 		.4byte	.LASF39
ARM GAS  C:\Users\tmj32\AppData\Local\Temp\cc8pVFHq.s 			page 56


 2413 024c 4C       		.byte	0x4c
 2414 024d 10       		.uleb128 0x10
 2415 024e 46000000 		.4byte	.LASF40
 2416 0252 66       		.byte	0x66
 2417 0253 10       		.uleb128 0x10
 2418 0254 D7010000 		.4byte	.LASF41
 2419 0258 7F       		.byte	0x7f
 2420 0259 10       		.uleb128 0x10
 2421 025a D5020000 		.4byte	.LASF42
 2422 025e 99       		.byte	0x99
 2423 025f 10       		.uleb128 0x10
 2424 0260 CE030000 		.4byte	.LASF43
 2425 0264 B2       		.byte	0xb2
 2426 0265 10       		.uleb128 0x10
 2427 0266 F9050000 		.4byte	.LASF44
 2428 026a CC       		.byte	0xcc
 2429 026b 10       		.uleb128 0x10
 2430 026c 67060000 		.4byte	.LASF45
 2431 0270 E5       		.byte	0xe5
 2432 0271 10       		.uleb128 0x10
 2433 0272 54080000 		.4byte	.LASF46
 2434 0276 FF       		.byte	0xff
 2435 0277 10       		.uleb128 0x10
 2436 0278 7E020000 		.4byte	.LASF47
 2437 027c FF       		.byte	0xff
 2438 027d 00       		.byte	0
 2439 027e 06       		.uleb128 0x6
 2440 027f 04       		.byte	0x4
 2441 0280 07       		.byte	0x7
 2442 0281 F3       		.byte	0xf3
 2443 0282 B7020000 		.4byte	0x2b7
 2444 0286 07       		.uleb128 0x7
 2445 0287 0B060000 		.4byte	.LASF48
 2446 028b 07       		.byte	0x7
 2447 028c F5       		.byte	0xf5
 2448 028d BF000000 		.4byte	0xbf
 2449 0291 00       		.byte	0
 2450 0292 07       		.uleb128 0x7
 2451 0293 62090000 		.4byte	.LASF49
 2452 0297 07       		.byte	0x7
 2453 0298 F6       		.byte	0xf6
 2454 0299 BF000000 		.4byte	0xbf
 2455 029d 01       		.byte	0x1
 2456 029e 08       		.uleb128 0x8
 2457 029f 72656400 		.ascii	"red\000"
 2458 02a3 07       		.byte	0x7
 2459 02a4 F7       		.byte	0xf7
 2460 02a5 BF000000 		.4byte	0xbf
 2461 02a9 02       		.byte	0x2
 2462 02aa 07       		.uleb128 0x7
 2463 02ab D1010000 		.4byte	.LASF50
 2464 02af 07       		.byte	0x7
 2465 02b0 F8       		.byte	0xf8
 2466 02b1 BF000000 		.4byte	0xbf
 2467 02b5 03       		.byte	0x3
 2468 02b6 00       		.byte	0
 2469 02b7 11       		.uleb128 0x11
ARM GAS  C:\Users\tmj32\AppData\Local\Temp\cc8pVFHq.s 			page 57


 2470 02b8 04       		.byte	0x4
 2471 02b9 07       		.byte	0x7
 2472 02ba F1       		.byte	0xf1
 2473 02bb D5020000 		.4byte	0x2d5
 2474 02bf 12       		.uleb128 0x12
 2475 02c0 636800   		.ascii	"ch\000"
 2476 02c3 07       		.byte	0x7
 2477 02c4 F9       		.byte	0xf9
 2478 02c5 7E020000 		.4byte	0x27e
 2479 02c9 13       		.uleb128 0x13
 2480 02ca AC050000 		.4byte	.LASF51
 2481 02ce 07       		.byte	0x7
 2482 02cf FA       		.byte	0xfa
 2483 02d0 EB000000 		.4byte	0xeb
 2484 02d4 00       		.byte	0
 2485 02d5 04       		.uleb128 0x4
 2486 02d6 51010000 		.4byte	.LASF52
 2487 02da 07       		.byte	0x7
 2488 02db FB       		.byte	0xfb
 2489 02dc B7020000 		.4byte	0x2b7
 2490 02e0 14       		.uleb128 0x14
 2491 02e1 7E000000 		.4byte	.LASF53
 2492 02e5 07       		.byte	0x7
 2493 02e6 0801     		.2byte	0x108
 2494 02e8 D5020000 		.4byte	0x2d5
 2495 02ec 14       		.uleb128 0x14
 2496 02ed 09050000 		.4byte	.LASF54
 2497 02f1 07       		.byte	0x7
 2498 02f2 0D01     		.2byte	0x10d
 2499 02f4 BF000000 		.4byte	0xbf
 2500 02f8 03       		.uleb128 0x3
 2501 02f9 04       		.byte	0x4
 2502 02fa 07       		.byte	0x7
 2503 02fb 7E050000 		.4byte	.LASF55
 2504 02ff 03       		.uleb128 0x3
 2505 0300 01       		.byte	0x1
 2506 0301 08       		.byte	0x8
 2507 0302 A8070000 		.4byte	.LASF56
 2508 0306 06       		.uleb128 0x6
 2509 0307 08       		.byte	0x8
 2510 0308 01       		.byte	0x1
 2511 0309 31       		.byte	0x31
 2512 030a 3B030000 		.4byte	0x33b
 2513 030e 08       		.uleb128 0x8
 2514 030f 783100   		.ascii	"x1\000"
 2515 0312 01       		.byte	0x1
 2516 0313 33       		.byte	0x33
 2517 0314 F6000000 		.4byte	0xf6
 2518 0318 00       		.byte	0
 2519 0319 08       		.uleb128 0x8
 2520 031a 793100   		.ascii	"y1\000"
 2521 031d 01       		.byte	0x1
 2522 031e 34       		.byte	0x34
 2523 031f F6000000 		.4byte	0xf6
 2524 0323 02       		.byte	0x2
 2525 0324 08       		.uleb128 0x8
 2526 0325 783200   		.ascii	"x2\000"
ARM GAS  C:\Users\tmj32\AppData\Local\Temp\cc8pVFHq.s 			page 58


 2527 0328 01       		.byte	0x1
 2528 0329 35       		.byte	0x35
 2529 032a F6000000 		.4byte	0xf6
 2530 032e 04       		.byte	0x4
 2531 032f 08       		.uleb128 0x8
 2532 0330 793200   		.ascii	"y2\000"
 2533 0333 01       		.byte	0x1
 2534 0334 36       		.byte	0x36
 2535 0335 F6000000 		.4byte	0xf6
 2536 0339 06       		.byte	0x6
 2537 033a 00       		.byte	0
 2538 033b 04       		.uleb128 0x4
 2539 033c 21020000 		.4byte	.LASF57
 2540 0340 01       		.byte	0x1
 2541 0341 37       		.byte	0x37
 2542 0342 06030000 		.4byte	0x306
 2543 0346 04       		.uleb128 0x4
 2544 0347 FD060000 		.4byte	.LASF58
 2545 034b 08       		.byte	0x8
 2546 034c 2C       		.byte	0x2c
 2547 034d BF000000 		.4byte	0xbf
 2548 0351 04       		.uleb128 0x4
 2549 0352 32060000 		.4byte	.LASF59
 2550 0356 08       		.byte	0x8
 2551 0357 33       		.byte	0x33
 2552 0358 BF000000 		.4byte	0xbf
 2553 035c 06       		.uleb128 0x6
 2554 035d 08       		.byte	0x8
 2555 035e 08       		.byte	0x8
 2556 035f 48       		.byte	0x48
 2557 0360 95030000 		.4byte	0x395
 2558 0364 07       		.uleb128 0x7
 2559 0365 12050000 		.4byte	.LASF60
 2560 0369 08       		.byte	0x8
 2561 036a 4A       		.byte	0x4a
 2562 036b E0020000 		.4byte	0x2e0
 2563 036f 00       		.byte	0
 2564 0370 07       		.uleb128 0x7
 2565 0371 76030000 		.4byte	.LASF61
 2566 0375 08       		.byte	0x8
 2567 0376 4B       		.byte	0x4b
 2568 0377 F6000000 		.4byte	0xf6
 2569 037b 04       		.byte	0x4
 2570 037c 07       		.uleb128 0x7
 2571 037d 620A0000 		.4byte	.LASF62
 2572 0381 08       		.byte	0x8
 2573 0382 4C       		.byte	0x4c
 2574 0383 46030000 		.4byte	0x346
 2575 0387 06       		.byte	0x6
 2576 0388 08       		.uleb128 0x8
 2577 0389 6F706100 		.ascii	"opa\000"
 2578 038d 08       		.byte	0x8
 2579 038e 4D       		.byte	0x4d
 2580 038f EC020000 		.4byte	0x2ec
 2581 0393 07       		.byte	0x7
 2582 0394 00       		.byte	0
 2583 0395 06       		.uleb128 0x6
ARM GAS  C:\Users\tmj32\AppData\Local\Temp\cc8pVFHq.s 			page 59


 2584 0396 08       		.byte	0x8
 2585 0397 08       		.byte	0x8
 2586 0398 51       		.byte	0x51
 2587 0399 C2030000 		.4byte	0x3c2
 2588 039d 07       		.uleb128 0x7
 2589 039e 12050000 		.4byte	.LASF60
 2590 03a2 08       		.byte	0x8
 2591 03a3 53       		.byte	0x53
 2592 03a4 E0020000 		.4byte	0x2e0
 2593 03a8 00       		.byte	0
 2594 03a9 07       		.uleb128 0x7
 2595 03aa 76030000 		.4byte	.LASF61
 2596 03ae 08       		.byte	0x8
 2597 03af 54       		.byte	0x54
 2598 03b0 F6000000 		.4byte	0xf6
 2599 03b4 04       		.byte	0x4
 2600 03b5 07       		.uleb128 0x7
 2601 03b6 B6000000 		.4byte	.LASF63
 2602 03ba 08       		.byte	0x8
 2603 03bb 55       		.byte	0x55
 2604 03bc 51030000 		.4byte	0x351
 2605 03c0 06       		.byte	0x6
 2606 03c1 00       		.byte	0
 2607 03c2 06       		.uleb128 0x6
 2608 03c3 0A       		.byte	0xa
 2609 03c4 08       		.byte	0x8
 2610 03c5 58       		.byte	0x58
 2611 03c6 07040000 		.4byte	0x407
 2612 03ca 08       		.uleb128 0x8
 2613 03cb 746F7000 		.ascii	"top\000"
 2614 03cf 08       		.byte	0x8
 2615 03d0 5A       		.byte	0x5a
 2616 03d1 F6000000 		.4byte	0xf6
 2617 03d5 00       		.byte	0
 2618 03d6 07       		.uleb128 0x7
 2619 03d7 AD020000 		.4byte	.LASF64
 2620 03db 08       		.byte	0x8
 2621 03dc 5B       		.byte	0x5b
 2622 03dd F6000000 		.4byte	0xf6
 2623 03e1 02       		.byte	0x2
 2624 03e2 07       		.uleb128 0x7
 2625 03e3 5D0A0000 		.4byte	.LASF65
 2626 03e7 08       		.byte	0x8
 2627 03e8 5C       		.byte	0x5c
 2628 03e9 F6000000 		.4byte	0xf6
 2629 03ed 04       		.byte	0x4
 2630 03ee 07       		.uleb128 0x7
 2631 03ef 45040000 		.4byte	.LASF66
 2632 03f3 08       		.byte	0x8
 2633 03f4 5D       		.byte	0x5d
 2634 03f5 F6000000 		.4byte	0xf6
 2635 03f9 06       		.byte	0x6
 2636 03fa 07       		.uleb128 0x7
 2637 03fb 4F0A0000 		.4byte	.LASF67
 2638 03ff 08       		.byte	0x8
 2639 0400 5E       		.byte	0x5e
 2640 0401 F6000000 		.4byte	0xf6
ARM GAS  C:\Users\tmj32\AppData\Local\Temp\cc8pVFHq.s 			page 60


 2641 0405 08       		.byte	0x8
 2642 0406 00       		.byte	0
 2643 0407 06       		.uleb128 0x6
 2644 0408 28       		.byte	0x28
 2645 0409 08       		.byte	0x8
 2646 040a 41       		.byte	0x41
 2647 040b 64040000 		.4byte	0x464
 2648 040f 07       		.uleb128 0x7
 2649 0410 60020000 		.4byte	.LASF68
 2650 0414 08       		.byte	0x8
 2651 0415 43       		.byte	0x43
 2652 0416 E0020000 		.4byte	0x2e0
 2653 041a 00       		.byte	0
 2654 041b 07       		.uleb128 0x7
 2655 041c 40070000 		.4byte	.LASF69
 2656 0420 08       		.byte	0x8
 2657 0421 44       		.byte	0x44
 2658 0422 E0020000 		.4byte	0x2e0
 2659 0426 04       		.byte	0x4
 2660 0427 07       		.uleb128 0x7
 2661 0428 30050000 		.4byte	.LASF70
 2662 042c 08       		.byte	0x8
 2663 042d 45       		.byte	0x45
 2664 042e F6000000 		.4byte	0xf6
 2665 0432 08       		.byte	0x8
 2666 0433 08       		.uleb128 0x8
 2667 0434 6F706100 		.ascii	"opa\000"
 2668 0438 08       		.byte	0x8
 2669 0439 46       		.byte	0x46
 2670 043a EC020000 		.4byte	0x2ec
 2671 043e 0A       		.byte	0xa
 2672 043f 07       		.uleb128 0x7
 2673 0440 D1060000 		.4byte	.LASF71
 2674 0444 08       		.byte	0x8
 2675 0445 4E       		.byte	0x4e
 2676 0446 5C030000 		.4byte	0x35c
 2677 044a 0C       		.byte	0xc
 2678 044b 07       		.uleb128 0x7
 2679 044c 30040000 		.4byte	.LASF72
 2680 0450 08       		.byte	0x8
 2681 0451 56       		.byte	0x56
 2682 0452 95030000 		.4byte	0x395
 2683 0456 14       		.byte	0x14
 2684 0457 07       		.uleb128 0x7
 2685 0458 1D000000 		.4byte	.LASF73
 2686 045c 08       		.byte	0x8
 2687 045d 5F       		.byte	0x5f
 2688 045e C2030000 		.4byte	0x3c2
 2689 0462 1C       		.byte	0x1c
 2690 0463 00       		.byte	0
 2691 0464 06       		.uleb128 0x6
 2692 0465 14       		.byte	0x14
 2693 0466 08       		.byte	0x8
 2694 0467 63       		.byte	0x63
 2695 0468 B5040000 		.4byte	0x4b5
 2696 046c 07       		.uleb128 0x7
 2697 046d 12050000 		.4byte	.LASF60
ARM GAS  C:\Users\tmj32\AppData\Local\Temp\cc8pVFHq.s 			page 61


 2698 0471 08       		.byte	0x8
 2699 0472 65       		.byte	0x65
 2700 0473 E0020000 		.4byte	0x2e0
 2701 0477 00       		.byte	0
 2702 0478 07       		.uleb128 0x7
 2703 0479 37050000 		.4byte	.LASF74
 2704 047d 08       		.byte	0x8
 2705 047e 66       		.byte	0x66
 2706 047f E0020000 		.4byte	0x2e0
 2707 0483 04       		.byte	0x4
 2708 0484 07       		.uleb128 0x7
 2709 0485 E4080000 		.4byte	.LASF75
 2710 0489 08       		.byte	0x8
 2711 048a 67       		.byte	0x67
 2712 048b B5040000 		.4byte	0x4b5
 2713 048f 08       		.byte	0x8
 2714 0490 07       		.uleb128 0x7
 2715 0491 1A060000 		.4byte	.LASF76
 2716 0495 08       		.byte	0x8
 2717 0496 68       		.byte	0x68
 2718 0497 F6000000 		.4byte	0xf6
 2719 049b 0C       		.byte	0xc
 2720 049c 07       		.uleb128 0x7
 2721 049d 51060000 		.4byte	.LASF77
 2722 04a1 08       		.byte	0x8
 2723 04a2 69       		.byte	0x69
 2724 04a3 F6000000 		.4byte	0xf6
 2725 04a7 0E       		.byte	0xe
 2726 04a8 08       		.uleb128 0x8
 2727 04a9 6F706100 		.ascii	"opa\000"
 2728 04ad 08       		.byte	0x8
 2729 04ae 6A       		.byte	0x6a
 2730 04af EC020000 		.4byte	0x2ec
 2731 04b3 10       		.byte	0x10
 2732 04b4 00       		.byte	0
 2733 04b5 0D       		.uleb128 0xd
 2734 04b6 04       		.byte	0x4
 2735 04b7 BB040000 		.4byte	0x4bb
 2736 04bb 0E       		.uleb128 0xe
 2737 04bc 18020000 		.4byte	0x218
 2738 04c0 06       		.uleb128 0x6
 2739 04c1 08       		.byte	0x8
 2740 04c2 08       		.byte	0x8
 2741 04c3 6E       		.byte	0x6e
 2742 04c4 ED040000 		.4byte	0x4ed
 2743 04c8 07       		.uleb128 0x7
 2744 04c9 12050000 		.4byte	.LASF60
 2745 04cd 08       		.byte	0x8
 2746 04ce 70       		.byte	0x70
 2747 04cf E0020000 		.4byte	0x2e0
 2748 04d3 00       		.byte	0
 2749 04d4 07       		.uleb128 0x7
 2750 04d5 01090000 		.4byte	.LASF78
 2751 04d9 08       		.byte	0x8
 2752 04da 71       		.byte	0x71
 2753 04db EC020000 		.4byte	0x2ec
 2754 04df 04       		.byte	0x4
ARM GAS  C:\Users\tmj32\AppData\Local\Temp\cc8pVFHq.s 			page 62


 2755 04e0 08       		.uleb128 0x8
 2756 04e1 6F706100 		.ascii	"opa\000"
 2757 04e5 08       		.byte	0x8
 2758 04e6 72       		.byte	0x72
 2759 04e7 EC020000 		.4byte	0x2ec
 2760 04eb 05       		.byte	0x5
 2761 04ec 00       		.byte	0
 2762 04ed 06       		.uleb128 0x6
 2763 04ee 08       		.byte	0x8
 2764 04ef 08       		.byte	0x8
 2765 04f0 76       		.byte	0x76
 2766 04f1 29050000 		.4byte	0x529
 2767 04f5 07       		.uleb128 0x7
 2768 04f6 12050000 		.4byte	.LASF60
 2769 04fa 08       		.byte	0x8
 2770 04fb 78       		.byte	0x78
 2771 04fc E0020000 		.4byte	0x2e0
 2772 0500 00       		.byte	0
 2773 0501 07       		.uleb128 0x7
 2774 0502 76030000 		.4byte	.LASF61
 2775 0506 08       		.byte	0x8
 2776 0507 79       		.byte	0x79
 2777 0508 F6000000 		.4byte	0xf6
 2778 050c 04       		.byte	0x4
 2779 050d 08       		.uleb128 0x8
 2780 050e 6F706100 		.ascii	"opa\000"
 2781 0512 08       		.byte	0x8
 2782 0513 7A       		.byte	0x7a
 2783 0514 EC020000 		.4byte	0x2ec
 2784 0518 06       		.byte	0x6
 2785 0519 0A       		.uleb128 0xa
 2786 051a 03060000 		.4byte	.LASF80
 2787 051e 08       		.byte	0x8
 2788 051f 7B       		.byte	0x7b
 2789 0520 BF000000 		.4byte	0xbf
 2790 0524 01       		.byte	0x1
 2791 0525 01       		.byte	0x1
 2792 0526 07       		.byte	0x7
 2793 0527 07       		.byte	0x7
 2794 0528 00       		.byte	0
 2795 0529 06       		.uleb128 0x6
 2796 052a 50       		.byte	0x50
 2797 052b 08       		.byte	0x8
 2798 052c 3C       		.byte	0x3c
 2799 052d 71050000 		.4byte	0x571
 2800 0531 0A       		.uleb128 0xa
 2801 0532 5E010000 		.4byte	.LASF81
 2802 0536 08       		.byte	0x8
 2803 0537 3E       		.byte	0x3e
 2804 0538 BF000000 		.4byte	0xbf
 2805 053c 01       		.byte	0x1
 2806 053d 01       		.byte	0x1
 2807 053e 07       		.byte	0x7
 2808 053f 00       		.byte	0
 2809 0540 07       		.uleb128 0x7
 2810 0541 25000000 		.4byte	.LASF82
 2811 0545 08       		.byte	0x8
ARM GAS  C:\Users\tmj32\AppData\Local\Temp\cc8pVFHq.s 			page 63


 2812 0546 60       		.byte	0x60
 2813 0547 07040000 		.4byte	0x407
 2814 054b 04       		.byte	0x4
 2815 054c 07       		.uleb128 0x7
 2816 054d CA070000 		.4byte	.LASF83
 2817 0551 08       		.byte	0x8
 2818 0552 6B       		.byte	0x6b
 2819 0553 64040000 		.4byte	0x464
 2820 0557 2C       		.byte	0x2c
 2821 0558 07       		.uleb128 0x7
 2822 0559 D8060000 		.4byte	.LASF84
 2823 055d 08       		.byte	0x8
 2824 055e 73       		.byte	0x73
 2825 055f C0040000 		.4byte	0x4c0
 2826 0563 40       		.byte	0x40
 2827 0564 07       		.uleb128 0x7
 2828 0565 C5020000 		.4byte	.LASF85
 2829 0569 08       		.byte	0x8
 2830 056a 7C       		.byte	0x7c
 2831 056b ED040000 		.4byte	0x4ed
 2832 056f 48       		.byte	0x48
 2833 0570 00       		.byte	0
 2834 0571 04       		.uleb128 0x4
 2835 0572 C6060000 		.4byte	.LASF86
 2836 0576 08       		.byte	0x8
 2837 0577 84       		.byte	0x84
 2838 0578 29050000 		.4byte	0x529
 2839 057c 04       		.uleb128 0x4
 2840 057d FF020000 		.4byte	.LASF87
 2841 0581 09       		.byte	0x9
 2842 0582 2C       		.byte	0x2c
 2843 0583 BF000000 		.4byte	0xbf
 2844 0587 04       		.uleb128 0x4
 2845 0588 9B070000 		.4byte	.LASF88
 2846 058c 0A       		.byte	0xa
 2847 058d 1E       		.byte	0x1e
 2848 058e BF000000 		.4byte	0xbf
 2849 0592 06       		.uleb128 0x6
 2850 0593 0C       		.byte	0xc
 2851 0594 0A       		.byte	0xa
 2852 0595 21       		.byte	0x21
 2853 0596 BF050000 		.4byte	0x5bf
 2854 059a 07       		.uleb128 0x7
 2855 059b 24010000 		.4byte	.LASF89
 2856 059f 0A       		.byte	0xa
 2857 05a0 23       		.byte	0x23
 2858 05a1 EB000000 		.4byte	0xeb
 2859 05a5 00       		.byte	0
 2860 05a6 07       		.uleb128 0x7
 2861 05a7 5A070000 		.4byte	.LASF90
 2862 05ab 0A       		.byte	0xa
 2863 05ac 24       		.byte	0x24
 2864 05ad BF050000 		.4byte	0x5bf
 2865 05b1 04       		.byte	0x4
 2866 05b2 07       		.uleb128 0x7
 2867 05b3 6D050000 		.4byte	.LASF91
 2868 05b7 0A       		.byte	0xa
ARM GAS  C:\Users\tmj32\AppData\Local\Temp\cc8pVFHq.s 			page 64


 2869 05b8 25       		.byte	0x25
 2870 05b9 BF050000 		.4byte	0x5bf
 2871 05bd 08       		.byte	0x8
 2872 05be 00       		.byte	0
 2873 05bf 0D       		.uleb128 0xd
 2874 05c0 04       		.byte	0x4
 2875 05c1 87050000 		.4byte	0x587
 2876 05c5 04       		.uleb128 0x4
 2877 05c6 40010000 		.4byte	.LASF92
 2878 05ca 0A       		.byte	0xa
 2879 05cb 26       		.byte	0x26
 2880 05cc 92050000 		.4byte	0x592
 2881 05d0 04       		.uleb128 0x4
 2882 05d1 B1050000 		.4byte	.LASF93
 2883 05d5 0B       		.byte	0xb
 2884 05d6 30       		.byte	0x30
 2885 05d7 BF000000 		.4byte	0xbf
 2886 05db 04       		.uleb128 0x4
 2887 05dc 16080000 		.4byte	.LASF94
 2888 05e0 0C       		.byte	0xc
 2889 05e1 2B       		.byte	0x2b
 2890 05e2 E6050000 		.4byte	0x5e6
 2891 05e6 0D       		.uleb128 0xd
 2892 05e7 04       		.byte	0x4
 2893 05e8 EC050000 		.4byte	0x5ec
 2894 05ec 15       		.uleb128 0x15
 2895 05ed F7050000 		.4byte	0x5f7
 2896 05f1 0C       		.uleb128 0xc
 2897 05f2 F7050000 		.4byte	0x5f7
 2898 05f6 00       		.byte	0
 2899 05f7 0D       		.uleb128 0xd
 2900 05f8 04       		.byte	0x4
 2901 05f9 FD050000 		.4byte	0x5fd
 2902 05fd 09       		.uleb128 0x9
 2903 05fe A1050000 		.4byte	.LASF96
 2904 0602 14       		.byte	0x14
 2905 0603 0C       		.byte	0xc
 2906 0604 3E       		.byte	0x3e
 2907 0605 58060000 		.4byte	0x658
 2908 0609 07       		.uleb128 0x7
 2909 060a 4D080000 		.4byte	.LASF97
 2910 060e 0C       		.byte	0xc
 2911 060f 40       		.byte	0x40
 2912 0610 EB000000 		.4byte	0xeb
 2913 0614 00       		.byte	0
 2914 0615 07       		.uleb128 0x7
 2915 0616 D8030000 		.4byte	.LASF98
 2916 061a 0C       		.byte	0xc
 2917 061b 41       		.byte	0x41
 2918 061c EB000000 		.4byte	0xeb
 2919 0620 04       		.byte	0x4
 2920 0621 07       		.uleb128 0x7
 2921 0622 7C030000 		.4byte	.LASF99
 2922 0626 0C       		.byte	0xc
 2923 0627 42       		.byte	0x42
 2924 0628 DB050000 		.4byte	0x5db
 2925 062c 08       		.byte	0x8
ARM GAS  C:\Users\tmj32\AppData\Local\Temp\cc8pVFHq.s 			page 65


 2926 062d 07       		.uleb128 0x7
 2927 062e E1030000 		.4byte	.LASF100
 2928 0632 0C       		.byte	0xc
 2929 0633 44       		.byte	0x44
 2930 0634 01010000 		.4byte	0x101
 2931 0638 0C       		.byte	0xc
 2932 0639 0A       		.uleb128 0xa
 2933 063a 15060000 		.4byte	.LASF101
 2934 063e 0C       		.byte	0xc
 2935 063f 46       		.byte	0x46
 2936 0640 BF000000 		.4byte	0xbf
 2937 0644 01       		.byte	0x1
 2938 0645 03       		.byte	0x3
 2939 0646 05       		.byte	0x5
 2940 0647 10       		.byte	0x10
 2941 0648 0A       		.uleb128 0xa
 2942 0649 43060000 		.4byte	.LASF102
 2943 064d 0C       		.byte	0xc
 2944 064e 47       		.byte	0x47
 2945 064f BF000000 		.4byte	0xbf
 2946 0653 01       		.byte	0x1
 2947 0654 01       		.byte	0x1
 2948 0655 04       		.byte	0x4
 2949 0656 10       		.byte	0x10
 2950 0657 00       		.byte	0
 2951 0658 04       		.uleb128 0x4
 2952 0659 60000000 		.4byte	.LASF103
 2953 065d 0C       		.byte	0xc
 2954 065e 48       		.byte	0x48
 2955 065f FD050000 		.4byte	0x5fd
 2956 0663 06       		.uleb128 0x6
 2957 0664 1C       		.byte	0x1c
 2958 0665 0D       		.byte	0xd
 2959 0666 2F       		.byte	0x2f
 2960 0667 B7060000 		.4byte	0x6b7
 2961 066b 07       		.uleb128 0x7
 2962 066c 18050000 		.4byte	.LASF104
 2963 0670 0D       		.byte	0xd
 2964 0671 31       		.byte	0x31
 2965 0672 01010000 		.4byte	0x101
 2966 0676 00       		.byte	0
 2967 0677 07       		.uleb128 0x7
 2968 0678 E9080000 		.4byte	.LASF105
 2969 067c 0D       		.byte	0xd
 2970 067d 32       		.byte	0x32
 2971 067e 01010000 		.4byte	0x101
 2972 0682 04       		.byte	0x4
 2973 0683 07       		.uleb128 0x7
 2974 0684 F9080000 		.4byte	.LASF106
 2975 0688 0D       		.byte	0xd
 2976 0689 35       		.byte	0x35
 2977 068a 01010000 		.4byte	0x101
 2978 068e 08       		.byte	0x8
 2979 068f 07       		.uleb128 0x7
 2980 0690 84030000 		.4byte	.LASF107
 2981 0694 0D       		.byte	0xd
 2982 0695 36       		.byte	0x36
ARM GAS  C:\Users\tmj32\AppData\Local\Temp\cc8pVFHq.s 			page 66


 2983 0696 EB000000 		.4byte	0xeb
 2984 069a 0C       		.byte	0xc
 2985 069b 07       		.uleb128 0x7
 2986 069c E5060000 		.4byte	.LASF108
 2987 06a0 0D       		.byte	0xd
 2988 06a1 37       		.byte	0x37
 2989 06a2 3B030000 		.4byte	0x33b
 2990 06a6 10       		.byte	0x10
 2991 06a7 0A       		.uleb128 0xa
 2992 06a8 57020000 		.4byte	.LASF109
 2993 06ac 0D       		.byte	0xd
 2994 06ad 38       		.byte	0x38
 2995 06ae B7060000 		.4byte	0x6b7
 2996 06b2 04       		.byte	0x4
 2997 06b3 01       		.byte	0x1
 2998 06b4 1F       		.byte	0x1f
 2999 06b5 18       		.byte	0x18
 3000 06b6 00       		.byte	0
 3001 06b7 16       		.uleb128 0x16
 3002 06b8 EB000000 		.4byte	0xeb
 3003 06bc 04       		.uleb128 0x4
 3004 06bd 23080000 		.4byte	.LASF110
 3005 06c1 0D       		.byte	0xd
 3006 06c2 39       		.byte	0x39
 3007 06c3 63060000 		.4byte	0x663
 3008 06c7 09       		.uleb128 0x9
 3009 06c8 72050000 		.4byte	.LASF111
 3010 06cc 20       		.byte	0x20
 3011 06cd 0D       		.byte	0xd
 3012 06ce 3E       		.byte	0x3e
 3013 06cf 43070000 		.4byte	0x743
 3014 06d3 07       		.uleb128 0x7
 3015 06d4 65030000 		.4byte	.LASF112
 3016 06d8 0D       		.byte	0xd
 3017 06d9 41       		.byte	0x41
 3018 06da F6000000 		.4byte	0xf6
 3019 06de 00       		.byte	0
 3020 06df 07       		.uleb128 0x7
 3021 06e0 93070000 		.4byte	.LASF113
 3022 06e4 0D       		.byte	0xd
 3023 06e5 42       		.byte	0x42
 3024 06e6 F6000000 		.4byte	0xf6
 3025 06ea 02       		.byte	0x2
 3026 06eb 07       		.uleb128 0x7
 3027 06ec 20070000 		.4byte	.LASF114
 3028 06f0 0D       		.byte	0xd
 3029 06f1 46       		.byte	0x46
 3030 06f2 43070000 		.4byte	0x743
 3031 06f6 04       		.byte	0x4
 3032 06f7 0A       		.uleb128 0xa
 3033 06f8 28050000 		.4byte	.LASF115
 3034 06fc 0D       		.byte	0xd
 3035 06fd 4B       		.byte	0x4b
 3036 06fe EB000000 		.4byte	0xeb
 3037 0702 04       		.byte	0x4
 3038 0703 01       		.byte	0x1
 3039 0704 1F       		.byte	0x1f
ARM GAS  C:\Users\tmj32\AppData\Local\Temp\cc8pVFHq.s 			page 67


 3040 0705 08       		.byte	0x8
 3041 0706 07       		.uleb128 0x7
 3042 0707 34020000 		.4byte	.LASF116
 3043 070b 0D       		.byte	0xd
 3044 070c 55       		.byte	0x55
 3045 070d 75070000 		.4byte	0x775
 3046 0711 0C       		.byte	0xc
 3047 0712 07       		.uleb128 0x7
 3048 0713 EE080000 		.4byte	.LASF117
 3049 0717 0D       		.byte	0xd
 3050 0718 59       		.byte	0x59
 3051 0719 91070000 		.4byte	0x791
 3052 071d 10       		.byte	0x10
 3053 071e 07       		.uleb128 0x7
 3054 071f AE010000 		.4byte	.LASF118
 3055 0723 0D       		.byte	0xd
 3056 0724 5E       		.byte	0x5e
 3057 0725 C6070000 		.4byte	0x7c6
 3058 0729 14       		.byte	0x14
 3059 072a 07       		.uleb128 0x7
 3060 072b 1D050000 		.4byte	.LASF119
 3061 072f 0D       		.byte	0xd
 3062 0730 63       		.byte	0x63
 3063 0731 E1070000 		.4byte	0x7e1
 3064 0735 18       		.byte	0x18
 3065 0736 07       		.uleb128 0x7
 3066 0737 B4020000 		.4byte	.LASF120
 3067 073b 0D       		.byte	0xd
 3068 073c 71       		.byte	0x71
 3069 073d E0020000 		.4byte	0x2e0
 3070 0741 1C       		.byte	0x1c
 3071 0742 00       		.byte	0
 3072 0743 0D       		.uleb128 0xd
 3073 0744 04       		.byte	0x4
 3074 0745 BC060000 		.4byte	0x6bc
 3075 0749 15       		.uleb128 0x15
 3076 074a 5E070000 		.4byte	0x75e
 3077 074e 0C       		.uleb128 0xc
 3078 074f 5E070000 		.4byte	0x75e
 3079 0753 0C       		.uleb128 0xc
 3080 0754 64070000 		.4byte	0x764
 3081 0758 0C       		.uleb128 0xc
 3082 0759 6F070000 		.4byte	0x76f
 3083 075d 00       		.byte	0
 3084 075e 0D       		.uleb128 0xd
 3085 075f 04       		.byte	0x4
 3086 0760 C7060000 		.4byte	0x6c7
 3087 0764 0D       		.uleb128 0xd
 3088 0765 04       		.byte	0x4
 3089 0766 6A070000 		.4byte	0x76a
 3090 076a 0E       		.uleb128 0xe
 3091 076b 3B030000 		.4byte	0x33b
 3092 076f 0D       		.uleb128 0xd
 3093 0770 04       		.byte	0x4
 3094 0771 E0020000 		.4byte	0x2e0
 3095 0775 0D       		.uleb128 0xd
 3096 0776 04       		.byte	0x4
ARM GAS  C:\Users\tmj32\AppData\Local\Temp\cc8pVFHq.s 			page 68


 3097 0777 49070000 		.4byte	0x749
 3098 077b 15       		.uleb128 0x15
 3099 077c 8B070000 		.4byte	0x78b
 3100 0780 0C       		.uleb128 0xc
 3101 0781 5E070000 		.4byte	0x75e
 3102 0785 0C       		.uleb128 0xc
 3103 0786 8B070000 		.4byte	0x78b
 3104 078a 00       		.byte	0
 3105 078b 0D       		.uleb128 0xd
 3106 078c 04       		.byte	0x4
 3107 078d 3B030000 		.4byte	0x33b
 3108 0791 0D       		.uleb128 0xd
 3109 0792 04       		.byte	0x4
 3110 0793 7B070000 		.4byte	0x77b
 3111 0797 15       		.uleb128 0x15
 3112 0798 C0070000 		.4byte	0x7c0
 3113 079c 0C       		.uleb128 0xc
 3114 079d 5E070000 		.4byte	0x75e
 3115 07a1 0C       		.uleb128 0xc
 3116 07a2 C0070000 		.4byte	0x7c0
 3117 07a6 0C       		.uleb128 0xc
 3118 07a7 F6000000 		.4byte	0xf6
 3119 07ab 0C       		.uleb128 0xc
 3120 07ac F6000000 		.4byte	0xf6
 3121 07b0 0C       		.uleb128 0xc
 3122 07b1 F6000000 		.4byte	0xf6
 3123 07b5 0C       		.uleb128 0xc
 3124 07b6 E0020000 		.4byte	0x2e0
 3125 07ba 0C       		.uleb128 0xc
 3126 07bb EC020000 		.4byte	0x2ec
 3127 07bf 00       		.byte	0
 3128 07c0 0D       		.uleb128 0xd
 3129 07c1 04       		.byte	0x4
 3130 07c2 BF000000 		.4byte	0xbf
 3131 07c6 0D       		.uleb128 0xd
 3132 07c7 04       		.byte	0x4
 3133 07c8 97070000 		.4byte	0x797
 3134 07cc 15       		.uleb128 0x15
 3135 07cd E1070000 		.4byte	0x7e1
 3136 07d1 0C       		.uleb128 0xc
 3137 07d2 5E070000 		.4byte	0x75e
 3138 07d6 0C       		.uleb128 0xc
 3139 07d7 EB000000 		.4byte	0xeb
 3140 07db 0C       		.uleb128 0xc
 3141 07dc EB000000 		.4byte	0xeb
 3142 07e0 00       		.byte	0
 3143 07e1 0D       		.uleb128 0xd
 3144 07e2 04       		.byte	0x4
 3145 07e3 CC070000 		.4byte	0x7cc
 3146 07e7 04       		.uleb128 0x4
 3147 07e8 22040000 		.4byte	.LASF121
 3148 07ec 0D       		.byte	0xd
 3149 07ed 77       		.byte	0x77
 3150 07ee C7060000 		.4byte	0x6c7
 3151 07f2 17       		.uleb128 0x17
 3152 07f3 09090000 		.4byte	.LASF122
 3153 07f7 6401     		.2byte	0x164
ARM GAS  C:\Users\tmj32\AppData\Local\Temp\cc8pVFHq.s 			page 69


 3154 07f9 0D       		.byte	0xd
 3155 07fa 7F       		.byte	0x7f
 3156 07fb 7E080000 		.4byte	0x87e
 3157 07ff 07       		.uleb128 0x7
 3158 0800 4F090000 		.4byte	.LASF123
 3159 0804 0D       		.byte	0xd
 3160 0805 82       		.byte	0x82
 3161 0806 E7070000 		.4byte	0x7e7
 3162 080a 00       		.byte	0
 3163 080b 07       		.uleb128 0x7
 3164 080c 76010000 		.4byte	.LASF124
 3165 0810 0D       		.byte	0xd
 3166 0811 85       		.byte	0x85
 3167 0812 7E080000 		.4byte	0x87e
 3168 0816 20       		.byte	0x20
 3169 0817 07       		.uleb128 0x7
 3170 0818 3C090000 		.4byte	.LASF125
 3171 081c 0D       		.byte	0xd
 3172 081d 88       		.byte	0x88
 3173 081e C5050000 		.4byte	0x5c5
 3174 0822 24       		.byte	0x24
 3175 0823 07       		.uleb128 0x7
 3176 0824 11090000 		.4byte	.LASF126
 3177 0828 0D       		.byte	0xd
 3178 0829 89       		.byte	0x89
 3179 082a C6090000 		.4byte	0x9c6
 3180 082e 30       		.byte	0x30
 3181 082f 07       		.uleb128 0x7
 3182 0830 64010000 		.4byte	.LASF127
 3183 0834 0D       		.byte	0xd
 3184 0835 8A       		.byte	0x8a
 3185 0836 C6090000 		.4byte	0x9c6
 3186 083a 34       		.byte	0x34
 3187 083b 07       		.uleb128 0x7
 3188 083c EF050000 		.4byte	.LASF128
 3189 0840 0D       		.byte	0xd
 3190 0841 8B       		.byte	0x8b
 3191 0842 C6090000 		.4byte	0x9c6
 3192 0846 38       		.byte	0x38
 3193 0847 07       		.uleb128 0x7
 3194 0848 0C020000 		.4byte	.LASF129
 3195 084c 0D       		.byte	0xd
 3196 084d 8E       		.byte	0x8e
 3197 084e CC090000 		.4byte	0x9cc
 3198 0852 3C       		.byte	0x3c
 3199 0853 18       		.uleb128 0x18
 3200 0854 30010000 		.4byte	.LASF130
 3201 0858 0D       		.byte	0xd
 3202 0859 8F       		.byte	0x8f
 3203 085a DC090000 		.4byte	0x9dc
 3204 085e 3C01     		.2byte	0x13c
 3205 0860 19       		.uleb128 0x19
 3206 0861 54070000 		.4byte	.LASF131
 3207 0865 0D       		.byte	0xd
 3208 0866 90       		.byte	0x90
 3209 0867 EB000000 		.4byte	0xeb
 3210 086b 04       		.byte	0x4
ARM GAS  C:\Users\tmj32\AppData\Local\Temp\cc8pVFHq.s 			page 70


 3211 086c 0A       		.byte	0xa
 3212 086d 16       		.byte	0x16
 3213 086e 5C01     		.2byte	0x15c
 3214 0870 18       		.uleb128 0x18
 3215 0871 AD070000 		.4byte	.LASF132
 3216 0875 0D       		.byte	0xd
 3217 0876 93       		.byte	0x93
 3218 0877 EB000000 		.4byte	0xeb
 3219 087b 6001     		.2byte	0x160
 3220 087d 00       		.byte	0
 3221 087e 0D       		.uleb128 0xd
 3222 087f 04       		.byte	0x4
 3223 0880 58060000 		.4byte	0x658
 3224 0884 09       		.uleb128 0x9
 3225 0885 0E070000 		.4byte	.LASF133
 3226 0889 40       		.byte	0x40
 3227 088a 0E       		.byte	0xe
 3228 088b BB       		.byte	0xbb
 3229 088c C6090000 		.4byte	0x9c6
 3230 0890 08       		.uleb128 0x8
 3231 0891 70617200 		.ascii	"par\000"
 3232 0895 0E       		.byte	0xe
 3233 0896 BD       		.byte	0xbd
 3234 0897 C6090000 		.4byte	0x9c6
 3235 089b 00       		.byte	0
 3236 089c 07       		.uleb128 0x7
 3237 089d 6F0A0000 		.4byte	.LASF134
 3238 08a1 0E       		.byte	0xe
 3239 08a2 BE       		.byte	0xbe
 3240 08a3 C5050000 		.4byte	0x5c5
 3241 08a7 04       		.byte	0x4
 3242 08a8 07       		.uleb128 0x7
 3243 08a9 B4080000 		.4byte	.LASF135
 3244 08ad 0E       		.byte	0xe
 3245 08ae C0       		.byte	0xc0
 3246 08af 3B030000 		.4byte	0x33b
 3247 08b3 10       		.byte	0x10
 3248 08b4 07       		.uleb128 0x7
 3249 08b5 96030000 		.4byte	.LASF136
 3250 08b9 0E       		.byte	0xe
 3251 08ba C2       		.byte	0xc2
 3252 08bb 560A0000 		.4byte	0xa56
 3253 08bf 18       		.byte	0x18
 3254 08c0 07       		.uleb128 0x7
 3255 08c1 F5010000 		.4byte	.LASF137
 3256 08c5 0E       		.byte	0xe
 3257 08c6 C3       		.byte	0xc3
 3258 08c7 820A0000 		.4byte	0xa82
 3259 08cb 1C       		.byte	0x1c
 3260 08cc 07       		.uleb128 0x7
 3261 08cd 450A0000 		.4byte	.LASF138
 3262 08d1 0E       		.byte	0xe
 3263 08d2 C4       		.byte	0xc4
 3264 08d3 210A0000 		.4byte	0xa21
 3265 08d7 20       		.byte	0x20
 3266 08d8 07       		.uleb128 0x7
 3267 08d9 48060000 		.4byte	.LASF139
ARM GAS  C:\Users\tmj32\AppData\Local\Temp\cc8pVFHq.s 			page 71


 3268 08dd 0E       		.byte	0xe
 3269 08de C6       		.byte	0xc6
 3270 08df 01010000 		.4byte	0x101
 3271 08e3 24       		.byte	0x24
 3272 08e4 07       		.uleb128 0x7
 3273 08e5 BB000000 		.4byte	.LASF140
 3274 08e9 0E       		.byte	0xe
 3275 08ea C7       		.byte	0xc7
 3276 08eb 2F0B0000 		.4byte	0xb2f
 3277 08ef 28       		.byte	0x28
 3278 08f0 0A       		.uleb128 0xa
 3279 08f1 5A000000 		.4byte	.LASF141
 3280 08f5 0E       		.byte	0xe
 3281 08f6 D7       		.byte	0xd7
 3282 08f7 BF000000 		.4byte	0xbf
 3283 08fb 01       		.byte	0x1
 3284 08fc 01       		.byte	0x1
 3285 08fd 07       		.byte	0x7
 3286 08fe 2C       		.byte	0x2c
 3287 08ff 0A       		.uleb128 0xa
 3288 0900 6A080000 		.4byte	.LASF142
 3289 0904 0E       		.byte	0xe
 3290 0905 D8       		.byte	0xd8
 3291 0906 BF000000 		.4byte	0xbf
 3292 090a 01       		.byte	0x1
 3293 090b 01       		.byte	0x1
 3294 090c 06       		.byte	0x6
 3295 090d 2C       		.byte	0x2c
 3296 090e 0A       		.uleb128 0xa
 3297 090f 84060000 		.4byte	.LASF143
 3298 0913 0E       		.byte	0xe
 3299 0914 D9       		.byte	0xd9
 3300 0915 BF000000 		.4byte	0xbf
 3301 0919 01       		.byte	0x1
 3302 091a 01       		.byte	0x1
 3303 091b 05       		.byte	0x5
 3304 091c 2C       		.byte	0x2c
 3305 091d 0A       		.uleb128 0xa
 3306 091e 43090000 		.4byte	.LASF144
 3307 0922 0E       		.byte	0xe
 3308 0923 DA       		.byte	0xda
 3309 0924 BF000000 		.4byte	0xbf
 3310 0928 01       		.byte	0x1
 3311 0929 01       		.byte	0x1
 3312 092a 04       		.byte	0x4
 3313 092b 2C       		.byte	0x2c
 3314 092c 0A       		.uleb128 0xa
 3315 092d E1010000 		.4byte	.LASF145
 3316 0931 0E       		.byte	0xe
 3317 0932 DB       		.byte	0xdb
 3318 0933 BF000000 		.4byte	0xbf
 3319 0937 01       		.byte	0x1
 3320 0938 01       		.byte	0x1
 3321 0939 03       		.byte	0x3
 3322 093a 2C       		.byte	0x2c
 3323 093b 1A       		.uleb128 0x1a
 3324 093c 746F7000 		.ascii	"top\000"
ARM GAS  C:\Users\tmj32\AppData\Local\Temp\cc8pVFHq.s 			page 72


 3325 0940 0E       		.byte	0xe
 3326 0941 DC       		.byte	0xdc
 3327 0942 BF000000 		.4byte	0xbf
 3328 0946 01       		.byte	0x1
 3329 0947 01       		.byte	0x1
 3330 0948 02       		.byte	0x2
 3331 0949 2C       		.byte	0x2c
 3332 094a 0A       		.uleb128 0xa
 3333 094b 780A0000 		.4byte	.LASF146
 3334 094f 0E       		.byte	0xe
 3335 0950 DD       		.byte	0xdd
 3336 0951 BF000000 		.4byte	0xbf
 3337 0955 01       		.byte	0x1
 3338 0956 01       		.byte	0x1
 3339 0957 01       		.byte	0x1
 3340 0958 2C       		.byte	0x2c
 3341 0959 0A       		.uleb128 0xa
 3342 095a E9020000 		.4byte	.LASF147
 3343 095e 0E       		.byte	0xe
 3344 095f DE       		.byte	0xde
 3345 0960 BF000000 		.4byte	0xbf
 3346 0964 01       		.byte	0x1
 3347 0965 01       		.byte	0x1
 3348 0966 00       		.byte	0
 3349 0967 2C       		.byte	0x2c
 3350 0968 0A       		.uleb128 0xa
 3351 0969 6D030000 		.4byte	.LASF148
 3352 096d 0E       		.byte	0xe
 3353 096e DF       		.byte	0xdf
 3354 096f 240B0000 		.4byte	0xb24
 3355 0973 01       		.byte	0x1
 3356 0974 02       		.byte	0x2
 3357 0975 06       		.byte	0x6
 3358 0976 2D       		.byte	0x2d
 3359 0977 0A       		.uleb128 0xa
 3360 0978 E6050000 		.4byte	.LASF149
 3361 097c 0E       		.byte	0xe
 3362 097d E0       		.byte	0xe0
 3363 097e D0050000 		.4byte	0x5d0
 3364 0982 01       		.byte	0x1
 3365 0983 02       		.byte	0x2
 3366 0984 04       		.byte	0x4
 3367 0985 2D       		.byte	0x2d
 3368 0986 0A       		.uleb128 0xa
 3369 0987 F6020000 		.4byte	.LASF150
 3370 098b 0E       		.byte	0xe
 3371 098c E1       		.byte	0xe1
 3372 098d BF000000 		.4byte	0xbf
 3373 0991 01       		.byte	0x1
 3374 0992 03       		.byte	0x3
 3375 0993 01       		.byte	0x1
 3376 0994 2D       		.byte	0x2d
 3377 0995 07       		.uleb128 0x7
 3378 0996 24090000 		.4byte	.LASF151
 3379 099a 0E       		.byte	0xe
 3380 099b E2       		.byte	0xe2
 3381 099c BF000000 		.4byte	0xbf
ARM GAS  C:\Users\tmj32\AppData\Local\Temp\cc8pVFHq.s 			page 73


 3382 09a0 2E       		.byte	0x2e
 3383 09a1 07       		.uleb128 0x7
 3384 09a2 C4080000 		.4byte	.LASF152
 3385 09a6 0E       		.byte	0xe
 3386 09a7 E4       		.byte	0xe4
 3387 09a8 EC020000 		.4byte	0x2ec
 3388 09ac 2F       		.byte	0x2f
 3389 09ad 07       		.uleb128 0x7
 3390 09ae FF010000 		.4byte	.LASF153
 3391 09b2 0E       		.byte	0xe
 3392 09b3 E6       		.byte	0xe6
 3393 09b4 F6000000 		.4byte	0xf6
 3394 09b8 30       		.byte	0x30
 3395 09b9 07       		.uleb128 0x7
 3396 09ba 01050000 		.4byte	.LASF154
 3397 09be 0E       		.byte	0xe
 3398 09bf E9       		.byte	0xe9
 3399 09c0 190B0000 		.4byte	0xb19
 3400 09c4 34       		.byte	0x34
 3401 09c5 00       		.byte	0
 3402 09c6 0D       		.uleb128 0xd
 3403 09c7 04       		.byte	0x4
 3404 09c8 84080000 		.4byte	0x884
 3405 09cc 1B       		.uleb128 0x1b
 3406 09cd 3B030000 		.4byte	0x33b
 3407 09d1 DC090000 		.4byte	0x9dc
 3408 09d5 1C       		.uleb128 0x1c
 3409 09d6 F8020000 		.4byte	0x2f8
 3410 09da 1F       		.byte	0x1f
 3411 09db 00       		.byte	0
 3412 09dc 1B       		.uleb128 0x1b
 3413 09dd BF000000 		.4byte	0xbf
 3414 09e1 EC090000 		.4byte	0x9ec
 3415 09e5 1C       		.uleb128 0x1c
 3416 09e6 F8020000 		.4byte	0x2f8
 3417 09ea 1F       		.byte	0x1f
 3418 09eb 00       		.byte	0
 3419 09ec 04       		.uleb128 0x4
 3420 09ed 7C090000 		.4byte	.LASF155
 3421 09f1 0D       		.byte	0xd
 3422 09f2 94       		.byte	0x94
 3423 09f3 F2070000 		.4byte	0x7f2
 3424 09f7 0F       		.uleb128 0xf
 3425 09f8 01       		.byte	0x1
 3426 09f9 5E000000 		.4byte	0x5e
 3427 09fd 0E       		.byte	0xe
 3428 09fe 3D       		.byte	0x3d
 3429 09ff 160A0000 		.4byte	0xa16
 3430 0a03 10       		.uleb128 0x10
 3431 0a04 68090000 		.4byte	.LASF156
 3432 0a08 00       		.byte	0
 3433 0a09 10       		.uleb128 0x10
 3434 0a0a AB030000 		.4byte	.LASF157
 3435 0a0e 01       		.byte	0x1
 3436 0a0f 10       		.uleb128 0x10
 3437 0a10 BD010000 		.4byte	.LASF158
 3438 0a14 02       		.byte	0x2
ARM GAS  C:\Users\tmj32\AppData\Local\Temp\cc8pVFHq.s 			page 74


 3439 0a15 00       		.byte	0
 3440 0a16 04       		.uleb128 0x4
 3441 0a17 4F050000 		.4byte	.LASF159
 3442 0a1b 0E       		.byte	0xe
 3443 0a1c 42       		.byte	0x42
 3444 0a1d BF000000 		.4byte	0xbf
 3445 0a21 04       		.uleb128 0x4
 3446 0a22 26030000 		.4byte	.LASF160
 3447 0a26 0E       		.byte	0xe
 3448 0a27 48       		.byte	0x48
 3449 0a28 2C0A0000 		.4byte	0xa2c
 3450 0a2c 0D       		.uleb128 0xd
 3451 0a2d 04       		.byte	0x4
 3452 0a2e 320A0000 		.4byte	0xa32
 3453 0a32 0B       		.uleb128 0xb
 3454 0a33 D5010000 		.4byte	0x1d5
 3455 0a37 4B0A0000 		.4byte	0xa4b
 3456 0a3b 0C       		.uleb128 0xc
 3457 0a3c C6090000 		.4byte	0x9c6
 3458 0a40 0C       		.uleb128 0xc
 3459 0a41 64070000 		.4byte	0x764
 3460 0a45 0C       		.uleb128 0xc
 3461 0a46 160A0000 		.4byte	0xa16
 3462 0a4a 00       		.byte	0
 3463 0a4b 04       		.uleb128 0x4
 3464 0a4c 16020000 		.4byte	.LASF161
 3465 0a50 0E       		.byte	0xe
 3466 0a51 61       		.byte	0x61
 3467 0a52 BF000000 		.4byte	0xbf
 3468 0a56 04       		.uleb128 0x4
 3469 0a57 BF050000 		.4byte	.LASF162
 3470 0a5b 0E       		.byte	0xe
 3471 0a5c 68       		.byte	0x68
 3472 0a5d 610A0000 		.4byte	0xa61
 3473 0a61 0D       		.uleb128 0xd
 3474 0a62 04       		.byte	0x4
 3475 0a63 670A0000 		.4byte	0xa67
 3476 0a67 15       		.uleb128 0x15
 3477 0a68 770A0000 		.4byte	0xa77
 3478 0a6c 0C       		.uleb128 0xc
 3479 0a6d C6090000 		.4byte	0x9c6
 3480 0a71 0C       		.uleb128 0xc
 3481 0a72 4B0A0000 		.4byte	0xa4b
 3482 0a76 00       		.byte	0
 3483 0a77 04       		.uleb128 0x4
 3484 0a78 87070000 		.4byte	.LASF163
 3485 0a7c 0E       		.byte	0xe
 3486 0a7d 88       		.byte	0x88
 3487 0a7e BF000000 		.4byte	0xbf
 3488 0a82 04       		.uleb128 0x4
 3489 0a83 4B040000 		.4byte	.LASF164
 3490 0a87 0E       		.byte	0xe
 3491 0a88 8A       		.byte	0x8a
 3492 0a89 8D0A0000 		.4byte	0xa8d
 3493 0a8d 0D       		.uleb128 0xd
 3494 0a8e 04       		.byte	0x4
 3495 0a8f 930A0000 		.4byte	0xa93
ARM GAS  C:\Users\tmj32\AppData\Local\Temp\cc8pVFHq.s 			page 75


 3496 0a93 0B       		.uleb128 0xb
 3497 0a94 7C050000 		.4byte	0x57c
 3498 0a98 AC0A0000 		.4byte	0xaac
 3499 0a9c 0C       		.uleb128 0xc
 3500 0a9d C6090000 		.4byte	0x9c6
 3501 0aa1 0C       		.uleb128 0xc
 3502 0aa2 770A0000 		.4byte	0xa77
 3503 0aa6 0C       		.uleb128 0xc
 3504 0aa7 01010000 		.4byte	0x101
 3505 0aab 00       		.byte	0
 3506 0aac 04       		.uleb128 0x4
 3507 0aad AB000000 		.4byte	.LASF165
 3508 0ab1 0E       		.byte	0xe
 3509 0ab2 A4       		.byte	0xa4
 3510 0ab3 BF000000 		.4byte	0xbf
 3511 0ab7 06       		.uleb128 0x6
 3512 0ab8 0C       		.byte	0xc
 3513 0ab9 0E       		.byte	0xe
 3514 0aba A7       		.byte	0xa7
 3515 0abb 0E0B0000 		.4byte	0xb0e
 3516 0abf 07       		.uleb128 0x7
 3517 0ac0 4A050000 		.4byte	.LASF166
 3518 0ac4 0E       		.byte	0xe
 3519 0ac5 A9       		.byte	0xa9
 3520 0ac6 0E0B0000 		.4byte	0xb0e
 3521 0aca 00       		.byte	0
 3522 0acb 07       		.uleb128 0x7
 3523 0acc B8010000 		.4byte	.LASF167
 3524 0ad0 0E       		.byte	0xe
 3525 0ad1 AA       		.byte	0xaa
 3526 0ad2 F6000000 		.4byte	0xf6
 3527 0ad6 04       		.byte	0x4
 3528 0ad7 07       		.uleb128 0x7
 3529 0ad8 C1060000 		.4byte	.LASF168
 3530 0adc 0E       		.byte	0xe
 3531 0add AB       		.byte	0xab
 3532 0ade F6000000 		.4byte	0xf6
 3533 0ae2 06       		.byte	0x6
 3534 0ae3 07       		.uleb128 0x7
 3535 0ae4 81070000 		.4byte	.LASF169
 3536 0ae8 0E       		.byte	0xe
 3537 0ae9 AC       		.byte	0xac
 3538 0aea AC0A0000 		.4byte	0xaac
 3539 0aee 08       		.byte	0x8
 3540 0aef 0A       		.uleb128 0xa
 3541 0af0 E8010000 		.4byte	.LASF170
 3542 0af4 0E       		.byte	0xe
 3543 0af5 AD       		.byte	0xad
 3544 0af6 BF000000 		.4byte	0xbf
 3545 0afa 01       		.byte	0x1
 3546 0afb 01       		.byte	0x1
 3547 0afc 07       		.byte	0x7
 3548 0afd 09       		.byte	0x9
 3549 0afe 0A       		.uleb128 0xa
 3550 0aff 5F070000 		.4byte	.LASF171
 3551 0b03 0E       		.byte	0xe
 3552 0b04 AE       		.byte	0xae
ARM GAS  C:\Users\tmj32\AppData\Local\Temp\cc8pVFHq.s 			page 76


 3553 0b05 BF000000 		.4byte	0xbf
 3554 0b09 01       		.byte	0x1
 3555 0b0a 01       		.byte	0x1
 3556 0b0b 06       		.byte	0x6
 3557 0b0c 09       		.byte	0x9
 3558 0b0d 00       		.byte	0
 3559 0b0e 0D       		.uleb128 0xd
 3560 0b0f 04       		.byte	0x4
 3561 0b10 140B0000 		.4byte	0xb14
 3562 0b14 0E       		.uleb128 0xe
 3563 0b15 84080000 		.4byte	0x884
 3564 0b19 04       		.uleb128 0x4
 3565 0b1a 74070000 		.4byte	.LASF172
 3566 0b1e 0E       		.byte	0xe
 3567 0b1f B0       		.byte	0xb0
 3568 0b20 B70A0000 		.4byte	0xab7
 3569 0b24 04       		.uleb128 0x4
 3570 0b25 CF070000 		.4byte	.LASF173
 3571 0b29 0E       		.byte	0xe
 3572 0b2a B9       		.byte	0xb9
 3573 0b2b BF000000 		.4byte	0xbf
 3574 0b2f 0D       		.uleb128 0xd
 3575 0b30 04       		.byte	0x4
 3576 0b31 350B0000 		.4byte	0xb35
 3577 0b35 0E       		.uleb128 0xe
 3578 0b36 71050000 		.4byte	0x571
 3579 0b3a 04       		.uleb128 0x4
 3580 0b3b 08030000 		.4byte	.LASF174
 3581 0b3f 0E       		.byte	0xe
 3582 0b40 F0       		.byte	0xf0
 3583 0b41 84080000 		.4byte	0x884
 3584 0b45 1D       		.uleb128 0x1d
 3585 0b46 89030000 		.4byte	.LASF192
 3586 0b4a 01       		.byte	0x1
 3587 0b4b 4C       		.byte	0x4c
 3588 0b4c 00000000 		.4byte	.LFB10
 3589 0b50 1C000000 		.4byte	.LFE10-.LFB10
 3590 0b54 01       		.uleb128 0x1
 3591 0b55 9C       		.byte	0x9c
 3592 0b56 770B0000 		.4byte	0xb77
 3593 0b5a 1E       		.uleb128 0x1e
 3594 0b5b 10060000 		.4byte	.LASF175
 3595 0b5f 01       		.byte	0x1
 3596 0b60 4C       		.byte	0x4c
 3597 0b61 8B070000 		.4byte	0x78b
 3598 0b65 02       		.uleb128 0x2
 3599 0b66 91       		.byte	0x91
 3600 0b67 74       		.sleb128 -12
 3601 0b68 1F       		.uleb128 0x1f
 3602 0b69 73726300 		.ascii	"src\000"
 3603 0b6d 01       		.byte	0x1
 3604 0b6e 4C       		.byte	0x4c
 3605 0b6f 64070000 		.4byte	0x764
 3606 0b73 02       		.uleb128 0x2
 3607 0b74 91       		.byte	0x91
 3608 0b75 70       		.sleb128 -16
 3609 0b76 00       		.byte	0
ARM GAS  C:\Users\tmj32\AppData\Local\Temp\cc8pVFHq.s 			page 77


 3610 0b77 20       		.uleb128 0x20
 3611 0b78 CD000000 		.4byte	.LASF177
 3612 0b7c 01       		.byte	0x1
 3613 0b7d 56       		.byte	0x56
 3614 0b7e F6000000 		.4byte	0xf6
 3615 0b82 00000000 		.4byte	.LFB11
 3616 0b86 2E000000 		.4byte	.LFE11-.LFB11
 3617 0b8a 01       		.uleb128 0x1
 3618 0b8b 9C       		.byte	0x9c
 3619 0b8c 9F0B0000 		.4byte	0xb9f
 3620 0b90 1E       		.uleb128 0x1e
 3621 0b91 27070000 		.4byte	.LASF176
 3622 0b95 01       		.byte	0x1
 3623 0b96 56       		.byte	0x56
 3624 0b97 64070000 		.4byte	0x764
 3625 0b9b 02       		.uleb128 0x2
 3626 0b9c 91       		.byte	0x91
 3627 0b9d 74       		.sleb128 -12
 3628 0b9e 00       		.byte	0
 3629 0b9f 20       		.uleb128 0x20
 3630 0ba0 EA060000 		.4byte	.LASF178
 3631 0ba4 01       		.byte	0x1
 3632 0ba5 60       		.byte	0x60
 3633 0ba6 F6000000 		.4byte	0xf6
 3634 0baa 00000000 		.4byte	.LFB12
 3635 0bae 2E000000 		.4byte	.LFE12-.LFB12
 3636 0bb2 01       		.uleb128 0x1
 3637 0bb3 9C       		.byte	0x9c
 3638 0bb4 C70B0000 		.4byte	0xbc7
 3639 0bb8 1E       		.uleb128 0x1e
 3640 0bb9 27070000 		.4byte	.LASF176
 3641 0bbd 01       		.byte	0x1
 3642 0bbe 60       		.byte	0x60
 3643 0bbf 64070000 		.4byte	0x764
 3644 0bc3 02       		.uleb128 0x2
 3645 0bc4 91       		.byte	0x91
 3646 0bc5 74       		.sleb128 -12
 3647 0bc6 00       		.byte	0
 3648 0bc7 21       		.uleb128 0x21
 3649 0bc8 94020000 		.4byte	.LASF227
 3650 0bcc 02       		.byte	0x2
 3651 0bcd 3E       		.byte	0x3e
 3652 0bce 00000000 		.4byte	.LFB35
 3653 0bd2 0E000000 		.4byte	.LFE35-.LFB35
 3654 0bd6 01       		.uleb128 0x1
 3655 0bd7 9C       		.byte	0x9c
 3656 0bd8 22       		.uleb128 0x22
 3657 0bd9 9F000000 		.4byte	.LASF180
 3658 0bdd 02       		.byte	0x2
 3659 0bde 4A       		.byte	0x4a
 3660 0bdf 00000000 		.4byte	.LFB36
 3661 0be3 44000000 		.4byte	.LFE36-.LFB36
 3662 0be7 01       		.uleb128 0x1
 3663 0be8 9C       		.byte	0x9c
 3664 0be9 120C0000 		.4byte	0xc12
 3665 0bed 1E       		.uleb128 0x1e
 3666 0bee 82080000 		.4byte	.LASF179
ARM GAS  C:\Users\tmj32\AppData\Local\Temp\cc8pVFHq.s 			page 78


 3667 0bf2 02       		.byte	0x2
 3668 0bf3 4A       		.byte	0x4a
 3669 0bf4 120C0000 		.4byte	0xc12
 3670 0bf8 02       		.uleb128 0x2
 3671 0bf9 91       		.byte	0x91
 3672 0bfa 6C       		.sleb128 -20
 3673 0bfb 23       		.uleb128 0x23
 3674 0bfc 1A000000 		.4byte	.LBB2
 3675 0c00 22000000 		.4byte	.LBE2-.LBB2
 3676 0c04 24       		.uleb128 0x24
 3677 0c05 6400     		.ascii	"d\000"
 3678 0c07 02       		.byte	0x2
 3679 0c08 4F       		.byte	0x4f
 3680 0c09 120C0000 		.4byte	0xc12
 3681 0c0d 02       		.uleb128 0x2
 3682 0c0e 91       		.byte	0x91
 3683 0c0f 74       		.sleb128 -12
 3684 0c10 00       		.byte	0
 3685 0c11 00       		.byte	0
 3686 0c12 0D       		.uleb128 0xd
 3687 0c13 04       		.byte	0x4
 3688 0c14 EC090000 		.4byte	0x9ec
 3689 0c18 22       		.uleb128 0x22
 3690 0c19 8F060000 		.4byte	.LASF181
 3691 0c1d 02       		.byte	0x2
 3692 0c1e 5E       		.byte	0x5e
 3693 0c1f 00000000 		.4byte	.LFB37
 3694 0c23 60010000 		.4byte	.LFE37-.LFB37
 3695 0c27 01       		.uleb128 0x1
 3696 0c28 9C       		.byte	0x9c
 3697 0c29 860C0000 		.4byte	0xc86
 3698 0c2d 1E       		.uleb128 0x1e
 3699 0c2e 82080000 		.4byte	.LASF179
 3700 0c32 02       		.byte	0x2
 3701 0c33 5E       		.byte	0x5e
 3702 0c34 120C0000 		.4byte	0xc12
 3703 0c38 02       		.uleb128 0x2
 3704 0c39 91       		.byte	0x91
 3705 0c3a 5C       		.sleb128 -36
 3706 0c3b 1E       		.uleb128 0x1e
 3707 0c3c 27070000 		.4byte	.LASF176
 3708 0c40 02       		.byte	0x2
 3709 0c41 5E       		.byte	0x5e
 3710 0c42 64070000 		.4byte	0x764
 3711 0c46 02       		.uleb128 0x2
 3712 0c47 91       		.byte	0x91
 3713 0c48 58       		.sleb128 -40
 3714 0c49 25       		.uleb128 0x25
 3715 0c4a 4B070000 		.4byte	.LASF182
 3716 0c4e 02       		.byte	0x2
 3717 0c4f 69       		.byte	0x69
 3718 0c50 3B030000 		.4byte	0x33b
 3719 0c54 02       		.uleb128 0x2
 3720 0c55 91       		.byte	0x91
 3721 0c56 6C       		.sleb128 -20
 3722 0c57 25       		.uleb128 0x25
 3723 0c58 6B070000 		.4byte	.LASF183
ARM GAS  C:\Users\tmj32\AppData\Local\Temp\cc8pVFHq.s 			page 79


 3724 0c5c 02       		.byte	0x2
 3725 0c5d 6F       		.byte	0x6f
 3726 0c5e 3B030000 		.4byte	0x33b
 3727 0c62 02       		.uleb128 0x2
 3728 0c63 91       		.byte	0x91
 3729 0c64 64       		.sleb128 -28
 3730 0c65 24       		.uleb128 0x24
 3731 0c66 73756300 		.ascii	"suc\000"
 3732 0c6a 02       		.byte	0x2
 3733 0c6b 70       		.byte	0x70
 3734 0c6c D5010000 		.4byte	0x1d5
 3735 0c70 02       		.uleb128 0x2
 3736 0c71 91       		.byte	0x91
 3737 0c72 75       		.sleb128 -11
 3738 0c73 26       		.uleb128 0x26
 3739 0c74 00000000 		.4byte	.Ldebug_ranges0+0
 3740 0c78 24       		.uleb128 0x24
 3741 0c79 6900     		.ascii	"i\000"
 3742 0c7b 02       		.byte	0x2
 3743 0c7c 79       		.byte	0x79
 3744 0c7d D5000000 		.4byte	0xd5
 3745 0c81 02       		.uleb128 0x2
 3746 0c82 91       		.byte	0x91
 3747 0c83 76       		.sleb128 -10
 3748 0c84 00       		.byte	0
 3749 0c85 00       		.byte	0
 3750 0c86 27       		.uleb128 0x27
 3751 0c87 FA070000 		.4byte	.LASF228
 3752 0c8b 02       		.byte	0x2
 3753 0c8c 8D       		.byte	0x8d
 3754 0c8d 120C0000 		.4byte	0xc12
 3755 0c91 00000000 		.4byte	.LFB38
 3756 0c95 18000000 		.4byte	.LFE38-.LFB38
 3757 0c99 01       		.uleb128 0x1
 3758 0c9a 9C       		.byte	0x9c
 3759 0c9b 28       		.uleb128 0x28
 3760 0c9c 31080000 		.4byte	.LASF184
 3761 0ca0 02       		.byte	0x2
 3762 0ca1 98       		.byte	0x98
 3763 0ca2 00000000 		.4byte	.LFB39
 3764 0ca6 20000000 		.4byte	.LFE39-.LFB39
 3765 0caa 01       		.uleb128 0x1
 3766 0cab 9C       		.byte	0x9c
 3767 0cac BF0C0000 		.4byte	0xcbf
 3768 0cb0 1E       		.uleb128 0x1e
 3769 0cb1 82080000 		.4byte	.LASF179
 3770 0cb5 02       		.byte	0x2
 3771 0cb6 98       		.byte	0x98
 3772 0cb7 120C0000 		.4byte	0xc12
 3773 0cbb 02       		.uleb128 0x2
 3774 0cbc 91       		.byte	0x91
 3775 0cbd 74       		.sleb128 -12
 3776 0cbe 00       		.byte	0
 3777 0cbf 22       		.uleb128 0x22
 3778 0cc0 0B000000 		.4byte	.LASF185
 3779 0cc4 02       		.byte	0x2
 3780 0cc5 A1       		.byte	0xa1
ARM GAS  C:\Users\tmj32\AppData\Local\Temp\cc8pVFHq.s 			page 80


 3781 0cc6 00000000 		.4byte	.LFB40
 3782 0cca D0010000 		.4byte	.LFE40-.LFB40
 3783 0cce 01       		.uleb128 0x1
 3784 0ccf 9C       		.byte	0x9c
 3785 0cd0 710D0000 		.4byte	0xd71
 3786 0cd4 1E       		.uleb128 0x1e
 3787 0cd5 65080000 		.4byte	.LASF186
 3788 0cd9 02       		.byte	0x2
 3789 0cda A1       		.byte	0xa1
 3790 0cdb 7E080000 		.4byte	0x87e
 3791 0cdf 02       		.uleb128 0x2
 3792 0ce0 91       		.byte	0x91
 3793 0ce1 4C       		.sleb128 -52
 3794 0ce2 25       		.uleb128 0x25
 3795 0ce3 3F0A0000 		.4byte	.LASF187
 3796 0ce7 02       		.byte	0x2
 3797 0ce8 A5       		.byte	0xa5
 3798 0ce9 EB000000 		.4byte	0xeb
 3799 0ced 02       		.uleb128 0x2
 3800 0cee 91       		.byte	0x91
 3801 0cef 64       		.sleb128 -28
 3802 0cf0 23       		.uleb128 0x23
 3803 0cf1 44000000 		.4byte	.LBB5
 3804 0cf5 1A010000 		.4byte	.LBE5-.LBB5
 3805 0cf9 24       		.uleb128 0x24
 3806 0cfa 76646200 		.ascii	"vdb\000"
 3807 0cfe 02       		.byte	0x2
 3808 0cff B2       		.byte	0xb2
 3809 0d00 43070000 		.4byte	0x743
 3810 0d04 02       		.uleb128 0x2
 3811 0d05 91       		.byte	0x91
 3812 0d06 60       		.sleb128 -32
 3813 0d07 25       		.uleb128 0x25
 3814 0d08 F9080000 		.4byte	.LASF106
 3815 0d0c 02       		.byte	0x2
 3816 0d0d BD       		.byte	0xbd
 3817 0d0e C0070000 		.4byte	0x7c0
 3818 0d12 02       		.uleb128 0x2
 3819 0d13 91       		.byte	0x91
 3820 0d14 5C       		.sleb128 -36
 3821 0d15 25       		.uleb128 0x25
 3822 0d16 A6080000 		.4byte	.LASF188
 3823 0d1a 02       		.byte	0x2
 3824 0d1b BE       		.byte	0xbe
 3825 0d1c C0070000 		.4byte	0x7c0
 3826 0d20 02       		.uleb128 0x2
 3827 0d21 91       		.byte	0x91
 3828 0d22 58       		.sleb128 -40
 3829 0d23 25       		.uleb128 0x25
 3830 0d24 2B010000 		.4byte	.LASF189
 3831 0d28 02       		.byte	0x2
 3832 0d29 C0       		.byte	0xc0
 3833 0d2a F6000000 		.4byte	0xf6
 3834 0d2e 02       		.uleb128 0x2
 3835 0d2f 91       		.byte	0x91
 3836 0d30 56       		.sleb128 -42
 3837 0d31 24       		.uleb128 0x24
ARM GAS  C:\Users\tmj32\AppData\Local\Temp\cc8pVFHq.s 			page 81


 3838 0d32 6100     		.ascii	"a\000"
 3839 0d34 02       		.byte	0x2
 3840 0d35 C1       		.byte	0xc1
 3841 0d36 D5000000 		.4byte	0xd5
 3842 0d3a 02       		.uleb128 0x2
 3843 0d3b 91       		.byte	0x91
 3844 0d3c 6E       		.sleb128 -18
 3845 0d3d 23       		.uleb128 0x23
 3846 0d3e A6000000 		.4byte	.LBB6
 3847 0d42 9E000000 		.4byte	.LBE6-.LBB6
 3848 0d46 24       		.uleb128 0x24
 3849 0d47 7900     		.ascii	"y\000"
 3850 0d49 02       		.byte	0x2
 3851 0d4a C4       		.byte	0xc4
 3852 0d4b F6000000 		.4byte	0xf6
 3853 0d4f 02       		.uleb128 0x2
 3854 0d50 91       		.byte	0x91
 3855 0d51 6C       		.sleb128 -20
 3856 0d52 25       		.uleb128 0x25
 3857 0d53 3B000000 		.4byte	.LASF190
 3858 0d57 02       		.byte	0x2
 3859 0d58 C5       		.byte	0xc5
 3860 0d59 EB000000 		.4byte	0xeb
 3861 0d5d 02       		.uleb128 0x2
 3862 0d5e 91       		.byte	0x91
 3863 0d5f 68       		.sleb128 -24
 3864 0d60 25       		.uleb128 0x25
 3865 0d61 A1020000 		.4byte	.LASF191
 3866 0d65 02       		.byte	0x2
 3867 0d66 C7       		.byte	0xc7
 3868 0d67 EB000000 		.4byte	0xeb
 3869 0d6b 02       		.uleb128 0x2
 3870 0d6c 91       		.byte	0x91
 3871 0d6d 50       		.sleb128 -48
 3872 0d6e 00       		.byte	0
 3873 0d6f 00       		.byte	0
 3874 0d70 00       		.byte	0
 3875 0d71 1D       		.uleb128 0x1d
 3876 0d72 2E070000 		.4byte	.LASF193
 3877 0d76 02       		.byte	0x2
 3878 0d77 E8       		.byte	0xe8
 3879 0d78 00000000 		.4byte	.LFB41
 3880 0d7c 48010000 		.4byte	.LFE41-.LFB41
 3881 0d80 01       		.uleb128 0x1
 3882 0d81 9C       		.byte	0x9c
 3883 0d82 B10D0000 		.4byte	0xdb1
 3884 0d86 25       		.uleb128 0x25
 3885 0d87 2C090000 		.4byte	.LASF194
 3886 0d8b 02       		.byte	0x2
 3887 0d8c EA       		.byte	0xea
 3888 0d8d EB000000 		.4byte	0xeb
 3889 0d91 02       		.uleb128 0x2
 3890 0d92 91       		.byte	0x91
 3891 0d93 6C       		.sleb128 -20
 3892 0d94 25       		.uleb128 0x25
 3893 0d95 76000000 		.4byte	.LASF195
 3894 0d99 02       		.byte	0x2
ARM GAS  C:\Users\tmj32\AppData\Local\Temp\cc8pVFHq.s 			page 82


 3895 0d9a EB       		.byte	0xeb
 3896 0d9b EB000000 		.4byte	0xeb
 3897 0d9f 02       		.uleb128 0x2
 3898 0da0 91       		.byte	0x91
 3899 0da1 68       		.sleb128 -24
 3900 0da2 25       		.uleb128 0x25
 3901 0da3 6A000000 		.4byte	.LASF196
 3902 0da7 02       		.byte	0x2
 3903 0da8 EC       		.byte	0xec
 3904 0da9 3B030000 		.4byte	0x33b
 3905 0dad 02       		.uleb128 0x2
 3906 0dae 91       		.byte	0x91
 3907 0daf 60       		.sleb128 -32
 3908 0db0 00       		.byte	0
 3909 0db1 29       		.uleb128 0x29
 3910 0db2 37040000 		.4byte	.LASF197
 3911 0db6 02       		.byte	0x2
 3912 0db7 0D01     		.2byte	0x10d
 3913 0db9 00000000 		.4byte	.LFB42
 3914 0dbd 90000000 		.4byte	.LFE42-.LFB42
 3915 0dc1 01       		.uleb128 0x1
 3916 0dc2 9C       		.byte	0x9c
 3917 0dc3 D50D0000 		.4byte	0xdd5
 3918 0dc7 2A       		.uleb128 0x2a
 3919 0dc8 6900     		.ascii	"i\000"
 3920 0dca 02       		.byte	0x2
 3921 0dcb 1001     		.2byte	0x110
 3922 0dcd EB000000 		.4byte	0xeb
 3923 0dd1 02       		.uleb128 0x2
 3924 0dd2 91       		.byte	0x91
 3925 0dd3 74       		.sleb128 -12
 3926 0dd4 00       		.byte	0
 3927 0dd5 29       		.uleb128 0x29
 3928 0dd6 87080000 		.4byte	.LASF198
 3929 0dda 02       		.byte	0x2
 3930 0ddb 2101     		.2byte	0x121
 3931 0ddd 00000000 		.4byte	.LFB43
 3932 0de1 0C020000 		.4byte	.LFE43-.LFB43
 3933 0de5 01       		.uleb128 0x1
 3934 0de6 9C       		.byte	0x9c
 3935 0de7 AA0E0000 		.4byte	0xeaa
 3936 0deb 2B       		.uleb128 0x2b
 3937 0dec 27070000 		.4byte	.LASF176
 3938 0df0 02       		.byte	0x2
 3939 0df1 2101     		.2byte	0x121
 3940 0df3 64070000 		.4byte	0x764
 3941 0df7 02       		.uleb128 0x2
 3942 0df8 91       		.byte	0x91
 3943 0df9 44       		.sleb128 -60
 3944 0dfa 2C       		.uleb128 0x2c
 3945 0dfb 18000000 		.4byte	.LBB7
 3946 0dff 4E000000 		.4byte	.LBE7-.LBB7
 3947 0e03 170E0000 		.4byte	0xe17
 3948 0e07 2A       		.uleb128 0x2a
 3949 0e08 76646200 		.ascii	"vdb\000"
 3950 0e0c 02       		.byte	0x2
 3951 0e0d 2601     		.2byte	0x126
ARM GAS  C:\Users\tmj32\AppData\Local\Temp\cc8pVFHq.s 			page 83


 3952 0e0f 43070000 		.4byte	0x743
 3953 0e13 02       		.uleb128 0x2
 3954 0e14 91       		.byte	0x91
 3955 0e15 60       		.sleb128 -32
 3956 0e16 00       		.byte	0
 3957 0e17 23       		.uleb128 0x23
 3958 0e18 68000000 		.4byte	.LBB8
 3959 0e1c 98010000 		.4byte	.LBE8-.LBB8
 3960 0e20 2A       		.uleb128 0x2a
 3961 0e21 76646200 		.ascii	"vdb\000"
 3962 0e25 02       		.byte	0x2
 3963 0e26 2F01     		.2byte	0x12f
 3964 0e28 43070000 		.4byte	0x743
 3965 0e2c 02       		.uleb128 0x2
 3966 0e2d 91       		.byte	0x91
 3967 0e2e 5C       		.sleb128 -36
 3968 0e2f 2A       		.uleb128 0x2a
 3969 0e30 7700     		.ascii	"w\000"
 3970 0e32 02       		.byte	0x2
 3971 0e33 3101     		.2byte	0x131
 3972 0e35 F6000000 		.4byte	0xf6
 3973 0e39 02       		.uleb128 0x2
 3974 0e3a 91       		.byte	0x91
 3975 0e3b 5A       		.sleb128 -38
 3976 0e3c 2A       		.uleb128 0x2a
 3977 0e3d 6800     		.ascii	"h\000"
 3978 0e3f 02       		.byte	0x2
 3979 0e40 3201     		.2byte	0x132
 3980 0e42 F6000000 		.4byte	0xf6
 3981 0e46 02       		.uleb128 0x2
 3982 0e47 91       		.byte	0x91
 3983 0e48 58       		.sleb128 -40
 3984 0e49 2A       		.uleb128 0x2a
 3985 0e4a 793200   		.ascii	"y2\000"
 3986 0e4d 02       		.byte	0x2
 3987 0e4e 3301     		.2byte	0x133
 3988 0e50 F6000000 		.4byte	0xf6
 3989 0e54 02       		.uleb128 0x2
 3990 0e55 91       		.byte	0x91
 3991 0e56 56       		.sleb128 -42
 3992 0e57 2D       		.uleb128 0x2d
 3993 0e58 6E010000 		.4byte	.LASF199
 3994 0e5c 02       		.byte	0x2
 3995 0e5d 3601     		.2byte	0x136
 3996 0e5f E0000000 		.4byte	0xe0
 3997 0e63 02       		.uleb128 0x2
 3998 0e64 91       		.byte	0x91
 3999 0e65 6C       		.sleb128 -20
 4000 0e66 2A       		.uleb128 0x2a
 4001 0e67 726F7700 		.ascii	"row\000"
 4002 0e6b 02       		.byte	0x2
 4003 0e6c 5701     		.2byte	0x157
 4004 0e6e F6000000 		.4byte	0xf6
 4005 0e72 02       		.uleb128 0x2
 4006 0e73 91       		.byte	0x91
 4007 0e74 68       		.sleb128 -24
 4008 0e75 2D       		.uleb128 0x2d
ARM GAS  C:\Users\tmj32\AppData\Local\Temp\cc8pVFHq.s 			page 84


 4009 0e76 1B010000 		.4byte	.LASF200
 4010 0e7a 02       		.byte	0x2
 4011 0e7b 5801     		.2byte	0x158
 4012 0e7d F6000000 		.4byte	0xf6
 4013 0e81 02       		.uleb128 0x2
 4014 0e82 91       		.byte	0x91
 4015 0e83 66       		.sleb128 -26
 4016 0e84 26       		.uleb128 0x26
 4017 0e85 18000000 		.4byte	.Ldebug_ranges0+0x18
 4018 0e89 2A       		.uleb128 0x2a
 4019 0e8a 746D7000 		.ascii	"tmp\000"
 4020 0e8e 02       		.byte	0x2
 4021 0e8f 3C01     		.2byte	0x13c
 4022 0e91 3B030000 		.4byte	0x33b
 4023 0e95 02       		.uleb128 0x2
 4024 0e96 91       		.byte	0x91
 4025 0e97 4C       		.sleb128 -52
 4026 0e98 2D       		.uleb128 0x2d
 4027 0e99 86090000 		.4byte	.LASF201
 4028 0e9d 02       		.byte	0x2
 4029 0e9e 4101     		.2byte	0x141
 4030 0ea0 F6000000 		.4byte	0xf6
 4031 0ea4 02       		.uleb128 0x2
 4032 0ea5 91       		.byte	0x91
 4033 0ea6 6A       		.sleb128 -22
 4034 0ea7 00       		.byte	0
 4035 0ea8 00       		.byte	0
 4036 0ea9 00       		.byte	0
 4037 0eaa 29       		.uleb128 0x29
 4038 0eab DD070000 		.4byte	.LASF202
 4039 0eaf 02       		.byte	0x2
 4040 0eb0 7601     		.2byte	0x176
 4041 0eb2 00000000 		.4byte	.LFB44
 4042 0eb6 C8000000 		.4byte	.LFE44-.LFB44
 4043 0eba 01       		.uleb128 0x1
 4044 0ebb 9C       		.byte	0x9c
 4045 0ebc FD0E0000 		.4byte	0xefd
 4046 0ec0 2B       		.uleb128 0x2b
 4047 0ec1 27070000 		.4byte	.LASF176
 4048 0ec5 02       		.byte	0x2
 4049 0ec6 7601     		.2byte	0x176
 4050 0ec8 64070000 		.4byte	0x764
 4051 0ecc 02       		.uleb128 0x2
 4052 0ecd 91       		.byte	0x91
 4053 0ece 64       		.sleb128 -28
 4054 0ecf 2A       		.uleb128 0x2a
 4055 0ed0 76646200 		.ascii	"vdb\000"
 4056 0ed4 02       		.byte	0x2
 4057 0ed5 7901     		.2byte	0x179
 4058 0ed7 43070000 		.4byte	0x743
 4059 0edb 02       		.uleb128 0x2
 4060 0edc 91       		.byte	0x91
 4061 0edd 74       		.sleb128 -12
 4062 0ede 2D       		.uleb128 0x2d
 4063 0edf 36090000 		.4byte	.LASF203
 4064 0ee3 02       		.byte	0x2
 4065 0ee4 8201     		.2byte	0x182
ARM GAS  C:\Users\tmj32\AppData\Local\Temp\cc8pVFHq.s 			page 85


 4066 0ee6 FD0E0000 		.4byte	0xefd
 4067 0eea 02       		.uleb128 0x2
 4068 0eeb 91       		.byte	0x91
 4069 0eec 70       		.sleb128 -16
 4070 0eed 2D       		.uleb128 0x2d
 4071 0eee 19090000 		.4byte	.LASF204
 4072 0ef2 02       		.byte	0x2
 4073 0ef3 8601     		.2byte	0x186
 4074 0ef5 3B030000 		.4byte	0x33b
 4075 0ef9 02       		.uleb128 0x2
 4076 0efa 91       		.byte	0x91
 4077 0efb 68       		.sleb128 -24
 4078 0efc 00       		.byte	0
 4079 0efd 0D       		.uleb128 0xd
 4080 0efe 04       		.byte	0x4
 4081 0eff 3A0B0000 		.4byte	0xb3a
 4082 0f03 2E       		.uleb128 0x2e
 4083 0f04 8C010000 		.4byte	.LASF205
 4084 0f08 02       		.byte	0x2
 4085 0f09 A001     		.2byte	0x1a0
 4086 0f0b FD0E0000 		.4byte	0xefd
 4087 0f0f 00000000 		.4byte	.LFB45
 4088 0f13 A8000000 		.4byte	.LFE45-.LFB45
 4089 0f17 01       		.uleb128 0x1
 4090 0f18 9C       		.byte	0x9c
 4091 0f19 7B0F0000 		.4byte	0xf7b
 4092 0f1d 2B       		.uleb128 0x2b
 4093 0f1e 27070000 		.4byte	.LASF176
 4094 0f22 02       		.byte	0x2
 4095 0f23 A001     		.2byte	0x1a0
 4096 0f25 64070000 		.4byte	0x764
 4097 0f29 02       		.uleb128 0x2
 4098 0f2a 91       		.byte	0x91
 4099 0f2b 64       		.sleb128 -28
 4100 0f2c 2F       		.uleb128 0x2f
 4101 0f2d 6F626A00 		.ascii	"obj\000"
 4102 0f31 02       		.byte	0x2
 4103 0f32 A001     		.2byte	0x1a0
 4104 0f34 FD0E0000 		.4byte	0xefd
 4105 0f38 02       		.uleb128 0x2
 4106 0f39 91       		.byte	0x91
 4107 0f3a 60       		.sleb128 -32
 4108 0f3b 2D       		.uleb128 0x2d
 4109 0f3c 11030000 		.4byte	.LASF206
 4110 0f40 02       		.byte	0x2
 4111 0f41 A201     		.2byte	0x1a2
 4112 0f43 FD0E0000 		.4byte	0xefd
 4113 0f47 02       		.uleb128 0x2
 4114 0f48 91       		.byte	0x91
 4115 0f49 74       		.sleb128 -12
 4116 0f4a 23       		.uleb128 0x23
 4117 0f4b 30000000 		.4byte	.LBB11
 4118 0f4f 6E000000 		.4byte	.LBE11-.LBB11
 4119 0f53 2A       		.uleb128 0x2a
 4120 0f54 6900     		.ascii	"i\000"
 4121 0f56 02       		.byte	0x2
 4122 0f57 A601     		.2byte	0x1a6
ARM GAS  C:\Users\tmj32\AppData\Local\Temp\cc8pVFHq.s 			page 86


 4123 0f59 FD0E0000 		.4byte	0xefd
 4124 0f5d 02       		.uleb128 0x2
 4125 0f5e 91       		.byte	0x91
 4126 0f5f 70       		.sleb128 -16
 4127 0f60 23       		.uleb128 0x23
 4128 0f61 6C000000 		.4byte	.LBB12
 4129 0f65 32000000 		.4byte	.LBE12-.LBB12
 4130 0f69 2D       		.uleb128 0x2d
 4131 0f6a 51020000 		.4byte	.LASF207
 4132 0f6e 02       		.byte	0x2
 4133 0f6f B301     		.2byte	0x1b3
 4134 0f71 2F0B0000 		.4byte	0xb2f
 4135 0f75 02       		.uleb128 0x2
 4136 0f76 91       		.byte	0x91
 4137 0f77 6C       		.sleb128 -20
 4138 0f78 00       		.byte	0
 4139 0f79 00       		.byte	0
 4140 0f7a 00       		.byte	0
 4141 0f7b 29       		.uleb128 0x29
 4142 0f7c CD050000 		.4byte	.LASF208
 4143 0f80 02       		.byte	0x2
 4144 0f81 C301     		.2byte	0x1c3
 4145 0f83 00000000 		.4byte	.LFB46
 4146 0f87 88000000 		.4byte	.LFE46-.LFB46
 4147 0f8b 01       		.uleb128 0x1
 4148 0f8c 9C       		.byte	0x9c
 4149 0f8d E50F0000 		.4byte	0xfe5
 4150 0f91 2B       		.uleb128 0x2b
 4151 0f92 36090000 		.4byte	.LASF203
 4152 0f96 02       		.byte	0x2
 4153 0f97 C301     		.2byte	0x1c3
 4154 0f99 FD0E0000 		.4byte	0xefd
 4155 0f9d 02       		.uleb128 0x2
 4156 0f9e 91       		.byte	0x91
 4157 0f9f 64       		.sleb128 -28
 4158 0fa0 2B       		.uleb128 0x2b
 4159 0fa1 43030000 		.4byte	.LASF209
 4160 0fa5 02       		.byte	0x2
 4161 0fa6 C301     		.2byte	0x1c3
 4162 0fa8 64070000 		.4byte	0x764
 4163 0fac 02       		.uleb128 0x2
 4164 0fad 91       		.byte	0x91
 4165 0fae 60       		.sleb128 -32
 4166 0faf 2A       		.uleb128 0x2a
 4167 0fb0 70617200 		.ascii	"par\000"
 4168 0fb4 02       		.byte	0x2
 4169 0fb5 CE01     		.2byte	0x1ce
 4170 0fb7 FD0E0000 		.4byte	0xefd
 4171 0fbb 02       		.uleb128 0x2
 4172 0fbc 91       		.byte	0x91
 4173 0fbd 74       		.sleb128 -12
 4174 0fbe 2D       		.uleb128 0x2d
 4175 0fbf 7B060000 		.4byte	.LASF210
 4176 0fc3 02       		.byte	0x2
 4177 0fc4 CF01     		.2byte	0x1cf
 4178 0fc6 FD0E0000 		.4byte	0xefd
 4179 0fca 02       		.uleb128 0x2
ARM GAS  C:\Users\tmj32\AppData\Local\Temp\cc8pVFHq.s 			page 87


 4180 0fcb 91       		.byte	0x91
 4181 0fcc 70       		.sleb128 -16
 4182 0fcd 23       		.uleb128 0x23
 4183 0fce 32000000 		.4byte	.LBB13
 4184 0fd2 44000000 		.4byte	.LBE13-.LBB13
 4185 0fd6 2A       		.uleb128 0x2a
 4186 0fd7 6900     		.ascii	"i\000"
 4187 0fd9 02       		.byte	0x2
 4188 0fda D601     		.2byte	0x1d6
 4189 0fdc FD0E0000 		.4byte	0xefd
 4190 0fe0 02       		.uleb128 0x2
 4191 0fe1 91       		.byte	0x91
 4192 0fe2 6C       		.sleb128 -20
 4193 0fe3 00       		.byte	0
 4194 0fe4 00       		.byte	0
 4195 0fe5 29       		.uleb128 0x29
 4196 0fe6 80010000 		.4byte	.LASF211
 4197 0fea 02       		.byte	0x2
 4198 0feb EE01     		.2byte	0x1ee
 4199 0fed 00000000 		.4byte	.LFB47
 4200 0ff1 7C010000 		.4byte	.LFE47-.LFB47
 4201 0ff5 01       		.uleb128 0x1
 4202 0ff6 9C       		.byte	0x9c
 4203 0ff7 9C100000 		.4byte	0x109c
 4204 0ffb 2F       		.uleb128 0x2f
 4205 0ffc 6F626A00 		.ascii	"obj\000"
 4206 1000 02       		.byte	0x2
 4207 1001 EE01     		.2byte	0x1ee
 4208 1003 FD0E0000 		.4byte	0xefd
 4209 1007 02       		.uleb128 0x2
 4210 1008 91       		.byte	0x91
 4211 1009 44       		.sleb128 -60
 4212 100a 2B       		.uleb128 0x2b
 4213 100b 5C060000 		.4byte	.LASF212
 4214 100f 02       		.byte	0x2
 4215 1010 EE01     		.2byte	0x1ee
 4216 1012 64070000 		.4byte	0x764
 4217 1016 02       		.uleb128 0x2
 4218 1017 91       		.byte	0x91
 4219 1018 40       		.sleb128 -64
 4220 1019 2D       		.uleb128 0x2d
 4221 101a C5030000 		.4byte	.LASF213
 4222 101e 02       		.byte	0x2
 4223 101f F301     		.2byte	0x1f3
 4224 1021 D5010000 		.4byte	0x1d5
 4225 1025 02       		.uleb128 0x2
 4226 1026 91       		.byte	0x91
 4227 1027 71       		.sleb128 -15
 4228 1028 2D       		.uleb128 0x2d
 4229 1029 F1000000 		.4byte	.LASF214
 4230 102d 02       		.byte	0x2
 4231 102e F601     		.2byte	0x1f6
 4232 1030 3B030000 		.4byte	0x33b
 4233 1034 02       		.uleb128 0x2
 4234 1035 91       		.byte	0x91
 4235 1036 68       		.sleb128 -24
 4236 1037 2D       		.uleb128 0x2d
ARM GAS  C:\Users\tmj32\AppData\Local\Temp\cc8pVFHq.s 			page 88


 4237 1038 60050000 		.4byte	.LASF215
 4238 103c 02       		.byte	0x2
 4239 103d F701     		.2byte	0x1f7
 4240 103f 3B030000 		.4byte	0x33b
 4241 1043 02       		.uleb128 0x2
 4242 1044 91       		.byte	0x91
 4243 1045 60       		.sleb128 -32
 4244 1046 2D       		.uleb128 0x2d
 4245 1047 41050000 		.4byte	.LASF216
 4246 104b 02       		.byte	0x2
 4247 104c F801     		.2byte	0x1f8
 4248 104e 3B030000 		.4byte	0x33b
 4249 1052 02       		.uleb128 0x2
 4250 1053 91       		.byte	0x91
 4251 1054 58       		.sleb128 -40
 4252 1055 2D       		.uleb128 0x2d
 4253 1056 5C030000 		.4byte	.LASF217
 4254 105a 02       		.byte	0x2
 4255 105b F901     		.2byte	0x1f9
 4256 105d F6000000 		.4byte	0xf6
 4257 1061 02       		.uleb128 0x2
 4258 1062 91       		.byte	0x91
 4259 1063 72       		.sleb128 -14
 4260 1064 23       		.uleb128 0x23
 4261 1065 C4000000 		.4byte	.LBB14
 4262 1069 A0000000 		.4byte	.LBE14-.LBB14
 4263 106d 2D       		.uleb128 0x2d
 4264 106e 9B080000 		.4byte	.LASF218
 4265 1072 02       		.byte	0x2
 4266 1073 1102     		.2byte	0x211
 4267 1075 3B030000 		.4byte	0x33b
 4268 1079 02       		.uleb128 0x2
 4269 107a 91       		.byte	0x91
 4270 107b 50       		.sleb128 -48
 4271 107c 2D       		.uleb128 0x2d
 4272 107d 670A0000 		.4byte	.LASF219
 4273 1081 02       		.byte	0x2
 4274 1082 1202     		.2byte	0x212
 4275 1084 FD0E0000 		.4byte	0xefd
 4276 1088 02       		.uleb128 0x2
 4277 1089 91       		.byte	0x91
 4278 108a 74       		.sleb128 -12
 4279 108b 2D       		.uleb128 0x2d
 4280 108c 00000000 		.4byte	.LASF220
 4281 1090 02       		.byte	0x2
 4282 1091 1302     		.2byte	0x213
 4283 1093 3B030000 		.4byte	0x33b
 4284 1097 02       		.uleb128 0x2
 4285 1098 91       		.byte	0x91
 4286 1099 48       		.sleb128 -56
 4287 109a 00       		.byte	0
 4288 109b 00       		.byte	0
 4289 109c 29       		.uleb128 0x29
 4290 109d DF000000 		.4byte	.LASF221
 4291 10a1 02       		.byte	0x2
 4292 10a2 3002     		.2byte	0x230
 4293 10a4 00000000 		.4byte	.LFB48
ARM GAS  C:\Users\tmj32\AppData\Local\Temp\cc8pVFHq.s 			page 89


 4294 10a8 98000000 		.4byte	.LFE48-.LFB48
 4295 10ac 01       		.uleb128 0x1
 4296 10ad 9C       		.byte	0x9c
 4297 10ae D1100000 		.4byte	0x10d1
 4298 10b2 2A       		.uleb128 0x2a
 4299 10b3 76646200 		.ascii	"vdb\000"
 4300 10b7 02       		.byte	0x2
 4301 10b8 3202     		.2byte	0x232
 4302 10ba 43070000 		.4byte	0x743
 4303 10be 02       		.uleb128 0x2
 4304 10bf 91       		.byte	0x91
 4305 10c0 74       		.sleb128 -12
 4306 10c1 2D       		.uleb128 0x2d
 4307 10c2 82080000 		.4byte	.LASF179
 4308 10c6 02       		.byte	0x2
 4309 10c7 3E02     		.2byte	0x23e
 4310 10c9 120C0000 		.4byte	0xc12
 4311 10cd 02       		.uleb128 0x2
 4312 10ce 91       		.byte	0x91
 4313 10cf 70       		.sleb128 -16
 4314 10d0 00       		.byte	0
 4315 10d1 25       		.uleb128 0x25
 4316 10d2 DE060000 		.4byte	.LASF222
 4317 10d6 02       		.byte	0x2
 4318 10d7 30       		.byte	0x30
 4319 10d8 EB000000 		.4byte	0xeb
 4320 10dc 05       		.uleb128 0x5
 4321 10dd 03       		.byte	0x3
 4322 10de 00000000 		.4byte	px_num
 4323 10e2 25       		.uleb128 0x25
 4324 10e3 C3000000 		.4byte	.LASF223
 4325 10e7 02       		.byte	0x2
 4326 10e8 31       		.byte	0x31
 4327 10e9 120C0000 		.4byte	0xc12
 4328 10ed 05       		.uleb128 0x5
 4329 10ee 03       		.byte	0x3
 4330 10ef 04000000 		.4byte	disp_refr
 4331 10f3 00       		.byte	0
 4332              		.section	.debug_abbrev,"",%progbits
 4333              	.Ldebug_abbrev0:
 4334 0000 01       		.uleb128 0x1
 4335 0001 11       		.uleb128 0x11
 4336 0002 01       		.byte	0x1
 4337 0003 25       		.uleb128 0x25
 4338 0004 0E       		.uleb128 0xe
 4339 0005 13       		.uleb128 0x13
 4340 0006 0B       		.uleb128 0xb
 4341 0007 03       		.uleb128 0x3
 4342 0008 0E       		.uleb128 0xe
 4343 0009 1B       		.uleb128 0x1b
 4344 000a 0E       		.uleb128 0xe
 4345 000b 55       		.uleb128 0x55
 4346 000c 17       		.uleb128 0x17
 4347 000d 11       		.uleb128 0x11
 4348 000e 01       		.uleb128 0x1
 4349 000f 10       		.uleb128 0x10
 4350 0010 17       		.uleb128 0x17
ARM GAS  C:\Users\tmj32\AppData\Local\Temp\cc8pVFHq.s 			page 90


 4351 0011 00       		.byte	0
 4352 0012 00       		.byte	0
 4353 0013 02       		.uleb128 0x2
 4354 0014 24       		.uleb128 0x24
 4355 0015 00       		.byte	0
 4356 0016 0B       		.uleb128 0xb
 4357 0017 0B       		.uleb128 0xb
 4358 0018 3E       		.uleb128 0x3e
 4359 0019 0B       		.uleb128 0xb
 4360 001a 03       		.uleb128 0x3
 4361 001b 08       		.uleb128 0x8
 4362 001c 00       		.byte	0
 4363 001d 00       		.byte	0
 4364 001e 03       		.uleb128 0x3
 4365 001f 24       		.uleb128 0x24
 4366 0020 00       		.byte	0
 4367 0021 0B       		.uleb128 0xb
 4368 0022 0B       		.uleb128 0xb
 4369 0023 3E       		.uleb128 0x3e
 4370 0024 0B       		.uleb128 0xb
 4371 0025 03       		.uleb128 0x3
 4372 0026 0E       		.uleb128 0xe
 4373 0027 00       		.byte	0
 4374 0028 00       		.byte	0
 4375 0029 04       		.uleb128 0x4
 4376 002a 16       		.uleb128 0x16
 4377 002b 00       		.byte	0
 4378 002c 03       		.uleb128 0x3
 4379 002d 0E       		.uleb128 0xe
 4380 002e 3A       		.uleb128 0x3a
 4381 002f 0B       		.uleb128 0xb
 4382 0030 3B       		.uleb128 0x3b
 4383 0031 0B       		.uleb128 0xb
 4384 0032 49       		.uleb128 0x49
 4385 0033 13       		.uleb128 0x13
 4386 0034 00       		.byte	0
 4387 0035 00       		.byte	0
 4388 0036 05       		.uleb128 0x5
 4389 0037 0F       		.uleb128 0xf
 4390 0038 00       		.byte	0
 4391 0039 0B       		.uleb128 0xb
 4392 003a 0B       		.uleb128 0xb
 4393 003b 00       		.byte	0
 4394 003c 00       		.byte	0
 4395 003d 06       		.uleb128 0x6
 4396 003e 13       		.uleb128 0x13
 4397 003f 01       		.byte	0x1
 4398 0040 0B       		.uleb128 0xb
 4399 0041 0B       		.uleb128 0xb
 4400 0042 3A       		.uleb128 0x3a
 4401 0043 0B       		.uleb128 0xb
 4402 0044 3B       		.uleb128 0x3b
 4403 0045 0B       		.uleb128 0xb
 4404 0046 01       		.uleb128 0x1
 4405 0047 13       		.uleb128 0x13
 4406 0048 00       		.byte	0
 4407 0049 00       		.byte	0
ARM GAS  C:\Users\tmj32\AppData\Local\Temp\cc8pVFHq.s 			page 91


 4408 004a 07       		.uleb128 0x7
 4409 004b 0D       		.uleb128 0xd
 4410 004c 00       		.byte	0
 4411 004d 03       		.uleb128 0x3
 4412 004e 0E       		.uleb128 0xe
 4413 004f 3A       		.uleb128 0x3a
 4414 0050 0B       		.uleb128 0xb
 4415 0051 3B       		.uleb128 0x3b
 4416 0052 0B       		.uleb128 0xb
 4417 0053 49       		.uleb128 0x49
 4418 0054 13       		.uleb128 0x13
 4419 0055 38       		.uleb128 0x38
 4420 0056 0B       		.uleb128 0xb
 4421 0057 00       		.byte	0
 4422 0058 00       		.byte	0
 4423 0059 08       		.uleb128 0x8
 4424 005a 0D       		.uleb128 0xd
 4425 005b 00       		.byte	0
 4426 005c 03       		.uleb128 0x3
 4427 005d 08       		.uleb128 0x8
 4428 005e 3A       		.uleb128 0x3a
 4429 005f 0B       		.uleb128 0xb
 4430 0060 3B       		.uleb128 0x3b
 4431 0061 0B       		.uleb128 0xb
 4432 0062 49       		.uleb128 0x49
 4433 0063 13       		.uleb128 0x13
 4434 0064 38       		.uleb128 0x38
 4435 0065 0B       		.uleb128 0xb
 4436 0066 00       		.byte	0
 4437 0067 00       		.byte	0
 4438 0068 09       		.uleb128 0x9
 4439 0069 13       		.uleb128 0x13
 4440 006a 01       		.byte	0x1
 4441 006b 03       		.uleb128 0x3
 4442 006c 0E       		.uleb128 0xe
 4443 006d 0B       		.uleb128 0xb
 4444 006e 0B       		.uleb128 0xb
 4445 006f 3A       		.uleb128 0x3a
 4446 0070 0B       		.uleb128 0xb
 4447 0071 3B       		.uleb128 0x3b
 4448 0072 0B       		.uleb128 0xb
 4449 0073 01       		.uleb128 0x1
 4450 0074 13       		.uleb128 0x13
 4451 0075 00       		.byte	0
 4452 0076 00       		.byte	0
 4453 0077 0A       		.uleb128 0xa
 4454 0078 0D       		.uleb128 0xd
 4455 0079 00       		.byte	0
 4456 007a 03       		.uleb128 0x3
 4457 007b 0E       		.uleb128 0xe
 4458 007c 3A       		.uleb128 0x3a
 4459 007d 0B       		.uleb128 0xb
 4460 007e 3B       		.uleb128 0x3b
 4461 007f 0B       		.uleb128 0xb
 4462 0080 49       		.uleb128 0x49
 4463 0081 13       		.uleb128 0x13
 4464 0082 0B       		.uleb128 0xb
ARM GAS  C:\Users\tmj32\AppData\Local\Temp\cc8pVFHq.s 			page 92


 4465 0083 0B       		.uleb128 0xb
 4466 0084 0D       		.uleb128 0xd
 4467 0085 0B       		.uleb128 0xb
 4468 0086 0C       		.uleb128 0xc
 4469 0087 0B       		.uleb128 0xb
 4470 0088 38       		.uleb128 0x38
 4471 0089 0B       		.uleb128 0xb
 4472 008a 00       		.byte	0
 4473 008b 00       		.byte	0
 4474 008c 0B       		.uleb128 0xb
 4475 008d 15       		.uleb128 0x15
 4476 008e 01       		.byte	0x1
 4477 008f 27       		.uleb128 0x27
 4478 0090 19       		.uleb128 0x19
 4479 0091 49       		.uleb128 0x49
 4480 0092 13       		.uleb128 0x13
 4481 0093 01       		.uleb128 0x1
 4482 0094 13       		.uleb128 0x13
 4483 0095 00       		.byte	0
 4484 0096 00       		.byte	0
 4485 0097 0C       		.uleb128 0xc
 4486 0098 05       		.uleb128 0x5
 4487 0099 00       		.byte	0
 4488 009a 49       		.uleb128 0x49
 4489 009b 13       		.uleb128 0x13
 4490 009c 00       		.byte	0
 4491 009d 00       		.byte	0
 4492 009e 0D       		.uleb128 0xd
 4493 009f 0F       		.uleb128 0xf
 4494 00a0 00       		.byte	0
 4495 00a1 0B       		.uleb128 0xb
 4496 00a2 0B       		.uleb128 0xb
 4497 00a3 49       		.uleb128 0x49
 4498 00a4 13       		.uleb128 0x13
 4499 00a5 00       		.byte	0
 4500 00a6 00       		.byte	0
 4501 00a7 0E       		.uleb128 0xe
 4502 00a8 26       		.uleb128 0x26
 4503 00a9 00       		.byte	0
 4504 00aa 49       		.uleb128 0x49
 4505 00ab 13       		.uleb128 0x13
 4506 00ac 00       		.byte	0
 4507 00ad 00       		.byte	0
 4508 00ae 0F       		.uleb128 0xf
 4509 00af 04       		.uleb128 0x4
 4510 00b0 01       		.byte	0x1
 4511 00b1 0B       		.uleb128 0xb
 4512 00b2 0B       		.uleb128 0xb
 4513 00b3 49       		.uleb128 0x49
 4514 00b4 13       		.uleb128 0x13
 4515 00b5 3A       		.uleb128 0x3a
 4516 00b6 0B       		.uleb128 0xb
 4517 00b7 3B       		.uleb128 0x3b
 4518 00b8 0B       		.uleb128 0xb
 4519 00b9 01       		.uleb128 0x1
 4520 00ba 13       		.uleb128 0x13
 4521 00bb 00       		.byte	0
ARM GAS  C:\Users\tmj32\AppData\Local\Temp\cc8pVFHq.s 			page 93


 4522 00bc 00       		.byte	0
 4523 00bd 10       		.uleb128 0x10
 4524 00be 28       		.uleb128 0x28
 4525 00bf 00       		.byte	0
 4526 00c0 03       		.uleb128 0x3
 4527 00c1 0E       		.uleb128 0xe
 4528 00c2 1C       		.uleb128 0x1c
 4529 00c3 0B       		.uleb128 0xb
 4530 00c4 00       		.byte	0
 4531 00c5 00       		.byte	0
 4532 00c6 11       		.uleb128 0x11
 4533 00c7 17       		.uleb128 0x17
 4534 00c8 01       		.byte	0x1
 4535 00c9 0B       		.uleb128 0xb
 4536 00ca 0B       		.uleb128 0xb
 4537 00cb 3A       		.uleb128 0x3a
 4538 00cc 0B       		.uleb128 0xb
 4539 00cd 3B       		.uleb128 0x3b
 4540 00ce 0B       		.uleb128 0xb
 4541 00cf 01       		.uleb128 0x1
 4542 00d0 13       		.uleb128 0x13
 4543 00d1 00       		.byte	0
 4544 00d2 00       		.byte	0
 4545 00d3 12       		.uleb128 0x12
 4546 00d4 0D       		.uleb128 0xd
 4547 00d5 00       		.byte	0
 4548 00d6 03       		.uleb128 0x3
 4549 00d7 08       		.uleb128 0x8
 4550 00d8 3A       		.uleb128 0x3a
 4551 00d9 0B       		.uleb128 0xb
 4552 00da 3B       		.uleb128 0x3b
 4553 00db 0B       		.uleb128 0xb
 4554 00dc 49       		.uleb128 0x49
 4555 00dd 13       		.uleb128 0x13
 4556 00de 00       		.byte	0
 4557 00df 00       		.byte	0
 4558 00e0 13       		.uleb128 0x13
 4559 00e1 0D       		.uleb128 0xd
 4560 00e2 00       		.byte	0
 4561 00e3 03       		.uleb128 0x3
 4562 00e4 0E       		.uleb128 0xe
 4563 00e5 3A       		.uleb128 0x3a
 4564 00e6 0B       		.uleb128 0xb
 4565 00e7 3B       		.uleb128 0x3b
 4566 00e8 0B       		.uleb128 0xb
 4567 00e9 49       		.uleb128 0x49
 4568 00ea 13       		.uleb128 0x13
 4569 00eb 00       		.byte	0
 4570 00ec 00       		.byte	0
 4571 00ed 14       		.uleb128 0x14
 4572 00ee 16       		.uleb128 0x16
 4573 00ef 00       		.byte	0
 4574 00f0 03       		.uleb128 0x3
 4575 00f1 0E       		.uleb128 0xe
 4576 00f2 3A       		.uleb128 0x3a
 4577 00f3 0B       		.uleb128 0xb
 4578 00f4 3B       		.uleb128 0x3b
ARM GAS  C:\Users\tmj32\AppData\Local\Temp\cc8pVFHq.s 			page 94


 4579 00f5 05       		.uleb128 0x5
 4580 00f6 49       		.uleb128 0x49
 4581 00f7 13       		.uleb128 0x13
 4582 00f8 00       		.byte	0
 4583 00f9 00       		.byte	0
 4584 00fa 15       		.uleb128 0x15
 4585 00fb 15       		.uleb128 0x15
 4586 00fc 01       		.byte	0x1
 4587 00fd 27       		.uleb128 0x27
 4588 00fe 19       		.uleb128 0x19
 4589 00ff 01       		.uleb128 0x1
 4590 0100 13       		.uleb128 0x13
 4591 0101 00       		.byte	0
 4592 0102 00       		.byte	0
 4593 0103 16       		.uleb128 0x16
 4594 0104 35       		.uleb128 0x35
 4595 0105 00       		.byte	0
 4596 0106 49       		.uleb128 0x49
 4597 0107 13       		.uleb128 0x13
 4598 0108 00       		.byte	0
 4599 0109 00       		.byte	0
 4600 010a 17       		.uleb128 0x17
 4601 010b 13       		.uleb128 0x13
 4602 010c 01       		.byte	0x1
 4603 010d 03       		.uleb128 0x3
 4604 010e 0E       		.uleb128 0xe
 4605 010f 0B       		.uleb128 0xb
 4606 0110 05       		.uleb128 0x5
 4607 0111 3A       		.uleb128 0x3a
 4608 0112 0B       		.uleb128 0xb
 4609 0113 3B       		.uleb128 0x3b
 4610 0114 0B       		.uleb128 0xb
 4611 0115 01       		.uleb128 0x1
 4612 0116 13       		.uleb128 0x13
 4613 0117 00       		.byte	0
 4614 0118 00       		.byte	0
 4615 0119 18       		.uleb128 0x18
 4616 011a 0D       		.uleb128 0xd
 4617 011b 00       		.byte	0
 4618 011c 03       		.uleb128 0x3
 4619 011d 0E       		.uleb128 0xe
 4620 011e 3A       		.uleb128 0x3a
 4621 011f 0B       		.uleb128 0xb
 4622 0120 3B       		.uleb128 0x3b
 4623 0121 0B       		.uleb128 0xb
 4624 0122 49       		.uleb128 0x49
 4625 0123 13       		.uleb128 0x13
 4626 0124 38       		.uleb128 0x38
 4627 0125 05       		.uleb128 0x5
 4628 0126 00       		.byte	0
 4629 0127 00       		.byte	0
 4630 0128 19       		.uleb128 0x19
 4631 0129 0D       		.uleb128 0xd
 4632 012a 00       		.byte	0
 4633 012b 03       		.uleb128 0x3
 4634 012c 0E       		.uleb128 0xe
 4635 012d 3A       		.uleb128 0x3a
ARM GAS  C:\Users\tmj32\AppData\Local\Temp\cc8pVFHq.s 			page 95


 4636 012e 0B       		.uleb128 0xb
 4637 012f 3B       		.uleb128 0x3b
 4638 0130 0B       		.uleb128 0xb
 4639 0131 49       		.uleb128 0x49
 4640 0132 13       		.uleb128 0x13
 4641 0133 0B       		.uleb128 0xb
 4642 0134 0B       		.uleb128 0xb
 4643 0135 0D       		.uleb128 0xd
 4644 0136 0B       		.uleb128 0xb
 4645 0137 0C       		.uleb128 0xc
 4646 0138 0B       		.uleb128 0xb
 4647 0139 38       		.uleb128 0x38
 4648 013a 05       		.uleb128 0x5
 4649 013b 00       		.byte	0
 4650 013c 00       		.byte	0
 4651 013d 1A       		.uleb128 0x1a
 4652 013e 0D       		.uleb128 0xd
 4653 013f 00       		.byte	0
 4654 0140 03       		.uleb128 0x3
 4655 0141 08       		.uleb128 0x8
 4656 0142 3A       		.uleb128 0x3a
 4657 0143 0B       		.uleb128 0xb
 4658 0144 3B       		.uleb128 0x3b
 4659 0145 0B       		.uleb128 0xb
 4660 0146 49       		.uleb128 0x49
 4661 0147 13       		.uleb128 0x13
 4662 0148 0B       		.uleb128 0xb
 4663 0149 0B       		.uleb128 0xb
 4664 014a 0D       		.uleb128 0xd
 4665 014b 0B       		.uleb128 0xb
 4666 014c 0C       		.uleb128 0xc
 4667 014d 0B       		.uleb128 0xb
 4668 014e 38       		.uleb128 0x38
 4669 014f 0B       		.uleb128 0xb
 4670 0150 00       		.byte	0
 4671 0151 00       		.byte	0
 4672 0152 1B       		.uleb128 0x1b
 4673 0153 01       		.uleb128 0x1
 4674 0154 01       		.byte	0x1
 4675 0155 49       		.uleb128 0x49
 4676 0156 13       		.uleb128 0x13
 4677 0157 01       		.uleb128 0x1
 4678 0158 13       		.uleb128 0x13
 4679 0159 00       		.byte	0
 4680 015a 00       		.byte	0
 4681 015b 1C       		.uleb128 0x1c
 4682 015c 21       		.uleb128 0x21
 4683 015d 00       		.byte	0
 4684 015e 49       		.uleb128 0x49
 4685 015f 13       		.uleb128 0x13
 4686 0160 2F       		.uleb128 0x2f
 4687 0161 0B       		.uleb128 0xb
 4688 0162 00       		.byte	0
 4689 0163 00       		.byte	0
 4690 0164 1D       		.uleb128 0x1d
 4691 0165 2E       		.uleb128 0x2e
 4692 0166 01       		.byte	0x1
ARM GAS  C:\Users\tmj32\AppData\Local\Temp\cc8pVFHq.s 			page 96


 4693 0167 03       		.uleb128 0x3
 4694 0168 0E       		.uleb128 0xe
 4695 0169 3A       		.uleb128 0x3a
 4696 016a 0B       		.uleb128 0xb
 4697 016b 3B       		.uleb128 0x3b
 4698 016c 0B       		.uleb128 0xb
 4699 016d 27       		.uleb128 0x27
 4700 016e 19       		.uleb128 0x19
 4701 016f 11       		.uleb128 0x11
 4702 0170 01       		.uleb128 0x1
 4703 0171 12       		.uleb128 0x12
 4704 0172 06       		.uleb128 0x6
 4705 0173 40       		.uleb128 0x40
 4706 0174 18       		.uleb128 0x18
 4707 0175 9642     		.uleb128 0x2116
 4708 0177 19       		.uleb128 0x19
 4709 0178 01       		.uleb128 0x1
 4710 0179 13       		.uleb128 0x13
 4711 017a 00       		.byte	0
 4712 017b 00       		.byte	0
 4713 017c 1E       		.uleb128 0x1e
 4714 017d 05       		.uleb128 0x5
 4715 017e 00       		.byte	0
 4716 017f 03       		.uleb128 0x3
 4717 0180 0E       		.uleb128 0xe
 4718 0181 3A       		.uleb128 0x3a
 4719 0182 0B       		.uleb128 0xb
 4720 0183 3B       		.uleb128 0x3b
 4721 0184 0B       		.uleb128 0xb
 4722 0185 49       		.uleb128 0x49
 4723 0186 13       		.uleb128 0x13
 4724 0187 02       		.uleb128 0x2
 4725 0188 18       		.uleb128 0x18
 4726 0189 00       		.byte	0
 4727 018a 00       		.byte	0
 4728 018b 1F       		.uleb128 0x1f
 4729 018c 05       		.uleb128 0x5
 4730 018d 00       		.byte	0
 4731 018e 03       		.uleb128 0x3
 4732 018f 08       		.uleb128 0x8
 4733 0190 3A       		.uleb128 0x3a
 4734 0191 0B       		.uleb128 0xb
 4735 0192 3B       		.uleb128 0x3b
 4736 0193 0B       		.uleb128 0xb
 4737 0194 49       		.uleb128 0x49
 4738 0195 13       		.uleb128 0x13
 4739 0196 02       		.uleb128 0x2
 4740 0197 18       		.uleb128 0x18
 4741 0198 00       		.byte	0
 4742 0199 00       		.byte	0
 4743 019a 20       		.uleb128 0x20
 4744 019b 2E       		.uleb128 0x2e
 4745 019c 01       		.byte	0x1
 4746 019d 03       		.uleb128 0x3
 4747 019e 0E       		.uleb128 0xe
 4748 019f 3A       		.uleb128 0x3a
 4749 01a0 0B       		.uleb128 0xb
ARM GAS  C:\Users\tmj32\AppData\Local\Temp\cc8pVFHq.s 			page 97


 4750 01a1 3B       		.uleb128 0x3b
 4751 01a2 0B       		.uleb128 0xb
 4752 01a3 27       		.uleb128 0x27
 4753 01a4 19       		.uleb128 0x19
 4754 01a5 49       		.uleb128 0x49
 4755 01a6 13       		.uleb128 0x13
 4756 01a7 11       		.uleb128 0x11
 4757 01a8 01       		.uleb128 0x1
 4758 01a9 12       		.uleb128 0x12
 4759 01aa 06       		.uleb128 0x6
 4760 01ab 40       		.uleb128 0x40
 4761 01ac 18       		.uleb128 0x18
 4762 01ad 9742     		.uleb128 0x2117
 4763 01af 19       		.uleb128 0x19
 4764 01b0 01       		.uleb128 0x1
 4765 01b1 13       		.uleb128 0x13
 4766 01b2 00       		.byte	0
 4767 01b3 00       		.byte	0
 4768 01b4 21       		.uleb128 0x21
 4769 01b5 2E       		.uleb128 0x2e
 4770 01b6 00       		.byte	0
 4771 01b7 3F       		.uleb128 0x3f
 4772 01b8 19       		.uleb128 0x19
 4773 01b9 03       		.uleb128 0x3
 4774 01ba 0E       		.uleb128 0xe
 4775 01bb 3A       		.uleb128 0x3a
 4776 01bc 0B       		.uleb128 0xb
 4777 01bd 3B       		.uleb128 0x3b
 4778 01be 0B       		.uleb128 0xb
 4779 01bf 27       		.uleb128 0x27
 4780 01c0 19       		.uleb128 0x19
 4781 01c1 11       		.uleb128 0x11
 4782 01c2 01       		.uleb128 0x1
 4783 01c3 12       		.uleb128 0x12
 4784 01c4 06       		.uleb128 0x6
 4785 01c5 40       		.uleb128 0x40
 4786 01c6 18       		.uleb128 0x18
 4787 01c7 9742     		.uleb128 0x2117
 4788 01c9 19       		.uleb128 0x19
 4789 01ca 00       		.byte	0
 4790 01cb 00       		.byte	0
 4791 01cc 22       		.uleb128 0x22
 4792 01cd 2E       		.uleb128 0x2e
 4793 01ce 01       		.byte	0x1
 4794 01cf 3F       		.uleb128 0x3f
 4795 01d0 19       		.uleb128 0x19
 4796 01d1 03       		.uleb128 0x3
 4797 01d2 0E       		.uleb128 0xe
 4798 01d3 3A       		.uleb128 0x3a
 4799 01d4 0B       		.uleb128 0xb
 4800 01d5 3B       		.uleb128 0x3b
 4801 01d6 0B       		.uleb128 0xb
 4802 01d7 27       		.uleb128 0x27
 4803 01d8 19       		.uleb128 0x19
 4804 01d9 11       		.uleb128 0x11
 4805 01da 01       		.uleb128 0x1
 4806 01db 12       		.uleb128 0x12
ARM GAS  C:\Users\tmj32\AppData\Local\Temp\cc8pVFHq.s 			page 98


 4807 01dc 06       		.uleb128 0x6
 4808 01dd 40       		.uleb128 0x40
 4809 01de 18       		.uleb128 0x18
 4810 01df 9642     		.uleb128 0x2116
 4811 01e1 19       		.uleb128 0x19
 4812 01e2 01       		.uleb128 0x1
 4813 01e3 13       		.uleb128 0x13
 4814 01e4 00       		.byte	0
 4815 01e5 00       		.byte	0
 4816 01e6 23       		.uleb128 0x23
 4817 01e7 0B       		.uleb128 0xb
 4818 01e8 01       		.byte	0x1
 4819 01e9 11       		.uleb128 0x11
 4820 01ea 01       		.uleb128 0x1
 4821 01eb 12       		.uleb128 0x12
 4822 01ec 06       		.uleb128 0x6
 4823 01ed 00       		.byte	0
 4824 01ee 00       		.byte	0
 4825 01ef 24       		.uleb128 0x24
 4826 01f0 34       		.uleb128 0x34
 4827 01f1 00       		.byte	0
 4828 01f2 03       		.uleb128 0x3
 4829 01f3 08       		.uleb128 0x8
 4830 01f4 3A       		.uleb128 0x3a
 4831 01f5 0B       		.uleb128 0xb
 4832 01f6 3B       		.uleb128 0x3b
 4833 01f7 0B       		.uleb128 0xb
 4834 01f8 49       		.uleb128 0x49
 4835 01f9 13       		.uleb128 0x13
 4836 01fa 02       		.uleb128 0x2
 4837 01fb 18       		.uleb128 0x18
 4838 01fc 00       		.byte	0
 4839 01fd 00       		.byte	0
 4840 01fe 25       		.uleb128 0x25
 4841 01ff 34       		.uleb128 0x34
 4842 0200 00       		.byte	0
 4843 0201 03       		.uleb128 0x3
 4844 0202 0E       		.uleb128 0xe
 4845 0203 3A       		.uleb128 0x3a
 4846 0204 0B       		.uleb128 0xb
 4847 0205 3B       		.uleb128 0x3b
 4848 0206 0B       		.uleb128 0xb
 4849 0207 49       		.uleb128 0x49
 4850 0208 13       		.uleb128 0x13
 4851 0209 02       		.uleb128 0x2
 4852 020a 18       		.uleb128 0x18
 4853 020b 00       		.byte	0
 4854 020c 00       		.byte	0
 4855 020d 26       		.uleb128 0x26
 4856 020e 0B       		.uleb128 0xb
 4857 020f 01       		.byte	0x1
 4858 0210 55       		.uleb128 0x55
 4859 0211 17       		.uleb128 0x17
 4860 0212 00       		.byte	0
 4861 0213 00       		.byte	0
 4862 0214 27       		.uleb128 0x27
 4863 0215 2E       		.uleb128 0x2e
ARM GAS  C:\Users\tmj32\AppData\Local\Temp\cc8pVFHq.s 			page 99


 4864 0216 00       		.byte	0
 4865 0217 3F       		.uleb128 0x3f
 4866 0218 19       		.uleb128 0x19
 4867 0219 03       		.uleb128 0x3
 4868 021a 0E       		.uleb128 0xe
 4869 021b 3A       		.uleb128 0x3a
 4870 021c 0B       		.uleb128 0xb
 4871 021d 3B       		.uleb128 0x3b
 4872 021e 0B       		.uleb128 0xb
 4873 021f 27       		.uleb128 0x27
 4874 0220 19       		.uleb128 0x19
 4875 0221 49       		.uleb128 0x49
 4876 0222 13       		.uleb128 0x13
 4877 0223 11       		.uleb128 0x11
 4878 0224 01       		.uleb128 0x1
 4879 0225 12       		.uleb128 0x12
 4880 0226 06       		.uleb128 0x6
 4881 0227 40       		.uleb128 0x40
 4882 0228 18       		.uleb128 0x18
 4883 0229 9742     		.uleb128 0x2117
 4884 022b 19       		.uleb128 0x19
 4885 022c 00       		.byte	0
 4886 022d 00       		.byte	0
 4887 022e 28       		.uleb128 0x28
 4888 022f 2E       		.uleb128 0x2e
 4889 0230 01       		.byte	0x1
 4890 0231 3F       		.uleb128 0x3f
 4891 0232 19       		.uleb128 0x19
 4892 0233 03       		.uleb128 0x3
 4893 0234 0E       		.uleb128 0xe
 4894 0235 3A       		.uleb128 0x3a
 4895 0236 0B       		.uleb128 0xb
 4896 0237 3B       		.uleb128 0x3b
 4897 0238 0B       		.uleb128 0xb
 4898 0239 27       		.uleb128 0x27
 4899 023a 19       		.uleb128 0x19
 4900 023b 11       		.uleb128 0x11
 4901 023c 01       		.uleb128 0x1
 4902 023d 12       		.uleb128 0x12
 4903 023e 06       		.uleb128 0x6
 4904 023f 40       		.uleb128 0x40
 4905 0240 18       		.uleb128 0x18
 4906 0241 9742     		.uleb128 0x2117
 4907 0243 19       		.uleb128 0x19
 4908 0244 01       		.uleb128 0x1
 4909 0245 13       		.uleb128 0x13
 4910 0246 00       		.byte	0
 4911 0247 00       		.byte	0
 4912 0248 29       		.uleb128 0x29
 4913 0249 2E       		.uleb128 0x2e
 4914 024a 01       		.byte	0x1
 4915 024b 03       		.uleb128 0x3
 4916 024c 0E       		.uleb128 0xe
 4917 024d 3A       		.uleb128 0x3a
 4918 024e 0B       		.uleb128 0xb
 4919 024f 3B       		.uleb128 0x3b
 4920 0250 05       		.uleb128 0x5
ARM GAS  C:\Users\tmj32\AppData\Local\Temp\cc8pVFHq.s 			page 100


 4921 0251 27       		.uleb128 0x27
 4922 0252 19       		.uleb128 0x19
 4923 0253 11       		.uleb128 0x11
 4924 0254 01       		.uleb128 0x1
 4925 0255 12       		.uleb128 0x12
 4926 0256 06       		.uleb128 0x6
 4927 0257 40       		.uleb128 0x40
 4928 0258 18       		.uleb128 0x18
 4929 0259 9642     		.uleb128 0x2116
 4930 025b 19       		.uleb128 0x19
 4931 025c 01       		.uleb128 0x1
 4932 025d 13       		.uleb128 0x13
 4933 025e 00       		.byte	0
 4934 025f 00       		.byte	0
 4935 0260 2A       		.uleb128 0x2a
 4936 0261 34       		.uleb128 0x34
 4937 0262 00       		.byte	0
 4938 0263 03       		.uleb128 0x3
 4939 0264 08       		.uleb128 0x8
 4940 0265 3A       		.uleb128 0x3a
 4941 0266 0B       		.uleb128 0xb
 4942 0267 3B       		.uleb128 0x3b
 4943 0268 05       		.uleb128 0x5
 4944 0269 49       		.uleb128 0x49
 4945 026a 13       		.uleb128 0x13
 4946 026b 02       		.uleb128 0x2
 4947 026c 18       		.uleb128 0x18
 4948 026d 00       		.byte	0
 4949 026e 00       		.byte	0
 4950 026f 2B       		.uleb128 0x2b
 4951 0270 05       		.uleb128 0x5
 4952 0271 00       		.byte	0
 4953 0272 03       		.uleb128 0x3
 4954 0273 0E       		.uleb128 0xe
 4955 0274 3A       		.uleb128 0x3a
 4956 0275 0B       		.uleb128 0xb
 4957 0276 3B       		.uleb128 0x3b
 4958 0277 05       		.uleb128 0x5
 4959 0278 49       		.uleb128 0x49
 4960 0279 13       		.uleb128 0x13
 4961 027a 02       		.uleb128 0x2
 4962 027b 18       		.uleb128 0x18
 4963 027c 00       		.byte	0
 4964 027d 00       		.byte	0
 4965 027e 2C       		.uleb128 0x2c
 4966 027f 0B       		.uleb128 0xb
 4967 0280 01       		.byte	0x1
 4968 0281 11       		.uleb128 0x11
 4969 0282 01       		.uleb128 0x1
 4970 0283 12       		.uleb128 0x12
 4971 0284 06       		.uleb128 0x6
 4972 0285 01       		.uleb128 0x1
 4973 0286 13       		.uleb128 0x13
 4974 0287 00       		.byte	0
 4975 0288 00       		.byte	0
 4976 0289 2D       		.uleb128 0x2d
 4977 028a 34       		.uleb128 0x34
ARM GAS  C:\Users\tmj32\AppData\Local\Temp\cc8pVFHq.s 			page 101


 4978 028b 00       		.byte	0
 4979 028c 03       		.uleb128 0x3
 4980 028d 0E       		.uleb128 0xe
 4981 028e 3A       		.uleb128 0x3a
 4982 028f 0B       		.uleb128 0xb
 4983 0290 3B       		.uleb128 0x3b
 4984 0291 05       		.uleb128 0x5
 4985 0292 49       		.uleb128 0x49
 4986 0293 13       		.uleb128 0x13
 4987 0294 02       		.uleb128 0x2
 4988 0295 18       		.uleb128 0x18
 4989 0296 00       		.byte	0
 4990 0297 00       		.byte	0
 4991 0298 2E       		.uleb128 0x2e
 4992 0299 2E       		.uleb128 0x2e
 4993 029a 01       		.byte	0x1
 4994 029b 03       		.uleb128 0x3
 4995 029c 0E       		.uleb128 0xe
 4996 029d 3A       		.uleb128 0x3a
 4997 029e 0B       		.uleb128 0xb
 4998 029f 3B       		.uleb128 0x3b
 4999 02a0 05       		.uleb128 0x5
 5000 02a1 27       		.uleb128 0x27
 5001 02a2 19       		.uleb128 0x19
 5002 02a3 49       		.uleb128 0x49
 5003 02a4 13       		.uleb128 0x13
 5004 02a5 11       		.uleb128 0x11
 5005 02a6 01       		.uleb128 0x1
 5006 02a7 12       		.uleb128 0x12
 5007 02a8 06       		.uleb128 0x6
 5008 02a9 40       		.uleb128 0x40
 5009 02aa 18       		.uleb128 0x18
 5010 02ab 9642     		.uleb128 0x2116
 5011 02ad 19       		.uleb128 0x19
 5012 02ae 01       		.uleb128 0x1
 5013 02af 13       		.uleb128 0x13
 5014 02b0 00       		.byte	0
 5015 02b1 00       		.byte	0
 5016 02b2 2F       		.uleb128 0x2f
 5017 02b3 05       		.uleb128 0x5
 5018 02b4 00       		.byte	0
 5019 02b5 03       		.uleb128 0x3
 5020 02b6 08       		.uleb128 0x8
 5021 02b7 3A       		.uleb128 0x3a
 5022 02b8 0B       		.uleb128 0xb
 5023 02b9 3B       		.uleb128 0x3b
 5024 02ba 05       		.uleb128 0x5
 5025 02bb 49       		.uleb128 0x49
 5026 02bc 13       		.uleb128 0x13
 5027 02bd 02       		.uleb128 0x2
 5028 02be 18       		.uleb128 0x18
 5029 02bf 00       		.byte	0
 5030 02c0 00       		.byte	0
 5031 02c1 00       		.byte	0
 5032              		.section	.debug_aranges,"",%progbits
 5033 0000 9C000000 		.4byte	0x9c
 5034 0004 0200     		.2byte	0x2
ARM GAS  C:\Users\tmj32\AppData\Local\Temp\cc8pVFHq.s 			page 102


 5035 0006 00000000 		.4byte	.Ldebug_info0
 5036 000a 04       		.byte	0x4
 5037 000b 00       		.byte	0
 5038 000c 0000     		.2byte	0
 5039 000e 0000     		.2byte	0
 5040 0010 00000000 		.4byte	.LFB10
 5041 0014 1C000000 		.4byte	.LFE10-.LFB10
 5042 0018 00000000 		.4byte	.LFB11
 5043 001c 2E000000 		.4byte	.LFE11-.LFB11
 5044 0020 00000000 		.4byte	.LFB12
 5045 0024 2E000000 		.4byte	.LFE12-.LFB12
 5046 0028 00000000 		.4byte	.LFB35
 5047 002c 0E000000 		.4byte	.LFE35-.LFB35
 5048 0030 00000000 		.4byte	.LFB36
 5049 0034 44000000 		.4byte	.LFE36-.LFB36
 5050 0038 00000000 		.4byte	.LFB37
 5051 003c 60010000 		.4byte	.LFE37-.LFB37
 5052 0040 00000000 		.4byte	.LFB38
 5053 0044 18000000 		.4byte	.LFE38-.LFB38
 5054 0048 00000000 		.4byte	.LFB39
 5055 004c 20000000 		.4byte	.LFE39-.LFB39
 5056 0050 00000000 		.4byte	.LFB40
 5057 0054 D0010000 		.4byte	.LFE40-.LFB40
 5058 0058 00000000 		.4byte	.LFB41
 5059 005c 48010000 		.4byte	.LFE41-.LFB41
 5060 0060 00000000 		.4byte	.LFB42
 5061 0064 90000000 		.4byte	.LFE42-.LFB42
 5062 0068 00000000 		.4byte	.LFB43
 5063 006c 0C020000 		.4byte	.LFE43-.LFB43
 5064 0070 00000000 		.4byte	.LFB44
 5065 0074 C8000000 		.4byte	.LFE44-.LFB44
 5066 0078 00000000 		.4byte	.LFB45
 5067 007c A8000000 		.4byte	.LFE45-.LFB45
 5068 0080 00000000 		.4byte	.LFB46
 5069 0084 88000000 		.4byte	.LFE46-.LFB46
 5070 0088 00000000 		.4byte	.LFB47
 5071 008c 7C010000 		.4byte	.LFE47-.LFB47
 5072 0090 00000000 		.4byte	.LFB48
 5073 0094 98000000 		.4byte	.LFE48-.LFB48
 5074 0098 00000000 		.4byte	0
 5075 009c 00000000 		.4byte	0
 5076              		.section	.debug_ranges,"",%progbits
 5077              	.Ldebug_ranges0:
 5078 0000 7A000000 		.4byte	.LBB3
 5079 0004 54010000 		.4byte	.LBE3
 5080 0008 58010000 		.4byte	.LBB4
 5081 000c 5A010000 		.4byte	.LBE4
 5082 0010 00000000 		.4byte	0
 5083 0014 00000000 		.4byte	0
 5084 0018 E8000000 		.4byte	.LBB9
 5085 001c 52010000 		.4byte	.LBE9
 5086 0020 FE010000 		.4byte	.LBB10
 5087 0024 00020000 		.4byte	.LBE10
 5088 0028 00000000 		.4byte	0
 5089 002c 00000000 		.4byte	0
 5090 0030 00000000 		.4byte	.LFB10
 5091 0034 1C000000 		.4byte	.LFE10
ARM GAS  C:\Users\tmj32\AppData\Local\Temp\cc8pVFHq.s 			page 103


 5092 0038 00000000 		.4byte	.LFB11
 5093 003c 2E000000 		.4byte	.LFE11
 5094 0040 00000000 		.4byte	.LFB12
 5095 0044 2E000000 		.4byte	.LFE12
 5096 0048 00000000 		.4byte	.LFB35
 5097 004c 0E000000 		.4byte	.LFE35
 5098 0050 00000000 		.4byte	.LFB36
 5099 0054 44000000 		.4byte	.LFE36
 5100 0058 00000000 		.4byte	.LFB37
 5101 005c 60010000 		.4byte	.LFE37
 5102 0060 00000000 		.4byte	.LFB38
 5103 0064 18000000 		.4byte	.LFE38
 5104 0068 00000000 		.4byte	.LFB39
 5105 006c 20000000 		.4byte	.LFE39
 5106 0070 00000000 		.4byte	.LFB40
 5107 0074 D0010000 		.4byte	.LFE40
 5108 0078 00000000 		.4byte	.LFB41
 5109 007c 48010000 		.4byte	.LFE41
 5110 0080 00000000 		.4byte	.LFB42
 5111 0084 90000000 		.4byte	.LFE42
 5112 0088 00000000 		.4byte	.LFB43
 5113 008c 0C020000 		.4byte	.LFE43
 5114 0090 00000000 		.4byte	.LFB44
 5115 0094 C8000000 		.4byte	.LFE44
 5116 0098 00000000 		.4byte	.LFB45
 5117 009c A8000000 		.4byte	.LFE45
 5118 00a0 00000000 		.4byte	.LFB46
 5119 00a4 88000000 		.4byte	.LFE46
 5120 00a8 00000000 		.4byte	.LFB47
 5121 00ac 7C010000 		.4byte	.LFE47
 5122 00b0 00000000 		.4byte	.LFB48
 5123 00b4 98000000 		.4byte	.LFE48
 5124 00b8 00000000 		.4byte	0
 5125 00bc 00000000 		.4byte	0
 5126              		.section	.debug_line,"",%progbits
 5127              	.Ldebug_line0:
 5128 0000 54060000 		.section	.debug_str,"MS",%progbits,1
 5128      0200FC02 
 5128      00000201 
 5128      FB0E0D00 
 5128      01010101 
 5129              	.LASF220:
 5130 0000 6368696C 		.ascii	"child_area\000"
 5130      645F6172 
 5130      656100
 5131              	.LASF185:
 5132 000b 6C765F64 		.ascii	"lv_disp_refr_task\000"
 5132      6973705F 
 5132      72656672 
 5132      5F746173 
 5132      6B00
 5133              	.LASF73:
 5134 001d 70616464 		.ascii	"padding\000"
 5134      696E6700 
 5135              	.LASF82:
 5136 0025 626F6479 		.ascii	"body\000"
 5136      00
ARM GAS  C:\Users\tmj32\AppData\Local\Temp\cc8pVFHq.s 			page 104


 5137              	.LASF30:
 5138 002a 6765745F 		.ascii	"get_glyph_bitmap\000"
 5138      676C7970 
 5138      685F6269 
 5138      746D6170 
 5138      00
 5139              	.LASF190:
 5140 003b 73746172 		.ascii	"start_offs\000"
 5140      745F6F66 
 5140      667300
 5141              	.LASF40:
 5142 0046 4C565F4F 		.ascii	"LV_OPA_40\000"
 5142      50415F34 
 5142      3000
 5143              	.LASF39:
 5144 0050 4C565F4F 		.ascii	"LV_OPA_30\000"
 5144      50415F33 
 5144      3000
 5145              	.LASF141:
 5146 005a 636C6963 		.ascii	"click\000"
 5146      6B00
 5147              	.LASF103:
 5148 0060 6C765F74 		.ascii	"lv_task_t\000"
 5148      61736B5F 
 5148      7400
 5149              	.LASF196:
 5150 006a 6A6F696E 		.ascii	"joined_area\000"
 5150      65645F61 
 5150      72656100 
 5151              	.LASF195:
 5152 0076 6A6F696E 		.ascii	"join_in\000"
 5152      5F696E00 
 5153              	.LASF53:
 5154 007e 6C765F63 		.ascii	"lv_color_t\000"
 5154      6F6C6F72 
 5154      5F7400
 5155              	.LASF3:
 5156 0089 7369676E 		.ascii	"signed char\000"
 5156      65642063 
 5156      68617200 
 5157              	.LASF5:
 5158 0095 5F5F7569 		.ascii	"__uint8_t\000"
 5158      6E74385F 
 5158      7400
 5159              	.LASF180:
 5160 009f 6C765F72 		.ascii	"lv_refr_now\000"
 5160      6566725F 
 5160      6E6F7700 
 5161              	.LASF165:
 5162 00ab 6C765F61 		.ascii	"lv_align_t\000"
 5162      6C69676E 
 5162      5F7400
 5163              	.LASF63:
 5164 00b6 74797065 		.ascii	"type\000"
 5164      00
 5165              	.LASF140:
 5166 00bb 7374796C 		.ascii	"style_p\000"
ARM GAS  C:\Users\tmj32\AppData\Local\Temp\cc8pVFHq.s 			page 105


 5166      655F7000 
 5167              	.LASF223:
 5168 00c3 64697370 		.ascii	"disp_refr\000"
 5168      5F726566 
 5168      7200
 5169              	.LASF177:
 5170 00cd 6C765F61 		.ascii	"lv_area_get_width\000"
 5170      7265615F 
 5170      6765745F 
 5170      77696474 
 5170      6800
 5171              	.LASF221:
 5172 00df 6C765F72 		.ascii	"lv_refr_vdb_flush\000"
 5172      6566725F 
 5172      7664625F 
 5172      666C7573 
 5172      6800
 5173              	.LASF214:
 5174 00f1 6F626A5F 		.ascii	"obj_mask\000"
 5174      6D61736B 
 5174      00
 5175              	.LASF15:
 5176 00fa 6C6F6E67 		.ascii	"long long unsigned int\000"
 5176      206C6F6E 
 5176      6720756E 
 5176      7369676E 
 5176      65642069 
 5177              	.LASF34:
 5178 0111 6C765F66 		.ascii	"lv_font_t\000"
 5178      6F6E745F 
 5178      7400
 5179              	.LASF200:
 5180 011b 726F775F 		.ascii	"row_last\000"
 5180      6C617374 
 5180      00
 5181              	.LASF89:
 5182 0124 6E5F7369 		.ascii	"n_size\000"
 5182      7A6500
 5183              	.LASF189:
 5184 012b 68726573 		.ascii	"hres\000"
 5184      00
 5185              	.LASF130:
 5186 0130 696E765F 		.ascii	"inv_area_joined\000"
 5186      61726561 
 5186      5F6A6F69 
 5186      6E656400 
 5187              	.LASF92:
 5188 0140 6C765F6C 		.ascii	"lv_ll_t\000"
 5188      6C5F7400 
 5189              	.LASF4:
 5190 0148 5F5F696E 		.ascii	"__int8_t\000"
 5190      74385F74 
 5190      00
 5191              	.LASF52:
 5192 0151 6C765F63 		.ascii	"lv_color32_t\000"
 5192      6F6C6F72 
 5192      33325F74 
ARM GAS  C:\Users\tmj32\AppData\Local\Temp\cc8pVFHq.s 			page 106


 5192      00
 5193              	.LASF81:
 5194 015e 676C6173 		.ascii	"glass\000"
 5194      7300
 5195              	.LASF127:
 5196 0164 746F705F 		.ascii	"top_layer\000"
 5196      6C617965 
 5196      7200
 5197              	.LASF199:
 5198 016e 6D61785F 		.ascii	"max_row\000"
 5198      726F7700 
 5199              	.LASF124:
 5200 0176 72656672 		.ascii	"refr_task\000"
 5200      5F746173 
 5200      6B00
 5201              	.LASF211:
 5202 0180 6C765F72 		.ascii	"lv_refr_obj\000"
 5202      6566725F 
 5202      6F626A00 
 5203              	.LASF205:
 5204 018c 6C765F72 		.ascii	"lv_refr_get_top_obj\000"
 5204      6566725F 
 5204      6765745F 
 5204      746F705F 
 5204      6F626A00 
 5205              	.LASF1:
 5206 01a0 6C6F6E67 		.ascii	"long long int\000"
 5206      206C6F6E 
 5206      6720696E 
 5206      7400
 5207              	.LASF118:
 5208 01ae 7365745F 		.ascii	"set_px_cb\000"
 5208      70785F63 
 5208      6200
 5209              	.LASF167:
 5210 01b8 786F6673 		.ascii	"xofs\000"
 5210      00
 5211              	.LASF158:
 5212 01bd 4C565F44 		.ascii	"LV_DESIGN_COVER_CHK\000"
 5212      45534947 
 5212      4E5F434F 
 5212      5645525F 
 5212      43484B00 
 5213              	.LASF50:
 5214 01d1 616C7068 		.ascii	"alpha\000"
 5214      6100
 5215              	.LASF41:
 5216 01d7 4C565F4F 		.ascii	"LV_OPA_50\000"
 5216      50415F35 
 5216      3000
 5217              	.LASF145:
 5218 01e1 68696464 		.ascii	"hidden\000"
 5218      656E00
 5219              	.LASF170:
 5220 01e8 6175746F 		.ascii	"auto_realign\000"
 5220      5F726561 
 5220      6C69676E 
ARM GAS  C:\Users\tmj32\AppData\Local\Temp\cc8pVFHq.s 			page 107


 5220      00
 5221              	.LASF137:
 5222 01f5 7369676E 		.ascii	"signal_cb\000"
 5222      616C5F63 
 5222      6200
 5223              	.LASF153:
 5224 01ff 6578745F 		.ascii	"ext_draw_pad\000"
 5224      64726177 
 5224      5F706164 
 5224      00
 5225              	.LASF129:
 5226 020c 696E765F 		.ascii	"inv_areas\000"
 5226      61726561 
 5226      7300
 5227              	.LASF161:
 5228 0216 6C765F65 		.ascii	"lv_event_t\000"
 5228      76656E74 
 5228      5F7400
 5229              	.LASF57:
 5230 0221 6C765F61 		.ascii	"lv_area_t\000"
 5230      7265615F 
 5230      7400
 5231              	.LASF12:
 5232 022b 6C6F6E67 		.ascii	"long int\000"
 5232      20696E74 
 5232      00
 5233              	.LASF116:
 5234 0234 666C7573 		.ascii	"flush_cb\000"
 5234      685F6362 
 5234      00
 5235              	.LASF28:
 5236 023d 6C765F66 		.ascii	"lv_font_glyph_dsc_t\000"
 5236      6F6E745F 
 5236      676C7970 
 5236      685F6473 
 5236      635F7400 
 5237              	.LASF207:
 5238 0251 7374796C 		.ascii	"style\000"
 5238      6500
 5239              	.LASF109:
 5240 0257 666C7573 		.ascii	"flushing\000"
 5240      68696E67 
 5240      00
 5241              	.LASF68:
 5242 0260 6D61696E 		.ascii	"main_color\000"
 5242      5F636F6C 
 5242      6F7200
 5243              	.LASF8:
 5244 026b 73686F72 		.ascii	"short int\000"
 5244      7420696E 
 5244      7400
 5245              	.LASF19:
 5246 0275 75696E74 		.ascii	"uint16_t\000"
 5246      31365F74 
 5246      00
 5247              	.LASF47:
 5248 027e 4C565F4F 		.ascii	"LV_OPA_COVER\000"
ARM GAS  C:\Users\tmj32\AppData\Local\Temp\cc8pVFHq.s 			page 108


 5248      50415F43 
 5248      4F564552 
 5248      00
 5249              	.LASF36:
 5250 028b 4C565F4F 		.ascii	"LV_OPA_0\000"
 5250      50415F30 
 5250      00
 5251              	.LASF227:
 5252 0294 6C765F72 		.ascii	"lv_refr_init\000"
 5252      6566725F 
 5252      696E6974 
 5252      00
 5253              	.LASF191:
 5254 02a1 6C696E65 		.ascii	"line_length\000"
 5254      5F6C656E 
 5254      67746800 
 5255              	.LASF64:
 5256 02ad 626F7474 		.ascii	"bottom\000"
 5256      6F6D00
 5257              	.LASF120:
 5258 02b4 636F6C6F 		.ascii	"color_chroma_key\000"
 5258      725F6368 
 5258      726F6D61 
 5258      5F6B6579 
 5258      00
 5259              	.LASF85:
 5260 02c5 6C696E65 		.ascii	"line\000"
 5260      00
 5261              	.LASF13:
 5262 02ca 5F5F7569 		.ascii	"__uint32_t\000"
 5262      6E743332 
 5262      5F7400
 5263              	.LASF42:
 5264 02d5 4C565F4F 		.ascii	"LV_OPA_60\000"
 5264      50415F36 
 5264      3000
 5265              	.LASF7:
 5266 02df 5F5F696E 		.ascii	"__int16_t\000"
 5266      7431365F 
 5266      7400
 5267              	.LASF147:
 5268 02e9 70617265 		.ascii	"parent_event\000"
 5268      6E745F65 
 5268      76656E74 
 5268      00
 5269              	.LASF150:
 5270 02f6 72657365 		.ascii	"reserved\000"
 5270      72766564 
 5270      00
 5271              	.LASF87:
 5272 02ff 6C765F72 		.ascii	"lv_res_t\000"
 5272      65735F74 
 5272      00
 5273              	.LASF174:
 5274 0308 6C765F6F 		.ascii	"lv_obj_t\000"
 5274      626A5F74 
 5274      00
ARM GAS  C:\Users\tmj32\AppData\Local\Temp\cc8pVFHq.s 			page 109


 5275              	.LASF206:
 5276 0311 666F756E 		.ascii	"found_p\000"
 5276      645F7000 
 5277              	.LASF0:
 5278 0319 756E7369 		.ascii	"unsigned int\000"
 5278      676E6564 
 5278      20696E74 
 5278      00
 5279              	.LASF160:
 5280 0326 6C765F64 		.ascii	"lv_design_cb_t\000"
 5280      65736967 
 5280      6E5F6362 
 5280      5F7400
 5281              	.LASF29:
 5282 0335 6765745F 		.ascii	"get_glyph_dsc\000"
 5282      676C7970 
 5282      685F6473 
 5282      6300
 5283              	.LASF209:
 5284 0343 6D61736B 		.ascii	"mask_p\000"
 5284      5F7000
 5285              	.LASF14:
 5286 034a 6C6F6E67 		.ascii	"long unsigned int\000"
 5286      20756E73 
 5286      69676E65 
 5286      6420696E 
 5286      7400
 5287              	.LASF217:
 5288 035c 6578745F 		.ascii	"ext_size\000"
 5288      73697A65 
 5288      00
 5289              	.LASF112:
 5290 0365 686F725F 		.ascii	"hor_res\000"
 5290      72657300 
 5291              	.LASF148:
 5292 036d 64726167 		.ascii	"drag_dir\000"
 5292      5F646972 
 5292      00
 5293              	.LASF61:
 5294 0376 77696474 		.ascii	"width\000"
 5294      6800
 5295              	.LASF99:
 5296 037c 7461736B 		.ascii	"task_cb\000"
 5296      5F636200 
 5297              	.LASF107:
 5298 0384 73697A65 		.ascii	"size\000"
 5298      00
 5299              	.LASF192:
 5300 0389 6C765F61 		.ascii	"lv_area_copy\000"
 5300      7265615F 
 5300      636F7079 
 5300      00
 5301              	.LASF136:
 5302 0396 6576656E 		.ascii	"event_cb\000"
 5302      745F6362 
 5302      00
 5303              	.LASF31:
ARM GAS  C:\Users\tmj32\AppData\Local\Temp\cc8pVFHq.s 			page 110


 5304 039f 6C696E65 		.ascii	"line_height\000"
 5304      5F686569 
 5304      67687400 
 5305              	.LASF157:
 5306 03ab 4C565F44 		.ascii	"LV_DESIGN_DRAW_POST\000"
 5306      45534947 
 5306      4E5F4452 
 5306      41575F50 
 5306      4F535400 
 5307              	.LASF79:
 5308 03bf 73756270 		.ascii	"subpx\000"
 5308      7800
 5309              	.LASF213:
 5310 03c5 756E696F 		.ascii	"union_ok\000"
 5310      6E5F6F6B 
 5310      00
 5311              	.LASF43:
 5312 03ce 4C565F4F 		.ascii	"LV_OPA_70\000"
 5312      50415F37 
 5312      3000
 5313              	.LASF98:
 5314 03d8 6C617374 		.ascii	"last_run\000"
 5314      5F72756E 
 5314      00
 5315              	.LASF100:
 5316 03e1 75736572 		.ascii	"user_data\000"
 5316      5F646174 
 5316      6100
 5317              	.LASF225:
 5318 03eb 2E2E5C2E 		.ascii	"..\\..\\..\\lvgl\\version_6.1.2\\lvgl\\src\\lv_core"
 5318      2E5C2E2E 
 5318      5C6C7667 
 5318      6C5C7665 
 5318      7273696F 
 5319 0417 5C6C765F 		.ascii	"\\lv_refr.c\000"
 5319      72656672 
 5319      2E6300
 5320              	.LASF121:
 5321 0422 6C765F64 		.ascii	"lv_disp_drv_t\000"
 5321      6973705F 
 5321      6472765F 
 5321      7400
 5322              	.LASF72:
 5323 0430 73686164 		.ascii	"shadow\000"
 5323      6F7700
 5324              	.LASF197:
 5325 0437 6C765F72 		.ascii	"lv_refr_areas\000"
 5325      6566725F 
 5325      61726561 
 5325      7300
 5326              	.LASF66:
 5327 0445 72696768 		.ascii	"right\000"
 5327      7400
 5328              	.LASF164:
 5329 044b 6C765F73 		.ascii	"lv_signal_cb_t\000"
 5329      69676E61 
 5329      6C5F6362 
ARM GAS  C:\Users\tmj32\AppData\Local\Temp\cc8pVFHq.s 			page 111


 5329      5F7400
 5330              	.LASF11:
 5331 045a 5F5F696E 		.ascii	"__int32_t\000"
 5331      7433325F 
 5331      7400
 5332              	.LASF226:
 5333 0464 433A5C55 		.ascii	"C:\\Users\\tmj32\\Documents\\TCNJ\\Senior_Project\\"
 5333      73657273 
 5333      5C746D6A 
 5333      33325C44 
 5333      6F63756D 
 5334 0491 4F736369 		.ascii	"Oscilloscope_Senior_Project\\tcom_engineering\\embe"
 5334      6C6C6F73 
 5334      636F7065 
 5334      5F53656E 
 5334      696F725F 
 5335 04c2 645F7377 		.ascii	"d_sw\\tcom_app\\tcom_app_psoc6_lvgl6\\tcom_displ_te"
 5335      5C74636F 
 5335      6D5F6170 
 5335      705C7463 
 5335      6F6D5F61 
 5336 04f2 73745F70 		.ascii	"st_psoc6.cydsn\000"
 5336      736F6336 
 5336      2E637964 
 5336      736E00
 5337              	.LASF154:
 5338 0501 7265616C 		.ascii	"realign\000"
 5338      69676E00 
 5339              	.LASF54:
 5340 0509 6C765F6F 		.ascii	"lv_opa_t\000"
 5340      70615F74 
 5340      00
 5341              	.LASF60:
 5342 0512 636F6C6F 		.ascii	"color\000"
 5342      7200
 5343              	.LASF104:
 5344 0518 62756631 		.ascii	"buf1\000"
 5344      00
 5345              	.LASF119:
 5346 051d 6D6F6E69 		.ascii	"monitor_cb\000"
 5346      746F725F 
 5346      636200
 5347              	.LASF115:
 5348 0528 726F7461 		.ascii	"rotated\000"
 5348      74656400 
 5349              	.LASF70:
 5350 0530 72616469 		.ascii	"radius\000"
 5350      757300
 5351              	.LASF74:
 5352 0537 73656C5F 		.ascii	"sel_color\000"
 5352      636F6C6F 
 5352      7200
 5353              	.LASF216:
 5354 0541 6F626A5F 		.ascii	"obj_area\000"
 5354      61726561 
 5354      00
 5355              	.LASF166:
ARM GAS  C:\Users\tmj32\AppData\Local\Temp\cc8pVFHq.s 			page 112


 5356 054a 62617365 		.ascii	"base\000"
 5356      00
 5357              	.LASF159:
 5358 054f 6C765F64 		.ascii	"lv_design_mode_t\000"
 5358      65736967 
 5358      6E5F6D6F 
 5358      64655F74 
 5358      00
 5359              	.LASF215:
 5360 0560 6F626A5F 		.ascii	"obj_ext_mask\000"
 5360      6578745F 
 5360      6D61736B 
 5360      00
 5361              	.LASF91:
 5362 056d 7461696C 		.ascii	"tail\000"
 5362      00
 5363              	.LASF111:
 5364 0572 5F646973 		.ascii	"_disp_drv_t\000"
 5364      705F6472 
 5364      765F7400 
 5365              	.LASF55:
 5366 057e 73697A65 		.ascii	"sizetype\000"
 5366      74797065 
 5366      00
 5367              	.LASF35:
 5368 0587 4C565F4F 		.ascii	"LV_OPA_TRANSP\000"
 5368      50415F54 
 5368      52414E53 
 5368      5000
 5369              	.LASF2:
 5370 0595 6C6F6E67 		.ascii	"long double\000"
 5370      20646F75 
 5370      626C6500 
 5371              	.LASF96:
 5372 05a1 5F6C765F 		.ascii	"_lv_task_t\000"
 5372      7461736B 
 5372      5F7400
 5373              	.LASF51:
 5374 05ac 66756C6C 		.ascii	"full\000"
 5374      00
 5375              	.LASF93:
 5376 05b1 6C765F62 		.ascii	"lv_bidi_dir_t\000"
 5376      6964695F 
 5376      6469725F 
 5376      7400
 5377              	.LASF162:
 5378 05bf 6C765F65 		.ascii	"lv_event_cb_t\000"
 5378      76656E74 
 5378      5F63625F 
 5378      7400
 5379              	.LASF208:
 5380 05cd 6C765F72 		.ascii	"lv_refr_obj_and_children\000"
 5380      6566725F 
 5380      6F626A5F 
 5380      616E645F 
 5380      6368696C 
 5381              	.LASF149:
ARM GAS  C:\Users\tmj32\AppData\Local\Temp\cc8pVFHq.s 			page 113


 5382 05e6 62617365 		.ascii	"base_dir\000"
 5382      5F646972 
 5382      00
 5383              	.LASF128:
 5384 05ef 7379735F 		.ascii	"sys_layer\000"
 5384      6C617965 
 5384      7200
 5385              	.LASF44:
 5386 05f9 4C565F4F 		.ascii	"LV_OPA_80\000"
 5386      50415F38 
 5386      3000
 5387              	.LASF80:
 5388 0603 726F756E 		.ascii	"rounded\000"
 5388      64656400 
 5389              	.LASF48:
 5390 060b 626C7565 		.ascii	"blue\000"
 5390      00
 5391              	.LASF175:
 5392 0610 64657374 		.ascii	"dest\000"
 5392      00
 5393              	.LASF101:
 5394 0615 7072696F 		.ascii	"prio\000"
 5394      00
 5395              	.LASF76:
 5396 061a 6C657474 		.ascii	"letter_space\000"
 5396      65725F73 
 5396      70616365 
 5396      00
 5397              	.LASF22:
 5398 0627 6C765F63 		.ascii	"lv_coord_t\000"
 5398      6F6F7264 
 5398      5F7400
 5399              	.LASF59:
 5400 0632 6C765F73 		.ascii	"lv_shadow_type_t\000"
 5400      6861646F 
 5400      775F7479 
 5400      70655F74 
 5400      00
 5401              	.LASF102:
 5402 0643 6F6E6365 		.ascii	"once\000"
 5402      00
 5403              	.LASF139:
 5404 0648 6578745F 		.ascii	"ext_attr\000"
 5404      61747472 
 5404      00
 5405              	.LASF77:
 5406 0651 6C696E65 		.ascii	"line_space\000"
 5406      5F737061 
 5406      636500
 5407              	.LASF212:
 5408 065c 6D61736B 		.ascii	"mask_ori_p\000"
 5408      5F6F7269 
 5408      5F7000
 5409              	.LASF45:
 5410 0667 4C565F4F 		.ascii	"LV_OPA_90\000"
 5410      50415F39 
 5410      3000
ARM GAS  C:\Users\tmj32\AppData\Local\Temp\cc8pVFHq.s 			page 114


 5411              	.LASF32:
 5412 0671 62617365 		.ascii	"base_line\000"
 5412      5F6C696E 
 5412      6500
 5413              	.LASF210:
 5414 067b 626F7264 		.ascii	"border_p\000"
 5414      65725F70 
 5414      00
 5415              	.LASF143:
 5416 0684 64726167 		.ascii	"drag_throw\000"
 5416      5F746872 
 5416      6F7700
 5417              	.LASF181:
 5418 068f 6C765F69 		.ascii	"lv_inv_area\000"
 5418      6E765F61 
 5418      72656100 
 5419              	.LASF37:
 5420 069b 4C565F4F 		.ascii	"LV_OPA_10\000"
 5420      50415F31 
 5420      3000
 5421              	.LASF33:
 5422 06a5 5F426F6F 		.ascii	"_Bool\000"
 5422      6C00
 5423              	.LASF20:
 5424 06ab 696E7433 		.ascii	"int32_t\000"
 5424      325F7400 
 5425              	.LASF6:
 5426 06b3 756E7369 		.ascii	"unsigned char\000"
 5426      676E6564 
 5426      20636861 
 5426      7200
 5427              	.LASF168:
 5428 06c1 796F6673 		.ascii	"yofs\000"
 5428      00
 5429              	.LASF86:
 5430 06c6 6C765F73 		.ascii	"lv_style_t\000"
 5430      74796C65 
 5430      5F7400
 5431              	.LASF71:
 5432 06d1 626F7264 		.ascii	"border\000"
 5432      657200
 5433              	.LASF84:
 5434 06d8 696D6167 		.ascii	"image\000"
 5434      6500
 5435              	.LASF222:
 5436 06de 70785F6E 		.ascii	"px_num\000"
 5436      756D00
 5437              	.LASF108:
 5438 06e5 61726561 		.ascii	"area\000"
 5438      00
 5439              	.LASF178:
 5440 06ea 6C765F61 		.ascii	"lv_area_get_height\000"
 5440      7265615F 
 5440      6765745F 
 5440      68656967 
 5440      687400
 5441              	.LASF58:
ARM GAS  C:\Users\tmj32\AppData\Local\Temp\cc8pVFHq.s 			page 115


 5442 06fd 6C765F62 		.ascii	"lv_border_part_t\000"
 5442      6F726465 
 5442      725F7061 
 5442      72745F74 
 5442      00
 5443              	.LASF133:
 5444 070e 5F6C765F 		.ascii	"_lv_obj_t\000"
 5444      6F626A5F 
 5444      7400
 5445              	.LASF17:
 5446 0718 75696E74 		.ascii	"uint8_t\000"
 5446      385F7400 
 5447              	.LASF114:
 5448 0720 62756666 		.ascii	"buffer\000"
 5448      657200
 5449              	.LASF176:
 5450 0727 61726561 		.ascii	"area_p\000"
 5450      5F7000
 5451              	.LASF193:
 5452 072e 6C765F72 		.ascii	"lv_refr_join_area\000"
 5452      6566725F 
 5452      6A6F696E 
 5452      5F617265 
 5452      6100
 5453              	.LASF69:
 5454 0740 67726164 		.ascii	"grad_color\000"
 5454      5F636F6C 
 5454      6F7200
 5455              	.LASF182:
 5456 074b 7363725F 		.ascii	"scr_area\000"
 5456      61726561 
 5456      00
 5457              	.LASF131:
 5458 0754 696E765F 		.ascii	"inv_p\000"
 5458      7000
 5459              	.LASF90:
 5460 075a 68656164 		.ascii	"head\000"
 5460      00
 5461              	.LASF171:
 5462 075f 6F726967 		.ascii	"origo_align\000"
 5462      6F5F616C 
 5462      69676E00 
 5463              	.LASF183:
 5464 076b 636F6D5F 		.ascii	"com_area\000"
 5464      61726561 
 5464      00
 5465              	.LASF172:
 5466 0774 6C765F72 		.ascii	"lv_reailgn_t\000"
 5466      6561696C 
 5466      676E5F74 
 5466      00
 5467              	.LASF169:
 5468 0781 616C6967 		.ascii	"align\000"
 5468      6E00
 5469              	.LASF163:
 5470 0787 6C765F73 		.ascii	"lv_signal_t\000"
 5470      69676E61 
ARM GAS  C:\Users\tmj32\AppData\Local\Temp\cc8pVFHq.s 			page 116


 5470      6C5F7400 
 5471              	.LASF113:
 5472 0793 7665725F 		.ascii	"ver_res\000"
 5472      72657300 
 5473              	.LASF88:
 5474 079b 6C765F6C 		.ascii	"lv_ll_node_t\000"
 5474      6C5F6E6F 
 5474      64655F74 
 5474      00
 5475              	.LASF56:
 5476 07a8 63686172 		.ascii	"char\000"
 5476      00
 5477              	.LASF132:
 5478 07ad 6C617374 		.ascii	"last_activity_time\000"
 5478      5F616374 
 5478      69766974 
 5478      795F7469 
 5478      6D6500
 5479              	.LASF38:
 5480 07c0 4C565F4F 		.ascii	"LV_OPA_20\000"
 5480      50415F32 
 5480      3000
 5481              	.LASF83:
 5482 07ca 74657874 		.ascii	"text\000"
 5482      00
 5483              	.LASF173:
 5484 07cf 6C765F64 		.ascii	"lv_drag_dir_t\000"
 5484      7261675F 
 5484      6469725F 
 5484      7400
 5485              	.LASF202:
 5486 07dd 6C765F72 		.ascii	"lv_refr_area_part\000"
 5486      6566725F 
 5486      61726561 
 5486      5F706172 
 5486      7400
 5487              	.LASF9:
 5488 07ef 5F5F7569 		.ascii	"__uint16_t\000"
 5488      6E743136 
 5488      5F7400
 5489              	.LASF228:
 5490 07fa 6C765F72 		.ascii	"lv_refr_get_disp_refreshing\000"
 5490      6566725F 
 5490      6765745F 
 5490      64697370 
 5490      5F726566 
 5491              	.LASF94:
 5492 0816 6C765F74 		.ascii	"lv_task_cb_t\000"
 5492      61736B5F 
 5492      63625F74 
 5492      00
 5493              	.LASF110:
 5494 0823 6C765F64 		.ascii	"lv_disp_buf_t\000"
 5494      6973705F 
 5494      6275665F 
 5494      7400
 5495              	.LASF184:
ARM GAS  C:\Users\tmj32\AppData\Local\Temp\cc8pVFHq.s 			page 117


 5496 0831 6C765F72 		.ascii	"lv_refr_set_disp_refreshing\000"
 5496      6566725F 
 5496      7365745F 
 5496      64697370 
 5496      5F726566 
 5497              	.LASF97:
 5498 084d 70657269 		.ascii	"period\000"
 5498      6F6400
 5499              	.LASF46:
 5500 0854 4C565F4F 		.ascii	"LV_OPA_100\000"
 5500      50415F31 
 5500      303000
 5501              	.LASF23:
 5502 085f 6164765F 		.ascii	"adv_w\000"
 5502      7700
 5503              	.LASF186:
 5504 0865 7461736B 		.ascii	"task\000"
 5504      00
 5505              	.LASF142:
 5506 086a 64726167 		.ascii	"drag\000"
 5506      00
 5507              	.LASF10:
 5508 086f 73686F72 		.ascii	"short unsigned int\000"
 5508      7420756E 
 5508      7369676E 
 5508      65642069 
 5508      6E7400
 5509              	.LASF179:
 5510 0882 64697370 		.ascii	"disp\000"
 5510      00
 5511              	.LASF198:
 5512 0887 6C765F72 		.ascii	"lv_refr_area\000"
 5512      6566725F 
 5512      61726561 
 5512      00
 5513              	.LASF16:
 5514 0894 696E7438 		.ascii	"int8_t\000"
 5514      5F7400
 5515              	.LASF218:
 5516 089b 6D61736B 		.ascii	"mask_child\000"
 5516      5F636869 
 5516      6C6400
 5517              	.LASF188:
 5518 08a6 6275665F 		.ascii	"buf_ina\000"
 5518      696E6100 
 5519              	.LASF25:
 5520 08ae 626F785F 		.ascii	"box_h\000"
 5520      6800
 5521              	.LASF135:
 5522 08b4 636F6F72 		.ascii	"coords\000"
 5522      647300
 5523              	.LASF21:
 5524 08bb 75696E74 		.ascii	"uint32_t\000"
 5524      33325F74 
 5524      00
 5525              	.LASF152:
 5526 08c4 6F70615F 		.ascii	"opa_scale\000"
ARM GAS  C:\Users\tmj32\AppData\Local\Temp\cc8pVFHq.s 			page 118


 5526      7363616C 
 5526      6500
 5527              	.LASF24:
 5528 08ce 626F785F 		.ascii	"box_w\000"
 5528      7700
 5529              	.LASF95:
 5530 08d4 5F6C765F 		.ascii	"_lv_font_struct\000"
 5530      666F6E74 
 5530      5F737472 
 5530      75637400 
 5531              	.LASF75:
 5532 08e4 666F6E74 		.ascii	"font\000"
 5532      00
 5533              	.LASF105:
 5534 08e9 62756632 		.ascii	"buf2\000"
 5534      00
 5535              	.LASF117:
 5536 08ee 726F756E 		.ascii	"rounder_cb\000"
 5536      6465725F 
 5536      636200
 5537              	.LASF106:
 5538 08f9 6275665F 		.ascii	"buf_act\000"
 5538      61637400 
 5539              	.LASF78:
 5540 0901 696E7465 		.ascii	"intense\000"
 5540      6E736500 
 5541              	.LASF122:
 5542 0909 5F646973 		.ascii	"_disp_t\000"
 5542      705F7400 
 5543              	.LASF126:
 5544 0911 6163745F 		.ascii	"act_scr\000"
 5544      73637200 
 5545              	.LASF204:
 5546 0919 73746172 		.ascii	"start_mask\000"
 5546      745F6D61 
 5546      736B00
 5547              	.LASF151:
 5548 0924 70726F74 		.ascii	"protect\000"
 5548      65637400 
 5549              	.LASF194:
 5550 092c 6A6F696E 		.ascii	"join_from\000"
 5550      5F66726F 
 5550      6D00
 5551              	.LASF203:
 5552 0936 746F705F 		.ascii	"top_p\000"
 5552      7000
 5553              	.LASF125:
 5554 093c 7363725F 		.ascii	"scr_ll\000"
 5554      6C6C00
 5555              	.LASF144:
 5556 0943 64726167 		.ascii	"drag_parent\000"
 5556      5F706172 
 5556      656E7400 
 5557              	.LASF123:
 5558 094f 64726976 		.ascii	"driver\000"
 5558      657200
 5559              	.LASF26:
ARM GAS  C:\Users\tmj32\AppData\Local\Temp\cc8pVFHq.s 			page 119


 5560 0956 6F66735F 		.ascii	"ofs_x\000"
 5560      7800
 5561              	.LASF27:
 5562 095c 6F66735F 		.ascii	"ofs_y\000"
 5562      7900
 5563              	.LASF49:
 5564 0962 67726565 		.ascii	"green\000"
 5564      6E00
 5565              	.LASF156:
 5566 0968 4C565F44 		.ascii	"LV_DESIGN_DRAW_MAIN\000"
 5566      45534947 
 5566      4E5F4452 
 5566      41575F4D 
 5566      41494E00 
 5567              	.LASF155:
 5568 097c 6C765F64 		.ascii	"lv_disp_t\000"
 5568      6973705F 
 5568      7400
 5569              	.LASF201:
 5570 0986 685F746D 		.ascii	"h_tmp\000"
 5570      7000
 5571              	.LASF224:
 5572 098c 474E5520 		.ascii	"GNU C11 5.4.1 20160609 (release) [ARM/embedded-5-br"
 5572      43313120 
 5572      352E342E 
 5572      31203230 
 5572      31363036 
 5573 09bf 616E6368 		.ascii	"anch revision 237715] -mcpu=cortex-m4 -mfloat-abi=s"
 5573      20726576 
 5573      6973696F 
 5573      6E203233 
 5573      37373135 
 5574 09f2 6F667466 		.ascii	"oftfp -mfpu=fpv4-sp-d16 -mthumb -g -O0 -ffunction-s"
 5574      70202D6D 
 5574      6670753D 
 5574      66707634 
 5574      2D73702D 
 5575 0a25 65637469 		.ascii	"ections -ffat-lto-objects\000"
 5575      6F6E7320 
 5575      2D666661 
 5575      742D6C74 
 5575      6F2D6F62 
 5576              	.LASF187:
 5577 0a3f 73746172 		.ascii	"start\000"
 5577      7400
 5578              	.LASF138:
 5579 0a45 64657369 		.ascii	"design_cb\000"
 5579      676E5F63 
 5579      6200
 5580              	.LASF67:
 5581 0a4f 696E6E65 		.ascii	"inner\000"
 5581      7200
 5582              	.LASF18:
 5583 0a55 696E7431 		.ascii	"int16_t\000"
 5583      365F7400 
 5584              	.LASF65:
 5585 0a5d 6C656674 		.ascii	"left\000"
ARM GAS  C:\Users\tmj32\AppData\Local\Temp\cc8pVFHq.s 			page 120


 5585      00
 5586              	.LASF62:
 5587 0a62 70617274 		.ascii	"part\000"
 5587      00
 5588              	.LASF219:
 5589 0a67 6368696C 		.ascii	"child_p\000"
 5589      645F7000 
 5590              	.LASF134:
 5591 0a6f 6368696C 		.ascii	"child_ll\000"
 5591      645F6C6C 
 5591      00
 5592              	.LASF146:
 5593 0a78 6F70615F 		.ascii	"opa_scale_en\000"
 5593      7363616C 
 5593      655F656E 
 5593      00
 5594              		.ident	"GCC: (GNU Tools for ARM Embedded Processors) 5.4.1 20160609 (release) [ARM/embedded-5-bran
