ARM GAS  C:\Users\tmj32\AppData\Local\Temp\cc0MnWmB.s 			page 1


   1              		.syntax unified
   2              		.cpu cortex-m4
   3              		.eabi_attribute 27, 1
   4              		.fpu fpv4-sp-d16
   5              		.eabi_attribute 20, 1
   6              		.eabi_attribute 21, 1
   7              		.eabi_attribute 23, 3
   8              		.eabi_attribute 24, 1
   9              		.eabi_attribute 25, 1
  10              		.eabi_attribute 26, 1
  11              		.eabi_attribute 30, 6
  12              		.eabi_attribute 34, 1
  13              		.eabi_attribute 18, 4
  14              		.thumb
  15              		.syntax unified
  16              		.file	"lv_sw.c"
  17              		.text
  18              	.Ltext0:
  19              		.cfi_sections	.debug_frame
  20              		.section	.text.lv_slider_set_value,"ax",%progbits
  21              		.align	2
  22              		.thumb
  23              		.thumb_func
  24              		.type	lv_slider_set_value, %function
  25              	lv_slider_set_value:
  26              	.LFB46:
  27              		.file 1 "..\\..\\..\\lvgl\\version_6.1.2\\lvgl\\src\\lv_objx\\lv_slider.h"
   1:..\..\..\lvgl\version_6.1.2\lvgl\src\lv_objx/lv_slider.h **** /**
   2:..\..\..\lvgl\version_6.1.2\lvgl\src\lv_objx/lv_slider.h ****  * @file lv_slider.h
   3:..\..\..\lvgl\version_6.1.2\lvgl\src\lv_objx/lv_slider.h ****  *
   4:..\..\..\lvgl\version_6.1.2\lvgl\src\lv_objx/lv_slider.h ****  */
   5:..\..\..\lvgl\version_6.1.2\lvgl\src\lv_objx/lv_slider.h **** 
   6:..\..\..\lvgl\version_6.1.2\lvgl\src\lv_objx/lv_slider.h **** #ifndef LV_SLIDER_H
   7:..\..\..\lvgl\version_6.1.2\lvgl\src\lv_objx/lv_slider.h **** #define LV_SLIDER_H
   8:..\..\..\lvgl\version_6.1.2\lvgl\src\lv_objx/lv_slider.h **** 
   9:..\..\..\lvgl\version_6.1.2\lvgl\src\lv_objx/lv_slider.h **** #ifdef __cplusplus
  10:..\..\..\lvgl\version_6.1.2\lvgl\src\lv_objx/lv_slider.h **** extern "C" {
  11:..\..\..\lvgl\version_6.1.2\lvgl\src\lv_objx/lv_slider.h **** #endif
  12:..\..\..\lvgl\version_6.1.2\lvgl\src\lv_objx/lv_slider.h **** 
  13:..\..\..\lvgl\version_6.1.2\lvgl\src\lv_objx/lv_slider.h **** /*********************
  14:..\..\..\lvgl\version_6.1.2\lvgl\src\lv_objx/lv_slider.h ****  *      INCLUDES
  15:..\..\..\lvgl\version_6.1.2\lvgl\src\lv_objx/lv_slider.h ****  *********************/
  16:..\..\..\lvgl\version_6.1.2\lvgl\src\lv_objx/lv_slider.h **** #ifdef LV_CONF_INCLUDE_SIMPLE
  17:..\..\..\lvgl\version_6.1.2\lvgl\src\lv_objx/lv_slider.h **** #include "lv_conf.h"
  18:..\..\..\lvgl\version_6.1.2\lvgl\src\lv_objx/lv_slider.h **** #else
  19:..\..\..\lvgl\version_6.1.2\lvgl\src\lv_objx/lv_slider.h **** #include "../../../lv_conf.h"
  20:..\..\..\lvgl\version_6.1.2\lvgl\src\lv_objx/lv_slider.h **** #endif
  21:..\..\..\lvgl\version_6.1.2\lvgl\src\lv_objx/lv_slider.h **** 
  22:..\..\..\lvgl\version_6.1.2\lvgl\src\lv_objx/lv_slider.h **** #if LV_USE_SLIDER != 0
  23:..\..\..\lvgl\version_6.1.2\lvgl\src\lv_objx/lv_slider.h **** 
  24:..\..\..\lvgl\version_6.1.2\lvgl\src\lv_objx/lv_slider.h **** /*Testing of dependencies*/
  25:..\..\..\lvgl\version_6.1.2\lvgl\src\lv_objx/lv_slider.h **** #if LV_USE_BAR == 0
  26:..\..\..\lvgl\version_6.1.2\lvgl\src\lv_objx/lv_slider.h **** #error "lv_slider: lv_bar is required. Enable it in lv_conf.h (LV_USE_BAR  1) "
  27:..\..\..\lvgl\version_6.1.2\lvgl\src\lv_objx/lv_slider.h **** #endif
  28:..\..\..\lvgl\version_6.1.2\lvgl\src\lv_objx/lv_slider.h **** 
  29:..\..\..\lvgl\version_6.1.2\lvgl\src\lv_objx/lv_slider.h **** #include "../lv_core/lv_obj.h"
  30:..\..\..\lvgl\version_6.1.2\lvgl\src\lv_objx/lv_slider.h **** #include "lv_bar.h"
ARM GAS  C:\Users\tmj32\AppData\Local\Temp\cc0MnWmB.s 			page 2


  31:..\..\..\lvgl\version_6.1.2\lvgl\src\lv_objx/lv_slider.h **** 
  32:..\..\..\lvgl\version_6.1.2\lvgl\src\lv_objx/lv_slider.h **** /*********************
  33:..\..\..\lvgl\version_6.1.2\lvgl\src\lv_objx/lv_slider.h ****  *      DEFINES
  34:..\..\..\lvgl\version_6.1.2\lvgl\src\lv_objx/lv_slider.h ****  *********************/
  35:..\..\..\lvgl\version_6.1.2\lvgl\src\lv_objx/lv_slider.h **** 
  36:..\..\..\lvgl\version_6.1.2\lvgl\src\lv_objx/lv_slider.h **** /**********************
  37:..\..\..\lvgl\version_6.1.2\lvgl\src\lv_objx/lv_slider.h ****  *      TYPEDEFS
  38:..\..\..\lvgl\version_6.1.2\lvgl\src\lv_objx/lv_slider.h ****  **********************/
  39:..\..\..\lvgl\version_6.1.2\lvgl\src\lv_objx/lv_slider.h **** /*Data of slider*/
  40:..\..\..\lvgl\version_6.1.2\lvgl\src\lv_objx/lv_slider.h **** typedef struct
  41:..\..\..\lvgl\version_6.1.2\lvgl\src\lv_objx/lv_slider.h **** {
  42:..\..\..\lvgl\version_6.1.2\lvgl\src\lv_objx/lv_slider.h ****     lv_bar_ext_t bar; /*Ext. of ancestor*/
  43:..\..\..\lvgl\version_6.1.2\lvgl\src\lv_objx/lv_slider.h ****     /*New data for this type */
  44:..\..\..\lvgl\version_6.1.2\lvgl\src\lv_objx/lv_slider.h ****     const lv_style_t * style_knob; /*Style of the knob*/
  45:..\..\..\lvgl\version_6.1.2\lvgl\src\lv_objx/lv_slider.h ****     int16_t drag_value;            /*Store a temporal value during press until release (Handled by 
  46:..\..\..\lvgl\version_6.1.2\lvgl\src\lv_objx/lv_slider.h ****     uint8_t knob_in : 1;           /*1: Draw the knob inside the bar*/
  47:..\..\..\lvgl\version_6.1.2\lvgl\src\lv_objx/lv_slider.h **** } lv_slider_ext_t;
  48:..\..\..\lvgl\version_6.1.2\lvgl\src\lv_objx/lv_slider.h **** 
  49:..\..\..\lvgl\version_6.1.2\lvgl\src\lv_objx/lv_slider.h **** /** Built-in styles of slider*/
  50:..\..\..\lvgl\version_6.1.2\lvgl\src\lv_objx/lv_slider.h **** enum {
  51:..\..\..\lvgl\version_6.1.2\lvgl\src\lv_objx/lv_slider.h ****     LV_SLIDER_STYLE_BG, /** Slider background style. */
  52:..\..\..\lvgl\version_6.1.2\lvgl\src\lv_objx/lv_slider.h ****     LV_SLIDER_STYLE_INDIC, /** Slider indicator (filled area) style. */
  53:..\..\..\lvgl\version_6.1.2\lvgl\src\lv_objx/lv_slider.h ****     LV_SLIDER_STYLE_KNOB, /** Slider knob style. */
  54:..\..\..\lvgl\version_6.1.2\lvgl\src\lv_objx/lv_slider.h **** };
  55:..\..\..\lvgl\version_6.1.2\lvgl\src\lv_objx/lv_slider.h **** typedef uint8_t lv_slider_style_t;
  56:..\..\..\lvgl\version_6.1.2\lvgl\src\lv_objx/lv_slider.h **** 
  57:..\..\..\lvgl\version_6.1.2\lvgl\src\lv_objx/lv_slider.h **** /**********************
  58:..\..\..\lvgl\version_6.1.2\lvgl\src\lv_objx/lv_slider.h ****  * GLOBAL PROTOTYPES
  59:..\..\..\lvgl\version_6.1.2\lvgl\src\lv_objx/lv_slider.h ****  **********************/
  60:..\..\..\lvgl\version_6.1.2\lvgl\src\lv_objx/lv_slider.h **** 
  61:..\..\..\lvgl\version_6.1.2\lvgl\src\lv_objx/lv_slider.h **** /**
  62:..\..\..\lvgl\version_6.1.2\lvgl\src\lv_objx/lv_slider.h ****  * Create a slider objects
  63:..\..\..\lvgl\version_6.1.2\lvgl\src\lv_objx/lv_slider.h ****  * @param par pointer to an object, it will be the parent of the new slider
  64:..\..\..\lvgl\version_6.1.2\lvgl\src\lv_objx/lv_slider.h ****  * @param copy pointer to a slider object, if not NULL then the new object will be copied from it
  65:..\..\..\lvgl\version_6.1.2\lvgl\src\lv_objx/lv_slider.h ****  * @return pointer to the created slider
  66:..\..\..\lvgl\version_6.1.2\lvgl\src\lv_objx/lv_slider.h ****  */
  67:..\..\..\lvgl\version_6.1.2\lvgl\src\lv_objx/lv_slider.h **** lv_obj_t * lv_slider_create(lv_obj_t * par, const lv_obj_t * copy);
  68:..\..\..\lvgl\version_6.1.2\lvgl\src\lv_objx/lv_slider.h **** 
  69:..\..\..\lvgl\version_6.1.2\lvgl\src\lv_objx/lv_slider.h **** /*=====================
  70:..\..\..\lvgl\version_6.1.2\lvgl\src\lv_objx/lv_slider.h ****  * Setter functions
  71:..\..\..\lvgl\version_6.1.2\lvgl\src\lv_objx/lv_slider.h ****  *====================*/
  72:..\..\..\lvgl\version_6.1.2\lvgl\src\lv_objx/lv_slider.h **** 
  73:..\..\..\lvgl\version_6.1.2\lvgl\src\lv_objx/lv_slider.h **** /**
  74:..\..\..\lvgl\version_6.1.2\lvgl\src\lv_objx/lv_slider.h ****  * Set a new value on the slider
  75:..\..\..\lvgl\version_6.1.2\lvgl\src\lv_objx/lv_slider.h ****  * @param slider pointer to a slider object
  76:..\..\..\lvgl\version_6.1.2\lvgl\src\lv_objx/lv_slider.h ****  * @param value new value
  77:..\..\..\lvgl\version_6.1.2\lvgl\src\lv_objx/lv_slider.h ****  * @param anim LV_ANIM_ON: set the value with an animation; LV_ANIM_OFF: change the value immediate
  78:..\..\..\lvgl\version_6.1.2\lvgl\src\lv_objx/lv_slider.h ****  */
  79:..\..\..\lvgl\version_6.1.2\lvgl\src\lv_objx/lv_slider.h **** static inline void lv_slider_set_value(lv_obj_t * slider, int16_t value, lv_anim_enable_t anim)
  80:..\..\..\lvgl\version_6.1.2\lvgl\src\lv_objx/lv_slider.h **** {
  28              		.loc 1 80 0
  29              		.cfi_startproc
  30              		@ args = 0, pretend = 0, frame = 8
  31              		@ frame_needed = 1, uses_anonymous_args = 0
  32 0000 80B5     		push	{r7, lr}
  33              		.cfi_def_cfa_offset 8
  34              		.cfi_offset 7, -8
ARM GAS  C:\Users\tmj32\AppData\Local\Temp\cc0MnWmB.s 			page 3


  35              		.cfi_offset 14, -4
  36 0002 82B0     		sub	sp, sp, #8
  37              		.cfi_def_cfa_offset 16
  38 0004 00AF     		add	r7, sp, #0
  39              		.cfi_def_cfa_register 7
  40 0006 7860     		str	r0, [r7, #4]
  41 0008 0B46     		mov	r3, r1
  42 000a 7B80     		strh	r3, [r7, #2]	@ movhi
  43 000c 1346     		mov	r3, r2
  44 000e 7B70     		strb	r3, [r7, #1]
  81:..\..\..\lvgl\version_6.1.2\lvgl\src\lv_objx/lv_slider.h ****     lv_bar_set_value(slider, value, anim);
  45              		.loc 1 81 0
  46 0010 7A78     		ldrb	r2, [r7, #1]	@ zero_extendqisi2
  47 0012 B7F90230 		ldrsh	r3, [r7, #2]
  48 0016 1946     		mov	r1, r3
  49 0018 7868     		ldr	r0, [r7, #4]
  50 001a FFF7FEFF 		bl	lv_bar_set_value
  82:..\..\..\lvgl\version_6.1.2\lvgl\src\lv_objx/lv_slider.h **** }
  51              		.loc 1 82 0
  52 001e 00BF     		nop
  53 0020 0837     		adds	r7, r7, #8
  54              		.cfi_def_cfa_offset 8
  55 0022 BD46     		mov	sp, r7
  56              		.cfi_def_cfa_register 13
  57              		@ sp needed
  58 0024 80BD     		pop	{r7, pc}
  59              		.cfi_endproc
  60              	.LFE46:
  61              		.size	lv_slider_set_value, .-lv_slider_set_value
  62 0026 00BF     		.section	.text.lv_slider_set_range,"ax",%progbits
  63              		.align	2
  64              		.thumb
  65              		.thumb_func
  66              		.type	lv_slider_set_range, %function
  67              	lv_slider_set_range:
  68              	.LFB47:
  83:..\..\..\lvgl\version_6.1.2\lvgl\src\lv_objx/lv_slider.h **** 
  84:..\..\..\lvgl\version_6.1.2\lvgl\src\lv_objx/lv_slider.h **** /**
  85:..\..\..\lvgl\version_6.1.2\lvgl\src\lv_objx/lv_slider.h ****  * Set minimum and the maximum values of a bar
  86:..\..\..\lvgl\version_6.1.2\lvgl\src\lv_objx/lv_slider.h ****  * @param slider pointer to the slider object
  87:..\..\..\lvgl\version_6.1.2\lvgl\src\lv_objx/lv_slider.h ****  * @param min minimum value
  88:..\..\..\lvgl\version_6.1.2\lvgl\src\lv_objx/lv_slider.h ****  * @param max maximum value
  89:..\..\..\lvgl\version_6.1.2\lvgl\src\lv_objx/lv_slider.h ****  */
  90:..\..\..\lvgl\version_6.1.2\lvgl\src\lv_objx/lv_slider.h **** static inline void lv_slider_set_range(lv_obj_t * slider, int16_t min, int16_t max)
  91:..\..\..\lvgl\version_6.1.2\lvgl\src\lv_objx/lv_slider.h **** {
  69              		.loc 1 91 0
  70              		.cfi_startproc
  71              		@ args = 0, pretend = 0, frame = 8
  72              		@ frame_needed = 1, uses_anonymous_args = 0
  73 0000 80B5     		push	{r7, lr}
  74              		.cfi_def_cfa_offset 8
  75              		.cfi_offset 7, -8
  76              		.cfi_offset 14, -4
  77 0002 82B0     		sub	sp, sp, #8
  78              		.cfi_def_cfa_offset 16
  79 0004 00AF     		add	r7, sp, #0
  80              		.cfi_def_cfa_register 7
ARM GAS  C:\Users\tmj32\AppData\Local\Temp\cc0MnWmB.s 			page 4


  81 0006 7860     		str	r0, [r7, #4]
  82 0008 0B46     		mov	r3, r1
  83 000a 7B80     		strh	r3, [r7, #2]	@ movhi
  84 000c 1346     		mov	r3, r2	@ movhi
  85 000e 3B80     		strh	r3, [r7]	@ movhi
  92:..\..\..\lvgl\version_6.1.2\lvgl\src\lv_objx/lv_slider.h ****     lv_bar_set_range(slider, min, max);
  86              		.loc 1 92 0
  87 0010 B7F90020 		ldrsh	r2, [r7]
  88 0014 B7F90230 		ldrsh	r3, [r7, #2]
  89 0018 1946     		mov	r1, r3
  90 001a 7868     		ldr	r0, [r7, #4]
  91 001c FFF7FEFF 		bl	lv_bar_set_range
  93:..\..\..\lvgl\version_6.1.2\lvgl\src\lv_objx/lv_slider.h **** }
  92              		.loc 1 93 0
  93 0020 00BF     		nop
  94 0022 0837     		adds	r7, r7, #8
  95              		.cfi_def_cfa_offset 8
  96 0024 BD46     		mov	sp, r7
  97              		.cfi_def_cfa_register 13
  98              		@ sp needed
  99 0026 80BD     		pop	{r7, pc}
 100              		.cfi_endproc
 101              	.LFE47:
 102              		.size	lv_slider_set_range, .-lv_slider_set_range
 103              		.section	.text.lv_sw_get_state,"ax",%progbits
 104              		.align	2
 105              		.thumb
 106              		.thumb_func
 107              		.type	lv_sw_get_state, %function
 108              	lv_sw_get_state:
 109              	.LFB54:
 110              		.file 2 "..\\..\\..\\lvgl\\version_6.1.2\\lvgl\\src\\lv_objx\\lv_sw.h"
   1:..\..\..\lvgl\version_6.1.2\lvgl\src\lv_objx/lv_sw.h **** /**
   2:..\..\..\lvgl\version_6.1.2\lvgl\src\lv_objx/lv_sw.h ****  * @file lv_sw.h
   3:..\..\..\lvgl\version_6.1.2\lvgl\src\lv_objx/lv_sw.h ****  *
   4:..\..\..\lvgl\version_6.1.2\lvgl\src\lv_objx/lv_sw.h ****  */
   5:..\..\..\lvgl\version_6.1.2\lvgl\src\lv_objx/lv_sw.h **** 
   6:..\..\..\lvgl\version_6.1.2\lvgl\src\lv_objx/lv_sw.h **** #ifndef LV_SW_H
   7:..\..\..\lvgl\version_6.1.2\lvgl\src\lv_objx/lv_sw.h **** #define LV_SW_H
   8:..\..\..\lvgl\version_6.1.2\lvgl\src\lv_objx/lv_sw.h **** 
   9:..\..\..\lvgl\version_6.1.2\lvgl\src\lv_objx/lv_sw.h **** #ifdef __cplusplus
  10:..\..\..\lvgl\version_6.1.2\lvgl\src\lv_objx/lv_sw.h **** extern "C" {
  11:..\..\..\lvgl\version_6.1.2\lvgl\src\lv_objx/lv_sw.h **** #endif
  12:..\..\..\lvgl\version_6.1.2\lvgl\src\lv_objx/lv_sw.h **** 
  13:..\..\..\lvgl\version_6.1.2\lvgl\src\lv_objx/lv_sw.h **** /*********************
  14:..\..\..\lvgl\version_6.1.2\lvgl\src\lv_objx/lv_sw.h ****  *      INCLUDES
  15:..\..\..\lvgl\version_6.1.2\lvgl\src\lv_objx/lv_sw.h ****  *********************/
  16:..\..\..\lvgl\version_6.1.2\lvgl\src\lv_objx/lv_sw.h **** #ifdef LV_CONF_INCLUDE_SIMPLE
  17:..\..\..\lvgl\version_6.1.2\lvgl\src\lv_objx/lv_sw.h **** #include "lv_conf.h"
  18:..\..\..\lvgl\version_6.1.2\lvgl\src\lv_objx/lv_sw.h **** #else
  19:..\..\..\lvgl\version_6.1.2\lvgl\src\lv_objx/lv_sw.h **** #include "../../../lv_conf.h"
  20:..\..\..\lvgl\version_6.1.2\lvgl\src\lv_objx/lv_sw.h **** #endif
  21:..\..\..\lvgl\version_6.1.2\lvgl\src\lv_objx/lv_sw.h **** 
  22:..\..\..\lvgl\version_6.1.2\lvgl\src\lv_objx/lv_sw.h **** #if LV_USE_SW != 0
  23:..\..\..\lvgl\version_6.1.2\lvgl\src\lv_objx/lv_sw.h **** 
  24:..\..\..\lvgl\version_6.1.2\lvgl\src\lv_objx/lv_sw.h **** /*Testing of dependencies*/
  25:..\..\..\lvgl\version_6.1.2\lvgl\src\lv_objx/lv_sw.h **** #if LV_USE_SLIDER == 0
ARM GAS  C:\Users\tmj32\AppData\Local\Temp\cc0MnWmB.s 			page 5


  26:..\..\..\lvgl\version_6.1.2\lvgl\src\lv_objx/lv_sw.h **** #error "lv_sw: lv_slider is required. Enable it in lv_conf.h (LV_USE_SLIDER  1)"
  27:..\..\..\lvgl\version_6.1.2\lvgl\src\lv_objx/lv_sw.h **** #endif
  28:..\..\..\lvgl\version_6.1.2\lvgl\src\lv_objx/lv_sw.h **** 
  29:..\..\..\lvgl\version_6.1.2\lvgl\src\lv_objx/lv_sw.h **** #include "../lv_core/lv_obj.h"
  30:..\..\..\lvgl\version_6.1.2\lvgl\src\lv_objx/lv_sw.h **** #include "lv_slider.h"
  31:..\..\..\lvgl\version_6.1.2\lvgl\src\lv_objx/lv_sw.h **** 
  32:..\..\..\lvgl\version_6.1.2\lvgl\src\lv_objx/lv_sw.h **** /*********************
  33:..\..\..\lvgl\version_6.1.2\lvgl\src\lv_objx/lv_sw.h ****  *      DEFINES
  34:..\..\..\lvgl\version_6.1.2\lvgl\src\lv_objx/lv_sw.h ****  *********************/
  35:..\..\..\lvgl\version_6.1.2\lvgl\src\lv_objx/lv_sw.h **** #define LV_SW_MAX_VALUE 100
  36:..\..\..\lvgl\version_6.1.2\lvgl\src\lv_objx/lv_sw.h **** 
  37:..\..\..\lvgl\version_6.1.2\lvgl\src\lv_objx/lv_sw.h **** /**********************
  38:..\..\..\lvgl\version_6.1.2\lvgl\src\lv_objx/lv_sw.h ****  *      TYPEDEFS
  39:..\..\..\lvgl\version_6.1.2\lvgl\src\lv_objx/lv_sw.h ****  **********************/
  40:..\..\..\lvgl\version_6.1.2\lvgl\src\lv_objx/lv_sw.h **** /*Data of switch*/
  41:..\..\..\lvgl\version_6.1.2\lvgl\src\lv_objx/lv_sw.h **** typedef struct
  42:..\..\..\lvgl\version_6.1.2\lvgl\src\lv_objx/lv_sw.h **** {
  43:..\..\..\lvgl\version_6.1.2\lvgl\src\lv_objx/lv_sw.h ****     lv_slider_ext_t slider; /*Ext. of ancestor*/
  44:..\..\..\lvgl\version_6.1.2\lvgl\src\lv_objx/lv_sw.h ****     /*New data for this type */
  45:..\..\..\lvgl\version_6.1.2\lvgl\src\lv_objx/lv_sw.h ****     const lv_style_t * style_knob_off; /**< Style of the knob when the switch is OFF*/
  46:..\..\..\lvgl\version_6.1.2\lvgl\src\lv_objx/lv_sw.h ****     const lv_style_t * style_knob_on;  /**< Style of the knob when the switch is ON (NULL to use th
  47:..\..\..\lvgl\version_6.1.2\lvgl\src\lv_objx/lv_sw.h ****     lv_coord_t start_x;
  48:..\..\..\lvgl\version_6.1.2\lvgl\src\lv_objx/lv_sw.h ****     uint8_t changed : 1; /*Indicates the switch state explicitly changed by drag*/
  49:..\..\..\lvgl\version_6.1.2\lvgl\src\lv_objx/lv_sw.h ****     uint8_t slided : 1;
  50:..\..\..\lvgl\version_6.1.2\lvgl\src\lv_objx/lv_sw.h **** #if LV_USE_ANIMATION
  51:..\..\..\lvgl\version_6.1.2\lvgl\src\lv_objx/lv_sw.h ****     uint16_t anim_time; /*switch animation time */
  52:..\..\..\lvgl\version_6.1.2\lvgl\src\lv_objx/lv_sw.h **** #endif
  53:..\..\..\lvgl\version_6.1.2\lvgl\src\lv_objx/lv_sw.h **** } lv_sw_ext_t;
  54:..\..\..\lvgl\version_6.1.2\lvgl\src\lv_objx/lv_sw.h **** 
  55:..\..\..\lvgl\version_6.1.2\lvgl\src\lv_objx/lv_sw.h **** /**
  56:..\..\..\lvgl\version_6.1.2\lvgl\src\lv_objx/lv_sw.h ****  * Switch styles.
  57:..\..\..\lvgl\version_6.1.2\lvgl\src\lv_objx/lv_sw.h ****  */
  58:..\..\..\lvgl\version_6.1.2\lvgl\src\lv_objx/lv_sw.h **** enum {
  59:..\..\..\lvgl\version_6.1.2\lvgl\src\lv_objx/lv_sw.h ****     LV_SW_STYLE_BG, /**< Switch background. */
  60:..\..\..\lvgl\version_6.1.2\lvgl\src\lv_objx/lv_sw.h ****     LV_SW_STYLE_INDIC, /**< Switch fill area. */
  61:..\..\..\lvgl\version_6.1.2\lvgl\src\lv_objx/lv_sw.h ****     LV_SW_STYLE_KNOB_OFF, /**< Switch knob (when off). */
  62:..\..\..\lvgl\version_6.1.2\lvgl\src\lv_objx/lv_sw.h ****     LV_SW_STYLE_KNOB_ON, /**< Switch knob (when on). */
  63:..\..\..\lvgl\version_6.1.2\lvgl\src\lv_objx/lv_sw.h **** };
  64:..\..\..\lvgl\version_6.1.2\lvgl\src\lv_objx/lv_sw.h **** typedef uint8_t lv_sw_style_t;
  65:..\..\..\lvgl\version_6.1.2\lvgl\src\lv_objx/lv_sw.h **** 
  66:..\..\..\lvgl\version_6.1.2\lvgl\src\lv_objx/lv_sw.h **** /**********************
  67:..\..\..\lvgl\version_6.1.2\lvgl\src\lv_objx/lv_sw.h ****  * GLOBAL PROTOTYPES
  68:..\..\..\lvgl\version_6.1.2\lvgl\src\lv_objx/lv_sw.h ****  **********************/
  69:..\..\..\lvgl\version_6.1.2\lvgl\src\lv_objx/lv_sw.h **** 
  70:..\..\..\lvgl\version_6.1.2\lvgl\src\lv_objx/lv_sw.h **** /**
  71:..\..\..\lvgl\version_6.1.2\lvgl\src\lv_objx/lv_sw.h ****  * Create a switch objects
  72:..\..\..\lvgl\version_6.1.2\lvgl\src\lv_objx/lv_sw.h ****  * @param par pointer to an object, it will be the parent of the new switch
  73:..\..\..\lvgl\version_6.1.2\lvgl\src\lv_objx/lv_sw.h ****  * @param copy pointer to a switch object, if not NULL then the new object will be copied from it
  74:..\..\..\lvgl\version_6.1.2\lvgl\src\lv_objx/lv_sw.h ****  * @return pointer to the created switch
  75:..\..\..\lvgl\version_6.1.2\lvgl\src\lv_objx/lv_sw.h ****  */
  76:..\..\..\lvgl\version_6.1.2\lvgl\src\lv_objx/lv_sw.h **** lv_obj_t * lv_sw_create(lv_obj_t * par, const lv_obj_t * copy);
  77:..\..\..\lvgl\version_6.1.2\lvgl\src\lv_objx/lv_sw.h **** 
  78:..\..\..\lvgl\version_6.1.2\lvgl\src\lv_objx/lv_sw.h **** /*=====================
  79:..\..\..\lvgl\version_6.1.2\lvgl\src\lv_objx/lv_sw.h ****  * Setter functions
  80:..\..\..\lvgl\version_6.1.2\lvgl\src\lv_objx/lv_sw.h ****  *====================*/
  81:..\..\..\lvgl\version_6.1.2\lvgl\src\lv_objx/lv_sw.h **** 
  82:..\..\..\lvgl\version_6.1.2\lvgl\src\lv_objx/lv_sw.h **** /**
ARM GAS  C:\Users\tmj32\AppData\Local\Temp\cc0MnWmB.s 			page 6


  83:..\..\..\lvgl\version_6.1.2\lvgl\src\lv_objx/lv_sw.h ****  * Turn ON the switch
  84:..\..\..\lvgl\version_6.1.2\lvgl\src\lv_objx/lv_sw.h ****  * @param sw pointer to a switch object
  85:..\..\..\lvgl\version_6.1.2\lvgl\src\lv_objx/lv_sw.h ****  * @param anim LV_ANIM_ON: set the value with an animation; LV_ANIM_OFF: change the value immediate
  86:..\..\..\lvgl\version_6.1.2\lvgl\src\lv_objx/lv_sw.h ****  */
  87:..\..\..\lvgl\version_6.1.2\lvgl\src\lv_objx/lv_sw.h **** void lv_sw_on(lv_obj_t * sw, lv_anim_enable_t anim);
  88:..\..\..\lvgl\version_6.1.2\lvgl\src\lv_objx/lv_sw.h **** 
  89:..\..\..\lvgl\version_6.1.2\lvgl\src\lv_objx/lv_sw.h **** /**
  90:..\..\..\lvgl\version_6.1.2\lvgl\src\lv_objx/lv_sw.h ****  * Turn OFF the switch
  91:..\..\..\lvgl\version_6.1.2\lvgl\src\lv_objx/lv_sw.h ****  * @param sw pointer to a switch object
  92:..\..\..\lvgl\version_6.1.2\lvgl\src\lv_objx/lv_sw.h ****  * @param anim LV_ANIM_ON: set the value with an animation; LV_ANIM_OFF: change the value immediate
  93:..\..\..\lvgl\version_6.1.2\lvgl\src\lv_objx/lv_sw.h ****  */
  94:..\..\..\lvgl\version_6.1.2\lvgl\src\lv_objx/lv_sw.h **** void lv_sw_off(lv_obj_t * sw, lv_anim_enable_t anim);
  95:..\..\..\lvgl\version_6.1.2\lvgl\src\lv_objx/lv_sw.h **** 
  96:..\..\..\lvgl\version_6.1.2\lvgl\src\lv_objx/lv_sw.h **** /**
  97:..\..\..\lvgl\version_6.1.2\lvgl\src\lv_objx/lv_sw.h ****  * Toggle the position of the switch
  98:..\..\..\lvgl\version_6.1.2\lvgl\src\lv_objx/lv_sw.h ****  * @param sw pointer to a switch object
  99:..\..\..\lvgl\version_6.1.2\lvgl\src\lv_objx/lv_sw.h ****  * @param anim LV_ANIM_ON: set the value with an animation; LV_ANIM_OFF: change the value immediate
 100:..\..\..\lvgl\version_6.1.2\lvgl\src\lv_objx/lv_sw.h ****  * @return resulting state of the switch.
 101:..\..\..\lvgl\version_6.1.2\lvgl\src\lv_objx/lv_sw.h ****  */
 102:..\..\..\lvgl\version_6.1.2\lvgl\src\lv_objx/lv_sw.h **** bool lv_sw_toggle(lv_obj_t * sw, lv_anim_enable_t anim);
 103:..\..\..\lvgl\version_6.1.2\lvgl\src\lv_objx/lv_sw.h **** 
 104:..\..\..\lvgl\version_6.1.2\lvgl\src\lv_objx/lv_sw.h **** /**
 105:..\..\..\lvgl\version_6.1.2\lvgl\src\lv_objx/lv_sw.h ****  * Set a style of a switch
 106:..\..\..\lvgl\version_6.1.2\lvgl\src\lv_objx/lv_sw.h ****  * @param sw pointer to a switch object
 107:..\..\..\lvgl\version_6.1.2\lvgl\src\lv_objx/lv_sw.h ****  * @param type which style should be set
 108:..\..\..\lvgl\version_6.1.2\lvgl\src\lv_objx/lv_sw.h ****  * @param style pointer to a style
 109:..\..\..\lvgl\version_6.1.2\lvgl\src\lv_objx/lv_sw.h ****  */
 110:..\..\..\lvgl\version_6.1.2\lvgl\src\lv_objx/lv_sw.h **** void lv_sw_set_style(lv_obj_t * sw, lv_sw_style_t type, const lv_style_t * style);
 111:..\..\..\lvgl\version_6.1.2\lvgl\src\lv_objx/lv_sw.h **** 
 112:..\..\..\lvgl\version_6.1.2\lvgl\src\lv_objx/lv_sw.h **** /**
 113:..\..\..\lvgl\version_6.1.2\lvgl\src\lv_objx/lv_sw.h ****  * Set the animation time of the switch
 114:..\..\..\lvgl\version_6.1.2\lvgl\src\lv_objx/lv_sw.h ****  * @param sw pointer to a  switch object
 115:..\..\..\lvgl\version_6.1.2\lvgl\src\lv_objx/lv_sw.h ****  * @param anim_time animation time
 116:..\..\..\lvgl\version_6.1.2\lvgl\src\lv_objx/lv_sw.h ****  * @return style pointer to a style
 117:..\..\..\lvgl\version_6.1.2\lvgl\src\lv_objx/lv_sw.h ****  */
 118:..\..\..\lvgl\version_6.1.2\lvgl\src\lv_objx/lv_sw.h **** void lv_sw_set_anim_time(lv_obj_t * sw, uint16_t anim_time);
 119:..\..\..\lvgl\version_6.1.2\lvgl\src\lv_objx/lv_sw.h **** 
 120:..\..\..\lvgl\version_6.1.2\lvgl\src\lv_objx/lv_sw.h **** /*=====================
 121:..\..\..\lvgl\version_6.1.2\lvgl\src\lv_objx/lv_sw.h ****  * Getter functions
 122:..\..\..\lvgl\version_6.1.2\lvgl\src\lv_objx/lv_sw.h ****  *====================*/
 123:..\..\..\lvgl\version_6.1.2\lvgl\src\lv_objx/lv_sw.h **** 
 124:..\..\..\lvgl\version_6.1.2\lvgl\src\lv_objx/lv_sw.h **** /**
 125:..\..\..\lvgl\version_6.1.2\lvgl\src\lv_objx/lv_sw.h ****  * Get the state of a switch
 126:..\..\..\lvgl\version_6.1.2\lvgl\src\lv_objx/lv_sw.h ****  * @param sw pointer to a switch object
 127:..\..\..\lvgl\version_6.1.2\lvgl\src\lv_objx/lv_sw.h ****  * @return false: OFF; true: ON
 128:..\..\..\lvgl\version_6.1.2\lvgl\src\lv_objx/lv_sw.h ****  */
 129:..\..\..\lvgl\version_6.1.2\lvgl\src\lv_objx/lv_sw.h **** static inline bool lv_sw_get_state(const lv_obj_t * sw)
 130:..\..\..\lvgl\version_6.1.2\lvgl\src\lv_objx/lv_sw.h **** {
 111              		.loc 2 130 0
 112              		.cfi_startproc
 113              		@ args = 0, pretend = 0, frame = 8
 114              		@ frame_needed = 1, uses_anonymous_args = 0
 115 0000 80B5     		push	{r7, lr}
 116              		.cfi_def_cfa_offset 8
 117              		.cfi_offset 7, -8
 118              		.cfi_offset 14, -4
 119 0002 82B0     		sub	sp, sp, #8
ARM GAS  C:\Users\tmj32\AppData\Local\Temp\cc0MnWmB.s 			page 7


 120              		.cfi_def_cfa_offset 16
 121 0004 00AF     		add	r7, sp, #0
 122              		.cfi_def_cfa_register 7
 123 0006 7860     		str	r0, [r7, #4]
 131:..\..\..\lvgl\version_6.1.2\lvgl\src\lv_objx/lv_sw.h ****     return lv_bar_get_value(sw) < LV_SW_MAX_VALUE / 2 ? false : true;
 124              		.loc 2 131 0
 125 0008 7868     		ldr	r0, [r7, #4]
 126 000a FFF7FEFF 		bl	lv_bar_get_value
 127 000e 0346     		mov	r3, r0
 128 0010 312B     		cmp	r3, #49
 129 0012 CCBF     		ite	gt
 130 0014 0123     		movgt	r3, #1
 131 0016 0023     		movle	r3, #0
 132 0018 DBB2     		uxtb	r3, r3
 132:..\..\..\lvgl\version_6.1.2\lvgl\src\lv_objx/lv_sw.h **** }
 133              		.loc 2 132 0
 134 001a 1846     		mov	r0, r3
 135 001c 0837     		adds	r7, r7, #8
 136              		.cfi_def_cfa_offset 8
 137 001e BD46     		mov	sp, r7
 138              		.cfi_def_cfa_register 13
 139              		@ sp needed
 140 0020 80BD     		pop	{r7, pc}
 141              		.cfi_endproc
 142              	.LFE54:
 143              		.size	lv_sw_get_state, .-lv_sw_get_state
 144 0022 00BF     		.bss
 145              		.align	2
 146              	ancestor_signal:
 147 0000 00000000 		.space	4
 148              		.section	.text.lv_sw_create,"ax",%progbits
 149              		.align	2
 150              		.global	lv_sw_create
 151              		.thumb
 152              		.thumb_func
 153              		.type	lv_sw_create, %function
 154              	lv_sw_create:
 155              	.LFB55:
 156              		.file 3 "..\\..\\..\\lvgl\\version_6.1.2\\lvgl\\src\\lv_objx\\lv_sw.c"
   1:..\..\..\lvgl\version_6.1.2\lvgl\src\lv_objx/lv_sw.c **** /**
   2:..\..\..\lvgl\version_6.1.2\lvgl\src\lv_objx/lv_sw.c ****  * @file lv_sw.c
   3:..\..\..\lvgl\version_6.1.2\lvgl\src\lv_objx/lv_sw.c ****  *
   4:..\..\..\lvgl\version_6.1.2\lvgl\src\lv_objx/lv_sw.c ****  */
   5:..\..\..\lvgl\version_6.1.2\lvgl\src\lv_objx/lv_sw.c **** 
   6:..\..\..\lvgl\version_6.1.2\lvgl\src\lv_objx/lv_sw.c **** /*********************
   7:..\..\..\lvgl\version_6.1.2\lvgl\src\lv_objx/lv_sw.c ****  *      INCLUDES
   8:..\..\..\lvgl\version_6.1.2\lvgl\src\lv_objx/lv_sw.c ****  *********************/
   9:..\..\..\lvgl\version_6.1.2\lvgl\src\lv_objx/lv_sw.c **** #include "lv_sw.h"
  10:..\..\..\lvgl\version_6.1.2\lvgl\src\lv_objx/lv_sw.c **** 
  11:..\..\..\lvgl\version_6.1.2\lvgl\src\lv_objx/lv_sw.c **** #if LV_USE_SW != 0
  12:..\..\..\lvgl\version_6.1.2\lvgl\src\lv_objx/lv_sw.c **** 
  13:..\..\..\lvgl\version_6.1.2\lvgl\src\lv_objx/lv_sw.c **** /*Testing of dependencies*/
  14:..\..\..\lvgl\version_6.1.2\lvgl\src\lv_objx/lv_sw.c **** #if LV_USE_SLIDER == 0
  15:..\..\..\lvgl\version_6.1.2\lvgl\src\lv_objx/lv_sw.c **** #error "lv_sw: lv_slider is required. Enable it in lv_conf.h (LV_USE_SLIDER  1) "
  16:..\..\..\lvgl\version_6.1.2\lvgl\src\lv_objx/lv_sw.c **** #endif
  17:..\..\..\lvgl\version_6.1.2\lvgl\src\lv_objx/lv_sw.c **** 
  18:..\..\..\lvgl\version_6.1.2\lvgl\src\lv_objx/lv_sw.c **** #include "../lv_core/lv_debug.h"
ARM GAS  C:\Users\tmj32\AppData\Local\Temp\cc0MnWmB.s 			page 8


  19:..\..\..\lvgl\version_6.1.2\lvgl\src\lv_objx/lv_sw.c **** #include "../lv_themes/lv_theme.h"
  20:..\..\..\lvgl\version_6.1.2\lvgl\src\lv_objx/lv_sw.c **** #include "../lv_misc/lv_math.h"
  21:..\..\..\lvgl\version_6.1.2\lvgl\src\lv_objx/lv_sw.c **** #include "../lv_core/lv_indev.h"
  22:..\..\..\lvgl\version_6.1.2\lvgl\src\lv_objx/lv_sw.c **** 
  23:..\..\..\lvgl\version_6.1.2\lvgl\src\lv_objx/lv_sw.c **** /*********************
  24:..\..\..\lvgl\version_6.1.2\lvgl\src\lv_objx/lv_sw.c ****  *      DEFINES
  25:..\..\..\lvgl\version_6.1.2\lvgl\src\lv_objx/lv_sw.c ****  *********************/
  26:..\..\..\lvgl\version_6.1.2\lvgl\src\lv_objx/lv_sw.c **** #define LV_OBJX_NAME "lv_sw"
  27:..\..\..\lvgl\version_6.1.2\lvgl\src\lv_objx/lv_sw.c **** 
  28:..\..\..\lvgl\version_6.1.2\lvgl\src\lv_objx/lv_sw.c **** /**********************
  29:..\..\..\lvgl\version_6.1.2\lvgl\src\lv_objx/lv_sw.c ****  *      TYPEDEFS
  30:..\..\..\lvgl\version_6.1.2\lvgl\src\lv_objx/lv_sw.c ****  **********************/
  31:..\..\..\lvgl\version_6.1.2\lvgl\src\lv_objx/lv_sw.c **** 
  32:..\..\..\lvgl\version_6.1.2\lvgl\src\lv_objx/lv_sw.c **** /**********************
  33:..\..\..\lvgl\version_6.1.2\lvgl\src\lv_objx/lv_sw.c ****  *  STATIC PROTOTYPES
  34:..\..\..\lvgl\version_6.1.2\lvgl\src\lv_objx/lv_sw.c ****  **********************/
  35:..\..\..\lvgl\version_6.1.2\lvgl\src\lv_objx/lv_sw.c **** static lv_res_t lv_sw_signal(lv_obj_t * sw, lv_signal_t sign, void * param);
  36:..\..\..\lvgl\version_6.1.2\lvgl\src\lv_objx/lv_sw.c **** 
  37:..\..\..\lvgl\version_6.1.2\lvgl\src\lv_objx/lv_sw.c **** /**********************
  38:..\..\..\lvgl\version_6.1.2\lvgl\src\lv_objx/lv_sw.c ****  *  STATIC VARIABLES
  39:..\..\..\lvgl\version_6.1.2\lvgl\src\lv_objx/lv_sw.c ****  **********************/
  40:..\..\..\lvgl\version_6.1.2\lvgl\src\lv_objx/lv_sw.c **** static lv_signal_cb_t ancestor_signal;
  41:..\..\..\lvgl\version_6.1.2\lvgl\src\lv_objx/lv_sw.c **** 
  42:..\..\..\lvgl\version_6.1.2\lvgl\src\lv_objx/lv_sw.c **** /**********************
  43:..\..\..\lvgl\version_6.1.2\lvgl\src\lv_objx/lv_sw.c ****  *      MACROS
  44:..\..\..\lvgl\version_6.1.2\lvgl\src\lv_objx/lv_sw.c ****  **********************/
  45:..\..\..\lvgl\version_6.1.2\lvgl\src\lv_objx/lv_sw.c **** 
  46:..\..\..\lvgl\version_6.1.2\lvgl\src\lv_objx/lv_sw.c **** /**********************
  47:..\..\..\lvgl\version_6.1.2\lvgl\src\lv_objx/lv_sw.c ****  *   GLOBAL FUNCTIONS
  48:..\..\..\lvgl\version_6.1.2\lvgl\src\lv_objx/lv_sw.c ****  **********************/
  49:..\..\..\lvgl\version_6.1.2\lvgl\src\lv_objx/lv_sw.c **** 
  50:..\..\..\lvgl\version_6.1.2\lvgl\src\lv_objx/lv_sw.c **** /**
  51:..\..\..\lvgl\version_6.1.2\lvgl\src\lv_objx/lv_sw.c ****  * Create a switch objects
  52:..\..\..\lvgl\version_6.1.2\lvgl\src\lv_objx/lv_sw.c ****  * @param par pointer to an object, it will be the parent of the new switch
  53:..\..\..\lvgl\version_6.1.2\lvgl\src\lv_objx/lv_sw.c ****  * @param copy pointer to a switch object, if not NULL then the new object will be copied from it
  54:..\..\..\lvgl\version_6.1.2\lvgl\src\lv_objx/lv_sw.c ****  * @return pointer to the created switch
  55:..\..\..\lvgl\version_6.1.2\lvgl\src\lv_objx/lv_sw.c ****  */
  56:..\..\..\lvgl\version_6.1.2\lvgl\src\lv_objx/lv_sw.c **** lv_obj_t * lv_sw_create(lv_obj_t * par, const lv_obj_t * copy)
  57:..\..\..\lvgl\version_6.1.2\lvgl\src\lv_objx/lv_sw.c **** {
 157              		.loc 3 57 0
 158              		.cfi_startproc
 159              		@ args = 0, pretend = 0, frame = 24
 160              		@ frame_needed = 1, uses_anonymous_args = 0
 161 0000 80B5     		push	{r7, lr}
 162              		.cfi_def_cfa_offset 8
 163              		.cfi_offset 7, -8
 164              		.cfi_offset 14, -4
 165 0002 86B0     		sub	sp, sp, #24
 166              		.cfi_def_cfa_offset 32
 167 0004 00AF     		add	r7, sp, #0
 168              		.cfi_def_cfa_register 7
 169 0006 7860     		str	r0, [r7, #4]
 170 0008 3960     		str	r1, [r7]
  58:..\..\..\lvgl\version_6.1.2\lvgl\src\lv_objx/lv_sw.c ****     LV_LOG_TRACE("switch create started");
  59:..\..\..\lvgl\version_6.1.2\lvgl\src\lv_objx/lv_sw.c **** 
  60:..\..\..\lvgl\version_6.1.2\lvgl\src\lv_objx/lv_sw.c ****     /*Create the ancestor of switch*/
  61:..\..\..\lvgl\version_6.1.2\lvgl\src\lv_objx/lv_sw.c ****     lv_obj_t * new_sw = lv_slider_create(par, copy);
ARM GAS  C:\Users\tmj32\AppData\Local\Temp\cc0MnWmB.s 			page 9


 171              		.loc 3 61 0
 172 000a 3968     		ldr	r1, [r7]
 173 000c 7868     		ldr	r0, [r7, #4]
 174 000e FFF7FEFF 		bl	lv_slider_create
 175 0012 7861     		str	r0, [r7, #20]
  62:..\..\..\lvgl\version_6.1.2\lvgl\src\lv_objx/lv_sw.c ****     LV_ASSERT_MEM(new_sw);
  63:..\..\..\lvgl\version_6.1.2\lvgl\src\lv_objx/lv_sw.c ****     if(new_sw == NULL) return NULL;
 176              		.loc 3 63 0
 177 0014 7B69     		ldr	r3, [r7, #20]
 178 0016 002B     		cmp	r3, #0
 179 0018 01D1     		bne	.L6
 180              		.loc 3 63 0 is_stmt 0 discriminator 1
 181 001a 0023     		movs	r3, #0
 182 001c 88E0     		b	.L7
 183              	.L6:
  64:..\..\..\lvgl\version_6.1.2\lvgl\src\lv_objx/lv_sw.c **** 
  65:..\..\..\lvgl\version_6.1.2\lvgl\src\lv_objx/lv_sw.c ****     if(ancestor_signal == NULL) ancestor_signal = lv_obj_get_signal_cb(new_sw);
 184              		.loc 3 65 0 is_stmt 1
 185 001e 464B     		ldr	r3, .L15
 186 0020 1B68     		ldr	r3, [r3]
 187 0022 002B     		cmp	r3, #0
 188 0024 05D1     		bne	.L8
 189              		.loc 3 65 0 is_stmt 0 discriminator 1
 190 0026 7869     		ldr	r0, [r7, #20]
 191 0028 FFF7FEFF 		bl	lv_obj_get_signal_cb
 192 002c 0246     		mov	r2, r0
 193 002e 424B     		ldr	r3, .L15
 194 0030 1A60     		str	r2, [r3]
 195              	.L8:
  66:..\..\..\lvgl\version_6.1.2\lvgl\src\lv_objx/lv_sw.c **** 
  67:..\..\..\lvgl\version_6.1.2\lvgl\src\lv_objx/lv_sw.c ****     /*Allocate the switch type specific extended data*/
  68:..\..\..\lvgl\version_6.1.2\lvgl\src\lv_objx/lv_sw.c ****     lv_sw_ext_t * ext = lv_obj_allocate_ext_attr(new_sw, sizeof(lv_sw_ext_t));
 196              		.loc 3 68 0 is_stmt 1
 197 0032 2C21     		movs	r1, #44
 198 0034 7869     		ldr	r0, [r7, #20]
 199 0036 FFF7FEFF 		bl	lv_obj_allocate_ext_attr
 200 003a 3861     		str	r0, [r7, #16]
  69:..\..\..\lvgl\version_6.1.2\lvgl\src\lv_objx/lv_sw.c ****     LV_ASSERT_MEM(ext);
  70:..\..\..\lvgl\version_6.1.2\lvgl\src\lv_objx/lv_sw.c ****     if(ext == NULL) return NULL;
 201              		.loc 3 70 0
 202 003c 3B69     		ldr	r3, [r7, #16]
 203 003e 002B     		cmp	r3, #0
 204 0040 01D1     		bne	.L9
 205              		.loc 3 70 0 is_stmt 0 discriminator 1
 206 0042 0023     		movs	r3, #0
 207 0044 74E0     		b	.L7
 208              	.L9:
  71:..\..\..\lvgl\version_6.1.2\lvgl\src\lv_objx/lv_sw.c **** 
  72:..\..\..\lvgl\version_6.1.2\lvgl\src\lv_objx/lv_sw.c ****     /*Initialize the allocated 'ext' */
  73:..\..\..\lvgl\version_6.1.2\lvgl\src\lv_objx/lv_sw.c ****     ext->changed = 0;
 209              		.loc 3 73 0 is_stmt 1
 210 0046 3A69     		ldr	r2, [r7, #16]
 211 0048 92F82630 		ldrb	r3, [r2, #38]
 212 004c 6FF30003 		bfc	r3, #0, #1
 213 0050 82F82630 		strb	r3, [r2, #38]
  74:..\..\..\lvgl\version_6.1.2\lvgl\src\lv_objx/lv_sw.c **** #if LV_USE_ANIMATION
  75:..\..\..\lvgl\version_6.1.2\lvgl\src\lv_objx/lv_sw.c ****     ext->anim_time = 0;
ARM GAS  C:\Users\tmj32\AppData\Local\Temp\cc0MnWmB.s 			page 10


 214              		.loc 3 75 0
 215 0054 3B69     		ldr	r3, [r7, #16]
 216 0056 0022     		movs	r2, #0
 217 0058 1A85     		strh	r2, [r3, #40]	@ movhi
  76:..\..\..\lvgl\version_6.1.2\lvgl\src\lv_objx/lv_sw.c **** #endif
  77:..\..\..\lvgl\version_6.1.2\lvgl\src\lv_objx/lv_sw.c ****     ext->style_knob_off = ext->slider.style_knob;
 218              		.loc 3 77 0
 219 005a 3B69     		ldr	r3, [r7, #16]
 220 005c 5A69     		ldr	r2, [r3, #20]
 221 005e 3B69     		ldr	r3, [r7, #16]
 222 0060 DA61     		str	r2, [r3, #28]
  78:..\..\..\lvgl\version_6.1.2\lvgl\src\lv_objx/lv_sw.c ****     ext->style_knob_on  = ext->slider.style_knob;
 223              		.loc 3 78 0
 224 0062 3B69     		ldr	r3, [r7, #16]
 225 0064 5A69     		ldr	r2, [r3, #20]
 226 0066 3B69     		ldr	r3, [r7, #16]
 227 0068 1A62     		str	r2, [r3, #32]
  79:..\..\..\lvgl\version_6.1.2\lvgl\src\lv_objx/lv_sw.c **** 
  80:..\..\..\lvgl\version_6.1.2\lvgl\src\lv_objx/lv_sw.c ****     /*The signal and design functions are not copied so set them here*/
  81:..\..\..\lvgl\version_6.1.2\lvgl\src\lv_objx/lv_sw.c ****     lv_obj_set_signal_cb(new_sw, lv_sw_signal);
 228              		.loc 3 81 0
 229 006a 3449     		ldr	r1, .L15+4
 230 006c 7869     		ldr	r0, [r7, #20]
 231 006e FFF7FEFF 		bl	lv_obj_set_signal_cb
  82:..\..\..\lvgl\version_6.1.2\lvgl\src\lv_objx/lv_sw.c **** 
  83:..\..\..\lvgl\version_6.1.2\lvgl\src\lv_objx/lv_sw.c ****     /*Init the new switch switch*/
  84:..\..\..\lvgl\version_6.1.2\lvgl\src\lv_objx/lv_sw.c ****     if(copy == NULL) {
 232              		.loc 3 84 0
 233 0072 3B68     		ldr	r3, [r7]
 234 0074 002B     		cmp	r3, #0
 235 0076 32D1     		bne	.L10
 236              	.LBB2:
  85:..\..\..\lvgl\version_6.1.2\lvgl\src\lv_objx/lv_sw.c ****         lv_obj_set_size(new_sw, 2 * LV_DPI / 3, LV_DPI / 3);
 237              		.loc 3 85 0
 238 0078 3222     		movs	r2, #50
 239 007a 6421     		movs	r1, #100
 240 007c 7869     		ldr	r0, [r7, #20]
 241 007e FFF7FEFF 		bl	lv_obj_set_size
  86:..\..\..\lvgl\version_6.1.2\lvgl\src\lv_objx/lv_sw.c ****         lv_slider_set_knob_in(new_sw, true);
 242              		.loc 3 86 0
 243 0082 0121     		movs	r1, #1
 244 0084 7869     		ldr	r0, [r7, #20]
 245 0086 FFF7FEFF 		bl	lv_slider_set_knob_in
  87:..\..\..\lvgl\version_6.1.2\lvgl\src\lv_objx/lv_sw.c ****         lv_slider_set_range(new_sw, 0, LV_SW_MAX_VALUE);
 246              		.loc 3 87 0
 247 008a 6422     		movs	r2, #100
 248 008c 0021     		movs	r1, #0
 249 008e 7869     		ldr	r0, [r7, #20]
 250 0090 FFF7FEFF 		bl	lv_slider_set_range
  88:..\..\..\lvgl\version_6.1.2\lvgl\src\lv_objx/lv_sw.c **** 
  89:..\..\..\lvgl\version_6.1.2\lvgl\src\lv_objx/lv_sw.c ****         /*Set the default styles*/
  90:..\..\..\lvgl\version_6.1.2\lvgl\src\lv_objx/lv_sw.c ****         lv_theme_t * th = lv_theme_get_current();
 251              		.loc 3 90 0
 252 0094 FFF7FEFF 		bl	lv_theme_get_current
 253 0098 F860     		str	r0, [r7, #12]
  91:..\..\..\lvgl\version_6.1.2\lvgl\src\lv_objx/lv_sw.c ****         if(th) {
 254              		.loc 3 91 0
ARM GAS  C:\Users\tmj32\AppData\Local\Temp\cc0MnWmB.s 			page 11


 255 009a FB68     		ldr	r3, [r7, #12]
 256 009c 002B     		cmp	r3, #0
 257 009e 46D0     		beq	.L12
  92:..\..\..\lvgl\version_6.1.2\lvgl\src\lv_objx/lv_sw.c ****             lv_sw_set_style(new_sw, LV_SW_STYLE_BG, th->style.sw.bg);
 258              		.loc 3 92 0
 259 00a0 FB68     		ldr	r3, [r7, #12]
 260 00a2 9B6F     		ldr	r3, [r3, #120]
 261 00a4 1A46     		mov	r2, r3
 262 00a6 0021     		movs	r1, #0
 263 00a8 7869     		ldr	r0, [r7, #20]
 264 00aa FFF7FEFF 		bl	lv_sw_set_style
  93:..\..\..\lvgl\version_6.1.2\lvgl\src\lv_objx/lv_sw.c ****             lv_sw_set_style(new_sw, LV_SW_STYLE_INDIC, th->style.sw.indic);
 265              		.loc 3 93 0
 266 00ae FB68     		ldr	r3, [r7, #12]
 267 00b0 DB6F     		ldr	r3, [r3, #124]
 268 00b2 1A46     		mov	r2, r3
 269 00b4 0121     		movs	r1, #1
 270 00b6 7869     		ldr	r0, [r7, #20]
 271 00b8 FFF7FEFF 		bl	lv_sw_set_style
  94:..\..\..\lvgl\version_6.1.2\lvgl\src\lv_objx/lv_sw.c ****             lv_sw_set_style(new_sw, LV_SW_STYLE_KNOB_OFF, th->style.sw.knob_off);
 272              		.loc 3 94 0
 273 00bc FB68     		ldr	r3, [r7, #12]
 274 00be D3F88030 		ldr	r3, [r3, #128]
 275 00c2 1A46     		mov	r2, r3
 276 00c4 0221     		movs	r1, #2
 277 00c6 7869     		ldr	r0, [r7, #20]
 278 00c8 FFF7FEFF 		bl	lv_sw_set_style
  95:..\..\..\lvgl\version_6.1.2\lvgl\src\lv_objx/lv_sw.c ****             lv_sw_set_style(new_sw, LV_SW_STYLE_KNOB_ON, th->style.sw.knob_on);
 279              		.loc 3 95 0
 280 00cc FB68     		ldr	r3, [r7, #12]
 281 00ce D3F88430 		ldr	r3, [r3, #132]
 282 00d2 1A46     		mov	r2, r3
 283 00d4 0321     		movs	r1, #3
 284 00d6 7869     		ldr	r0, [r7, #20]
 285 00d8 FFF7FEFF 		bl	lv_sw_set_style
 286 00dc 27E0     		b	.L12
 287              	.L10:
 288              	.LBE2:
 289              	.LBB3:
  96:..\..\..\lvgl\version_6.1.2\lvgl\src\lv_objx/lv_sw.c ****         } else {
  97:..\..\..\lvgl\version_6.1.2\lvgl\src\lv_objx/lv_sw.c ****             /*Let the slider' style*/
  98:..\..\..\lvgl\version_6.1.2\lvgl\src\lv_objx/lv_sw.c ****         }
  99:..\..\..\lvgl\version_6.1.2\lvgl\src\lv_objx/lv_sw.c **** 
 100:..\..\..\lvgl\version_6.1.2\lvgl\src\lv_objx/lv_sw.c ****     }
 101:..\..\..\lvgl\version_6.1.2\lvgl\src\lv_objx/lv_sw.c ****     /*Copy an existing switch*/
 102:..\..\..\lvgl\version_6.1.2\lvgl\src\lv_objx/lv_sw.c ****     else {
 103:..\..\..\lvgl\version_6.1.2\lvgl\src\lv_objx/lv_sw.c ****         lv_sw_ext_t * copy_ext = lv_obj_get_ext_attr(copy);
 290              		.loc 3 103 0
 291 00de 3868     		ldr	r0, [r7]
 292 00e0 FFF7FEFF 		bl	lv_obj_get_ext_attr
 293 00e4 B860     		str	r0, [r7, #8]
 104:..\..\..\lvgl\version_6.1.2\lvgl\src\lv_objx/lv_sw.c ****         ext->style_knob_off    = copy_ext->style_knob_off;
 294              		.loc 3 104 0
 295 00e6 BB68     		ldr	r3, [r7, #8]
 296 00e8 DA69     		ldr	r2, [r3, #28]
 297 00ea 3B69     		ldr	r3, [r7, #16]
 298 00ec DA61     		str	r2, [r3, #28]
ARM GAS  C:\Users\tmj32\AppData\Local\Temp\cc0MnWmB.s 			page 12


 105:..\..\..\lvgl\version_6.1.2\lvgl\src\lv_objx/lv_sw.c ****         ext->style_knob_on     = copy_ext->style_knob_on;
 299              		.loc 3 105 0
 300 00ee BB68     		ldr	r3, [r7, #8]
 301 00f0 1A6A     		ldr	r2, [r3, #32]
 302 00f2 3B69     		ldr	r3, [r7, #16]
 303 00f4 1A62     		str	r2, [r3, #32]
 106:..\..\..\lvgl\version_6.1.2\lvgl\src\lv_objx/lv_sw.c **** #if LV_USE_ANIMATION
 107:..\..\..\lvgl\version_6.1.2\lvgl\src\lv_objx/lv_sw.c ****         ext->anim_time = copy_ext->anim_time;
 304              		.loc 3 107 0
 305 00f6 BB68     		ldr	r3, [r7, #8]
 306 00f8 1A8D     		ldrh	r2, [r3, #40]
 307 00fa 3B69     		ldr	r3, [r7, #16]
 308 00fc 1A85     		strh	r2, [r3, #40]	@ movhi
 108:..\..\..\lvgl\version_6.1.2\lvgl\src\lv_objx/lv_sw.c **** #endif
 109:..\..\..\lvgl\version_6.1.2\lvgl\src\lv_objx/lv_sw.c **** 
 110:..\..\..\lvgl\version_6.1.2\lvgl\src\lv_objx/lv_sw.c ****         if(lv_sw_get_state(new_sw))
 309              		.loc 3 110 0
 310 00fe 7869     		ldr	r0, [r7, #20]
 311 0100 FFF7FEFF 		bl	lv_sw_get_state
 312 0104 0346     		mov	r3, r0
 313 0106 002B     		cmp	r3, #0
 314 0108 07D0     		beq	.L13
 111:..\..\..\lvgl\version_6.1.2\lvgl\src\lv_objx/lv_sw.c ****             lv_slider_set_style(new_sw, LV_SLIDER_STYLE_KNOB, ext->style_knob_on);
 315              		.loc 3 111 0
 316 010a 3B69     		ldr	r3, [r7, #16]
 317 010c 1B6A     		ldr	r3, [r3, #32]
 318 010e 1A46     		mov	r2, r3
 319 0110 0221     		movs	r1, #2
 320 0112 7869     		ldr	r0, [r7, #20]
 321 0114 FFF7FEFF 		bl	lv_slider_set_style
 322 0118 06E0     		b	.L14
 323              	.L13:
 112:..\..\..\lvgl\version_6.1.2\lvgl\src\lv_objx/lv_sw.c ****         else
 113:..\..\..\lvgl\version_6.1.2\lvgl\src\lv_objx/lv_sw.c ****             lv_slider_set_style(new_sw, LV_SLIDER_STYLE_KNOB, ext->style_knob_off);
 324              		.loc 3 113 0
 325 011a 3B69     		ldr	r3, [r7, #16]
 326 011c DB69     		ldr	r3, [r3, #28]
 327 011e 1A46     		mov	r2, r3
 328 0120 0221     		movs	r1, #2
 329 0122 7869     		ldr	r0, [r7, #20]
 330 0124 FFF7FEFF 		bl	lv_slider_set_style
 331              	.L14:
 114:..\..\..\lvgl\version_6.1.2\lvgl\src\lv_objx/lv_sw.c **** 
 115:..\..\..\lvgl\version_6.1.2\lvgl\src\lv_objx/lv_sw.c ****         /*Refresh the style with new signal function*/
 116:..\..\..\lvgl\version_6.1.2\lvgl\src\lv_objx/lv_sw.c ****         lv_obj_refresh_style(new_sw);
 332              		.loc 3 116 0
 333 0128 7869     		ldr	r0, [r7, #20]
 334 012a FFF7FEFF 		bl	lv_obj_refresh_style
 335              	.L12:
 336              	.LBE3:
 117:..\..\..\lvgl\version_6.1.2\lvgl\src\lv_objx/lv_sw.c ****     }
 118:..\..\..\lvgl\version_6.1.2\lvgl\src\lv_objx/lv_sw.c **** 
 119:..\..\..\lvgl\version_6.1.2\lvgl\src\lv_objx/lv_sw.c ****     LV_LOG_INFO("switch created");
 120:..\..\..\lvgl\version_6.1.2\lvgl\src\lv_objx/lv_sw.c **** 
 121:..\..\..\lvgl\version_6.1.2\lvgl\src\lv_objx/lv_sw.c ****     return new_sw;
 337              		.loc 3 121 0
 338 012e 7B69     		ldr	r3, [r7, #20]
ARM GAS  C:\Users\tmj32\AppData\Local\Temp\cc0MnWmB.s 			page 13


 339              	.L7:
 122:..\..\..\lvgl\version_6.1.2\lvgl\src\lv_objx/lv_sw.c **** }
 340              		.loc 3 122 0
 341 0130 1846     		mov	r0, r3
 342 0132 1837     		adds	r7, r7, #24
 343              		.cfi_def_cfa_offset 8
 344 0134 BD46     		mov	sp, r7
 345              		.cfi_def_cfa_register 13
 346              		@ sp needed
 347 0136 80BD     		pop	{r7, pc}
 348              	.L16:
 349              		.align	2
 350              	.L15:
 351 0138 00000000 		.word	ancestor_signal
 352 013c 00000000 		.word	lv_sw_signal
 353              		.cfi_endproc
 354              	.LFE55:
 355              		.size	lv_sw_create, .-lv_sw_create
 356              		.section	.text.lv_sw_on,"ax",%progbits
 357              		.align	2
 358              		.global	lv_sw_on
 359              		.thumb
 360              		.thumb_func
 361              		.type	lv_sw_on, %function
 362              	lv_sw_on:
 363              	.LFB56:
 123:..\..\..\lvgl\version_6.1.2\lvgl\src\lv_objx/lv_sw.c **** 
 124:..\..\..\lvgl\version_6.1.2\lvgl\src\lv_objx/lv_sw.c **** /*=====================
 125:..\..\..\lvgl\version_6.1.2\lvgl\src\lv_objx/lv_sw.c ****  * Setter functions
 126:..\..\..\lvgl\version_6.1.2\lvgl\src\lv_objx/lv_sw.c ****  *====================*/
 127:..\..\..\lvgl\version_6.1.2\lvgl\src\lv_objx/lv_sw.c **** 
 128:..\..\..\lvgl\version_6.1.2\lvgl\src\lv_objx/lv_sw.c **** /**
 129:..\..\..\lvgl\version_6.1.2\lvgl\src\lv_objx/lv_sw.c ****  * Turn ON the switch
 130:..\..\..\lvgl\version_6.1.2\lvgl\src\lv_objx/lv_sw.c ****  * @param sw pointer to a switch objec
 131:..\..\..\lvgl\version_6.1.2\lvgl\src\lv_objx/lv_sw.c ****  * @param anim LV_ANOM_ON: set the value with an animation; LV_ANIM_OFF: change the value immediate
 132:..\..\..\lvgl\version_6.1.2\lvgl\src\lv_objx/lv_sw.c ****  */
 133:..\..\..\lvgl\version_6.1.2\lvgl\src\lv_objx/lv_sw.c **** void lv_sw_on(lv_obj_t * sw, lv_anim_enable_t anim)
 134:..\..\..\lvgl\version_6.1.2\lvgl\src\lv_objx/lv_sw.c **** {
 364              		.loc 3 134 0
 365              		.cfi_startproc
 366              		@ args = 0, pretend = 0, frame = 16
 367              		@ frame_needed = 1, uses_anonymous_args = 0
 368 0000 80B5     		push	{r7, lr}
 369              		.cfi_def_cfa_offset 8
 370              		.cfi_offset 7, -8
 371              		.cfi_offset 14, -4
 372 0002 84B0     		sub	sp, sp, #16
 373              		.cfi_def_cfa_offset 24
 374 0004 00AF     		add	r7, sp, #0
 375              		.cfi_def_cfa_register 7
 376 0006 7860     		str	r0, [r7, #4]
 377 0008 0B46     		mov	r3, r1
 378 000a FB70     		strb	r3, [r7, #3]
 135:..\..\..\lvgl\version_6.1.2\lvgl\src\lv_objx/lv_sw.c ****     LV_ASSERT_OBJ(sw, LV_OBJX_NAME);
 136:..\..\..\lvgl\version_6.1.2\lvgl\src\lv_objx/lv_sw.c **** 
 137:..\..\..\lvgl\version_6.1.2\lvgl\src\lv_objx/lv_sw.c **** #if LV_USE_ANIMATION == 0
 138:..\..\..\lvgl\version_6.1.2\lvgl\src\lv_objx/lv_sw.c ****     anim = LV_ANIM_OFF;
ARM GAS  C:\Users\tmj32\AppData\Local\Temp\cc0MnWmB.s 			page 14


 139:..\..\..\lvgl\version_6.1.2\lvgl\src\lv_objx/lv_sw.c **** #endif
 140:..\..\..\lvgl\version_6.1.2\lvgl\src\lv_objx/lv_sw.c ****     lv_sw_ext_t * ext = lv_obj_get_ext_attr(sw);
 379              		.loc 3 140 0
 380 000c 7868     		ldr	r0, [r7, #4]
 381 000e FFF7FEFF 		bl	lv_obj_get_ext_attr
 382 0012 F860     		str	r0, [r7, #12]
 141:..\..\..\lvgl\version_6.1.2\lvgl\src\lv_objx/lv_sw.c ****     lv_slider_set_value(sw, LV_SW_MAX_VALUE, anim);
 383              		.loc 3 141 0
 384 0014 FB78     		ldrb	r3, [r7, #3]	@ zero_extendqisi2
 385 0016 1A46     		mov	r2, r3
 386 0018 6421     		movs	r1, #100
 387 001a 7868     		ldr	r0, [r7, #4]
 388 001c FFF7FEFF 		bl	lv_slider_set_value
 142:..\..\..\lvgl\version_6.1.2\lvgl\src\lv_objx/lv_sw.c ****     lv_slider_set_style(sw, LV_SLIDER_STYLE_KNOB, ext->style_knob_on);
 389              		.loc 3 142 0
 390 0020 FB68     		ldr	r3, [r7, #12]
 391 0022 1B6A     		ldr	r3, [r3, #32]
 392 0024 1A46     		mov	r2, r3
 393 0026 0221     		movs	r1, #2
 394 0028 7868     		ldr	r0, [r7, #4]
 395 002a FFF7FEFF 		bl	lv_slider_set_style
 143:..\..\..\lvgl\version_6.1.2\lvgl\src\lv_objx/lv_sw.c **** }
 396              		.loc 3 143 0
 397 002e 00BF     		nop
 398 0030 1037     		adds	r7, r7, #16
 399              		.cfi_def_cfa_offset 8
 400 0032 BD46     		mov	sp, r7
 401              		.cfi_def_cfa_register 13
 402              		@ sp needed
 403 0034 80BD     		pop	{r7, pc}
 404              		.cfi_endproc
 405              	.LFE56:
 406              		.size	lv_sw_on, .-lv_sw_on
 407 0036 00BF     		.section	.text.lv_sw_off,"ax",%progbits
 408              		.align	2
 409              		.global	lv_sw_off
 410              		.thumb
 411              		.thumb_func
 412              		.type	lv_sw_off, %function
 413              	lv_sw_off:
 414              	.LFB57:
 144:..\..\..\lvgl\version_6.1.2\lvgl\src\lv_objx/lv_sw.c **** 
 145:..\..\..\lvgl\version_6.1.2\lvgl\src\lv_objx/lv_sw.c **** /**
 146:..\..\..\lvgl\version_6.1.2\lvgl\src\lv_objx/lv_sw.c ****  * Turn OFF the switch
 147:..\..\..\lvgl\version_6.1.2\lvgl\src\lv_objx/lv_sw.c ****  * @param sw pointer to a switch object
 148:..\..\..\lvgl\version_6.1.2\lvgl\src\lv_objx/lv_sw.c ****  * @param anim LV_ANIM_ON: set the value with an animation; LV_ANIM_OFF: change the value immediate
 149:..\..\..\lvgl\version_6.1.2\lvgl\src\lv_objx/lv_sw.c ****  */
 150:..\..\..\lvgl\version_6.1.2\lvgl\src\lv_objx/lv_sw.c **** void lv_sw_off(lv_obj_t * sw, lv_anim_enable_t anim)
 151:..\..\..\lvgl\version_6.1.2\lvgl\src\lv_objx/lv_sw.c **** {
 415              		.loc 3 151 0
 416              		.cfi_startproc
 417              		@ args = 0, pretend = 0, frame = 16
 418              		@ frame_needed = 1, uses_anonymous_args = 0
 419 0000 80B5     		push	{r7, lr}
 420              		.cfi_def_cfa_offset 8
 421              		.cfi_offset 7, -8
 422              		.cfi_offset 14, -4
ARM GAS  C:\Users\tmj32\AppData\Local\Temp\cc0MnWmB.s 			page 15


 423 0002 84B0     		sub	sp, sp, #16
 424              		.cfi_def_cfa_offset 24
 425 0004 00AF     		add	r7, sp, #0
 426              		.cfi_def_cfa_register 7
 427 0006 7860     		str	r0, [r7, #4]
 428 0008 0B46     		mov	r3, r1
 429 000a FB70     		strb	r3, [r7, #3]
 152:..\..\..\lvgl\version_6.1.2\lvgl\src\lv_objx/lv_sw.c ****     LV_ASSERT_OBJ(sw, LV_OBJX_NAME);
 153:..\..\..\lvgl\version_6.1.2\lvgl\src\lv_objx/lv_sw.c **** 
 154:..\..\..\lvgl\version_6.1.2\lvgl\src\lv_objx/lv_sw.c **** #if LV_USE_ANIMATION == 0
 155:..\..\..\lvgl\version_6.1.2\lvgl\src\lv_objx/lv_sw.c ****     anim = LV_ANIM_OFF;
 156:..\..\..\lvgl\version_6.1.2\lvgl\src\lv_objx/lv_sw.c **** #endif
 157:..\..\..\lvgl\version_6.1.2\lvgl\src\lv_objx/lv_sw.c ****     lv_sw_ext_t * ext = lv_obj_get_ext_attr(sw);
 430              		.loc 3 157 0
 431 000c 7868     		ldr	r0, [r7, #4]
 432 000e FFF7FEFF 		bl	lv_obj_get_ext_attr
 433 0012 F860     		str	r0, [r7, #12]
 158:..\..\..\lvgl\version_6.1.2\lvgl\src\lv_objx/lv_sw.c ****     lv_slider_set_value(sw, 0, anim);
 434              		.loc 3 158 0
 435 0014 FB78     		ldrb	r3, [r7, #3]	@ zero_extendqisi2
 436 0016 1A46     		mov	r2, r3
 437 0018 0021     		movs	r1, #0
 438 001a 7868     		ldr	r0, [r7, #4]
 439 001c FFF7FEFF 		bl	lv_slider_set_value
 159:..\..\..\lvgl\version_6.1.2\lvgl\src\lv_objx/lv_sw.c ****     lv_slider_set_style(sw, LV_SLIDER_STYLE_KNOB, ext->style_knob_off);
 440              		.loc 3 159 0
 441 0020 FB68     		ldr	r3, [r7, #12]
 442 0022 DB69     		ldr	r3, [r3, #28]
 443 0024 1A46     		mov	r2, r3
 444 0026 0221     		movs	r1, #2
 445 0028 7868     		ldr	r0, [r7, #4]
 446 002a FFF7FEFF 		bl	lv_slider_set_style
 160:..\..\..\lvgl\version_6.1.2\lvgl\src\lv_objx/lv_sw.c **** }
 447              		.loc 3 160 0
 448 002e 00BF     		nop
 449 0030 1037     		adds	r7, r7, #16
 450              		.cfi_def_cfa_offset 8
 451 0032 BD46     		mov	sp, r7
 452              		.cfi_def_cfa_register 13
 453              		@ sp needed
 454 0034 80BD     		pop	{r7, pc}
 455              		.cfi_endproc
 456              	.LFE57:
 457              		.size	lv_sw_off, .-lv_sw_off
 458 0036 00BF     		.section	.text.lv_sw_toggle,"ax",%progbits
 459              		.align	2
 460              		.global	lv_sw_toggle
 461              		.thumb
 462              		.thumb_func
 463              		.type	lv_sw_toggle, %function
 464              	lv_sw_toggle:
 465              	.LFB58:
 161:..\..\..\lvgl\version_6.1.2\lvgl\src\lv_objx/lv_sw.c **** 
 162:..\..\..\lvgl\version_6.1.2\lvgl\src\lv_objx/lv_sw.c **** /**
 163:..\..\..\lvgl\version_6.1.2\lvgl\src\lv_objx/lv_sw.c ****  * Toggle the position of the switch
 164:..\..\..\lvgl\version_6.1.2\lvgl\src\lv_objx/lv_sw.c ****  * @param sw pointer to a switch object
 165:..\..\..\lvgl\version_6.1.2\lvgl\src\lv_objx/lv_sw.c ****  * @param anim LV_ANIM_ON: set the value with an animation; LV_ANIM_OFF: change the value immediate
ARM GAS  C:\Users\tmj32\AppData\Local\Temp\cc0MnWmB.s 			page 16


 166:..\..\..\lvgl\version_6.1.2\lvgl\src\lv_objx/lv_sw.c ****  * @return resulting state of the switch.
 167:..\..\..\lvgl\version_6.1.2\lvgl\src\lv_objx/lv_sw.c ****  */
 168:..\..\..\lvgl\version_6.1.2\lvgl\src\lv_objx/lv_sw.c **** bool lv_sw_toggle(lv_obj_t * sw, lv_anim_enable_t anim)
 169:..\..\..\lvgl\version_6.1.2\lvgl\src\lv_objx/lv_sw.c **** {
 466              		.loc 3 169 0
 467              		.cfi_startproc
 468              		@ args = 0, pretend = 0, frame = 16
 469              		@ frame_needed = 1, uses_anonymous_args = 0
 470 0000 80B5     		push	{r7, lr}
 471              		.cfi_def_cfa_offset 8
 472              		.cfi_offset 7, -8
 473              		.cfi_offset 14, -4
 474 0002 84B0     		sub	sp, sp, #16
 475              		.cfi_def_cfa_offset 24
 476 0004 00AF     		add	r7, sp, #0
 477              		.cfi_def_cfa_register 7
 478 0006 7860     		str	r0, [r7, #4]
 479 0008 0B46     		mov	r3, r1
 480 000a FB70     		strb	r3, [r7, #3]
 170:..\..\..\lvgl\version_6.1.2\lvgl\src\lv_objx/lv_sw.c ****     LV_ASSERT_OBJ(sw, LV_OBJX_NAME);
 171:..\..\..\lvgl\version_6.1.2\lvgl\src\lv_objx/lv_sw.c **** 
 172:..\..\..\lvgl\version_6.1.2\lvgl\src\lv_objx/lv_sw.c **** #if LV_USE_ANIMATION == 0
 173:..\..\..\lvgl\version_6.1.2\lvgl\src\lv_objx/lv_sw.c ****     anim = LV_ANIM_OFF;
 174:..\..\..\lvgl\version_6.1.2\lvgl\src\lv_objx/lv_sw.c **** #endif
 175:..\..\..\lvgl\version_6.1.2\lvgl\src\lv_objx/lv_sw.c **** 
 176:..\..\..\lvgl\version_6.1.2\lvgl\src\lv_objx/lv_sw.c ****     bool state = lv_sw_get_state(sw);
 481              		.loc 3 176 0
 482 000c 7868     		ldr	r0, [r7, #4]
 483 000e FFF7FEFF 		bl	lv_sw_get_state
 484 0012 0346     		mov	r3, r0
 485 0014 FB73     		strb	r3, [r7, #15]
 177:..\..\..\lvgl\version_6.1.2\lvgl\src\lv_objx/lv_sw.c ****     if(state)
 486              		.loc 3 177 0
 487 0016 FB7B     		ldrb	r3, [r7, #15]	@ zero_extendqisi2
 488 0018 002B     		cmp	r3, #0
 489 001a 05D0     		beq	.L20
 178:..\..\..\lvgl\version_6.1.2\lvgl\src\lv_objx/lv_sw.c ****         lv_sw_off(sw, anim);
 490              		.loc 3 178 0
 491 001c FB78     		ldrb	r3, [r7, #3]	@ zero_extendqisi2
 492 001e 1946     		mov	r1, r3
 493 0020 7868     		ldr	r0, [r7, #4]
 494 0022 FFF7FEFF 		bl	lv_sw_off
 495 0026 04E0     		b	.L21
 496              	.L20:
 179:..\..\..\lvgl\version_6.1.2\lvgl\src\lv_objx/lv_sw.c ****     else
 180:..\..\..\lvgl\version_6.1.2\lvgl\src\lv_objx/lv_sw.c ****         lv_sw_on(sw, anim);
 497              		.loc 3 180 0
 498 0028 FB78     		ldrb	r3, [r7, #3]	@ zero_extendqisi2
 499 002a 1946     		mov	r1, r3
 500 002c 7868     		ldr	r0, [r7, #4]
 501 002e FFF7FEFF 		bl	lv_sw_on
 502              	.L21:
 181:..\..\..\lvgl\version_6.1.2\lvgl\src\lv_objx/lv_sw.c **** 
 182:..\..\..\lvgl\version_6.1.2\lvgl\src\lv_objx/lv_sw.c ****     return !state;
 503              		.loc 3 182 0
 504 0032 FB7B     		ldrb	r3, [r7, #15]	@ zero_extendqisi2
 505 0034 002B     		cmp	r3, #0
ARM GAS  C:\Users\tmj32\AppData\Local\Temp\cc0MnWmB.s 			page 17


 506 0036 14BF     		ite	ne
 507 0038 0123     		movne	r3, #1
 508 003a 0023     		moveq	r3, #0
 509 003c DBB2     		uxtb	r3, r3
 510 003e 83F00103 		eor	r3, r3, #1
 511 0042 DBB2     		uxtb	r3, r3
 512 0044 03F00103 		and	r3, r3, #1
 513 0048 DBB2     		uxtb	r3, r3
 183:..\..\..\lvgl\version_6.1.2\lvgl\src\lv_objx/lv_sw.c **** }
 514              		.loc 3 183 0
 515 004a 1846     		mov	r0, r3
 516 004c 1037     		adds	r7, r7, #16
 517              		.cfi_def_cfa_offset 8
 518 004e BD46     		mov	sp, r7
 519              		.cfi_def_cfa_register 13
 520              		@ sp needed
 521 0050 80BD     		pop	{r7, pc}
 522              		.cfi_endproc
 523              	.LFE58:
 524              		.size	lv_sw_toggle, .-lv_sw_toggle
 525 0052 00BF     		.section	.text.lv_sw_set_style,"ax",%progbits
 526              		.align	2
 527              		.global	lv_sw_set_style
 528              		.thumb
 529              		.thumb_func
 530              		.type	lv_sw_set_style, %function
 531              	lv_sw_set_style:
 532              	.LFB59:
 184:..\..\..\lvgl\version_6.1.2\lvgl\src\lv_objx/lv_sw.c **** 
 185:..\..\..\lvgl\version_6.1.2\lvgl\src\lv_objx/lv_sw.c **** /**
 186:..\..\..\lvgl\version_6.1.2\lvgl\src\lv_objx/lv_sw.c ****  * Set a style of a switch
 187:..\..\..\lvgl\version_6.1.2\lvgl\src\lv_objx/lv_sw.c ****  * @param sw pointer to a switch object
 188:..\..\..\lvgl\version_6.1.2\lvgl\src\lv_objx/lv_sw.c ****  * @param type which style should be set
 189:..\..\..\lvgl\version_6.1.2\lvgl\src\lv_objx/lv_sw.c ****  * @param style pointer to a style
 190:..\..\..\lvgl\version_6.1.2\lvgl\src\lv_objx/lv_sw.c ****  */
 191:..\..\..\lvgl\version_6.1.2\lvgl\src\lv_objx/lv_sw.c **** void lv_sw_set_style(lv_obj_t * sw, lv_sw_style_t type, const lv_style_t * style)
 192:..\..\..\lvgl\version_6.1.2\lvgl\src\lv_objx/lv_sw.c **** {
 533              		.loc 3 192 0
 534              		.cfi_startproc
 535              		@ args = 0, pretend = 0, frame = 24
 536              		@ frame_needed = 1, uses_anonymous_args = 0
 537 0000 80B5     		push	{r7, lr}
 538              		.cfi_def_cfa_offset 8
 539              		.cfi_offset 7, -8
 540              		.cfi_offset 14, -4
 541 0002 86B0     		sub	sp, sp, #24
 542              		.cfi_def_cfa_offset 32
 543 0004 00AF     		add	r7, sp, #0
 544              		.cfi_def_cfa_register 7
 545 0006 F860     		str	r0, [r7, #12]
 546 0008 0B46     		mov	r3, r1
 547 000a 7A60     		str	r2, [r7, #4]
 548 000c FB72     		strb	r3, [r7, #11]
 193:..\..\..\lvgl\version_6.1.2\lvgl\src\lv_objx/lv_sw.c ****     LV_ASSERT_OBJ(sw, LV_OBJX_NAME);
 194:..\..\..\lvgl\version_6.1.2\lvgl\src\lv_objx/lv_sw.c **** 
 195:..\..\..\lvgl\version_6.1.2\lvgl\src\lv_objx/lv_sw.c ****     lv_sw_ext_t * ext = lv_obj_get_ext_attr(sw);
 549              		.loc 3 195 0
ARM GAS  C:\Users\tmj32\AppData\Local\Temp\cc0MnWmB.s 			page 18


 550 000e F868     		ldr	r0, [r7, #12]
 551 0010 FFF7FEFF 		bl	lv_obj_get_ext_attr
 552 0014 7861     		str	r0, [r7, #20]
 196:..\..\..\lvgl\version_6.1.2\lvgl\src\lv_objx/lv_sw.c **** 
 197:..\..\..\lvgl\version_6.1.2\lvgl\src\lv_objx/lv_sw.c ****     switch(type) {
 553              		.loc 3 197 0
 554 0016 FB7A     		ldrb	r3, [r7, #11]	@ zero_extendqisi2
 555 0018 032B     		cmp	r3, #3
 556 001a 3BD8     		bhi	.L32
 557 001c 01A2     		adr	r2, .L26
 558 001e 52F823F0 		ldr	pc, [r2, r3, lsl #2]
 559 0022 00BF     		.p2align 2
 560              	.L26:
 561 0024 35000000 		.word	.L25+1
 562 0028 41000000 		.word	.L27+1
 563 002c 4D000000 		.word	.L28+1
 564 0030 71000000 		.word	.L29+1
 565              		.p2align 1
 566              	.L25:
 198:..\..\..\lvgl\version_6.1.2\lvgl\src\lv_objx/lv_sw.c ****         case LV_SLIDER_STYLE_BG: lv_slider_set_style(sw, LV_SLIDER_STYLE_BG, style); break;
 567              		.loc 3 198 0
 568 0034 7A68     		ldr	r2, [r7, #4]
 569 0036 0021     		movs	r1, #0
 570 0038 F868     		ldr	r0, [r7, #12]
 571 003a FFF7FEFF 		bl	lv_slider_set_style
 572 003e 29E0     		b	.L24
 573              	.L27:
 199:..\..\..\lvgl\version_6.1.2\lvgl\src\lv_objx/lv_sw.c ****         case LV_SLIDER_STYLE_INDIC: lv_bar_set_style(sw, LV_SLIDER_STYLE_INDIC, style); break;
 574              		.loc 3 199 0
 575 0040 7A68     		ldr	r2, [r7, #4]
 576 0042 0121     		movs	r1, #1
 577 0044 F868     		ldr	r0, [r7, #12]
 578 0046 FFF7FEFF 		bl	lv_bar_set_style
 579 004a 23E0     		b	.L24
 580              	.L28:
 200:..\..\..\lvgl\version_6.1.2\lvgl\src\lv_objx/lv_sw.c ****         case LV_SW_STYLE_KNOB_OFF:
 201:..\..\..\lvgl\version_6.1.2\lvgl\src\lv_objx/lv_sw.c ****             ext->style_knob_off = style;
 581              		.loc 3 201 0
 582 004c 7B69     		ldr	r3, [r7, #20]
 583 004e 7A68     		ldr	r2, [r7, #4]
 584 0050 DA61     		str	r2, [r3, #28]
 202:..\..\..\lvgl\version_6.1.2\lvgl\src\lv_objx/lv_sw.c ****             if(lv_sw_get_state(sw) == 0) lv_slider_set_style(sw, LV_SLIDER_STYLE_KNOB, style);
 585              		.loc 3 202 0
 586 0052 F868     		ldr	r0, [r7, #12]
 587 0054 FFF7FEFF 		bl	lv_sw_get_state
 588 0058 0346     		mov	r3, r0
 589 005a 83F00103 		eor	r3, r3, #1
 590 005e DBB2     		uxtb	r3, r3
 591 0060 002B     		cmp	r3, #0
 592 0062 14D0     		beq	.L33
 593              		.loc 3 202 0 is_stmt 0 discriminator 1
 594 0064 7A68     		ldr	r2, [r7, #4]
 595 0066 0221     		movs	r1, #2
 596 0068 F868     		ldr	r0, [r7, #12]
 597 006a FFF7FEFF 		bl	lv_slider_set_style
 203:..\..\..\lvgl\version_6.1.2\lvgl\src\lv_objx/lv_sw.c ****             break;
 598              		.loc 3 203 0 is_stmt 1 discriminator 1
ARM GAS  C:\Users\tmj32\AppData\Local\Temp\cc0MnWmB.s 			page 19


 599 006e 0EE0     		b	.L33
 600              	.L29:
 204:..\..\..\lvgl\version_6.1.2\lvgl\src\lv_objx/lv_sw.c ****         case LV_SW_STYLE_KNOB_ON:
 205:..\..\..\lvgl\version_6.1.2\lvgl\src\lv_objx/lv_sw.c ****             ext->style_knob_on = style;
 601              		.loc 3 205 0
 602 0070 7B69     		ldr	r3, [r7, #20]
 603 0072 7A68     		ldr	r2, [r7, #4]
 604 0074 1A62     		str	r2, [r3, #32]
 206:..\..\..\lvgl\version_6.1.2\lvgl\src\lv_objx/lv_sw.c ****             if(lv_sw_get_state(sw) != 0) lv_slider_set_style(sw, LV_SLIDER_STYLE_KNOB, style);
 605              		.loc 3 206 0
 606 0076 F868     		ldr	r0, [r7, #12]
 607 0078 FFF7FEFF 		bl	lv_sw_get_state
 608 007c 0346     		mov	r3, r0
 609 007e 002B     		cmp	r3, #0
 610 0080 07D0     		beq	.L34
 611              		.loc 3 206 0 is_stmt 0 discriminator 1
 612 0082 7A68     		ldr	r2, [r7, #4]
 613 0084 0221     		movs	r1, #2
 614 0086 F868     		ldr	r0, [r7, #12]
 615 0088 FFF7FEFF 		bl	lv_slider_set_style
 207:..\..\..\lvgl\version_6.1.2\lvgl\src\lv_objx/lv_sw.c ****             break;
 616              		.loc 3 207 0 is_stmt 1 discriminator 1
 617 008c 01E0     		b	.L34
 618              	.L33:
 203:..\..\..\lvgl\version_6.1.2\lvgl\src\lv_objx/lv_sw.c ****         case LV_SW_STYLE_KNOB_ON:
 619              		.loc 3 203 0
 620 008e 00BF     		nop
 621 0090 00E0     		b	.L32
 622              	.L34:
 623              		.loc 3 207 0
 624 0092 00BF     		nop
 625              	.L24:
 626              	.L32:
 208:..\..\..\lvgl\version_6.1.2\lvgl\src\lv_objx/lv_sw.c ****     }
 209:..\..\..\lvgl\version_6.1.2\lvgl\src\lv_objx/lv_sw.c **** }
 627              		.loc 3 209 0
 628 0094 00BF     		nop
 629 0096 1837     		adds	r7, r7, #24
 630              		.cfi_def_cfa_offset 8
 631 0098 BD46     		mov	sp, r7
 632              		.cfi_def_cfa_register 13
 633              		@ sp needed
 634 009a 80BD     		pop	{r7, pc}
 635              		.cfi_endproc
 636              	.LFE59:
 637              		.size	lv_sw_set_style, .-lv_sw_set_style
 638              		.section	.text.lv_sw_set_anim_time,"ax",%progbits
 639              		.align	2
 640              		.global	lv_sw_set_anim_time
 641              		.thumb
 642              		.thumb_func
 643              		.type	lv_sw_set_anim_time, %function
 644              	lv_sw_set_anim_time:
 645              	.LFB60:
 210:..\..\..\lvgl\version_6.1.2\lvgl\src\lv_objx/lv_sw.c **** 
 211:..\..\..\lvgl\version_6.1.2\lvgl\src\lv_objx/lv_sw.c **** void lv_sw_set_anim_time(lv_obj_t * sw, uint16_t anim_time)
 212:..\..\..\lvgl\version_6.1.2\lvgl\src\lv_objx/lv_sw.c **** {
ARM GAS  C:\Users\tmj32\AppData\Local\Temp\cc0MnWmB.s 			page 20


 646              		.loc 3 212 0
 647              		.cfi_startproc
 648              		@ args = 0, pretend = 0, frame = 16
 649              		@ frame_needed = 1, uses_anonymous_args = 0
 650 0000 80B5     		push	{r7, lr}
 651              		.cfi_def_cfa_offset 8
 652              		.cfi_offset 7, -8
 653              		.cfi_offset 14, -4
 654 0002 84B0     		sub	sp, sp, #16
 655              		.cfi_def_cfa_offset 24
 656 0004 00AF     		add	r7, sp, #0
 657              		.cfi_def_cfa_register 7
 658 0006 7860     		str	r0, [r7, #4]
 659 0008 0B46     		mov	r3, r1
 660 000a 7B80     		strh	r3, [r7, #2]	@ movhi
 213:..\..\..\lvgl\version_6.1.2\lvgl\src\lv_objx/lv_sw.c ****     LV_ASSERT_OBJ(sw, LV_OBJX_NAME);
 214:..\..\..\lvgl\version_6.1.2\lvgl\src\lv_objx/lv_sw.c **** 
 215:..\..\..\lvgl\version_6.1.2\lvgl\src\lv_objx/lv_sw.c **** #if LV_USE_ANIMATION
 216:..\..\..\lvgl\version_6.1.2\lvgl\src\lv_objx/lv_sw.c ****     lv_sw_ext_t * ext = lv_obj_get_ext_attr(sw);
 661              		.loc 3 216 0
 662 000c 7868     		ldr	r0, [r7, #4]
 663 000e FFF7FEFF 		bl	lv_obj_get_ext_attr
 664 0012 F860     		str	r0, [r7, #12]
 217:..\..\..\lvgl\version_6.1.2\lvgl\src\lv_objx/lv_sw.c ****     ext->anim_time    = anim_time;
 665              		.loc 3 217 0
 666 0014 FB68     		ldr	r3, [r7, #12]
 667 0016 7A88     		ldrh	r2, [r7, #2]	@ movhi
 668 0018 1A85     		strh	r2, [r3, #40]	@ movhi
 218:..\..\..\lvgl\version_6.1.2\lvgl\src\lv_objx/lv_sw.c **** #else
 219:..\..\..\lvgl\version_6.1.2\lvgl\src\lv_objx/lv_sw.c ****     (void)sw;
 220:..\..\..\lvgl\version_6.1.2\lvgl\src\lv_objx/lv_sw.c ****     (void)anim_time;
 221:..\..\..\lvgl\version_6.1.2\lvgl\src\lv_objx/lv_sw.c **** #endif
 222:..\..\..\lvgl\version_6.1.2\lvgl\src\lv_objx/lv_sw.c **** }
 669              		.loc 3 222 0
 670 001a 00BF     		nop
 671 001c 1037     		adds	r7, r7, #16
 672              		.cfi_def_cfa_offset 8
 673 001e BD46     		mov	sp, r7
 674              		.cfi_def_cfa_register 13
 675              		@ sp needed
 676 0020 80BD     		pop	{r7, pc}
 677              		.cfi_endproc
 678              	.LFE60:
 679              		.size	lv_sw_set_anim_time, .-lv_sw_set_anim_time
 680 0022 00BF     		.section	.text.lv_sw_get_style,"ax",%progbits
 681              		.align	2
 682              		.global	lv_sw_get_style
 683              		.thumb
 684              		.thumb_func
 685              		.type	lv_sw_get_style, %function
 686              	lv_sw_get_style:
 687              	.LFB61:
 223:..\..\..\lvgl\version_6.1.2\lvgl\src\lv_objx/lv_sw.c **** 
 224:..\..\..\lvgl\version_6.1.2\lvgl\src\lv_objx/lv_sw.c **** /*=====================
 225:..\..\..\lvgl\version_6.1.2\lvgl\src\lv_objx/lv_sw.c ****  * Getter functions
 226:..\..\..\lvgl\version_6.1.2\lvgl\src\lv_objx/lv_sw.c ****  *====================*/
 227:..\..\..\lvgl\version_6.1.2\lvgl\src\lv_objx/lv_sw.c **** 
ARM GAS  C:\Users\tmj32\AppData\Local\Temp\cc0MnWmB.s 			page 21


 228:..\..\..\lvgl\version_6.1.2\lvgl\src\lv_objx/lv_sw.c **** /**
 229:..\..\..\lvgl\version_6.1.2\lvgl\src\lv_objx/lv_sw.c ****  * Get a style of a switch
 230:..\..\..\lvgl\version_6.1.2\lvgl\src\lv_objx/lv_sw.c ****  * @param sw pointer to a  switch object
 231:..\..\..\lvgl\version_6.1.2\lvgl\src\lv_objx/lv_sw.c ****  * @param type which style should be get
 232:..\..\..\lvgl\version_6.1.2\lvgl\src\lv_objx/lv_sw.c ****  * @return style pointer to a style
 233:..\..\..\lvgl\version_6.1.2\lvgl\src\lv_objx/lv_sw.c ****  */
 234:..\..\..\lvgl\version_6.1.2\lvgl\src\lv_objx/lv_sw.c **** const lv_style_t * lv_sw_get_style(const lv_obj_t * sw, lv_sw_style_t type)
 235:..\..\..\lvgl\version_6.1.2\lvgl\src\lv_objx/lv_sw.c **** {
 688              		.loc 3 235 0
 689              		.cfi_startproc
 690              		@ args = 0, pretend = 0, frame = 16
 691              		@ frame_needed = 1, uses_anonymous_args = 0
 692 0000 80B5     		push	{r7, lr}
 693              		.cfi_def_cfa_offset 8
 694              		.cfi_offset 7, -8
 695              		.cfi_offset 14, -4
 696 0002 84B0     		sub	sp, sp, #16
 697              		.cfi_def_cfa_offset 24
 698 0004 00AF     		add	r7, sp, #0
 699              		.cfi_def_cfa_register 7
 700 0006 7860     		str	r0, [r7, #4]
 701 0008 0B46     		mov	r3, r1
 702 000a FB70     		strb	r3, [r7, #3]
 236:..\..\..\lvgl\version_6.1.2\lvgl\src\lv_objx/lv_sw.c ****     LV_ASSERT_OBJ(sw, LV_OBJX_NAME);
 237:..\..\..\lvgl\version_6.1.2\lvgl\src\lv_objx/lv_sw.c **** 
 238:..\..\..\lvgl\version_6.1.2\lvgl\src\lv_objx/lv_sw.c ****     const lv_style_t * style = NULL;
 703              		.loc 3 238 0
 704 000c 0023     		movs	r3, #0
 705 000e FB60     		str	r3, [r7, #12]
 239:..\..\..\lvgl\version_6.1.2\lvgl\src\lv_objx/lv_sw.c ****     lv_sw_ext_t * ext        = lv_obj_get_ext_attr(sw);
 706              		.loc 3 239 0
 707 0010 7868     		ldr	r0, [r7, #4]
 708 0012 FFF7FEFF 		bl	lv_obj_get_ext_attr
 709 0016 B860     		str	r0, [r7, #8]
 240:..\..\..\lvgl\version_6.1.2\lvgl\src\lv_objx/lv_sw.c **** 
 241:..\..\..\lvgl\version_6.1.2\lvgl\src\lv_objx/lv_sw.c ****     switch(type) {
 710              		.loc 3 241 0
 711 0018 FB78     		ldrb	r3, [r7, #3]	@ zero_extendqisi2
 712 001a 032B     		cmp	r3, #3
 713 001c 1ED8     		bhi	.L37
 714 001e 01A2     		adr	r2, .L39
 715 0020 52F823F0 		ldr	pc, [r2, r3, lsl #2]
 716              		.p2align 2
 717              	.L39:
 718 0024 35000000 		.word	.L38+1
 719 0028 41000000 		.word	.L40+1
 720 002c 4D000000 		.word	.L41+1
 721 0030 55000000 		.word	.L42+1
 722              		.p2align 1
 723              	.L38:
 242:..\..\..\lvgl\version_6.1.2\lvgl\src\lv_objx/lv_sw.c ****         case LV_SW_STYLE_BG: style = lv_slider_get_style(sw, LV_SLIDER_STYLE_BG); break;
 724              		.loc 3 242 0
 725 0034 0021     		movs	r1, #0
 726 0036 7868     		ldr	r0, [r7, #4]
 727 0038 FFF7FEFF 		bl	lv_slider_get_style
 728 003c F860     		str	r0, [r7, #12]
 729 003e 10E0     		b	.L43
ARM GAS  C:\Users\tmj32\AppData\Local\Temp\cc0MnWmB.s 			page 22


 730              	.L40:
 243:..\..\..\lvgl\version_6.1.2\lvgl\src\lv_objx/lv_sw.c ****         case LV_SW_STYLE_INDIC: style = lv_slider_get_style(sw, LV_SLIDER_STYLE_INDIC); break;
 731              		.loc 3 243 0
 732 0040 0121     		movs	r1, #1
 733 0042 7868     		ldr	r0, [r7, #4]
 734 0044 FFF7FEFF 		bl	lv_slider_get_style
 735 0048 F860     		str	r0, [r7, #12]
 736 004a 0AE0     		b	.L43
 737              	.L41:
 244:..\..\..\lvgl\version_6.1.2\lvgl\src\lv_objx/lv_sw.c ****         case LV_SW_STYLE_KNOB_OFF: style = ext->style_knob_off; break;
 738              		.loc 3 244 0
 739 004c BB68     		ldr	r3, [r7, #8]
 740 004e DB69     		ldr	r3, [r3, #28]
 741 0050 FB60     		str	r3, [r7, #12]
 742 0052 06E0     		b	.L43
 743              	.L42:
 245:..\..\..\lvgl\version_6.1.2\lvgl\src\lv_objx/lv_sw.c ****         case LV_SW_STYLE_KNOB_ON: style = ext->style_knob_on; break;
 744              		.loc 3 245 0
 745 0054 BB68     		ldr	r3, [r7, #8]
 746 0056 1B6A     		ldr	r3, [r3, #32]
 747 0058 FB60     		str	r3, [r7, #12]
 748 005a 02E0     		b	.L43
 749              	.L37:
 246:..\..\..\lvgl\version_6.1.2\lvgl\src\lv_objx/lv_sw.c ****         default: style = NULL; break;
 750              		.loc 3 246 0
 751 005c 0023     		movs	r3, #0
 752 005e FB60     		str	r3, [r7, #12]
 753 0060 00BF     		nop
 754              	.L43:
 247:..\..\..\lvgl\version_6.1.2\lvgl\src\lv_objx/lv_sw.c ****     }
 248:..\..\..\lvgl\version_6.1.2\lvgl\src\lv_objx/lv_sw.c **** 
 249:..\..\..\lvgl\version_6.1.2\lvgl\src\lv_objx/lv_sw.c ****     return style;
 755              		.loc 3 249 0
 756 0062 FB68     		ldr	r3, [r7, #12]
 250:..\..\..\lvgl\version_6.1.2\lvgl\src\lv_objx/lv_sw.c **** }
 757              		.loc 3 250 0
 758 0064 1846     		mov	r0, r3
 759 0066 1037     		adds	r7, r7, #16
 760              		.cfi_def_cfa_offset 8
 761 0068 BD46     		mov	sp, r7
 762              		.cfi_def_cfa_register 13
 763              		@ sp needed
 764 006a 80BD     		pop	{r7, pc}
 765              		.cfi_endproc
 766              	.LFE61:
 767              		.size	lv_sw_get_style, .-lv_sw_get_style
 768              		.section	.text.lv_sw_get_anim_time,"ax",%progbits
 769              		.align	2
 770              		.global	lv_sw_get_anim_time
 771              		.thumb
 772              		.thumb_func
 773              		.type	lv_sw_get_anim_time, %function
 774              	lv_sw_get_anim_time:
 775              	.LFB62:
 251:..\..\..\lvgl\version_6.1.2\lvgl\src\lv_objx/lv_sw.c **** 
 252:..\..\..\lvgl\version_6.1.2\lvgl\src\lv_objx/lv_sw.c **** uint16_t lv_sw_get_anim_time(const lv_obj_t * sw)
 253:..\..\..\lvgl\version_6.1.2\lvgl\src\lv_objx/lv_sw.c **** {
ARM GAS  C:\Users\tmj32\AppData\Local\Temp\cc0MnWmB.s 			page 23


 776              		.loc 3 253 0
 777              		.cfi_startproc
 778              		@ args = 0, pretend = 0, frame = 16
 779              		@ frame_needed = 1, uses_anonymous_args = 0
 780 0000 80B5     		push	{r7, lr}
 781              		.cfi_def_cfa_offset 8
 782              		.cfi_offset 7, -8
 783              		.cfi_offset 14, -4
 784 0002 84B0     		sub	sp, sp, #16
 785              		.cfi_def_cfa_offset 24
 786 0004 00AF     		add	r7, sp, #0
 787              		.cfi_def_cfa_register 7
 788 0006 7860     		str	r0, [r7, #4]
 254:..\..\..\lvgl\version_6.1.2\lvgl\src\lv_objx/lv_sw.c ****     LV_ASSERT_OBJ(sw, LV_OBJX_NAME);
 255:..\..\..\lvgl\version_6.1.2\lvgl\src\lv_objx/lv_sw.c **** 
 256:..\..\..\lvgl\version_6.1.2\lvgl\src\lv_objx/lv_sw.c **** #if LV_USE_ANIMATION
 257:..\..\..\lvgl\version_6.1.2\lvgl\src\lv_objx/lv_sw.c ****     lv_sw_ext_t * ext = lv_obj_get_ext_attr(sw);
 789              		.loc 3 257 0
 790 0008 7868     		ldr	r0, [r7, #4]
 791 000a FFF7FEFF 		bl	lv_obj_get_ext_attr
 792 000e F860     		str	r0, [r7, #12]
 258:..\..\..\lvgl\version_6.1.2\lvgl\src\lv_objx/lv_sw.c ****     return ext->anim_time;
 793              		.loc 3 258 0
 794 0010 FB68     		ldr	r3, [r7, #12]
 795 0012 1B8D     		ldrh	r3, [r3, #40]
 259:..\..\..\lvgl\version_6.1.2\lvgl\src\lv_objx/lv_sw.c **** #else
 260:..\..\..\lvgl\version_6.1.2\lvgl\src\lv_objx/lv_sw.c ****     (void)sw; /*Unused*/
 261:..\..\..\lvgl\version_6.1.2\lvgl\src\lv_objx/lv_sw.c ****     return 0;
 262:..\..\..\lvgl\version_6.1.2\lvgl\src\lv_objx/lv_sw.c **** #endif
 263:..\..\..\lvgl\version_6.1.2\lvgl\src\lv_objx/lv_sw.c **** }
 796              		.loc 3 263 0
 797 0014 1846     		mov	r0, r3
 798 0016 1037     		adds	r7, r7, #16
 799              		.cfi_def_cfa_offset 8
 800 0018 BD46     		mov	sp, r7
 801              		.cfi_def_cfa_register 13
 802              		@ sp needed
 803 001a 80BD     		pop	{r7, pc}
 804              		.cfi_endproc
 805              	.LFE62:
 806              		.size	lv_sw_get_anim_time, .-lv_sw_get_anim_time
 807              		.section	.rodata
 808              		.align	2
 809              	.LC0:
 810 0000 6C765F73 		.ascii	"lv_sw\000"
 810      7700
 811              		.section	.text.lv_sw_signal,"ax",%progbits
 812              		.align	2
 813              		.thumb
 814              		.thumb_func
 815              		.type	lv_sw_signal, %function
 816              	lv_sw_signal:
 817              	.LFB63:
 264:..\..\..\lvgl\version_6.1.2\lvgl\src\lv_objx/lv_sw.c **** 
 265:..\..\..\lvgl\version_6.1.2\lvgl\src\lv_objx/lv_sw.c **** /**********************
 266:..\..\..\lvgl\version_6.1.2\lvgl\src\lv_objx/lv_sw.c ****  *   STATIC FUNCTIONS
 267:..\..\..\lvgl\version_6.1.2\lvgl\src\lv_objx/lv_sw.c ****  **********************/
ARM GAS  C:\Users\tmj32\AppData\Local\Temp\cc0MnWmB.s 			page 24


 268:..\..\..\lvgl\version_6.1.2\lvgl\src\lv_objx/lv_sw.c **** 
 269:..\..\..\lvgl\version_6.1.2\lvgl\src\lv_objx/lv_sw.c **** /**
 270:..\..\..\lvgl\version_6.1.2\lvgl\src\lv_objx/lv_sw.c ****  * Signal function of the switch
 271:..\..\..\lvgl\version_6.1.2\lvgl\src\lv_objx/lv_sw.c ****  * @param sw pointer to a switch object
 272:..\..\..\lvgl\version_6.1.2\lvgl\src\lv_objx/lv_sw.c ****  * @param sign a signal type from lv_signal_t enum
 273:..\..\..\lvgl\version_6.1.2\lvgl\src\lv_objx/lv_sw.c ****  * @param param pointer to a signal specific variable
 274:..\..\..\lvgl\version_6.1.2\lvgl\src\lv_objx/lv_sw.c ****  * @return LV_RES_OK: the object is not deleted in the function; LV_RES_INV: the object is deleted
 275:..\..\..\lvgl\version_6.1.2\lvgl\src\lv_objx/lv_sw.c ****  */
 276:..\..\..\lvgl\version_6.1.2\lvgl\src\lv_objx/lv_sw.c **** static lv_res_t lv_sw_signal(lv_obj_t * sw, lv_signal_t sign, void * param)
 277:..\..\..\lvgl\version_6.1.2\lvgl\src\lv_objx/lv_sw.c **** {
 818              		.loc 3 277 0
 819              		.cfi_startproc
 820              		@ args = 0, pretend = 0, frame = 72
 821              		@ frame_needed = 1, uses_anonymous_args = 0
 822 0000 80B5     		push	{r7, lr}
 823              		.cfi_def_cfa_offset 8
 824              		.cfi_offset 7, -8
 825              		.cfi_offset 14, -4
 826 0002 92B0     		sub	sp, sp, #72
 827              		.cfi_def_cfa_offset 80
 828 0004 00AF     		add	r7, sp, #0
 829              		.cfi_def_cfa_register 7
 830 0006 F860     		str	r0, [r7, #12]
 831 0008 0B46     		mov	r3, r1
 832 000a 7A60     		str	r2, [r7, #4]
 833 000c FB72     		strb	r3, [r7, #11]
 278:..\..\..\lvgl\version_6.1.2\lvgl\src\lv_objx/lv_sw.c ****     lv_res_t res;
 279:..\..\..\lvgl\version_6.1.2\lvgl\src\lv_objx/lv_sw.c ****     if(sign == LV_SIGNAL_GET_TYPE) {
 834              		.loc 3 279 0
 835 000e FB7A     		ldrb	r3, [r7, #11]	@ zero_extendqisi2
 836 0010 072B     		cmp	r3, #7
 837 0012 15D1     		bne	.L48
 280:..\..\..\lvgl\version_6.1.2\lvgl\src\lv_objx/lv_sw.c ****         res = ancestor_signal(sw, sign, param);
 838              		.loc 3 280 0
 839 0014 BA4B     		ldr	r3, .L83
 840 0016 1B68     		ldr	r3, [r3]
 841 0018 F97A     		ldrb	r1, [r7, #11]	@ zero_extendqisi2
 842 001a 7A68     		ldr	r2, [r7, #4]
 843 001c F868     		ldr	r0, [r7, #12]
 844 001e 9847     		blx	r3
 845 0020 0346     		mov	r3, r0
 846 0022 87F84730 		strb	r3, [r7, #71]
 281:..\..\..\lvgl\version_6.1.2\lvgl\src\lv_objx/lv_sw.c ****         if(res != LV_RES_OK) return res;
 847              		.loc 3 281 0
 848 0026 97F84730 		ldrb	r3, [r7, #71]	@ zero_extendqisi2
 849 002a 012B     		cmp	r3, #1
 850 002c 02D0     		beq	.L49
 851              		.loc 3 281 0 is_stmt 0 discriminator 1
 852 002e 97F84730 		ldrb	r3, [r7, #71]	@ zero_extendqisi2
 853 0032 93E1     		b	.L50
 854              	.L49:
 282:..\..\..\lvgl\version_6.1.2\lvgl\src\lv_objx/lv_sw.c ****         return lv_obj_handle_get_type_signal(param, LV_OBJX_NAME);
 855              		.loc 3 282 0 is_stmt 1
 856 0034 B349     		ldr	r1, .L83+4
 857 0036 7868     		ldr	r0, [r7, #4]
 858 0038 FFF7FEFF 		bl	lv_obj_handle_get_type_signal
 859 003c 0346     		mov	r3, r0
ARM GAS  C:\Users\tmj32\AppData\Local\Temp\cc0MnWmB.s 			page 25


 860 003e 8DE1     		b	.L50
 861              	.L48:
 283:..\..\..\lvgl\version_6.1.2\lvgl\src\lv_objx/lv_sw.c ****     }
 284:..\..\..\lvgl\version_6.1.2\lvgl\src\lv_objx/lv_sw.c **** 
 285:..\..\..\lvgl\version_6.1.2\lvgl\src\lv_objx/lv_sw.c ****     lv_sw_ext_t * ext = lv_obj_get_ext_attr(sw);
 862              		.loc 3 285 0
 863 0040 F868     		ldr	r0, [r7, #12]
 864 0042 FFF7FEFF 		bl	lv_obj_get_ext_attr
 865 0046 3864     		str	r0, [r7, #64]
 286:..\..\..\lvgl\version_6.1.2\lvgl\src\lv_objx/lv_sw.c **** 
 287:..\..\..\lvgl\version_6.1.2\lvgl\src\lv_objx/lv_sw.c ****     /*Save the current (old) value before slider signal modifies it. It will be required in the
 288:..\..\..\lvgl\version_6.1.2\lvgl\src\lv_objx/lv_sw.c ****      * later calculations*/
 289:..\..\..\lvgl\version_6.1.2\lvgl\src\lv_objx/lv_sw.c ****     int16_t old_val;
 290:..\..\..\lvgl\version_6.1.2\lvgl\src\lv_objx/lv_sw.c ****     if(sign == LV_SIGNAL_PRESSING)
 866              		.loc 3 290 0
 867 0048 FB7A     		ldrb	r3, [r7, #11]	@ zero_extendqisi2
 868 004a 092B     		cmp	r3, #9
 869 004c 04D1     		bne	.L51
 291:..\..\..\lvgl\version_6.1.2\lvgl\src\lv_objx/lv_sw.c ****         old_val = ext->slider.drag_value;
 870              		.loc 3 291 0
 871 004e 3B6C     		ldr	r3, [r7, #64]
 872 0050 1B8B     		ldrh	r3, [r3, #24]	@ movhi
 873 0052 A7F84430 		strh	r3, [r7, #68]	@ movhi
 874 0056 05E0     		b	.L52
 875              	.L51:
 292:..\..\..\lvgl\version_6.1.2\lvgl\src\lv_objx/lv_sw.c ****     else
 293:..\..\..\lvgl\version_6.1.2\lvgl\src\lv_objx/lv_sw.c ****         old_val = lv_slider_get_value(sw);
 876              		.loc 3 293 0
 877 0058 F868     		ldr	r0, [r7, #12]
 878 005a FFF7FEFF 		bl	lv_slider_get_value
 879 005e 0346     		mov	r3, r0
 880 0060 A7F84430 		strh	r3, [r7, #68]	@ movhi
 881              	.L52:
 294:..\..\..\lvgl\version_6.1.2\lvgl\src\lv_objx/lv_sw.c **** 
 295:..\..\..\lvgl\version_6.1.2\lvgl\src\lv_objx/lv_sw.c ****     /*Don't let the slider to call the action. Switch handles it differently*/
 296:..\..\..\lvgl\version_6.1.2\lvgl\src\lv_objx/lv_sw.c ****     lv_event_cb_t event_cb = sw->event_cb;
 882              		.loc 3 296 0
 883 0064 FB68     		ldr	r3, [r7, #12]
 884 0066 9B69     		ldr	r3, [r3, #24]
 885 0068 FB63     		str	r3, [r7, #60]
 297:..\..\..\lvgl\version_6.1.2\lvgl\src\lv_objx/lv_sw.c ****     sw->event_cb           = NULL;
 886              		.loc 3 297 0
 887 006a FB68     		ldr	r3, [r7, #12]
 888 006c 0022     		movs	r2, #0
 889 006e 9A61     		str	r2, [r3, #24]
 298:..\..\..\lvgl\version_6.1.2\lvgl\src\lv_objx/lv_sw.c **** 
 299:..\..\..\lvgl\version_6.1.2\lvgl\src\lv_objx/lv_sw.c ****     /* Include the ancient signal function */
 300:..\..\..\lvgl\version_6.1.2\lvgl\src\lv_objx/lv_sw.c ****     res = ancestor_signal(sw, sign, param);
 890              		.loc 3 300 0
 891 0070 A34B     		ldr	r3, .L83
 892 0072 1B68     		ldr	r3, [r3]
 893 0074 F97A     		ldrb	r1, [r7, #11]	@ zero_extendqisi2
 894 0076 7A68     		ldr	r2, [r7, #4]
 895 0078 F868     		ldr	r0, [r7, #12]
 896 007a 9847     		blx	r3
 897 007c 0346     		mov	r3, r0
 898 007e 87F84730 		strb	r3, [r7, #71]
ARM GAS  C:\Users\tmj32\AppData\Local\Temp\cc0MnWmB.s 			page 26


 301:..\..\..\lvgl\version_6.1.2\lvgl\src\lv_objx/lv_sw.c ****     if(res != LV_RES_OK) return res;
 899              		.loc 3 301 0
 900 0082 97F84730 		ldrb	r3, [r7, #71]	@ zero_extendqisi2
 901 0086 012B     		cmp	r3, #1
 902 0088 02D0     		beq	.L53
 903              		.loc 3 301 0 is_stmt 0 discriminator 1
 904 008a 97F84730 		ldrb	r3, [r7, #71]	@ zero_extendqisi2
 905 008e 65E1     		b	.L50
 906              	.L53:
 302:..\..\..\lvgl\version_6.1.2\lvgl\src\lv_objx/lv_sw.c **** 
 303:..\..\..\lvgl\version_6.1.2\lvgl\src\lv_objx/lv_sw.c ****     sw->event_cb = event_cb;
 907              		.loc 3 303 0 is_stmt 1
 908 0090 FB68     		ldr	r3, [r7, #12]
 909 0092 FA6B     		ldr	r2, [r7, #60]
 910 0094 9A61     		str	r2, [r3, #24]
 304:..\..\..\lvgl\version_6.1.2\lvgl\src\lv_objx/lv_sw.c **** 
 305:..\..\..\lvgl\version_6.1.2\lvgl\src\lv_objx/lv_sw.c ****     if(sign == LV_SIGNAL_CLEANUP) {
 911              		.loc 3 305 0
 912 0096 FB7A     		ldrb	r3, [r7, #11]	@ zero_extendqisi2
 913 0098 002B     		cmp	r3, #0
 914 009a 00F05D81 		beq	.L54
 306:..\..\..\lvgl\version_6.1.2\lvgl\src\lv_objx/lv_sw.c ****         /*Nothing to cleanup. (No dynamically allocated memory in 'ext')*/
 307:..\..\..\lvgl\version_6.1.2\lvgl\src\lv_objx/lv_sw.c ****     } else if(sign == LV_SIGNAL_PRESSED) {
 915              		.loc 3 307 0
 916 009e FB7A     		ldrb	r3, [r7, #11]	@ zero_extendqisi2
 917 00a0 082B     		cmp	r3, #8
 918 00a2 1ED1     		bne	.L55
 919              	.LBB4:
 308:..\..\..\lvgl\version_6.1.2\lvgl\src\lv_objx/lv_sw.c **** 
 309:..\..\..\lvgl\version_6.1.2\lvgl\src\lv_objx/lv_sw.c ****         /*Save the x coordinate of the pressed point to see if the switch was slid*/
 310:..\..\..\lvgl\version_6.1.2\lvgl\src\lv_objx/lv_sw.c ****         lv_indev_t * indev = lv_indev_get_act();
 920              		.loc 3 310 0
 921 00a4 FFF7FEFF 		bl	lv_indev_get_act
 922 00a8 B862     		str	r0, [r7, #40]
 311:..\..\..\lvgl\version_6.1.2\lvgl\src\lv_objx/lv_sw.c ****         if(indev) {
 923              		.loc 3 311 0
 924 00aa BB6A     		ldr	r3, [r7, #40]
 925 00ac 002B     		cmp	r3, #0
 926 00ae 09D0     		beq	.L56
 927              	.LBB5:
 312:..\..\..\lvgl\version_6.1.2\lvgl\src\lv_objx/lv_sw.c ****             lv_point_t p;
 313:..\..\..\lvgl\version_6.1.2\lvgl\src\lv_objx/lv_sw.c ****             lv_indev_get_point(indev, &p);
 928              		.loc 3 313 0
 929 00b0 07F12403 		add	r3, r7, #36
 930 00b4 1946     		mov	r1, r3
 931 00b6 B86A     		ldr	r0, [r7, #40]
 932 00b8 FFF7FEFF 		bl	lv_indev_get_point
 314:..\..\..\lvgl\version_6.1.2\lvgl\src\lv_objx/lv_sw.c ****             ext->start_x = p.x;
 933              		.loc 3 314 0
 934 00bc B7F92420 		ldrsh	r2, [r7, #36]
 935 00c0 3B6C     		ldr	r3, [r7, #64]
 936 00c2 9A84     		strh	r2, [r3, #36]	@ movhi
 937              	.L56:
 938              	.LBE5:
 315:..\..\..\lvgl\version_6.1.2\lvgl\src\lv_objx/lv_sw.c ****         }
 316:..\..\..\lvgl\version_6.1.2\lvgl\src\lv_objx/lv_sw.c ****         ext->slided  = 0;
 939              		.loc 3 316 0
ARM GAS  C:\Users\tmj32\AppData\Local\Temp\cc0MnWmB.s 			page 27


 940 00c4 3A6C     		ldr	r2, [r7, #64]
 941 00c6 92F82630 		ldrb	r3, [r2, #38]
 942 00ca 6FF34103 		bfc	r3, #1, #1
 943 00ce 82F82630 		strb	r3, [r2, #38]
 317:..\..\..\lvgl\version_6.1.2\lvgl\src\lv_objx/lv_sw.c ****         ext->changed = 0;
 944              		.loc 3 317 0
 945 00d2 3A6C     		ldr	r2, [r7, #64]
 946 00d4 92F82630 		ldrb	r3, [r2, #38]
 947 00d8 6FF30003 		bfc	r3, #0, #1
 948 00dc 82F82630 		strb	r3, [r2, #38]
 949              	.LBE4:
 950 00e0 3AE1     		b	.L54
 951              	.L55:
 318:..\..\..\lvgl\version_6.1.2\lvgl\src\lv_objx/lv_sw.c ****     } else if(sign == LV_SIGNAL_PRESSING) {
 952              		.loc 3 318 0
 953 00e2 FB7A     		ldrb	r3, [r7, #11]	@ zero_extendqisi2
 954 00e4 092B     		cmp	r3, #9
 955 00e6 5DD1     		bne	.L57
 956              	.LBB6:
 319:..\..\..\lvgl\version_6.1.2\lvgl\src\lv_objx/lv_sw.c ****         /*See if the switch was slid (moved at least a little)*/
 320:..\..\..\lvgl\version_6.1.2\lvgl\src\lv_objx/lv_sw.c ****         lv_indev_t * indev = lv_indev_get_act();
 957              		.loc 3 320 0
 958 00e8 FFF7FEFF 		bl	lv_indev_get_act
 959 00ec 3863     		str	r0, [r7, #48]
 321:..\..\..\lvgl\version_6.1.2\lvgl\src\lv_objx/lv_sw.c ****         if(indev) {
 960              		.loc 3 321 0
 961 00ee 3B6B     		ldr	r3, [r7, #48]
 962 00f0 002B     		cmp	r3, #0
 963 00f2 1CD0     		beq	.L58
 964              	.LBB7:
 322:..\..\..\lvgl\version_6.1.2\lvgl\src\lv_objx/lv_sw.c ****             lv_point_t p = {0, 0};
 965              		.loc 3 322 0
 966 00f4 0023     		movs	r3, #0
 967 00f6 3B84     		strh	r3, [r7, #32]	@ movhi
 968 00f8 0023     		movs	r3, #0
 969 00fa 7B84     		strh	r3, [r7, #34]	@ movhi
 323:..\..\..\lvgl\version_6.1.2\lvgl\src\lv_objx/lv_sw.c ****             lv_indev_get_point(indev, &p);
 970              		.loc 3 323 0
 971 00fc 07F12003 		add	r3, r7, #32
 972 0100 1946     		mov	r1, r3
 973 0102 386B     		ldr	r0, [r7, #48]
 974 0104 FFF7FEFF 		bl	lv_indev_get_point
 324:..\..\..\lvgl\version_6.1.2\lvgl\src\lv_objx/lv_sw.c ****             if(LV_MATH_ABS(p.x - ext->start_x) > LV_INDEV_DEF_DRAG_LIMIT) ext->slided = 1;
 975              		.loc 3 324 0
 976 0108 B7F92030 		ldrsh	r3, [r7, #32]
 977 010c 1A46     		mov	r2, r3
 978 010e 3B6C     		ldr	r3, [r7, #64]
 979 0110 B3F92430 		ldrsh	r3, [r3, #36]
 980 0114 D31A     		subs	r3, r2, r3
 981 0116 002B     		cmp	r3, #0
 982 0118 B8BF     		it	lt
 983 011a 5B42     		rsblt	r3, r3, #0
 984 011c 0A2B     		cmp	r3, #10
 985 011e 06DD     		ble	.L58
 986              		.loc 3 324 0 is_stmt 0 discriminator 1
 987 0120 3A6C     		ldr	r2, [r7, #64]
 988 0122 92F82630 		ldrb	r3, [r2, #38]
ARM GAS  C:\Users\tmj32\AppData\Local\Temp\cc0MnWmB.s 			page 28


 989 0126 43F00203 		orr	r3, r3, #2
 990 012a 82F82630 		strb	r3, [r2, #38]
 991              	.L58:
 992              	.LBE7:
 325:..\..\..\lvgl\version_6.1.2\lvgl\src\lv_objx/lv_sw.c ****         }
 326:..\..\..\lvgl\version_6.1.2\lvgl\src\lv_objx/lv_sw.c **** 
 327:..\..\..\lvgl\version_6.1.2\lvgl\src\lv_objx/lv_sw.c ****         /*If didn't slide then revert the min/max value. So click without slide won't move the
 328:..\..\..\lvgl\version_6.1.2\lvgl\src\lv_objx/lv_sw.c ****          * switch as a slider*/
 329:..\..\..\lvgl\version_6.1.2\lvgl\src\lv_objx/lv_sw.c ****         if(ext->slided == 0) {
 993              		.loc 3 329 0 is_stmt 1
 994 012e 3B6C     		ldr	r3, [r7, #64]
 995 0130 93F82630 		ldrb	r3, [r3, #38]	@ zero_extendqisi2
 996 0134 03F00203 		and	r3, r3, #2
 997 0138 DBB2     		uxtb	r3, r3
 998 013a 002B     		cmp	r3, #0
 999 013c 0CD1     		bne	.L60
 330:..\..\..\lvgl\version_6.1.2\lvgl\src\lv_objx/lv_sw.c ****             if(lv_sw_get_state(sw))
 1000              		.loc 3 330 0
 1001 013e F868     		ldr	r0, [r7, #12]
 1002 0140 FFF7FEFF 		bl	lv_sw_get_state
 1003 0144 0346     		mov	r3, r0
 1004 0146 002B     		cmp	r3, #0
 1005 0148 03D0     		beq	.L61
 331:..\..\..\lvgl\version_6.1.2\lvgl\src\lv_objx/lv_sw.c ****                 ext->slider.drag_value = LV_SW_MAX_VALUE;
 1006              		.loc 3 331 0
 1007 014a 3B6C     		ldr	r3, [r7, #64]
 1008 014c 6422     		movs	r2, #100
 1009 014e 1A83     		strh	r2, [r3, #24]	@ movhi
 1010 0150 02E0     		b	.L60
 1011              	.L61:
 332:..\..\..\lvgl\version_6.1.2\lvgl\src\lv_objx/lv_sw.c ****             else
 333:..\..\..\lvgl\version_6.1.2\lvgl\src\lv_objx/lv_sw.c ****                 ext->slider.drag_value = 0;
 1012              		.loc 3 333 0
 1013 0152 3B6C     		ldr	r3, [r7, #64]
 1014 0154 0022     		movs	r2, #0
 1015 0156 1A83     		strh	r2, [r3, #24]	@ movhi
 1016              	.L60:
 334:..\..\..\lvgl\version_6.1.2\lvgl\src\lv_objx/lv_sw.c ****         }
 335:..\..\..\lvgl\version_6.1.2\lvgl\src\lv_objx/lv_sw.c **** 
 336:..\..\..\lvgl\version_6.1.2\lvgl\src\lv_objx/lv_sw.c ****         /*If explicitly changed (by slide) don't need to be toggled on release*/
 337:..\..\..\lvgl\version_6.1.2\lvgl\src\lv_objx/lv_sw.c ****         int16_t threshold = LV_SW_MAX_VALUE / 2;
 1017              		.loc 3 337 0
 1018 0158 3223     		movs	r3, #50
 1019 015a FB85     		strh	r3, [r7, #46]	@ movhi
 338:..\..\..\lvgl\version_6.1.2\lvgl\src\lv_objx/lv_sw.c ****         if((old_val < threshold && ext->slider.drag_value > threshold) ||
 1020              		.loc 3 338 0
 1021 015c B7F94420 		ldrsh	r2, [r7, #68]
 1022 0160 B7F92E30 		ldrsh	r3, [r7, #46]
 1023 0164 9A42     		cmp	r2, r3
 1024 0166 06DA     		bge	.L62
 1025              		.loc 3 338 0 is_stmt 0 discriminator 1
 1026 0168 3B6C     		ldr	r3, [r7, #64]
 1027 016a B3F91830 		ldrsh	r3, [r3, #24]
 1028 016e B7F92E20 		ldrsh	r2, [r7, #46]
 1029 0172 9A42     		cmp	r2, r3
 1030 0174 0EDB     		blt	.L63
 1031              	.L62:
ARM GAS  C:\Users\tmj32\AppData\Local\Temp\cc0MnWmB.s 			page 29


 1032              		.loc 3 338 0 discriminator 3
 1033 0176 B7F94420 		ldrsh	r2, [r7, #68]
 1034 017a B7F92E30 		ldrsh	r3, [r7, #46]
 1035 017e 9A42     		cmp	r2, r3
 1036 0180 40F3EA80 		ble	.L54
 339:..\..\..\lvgl\version_6.1.2\lvgl\src\lv_objx/lv_sw.c ****            (old_val > threshold && ext->slider.drag_value < threshold)) {
 1037              		.loc 3 339 0 is_stmt 1
 1038 0184 3B6C     		ldr	r3, [r7, #64]
 1039 0186 B3F91830 		ldrsh	r3, [r3, #24]
 1040 018a B7F92E20 		ldrsh	r2, [r7, #46]
 1041 018e 9A42     		cmp	r2, r3
 1042 0190 40F3E280 		ble	.L54
 1043              	.L63:
 340:..\..\..\lvgl\version_6.1.2\lvgl\src\lv_objx/lv_sw.c ****             ext->changed = 1;
 1044              		.loc 3 340 0
 1045 0194 3A6C     		ldr	r2, [r7, #64]
 1046 0196 92F82630 		ldrb	r3, [r2, #38]
 1047 019a 43F00103 		orr	r3, r3, #1
 1048 019e 82F82630 		strb	r3, [r2, #38]
 1049 01a2 D9E0     		b	.L54
 1050              	.L57:
 1051              	.LBE6:
 341:..\..\..\lvgl\version_6.1.2\lvgl\src\lv_objx/lv_sw.c ****         }
 342:..\..\..\lvgl\version_6.1.2\lvgl\src\lv_objx/lv_sw.c ****     } else if(sign == LV_SIGNAL_PRESS_LOST) {
 1052              		.loc 3 342 0
 1053 01a4 FB7A     		ldrb	r3, [r7, #11]	@ zero_extendqisi2
 1054 01a6 0A2B     		cmp	r3, #10
 1055 01a8 2DD1     		bne	.L65
 343:..\..\..\lvgl\version_6.1.2\lvgl\src\lv_objx/lv_sw.c ****         if(lv_sw_get_state(sw)) {
 1056              		.loc 3 343 0
 1057 01aa F868     		ldr	r0, [r7, #12]
 1058 01ac FFF7FEFF 		bl	lv_sw_get_state
 1059 01b0 0346     		mov	r3, r0
 1060 01b2 002B     		cmp	r3, #0
 1061 01b4 13D0     		beq	.L66
 344:..\..\..\lvgl\version_6.1.2\lvgl\src\lv_objx/lv_sw.c ****             lv_slider_set_style(sw, LV_SLIDER_STYLE_KNOB, ext->style_knob_on);
 1062              		.loc 3 344 0
 1063 01b6 3B6C     		ldr	r3, [r7, #64]
 1064 01b8 1B6A     		ldr	r3, [r3, #32]
 1065 01ba 1A46     		mov	r2, r3
 1066 01bc 0221     		movs	r1, #2
 1067 01be F868     		ldr	r0, [r7, #12]
 1068 01c0 FFF7FEFF 		bl	lv_slider_set_style
 345:..\..\..\lvgl\version_6.1.2\lvgl\src\lv_objx/lv_sw.c ****             lv_slider_set_value(sw, LV_SW_MAX_VALUE, LV_ANIM_ON);
 1069              		.loc 3 345 0
 1070 01c4 0122     		movs	r2, #1
 1071 01c6 6421     		movs	r1, #100
 1072 01c8 F868     		ldr	r0, [r7, #12]
 1073 01ca FFF7FEFF 		bl	lv_slider_set_value
 346:..\..\..\lvgl\version_6.1.2\lvgl\src\lv_objx/lv_sw.c ****             if(res != LV_RES_OK) return res;
 1074              		.loc 3 346 0
 1075 01ce 97F84730 		ldrb	r3, [r7, #71]	@ zero_extendqisi2
 1076 01d2 012B     		cmp	r3, #1
 1077 01d4 00F0C080 		beq	.L54
 1078              		.loc 3 346 0 is_stmt 0 discriminator 1
 1079 01d8 97F84730 		ldrb	r3, [r7, #71]	@ zero_extendqisi2
 1080 01dc BEE0     		b	.L50
ARM GAS  C:\Users\tmj32\AppData\Local\Temp\cc0MnWmB.s 			page 30


 1081              	.L66:
 347:..\..\..\lvgl\version_6.1.2\lvgl\src\lv_objx/lv_sw.c ****         } else {
 348:..\..\..\lvgl\version_6.1.2\lvgl\src\lv_objx/lv_sw.c ****             lv_slider_set_style(sw, LV_SLIDER_STYLE_KNOB, ext->style_knob_off);
 1082              		.loc 3 348 0 is_stmt 1
 1083 01de 3B6C     		ldr	r3, [r7, #64]
 1084 01e0 DB69     		ldr	r3, [r3, #28]
 1085 01e2 1A46     		mov	r2, r3
 1086 01e4 0221     		movs	r1, #2
 1087 01e6 F868     		ldr	r0, [r7, #12]
 1088 01e8 FFF7FEFF 		bl	lv_slider_set_style
 349:..\..\..\lvgl\version_6.1.2\lvgl\src\lv_objx/lv_sw.c ****             lv_slider_set_value(sw, 0, LV_ANIM_ON);
 1089              		.loc 3 349 0
 1090 01ec 0122     		movs	r2, #1
 1091 01ee 0021     		movs	r1, #0
 1092 01f0 F868     		ldr	r0, [r7, #12]
 1093 01f2 FFF7FEFF 		bl	lv_slider_set_value
 350:..\..\..\lvgl\version_6.1.2\lvgl\src\lv_objx/lv_sw.c ****             if(res != LV_RES_OK) return res;
 1094              		.loc 3 350 0
 1095 01f6 97F84730 		ldrb	r3, [r7, #71]	@ zero_extendqisi2
 1096 01fa 012B     		cmp	r3, #1
 1097 01fc 00F0AC80 		beq	.L54
 1098              		.loc 3 350 0 is_stmt 0 discriminator 1
 1099 0200 97F84730 		ldrb	r3, [r7, #71]	@ zero_extendqisi2
 1100 0204 AAE0     		b	.L50
 1101              	.L65:
 351:..\..\..\lvgl\version_6.1.2\lvgl\src\lv_objx/lv_sw.c ****         }
 352:..\..\..\lvgl\version_6.1.2\lvgl\src\lv_objx/lv_sw.c ****     } else if(sign == LV_SIGNAL_RELEASED) {
 1102              		.loc 3 352 0 is_stmt 1
 1103 0206 FB7A     		ldrb	r3, [r7, #11]	@ zero_extendqisi2
 1104 0208 0B2B     		cmp	r3, #11
 1105 020a 52D1     		bne	.L67
 353:..\..\..\lvgl\version_6.1.2\lvgl\src\lv_objx/lv_sw.c ****         /*If not dragged then toggle the switch*/
 354:..\..\..\lvgl\version_6.1.2\lvgl\src\lv_objx/lv_sw.c ****         if(ext->changed == 0) {
 1106              		.loc 3 354 0
 1107 020c 3B6C     		ldr	r3, [r7, #64]
 1108 020e 93F82630 		ldrb	r3, [r3, #38]	@ zero_extendqisi2
 1109 0212 03F00103 		and	r3, r3, #1
 1110 0216 DBB2     		uxtb	r3, r3
 1111 0218 002B     		cmp	r3, #0
 1112 021a 23D1     		bne	.L68
 1113              	.LBB8:
 355:..\..\..\lvgl\version_6.1.2\lvgl\src\lv_objx/lv_sw.c ****             int32_t state;
 356:..\..\..\lvgl\version_6.1.2\lvgl\src\lv_objx/lv_sw.c ****             if(lv_sw_get_state(sw)) {
 1114              		.loc 3 356 0
 1115 021c F868     		ldr	r0, [r7, #12]
 1116 021e FFF7FEFF 		bl	lv_sw_get_state
 1117 0222 0346     		mov	r3, r0
 1118 0224 002B     		cmp	r3, #0
 1119 0226 06D0     		beq	.L69
 357:..\..\..\lvgl\version_6.1.2\lvgl\src\lv_objx/lv_sw.c ****                 lv_sw_off(sw, LV_ANIM_ON);
 1120              		.loc 3 357 0
 1121 0228 0121     		movs	r1, #1
 1122 022a F868     		ldr	r0, [r7, #12]
 1123 022c FFF7FEFF 		bl	lv_sw_off
 358:..\..\..\lvgl\version_6.1.2\lvgl\src\lv_objx/lv_sw.c ****                 state = 0;
 1124              		.loc 3 358 0
 1125 0230 0023     		movs	r3, #0
ARM GAS  C:\Users\tmj32\AppData\Local\Temp\cc0MnWmB.s 			page 31


 1126 0232 FB61     		str	r3, [r7, #28]
 1127 0234 05E0     		b	.L70
 1128              	.L69:
 359:..\..\..\lvgl\version_6.1.2\lvgl\src\lv_objx/lv_sw.c ****             } else {
 360:..\..\..\lvgl\version_6.1.2\lvgl\src\lv_objx/lv_sw.c ****                 lv_sw_on(sw, LV_ANIM_ON);
 1129              		.loc 3 360 0
 1130 0236 0121     		movs	r1, #1
 1131 0238 F868     		ldr	r0, [r7, #12]
 1132 023a FFF7FEFF 		bl	lv_sw_on
 361:..\..\..\lvgl\version_6.1.2\lvgl\src\lv_objx/lv_sw.c ****                 state = 1;
 1133              		.loc 3 361 0
 1134 023e 0123     		movs	r3, #1
 1135 0240 FB61     		str	r3, [r7, #28]
 1136              	.L70:
 362:..\..\..\lvgl\version_6.1.2\lvgl\src\lv_objx/lv_sw.c ****             }
 363:..\..\..\lvgl\version_6.1.2\lvgl\src\lv_objx/lv_sw.c **** 
 364:..\..\..\lvgl\version_6.1.2\lvgl\src\lv_objx/lv_sw.c ****             res = lv_event_send(sw, LV_EVENT_VALUE_CHANGED, &state);
 1137              		.loc 3 364 0
 1138 0242 07F11C03 		add	r3, r7, #28
 1139 0246 1A46     		mov	r2, r3
 1140 0248 0E21     		movs	r1, #14
 1141 024a F868     		ldr	r0, [r7, #12]
 1142 024c FFF7FEFF 		bl	lv_event_send
 1143 0250 0346     		mov	r3, r0
 1144 0252 87F84730 		strb	r3, [r7, #71]
 365:..\..\..\lvgl\version_6.1.2\lvgl\src\lv_objx/lv_sw.c ****             if(res != LV_RES_OK) return res;
 1145              		.loc 3 365 0
 1146 0256 97F84730 		ldrb	r3, [r7, #71]	@ zero_extendqisi2
 1147 025a 012B     		cmp	r3, #1
 1148 025c 7CD0     		beq	.L54
 1149              		.loc 3 365 0 is_stmt 0 discriminator 1
 1150 025e 97F84730 		ldrb	r3, [r7, #71]	@ zero_extendqisi2
 1151 0262 7BE0     		b	.L50
 1152              	.L68:
 1153              	.LBE8:
 1154              	.LBB9:
 366:..\..\..\lvgl\version_6.1.2\lvgl\src\lv_objx/lv_sw.c ****         }
 367:..\..\..\lvgl\version_6.1.2\lvgl\src\lv_objx/lv_sw.c ****         /*If the switch was dragged then calculate the new state based on the current position*/
 368:..\..\..\lvgl\version_6.1.2\lvgl\src\lv_objx/lv_sw.c ****         else {
 369:..\..\..\lvgl\version_6.1.2\lvgl\src\lv_objx/lv_sw.c ****             int16_t v = lv_slider_get_value(sw);
 1155              		.loc 3 369 0 is_stmt 1
 1156 0264 F868     		ldr	r0, [r7, #12]
 1157 0266 FFF7FEFF 		bl	lv_slider_get_value
 1158 026a 0346     		mov	r3, r0
 1159 026c 7B87     		strh	r3, [r7, #58]	@ movhi
 370:..\..\..\lvgl\version_6.1.2\lvgl\src\lv_objx/lv_sw.c ****             int32_t state;
 371:..\..\..\lvgl\version_6.1.2\lvgl\src\lv_objx/lv_sw.c ****             if(v > LV_SW_MAX_VALUE / 2) {
 1160              		.loc 3 371 0
 1161 026e B7F93A30 		ldrsh	r3, [r7, #58]
 1162 0272 322B     		cmp	r3, #50
 1163 0274 06DD     		ble	.L73
 372:..\..\..\lvgl\version_6.1.2\lvgl\src\lv_objx/lv_sw.c ****                 lv_sw_on(sw, LV_ANIM_ON);
 1164              		.loc 3 372 0
 1165 0276 0121     		movs	r1, #1
 1166 0278 F868     		ldr	r0, [r7, #12]
 1167 027a FFF7FEFF 		bl	lv_sw_on
 373:..\..\..\lvgl\version_6.1.2\lvgl\src\lv_objx/lv_sw.c ****                 state = 1;
ARM GAS  C:\Users\tmj32\AppData\Local\Temp\cc0MnWmB.s 			page 32


 1168              		.loc 3 373 0
 1169 027e 0123     		movs	r3, #1
 1170 0280 BB61     		str	r3, [r7, #24]
 1171 0282 05E0     		b	.L74
 1172              	.L73:
 374:..\..\..\lvgl\version_6.1.2\lvgl\src\lv_objx/lv_sw.c ****             } else {
 375:..\..\..\lvgl\version_6.1.2\lvgl\src\lv_objx/lv_sw.c ****                 lv_sw_off(sw, LV_ANIM_ON);
 1173              		.loc 3 375 0
 1174 0284 0121     		movs	r1, #1
 1175 0286 F868     		ldr	r0, [r7, #12]
 1176 0288 FFF7FEFF 		bl	lv_sw_off
 376:..\..\..\lvgl\version_6.1.2\lvgl\src\lv_objx/lv_sw.c ****                 state = 0;
 1177              		.loc 3 376 0
 1178 028c 0023     		movs	r3, #0
 1179 028e BB61     		str	r3, [r7, #24]
 1180              	.L74:
 377:..\..\..\lvgl\version_6.1.2\lvgl\src\lv_objx/lv_sw.c ****             }
 378:..\..\..\lvgl\version_6.1.2\lvgl\src\lv_objx/lv_sw.c ****             res = lv_event_send(sw, LV_EVENT_VALUE_CHANGED, &state);
 1181              		.loc 3 378 0
 1182 0290 07F11803 		add	r3, r7, #24
 1183 0294 1A46     		mov	r2, r3
 1184 0296 0E21     		movs	r1, #14
 1185 0298 F868     		ldr	r0, [r7, #12]
 1186 029a FFF7FEFF 		bl	lv_event_send
 1187 029e 0346     		mov	r3, r0
 1188 02a0 87F84730 		strb	r3, [r7, #71]
 379:..\..\..\lvgl\version_6.1.2\lvgl\src\lv_objx/lv_sw.c ****             if(res != LV_RES_OK) return res;
 1189              		.loc 3 379 0
 1190 02a4 97F84730 		ldrb	r3, [r7, #71]	@ zero_extendqisi2
 1191 02a8 012B     		cmp	r3, #1
 1192 02aa 55D0     		beq	.L54
 1193              		.loc 3 379 0 is_stmt 0 discriminator 1
 1194 02ac 97F84730 		ldrb	r3, [r7, #71]	@ zero_extendqisi2
 1195 02b0 54E0     		b	.L50
 1196              	.L67:
 1197              	.LBE9:
 380:..\..\..\lvgl\version_6.1.2\lvgl\src\lv_objx/lv_sw.c ****         }
 381:..\..\..\lvgl\version_6.1.2\lvgl\src\lv_objx/lv_sw.c ****     } else if(sign == LV_SIGNAL_CONTROL) {
 1198              		.loc 3 381 0 is_stmt 1
 1199 02b2 FB7A     		ldrb	r3, [r7, #11]	@ zero_extendqisi2
 1200 02b4 122B     		cmp	r3, #18
 1201 02b6 47D1     		bne	.L76
 1202              	.LBB10:
 382:..\..\..\lvgl\version_6.1.2\lvgl\src\lv_objx/lv_sw.c ****         char c = *((char *)param);
 1203              		.loc 3 382 0
 1204 02b8 7B68     		ldr	r3, [r7, #4]
 1205 02ba 1B78     		ldrb	r3, [r3]
 1206 02bc 87F83930 		strb	r3, [r7, #57]
 383:..\..\..\lvgl\version_6.1.2\lvgl\src\lv_objx/lv_sw.c ****         uint32_t state;
 384:..\..\..\lvgl\version_6.1.2\lvgl\src\lv_objx/lv_sw.c ****         if(c == LV_KEY_RIGHT || c == LV_KEY_UP) {
 1207              		.loc 3 384 0
 1208 02c0 97F83930 		ldrb	r3, [r7, #57]	@ zero_extendqisi2
 1209 02c4 132B     		cmp	r3, #19
 1210 02c6 03D0     		beq	.L77
 1211              		.loc 3 384 0 is_stmt 0 discriminator 1
 1212 02c8 97F83930 		ldrb	r3, [r7, #57]	@ zero_extendqisi2
 1213 02cc 112B     		cmp	r3, #17
ARM GAS  C:\Users\tmj32\AppData\Local\Temp\cc0MnWmB.s 			page 33


 1214 02ce 1BD1     		bne	.L78
 1215              	.L77:
 385:..\..\..\lvgl\version_6.1.2\lvgl\src\lv_objx/lv_sw.c ****             lv_slider_set_value(sw, LV_SW_MAX_VALUE, true);
 1216              		.loc 3 385 0 is_stmt 1
 1217 02d0 0122     		movs	r2, #1
 1218 02d2 6421     		movs	r1, #100
 1219 02d4 F868     		ldr	r0, [r7, #12]
 1220 02d6 FFF7FEFF 		bl	lv_slider_set_value
 386:..\..\..\lvgl\version_6.1.2\lvgl\src\lv_objx/lv_sw.c ****             state = 1;
 1221              		.loc 3 386 0
 1222 02da 0123     		movs	r3, #1
 1223 02dc 7B61     		str	r3, [r7, #20]
 387:..\..\..\lvgl\version_6.1.2\lvgl\src\lv_objx/lv_sw.c ****             res   = lv_event_send(sw, LV_EVENT_VALUE_CHANGED, &state);
 1224              		.loc 3 387 0
 1225 02de 07F11403 		add	r3, r7, #20
 1226 02e2 1A46     		mov	r2, r3
 1227 02e4 0E21     		movs	r1, #14
 1228 02e6 F868     		ldr	r0, [r7, #12]
 1229 02e8 FFF7FEFF 		bl	lv_event_send
 1230 02ec 0346     		mov	r3, r0
 1231 02ee 87F84730 		strb	r3, [r7, #71]
 388:..\..\..\lvgl\version_6.1.2\lvgl\src\lv_objx/lv_sw.c ****             if(res != LV_RES_OK) return res;
 1232              		.loc 3 388 0
 1233 02f2 97F84730 		ldrb	r3, [r7, #71]	@ zero_extendqisi2
 1234 02f6 012B     		cmp	r3, #1
 1235 02f8 2ED0     		beq	.L54
 1236              		.loc 3 388 0 is_stmt 0 discriminator 1
 1237 02fa 97F84730 		ldrb	r3, [r7, #71]	@ zero_extendqisi2
 1238 02fe 2DE0     		b	.L50
 1239              	.L84:
 1240              		.align	2
 1241              	.L83:
 1242 0300 00000000 		.word	ancestor_signal
 1243 0304 00000000 		.word	.LC0
 1244              	.L78:
 389:..\..\..\lvgl\version_6.1.2\lvgl\src\lv_objx/lv_sw.c ****         } else if(c == LV_KEY_LEFT || c == LV_KEY_DOWN) {
 1245              		.loc 3 389 0 is_stmt 1
 1246 0308 97F83930 		ldrb	r3, [r7, #57]	@ zero_extendqisi2
 1247 030c 142B     		cmp	r3, #20
 1248 030e 03D0     		beq	.L82
 1249              		.loc 3 389 0 is_stmt 0 discriminator 1
 1250 0310 97F83930 		ldrb	r3, [r7, #57]	@ zero_extendqisi2
 1251 0314 122B     		cmp	r3, #18
 1252 0316 1FD1     		bne	.L54
 1253              	.L82:
 390:..\..\..\lvgl\version_6.1.2\lvgl\src\lv_objx/lv_sw.c ****             lv_slider_set_value(sw, 0, true);
 1254              		.loc 3 390 0 is_stmt 1
 1255 0318 0122     		movs	r2, #1
 1256 031a 0021     		movs	r1, #0
 1257 031c F868     		ldr	r0, [r7, #12]
 1258 031e FFF7FEFF 		bl	lv_slider_set_value
 391:..\..\..\lvgl\version_6.1.2\lvgl\src\lv_objx/lv_sw.c ****             state = 0;
 1259              		.loc 3 391 0
 1260 0322 0023     		movs	r3, #0
 1261 0324 7B61     		str	r3, [r7, #20]
 392:..\..\..\lvgl\version_6.1.2\lvgl\src\lv_objx/lv_sw.c ****             res   = lv_event_send(sw, LV_EVENT_VALUE_CHANGED, &state);
 1262              		.loc 3 392 0
ARM GAS  C:\Users\tmj32\AppData\Local\Temp\cc0MnWmB.s 			page 34


 1263 0326 07F11403 		add	r3, r7, #20
 1264 032a 1A46     		mov	r2, r3
 1265 032c 0E21     		movs	r1, #14
 1266 032e F868     		ldr	r0, [r7, #12]
 1267 0330 FFF7FEFF 		bl	lv_event_send
 1268 0334 0346     		mov	r3, r0
 1269 0336 87F84730 		strb	r3, [r7, #71]
 393:..\..\..\lvgl\version_6.1.2\lvgl\src\lv_objx/lv_sw.c ****             if(res != LV_RES_OK) return res;
 1270              		.loc 3 393 0
 1271 033a 97F84730 		ldrb	r3, [r7, #71]	@ zero_extendqisi2
 1272 033e 012B     		cmp	r3, #1
 1273 0340 0AD0     		beq	.L54
 1274              		.loc 3 393 0 is_stmt 0 discriminator 1
 1275 0342 97F84730 		ldrb	r3, [r7, #71]	@ zero_extendqisi2
 1276 0346 09E0     		b	.L50
 1277              	.L76:
 1278              	.LBE10:
 394:..\..\..\lvgl\version_6.1.2\lvgl\src\lv_objx/lv_sw.c ****         }
 395:..\..\..\lvgl\version_6.1.2\lvgl\src\lv_objx/lv_sw.c ****     } else if(sign == LV_SIGNAL_GET_EDITABLE) {
 1279              		.loc 3 395 0 is_stmt 1
 1280 0348 FB7A     		ldrb	r3, [r7, #11]	@ zero_extendqisi2
 1281 034a 132B     		cmp	r3, #19
 1282 034c 04D1     		bne	.L54
 1283              	.LBB11:
 396:..\..\..\lvgl\version_6.1.2\lvgl\src\lv_objx/lv_sw.c ****         bool * editable = (bool *)param;
 1284              		.loc 3 396 0
 1285 034e 7B68     		ldr	r3, [r7, #4]
 1286 0350 7B63     		str	r3, [r7, #52]
 397:..\..\..\lvgl\version_6.1.2\lvgl\src\lv_objx/lv_sw.c ****         *editable       = false; /*The ancestor slider is editable the switch is not*/
 1287              		.loc 3 397 0
 1288 0352 7B6B     		ldr	r3, [r7, #52]
 1289 0354 0022     		movs	r2, #0
 1290 0356 1A70     		strb	r2, [r3]
 1291              	.L54:
 1292              	.LBE11:
 398:..\..\..\lvgl\version_6.1.2\lvgl\src\lv_objx/lv_sw.c ****     }
 399:..\..\..\lvgl\version_6.1.2\lvgl\src\lv_objx/lv_sw.c **** 
 400:..\..\..\lvgl\version_6.1.2\lvgl\src\lv_objx/lv_sw.c ****     return res;
 1293              		.loc 3 400 0
 1294 0358 97F84730 		ldrb	r3, [r7, #71]	@ zero_extendqisi2
 1295              	.L50:
 401:..\..\..\lvgl\version_6.1.2\lvgl\src\lv_objx/lv_sw.c **** }
 1296              		.loc 3 401 0
 1297 035c 1846     		mov	r0, r3
 1298 035e 4837     		adds	r7, r7, #72
 1299              		.cfi_def_cfa_offset 8
 1300 0360 BD46     		mov	sp, r7
 1301              		.cfi_def_cfa_register 13
 1302              		@ sp needed
 1303 0362 80BD     		pop	{r7, pc}
 1304              		.cfi_endproc
 1305              	.LFE63:
 1306              		.size	lv_sw_signal, .-lv_sw_signal
 1307              		.text
 1308              	.Letext0:
 1309              		.file 4 "c:\\program files (x86)\\cypress\\psoc creator\\4.3\\psoc creator\\import\\gnu\\arm\\5.4.
 1310              		.file 5 "c:\\program files (x86)\\cypress\\psoc creator\\4.3\\psoc creator\\import\\gnu\\arm\\5.4.
ARM GAS  C:\Users\tmj32\AppData\Local\Temp\cc0MnWmB.s 			page 35


 1311              		.file 6 "..\\..\\..\\lvgl\\version_6.1.2\\lvgl\\src\\lv_objx\\../../../lv_conf.h"
 1312              		.file 7 "..\\..\\..\\lvgl\\version_6.1.2\\lvgl\\src\\lv_objx\\../lv_core/../lv_font/lv_font.h"
 1313              		.file 8 "..\\..\\..\\lvgl\\version_6.1.2\\lvgl\\src\\lv_objx\\../lv_core/../lv_misc/lv_color.h"
 1314              		.file 9 "..\\..\\..\\lvgl\\version_6.1.2\\lvgl\\src\\lv_objx\\../lv_core/../lv_misc/lv_area.h"
 1315              		.file 10 "..\\..\\..\\lvgl\\version_6.1.2\\lvgl\\src\\lv_objx\\../lv_core/../lv_misc/lv_anim.h"
 1316              		.file 11 "..\\..\\..\\lvgl\\version_6.1.2\\lvgl\\src\\lv_objx\\../lv_core/lv_style.h"
 1317              		.file 12 "..\\..\\..\\lvgl\\version_6.1.2\\lvgl\\src\\lv_objx\\../lv_core/../lv_misc/lv_types.h"
 1318              		.file 13 "..\\..\\..\\lvgl\\version_6.1.2\\lvgl\\src\\lv_objx\\../lv_core/../lv_misc/lv_ll.h"
 1319              		.file 14 "..\\..\\..\\lvgl\\version_6.1.2\\lvgl\\src\\lv_objx\\../lv_core/../lv_misc/lv_bidi.h"
 1320              		.file 15 "..\\..\\..\\lvgl\\version_6.1.2\\lvgl\\src\\lv_objx\\../lv_core/../lv_hal/../lv_misc/lv_
 1321              		.file 16 "..\\..\\..\\lvgl\\version_6.1.2\\lvgl\\src\\lv_objx\\../lv_core/../lv_hal/lv_hal_disp.h"
 1322              		.file 17 "..\\..\\..\\lvgl\\version_6.1.2\\lvgl\\src\\lv_objx\\../lv_core/lv_obj.h"
 1323              		.file 18 "..\\..\\..\\lvgl\\version_6.1.2\\lvgl\\src\\lv_objx\\../lv_core/../lv_hal/lv_hal_indev.h
 1324              		.file 19 "..\\..\\..\\lvgl\\version_6.1.2\\lvgl\\src\\lv_objx\\../lv_core/../lv_core/lv_group.h"
 1325              		.file 20 "..\\..\\..\\lvgl\\version_6.1.2\\lvgl\\src\\lv_objx\\lv_btn.h"
 1326              		.file 21 "..\\..\\..\\lvgl\\version_6.1.2\\lvgl\\src\\lv_objx\\lv_bar.h"
 1327              		.file 22 "..\\..\\..\\lvgl\\version_6.1.2\\lvgl\\src\\lv_objx\\../lv_themes/lv_theme.h"