ARM GAS  C:\Users\tmj32\AppData\Local\Temp\cci6nv1n.s 			page 1


   1              		.syntax unified
   2              		.cpu cortex-m4
   3              		.eabi_attribute 27, 1
   4              		.fpu fpv4-sp-d16
   5              		.eabi_attribute 20, 1
   6              		.eabi_attribute 21, 1
   7              		.eabi_attribute 23, 3
   8              		.eabi_attribute 24, 1
   9              		.eabi_attribute 25, 1
  10              		.eabi_attribute 26, 1
  11              		.eabi_attribute 30, 6
  12              		.eabi_attribute 34, 1
  13              		.eabi_attribute 18, 4
  14              		.thumb
  15              		.syntax unified
  16              		.file	"lv_spinbox.c"
  17              		.text
  18              	.Ltext0:
  19              		.cfi_sections	.debug_frame
  20              		.section	.text.lv_spinbox_set_style,"ax",%progbits
  21              		.align	2
  22              		.thumb
  23              		.thumb_func
  24              		.type	lv_spinbox_set_style, %function
  25              	lv_spinbox_set_style:
  26              	.LFB56:
  27              		.file 1 "..\\..\\..\\lvgl\\version_6.1.2\\lvgl\\src\\lv_objx\\lv_spinbox.h"
   1:..\..\..\lvgl\version_6.1.2\lvgl\src\lv_objx/lv_spinbox.h **** /**
   2:..\..\..\lvgl\version_6.1.2\lvgl\src\lv_objx/lv_spinbox.h ****  * @file lv_spinbox.h
   3:..\..\..\lvgl\version_6.1.2\lvgl\src\lv_objx/lv_spinbox.h ****  *
   4:..\..\..\lvgl\version_6.1.2\lvgl\src\lv_objx/lv_spinbox.h ****  */
   5:..\..\..\lvgl\version_6.1.2\lvgl\src\lv_objx/lv_spinbox.h **** 
   6:..\..\..\lvgl\version_6.1.2\lvgl\src\lv_objx/lv_spinbox.h **** #ifndef LV_SPINBOX_H
   7:..\..\..\lvgl\version_6.1.2\lvgl\src\lv_objx/lv_spinbox.h **** #define LV_SPINBOX_H
   8:..\..\..\lvgl\version_6.1.2\lvgl\src\lv_objx/lv_spinbox.h **** 
   9:..\..\..\lvgl\version_6.1.2\lvgl\src\lv_objx/lv_spinbox.h **** #ifdef __cplusplus
  10:..\..\..\lvgl\version_6.1.2\lvgl\src\lv_objx/lv_spinbox.h **** extern "C" {
  11:..\..\..\lvgl\version_6.1.2\lvgl\src\lv_objx/lv_spinbox.h **** #endif
  12:..\..\..\lvgl\version_6.1.2\lvgl\src\lv_objx/lv_spinbox.h **** 
  13:..\..\..\lvgl\version_6.1.2\lvgl\src\lv_objx/lv_spinbox.h **** /*********************
  14:..\..\..\lvgl\version_6.1.2\lvgl\src\lv_objx/lv_spinbox.h ****  *      INCLUDES
  15:..\..\..\lvgl\version_6.1.2\lvgl\src\lv_objx/lv_spinbox.h ****  *********************/
  16:..\..\..\lvgl\version_6.1.2\lvgl\src\lv_objx/lv_spinbox.h **** #ifdef LV_CONF_INCLUDE_SIMPLE
  17:..\..\..\lvgl\version_6.1.2\lvgl\src\lv_objx/lv_spinbox.h **** #include "lv_conf.h"
  18:..\..\..\lvgl\version_6.1.2\lvgl\src\lv_objx/lv_spinbox.h **** #else
  19:..\..\..\lvgl\version_6.1.2\lvgl\src\lv_objx/lv_spinbox.h **** #include "../../../lv_conf.h"
  20:..\..\..\lvgl\version_6.1.2\lvgl\src\lv_objx/lv_spinbox.h **** #endif
  21:..\..\..\lvgl\version_6.1.2\lvgl\src\lv_objx/lv_spinbox.h **** 
  22:..\..\..\lvgl\version_6.1.2\lvgl\src\lv_objx/lv_spinbox.h **** #if LV_USE_SPINBOX != 0
  23:..\..\..\lvgl\version_6.1.2\lvgl\src\lv_objx/lv_spinbox.h **** 
  24:..\..\..\lvgl\version_6.1.2\lvgl\src\lv_objx/lv_spinbox.h **** /*Testing of dependencies*/
  25:..\..\..\lvgl\version_6.1.2\lvgl\src\lv_objx/lv_spinbox.h **** #if LV_USE_TA == 0
  26:..\..\..\lvgl\version_6.1.2\lvgl\src\lv_objx/lv_spinbox.h **** #error "lv_spinbox: lv_ta is required. Enable it in lv_conf.h (LV_USE_TA  1) "
  27:..\..\..\lvgl\version_6.1.2\lvgl\src\lv_objx/lv_spinbox.h **** #endif
  28:..\..\..\lvgl\version_6.1.2\lvgl\src\lv_objx/lv_spinbox.h **** 
  29:..\..\..\lvgl\version_6.1.2\lvgl\src\lv_objx/lv_spinbox.h **** #include "../lv_core/lv_obj.h"
  30:..\..\..\lvgl\version_6.1.2\lvgl\src\lv_objx/lv_spinbox.h **** #include "../lv_objx/lv_ta.h"
ARM GAS  C:\Users\tmj32\AppData\Local\Temp\cci6nv1n.s 			page 2


  31:..\..\..\lvgl\version_6.1.2\lvgl\src\lv_objx/lv_spinbox.h **** 
  32:..\..\..\lvgl\version_6.1.2\lvgl\src\lv_objx/lv_spinbox.h **** /*********************
  33:..\..\..\lvgl\version_6.1.2\lvgl\src\lv_objx/lv_spinbox.h ****  *      DEFINES
  34:..\..\..\lvgl\version_6.1.2\lvgl\src\lv_objx/lv_spinbox.h ****  *********************/
  35:..\..\..\lvgl\version_6.1.2\lvgl\src\lv_objx/lv_spinbox.h **** #define LV_SPINBOX_MAX_DIGIT_COUNT 16
  36:..\..\..\lvgl\version_6.1.2\lvgl\src\lv_objx/lv_spinbox.h **** 
  37:..\..\..\lvgl\version_6.1.2\lvgl\src\lv_objx/lv_spinbox.h **** /**********************
  38:..\..\..\lvgl\version_6.1.2\lvgl\src\lv_objx/lv_spinbox.h ****  *      TYPEDEFS
  39:..\..\..\lvgl\version_6.1.2\lvgl\src\lv_objx/lv_spinbox.h ****  **********************/
  40:..\..\..\lvgl\version_6.1.2\lvgl\src\lv_objx/lv_spinbox.h **** 
  41:..\..\..\lvgl\version_6.1.2\lvgl\src\lv_objx/lv_spinbox.h **** /*Data of spinbox*/
  42:..\..\..\lvgl\version_6.1.2\lvgl\src\lv_objx/lv_spinbox.h **** typedef struct
  43:..\..\..\lvgl\version_6.1.2\lvgl\src\lv_objx/lv_spinbox.h **** {
  44:..\..\..\lvgl\version_6.1.2\lvgl\src\lv_objx/lv_spinbox.h ****     lv_ta_ext_t ta; /*Ext. of ancestor*/
  45:..\..\..\lvgl\version_6.1.2\lvgl\src\lv_objx/lv_spinbox.h ****     /*New data for this type */
  46:..\..\..\lvgl\version_6.1.2\lvgl\src\lv_objx/lv_spinbox.h ****     int32_t value;
  47:..\..\..\lvgl\version_6.1.2\lvgl\src\lv_objx/lv_spinbox.h ****     int32_t range_max;
  48:..\..\..\lvgl\version_6.1.2\lvgl\src\lv_objx/lv_spinbox.h ****     int32_t range_min;
  49:..\..\..\lvgl\version_6.1.2\lvgl\src\lv_objx/lv_spinbox.h ****     int32_t step;
  50:..\..\..\lvgl\version_6.1.2\lvgl\src\lv_objx/lv_spinbox.h ****     uint16_t digit_count : 4;
  51:..\..\..\lvgl\version_6.1.2\lvgl\src\lv_objx/lv_spinbox.h ****     uint16_t dec_point_pos : 4; /*if 0, there is no separator and the number is an integer*/
  52:..\..\..\lvgl\version_6.1.2\lvgl\src\lv_objx/lv_spinbox.h ****     uint16_t digit_padding_left : 4;
  53:..\..\..\lvgl\version_6.1.2\lvgl\src\lv_objx/lv_spinbox.h **** } lv_spinbox_ext_t;
  54:..\..\..\lvgl\version_6.1.2\lvgl\src\lv_objx/lv_spinbox.h **** 
  55:..\..\..\lvgl\version_6.1.2\lvgl\src\lv_objx/lv_spinbox.h **** /*Styles*/
  56:..\..\..\lvgl\version_6.1.2\lvgl\src\lv_objx/lv_spinbox.h **** enum {
  57:..\..\..\lvgl\version_6.1.2\lvgl\src\lv_objx/lv_spinbox.h ****     LV_SPINBOX_STYLE_BG,
  58:..\..\..\lvgl\version_6.1.2\lvgl\src\lv_objx/lv_spinbox.h ****     LV_SPINBOX_STYLE_SB,
  59:..\..\..\lvgl\version_6.1.2\lvgl\src\lv_objx/lv_spinbox.h ****     LV_SPINBOX_STYLE_CURSOR,
  60:..\..\..\lvgl\version_6.1.2\lvgl\src\lv_objx/lv_spinbox.h **** };
  61:..\..\..\lvgl\version_6.1.2\lvgl\src\lv_objx/lv_spinbox.h **** typedef uint8_t lv_spinbox_style_t;
  62:..\..\..\lvgl\version_6.1.2\lvgl\src\lv_objx/lv_spinbox.h **** 
  63:..\..\..\lvgl\version_6.1.2\lvgl\src\lv_objx/lv_spinbox.h **** /**********************
  64:..\..\..\lvgl\version_6.1.2\lvgl\src\lv_objx/lv_spinbox.h ****  * GLOBAL PROTOTYPES
  65:..\..\..\lvgl\version_6.1.2\lvgl\src\lv_objx/lv_spinbox.h ****  **********************/
  66:..\..\..\lvgl\version_6.1.2\lvgl\src\lv_objx/lv_spinbox.h **** 
  67:..\..\..\lvgl\version_6.1.2\lvgl\src\lv_objx/lv_spinbox.h **** /**
  68:..\..\..\lvgl\version_6.1.2\lvgl\src\lv_objx/lv_spinbox.h ****  * Create a spinbox objects
  69:..\..\..\lvgl\version_6.1.2\lvgl\src\lv_objx/lv_spinbox.h ****  * @param par pointer to an object, it will be the parent of the new spinbox
  70:..\..\..\lvgl\version_6.1.2\lvgl\src\lv_objx/lv_spinbox.h ****  * @param copy pointer to a spinbox object, if not NULL then the new object will be copied from it
  71:..\..\..\lvgl\version_6.1.2\lvgl\src\lv_objx/lv_spinbox.h ****  * @return pointer to the created spinbox
  72:..\..\..\lvgl\version_6.1.2\lvgl\src\lv_objx/lv_spinbox.h ****  */
  73:..\..\..\lvgl\version_6.1.2\lvgl\src\lv_objx/lv_spinbox.h **** lv_obj_t * lv_spinbox_create(lv_obj_t * par, const lv_obj_t * copy);
  74:..\..\..\lvgl\version_6.1.2\lvgl\src\lv_objx/lv_spinbox.h **** 
  75:..\..\..\lvgl\version_6.1.2\lvgl\src\lv_objx/lv_spinbox.h **** /*=====================
  76:..\..\..\lvgl\version_6.1.2\lvgl\src\lv_objx/lv_spinbox.h ****  * Setter functions
  77:..\..\..\lvgl\version_6.1.2\lvgl\src\lv_objx/lv_spinbox.h ****  *====================*/
  78:..\..\..\lvgl\version_6.1.2\lvgl\src\lv_objx/lv_spinbox.h **** 
  79:..\..\..\lvgl\version_6.1.2\lvgl\src\lv_objx/lv_spinbox.h **** /**
  80:..\..\..\lvgl\version_6.1.2\lvgl\src\lv_objx/lv_spinbox.h ****  * Set a style of a spinbox.
  81:..\..\..\lvgl\version_6.1.2\lvgl\src\lv_objx/lv_spinbox.h ****  * @param templ pointer to template object
  82:..\..\..\lvgl\version_6.1.2\lvgl\src\lv_objx/lv_spinbox.h ****  * @param type which style should be set
  83:..\..\..\lvgl\version_6.1.2\lvgl\src\lv_objx/lv_spinbox.h ****  * @param style pointer to a style
  84:..\..\..\lvgl\version_6.1.2\lvgl\src\lv_objx/lv_spinbox.h ****  */
  85:..\..\..\lvgl\version_6.1.2\lvgl\src\lv_objx/lv_spinbox.h **** static inline void lv_spinbox_set_style(lv_obj_t * spinbox, lv_spinbox_style_t type, lv_style_t * s
  86:..\..\..\lvgl\version_6.1.2\lvgl\src\lv_objx/lv_spinbox.h **** {
  28              		.loc 1 86 0
ARM GAS  C:\Users\tmj32\AppData\Local\Temp\cci6nv1n.s 			page 3


  29              		.cfi_startproc
  30              		@ args = 0, pretend = 0, frame = 16
  31              		@ frame_needed = 1, uses_anonymous_args = 0
  32 0000 80B5     		push	{r7, lr}
  33              		.cfi_def_cfa_offset 8
  34              		.cfi_offset 7, -8
  35              		.cfi_offset 14, -4
  36 0002 84B0     		sub	sp, sp, #16
  37              		.cfi_def_cfa_offset 24
  38 0004 00AF     		add	r7, sp, #0
  39              		.cfi_def_cfa_register 7
  40 0006 F860     		str	r0, [r7, #12]
  41 0008 0B46     		mov	r3, r1
  42 000a 7A60     		str	r2, [r7, #4]
  43 000c FB72     		strb	r3, [r7, #11]
  87:..\..\..\lvgl\version_6.1.2\lvgl\src\lv_objx/lv_spinbox.h ****     lv_ta_set_style(spinbox, type, style);
  44              		.loc 1 87 0
  45 000e FB7A     		ldrb	r3, [r7, #11]	@ zero_extendqisi2
  46 0010 7A68     		ldr	r2, [r7, #4]
  47 0012 1946     		mov	r1, r3
  48 0014 F868     		ldr	r0, [r7, #12]
  49 0016 FFF7FEFF 		bl	lv_ta_set_style
  88:..\..\..\lvgl\version_6.1.2\lvgl\src\lv_objx/lv_spinbox.h **** }
  50              		.loc 1 88 0
  51 001a 00BF     		nop
  52 001c 1037     		adds	r7, r7, #16
  53              		.cfi_def_cfa_offset 8
  54 001e BD46     		mov	sp, r7
  55              		.cfi_def_cfa_register 13
  56              		@ sp needed
  57 0020 80BD     		pop	{r7, pc}
  58              		.cfi_endproc
  59              	.LFE56:
  60              		.size	lv_spinbox_set_style, .-lv_spinbox_set_style
  61 0022 00BF     		.bss
  62              		.align	2
  63              	ancestor_signal:
  64 0000 00000000 		.space	4
  65              		.align	2
  66              	ancestor_design:
  67 0004 00000000 		.space	4
  68              		.section	.text.lv_spinbox_create,"ax",%progbits
  69              		.align	2
  70              		.global	lv_spinbox_create
  71              		.thumb
  72              		.thumb_func
  73              		.type	lv_spinbox_create, %function
  74              	lv_spinbox_create:
  75              	.LFB58:
  76              		.file 2 "..\\..\\..\\lvgl\\version_6.1.2\\lvgl\\src\\lv_objx\\lv_spinbox.c"
   1:..\..\..\lvgl\version_6.1.2\lvgl\src\lv_objx/lv_spinbox.c **** /**
   2:..\..\..\lvgl\version_6.1.2\lvgl\src\lv_objx/lv_spinbox.c ****  * @file lv_spinbox.c
   3:..\..\..\lvgl\version_6.1.2\lvgl\src\lv_objx/lv_spinbox.c ****  *
   4:..\..\..\lvgl\version_6.1.2\lvgl\src\lv_objx/lv_spinbox.c ****  */
   5:..\..\..\lvgl\version_6.1.2\lvgl\src\lv_objx/lv_spinbox.c **** 
   6:..\..\..\lvgl\version_6.1.2\lvgl\src\lv_objx/lv_spinbox.c **** /*********************
   7:..\..\..\lvgl\version_6.1.2\lvgl\src\lv_objx/lv_spinbox.c ****  *      INCLUDES
ARM GAS  C:\Users\tmj32\AppData\Local\Temp\cci6nv1n.s 			page 4


   8:..\..\..\lvgl\version_6.1.2\lvgl\src\lv_objx/lv_spinbox.c ****  *********************/
   9:..\..\..\lvgl\version_6.1.2\lvgl\src\lv_objx/lv_spinbox.c **** #include "lv_spinbox.h"
  10:..\..\..\lvgl\version_6.1.2\lvgl\src\lv_objx/lv_spinbox.c **** 
  11:..\..\..\lvgl\version_6.1.2\lvgl\src\lv_objx/lv_spinbox.c **** #if LV_USE_SPINBOX != 0
  12:..\..\..\lvgl\version_6.1.2\lvgl\src\lv_objx/lv_spinbox.c **** #include "../lv_core/lv_debug.h"
  13:..\..\..\lvgl\version_6.1.2\lvgl\src\lv_objx/lv_spinbox.c **** #include "../lv_themes/lv_theme.h"
  14:..\..\..\lvgl\version_6.1.2\lvgl\src\lv_objx/lv_spinbox.c **** #include "../lv_misc/lv_math.h"
  15:..\..\..\lvgl\version_6.1.2\lvgl\src\lv_objx/lv_spinbox.c **** #include "../lv_misc/lv_utils.h"
  16:..\..\..\lvgl\version_6.1.2\lvgl\src\lv_objx/lv_spinbox.c **** 
  17:..\..\..\lvgl\version_6.1.2\lvgl\src\lv_objx/lv_spinbox.c **** /*********************
  18:..\..\..\lvgl\version_6.1.2\lvgl\src\lv_objx/lv_spinbox.c ****  *      DEFINES
  19:..\..\..\lvgl\version_6.1.2\lvgl\src\lv_objx/lv_spinbox.c ****  *********************/
  20:..\..\..\lvgl\version_6.1.2\lvgl\src\lv_objx/lv_spinbox.c **** #define LV_OBJX_NAME "lv_spinbox"
  21:..\..\..\lvgl\version_6.1.2\lvgl\src\lv_objx/lv_spinbox.c **** 
  22:..\..\..\lvgl\version_6.1.2\lvgl\src\lv_objx/lv_spinbox.c **** /**********************
  23:..\..\..\lvgl\version_6.1.2\lvgl\src\lv_objx/lv_spinbox.c ****  *      TYPEDEFS
  24:..\..\..\lvgl\version_6.1.2\lvgl\src\lv_objx/lv_spinbox.c ****  **********************/
  25:..\..\..\lvgl\version_6.1.2\lvgl\src\lv_objx/lv_spinbox.c **** 
  26:..\..\..\lvgl\version_6.1.2\lvgl\src\lv_objx/lv_spinbox.c **** /**********************
  27:..\..\..\lvgl\version_6.1.2\lvgl\src\lv_objx/lv_spinbox.c ****  *  STATIC PROTOTYPES
  28:..\..\..\lvgl\version_6.1.2\lvgl\src\lv_objx/lv_spinbox.c ****  **********************/
  29:..\..\..\lvgl\version_6.1.2\lvgl\src\lv_objx/lv_spinbox.c **** static lv_res_t lv_spinbox_signal(lv_obj_t * spinbox, lv_signal_t sign, void * param);
  30:..\..\..\lvgl\version_6.1.2\lvgl\src\lv_objx/lv_spinbox.c **** static void lv_spinbox_updatevalue(lv_obj_t * spinbox);
  31:..\..\..\lvgl\version_6.1.2\lvgl\src\lv_objx/lv_spinbox.c **** 
  32:..\..\..\lvgl\version_6.1.2\lvgl\src\lv_objx/lv_spinbox.c **** /**********************
  33:..\..\..\lvgl\version_6.1.2\lvgl\src\lv_objx/lv_spinbox.c ****  *  STATIC VARIABLES
  34:..\..\..\lvgl\version_6.1.2\lvgl\src\lv_objx/lv_spinbox.c ****  **********************/
  35:..\..\..\lvgl\version_6.1.2\lvgl\src\lv_objx/lv_spinbox.c **** static lv_signal_cb_t ancestor_signal;
  36:..\..\..\lvgl\version_6.1.2\lvgl\src\lv_objx/lv_spinbox.c **** static lv_design_cb_t ancestor_design;
  37:..\..\..\lvgl\version_6.1.2\lvgl\src\lv_objx/lv_spinbox.c **** 
  38:..\..\..\lvgl\version_6.1.2\lvgl\src\lv_objx/lv_spinbox.c **** /**********************
  39:..\..\..\lvgl\version_6.1.2\lvgl\src\lv_objx/lv_spinbox.c ****  *      MACROS
  40:..\..\..\lvgl\version_6.1.2\lvgl\src\lv_objx/lv_spinbox.c ****  **********************/
  41:..\..\..\lvgl\version_6.1.2\lvgl\src\lv_objx/lv_spinbox.c **** 
  42:..\..\..\lvgl\version_6.1.2\lvgl\src\lv_objx/lv_spinbox.c **** /**********************
  43:..\..\..\lvgl\version_6.1.2\lvgl\src\lv_objx/lv_spinbox.c ****  *   GLOBAL FUNCTIONS
  44:..\..\..\lvgl\version_6.1.2\lvgl\src\lv_objx/lv_spinbox.c ****  **********************/
  45:..\..\..\lvgl\version_6.1.2\lvgl\src\lv_objx/lv_spinbox.c **** 
  46:..\..\..\lvgl\version_6.1.2\lvgl\src\lv_objx/lv_spinbox.c **** /**
  47:..\..\..\lvgl\version_6.1.2\lvgl\src\lv_objx/lv_spinbox.c ****  * Create a spinbox object
  48:..\..\..\lvgl\version_6.1.2\lvgl\src\lv_objx/lv_spinbox.c ****  * @param par pointer to an object, it will be the parent of the new spinbox
  49:..\..\..\lvgl\version_6.1.2\lvgl\src\lv_objx/lv_spinbox.c ****  * @param copy pointer to a spinbox object, if not NULL then the new object will be copied from it
  50:..\..\..\lvgl\version_6.1.2\lvgl\src\lv_objx/lv_spinbox.c ****  * @return pointer to the created spinbox
  51:..\..\..\lvgl\version_6.1.2\lvgl\src\lv_objx/lv_spinbox.c ****  */
  52:..\..\..\lvgl\version_6.1.2\lvgl\src\lv_objx/lv_spinbox.c **** lv_obj_t * lv_spinbox_create(lv_obj_t * par, const lv_obj_t * copy)
  53:..\..\..\lvgl\version_6.1.2\lvgl\src\lv_objx/lv_spinbox.c **** {
  77              		.loc 2 53 0
  78              		.cfi_startproc
  79              		@ args = 0, pretend = 0, frame = 24
  80              		@ frame_needed = 1, uses_anonymous_args = 0
  81 0000 80B5     		push	{r7, lr}
  82              		.cfi_def_cfa_offset 8
  83              		.cfi_offset 7, -8
  84              		.cfi_offset 14, -4
  85 0002 86B0     		sub	sp, sp, #24
  86              		.cfi_def_cfa_offset 32
  87 0004 00AF     		add	r7, sp, #0
ARM GAS  C:\Users\tmj32\AppData\Local\Temp\cci6nv1n.s 			page 5


  88              		.cfi_def_cfa_register 7
  89 0006 7860     		str	r0, [r7, #4]
  90 0008 3960     		str	r1, [r7]
  54:..\..\..\lvgl\version_6.1.2\lvgl\src\lv_objx/lv_spinbox.c ****     LV_LOG_TRACE("spinbox create started");
  55:..\..\..\lvgl\version_6.1.2\lvgl\src\lv_objx/lv_spinbox.c **** 
  56:..\..\..\lvgl\version_6.1.2\lvgl\src\lv_objx/lv_spinbox.c ****     /*Create the ancestor of spinbox*/
  57:..\..\..\lvgl\version_6.1.2\lvgl\src\lv_objx/lv_spinbox.c ****     lv_obj_t * new_spinbox = lv_ta_create(par, copy);
  91              		.loc 2 57 0
  92 000a 3968     		ldr	r1, [r7]
  93 000c 7868     		ldr	r0, [r7, #4]
  94 000e FFF7FEFF 		bl	lv_ta_create
  95 0012 7861     		str	r0, [r7, #20]
  58:..\..\..\lvgl\version_6.1.2\lvgl\src\lv_objx/lv_spinbox.c ****     LV_ASSERT_MEM(new_spinbox);
  59:..\..\..\lvgl\version_6.1.2\lvgl\src\lv_objx/lv_spinbox.c ****     if(new_spinbox == NULL) return NULL;
  96              		.loc 2 59 0
  97 0014 7B69     		ldr	r3, [r7, #20]
  98 0016 002B     		cmp	r3, #0
  99 0018 01D1     		bne	.L3
 100              		.loc 2 59 0 is_stmt 0 discriminator 1
 101 001a 0023     		movs	r3, #0
 102 001c A7E0     		b	.L4
 103              	.L3:
  60:..\..\..\lvgl\version_6.1.2\lvgl\src\lv_objx/lv_spinbox.c **** 
  61:..\..\..\lvgl\version_6.1.2\lvgl\src\lv_objx/lv_spinbox.c ****     /*Allocate the spinbox type specific extended data*/
  62:..\..\..\lvgl\version_6.1.2\lvgl\src\lv_objx/lv_spinbox.c ****     lv_spinbox_ext_t * ext = lv_obj_allocate_ext_attr(new_spinbox, sizeof(lv_spinbox_ext_t));
 104              		.loc 2 62 0 is_stmt 1
 105 001e 7421     		movs	r1, #116
 106 0020 7869     		ldr	r0, [r7, #20]
 107 0022 FFF7FEFF 		bl	lv_obj_allocate_ext_attr
 108 0026 3861     		str	r0, [r7, #16]
  63:..\..\..\lvgl\version_6.1.2\lvgl\src\lv_objx/lv_spinbox.c ****     LV_ASSERT_MEM(ext);
  64:..\..\..\lvgl\version_6.1.2\lvgl\src\lv_objx/lv_spinbox.c ****     if(ext == NULL) return NULL;
 109              		.loc 2 64 0
 110 0028 3B69     		ldr	r3, [r7, #16]
 111 002a 002B     		cmp	r3, #0
 112 002c 01D1     		bne	.L5
 113              		.loc 2 64 0 is_stmt 0 discriminator 1
 114 002e 0023     		movs	r3, #0
 115 0030 9DE0     		b	.L4
 116              	.L5:
  65:..\..\..\lvgl\version_6.1.2\lvgl\src\lv_objx/lv_spinbox.c ****     if(ancestor_signal == NULL) ancestor_signal = lv_obj_get_signal_cb(new_spinbox);
 117              		.loc 2 65 0 is_stmt 1
 118 0032 514B     		ldr	r3, .L11
 119 0034 1B68     		ldr	r3, [r3]
 120 0036 002B     		cmp	r3, #0
 121 0038 05D1     		bne	.L6
 122              		.loc 2 65 0 is_stmt 0 discriminator 1
 123 003a 7869     		ldr	r0, [r7, #20]
 124 003c FFF7FEFF 		bl	lv_obj_get_signal_cb
 125 0040 0246     		mov	r2, r0
 126 0042 4D4B     		ldr	r3, .L11
 127 0044 1A60     		str	r2, [r3]
 128              	.L6:
  66:..\..\..\lvgl\version_6.1.2\lvgl\src\lv_objx/lv_spinbox.c ****     if(ancestor_design == NULL) ancestor_design = lv_obj_get_design_cb(new_spinbox);
 129              		.loc 2 66 0 is_stmt 1
 130 0046 4D4B     		ldr	r3, .L11+4
 131 0048 1B68     		ldr	r3, [r3]
ARM GAS  C:\Users\tmj32\AppData\Local\Temp\cci6nv1n.s 			page 6


 132 004a 002B     		cmp	r3, #0
 133 004c 05D1     		bne	.L7
 134              		.loc 2 66 0 is_stmt 0 discriminator 1
 135 004e 7869     		ldr	r0, [r7, #20]
 136 0050 FFF7FEFF 		bl	lv_obj_get_design_cb
 137 0054 0246     		mov	r2, r0
 138 0056 494B     		ldr	r3, .L11+4
 139 0058 1A60     		str	r2, [r3]
 140              	.L7:
  67:..\..\..\lvgl\version_6.1.2\lvgl\src\lv_objx/lv_spinbox.c **** 
  68:..\..\..\lvgl\version_6.1.2\lvgl\src\lv_objx/lv_spinbox.c ****     /*Initialize the allocated 'ext'*/
  69:..\..\..\lvgl\version_6.1.2\lvgl\src\lv_objx/lv_spinbox.c ****     ext->value              = 0;
 141              		.loc 2 69 0 is_stmt 1
 142 005a 3B69     		ldr	r3, [r7, #16]
 143 005c 0022     		movs	r2, #0
 144 005e 1A66     		str	r2, [r3, #96]
  70:..\..\..\lvgl\version_6.1.2\lvgl\src\lv_objx/lv_spinbox.c ****     ext->dec_point_pos      = 0;
 145              		.loc 2 70 0
 146 0060 3A69     		ldr	r2, [r7, #16]
 147 0062 92F87030 		ldrb	r3, [r2, #112]
 148 0066 6FF30713 		bfc	r3, #4, #4
 149 006a 82F87030 		strb	r3, [r2, #112]
  71:..\..\..\lvgl\version_6.1.2\lvgl\src\lv_objx/lv_spinbox.c ****     ext->digit_count        = 5;
 150              		.loc 2 71 0
 151 006e 3A69     		ldr	r2, [r7, #16]
 152 0070 92F87030 		ldrb	r3, [r2, #112]
 153 0074 0521     		movs	r1, #5
 154 0076 61F30303 		bfi	r3, r1, #0, #4
 155 007a 82F87030 		strb	r3, [r2, #112]
  72:..\..\..\lvgl\version_6.1.2\lvgl\src\lv_objx/lv_spinbox.c ****     ext->digit_padding_left = 0;
 156              		.loc 2 72 0
 157 007e 3A69     		ldr	r2, [r7, #16]
 158 0080 92F87130 		ldrb	r3, [r2, #113]
 159 0084 6FF30303 		bfc	r3, #0, #4
 160 0088 82F87130 		strb	r3, [r2, #113]
  73:..\..\..\lvgl\version_6.1.2\lvgl\src\lv_objx/lv_spinbox.c ****     ext->step               = 1;
 161              		.loc 2 73 0
 162 008c 3B69     		ldr	r3, [r7, #16]
 163 008e 0122     		movs	r2, #1
 164 0090 DA66     		str	r2, [r3, #108]
  74:..\..\..\lvgl\version_6.1.2\lvgl\src\lv_objx/lv_spinbox.c ****     ext->range_max          = 99999;
 165              		.loc 2 74 0
 166 0092 3B69     		ldr	r3, [r7, #16]
 167 0094 3A4A     		ldr	r2, .L11+8
 168 0096 5A66     		str	r2, [r3, #100]
  75:..\..\..\lvgl\version_6.1.2\lvgl\src\lv_objx/lv_spinbox.c ****     ext->range_min          = -99999;
 169              		.loc 2 75 0
 170 0098 3B69     		ldr	r3, [r7, #16]
 171 009a 3A4A     		ldr	r2, .L11+12
 172 009c 9A66     		str	r2, [r3, #104]
  76:..\..\..\lvgl\version_6.1.2\lvgl\src\lv_objx/lv_spinbox.c **** 
  77:..\..\..\lvgl\version_6.1.2\lvgl\src\lv_objx/lv_spinbox.c ****     lv_ta_set_cursor_type(new_spinbox, LV_CURSOR_BLOCK);
 173              		.loc 2 77 0
 174 009e 0221     		movs	r1, #2
 175 00a0 7869     		ldr	r0, [r7, #20]
 176 00a2 FFF7FEFF 		bl	lv_ta_set_cursor_type
  78:..\..\..\lvgl\version_6.1.2\lvgl\src\lv_objx/lv_spinbox.c ****     lv_ta_set_one_line(new_spinbox, true);
ARM GAS  C:\Users\tmj32\AppData\Local\Temp\cci6nv1n.s 			page 7


 177              		.loc 2 78 0
 178 00a6 0121     		movs	r1, #1
 179 00a8 7869     		ldr	r0, [r7, #20]
 180 00aa FFF7FEFF 		bl	lv_ta_set_one_line
  79:..\..\..\lvgl\version_6.1.2\lvgl\src\lv_objx/lv_spinbox.c ****     lv_ta_set_cursor_click_pos(new_spinbox, false);
 181              		.loc 2 79 0
 182 00ae 0021     		movs	r1, #0
 183 00b0 7869     		ldr	r0, [r7, #20]
 184 00b2 FFF7FEFF 		bl	lv_ta_set_cursor_click_pos
  80:..\..\..\lvgl\version_6.1.2\lvgl\src\lv_objx/lv_spinbox.c **** 
  81:..\..\..\lvgl\version_6.1.2\lvgl\src\lv_objx/lv_spinbox.c ****     /*The signal and design functions are not copied so set them here*/
  82:..\..\..\lvgl\version_6.1.2\lvgl\src\lv_objx/lv_spinbox.c ****     lv_obj_set_signal_cb(new_spinbox, lv_spinbox_signal);
 185              		.loc 2 82 0
 186 00b6 3449     		ldr	r1, .L11+16
 187 00b8 7869     		ldr	r0, [r7, #20]
 188 00ba FFF7FEFF 		bl	lv_obj_set_signal_cb
  83:..\..\..\lvgl\version_6.1.2\lvgl\src\lv_objx/lv_spinbox.c ****     lv_obj_set_design_cb(new_spinbox, ancestor_design); /*Leave the Text area's design function*/
 189              		.loc 2 83 0
 190 00be 2F4B     		ldr	r3, .L11+4
 191 00c0 1B68     		ldr	r3, [r3]
 192 00c2 1946     		mov	r1, r3
 193 00c4 7869     		ldr	r0, [r7, #20]
 194 00c6 FFF7FEFF 		bl	lv_obj_set_design_cb
  84:..\..\..\lvgl\version_6.1.2\lvgl\src\lv_objx/lv_spinbox.c **** 
  85:..\..\..\lvgl\version_6.1.2\lvgl\src\lv_objx/lv_spinbox.c ****     /*Init the new spinbox spinbox*/
  86:..\..\..\lvgl\version_6.1.2\lvgl\src\lv_objx/lv_spinbox.c ****     if(copy == NULL) {
 195              		.loc 2 86 0
 196 00ca 3B68     		ldr	r3, [r7]
 197 00cc 002B     		cmp	r3, #0
 198 00ce 1ED1     		bne	.L8
 199              	.LBB2:
  87:..\..\..\lvgl\version_6.1.2\lvgl\src\lv_objx/lv_spinbox.c ****         /*Set the default styles*/
  88:..\..\..\lvgl\version_6.1.2\lvgl\src\lv_objx/lv_spinbox.c ****         lv_theme_t * th = lv_theme_get_current();
 200              		.loc 2 88 0
 201 00d0 FFF7FEFF 		bl	lv_theme_get_current
 202 00d4 F860     		str	r0, [r7, #12]
  89:..\..\..\lvgl\version_6.1.2\lvgl\src\lv_objx/lv_spinbox.c ****         if(th) {
 203              		.loc 2 89 0
 204 00d6 FB68     		ldr	r3, [r7, #12]
 205 00d8 002B     		cmp	r3, #0
 206 00da 44D0     		beq	.L10
  90:..\..\..\lvgl\version_6.1.2\lvgl\src\lv_objx/lv_spinbox.c ****             lv_spinbox_set_style(new_spinbox, LV_SPINBOX_STYLE_BG, th->style.spinbox.bg);
 207              		.loc 2 90 0
 208 00dc FB68     		ldr	r3, [r7, #12]
 209 00de D3F82031 		ldr	r3, [r3, #288]
 210 00e2 1A46     		mov	r2, r3
 211 00e4 0021     		movs	r1, #0
 212 00e6 7869     		ldr	r0, [r7, #20]
 213 00e8 FFF7FEFF 		bl	lv_spinbox_set_style
  91:..\..\..\lvgl\version_6.1.2\lvgl\src\lv_objx/lv_spinbox.c ****             lv_spinbox_set_style(new_spinbox, LV_SPINBOX_STYLE_CURSOR, th->style.spinbox.cursor);
 214              		.loc 2 91 0
 215 00ec FB68     		ldr	r3, [r7, #12]
 216 00ee D3F82431 		ldr	r3, [r3, #292]
 217 00f2 1A46     		mov	r2, r3
 218 00f4 0221     		movs	r1, #2
 219 00f6 7869     		ldr	r0, [r7, #20]
 220 00f8 FFF7FEFF 		bl	lv_spinbox_set_style
ARM GAS  C:\Users\tmj32\AppData\Local\Temp\cci6nv1n.s 			page 8


  92:..\..\..\lvgl\version_6.1.2\lvgl\src\lv_objx/lv_spinbox.c ****             lv_spinbox_set_style(new_spinbox, LV_SPINBOX_STYLE_SB, th->style.spinbox.sb);
 221              		.loc 2 92 0
 222 00fc FB68     		ldr	r3, [r7, #12]
 223 00fe D3F82831 		ldr	r3, [r3, #296]
 224 0102 1A46     		mov	r2, r3
 225 0104 0121     		movs	r1, #1
 226 0106 7869     		ldr	r0, [r7, #20]
 227 0108 FFF7FEFF 		bl	lv_spinbox_set_style
 228 010c 2BE0     		b	.L10
 229              	.L8:
 230              	.LBE2:
 231              	.LBB3:
  93:..\..\..\lvgl\version_6.1.2\lvgl\src\lv_objx/lv_spinbox.c ****         }
  94:..\..\..\lvgl\version_6.1.2\lvgl\src\lv_objx/lv_spinbox.c ****     }
  95:..\..\..\lvgl\version_6.1.2\lvgl\src\lv_objx/lv_spinbox.c ****     /*Copy an existing spinbox*/
  96:..\..\..\lvgl\version_6.1.2\lvgl\src\lv_objx/lv_spinbox.c ****     else {
  97:..\..\..\lvgl\version_6.1.2\lvgl\src\lv_objx/lv_spinbox.c ****         lv_spinbox_ext_t * copy_ext = lv_obj_get_ext_attr(copy);
 232              		.loc 2 97 0
 233 010e 3868     		ldr	r0, [r7]
 234 0110 FFF7FEFF 		bl	lv_obj_get_ext_attr
 235 0114 B860     		str	r0, [r7, #8]
  98:..\..\..\lvgl\version_6.1.2\lvgl\src\lv_objx/lv_spinbox.c **** 
  99:..\..\..\lvgl\version_6.1.2\lvgl\src\lv_objx/lv_spinbox.c ****         lv_spinbox_set_value(new_spinbox, copy_ext->value);
 236              		.loc 2 99 0
 237 0116 BB68     		ldr	r3, [r7, #8]
 238 0118 1B6E     		ldr	r3, [r3, #96]
 239 011a 1946     		mov	r1, r3
 240 011c 7869     		ldr	r0, [r7, #20]
 241 011e FFF7FEFF 		bl	lv_spinbox_set_value
 100:..\..\..\lvgl\version_6.1.2\lvgl\src\lv_objx/lv_spinbox.c ****         lv_spinbox_set_digit_format(new_spinbox, (uint8_t)copy_ext->digit_count, (uint8_t)copy_ext-
 242              		.loc 2 100 0
 243 0122 BB68     		ldr	r3, [r7, #8]
 244 0124 93F87030 		ldrb	r3, [r3, #112]
 245 0128 C3F30303 		ubfx	r3, r3, #0, #4
 246 012c DBB2     		uxtb	r3, r3
 247 012e 1946     		mov	r1, r3
 248 0130 BB68     		ldr	r3, [r7, #8]
 249 0132 93F87030 		ldrb	r3, [r3, #112]
 250 0136 C3F30313 		ubfx	r3, r3, #4, #4
 251 013a DBB2     		uxtb	r3, r3
 252 013c 1A46     		mov	r2, r3
 253 013e 7869     		ldr	r0, [r7, #20]
 254 0140 FFF7FEFF 		bl	lv_spinbox_set_digit_format
 101:..\..\..\lvgl\version_6.1.2\lvgl\src\lv_objx/lv_spinbox.c ****         lv_spinbox_set_range(new_spinbox, copy_ext->range_min, copy_ext->range_max);
 255              		.loc 2 101 0
 256 0144 BB68     		ldr	r3, [r7, #8]
 257 0146 996E     		ldr	r1, [r3, #104]
 258 0148 BB68     		ldr	r3, [r7, #8]
 259 014a 5B6E     		ldr	r3, [r3, #100]
 260 014c 1A46     		mov	r2, r3
 261 014e 7869     		ldr	r0, [r7, #20]
 262 0150 FFF7FEFF 		bl	lv_spinbox_set_range
 102:..\..\..\lvgl\version_6.1.2\lvgl\src\lv_objx/lv_spinbox.c ****         lv_spinbox_set_step(new_spinbox, copy_ext->step);
 263              		.loc 2 102 0
 264 0154 BB68     		ldr	r3, [r7, #8]
 265 0156 DB6E     		ldr	r3, [r3, #108]
 266 0158 1946     		mov	r1, r3
ARM GAS  C:\Users\tmj32\AppData\Local\Temp\cci6nv1n.s 			page 9


 267 015a 7869     		ldr	r0, [r7, #20]
 268 015c FFF7FEFF 		bl	lv_spinbox_set_step
 103:..\..\..\lvgl\version_6.1.2\lvgl\src\lv_objx/lv_spinbox.c **** 
 104:..\..\..\lvgl\version_6.1.2\lvgl\src\lv_objx/lv_spinbox.c ****         /*Refresh the style with new signal function*/
 105:..\..\..\lvgl\version_6.1.2\lvgl\src\lv_objx/lv_spinbox.c ****         lv_obj_refresh_style(new_spinbox);
 269              		.loc 2 105 0
 270 0160 7869     		ldr	r0, [r7, #20]
 271 0162 FFF7FEFF 		bl	lv_obj_refresh_style
 272              	.L10:
 273              	.LBE3:
 106:..\..\..\lvgl\version_6.1.2\lvgl\src\lv_objx/lv_spinbox.c ****     }
 107:..\..\..\lvgl\version_6.1.2\lvgl\src\lv_objx/lv_spinbox.c **** 
 108:..\..\..\lvgl\version_6.1.2\lvgl\src\lv_objx/lv_spinbox.c ****     lv_spinbox_updatevalue(new_spinbox);
 274              		.loc 2 108 0
 275 0166 7869     		ldr	r0, [r7, #20]
 276 0168 FFF7FEFF 		bl	lv_spinbox_updatevalue
 109:..\..\..\lvgl\version_6.1.2\lvgl\src\lv_objx/lv_spinbox.c **** 
 110:..\..\..\lvgl\version_6.1.2\lvgl\src\lv_objx/lv_spinbox.c ****     LV_LOG_INFO("spinbox created");
 111:..\..\..\lvgl\version_6.1.2\lvgl\src\lv_objx/lv_spinbox.c **** 
 112:..\..\..\lvgl\version_6.1.2\lvgl\src\lv_objx/lv_spinbox.c ****     return new_spinbox;
 277              		.loc 2 112 0
 278 016c 7B69     		ldr	r3, [r7, #20]
 279              	.L4:
 113:..\..\..\lvgl\version_6.1.2\lvgl\src\lv_objx/lv_spinbox.c **** }
 280              		.loc 2 113 0
 281 016e 1846     		mov	r0, r3
 282 0170 1837     		adds	r7, r7, #24
 283              		.cfi_def_cfa_offset 8
 284 0172 BD46     		mov	sp, r7
 285              		.cfi_def_cfa_register 13
 286              		@ sp needed
 287 0174 80BD     		pop	{r7, pc}
 288              	.L12:
 289 0176 00BF     		.align	2
 290              	.L11:
 291 0178 00000000 		.word	ancestor_signal
 292 017c 04000000 		.word	ancestor_design
 293 0180 9F860100 		.word	99999
 294 0184 6179FEFF 		.word	-99999
 295 0188 00000000 		.word	lv_spinbox_signal
 296              		.cfi_endproc
 297              	.LFE58:
 298              		.size	lv_spinbox_create, .-lv_spinbox_create
 299              		.section	.text.lv_spinbox_set_value,"ax",%progbits
 300              		.align	2
 301              		.global	lv_spinbox_set_value
 302              		.thumb
 303              		.thumb_func
 304              		.type	lv_spinbox_set_value, %function
 305              	lv_spinbox_set_value:
 306              	.LFB59:
 114:..\..\..\lvgl\version_6.1.2\lvgl\src\lv_objx/lv_spinbox.c **** 
 115:..\..\..\lvgl\version_6.1.2\lvgl\src\lv_objx/lv_spinbox.c **** /*=====================
 116:..\..\..\lvgl\version_6.1.2\lvgl\src\lv_objx/lv_spinbox.c ****  * Setter functions
 117:..\..\..\lvgl\version_6.1.2\lvgl\src\lv_objx/lv_spinbox.c ****  *====================*/
 118:..\..\..\lvgl\version_6.1.2\lvgl\src\lv_objx/lv_spinbox.c **** 
 119:..\..\..\lvgl\version_6.1.2\lvgl\src\lv_objx/lv_spinbox.c **** /**
ARM GAS  C:\Users\tmj32\AppData\Local\Temp\cci6nv1n.s 			page 10


 120:..\..\..\lvgl\version_6.1.2\lvgl\src\lv_objx/lv_spinbox.c ****  * Set spinbox value
 121:..\..\..\lvgl\version_6.1.2\lvgl\src\lv_objx/lv_spinbox.c ****  * @param spinbox pointer to spinbox
 122:..\..\..\lvgl\version_6.1.2\lvgl\src\lv_objx/lv_spinbox.c ****  * @param i value to be set
 123:..\..\..\lvgl\version_6.1.2\lvgl\src\lv_objx/lv_spinbox.c ****  */
 124:..\..\..\lvgl\version_6.1.2\lvgl\src\lv_objx/lv_spinbox.c **** void lv_spinbox_set_value(lv_obj_t * spinbox, int32_t i)
 125:..\..\..\lvgl\version_6.1.2\lvgl\src\lv_objx/lv_spinbox.c **** {
 307              		.loc 2 125 0
 308              		.cfi_startproc
 309              		@ args = 0, pretend = 0, frame = 16
 310              		@ frame_needed = 1, uses_anonymous_args = 0
 311 0000 80B5     		push	{r7, lr}
 312              		.cfi_def_cfa_offset 8
 313              		.cfi_offset 7, -8
 314              		.cfi_offset 14, -4
 315 0002 84B0     		sub	sp, sp, #16
 316              		.cfi_def_cfa_offset 24
 317 0004 00AF     		add	r7, sp, #0
 318              		.cfi_def_cfa_register 7
 319 0006 7860     		str	r0, [r7, #4]
 320 0008 3960     		str	r1, [r7]
 126:..\..\..\lvgl\version_6.1.2\lvgl\src\lv_objx/lv_spinbox.c ****     LV_ASSERT_OBJ(spinbox, LV_OBJX_NAME);
 127:..\..\..\lvgl\version_6.1.2\lvgl\src\lv_objx/lv_spinbox.c **** 
 128:..\..\..\lvgl\version_6.1.2\lvgl\src\lv_objx/lv_spinbox.c ****     lv_spinbox_ext_t * ext = lv_obj_get_ext_attr(spinbox);
 321              		.loc 2 128 0
 322 000a 7868     		ldr	r0, [r7, #4]
 323 000c FFF7FEFF 		bl	lv_obj_get_ext_attr
 324 0010 F860     		str	r0, [r7, #12]
 129:..\..\..\lvgl\version_6.1.2\lvgl\src\lv_objx/lv_spinbox.c ****     if(ext == NULL) return;
 325              		.loc 2 129 0
 326 0012 FB68     		ldr	r3, [r7, #12]
 327 0014 002B     		cmp	r3, #0
 328 0016 16D0     		beq	.L18
 130:..\..\..\lvgl\version_6.1.2\lvgl\src\lv_objx/lv_spinbox.c **** 
 131:..\..\..\lvgl\version_6.1.2\lvgl\src\lv_objx/lv_spinbox.c ****     if(i > ext->range_max) i = ext->range_max;
 329              		.loc 2 131 0
 330 0018 FB68     		ldr	r3, [r7, #12]
 331 001a 5A6E     		ldr	r2, [r3, #100]
 332 001c 3B68     		ldr	r3, [r7]
 333 001e 9A42     		cmp	r2, r3
 334 0020 02DA     		bge	.L16
 335              		.loc 2 131 0 is_stmt 0 discriminator 1
 336 0022 FB68     		ldr	r3, [r7, #12]
 337 0024 5B6E     		ldr	r3, [r3, #100]
 338 0026 3B60     		str	r3, [r7]
 339              	.L16:
 132:..\..\..\lvgl\version_6.1.2\lvgl\src\lv_objx/lv_spinbox.c ****     if(i < ext->range_min) i = ext->range_min;
 340              		.loc 2 132 0 is_stmt 1
 341 0028 FB68     		ldr	r3, [r7, #12]
 342 002a 9A6E     		ldr	r2, [r3, #104]
 343 002c 3B68     		ldr	r3, [r7]
 344 002e 9A42     		cmp	r2, r3
 345 0030 02DD     		ble	.L17
 346              		.loc 2 132 0 is_stmt 0 discriminator 1
 347 0032 FB68     		ldr	r3, [r7, #12]
 348 0034 9B6E     		ldr	r3, [r3, #104]
 349 0036 3B60     		str	r3, [r7]
 350              	.L17:
ARM GAS  C:\Users\tmj32\AppData\Local\Temp\cci6nv1n.s 			page 11


 133:..\..\..\lvgl\version_6.1.2\lvgl\src\lv_objx/lv_spinbox.c **** 
 134:..\..\..\lvgl\version_6.1.2\lvgl\src\lv_objx/lv_spinbox.c ****     ext->value = i;
 351              		.loc 2 134 0 is_stmt 1
 352 0038 FB68     		ldr	r3, [r7, #12]
 353 003a 3A68     		ldr	r2, [r7]
 354 003c 1A66     		str	r2, [r3, #96]
 135:..\..\..\lvgl\version_6.1.2\lvgl\src\lv_objx/lv_spinbox.c **** 
 136:..\..\..\lvgl\version_6.1.2\lvgl\src\lv_objx/lv_spinbox.c ****     lv_spinbox_updatevalue(spinbox);
 355              		.loc 2 136 0
 356 003e 7868     		ldr	r0, [r7, #4]
 357 0040 FFF7FEFF 		bl	lv_spinbox_updatevalue
 358 0044 00E0     		b	.L13
 359              	.L18:
 129:..\..\..\lvgl\version_6.1.2\lvgl\src\lv_objx/lv_spinbox.c **** 
 360              		.loc 2 129 0
 361 0046 00BF     		nop
 362              	.L13:
 137:..\..\..\lvgl\version_6.1.2\lvgl\src\lv_objx/lv_spinbox.c **** }
 363              		.loc 2 137 0
 364 0048 1037     		adds	r7, r7, #16
 365              		.cfi_def_cfa_offset 8
 366 004a BD46     		mov	sp, r7
 367              		.cfi_def_cfa_register 13
 368              		@ sp needed
 369 004c 80BD     		pop	{r7, pc}
 370              		.cfi_endproc
 371              	.LFE59:
 372              		.size	lv_spinbox_set_value, .-lv_spinbox_set_value
 373 004e 00BF     		.section	.text.lv_spinbox_set_digit_format,"ax",%progbits
 374              		.align	2
 375              		.global	lv_spinbox_set_digit_format
 376              		.thumb
 377              		.thumb_func
 378              		.type	lv_spinbox_set_digit_format, %function
 379              	lv_spinbox_set_digit_format:
 380              	.LFB60:
 138:..\..\..\lvgl\version_6.1.2\lvgl\src\lv_objx/lv_spinbox.c **** 
 139:..\..\..\lvgl\version_6.1.2\lvgl\src\lv_objx/lv_spinbox.c **** /**
 140:..\..\..\lvgl\version_6.1.2\lvgl\src\lv_objx/lv_spinbox.c ****  * Set spinbox digit format (digit count and decimal format)
 141:..\..\..\lvgl\version_6.1.2\lvgl\src\lv_objx/lv_spinbox.c ****  * @param spinbox pointer to spinbox
 142:..\..\..\lvgl\version_6.1.2\lvgl\src\lv_objx/lv_spinbox.c ****  * @param digit_count number of digit excluding the decimal separator and the sign
 143:..\..\..\lvgl\version_6.1.2\lvgl\src\lv_objx/lv_spinbox.c ****  * @param separator_position number of digit before the decimal point. If 0, decimal point is not
 144:..\..\..\lvgl\version_6.1.2\lvgl\src\lv_objx/lv_spinbox.c ****  * shown
 145:..\..\..\lvgl\version_6.1.2\lvgl\src\lv_objx/lv_spinbox.c ****  */
 146:..\..\..\lvgl\version_6.1.2\lvgl\src\lv_objx/lv_spinbox.c **** void lv_spinbox_set_digit_format(lv_obj_t * spinbox, uint8_t digit_count, uint8_t separator_positio
 147:..\..\..\lvgl\version_6.1.2\lvgl\src\lv_objx/lv_spinbox.c **** {
 381              		.loc 2 147 0
 382              		.cfi_startproc
 383              		@ args = 0, pretend = 0, frame = 16
 384              		@ frame_needed = 1, uses_anonymous_args = 0
 385 0000 80B5     		push	{r7, lr}
 386              		.cfi_def_cfa_offset 8
 387              		.cfi_offset 7, -8
 388              		.cfi_offset 14, -4
 389 0002 84B0     		sub	sp, sp, #16
 390              		.cfi_def_cfa_offset 24
 391 0004 00AF     		add	r7, sp, #0
ARM GAS  C:\Users\tmj32\AppData\Local\Temp\cci6nv1n.s 			page 12


 392              		.cfi_def_cfa_register 7
 393 0006 7860     		str	r0, [r7, #4]
 394 0008 0B46     		mov	r3, r1
 395 000a FB70     		strb	r3, [r7, #3]
 396 000c 1346     		mov	r3, r2
 397 000e BB70     		strb	r3, [r7, #2]
 148:..\..\..\lvgl\version_6.1.2\lvgl\src\lv_objx/lv_spinbox.c ****     LV_ASSERT_OBJ(spinbox, LV_OBJX_NAME);
 149:..\..\..\lvgl\version_6.1.2\lvgl\src\lv_objx/lv_spinbox.c **** 
 150:..\..\..\lvgl\version_6.1.2\lvgl\src\lv_objx/lv_spinbox.c ****     lv_spinbox_ext_t * ext = lv_obj_get_ext_attr(spinbox);
 398              		.loc 2 150 0
 399 0010 7868     		ldr	r0, [r7, #4]
 400 0012 FFF7FEFF 		bl	lv_obj_get_ext_attr
 401 0016 F860     		str	r0, [r7, #12]
 151:..\..\..\lvgl\version_6.1.2\lvgl\src\lv_objx/lv_spinbox.c ****     if(ext == NULL) return;
 402              		.loc 2 151 0
 403 0018 FB68     		ldr	r3, [r7, #12]
 404 001a 002B     		cmp	r3, #0
 405 001c 23D0     		beq	.L24
 152:..\..\..\lvgl\version_6.1.2\lvgl\src\lv_objx/lv_spinbox.c **** 
 153:..\..\..\lvgl\version_6.1.2\lvgl\src\lv_objx/lv_spinbox.c ****     if(digit_count > LV_SPINBOX_MAX_DIGIT_COUNT) digit_count = LV_SPINBOX_MAX_DIGIT_COUNT;
 406              		.loc 2 153 0
 407 001e FB78     		ldrb	r3, [r7, #3]	@ zero_extendqisi2
 408 0020 102B     		cmp	r3, #16
 409 0022 01D9     		bls	.L22
 410              		.loc 2 153 0 is_stmt 0 discriminator 1
 411 0024 1023     		movs	r3, #16
 412 0026 FB70     		strb	r3, [r7, #3]
 413              	.L22:
 154:..\..\..\lvgl\version_6.1.2\lvgl\src\lv_objx/lv_spinbox.c **** 
 155:..\..\..\lvgl\version_6.1.2\lvgl\src\lv_objx/lv_spinbox.c ****     if(separator_position > LV_SPINBOX_MAX_DIGIT_COUNT) separator_position = LV_SPINBOX_MAX_DIGIT_C
 414              		.loc 2 155 0 is_stmt 1
 415 0028 BB78     		ldrb	r3, [r7, #2]	@ zero_extendqisi2
 416 002a 102B     		cmp	r3, #16
 417 002c 01D9     		bls	.L23
 418              		.loc 2 155 0 is_stmt 0 discriminator 1
 419 002e 1023     		movs	r3, #16
 420 0030 BB70     		strb	r3, [r7, #2]
 421              	.L23:
 156:..\..\..\lvgl\version_6.1.2\lvgl\src\lv_objx/lv_spinbox.c **** 
 157:..\..\..\lvgl\version_6.1.2\lvgl\src\lv_objx/lv_spinbox.c ****     ext->digit_count   = digit_count;
 422              		.loc 2 157 0 is_stmt 1
 423 0032 FB78     		ldrb	r3, [r7, #3]
 424 0034 03F00F03 		and	r3, r3, #15
 425 0038 D9B2     		uxtb	r1, r3
 426 003a FA68     		ldr	r2, [r7, #12]
 427 003c 92F87030 		ldrb	r3, [r2, #112]
 428 0040 61F30303 		bfi	r3, r1, #0, #4
 429 0044 82F87030 		strb	r3, [r2, #112]
 158:..\..\..\lvgl\version_6.1.2\lvgl\src\lv_objx/lv_spinbox.c ****     ext->dec_point_pos = separator_position;
 430              		.loc 2 158 0
 431 0048 BB78     		ldrb	r3, [r7, #2]
 432 004a 03F00F03 		and	r3, r3, #15
 433 004e D9B2     		uxtb	r1, r3
 434 0050 FA68     		ldr	r2, [r7, #12]
 435 0052 92F87030 		ldrb	r3, [r2, #112]
 436 0056 61F30713 		bfi	r3, r1, #4, #4
 437 005a 82F87030 		strb	r3, [r2, #112]
ARM GAS  C:\Users\tmj32\AppData\Local\Temp\cci6nv1n.s 			page 13


 159:..\..\..\lvgl\version_6.1.2\lvgl\src\lv_objx/lv_spinbox.c **** 
 160:..\..\..\lvgl\version_6.1.2\lvgl\src\lv_objx/lv_spinbox.c ****     lv_spinbox_updatevalue(spinbox);
 438              		.loc 2 160 0
 439 005e 7868     		ldr	r0, [r7, #4]
 440 0060 FFF7FEFF 		bl	lv_spinbox_updatevalue
 441 0064 00E0     		b	.L19
 442              	.L24:
 151:..\..\..\lvgl\version_6.1.2\lvgl\src\lv_objx/lv_spinbox.c **** 
 443              		.loc 2 151 0
 444 0066 00BF     		nop
 445              	.L19:
 161:..\..\..\lvgl\version_6.1.2\lvgl\src\lv_objx/lv_spinbox.c **** }
 446              		.loc 2 161 0
 447 0068 1037     		adds	r7, r7, #16
 448              		.cfi_def_cfa_offset 8
 449 006a BD46     		mov	sp, r7
 450              		.cfi_def_cfa_register 13
 451              		@ sp needed
 452 006c 80BD     		pop	{r7, pc}
 453              		.cfi_endproc
 454              	.LFE60:
 455              		.size	lv_spinbox_set_digit_format, .-lv_spinbox_set_digit_format
 456 006e 00BF     		.section	.text.lv_spinbox_set_step,"ax",%progbits
 457              		.align	2
 458              		.global	lv_spinbox_set_step
 459              		.thumb
 460              		.thumb_func
 461              		.type	lv_spinbox_set_step, %function
 462              	lv_spinbox_set_step:
 463              	.LFB61:
 162:..\..\..\lvgl\version_6.1.2\lvgl\src\lv_objx/lv_spinbox.c **** 
 163:..\..\..\lvgl\version_6.1.2\lvgl\src\lv_objx/lv_spinbox.c **** /**
 164:..\..\..\lvgl\version_6.1.2\lvgl\src\lv_objx/lv_spinbox.c ****  * Set spinbox step
 165:..\..\..\lvgl\version_6.1.2\lvgl\src\lv_objx/lv_spinbox.c ****  * @param spinbox pointer to spinbox
 166:..\..\..\lvgl\version_6.1.2\lvgl\src\lv_objx/lv_spinbox.c ****  * @param step steps on increment/decrement
 167:..\..\..\lvgl\version_6.1.2\lvgl\src\lv_objx/lv_spinbox.c ****  */
 168:..\..\..\lvgl\version_6.1.2\lvgl\src\lv_objx/lv_spinbox.c **** void lv_spinbox_set_step(lv_obj_t * spinbox, uint32_t step)
 169:..\..\..\lvgl\version_6.1.2\lvgl\src\lv_objx/lv_spinbox.c **** {
 464              		.loc 2 169 0
 465              		.cfi_startproc
 466              		@ args = 0, pretend = 0, frame = 16
 467              		@ frame_needed = 1, uses_anonymous_args = 0
 468 0000 80B5     		push	{r7, lr}
 469              		.cfi_def_cfa_offset 8
 470              		.cfi_offset 7, -8
 471              		.cfi_offset 14, -4
 472 0002 84B0     		sub	sp, sp, #16
 473              		.cfi_def_cfa_offset 24
 474 0004 00AF     		add	r7, sp, #0
 475              		.cfi_def_cfa_register 7
 476 0006 7860     		str	r0, [r7, #4]
 477 0008 3960     		str	r1, [r7]
 170:..\..\..\lvgl\version_6.1.2\lvgl\src\lv_objx/lv_spinbox.c ****     LV_ASSERT_OBJ(spinbox, LV_OBJX_NAME);
 171:..\..\..\lvgl\version_6.1.2\lvgl\src\lv_objx/lv_spinbox.c **** 
 172:..\..\..\lvgl\version_6.1.2\lvgl\src\lv_objx/lv_spinbox.c ****     lv_spinbox_ext_t * ext = lv_obj_get_ext_attr(spinbox);
 478              		.loc 2 172 0
 479 000a 7868     		ldr	r0, [r7, #4]
ARM GAS  C:\Users\tmj32\AppData\Local\Temp\cci6nv1n.s 			page 14


 480 000c FFF7FEFF 		bl	lv_obj_get_ext_attr
 481 0010 F860     		str	r0, [r7, #12]
 173:..\..\..\lvgl\version_6.1.2\lvgl\src\lv_objx/lv_spinbox.c ****     if(ext == NULL) return;
 482              		.loc 2 173 0
 483 0012 FB68     		ldr	r3, [r7, #12]
 484 0014 002B     		cmp	r3, #0
 485 0016 03D0     		beq	.L28
 174:..\..\..\lvgl\version_6.1.2\lvgl\src\lv_objx/lv_spinbox.c **** 
 175:..\..\..\lvgl\version_6.1.2\lvgl\src\lv_objx/lv_spinbox.c ****     ext->step = step;
 486              		.loc 2 175 0
 487 0018 3A68     		ldr	r2, [r7]
 488 001a FB68     		ldr	r3, [r7, #12]
 489 001c DA66     		str	r2, [r3, #108]
 490 001e 00E0     		b	.L25
 491              	.L28:
 173:..\..\..\lvgl\version_6.1.2\lvgl\src\lv_objx/lv_spinbox.c ****     if(ext == NULL) return;
 492              		.loc 2 173 0
 493 0020 00BF     		nop
 494              	.L25:
 176:..\..\..\lvgl\version_6.1.2\lvgl\src\lv_objx/lv_spinbox.c **** }
 495              		.loc 2 176 0
 496 0022 1037     		adds	r7, r7, #16
 497              		.cfi_def_cfa_offset 8
 498 0024 BD46     		mov	sp, r7
 499              		.cfi_def_cfa_register 13
 500              		@ sp needed
 501 0026 80BD     		pop	{r7, pc}
 502              		.cfi_endproc
 503              	.LFE61:
 504              		.size	lv_spinbox_set_step, .-lv_spinbox_set_step
 505              		.section	.text.lv_spinbox_set_range,"ax",%progbits
 506              		.align	2
 507              		.global	lv_spinbox_set_range
 508              		.thumb
 509              		.thumb_func
 510              		.type	lv_spinbox_set_range, %function
 511              	lv_spinbox_set_range:
 512              	.LFB62:
 177:..\..\..\lvgl\version_6.1.2\lvgl\src\lv_objx/lv_spinbox.c **** 
 178:..\..\..\lvgl\version_6.1.2\lvgl\src\lv_objx/lv_spinbox.c **** /**
 179:..\..\..\lvgl\version_6.1.2\lvgl\src\lv_objx/lv_spinbox.c ****  * Set spinbox value range
 180:..\..\..\lvgl\version_6.1.2\lvgl\src\lv_objx/lv_spinbox.c ****  * @param spinbox pointer to spinbox
 181:..\..\..\lvgl\version_6.1.2\lvgl\src\lv_objx/lv_spinbox.c ****  * @param range_min maximum value, inclusive
 182:..\..\..\lvgl\version_6.1.2\lvgl\src\lv_objx/lv_spinbox.c ****  * @param range_max minimum value, inclusive
 183:..\..\..\lvgl\version_6.1.2\lvgl\src\lv_objx/lv_spinbox.c ****  */
 184:..\..\..\lvgl\version_6.1.2\lvgl\src\lv_objx/lv_spinbox.c **** void lv_spinbox_set_range(lv_obj_t * spinbox, int32_t range_min, int32_t range_max)
 185:..\..\..\lvgl\version_6.1.2\lvgl\src\lv_objx/lv_spinbox.c **** {
 513              		.loc 2 185 0
 514              		.cfi_startproc
 515              		@ args = 0, pretend = 0, frame = 24
 516              		@ frame_needed = 1, uses_anonymous_args = 0
 517 0000 80B5     		push	{r7, lr}
 518              		.cfi_def_cfa_offset 8
 519              		.cfi_offset 7, -8
 520              		.cfi_offset 14, -4
 521 0002 86B0     		sub	sp, sp, #24
 522              		.cfi_def_cfa_offset 32
ARM GAS  C:\Users\tmj32\AppData\Local\Temp\cci6nv1n.s 			page 15


 523 0004 00AF     		add	r7, sp, #0
 524              		.cfi_def_cfa_register 7
 525 0006 F860     		str	r0, [r7, #12]
 526 0008 B960     		str	r1, [r7, #8]
 527 000a 7A60     		str	r2, [r7, #4]
 186:..\..\..\lvgl\version_6.1.2\lvgl\src\lv_objx/lv_spinbox.c ****     LV_ASSERT_OBJ(spinbox, LV_OBJX_NAME);
 187:..\..\..\lvgl\version_6.1.2\lvgl\src\lv_objx/lv_spinbox.c **** 
 188:..\..\..\lvgl\version_6.1.2\lvgl\src\lv_objx/lv_spinbox.c ****     lv_spinbox_ext_t * ext = lv_obj_get_ext_attr(spinbox);
 528              		.loc 2 188 0
 529 000c F868     		ldr	r0, [r7, #12]
 530 000e FFF7FEFF 		bl	lv_obj_get_ext_attr
 531 0012 7861     		str	r0, [r7, #20]
 189:..\..\..\lvgl\version_6.1.2\lvgl\src\lv_objx/lv_spinbox.c ****     if(ext == NULL) return;
 532              		.loc 2 189 0
 533 0014 7B69     		ldr	r3, [r7, #20]
 534 0016 002B     		cmp	r3, #0
 535 0018 20D0     		beq	.L33
 190:..\..\..\lvgl\version_6.1.2\lvgl\src\lv_objx/lv_spinbox.c **** 
 191:..\..\..\lvgl\version_6.1.2\lvgl\src\lv_objx/lv_spinbox.c ****     ext->range_max = range_max;
 536              		.loc 2 191 0
 537 001a 7B69     		ldr	r3, [r7, #20]
 538 001c 7A68     		ldr	r2, [r7, #4]
 539 001e 5A66     		str	r2, [r3, #100]
 192:..\..\..\lvgl\version_6.1.2\lvgl\src\lv_objx/lv_spinbox.c ****     ext->range_min = range_min;
 540              		.loc 2 192 0
 541 0020 7B69     		ldr	r3, [r7, #20]
 542 0022 BA68     		ldr	r2, [r7, #8]
 543 0024 9A66     		str	r2, [r3, #104]
 193:..\..\..\lvgl\version_6.1.2\lvgl\src\lv_objx/lv_spinbox.c **** 
 194:..\..\..\lvgl\version_6.1.2\lvgl\src\lv_objx/lv_spinbox.c ****     if(ext->value > ext->range_max) {
 544              		.loc 2 194 0
 545 0026 7B69     		ldr	r3, [r7, #20]
 546 0028 1A6E     		ldr	r2, [r3, #96]
 547 002a 7B69     		ldr	r3, [r7, #20]
 548 002c 5B6E     		ldr	r3, [r3, #100]
 549 002e 9A42     		cmp	r2, r3
 550 0030 06DD     		ble	.L32
 195:..\..\..\lvgl\version_6.1.2\lvgl\src\lv_objx/lv_spinbox.c ****         ext->value = ext->range_max;
 551              		.loc 2 195 0
 552 0032 7B69     		ldr	r3, [r7, #20]
 553 0034 5A6E     		ldr	r2, [r3, #100]
 554 0036 7B69     		ldr	r3, [r7, #20]
 555 0038 1A66     		str	r2, [r3, #96]
 196:..\..\..\lvgl\version_6.1.2\lvgl\src\lv_objx/lv_spinbox.c ****         lv_obj_invalidate(spinbox);
 556              		.loc 2 196 0
 557 003a F868     		ldr	r0, [r7, #12]
 558 003c FFF7FEFF 		bl	lv_obj_invalidate
 559              	.L32:
 197:..\..\..\lvgl\version_6.1.2\lvgl\src\lv_objx/lv_spinbox.c ****     }
 198:..\..\..\lvgl\version_6.1.2\lvgl\src\lv_objx/lv_spinbox.c ****     if(ext->value < ext->range_min) {
 560              		.loc 2 198 0
 561 0040 7B69     		ldr	r3, [r7, #20]
 562 0042 1A6E     		ldr	r2, [r3, #96]
 563 0044 7B69     		ldr	r3, [r7, #20]
 564 0046 9B6E     		ldr	r3, [r3, #104]
 565 0048 9A42     		cmp	r2, r3
 566 004a 08DA     		bge	.L29
ARM GAS  C:\Users\tmj32\AppData\Local\Temp\cci6nv1n.s 			page 16


 199:..\..\..\lvgl\version_6.1.2\lvgl\src\lv_objx/lv_spinbox.c ****         ext->value = ext->range_min;
 567              		.loc 2 199 0
 568 004c 7B69     		ldr	r3, [r7, #20]
 569 004e 9A6E     		ldr	r2, [r3, #104]
 570 0050 7B69     		ldr	r3, [r7, #20]
 571 0052 1A66     		str	r2, [r3, #96]
 200:..\..\..\lvgl\version_6.1.2\lvgl\src\lv_objx/lv_spinbox.c ****         lv_obj_invalidate(spinbox);
 572              		.loc 2 200 0
 573 0054 F868     		ldr	r0, [r7, #12]
 574 0056 FFF7FEFF 		bl	lv_obj_invalidate
 575 005a 00E0     		b	.L29
 576              	.L33:
 189:..\..\..\lvgl\version_6.1.2\lvgl\src\lv_objx/lv_spinbox.c **** 
 577              		.loc 2 189 0
 578 005c 00BF     		nop
 579              	.L29:
 201:..\..\..\lvgl\version_6.1.2\lvgl\src\lv_objx/lv_spinbox.c ****     }
 202:..\..\..\lvgl\version_6.1.2\lvgl\src\lv_objx/lv_spinbox.c **** }
 580              		.loc 2 202 0
 581 005e 1837     		adds	r7, r7, #24
 582              		.cfi_def_cfa_offset 8
 583 0060 BD46     		mov	sp, r7
 584              		.cfi_def_cfa_register 13
 585              		@ sp needed
 586 0062 80BD     		pop	{r7, pc}
 587              		.cfi_endproc
 588              	.LFE62:
 589              		.size	lv_spinbox_set_range, .-lv_spinbox_set_range
 590              		.section	.text.lv_spinbox_set_padding_left,"ax",%progbits
 591              		.align	2
 592              		.global	lv_spinbox_set_padding_left
 593              		.thumb
 594              		.thumb_func
 595              		.type	lv_spinbox_set_padding_left, %function
 596              	lv_spinbox_set_padding_left:
 597              	.LFB63:
 203:..\..\..\lvgl\version_6.1.2\lvgl\src\lv_objx/lv_spinbox.c **** 
 204:..\..\..\lvgl\version_6.1.2\lvgl\src\lv_objx/lv_spinbox.c **** /**
 205:..\..\..\lvgl\version_6.1.2\lvgl\src\lv_objx/lv_spinbox.c ****  * Set spinbox left padding in digits count (added between sign and first digit)
 206:..\..\..\lvgl\version_6.1.2\lvgl\src\lv_objx/lv_spinbox.c ****  * @param spinbox pointer to spinbox
 207:..\..\..\lvgl\version_6.1.2\lvgl\src\lv_objx/lv_spinbox.c ****  * @param cb Callback function called on value change event
 208:..\..\..\lvgl\version_6.1.2\lvgl\src\lv_objx/lv_spinbox.c ****  */
 209:..\..\..\lvgl\version_6.1.2\lvgl\src\lv_objx/lv_spinbox.c **** void lv_spinbox_set_padding_left(lv_obj_t * spinbox, uint8_t padding)
 210:..\..\..\lvgl\version_6.1.2\lvgl\src\lv_objx/lv_spinbox.c **** {
 598              		.loc 2 210 0
 599              		.cfi_startproc
 600              		@ args = 0, pretend = 0, frame = 16
 601              		@ frame_needed = 1, uses_anonymous_args = 0
 602 0000 80B5     		push	{r7, lr}
 603              		.cfi_def_cfa_offset 8
 604              		.cfi_offset 7, -8
 605              		.cfi_offset 14, -4
 606 0002 84B0     		sub	sp, sp, #16
 607              		.cfi_def_cfa_offset 24
 608 0004 00AF     		add	r7, sp, #0
 609              		.cfi_def_cfa_register 7
 610 0006 7860     		str	r0, [r7, #4]
ARM GAS  C:\Users\tmj32\AppData\Local\Temp\cci6nv1n.s 			page 17


 611 0008 0B46     		mov	r3, r1
 612 000a FB70     		strb	r3, [r7, #3]
 211:..\..\..\lvgl\version_6.1.2\lvgl\src\lv_objx/lv_spinbox.c ****     LV_ASSERT_OBJ(spinbox, LV_OBJX_NAME);
 212:..\..\..\lvgl\version_6.1.2\lvgl\src\lv_objx/lv_spinbox.c **** 
 213:..\..\..\lvgl\version_6.1.2\lvgl\src\lv_objx/lv_spinbox.c ****     lv_spinbox_ext_t * ext  = lv_obj_get_ext_attr(spinbox);
 613              		.loc 2 213 0
 614 000c 7868     		ldr	r0, [r7, #4]
 615 000e FFF7FEFF 		bl	lv_obj_get_ext_attr
 616 0012 F860     		str	r0, [r7, #12]
 214:..\..\..\lvgl\version_6.1.2\lvgl\src\lv_objx/lv_spinbox.c ****     ext->digit_padding_left = padding;
 617              		.loc 2 214 0
 618 0014 FB78     		ldrb	r3, [r7, #3]
 619 0016 03F00F03 		and	r3, r3, #15
 620 001a D9B2     		uxtb	r1, r3
 621 001c FA68     		ldr	r2, [r7, #12]
 622 001e 92F87130 		ldrb	r3, [r2, #113]
 623 0022 61F30303 		bfi	r3, r1, #0, #4
 624 0026 82F87130 		strb	r3, [r2, #113]
 215:..\..\..\lvgl\version_6.1.2\lvgl\src\lv_objx/lv_spinbox.c ****     lv_spinbox_updatevalue(spinbox);
 625              		.loc 2 215 0
 626 002a 7868     		ldr	r0, [r7, #4]
 627 002c FFF7FEFF 		bl	lv_spinbox_updatevalue
 216:..\..\..\lvgl\version_6.1.2\lvgl\src\lv_objx/lv_spinbox.c **** }
 628              		.loc 2 216 0
 629 0030 00BF     		nop
 630 0032 1037     		adds	r7, r7, #16
 631              		.cfi_def_cfa_offset 8
 632 0034 BD46     		mov	sp, r7
 633              		.cfi_def_cfa_register 13
 634              		@ sp needed
 635 0036 80BD     		pop	{r7, pc}
 636              		.cfi_endproc
 637              	.LFE63:
 638              		.size	lv_spinbox_set_padding_left, .-lv_spinbox_set_padding_left
 639              		.section	.text.lv_spinbox_get_value,"ax",%progbits
 640              		.align	2
 641              		.global	lv_spinbox_get_value
 642              		.thumb
 643              		.thumb_func
 644              		.type	lv_spinbox_get_value, %function
 645              	lv_spinbox_get_value:
 646              	.LFB64:
 217:..\..\..\lvgl\version_6.1.2\lvgl\src\lv_objx/lv_spinbox.c **** 
 218:..\..\..\lvgl\version_6.1.2\lvgl\src\lv_objx/lv_spinbox.c **** /*=====================
 219:..\..\..\lvgl\version_6.1.2\lvgl\src\lv_objx/lv_spinbox.c ****  * Getter functions
 220:..\..\..\lvgl\version_6.1.2\lvgl\src\lv_objx/lv_spinbox.c ****  *====================*/
 221:..\..\..\lvgl\version_6.1.2\lvgl\src\lv_objx/lv_spinbox.c **** 
 222:..\..\..\lvgl\version_6.1.2\lvgl\src\lv_objx/lv_spinbox.c **** /**
 223:..\..\..\lvgl\version_6.1.2\lvgl\src\lv_objx/lv_spinbox.c ****  * Get the spinbox numeral value (user has to convert to float according to its digit format)
 224:..\..\..\lvgl\version_6.1.2\lvgl\src\lv_objx/lv_spinbox.c ****  * @param spinbox pointer to spinbox
 225:..\..\..\lvgl\version_6.1.2\lvgl\src\lv_objx/lv_spinbox.c ****  * @return value integer value of the spinbox
 226:..\..\..\lvgl\version_6.1.2\lvgl\src\lv_objx/lv_spinbox.c ****  */
 227:..\..\..\lvgl\version_6.1.2\lvgl\src\lv_objx/lv_spinbox.c **** int32_t lv_spinbox_get_value(lv_obj_t * spinbox)
 228:..\..\..\lvgl\version_6.1.2\lvgl\src\lv_objx/lv_spinbox.c **** {
 647              		.loc 2 228 0
 648              		.cfi_startproc
 649              		@ args = 0, pretend = 0, frame = 16
ARM GAS  C:\Users\tmj32\AppData\Local\Temp\cci6nv1n.s 			page 18


 650              		@ frame_needed = 1, uses_anonymous_args = 0
 651 0000 80B5     		push	{r7, lr}
 652              		.cfi_def_cfa_offset 8
 653              		.cfi_offset 7, -8
 654              		.cfi_offset 14, -4
 655 0002 84B0     		sub	sp, sp, #16
 656              		.cfi_def_cfa_offset 24
 657 0004 00AF     		add	r7, sp, #0
 658              		.cfi_def_cfa_register 7
 659 0006 7860     		str	r0, [r7, #4]
 229:..\..\..\lvgl\version_6.1.2\lvgl\src\lv_objx/lv_spinbox.c ****     LV_ASSERT_OBJ(spinbox, LV_OBJX_NAME);
 230:..\..\..\lvgl\version_6.1.2\lvgl\src\lv_objx/lv_spinbox.c **** 
 231:..\..\..\lvgl\version_6.1.2\lvgl\src\lv_objx/lv_spinbox.c ****     lv_spinbox_ext_t * ext = lv_obj_get_ext_attr(spinbox);
 660              		.loc 2 231 0
 661 0008 7868     		ldr	r0, [r7, #4]
 662 000a FFF7FEFF 		bl	lv_obj_get_ext_attr
 663 000e F860     		str	r0, [r7, #12]
 232:..\..\..\lvgl\version_6.1.2\lvgl\src\lv_objx/lv_spinbox.c **** 
 233:..\..\..\lvgl\version_6.1.2\lvgl\src\lv_objx/lv_spinbox.c ****     return ext->value;
 664              		.loc 2 233 0
 665 0010 FB68     		ldr	r3, [r7, #12]
 666 0012 1B6E     		ldr	r3, [r3, #96]
 234:..\..\..\lvgl\version_6.1.2\lvgl\src\lv_objx/lv_spinbox.c **** }
 667              		.loc 2 234 0
 668 0014 1846     		mov	r0, r3
 669 0016 1037     		adds	r7, r7, #16
 670              		.cfi_def_cfa_offset 8
 671 0018 BD46     		mov	sp, r7
 672              		.cfi_def_cfa_register 13
 673              		@ sp needed
 674 001a 80BD     		pop	{r7, pc}
 675              		.cfi_endproc
 676              	.LFE64:
 677              		.size	lv_spinbox_get_value, .-lv_spinbox_get_value
 678              		.section	.text.lv_spinbox_step_next,"ax",%progbits
 679              		.align	2
 680              		.global	lv_spinbox_step_next
 681              		.thumb
 682              		.thumb_func
 683              		.type	lv_spinbox_step_next, %function
 684              	lv_spinbox_step_next:
 685              	.LFB65:
 235:..\..\..\lvgl\version_6.1.2\lvgl\src\lv_objx/lv_spinbox.c **** 
 236:..\..\..\lvgl\version_6.1.2\lvgl\src\lv_objx/lv_spinbox.c **** /*=====================
 237:..\..\..\lvgl\version_6.1.2\lvgl\src\lv_objx/lv_spinbox.c ****  * Other functions
 238:..\..\..\lvgl\version_6.1.2\lvgl\src\lv_objx/lv_spinbox.c ****  *====================*/
 239:..\..\..\lvgl\version_6.1.2\lvgl\src\lv_objx/lv_spinbox.c **** 
 240:..\..\..\lvgl\version_6.1.2\lvgl\src\lv_objx/lv_spinbox.c **** /**
 241:..\..\..\lvgl\version_6.1.2\lvgl\src\lv_objx/lv_spinbox.c ****  * Select next lower digit for edition
 242:..\..\..\lvgl\version_6.1.2\lvgl\src\lv_objx/lv_spinbox.c ****  * @param spinbox pointer to spinbox
 243:..\..\..\lvgl\version_6.1.2\lvgl\src\lv_objx/lv_spinbox.c ****  */
 244:..\..\..\lvgl\version_6.1.2\lvgl\src\lv_objx/lv_spinbox.c **** void lv_spinbox_step_next(lv_obj_t * spinbox)
 245:..\..\..\lvgl\version_6.1.2\lvgl\src\lv_objx/lv_spinbox.c **** {
 686              		.loc 2 245 0
 687              		.cfi_startproc
 688              		@ args = 0, pretend = 0, frame = 16
 689              		@ frame_needed = 1, uses_anonymous_args = 0
ARM GAS  C:\Users\tmj32\AppData\Local\Temp\cci6nv1n.s 			page 19


 690 0000 80B5     		push	{r7, lr}
 691              		.cfi_def_cfa_offset 8
 692              		.cfi_offset 7, -8
 693              		.cfi_offset 14, -4
 694 0002 84B0     		sub	sp, sp, #16
 695              		.cfi_def_cfa_offset 24
 696 0004 00AF     		add	r7, sp, #0
 697              		.cfi_def_cfa_register 7
 698 0006 7860     		str	r0, [r7, #4]
 246:..\..\..\lvgl\version_6.1.2\lvgl\src\lv_objx/lv_spinbox.c ****     LV_ASSERT_OBJ(spinbox, LV_OBJX_NAME);
 247:..\..\..\lvgl\version_6.1.2\lvgl\src\lv_objx/lv_spinbox.c **** 
 248:..\..\..\lvgl\version_6.1.2\lvgl\src\lv_objx/lv_spinbox.c ****     lv_spinbox_ext_t * ext = lv_obj_get_ext_attr(spinbox);
 699              		.loc 2 248 0
 700 0008 7868     		ldr	r0, [r7, #4]
 701 000a FFF7FEFF 		bl	lv_obj_get_ext_attr
 702 000e F860     		str	r0, [r7, #12]
 249:..\..\..\lvgl\version_6.1.2\lvgl\src\lv_objx/lv_spinbox.c **** 
 250:..\..\..\lvgl\version_6.1.2\lvgl\src\lv_objx/lv_spinbox.c ****     int32_t new_step = ext->step / 10;
 703              		.loc 2 250 0
 704 0010 FB68     		ldr	r3, [r7, #12]
 705 0012 DB6E     		ldr	r3, [r3, #108]
 706 0014 0B4A     		ldr	r2, .L40
 707 0016 82FB0312 		smull	r1, r2, r2, r3
 708 001a 9210     		asrs	r2, r2, #2
 709 001c DB17     		asrs	r3, r3, #31
 710 001e D31A     		subs	r3, r2, r3
 711 0020 BB60     		str	r3, [r7, #8]
 251:..\..\..\lvgl\version_6.1.2\lvgl\src\lv_objx/lv_spinbox.c ****     if((new_step) > 0)
 712              		.loc 2 251 0
 713 0022 BB68     		ldr	r3, [r7, #8]
 714 0024 002B     		cmp	r3, #0
 715 0026 03DD     		ble	.L38
 252:..\..\..\lvgl\version_6.1.2\lvgl\src\lv_objx/lv_spinbox.c ****         ext->step = new_step;
 716              		.loc 2 252 0
 717 0028 FB68     		ldr	r3, [r7, #12]
 718 002a BA68     		ldr	r2, [r7, #8]
 719 002c DA66     		str	r2, [r3, #108]
 720 002e 02E0     		b	.L39
 721              	.L38:
 253:..\..\..\lvgl\version_6.1.2\lvgl\src\lv_objx/lv_spinbox.c ****     else
 254:..\..\..\lvgl\version_6.1.2\lvgl\src\lv_objx/lv_spinbox.c ****         ext->step = 1;
 722              		.loc 2 254 0
 723 0030 FB68     		ldr	r3, [r7, #12]
 724 0032 0122     		movs	r2, #1
 725 0034 DA66     		str	r2, [r3, #108]
 726              	.L39:
 255:..\..\..\lvgl\version_6.1.2\lvgl\src\lv_objx/lv_spinbox.c **** 
 256:..\..\..\lvgl\version_6.1.2\lvgl\src\lv_objx/lv_spinbox.c ****     lv_spinbox_updatevalue(spinbox);
 727              		.loc 2 256 0
 728 0036 7868     		ldr	r0, [r7, #4]
 729 0038 FFF7FEFF 		bl	lv_spinbox_updatevalue
 257:..\..\..\lvgl\version_6.1.2\lvgl\src\lv_objx/lv_spinbox.c **** }
 730              		.loc 2 257 0
 731 003c 00BF     		nop
 732 003e 1037     		adds	r7, r7, #16
 733              		.cfi_def_cfa_offset 8
 734 0040 BD46     		mov	sp, r7
ARM GAS  C:\Users\tmj32\AppData\Local\Temp\cci6nv1n.s 			page 20


 735              		.cfi_def_cfa_register 13
 736              		@ sp needed
 737 0042 80BD     		pop	{r7, pc}
 738              	.L41:
 739              		.align	2
 740              	.L40:
 741 0044 67666666 		.word	1717986919
 742              		.cfi_endproc
 743              	.LFE65:
 744              		.size	lv_spinbox_step_next, .-lv_spinbox_step_next
 745              		.section	.text.lv_spinbox_step_prev,"ax",%progbits
 746              		.align	2
 747              		.global	lv_spinbox_step_prev
 748              		.thumb
 749              		.thumb_func
 750              		.type	lv_spinbox_step_prev, %function
 751              	lv_spinbox_step_prev:
 752              	.LFB66:
 258:..\..\..\lvgl\version_6.1.2\lvgl\src\lv_objx/lv_spinbox.c **** 
 259:..\..\..\lvgl\version_6.1.2\lvgl\src\lv_objx/lv_spinbox.c **** /**
 260:..\..\..\lvgl\version_6.1.2\lvgl\src\lv_objx/lv_spinbox.c ****  * Select next higher digit for edition
 261:..\..\..\lvgl\version_6.1.2\lvgl\src\lv_objx/lv_spinbox.c ****  * @param spinbox pointer to spinbox
 262:..\..\..\lvgl\version_6.1.2\lvgl\src\lv_objx/lv_spinbox.c ****  */
 263:..\..\..\lvgl\version_6.1.2\lvgl\src\lv_objx/lv_spinbox.c **** void lv_spinbox_step_prev(lv_obj_t * spinbox)
 264:..\..\..\lvgl\version_6.1.2\lvgl\src\lv_objx/lv_spinbox.c **** {
 753              		.loc 2 264 0
 754              		.cfi_startproc
 755              		@ args = 0, pretend = 0, frame = 24
 756              		@ frame_needed = 1, uses_anonymous_args = 0
 757 0000 80B5     		push	{r7, lr}
 758              		.cfi_def_cfa_offset 8
 759              		.cfi_offset 7, -8
 760              		.cfi_offset 14, -4
 761 0002 86B0     		sub	sp, sp, #24
 762              		.cfi_def_cfa_offset 32
 763 0004 00AF     		add	r7, sp, #0
 764              		.cfi_def_cfa_register 7
 765 0006 7860     		str	r0, [r7, #4]
 265:..\..\..\lvgl\version_6.1.2\lvgl\src\lv_objx/lv_spinbox.c ****     LV_ASSERT_OBJ(spinbox, LV_OBJX_NAME);
 266:..\..\..\lvgl\version_6.1.2\lvgl\src\lv_objx/lv_spinbox.c **** 
 267:..\..\..\lvgl\version_6.1.2\lvgl\src\lv_objx/lv_spinbox.c ****     lv_spinbox_ext_t * ext = lv_obj_get_ext_attr(spinbox);
 766              		.loc 2 267 0
 767 0008 7868     		ldr	r0, [r7, #4]
 768 000a FFF7FEFF 		bl	lv_obj_get_ext_attr
 769 000e 7861     		str	r0, [r7, #20]
 268:..\..\..\lvgl\version_6.1.2\lvgl\src\lv_objx/lv_spinbox.c ****     int32_t step_limit;
 269:..\..\..\lvgl\version_6.1.2\lvgl\src\lv_objx/lv_spinbox.c ****     step_limit       = LV_MATH_MAX(ext->range_max, (ext->range_min < 0 ? (-ext->range_min) : ext->r
 770              		.loc 2 269 0
 771 0010 7B69     		ldr	r3, [r7, #20]
 772 0012 9B6E     		ldr	r3, [r3, #104]
 773 0014 83EAE372 		eor	r2, r3, r3, asr #31
 774 0018 A2EBE372 		sub	r2, r2, r3, asr #31
 775 001c 7B69     		ldr	r3, [r7, #20]
 776 001e 5B6E     		ldr	r3, [r3, #100]
 777 0020 9342     		cmp	r3, r2
 778 0022 B8BF     		it	lt
 779 0024 1346     		movlt	r3, r2
ARM GAS  C:\Users\tmj32\AppData\Local\Temp\cci6nv1n.s 			page 21


 780 0026 3B61     		str	r3, [r7, #16]
 270:..\..\..\lvgl\version_6.1.2\lvgl\src\lv_objx/lv_spinbox.c ****     int32_t new_step = ext->step * 10;
 781              		.loc 2 270 0
 782 0028 7B69     		ldr	r3, [r7, #20]
 783 002a DA6E     		ldr	r2, [r3, #108]
 784 002c 1346     		mov	r3, r2
 785 002e 9B00     		lsls	r3, r3, #2
 786 0030 1344     		add	r3, r3, r2
 787 0032 5B00     		lsls	r3, r3, #1
 788 0034 FB60     		str	r3, [r7, #12]
 271:..\..\..\lvgl\version_6.1.2\lvgl\src\lv_objx/lv_spinbox.c ****     if(new_step <= step_limit) ext->step = new_step;
 789              		.loc 2 271 0
 790 0036 FA68     		ldr	r2, [r7, #12]
 791 0038 3B69     		ldr	r3, [r7, #16]
 792 003a 9A42     		cmp	r2, r3
 793 003c 02DC     		bgt	.L43
 794              		.loc 2 271 0 is_stmt 0 discriminator 1
 795 003e 7B69     		ldr	r3, [r7, #20]
 796 0040 FA68     		ldr	r2, [r7, #12]
 797 0042 DA66     		str	r2, [r3, #108]
 798              	.L43:
 272:..\..\..\lvgl\version_6.1.2\lvgl\src\lv_objx/lv_spinbox.c **** 
 273:..\..\..\lvgl\version_6.1.2\lvgl\src\lv_objx/lv_spinbox.c ****     lv_spinbox_updatevalue(spinbox);
 799              		.loc 2 273 0 is_stmt 1
 800 0044 7868     		ldr	r0, [r7, #4]
 801 0046 FFF7FEFF 		bl	lv_spinbox_updatevalue
 274:..\..\..\lvgl\version_6.1.2\lvgl\src\lv_objx/lv_spinbox.c **** }
 802              		.loc 2 274 0
 803 004a 00BF     		nop
 804 004c 1837     		adds	r7, r7, #24
 805              		.cfi_def_cfa_offset 8
 806 004e BD46     		mov	sp, r7
 807              		.cfi_def_cfa_register 13
 808              		@ sp needed
 809 0050 80BD     		pop	{r7, pc}
 810              		.cfi_endproc
 811              	.LFE66:
 812              		.size	lv_spinbox_step_prev, .-lv_spinbox_step_prev
 813 0052 00BF     		.section	.text.lv_spinbox_increment,"ax",%progbits
 814              		.align	2
 815              		.global	lv_spinbox_increment
 816              		.thumb
 817              		.thumb_func
 818              		.type	lv_spinbox_increment, %function
 819              	lv_spinbox_increment:
 820              	.LFB67:
 275:..\..\..\lvgl\version_6.1.2\lvgl\src\lv_objx/lv_spinbox.c **** 
 276:..\..\..\lvgl\version_6.1.2\lvgl\src\lv_objx/lv_spinbox.c **** /**
 277:..\..\..\lvgl\version_6.1.2\lvgl\src\lv_objx/lv_spinbox.c ****  * Increment spinbox value by one step
 278:..\..\..\lvgl\version_6.1.2\lvgl\src\lv_objx/lv_spinbox.c ****  * @param spinbox pointer to spinbox
 279:..\..\..\lvgl\version_6.1.2\lvgl\src\lv_objx/lv_spinbox.c ****  */
 280:..\..\..\lvgl\version_6.1.2\lvgl\src\lv_objx/lv_spinbox.c **** void lv_spinbox_increment(lv_obj_t * spinbox)
 281:..\..\..\lvgl\version_6.1.2\lvgl\src\lv_objx/lv_spinbox.c **** {
 821              		.loc 2 281 0
 822              		.cfi_startproc
 823              		@ args = 0, pretend = 0, frame = 16
 824              		@ frame_needed = 1, uses_anonymous_args = 0
ARM GAS  C:\Users\tmj32\AppData\Local\Temp\cci6nv1n.s 			page 22


 825 0000 80B5     		push	{r7, lr}
 826              		.cfi_def_cfa_offset 8
 827              		.cfi_offset 7, -8
 828              		.cfi_offset 14, -4
 829 0002 84B0     		sub	sp, sp, #16
 830              		.cfi_def_cfa_offset 24
 831 0004 00AF     		add	r7, sp, #0
 832              		.cfi_def_cfa_register 7
 833 0006 7860     		str	r0, [r7, #4]
 282:..\..\..\lvgl\version_6.1.2\lvgl\src\lv_objx/lv_spinbox.c ****     LV_ASSERT_OBJ(spinbox, LV_OBJX_NAME);
 283:..\..\..\lvgl\version_6.1.2\lvgl\src\lv_objx/lv_spinbox.c **** 
 284:..\..\..\lvgl\version_6.1.2\lvgl\src\lv_objx/lv_spinbox.c ****     lv_spinbox_ext_t * ext = lv_obj_get_ext_attr(spinbox);
 834              		.loc 2 284 0
 835 0008 7868     		ldr	r0, [r7, #4]
 836 000a FFF7FEFF 		bl	lv_obj_get_ext_attr
 837 000e F860     		str	r0, [r7, #12]
 285:..\..\..\lvgl\version_6.1.2\lvgl\src\lv_objx/lv_spinbox.c **** 
 286:..\..\..\lvgl\version_6.1.2\lvgl\src\lv_objx/lv_spinbox.c ****     if(ext->value + ext->step <= ext->range_max) {
 838              		.loc 2 286 0
 839 0010 FB68     		ldr	r3, [r7, #12]
 840 0012 1A6E     		ldr	r2, [r3, #96]
 841 0014 FB68     		ldr	r3, [r7, #12]
 842 0016 DB6E     		ldr	r3, [r3, #108]
 843 0018 1A44     		add	r2, r2, r3
 844 001a FB68     		ldr	r3, [r7, #12]
 845 001c 5B6E     		ldr	r3, [r3, #100]
 846 001e 9A42     		cmp	r2, r3
 847 0020 17DC     		bgt	.L45
 287:..\..\..\lvgl\version_6.1.2\lvgl\src\lv_objx/lv_spinbox.c ****         /*Special mode when zero crossing*/
 288:..\..\..\lvgl\version_6.1.2\lvgl\src\lv_objx/lv_spinbox.c ****         if((ext->value + ext->step) > 0 && ext->value < 0) ext->value = -ext->value;
 848              		.loc 2 288 0
 849 0022 FB68     		ldr	r3, [r7, #12]
 850 0024 1A6E     		ldr	r2, [r3, #96]
 851 0026 FB68     		ldr	r3, [r7, #12]
 852 0028 DB6E     		ldr	r3, [r3, #108]
 853 002a 1344     		add	r3, r3, r2
 854 002c 002B     		cmp	r3, #0
 855 002e 08DD     		ble	.L46
 856              		.loc 2 288 0 is_stmt 0 discriminator 1
 857 0030 FB68     		ldr	r3, [r7, #12]
 858 0032 1B6E     		ldr	r3, [r3, #96]
 859 0034 002B     		cmp	r3, #0
 860 0036 04DA     		bge	.L46
 861              		.loc 2 288 0 discriminator 2
 862 0038 FB68     		ldr	r3, [r7, #12]
 863 003a 1B6E     		ldr	r3, [r3, #96]
 864 003c 5A42     		negs	r2, r3
 865 003e FB68     		ldr	r3, [r7, #12]
 866 0040 1A66     		str	r2, [r3, #96]
 867              	.L46:
 289:..\..\..\lvgl\version_6.1.2\lvgl\src\lv_objx/lv_spinbox.c ****         ext->value += ext->step;
 868              		.loc 2 289 0 is_stmt 1
 869 0042 FB68     		ldr	r3, [r7, #12]
 870 0044 1A6E     		ldr	r2, [r3, #96]
 871 0046 FB68     		ldr	r3, [r7, #12]
 872 0048 DB6E     		ldr	r3, [r3, #108]
 873 004a 1A44     		add	r2, r2, r3
ARM GAS  C:\Users\tmj32\AppData\Local\Temp\cci6nv1n.s 			page 23


 874 004c FB68     		ldr	r3, [r7, #12]
 875 004e 1A66     		str	r2, [r3, #96]
 876 0050 03E0     		b	.L47
 877              	.L45:
 290:..\..\..\lvgl\version_6.1.2\lvgl\src\lv_objx/lv_spinbox.c **** 
 291:..\..\..\lvgl\version_6.1.2\lvgl\src\lv_objx/lv_spinbox.c ****     } else {
 292:..\..\..\lvgl\version_6.1.2\lvgl\src\lv_objx/lv_spinbox.c ****         ext->value = ext->range_max;
 878              		.loc 2 292 0
 879 0052 FB68     		ldr	r3, [r7, #12]
 880 0054 5A6E     		ldr	r2, [r3, #100]
 881 0056 FB68     		ldr	r3, [r7, #12]
 882 0058 1A66     		str	r2, [r3, #96]
 883              	.L47:
 293:..\..\..\lvgl\version_6.1.2\lvgl\src\lv_objx/lv_spinbox.c ****     }
 294:..\..\..\lvgl\version_6.1.2\lvgl\src\lv_objx/lv_spinbox.c **** 
 295:..\..\..\lvgl\version_6.1.2\lvgl\src\lv_objx/lv_spinbox.c ****     lv_spinbox_updatevalue(spinbox);
 884              		.loc 2 295 0
 885 005a 7868     		ldr	r0, [r7, #4]
 886 005c FFF7FEFF 		bl	lv_spinbox_updatevalue
 296:..\..\..\lvgl\version_6.1.2\lvgl\src\lv_objx/lv_spinbox.c **** }
 887              		.loc 2 296 0
 888 0060 00BF     		nop
 889 0062 1037     		adds	r7, r7, #16
 890              		.cfi_def_cfa_offset 8
 891 0064 BD46     		mov	sp, r7
 892              		.cfi_def_cfa_register 13
 893              		@ sp needed
 894 0066 80BD     		pop	{r7, pc}
 895              		.cfi_endproc
 896              	.LFE67:
 897              		.size	lv_spinbox_increment, .-lv_spinbox_increment
 898              		.section	.text.lv_spinbox_decrement,"ax",%progbits
 899              		.align	2
 900              		.global	lv_spinbox_decrement
 901              		.thumb
 902              		.thumb_func
 903              		.type	lv_spinbox_decrement, %function
 904              	lv_spinbox_decrement:
 905              	.LFB68:
 297:..\..\..\lvgl\version_6.1.2\lvgl\src\lv_objx/lv_spinbox.c **** 
 298:..\..\..\lvgl\version_6.1.2\lvgl\src\lv_objx/lv_spinbox.c **** /**
 299:..\..\..\lvgl\version_6.1.2\lvgl\src\lv_objx/lv_spinbox.c ****  * Decrement spinbox value by one step
 300:..\..\..\lvgl\version_6.1.2\lvgl\src\lv_objx/lv_spinbox.c ****  * @param spinbox pointer to spinbox
 301:..\..\..\lvgl\version_6.1.2\lvgl\src\lv_objx/lv_spinbox.c ****  */
 302:..\..\..\lvgl\version_6.1.2\lvgl\src\lv_objx/lv_spinbox.c **** void lv_spinbox_decrement(lv_obj_t * spinbox)
 303:..\..\..\lvgl\version_6.1.2\lvgl\src\lv_objx/lv_spinbox.c **** {
 906              		.loc 2 303 0
 907              		.cfi_startproc
 908              		@ args = 0, pretend = 0, frame = 16
 909              		@ frame_needed = 1, uses_anonymous_args = 0
 910 0000 80B5     		push	{r7, lr}
 911              		.cfi_def_cfa_offset 8
 912              		.cfi_offset 7, -8
 913              		.cfi_offset 14, -4
 914 0002 84B0     		sub	sp, sp, #16
 915              		.cfi_def_cfa_offset 24
 916 0004 00AF     		add	r7, sp, #0
ARM GAS  C:\Users\tmj32\AppData\Local\Temp\cci6nv1n.s 			page 24


 917              		.cfi_def_cfa_register 7
 918 0006 7860     		str	r0, [r7, #4]
 304:..\..\..\lvgl\version_6.1.2\lvgl\src\lv_objx/lv_spinbox.c ****     LV_ASSERT_OBJ(spinbox, LV_OBJX_NAME);
 305:..\..\..\lvgl\version_6.1.2\lvgl\src\lv_objx/lv_spinbox.c **** 
 306:..\..\..\lvgl\version_6.1.2\lvgl\src\lv_objx/lv_spinbox.c ****     lv_spinbox_ext_t * ext = lv_obj_get_ext_attr(spinbox);
 919              		.loc 2 306 0
 920 0008 7868     		ldr	r0, [r7, #4]
 921 000a FFF7FEFF 		bl	lv_obj_get_ext_attr
 922 000e F860     		str	r0, [r7, #12]
 307:..\..\..\lvgl\version_6.1.2\lvgl\src\lv_objx/lv_spinbox.c **** 
 308:..\..\..\lvgl\version_6.1.2\lvgl\src\lv_objx/lv_spinbox.c ****     if(ext->value - ext->step >= ext->range_min) {
 923              		.loc 2 308 0
 924 0010 FB68     		ldr	r3, [r7, #12]
 925 0012 1A6E     		ldr	r2, [r3, #96]
 926 0014 FB68     		ldr	r3, [r7, #12]
 927 0016 DB6E     		ldr	r3, [r3, #108]
 928 0018 D21A     		subs	r2, r2, r3
 929 001a FB68     		ldr	r3, [r7, #12]
 930 001c 9B6E     		ldr	r3, [r3, #104]
 931 001e 9A42     		cmp	r2, r3
 932 0020 17DB     		blt	.L49
 309:..\..\..\lvgl\version_6.1.2\lvgl\src\lv_objx/lv_spinbox.c ****         /*Special mode when zero crossing*/
 310:..\..\..\lvgl\version_6.1.2\lvgl\src\lv_objx/lv_spinbox.c ****         if((ext->value - ext->step) < 0 && ext->value > 0) ext->value = -ext->value;
 933              		.loc 2 310 0
 934 0022 FB68     		ldr	r3, [r7, #12]
 935 0024 1A6E     		ldr	r2, [r3, #96]
 936 0026 FB68     		ldr	r3, [r7, #12]
 937 0028 DB6E     		ldr	r3, [r3, #108]
 938 002a D31A     		subs	r3, r2, r3
 939 002c 002B     		cmp	r3, #0
 940 002e 08DA     		bge	.L50
 941              		.loc 2 310 0 is_stmt 0 discriminator 1
 942 0030 FB68     		ldr	r3, [r7, #12]
 943 0032 1B6E     		ldr	r3, [r3, #96]
 944 0034 002B     		cmp	r3, #0
 945 0036 04DD     		ble	.L50
 946              		.loc 2 310 0 discriminator 2
 947 0038 FB68     		ldr	r3, [r7, #12]
 948 003a 1B6E     		ldr	r3, [r3, #96]
 949 003c 5A42     		negs	r2, r3
 950 003e FB68     		ldr	r3, [r7, #12]
 951 0040 1A66     		str	r2, [r3, #96]
 952              	.L50:
 311:..\..\..\lvgl\version_6.1.2\lvgl\src\lv_objx/lv_spinbox.c ****         ext->value -= ext->step;
 953              		.loc 2 311 0 is_stmt 1
 954 0042 FB68     		ldr	r3, [r7, #12]
 955 0044 1A6E     		ldr	r2, [r3, #96]
 956 0046 FB68     		ldr	r3, [r7, #12]
 957 0048 DB6E     		ldr	r3, [r3, #108]
 958 004a D21A     		subs	r2, r2, r3
 959 004c FB68     		ldr	r3, [r7, #12]
 960 004e 1A66     		str	r2, [r3, #96]
 961 0050 03E0     		b	.L51
 962              	.L49:
 312:..\..\..\lvgl\version_6.1.2\lvgl\src\lv_objx/lv_spinbox.c ****     } else {
 313:..\..\..\lvgl\version_6.1.2\lvgl\src\lv_objx/lv_spinbox.c ****         ext->value = ext->range_min;
 963              		.loc 2 313 0
ARM GAS  C:\Users\tmj32\AppData\Local\Temp\cci6nv1n.s 			page 25


 964 0052 FB68     		ldr	r3, [r7, #12]
 965 0054 9A6E     		ldr	r2, [r3, #104]
 966 0056 FB68     		ldr	r3, [r7, #12]
 967 0058 1A66     		str	r2, [r3, #96]
 968              	.L51:
 314:..\..\..\lvgl\version_6.1.2\lvgl\src\lv_objx/lv_spinbox.c ****     }
 315:..\..\..\lvgl\version_6.1.2\lvgl\src\lv_objx/lv_spinbox.c **** 
 316:..\..\..\lvgl\version_6.1.2\lvgl\src\lv_objx/lv_spinbox.c ****     lv_spinbox_updatevalue(spinbox);
 969              		.loc 2 316 0
 970 005a 7868     		ldr	r0, [r7, #4]
 971 005c FFF7FEFF 		bl	lv_spinbox_updatevalue
 317:..\..\..\lvgl\version_6.1.2\lvgl\src\lv_objx/lv_spinbox.c **** }
 972              		.loc 2 317 0
 973 0060 00BF     		nop
 974 0062 1037     		adds	r7, r7, #16
 975              		.cfi_def_cfa_offset 8
 976 0064 BD46     		mov	sp, r7
 977              		.cfi_def_cfa_register 13
 978              		@ sp needed
 979 0066 80BD     		pop	{r7, pc}
 980              		.cfi_endproc
 981              	.LFE68:
 982              		.size	lv_spinbox_decrement, .-lv_spinbox_decrement
 983              		.section	.rodata
 984              		.align	2
 985              	.LC0:
 986 0000 6C765F73 		.ascii	"lv_spinbox\000"
 986      70696E62 
 986      6F7800
 987              		.section	.text.lv_spinbox_signal,"ax",%progbits
 988              		.align	2
 989              		.thumb
 990              		.thumb_func
 991              		.type	lv_spinbox_signal, %function
 992              	lv_spinbox_signal:
 993              	.LFB69:
 318:..\..\..\lvgl\version_6.1.2\lvgl\src\lv_objx/lv_spinbox.c **** 
 319:..\..\..\lvgl\version_6.1.2\lvgl\src\lv_objx/lv_spinbox.c **** /**********************
 320:..\..\..\lvgl\version_6.1.2\lvgl\src\lv_objx/lv_spinbox.c ****  *   STATIC FUNCTIONS
 321:..\..\..\lvgl\version_6.1.2\lvgl\src\lv_objx/lv_spinbox.c ****  **********************/
 322:..\..\..\lvgl\version_6.1.2\lvgl\src\lv_objx/lv_spinbox.c **** 
 323:..\..\..\lvgl\version_6.1.2\lvgl\src\lv_objx/lv_spinbox.c **** /**
 324:..\..\..\lvgl\version_6.1.2\lvgl\src\lv_objx/lv_spinbox.c ****  * Signal function of the spinbox
 325:..\..\..\lvgl\version_6.1.2\lvgl\src\lv_objx/lv_spinbox.c ****  * @param spinbox pointer to a spinbox object
 326:..\..\..\lvgl\version_6.1.2\lvgl\src\lv_objx/lv_spinbox.c ****  * @param sign a signal type from lv_signal_t enum
 327:..\..\..\lvgl\version_6.1.2\lvgl\src\lv_objx/lv_spinbox.c ****  * @param param pointer to a signal specific variable
 328:..\..\..\lvgl\version_6.1.2\lvgl\src\lv_objx/lv_spinbox.c ****  * @return LV_RES_OK: the object is not deleted in the function; LV_RES_INV: the object is deleted
 329:..\..\..\lvgl\version_6.1.2\lvgl\src\lv_objx/lv_spinbox.c ****  */
 330:..\..\..\lvgl\version_6.1.2\lvgl\src\lv_objx/lv_spinbox.c **** static lv_res_t lv_spinbox_signal(lv_obj_t * spinbox, lv_signal_t sign, void * param)
 331:..\..\..\lvgl\version_6.1.2\lvgl\src\lv_objx/lv_spinbox.c **** {
 994              		.loc 2 331 0
 995              		.cfi_startproc
 996              		@ args = 0, pretend = 0, frame = 40
 997              		@ frame_needed = 1, uses_anonymous_args = 0
 998 0000 80B5     		push	{r7, lr}
 999              		.cfi_def_cfa_offset 8
 1000              		.cfi_offset 7, -8
ARM GAS  C:\Users\tmj32\AppData\Local\Temp\cci6nv1n.s 			page 26


 1001              		.cfi_offset 14, -4
 1002 0002 8AB0     		sub	sp, sp, #40
 1003              		.cfi_def_cfa_offset 48
 1004 0004 00AF     		add	r7, sp, #0
 1005              		.cfi_def_cfa_register 7
 1006 0006 F860     		str	r0, [r7, #12]
 1007 0008 0B46     		mov	r3, r1
 1008 000a 7A60     		str	r2, [r7, #4]
 1009 000c FB72     		strb	r3, [r7, #11]
 332:..\..\..\lvgl\version_6.1.2\lvgl\src\lv_objx/lv_spinbox.c **** 
 333:..\..\..\lvgl\version_6.1.2\lvgl\src\lv_objx/lv_spinbox.c ****     lv_res_t res = LV_RES_OK;
 1010              		.loc 2 333 0
 1011 000e 0123     		movs	r3, #1
 1012 0010 87F82730 		strb	r3, [r7, #39]
 334:..\..\..\lvgl\version_6.1.2\lvgl\src\lv_objx/lv_spinbox.c **** 
 335:..\..\..\lvgl\version_6.1.2\lvgl\src\lv_objx/lv_spinbox.c ****     /* Include the ancient signal function */
 336:..\..\..\lvgl\version_6.1.2\lvgl\src\lv_objx/lv_spinbox.c ****     if(sign != LV_SIGNAL_CONTROL) {
 1013              		.loc 2 336 0
 1014 0014 FB7A     		ldrb	r3, [r7, #11]	@ zero_extendqisi2
 1015 0016 122B     		cmp	r3, #18
 1016 0018 0FD0     		beq	.L53
 337:..\..\..\lvgl\version_6.1.2\lvgl\src\lv_objx/lv_spinbox.c ****         res = ancestor_signal(spinbox, sign, param);
 1017              		.loc 2 337 0
 1018 001a 434B     		ldr	r3, .L71
 1019 001c 1B68     		ldr	r3, [r3]
 1020 001e F97A     		ldrb	r1, [r7, #11]	@ zero_extendqisi2
 1021 0020 7A68     		ldr	r2, [r7, #4]
 1022 0022 F868     		ldr	r0, [r7, #12]
 1023 0024 9847     		blx	r3
 1024 0026 0346     		mov	r3, r0
 1025 0028 87F82730 		strb	r3, [r7, #39]
 338:..\..\..\lvgl\version_6.1.2\lvgl\src\lv_objx/lv_spinbox.c ****         if(res != LV_RES_OK) return res;
 1026              		.loc 2 338 0
 1027 002c 97F82730 		ldrb	r3, [r7, #39]	@ zero_extendqisi2
 1028 0030 012B     		cmp	r3, #1
 1029 0032 02D0     		beq	.L53
 1030              		.loc 2 338 0 is_stmt 0 discriminator 1
 1031 0034 97F82730 		ldrb	r3, [r7, #39]	@ zero_extendqisi2
 1032 0038 72E0     		b	.L54
 1033              	.L53:
 339:..\..\..\lvgl\version_6.1.2\lvgl\src\lv_objx/lv_spinbox.c ****     }
 340:..\..\..\lvgl\version_6.1.2\lvgl\src\lv_objx/lv_spinbox.c ****     if(sign == LV_SIGNAL_GET_TYPE) return lv_obj_handle_get_type_signal(param, LV_OBJX_NAME);
 1034              		.loc 2 340 0 is_stmt 1
 1035 003a FB7A     		ldrb	r3, [r7, #11]	@ zero_extendqisi2
 1036 003c 072B     		cmp	r3, #7
 1037 003e 05D1     		bne	.L55
 1038              		.loc 2 340 0 is_stmt 0 discriminator 1
 1039 0040 3A49     		ldr	r1, .L71+4
 1040 0042 7868     		ldr	r0, [r7, #4]
 1041 0044 FFF7FEFF 		bl	lv_obj_handle_get_type_signal
 1042 0048 0346     		mov	r3, r0
 1043 004a 69E0     		b	.L54
 1044              	.L55:
 341:..\..\..\lvgl\version_6.1.2\lvgl\src\lv_objx/lv_spinbox.c **** 
 342:..\..\..\lvgl\version_6.1.2\lvgl\src\lv_objx/lv_spinbox.c **** 
 343:..\..\..\lvgl\version_6.1.2\lvgl\src\lv_objx/lv_spinbox.c ****     lv_spinbox_ext_t * ext = lv_obj_get_ext_attr(spinbox);
 1045              		.loc 2 343 0 is_stmt 1
ARM GAS  C:\Users\tmj32\AppData\Local\Temp\cci6nv1n.s 			page 27


 1046 004c F868     		ldr	r0, [r7, #12]
 1047 004e FFF7FEFF 		bl	lv_obj_get_ext_attr
 1048 0052 3862     		str	r0, [r7, #32]
 344:..\..\..\lvgl\version_6.1.2\lvgl\src\lv_objx/lv_spinbox.c ****     if(sign == LV_SIGNAL_CLEANUP) {
 1049              		.loc 2 344 0
 1050 0054 FB7A     		ldrb	r3, [r7, #11]	@ zero_extendqisi2
 1051 0056 002B     		cmp	r3, #0
 1052 0058 60D0     		beq	.L56
 345:..\..\..\lvgl\version_6.1.2\lvgl\src\lv_objx/lv_spinbox.c ****         /*Nothing to cleanup. (No dynamically allocated memory in 'ext')*/
 346:..\..\..\lvgl\version_6.1.2\lvgl\src\lv_objx/lv_spinbox.c ****     } else if(sign == LV_SIGNAL_GET_TYPE) {
 1053              		.loc 2 346 0
 1054 005a FB7A     		ldrb	r3, [r7, #11]	@ zero_extendqisi2
 1055 005c 072B     		cmp	r3, #7
 1056 005e 1ED1     		bne	.L57
 1057              	.LBB4:
 347:..\..\..\lvgl\version_6.1.2\lvgl\src\lv_objx/lv_spinbox.c ****         lv_obj_type_t * buf = param;
 1058              		.loc 2 347 0
 1059 0060 7B68     		ldr	r3, [r7, #4]
 1060 0062 FB61     		str	r3, [r7, #28]
 348:..\..\..\lvgl\version_6.1.2\lvgl\src\lv_objx/lv_spinbox.c ****         uint8_t i;
 349:..\..\..\lvgl\version_6.1.2\lvgl\src\lv_objx/lv_spinbox.c ****         for(i = 0; i < LV_MAX_ANCESTOR_NUM - 1; i++) { /*Find the last set data*/
 1061              		.loc 2 349 0
 1062 0064 0023     		movs	r3, #0
 1063 0066 87F82630 		strb	r3, [r7, #38]
 1064 006a 0BE0     		b	.L58
 1065              	.L61:
 350:..\..\..\lvgl\version_6.1.2\lvgl\src\lv_objx/lv_spinbox.c ****             if(buf->type[i] == NULL) break;
 1066              		.loc 2 350 0
 1067 006c 97F82620 		ldrb	r2, [r7, #38]	@ zero_extendqisi2
 1068 0070 FB69     		ldr	r3, [r7, #28]
 1069 0072 53F82230 		ldr	r3, [r3, r2, lsl #2]
 1070 0076 002B     		cmp	r3, #0
 1071 0078 09D0     		beq	.L70
 349:..\..\..\lvgl\version_6.1.2\lvgl\src\lv_objx/lv_spinbox.c ****             if(buf->type[i] == NULL) break;
 1072              		.loc 2 349 0 discriminator 2
 1073 007a 97F82630 		ldrb	r3, [r7, #38]	@ zero_extendqisi2
 1074 007e 0133     		adds	r3, r3, #1
 1075 0080 87F82630 		strb	r3, [r7, #38]
 1076              	.L58:
 349:..\..\..\lvgl\version_6.1.2\lvgl\src\lv_objx/lv_spinbox.c ****             if(buf->type[i] == NULL) break;
 1077              		.loc 2 349 0 is_stmt 0 discriminator 1
 1078 0084 97F82630 		ldrb	r3, [r7, #38]	@ zero_extendqisi2
 1079 0088 062B     		cmp	r3, #6
 1080 008a EFD9     		bls	.L61
 1081 008c 00E0     		b	.L60
 1082              	.L70:
 1083              		.loc 2 350 0 is_stmt 1
 1084 008e 00BF     		nop
 1085              	.L60:
 351:..\..\..\lvgl\version_6.1.2\lvgl\src\lv_objx/lv_spinbox.c ****         }
 352:..\..\..\lvgl\version_6.1.2\lvgl\src\lv_objx/lv_spinbox.c ****         buf->type[i] = "lv_spinbox";
 1086              		.loc 2 352 0
 1087 0090 97F82620 		ldrb	r2, [r7, #38]	@ zero_extendqisi2
 1088 0094 FB69     		ldr	r3, [r7, #28]
 1089 0096 2549     		ldr	r1, .L71+4
 1090 0098 43F82210 		str	r1, [r3, r2, lsl #2]
 1091              	.LBE4:
ARM GAS  C:\Users\tmj32\AppData\Local\Temp\cci6nv1n.s 			page 28


 1092 009c 3EE0     		b	.L56
 1093              	.L57:
 353:..\..\..\lvgl\version_6.1.2\lvgl\src\lv_objx/lv_spinbox.c ****     } else if(sign == LV_SIGNAL_RELEASED) {
 1094              		.loc 2 353 0
 1095 009e FB7A     		ldrb	r3, [r7, #11]	@ zero_extendqisi2
 1096 00a0 0B2B     		cmp	r3, #11
 1097 00a2 3BD0     		beq	.L56
 354:..\..\..\lvgl\version_6.1.2\lvgl\src\lv_objx/lv_spinbox.c ****         /*If released with an ENCODER then move to the next digit*/
 355:..\..\..\lvgl\version_6.1.2\lvgl\src\lv_objx/lv_spinbox.c **** #if LV_USE_GROUP
 356:..\..\..\lvgl\version_6.1.2\lvgl\src\lv_objx/lv_spinbox.c ****         lv_indev_t * indev = lv_indev_get_act();
 357:..\..\..\lvgl\version_6.1.2\lvgl\src\lv_objx/lv_spinbox.c ****         if(lv_indev_get_type(indev) == LV_INDEV_TYPE_ENCODER) {
 358:..\..\..\lvgl\version_6.1.2\lvgl\src\lv_objx/lv_spinbox.c ****             if(lv_group_get_editing(lv_obj_get_group(spinbox))) {
 359:..\..\..\lvgl\version_6.1.2\lvgl\src\lv_objx/lv_spinbox.c ****                 if(ext->step > 1) {
 360:..\..\..\lvgl\version_6.1.2\lvgl\src\lv_objx/lv_spinbox.c ****                     lv_spinbox_step_next(spinbox);
 361:..\..\..\lvgl\version_6.1.2\lvgl\src\lv_objx/lv_spinbox.c ****                 } else {
 362:..\..\..\lvgl\version_6.1.2\lvgl\src\lv_objx/lv_spinbox.c ****                     /*Restart from the MSB*/
 363:..\..\..\lvgl\version_6.1.2\lvgl\src\lv_objx/lv_spinbox.c ****                     ext->step = 1;
 364:..\..\..\lvgl\version_6.1.2\lvgl\src\lv_objx/lv_spinbox.c ****                     uint32_t i;
 365:..\..\..\lvgl\version_6.1.2\lvgl\src\lv_objx/lv_spinbox.c ****                     for(i = 0; i < ext->digit_count; i++) {
 366:..\..\..\lvgl\version_6.1.2\lvgl\src\lv_objx/lv_spinbox.c ****                         int32_t new_step = ext->step * 10;
 367:..\..\..\lvgl\version_6.1.2\lvgl\src\lv_objx/lv_spinbox.c ****                         if(new_step >= ext->range_max) break;
 368:..\..\..\lvgl\version_6.1.2\lvgl\src\lv_objx/lv_spinbox.c ****                         ext->step = new_step;
 369:..\..\..\lvgl\version_6.1.2\lvgl\src\lv_objx/lv_spinbox.c ****                     }
 370:..\..\..\lvgl\version_6.1.2\lvgl\src\lv_objx/lv_spinbox.c ****                     lv_spinbox_step_prev(spinbox);
 371:..\..\..\lvgl\version_6.1.2\lvgl\src\lv_objx/lv_spinbox.c ****                 }
 372:..\..\..\lvgl\version_6.1.2\lvgl\src\lv_objx/lv_spinbox.c ****             }
 373:..\..\..\lvgl\version_6.1.2\lvgl\src\lv_objx/lv_spinbox.c ****         }
 374:..\..\..\lvgl\version_6.1.2\lvgl\src\lv_objx/lv_spinbox.c **** #endif
 375:..\..\..\lvgl\version_6.1.2\lvgl\src\lv_objx/lv_spinbox.c ****     } else if(sign == LV_SIGNAL_CONTROL) {
 1098              		.loc 2 375 0
 1099 00a4 FB7A     		ldrb	r3, [r7, #11]	@ zero_extendqisi2
 1100 00a6 122B     		cmp	r3, #18
 1101 00a8 38D1     		bne	.L56
 1102              	.LBB5:
 376:..\..\..\lvgl\version_6.1.2\lvgl\src\lv_objx/lv_spinbox.c ****         lv_indev_type_t indev_type = lv_indev_get_type(lv_indev_get_act());
 1103              		.loc 2 376 0
 1104 00aa FFF7FEFF 		bl	lv_indev_get_act
 1105 00ae 0346     		mov	r3, r0
 1106 00b0 1846     		mov	r0, r3
 1107 00b2 FFF7FEFF 		bl	lv_indev_get_type
 1108 00b6 0346     		mov	r3, r0
 1109 00b8 FB76     		strb	r3, [r7, #27]
 377:..\..\..\lvgl\version_6.1.2\lvgl\src\lv_objx/lv_spinbox.c **** 
 378:..\..\..\lvgl\version_6.1.2\lvgl\src\lv_objx/lv_spinbox.c ****         uint32_t c = *((uint32_t *)param); /*uint32_t because can be UTF-8*/
 1110              		.loc 2 378 0
 1111 00ba 7B68     		ldr	r3, [r7, #4]
 1112 00bc 1B68     		ldr	r3, [r3]
 1113 00be 7B61     		str	r3, [r7, #20]
 379:..\..\..\lvgl\version_6.1.2\lvgl\src\lv_objx/lv_spinbox.c ****         if(c == LV_KEY_RIGHT) {
 1114              		.loc 2 379 0
 1115 00c0 7B69     		ldr	r3, [r7, #20]
 1116 00c2 132B     		cmp	r3, #19
 1117 00c4 0AD1     		bne	.L62
 380:..\..\..\lvgl\version_6.1.2\lvgl\src\lv_objx/lv_spinbox.c ****             if(indev_type == LV_INDEV_TYPE_ENCODER)
 1118              		.loc 2 380 0
 1119 00c6 FB7E     		ldrb	r3, [r7, #27]	@ zero_extendqisi2
 1120 00c8 042B     		cmp	r3, #4
ARM GAS  C:\Users\tmj32\AppData\Local\Temp\cci6nv1n.s 			page 29


 1121 00ca 03D1     		bne	.L63
 381:..\..\..\lvgl\version_6.1.2\lvgl\src\lv_objx/lv_spinbox.c ****                 lv_spinbox_increment(spinbox);
 1122              		.loc 2 381 0
 1123 00cc F868     		ldr	r0, [r7, #12]
 1124 00ce FFF7FEFF 		bl	lv_spinbox_increment
 1125 00d2 23E0     		b	.L56
 1126              	.L63:
 382:..\..\..\lvgl\version_6.1.2\lvgl\src\lv_objx/lv_spinbox.c ****             else
 383:..\..\..\lvgl\version_6.1.2\lvgl\src\lv_objx/lv_spinbox.c ****                 lv_spinbox_step_next(spinbox);
 1127              		.loc 2 383 0
 1128 00d4 F868     		ldr	r0, [r7, #12]
 1129 00d6 FFF7FEFF 		bl	lv_spinbox_step_next
 1130 00da 1FE0     		b	.L56
 1131              	.L62:
 384:..\..\..\lvgl\version_6.1.2\lvgl\src\lv_objx/lv_spinbox.c ****         } else if(c == LV_KEY_LEFT) {
 1132              		.loc 2 384 0
 1133 00dc 7B69     		ldr	r3, [r7, #20]
 1134 00de 142B     		cmp	r3, #20
 1135 00e0 0AD1     		bne	.L65
 385:..\..\..\lvgl\version_6.1.2\lvgl\src\lv_objx/lv_spinbox.c ****             if(indev_type == LV_INDEV_TYPE_ENCODER)
 1136              		.loc 2 385 0
 1137 00e2 FB7E     		ldrb	r3, [r7, #27]	@ zero_extendqisi2
 1138 00e4 042B     		cmp	r3, #4
 1139 00e6 03D1     		bne	.L66
 386:..\..\..\lvgl\version_6.1.2\lvgl\src\lv_objx/lv_spinbox.c ****                 lv_spinbox_decrement(spinbox);
 1140              		.loc 2 386 0
 1141 00e8 F868     		ldr	r0, [r7, #12]
 1142 00ea FFF7FEFF 		bl	lv_spinbox_decrement
 1143 00ee 15E0     		b	.L56
 1144              	.L66:
 387:..\..\..\lvgl\version_6.1.2\lvgl\src\lv_objx/lv_spinbox.c ****             else
 388:..\..\..\lvgl\version_6.1.2\lvgl\src\lv_objx/lv_spinbox.c ****                 lv_spinbox_step_prev(spinbox);
 1145              		.loc 2 388 0
 1146 00f0 F868     		ldr	r0, [r7, #12]
 1147 00f2 FFF7FEFF 		bl	lv_spinbox_step_prev
 1148 00f6 11E0     		b	.L56
 1149              	.L65:
 389:..\..\..\lvgl\version_6.1.2\lvgl\src\lv_objx/lv_spinbox.c ****         } else if(c == LV_KEY_UP) {
 1150              		.loc 2 389 0
 1151 00f8 7B69     		ldr	r3, [r7, #20]
 1152 00fa 112B     		cmp	r3, #17
 1153 00fc 03D1     		bne	.L68
 390:..\..\..\lvgl\version_6.1.2\lvgl\src\lv_objx/lv_spinbox.c ****             lv_spinbox_increment(spinbox);
 1154              		.loc 2 390 0
 1155 00fe F868     		ldr	r0, [r7, #12]
 1156 0100 FFF7FEFF 		bl	lv_spinbox_increment
 1157 0104 0AE0     		b	.L56
 1158              	.L68:
 391:..\..\..\lvgl\version_6.1.2\lvgl\src\lv_objx/lv_spinbox.c ****         } else if(c == LV_KEY_DOWN) {
 1159              		.loc 2 391 0
 1160 0106 7B69     		ldr	r3, [r7, #20]
 1161 0108 122B     		cmp	r3, #18
 1162 010a 03D1     		bne	.L69
 392:..\..\..\lvgl\version_6.1.2\lvgl\src\lv_objx/lv_spinbox.c ****             lv_spinbox_decrement(spinbox);
 1163              		.loc 2 392 0
 1164 010c F868     		ldr	r0, [r7, #12]
 1165 010e FFF7FEFF 		bl	lv_spinbox_decrement
ARM GAS  C:\Users\tmj32\AppData\Local\Temp\cci6nv1n.s 			page 30


 1166 0112 03E0     		b	.L56
 1167              	.L69:
 393:..\..\..\lvgl\version_6.1.2\lvgl\src\lv_objx/lv_spinbox.c ****         } else {
 394:..\..\..\lvgl\version_6.1.2\lvgl\src\lv_objx/lv_spinbox.c ****             lv_ta_add_char(spinbox, c);
 1168              		.loc 2 394 0
 1169 0114 7969     		ldr	r1, [r7, #20]
 1170 0116 F868     		ldr	r0, [r7, #12]
 1171 0118 FFF7FEFF 		bl	lv_ta_add_char
 1172              	.L56:
 1173              	.LBE5:
 395:..\..\..\lvgl\version_6.1.2\lvgl\src\lv_objx/lv_spinbox.c ****         }
 396:..\..\..\lvgl\version_6.1.2\lvgl\src\lv_objx/lv_spinbox.c ****     }
 397:..\..\..\lvgl\version_6.1.2\lvgl\src\lv_objx/lv_spinbox.c **** 
 398:..\..\..\lvgl\version_6.1.2\lvgl\src\lv_objx/lv_spinbox.c ****     return res;
 1174              		.loc 2 398 0
 1175 011c 97F82730 		ldrb	r3, [r7, #39]	@ zero_extendqisi2
 1176              	.L54:
 399:..\..\..\lvgl\version_6.1.2\lvgl\src\lv_objx/lv_spinbox.c **** }
 1177              		.loc 2 399 0
 1178 0120 1846     		mov	r0, r3
 1179 0122 2837     		adds	r7, r7, #40
 1180              		.cfi_def_cfa_offset 8
 1181 0124 BD46     		mov	sp, r7
 1182              		.cfi_def_cfa_register 13
 1183              		@ sp needed
 1184 0126 80BD     		pop	{r7, pc}
 1185              	.L72:
 1186              		.align	2
 1187              	.L71:
 1188 0128 00000000 		.word	ancestor_signal
 1189 012c 00000000 		.word	.LC0
 1190              		.cfi_endproc
 1191              	.LFE69:
 1192              		.size	lv_spinbox_signal, .-lv_spinbox_signal
 1193              		.section	.text.lv_spinbox_updatevalue,"ax",%progbits
 1194              		.align	2
 1195              		.thumb
 1196              		.thumb_func
 1197              		.type	lv_spinbox_updatevalue, %function
 1198              	lv_spinbox_updatevalue:
 1199              	.LFB70:
 400:..\..\..\lvgl\version_6.1.2\lvgl\src\lv_objx/lv_spinbox.c **** 
 401:..\..\..\lvgl\version_6.1.2\lvgl\src\lv_objx/lv_spinbox.c **** static void lv_spinbox_updatevalue(lv_obj_t * spinbox)
 402:..\..\..\lvgl\version_6.1.2\lvgl\src\lv_objx/lv_spinbox.c **** {
 1200              		.loc 2 402 0
 1201              		.cfi_startproc
 1202              		@ args = 0, pretend = 0, frame = 128
 1203              		@ frame_needed = 1, uses_anonymous_args = 0
 1204 0000 90B5     		push	{r4, r7, lr}
 1205              		.cfi_def_cfa_offset 12
 1206              		.cfi_offset 4, -12
 1207              		.cfi_offset 7, -8
 1208              		.cfi_offset 14, -4
 1209 0002 A1B0     		sub	sp, sp, #132
 1210              		.cfi_def_cfa_offset 144
 1211 0004 00AF     		add	r7, sp, #0
 1212              		.cfi_def_cfa_register 7
ARM GAS  C:\Users\tmj32\AppData\Local\Temp\cci6nv1n.s 			page 31


 1213 0006 7860     		str	r0, [r7, #4]
 403:..\..\..\lvgl\version_6.1.2\lvgl\src\lv_objx/lv_spinbox.c ****     lv_spinbox_ext_t * ext = lv_obj_get_ext_attr(spinbox);
 1214              		.loc 2 403 0
 1215 0008 7868     		ldr	r0, [r7, #4]
 1216 000a FFF7FEFF 		bl	lv_obj_get_ext_attr
 1217 000e B866     		str	r0, [r7, #104]
 404:..\..\..\lvgl\version_6.1.2\lvgl\src\lv_objx/lv_spinbox.c **** 
 405:..\..\..\lvgl\version_6.1.2\lvgl\src\lv_objx/lv_spinbox.c ****     char buf[LV_SPINBOX_MAX_DIGIT_COUNT + 8];
 406:..\..\..\lvgl\version_6.1.2\lvgl\src\lv_objx/lv_spinbox.c ****     memset(buf, 0, sizeof(buf));
 1218              		.loc 2 406 0
 1219 0010 07F14803 		add	r3, r7, #72
 1220 0014 1822     		movs	r2, #24
 1221 0016 0021     		movs	r1, #0
 1222 0018 1846     		mov	r0, r3
 1223 001a FFF7FEFF 		bl	memset
 407:..\..\..\lvgl\version_6.1.2\lvgl\src\lv_objx/lv_spinbox.c ****     char * buf_p = buf;
 1224              		.loc 2 407 0
 1225 001e 07F14803 		add	r3, r7, #72
 1226 0022 FB67     		str	r3, [r7, #124]
 408:..\..\..\lvgl\version_6.1.2\lvgl\src\lv_objx/lv_spinbox.c ****     uint8_t cur_shift_left = 0;
 1227              		.loc 2 408 0
 1228 0024 0023     		movs	r3, #0
 1229 0026 87F87B30 		strb	r3, [r7, #123]
 409:..\..\..\lvgl\version_6.1.2\lvgl\src\lv_objx/lv_spinbox.c **** 
 410:..\..\..\lvgl\version_6.1.2\lvgl\src\lv_objx/lv_spinbox.c ****     if (ext->range_min < 0) { // hide sign if there are only positive values
 1230              		.loc 2 410 0
 1231 002a BB6E     		ldr	r3, [r7, #104]
 1232 002c 9B6E     		ldr	r3, [r3, #104]
 1233 002e 002B     		cmp	r3, #0
 1234 0030 0CDA     		bge	.L74
 411:..\..\..\lvgl\version_6.1.2\lvgl\src\lv_objx/lv_spinbox.c ****         /*Add the sign*/
 412:..\..\..\lvgl\version_6.1.2\lvgl\src\lv_objx/lv_spinbox.c ****         (*buf_p) = ext->value >= 0 ? '+' : '-';
 1235              		.loc 2 412 0
 1236 0032 BB6E     		ldr	r3, [r7, #104]
 1237 0034 1B6E     		ldr	r3, [r3, #96]
 1238 0036 002B     		cmp	r3, #0
 1239 0038 01DB     		blt	.L75
 1240              		.loc 2 412 0 is_stmt 0 discriminator 1
 1241 003a 2B22     		movs	r2, #43
 1242 003c 00E0     		b	.L76
 1243              	.L75:
 1244              		.loc 2 412 0 discriminator 2
 1245 003e 2D22     		movs	r2, #45
 1246              	.L76:
 1247              		.loc 2 412 0 discriminator 4
 1248 0040 FB6F     		ldr	r3, [r7, #124]
 1249 0042 1A70     		strb	r2, [r3]
 413:..\..\..\lvgl\version_6.1.2\lvgl\src\lv_objx/lv_spinbox.c ****         buf_p++;
 1250              		.loc 2 413 0 is_stmt 1 discriminator 4
 1251 0044 FB6F     		ldr	r3, [r7, #124]
 1252 0046 0133     		adds	r3, r3, #1
 1253 0048 FB67     		str	r3, [r7, #124]
 1254 004a 04E0     		b	.L77
 1255              	.L74:
 414:..\..\..\lvgl\version_6.1.2\lvgl\src\lv_objx/lv_spinbox.c ****     } else {
 415:..\..\..\lvgl\version_6.1.2\lvgl\src\lv_objx/lv_spinbox.c ****     	/*Cursor need shift to left*/
 416:..\..\..\lvgl\version_6.1.2\lvgl\src\lv_objx/lv_spinbox.c ****     	cur_shift_left++;
ARM GAS  C:\Users\tmj32\AppData\Local\Temp\cci6nv1n.s 			page 32


 1256              		.loc 2 416 0
 1257 004c 97F87B30 		ldrb	r3, [r7, #123]	@ zero_extendqisi2
 1258 0050 0133     		adds	r3, r3, #1
 1259 0052 87F87B30 		strb	r3, [r7, #123]
 1260              	.L77:
 417:..\..\..\lvgl\version_6.1.2\lvgl\src\lv_objx/lv_spinbox.c ****     }
 418:..\..\..\lvgl\version_6.1.2\lvgl\src\lv_objx/lv_spinbox.c **** 
 419:..\..\..\lvgl\version_6.1.2\lvgl\src\lv_objx/lv_spinbox.c ****     int32_t i;
 420:..\..\..\lvgl\version_6.1.2\lvgl\src\lv_objx/lv_spinbox.c ****     /*padding left*/
 421:..\..\..\lvgl\version_6.1.2\lvgl\src\lv_objx/lv_spinbox.c ****     for(i = 0; i < ext->digit_padding_left; i++) {
 1261              		.loc 2 421 0
 1262 0056 0023     		movs	r3, #0
 1263 0058 7B67     		str	r3, [r7, #116]
 1264 005a 08E0     		b	.L78
 1265              	.L79:
 422:..\..\..\lvgl\version_6.1.2\lvgl\src\lv_objx/lv_spinbox.c ****         (*buf_p) = ' ';
 1266              		.loc 2 422 0 discriminator 3
 1267 005c FB6F     		ldr	r3, [r7, #124]
 1268 005e 2022     		movs	r2, #32
 1269 0060 1A70     		strb	r2, [r3]
 423:..\..\..\lvgl\version_6.1.2\lvgl\src\lv_objx/lv_spinbox.c ****         buf_p++;
 1270              		.loc 2 423 0 discriminator 3
 1271 0062 FB6F     		ldr	r3, [r7, #124]
 1272 0064 0133     		adds	r3, r3, #1
 1273 0066 FB67     		str	r3, [r7, #124]
 421:..\..\..\lvgl\version_6.1.2\lvgl\src\lv_objx/lv_spinbox.c ****         (*buf_p) = ' ';
 1274              		.loc 2 421 0 discriminator 3
 1275 0068 7B6F     		ldr	r3, [r7, #116]
 1276 006a 0133     		adds	r3, r3, #1
 1277 006c 7B67     		str	r3, [r7, #116]
 1278              	.L78:
 421:..\..\..\lvgl\version_6.1.2\lvgl\src\lv_objx/lv_spinbox.c ****         (*buf_p) = ' ';
 1279              		.loc 2 421 0 is_stmt 0 discriminator 1
 1280 006e BB6E     		ldr	r3, [r7, #104]
 1281 0070 93F87130 		ldrb	r3, [r3, #113]
 1282 0074 C3F30303 		ubfx	r3, r3, #0, #4
 1283 0078 DBB2     		uxtb	r3, r3
 1284 007a 1A46     		mov	r2, r3
 1285 007c 7B6F     		ldr	r3, [r7, #116]
 1286 007e 9A42     		cmp	r2, r3
 1287 0080 ECDC     		bgt	.L79
 424:..\..\..\lvgl\version_6.1.2\lvgl\src\lv_objx/lv_spinbox.c ****     }
 425:..\..\..\lvgl\version_6.1.2\lvgl\src\lv_objx/lv_spinbox.c **** 
 426:..\..\..\lvgl\version_6.1.2\lvgl\src\lv_objx/lv_spinbox.c ****     char digits[64];
 427:..\..\..\lvgl\version_6.1.2\lvgl\src\lv_objx/lv_spinbox.c ****     /*Convert the numbers to string (the sign is already handled so always covert positive number)*
 428:..\..\..\lvgl\version_6.1.2\lvgl\src\lv_objx/lv_spinbox.c ****     lv_utils_num_to_str(ext->value < 0 ? -ext->value : ext->value, digits);
 1288              		.loc 2 428 0 is_stmt 1
 1289 0082 BB6E     		ldr	r3, [r7, #104]
 1290 0084 1B6E     		ldr	r3, [r3, #96]
 1291 0086 002B     		cmp	r3, #0
 1292 0088 B8BF     		it	lt
 1293 008a 5B42     		rsblt	r3, r3, #0
 1294 008c 07F10802 		add	r2, r7, #8
 1295 0090 1146     		mov	r1, r2
 1296 0092 1846     		mov	r0, r3
 1297 0094 FFF7FEFF 		bl	lv_utils_num_to_str
 429:..\..\..\lvgl\version_6.1.2\lvgl\src\lv_objx/lv_spinbox.c **** 
ARM GAS  C:\Users\tmj32\AppData\Local\Temp\cci6nv1n.s 			page 33


 430:..\..\..\lvgl\version_6.1.2\lvgl\src\lv_objx/lv_spinbox.c ****     /*Add leading zeros*/
 431:..\..\..\lvgl\version_6.1.2\lvgl\src\lv_objx/lv_spinbox.c ****     int lz_cnt = ext->digit_count - (int)strlen(digits);
 1298              		.loc 2 431 0
 1299 0098 BB6E     		ldr	r3, [r7, #104]
 1300 009a 93F87030 		ldrb	r3, [r3, #112]
 1301 009e C3F30303 		ubfx	r3, r3, #0, #4
 1302 00a2 DBB2     		uxtb	r3, r3
 1303 00a4 1C46     		mov	r4, r3
 1304 00a6 07F10803 		add	r3, r7, #8
 1305 00aa 1846     		mov	r0, r3
 1306 00ac FFF7FEFF 		bl	strlen
 1307 00b0 0346     		mov	r3, r0
 1308 00b2 E31A     		subs	r3, r4, r3
 1309 00b4 7B66     		str	r3, [r7, #100]
 432:..\..\..\lvgl\version_6.1.2\lvgl\src\lv_objx/lv_spinbox.c ****     if(lz_cnt > 0) {
 1310              		.loc 2 432 0
 1311 00b6 7B6E     		ldr	r3, [r7, #100]
 1312 00b8 002B     		cmp	r3, #0
 1313 00ba 2BDD     		ble	.L80
 433:..\..\..\lvgl\version_6.1.2\lvgl\src\lv_objx/lv_spinbox.c ****         for(i = (uint16_t)strlen(digits); i >= 0; i--) {
 1314              		.loc 2 433 0
 1315 00bc 07F10803 		add	r3, r7, #8
 1316 00c0 1846     		mov	r0, r3
 1317 00c2 FFF7FEFF 		bl	strlen
 1318 00c6 0346     		mov	r3, r0
 1319 00c8 9BB2     		uxth	r3, r3
 1320 00ca 7B67     		str	r3, [r7, #116]
 1321 00cc 0FE0     		b	.L81
 1322              	.L82:
 434:..\..\..\lvgl\version_6.1.2\lvgl\src\lv_objx/lv_spinbox.c ****             digits[i + lz_cnt] = digits[i];
 1323              		.loc 2 434 0 discriminator 3
 1324 00ce 7A6F     		ldr	r2, [r7, #116]
 1325 00d0 7B6E     		ldr	r3, [r7, #100]
 1326 00d2 1344     		add	r3, r3, r2
 1327 00d4 07F10801 		add	r1, r7, #8
 1328 00d8 7A6F     		ldr	r2, [r7, #116]
 1329 00da 0A44     		add	r2, r2, r1
 1330 00dc 1278     		ldrb	r2, [r2]	@ zero_extendqisi2
 1331 00de 07F18001 		add	r1, r7, #128
 1332 00e2 0B44     		add	r3, r3, r1
 1333 00e4 03F8782C 		strb	r2, [r3, #-120]
 433:..\..\..\lvgl\version_6.1.2\lvgl\src\lv_objx/lv_spinbox.c ****         for(i = (uint16_t)strlen(digits); i >= 0; i--) {
 1334              		.loc 2 433 0 discriminator 3
 1335 00e8 7B6F     		ldr	r3, [r7, #116]
 1336 00ea 013B     		subs	r3, r3, #1
 1337 00ec 7B67     		str	r3, [r7, #116]
 1338              	.L81:
 433:..\..\..\lvgl\version_6.1.2\lvgl\src\lv_objx/lv_spinbox.c ****         for(i = (uint16_t)strlen(digits); i >= 0; i--) {
 1339              		.loc 2 433 0 is_stmt 0 discriminator 1
 1340 00ee 7B6F     		ldr	r3, [r7, #116]
 1341 00f0 002B     		cmp	r3, #0
 1342 00f2 ECDA     		bge	.L82
 435:..\..\..\lvgl\version_6.1.2\lvgl\src\lv_objx/lv_spinbox.c ****         }
 436:..\..\..\lvgl\version_6.1.2\lvgl\src\lv_objx/lv_spinbox.c ****         for(i = 0; i < lz_cnt; i++) {
 1343              		.loc 2 436 0 is_stmt 1
 1344 00f4 0023     		movs	r3, #0
 1345 00f6 7B67     		str	r3, [r7, #116]
ARM GAS  C:\Users\tmj32\AppData\Local\Temp\cci6nv1n.s 			page 34


 1346 00f8 08E0     		b	.L83
 1347              	.L84:
 437:..\..\..\lvgl\version_6.1.2\lvgl\src\lv_objx/lv_spinbox.c ****             digits[i] = '0';
 1348              		.loc 2 437 0 discriminator 3
 1349 00fa 07F10802 		add	r2, r7, #8
 1350 00fe 7B6F     		ldr	r3, [r7, #116]
 1351 0100 1344     		add	r3, r3, r2
 1352 0102 3022     		movs	r2, #48
 1353 0104 1A70     		strb	r2, [r3]
 436:..\..\..\lvgl\version_6.1.2\lvgl\src\lv_objx/lv_spinbox.c ****             digits[i] = '0';
 1354              		.loc 2 436 0 discriminator 3
 1355 0106 7B6F     		ldr	r3, [r7, #116]
 1356 0108 0133     		adds	r3, r3, #1
 1357 010a 7B67     		str	r3, [r7, #116]
 1358              	.L83:
 436:..\..\..\lvgl\version_6.1.2\lvgl\src\lv_objx/lv_spinbox.c ****             digits[i] = '0';
 1359              		.loc 2 436 0 is_stmt 0 discriminator 1
 1360 010c 7A6F     		ldr	r2, [r7, #116]
 1361 010e 7B6E     		ldr	r3, [r7, #100]
 1362 0110 9A42     		cmp	r2, r3
 1363 0112 F2DB     		blt	.L84
 1364              	.L80:
 438:..\..\..\lvgl\version_6.1.2\lvgl\src\lv_objx/lv_spinbox.c ****         }
 439:..\..\..\lvgl\version_6.1.2\lvgl\src\lv_objx/lv_spinbox.c ****     }
 440:..\..\..\lvgl\version_6.1.2\lvgl\src\lv_objx/lv_spinbox.c **** 
 441:..\..\..\lvgl\version_6.1.2\lvgl\src\lv_objx/lv_spinbox.c ****     int32_t intDigits;
 442:..\..\..\lvgl\version_6.1.2\lvgl\src\lv_objx/lv_spinbox.c ****     intDigits = (ext->dec_point_pos == 0) ? ext->digit_count : ext->dec_point_pos;
 1365              		.loc 2 442 0 is_stmt 1
 1366 0114 BB6E     		ldr	r3, [r7, #104]
 1367 0116 93F87030 		ldrb	r3, [r3, #112]	@ zero_extendqisi2
 1368 011a 23F00F03 		bic	r3, r3, #15
 1369 011e DBB2     		uxtb	r3, r3
 1370 0120 002B     		cmp	r3, #0
 1371 0122 06D1     		bne	.L85
 1372              		.loc 2 442 0 is_stmt 0 discriminator 1
 1373 0124 BB6E     		ldr	r3, [r7, #104]
 1374 0126 93F87030 		ldrb	r3, [r3, #112]
 1375 012a C3F30303 		ubfx	r3, r3, #0, #4
 1376 012e DBB2     		uxtb	r3, r3
 1377 0130 05E0     		b	.L86
 1378              	.L85:
 1379              		.loc 2 442 0 discriminator 2
 1380 0132 BB6E     		ldr	r3, [r7, #104]
 1381 0134 93F87030 		ldrb	r3, [r3, #112]
 1382 0138 C3F30313 		ubfx	r3, r3, #4, #4
 1383 013c DBB2     		uxtb	r3, r3
 1384              	.L86:
 1385              		.loc 2 442 0 discriminator 4
 1386 013e 3B66     		str	r3, [r7, #96]
 443:..\..\..\lvgl\version_6.1.2\lvgl\src\lv_objx/lv_spinbox.c **** 
 444:..\..\..\lvgl\version_6.1.2\lvgl\src\lv_objx/lv_spinbox.c ****     /*Add the decimal part*/
 445:..\..\..\lvgl\version_6.1.2\lvgl\src\lv_objx/lv_spinbox.c ****     for(i = 0; i < intDigits && digits[i] != '\0'; i++) {
 1387              		.loc 2 445 0 is_stmt 1 discriminator 4
 1388 0140 0023     		movs	r3, #0
 1389 0142 7B67     		str	r3, [r7, #116]
 1390 0144 0CE0     		b	.L87
 1391              	.L89:
ARM GAS  C:\Users\tmj32\AppData\Local\Temp\cci6nv1n.s 			page 35


 446:..\..\..\lvgl\version_6.1.2\lvgl\src\lv_objx/lv_spinbox.c ****         (*buf_p) = digits[i];
 1392              		.loc 2 446 0 discriminator 4
 1393 0146 07F10802 		add	r2, r7, #8
 1394 014a 7B6F     		ldr	r3, [r7, #116]
 1395 014c 1344     		add	r3, r3, r2
 1396 014e 1A78     		ldrb	r2, [r3]	@ zero_extendqisi2
 1397 0150 FB6F     		ldr	r3, [r7, #124]
 1398 0152 1A70     		strb	r2, [r3]
 447:..\..\..\lvgl\version_6.1.2\lvgl\src\lv_objx/lv_spinbox.c ****         buf_p++;
 1399              		.loc 2 447 0 discriminator 4
 1400 0154 FB6F     		ldr	r3, [r7, #124]
 1401 0156 0133     		adds	r3, r3, #1
 1402 0158 FB67     		str	r3, [r7, #124]
 445:..\..\..\lvgl\version_6.1.2\lvgl\src\lv_objx/lv_spinbox.c ****         (*buf_p) = digits[i];
 1403              		.loc 2 445 0 discriminator 4
 1404 015a 7B6F     		ldr	r3, [r7, #116]
 1405 015c 0133     		adds	r3, r3, #1
 1406 015e 7B67     		str	r3, [r7, #116]
 1407              	.L87:
 445:..\..\..\lvgl\version_6.1.2\lvgl\src\lv_objx/lv_spinbox.c ****         (*buf_p) = digits[i];
 1408              		.loc 2 445 0 is_stmt 0 discriminator 1
 1409 0160 7A6F     		ldr	r2, [r7, #116]
 1410 0162 3B6E     		ldr	r3, [r7, #96]
 1411 0164 9A42     		cmp	r2, r3
 1412 0166 06DA     		bge	.L88
 445:..\..\..\lvgl\version_6.1.2\lvgl\src\lv_objx/lv_spinbox.c ****         (*buf_p) = digits[i];
 1413              		.loc 2 445 0 discriminator 3
 1414 0168 07F10802 		add	r2, r7, #8
 1415 016c 7B6F     		ldr	r3, [r7, #116]
 1416 016e 1344     		add	r3, r3, r2
 1417 0170 1B78     		ldrb	r3, [r3]	@ zero_extendqisi2
 1418 0172 002B     		cmp	r3, #0
 1419 0174 E7D1     		bne	.L89
 1420              	.L88:
 448:..\..\..\lvgl\version_6.1.2\lvgl\src\lv_objx/lv_spinbox.c ****     }
 449:..\..\..\lvgl\version_6.1.2\lvgl\src\lv_objx/lv_spinbox.c **** 
 450:..\..\..\lvgl\version_6.1.2\lvgl\src\lv_objx/lv_spinbox.c ****     if(ext->dec_point_pos != 0) {
 1421              		.loc 2 450 0 is_stmt 1
 1422 0176 BB6E     		ldr	r3, [r7, #104]
 1423 0178 93F87030 		ldrb	r3, [r3, #112]	@ zero_extendqisi2
 1424 017c 23F00F03 		bic	r3, r3, #15
 1425 0180 DBB2     		uxtb	r3, r3
 1426 0182 002B     		cmp	r3, #0
 1427 0184 24D0     		beq	.L90
 451:..\..\..\lvgl\version_6.1.2\lvgl\src\lv_objx/lv_spinbox.c ****         /*Insert the decimal point*/
 452:..\..\..\lvgl\version_6.1.2\lvgl\src\lv_objx/lv_spinbox.c ****         (*buf_p) = '.';
 1428              		.loc 2 452 0
 1429 0186 FB6F     		ldr	r3, [r7, #124]
 1430 0188 2E22     		movs	r2, #46
 1431 018a 1A70     		strb	r2, [r3]
 453:..\..\..\lvgl\version_6.1.2\lvgl\src\lv_objx/lv_spinbox.c ****         buf_p++;
 1432              		.loc 2 453 0
 1433 018c FB6F     		ldr	r3, [r7, #124]
 1434 018e 0133     		adds	r3, r3, #1
 1435 0190 FB67     		str	r3, [r7, #124]
 454:..\..\..\lvgl\version_6.1.2\lvgl\src\lv_objx/lv_spinbox.c **** 
 455:..\..\..\lvgl\version_6.1.2\lvgl\src\lv_objx/lv_spinbox.c ****         for(/*Leave i*/; i < ext->digit_count && digits[i] != '\0'; i++) {
ARM GAS  C:\Users\tmj32\AppData\Local\Temp\cci6nv1n.s 			page 36


 1436              		.loc 2 455 0
 1437 0192 0CE0     		b	.L91
 1438              	.L92:
 456:..\..\..\lvgl\version_6.1.2\lvgl\src\lv_objx/lv_spinbox.c ****             (*buf_p) = digits[i];
 1439              		.loc 2 456 0 discriminator 3
 1440 0194 07F10802 		add	r2, r7, #8
 1441 0198 7B6F     		ldr	r3, [r7, #116]
 1442 019a 1344     		add	r3, r3, r2
 1443 019c 1A78     		ldrb	r2, [r3]	@ zero_extendqisi2
 1444 019e FB6F     		ldr	r3, [r7, #124]
 1445 01a0 1A70     		strb	r2, [r3]
 457:..\..\..\lvgl\version_6.1.2\lvgl\src\lv_objx/lv_spinbox.c ****             buf_p++;
 1446              		.loc 2 457 0 discriminator 3
 1447 01a2 FB6F     		ldr	r3, [r7, #124]
 1448 01a4 0133     		adds	r3, r3, #1
 1449 01a6 FB67     		str	r3, [r7, #124]
 455:..\..\..\lvgl\version_6.1.2\lvgl\src\lv_objx/lv_spinbox.c ****             (*buf_p) = digits[i];
 1450              		.loc 2 455 0 discriminator 3
 1451 01a8 7B6F     		ldr	r3, [r7, #116]
 1452 01aa 0133     		adds	r3, r3, #1
 1453 01ac 7B67     		str	r3, [r7, #116]
 1454              	.L91:
 455:..\..\..\lvgl\version_6.1.2\lvgl\src\lv_objx/lv_spinbox.c ****             (*buf_p) = digits[i];
 1455              		.loc 2 455 0 is_stmt 0 discriminator 1
 1456 01ae BB6E     		ldr	r3, [r7, #104]
 1457 01b0 93F87030 		ldrb	r3, [r3, #112]
 1458 01b4 C3F30303 		ubfx	r3, r3, #0, #4
 1459 01b8 DBB2     		uxtb	r3, r3
 1460 01ba 1A46     		mov	r2, r3
 1461 01bc 7B6F     		ldr	r3, [r7, #116]
 1462 01be 9A42     		cmp	r2, r3
 1463 01c0 06DD     		ble	.L90
 455:..\..\..\lvgl\version_6.1.2\lvgl\src\lv_objx/lv_spinbox.c ****             (*buf_p) = digits[i];
 1464              		.loc 2 455 0 discriminator 2
 1465 01c2 07F10802 		add	r2, r7, #8
 1466 01c6 7B6F     		ldr	r3, [r7, #116]
 1467 01c8 1344     		add	r3, r3, r2
 1468 01ca 1B78     		ldrb	r3, [r3]	@ zero_extendqisi2
 1469 01cc 002B     		cmp	r3, #0
 1470 01ce E1D1     		bne	.L92
 1471              	.L90:
 458:..\..\..\lvgl\version_6.1.2\lvgl\src\lv_objx/lv_spinbox.c ****         }
 459:..\..\..\lvgl\version_6.1.2\lvgl\src\lv_objx/lv_spinbox.c ****     }
 460:..\..\..\lvgl\version_6.1.2\lvgl\src\lv_objx/lv_spinbox.c **** 
 461:..\..\..\lvgl\version_6.1.2\lvgl\src\lv_objx/lv_spinbox.c ****     /*Refresh the text*/
 462:..\..\..\lvgl\version_6.1.2\lvgl\src\lv_objx/lv_spinbox.c ****     lv_ta_set_text(spinbox, (char *)buf);
 1472              		.loc 2 462 0 is_stmt 1
 1473 01d0 07F14803 		add	r3, r7, #72
 1474 01d4 1946     		mov	r1, r3
 1475 01d6 7868     		ldr	r0, [r7, #4]
 1476 01d8 FFF7FEFF 		bl	lv_ta_set_text
 463:..\..\..\lvgl\version_6.1.2\lvgl\src\lv_objx/lv_spinbox.c **** 
 464:..\..\..\lvgl\version_6.1.2\lvgl\src\lv_objx/lv_spinbox.c ****     /*Set the cursor position*/
 465:..\..\..\lvgl\version_6.1.2\lvgl\src\lv_objx/lv_spinbox.c ****     int32_t step    = ext->step;
 1477              		.loc 2 465 0
 1478 01dc BB6E     		ldr	r3, [r7, #104]
 1479 01de DB6E     		ldr	r3, [r3, #108]
ARM GAS  C:\Users\tmj32\AppData\Local\Temp\cci6nv1n.s 			page 37


 1480 01e0 3B67     		str	r3, [r7, #112]
 466:..\..\..\lvgl\version_6.1.2\lvgl\src\lv_objx/lv_spinbox.c ****     uint8_t cur_pos = (uint8_t)ext->digit_count;
 1481              		.loc 2 466 0
 1482 01e2 BB6E     		ldr	r3, [r7, #104]
 1483 01e4 93F87030 		ldrb	r3, [r3, #112]
 1484 01e8 C3F30303 		ubfx	r3, r3, #0, #4
 1485 01ec DBB2     		uxtb	r3, r3
 1486 01ee 87F86F30 		strb	r3, [r7, #111]
 467:..\..\..\lvgl\version_6.1.2\lvgl\src\lv_objx/lv_spinbox.c ****     while(step >= 10) {
 1487              		.loc 2 467 0
 1488 01f2 0CE0     		b	.L93
 1489              	.L94:
 468:..\..\..\lvgl\version_6.1.2\lvgl\src\lv_objx/lv_spinbox.c ****         step /= 10;
 1490              		.loc 2 468 0
 1491 01f4 3B6F     		ldr	r3, [r7, #112]
 1492 01f6 1A4A     		ldr	r2, .L96
 1493 01f8 82FB0312 		smull	r1, r2, r2, r3
 1494 01fc 9210     		asrs	r2, r2, #2
 1495 01fe DB17     		asrs	r3, r3, #31
 1496 0200 D31A     		subs	r3, r2, r3
 1497 0202 3B67     		str	r3, [r7, #112]
 469:..\..\..\lvgl\version_6.1.2\lvgl\src\lv_objx/lv_spinbox.c ****         cur_pos--;
 1498              		.loc 2 469 0
 1499 0204 97F86F30 		ldrb	r3, [r7, #111]	@ zero_extendqisi2
 1500 0208 013B     		subs	r3, r3, #1
 1501 020a 87F86F30 		strb	r3, [r7, #111]
 1502              	.L93:
 467:..\..\..\lvgl\version_6.1.2\lvgl\src\lv_objx/lv_spinbox.c ****     while(step >= 10) {
 1503              		.loc 2 467 0
 1504 020e 3B6F     		ldr	r3, [r7, #112]
 1505 0210 092B     		cmp	r3, #9
 1506 0212 EFDC     		bgt	.L94
 470:..\..\..\lvgl\version_6.1.2\lvgl\src\lv_objx/lv_spinbox.c ****     }
 471:..\..\..\lvgl\version_6.1.2\lvgl\src\lv_objx/lv_spinbox.c **** 
 472:..\..\..\lvgl\version_6.1.2\lvgl\src\lv_objx/lv_spinbox.c ****     if(cur_pos > intDigits) cur_pos++; /*Skip teh decimal point*/
 1507              		.loc 2 472 0
 1508 0214 97F86F20 		ldrb	r2, [r7, #111]	@ zero_extendqisi2
 1509 0218 3B6E     		ldr	r3, [r7, #96]
 1510 021a 9A42     		cmp	r2, r3
 1511 021c 04DD     		ble	.L95
 1512              		.loc 2 472 0 is_stmt 0 discriminator 1
 1513 021e 97F86F30 		ldrb	r3, [r7, #111]	@ zero_extendqisi2
 1514 0222 0133     		adds	r3, r3, #1
 1515 0224 87F86F30 		strb	r3, [r7, #111]
 1516              	.L95:
 473:..\..\..\lvgl\version_6.1.2\lvgl\src\lv_objx/lv_spinbox.c **** 
 474:..\..\..\lvgl\version_6.1.2\lvgl\src\lv_objx/lv_spinbox.c ****     cur_pos += (ext->digit_padding_left - cur_shift_left);
 1517              		.loc 2 474 0 is_stmt 1
 1518 0228 BB6E     		ldr	r3, [r7, #104]
 1519 022a 93F87130 		ldrb	r3, [r3, #113]
 1520 022e C3F30303 		ubfx	r3, r3, #0, #4
 1521 0232 DBB2     		uxtb	r3, r3
 1522 0234 1A46     		mov	r2, r3
 1523 0236 97F87B30 		ldrb	r3, [r7, #123]
 1524 023a D31A     		subs	r3, r2, r3
 1525 023c DAB2     		uxtb	r2, r3
 1526 023e 97F86F30 		ldrb	r3, [r7, #111]
ARM GAS  C:\Users\tmj32\AppData\Local\Temp\cci6nv1n.s 			page 38


 1527 0242 1344     		add	r3, r3, r2
 1528 0244 87F86F30 		strb	r3, [r7, #111]
 475:..\..\..\lvgl\version_6.1.2\lvgl\src\lv_objx/lv_spinbox.c **** 
 476:..\..\..\lvgl\version_6.1.2\lvgl\src\lv_objx/lv_spinbox.c ****     lv_ta_set_cursor_pos(spinbox, cur_pos);
 1529              		.loc 2 476 0
 1530 0248 97F86F30 		ldrb	r3, [r7, #111]	@ zero_extendqisi2
 1531 024c 1BB2     		sxth	r3, r3
 1532 024e 1946     		mov	r1, r3
 1533 0250 7868     		ldr	r0, [r7, #4]
 1534 0252 FFF7FEFF 		bl	lv_ta_set_cursor_pos
 477:..\..\..\lvgl\version_6.1.2\lvgl\src\lv_objx/lv_spinbox.c **** }
 1535              		.loc 2 477 0
 1536 0256 00BF     		nop
 1537 0258 8437     		adds	r7, r7, #132
 1538              		.cfi_def_cfa_offset 12
 1539 025a BD46     		mov	sp, r7
 1540              		.cfi_def_cfa_register 13
 1541              		@ sp needed
 1542 025c 90BD     		pop	{r4, r7, pc}
 1543              	.L97:
 1544 025e 00BF     		.align	2
 1545              	.L96:
 1546 0260 67666666 		.word	1717986919
 1547              		.cfi_endproc
 1548              	.LFE70:
 1549              		.size	lv_spinbox_updatevalue, .-lv_spinbox_updatevalue
 1550              		.text
 1551              	.Letext0:
 1552              		.file 3 "c:\\program files (x86)\\cypress\\psoc creator\\4.3\\psoc creator\\import\\gnu\\arm\\5.4.
 1553              		.file 4 "c:\\program files (x86)\\cypress\\psoc creator\\4.3\\psoc creator\\import\\gnu\\arm\\5.4.
 1554              		.file 5 "..\\..\\..\\lvgl\\version_6.1.2\\lvgl\\src\\lv_objx\\../../../lv_conf.h"
 1555              		.file 6 "..\\..\\..\\lvgl\\version_6.1.2\\lvgl\\src\\lv_objx\\../lv_core/../lv_font/lv_font.h"
 1556              		.file 7 "..\\..\\..\\lvgl\\version_6.1.2\\lvgl\\src\\lv_objx\\../lv_core/../lv_misc/lv_color.h"
 1557              		.file 8 "..\\..\\..\\lvgl\\version_6.1.2\\lvgl\\src\\lv_objx\\../lv_core/../lv_misc/lv_area.h"
 1558              		.file 9 "..\\..\\..\\lvgl\\version_6.1.2\\lvgl\\src\\lv_objx\\../lv_core/../lv_misc/lv_anim.h"
 1559              		.file 10 "..\\..\\..\\lvgl\\version_6.1.2\\lvgl\\src\\lv_objx\\../lv_core/lv_style.h"
 1560              		.file 11 "..\\..\\..\\lvgl\\version_6.1.2\\lvgl\\src\\lv_objx\\../lv_core/../lv_misc/lv_types.h"
 1561              		.file 12 "..\\..\\..\\lvgl\\version_6.1.2\\lvgl\\src\\lv_objx\\../lv_core/../lv_misc/lv_ll.h"
 1562              		.file 13 "..\\..\\..\\lvgl\\version_6.1.2\\lvgl\\src\\lv_objx\\../lv_core/../lv_misc/lv_bidi.h"
 1563              		.file 14 "..\\..\\..\\lvgl\\version_6.1.2\\lvgl\\src\\lv_objx\\../lv_core/lv_obj.h"
 1564              		.file 15 "..\\..\\..\\lvgl\\version_6.1.2\\lvgl\\src\\lv_objx\\../lv_core/../lv_hal/lv_hal_indev.h
 1565              		.file 16 "..\\..\\..\\lvgl\\version_6.1.2\\lvgl\\src\\lv_objx\\../lv_objx/lv_cont.h"
 1566              		.file 17 "..\\..\\..\\lvgl\\version_6.1.2\\lvgl\\src\\lv_objx\\../lv_objx/../lv_core/../lv_core/lv
 1567              		.file 18 "..\\..\\..\\lvgl\\version_6.1.2\\lvgl\\src\\lv_objx\\../lv_objx/lv_page.h"
 1568              		.file 19 "..\\..\\..\\lvgl\\version_6.1.2\\lvgl\\src\\lv_objx\\../lv_objx/lv_ta.h"
 1569              		.file 20 "..\\..\\..\\lvgl\\version_6.1.2\\lvgl\\src\\lv_objx\\../lv_themes/lv_theme.h"
 1570              		.section	.debug_info,"",%progbits
 1571              	.Ldebug_info0:
 1572 0000 E0190000 		.4byte	0x19e0
 1573 0004 0400     		.2byte	0x4
 1574 0006 00000000 		.4byte	.Ldebug_abbrev0
 1575 000a 04       		.byte	0x4
 1576 000b 01       		.uleb128 0x1
 1577 000c 880A0000 		.4byte	.LASF292
 1578 0010 0C       		.byte	0xc
 1579 0011 1D070000 		.4byte	.LASF293
 1580 0015 61060000 		.4byte	.LASF294
ARM GAS  C:\Users\tmj32\AppData\Local\Temp\cci6nv1n.s 			page 39


 1581 0019 00000000 		.4byte	.Ldebug_ranges0+0
 1582 001d 00000000 		.4byte	0
 1583 0021 00000000 		.4byte	.Ldebug_line0
 1584 0025 02       		.uleb128 0x2
 1585 0026 B0090000 		.4byte	.LASF0
 1586 002a 03       		.byte	0x3
 1587 002b 1B       		.byte	0x1b
 1588 002c 30000000 		.4byte	0x30
 1589 0030 03       		.uleb128 0x3
 1590 0031 01       		.byte	0x1
 1591 0032 06       		.byte	0x6
 1592 0033 89020000 		.4byte	.LASF2
 1593 0037 02       		.uleb128 0x2
 1594 0038 F4010000 		.4byte	.LASF1
 1595 003c 03       		.byte	0x3
 1596 003d 1D       		.byte	0x1d
 1597 003e 42000000 		.4byte	0x42
 1598 0042 03       		.uleb128 0x3
 1599 0043 01       		.byte	0x1
 1600 0044 08       		.byte	0x8
 1601 0045 24030000 		.4byte	.LASF3
 1602 0049 02       		.uleb128 0x2
 1603 004a 580B0000 		.4byte	.LASF4
 1604 004e 03       		.byte	0x3
 1605 004f 29       		.byte	0x29
 1606 0050 54000000 		.4byte	0x54
 1607 0054 03       		.uleb128 0x3
 1608 0055 02       		.byte	0x2
 1609 0056 05       		.byte	0x5
 1610 0057 200C0000 		.4byte	.LASF5
 1611 005b 02       		.uleb128 0x2
 1612 005c E5030000 		.4byte	.LASF6
 1613 0060 03       		.byte	0x3
 1614 0061 2B       		.byte	0x2b
 1615 0062 66000000 		.4byte	0x66
 1616 0066 03       		.uleb128 0x3
 1617 0067 02       		.byte	0x2
 1618 0068 07       		.byte	0x7
 1619 0069 6C0D0000 		.4byte	.LASF7
 1620 006d 02       		.uleb128 0x2
 1621 006e C50D0000 		.4byte	.LASF8
 1622 0072 03       		.byte	0x3
 1623 0073 3F       		.byte	0x3f
 1624 0074 78000000 		.4byte	0x78
 1625 0078 03       		.uleb128 0x3
 1626 0079 04       		.byte	0x4
 1627 007a 05       		.byte	0x5
 1628 007b 30020000 		.4byte	.LASF9
 1629 007f 02       		.uleb128 0x2
 1630 0080 31060000 		.4byte	.LASF10
 1631 0084 03       		.byte	0x3
 1632 0085 41       		.byte	0x41
 1633 0086 8A000000 		.4byte	0x8a
 1634 008a 03       		.uleb128 0x3
 1635 008b 04       		.byte	0x4
 1636 008c 07       		.byte	0x7
 1637 008d 6D050000 		.4byte	.LASF11
ARM GAS  C:\Users\tmj32\AppData\Local\Temp\cci6nv1n.s 			page 40


 1638 0091 03       		.uleb128 0x3
 1639 0092 08       		.byte	0x8
 1640 0093 05       		.byte	0x5
 1641 0094 53060000 		.4byte	.LASF12
 1642 0098 03       		.uleb128 0x3
 1643 0099 08       		.byte	0x8
 1644 009a 07       		.byte	0x7
 1645 009b D7090000 		.4byte	.LASF13
 1646 009f 04       		.uleb128 0x4
 1647 00a0 04       		.byte	0x4
 1648 00a1 05       		.byte	0x5
 1649 00a2 696E7400 		.ascii	"int\000"
 1650 00a6 03       		.uleb128 0x3
 1651 00a7 04       		.byte	0x4
 1652 00a8 07       		.byte	0x7
 1653 00a9 DB070000 		.4byte	.LASF14
 1654 00ad 02       		.uleb128 0x2
 1655 00ae 00000000 		.4byte	.LASF15
 1656 00b2 04       		.byte	0x4
 1657 00b3 14       		.byte	0x14
 1658 00b4 25000000 		.4byte	0x25
 1659 00b8 02       		.uleb128 0x2
 1660 00b9 95020000 		.4byte	.LASF16
 1661 00bd 04       		.byte	0x4
 1662 00be 18       		.byte	0x18
 1663 00bf 37000000 		.4byte	0x37
 1664 00c3 02       		.uleb128 0x2
 1665 00c4 410C0000 		.4byte	.LASF17
 1666 00c8 04       		.byte	0x4
 1667 00c9 20       		.byte	0x20
 1668 00ca 49000000 		.4byte	0x49
 1669 00ce 02       		.uleb128 0x2
 1670 00cf 0A0A0000 		.4byte	.LASF18
 1671 00d3 04       		.byte	0x4
 1672 00d4 24       		.byte	0x24
 1673 00d5 5B000000 		.4byte	0x5b
 1674 00d9 02       		.uleb128 0x2
 1675 00da 83000000 		.4byte	.LASF19
 1676 00de 04       		.byte	0x4
 1677 00df 2C       		.byte	0x2c
 1678 00e0 6D000000 		.4byte	0x6d
 1679 00e4 02       		.uleb128 0x2
 1680 00e5 450D0000 		.4byte	.LASF20
 1681 00e9 04       		.byte	0x4
 1682 00ea 30       		.byte	0x30
 1683 00eb 7F000000 		.4byte	0x7f
 1684 00ef 02       		.uleb128 0x2
 1685 00f0 8C0D0000 		.4byte	.LASF21
 1686 00f4 05       		.byte	0x5
 1687 00f5 3C       		.byte	0x3c
 1688 00f6 C3000000 		.4byte	0xc3
 1689 00fa 05       		.uleb128 0x5
 1690 00fb 04       		.byte	0x4
 1691 00fc 03       		.uleb128 0x3
 1692 00fd 08       		.byte	0x8
 1693 00fe 04       		.byte	0x4
 1694 00ff D4080000 		.4byte	.LASF22
ARM GAS  C:\Users\tmj32\AppData\Local\Temp\cci6nv1n.s 			page 41


 1695 0103 06       		.uleb128 0x6
 1696 0104 08       		.byte	0x8
 1697 0105 06       		.byte	0x6
 1698 0106 2E       		.byte	0x2e
 1699 0107 54010000 		.4byte	0x154
 1700 010b 07       		.uleb128 0x7
 1701 010c 14000000 		.4byte	.LASF23
 1702 0110 06       		.byte	0x6
 1703 0111 30       		.byte	0x30
 1704 0112 CE000000 		.4byte	0xce
 1705 0116 00       		.byte	0
 1706 0117 07       		.uleb128 0x7
 1707 0118 1A0C0000 		.4byte	.LASF24
 1708 011c 06       		.byte	0x6
 1709 011d 31       		.byte	0x31
 1710 011e B8000000 		.4byte	0xb8
 1711 0122 02       		.byte	0x2
 1712 0123 07       		.uleb128 0x7
 1713 0124 030C0000 		.4byte	.LASF25
 1714 0128 06       		.byte	0x6
 1715 0129 32       		.byte	0x32
 1716 012a B8000000 		.4byte	0xb8
 1717 012e 03       		.byte	0x3
 1718 012f 07       		.uleb128 0x7
 1719 0130 5F030000 		.4byte	.LASF26
 1720 0134 06       		.byte	0x6
 1721 0135 33       		.byte	0x33
 1722 0136 AD000000 		.4byte	0xad
 1723 013a 04       		.byte	0x4
 1724 013b 07       		.uleb128 0x7
 1725 013c 65030000 		.4byte	.LASF27
 1726 0140 06       		.byte	0x6
 1727 0141 34       		.byte	0x34
 1728 0142 AD000000 		.4byte	0xad
 1729 0146 05       		.byte	0x5
 1730 0147 08       		.uleb128 0x8
 1731 0148 62707000 		.ascii	"bpp\000"
 1732 014c 06       		.byte	0x6
 1733 014d 35       		.byte	0x35
 1734 014e B8000000 		.4byte	0xb8
 1735 0152 06       		.byte	0x6
 1736 0153 00       		.byte	0
 1737 0154 02       		.uleb128 0x2
 1738 0155 38080000 		.4byte	.LASF28
 1739 0159 06       		.byte	0x6
 1740 015a 36       		.byte	0x36
 1741 015b 03010000 		.4byte	0x103
 1742 015f 09       		.uleb128 0x9
 1743 0160 240E0000 		.4byte	.LASF84
 1744 0164 10       		.byte	0x10
 1745 0165 06       		.byte	0x6
 1746 0166 44       		.byte	0x44
 1747 0167 B7010000 		.4byte	0x1b7
 1748 016b 07       		.uleb128 0x7
 1749 016c B70D0000 		.4byte	.LASF29
 1750 0170 06       		.byte	0x6
 1751 0171 47       		.byte	0x47
ARM GAS  C:\Users\tmj32\AppData\Local\Temp\cci6nv1n.s 			page 42


 1752 0172 ED010000 		.4byte	0x1ed
 1753 0176 00       		.byte	0
 1754 0177 07       		.uleb128 0x7
 1755 0178 BC020000 		.4byte	.LASF30
 1756 017c 06       		.byte	0x6
 1757 017d 4A       		.byte	0x4a
 1758 017e 12020000 		.4byte	0x212
 1759 0182 04       		.byte	0x4
 1760 0183 07       		.uleb128 0x7
 1761 0184 D2000000 		.4byte	.LASF31
 1762 0188 06       		.byte	0x6
 1763 0189 4D       		.byte	0x4d
 1764 018a B8000000 		.4byte	0xb8
 1765 018e 08       		.byte	0x8
 1766 018f 07       		.uleb128 0x7
 1767 0190 2A0C0000 		.4byte	.LASF32
 1768 0194 06       		.byte	0x6
 1769 0195 4E       		.byte	0x4e
 1770 0196 AD000000 		.4byte	0xad
 1771 019a 09       		.byte	0x9
 1772 019b 0A       		.uleb128 0xa
 1773 019c 2B090000 		.4byte	.LASF67
 1774 01a0 06       		.byte	0x6
 1775 01a1 4F       		.byte	0x4f
 1776 01a2 B8000000 		.4byte	0xb8
 1777 01a6 01       		.byte	0x1
 1778 01a7 02       		.byte	0x2
 1779 01a8 06       		.byte	0x6
 1780 01a9 0A       		.byte	0xa
 1781 01aa 08       		.uleb128 0x8
 1782 01ab 64736300 		.ascii	"dsc\000"
 1783 01af 06       		.byte	0x6
 1784 01b0 50       		.byte	0x50
 1785 01b1 FA000000 		.4byte	0xfa
 1786 01b5 0C       		.byte	0xc
 1787 01b6 00       		.byte	0
 1788 01b7 0B       		.uleb128 0xb
 1789 01b8 D5010000 		.4byte	0x1d5
 1790 01bc D5010000 		.4byte	0x1d5
 1791 01c0 0C       		.uleb128 0xc
 1792 01c1 DC010000 		.4byte	0x1dc
 1793 01c5 0C       		.uleb128 0xc
 1794 01c6 E7010000 		.4byte	0x1e7
 1795 01ca 0C       		.uleb128 0xc
 1796 01cb E4000000 		.4byte	0xe4
 1797 01cf 0C       		.uleb128 0xc
 1798 01d0 E4000000 		.4byte	0xe4
 1799 01d4 00       		.byte	0
 1800 01d5 03       		.uleb128 0x3
 1801 01d6 01       		.byte	0x1
 1802 01d7 02       		.byte	0x2
 1803 01d8 8F030000 		.4byte	.LASF33
 1804 01dc 0D       		.uleb128 0xd
 1805 01dd 04       		.byte	0x4
 1806 01de E2010000 		.4byte	0x1e2
 1807 01e2 0E       		.uleb128 0xe
 1808 01e3 5F010000 		.4byte	0x15f
ARM GAS  C:\Users\tmj32\AppData\Local\Temp\cci6nv1n.s 			page 43


 1809 01e7 0D       		.uleb128 0xd
 1810 01e8 04       		.byte	0x4
 1811 01e9 54010000 		.4byte	0x154
 1812 01ed 0D       		.uleb128 0xd
 1813 01ee 04       		.byte	0x4
 1814 01ef B7010000 		.4byte	0x1b7
 1815 01f3 0B       		.uleb128 0xb
 1816 01f4 07020000 		.4byte	0x207
 1817 01f8 07020000 		.4byte	0x207
 1818 01fc 0C       		.uleb128 0xc
 1819 01fd DC010000 		.4byte	0x1dc
 1820 0201 0C       		.uleb128 0xc
 1821 0202 E4000000 		.4byte	0xe4
 1822 0206 00       		.byte	0
 1823 0207 0D       		.uleb128 0xd
 1824 0208 04       		.byte	0x4
 1825 0209 0D020000 		.4byte	0x20d
 1826 020d 0E       		.uleb128 0xe
 1827 020e B8000000 		.4byte	0xb8
 1828 0212 0D       		.uleb128 0xd
 1829 0213 04       		.byte	0x4
 1830 0214 F3010000 		.4byte	0x1f3
 1831 0218 02       		.uleb128 0x2
 1832 0219 590D0000 		.4byte	.LASF34
 1833 021d 06       		.byte	0x6
 1834 021e 56       		.byte	0x56
 1835 021f 5F010000 		.4byte	0x15f
 1836 0223 06       		.uleb128 0x6
 1837 0224 04       		.byte	0x4
 1838 0225 07       		.byte	0x7
 1839 0226 F3       		.byte	0xf3
 1840 0227 5C020000 		.4byte	0x25c
 1841 022b 07       		.uleb128 0x7
 1842 022c D2020000 		.4byte	.LASF35
 1843 0230 07       		.byte	0x7
 1844 0231 F5       		.byte	0xf5
 1845 0232 B8000000 		.4byte	0xb8
 1846 0236 00       		.byte	0
 1847 0237 07       		.uleb128 0x7
 1848 0238 530D0000 		.4byte	.LASF36
 1849 023c 07       		.byte	0x7
 1850 023d F6       		.byte	0xf6
 1851 023e B8000000 		.4byte	0xb8
 1852 0242 01       		.byte	0x1
 1853 0243 08       		.uleb128 0x8
 1854 0244 72656400 		.ascii	"red\000"
 1855 0248 07       		.byte	0x7
 1856 0249 F7       		.byte	0xf7
 1857 024a B8000000 		.4byte	0xb8
 1858 024e 02       		.byte	0x2
 1859 024f 07       		.uleb128 0x7
 1860 0250 FE010000 		.4byte	.LASF37
 1861 0254 07       		.byte	0x7
 1862 0255 F8       		.byte	0xf8
 1863 0256 B8000000 		.4byte	0xb8
 1864 025a 03       		.byte	0x3
 1865 025b 00       		.byte	0
ARM GAS  C:\Users\tmj32\AppData\Local\Temp\cci6nv1n.s 			page 44


 1866 025c 0F       		.uleb128 0xf
 1867 025d 04       		.byte	0x4
 1868 025e 07       		.byte	0x7
 1869 025f F1       		.byte	0xf1
 1870 0260 7A020000 		.4byte	0x27a
 1871 0264 10       		.uleb128 0x10
 1872 0265 636800   		.ascii	"ch\000"
 1873 0268 07       		.byte	0x7
 1874 0269 F9       		.byte	0xf9
 1875 026a 23020000 		.4byte	0x223
 1876 026e 11       		.uleb128 0x11
 1877 026f 680B0000 		.4byte	.LASF38
 1878 0273 07       		.byte	0x7
 1879 0274 FA       		.byte	0xfa
 1880 0275 E4000000 		.4byte	0xe4
 1881 0279 00       		.byte	0
 1882 027a 02       		.uleb128 0x2
 1883 027b 3A000000 		.4byte	.LASF39
 1884 027f 07       		.byte	0x7
 1885 0280 FB       		.byte	0xfb
 1886 0281 5C020000 		.4byte	0x25c
 1887 0285 12       		.uleb128 0x12
 1888 0286 260A0000 		.4byte	.LASF40
 1889 028a 07       		.byte	0x7
 1890 028b 0801     		.2byte	0x108
 1891 028d 7A020000 		.4byte	0x27a
 1892 0291 12       		.uleb128 0x12
 1893 0292 7A000000 		.4byte	.LASF41
 1894 0296 07       		.byte	0x7
 1895 0297 0D01     		.2byte	0x10d
 1896 0299 B8000000 		.4byte	0xb8
 1897 029d 03       		.uleb128 0x3
 1898 029e 04       		.byte	0x4
 1899 029f 07       		.byte	0x7
 1900 02a0 24000000 		.4byte	.LASF42
 1901 02a4 0D       		.uleb128 0xd
 1902 02a5 04       		.byte	0x4
 1903 02a6 AA020000 		.4byte	0x2aa
 1904 02aa 03       		.uleb128 0x3
 1905 02ab 01       		.byte	0x1
 1906 02ac 08       		.byte	0x8
 1907 02ad CC030000 		.4byte	.LASF43
 1908 02b1 0D       		.uleb128 0xd
 1909 02b2 04       		.byte	0x4
 1910 02b3 B7020000 		.4byte	0x2b7
 1911 02b7 0E       		.uleb128 0xe
 1912 02b8 AA020000 		.4byte	0x2aa
 1913 02bc 13       		.uleb128 0x13
 1914 02bd AA020000 		.4byte	0x2aa
 1915 02c1 CC020000 		.4byte	0x2cc
 1916 02c5 14       		.uleb128 0x14
 1917 02c6 9D020000 		.4byte	0x29d
 1918 02ca 17       		.byte	0x17
 1919 02cb 00       		.byte	0
 1920 02cc 06       		.uleb128 0x6
 1921 02cd 08       		.byte	0x8
 1922 02ce 08       		.byte	0x8
ARM GAS  C:\Users\tmj32\AppData\Local\Temp\cci6nv1n.s 			page 45


 1923 02cf 31       		.byte	0x31
 1924 02d0 01030000 		.4byte	0x301
 1925 02d4 08       		.uleb128 0x8
 1926 02d5 783100   		.ascii	"x1\000"
 1927 02d8 08       		.byte	0x8
 1928 02d9 33       		.byte	0x33
 1929 02da EF000000 		.4byte	0xef
 1930 02de 00       		.byte	0
 1931 02df 08       		.uleb128 0x8
 1932 02e0 793100   		.ascii	"y1\000"
 1933 02e3 08       		.byte	0x8
 1934 02e4 34       		.byte	0x34
 1935 02e5 EF000000 		.4byte	0xef
 1936 02e9 02       		.byte	0x2
 1937 02ea 08       		.uleb128 0x8
 1938 02eb 783200   		.ascii	"x2\000"
 1939 02ee 08       		.byte	0x8
 1940 02ef 35       		.byte	0x35
 1941 02f0 EF000000 		.4byte	0xef
 1942 02f4 04       		.byte	0x4
 1943 02f5 08       		.uleb128 0x8
 1944 02f6 793200   		.ascii	"y2\000"
 1945 02f9 08       		.byte	0x8
 1946 02fa 36       		.byte	0x36
 1947 02fb EF000000 		.4byte	0xef
 1948 02ff 06       		.byte	0x6
 1949 0300 00       		.byte	0
 1950 0301 02       		.uleb128 0x2
 1951 0302 C5040000 		.4byte	.LASF44
 1952 0306 08       		.byte	0x8
 1953 0307 37       		.byte	0x37
 1954 0308 CC020000 		.4byte	0x2cc
 1955 030c 02       		.uleb128 0x2
 1956 030d F9030000 		.4byte	.LASF45
 1957 0311 09       		.byte	0x9
 1958 0312 2B       		.byte	0x2b
 1959 0313 EF000000 		.4byte	0xef
 1960 0317 02       		.uleb128 0x2
 1961 0318 CF0D0000 		.4byte	.LASF46
 1962 031c 0A       		.byte	0xa
 1963 031d 2C       		.byte	0x2c
 1964 031e B8000000 		.4byte	0xb8
 1965 0322 02       		.uleb128 0x2
 1966 0323 9D0B0000 		.4byte	.LASF47
 1967 0327 0A       		.byte	0xa
 1968 0328 33       		.byte	0x33
 1969 0329 B8000000 		.4byte	0xb8
 1970 032d 06       		.uleb128 0x6
 1971 032e 08       		.byte	0x8
 1972 032f 0A       		.byte	0xa
 1973 0330 48       		.byte	0x48
 1974 0331 66030000 		.4byte	0x366
 1975 0335 07       		.uleb128 0x7
 1976 0336 740B0000 		.4byte	.LASF48
 1977 033a 0A       		.byte	0xa
 1978 033b 4A       		.byte	0x4a
 1979 033c 85020000 		.4byte	0x285
ARM GAS  C:\Users\tmj32\AppData\Local\Temp\cci6nv1n.s 			page 46


 1980 0340 00       		.byte	0
 1981 0341 07       		.uleb128 0x7
 1982 0342 FE060000 		.4byte	.LASF49
 1983 0346 0A       		.byte	0xa
 1984 0347 4B       		.byte	0x4b
 1985 0348 EF000000 		.4byte	0xef
 1986 034c 04       		.byte	0x4
 1987 034d 07       		.uleb128 0x7
 1988 034e 490E0000 		.4byte	.LASF50
 1989 0352 0A       		.byte	0xa
 1990 0353 4C       		.byte	0x4c
 1991 0354 17030000 		.4byte	0x317
 1992 0358 06       		.byte	0x6
 1993 0359 08       		.uleb128 0x8
 1994 035a 6F706100 		.ascii	"opa\000"
 1995 035e 0A       		.byte	0xa
 1996 035f 4D       		.byte	0x4d
 1997 0360 91020000 		.4byte	0x291
 1998 0364 07       		.byte	0x7
 1999 0365 00       		.byte	0
 2000 0366 06       		.uleb128 0x6
 2001 0367 08       		.byte	0x8
 2002 0368 0A       		.byte	0xa
 2003 0369 51       		.byte	0x51
 2004 036a 93030000 		.4byte	0x393
 2005 036e 07       		.uleb128 0x7
 2006 036f 740B0000 		.4byte	.LASF48
 2007 0373 0A       		.byte	0xa
 2008 0374 53       		.byte	0x53
 2009 0375 85020000 		.4byte	0x285
 2010 0379 00       		.byte	0
 2011 037a 07       		.uleb128 0x7
 2012 037b FE060000 		.4byte	.LASF49
 2013 037f 0A       		.byte	0xa
 2014 0380 54       		.byte	0x54
 2015 0381 EF000000 		.4byte	0xef
 2016 0385 04       		.byte	0x4
 2017 0386 07       		.uleb128 0x7
 2018 0387 81010000 		.4byte	.LASF51
 2019 038b 0A       		.byte	0xa
 2020 038c 55       		.byte	0x55
 2021 038d 22030000 		.4byte	0x322
 2022 0391 06       		.byte	0x6
 2023 0392 00       		.byte	0
 2024 0393 06       		.uleb128 0x6
 2025 0394 0A       		.byte	0xa
 2026 0395 0A       		.byte	0xa
 2027 0396 58       		.byte	0x58
 2028 0397 D8030000 		.4byte	0x3d8
 2029 039b 08       		.uleb128 0x8
 2030 039c 746F7000 		.ascii	"top\000"
 2031 03a0 0A       		.byte	0xa
 2032 03a1 5A       		.byte	0x5a
 2033 03a2 EF000000 		.4byte	0xef
 2034 03a6 00       		.byte	0
 2035 03a7 07       		.uleb128 0x7
 2036 03a8 16070000 		.4byte	.LASF52
ARM GAS  C:\Users\tmj32\AppData\Local\Temp\cci6nv1n.s 			page 47


 2037 03ac 0A       		.byte	0xa
 2038 03ad 5B       		.byte	0x5b
 2039 03ae EF000000 		.4byte	0xef
 2040 03b2 02       		.byte	0x2
 2041 03b3 07       		.uleb128 0x7
 2042 03b4 0A050000 		.4byte	.LASF53
 2043 03b8 0A       		.byte	0xa
 2044 03b9 5C       		.byte	0x5c
 2045 03ba EF000000 		.4byte	0xef
 2046 03be 04       		.byte	0x4
 2047 03bf 07       		.uleb128 0x7
 2048 03c0 45060000 		.4byte	.LASF54
 2049 03c4 0A       		.byte	0xa
 2050 03c5 5D       		.byte	0x5d
 2051 03c6 EF000000 		.4byte	0xef
 2052 03ca 06       		.byte	0x6
 2053 03cb 07       		.uleb128 0x7
 2054 03cc 67050000 		.4byte	.LASF55
 2055 03d0 0A       		.byte	0xa
 2056 03d1 5E       		.byte	0x5e
 2057 03d2 EF000000 		.4byte	0xef
 2058 03d6 08       		.byte	0x8
 2059 03d7 00       		.byte	0
 2060 03d8 06       		.uleb128 0x6
 2061 03d9 28       		.byte	0x28
 2062 03da 0A       		.byte	0xa
 2063 03db 41       		.byte	0x41
 2064 03dc 35040000 		.4byte	0x435
 2065 03e0 07       		.uleb128 0x7
 2066 03e1 A5090000 		.4byte	.LASF56
 2067 03e5 0A       		.byte	0xa
 2068 03e6 43       		.byte	0x43
 2069 03e7 85020000 		.4byte	0x285
 2070 03eb 00       		.byte	0
 2071 03ec 07       		.uleb128 0x7
 2072 03ed 66080000 		.4byte	.LASF57
 2073 03f1 0A       		.byte	0xa
 2074 03f2 44       		.byte	0x44
 2075 03f3 85020000 		.4byte	0x285
 2076 03f7 04       		.byte	0x4
 2077 03f8 07       		.uleb128 0x7
 2078 03f9 BE000000 		.4byte	.LASF58
 2079 03fd 0A       		.byte	0xa
 2080 03fe 45       		.byte	0x45
 2081 03ff EF000000 		.4byte	0xef
 2082 0403 08       		.byte	0x8
 2083 0404 08       		.uleb128 0x8
 2084 0405 6F706100 		.ascii	"opa\000"
 2085 0409 0A       		.byte	0xa
 2086 040a 46       		.byte	0x46
 2087 040b 91020000 		.4byte	0x291
 2088 040f 0A       		.byte	0xa
 2089 0410 07       		.uleb128 0x7
 2090 0411 AA0D0000 		.4byte	.LASF59
 2091 0415 0A       		.byte	0xa
 2092 0416 4E       		.byte	0x4e
 2093 0417 2D030000 		.4byte	0x32d
ARM GAS  C:\Users\tmj32\AppData\Local\Temp\cci6nv1n.s 			page 48


 2094 041b 0C       		.byte	0xc
 2095 041c 07       		.uleb128 0x7
 2096 041d B10C0000 		.4byte	.LASF60
 2097 0421 0A       		.byte	0xa
 2098 0422 56       		.byte	0x56
 2099 0423 66030000 		.4byte	0x366
 2100 0427 14       		.byte	0x14
 2101 0428 07       		.uleb128 0x7
 2102 0429 2B0D0000 		.4byte	.LASF61
 2103 042d 0A       		.byte	0xa
 2104 042e 5F       		.byte	0x5f
 2105 042f 93030000 		.4byte	0x393
 2106 0433 1C       		.byte	0x1c
 2107 0434 00       		.byte	0
 2108 0435 06       		.uleb128 0x6
 2109 0436 14       		.byte	0x14
 2110 0437 0A       		.byte	0xa
 2111 0438 63       		.byte	0x63
 2112 0439 86040000 		.4byte	0x486
 2113 043d 07       		.uleb128 0x7
 2114 043e 740B0000 		.4byte	.LASF48
 2115 0442 0A       		.byte	0xa
 2116 0443 65       		.byte	0x65
 2117 0444 85020000 		.4byte	0x285
 2118 0448 00       		.byte	0
 2119 0449 07       		.uleb128 0x7
 2120 044a 1A0E0000 		.4byte	.LASF62
 2121 044e 0A       		.byte	0xa
 2122 044f 66       		.byte	0x66
 2123 0450 85020000 		.4byte	0x285
 2124 0454 04       		.byte	0x4
 2125 0455 07       		.uleb128 0x7
 2126 0456 CC0B0000 		.4byte	.LASF63
 2127 045a 0A       		.byte	0xa
 2128 045b 67       		.byte	0x67
 2129 045c 86040000 		.4byte	0x486
 2130 0460 08       		.byte	0x8
 2131 0461 07       		.uleb128 0x7
 2132 0462 D10B0000 		.4byte	.LASF64
 2133 0466 0A       		.byte	0xa
 2134 0467 68       		.byte	0x68
 2135 0468 EF000000 		.4byte	0xef
 2136 046c 0C       		.byte	0xc
 2137 046d 07       		.uleb128 0x7
 2138 046e 7A0B0000 		.4byte	.LASF65
 2139 0472 0A       		.byte	0xa
 2140 0473 69       		.byte	0x69
 2141 0474 EF000000 		.4byte	0xef
 2142 0478 0E       		.byte	0xe
 2143 0479 08       		.uleb128 0x8
 2144 047a 6F706100 		.ascii	"opa\000"
 2145 047e 0A       		.byte	0xa
 2146 047f 6A       		.byte	0x6a
 2147 0480 91020000 		.4byte	0x291
 2148 0484 10       		.byte	0x10
 2149 0485 00       		.byte	0
 2150 0486 0D       		.uleb128 0xd
ARM GAS  C:\Users\tmj32\AppData\Local\Temp\cci6nv1n.s 			page 49


 2151 0487 04       		.byte	0x4
 2152 0488 8C040000 		.4byte	0x48c
 2153 048c 0E       		.uleb128 0xe
 2154 048d 18020000 		.4byte	0x218
 2155 0491 06       		.uleb128 0x6
 2156 0492 08       		.byte	0x8
 2157 0493 0A       		.byte	0xa
 2158 0494 6E       		.byte	0x6e
 2159 0495 BE040000 		.4byte	0x4be
 2160 0499 07       		.uleb128 0x7
 2161 049a 740B0000 		.4byte	.LASF48
 2162 049e 0A       		.byte	0xa
 2163 049f 70       		.byte	0x70
 2164 04a0 85020000 		.4byte	0x285
 2165 04a4 00       		.byte	0
 2166 04a5 07       		.uleb128 0x7
 2167 04a6 9A000000 		.4byte	.LASF66
 2168 04aa 0A       		.byte	0xa
 2169 04ab 71       		.byte	0x71
 2170 04ac 91020000 		.4byte	0x291
 2171 04b0 04       		.byte	0x4
 2172 04b1 08       		.uleb128 0x8
 2173 04b2 6F706100 		.ascii	"opa\000"
 2174 04b6 0A       		.byte	0xa
 2175 04b7 72       		.byte	0x72
 2176 04b8 91020000 		.4byte	0x291
 2177 04bc 05       		.byte	0x5
 2178 04bd 00       		.byte	0
 2179 04be 06       		.uleb128 0x6
 2180 04bf 08       		.byte	0x8
 2181 04c0 0A       		.byte	0xa
 2182 04c1 76       		.byte	0x76
 2183 04c2 FA040000 		.4byte	0x4fa
 2184 04c6 07       		.uleb128 0x7
 2185 04c7 740B0000 		.4byte	.LASF48
 2186 04cb 0A       		.byte	0xa
 2187 04cc 78       		.byte	0x78
 2188 04cd 85020000 		.4byte	0x285
 2189 04d1 00       		.byte	0
 2190 04d2 07       		.uleb128 0x7
 2191 04d3 FE060000 		.4byte	.LASF49
 2192 04d7 0A       		.byte	0xa
 2193 04d8 79       		.byte	0x79
 2194 04d9 EF000000 		.4byte	0xef
 2195 04dd 04       		.byte	0x4
 2196 04de 08       		.uleb128 0x8
 2197 04df 6F706100 		.ascii	"opa\000"
 2198 04e3 0A       		.byte	0xa
 2199 04e4 7A       		.byte	0x7a
 2200 04e5 91020000 		.4byte	0x291
 2201 04e9 06       		.byte	0x6
 2202 04ea 0A       		.uleb128 0xa
 2203 04eb 89040000 		.4byte	.LASF68
 2204 04ef 0A       		.byte	0xa
 2205 04f0 7B       		.byte	0x7b
 2206 04f1 B8000000 		.4byte	0xb8
 2207 04f5 01       		.byte	0x1
ARM GAS  C:\Users\tmj32\AppData\Local\Temp\cci6nv1n.s 			page 50


 2208 04f6 01       		.byte	0x1
 2209 04f7 07       		.byte	0x7
 2210 04f8 07       		.byte	0x7
 2211 04f9 00       		.byte	0
 2212 04fa 06       		.uleb128 0x6
 2213 04fb 50       		.byte	0x50
 2214 04fc 0A       		.byte	0xa
 2215 04fd 3C       		.byte	0x3c
 2216 04fe 42050000 		.4byte	0x542
 2217 0502 0A       		.uleb128 0xa
 2218 0503 B6070000 		.4byte	.LASF69
 2219 0507 0A       		.byte	0xa
 2220 0508 3E       		.byte	0x3e
 2221 0509 B8000000 		.4byte	0xb8
 2222 050d 01       		.byte	0x1
 2223 050e 01       		.byte	0x1
 2224 050f 07       		.byte	0x7
 2225 0510 00       		.byte	0
 2226 0511 07       		.uleb128 0x7
 2227 0512 D1030000 		.4byte	.LASF70
 2228 0516 0A       		.byte	0xa
 2229 0517 60       		.byte	0x60
 2230 0518 D8030000 		.4byte	0x3d8
 2231 051c 04       		.byte	0x4
 2232 051d 07       		.uleb128 0x7
 2233 051e 74040000 		.4byte	.LASF71
 2234 0522 0A       		.byte	0xa
 2235 0523 6B       		.byte	0x6b
 2236 0524 35040000 		.4byte	0x435
 2237 0528 2C       		.byte	0x2c
 2238 0529 07       		.uleb128 0x7
 2239 052a 83040000 		.4byte	.LASF72
 2240 052e 0A       		.byte	0xa
 2241 052f 73       		.byte	0x73
 2242 0530 91040000 		.4byte	0x491
 2243 0534 40       		.byte	0x40
 2244 0535 07       		.uleb128 0x7
 2245 0536 AA050000 		.4byte	.LASF73
 2246 053a 0A       		.byte	0xa
 2247 053b 7C       		.byte	0x7c
 2248 053c BE040000 		.4byte	0x4be
 2249 0540 48       		.byte	0x48
 2250 0541 00       		.byte	0
 2251 0542 02       		.uleb128 0x2
 2252 0543 5C050000 		.4byte	.LASF74
 2253 0547 0A       		.byte	0xa
 2254 0548 84       		.byte	0x84
 2255 0549 FA040000 		.4byte	0x4fa
 2256 054d 0D       		.uleb128 0xd
 2257 054e 04       		.byte	0x4
 2258 054f 42050000 		.4byte	0x542
 2259 0553 15       		.uleb128 0x15
 2260 0554 01       		.byte	0x1
 2261 0555 42000000 		.4byte	0x42
 2262 0559 0B       		.byte	0xb
 2263 055a 27       		.byte	0x27
 2264 055b 6C050000 		.4byte	0x56c
ARM GAS  C:\Users\tmj32\AppData\Local\Temp\cci6nv1n.s 			page 51


 2265 055f 16       		.uleb128 0x16
 2266 0560 64010000 		.4byte	.LASF75
 2267 0564 00       		.byte	0
 2268 0565 16       		.uleb128 0x16
 2269 0566 130A0000 		.4byte	.LASF76
 2270 056a 01       		.byte	0x1
 2271 056b 00       		.byte	0
 2272 056c 02       		.uleb128 0x2
 2273 056d CB080000 		.4byte	.LASF77
 2274 0571 0B       		.byte	0xb
 2275 0572 2C       		.byte	0x2c
 2276 0573 B8000000 		.4byte	0xb8
 2277 0577 02       		.uleb128 0x2
 2278 0578 07000000 		.4byte	.LASF78
 2279 057c 0C       		.byte	0xc
 2280 057d 1E       		.byte	0x1e
 2281 057e B8000000 		.4byte	0xb8
 2282 0582 06       		.uleb128 0x6
 2283 0583 0C       		.byte	0xc
 2284 0584 0C       		.byte	0xc
 2285 0585 21       		.byte	0x21
 2286 0586 AF050000 		.4byte	0x5af
 2287 058a 07       		.uleb128 0x7
 2288 058b 4E0E0000 		.4byte	.LASF79
 2289 058f 0C       		.byte	0xc
 2290 0590 23       		.byte	0x23
 2291 0591 E4000000 		.4byte	0xe4
 2292 0595 00       		.byte	0
 2293 0596 07       		.uleb128 0x7
 2294 0597 67020000 		.4byte	.LASF80
 2295 059b 0C       		.byte	0xc
 2296 059c 24       		.byte	0x24
 2297 059d AF050000 		.4byte	0x5af
 2298 05a1 04       		.byte	0x4
 2299 05a2 07       		.uleb128 0x7
 2300 05a3 4C000000 		.4byte	.LASF81
 2301 05a7 0C       		.byte	0xc
 2302 05a8 25       		.byte	0x25
 2303 05a9 AF050000 		.4byte	0x5af
 2304 05ad 08       		.byte	0x8
 2305 05ae 00       		.byte	0
 2306 05af 0D       		.uleb128 0xd
 2307 05b0 04       		.byte	0x4
 2308 05b1 77050000 		.4byte	0x577
 2309 05b5 02       		.uleb128 0x2
 2310 05b6 340C0000 		.4byte	.LASF82
 2311 05ba 0C       		.byte	0xc
 2312 05bb 26       		.byte	0x26
 2313 05bc 82050000 		.4byte	0x582
 2314 05c0 02       		.uleb128 0x2
 2315 05c1 AA040000 		.4byte	.LASF83
 2316 05c5 0D       		.byte	0xd
 2317 05c6 30       		.byte	0x30
 2318 05c7 B8000000 		.4byte	0xb8
 2319 05cb 0D       		.uleb128 0xd
 2320 05cc 04       		.byte	0x4
 2321 05cd D1050000 		.4byte	0x5d1
ARM GAS  C:\Users\tmj32\AppData\Local\Temp\cci6nv1n.s 			page 52


 2322 05d1 0E       		.uleb128 0xe
 2323 05d2 01030000 		.4byte	0x301
 2324 05d6 09       		.uleb128 0x9
 2325 05d7 C20B0000 		.4byte	.LASF85
 2326 05db 40       		.byte	0x40
 2327 05dc 0E       		.byte	0xe
 2328 05dd BB       		.byte	0xbb
 2329 05de 18070000 		.4byte	0x718
 2330 05e2 08       		.uleb128 0x8
 2331 05e3 70617200 		.ascii	"par\000"
 2332 05e7 0E       		.byte	0xe
 2333 05e8 BD       		.byte	0xbd
 2334 05e9 18070000 		.4byte	0x718
 2335 05ed 00       		.byte	0
 2336 05ee 07       		.uleb128 0x7
 2337 05ef 57070000 		.4byte	.LASF86
 2338 05f3 0E       		.byte	0xe
 2339 05f4 BE       		.byte	0xbe
 2340 05f5 B5050000 		.4byte	0x5b5
 2341 05f9 04       		.byte	0x4
 2342 05fa 07       		.uleb128 0x7
 2343 05fb 690C0000 		.4byte	.LASF87
 2344 05ff 0E       		.byte	0xe
 2345 0600 C0       		.byte	0xc0
 2346 0601 01030000 		.4byte	0x301
 2347 0605 10       		.byte	0x10
 2348 0606 07       		.uleb128 0x7
 2349 0607 3C060000 		.4byte	.LASF88
 2350 060b 0E       		.byte	0xe
 2351 060c C2       		.byte	0xc2
 2352 060d 94070000 		.4byte	0x794
 2353 0611 18       		.byte	0x18
 2354 0612 07       		.uleb128 0x7
 2355 0613 330D0000 		.4byte	.LASF89
 2356 0617 0E       		.byte	0xe
 2357 0618 C3       		.byte	0xc3
 2358 0619 45080000 		.4byte	0x845
 2359 061d 1C       		.byte	0x1c
 2360 061e 07       		.uleb128 0x7
 2361 061f 3C040000 		.4byte	.LASF90
 2362 0623 0E       		.byte	0xe
 2363 0624 C4       		.byte	0xc4
 2364 0625 5F070000 		.4byte	0x75f
 2365 0629 20       		.byte	0x20
 2366 062a 07       		.uleb128 0x7
 2367 062b F4080000 		.4byte	.LASF91
 2368 062f 0E       		.byte	0xe
 2369 0630 C6       		.byte	0xc6
 2370 0631 FA000000 		.4byte	0xfa
 2371 0635 24       		.byte	0x24
 2372 0636 07       		.uleb128 0x7
 2373 0637 4B060000 		.4byte	.LASF92
 2374 063b 0E       		.byte	0xe
 2375 063c C7       		.byte	0xc7
 2376 063d F2080000 		.4byte	0x8f2
 2377 0641 28       		.byte	0x28
 2378 0642 0A       		.uleb128 0xa
ARM GAS  C:\Users\tmj32\AppData\Local\Temp\cci6nv1n.s 			page 53


 2379 0643 DE000000 		.4byte	.LASF93
 2380 0647 0E       		.byte	0xe
 2381 0648 D7       		.byte	0xd7
 2382 0649 B8000000 		.4byte	0xb8
 2383 064d 01       		.byte	0x1
 2384 064e 01       		.byte	0x1
 2385 064f 07       		.byte	0x7
 2386 0650 2C       		.byte	0x2c
 2387 0651 0A       		.uleb128 0xa
 2388 0652 AE0B0000 		.4byte	.LASF94
 2389 0656 0E       		.byte	0xe
 2390 0657 D8       		.byte	0xd8
 2391 0658 B8000000 		.4byte	0xb8
 2392 065c 01       		.byte	0x1
 2393 065d 01       		.byte	0x1
 2394 065e 06       		.byte	0x6
 2395 065f 2C       		.byte	0x2c
 2396 0660 0A       		.uleb128 0xa
 2397 0661 91040000 		.4byte	.LASF95
 2398 0665 0E       		.byte	0xe
 2399 0666 D9       		.byte	0xd9
 2400 0667 B8000000 		.4byte	0xb8
 2401 066b 01       		.byte	0x1
 2402 066c 01       		.byte	0x1
 2403 066d 05       		.byte	0x5
 2404 066e 2C       		.byte	0x2c
 2405 066f 0A       		.uleb128 0xa
 2406 0670 BF0C0000 		.4byte	.LASF96
 2407 0674 0E       		.byte	0xe
 2408 0675 DA       		.byte	0xda
 2409 0676 B8000000 		.4byte	0xb8
 2410 067a 01       		.byte	0x1
 2411 067b 01       		.byte	0x1
 2412 067c 04       		.byte	0x4
 2413 067d 2C       		.byte	0x2c
 2414 067e 0A       		.uleb128 0xa
 2415 067f 29020000 		.4byte	.LASF97
 2416 0683 0E       		.byte	0xe
 2417 0684 DB       		.byte	0xdb
 2418 0685 B8000000 		.4byte	0xb8
 2419 0689 01       		.byte	0x1
 2420 068a 01       		.byte	0x1
 2421 068b 03       		.byte	0x3
 2422 068c 2C       		.byte	0x2c
 2423 068d 17       		.uleb128 0x17
 2424 068e 746F7000 		.ascii	"top\000"
 2425 0692 0E       		.byte	0xe
 2426 0693 DC       		.byte	0xdc
 2427 0694 B8000000 		.4byte	0xb8
 2428 0698 01       		.byte	0x1
 2429 0699 01       		.byte	0x1
 2430 069a 02       		.byte	0x2
 2431 069b 2C       		.byte	0x2c
 2432 069c 0A       		.uleb128 0xa
 2433 069d 890C0000 		.4byte	.LASF98
 2434 06a1 0E       		.byte	0xe
 2435 06a2 DD       		.byte	0xdd
ARM GAS  C:\Users\tmj32\AppData\Local\Temp\cci6nv1n.s 			page 54


 2436 06a3 B8000000 		.4byte	0xb8
 2437 06a7 01       		.byte	0x1
 2438 06a8 01       		.byte	0x1
 2439 06a9 01       		.byte	0x1
 2440 06aa 2C       		.byte	0x2c
 2441 06ab 0A       		.uleb128 0xa
 2442 06ac 7D070000 		.4byte	.LASF99
 2443 06b0 0E       		.byte	0xe
 2444 06b1 DE       		.byte	0xde
 2445 06b2 B8000000 		.4byte	0xb8
 2446 06b6 01       		.byte	0x1
 2447 06b7 01       		.byte	0x1
 2448 06b8 00       		.byte	0
 2449 06b9 2C       		.byte	0x2c
 2450 06ba 0A       		.uleb128 0xa
 2451 06bb 4E030000 		.4byte	.LASF100
 2452 06bf 0E       		.byte	0xe
 2453 06c0 DF       		.byte	0xdf
 2454 06c1 E7080000 		.4byte	0x8e7
 2455 06c5 01       		.byte	0x1
 2456 06c6 02       		.byte	0x2
 2457 06c7 06       		.byte	0x6
 2458 06c8 2D       		.byte	0x2d
 2459 06c9 0A       		.uleb128 0xa
 2460 06ca E70B0000 		.4byte	.LASF101
 2461 06ce 0E       		.byte	0xe
 2462 06cf E0       		.byte	0xe0
 2463 06d0 C0050000 		.4byte	0x5c0
 2464 06d4 01       		.byte	0x1
 2465 06d5 02       		.byte	0x2
 2466 06d6 04       		.byte	0x4
 2467 06d7 2D       		.byte	0x2d
 2468 06d8 0A       		.uleb128 0xa
 2469 06d9 630D0000 		.4byte	.LASF102
 2470 06dd 0E       		.byte	0xe
 2471 06de E1       		.byte	0xe1
 2472 06df B8000000 		.4byte	0xb8
 2473 06e3 01       		.byte	0x1
 2474 06e4 03       		.byte	0x3
 2475 06e5 01       		.byte	0x1
 2476 06e6 2D       		.byte	0x2d
 2477 06e7 07       		.uleb128 0x7
 2478 06e8 66070000 		.4byte	.LASF103
 2479 06ec 0E       		.byte	0xe
 2480 06ed E2       		.byte	0xe2
 2481 06ee B8000000 		.4byte	0xb8
 2482 06f2 2E       		.byte	0x2e
 2483 06f3 07       		.uleb128 0x7
 2484 06f4 840E0000 		.4byte	.LASF104
 2485 06f8 0E       		.byte	0xe
 2486 06f9 E4       		.byte	0xe4
 2487 06fa 91020000 		.4byte	0x291
 2488 06fe 2F       		.byte	0x2f
 2489 06ff 07       		.uleb128 0x7
 2490 0700 B8040000 		.4byte	.LASF105
 2491 0704 0E       		.byte	0xe
 2492 0705 E6       		.byte	0xe6
ARM GAS  C:\Users\tmj32\AppData\Local\Temp\cci6nv1n.s 			page 55


 2493 0706 EF000000 		.4byte	0xef
 2494 070a 30       		.byte	0x30
 2495 070b 07       		.uleb128 0x7
 2496 070c 25050000 		.4byte	.LASF106
 2497 0710 0E       		.byte	0xe
 2498 0711 E9       		.byte	0xe9
 2499 0712 DC080000 		.4byte	0x8dc
 2500 0716 34       		.byte	0x34
 2501 0717 00       		.byte	0
 2502 0718 0D       		.uleb128 0xd
 2503 0719 04       		.byte	0x4
 2504 071a D6050000 		.4byte	0x5d6
 2505 071e 15       		.uleb128 0x15
 2506 071f 01       		.byte	0x1
 2507 0720 42000000 		.4byte	0x42
 2508 0724 0F       		.byte	0xf
 2509 0725 2B       		.byte	0x2b
 2510 0726 49070000 		.4byte	0x749
 2511 072a 16       		.uleb128 0x16
 2512 072b 970D0000 		.4byte	.LASF107
 2513 072f 00       		.byte	0
 2514 0730 16       		.uleb128 0x16
 2515 0731 FD080000 		.4byte	.LASF108
 2516 0735 01       		.byte	0x1
 2517 0736 16       		.uleb128 0x16
 2518 0737 510A0000 		.4byte	.LASF109
 2519 073b 02       		.byte	0x2
 2520 073c 16       		.uleb128 0x16
 2521 073d 12060000 		.4byte	.LASF110
 2522 0741 03       		.byte	0x3
 2523 0742 16       		.uleb128 0x16
 2524 0743 0F050000 		.4byte	.LASF111
 2525 0747 04       		.byte	0x4
 2526 0748 00       		.byte	0
 2527 0749 02       		.uleb128 0x2
 2528 074a E3050000 		.4byte	.LASF112
 2529 074e 0F       		.byte	0xf
 2530 074f 33       		.byte	0x33
 2531 0750 B8000000 		.4byte	0xb8
 2532 0754 02       		.uleb128 0x2
 2533 0755 1A090000 		.4byte	.LASF113
 2534 0759 0E       		.byte	0xe
 2535 075a 42       		.byte	0x42
 2536 075b B8000000 		.4byte	0xb8
 2537 075f 02       		.uleb128 0x2
 2538 0760 6A0E0000 		.4byte	.LASF114
 2539 0764 0E       		.byte	0xe
 2540 0765 48       		.byte	0x48
 2541 0766 6A070000 		.4byte	0x76a
 2542 076a 0D       		.uleb128 0xd
 2543 076b 04       		.byte	0x4
 2544 076c 70070000 		.4byte	0x770
 2545 0770 0B       		.uleb128 0xb
 2546 0771 D5010000 		.4byte	0x1d5
 2547 0775 89070000 		.4byte	0x789
 2548 0779 0C       		.uleb128 0xc
 2549 077a 18070000 		.4byte	0x718
ARM GAS  C:\Users\tmj32\AppData\Local\Temp\cci6nv1n.s 			page 56


 2550 077e 0C       		.uleb128 0xc
 2551 077f CB050000 		.4byte	0x5cb
 2552 0783 0C       		.uleb128 0xc
 2553 0784 54070000 		.4byte	0x754
 2554 0788 00       		.byte	0
 2555 0789 02       		.uleb128 0x2
 2556 078a 21010000 		.4byte	.LASF115
 2557 078e 0E       		.byte	0xe
 2558 078f 61       		.byte	0x61
 2559 0790 B8000000 		.4byte	0xb8
 2560 0794 02       		.uleb128 0x2
 2561 0795 E00D0000 		.4byte	.LASF116
 2562 0799 0E       		.byte	0xe
 2563 079a 68       		.byte	0x68
 2564 079b 9F070000 		.4byte	0x79f
 2565 079f 0D       		.uleb128 0xd
 2566 07a0 04       		.byte	0x4
 2567 07a1 A5070000 		.4byte	0x7a5
 2568 07a5 18       		.uleb128 0x18
 2569 07a6 B5070000 		.4byte	0x7b5
 2570 07aa 0C       		.uleb128 0xc
 2571 07ab 18070000 		.4byte	0x718
 2572 07af 0C       		.uleb128 0xc
 2573 07b0 89070000 		.4byte	0x789
 2574 07b4 00       		.byte	0
 2575 07b5 15       		.uleb128 0x15
 2576 07b6 01       		.byte	0x1
 2577 07b7 42000000 		.4byte	0x42
 2578 07bb 0E       		.byte	0xe
 2579 07bc 6D       		.byte	0x6d
 2580 07bd 3A080000 		.4byte	0x83a
 2581 07c1 16       		.uleb128 0x16
 2582 07c2 8A070000 		.4byte	.LASF117
 2583 07c6 00       		.byte	0
 2584 07c7 16       		.uleb128 0x16
 2585 07c8 E8070000 		.4byte	.LASF118
 2586 07cc 01       		.byte	0x1
 2587 07cd 16       		.uleb128 0x16
 2588 07ce 490C0000 		.4byte	.LASF119
 2589 07d2 02       		.byte	0x2
 2590 07d3 16       		.uleb128 0x16
 2591 07d4 78090000 		.4byte	.LASF120
 2592 07d8 03       		.byte	0x3
 2593 07d9 16       		.uleb128 0x16
 2594 07da 51000000 		.4byte	.LASF121
 2595 07de 04       		.byte	0x4
 2596 07df 16       		.uleb128 0x16
 2597 07e0 E00C0000 		.4byte	.LASF122
 2598 07e4 05       		.byte	0x5
 2599 07e5 16       		.uleb128 0x16
 2600 07e6 32030000 		.4byte	.LASF123
 2601 07ea 06       		.byte	0x6
 2602 07eb 16       		.uleb128 0x16
 2603 07ec 2D050000 		.4byte	.LASF124
 2604 07f0 07       		.byte	0x7
 2605 07f1 16       		.uleb128 0x16
 2606 07f2 6F010000 		.4byte	.LASF125
ARM GAS  C:\Users\tmj32\AppData\Local\Temp\cci6nv1n.s 			page 57


 2607 07f6 08       		.byte	0x8
 2608 07f7 16       		.uleb128 0x16
 2609 07f8 B8080000 		.4byte	.LASF126
 2610 07fc 09       		.byte	0x9
 2611 07fd 16       		.uleb128 0x16
 2612 07fe 31090000 		.4byte	.LASF127
 2613 0802 0A       		.byte	0xa
 2614 0803 16       		.uleb128 0x16
 2615 0804 92090000 		.4byte	.LASF128
 2616 0808 0B       		.byte	0xb
 2617 0809 16       		.uleb128 0x16
 2618 080a A9000000 		.4byte	.LASF129
 2619 080e 0C       		.byte	0xc
 2620 080f 16       		.uleb128 0x16
 2621 0810 DC020000 		.4byte	.LASF130
 2622 0814 0D       		.byte	0xd
 2623 0815 16       		.uleb128 0x16
 2624 0816 F6000000 		.4byte	.LASF131
 2625 081a 0E       		.byte	0xe
 2626 081b 16       		.uleb128 0x16
 2627 081c 51090000 		.4byte	.LASF132
 2628 0820 0F       		.byte	0xf
 2629 0821 16       		.uleb128 0x16
 2630 0822 BA050000 		.4byte	.LASF133
 2631 0826 10       		.byte	0x10
 2632 0827 16       		.uleb128 0x16
 2633 0828 46040000 		.4byte	.LASF134
 2634 082c 11       		.byte	0x11
 2635 082d 16       		.uleb128 0x16
 2636 082e 04070000 		.4byte	.LASF135
 2637 0832 12       		.byte	0x12
 2638 0833 16       		.uleb128 0x16
 2639 0834 F3050000 		.4byte	.LASF136
 2640 0838 13       		.byte	0x13
 2641 0839 00       		.byte	0
 2642 083a 02       		.uleb128 0x2
 2643 083b B9090000 		.4byte	.LASF137
 2644 083f 0E       		.byte	0xe
 2645 0840 88       		.byte	0x88
 2646 0841 B8000000 		.4byte	0xb8
 2647 0845 02       		.uleb128 0x2
 2648 0846 A3030000 		.4byte	.LASF138
 2649 084a 0E       		.byte	0xe
 2650 084b 8A       		.byte	0x8a
 2651 084c 50080000 		.4byte	0x850
 2652 0850 0D       		.uleb128 0xd
 2653 0851 04       		.byte	0x4
 2654 0852 56080000 		.4byte	0x856
 2655 0856 0B       		.uleb128 0xb
 2656 0857 6C050000 		.4byte	0x56c
 2657 085b 6F080000 		.4byte	0x86f
 2658 085f 0C       		.uleb128 0xc
 2659 0860 18070000 		.4byte	0x718
 2660 0864 0C       		.uleb128 0xc
 2661 0865 3A080000 		.4byte	0x83a
 2662 0869 0C       		.uleb128 0xc
 2663 086a FA000000 		.4byte	0xfa
ARM GAS  C:\Users\tmj32\AppData\Local\Temp\cci6nv1n.s 			page 58


 2664 086e 00       		.byte	0
 2665 086f 02       		.uleb128 0x2
 2666 0870 E4000000 		.4byte	.LASF139
 2667 0874 0E       		.byte	0xe
 2668 0875 A4       		.byte	0xa4
 2669 0876 B8000000 		.4byte	0xb8
 2670 087a 06       		.uleb128 0x6
 2671 087b 0C       		.byte	0xc
 2672 087c 0E       		.byte	0xe
 2673 087d A7       		.byte	0xa7
 2674 087e D1080000 		.4byte	0x8d1
 2675 0882 07       		.uleb128 0x7
 2676 0883 150C0000 		.4byte	.LASF140
 2677 0887 0E       		.byte	0xe
 2678 0888 A9       		.byte	0xa9
 2679 0889 D1080000 		.4byte	0x8d1
 2680 088d 00       		.byte	0
 2681 088e 07       		.uleb128 0x7
 2682 088f 850B0000 		.4byte	.LASF141
 2683 0893 0E       		.byte	0xe
 2684 0894 AA       		.byte	0xaa
 2685 0895 EF000000 		.4byte	0xef
 2686 0899 04       		.byte	0x4
 2687 089a 07       		.uleb128 0x7
 2688 089b E0030000 		.4byte	.LASF142
 2689 089f 0E       		.byte	0xe
 2690 08a0 AB       		.byte	0xab
 2691 08a1 EF000000 		.4byte	0xef
 2692 08a5 06       		.byte	0x6
 2693 08a6 07       		.uleb128 0x7
 2694 08a7 B0070000 		.4byte	.LASF143
 2695 08ab 0E       		.byte	0xe
 2696 08ac AC       		.byte	0xac
 2697 08ad 6F080000 		.4byte	0x86f
 2698 08b1 08       		.byte	0x8
 2699 08b2 0A       		.uleb128 0xa
 2700 08b3 19080000 		.4byte	.LASF144
 2701 08b7 0E       		.byte	0xe
 2702 08b8 AD       		.byte	0xad
 2703 08b9 B8000000 		.4byte	0xb8
 2704 08bd 01       		.byte	0x1
 2705 08be 01       		.byte	0x1
 2706 08bf 07       		.byte	0x7
 2707 08c0 09       		.byte	0x9
 2708 08c1 0A       		.uleb128 0xa
 2709 08c2 F60D0000 		.4byte	.LASF145
 2710 08c6 0E       		.byte	0xe
 2711 08c7 AE       		.byte	0xae
 2712 08c8 B8000000 		.4byte	0xb8
 2713 08cc 01       		.byte	0x1
 2714 08cd 01       		.byte	0x1
 2715 08ce 06       		.byte	0x6
 2716 08cf 09       		.byte	0x9
 2717 08d0 00       		.byte	0
 2718 08d1 0D       		.uleb128 0xd
 2719 08d2 04       		.byte	0x4
 2720 08d3 D7080000 		.4byte	0x8d7
ARM GAS  C:\Users\tmj32\AppData\Local\Temp\cci6nv1n.s 			page 59


 2721 08d7 0E       		.uleb128 0xe
 2722 08d8 D6050000 		.4byte	0x5d6
 2723 08dc 02       		.uleb128 0x2
 2724 08dd C5000000 		.4byte	.LASF146
 2725 08e1 0E       		.byte	0xe
 2726 08e2 B0       		.byte	0xb0
 2727 08e3 7A080000 		.4byte	0x87a
 2728 08e7 02       		.uleb128 0x2
 2729 08e8 E0080000 		.4byte	.LASF147
 2730 08ec 0E       		.byte	0xe
 2731 08ed B9       		.byte	0xb9
 2732 08ee B8000000 		.4byte	0xb8
 2733 08f2 0D       		.uleb128 0xd
 2734 08f3 04       		.byte	0x4
 2735 08f4 F8080000 		.4byte	0x8f8
 2736 08f8 0E       		.uleb128 0xe
 2737 08f9 42050000 		.4byte	0x542
 2738 08fd 02       		.uleb128 0x2
 2739 08fe 940B0000 		.4byte	.LASF148
 2740 0902 0E       		.byte	0xe
 2741 0903 F0       		.byte	0xf0
 2742 0904 D6050000 		.4byte	0x5d6
 2743 0908 19       		.uleb128 0x19
 2744 0909 20       		.byte	0x20
 2745 090a 0E       		.byte	0xe
 2746 090b 0101     		.2byte	0x101
 2747 090d 1F090000 		.4byte	0x91f
 2748 0911 1A       		.uleb128 0x1a
 2749 0912 81010000 		.4byte	.LASF51
 2750 0916 0E       		.byte	0xe
 2751 0917 0301     		.2byte	0x103
 2752 0919 1F090000 		.4byte	0x91f
 2753 091d 00       		.byte	0
 2754 091e 00       		.byte	0
 2755 091f 13       		.uleb128 0x13
 2756 0920 B1020000 		.4byte	0x2b1
 2757 0924 2F090000 		.4byte	0x92f
 2758 0928 14       		.uleb128 0x14
 2759 0929 9D020000 		.4byte	0x29d
 2760 092d 07       		.byte	0x7
 2761 092e 00       		.byte	0
 2762 092f 12       		.uleb128 0x12
 2763 0930 5C0E0000 		.4byte	.LASF149
 2764 0934 0E       		.byte	0xe
 2765 0935 0501     		.2byte	0x105
 2766 0937 08090000 		.4byte	0x908
 2767 093b 06       		.uleb128 0x6
 2768 093c 02       		.byte	0x2
 2769 093d 10       		.byte	0x10
 2770 093e 3F       		.byte	0x3f
 2771 093f 8F090000 		.4byte	0x98f
 2772 0943 0A       		.uleb128 0xa
 2773 0944 6E070000 		.4byte	.LASF150
 2774 0948 10       		.byte	0x10
 2775 0949 43       		.byte	0x43
 2776 094a B8000000 		.4byte	0xb8
 2777 094e 01       		.byte	0x1
ARM GAS  C:\Users\tmj32\AppData\Local\Temp\cci6nv1n.s 			page 60


 2778 094f 04       		.byte	0x4
 2779 0950 04       		.byte	0x4
 2780 0951 00       		.byte	0
 2781 0952 0A       		.uleb128 0xa
 2782 0953 71080000 		.4byte	.LASF151
 2783 0957 10       		.byte	0x10
 2784 0958 44       		.byte	0x44
 2785 0959 B8000000 		.4byte	0xb8
 2786 095d 01       		.byte	0x1
 2787 095e 02       		.byte	0x2
 2788 095f 02       		.byte	0x2
 2789 0960 00       		.byte	0
 2790 0961 0A       		.uleb128 0xa
 2791 0962 8A0B0000 		.4byte	.LASF152
 2792 0966 10       		.byte	0x10
 2793 0967 45       		.byte	0x45
 2794 0968 B8000000 		.4byte	0xb8
 2795 096c 01       		.byte	0x1
 2796 096d 02       		.byte	0x2
 2797 096e 00       		.byte	0
 2798 096f 00       		.byte	0
 2799 0970 0A       		.uleb128 0xa
 2800 0971 AE020000 		.4byte	.LASF153
 2801 0975 10       		.byte	0x10
 2802 0976 46       		.byte	0x46
 2803 0977 B8000000 		.4byte	0xb8
 2804 097b 01       		.byte	0x1
 2805 097c 02       		.byte	0x2
 2806 097d 06       		.byte	0x6
 2807 097e 01       		.byte	0x1
 2808 097f 0A       		.uleb128 0xa
 2809 0980 720A0000 		.4byte	.LASF154
 2810 0984 10       		.byte	0x10
 2811 0985 47       		.byte	0x47
 2812 0986 B8000000 		.4byte	0xb8
 2813 098a 01       		.byte	0x1
 2814 098b 02       		.byte	0x2
 2815 098c 04       		.byte	0x4
 2816 098d 01       		.byte	0x1
 2817 098e 00       		.byte	0
 2818 098f 02       		.uleb128 0x2
 2819 0990 CD070000 		.4byte	.LASF155
 2820 0994 10       		.byte	0x10
 2821 0995 48       		.byte	0x48
 2822 0996 3B090000 		.4byte	0x93b
 2823 099a 15       		.uleb128 0x15
 2824 099b 01       		.byte	0x1
 2825 099c 42000000 		.4byte	0x42
 2826 09a0 11       		.byte	0x11
 2827 09a1 1E       		.byte	0x1e
 2828 09a2 EF090000 		.4byte	0x9ef
 2829 09a6 16       		.uleb128 0x16
 2830 09a7 070E0000 		.4byte	.LASF156
 2831 09ab 11       		.byte	0x11
 2832 09ac 16       		.uleb128 0x16
 2833 09ad 660A0000 		.4byte	.LASF157
 2834 09b1 12       		.byte	0x12
ARM GAS  C:\Users\tmj32\AppData\Local\Temp\cci6nv1n.s 			page 61


 2835 09b2 16       		.uleb128 0x16
 2836 09b3 2D000000 		.4byte	.LASF158
 2837 09b7 13       		.byte	0x13
 2838 09b8 16       		.uleb128 0x16
 2839 09b9 7D020000 		.4byte	.LASF159
 2840 09bd 14       		.byte	0x14
 2841 09be 16       		.uleb128 0x16
 2842 09bf 7D0A0000 		.4byte	.LASF160
 2843 09c3 1B       		.byte	0x1b
 2844 09c4 16       		.uleb128 0x16
 2845 09c5 57020000 		.4byte	.LASF161
 2846 09c9 7F       		.byte	0x7f
 2847 09ca 16       		.uleb128 0x16
 2848 09cb 6B030000 		.4byte	.LASF162
 2849 09cf 08       		.byte	0x8
 2850 09d0 16       		.uleb128 0x16
 2851 09d1 3A010000 		.4byte	.LASF163
 2852 09d5 0A       		.byte	0xa
 2853 09d6 16       		.uleb128 0x16
 2854 09d7 AC080000 		.4byte	.LASF164
 2855 09db 09       		.byte	0x9
 2856 09dc 16       		.uleb128 0x16
 2857 09dd 090C0000 		.4byte	.LASF165
 2858 09e1 0B       		.byte	0xb
 2859 09e2 16       		.uleb128 0x16
 2860 09e3 7F050000 		.4byte	.LASF166
 2861 09e7 02       		.byte	0x2
 2862 09e8 16       		.uleb128 0x16
 2863 09e9 46090000 		.4byte	.LASF167
 2864 09ed 03       		.byte	0x3
 2865 09ee 00       		.byte	0
 2866 09ef 02       		.uleb128 0x2
 2867 09f0 7F0D0000 		.4byte	.LASF168
 2868 09f4 12       		.byte	0x12
 2869 09f5 32       		.byte	0x32
 2870 09f6 B8000000 		.4byte	0xb8
 2871 09fa 06       		.uleb128 0x6
 2872 09fb 18       		.byte	0x18
 2873 09fc 12       		.byte	0x12
 2874 09fd 3E       		.byte	0x3e
 2875 09fe 540A0000 		.4byte	0xa54
 2876 0a02 07       		.uleb128 0x7
 2877 0a03 EE080000 		.4byte	.LASF169
 2878 0a07 12       		.byte	0x12
 2879 0a08 40       		.byte	0x40
 2880 0a09 F2080000 		.4byte	0x8f2
 2881 0a0d 00       		.byte	0
 2882 0a0e 07       		.uleb128 0x7
 2883 0a0f 110E0000 		.4byte	.LASF170
 2884 0a13 12       		.byte	0x12
 2885 0a14 41       		.byte	0x41
 2886 0a15 01030000 		.4byte	0x301
 2887 0a19 04       		.byte	0x4
 2888 0a1a 07       		.uleb128 0x7
 2889 0a1b 1D0A0000 		.4byte	.LASF171
 2890 0a1f 12       		.byte	0x12
 2891 0a20 42       		.byte	0x42
ARM GAS  C:\Users\tmj32\AppData\Local\Temp\cci6nv1n.s 			page 62


 2892 0a21 01030000 		.4byte	0x301
 2893 0a25 0C       		.byte	0xc
 2894 0a26 0A       		.uleb128 0xa
 2895 0a27 EC040000 		.4byte	.LASF172
 2896 0a2b 12       		.byte	0x12
 2897 0a2c 43       		.byte	0x43
 2898 0a2d B8000000 		.4byte	0xb8
 2899 0a31 01       		.byte	0x1
 2900 0a32 01       		.byte	0x1
 2901 0a33 07       		.byte	0x7
 2902 0a34 14       		.byte	0x14
 2903 0a35 0A       		.uleb128 0xa
 2904 0a36 95010000 		.4byte	.LASF173
 2905 0a3a 12       		.byte	0x12
 2906 0a3b 44       		.byte	0x44
 2907 0a3c B8000000 		.4byte	0xb8
 2908 0a40 01       		.byte	0x1
 2909 0a41 01       		.byte	0x1
 2910 0a42 06       		.byte	0x6
 2911 0a43 14       		.byte	0x14
 2912 0a44 0A       		.uleb128 0xa
 2913 0a45 3C0C0000 		.4byte	.LASF174
 2914 0a49 12       		.byte	0x12
 2915 0a4a 45       		.byte	0x45
 2916 0a4b EF090000 		.4byte	0x9ef
 2917 0a4f 01       		.byte	0x1
 2918 0a50 03       		.byte	0x3
 2919 0a51 03       		.byte	0x3
 2920 0a52 14       		.byte	0x14
 2921 0a53 00       		.byte	0
 2922 0a54 06       		.uleb128 0x6
 2923 0a55 0C       		.byte	0xc
 2924 0a56 12       		.byte	0x12
 2925 0a57 48       		.byte	0x48
 2926 0a58 C00A0000 		.4byte	0xac0
 2927 0a5c 07       		.uleb128 0x7
 2928 0a5d 2C010000 		.4byte	.LASF175
 2929 0a61 12       		.byte	0x12
 2930 0a62 4A       		.byte	0x4a
 2931 0a63 0C030000 		.4byte	0x30c
 2932 0a67 00       		.byte	0
 2933 0a68 07       		.uleb128 0x7
 2934 0a69 EE080000 		.4byte	.LASF169
 2935 0a6d 12       		.byte	0x12
 2936 0a6e 4B       		.byte	0x4b
 2937 0a6f F2080000 		.4byte	0x8f2
 2938 0a73 04       		.byte	0x4
 2939 0a74 0A       		.uleb128 0xa
 2940 0a75 54050000 		.4byte	.LASF176
 2941 0a79 12       		.byte	0x12
 2942 0a7a 4C       		.byte	0x4c
 2943 0a7b B8000000 		.4byte	0xb8
 2944 0a7f 01       		.byte	0x1
 2945 0a80 01       		.byte	0x1
 2946 0a81 07       		.byte	0x7
 2947 0a82 08       		.byte	0x8
 2948 0a83 0A       		.uleb128 0xa
ARM GAS  C:\Users\tmj32\AppData\Local\Temp\cci6nv1n.s 			page 63


 2949 0a84 6D0B0000 		.4byte	.LASF177
 2950 0a88 12       		.byte	0x12
 2951 0a89 4D       		.byte	0x4d
 2952 0a8a B8000000 		.4byte	0xb8
 2953 0a8e 01       		.byte	0x1
 2954 0a8f 01       		.byte	0x1
 2955 0a90 06       		.byte	0x6
 2956 0a91 08       		.byte	0x8
 2957 0a92 0A       		.uleb128 0xa
 2958 0a93 F90B0000 		.4byte	.LASF178
 2959 0a97 12       		.byte	0x12
 2960 0a98 4F       		.byte	0x4f
 2961 0a99 B8000000 		.4byte	0xb8
 2962 0a9d 01       		.byte	0x1
 2963 0a9e 01       		.byte	0x1
 2964 0a9f 05       		.byte	0x5
 2965 0aa0 08       		.byte	0x8
 2966 0aa1 0A       		.uleb128 0xa
 2967 0aa2 F00B0000 		.4byte	.LASF179
 2968 0aa6 12       		.byte	0x12
 2969 0aa7 51       		.byte	0x51
 2970 0aa8 B8000000 		.4byte	0xb8
 2971 0aac 01       		.byte	0x1
 2972 0aad 01       		.byte	0x1
 2973 0aae 04       		.byte	0x4
 2974 0aaf 08       		.byte	0x8
 2975 0ab0 0A       		.uleb128 0xa
 2976 0ab1 32010000 		.4byte	.LASF180
 2977 0ab5 12       		.byte	0x12
 2978 0ab6 53       		.byte	0x53
 2979 0ab7 B8000000 		.4byte	0xb8
 2980 0abb 01       		.byte	0x1
 2981 0abc 01       		.byte	0x1
 2982 0abd 03       		.byte	0x3
 2983 0abe 08       		.byte	0x8
 2984 0abf 00       		.byte	0
 2985 0ac0 06       		.uleb128 0x6
 2986 0ac1 30       		.byte	0x30
 2987 0ac2 12       		.byte	0x12
 2988 0ac3 39       		.byte	0x39
 2989 0ac4 210B0000 		.4byte	0xb21
 2990 0ac8 08       		.uleb128 0x8
 2991 0ac9 626700   		.ascii	"bg\000"
 2992 0acc 12       		.byte	0x12
 2993 0acd 3B       		.byte	0x3b
 2994 0ace 8F090000 		.4byte	0x98f
 2995 0ad2 00       		.byte	0
 2996 0ad3 07       		.uleb128 0x7
 2997 0ad4 CD020000 		.4byte	.LASF181
 2998 0ad8 12       		.byte	0x12
 2999 0ad9 3D       		.byte	0x3d
 3000 0ada 210B0000 		.4byte	0xb21
 3001 0ade 04       		.byte	0x4
 3002 0adf 08       		.uleb128 0x8
 3003 0ae0 736200   		.ascii	"sb\000"
 3004 0ae3 12       		.byte	0x12
 3005 0ae4 46       		.byte	0x46
ARM GAS  C:\Users\tmj32\AppData\Local\Temp\cci6nv1n.s 			page 64


 3006 0ae5 FA090000 		.4byte	0x9fa
 3007 0ae9 08       		.byte	0x8
 3008 0aea 07       		.uleb128 0x7
 3009 0aeb 790E0000 		.4byte	.LASF182
 3010 0aef 12       		.byte	0x12
 3011 0af0 55       		.byte	0x55
 3012 0af1 540A0000 		.4byte	0xa54
 3013 0af5 20       		.byte	0x20
 3014 0af6 07       		.uleb128 0x7
 3015 0af7 D6030000 		.4byte	.LASF183
 3016 0afb 12       		.byte	0x12
 3017 0afc 57       		.byte	0x57
 3018 0afd CE000000 		.4byte	0xce
 3019 0b01 2C       		.byte	0x2c
 3020 0b02 0A       		.uleb128 0xa
 3021 0b03 71020000 		.4byte	.LASF184
 3022 0b07 12       		.byte	0x12
 3023 0b08 5A       		.byte	0x5a
 3024 0b09 B8000000 		.4byte	0xb8
 3025 0b0d 01       		.byte	0x1
 3026 0b0e 01       		.byte	0x1
 3027 0b0f 07       		.byte	0x7
 3028 0b10 2E       		.byte	0x2e
 3029 0b11 0A       		.uleb128 0xa
 3030 0b12 45050000 		.4byte	.LASF185
 3031 0b16 12       		.byte	0x12
 3032 0b17 5B       		.byte	0x5b
 3033 0b18 B8000000 		.4byte	0xb8
 3034 0b1c 01       		.byte	0x1
 3035 0b1d 01       		.byte	0x1
 3036 0b1e 06       		.byte	0x6
 3037 0b1f 2E       		.byte	0x2e
 3038 0b20 00       		.byte	0
 3039 0b21 0D       		.uleb128 0xd
 3040 0b22 04       		.byte	0x4
 3041 0b23 FD080000 		.4byte	0x8fd
 3042 0b27 02       		.uleb128 0x2
 3043 0b28 BE030000 		.4byte	.LASF186
 3044 0b2c 12       		.byte	0x12
 3045 0b2d 5C       		.byte	0x5c
 3046 0b2e C00A0000 		.4byte	0xac0
 3047 0b32 15       		.uleb128 0x15
 3048 0b33 01       		.byte	0x1
 3049 0b34 42000000 		.4byte	0x42
 3050 0b38 13       		.byte	0x13
 3051 0b39 31       		.byte	0x31
 3052 0b3a 630B0000 		.4byte	0xb63
 3053 0b3e 16       		.uleb128 0x16
 3054 0b3f 12040000 		.4byte	.LASF187
 3055 0b43 00       		.byte	0
 3056 0b44 16       		.uleb128 0x16
 3057 0b45 47010000 		.4byte	.LASF188
 3058 0b49 01       		.byte	0x1
 3059 0b4a 16       		.uleb128 0x16
 3060 0b4b 04020000 		.4byte	.LASF189
 3061 0b4f 02       		.byte	0x2
 3062 0b50 16       		.uleb128 0x16
ARM GAS  C:\Users\tmj32\AppData\Local\Temp\cci6nv1n.s 			page 65


 3063 0b51 C5090000 		.4byte	.LASF190
 3064 0b55 03       		.byte	0x3
 3065 0b56 16       		.uleb128 0x16
 3066 0b57 9C070000 		.4byte	.LASF191
 3067 0b5b 04       		.byte	0x4
 3068 0b5c 16       		.uleb128 0x16
 3069 0b5d BC070000 		.4byte	.LASF192
 3070 0b61 08       		.byte	0x8
 3071 0b62 00       		.byte	0
 3072 0b63 02       		.uleb128 0x2
 3073 0b64 A00C0000 		.4byte	.LASF193
 3074 0b68 13       		.byte	0x13
 3075 0b69 39       		.byte	0x39
 3076 0b6a B8000000 		.4byte	0xb8
 3077 0b6e 06       		.uleb128 0x6
 3078 0b6f 18       		.byte	0x18
 3079 0b70 13       		.byte	0x13
 3080 0b71 46       		.byte	0x46
 3081 0b72 EC0B0000 		.4byte	0xbec
 3082 0b76 07       		.uleb128 0x7
 3083 0b77 EE080000 		.4byte	.LASF169
 3084 0b7b 13       		.byte	0x13
 3085 0b7c 48       		.byte	0x48
 3086 0b7d F2080000 		.4byte	0x8f2
 3087 0b81 00       		.byte	0
 3088 0b82 07       		.uleb128 0x7
 3089 0b83 34040000 		.4byte	.LASF194
 3090 0b87 13       		.byte	0x13
 3091 0b88 49       		.byte	0x49
 3092 0b89 EF000000 		.4byte	0xef
 3093 0b8d 04       		.byte	0x4
 3094 0b8e 08       		.uleb128 0x8
 3095 0b8f 706F7300 		.ascii	"pos\000"
 3096 0b93 13       		.byte	0x13
 3097 0b94 4B       		.byte	0x4b
 3098 0b95 CE000000 		.4byte	0xce
 3099 0b99 06       		.byte	0x6
 3100 0b9a 07       		.uleb128 0x7
 3101 0b9b FC070000 		.4byte	.LASF195
 3102 0b9f 13       		.byte	0x13
 3103 0ba0 4D       		.byte	0x4d
 3104 0ba1 CE000000 		.4byte	0xce
 3105 0ba5 08       		.byte	0x8
 3106 0ba6 07       		.uleb128 0x7
 3107 0ba7 40050000 		.4byte	.LASF196
 3108 0bab 13       		.byte	0x13
 3109 0bac 4E       		.byte	0x4e
 3110 0bad 01030000 		.4byte	0x301
 3111 0bb1 0A       		.byte	0xa
 3112 0bb2 07       		.uleb128 0x7
 3113 0bb3 5C0C0000 		.4byte	.LASF197
 3114 0bb7 13       		.byte	0x13
 3115 0bb8 4F       		.byte	0x4f
 3116 0bb9 CE000000 		.4byte	0xce
 3117 0bbd 12       		.byte	0x12
 3118 0bbe 0A       		.uleb128 0xa
 3119 0bbf 81010000 		.4byte	.LASF51
ARM GAS  C:\Users\tmj32\AppData\Local\Temp\cci6nv1n.s 			page 66


 3120 0bc3 13       		.byte	0x13
 3121 0bc4 50       		.byte	0x50
 3122 0bc5 630B0000 		.4byte	0xb63
 3123 0bc9 01       		.byte	0x1
 3124 0bca 04       		.byte	0x4
 3125 0bcb 04       		.byte	0x4
 3126 0bcc 14       		.byte	0x14
 3127 0bcd 0A       		.uleb128 0xa
 3128 0bce 2C010000 		.4byte	.LASF175
 3129 0bd2 13       		.byte	0x13
 3130 0bd3 51       		.byte	0x51
 3131 0bd4 B8000000 		.4byte	0xb8
 3132 0bd8 01       		.byte	0x1
 3133 0bd9 01       		.byte	0x1
 3134 0bda 03       		.byte	0x3
 3135 0bdb 14       		.byte	0x14
 3136 0bdc 0A       		.uleb128 0xa
 3137 0bdd 79040000 		.4byte	.LASF198
 3138 0be1 13       		.byte	0x13
 3139 0be2 52       		.byte	0x52
 3140 0be3 B8000000 		.4byte	0xb8
 3141 0be7 01       		.byte	0x1
 3142 0be8 01       		.byte	0x1
 3143 0be9 02       		.byte	0x2
 3144 0bea 14       		.byte	0x14
 3145 0beb 00       		.byte	0
 3146 0bec 06       		.uleb128 0x6
 3147 0bed 60       		.byte	0x60
 3148 0bee 13       		.byte	0x13
 3149 0bef 3C       		.byte	0x3c
 3150 0bf0 730C0000 		.4byte	0xc73
 3151 0bf4 07       		.uleb128 0x7
 3152 0bf5 85080000 		.4byte	.LASF199
 3153 0bf9 13       		.byte	0x13
 3154 0bfa 3E       		.byte	0x3e
 3155 0bfb 270B0000 		.4byte	0xb27
 3156 0bff 00       		.byte	0
 3157 0c00 07       		.uleb128 0x7
 3158 0c01 B10D0000 		.4byte	.LASF200
 3159 0c05 13       		.byte	0x13
 3160 0c06 40       		.byte	0x40
 3161 0c07 210B0000 		.4byte	0xb21
 3162 0c0b 30       		.byte	0x30
 3163 0c0c 07       		.uleb128 0x7
 3164 0c0d 42020000 		.4byte	.LASF201
 3165 0c11 13       		.byte	0x13
 3166 0c12 41       		.byte	0x41
 3167 0c13 210B0000 		.4byte	0xb21
 3168 0c17 34       		.byte	0x34
 3169 0c18 07       		.uleb128 0x7
 3170 0c19 CF040000 		.4byte	.LASF202
 3171 0c1d 13       		.byte	0x13
 3172 0c1e 42       		.byte	0x42
 3173 0c1f A4020000 		.4byte	0x2a4
 3174 0c23 38       		.byte	0x38
 3175 0c24 07       		.uleb128 0x7
 3176 0c25 86010000 		.4byte	.LASF203
ARM GAS  C:\Users\tmj32\AppData\Local\Temp\cci6nv1n.s 			page 67


 3177 0c29 13       		.byte	0x13
 3178 0c2a 43       		.byte	0x43
 3179 0c2b B1020000 		.4byte	0x2b1
 3180 0c2f 3C       		.byte	0x3c
 3181 0c30 07       		.uleb128 0x7
 3182 0c31 AF050000 		.4byte	.LASF204
 3183 0c35 13       		.byte	0x13
 3184 0c36 44       		.byte	0x44
 3185 0c37 CE000000 		.4byte	0xce
 3186 0c3b 40       		.byte	0x40
 3187 0c3c 07       		.uleb128 0x7
 3188 0c3d 95030000 		.4byte	.LASF205
 3189 0c41 13       		.byte	0x13
 3190 0c42 45       		.byte	0x45
 3191 0c43 CE000000 		.4byte	0xce
 3192 0c47 42       		.byte	0x42
 3193 0c48 07       		.uleb128 0x7
 3194 0c49 550E0000 		.4byte	.LASF206
 3195 0c4d 13       		.byte	0x13
 3196 0c4e 53       		.byte	0x53
 3197 0c4f 6E0B0000 		.4byte	0xb6e
 3198 0c53 44       		.byte	0x44
 3199 0c54 0A       		.uleb128 0xa
 3200 0c55 09040000 		.4byte	.LASF207
 3201 0c59 13       		.byte	0x13
 3202 0c5a 59       		.byte	0x59
 3203 0c5b B8000000 		.4byte	0xb8
 3204 0c5f 01       		.byte	0x1
 3205 0c60 01       		.byte	0x1
 3206 0c61 07       		.byte	0x7
 3207 0c62 5C       		.byte	0x5c
 3208 0c63 0A       		.uleb128 0xa
 3209 0c64 D4010000 		.4byte	.LASF208
 3210 0c68 13       		.byte	0x13
 3211 0c69 5A       		.byte	0x5a
 3212 0c6a B8000000 		.4byte	0xb8
 3213 0c6e 01       		.byte	0x1
 3214 0c6f 01       		.byte	0x1
 3215 0c70 06       		.byte	0x6
 3216 0c71 5C       		.byte	0x5c
 3217 0c72 00       		.byte	0
 3218 0c73 02       		.uleb128 0x2
 3219 0c74 4C0B0000 		.4byte	.LASF209
 3220 0c78 13       		.byte	0x13
 3221 0c79 5B       		.byte	0x5b
 3222 0c7a EC0B0000 		.4byte	0xbec
 3223 0c7e 06       		.uleb128 0x6
 3224 0c7f 74       		.byte	0x74
 3225 0c80 01       		.byte	0x1
 3226 0c81 2A       		.byte	0x2a
 3227 0c82 EF0C0000 		.4byte	0xcef
 3228 0c86 08       		.uleb128 0x8
 3229 0c87 746100   		.ascii	"ta\000"
 3230 0c8a 01       		.byte	0x1
 3231 0c8b 2C       		.byte	0x2c
 3232 0c8c 730C0000 		.4byte	0xc73
 3233 0c90 00       		.byte	0
ARM GAS  C:\Users\tmj32\AppData\Local\Temp\cci6nv1n.s 			page 68


 3234 0c91 07       		.uleb128 0x7
 3235 0c92 B8030000 		.4byte	.LASF210
 3236 0c96 01       		.byte	0x1
 3237 0c97 2E       		.byte	0x2e
 3238 0c98 D9000000 		.4byte	0xd9
 3239 0c9c 60       		.byte	0x60
 3240 0c9d 07       		.uleb128 0x7
 3241 0c9e B30B0000 		.4byte	.LASF211
 3242 0ca2 01       		.byte	0x1
 3243 0ca3 2F       		.byte	0x2f
 3244 0ca4 D9000000 		.4byte	0xd9
 3245 0ca8 64       		.byte	0x64
 3246 0ca9 07       		.uleb128 0x7
 3247 0caa 27060000 		.4byte	.LASF212
 3248 0cae 01       		.byte	0x1
 3249 0caf 30       		.byte	0x30
 3250 0cb0 D9000000 		.4byte	0xd9
 3251 0cb4 68       		.byte	0x68
 3252 0cb5 07       		.uleb128 0x7
 3253 0cb6 D7020000 		.4byte	.LASF213
 3254 0cba 01       		.byte	0x1
 3255 0cbb 31       		.byte	0x31
 3256 0cbc D9000000 		.4byte	0xd9
 3257 0cc0 6C       		.byte	0x6c
 3258 0cc1 0A       		.uleb128 0xa
 3259 0cc2 A4010000 		.4byte	.LASF214
 3260 0cc6 01       		.byte	0x1
 3261 0cc7 32       		.byte	0x32
 3262 0cc8 CE000000 		.4byte	0xce
 3263 0ccc 02       		.byte	0x2
 3264 0ccd 04       		.byte	0x4
 3265 0cce 0C       		.byte	0xc
 3266 0ccf 70       		.byte	0x70
 3267 0cd0 0A       		.uleb128 0xa
 3268 0cd1 56010000 		.4byte	.LASF215
 3269 0cd5 01       		.byte	0x1
 3270 0cd6 33       		.byte	0x33
 3271 0cd7 CE000000 		.4byte	0xce
 3272 0cdb 02       		.byte	0x2
 3273 0cdc 04       		.byte	0x4
 3274 0cdd 08       		.byte	0x8
 3275 0cde 70       		.byte	0x70
 3276 0cdf 0A       		.uleb128 0xa
 3277 0ce0 99080000 		.4byte	.LASF216
 3278 0ce4 01       		.byte	0x1
 3279 0ce5 34       		.byte	0x34
 3280 0ce6 CE000000 		.4byte	0xce
 3281 0cea 02       		.byte	0x2
 3282 0ceb 04       		.byte	0x4
 3283 0cec 04       		.byte	0x4
 3284 0ced 70       		.byte	0x70
 3285 0cee 00       		.byte	0
 3286 0cef 02       		.uleb128 0x2
 3287 0cf0 700C0000 		.4byte	.LASF217
 3288 0cf4 01       		.byte	0x1
 3289 0cf5 35       		.byte	0x35
 3290 0cf6 7E0C0000 		.4byte	0xc7e
ARM GAS  C:\Users\tmj32\AppData\Local\Temp\cci6nv1n.s 			page 69


 3291 0cfa 15       		.uleb128 0x15
 3292 0cfb 01       		.byte	0x1
 3293 0cfc 42000000 		.4byte	0x42
 3294 0d00 01       		.byte	0x1
 3295 0d01 38       		.byte	0x38
 3296 0d02 190D0000 		.4byte	0xd19
 3297 0d06 16       		.uleb128 0x16
 3298 0d07 C0010000 		.4byte	.LASF218
 3299 0d0b 00       		.byte	0
 3300 0d0c 16       		.uleb128 0x16
 3301 0d0d 64090000 		.4byte	.LASF219
 3302 0d11 01       		.byte	0x1
 3303 0d12 16       		.uleb128 0x16
 3304 0d13 F70C0000 		.4byte	.LASF220
 3305 0d17 02       		.byte	0x2
 3306 0d18 00       		.byte	0
 3307 0d19 02       		.uleb128 0x2
 3308 0d1a 11030000 		.4byte	.LASF221
 3309 0d1e 01       		.byte	0x1
 3310 0d1f 3D       		.byte	0x3d
 3311 0d20 B8000000 		.4byte	0xb8
 3312 0d24 06       		.uleb128 0x6
 3313 0d25 14       		.byte	0x14
 3314 0d26 14       		.byte	0x14
 3315 0d27 34       		.byte	0x34
 3316 0d28 680D0000 		.4byte	0xd68
 3317 0d2c 08       		.uleb128 0x8
 3318 0d2d 72656C00 		.ascii	"rel\000"
 3319 0d31 14       		.byte	0x14
 3320 0d32 36       		.byte	0x36
 3321 0d33 4D050000 		.4byte	0x54d
 3322 0d37 00       		.byte	0
 3323 0d38 08       		.uleb128 0x8
 3324 0d39 707200   		.ascii	"pr\000"
 3325 0d3c 14       		.byte	0x14
 3326 0d3d 37       		.byte	0x37
 3327 0d3e 4D050000 		.4byte	0x54d
 3328 0d42 04       		.byte	0x4
 3329 0d43 07       		.uleb128 0x7
 3330 0d44 07080000 		.4byte	.LASF222
 3331 0d48 14       		.byte	0x14
 3332 0d49 38       		.byte	0x38
 3333 0d4a 4D050000 		.4byte	0x54d
 3334 0d4e 08       		.byte	0x8
 3335 0d4f 07       		.uleb128 0x7
 3336 0d50 A7020000 		.4byte	.LASF223
 3337 0d54 14       		.byte	0x14
 3338 0d55 39       		.byte	0x39
 3339 0d56 4D050000 		.4byte	0x54d
 3340 0d5a 0C       		.byte	0xc
 3341 0d5b 08       		.uleb128 0x8
 3342 0d5c 696E6100 		.ascii	"ina\000"
 3343 0d60 14       		.byte	0x14
 3344 0d61 3A       		.byte	0x3a
 3345 0d62 4D050000 		.4byte	0x54d
 3346 0d66 10       		.byte	0x10
 3347 0d67 00       		.byte	0
ARM GAS  C:\Users\tmj32\AppData\Local\Temp\cci6nv1n.s 			page 70


 3348 0d68 06       		.uleb128 0x6
 3349 0d69 14       		.byte	0x14
 3350 0d6a 14       		.byte	0x14
 3351 0d6b 3F       		.byte	0x3f
 3352 0d6c AC0D0000 		.4byte	0xdac
 3353 0d70 08       		.uleb128 0x8
 3354 0d71 72656C00 		.ascii	"rel\000"
 3355 0d75 14       		.byte	0x14
 3356 0d76 41       		.byte	0x41
 3357 0d77 4D050000 		.4byte	0x54d
 3358 0d7b 00       		.byte	0
 3359 0d7c 08       		.uleb128 0x8
 3360 0d7d 707200   		.ascii	"pr\000"
 3361 0d80 14       		.byte	0x14
 3362 0d81 42       		.byte	0x42
 3363 0d82 4D050000 		.4byte	0x54d
 3364 0d86 04       		.byte	0x4
 3365 0d87 07       		.uleb128 0x7
 3366 0d88 07080000 		.4byte	.LASF222
 3367 0d8c 14       		.byte	0x14
 3368 0d8d 43       		.byte	0x43
 3369 0d8e 4D050000 		.4byte	0x54d
 3370 0d92 08       		.byte	0x8
 3371 0d93 07       		.uleb128 0x7
 3372 0d94 A7020000 		.4byte	.LASF223
 3373 0d98 14       		.byte	0x14
 3374 0d99 44       		.byte	0x44
 3375 0d9a 4D050000 		.4byte	0x54d
 3376 0d9e 0C       		.byte	0xc
 3377 0d9f 08       		.uleb128 0x8
 3378 0da0 696E6100 		.ascii	"ina\000"
 3379 0da4 14       		.byte	0x14
 3380 0da5 45       		.byte	0x45
 3381 0da6 4D050000 		.4byte	0x54d
 3382 0daa 10       		.byte	0x10
 3383 0dab 00       		.byte	0
 3384 0dac 06       		.uleb128 0x6
 3385 0dad 0C       		.byte	0xc
 3386 0dae 14       		.byte	0x14
 3387 0daf 4A       		.byte	0x4a
 3388 0db0 D90D0000 		.4byte	0xdd9
 3389 0db4 07       		.uleb128 0x7
 3390 0db5 B5010000 		.4byte	.LASF224
 3391 0db9 14       		.byte	0x14
 3392 0dba 4C       		.byte	0x4c
 3393 0dbb 4D050000 		.4byte	0x54d
 3394 0dbf 00       		.byte	0
 3395 0dc0 08       		.uleb128 0x8
 3396 0dc1 73656300 		.ascii	"sec\000"
 3397 0dc5 14       		.byte	0x14
 3398 0dc6 4D       		.byte	0x4d
 3399 0dc7 4D050000 		.4byte	0x54d
 3400 0dcb 04       		.byte	0x4
 3401 0dcc 07       		.uleb128 0x7
 3402 0dcd 9F050000 		.4byte	.LASF225
 3403 0dd1 14       		.byte	0x14
 3404 0dd2 4E       		.byte	0x4e
ARM GAS  C:\Users\tmj32\AppData\Local\Temp\cci6nv1n.s 			page 71


 3405 0dd3 4D050000 		.4byte	0x54d
 3406 0dd7 08       		.byte	0x8
 3407 0dd8 00       		.byte	0
 3408 0dd9 06       		.uleb128 0x6
 3409 0dda 08       		.byte	0x8
 3410 0ddb 14       		.byte	0x14
 3411 0ddc 53       		.byte	0x53
 3412 0ddd FA0D0000 		.4byte	0xdfa
 3413 0de1 07       		.uleb128 0x7
 3414 0de2 9E010000 		.4byte	.LASF226
 3415 0de6 14       		.byte	0x14
 3416 0de7 55       		.byte	0x55
 3417 0de8 4D050000 		.4byte	0x54d
 3418 0dec 00       		.byte	0
 3419 0ded 07       		.uleb128 0x7
 3420 0dee 4E0D0000 		.4byte	.LASF227
 3421 0df2 14       		.byte	0x14
 3422 0df3 56       		.byte	0x56
 3423 0df4 4D050000 		.4byte	0x54d
 3424 0df8 04       		.byte	0x4
 3425 0df9 00       		.byte	0
 3426 0dfa 06       		.uleb128 0x6
 3427 0dfb 04       		.byte	0x4
 3428 0dfc 14       		.byte	0x14
 3429 0dfd 5B       		.byte	0x5b
 3430 0dfe 0F0E0000 		.4byte	0xe0f
 3431 0e02 07       		.uleb128 0x7
 3432 0e03 460B0000 		.4byte	.LASF228
 3433 0e07 14       		.byte	0x14
 3434 0e08 5D       		.byte	0x5d
 3435 0e09 4D050000 		.4byte	0x54d
 3436 0e0d 00       		.byte	0
 3437 0e0e 00       		.byte	0
 3438 0e0f 06       		.uleb128 0x6
 3439 0e10 08       		.byte	0x8
 3440 0e11 14       		.byte	0x14
 3441 0e12 66       		.byte	0x66
 3442 0e13 2F0E0000 		.4byte	0xe2f
 3443 0e17 08       		.uleb128 0x8
 3444 0e18 626700   		.ascii	"bg\000"
 3445 0e1b 14       		.byte	0x14
 3446 0e1c 68       		.byte	0x68
 3447 0e1d 4D050000 		.4byte	0x54d
 3448 0e21 00       		.byte	0
 3449 0e22 07       		.uleb128 0x7
 3450 0e23 60070000 		.4byte	.LASF229
 3451 0e27 14       		.byte	0x14
 3452 0e28 69       		.byte	0x69
 3453 0e29 4D050000 		.4byte	0x54d
 3454 0e2d 04       		.byte	0x4
 3455 0e2e 00       		.byte	0
 3456 0e2f 06       		.uleb128 0x6
 3457 0e30 0C       		.byte	0xc
 3458 0e31 14       		.byte	0x14
 3459 0e32 6E       		.byte	0x6e
 3460 0e33 5B0E0000 		.4byte	0xe5b
 3461 0e37 08       		.uleb128 0x8
ARM GAS  C:\Users\tmj32\AppData\Local\Temp\cci6nv1n.s 			page 72


 3462 0e38 626700   		.ascii	"bg\000"
 3463 0e3b 14       		.byte	0x14
 3464 0e3c 70       		.byte	0x70
 3465 0e3d 4D050000 		.4byte	0x54d
 3466 0e41 00       		.byte	0
 3467 0e42 07       		.uleb128 0x7
 3468 0e43 60070000 		.4byte	.LASF229
 3469 0e47 14       		.byte	0x14
 3470 0e48 71       		.byte	0x71
 3471 0e49 4D050000 		.4byte	0x54d
 3472 0e4d 04       		.byte	0x4
 3473 0e4e 07       		.uleb128 0x7
 3474 0e4f 020E0000 		.4byte	.LASF230
 3475 0e53 14       		.byte	0x14
 3476 0e54 72       		.byte	0x72
 3477 0e55 4D050000 		.4byte	0x54d
 3478 0e59 08       		.byte	0x8
 3479 0e5a 00       		.byte	0
 3480 0e5b 06       		.uleb128 0x6
 3481 0e5c 10       		.byte	0x10
 3482 0e5d 14       		.byte	0x14
 3483 0e5e 87       		.byte	0x87
 3484 0e5f 930E0000 		.4byte	0xe93
 3485 0e63 08       		.uleb128 0x8
 3486 0e64 626700   		.ascii	"bg\000"
 3487 0e67 14       		.byte	0x14
 3488 0e68 89       		.byte	0x89
 3489 0e69 4D050000 		.4byte	0x54d
 3490 0e6d 00       		.byte	0
 3491 0e6e 07       		.uleb128 0x7
 3492 0e6f 60070000 		.4byte	.LASF229
 3493 0e73 14       		.byte	0x14
 3494 0e74 8A       		.byte	0x8a
 3495 0e75 4D050000 		.4byte	0x54d
 3496 0e79 04       		.byte	0x4
 3497 0e7a 07       		.uleb128 0x7
 3498 0e7b 8A080000 		.4byte	.LASF231
 3499 0e7f 14       		.byte	0x14
 3500 0e80 8B       		.byte	0x8b
 3501 0e81 4D050000 		.4byte	0x54d
 3502 0e85 08       		.byte	0x8
 3503 0e86 07       		.uleb128 0x7
 3504 0e87 57030000 		.4byte	.LASF232
 3505 0e8b 14       		.byte	0x14
 3506 0e8c 8C       		.byte	0x8c
 3507 0e8d 4D050000 		.4byte	0x54d
 3508 0e91 0C       		.byte	0xc
 3509 0e92 00       		.byte	0
 3510 0e93 06       		.uleb128 0x6
 3511 0e94 20       		.byte	0x20
 3512 0e95 14       		.byte	0x14
 3513 0e96 95       		.byte	0x95
 3514 0e97 FB0E0000 		.4byte	0xefb
 3515 0e9b 08       		.uleb128 0x8
 3516 0e9c 626700   		.ascii	"bg\000"
 3517 0e9f 14       		.byte	0x14
 3518 0ea0 97       		.byte	0x97
ARM GAS  C:\Users\tmj32\AppData\Local\Temp\cci6nv1n.s 			page 73


 3519 0ea1 4D050000 		.4byte	0x54d
 3520 0ea5 00       		.byte	0
 3521 0ea6 07       		.uleb128 0x7
 3522 0ea7 7C030000 		.4byte	.LASF233
 3523 0eab 14       		.byte	0x14
 3524 0eac 98       		.byte	0x98
 3525 0ead 4D050000 		.4byte	0x54d
 3526 0eb1 04       		.byte	0x4
 3527 0eb2 07       		.uleb128 0x7
 3528 0eb3 1A000000 		.4byte	.LASF234
 3529 0eb7 14       		.byte	0x14
 3530 0eb8 99       		.byte	0x99
 3531 0eb9 4D050000 		.4byte	0x54d
 3532 0ebd 08       		.byte	0x8
 3533 0ebe 07       		.uleb128 0x7
 3534 0ebf 960C0000 		.4byte	.LASF235
 3535 0ec3 14       		.byte	0x14
 3536 0ec4 9A       		.byte	0x9a
 3537 0ec5 4D050000 		.4byte	0x54d
 3538 0ec9 0C       		.byte	0xc
 3539 0eca 07       		.uleb128 0x7
 3540 0ecb 0B010000 		.4byte	.LASF236
 3541 0ecf 14       		.byte	0x14
 3542 0ed0 9B       		.byte	0x9b
 3543 0ed1 4D050000 		.4byte	0x54d
 3544 0ed5 10       		.byte	0x10
 3545 0ed6 07       		.uleb128 0x7
 3546 0ed7 9C040000 		.4byte	.LASF237
 3547 0edb 14       		.byte	0x14
 3548 0edc 9C       		.byte	0x9c
 3549 0edd 4D050000 		.4byte	0x54d
 3550 0ee1 14       		.byte	0x14
 3551 0ee2 07       		.uleb128 0x7
 3552 0ee3 F0030000 		.4byte	.LASF238
 3553 0ee7 14       		.byte	0x14
 3554 0ee8 9D       		.byte	0x9d
 3555 0ee9 4D050000 		.4byte	0x54d
 3556 0eed 18       		.byte	0x18
 3557 0eee 07       		.uleb128 0x7
 3558 0eef 9D020000 		.4byte	.LASF239
 3559 0ef3 14       		.byte	0x14
 3560 0ef4 9E       		.byte	0x9e
 3561 0ef5 4D050000 		.4byte	0x54d
 3562 0ef9 1C       		.byte	0x1c
 3563 0efa 00       		.byte	0
 3564 0efb 06       		.uleb128 0x6
 3565 0efc 14       		.byte	0x14
 3566 0efd 14       		.byte	0x14
 3567 0efe A6       		.byte	0xa6
 3568 0eff 3F0F0000 		.4byte	0xf3f
 3569 0f03 08       		.uleb128 0x8
 3570 0f04 72656C00 		.ascii	"rel\000"
 3571 0f08 14       		.byte	0x14
 3572 0f09 A8       		.byte	0xa8
 3573 0f0a 4D050000 		.4byte	0x54d
 3574 0f0e 00       		.byte	0
 3575 0f0f 08       		.uleb128 0x8
ARM GAS  C:\Users\tmj32\AppData\Local\Temp\cci6nv1n.s 			page 74


 3576 0f10 707200   		.ascii	"pr\000"
 3577 0f13 14       		.byte	0x14
 3578 0f14 A9       		.byte	0xa9
 3579 0f15 4D050000 		.4byte	0x54d
 3580 0f19 04       		.byte	0x4
 3581 0f1a 07       		.uleb128 0x7
 3582 0f1b 07080000 		.4byte	.LASF222
 3583 0f1f 14       		.byte	0x14
 3584 0f20 AA       		.byte	0xaa
 3585 0f21 4D050000 		.4byte	0x54d
 3586 0f25 08       		.byte	0x8
 3587 0f26 07       		.uleb128 0x7
 3588 0f27 A7020000 		.4byte	.LASF223
 3589 0f2b 14       		.byte	0x14
 3590 0f2c AB       		.byte	0xab
 3591 0f2d 4D050000 		.4byte	0x54d
 3592 0f31 0C       		.byte	0xc
 3593 0f32 08       		.uleb128 0x8
 3594 0f33 696E6100 		.ascii	"ina\000"
 3595 0f37 14       		.byte	0x14
 3596 0f38 AC       		.byte	0xac
 3597 0f39 4D050000 		.4byte	0x54d
 3598 0f3d 10       		.byte	0x10
 3599 0f3e 00       		.byte	0
 3600 0f3f 06       		.uleb128 0x6
 3601 0f40 18       		.byte	0x18
 3602 0f41 14       		.byte	0x14
 3603 0f42 A3       		.byte	0xa3
 3604 0f43 5F0F0000 		.4byte	0xf5f
 3605 0f47 08       		.uleb128 0x8
 3606 0f48 626700   		.ascii	"bg\000"
 3607 0f4b 14       		.byte	0x14
 3608 0f4c A5       		.byte	0xa5
 3609 0f4d 4D050000 		.4byte	0x54d
 3610 0f51 00       		.byte	0
 3611 0f52 08       		.uleb128 0x8
 3612 0f53 626F7800 		.ascii	"box\000"
 3613 0f57 14       		.byte	0x14
 3614 0f58 AD       		.byte	0xad
 3615 0f59 FB0E0000 		.4byte	0xefb
 3616 0f5d 04       		.byte	0x4
 3617 0f5e 00       		.byte	0
 3618 0f5f 06       		.uleb128 0x6
 3619 0f60 14       		.byte	0x14
 3620 0f61 14       		.byte	0x14
 3621 0f62 B5       		.byte	0xb5
 3622 0f63 A30F0000 		.4byte	0xfa3
 3623 0f67 08       		.uleb128 0x8
 3624 0f68 72656C00 		.ascii	"rel\000"
 3625 0f6c 14       		.byte	0x14
 3626 0f6d B7       		.byte	0xb7
 3627 0f6e 4D050000 		.4byte	0x54d
 3628 0f72 00       		.byte	0
 3629 0f73 08       		.uleb128 0x8
 3630 0f74 707200   		.ascii	"pr\000"
 3631 0f77 14       		.byte	0x14
 3632 0f78 B8       		.byte	0xb8
ARM GAS  C:\Users\tmj32\AppData\Local\Temp\cci6nv1n.s 			page 75


 3633 0f79 4D050000 		.4byte	0x54d
 3634 0f7d 04       		.byte	0x4
 3635 0f7e 07       		.uleb128 0x7
 3636 0f7f 07080000 		.4byte	.LASF222
 3637 0f83 14       		.byte	0x14
 3638 0f84 B9       		.byte	0xb9
 3639 0f85 4D050000 		.4byte	0x54d
 3640 0f89 08       		.byte	0x8
 3641 0f8a 07       		.uleb128 0x7
 3642 0f8b A7020000 		.4byte	.LASF223
 3643 0f8f 14       		.byte	0x14
 3644 0f90 BA       		.byte	0xba
 3645 0f91 4D050000 		.4byte	0x54d
 3646 0f95 0C       		.byte	0xc
 3647 0f96 08       		.uleb128 0x8
 3648 0f97 696E6100 		.ascii	"ina\000"
 3649 0f9b 14       		.byte	0x14
 3650 0f9c BB       		.byte	0xbb
 3651 0f9d 4D050000 		.4byte	0x54d
 3652 0fa1 10       		.byte	0x10
 3653 0fa2 00       		.byte	0
 3654 0fa3 06       		.uleb128 0x6
 3655 0fa4 18       		.byte	0x18
 3656 0fa5 14       		.byte	0x14
 3657 0fa6 B2       		.byte	0xb2
 3658 0fa7 C30F0000 		.4byte	0xfc3
 3659 0fab 08       		.uleb128 0x8
 3660 0fac 626700   		.ascii	"bg\000"
 3661 0faf 14       		.byte	0x14
 3662 0fb0 B4       		.byte	0xb4
 3663 0fb1 4D050000 		.4byte	0x54d
 3664 0fb5 00       		.byte	0
 3665 0fb6 08       		.uleb128 0x8
 3666 0fb7 62746E00 		.ascii	"btn\000"
 3667 0fbb 14       		.byte	0x14
 3668 0fbc BC       		.byte	0xbc
 3669 0fbd 5F0F0000 		.4byte	0xf5f
 3670 0fc1 04       		.byte	0x4
 3671 0fc2 00       		.byte	0
 3672 0fc3 06       		.uleb128 0x6
 3673 0fc4 14       		.byte	0x14
 3674 0fc5 14       		.byte	0x14
 3675 0fc6 C4       		.byte	0xc4
 3676 0fc7 07100000 		.4byte	0x1007
 3677 0fcb 08       		.uleb128 0x8
 3678 0fcc 72656C00 		.ascii	"rel\000"
 3679 0fd0 14       		.byte	0x14
 3680 0fd1 C6       		.byte	0xc6
 3681 0fd2 4D050000 		.4byte	0x54d
 3682 0fd6 00       		.byte	0
 3683 0fd7 08       		.uleb128 0x8
 3684 0fd8 707200   		.ascii	"pr\000"
 3685 0fdb 14       		.byte	0x14
 3686 0fdc C7       		.byte	0xc7
 3687 0fdd 4D050000 		.4byte	0x54d
 3688 0fe1 04       		.byte	0x4
 3689 0fe2 07       		.uleb128 0x7
ARM GAS  C:\Users\tmj32\AppData\Local\Temp\cci6nv1n.s 			page 76


 3690 0fe3 07080000 		.4byte	.LASF222
 3691 0fe7 14       		.byte	0x14
 3692 0fe8 C8       		.byte	0xc8
 3693 0fe9 4D050000 		.4byte	0x54d
 3694 0fed 08       		.byte	0x8
 3695 0fee 07       		.uleb128 0x7
 3696 0fef A7020000 		.4byte	.LASF223
 3697 0ff3 14       		.byte	0x14
 3698 0ff4 C9       		.byte	0xc9
 3699 0ff5 4D050000 		.4byte	0x54d
 3700 0ff9 0C       		.byte	0xc
 3701 0ffa 08       		.uleb128 0x8
 3702 0ffb 696E6100 		.ascii	"ina\000"
 3703 0fff 14       		.byte	0x14
 3704 1000 CA       		.byte	0xca
 3705 1001 4D050000 		.4byte	0x54d
 3706 1005 10       		.byte	0x10
 3707 1006 00       		.byte	0
 3708 1007 06       		.uleb128 0x6
 3709 1008 18       		.byte	0x18
 3710 1009 14       		.byte	0x14
 3711 100a C1       		.byte	0xc1
 3712 100b 27100000 		.4byte	0x1027
 3713 100f 08       		.uleb128 0x8
 3714 1010 626700   		.ascii	"bg\000"
 3715 1013 14       		.byte	0x14
 3716 1014 C3       		.byte	0xc3
 3717 1015 4D050000 		.4byte	0x54d
 3718 1019 00       		.byte	0
 3719 101a 08       		.uleb128 0x8
 3720 101b 62746E00 		.ascii	"btn\000"
 3721 101f 14       		.byte	0x14
 3722 1020 CB       		.byte	0xcb
 3723 1021 C30F0000 		.4byte	0xfc3
 3724 1025 04       		.byte	0x4
 3725 1026 00       		.byte	0
 3726 1027 06       		.uleb128 0x6
 3727 1028 0C       		.byte	0xc
 3728 1029 14       		.byte	0x14
 3729 102a D3       		.byte	0xd3
 3730 102b 52100000 		.4byte	0x1052
 3731 102f 08       		.uleb128 0x8
 3732 1030 626700   		.ascii	"bg\000"
 3733 1033 14       		.byte	0x14
 3734 1034 D5       		.byte	0xd5
 3735 1035 4D050000 		.4byte	0x54d
 3736 1039 00       		.byte	0
 3737 103a 08       		.uleb128 0x8
 3738 103b 72656C00 		.ascii	"rel\000"
 3739 103f 14       		.byte	0x14
 3740 1040 D6       		.byte	0xd6
 3741 1041 4D050000 		.4byte	0x54d
 3742 1045 04       		.byte	0x4
 3743 1046 08       		.uleb128 0x8
 3744 1047 707200   		.ascii	"pr\000"
 3745 104a 14       		.byte	0x14
 3746 104b D7       		.byte	0xd7
ARM GAS  C:\Users\tmj32\AppData\Local\Temp\cci6nv1n.s 			page 77


 3747 104c 4D050000 		.4byte	0x54d
 3748 1050 08       		.byte	0x8
 3749 1051 00       		.byte	0
 3750 1052 06       		.uleb128 0x6
 3751 1053 10       		.byte	0x10
 3752 1054 14       		.byte	0x14
 3753 1055 D0       		.byte	0xd0
 3754 1056 72100000 		.4byte	0x1072
 3755 105a 08       		.uleb128 0x8
 3756 105b 626700   		.ascii	"bg\000"
 3757 105e 14       		.byte	0x14
 3758 105f D2       		.byte	0xd2
 3759 1060 4D050000 		.4byte	0x54d
 3760 1064 00       		.byte	0
 3761 1065 08       		.uleb128 0x8
 3762 1066 62746E00 		.ascii	"btn\000"
 3763 106a 14       		.byte	0x14
 3764 106b D8       		.byte	0xd8
 3765 106c 27100000 		.4byte	0x1027
 3766 1070 04       		.byte	0x4
 3767 1071 00       		.byte	0
 3768 1072 06       		.uleb128 0x6
 3769 1073 0C       		.byte	0xc
 3770 1074 14       		.byte	0x14
 3771 1075 DD       		.byte	0xdd
 3772 1076 9D100000 		.4byte	0x109d
 3773 107a 08       		.uleb128 0x8
 3774 107b 626700   		.ascii	"bg\000"
 3775 107e 14       		.byte	0x14
 3776 107f DF       		.byte	0xdf
 3777 1080 4D050000 		.4byte	0x54d
 3778 1084 00       		.byte	0
 3779 1085 07       		.uleb128 0x7
 3780 1086 CD020000 		.4byte	.LASF181
 3781 108a 14       		.byte	0x14
 3782 108b E0       		.byte	0xe0
 3783 108c 4D050000 		.4byte	0x54d
 3784 1090 04       		.byte	0x4
 3785 1091 08       		.uleb128 0x8
 3786 1092 736200   		.ascii	"sb\000"
 3787 1095 14       		.byte	0x14
 3788 1096 E1       		.byte	0xe1
 3789 1097 4D050000 		.4byte	0x54d
 3790 109b 08       		.byte	0x8
 3791 109c 00       		.byte	0
 3792 109d 06       		.uleb128 0x6
 3793 109e 10       		.byte	0x10
 3794 109f 14       		.byte	0x14
 3795 10a0 E6       		.byte	0xe6
 3796 10a1 D5100000 		.4byte	0x10d5
 3797 10a5 07       		.uleb128 0x7
 3798 10a6 40050000 		.4byte	.LASF196
 3799 10aa 14       		.byte	0x14
 3800 10ab E8       		.byte	0xe8
 3801 10ac 4D050000 		.4byte	0x54d
 3802 10b0 00       		.byte	0
 3803 10b1 07       		.uleb128 0x7
ARM GAS  C:\Users\tmj32\AppData\Local\Temp\cci6nv1n.s 			page 78


 3804 10b2 0A060000 		.4byte	.LASF240
 3805 10b6 14       		.byte	0x14
 3806 10b7 E9       		.byte	0xe9
 3807 10b8 4D050000 		.4byte	0x54d
 3808 10bc 04       		.byte	0x4
 3809 10bd 07       		.uleb128 0x7
 3810 10be 550E0000 		.4byte	.LASF206
 3811 10c2 14       		.byte	0x14
 3812 10c3 EA       		.byte	0xea
 3813 10c4 4D050000 		.4byte	0x54d
 3814 10c8 08       		.byte	0x8
 3815 10c9 08       		.uleb128 0x8
 3816 10ca 736200   		.ascii	"sb\000"
 3817 10cd 14       		.byte	0x14
 3818 10ce EB       		.byte	0xeb
 3819 10cf 4D050000 		.4byte	0x54d
 3820 10d3 0C       		.byte	0xc
 3821 10d4 00       		.byte	0
 3822 10d5 06       		.uleb128 0x6
 3823 10d6 0C       		.byte	0xc
 3824 10d7 14       		.byte	0x14
 3825 10d8 F0       		.byte	0xf0
 3826 10d9 00110000 		.4byte	0x1100
 3827 10dd 08       		.uleb128 0x8
 3828 10de 626700   		.ascii	"bg\000"
 3829 10e1 14       		.byte	0x14
 3830 10e2 F2       		.byte	0xf2
 3831 10e3 4D050000 		.4byte	0x54d
 3832 10e7 00       		.byte	0
 3833 10e8 07       		.uleb128 0x7
 3834 10e9 550E0000 		.4byte	.LASF206
 3835 10ed 14       		.byte	0x14
 3836 10ee F3       		.byte	0xf3
 3837 10ef 4D050000 		.4byte	0x54d
 3838 10f3 04       		.byte	0x4
 3839 10f4 08       		.uleb128 0x8
 3840 10f5 736200   		.ascii	"sb\000"
 3841 10f8 14       		.byte	0x14
 3842 10f9 F4       		.byte	0xf4
 3843 10fa 4D050000 		.4byte	0x54d
 3844 10fe 08       		.byte	0x8
 3845 10ff 00       		.byte	0
 3846 1100 06       		.uleb128 0x6
 3847 1101 14       		.byte	0x14
 3848 1102 14       		.byte	0x14
 3849 1103 FE       		.byte	0xfe
 3850 1104 49110000 		.4byte	0x1149
 3851 1108 1B       		.uleb128 0x1b
 3852 1109 72656C00 		.ascii	"rel\000"
 3853 110d 14       		.byte	0x14
 3854 110e 0001     		.2byte	0x100
 3855 1110 4D050000 		.4byte	0x54d
 3856 1114 00       		.byte	0
 3857 1115 1B       		.uleb128 0x1b
 3858 1116 707200   		.ascii	"pr\000"
 3859 1119 14       		.byte	0x14
 3860 111a 0101     		.2byte	0x101
ARM GAS  C:\Users\tmj32\AppData\Local\Temp\cci6nv1n.s 			page 79


 3861 111c 4D050000 		.4byte	0x54d
 3862 1120 04       		.byte	0x4
 3863 1121 1A       		.uleb128 0x1a
 3864 1122 07080000 		.4byte	.LASF222
 3865 1126 14       		.byte	0x14
 3866 1127 0201     		.2byte	0x102
 3867 1129 4D050000 		.4byte	0x54d
 3868 112d 08       		.byte	0x8
 3869 112e 1A       		.uleb128 0x1a
 3870 112f A7020000 		.4byte	.LASF223
 3871 1133 14       		.byte	0x14
 3872 1134 0301     		.2byte	0x103
 3873 1136 4D050000 		.4byte	0x54d
 3874 113a 0C       		.byte	0xc
 3875 113b 1B       		.uleb128 0x1b
 3876 113c 696E6100 		.ascii	"ina\000"
 3877 1140 14       		.byte	0x14
 3878 1141 0401     		.2byte	0x104
 3879 1143 4D050000 		.4byte	0x54d
 3880 1147 10       		.byte	0x10
 3881 1148 00       		.byte	0
 3882 1149 06       		.uleb128 0x6
 3883 114a 20       		.byte	0x20
 3884 114b 14       		.byte	0x14
 3885 114c F9       		.byte	0xf9
 3886 114d 81110000 		.4byte	0x1181
 3887 1151 08       		.uleb128 0x8
 3888 1152 626700   		.ascii	"bg\000"
 3889 1155 14       		.byte	0x14
 3890 1156 FB       		.byte	0xfb
 3891 1157 4D050000 		.4byte	0x54d
 3892 115b 00       		.byte	0
 3893 115c 07       		.uleb128 0x7
 3894 115d CD020000 		.4byte	.LASF181
 3895 1161 14       		.byte	0x14
 3896 1162 FC       		.byte	0xfc
 3897 1163 4D050000 		.4byte	0x54d
 3898 1167 04       		.byte	0x4
 3899 1168 08       		.uleb128 0x8
 3900 1169 736200   		.ascii	"sb\000"
 3901 116c 14       		.byte	0x14
 3902 116d FD       		.byte	0xfd
 3903 116e 4D050000 		.4byte	0x54d
 3904 1172 08       		.byte	0x8
 3905 1173 1B       		.uleb128 0x1b
 3906 1174 62746E00 		.ascii	"btn\000"
 3907 1178 14       		.byte	0x14
 3908 1179 0501     		.2byte	0x105
 3909 117b 00110000 		.4byte	0x1100
 3910 117f 0C       		.byte	0xc
 3911 1180 00       		.byte	0
 3912 1181 19       		.uleb128 0x19
 3913 1182 0C       		.byte	0xc
 3914 1183 14       		.byte	0x14
 3915 1184 0A01     		.2byte	0x10a
 3916 1186 B0110000 		.4byte	0x11b0
 3917 118a 1B       		.uleb128 0x1b
ARM GAS  C:\Users\tmj32\AppData\Local\Temp\cci6nv1n.s 			page 80


 3918 118b 626700   		.ascii	"bg\000"
 3919 118e 14       		.byte	0x14
 3920 118f 0C01     		.2byte	0x10c
 3921 1191 4D050000 		.4byte	0x54d
 3922 1195 00       		.byte	0
 3923 1196 1B       		.uleb128 0x1b
 3924 1197 73656C00 		.ascii	"sel\000"
 3925 119b 14       		.byte	0x14
 3926 119c 0D01     		.2byte	0x10d
 3927 119e 4D050000 		.4byte	0x54d
 3928 11a2 04       		.byte	0x4
 3929 11a3 1B       		.uleb128 0x1b
 3930 11a4 736200   		.ascii	"sb\000"
 3931 11a7 14       		.byte	0x14
 3932 11a8 0E01     		.2byte	0x10e
 3933 11aa 4D050000 		.4byte	0x54d
 3934 11ae 08       		.byte	0x8
 3935 11af 00       		.byte	0
 3936 11b0 19       		.uleb128 0x19
 3937 11b1 08       		.byte	0x8
 3938 11b2 14       		.byte	0x14
 3939 11b3 1301     		.2byte	0x113
 3940 11b5 D3110000 		.4byte	0x11d3
 3941 11b9 1B       		.uleb128 0x1b
 3942 11ba 626700   		.ascii	"bg\000"
 3943 11bd 14       		.byte	0x14
 3944 11be 1501     		.2byte	0x115
 3945 11c0 4D050000 		.4byte	0x54d
 3946 11c4 00       		.byte	0
 3947 11c5 1B       		.uleb128 0x1b
 3948 11c6 73656C00 		.ascii	"sel\000"
 3949 11ca 14       		.byte	0x14
 3950 11cb 1601     		.2byte	0x116
 3951 11cd 4D050000 		.4byte	0x54d
 3952 11d1 04       		.byte	0x4
 3953 11d2 00       		.byte	0
 3954 11d3 19       		.uleb128 0x19
 3955 11d4 14       		.byte	0x14
 3956 11d5 14       		.byte	0x14
 3957 11d6 1F01     		.2byte	0x11f
 3958 11d8 1C120000 		.4byte	0x121c
 3959 11dc 1B       		.uleb128 0x1b
 3960 11dd 626700   		.ascii	"bg\000"
 3961 11e0 14       		.byte	0x14
 3962 11e1 2101     		.2byte	0x121
 3963 11e3 4D050000 		.4byte	0x54d
 3964 11e7 00       		.byte	0
 3965 11e8 1B       		.uleb128 0x1b
 3966 11e9 72656C00 		.ascii	"rel\000"
 3967 11ed 14       		.byte	0x14
 3968 11ee 2201     		.2byte	0x122
 3969 11f0 4D050000 		.4byte	0x54d
 3970 11f4 04       		.byte	0x4
 3971 11f5 1B       		.uleb128 0x1b
 3972 11f6 707200   		.ascii	"pr\000"
 3973 11f9 14       		.byte	0x14
 3974 11fa 2301     		.2byte	0x123
ARM GAS  C:\Users\tmj32\AppData\Local\Temp\cci6nv1n.s 			page 81


 3975 11fc 4D050000 		.4byte	0x54d
 3976 1200 08       		.byte	0x8
 3977 1201 1A       		.uleb128 0x1a
 3978 1202 07080000 		.4byte	.LASF222
 3979 1206 14       		.byte	0x14
 3980 1207 2401     		.2byte	0x124
 3981 1209 4D050000 		.4byte	0x54d
 3982 120d 0C       		.byte	0xc
 3983 120e 1A       		.uleb128 0x1a
 3984 120f A7020000 		.4byte	.LASF223
 3985 1213 14       		.byte	0x14
 3986 1214 2501     		.2byte	0x125
 3987 1216 4D050000 		.4byte	0x54d
 3988 121a 10       		.byte	0x10
 3989 121b 00       		.byte	0
 3990 121c 19       		.uleb128 0x19
 3991 121d 1C       		.byte	0x1c
 3992 121e 14       		.byte	0x14
 3993 121f 1B01     		.2byte	0x11b
 3994 1221 4C120000 		.4byte	0x124c
 3995 1225 1B       		.uleb128 0x1b
 3996 1226 626700   		.ascii	"bg\000"
 3997 1229 14       		.byte	0x14
 3998 122a 1D01     		.2byte	0x11d
 3999 122c 4D050000 		.4byte	0x54d
 4000 1230 00       		.byte	0
 4001 1231 1A       		.uleb128 0x1a
 4002 1232 60070000 		.4byte	.LASF229
 4003 1236 14       		.byte	0x14
 4004 1237 1E01     		.2byte	0x11e
 4005 1239 4D050000 		.4byte	0x54d
 4006 123d 04       		.byte	0x4
 4007 123e 1B       		.uleb128 0x1b
 4008 123f 62746E00 		.ascii	"btn\000"
 4009 1243 14       		.byte	0x14
 4010 1244 2601     		.2byte	0x126
 4011 1246 D3110000 		.4byte	0x11d3
 4012 124a 08       		.byte	0x8
 4013 124b 00       		.byte	0
 4014 124c 19       		.uleb128 0x19
 4015 124d 0C       		.byte	0xc
 4016 124e 14       		.byte	0x14
 4017 124f 2B01     		.2byte	0x12b
 4018 1251 7B120000 		.4byte	0x127b
 4019 1255 1B       		.uleb128 0x1b
 4020 1256 626700   		.ascii	"bg\000"
 4021 1259 14       		.byte	0x14
 4022 125a 2D01     		.2byte	0x12d
 4023 125c 4D050000 		.4byte	0x54d
 4024 1260 00       		.byte	0
 4025 1261 1A       		.uleb128 0x1a
 4026 1262 CD020000 		.4byte	.LASF181
 4027 1266 14       		.byte	0x14
 4028 1267 2E01     		.2byte	0x12e
 4029 1269 4D050000 		.4byte	0x54d
 4030 126d 04       		.byte	0x4
 4031 126e 1B       		.uleb128 0x1b
ARM GAS  C:\Users\tmj32\AppData\Local\Temp\cci6nv1n.s 			page 82


 4032 126f 736200   		.ascii	"sb\000"
 4033 1272 14       		.byte	0x14
 4034 1273 2F01     		.2byte	0x12f
 4035 1275 4D050000 		.4byte	0x54d
 4036 1279 08       		.byte	0x8
 4037 127a 00       		.byte	0
 4038 127b 19       		.uleb128 0x19
 4039 127c 08       		.byte	0x8
 4040 127d 14       		.byte	0x14
 4041 127e 3401     		.2byte	0x134
 4042 1280 9E120000 		.4byte	0x129e
 4043 1284 1B       		.uleb128 0x1b
 4044 1285 626700   		.ascii	"bg\000"
 4045 1288 14       		.byte	0x14
 4046 1289 3601     		.2byte	0x136
 4047 128b 4D050000 		.4byte	0x54d
 4048 128f 00       		.byte	0
 4049 1290 1A       		.uleb128 0x1a
 4050 1291 47000000 		.4byte	.LASF241
 4051 1295 14       		.byte	0x14
 4052 1296 3701     		.2byte	0x137
 4053 1298 4D050000 		.4byte	0x54d
 4054 129c 04       		.byte	0x4
 4055 129d 00       		.byte	0
 4056 129e 19       		.uleb128 0x19
 4057 129f 08       		.byte	0x8
 4058 12a0 14       		.byte	0x14
 4059 12a1 4201     		.2byte	0x142
 4060 12a3 C1120000 		.4byte	0x12c1
 4061 12a7 1B       		.uleb128 0x1b
 4062 12a8 72656C00 		.ascii	"rel\000"
 4063 12ac 14       		.byte	0x14
 4064 12ad 4401     		.2byte	0x144
 4065 12af 4D050000 		.4byte	0x54d
 4066 12b3 00       		.byte	0
 4067 12b4 1B       		.uleb128 0x1b
 4068 12b5 707200   		.ascii	"pr\000"
 4069 12b8 14       		.byte	0x14
 4070 12b9 4501     		.2byte	0x145
 4071 12bb 4D050000 		.4byte	0x54d
 4072 12bf 04       		.byte	0x4
 4073 12c0 00       		.byte	0
 4074 12c1 19       		.uleb128 0x19
 4075 12c2 18       		.byte	0x18
 4076 12c3 14       		.byte	0x14
 4077 12c4 3C01     		.2byte	0x13c
 4078 12c6 0A130000 		.4byte	0x130a
 4079 12ca 1B       		.uleb128 0x1b
 4080 12cb 626700   		.ascii	"bg\000"
 4081 12ce 14       		.byte	0x14
 4082 12cf 3E01     		.2byte	0x13e
 4083 12d1 4D050000 		.4byte	0x54d
 4084 12d5 00       		.byte	0
 4085 12d6 1B       		.uleb128 0x1b
 4086 12d7 736200   		.ascii	"sb\000"
 4087 12da 14       		.byte	0x14
 4088 12db 3F01     		.2byte	0x13f
ARM GAS  C:\Users\tmj32\AppData\Local\Temp\cci6nv1n.s 			page 83


 4089 12dd 4D050000 		.4byte	0x54d
 4090 12e1 04       		.byte	0x4
 4091 12e2 1A       		.uleb128 0x1a
 4092 12e3 7C030000 		.4byte	.LASF233
 4093 12e7 14       		.byte	0x14
 4094 12e8 4001     		.2byte	0x140
 4095 12ea 4D050000 		.4byte	0x54d
 4096 12ee 08       		.byte	0x8
 4097 12ef 1A       		.uleb128 0x1a
 4098 12f0 230D0000 		.4byte	.LASF242
 4099 12f4 14       		.byte	0x14
 4100 12f5 4101     		.2byte	0x141
 4101 12f7 4D050000 		.4byte	0x54d
 4102 12fb 0C       		.byte	0xc
 4103 12fc 1B       		.uleb128 0x1b
 4104 12fd 62746E00 		.ascii	"btn\000"
 4105 1301 14       		.byte	0x14
 4106 1302 4601     		.2byte	0x146
 4107 1304 9E120000 		.4byte	0x129e
 4108 1308 10       		.byte	0x10
 4109 1309 00       		.byte	0
 4110 130a 1C       		.uleb128 0x1c
 4111 130b A801     		.2byte	0x1a8
 4112 130d 14       		.byte	0x14
 4113 130e 29       		.byte	0x29
 4114 130f AC140000 		.4byte	0x14ac
 4115 1313 08       		.uleb128 0x8
 4116 1314 73637200 		.ascii	"scr\000"
 4117 1318 14       		.byte	0x14
 4118 1319 2B       		.byte	0x2b
 4119 131a 4D050000 		.4byte	0x54d
 4120 131e 00       		.byte	0
 4121 131f 08       		.uleb128 0x8
 4122 1320 626700   		.ascii	"bg\000"
 4123 1323 14       		.byte	0x14
 4124 1324 2C       		.byte	0x2c
 4125 1325 4D050000 		.4byte	0x54d
 4126 1329 04       		.byte	0x4
 4127 132a 07       		.uleb128 0x7
 4128 132b 620B0000 		.4byte	.LASF243
 4129 132f 14       		.byte	0x14
 4130 1330 2D       		.byte	0x2d
 4131 1331 4D050000 		.4byte	0x54d
 4132 1335 08       		.byte	0x8
 4133 1336 07       		.uleb128 0x7
 4134 1337 B0010000 		.4byte	.LASF244
 4135 133b 14       		.byte	0x14
 4136 133c 30       		.byte	0x30
 4137 133d 4D050000 		.4byte	0x54d
 4138 1341 0C       		.byte	0xc
 4139 1342 08       		.uleb128 0x8
 4140 1343 62746E00 		.ascii	"btn\000"
 4141 1347 14       		.byte	0x14
 4142 1348 3B       		.byte	0x3b
 4143 1349 240D0000 		.4byte	0xd24
 4144 134d 10       		.byte	0x10
 4145 134e 07       		.uleb128 0x7
ARM GAS  C:\Users\tmj32\AppData\Local\Temp\cci6nv1n.s 			page 84


 4146 134f 13090000 		.4byte	.LASF245
 4147 1353 14       		.byte	0x14
 4148 1354 46       		.byte	0x46
 4149 1355 680D0000 		.4byte	0xd68
 4150 1359 24       		.byte	0x24
 4151 135a 07       		.uleb128 0x7
 4152 135b B10D0000 		.4byte	.LASF200
 4153 135f 14       		.byte	0x14
 4154 1360 4F       		.byte	0x4f
 4155 1361 AC0D0000 		.4byte	0xdac
 4156 1365 38       		.byte	0x38
 4157 1366 08       		.uleb128 0x8
 4158 1367 696D6700 		.ascii	"img\000"
 4159 136b 14       		.byte	0x14
 4160 136c 57       		.byte	0x57
 4161 136d D90D0000 		.4byte	0xdd9
 4162 1371 44       		.byte	0x44
 4163 1372 07       		.uleb128 0x7
 4164 1373 AA050000 		.4byte	.LASF73
 4165 1377 14       		.byte	0x14
 4166 1378 5E       		.byte	0x5e
 4167 1379 FA0D0000 		.4byte	0xdfa
 4168 137d 4C       		.byte	0x4c
 4169 137e 08       		.uleb128 0x8
 4170 137f 6C656400 		.ascii	"led\000"
 4171 1383 14       		.byte	0x14
 4172 1384 62       		.byte	0x62
 4173 1385 4D050000 		.4byte	0x54d
 4174 1389 50       		.byte	0x50
 4175 138a 08       		.uleb128 0x8
 4176 138b 62617200 		.ascii	"bar\000"
 4177 138f 14       		.byte	0x14
 4178 1390 6A       		.byte	0x6a
 4179 1391 0F0E0000 		.4byte	0xe0f
 4180 1395 54       		.byte	0x54
 4181 1396 07       		.uleb128 0x7
 4182 1397 CA050000 		.4byte	.LASF246
 4183 139b 14       		.byte	0x14
 4184 139c 73       		.byte	0x73
 4185 139d 2F0E0000 		.4byte	0xe2f
 4186 13a1 5C       		.byte	0x5c
 4187 13a2 07       		.uleb128 0x7
 4188 13a3 A2000000 		.4byte	.LASF247
 4189 13a7 14       		.byte	0x14
 4190 13a8 77       		.byte	0x77
 4191 13a9 4D050000 		.4byte	0x54d
 4192 13ad 68       		.byte	0x68
 4193 13ae 07       		.uleb128 0x7
 4194 13af 93080000 		.4byte	.LASF248
 4195 13b3 14       		.byte	0x14
 4196 13b4 7B       		.byte	0x7b
 4197 13b5 4D050000 		.4byte	0x54d
 4198 13b9 6C       		.byte	0x6c
 4199 13ba 08       		.uleb128 0x8
 4200 13bb 61726300 		.ascii	"arc\000"
 4201 13bf 14       		.byte	0x14
 4202 13c0 7F       		.byte	0x7f
ARM GAS  C:\Users\tmj32\AppData\Local\Temp\cci6nv1n.s 			page 85


 4203 13c1 4D050000 		.4byte	0x54d
 4204 13c5 70       		.byte	0x70
 4205 13c6 07       		.uleb128 0x7
 4206 13c7 EE0D0000 		.4byte	.LASF249
 4207 13cb 14       		.byte	0x14
 4208 13cc 83       		.byte	0x83
 4209 13cd 4D050000 		.4byte	0x54d
 4210 13d1 74       		.byte	0x74
 4211 13d2 08       		.uleb128 0x8
 4212 13d3 737700   		.ascii	"sw\000"
 4213 13d6 14       		.byte	0x14
 4214 13d7 8D       		.byte	0x8d
 4215 13d8 5B0E0000 		.4byte	0xe5b
 4216 13dc 78       		.byte	0x78
 4217 13dd 07       		.uleb128 0x7
 4218 13de BA010000 		.4byte	.LASF250
 4219 13e2 14       		.byte	0x14
 4220 13e3 91       		.byte	0x91
 4221 13e4 4D050000 		.4byte	0x54d
 4222 13e8 88       		.byte	0x88
 4223 13e9 07       		.uleb128 0x7
 4224 13ea DE0B0000 		.4byte	.LASF251
 4225 13ee 14       		.byte	0x14
 4226 13ef 9F       		.byte	0x9f
 4227 13f0 930E0000 		.4byte	0xe93
 4228 13f4 8C       		.byte	0x8c
 4229 13f5 08       		.uleb128 0x8
 4230 13f6 636200   		.ascii	"cb\000"
 4231 13f9 14       		.byte	0x14
 4232 13fa AE       		.byte	0xae
 4233 13fb 3F0F0000 		.4byte	0xf3f
 4234 13ff AC       		.byte	0xac
 4235 1400 07       		.uleb128 0x7
 4236 1401 6C020000 		.4byte	.LASF252
 4237 1405 14       		.byte	0x14
 4238 1406 BD       		.byte	0xbd
 4239 1407 A30F0000 		.4byte	0xfa3
 4240 140b C4       		.byte	0xc4
 4241 140c 08       		.uleb128 0x8
 4242 140d 6B6200   		.ascii	"kb\000"
 4243 1410 14       		.byte	0x14
 4244 1411 CC       		.byte	0xcc
 4245 1412 07100000 		.4byte	0x1007
 4246 1416 DC       		.byte	0xdc
 4247 1417 07       		.uleb128 0x7
 4248 1418 BD0B0000 		.4byte	.LASF253
 4249 141c 14       		.byte	0x14
 4250 141d D9       		.byte	0xd9
 4251 141e 52100000 		.4byte	0x1052
 4252 1422 F4       		.byte	0xf4
 4253 1423 1D       		.uleb128 0x1d
 4254 1424 85080000 		.4byte	.LASF199
 4255 1428 14       		.byte	0x14
 4256 1429 E2       		.byte	0xe2
 4257 142a 72100000 		.4byte	0x1072
 4258 142e 0401     		.2byte	0x104
 4259 1430 1E       		.uleb128 0x1e
ARM GAS  C:\Users\tmj32\AppData\Local\Temp\cci6nv1n.s 			page 86


 4260 1431 746100   		.ascii	"ta\000"
 4261 1434 14       		.byte	0x14
 4262 1435 EC       		.byte	0xec
 4263 1436 9D100000 		.4byte	0x109d
 4264 143a 1001     		.2byte	0x110
 4265 143c 1D       		.uleb128 0x1d
 4266 143d 810C0000 		.4byte	.LASF254
 4267 1441 14       		.byte	0x14
 4268 1442 F5       		.byte	0xf5
 4269 1443 D5100000 		.4byte	0x10d5
 4270 1447 2001     		.2byte	0x120
 4271 1449 1F       		.uleb128 0x1f
 4272 144a 4C080000 		.4byte	.LASF255
 4273 144e 14       		.byte	0x14
 4274 144f 0601     		.2byte	0x106
 4275 1451 49110000 		.4byte	0x1149
 4276 1455 2C01     		.2byte	0x12c
 4277 1457 1F       		.uleb128 0x1f
 4278 1458 58040000 		.4byte	.LASF256
 4279 145c 14       		.byte	0x14
 4280 145d 0F01     		.2byte	0x10f
 4281 145f 81110000 		.4byte	0x1181
 4282 1463 4C01     		.2byte	0x14c
 4283 1465 1F       		.uleb128 0x1f
 4284 1466 8E0E0000 		.4byte	.LASF257
 4285 146a 14       		.byte	0x14
 4286 146b 1701     		.2byte	0x117
 4287 146d B0110000 		.4byte	0x11b0
 4288 1471 5801     		.2byte	0x158
 4289 1473 1F       		.uleb128 0x1f
 4290 1474 75070000 		.4byte	.LASF258
 4291 1478 14       		.byte	0x14
 4292 1479 2701     		.2byte	0x127
 4293 147b 1C120000 		.4byte	0x121c
 4294 147f 6001     		.2byte	0x160
 4295 1481 1F       		.uleb128 0x1f
 4296 1482 4E020000 		.4byte	.LASF259
 4297 1486 14       		.byte	0x14
 4298 1487 3001     		.2byte	0x130
 4299 1489 4C120000 		.4byte	0x124c
 4300 148d 7C01     		.2byte	0x17c
 4301 148f 1F       		.uleb128 0x1f
 4302 1490 B2030000 		.4byte	.LASF260
 4303 1494 14       		.byte	0x14
 4304 1495 3801     		.2byte	0x138
 4305 1497 7B120000 		.4byte	0x127b
 4306 149b 8801     		.2byte	0x188
 4307 149d 20       		.uleb128 0x20
 4308 149e 77696E00 		.ascii	"win\000"
 4309 14a2 14       		.byte	0x14
 4310 14a3 4701     		.2byte	0x147
 4311 14a5 C1120000 		.4byte	0x12c1
 4312 14a9 9001     		.2byte	0x190
 4313 14ab 00       		.byte	0
 4314 14ac 1C       		.uleb128 0x1c
 4315 14ad A801     		.2byte	0x1a8
 4316 14af 14       		.byte	0x14
ARM GAS  C:\Users\tmj32\AppData\Local\Temp\cci6nv1n.s 			page 87


 4317 14b0 27       		.byte	0x27
 4318 14b1 C3140000 		.4byte	0x14c3
 4319 14b5 1A       		.uleb128 0x1a
 4320 14b6 EE080000 		.4byte	.LASF169
 4321 14ba 14       		.byte	0x14
 4322 14bb 4901     		.2byte	0x149
 4323 14bd 0A130000 		.4byte	0x130a
 4324 14c1 00       		.byte	0
 4325 14c2 00       		.byte	0
 4326 14c3 12       		.uleb128 0x12
 4327 14c4 3B0B0000 		.4byte	.LASF261
 4328 14c8 14       		.byte	0x14
 4329 14c9 5401     		.2byte	0x154
 4330 14cb AC140000 		.4byte	0x14ac
 4331 14cf 21       		.uleb128 0x21
 4332 14d0 F5040000 		.4byte	.LASF282
 4333 14d4 01       		.byte	0x1
 4334 14d5 55       		.byte	0x55
 4335 14d6 00000000 		.4byte	.LFB56
 4336 14da 22000000 		.4byte	.LFE56-.LFB56
 4337 14de 01       		.uleb128 0x1
 4338 14df 9C       		.byte	0x9c
 4339 14e0 0F150000 		.4byte	0x150f
 4340 14e4 22       		.uleb128 0x22
 4341 14e5 810C0000 		.4byte	.LASF254
 4342 14e9 01       		.byte	0x1
 4343 14ea 55       		.byte	0x55
 4344 14eb 210B0000 		.4byte	0xb21
 4345 14ef 02       		.uleb128 0x2
 4346 14f0 91       		.byte	0x91
 4347 14f1 74       		.sleb128 -12
 4348 14f2 22       		.uleb128 0x22
 4349 14f3 81010000 		.4byte	.LASF51
 4350 14f7 01       		.byte	0x1
 4351 14f8 55       		.byte	0x55
 4352 14f9 190D0000 		.4byte	0xd19
 4353 14fd 02       		.uleb128 0x2
 4354 14fe 91       		.byte	0x91
 4355 14ff 73       		.sleb128 -13
 4356 1500 22       		.uleb128 0x22
 4357 1501 EE080000 		.4byte	.LASF169
 4358 1505 01       		.byte	0x1
 4359 1506 55       		.byte	0x55
 4360 1507 4D050000 		.4byte	0x54d
 4361 150b 02       		.uleb128 0x2
 4362 150c 91       		.byte	0x91
 4363 150d 6C       		.sleb128 -20
 4364 150e 00       		.byte	0
 4365 150f 23       		.uleb128 0x23
 4366 1510 26080000 		.4byte	.LASF271
 4367 1514 02       		.byte	0x2
 4368 1515 34       		.byte	0x34
 4369 1516 210B0000 		.4byte	0xb21
 4370 151a 00000000 		.4byte	.LFB58
 4371 151e 8C010000 		.4byte	.LFE58-.LFB58
 4372 1522 01       		.uleb128 0x1
 4373 1523 9C       		.byte	0x9c
ARM GAS  C:\Users\tmj32\AppData\Local\Temp\cci6nv1n.s 			page 88


 4374 1524 94150000 		.4byte	0x1594
 4375 1528 24       		.uleb128 0x24
 4376 1529 70617200 		.ascii	"par\000"
 4377 152d 02       		.byte	0x2
 4378 152e 34       		.byte	0x34
 4379 152f 210B0000 		.4byte	0xb21
 4380 1533 02       		.uleb128 0x2
 4381 1534 91       		.byte	0x91
 4382 1535 64       		.sleb128 -28
 4383 1536 22       		.uleb128 0x22
 4384 1537 62020000 		.4byte	.LASF262
 4385 153b 02       		.byte	0x2
 4386 153c 34       		.byte	0x34
 4387 153d 94150000 		.4byte	0x1594
 4388 1541 02       		.uleb128 0x2
 4389 1542 91       		.byte	0x91
 4390 1543 60       		.sleb128 -32
 4391 1544 25       		.uleb128 0x25
 4392 1545 83030000 		.4byte	.LASF263
 4393 1549 02       		.byte	0x2
 4394 154a 39       		.byte	0x39
 4395 154b 210B0000 		.4byte	0xb21
 4396 154f 02       		.uleb128 0x2
 4397 1550 91       		.byte	0x91
 4398 1551 74       		.sleb128 -12
 4399 1552 26       		.uleb128 0x26
 4400 1553 65787400 		.ascii	"ext\000"
 4401 1557 02       		.byte	0x2
 4402 1558 3E       		.byte	0x3e
 4403 1559 9F150000 		.4byte	0x159f
 4404 155d 02       		.uleb128 0x2
 4405 155e 91       		.byte	0x91
 4406 155f 70       		.sleb128 -16
 4407 1560 27       		.uleb128 0x27
 4408 1561 D0000000 		.4byte	.LBB2
 4409 1565 3E000000 		.4byte	.LBE2-.LBB2
 4410 1569 7B150000 		.4byte	0x157b
 4411 156d 26       		.uleb128 0x26
 4412 156e 746800   		.ascii	"th\000"
 4413 1571 02       		.byte	0x2
 4414 1572 58       		.byte	0x58
 4415 1573 A5150000 		.4byte	0x15a5
 4416 1577 02       		.uleb128 0x2
 4417 1578 91       		.byte	0x91
 4418 1579 6C       		.sleb128 -20
 4419 157a 00       		.byte	0
 4420 157b 28       		.uleb128 0x28
 4421 157c 0E010000 		.4byte	.LBB3
 4422 1580 58000000 		.4byte	.LBE3-.LBB3
 4423 1584 25       		.uleb128 0x25
 4424 1585 1A0D0000 		.4byte	.LASF264
 4425 1589 02       		.byte	0x2
 4426 158a 61       		.byte	0x61
 4427 158b 9F150000 		.4byte	0x159f
 4428 158f 02       		.uleb128 0x2
 4429 1590 91       		.byte	0x91
 4430 1591 68       		.sleb128 -24
ARM GAS  C:\Users\tmj32\AppData\Local\Temp\cci6nv1n.s 			page 89


 4431 1592 00       		.byte	0
 4432 1593 00       		.byte	0
 4433 1594 0D       		.uleb128 0xd
 4434 1595 04       		.byte	0x4
 4435 1596 9A150000 		.4byte	0x159a
 4436 159a 0E       		.uleb128 0xe
 4437 159b FD080000 		.4byte	0x8fd
 4438 159f 0D       		.uleb128 0xd
 4439 15a0 04       		.byte	0x4
 4440 15a1 EF0C0000 		.4byte	0xcef
 4441 15a5 0D       		.uleb128 0xd
 4442 15a6 04       		.byte	0x4
 4443 15a7 C3140000 		.4byte	0x14c3
 4444 15ab 29       		.uleb128 0x29
 4445 15ac 340E0000 		.4byte	.LASF265
 4446 15b0 02       		.byte	0x2
 4447 15b1 7C       		.byte	0x7c
 4448 15b2 00000000 		.4byte	.LFB59
 4449 15b6 4E000000 		.4byte	.LFE59-.LFB59
 4450 15ba 01       		.uleb128 0x1
 4451 15bb 9C       		.byte	0x9c
 4452 15bc E9150000 		.4byte	0x15e9
 4453 15c0 22       		.uleb128 0x22
 4454 15c1 810C0000 		.4byte	.LASF254
 4455 15c5 02       		.byte	0x2
 4456 15c6 7C       		.byte	0x7c
 4457 15c7 210B0000 		.4byte	0xb21
 4458 15cb 02       		.uleb128 0x2
 4459 15cc 91       		.byte	0x91
 4460 15cd 6C       		.sleb128 -20
 4461 15ce 24       		.uleb128 0x24
 4462 15cf 6900     		.ascii	"i\000"
 4463 15d1 02       		.byte	0x2
 4464 15d2 7C       		.byte	0x7c
 4465 15d3 D9000000 		.4byte	0xd9
 4466 15d7 02       		.uleb128 0x2
 4467 15d8 91       		.byte	0x91
 4468 15d9 68       		.sleb128 -24
 4469 15da 26       		.uleb128 0x26
 4470 15db 65787400 		.ascii	"ext\000"
 4471 15df 02       		.byte	0x2
 4472 15e0 80       		.byte	0x80
 4473 15e1 9F150000 		.4byte	0x159f
 4474 15e5 02       		.uleb128 0x2
 4475 15e6 91       		.byte	0x91
 4476 15e7 74       		.sleb128 -12
 4477 15e8 00       		.byte	0
 4478 15e9 29       		.uleb128 0x29
 4479 15ea EE090000 		.4byte	.LASF266
 4480 15ee 02       		.byte	0x2
 4481 15ef 92       		.byte	0x92
 4482 15f0 00000000 		.4byte	.LFB60
 4483 15f4 6E000000 		.4byte	.LFE60-.LFB60
 4484 15f8 01       		.uleb128 0x1
 4485 15f9 9C       		.byte	0x9c
 4486 15fa 37160000 		.4byte	0x1637
 4487 15fe 22       		.uleb128 0x22
ARM GAS  C:\Users\tmj32\AppData\Local\Temp\cci6nv1n.s 			page 90


 4488 15ff 810C0000 		.4byte	.LASF254
 4489 1603 02       		.byte	0x2
 4490 1604 92       		.byte	0x92
 4491 1605 210B0000 		.4byte	0xb21
 4492 1609 02       		.uleb128 0x2
 4493 160a 91       		.byte	0x91
 4494 160b 6C       		.sleb128 -20
 4495 160c 22       		.uleb128 0x22
 4496 160d A4010000 		.4byte	.LASF214
 4497 1611 02       		.byte	0x2
 4498 1612 92       		.byte	0x92
 4499 1613 B8000000 		.4byte	0xb8
 4500 1617 02       		.uleb128 0x2
 4501 1618 91       		.byte	0x91
 4502 1619 6B       		.sleb128 -21
 4503 161a 22       		.uleb128 0x22
 4504 161b 21040000 		.4byte	.LASF267
 4505 161f 02       		.byte	0x2
 4506 1620 92       		.byte	0x92
 4507 1621 B8000000 		.4byte	0xb8
 4508 1625 02       		.uleb128 0x2
 4509 1626 91       		.byte	0x91
 4510 1627 6A       		.sleb128 -22
 4511 1628 26       		.uleb128 0x26
 4512 1629 65787400 		.ascii	"ext\000"
 4513 162d 02       		.byte	0x2
 4514 162e 96       		.byte	0x96
 4515 162f 9F150000 		.4byte	0x159f
 4516 1633 02       		.uleb128 0x2
 4517 1634 91       		.byte	0x91
 4518 1635 74       		.sleb128 -12
 4519 1636 00       		.byte	0
 4520 1637 29       		.uleb128 0x29
 4521 1638 8B050000 		.4byte	.LASF268
 4522 163c 02       		.byte	0x2
 4523 163d A8       		.byte	0xa8
 4524 163e 00000000 		.4byte	.LFB61
 4525 1642 28000000 		.4byte	.LFE61-.LFB61
 4526 1646 01       		.uleb128 0x1
 4527 1647 9C       		.byte	0x9c
 4528 1648 77160000 		.4byte	0x1677
 4529 164c 22       		.uleb128 0x22
 4530 164d 810C0000 		.4byte	.LASF254
 4531 1651 02       		.byte	0x2
 4532 1652 A8       		.byte	0xa8
 4533 1653 210B0000 		.4byte	0xb21
 4534 1657 02       		.uleb128 0x2
 4535 1658 91       		.byte	0x91
 4536 1659 6C       		.sleb128 -20
 4537 165a 22       		.uleb128 0x22
 4538 165b D7020000 		.4byte	.LASF213
 4539 165f 02       		.byte	0x2
 4540 1660 A8       		.byte	0xa8
 4541 1661 E4000000 		.4byte	0xe4
 4542 1665 02       		.uleb128 0x2
 4543 1666 91       		.byte	0x91
 4544 1667 68       		.sleb128 -24
ARM GAS  C:\Users\tmj32\AppData\Local\Temp\cci6nv1n.s 			page 91


 4545 1668 26       		.uleb128 0x26
 4546 1669 65787400 		.ascii	"ext\000"
 4547 166d 02       		.byte	0x2
 4548 166e AC       		.byte	0xac
 4549 166f 9F150000 		.4byte	0x159f
 4550 1673 02       		.uleb128 0x2
 4551 1674 91       		.byte	0x91
 4552 1675 74       		.sleb128 -12
 4553 1676 00       		.byte	0
 4554 1677 29       		.uleb128 0x29
 4555 1678 D7040000 		.4byte	.LASF269
 4556 167c 02       		.byte	0x2
 4557 167d B8       		.byte	0xb8
 4558 167e 00000000 		.4byte	.LFB62
 4559 1682 64000000 		.4byte	.LFE62-.LFB62
 4560 1686 01       		.uleb128 0x1
 4561 1687 9C       		.byte	0x9c
 4562 1688 C5160000 		.4byte	0x16c5
 4563 168c 22       		.uleb128 0x22
 4564 168d 810C0000 		.4byte	.LASF254
 4565 1691 02       		.byte	0x2
 4566 1692 B8       		.byte	0xb8
 4567 1693 210B0000 		.4byte	0xb21
 4568 1697 02       		.uleb128 0x2
 4569 1698 91       		.byte	0x91
 4570 1699 6C       		.sleb128 -20
 4571 169a 22       		.uleb128 0x22
 4572 169b 27060000 		.4byte	.LASF212
 4573 169f 02       		.byte	0x2
 4574 16a0 B8       		.byte	0xb8
 4575 16a1 D9000000 		.4byte	0xd9
 4576 16a5 02       		.uleb128 0x2
 4577 16a6 91       		.byte	0x91
 4578 16a7 68       		.sleb128 -24
 4579 16a8 22       		.uleb128 0x22
 4580 16a9 B30B0000 		.4byte	.LASF211
 4581 16ad 02       		.byte	0x2
 4582 16ae B8       		.byte	0xb8
 4583 16af D9000000 		.4byte	0xd9
 4584 16b3 02       		.uleb128 0x2
 4585 16b4 91       		.byte	0x91
 4586 16b5 64       		.sleb128 -28
 4587 16b6 26       		.uleb128 0x26
 4588 16b7 65787400 		.ascii	"ext\000"
 4589 16bb 02       		.byte	0x2
 4590 16bc BC       		.byte	0xbc
 4591 16bd 9F150000 		.4byte	0x159f
 4592 16c1 02       		.uleb128 0x2
 4593 16c2 91       		.byte	0x91
 4594 16c3 74       		.sleb128 -12
 4595 16c4 00       		.byte	0
 4596 16c5 29       		.uleb128 0x29
 4597 16c6 F5020000 		.4byte	.LASF270
 4598 16ca 02       		.byte	0x2
 4599 16cb D1       		.byte	0xd1
 4600 16cc 00000000 		.4byte	.LFB63
 4601 16d0 38000000 		.4byte	.LFE63-.LFB63
ARM GAS  C:\Users\tmj32\AppData\Local\Temp\cci6nv1n.s 			page 92


 4602 16d4 01       		.uleb128 0x1
 4603 16d5 9C       		.byte	0x9c
 4604 16d6 05170000 		.4byte	0x1705
 4605 16da 22       		.uleb128 0x22
 4606 16db 810C0000 		.4byte	.LASF254
 4607 16df 02       		.byte	0x2
 4608 16e0 D1       		.byte	0xd1
 4609 16e1 210B0000 		.4byte	0xb21
 4610 16e5 02       		.uleb128 0x2
 4611 16e6 91       		.byte	0x91
 4612 16e7 6C       		.sleb128 -20
 4613 16e8 22       		.uleb128 0x22
 4614 16e9 2B0D0000 		.4byte	.LASF61
 4615 16ed 02       		.byte	0x2
 4616 16ee D1       		.byte	0xd1
 4617 16ef B8000000 		.4byte	0xb8
 4618 16f3 02       		.uleb128 0x2
 4619 16f4 91       		.byte	0x91
 4620 16f5 6B       		.sleb128 -21
 4621 16f6 26       		.uleb128 0x26
 4622 16f7 65787400 		.ascii	"ext\000"
 4623 16fb 02       		.byte	0x2
 4624 16fc D5       		.byte	0xd5
 4625 16fd 9F150000 		.4byte	0x159f
 4626 1701 02       		.uleb128 0x2
 4627 1702 91       		.byte	0x91
 4628 1703 74       		.sleb128 -12
 4629 1704 00       		.byte	0
 4630 1705 23       		.uleb128 0x23
 4631 1706 5F040000 		.4byte	.LASF272
 4632 170a 02       		.byte	0x2
 4633 170b E3       		.byte	0xe3
 4634 170c D9000000 		.4byte	0xd9
 4635 1710 00000000 		.4byte	.LFB64
 4636 1714 1C000000 		.4byte	.LFE64-.LFB64
 4637 1718 01       		.uleb128 0x1
 4638 1719 9C       		.byte	0x9c
 4639 171a 3B170000 		.4byte	0x173b
 4640 171e 22       		.uleb128 0x22
 4641 171f 810C0000 		.4byte	.LASF254
 4642 1723 02       		.byte	0x2
 4643 1724 E3       		.byte	0xe3
 4644 1725 210B0000 		.4byte	0xb21
 4645 1729 02       		.uleb128 0x2
 4646 172a 91       		.byte	0x91
 4647 172b 6C       		.sleb128 -20
 4648 172c 26       		.uleb128 0x26
 4649 172d 65787400 		.ascii	"ext\000"
 4650 1731 02       		.byte	0x2
 4651 1732 E7       		.byte	0xe7
 4652 1733 9F150000 		.4byte	0x159f
 4653 1737 02       		.uleb128 0x2
 4654 1738 91       		.byte	0x91
 4655 1739 74       		.sleb128 -12
 4656 173a 00       		.byte	0
 4657 173b 29       		.uleb128 0x29
 4658 173c 51080000 		.4byte	.LASF273
ARM GAS  C:\Users\tmj32\AppData\Local\Temp\cci6nv1n.s 			page 93


 4659 1740 02       		.byte	0x2
 4660 1741 F4       		.byte	0xf4
 4661 1742 00000000 		.4byte	.LFB65
 4662 1746 48000000 		.4byte	.LFE65-.LFB65
 4663 174a 01       		.uleb128 0x1
 4664 174b 9C       		.byte	0x9c
 4665 174c 7B170000 		.4byte	0x177b
 4666 1750 22       		.uleb128 0x22
 4667 1751 810C0000 		.4byte	.LASF254
 4668 1755 02       		.byte	0x2
 4669 1756 F4       		.byte	0xf4
 4670 1757 210B0000 		.4byte	0xb21
 4671 175b 02       		.uleb128 0x2
 4672 175c 91       		.byte	0x91
 4673 175d 6C       		.sleb128 -20
 4674 175e 26       		.uleb128 0x26
 4675 175f 65787400 		.ascii	"ext\000"
 4676 1763 02       		.byte	0x2
 4677 1764 F8       		.byte	0xf8
 4678 1765 9F150000 		.4byte	0x159f
 4679 1769 02       		.uleb128 0x2
 4680 176a 91       		.byte	0x91
 4681 176b 74       		.sleb128 -12
 4682 176c 25       		.uleb128 0x25
 4683 176d 39020000 		.4byte	.LASF274
 4684 1771 02       		.byte	0x2
 4685 1772 FA       		.byte	0xfa
 4686 1773 D9000000 		.4byte	0xd9
 4687 1777 02       		.uleb128 0x2
 4688 1778 91       		.byte	0x91
 4689 1779 70       		.sleb128 -16
 4690 177a 00       		.byte	0
 4691 177b 2A       		.uleb128 0x2a
 4692 177c 14020000 		.4byte	.LASF275
 4693 1780 02       		.byte	0x2
 4694 1781 0701     		.2byte	0x107
 4695 1783 00000000 		.4byte	.LFB66
 4696 1787 52000000 		.4byte	.LFE66-.LFB66
 4697 178b 01       		.uleb128 0x1
 4698 178c 9C       		.byte	0x9c
 4699 178d CE170000 		.4byte	0x17ce
 4700 1791 2B       		.uleb128 0x2b
 4701 1792 810C0000 		.4byte	.LASF254
 4702 1796 02       		.byte	0x2
 4703 1797 0701     		.2byte	0x107
 4704 1799 210B0000 		.4byte	0xb21
 4705 179d 02       		.uleb128 0x2
 4706 179e 91       		.byte	0x91
 4707 179f 64       		.sleb128 -28
 4708 17a0 2C       		.uleb128 0x2c
 4709 17a1 65787400 		.ascii	"ext\000"
 4710 17a5 02       		.byte	0x2
 4711 17a6 0B01     		.2byte	0x10b
 4712 17a8 9F150000 		.4byte	0x159f
 4713 17ac 02       		.uleb128 0x2
 4714 17ad 91       		.byte	0x91
 4715 17ae 74       		.sleb128 -12
ARM GAS  C:\Users\tmj32\AppData\Local\Temp\cci6nv1n.s 			page 94


 4716 17af 2D       		.uleb128 0x2d
 4717 17b0 7A080000 		.4byte	.LASF276
 4718 17b4 02       		.byte	0x2
 4719 17b5 0C01     		.2byte	0x10c
 4720 17b7 D9000000 		.4byte	0xd9
 4721 17bb 02       		.uleb128 0x2
 4722 17bc 91       		.byte	0x91
 4723 17bd 70       		.sleb128 -16
 4724 17be 2D       		.uleb128 0x2d
 4725 17bf 39020000 		.4byte	.LASF274
 4726 17c3 02       		.byte	0x2
 4727 17c4 0E01     		.2byte	0x10e
 4728 17c6 D9000000 		.4byte	0xd9
 4729 17ca 02       		.uleb128 0x2
 4730 17cb 91       		.byte	0x91
 4731 17cc 6C       		.sleb128 -20
 4732 17cd 00       		.byte	0
 4733 17ce 2A       		.uleb128 0x2a
 4734 17cf 65000000 		.4byte	.LASF277
 4735 17d3 02       		.byte	0x2
 4736 17d4 1801     		.2byte	0x118
 4737 17d6 00000000 		.4byte	.LFB67
 4738 17da 68000000 		.4byte	.LFE67-.LFB67
 4739 17de 01       		.uleb128 0x1
 4740 17df 9C       		.byte	0x9c
 4741 17e0 03180000 		.4byte	0x1803
 4742 17e4 2B       		.uleb128 0x2b
 4743 17e5 810C0000 		.4byte	.LASF254
 4744 17e9 02       		.byte	0x2
 4745 17ea 1801     		.2byte	0x118
 4746 17ec 210B0000 		.4byte	0xb21
 4747 17f0 02       		.uleb128 0x2
 4748 17f1 91       		.byte	0x91
 4749 17f2 6C       		.sleb128 -20
 4750 17f3 2C       		.uleb128 0x2c
 4751 17f4 65787400 		.ascii	"ext\000"
 4752 17f8 02       		.byte	0x2
 4753 17f9 1C01     		.2byte	0x11c
 4754 17fb 9F150000 		.4byte	0x159f
 4755 17ff 02       		.uleb128 0x2
 4756 1800 91       		.byte	0x91
 4757 1801 74       		.sleb128 -12
 4758 1802 00       		.byte	0
 4759 1803 2A       		.uleb128 0x2a
 4760 1804 CB0C0000 		.4byte	.LASF278
 4761 1808 02       		.byte	0x2
 4762 1809 2E01     		.2byte	0x12e
 4763 180b 00000000 		.4byte	.LFB68
 4764 180f 68000000 		.4byte	.LFE68-.LFB68
 4765 1813 01       		.uleb128 0x1
 4766 1814 9C       		.byte	0x9c
 4767 1815 38180000 		.4byte	0x1838
 4768 1819 2B       		.uleb128 0x2b
 4769 181a 810C0000 		.4byte	.LASF254
 4770 181e 02       		.byte	0x2
 4771 181f 2E01     		.2byte	0x12e
 4772 1821 210B0000 		.4byte	0xb21
ARM GAS  C:\Users\tmj32\AppData\Local\Temp\cci6nv1n.s 			page 95


 4773 1825 02       		.uleb128 0x2
 4774 1826 91       		.byte	0x91
 4775 1827 6C       		.sleb128 -20
 4776 1828 2C       		.uleb128 0x2c
 4777 1829 65787400 		.ascii	"ext\000"
 4778 182d 02       		.byte	0x2
 4779 182e 3201     		.2byte	0x132
 4780 1830 9F150000 		.4byte	0x159f
 4781 1834 02       		.uleb128 0x2
 4782 1835 91       		.byte	0x91
 4783 1836 74       		.sleb128 -12
 4784 1837 00       		.byte	0
 4785 1838 2E       		.uleb128 0x2e
 4786 1839 D1050000 		.4byte	.LASF295
 4787 183d 02       		.byte	0x2
 4788 183e 4A01     		.2byte	0x14a
 4789 1840 6C050000 		.4byte	0x56c
 4790 1844 00000000 		.4byte	.LFB69
 4791 1848 30010000 		.4byte	.LFE69-.LFB69
 4792 184c 01       		.uleb128 0x1
 4793 184d 9C       		.byte	0x9c
 4794 184e EE180000 		.4byte	0x18ee
 4795 1852 2B       		.uleb128 0x2b
 4796 1853 810C0000 		.4byte	.LASF254
 4797 1857 02       		.byte	0x2
 4798 1858 4A01     		.2byte	0x14a
 4799 185a 210B0000 		.4byte	0xb21
 4800 185e 02       		.uleb128 0x2
 4801 185f 91       		.byte	0x91
 4802 1860 5C       		.sleb128 -36
 4803 1861 2B       		.uleb128 0x2b
 4804 1862 1C010000 		.4byte	.LASF279
 4805 1866 02       		.byte	0x2
 4806 1867 4A01     		.2byte	0x14a
 4807 1869 3A080000 		.4byte	0x83a
 4808 186d 02       		.uleb128 0x2
 4809 186e 91       		.byte	0x91
 4810 186f 5B       		.sleb128 -37
 4811 1870 2B       		.uleb128 0x2b
 4812 1871 A4050000 		.4byte	.LASF280
 4813 1875 02       		.byte	0x2
 4814 1876 4A01     		.2byte	0x14a
 4815 1878 FA000000 		.4byte	0xfa
 4816 187c 02       		.uleb128 0x2
 4817 187d 91       		.byte	0x91
 4818 187e 54       		.sleb128 -44
 4819 187f 2C       		.uleb128 0x2c
 4820 1880 72657300 		.ascii	"res\000"
 4821 1884 02       		.byte	0x2
 4822 1885 4D01     		.2byte	0x14d
 4823 1887 6C050000 		.4byte	0x56c
 4824 188b 02       		.uleb128 0x2
 4825 188c 91       		.byte	0x91
 4826 188d 77       		.sleb128 -9
 4827 188e 2C       		.uleb128 0x2c
 4828 188f 65787400 		.ascii	"ext\000"
 4829 1893 02       		.byte	0x2
ARM GAS  C:\Users\tmj32\AppData\Local\Temp\cci6nv1n.s 			page 96


 4830 1894 5701     		.2byte	0x157
 4831 1896 9F150000 		.4byte	0x159f
 4832 189a 02       		.uleb128 0x2
 4833 189b 91       		.byte	0x91
 4834 189c 70       		.sleb128 -16
 4835 189d 27       		.uleb128 0x27
 4836 189e 60000000 		.4byte	.LBB4
 4837 18a2 3C000000 		.4byte	.LBE4-.LBB4
 4838 18a6 C7180000 		.4byte	0x18c7
 4839 18aa 2C       		.uleb128 0x2c
 4840 18ab 62756600 		.ascii	"buf\000"
 4841 18af 02       		.byte	0x2
 4842 18b0 5B01     		.2byte	0x15b
 4843 18b2 EE180000 		.4byte	0x18ee
 4844 18b6 02       		.uleb128 0x2
 4845 18b7 91       		.byte	0x91
 4846 18b8 6C       		.sleb128 -20
 4847 18b9 2C       		.uleb128 0x2c
 4848 18ba 6900     		.ascii	"i\000"
 4849 18bc 02       		.byte	0x2
 4850 18bd 5C01     		.2byte	0x15c
 4851 18bf B8000000 		.4byte	0xb8
 4852 18c3 02       		.uleb128 0x2
 4853 18c4 91       		.byte	0x91
 4854 18c5 76       		.sleb128 -10
 4855 18c6 00       		.byte	0
 4856 18c7 28       		.uleb128 0x28
 4857 18c8 AA000000 		.4byte	.LBB5
 4858 18cc 72000000 		.4byte	.LBE5-.LBB5
 4859 18d0 2D       		.uleb128 0x2d
 4860 18d1 0F0D0000 		.4byte	.LASF281
 4861 18d5 02       		.byte	0x2
 4862 18d6 7801     		.2byte	0x178
 4863 18d8 49070000 		.4byte	0x749
 4864 18dc 02       		.uleb128 0x2
 4865 18dd 91       		.byte	0x91
 4866 18de 6B       		.sleb128 -21
 4867 18df 2C       		.uleb128 0x2c
 4868 18e0 6300     		.ascii	"c\000"
 4869 18e2 02       		.byte	0x2
 4870 18e3 7A01     		.2byte	0x17a
 4871 18e5 E4000000 		.4byte	0xe4
 4872 18e9 02       		.uleb128 0x2
 4873 18ea 91       		.byte	0x91
 4874 18eb 64       		.sleb128 -28
 4875 18ec 00       		.byte	0
 4876 18ed 00       		.byte	0
 4877 18ee 0D       		.uleb128 0xd
 4878 18ef 04       		.byte	0x4
 4879 18f0 2F090000 		.4byte	0x92f
 4880 18f4 2F       		.uleb128 0x2f
 4881 18f5 DD010000 		.4byte	.LASF283
 4882 18f9 02       		.byte	0x2
 4883 18fa 9101     		.2byte	0x191
 4884 18fc 00000000 		.4byte	.LFB70
 4885 1900 64020000 		.4byte	.LFE70-.LFB70
 4886 1904 01       		.uleb128 0x1
ARM GAS  C:\Users\tmj32\AppData\Local\Temp\cci6nv1n.s 			page 97


 4887 1905 9C       		.byte	0x9c
 4888 1906 B1190000 		.4byte	0x19b1
 4889 190a 2B       		.uleb128 0x2b
 4890 190b 810C0000 		.4byte	.LASF254
 4891 190f 02       		.byte	0x2
 4892 1910 9101     		.2byte	0x191
 4893 1912 210B0000 		.4byte	0xb21
 4894 1916 03       		.uleb128 0x3
 4895 1917 91       		.byte	0x91
 4896 1918 F47E     		.sleb128 -140
 4897 191a 2C       		.uleb128 0x2c
 4898 191b 65787400 		.ascii	"ext\000"
 4899 191f 02       		.byte	0x2
 4900 1920 9301     		.2byte	0x193
 4901 1922 9F150000 		.4byte	0x159f
 4902 1926 02       		.uleb128 0x2
 4903 1927 91       		.byte	0x91
 4904 1928 58       		.sleb128 -40
 4905 1929 2C       		.uleb128 0x2c
 4906 192a 62756600 		.ascii	"buf\000"
 4907 192e 02       		.byte	0x2
 4908 192f 9501     		.2byte	0x195
 4909 1931 BC020000 		.4byte	0x2bc
 4910 1935 03       		.uleb128 0x3
 4911 1936 91       		.byte	0x91
 4912 1937 B87F     		.sleb128 -72
 4913 1939 2D       		.uleb128 0x2d
 4914 193a B6020000 		.4byte	.LASF284
 4915 193e 02       		.byte	0x2
 4916 193f 9701     		.2byte	0x197
 4917 1941 A4020000 		.4byte	0x2a4
 4918 1945 02       		.uleb128 0x2
 4919 1946 91       		.byte	0x91
 4920 1947 6C       		.sleb128 -20
 4921 1948 2D       		.uleb128 0x2d
 4922 1949 8B000000 		.4byte	.LASF285
 4923 194d 02       		.byte	0x2
 4924 194e 9801     		.2byte	0x198
 4925 1950 B8000000 		.4byte	0xb8
 4926 1954 02       		.uleb128 0x2
 4927 1955 91       		.byte	0x91
 4928 1956 6B       		.sleb128 -21
 4929 1957 2C       		.uleb128 0x2c
 4930 1958 6900     		.ascii	"i\000"
 4931 195a 02       		.byte	0x2
 4932 195b A301     		.2byte	0x1a3
 4933 195d D9000000 		.4byte	0xd9
 4934 1961 02       		.uleb128 0x2
 4935 1962 91       		.byte	0x91
 4936 1963 64       		.sleb128 -28
 4937 1964 2D       		.uleb128 0x2d
 4938 1965 EF000000 		.4byte	.LASF286
 4939 1969 02       		.byte	0x2
 4940 196a AA01     		.2byte	0x1aa
 4941 196c B1190000 		.4byte	0x19b1
 4942 1970 03       		.uleb128 0x3
 4943 1971 91       		.byte	0x91
ARM GAS  C:\Users\tmj32\AppData\Local\Temp\cci6nv1n.s 			page 98


 4944 1972 F87E     		.sleb128 -136
 4945 1974 2D       		.uleb128 0x2d
 4946 1975 B80C0000 		.4byte	.LASF287
 4947 1979 02       		.byte	0x2
 4948 197a AF01     		.2byte	0x1af
 4949 197c 9F000000 		.4byte	0x9f
 4950 1980 02       		.uleb128 0x2
 4951 1981 91       		.byte	0x91
 4952 1982 54       		.sleb128 -44
 4953 1983 2D       		.uleb128 0x2d
 4954 1984 0F080000 		.4byte	.LASF288
 4955 1988 02       		.byte	0x2
 4956 1989 B901     		.2byte	0x1b9
 4957 198b D9000000 		.4byte	0xd9
 4958 198f 02       		.uleb128 0x2
 4959 1990 91       		.byte	0x91
 4960 1991 50       		.sleb128 -48
 4961 1992 2D       		.uleb128 0x2d
 4962 1993 D7020000 		.4byte	.LASF213
 4963 1997 02       		.byte	0x2
 4964 1998 D101     		.2byte	0x1d1
 4965 199a D9000000 		.4byte	0xd9
 4966 199e 02       		.uleb128 0x2
 4967 199f 91       		.byte	0x91
 4968 19a0 60       		.sleb128 -32
 4969 19a1 2D       		.uleb128 0x2d
 4970 19a2 3D0D0000 		.4byte	.LASF289
 4971 19a6 02       		.byte	0x2
 4972 19a7 D201     		.2byte	0x1d2
 4973 19a9 B8000000 		.4byte	0xb8
 4974 19ad 02       		.uleb128 0x2
 4975 19ae 91       		.byte	0x91
 4976 19af 5F       		.sleb128 -33
 4977 19b0 00       		.byte	0
 4978 19b1 13       		.uleb128 0x13
 4979 19b2 AA020000 		.4byte	0x2aa
 4980 19b6 C1190000 		.4byte	0x19c1
 4981 19ba 14       		.uleb128 0x14
 4982 19bb 9D020000 		.4byte	0x29d
 4983 19bf 3F       		.byte	0x3f
 4984 19c0 00       		.byte	0
 4985 19c1 25       		.uleb128 0x25
 4986 19c2 310A0000 		.4byte	.LASF290
 4987 19c6 02       		.byte	0x2
 4988 19c7 23       		.byte	0x23
 4989 19c8 45080000 		.4byte	0x845
 4990 19cc 05       		.uleb128 0x5
 4991 19cd 03       		.byte	0x3
 4992 19ce 00000000 		.4byte	ancestor_signal
 4993 19d2 25       		.uleb128 0x25
 4994 19d3 410A0000 		.4byte	.LASF291
 4995 19d7 02       		.byte	0x2
 4996 19d8 24       		.byte	0x24
 4997 19d9 5F070000 		.4byte	0x75f
 4998 19dd 05       		.uleb128 0x5
 4999 19de 03       		.byte	0x3
 5000 19df 04000000 		.4byte	ancestor_design
ARM GAS  C:\Users\tmj32\AppData\Local\Temp\cci6nv1n.s 			page 99


 5001 19e3 00       		.byte	0
 5002              		.section	.debug_abbrev,"",%progbits
 5003              	.Ldebug_abbrev0:
 5004 0000 01       		.uleb128 0x1
 5005 0001 11       		.uleb128 0x11
 5006 0002 01       		.byte	0x1
 5007 0003 25       		.uleb128 0x25
 5008 0004 0E       		.uleb128 0xe
 5009 0005 13       		.uleb128 0x13
 5010 0006 0B       		.uleb128 0xb
 5011 0007 03       		.uleb128 0x3
 5012 0008 0E       		.uleb128 0xe
 5013 0009 1B       		.uleb128 0x1b
 5014 000a 0E       		.uleb128 0xe
 5015 000b 55       		.uleb128 0x55
 5016 000c 17       		.uleb128 0x17
 5017 000d 11       		.uleb128 0x11
 5018 000e 01       		.uleb128 0x1
 5019 000f 10       		.uleb128 0x10
 5020 0010 17       		.uleb128 0x17
 5021 0011 00       		.byte	0
 5022 0012 00       		.byte	0
 5023 0013 02       		.uleb128 0x2
 5024 0014 16       		.uleb128 0x16
 5025 0015 00       		.byte	0
 5026 0016 03       		.uleb128 0x3
 5027 0017 0E       		.uleb128 0xe
 5028 0018 3A       		.uleb128 0x3a
 5029 0019 0B       		.uleb128 0xb
 5030 001a 3B       		.uleb128 0x3b
 5031 001b 0B       		.uleb128 0xb
 5032 001c 49       		.uleb128 0x49
 5033 001d 13       		.uleb128 0x13
 5034 001e 00       		.byte	0
 5035 001f 00       		.byte	0
 5036 0020 03       		.uleb128 0x3
 5037 0021 24       		.uleb128 0x24
 5038 0022 00       		.byte	0
 5039 0023 0B       		.uleb128 0xb
 5040 0024 0B       		.uleb128 0xb
 5041 0025 3E       		.uleb128 0x3e
 5042 0026 0B       		.uleb128 0xb
 5043 0027 03       		.uleb128 0x3
 5044 0028 0E       		.uleb128 0xe
 5045 0029 00       		.byte	0
 5046 002a 00       		.byte	0
 5047 002b 04       		.uleb128 0x4
 5048 002c 24       		.uleb128 0x24
 5049 002d 00       		.byte	0
 5050 002e 0B       		.uleb128 0xb
 5051 002f 0B       		.uleb128 0xb
 5052 0030 3E       		.uleb128 0x3e
 5053 0031 0B       		.uleb128 0xb
 5054 0032 03       		.uleb128 0x3
 5055 0033 08       		.uleb128 0x8
 5056 0034 00       		.byte	0
 5057 0035 00       		.byte	0
ARM GAS  C:\Users\tmj32\AppData\Local\Temp\cci6nv1n.s 			page 100


 5058 0036 05       		.uleb128 0x5
 5059 0037 0F       		.uleb128 0xf
 5060 0038 00       		.byte	0
 5061 0039 0B       		.uleb128 0xb
 5062 003a 0B       		.uleb128 0xb
 5063 003b 00       		.byte	0
 5064 003c 00       		.byte	0
 5065 003d 06       		.uleb128 0x6
 5066 003e 13       		.uleb128 0x13
 5067 003f 01       		.byte	0x1
 5068 0040 0B       		.uleb128 0xb
 5069 0041 0B       		.uleb128 0xb
 5070 0042 3A       		.uleb128 0x3a
 5071 0043 0B       		.uleb128 0xb
 5072 0044 3B       		.uleb128 0x3b
 5073 0045 0B       		.uleb128 0xb
 5074 0046 01       		.uleb128 0x1
 5075 0047 13       		.uleb128 0x13
 5076 0048 00       		.byte	0
 5077 0049 00       		.byte	0
 5078 004a 07       		.uleb128 0x7
 5079 004b 0D       		.uleb128 0xd
 5080 004c 00       		.byte	0
 5081 004d 03       		.uleb128 0x3
 5082 004e 0E       		.uleb128 0xe
 5083 004f 3A       		.uleb128 0x3a
 5084 0050 0B       		.uleb128 0xb
 5085 0051 3B       		.uleb128 0x3b
 5086 0052 0B       		.uleb128 0xb
 5087 0053 49       		.uleb128 0x49
 5088 0054 13       		.uleb128 0x13
 5089 0055 38       		.uleb128 0x38
 5090 0056 0B       		.uleb128 0xb
 5091 0057 00       		.byte	0
 5092 0058 00       		.byte	0
 5093 0059 08       		.uleb128 0x8
 5094 005a 0D       		.uleb128 0xd
 5095 005b 00       		.byte	0
 5096 005c 03       		.uleb128 0x3
 5097 005d 08       		.uleb128 0x8
 5098 005e 3A       		.uleb128 0x3a
 5099 005f 0B       		.uleb128 0xb
 5100 0060 3B       		.uleb128 0x3b
 5101 0061 0B       		.uleb128 0xb
 5102 0062 49       		.uleb128 0x49
 5103 0063 13       		.uleb128 0x13
 5104 0064 38       		.uleb128 0x38
 5105 0065 0B       		.uleb128 0xb
 5106 0066 00       		.byte	0
 5107 0067 00       		.byte	0
 5108 0068 09       		.uleb128 0x9
 5109 0069 13       		.uleb128 0x13
 5110 006a 01       		.byte	0x1
 5111 006b 03       		.uleb128 0x3
 5112 006c 0E       		.uleb128 0xe
 5113 006d 0B       		.uleb128 0xb
 5114 006e 0B       		.uleb128 0xb
ARM GAS  C:\Users\tmj32\AppData\Local\Temp\cci6nv1n.s 			page 101


 5115 006f 3A       		.uleb128 0x3a
 5116 0070 0B       		.uleb128 0xb
 5117 0071 3B       		.uleb128 0x3b
 5118 0072 0B       		.uleb128 0xb
 5119 0073 01       		.uleb128 0x1
 5120 0074 13       		.uleb128 0x13
 5121 0075 00       		.byte	0
 5122 0076 00       		.byte	0
 5123 0077 0A       		.uleb128 0xa
 5124 0078 0D       		.uleb128 0xd
 5125 0079 00       		.byte	0
 5126 007a 03       		.uleb128 0x3
 5127 007b 0E       		.uleb128 0xe
 5128 007c 3A       		.uleb128 0x3a
 5129 007d 0B       		.uleb128 0xb
 5130 007e 3B       		.uleb128 0x3b
 5131 007f 0B       		.uleb128 0xb
 5132 0080 49       		.uleb128 0x49
 5133 0081 13       		.uleb128 0x13
 5134 0082 0B       		.uleb128 0xb
 5135 0083 0B       		.uleb128 0xb
 5136 0084 0D       		.uleb128 0xd
 5137 0085 0B       		.uleb128 0xb
 5138 0086 0C       		.uleb128 0xc
 5139 0087 0B       		.uleb128 0xb
 5140 0088 38       		.uleb128 0x38
 5141 0089 0B       		.uleb128 0xb
 5142 008a 00       		.byte	0
 5143 008b 00       		.byte	0
 5144 008c 0B       		.uleb128 0xb
 5145 008d 15       		.uleb128 0x15
 5146 008e 01       		.byte	0x1
 5147 008f 27       		.uleb128 0x27
 5148 0090 19       		.uleb128 0x19
 5149 0091 49       		.uleb128 0x49
 5150 0092 13       		.uleb128 0x13
 5151 0093 01       		.uleb128 0x1
 5152 0094 13       		.uleb128 0x13
 5153 0095 00       		.byte	0
 5154 0096 00       		.byte	0
 5155 0097 0C       		.uleb128 0xc
 5156 0098 05       		.uleb128 0x5
 5157 0099 00       		.byte	0
 5158 009a 49       		.uleb128 0x49
 5159 009b 13       		.uleb128 0x13
 5160 009c 00       		.byte	0
 5161 009d 00       		.byte	0
 5162 009e 0D       		.uleb128 0xd
 5163 009f 0F       		.uleb128 0xf
 5164 00a0 00       		.byte	0
 5165 00a1 0B       		.uleb128 0xb
 5166 00a2 0B       		.uleb128 0xb
 5167 00a3 49       		.uleb128 0x49
 5168 00a4 13       		.uleb128 0x13
 5169 00a5 00       		.byte	0
 5170 00a6 00       		.byte	0
 5171 00a7 0E       		.uleb128 0xe
ARM GAS  C:\Users\tmj32\AppData\Local\Temp\cci6nv1n.s 			page 102


 5172 00a8 26       		.uleb128 0x26
 5173 00a9 00       		.byte	0
 5174 00aa 49       		.uleb128 0x49
 5175 00ab 13       		.uleb128 0x13
 5176 00ac 00       		.byte	0
 5177 00ad 00       		.byte	0
 5178 00ae 0F       		.uleb128 0xf
 5179 00af 17       		.uleb128 0x17
 5180 00b0 01       		.byte	0x1
 5181 00b1 0B       		.uleb128 0xb
 5182 00b2 0B       		.uleb128 0xb
 5183 00b3 3A       		.uleb128 0x3a
 5184 00b4 0B       		.uleb128 0xb
 5185 00b5 3B       		.uleb128 0x3b
 5186 00b6 0B       		.uleb128 0xb
 5187 00b7 01       		.uleb128 0x1
 5188 00b8 13       		.uleb128 0x13
 5189 00b9 00       		.byte	0
 5190 00ba 00       		.byte	0
 5191 00bb 10       		.uleb128 0x10
 5192 00bc 0D       		.uleb128 0xd
 5193 00bd 00       		.byte	0
 5194 00be 03       		.uleb128 0x3
 5195 00bf 08       		.uleb128 0x8
 5196 00c0 3A       		.uleb128 0x3a
 5197 00c1 0B       		.uleb128 0xb
 5198 00c2 3B       		.uleb128 0x3b
 5199 00c3 0B       		.uleb128 0xb
 5200 00c4 49       		.uleb128 0x49
 5201 00c5 13       		.uleb128 0x13
 5202 00c6 00       		.byte	0
 5203 00c7 00       		.byte	0
 5204 00c8 11       		.uleb128 0x11
 5205 00c9 0D       		.uleb128 0xd
 5206 00ca 00       		.byte	0
 5207 00cb 03       		.uleb128 0x3
 5208 00cc 0E       		.uleb128 0xe
 5209 00cd 3A       		.uleb128 0x3a
 5210 00ce 0B       		.uleb128 0xb
 5211 00cf 3B       		.uleb128 0x3b
 5212 00d0 0B       		.uleb128 0xb
 5213 00d1 49       		.uleb128 0x49
 5214 00d2 13       		.uleb128 0x13
 5215 00d3 00       		.byte	0
 5216 00d4 00       		.byte	0
 5217 00d5 12       		.uleb128 0x12
 5218 00d6 16       		.uleb128 0x16
 5219 00d7 00       		.byte	0
 5220 00d8 03       		.uleb128 0x3
 5221 00d9 0E       		.uleb128 0xe
 5222 00da 3A       		.uleb128 0x3a
 5223 00db 0B       		.uleb128 0xb
 5224 00dc 3B       		.uleb128 0x3b
 5225 00dd 05       		.uleb128 0x5
 5226 00de 49       		.uleb128 0x49
 5227 00df 13       		.uleb128 0x13
 5228 00e0 00       		.byte	0
ARM GAS  C:\Users\tmj32\AppData\Local\Temp\cci6nv1n.s 			page 103


 5229 00e1 00       		.byte	0
 5230 00e2 13       		.uleb128 0x13
 5231 00e3 01       		.uleb128 0x1
 5232 00e4 01       		.byte	0x1
 5233 00e5 49       		.uleb128 0x49
 5234 00e6 13       		.uleb128 0x13
 5235 00e7 01       		.uleb128 0x1
 5236 00e8 13       		.uleb128 0x13
 5237 00e9 00       		.byte	0
 5238 00ea 00       		.byte	0
 5239 00eb 14       		.uleb128 0x14
 5240 00ec 21       		.uleb128 0x21
 5241 00ed 00       		.byte	0
 5242 00ee 49       		.uleb128 0x49
 5243 00ef 13       		.uleb128 0x13
 5244 00f0 2F       		.uleb128 0x2f
 5245 00f1 0B       		.uleb128 0xb
 5246 00f2 00       		.byte	0
 5247 00f3 00       		.byte	0
 5248 00f4 15       		.uleb128 0x15
 5249 00f5 04       		.uleb128 0x4
 5250 00f6 01       		.byte	0x1
 5251 00f7 0B       		.uleb128 0xb
 5252 00f8 0B       		.uleb128 0xb
 5253 00f9 49       		.uleb128 0x49
 5254 00fa 13       		.uleb128 0x13
 5255 00fb 3A       		.uleb128 0x3a
 5256 00fc 0B       		.uleb128 0xb
 5257 00fd 3B       		.uleb128 0x3b
 5258 00fe 0B       		.uleb128 0xb
 5259 00ff 01       		.uleb128 0x1
 5260 0100 13       		.uleb128 0x13
 5261 0101 00       		.byte	0
 5262 0102 00       		.byte	0
 5263 0103 16       		.uleb128 0x16
 5264 0104 28       		.uleb128 0x28
 5265 0105 00       		.byte	0
 5266 0106 03       		.uleb128 0x3
 5267 0107 0E       		.uleb128 0xe
 5268 0108 1C       		.uleb128 0x1c
 5269 0109 0B       		.uleb128 0xb
 5270 010a 00       		.byte	0
 5271 010b 00       		.byte	0
 5272 010c 17       		.uleb128 0x17
 5273 010d 0D       		.uleb128 0xd
 5274 010e 00       		.byte	0
 5275 010f 03       		.uleb128 0x3
 5276 0110 08       		.uleb128 0x8
 5277 0111 3A       		.uleb128 0x3a
 5278 0112 0B       		.uleb128 0xb
 5279 0113 3B       		.uleb128 0x3b
 5280 0114 0B       		.uleb128 0xb
 5281 0115 49       		.uleb128 0x49
 5282 0116 13       		.uleb128 0x13
 5283 0117 0B       		.uleb128 0xb
 5284 0118 0B       		.uleb128 0xb
 5285 0119 0D       		.uleb128 0xd
ARM GAS  C:\Users\tmj32\AppData\Local\Temp\cci6nv1n.s 			page 104


 5286 011a 0B       		.uleb128 0xb
 5287 011b 0C       		.uleb128 0xc
 5288 011c 0B       		.uleb128 0xb
 5289 011d 38       		.uleb128 0x38
 5290 011e 0B       		.uleb128 0xb
 5291 011f 00       		.byte	0
 5292 0120 00       		.byte	0
 5293 0121 18       		.uleb128 0x18
 5294 0122 15       		.uleb128 0x15
 5295 0123 01       		.byte	0x1
 5296 0124 27       		.uleb128 0x27
 5297 0125 19       		.uleb128 0x19
 5298 0126 01       		.uleb128 0x1
 5299 0127 13       		.uleb128 0x13
 5300 0128 00       		.byte	0
 5301 0129 00       		.byte	0
 5302 012a 19       		.uleb128 0x19
 5303 012b 13       		.uleb128 0x13
 5304 012c 01       		.byte	0x1
 5305 012d 0B       		.uleb128 0xb
 5306 012e 0B       		.uleb128 0xb
 5307 012f 3A       		.uleb128 0x3a
 5308 0130 0B       		.uleb128 0xb
 5309 0131 3B       		.uleb128 0x3b
 5310 0132 05       		.uleb128 0x5
 5311 0133 01       		.uleb128 0x1
 5312 0134 13       		.uleb128 0x13
 5313 0135 00       		.byte	0
 5314 0136 00       		.byte	0
 5315 0137 1A       		.uleb128 0x1a
 5316 0138 0D       		.uleb128 0xd
 5317 0139 00       		.byte	0
 5318 013a 03       		.uleb128 0x3
 5319 013b 0E       		.uleb128 0xe
 5320 013c 3A       		.uleb128 0x3a
 5321 013d 0B       		.uleb128 0xb
 5322 013e 3B       		.uleb128 0x3b
 5323 013f 05       		.uleb128 0x5
 5324 0140 49       		.uleb128 0x49
 5325 0141 13       		.uleb128 0x13
 5326 0142 38       		.uleb128 0x38
 5327 0143 0B       		.uleb128 0xb
 5328 0144 00       		.byte	0
 5329 0145 00       		.byte	0
 5330 0146 1B       		.uleb128 0x1b
 5331 0147 0D       		.uleb128 0xd
 5332 0148 00       		.byte	0
 5333 0149 03       		.uleb128 0x3
 5334 014a 08       		.uleb128 0x8
 5335 014b 3A       		.uleb128 0x3a
 5336 014c 0B       		.uleb128 0xb
 5337 014d 3B       		.uleb128 0x3b
 5338 014e 05       		.uleb128 0x5
 5339 014f 49       		.uleb128 0x49
 5340 0150 13       		.uleb128 0x13
 5341 0151 38       		.uleb128 0x38
 5342 0152 0B       		.uleb128 0xb
ARM GAS  C:\Users\tmj32\AppData\Local\Temp\cci6nv1n.s 			page 105


 5343 0153 00       		.byte	0
 5344 0154 00       		.byte	0
 5345 0155 1C       		.uleb128 0x1c
 5346 0156 13       		.uleb128 0x13
 5347 0157 01       		.byte	0x1
 5348 0158 0B       		.uleb128 0xb
 5349 0159 05       		.uleb128 0x5
 5350 015a 3A       		.uleb128 0x3a
 5351 015b 0B       		.uleb128 0xb
 5352 015c 3B       		.uleb128 0x3b
 5353 015d 0B       		.uleb128 0xb
 5354 015e 01       		.uleb128 0x1
 5355 015f 13       		.uleb128 0x13
 5356 0160 00       		.byte	0
 5357 0161 00       		.byte	0
 5358 0162 1D       		.uleb128 0x1d
 5359 0163 0D       		.uleb128 0xd
 5360 0164 00       		.byte	0
 5361 0165 03       		.uleb128 0x3
 5362 0166 0E       		.uleb128 0xe
 5363 0167 3A       		.uleb128 0x3a
 5364 0168 0B       		.uleb128 0xb
 5365 0169 3B       		.uleb128 0x3b
 5366 016a 0B       		.uleb128 0xb
 5367 016b 49       		.uleb128 0x49
 5368 016c 13       		.uleb128 0x13
 5369 016d 38       		.uleb128 0x38
 5370 016e 05       		.uleb128 0x5
 5371 016f 00       		.byte	0
 5372 0170 00       		.byte	0
 5373 0171 1E       		.uleb128 0x1e
 5374 0172 0D       		.uleb128 0xd
 5375 0173 00       		.byte	0
 5376 0174 03       		.uleb128 0x3
 5377 0175 08       		.uleb128 0x8
 5378 0176 3A       		.uleb128 0x3a
 5379 0177 0B       		.uleb128 0xb
 5380 0178 3B       		.uleb128 0x3b
 5381 0179 0B       		.uleb128 0xb
 5382 017a 49       		.uleb128 0x49
 5383 017b 13       		.uleb128 0x13
 5384 017c 38       		.uleb128 0x38
 5385 017d 05       		.uleb128 0x5
 5386 017e 00       		.byte	0
 5387 017f 00       		.byte	0
 5388 0180 1F       		.uleb128 0x1f
 5389 0181 0D       		.uleb128 0xd
 5390 0182 00       		.byte	0
 5391 0183 03       		.uleb128 0x3
 5392 0184 0E       		.uleb128 0xe
 5393 0185 3A       		.uleb128 0x3a
 5394 0186 0B       		.uleb128 0xb
 5395 0187 3B       		.uleb128 0x3b
 5396 0188 05       		.uleb128 0x5
 5397 0189 49       		.uleb128 0x49
 5398 018a 13       		.uleb128 0x13
 5399 018b 38       		.uleb128 0x38
ARM GAS  C:\Users\tmj32\AppData\Local\Temp\cci6nv1n.s 			page 106


 5400 018c 05       		.uleb128 0x5
 5401 018d 00       		.byte	0
 5402 018e 00       		.byte	0
 5403 018f 20       		.uleb128 0x20
 5404 0190 0D       		.uleb128 0xd
 5405 0191 00       		.byte	0
 5406 0192 03       		.uleb128 0x3
 5407 0193 08       		.uleb128 0x8
 5408 0194 3A       		.uleb128 0x3a
 5409 0195 0B       		.uleb128 0xb
 5410 0196 3B       		.uleb128 0x3b
 5411 0197 05       		.uleb128 0x5
 5412 0198 49       		.uleb128 0x49
 5413 0199 13       		.uleb128 0x13
 5414 019a 38       		.uleb128 0x38
 5415 019b 05       		.uleb128 0x5
 5416 019c 00       		.byte	0
 5417 019d 00       		.byte	0
 5418 019e 21       		.uleb128 0x21
 5419 019f 2E       		.uleb128 0x2e
 5420 01a0 01       		.byte	0x1
 5421 01a1 03       		.uleb128 0x3
 5422 01a2 0E       		.uleb128 0xe
 5423 01a3 3A       		.uleb128 0x3a
 5424 01a4 0B       		.uleb128 0xb
 5425 01a5 3B       		.uleb128 0x3b
 5426 01a6 0B       		.uleb128 0xb
 5427 01a7 27       		.uleb128 0x27
 5428 01a8 19       		.uleb128 0x19
 5429 01a9 11       		.uleb128 0x11
 5430 01aa 01       		.uleb128 0x1
 5431 01ab 12       		.uleb128 0x12
 5432 01ac 06       		.uleb128 0x6
 5433 01ad 40       		.uleb128 0x40
 5434 01ae 18       		.uleb128 0x18
 5435 01af 9642     		.uleb128 0x2116
 5436 01b1 19       		.uleb128 0x19
 5437 01b2 01       		.uleb128 0x1
 5438 01b3 13       		.uleb128 0x13
 5439 01b4 00       		.byte	0
 5440 01b5 00       		.byte	0
 5441 01b6 22       		.uleb128 0x22
 5442 01b7 05       		.uleb128 0x5
 5443 01b8 00       		.byte	0
 5444 01b9 03       		.uleb128 0x3
 5445 01ba 0E       		.uleb128 0xe
 5446 01bb 3A       		.uleb128 0x3a
 5447 01bc 0B       		.uleb128 0xb
 5448 01bd 3B       		.uleb128 0x3b
 5449 01be 0B       		.uleb128 0xb
 5450 01bf 49       		.uleb128 0x49
 5451 01c0 13       		.uleb128 0x13
 5452 01c1 02       		.uleb128 0x2
 5453 01c2 18       		.uleb128 0x18
 5454 01c3 00       		.byte	0
 5455 01c4 00       		.byte	0
 5456 01c5 23       		.uleb128 0x23
ARM GAS  C:\Users\tmj32\AppData\Local\Temp\cci6nv1n.s 			page 107


 5457 01c6 2E       		.uleb128 0x2e
 5458 01c7 01       		.byte	0x1
 5459 01c8 3F       		.uleb128 0x3f
 5460 01c9 19       		.uleb128 0x19
 5461 01ca 03       		.uleb128 0x3
 5462 01cb 0E       		.uleb128 0xe
 5463 01cc 3A       		.uleb128 0x3a
 5464 01cd 0B       		.uleb128 0xb
 5465 01ce 3B       		.uleb128 0x3b
 5466 01cf 0B       		.uleb128 0xb
 5467 01d0 27       		.uleb128 0x27
 5468 01d1 19       		.uleb128 0x19
 5469 01d2 49       		.uleb128 0x49
 5470 01d3 13       		.uleb128 0x13
 5471 01d4 11       		.uleb128 0x11
 5472 01d5 01       		.uleb128 0x1
 5473 01d6 12       		.uleb128 0x12
 5474 01d7 06       		.uleb128 0x6
 5475 01d8 40       		.uleb128 0x40
 5476 01d9 18       		.uleb128 0x18
 5477 01da 9642     		.uleb128 0x2116
 5478 01dc 19       		.uleb128 0x19
 5479 01dd 01       		.uleb128 0x1
 5480 01de 13       		.uleb128 0x13
 5481 01df 00       		.byte	0
 5482 01e0 00       		.byte	0
 5483 01e1 24       		.uleb128 0x24
 5484 01e2 05       		.uleb128 0x5
 5485 01e3 00       		.byte	0
 5486 01e4 03       		.uleb128 0x3
 5487 01e5 08       		.uleb128 0x8
 5488 01e6 3A       		.uleb128 0x3a
 5489 01e7 0B       		.uleb128 0xb
 5490 01e8 3B       		.uleb128 0x3b
 5491 01e9 0B       		.uleb128 0xb
 5492 01ea 49       		.uleb128 0x49
 5493 01eb 13       		.uleb128 0x13
 5494 01ec 02       		.uleb128 0x2
 5495 01ed 18       		.uleb128 0x18
 5496 01ee 00       		.byte	0
 5497 01ef 00       		.byte	0
 5498 01f0 25       		.uleb128 0x25
 5499 01f1 34       		.uleb128 0x34
 5500 01f2 00       		.byte	0
 5501 01f3 03       		.uleb128 0x3
 5502 01f4 0E       		.uleb128 0xe
 5503 01f5 3A       		.uleb128 0x3a
 5504 01f6 0B       		.uleb128 0xb
 5505 01f7 3B       		.uleb128 0x3b
 5506 01f8 0B       		.uleb128 0xb
 5507 01f9 49       		.uleb128 0x49
 5508 01fa 13       		.uleb128 0x13
 5509 01fb 02       		.uleb128 0x2
 5510 01fc 18       		.uleb128 0x18
 5511 01fd 00       		.byte	0
 5512 01fe 00       		.byte	0
 5513 01ff 26       		.uleb128 0x26
ARM GAS  C:\Users\tmj32\AppData\Local\Temp\cci6nv1n.s 			page 108


 5514 0200 34       		.uleb128 0x34
 5515 0201 00       		.byte	0
 5516 0202 03       		.uleb128 0x3
 5517 0203 08       		.uleb128 0x8
 5518 0204 3A       		.uleb128 0x3a
 5519 0205 0B       		.uleb128 0xb
 5520 0206 3B       		.uleb128 0x3b
 5521 0207 0B       		.uleb128 0xb
 5522 0208 49       		.uleb128 0x49
 5523 0209 13       		.uleb128 0x13
 5524 020a 02       		.uleb128 0x2
 5525 020b 18       		.uleb128 0x18
 5526 020c 00       		.byte	0
 5527 020d 00       		.byte	0
 5528 020e 27       		.uleb128 0x27
 5529 020f 0B       		.uleb128 0xb
 5530 0210 01       		.byte	0x1
 5531 0211 11       		.uleb128 0x11
 5532 0212 01       		.uleb128 0x1
 5533 0213 12       		.uleb128 0x12
 5534 0214 06       		.uleb128 0x6
 5535 0215 01       		.uleb128 0x1
 5536 0216 13       		.uleb128 0x13
 5537 0217 00       		.byte	0
 5538 0218 00       		.byte	0
 5539 0219 28       		.uleb128 0x28
 5540 021a 0B       		.uleb128 0xb
 5541 021b 01       		.byte	0x1
 5542 021c 11       		.uleb128 0x11
 5543 021d 01       		.uleb128 0x1
 5544 021e 12       		.uleb128 0x12
 5545 021f 06       		.uleb128 0x6
 5546 0220 00       		.byte	0
 5547 0221 00       		.byte	0
 5548 0222 29       		.uleb128 0x29
 5549 0223 2E       		.uleb128 0x2e
 5550 0224 01       		.byte	0x1
 5551 0225 3F       		.uleb128 0x3f
 5552 0226 19       		.uleb128 0x19
 5553 0227 03       		.uleb128 0x3
 5554 0228 0E       		.uleb128 0xe
 5555 0229 3A       		.uleb128 0x3a
 5556 022a 0B       		.uleb128 0xb
 5557 022b 3B       		.uleb128 0x3b
 5558 022c 0B       		.uleb128 0xb
 5559 022d 27       		.uleb128 0x27
 5560 022e 19       		.uleb128 0x19
 5561 022f 11       		.uleb128 0x11
 5562 0230 01       		.uleb128 0x1
 5563 0231 12       		.uleb128 0x12
 5564 0232 06       		.uleb128 0x6
 5565 0233 40       		.uleb128 0x40
 5566 0234 18       		.uleb128 0x18
 5567 0235 9642     		.uleb128 0x2116
 5568 0237 19       		.uleb128 0x19
 5569 0238 01       		.uleb128 0x1
 5570 0239 13       		.uleb128 0x13
ARM GAS  C:\Users\tmj32\AppData\Local\Temp\cci6nv1n.s 			page 109


 5571 023a 00       		.byte	0
 5572 023b 00       		.byte	0
 5573 023c 2A       		.uleb128 0x2a
 5574 023d 2E       		.uleb128 0x2e
 5575 023e 01       		.byte	0x1
 5576 023f 3F       		.uleb128 0x3f
 5577 0240 19       		.uleb128 0x19
 5578 0241 03       		.uleb128 0x3
 5579 0242 0E       		.uleb128 0xe
 5580 0243 3A       		.uleb128 0x3a
 5581 0244 0B       		.uleb128 0xb
 5582 0245 3B       		.uleb128 0x3b
 5583 0246 05       		.uleb128 0x5
 5584 0247 27       		.uleb128 0x27
 5585 0248 19       		.uleb128 0x19
 5586 0249 11       		.uleb128 0x11
 5587 024a 01       		.uleb128 0x1
 5588 024b 12       		.uleb128 0x12
 5589 024c 06       		.uleb128 0x6
 5590 024d 40       		.uleb128 0x40
 5591 024e 18       		.uleb128 0x18
 5592 024f 9642     		.uleb128 0x2116
 5593 0251 19       		.uleb128 0x19
 5594 0252 01       		.uleb128 0x1
 5595 0253 13       		.uleb128 0x13
 5596 0254 00       		.byte	0
 5597 0255 00       		.byte	0
 5598 0256 2B       		.uleb128 0x2b
 5599 0257 05       		.uleb128 0x5
 5600 0258 00       		.byte	0
 5601 0259 03       		.uleb128 0x3
 5602 025a 0E       		.uleb128 0xe
 5603 025b 3A       		.uleb128 0x3a
 5604 025c 0B       		.uleb128 0xb
 5605 025d 3B       		.uleb128 0x3b
 5606 025e 05       		.uleb128 0x5
 5607 025f 49       		.uleb128 0x49
 5608 0260 13       		.uleb128 0x13
 5609 0261 02       		.uleb128 0x2
 5610 0262 18       		.uleb128 0x18
 5611 0263 00       		.byte	0
 5612 0264 00       		.byte	0
 5613 0265 2C       		.uleb128 0x2c
 5614 0266 34       		.uleb128 0x34
 5615 0267 00       		.byte	0
 5616 0268 03       		.uleb128 0x3
 5617 0269 08       		.uleb128 0x8
 5618 026a 3A       		.uleb128 0x3a
 5619 026b 0B       		.uleb128 0xb
 5620 026c 3B       		.uleb128 0x3b
 5621 026d 05       		.uleb128 0x5
 5622 026e 49       		.uleb128 0x49
 5623 026f 13       		.uleb128 0x13
 5624 0270 02       		.uleb128 0x2
 5625 0271 18       		.uleb128 0x18
 5626 0272 00       		.byte	0
 5627 0273 00       		.byte	0
ARM GAS  C:\Users\tmj32\AppData\Local\Temp\cci6nv1n.s 			page 110


 5628 0274 2D       		.uleb128 0x2d
 5629 0275 34       		.uleb128 0x34
 5630 0276 00       		.byte	0
 5631 0277 03       		.uleb128 0x3
 5632 0278 0E       		.uleb128 0xe
 5633 0279 3A       		.uleb128 0x3a
 5634 027a 0B       		.uleb128 0xb
 5635 027b 3B       		.uleb128 0x3b
 5636 027c 05       		.uleb128 0x5
 5637 027d 49       		.uleb128 0x49
 5638 027e 13       		.uleb128 0x13
 5639 027f 02       		.uleb128 0x2
 5640 0280 18       		.uleb128 0x18
 5641 0281 00       		.byte	0
 5642 0282 00       		.byte	0
 5643 0283 2E       		.uleb128 0x2e
 5644 0284 2E       		.uleb128 0x2e
 5645 0285 01       		.byte	0x1
 5646 0286 03       		.uleb128 0x3
 5647 0287 0E       		.uleb128 0xe
 5648 0288 3A       		.uleb128 0x3a
 5649 0289 0B       		.uleb128 0xb
 5650 028a 3B       		.uleb128 0x3b
 5651 028b 05       		.uleb128 0x5
 5652 028c 27       		.uleb128 0x27
 5653 028d 19       		.uleb128 0x19
 5654 028e 49       		.uleb128 0x49
 5655 028f 13       		.uleb128 0x13
 5656 0290 11       		.uleb128 0x11
 5657 0291 01       		.uleb128 0x1
 5658 0292 12       		.uleb128 0x12
 5659 0293 06       		.uleb128 0x6
 5660 0294 40       		.uleb128 0x40
 5661 0295 18       		.uleb128 0x18
 5662 0296 9642     		.uleb128 0x2116
 5663 0298 19       		.uleb128 0x19
 5664 0299 01       		.uleb128 0x1
 5665 029a 13       		.uleb128 0x13
 5666 029b 00       		.byte	0
 5667 029c 00       		.byte	0
 5668 029d 2F       		.uleb128 0x2f
 5669 029e 2E       		.uleb128 0x2e
 5670 029f 01       		.byte	0x1
 5671 02a0 03       		.uleb128 0x3
 5672 02a1 0E       		.uleb128 0xe
 5673 02a2 3A       		.uleb128 0x3a
 5674 02a3 0B       		.uleb128 0xb
 5675 02a4 3B       		.uleb128 0x3b
 5676 02a5 05       		.uleb128 0x5
 5677 02a6 27       		.uleb128 0x27
 5678 02a7 19       		.uleb128 0x19
 5679 02a8 11       		.uleb128 0x11
 5680 02a9 01       		.uleb128 0x1
 5681 02aa 12       		.uleb128 0x12
 5682 02ab 06       		.uleb128 0x6
 5683 02ac 40       		.uleb128 0x40
 5684 02ad 18       		.uleb128 0x18
ARM GAS  C:\Users\tmj32\AppData\Local\Temp\cci6nv1n.s 			page 111


 5685 02ae 9642     		.uleb128 0x2116
 5686 02b0 19       		.uleb128 0x19
 5687 02b1 01       		.uleb128 0x1
 5688 02b2 13       		.uleb128 0x13
 5689 02b3 00       		.byte	0
 5690 02b4 00       		.byte	0
 5691 02b5 00       		.byte	0
 5692              		.section	.debug_aranges,"",%progbits
 5693 0000 84000000 		.4byte	0x84
 5694 0004 0200     		.2byte	0x2
 5695 0006 00000000 		.4byte	.Ldebug_info0
 5696 000a 04       		.byte	0x4
 5697 000b 00       		.byte	0
 5698 000c 0000     		.2byte	0
 5699 000e 0000     		.2byte	0
 5700 0010 00000000 		.4byte	.LFB56
 5701 0014 22000000 		.4byte	.LFE56-.LFB56
 5702 0018 00000000 		.4byte	.LFB58
 5703 001c 8C010000 		.4byte	.LFE58-.LFB58
 5704 0020 00000000 		.4byte	.LFB59
 5705 0024 4E000000 		.4byte	.LFE59-.LFB59
 5706 0028 00000000 		.4byte	.LFB60
 5707 002c 6E000000 		.4byte	.LFE60-.LFB60
 5708 0030 00000000 		.4byte	.LFB61
 5709 0034 28000000 		.4byte	.LFE61-.LFB61
 5710 0038 00000000 		.4byte	.LFB62
 5711 003c 64000000 		.4byte	.LFE62-.LFB62
 5712 0040 00000000 		.4byte	.LFB63
 5713 0044 38000000 		.4byte	.LFE63-.LFB63
 5714 0048 00000000 		.4byte	.LFB64
 5715 004c 1C000000 		.4byte	.LFE64-.LFB64
 5716 0050 00000000 		.4byte	.LFB65
 5717 0054 48000000 		.4byte	.LFE65-.LFB65
 5718 0058 00000000 		.4byte	.LFB66
 5719 005c 52000000 		.4byte	.LFE66-.LFB66
 5720 0060 00000000 		.4byte	.LFB67
 5721 0064 68000000 		.4byte	.LFE67-.LFB67
 5722 0068 00000000 		.4byte	.LFB68
 5723 006c 68000000 		.4byte	.LFE68-.LFB68
 5724 0070 00000000 		.4byte	.LFB69
 5725 0074 30010000 		.4byte	.LFE69-.LFB69
 5726 0078 00000000 		.4byte	.LFB70
 5727 007c 64020000 		.4byte	.LFE70-.LFB70
 5728 0080 00000000 		.4byte	0
 5729 0084 00000000 		.4byte	0
 5730              		.section	.debug_ranges,"",%progbits
 5731              	.Ldebug_ranges0:
 5732 0000 00000000 		.4byte	.LFB56
 5733 0004 22000000 		.4byte	.LFE56
 5734 0008 00000000 		.4byte	.LFB58
 5735 000c 8C010000 		.4byte	.LFE58
 5736 0010 00000000 		.4byte	.LFB59
 5737 0014 4E000000 		.4byte	.LFE59
 5738 0018 00000000 		.4byte	.LFB60
 5739 001c 6E000000 		.4byte	.LFE60
 5740 0020 00000000 		.4byte	.LFB61
 5741 0024 28000000 		.4byte	.LFE61
ARM GAS  C:\Users\tmj32\AppData\Local\Temp\cci6nv1n.s 			page 112


 5742 0028 00000000 		.4byte	.LFB62
 5743 002c 64000000 		.4byte	.LFE62
 5744 0030 00000000 		.4byte	.LFB63
 5745 0034 38000000 		.4byte	.LFE63
 5746 0038 00000000 		.4byte	.LFB64
 5747 003c 1C000000 		.4byte	.LFE64
 5748 0040 00000000 		.4byte	.LFB65
 5749 0044 48000000 		.4byte	.LFE65
 5750 0048 00000000 		.4byte	.LFB66
 5751 004c 52000000 		.4byte	.LFE66
 5752 0050 00000000 		.4byte	.LFB67
 5753 0054 68000000 		.4byte	.LFE67
 5754 0058 00000000 		.4byte	.LFB68
 5755 005c 68000000 		.4byte	.LFE68
 5756 0060 00000000 		.4byte	.LFB69
 5757 0064 30010000 		.4byte	.LFE69
 5758 0068 00000000 		.4byte	.LFB70
 5759 006c 64020000 		.4byte	.LFE70
 5760 0070 00000000 		.4byte	0
 5761 0074 00000000 		.4byte	0
 5762              		.section	.debug_line,"",%progbits
 5763              	.Ldebug_line0:
 5764 0000 EA060000 		.section	.debug_str,"MS",%progbits,1
 5764      02002804 
 5764      00000201 
 5764      FB0E0D00 
 5764      01010101 
 5765              	.LASF15:
 5766 0000 696E7438 		.ascii	"int8_t\000"
 5766      5F7400
 5767              	.LASF78:
 5768 0007 6C765F6C 		.ascii	"lv_ll_node_t\000"
 5768      6C5F6E6F 
 5768      64655F74 
 5768      00
 5769              	.LASF23:
 5770 0014 6164765F 		.ascii	"adv_w\000"
 5770      7700
 5771              	.LASF234:
 5772 001a 68656164 		.ascii	"header_pr\000"
 5772      65725F70 
 5772      7200
 5773              	.LASF42:
 5774 0024 73697A65 		.ascii	"sizetype\000"
 5774      74797065 
 5774      00
 5775              	.LASF158:
 5776 002d 4C565F4B 		.ascii	"LV_KEY_RIGHT\000"
 5776      45595F52 
 5776      49474854 
 5776      00
 5777              	.LASF39:
 5778 003a 6C765F63 		.ascii	"lv_color32_t\000"
 5778      6F6C6F72 
 5778      33325F74 
 5778      00
 5779              	.LASF241:
ARM GAS  C:\Users\tmj32\AppData\Local\Temp\cci6nv1n.s 			page 113


 5780 0047 63656C6C 		.ascii	"cell\000"
 5780      00
 5781              	.LASF81:
 5782 004c 7461696C 		.ascii	"tail\000"
 5782      00
 5783              	.LASF121:
 5784 0051 4C565F53 		.ascii	"LV_SIGNAL_STYLE_CHG\000"
 5784      49474E41 
 5784      4C5F5354 
 5784      594C455F 
 5784      43484700 
 5785              	.LASF277:
 5786 0065 6C765F73 		.ascii	"lv_spinbox_increment\000"
 5786      70696E62 
 5786      6F785F69 
 5786      6E637265 
 5786      6D656E74 
 5787              	.LASF41:
 5788 007a 6C765F6F 		.ascii	"lv_opa_t\000"
 5788      70615F74 
 5788      00
 5789              	.LASF19:
 5790 0083 696E7433 		.ascii	"int32_t\000"
 5790      325F7400 
 5791              	.LASF285:
 5792 008b 6375725F 		.ascii	"cur_shift_left\000"
 5792      73686966 
 5792      745F6C65 
 5792      667400
 5793              	.LASF66:
 5794 009a 696E7465 		.ascii	"intense\000"
 5794      6E736500 
 5795              	.LASF247:
 5796 00a2 6C6D6574 		.ascii	"lmeter\000"
 5796      657200
 5797              	.LASF129:
 5798 00a9 4C565F53 		.ascii	"LV_SIGNAL_LONG_PRESS\000"
 5798      49474E41 
 5798      4C5F4C4F 
 5798      4E475F50 
 5798      52455353 
 5799              	.LASF58:
 5800 00be 72616469 		.ascii	"radius\000"
 5800      757300
 5801              	.LASF146:
 5802 00c5 6C765F72 		.ascii	"lv_reailgn_t\000"
 5802      6561696C 
 5802      676E5F74 
 5802      00
 5803              	.LASF31:
 5804 00d2 6C696E65 		.ascii	"line_height\000"
 5804      5F686569 
 5804      67687400 
 5805              	.LASF93:
 5806 00de 636C6963 		.ascii	"click\000"
 5806      6B00
 5807              	.LASF139:
ARM GAS  C:\Users\tmj32\AppData\Local\Temp\cci6nv1n.s 			page 114


 5808 00e4 6C765F61 		.ascii	"lv_align_t\000"
 5808      6C69676E 
 5808      5F7400
 5809              	.LASF286:
 5810 00ef 64696769 		.ascii	"digits\000"
 5810      747300
 5811              	.LASF131:
 5812 00f6 4C565F53 		.ascii	"LV_SIGNAL_DRAG_BEGIN\000"
 5812      49474E41 
 5812      4C5F4452 
 5812      41475F42 
 5812      4547494E 
 5813              	.LASF236:
 5814 010b 68696768 		.ascii	"highlighted_days\000"
 5814      6C696768 
 5814      7465645F 
 5814      64617973 
 5814      00
 5815              	.LASF279:
 5816 011c 7369676E 		.ascii	"sign\000"
 5816      00
 5817              	.LASF115:
 5818 0121 6C765F65 		.ascii	"lv_event_t\000"
 5818      76656E74 
 5818      5F7400
 5819              	.LASF175:
 5820 012c 73746174 		.ascii	"state\000"
 5820      6500
 5821              	.LASF180:
 5822 0132 6C656674 		.ascii	"left_ip\000"
 5822      5F697000 
 5823              	.LASF163:
 5824 013a 4C565F4B 		.ascii	"LV_KEY_ENTER\000"
 5824      45595F45 
 5824      4E544552 
 5824      00
 5825              	.LASF188:
 5826 0147 4C565F43 		.ascii	"LV_CURSOR_LINE\000"
 5826      5552534F 
 5826      525F4C49 
 5826      4E4500
 5827              	.LASF215:
 5828 0156 6465635F 		.ascii	"dec_point_pos\000"
 5828      706F696E 
 5828      745F706F 
 5828      7300
 5829              	.LASF75:
 5830 0164 4C565F52 		.ascii	"LV_RES_INV\000"
 5830      45535F49 
 5830      4E5600
 5831              	.LASF125:
 5832 016f 4C565F53 		.ascii	"LV_SIGNAL_PRESSED\000"
 5832      49474E41 
 5832      4C5F5052 
 5832      45535345 
 5832      4400
 5833              	.LASF51:
ARM GAS  C:\Users\tmj32\AppData\Local\Temp\cci6nv1n.s 			page 115


 5834 0181 74797065 		.ascii	"type\000"
 5834      00
 5835              	.LASF203:
 5836 0186 61636361 		.ascii	"accapted_chars\000"
 5836      70746564 
 5836      5F636861 
 5836      727300
 5837              	.LASF173:
 5838 0195 7665725F 		.ascii	"ver_draw\000"
 5838      64726177 
 5838      00
 5839              	.LASF226:
 5840 019e 6C696768 		.ascii	"light\000"
 5840      7400
 5841              	.LASF214:
 5842 01a4 64696769 		.ascii	"digit_count\000"
 5842      745F636F 
 5842      756E7400 
 5843              	.LASF244:
 5844 01b0 636F6E74 		.ascii	"cont\000"
 5844      00
 5845              	.LASF224:
 5846 01b5 7072696D 		.ascii	"prim\000"
 5846      00
 5847              	.LASF250:
 5848 01ba 63686172 		.ascii	"chart\000"
 5848      7400
 5849              	.LASF218:
 5850 01c0 4C565F53 		.ascii	"LV_SPINBOX_STYLE_BG\000"
 5850      50494E42 
 5850      4F585F53 
 5850      54594C45 
 5850      5F424700 
 5851              	.LASF208:
 5852 01d4 6F6E655F 		.ascii	"one_line\000"
 5852      6C696E65 
 5852      00
 5853              	.LASF283:
 5854 01dd 6C765F73 		.ascii	"lv_spinbox_updatevalue\000"
 5854      70696E62 
 5854      6F785F75 
 5854      70646174 
 5854      6576616C 
 5855              	.LASF1:
 5856 01f4 5F5F7569 		.ascii	"__uint8_t\000"
 5856      6E74385F 
 5856      7400
 5857              	.LASF37:
 5858 01fe 616C7068 		.ascii	"alpha\000"
 5858      6100
 5859              	.LASF189:
 5860 0204 4C565F43 		.ascii	"LV_CURSOR_BLOCK\000"
 5860      5552534F 
 5860      525F424C 
 5860      4F434B00 
 5861              	.LASF275:
 5862 0214 6C765F73 		.ascii	"lv_spinbox_step_prev\000"
ARM GAS  C:\Users\tmj32\AppData\Local\Temp\cci6nv1n.s 			page 116


 5862      70696E62 
 5862      6F785F73 
 5862      7465705F 
 5862      70726576 
 5863              	.LASF97:
 5864 0229 68696464 		.ascii	"hidden\000"
 5864      656E00
 5865              	.LASF9:
 5866 0230 6C6F6E67 		.ascii	"long int\000"
 5866      20696E74 
 5866      00
 5867              	.LASF274:
 5868 0239 6E65775F 		.ascii	"new_step\000"
 5868      73746570 
 5868      00
 5869              	.LASF201:
 5870 0242 706C6163 		.ascii	"placeholder\000"
 5870      65686F6C 
 5870      64657200 
 5871              	.LASF259:
 5872 024e 74696C65 		.ascii	"tileview\000"
 5872      76696577 
 5872      00
 5873              	.LASF161:
 5874 0257 4C565F4B 		.ascii	"LV_KEY_DEL\000"
 5874      45595F44 
 5874      454C00
 5875              	.LASF262:
 5876 0262 636F7079 		.ascii	"copy\000"
 5876      00
 5877              	.LASF80:
 5878 0267 68656164 		.ascii	"head\000"
 5878      00
 5879              	.LASF252:
 5880 026c 62746E6D 		.ascii	"btnm\000"
 5880      00
 5881              	.LASF184:
 5882 0271 7363726F 		.ascii	"scroll_prop\000"
 5882      6C6C5F70 
 5882      726F7000 
 5883              	.LASF159:
 5884 027d 4C565F4B 		.ascii	"LV_KEY_LEFT\000"
 5884      45595F4C 
 5884      45465400 
 5885              	.LASF2:
 5886 0289 7369676E 		.ascii	"signed char\000"
 5886      65642063 
 5886      68617200 
 5887              	.LASF16:
 5888 0295 75696E74 		.ascii	"uint8_t\000"
 5888      385F7400 
 5889              	.LASF239:
 5890 029d 746F6461 		.ascii	"today_box\000"
 5890      795F626F 
 5890      7800
 5891              	.LASF223:
 5892 02a7 74676C5F 		.ascii	"tgl_pr\000"
ARM GAS  C:\Users\tmj32\AppData\Local\Temp\cci6nv1n.s 			page 117


 5892      707200
 5893              	.LASF153:
 5894 02ae 6669745F 		.ascii	"fit_top\000"
 5894      746F7000 
 5895              	.LASF284:
 5896 02b6 6275665F 		.ascii	"buf_p\000"
 5896      7000
 5897              	.LASF30:
 5898 02bc 6765745F 		.ascii	"get_glyph_bitmap\000"
 5898      676C7970 
 5898      685F6269 
 5898      746D6170 
 5898      00
 5899              	.LASF181:
 5900 02cd 7363726C 		.ascii	"scrl\000"
 5900      00
 5901              	.LASF35:
 5902 02d2 626C7565 		.ascii	"blue\000"
 5902      00
 5903              	.LASF213:
 5904 02d7 73746570 		.ascii	"step\000"
 5904      00
 5905              	.LASF130:
 5906 02dc 4C565F53 		.ascii	"LV_SIGNAL_LONG_PRESS_REP\000"
 5906      49474E41 
 5906      4C5F4C4F 
 5906      4E475F50 
 5906      52455353 
 5907              	.LASF270:
 5908 02f5 6C765F73 		.ascii	"lv_spinbox_set_padding_left\000"
 5908      70696E62 
 5908      6F785F73 
 5908      65745F70 
 5908      61646469 
 5909              	.LASF221:
 5910 0311 6C765F73 		.ascii	"lv_spinbox_style_t\000"
 5910      70696E62 
 5910      6F785F73 
 5910      74796C65 
 5910      5F7400
 5911              	.LASF3:
 5912 0324 756E7369 		.ascii	"unsigned char\000"
 5912      676E6564 
 5912      20636861 
 5912      7200
 5913              	.LASF123:
 5914 0332 4C565F53 		.ascii	"LV_SIGNAL_REFR_EXT_DRAW_PAD\000"
 5914      49474E41 
 5914      4C5F5245 
 5914      46525F45 
 5914      58545F44 
 5915              	.LASF100:
 5916 034e 64726167 		.ascii	"drag_dir\000"
 5916      5F646972 
 5916      00
 5917              	.LASF232:
 5918 0357 6B6E6F62 		.ascii	"knob_on\000"
ARM GAS  C:\Users\tmj32\AppData\Local\Temp\cci6nv1n.s 			page 118


 5918      5F6F6E00 
 5919              	.LASF26:
 5920 035f 6F66735F 		.ascii	"ofs_x\000"
 5920      7800
 5921              	.LASF27:
 5922 0365 6F66735F 		.ascii	"ofs_y\000"
 5922      7900
 5923              	.LASF162:
 5924 036b 4C565F4B 		.ascii	"LV_KEY_BACKSPACE\000"
 5924      45595F42 
 5924      41434B53 
 5924      50414345 
 5924      00
 5925              	.LASF233:
 5926 037c 68656164 		.ascii	"header\000"
 5926      657200
 5927              	.LASF263:
 5928 0383 6E65775F 		.ascii	"new_spinbox\000"
 5928      7370696E 
 5928      626F7800 
 5929              	.LASF33:
 5930 038f 5F426F6F 		.ascii	"_Bool\000"
 5930      6C00
 5931              	.LASF205:
 5932 0395 7077645F 		.ascii	"pwd_show_time\000"
 5932      73686F77 
 5932      5F74696D 
 5932      6500
 5933              	.LASF138:
 5934 03a3 6C765F73 		.ascii	"lv_signal_cb_t\000"
 5934      69676E61 
 5934      6C5F6362 
 5934      5F7400
 5935              	.LASF260:
 5936 03b2 7461626C 		.ascii	"table\000"
 5936      6500
 5937              	.LASF210:
 5938 03b8 76616C75 		.ascii	"value\000"
 5938      6500
 5939              	.LASF186:
 5940 03be 6C765F70 		.ascii	"lv_page_ext_t\000"
 5940      6167655F 
 5940      6578745F 
 5940      7400
 5941              	.LASF43:
 5942 03cc 63686172 		.ascii	"char\000"
 5942      00
 5943              	.LASF70:
 5944 03d1 626F6479 		.ascii	"body\000"
 5944      00
 5945              	.LASF183:
 5946 03d6 616E696D 		.ascii	"anim_time\000"
 5946      5F74696D 
 5946      6500
 5947              	.LASF142:
 5948 03e0 796F6673 		.ascii	"yofs\000"
 5948      00
ARM GAS  C:\Users\tmj32\AppData\Local\Temp\cci6nv1n.s 			page 119


 5949              	.LASF6:
 5950 03e5 5F5F7569 		.ascii	"__uint16_t\000"
 5950      6E743136 
 5950      5F7400
 5951              	.LASF238:
 5952 03f0 7765656B 		.ascii	"week_box\000"
 5952      5F626F78 
 5952      00
 5953              	.LASF45:
 5954 03f9 6C765F61 		.ascii	"lv_anim_value_t\000"
 5954      6E696D5F 
 5954      76616C75 
 5954      655F7400 
 5955              	.LASF207:
 5956 0409 7077645F 		.ascii	"pwd_mode\000"
 5956      6D6F6465 
 5956      00
 5957              	.LASF187:
 5958 0412 4C565F43 		.ascii	"LV_CURSOR_NONE\000"
 5958      5552534F 
 5958      525F4E4F 
 5958      4E4500
 5959              	.LASF267:
 5960 0421 73657061 		.ascii	"separator_position\000"
 5960      7261746F 
 5960      725F706F 
 5960      73697469 
 5960      6F6E00
 5961              	.LASF194:
 5962 0434 76616C69 		.ascii	"valid_x\000"
 5962      645F7800 
 5963              	.LASF90:
 5964 043c 64657369 		.ascii	"design_cb\000"
 5964      676E5F63 
 5964      6200
 5965              	.LASF134:
 5966 0446 4C565F53 		.ascii	"LV_SIGNAL_DEFOCUS\000"
 5966      49474E41 
 5966      4C5F4445 
 5966      464F4355 
 5966      5300
 5967              	.LASF256:
 5968 0458 64646C69 		.ascii	"ddlist\000"
 5968      737400
 5969              	.LASF272:
 5970 045f 6C765F73 		.ascii	"lv_spinbox_get_value\000"
 5970      70696E62 
 5970      6F785F67 
 5970      65745F76 
 5970      616C7565 
 5971              	.LASF71:
 5972 0474 74657874 		.ascii	"text\000"
 5972      00
 5973              	.LASF198:
 5974 0479 636C6963 		.ascii	"click_pos\000"
 5974      6B5F706F 
 5974      7300
ARM GAS  C:\Users\tmj32\AppData\Local\Temp\cci6nv1n.s 			page 120


 5975              	.LASF72:
 5976 0483 696D6167 		.ascii	"image\000"
 5976      6500
 5977              	.LASF68:
 5978 0489 726F756E 		.ascii	"rounded\000"
 5978      64656400 
 5979              	.LASF95:
 5980 0491 64726167 		.ascii	"drag_throw\000"
 5980      5F746872 
 5980      6F7700
 5981              	.LASF237:
 5982 049c 696E6163 		.ascii	"inactive_days\000"
 5982      74697665 
 5982      5F646179 
 5982      7300
 5983              	.LASF83:
 5984 04aa 6C765F62 		.ascii	"lv_bidi_dir_t\000"
 5984      6964695F 
 5984      6469725F 
 5984      7400
 5985              	.LASF105:
 5986 04b8 6578745F 		.ascii	"ext_draw_pad\000"
 5986      64726177 
 5986      5F706164 
 5986      00
 5987              	.LASF44:
 5988 04c5 6C765F61 		.ascii	"lv_area_t\000"
 5988      7265615F 
 5988      7400
 5989              	.LASF202:
 5990 04cf 7077645F 		.ascii	"pwd_tmp\000"
 5990      746D7000 
 5991              	.LASF269:
 5992 04d7 6C765F73 		.ascii	"lv_spinbox_set_range\000"
 5992      70696E62 
 5992      6F785F73 
 5992      65745F72 
 5992      616E6765 
 5993              	.LASF172:
 5994 04ec 686F725F 		.ascii	"hor_draw\000"
 5994      64726177 
 5994      00
 5995              	.LASF282:
 5996 04f5 6C765F73 		.ascii	"lv_spinbox_set_style\000"
 5996      70696E62 
 5996      6F785F73 
 5996      65745F73 
 5996      74796C65 
 5997              	.LASF53:
 5998 050a 6C656674 		.ascii	"left\000"
 5998      00
 5999              	.LASF111:
 6000 050f 4C565F49 		.ascii	"LV_INDEV_TYPE_ENCODER\000"
 6000      4E444556 
 6000      5F545950 
 6000      455F454E 
 6000      434F4445 
ARM GAS  C:\Users\tmj32\AppData\Local\Temp\cci6nv1n.s 			page 121


 6001              	.LASF106:
 6002 0525 7265616C 		.ascii	"realign\000"
 6002      69676E00 
 6003              	.LASF124:
 6004 052d 4C565F53 		.ascii	"LV_SIGNAL_GET_TYPE\000"
 6004      49474E41 
 6004      4C5F4745 
 6004      545F5459 
 6004      504500
 6005              	.LASF196:
 6006 0540 61726561 		.ascii	"area\000"
 6006      00
 6007              	.LASF185:
 6008 0545 7363726F 		.ascii	"scroll_prop_ip\000"
 6008      6C6C5F70 
 6008      726F705F 
 6008      697000
 6009              	.LASF176:
 6010 0554 656E6162 		.ascii	"enabled\000"
 6010      6C656400 
 6011              	.LASF74:
 6012 055c 6C765F73 		.ascii	"lv_style_t\000"
 6012      74796C65 
 6012      5F7400
 6013              	.LASF55:
 6014 0567 696E6E65 		.ascii	"inner\000"
 6014      7200
 6015              	.LASF11:
 6016 056d 6C6F6E67 		.ascii	"long unsigned int\000"
 6016      20756E73 
 6016      69676E65 
 6016      6420696E 
 6016      7400
 6017              	.LASF166:
 6018 057f 4C565F4B 		.ascii	"LV_KEY_HOME\000"
 6018      45595F48 
 6018      4F4D4500 
 6019              	.LASF268:
 6020 058b 6C765F73 		.ascii	"lv_spinbox_set_step\000"
 6020      70696E62 
 6020      6F785F73 
 6020      65745F73 
 6020      74657000 
 6021              	.LASF225:
 6022 059f 68696E74 		.ascii	"hint\000"
 6022      00
 6023              	.LASF280:
 6024 05a4 70617261 		.ascii	"param\000"
 6024      6D00
 6025              	.LASF73:
 6026 05aa 6C696E65 		.ascii	"line\000"
 6026      00
 6027              	.LASF204:
 6028 05af 6D61785F 		.ascii	"max_length\000"
 6028      6C656E67 
 6028      746800
 6029              	.LASF133:
ARM GAS  C:\Users\tmj32\AppData\Local\Temp\cci6nv1n.s 			page 122


 6030 05ba 4C565F53 		.ascii	"LV_SIGNAL_FOCUS\000"
 6030      49474E41 
 6030      4C5F464F 
 6030      43555300 
 6031              	.LASF246:
 6032 05ca 736C6964 		.ascii	"slider\000"
 6032      657200
 6033              	.LASF295:
 6034 05d1 6C765F73 		.ascii	"lv_spinbox_signal\000"
 6034      70696E62 
 6034      6F785F73 
 6034      69676E61 
 6034      6C00
 6035              	.LASF112:
 6036 05e3 6C765F69 		.ascii	"lv_indev_type_t\000"
 6036      6E646576 
 6036      5F747970 
 6036      655F7400 
 6037              	.LASF136:
 6038 05f3 4C565F53 		.ascii	"LV_SIGNAL_GET_EDITABLE\000"
 6038      49474E41 
 6038      4C5F4745 
 6038      545F4544 
 6038      49544142 
 6039              	.LASF240:
 6040 060a 6F6E656C 		.ascii	"oneline\000"
 6040      696E6500 
 6041              	.LASF110:
 6042 0612 4C565F49 		.ascii	"LV_INDEV_TYPE_BUTTON\000"
 6042      4E444556 
 6042      5F545950 
 6042      455F4255 
 6042      54544F4E 
 6043              	.LASF212:
 6044 0627 72616E67 		.ascii	"range_min\000"
 6044      655F6D69 
 6044      6E00
 6045              	.LASF10:
 6046 0631 5F5F7569 		.ascii	"__uint32_t\000"
 6046      6E743332 
 6046      5F7400
 6047              	.LASF88:
 6048 063c 6576656E 		.ascii	"event_cb\000"
 6048      745F6362 
 6048      00
 6049              	.LASF54:
 6050 0645 72696768 		.ascii	"right\000"
 6050      7400
 6051              	.LASF92:
 6052 064b 7374796C 		.ascii	"style_p\000"
 6052      655F7000 
 6053              	.LASF12:
 6054 0653 6C6F6E67 		.ascii	"long long int\000"
 6054      206C6F6E 
 6054      6720696E 
 6054      7400
 6055              	.LASF294:
ARM GAS  C:\Users\tmj32\AppData\Local\Temp\cci6nv1n.s 			page 123


 6056 0661 433A5C55 		.ascii	"C:\\Users\\tmj32\\Documents\\TCNJ\\Senior_Project\\"
 6056      73657273 
 6056      5C746D6A 
 6056      33325C44 
 6056      6F63756D 
 6057 068e 4F736369 		.ascii	"Oscilloscope_Senior_Project\\tcom_engineering\\embe"
 6057      6C6C6F73 
 6057      636F7065 
 6057      5F53656E 
 6057      696F725F 
 6058 06bf 645F7377 		.ascii	"d_sw\\tcom_app\\tcom_app_psoc6_lvgl6\\tcom_displ_te"
 6058      5C74636F 
 6058      6D5F6170 
 6058      705C7463 
 6058      6F6D5F61 
 6059 06ef 73745F70 		.ascii	"st_psoc6.cydsn\000"
 6059      736F6336 
 6059      2E637964 
 6059      736E00
 6060              	.LASF49:
 6061 06fe 77696474 		.ascii	"width\000"
 6061      6800
 6062              	.LASF135:
 6063 0704 4C565F53 		.ascii	"LV_SIGNAL_CONTROL\000"
 6063      49474E41 
 6063      4C5F434F 
 6063      4E54524F 
 6063      4C00
 6064              	.LASF52:
 6065 0716 626F7474 		.ascii	"bottom\000"
 6065      6F6D00
 6066              	.LASF293:
 6067 071d 2E2E5C2E 		.ascii	"..\\..\\..\\lvgl\\version_6.1.2\\lvgl\\src\\lv_objx"
 6067      2E5C2E2E 
 6067      5C6C7667 
 6067      6C5C7665 
 6067      7273696F 
 6068 0749 5C6C765F 		.ascii	"\\lv_spinbox.c\000"
 6068      7370696E 
 6068      626F782E 
 6068      6300
 6069              	.LASF86:
 6070 0757 6368696C 		.ascii	"child_ll\000"
 6070      645F6C6C 
 6070      00
 6071              	.LASF229:
 6072 0760 696E6469 		.ascii	"indic\000"
 6072      6300
 6073              	.LASF103:
 6074 0766 70726F74 		.ascii	"protect\000"
 6074      65637400 
 6075              	.LASF150:
 6076 076e 6C61796F 		.ascii	"layout\000"
 6076      757400
 6077              	.LASF258:
 6078 0775 74616276 		.ascii	"tabview\000"
 6078      69657700 
ARM GAS  C:\Users\tmj32\AppData\Local\Temp\cci6nv1n.s 			page 124


 6079              	.LASF99:
 6080 077d 70617265 		.ascii	"parent_event\000"
 6080      6E745F65 
 6080      76656E74 
 6080      00
 6081              	.LASF117:
 6082 078a 4C565F53 		.ascii	"LV_SIGNAL_CLEANUP\000"
 6082      49474E41 
 6082      4C5F434C 
 6082      45414E55 
 6082      5000
 6083              	.LASF191:
 6084 079c 4C565F43 		.ascii	"LV_CURSOR_UNDERLINE\000"
 6084      5552534F 
 6084      525F554E 
 6084      4445524C 
 6084      494E4500 
 6085              	.LASF143:
 6086 07b0 616C6967 		.ascii	"align\000"
 6086      6E00
 6087              	.LASF69:
 6088 07b6 676C6173 		.ascii	"glass\000"
 6088      7300
 6089              	.LASF192:
 6090 07bc 4C565F43 		.ascii	"LV_CURSOR_HIDDEN\000"
 6090      5552534F 
 6090      525F4849 
 6090      4444454E 
 6090      00
 6091              	.LASF155:
 6092 07cd 6C765F63 		.ascii	"lv_cont_ext_t\000"
 6092      6F6E745F 
 6092      6578745F 
 6092      7400
 6093              	.LASF14:
 6094 07db 756E7369 		.ascii	"unsigned int\000"
 6094      676E6564 
 6094      20696E74 
 6094      00
 6095              	.LASF118:
 6096 07e8 4C565F53 		.ascii	"LV_SIGNAL_CHILD_CHG\000"
 6096      49474E41 
 6096      4C5F4348 
 6096      494C445F 
 6096      43484700 
 6097              	.LASF195:
 6098 07fc 626C696E 		.ascii	"blink_time\000"
 6098      6B5F7469 
 6098      6D6500
 6099              	.LASF222:
 6100 0807 74676C5F 		.ascii	"tgl_rel\000"
 6100      72656C00 
 6101              	.LASF288:
 6102 080f 696E7444 		.ascii	"intDigits\000"
 6102      69676974 
 6102      7300
 6103              	.LASF144:
ARM GAS  C:\Users\tmj32\AppData\Local\Temp\cci6nv1n.s 			page 125


 6104 0819 6175746F 		.ascii	"auto_realign\000"
 6104      5F726561 
 6104      6C69676E 
 6104      00
 6105              	.LASF271:
 6106 0826 6C765F73 		.ascii	"lv_spinbox_create\000"
 6106      70696E62 
 6106      6F785F63 
 6106      72656174 
 6106      6500
 6107              	.LASF28:
 6108 0838 6C765F66 		.ascii	"lv_font_glyph_dsc_t\000"
 6108      6F6E745F 
 6108      676C7970 
 6108      685F6473 
 6108      635F7400 
 6109              	.LASF255:
 6110 084c 6C697374 		.ascii	"list\000"
 6110      00
 6111              	.LASF273:
 6112 0851 6C765F73 		.ascii	"lv_spinbox_step_next\000"
 6112      70696E62 
 6112      6F785F73 
 6112      7465705F 
 6112      6E657874 
 6113              	.LASF57:
 6114 0866 67726164 		.ascii	"grad_color\000"
 6114      5F636F6C 
 6114      6F7200
 6115              	.LASF151:
 6116 0871 6669745F 		.ascii	"fit_left\000"
 6116      6C656674 
 6116      00
 6117              	.LASF276:
 6118 087a 73746570 		.ascii	"step_limit\000"
 6118      5F6C696D 
 6118      697400
 6119              	.LASF199:
 6120 0885 70616765 		.ascii	"page\000"
 6120      00
 6121              	.LASF231:
 6122 088a 6B6E6F62 		.ascii	"knob_off\000"
 6122      5F6F6666 
 6122      00
 6123              	.LASF248:
 6124 0893 67617567 		.ascii	"gauge\000"
 6124      6500
 6125              	.LASF216:
 6126 0899 64696769 		.ascii	"digit_padding_left\000"
 6126      745F7061 
 6126      6464696E 
 6126      675F6C65 
 6126      667400
 6127              	.LASF164:
 6128 08ac 4C565F4B 		.ascii	"LV_KEY_NEXT\000"
 6128      45595F4E 
 6128      45585400 
ARM GAS  C:\Users\tmj32\AppData\Local\Temp\cci6nv1n.s 			page 126


 6129              	.LASF126:
 6130 08b8 4C565F53 		.ascii	"LV_SIGNAL_PRESSING\000"
 6130      49474E41 
 6130      4C5F5052 
 6130      45535349 
 6130      4E4700
 6131              	.LASF77:
 6132 08cb 6C765F72 		.ascii	"lv_res_t\000"
 6132      65735F74 
 6132      00
 6133              	.LASF22:
 6134 08d4 6C6F6E67 		.ascii	"long double\000"
 6134      20646F75 
 6134      626C6500 
 6135              	.LASF147:
 6136 08e0 6C765F64 		.ascii	"lv_drag_dir_t\000"
 6136      7261675F 
 6136      6469725F 
 6136      7400
 6137              	.LASF169:
 6138 08ee 7374796C 		.ascii	"style\000"
 6138      6500
 6139              	.LASF91:
 6140 08f4 6578745F 		.ascii	"ext_attr\000"
 6140      61747472 
 6140      00
 6141              	.LASF108:
 6142 08fd 4C565F49 		.ascii	"LV_INDEV_TYPE_POINTER\000"
 6142      4E444556 
 6142      5F545950 
 6142      455F504F 
 6142      494E5445 
 6143              	.LASF245:
 6144 0913 696D6762 		.ascii	"imgbtn\000"
 6144      746E00
 6145              	.LASF113:
 6146 091a 6C765F64 		.ascii	"lv_design_mode_t\000"
 6146      65736967 
 6146      6E5F6D6F 
 6146      64655F74 
 6146      00
 6147              	.LASF67:
 6148 092b 73756270 		.ascii	"subpx\000"
 6148      7800
 6149              	.LASF127:
 6150 0931 4C565F53 		.ascii	"LV_SIGNAL_PRESS_LOST\000"
 6150      49474E41 
 6150      4C5F5052 
 6150      4553535F 
 6150      4C4F5354 
 6151              	.LASF167:
 6152 0946 4C565F4B 		.ascii	"LV_KEY_END\000"
 6152      45595F45 
 6152      4E4400
 6153              	.LASF132:
 6154 0951 4C565F53 		.ascii	"LV_SIGNAL_DRAG_END\000"
 6154      49474E41 
ARM GAS  C:\Users\tmj32\AppData\Local\Temp\cci6nv1n.s 			page 127


 6154      4C5F4452 
 6154      41475F45 
 6154      4E4400
 6155              	.LASF219:
 6156 0964 4C565F53 		.ascii	"LV_SPINBOX_STYLE_SB\000"
 6156      50494E42 
 6156      4F585F53 
 6156      54594C45 
 6156      5F534200 
 6157              	.LASF120:
 6158 0978 4C565F53 		.ascii	"LV_SIGNAL_PARENT_SIZE_CHG\000"
 6158      49474E41 
 6158      4C5F5041 
 6158      52454E54 
 6158      5F53495A 
 6159              	.LASF128:
 6160 0992 4C565F53 		.ascii	"LV_SIGNAL_RELEASED\000"
 6160      49474E41 
 6160      4C5F5245 
 6160      4C454153 
 6160      454400
 6161              	.LASF56:
 6162 09a5 6D61696E 		.ascii	"main_color\000"
 6162      5F636F6C 
 6162      6F7200
 6163              	.LASF0:
 6164 09b0 5F5F696E 		.ascii	"__int8_t\000"
 6164      74385F74 
 6164      00
 6165              	.LASF137:
 6166 09b9 6C765F73 		.ascii	"lv_signal_t\000"
 6166      69676E61 
 6166      6C5F7400 
 6167              	.LASF190:
 6168 09c5 4C565F43 		.ascii	"LV_CURSOR_OUTLINE\000"
 6168      5552534F 
 6168      525F4F55 
 6168      544C494E 
 6168      4500
 6169              	.LASF13:
 6170 09d7 6C6F6E67 		.ascii	"long long unsigned int\000"
 6170      206C6F6E 
 6170      6720756E 
 6170      7369676E 
 6170      65642069 
 6171              	.LASF266:
 6172 09ee 6C765F73 		.ascii	"lv_spinbox_set_digit_format\000"
 6172      70696E62 
 6172      6F785F73 
 6172      65745F64 
 6172      69676974 
 6173              	.LASF18:
 6174 0a0a 75696E74 		.ascii	"uint16_t\000"
 6174      31365F74 
 6174      00
 6175              	.LASF76:
 6176 0a13 4C565F52 		.ascii	"LV_RES_OK\000"
ARM GAS  C:\Users\tmj32\AppData\Local\Temp\cci6nv1n.s 			page 128


 6176      45535F4F 
 6176      4B00
 6177              	.LASF171:
 6178 0a1d 7665725F 		.ascii	"ver_area\000"
 6178      61726561 
 6178      00
 6179              	.LASF40:
 6180 0a26 6C765F63 		.ascii	"lv_color_t\000"
 6180      6F6C6F72 
 6180      5F7400
 6181              	.LASF290:
 6182 0a31 616E6365 		.ascii	"ancestor_signal\000"
 6182      73746F72 
 6182      5F736967 
 6182      6E616C00 
 6183              	.LASF291:
 6184 0a41 616E6365 		.ascii	"ancestor_design\000"
 6184      73746F72 
 6184      5F646573 
 6184      69676E00 
 6185              	.LASF109:
 6186 0a51 4C565F49 		.ascii	"LV_INDEV_TYPE_KEYPAD\000"
 6186      4E444556 
 6186      5F545950 
 6186      455F4B45 
 6186      59504144 
 6187              	.LASF157:
 6188 0a66 4C565F4B 		.ascii	"LV_KEY_DOWN\000"
 6188      45595F44 
 6188      4F574E00 
 6189              	.LASF154:
 6190 0a72 6669745F 		.ascii	"fit_bottom\000"
 6190      626F7474 
 6190      6F6D00
 6191              	.LASF160:
 6192 0a7d 4C565F4B 		.ascii	"LV_KEY_ESC\000"
 6192      45595F45 
 6192      534300
 6193              	.LASF292:
 6194 0a88 474E5520 		.ascii	"GNU C11 5.4.1 20160609 (release) [ARM/embedded-5-br"
 6194      43313120 
 6194      352E342E 
 6194      31203230 
 6194      31363036 
 6195 0abb 616E6368 		.ascii	"anch revision 237715] -mcpu=cortex-m4 -mfloat-abi=s"
 6195      20726576 
 6195      6973696F 
 6195      6E203233 
 6195      37373135 
 6196 0aee 6F667466 		.ascii	"oftfp -mfpu=fpv4-sp-d16 -mthumb -g -O0 -ffunction-s"
 6196      70202D6D 
 6196      6670753D 
 6196      66707634 
 6196      2D73702D 
 6197 0b21 65637469 		.ascii	"ections -ffat-lto-objects\000"
 6197      6F6E7320 
 6197      2D666661 
ARM GAS  C:\Users\tmj32\AppData\Local\Temp\cci6nv1n.s 			page 129


 6197      742D6C74 
 6197      6F2D6F62 
 6198              	.LASF261:
 6199 0b3b 6C765F74 		.ascii	"lv_theme_t\000"
 6199      68656D65 
 6199      5F7400
 6200              	.LASF228:
 6201 0b46 6465636F 		.ascii	"decor\000"
 6201      7200
 6202              	.LASF209:
 6203 0b4c 6C765F74 		.ascii	"lv_ta_ext_t\000"
 6203      615F6578 
 6203      745F7400 
 6204              	.LASF4:
 6205 0b58 5F5F696E 		.ascii	"__int16_t\000"
 6205      7431365F 
 6205      7400
 6206              	.LASF243:
 6207 0b62 70616E65 		.ascii	"panel\000"
 6207      6C00
 6208              	.LASF38:
 6209 0b68 66756C6C 		.ascii	"full\000"
 6209      00
 6210              	.LASF177:
 6211 0b6d 746F705F 		.ascii	"top_ip\000"
 6211      697000
 6212              	.LASF48:
 6213 0b74 636F6C6F 		.ascii	"color\000"
 6213      7200
 6214              	.LASF65:
 6215 0b7a 6C696E65 		.ascii	"line_space\000"
 6215      5F737061 
 6215      636500
 6216              	.LASF141:
 6217 0b85 786F6673 		.ascii	"xofs\000"
 6217      00
 6218              	.LASF152:
 6219 0b8a 6669745F 		.ascii	"fit_right\000"
 6219      72696768 
 6219      7400
 6220              	.LASF148:
 6221 0b94 6C765F6F 		.ascii	"lv_obj_t\000"
 6221      626A5F74 
 6221      00
 6222              	.LASF47:
 6223 0b9d 6C765F73 		.ascii	"lv_shadow_type_t\000"
 6223      6861646F 
 6223      775F7479 
 6223      70655F74 
 6223      00
 6224              	.LASF94:
 6225 0bae 64726167 		.ascii	"drag\000"
 6225      00
 6226              	.LASF211:
 6227 0bb3 72616E67 		.ascii	"range_max\000"
 6227      655F6D61 
 6227      7800
ARM GAS  C:\Users\tmj32\AppData\Local\Temp\cci6nv1n.s 			page 130


 6228              	.LASF253:
 6229 0bbd 6D626F78 		.ascii	"mbox\000"
 6229      00
 6230              	.LASF85:
 6231 0bc2 5F6C765F 		.ascii	"_lv_obj_t\000"
 6231      6F626A5F 
 6231      7400
 6232              	.LASF63:
 6233 0bcc 666F6E74 		.ascii	"font\000"
 6233      00
 6234              	.LASF64:
 6235 0bd1 6C657474 		.ascii	"letter_space\000"
 6235      65725F73 
 6235      70616365 
 6235      00
 6236              	.LASF251:
 6237 0bde 63616C65 		.ascii	"calendar\000"
 6237      6E646172 
 6237      00
 6238              	.LASF101:
 6239 0be7 62617365 		.ascii	"base_dir\000"
 6239      5F646972 
 6239      00
 6240              	.LASF179:
 6241 0bf0 72696768 		.ascii	"right_ip\000"
 6241      745F6970 
 6241      00
 6242              	.LASF178:
 6243 0bf9 626F7474 		.ascii	"bottom_ip\000"
 6243      6F6D5F69 
 6243      7000
 6244              	.LASF25:
 6245 0c03 626F785F 		.ascii	"box_h\000"
 6245      6800
 6246              	.LASF165:
 6247 0c09 4C565F4B 		.ascii	"LV_KEY_PREV\000"
 6247      45595F50 
 6247      52455600 
 6248              	.LASF140:
 6249 0c15 62617365 		.ascii	"base\000"
 6249      00
 6250              	.LASF24:
 6251 0c1a 626F785F 		.ascii	"box_w\000"
 6251      7700
 6252              	.LASF5:
 6253 0c20 73686F72 		.ascii	"short int\000"
 6253      7420696E 
 6253      7400
 6254              	.LASF32:
 6255 0c2a 62617365 		.ascii	"base_line\000"
 6255      5F6C696E 
 6255      6500
 6256              	.LASF82:
 6257 0c34 6C765F6C 		.ascii	"lv_ll_t\000"
 6257      6C5F7400 
 6258              	.LASF174:
 6259 0c3c 6D6F6465 		.ascii	"mode\000"
ARM GAS  C:\Users\tmj32\AppData\Local\Temp\cci6nv1n.s 			page 131


 6259      00
 6260              	.LASF17:
 6261 0c41 696E7431 		.ascii	"int16_t\000"
 6261      365F7400 
 6262              	.LASF119:
 6263 0c49 4C565F53 		.ascii	"LV_SIGNAL_CORD_CHG\000"
 6263      49474E41 
 6263      4C5F434F 
 6263      52445F43 
 6263      484700
 6264              	.LASF197:
 6265 0c5c 7478745F 		.ascii	"txt_byte_pos\000"
 6265      62797465 
 6265      5F706F73 
 6265      00
 6266              	.LASF87:
 6267 0c69 636F6F72 		.ascii	"coords\000"
 6267      647300
 6268              	.LASF217:
 6269 0c70 6C765F73 		.ascii	"lv_spinbox_ext_t\000"
 6269      70696E62 
 6269      6F785F65 
 6269      78745F74 
 6269      00
 6270              	.LASF254:
 6271 0c81 7370696E 		.ascii	"spinbox\000"
 6271      626F7800 
 6272              	.LASF98:
 6273 0c89 6F70615F 		.ascii	"opa_scale_en\000"
 6273      7363616C 
 6273      655F656E 
 6273      00
 6274              	.LASF235:
 6275 0c96 6461795F 		.ascii	"day_names\000"
 6275      6E616D65 
 6275      7300
 6276              	.LASF193:
 6277 0ca0 6C765F63 		.ascii	"lv_cursor_type_t\000"
 6277      7572736F 
 6277      725F7479 
 6277      70655F74 
 6277      00
 6278              	.LASF60:
 6279 0cb1 73686164 		.ascii	"shadow\000"
 6279      6F7700
 6280              	.LASF287:
 6281 0cb8 6C7A5F63 		.ascii	"lz_cnt\000"
 6281      6E7400
 6282              	.LASF96:
 6283 0cbf 64726167 		.ascii	"drag_parent\000"
 6283      5F706172 
 6283      656E7400 
 6284              	.LASF278:
 6285 0ccb 6C765F73 		.ascii	"lv_spinbox_decrement\000"
 6285      70696E62 
 6285      6F785F64 
 6285      65637265 
ARM GAS  C:\Users\tmj32\AppData\Local\Temp\cci6nv1n.s 			page 132


 6285      6D656E74 
 6286              	.LASF122:
 6287 0ce0 4C565F53 		.ascii	"LV_SIGNAL_BASE_DIR_CHG\000"
 6287      49474E41 
 6287      4C5F4241 
 6287      53455F44 
 6287      49525F43 
 6288              	.LASF220:
 6289 0cf7 4C565F53 		.ascii	"LV_SPINBOX_STYLE_CURSOR\000"
 6289      50494E42 
 6289      4F585F53 
 6289      54594C45 
 6289      5F435552 
 6290              	.LASF281:
 6291 0d0f 696E6465 		.ascii	"indev_type\000"
 6291      765F7479 
 6291      706500
 6292              	.LASF264:
 6293 0d1a 636F7079 		.ascii	"copy_ext\000"
 6293      5F657874 
 6293      00
 6294              	.LASF242:
 6295 0d23 636F6E74 		.ascii	"content\000"
 6295      656E7400 
 6296              	.LASF61:
 6297 0d2b 70616464 		.ascii	"padding\000"
 6297      696E6700 
 6298              	.LASF89:
 6299 0d33 7369676E 		.ascii	"signal_cb\000"
 6299      616C5F63 
 6299      6200
 6300              	.LASF289:
 6301 0d3d 6375725F 		.ascii	"cur_pos\000"
 6301      706F7300 
 6302              	.LASF20:
 6303 0d45 75696E74 		.ascii	"uint32_t\000"
 6303      33325F74 
 6303      00
 6304              	.LASF227:
 6305 0d4e 6461726B 		.ascii	"dark\000"
 6305      00
 6306              	.LASF36:
 6307 0d53 67726565 		.ascii	"green\000"
 6307      6E00
 6308              	.LASF34:
 6309 0d59 6C765F66 		.ascii	"lv_font_t\000"
 6309      6F6E745F 
 6309      7400
 6310              	.LASF102:
 6311 0d63 72657365 		.ascii	"reserved\000"
 6311      72766564 
 6311      00
 6312              	.LASF7:
 6313 0d6c 73686F72 		.ascii	"short unsigned int\000"
 6313      7420756E 
 6313      7369676E 
 6313      65642069 
ARM GAS  C:\Users\tmj32\AppData\Local\Temp\cci6nv1n.s 			page 133


 6313      6E7400
 6314              	.LASF168:
 6315 0d7f 6C765F73 		.ascii	"lv_sb_mode_t\000"
 6315      625F6D6F 
 6315      64655F74 
 6315      00
 6316              	.LASF21:
 6317 0d8c 6C765F63 		.ascii	"lv_coord_t\000"
 6317      6F6F7264 
 6317      5F7400
 6318              	.LASF107:
 6319 0d97 4C565F49 		.ascii	"LV_INDEV_TYPE_NONE\000"
 6319      4E444556 
 6319      5F545950 
 6319      455F4E4F 
 6319      4E4500
 6320              	.LASF59:
 6321 0daa 626F7264 		.ascii	"border\000"
 6321      657200
 6322              	.LASF200:
 6323 0db1 6C616265 		.ascii	"label\000"
 6323      6C00
 6324              	.LASF29:
 6325 0db7 6765745F 		.ascii	"get_glyph_dsc\000"
 6325      676C7970 
 6325      685F6473 
 6325      6300
 6326              	.LASF8:
 6327 0dc5 5F5F696E 		.ascii	"__int32_t\000"
 6327      7433325F 
 6327      7400
 6328              	.LASF46:
 6329 0dcf 6C765F62 		.ascii	"lv_border_part_t\000"
 6329      6F726465 
 6329      725F7061 
 6329      72745F74 
 6329      00
 6330              	.LASF116:
 6331 0de0 6C765F65 		.ascii	"lv_event_cb_t\000"
 6331      76656E74 
 6331      5F63625F 
 6331      7400
 6332              	.LASF249:
 6333 0dee 7072656C 		.ascii	"preload\000"
 6333      6F616400 
 6334              	.LASF145:
 6335 0df6 6F726967 		.ascii	"origo_align\000"
 6335      6F5F616C 
 6335      69676E00 
 6336              	.LASF230:
 6337 0e02 6B6E6F62 		.ascii	"knob\000"
 6337      00
 6338              	.LASF156:
 6339 0e07 4C565F4B 		.ascii	"LV_KEY_UP\000"
 6339      45595F55 
 6339      5000
 6340              	.LASF170:
ARM GAS  C:\Users\tmj32\AppData\Local\Temp\cci6nv1n.s 			page 134


 6341 0e11 686F725F 		.ascii	"hor_area\000"
 6341      61726561 
 6341      00
 6342              	.LASF62:
 6343 0e1a 73656C5F 		.ascii	"sel_color\000"
 6343      636F6C6F 
 6343      7200
 6344              	.LASF84:
 6345 0e24 5F6C765F 		.ascii	"_lv_font_struct\000"
 6345      666F6E74 
 6345      5F737472 
 6345      75637400 
 6346              	.LASF265:
 6347 0e34 6C765F73 		.ascii	"lv_spinbox_set_value\000"
 6347      70696E62 
 6347      6F785F73 
 6347      65745F76 
 6347      616C7565 
 6348              	.LASF50:
 6349 0e49 70617274 		.ascii	"part\000"
 6349      00
 6350              	.LASF79:
 6351 0e4e 6E5F7369 		.ascii	"n_size\000"
 6351      7A6500
 6352              	.LASF206:
 6353 0e55 63757273 		.ascii	"cursor\000"
 6353      6F7200
 6354              	.LASF149:
 6355 0e5c 6C765F6F 		.ascii	"lv_obj_type_t\000"
 6355      626A5F74 
 6355      7970655F 
 6355      7400
 6356              	.LASF114:
 6357 0e6a 6C765F64 		.ascii	"lv_design_cb_t\000"
 6357      65736967 
 6357      6E5F6362 
 6357      5F7400
 6358              	.LASF182:
 6359 0e79 65646765 		.ascii	"edge_flash\000"
 6359      5F666C61 
 6359      736800
 6360              	.LASF104:
 6361 0e84 6F70615F 		.ascii	"opa_scale\000"
 6361      7363616C 
 6361      6500
 6362              	.LASF257:
 6363 0e8e 726F6C6C 		.ascii	"roller\000"
 6363      657200
 6364              		.ident	"GCC: (GNU Tools for ARM Embedded Processors) 5.4.1 20160609 (release) [ARM/embedded-5-bran
