ARM GAS  C:\Users\tmj32\AppData\Local\Temp\ccSL9kiF.s 			page 1


   1              		.syntax unified
   2              		.cpu cortex-m4
   3              		.eabi_attribute 27, 1
   4              		.fpu fpv4-sp-d16
   5              		.eabi_attribute 20, 1
   6              		.eabi_attribute 21, 1
   7              		.eabi_attribute 23, 3
   8              		.eabi_attribute 24, 1
   9              		.eabi_attribute 25, 1
  10              		.eabi_attribute 26, 1
  11              		.eabi_attribute 30, 6
  12              		.eabi_attribute 34, 1
  13              		.eabi_attribute 18, 4
  14              		.thumb
  15              		.syntax unified
  16              		.file	"lv_style.c"
  17              		.text
  18              	.Ltext0:
  19              		.cfi_sections	.debug_frame
  20              		.section	.text.lv_color_mix,"ax",%progbits
  21              		.align	2
  22              		.thumb
  23              		.thumb_func
  24              		.type	lv_color_mix, %function
  25              	lv_color_mix:
  26              	.LFB5:
  27              		.file 1 "..\\..\\..\\lvgl\\version_6.1.2\\lvgl\\src\\lv_core\\../lv_misc/lv_color.h"
   1:..\..\..\lvgl\version_6.1.2\lvgl\src\lv_core\../lv_misc/lv_color.h **** /**
   2:..\..\..\lvgl\version_6.1.2\lvgl\src\lv_core\../lv_misc/lv_color.h ****  * @file lv_color.h
   3:..\..\..\lvgl\version_6.1.2\lvgl\src\lv_core\../lv_misc/lv_color.h ****  *
   4:..\..\..\lvgl\version_6.1.2\lvgl\src\lv_core\../lv_misc/lv_color.h ****  */
   5:..\..\..\lvgl\version_6.1.2\lvgl\src\lv_core\../lv_misc/lv_color.h **** 
   6:..\..\..\lvgl\version_6.1.2\lvgl\src\lv_core\../lv_misc/lv_color.h **** #ifndef LV_COLOR_H
   7:..\..\..\lvgl\version_6.1.2\lvgl\src\lv_core\../lv_misc/lv_color.h **** #define LV_COLOR_H
   8:..\..\..\lvgl\version_6.1.2\lvgl\src\lv_core\../lv_misc/lv_color.h **** 
   9:..\..\..\lvgl\version_6.1.2\lvgl\src\lv_core\../lv_misc/lv_color.h **** #ifdef __cplusplus
  10:..\..\..\lvgl\version_6.1.2\lvgl\src\lv_core\../lv_misc/lv_color.h **** extern "C" {
  11:..\..\..\lvgl\version_6.1.2\lvgl\src\lv_core\../lv_misc/lv_color.h **** #endif
  12:..\..\..\lvgl\version_6.1.2\lvgl\src\lv_core\../lv_misc/lv_color.h **** 
  13:..\..\..\lvgl\version_6.1.2\lvgl\src\lv_core\../lv_misc/lv_color.h **** /*********************
  14:..\..\..\lvgl\version_6.1.2\lvgl\src\lv_core\../lv_misc/lv_color.h ****  *      INCLUDES
  15:..\..\..\lvgl\version_6.1.2\lvgl\src\lv_core\../lv_misc/lv_color.h ****  *********************/
  16:..\..\..\lvgl\version_6.1.2\lvgl\src\lv_core\../lv_misc/lv_color.h **** #ifdef LV_CONF_INCLUDE_SIMPLE
  17:..\..\..\lvgl\version_6.1.2\lvgl\src\lv_core\../lv_misc/lv_color.h **** #include "lv_conf.h"
  18:..\..\..\lvgl\version_6.1.2\lvgl\src\lv_core\../lv_misc/lv_color.h **** #else
  19:..\..\..\lvgl\version_6.1.2\lvgl\src\lv_core\../lv_misc/lv_color.h **** #include "../../../lv_conf.h"
  20:..\..\..\lvgl\version_6.1.2\lvgl\src\lv_core\../lv_misc/lv_color.h **** #endif
  21:..\..\..\lvgl\version_6.1.2\lvgl\src\lv_core\../lv_misc/lv_color.h **** 
  22:..\..\..\lvgl\version_6.1.2\lvgl\src\lv_core\../lv_misc/lv_color.h **** /*Error checking*/
  23:..\..\..\lvgl\version_6.1.2\lvgl\src\lv_core\../lv_misc/lv_color.h **** #if LV_COLOR_DEPTH == 24
  24:..\..\..\lvgl\version_6.1.2\lvgl\src\lv_core\../lv_misc/lv_color.h **** #error "LV_COLOR_DEPTH  24 is deprecated. Use LV_COLOR_DEPTH  32 instead (lv_conf.h)"
  25:..\..\..\lvgl\version_6.1.2\lvgl\src\lv_core\../lv_misc/lv_color.h **** #endif
  26:..\..\..\lvgl\version_6.1.2\lvgl\src\lv_core\../lv_misc/lv_color.h **** 
  27:..\..\..\lvgl\version_6.1.2\lvgl\src\lv_core\../lv_misc/lv_color.h **** #if LV_COLOR_DEPTH != 32 && LV_COLOR_SCREEN_TRANSP != 0
  28:..\..\..\lvgl\version_6.1.2\lvgl\src\lv_core\../lv_misc/lv_color.h **** #error "LV_COLOR_SCREEN_TRANSP requires LV_COLOR_DEPTH == 32. Set it in lv_conf.h"
  29:..\..\..\lvgl\version_6.1.2\lvgl\src\lv_core\../lv_misc/lv_color.h **** #endif
  30:..\..\..\lvgl\version_6.1.2\lvgl\src\lv_core\../lv_misc/lv_color.h **** 
ARM GAS  C:\Users\tmj32\AppData\Local\Temp\ccSL9kiF.s 			page 2


  31:..\..\..\lvgl\version_6.1.2\lvgl\src\lv_core\../lv_misc/lv_color.h **** #if LV_COLOR_DEPTH != 16 && LV_COLOR_16_SWAP != 0
  32:..\..\..\lvgl\version_6.1.2\lvgl\src\lv_core\../lv_misc/lv_color.h **** #error "LV_COLOR_16_SWAP requires LV_COLOR_DEPTH == 16. Set it in lv_conf.h"
  33:..\..\..\lvgl\version_6.1.2\lvgl\src\lv_core\../lv_misc/lv_color.h **** #endif
  34:..\..\..\lvgl\version_6.1.2\lvgl\src\lv_core\../lv_misc/lv_color.h **** 
  35:..\..\..\lvgl\version_6.1.2\lvgl\src\lv_core\../lv_misc/lv_color.h **** #include <stdint.h>
  36:..\..\..\lvgl\version_6.1.2\lvgl\src\lv_core\../lv_misc/lv_color.h **** 
  37:..\..\..\lvgl\version_6.1.2\lvgl\src\lv_core\../lv_misc/lv_color.h **** /*********************
  38:..\..\..\lvgl\version_6.1.2\lvgl\src\lv_core\../lv_misc/lv_color.h ****  *      DEFINES
  39:..\..\..\lvgl\version_6.1.2\lvgl\src\lv_core\../lv_misc/lv_color.h ****  *********************/
  40:..\..\..\lvgl\version_6.1.2\lvgl\src\lv_core\../lv_misc/lv_color.h **** #define LV_COLOR_WHITE LV_COLOR_MAKE(0xFF, 0xFF, 0xFF)
  41:..\..\..\lvgl\version_6.1.2\lvgl\src\lv_core\../lv_misc/lv_color.h **** #define LV_COLOR_SILVER LV_COLOR_MAKE(0xC0, 0xC0, 0xC0)
  42:..\..\..\lvgl\version_6.1.2\lvgl\src\lv_core\../lv_misc/lv_color.h **** #define LV_COLOR_GRAY LV_COLOR_MAKE(0x80, 0x80, 0x80)
  43:..\..\..\lvgl\version_6.1.2\lvgl\src\lv_core\../lv_misc/lv_color.h **** #define LV_COLOR_BLACK LV_COLOR_MAKE(0x00, 0x00, 0x00)
  44:..\..\..\lvgl\version_6.1.2\lvgl\src\lv_core\../lv_misc/lv_color.h **** #define LV_COLOR_RED LV_COLOR_MAKE(0xFF, 0x00, 0x00)
  45:..\..\..\lvgl\version_6.1.2\lvgl\src\lv_core\../lv_misc/lv_color.h **** #define LV_COLOR_MAROON LV_COLOR_MAKE(0x80, 0x00, 0x00)
  46:..\..\..\lvgl\version_6.1.2\lvgl\src\lv_core\../lv_misc/lv_color.h **** #define LV_COLOR_YELLOW LV_COLOR_MAKE(0xFF, 0xFF, 0x00)
  47:..\..\..\lvgl\version_6.1.2\lvgl\src\lv_core\../lv_misc/lv_color.h **** #define LV_COLOR_OLIVE LV_COLOR_MAKE(0x80, 0x80, 0x00)
  48:..\..\..\lvgl\version_6.1.2\lvgl\src\lv_core\../lv_misc/lv_color.h **** #define LV_COLOR_LIME LV_COLOR_MAKE(0x00, 0xFF, 0x00)
  49:..\..\..\lvgl\version_6.1.2\lvgl\src\lv_core\../lv_misc/lv_color.h **** #define LV_COLOR_GREEN LV_COLOR_MAKE(0x00, 0x80, 0x00)
  50:..\..\..\lvgl\version_6.1.2\lvgl\src\lv_core\../lv_misc/lv_color.h **** #define LV_COLOR_CYAN LV_COLOR_MAKE(0x00, 0xFF, 0xFF)
  51:..\..\..\lvgl\version_6.1.2\lvgl\src\lv_core\../lv_misc/lv_color.h **** #define LV_COLOR_AQUA LV_COLOR_CYAN
  52:..\..\..\lvgl\version_6.1.2\lvgl\src\lv_core\../lv_misc/lv_color.h **** #define LV_COLOR_TEAL LV_COLOR_MAKE(0x00, 0x80, 0x80)
  53:..\..\..\lvgl\version_6.1.2\lvgl\src\lv_core\../lv_misc/lv_color.h **** #define LV_COLOR_BLUE LV_COLOR_MAKE(0x00, 0x00, 0xFF)
  54:..\..\..\lvgl\version_6.1.2\lvgl\src\lv_core\../lv_misc/lv_color.h **** #define LV_COLOR_NAVY LV_COLOR_MAKE(0x00, 0x00, 0x80)
  55:..\..\..\lvgl\version_6.1.2\lvgl\src\lv_core\../lv_misc/lv_color.h **** #define LV_COLOR_MAGENTA LV_COLOR_MAKE(0xFF, 0x00, 0xFF)
  56:..\..\..\lvgl\version_6.1.2\lvgl\src\lv_core\../lv_misc/lv_color.h **** #define LV_COLOR_PURPLE LV_COLOR_MAKE(0x80, 0x00, 0x80)
  57:..\..\..\lvgl\version_6.1.2\lvgl\src\lv_core\../lv_misc/lv_color.h **** #define LV_COLOR_ORANGE LV_COLOR_MAKE(0xFF, 0xA5, 0x00)
  58:..\..\..\lvgl\version_6.1.2\lvgl\src\lv_core\../lv_misc/lv_color.h **** 
  59:..\..\..\lvgl\version_6.1.2\lvgl\src\lv_core\../lv_misc/lv_color.h **** /**
  60:..\..\..\lvgl\version_6.1.2\lvgl\src\lv_core\../lv_misc/lv_color.h ****  * Opacity percentages.
  61:..\..\..\lvgl\version_6.1.2\lvgl\src\lv_core\../lv_misc/lv_color.h ****  */
  62:..\..\..\lvgl\version_6.1.2\lvgl\src\lv_core\../lv_misc/lv_color.h **** enum {
  63:..\..\..\lvgl\version_6.1.2\lvgl\src\lv_core\../lv_misc/lv_color.h ****     LV_OPA_TRANSP = 0,
  64:..\..\..\lvgl\version_6.1.2\lvgl\src\lv_core\../lv_misc/lv_color.h ****     LV_OPA_0      = 0,
  65:..\..\..\lvgl\version_6.1.2\lvgl\src\lv_core\../lv_misc/lv_color.h ****     LV_OPA_10     = 25,
  66:..\..\..\lvgl\version_6.1.2\lvgl\src\lv_core\../lv_misc/lv_color.h ****     LV_OPA_20     = 51,
  67:..\..\..\lvgl\version_6.1.2\lvgl\src\lv_core\../lv_misc/lv_color.h ****     LV_OPA_30     = 76,
  68:..\..\..\lvgl\version_6.1.2\lvgl\src\lv_core\../lv_misc/lv_color.h ****     LV_OPA_40     = 102,
  69:..\..\..\lvgl\version_6.1.2\lvgl\src\lv_core\../lv_misc/lv_color.h ****     LV_OPA_50     = 127,
  70:..\..\..\lvgl\version_6.1.2\lvgl\src\lv_core\../lv_misc/lv_color.h ****     LV_OPA_60     = 153,
  71:..\..\..\lvgl\version_6.1.2\lvgl\src\lv_core\../lv_misc/lv_color.h ****     LV_OPA_70     = 178,
  72:..\..\..\lvgl\version_6.1.2\lvgl\src\lv_core\../lv_misc/lv_color.h ****     LV_OPA_80     = 204,
  73:..\..\..\lvgl\version_6.1.2\lvgl\src\lv_core\../lv_misc/lv_color.h ****     LV_OPA_90     = 229,
  74:..\..\..\lvgl\version_6.1.2\lvgl\src\lv_core\../lv_misc/lv_color.h ****     LV_OPA_100    = 255,
  75:..\..\..\lvgl\version_6.1.2\lvgl\src\lv_core\../lv_misc/lv_color.h ****     LV_OPA_COVER  = 255,
  76:..\..\..\lvgl\version_6.1.2\lvgl\src\lv_core\../lv_misc/lv_color.h **** };
  77:..\..\..\lvgl\version_6.1.2\lvgl\src\lv_core\../lv_misc/lv_color.h **** 
  78:..\..\..\lvgl\version_6.1.2\lvgl\src\lv_core\../lv_misc/lv_color.h **** #define LV_OPA_MIN 16  /*Opacities below this will be transparent*/
  79:..\..\..\lvgl\version_6.1.2\lvgl\src\lv_core\../lv_misc/lv_color.h **** #define LV_OPA_MAX 251 /*Opacities above this will fully cover*/
  80:..\..\..\lvgl\version_6.1.2\lvgl\src\lv_core\../lv_misc/lv_color.h **** 
  81:..\..\..\lvgl\version_6.1.2\lvgl\src\lv_core\../lv_misc/lv_color.h **** #if LV_COLOR_DEPTH == 1
  82:..\..\..\lvgl\version_6.1.2\lvgl\src\lv_core\../lv_misc/lv_color.h **** #define LV_COLOR_SIZE 8
  83:..\..\..\lvgl\version_6.1.2\lvgl\src\lv_core\../lv_misc/lv_color.h **** #elif LV_COLOR_DEPTH == 8
  84:..\..\..\lvgl\version_6.1.2\lvgl\src\lv_core\../lv_misc/lv_color.h **** #define LV_COLOR_SIZE 8
  85:..\..\..\lvgl\version_6.1.2\lvgl\src\lv_core\../lv_misc/lv_color.h **** #elif LV_COLOR_DEPTH == 16
  86:..\..\..\lvgl\version_6.1.2\lvgl\src\lv_core\../lv_misc/lv_color.h **** #define LV_COLOR_SIZE 16
  87:..\..\..\lvgl\version_6.1.2\lvgl\src\lv_core\../lv_misc/lv_color.h **** #elif LV_COLOR_DEPTH == 32
ARM GAS  C:\Users\tmj32\AppData\Local\Temp\ccSL9kiF.s 			page 3


  88:..\..\..\lvgl\version_6.1.2\lvgl\src\lv_core\../lv_misc/lv_color.h **** #define LV_COLOR_SIZE 32
  89:..\..\..\lvgl\version_6.1.2\lvgl\src\lv_core\../lv_misc/lv_color.h **** #else
  90:..\..\..\lvgl\version_6.1.2\lvgl\src\lv_core\../lv_misc/lv_color.h **** #error "Invalid LV_COLOR_DEPTH in lv_conf.h! Set it to 1, 8, 16 or 32!"
  91:..\..\..\lvgl\version_6.1.2\lvgl\src\lv_core\../lv_misc/lv_color.h **** #endif
  92:..\..\..\lvgl\version_6.1.2\lvgl\src\lv_core\../lv_misc/lv_color.h **** 
  93:..\..\..\lvgl\version_6.1.2\lvgl\src\lv_core\../lv_misc/lv_color.h **** /*---------------------------------------
  94:..\..\..\lvgl\version_6.1.2\lvgl\src\lv_core\../lv_misc/lv_color.h ****  * Macros for all existing  color depths
  95:..\..\..\lvgl\version_6.1.2\lvgl\src\lv_core\../lv_misc/lv_color.h ****  * to set/get values of the color channels
  96:..\..\..\lvgl\version_6.1.2\lvgl\src\lv_core\../lv_misc/lv_color.h ****  *------------------------------------------*/
  97:..\..\..\lvgl\version_6.1.2\lvgl\src\lv_core\../lv_misc/lv_color.h **** # define LV_COLOR_SET_R1(c, v) (c).ch.red = (uint8_t)((v) & 0x1);
  98:..\..\..\lvgl\version_6.1.2\lvgl\src\lv_core\../lv_misc/lv_color.h **** # define LV_COLOR_SET_G1(c, v) (c).ch.green = (uint8_t)((v) & 0x1);
  99:..\..\..\lvgl\version_6.1.2\lvgl\src\lv_core\../lv_misc/lv_color.h **** # define LV_COLOR_SET_B1(c, v) (c).ch.blue = (uint8_t)((v) & 0x1);
 100:..\..\..\lvgl\version_6.1.2\lvgl\src\lv_core\../lv_misc/lv_color.h **** # define LV_COLOR_SET_A1(c, v)
 101:..\..\..\lvgl\version_6.1.2\lvgl\src\lv_core\../lv_misc/lv_color.h **** 
 102:..\..\..\lvgl\version_6.1.2\lvgl\src\lv_core\../lv_misc/lv_color.h **** # define LV_COLOR_GET_R1(c) (c).ch.red
 103:..\..\..\lvgl\version_6.1.2\lvgl\src\lv_core\../lv_misc/lv_color.h **** # define LV_COLOR_GET_G1(c) (c).ch.green
 104:..\..\..\lvgl\version_6.1.2\lvgl\src\lv_core\../lv_misc/lv_color.h **** # define LV_COLOR_GET_B1(c) (c).ch.blue
 105:..\..\..\lvgl\version_6.1.2\lvgl\src\lv_core\../lv_misc/lv_color.h **** # define LV_COLOR_GET_A1(c) 1
 106:..\..\..\lvgl\version_6.1.2\lvgl\src\lv_core\../lv_misc/lv_color.h **** 
 107:..\..\..\lvgl\version_6.1.2\lvgl\src\lv_core\../lv_misc/lv_color.h **** # define LV_COLOR_SET_R8(c, v) (c).ch.red = (uint8_t)(v) & 0x7U;
 108:..\..\..\lvgl\version_6.1.2\lvgl\src\lv_core\../lv_misc/lv_color.h **** # define LV_COLOR_SET_G8(c, v) (c).ch.green = (uint8_t)(v) & 0x7U;
 109:..\..\..\lvgl\version_6.1.2\lvgl\src\lv_core\../lv_misc/lv_color.h **** # define LV_COLOR_SET_B8(c, v) (c).ch.blue = (uint8_t)(v) & 0x3U;
 110:..\..\..\lvgl\version_6.1.2\lvgl\src\lv_core\../lv_misc/lv_color.h **** # define LV_COLOR_SET_A8(c, v) do {} while(0)
 111:..\..\..\lvgl\version_6.1.2\lvgl\src\lv_core\../lv_misc/lv_color.h **** 
 112:..\..\..\lvgl\version_6.1.2\lvgl\src\lv_core\../lv_misc/lv_color.h **** # define LV_COLOR_GET_R8(c) (c).ch.red
 113:..\..\..\lvgl\version_6.1.2\lvgl\src\lv_core\../lv_misc/lv_color.h **** # define LV_COLOR_GET_G8(c) (c).ch.green
 114:..\..\..\lvgl\version_6.1.2\lvgl\src\lv_core\../lv_misc/lv_color.h **** # define LV_COLOR_GET_B8(c) (c).ch.blue
 115:..\..\..\lvgl\version_6.1.2\lvgl\src\lv_core\../lv_misc/lv_color.h **** # define LV_COLOR_GET_A8(c) 0xFF
 116:..\..\..\lvgl\version_6.1.2\lvgl\src\lv_core\../lv_misc/lv_color.h **** 
 117:..\..\..\lvgl\version_6.1.2\lvgl\src\lv_core\../lv_misc/lv_color.h **** # define LV_COLOR_SET_R16(c, v) (c).ch.red = (uint8_t)(v) & 0x1FU;
 118:..\..\..\lvgl\version_6.1.2\lvgl\src\lv_core\../lv_misc/lv_color.h **** # define LV_COLOR_SET_G16(c, v) (c).ch.green = (uint8_t)(v) & 0x3FU;
 119:..\..\..\lvgl\version_6.1.2\lvgl\src\lv_core\../lv_misc/lv_color.h **** # define LV_COLOR_SET_G16_SWAP(c, v) {(c).ch.green_h = (uint8_t)(((v) >> 3) & 0x7); (c).ch.green_l 
 120:..\..\..\lvgl\version_6.1.2\lvgl\src\lv_core\../lv_misc/lv_color.h **** # define LV_COLOR_SET_B16(c, v) (c).ch.blue = (uint8_t)(v) & 0x1FU;
 121:..\..\..\lvgl\version_6.1.2\lvgl\src\lv_core\../lv_misc/lv_color.h **** # define LV_COLOR_SET_A16(c, v) do {} while(0)
 122:..\..\..\lvgl\version_6.1.2\lvgl\src\lv_core\../lv_misc/lv_color.h **** 
 123:..\..\..\lvgl\version_6.1.2\lvgl\src\lv_core\../lv_misc/lv_color.h **** # define LV_COLOR_GET_R16(c) (c).ch.red
 124:..\..\..\lvgl\version_6.1.2\lvgl\src\lv_core\../lv_misc/lv_color.h **** # define LV_COLOR_GET_G16(c) (c).ch.green
 125:..\..\..\lvgl\version_6.1.2\lvgl\src\lv_core\../lv_misc/lv_color.h **** # define LV_COLOR_GET_G16_SWAP(c) (((c).ch.green_h << 3) + (c).ch.green_l)
 126:..\..\..\lvgl\version_6.1.2\lvgl\src\lv_core\../lv_misc/lv_color.h **** # define LV_COLOR_GET_B16(c) (c).ch.blue
 127:..\..\..\lvgl\version_6.1.2\lvgl\src\lv_core\../lv_misc/lv_color.h **** # define LV_COLOR_GET_A16(c) 0xFF
 128:..\..\..\lvgl\version_6.1.2\lvgl\src\lv_core\../lv_misc/lv_color.h **** 
 129:..\..\..\lvgl\version_6.1.2\lvgl\src\lv_core\../lv_misc/lv_color.h **** # define LV_COLOR_SET_R32(c, v) (c).ch.red = (uint32_t)((v) & 0xFF);
 130:..\..\..\lvgl\version_6.1.2\lvgl\src\lv_core\../lv_misc/lv_color.h **** # define LV_COLOR_SET_G32(c, v) (c).ch.green = (uint32_t)((v) & 0xFF);
 131:..\..\..\lvgl\version_6.1.2\lvgl\src\lv_core\../lv_misc/lv_color.h **** # define LV_COLOR_SET_B32(c, v) (c).ch.blue = (uint32_t)((v) & 0xFF);
 132:..\..\..\lvgl\version_6.1.2\lvgl\src\lv_core\../lv_misc/lv_color.h **** # define LV_COLOR_SET_A32(c, v) (c).ch.alpha = (uint32_t)((v) & 0xFF);
 133:..\..\..\lvgl\version_6.1.2\lvgl\src\lv_core\../lv_misc/lv_color.h **** 
 134:..\..\..\lvgl\version_6.1.2\lvgl\src\lv_core\../lv_misc/lv_color.h **** # define LV_COLOR_GET_R32(c) (c).ch.red
 135:..\..\..\lvgl\version_6.1.2\lvgl\src\lv_core\../lv_misc/lv_color.h **** # define LV_COLOR_GET_G32(c) (c).ch.green
 136:..\..\..\lvgl\version_6.1.2\lvgl\src\lv_core\../lv_misc/lv_color.h **** # define LV_COLOR_GET_B32(c) (c).ch.blue
 137:..\..\..\lvgl\version_6.1.2\lvgl\src\lv_core\../lv_misc/lv_color.h **** # define LV_COLOR_GET_A32(c) (c).ch.alpha
 138:..\..\..\lvgl\version_6.1.2\lvgl\src\lv_core\../lv_misc/lv_color.h **** 
 139:..\..\..\lvgl\version_6.1.2\lvgl\src\lv_core\../lv_misc/lv_color.h **** 
 140:..\..\..\lvgl\version_6.1.2\lvgl\src\lv_core\../lv_misc/lv_color.h **** /*---------------------------------------
 141:..\..\..\lvgl\version_6.1.2\lvgl\src\lv_core\../lv_misc/lv_color.h ****  * Macros for the current color depth
 142:..\..\..\lvgl\version_6.1.2\lvgl\src\lv_core\../lv_misc/lv_color.h ****  * to set/get values of the color channels
 143:..\..\..\lvgl\version_6.1.2\lvgl\src\lv_core\../lv_misc/lv_color.h ****  *------------------------------------------*/
 144:..\..\..\lvgl\version_6.1.2\lvgl\src\lv_core\../lv_misc/lv_color.h **** #if LV_COLOR_DEPTH == 1
ARM GAS  C:\Users\tmj32\AppData\Local\Temp\ccSL9kiF.s 			page 4


 145:..\..\..\lvgl\version_6.1.2\lvgl\src\lv_core\../lv_misc/lv_color.h **** # define LV_COLOR_SET_R(c, v) LV_COLOR_SET_R1(c,v)
 146:..\..\..\lvgl\version_6.1.2\lvgl\src\lv_core\../lv_misc/lv_color.h **** # define LV_COLOR_SET_G(c, v) LV_COLOR_SET_G1(c,v)
 147:..\..\..\lvgl\version_6.1.2\lvgl\src\lv_core\../lv_misc/lv_color.h **** # define LV_COLOR_SET_B(c, v) LV_COLOR_SET_B1(c,v)
 148:..\..\..\lvgl\version_6.1.2\lvgl\src\lv_core\../lv_misc/lv_color.h **** # define LV_COLOR_SET_A(c, v) LV_COLOR_SET_A1(c,v)
 149:..\..\..\lvgl\version_6.1.2\lvgl\src\lv_core\../lv_misc/lv_color.h **** 
 150:..\..\..\lvgl\version_6.1.2\lvgl\src\lv_core\../lv_misc/lv_color.h **** # define LV_COLOR_GET_R(c) LV_COLOR_GET_R1(c)
 151:..\..\..\lvgl\version_6.1.2\lvgl\src\lv_core\../lv_misc/lv_color.h **** # define LV_COLOR_GET_G(c) LV_COLOR_GET_G1(c)
 152:..\..\..\lvgl\version_6.1.2\lvgl\src\lv_core\../lv_misc/lv_color.h **** # define LV_COLOR_GET_B(c) LV_COLOR_GET_B1(c)
 153:..\..\..\lvgl\version_6.1.2\lvgl\src\lv_core\../lv_misc/lv_color.h **** # define LV_COLOR_GET_A(c) LV_COLOR_GET_A1(c)
 154:..\..\..\lvgl\version_6.1.2\lvgl\src\lv_core\../lv_misc/lv_color.h **** 
 155:..\..\..\lvgl\version_6.1.2\lvgl\src\lv_core\../lv_misc/lv_color.h **** #elif LV_COLOR_DEPTH == 8
 156:..\..\..\lvgl\version_6.1.2\lvgl\src\lv_core\../lv_misc/lv_color.h **** # define LV_COLOR_SET_R(c, v) LV_COLOR_SET_R8(c,v)
 157:..\..\..\lvgl\version_6.1.2\lvgl\src\lv_core\../lv_misc/lv_color.h **** # define LV_COLOR_SET_G(c, v) LV_COLOR_SET_G8(c,v)
 158:..\..\..\lvgl\version_6.1.2\lvgl\src\lv_core\../lv_misc/lv_color.h **** # define LV_COLOR_SET_B(c, v) LV_COLOR_SET_B8(c,v)
 159:..\..\..\lvgl\version_6.1.2\lvgl\src\lv_core\../lv_misc/lv_color.h **** # define LV_COLOR_SET_A(c, v) LV_COLOR_SET_A8(c,v)
 160:..\..\..\lvgl\version_6.1.2\lvgl\src\lv_core\../lv_misc/lv_color.h **** 
 161:..\..\..\lvgl\version_6.1.2\lvgl\src\lv_core\../lv_misc/lv_color.h **** # define LV_COLOR_GET_R(c) LV_COLOR_GET_R8(c)
 162:..\..\..\lvgl\version_6.1.2\lvgl\src\lv_core\../lv_misc/lv_color.h **** # define LV_COLOR_GET_G(c) LV_COLOR_GET_G8(c)
 163:..\..\..\lvgl\version_6.1.2\lvgl\src\lv_core\../lv_misc/lv_color.h **** # define LV_COLOR_GET_B(c) LV_COLOR_GET_B8(c)
 164:..\..\..\lvgl\version_6.1.2\lvgl\src\lv_core\../lv_misc/lv_color.h **** # define LV_COLOR_GET_A(c) LV_COLOR_GET_A8(c)
 165:..\..\..\lvgl\version_6.1.2\lvgl\src\lv_core\../lv_misc/lv_color.h **** 
 166:..\..\..\lvgl\version_6.1.2\lvgl\src\lv_core\../lv_misc/lv_color.h **** #elif LV_COLOR_DEPTH == 16
 167:..\..\..\lvgl\version_6.1.2\lvgl\src\lv_core\../lv_misc/lv_color.h **** # define LV_COLOR_SET_R(c, v) LV_COLOR_SET_R16(c,v)
 168:..\..\..\lvgl\version_6.1.2\lvgl\src\lv_core\../lv_misc/lv_color.h **** # if LV_COLOR_16_SWAP == 0
 169:..\..\..\lvgl\version_6.1.2\lvgl\src\lv_core\../lv_misc/lv_color.h **** #   define LV_COLOR_SET_G(c, v) LV_COLOR_SET_G16(c,v)
 170:..\..\..\lvgl\version_6.1.2\lvgl\src\lv_core\../lv_misc/lv_color.h **** # else
 171:..\..\..\lvgl\version_6.1.2\lvgl\src\lv_core\../lv_misc/lv_color.h **** #   define LV_COLOR_SET_G(c, v) LV_COLOR_SET_G16_SWAP(c,v)
 172:..\..\..\lvgl\version_6.1.2\lvgl\src\lv_core\../lv_misc/lv_color.h **** # endif
 173:..\..\..\lvgl\version_6.1.2\lvgl\src\lv_core\../lv_misc/lv_color.h **** # define LV_COLOR_SET_B(c, v) LV_COLOR_SET_B16(c,v)
 174:..\..\..\lvgl\version_6.1.2\lvgl\src\lv_core\../lv_misc/lv_color.h **** # define LV_COLOR_SET_A(c, v) LV_COLOR_SET_A16(c,v)
 175:..\..\..\lvgl\version_6.1.2\lvgl\src\lv_core\../lv_misc/lv_color.h **** 
 176:..\..\..\lvgl\version_6.1.2\lvgl\src\lv_core\../lv_misc/lv_color.h **** # define LV_COLOR_GET_R(c) LV_COLOR_GET_R16(c)
 177:..\..\..\lvgl\version_6.1.2\lvgl\src\lv_core\../lv_misc/lv_color.h **** # if LV_COLOR_16_SWAP == 0
 178:..\..\..\lvgl\version_6.1.2\lvgl\src\lv_core\../lv_misc/lv_color.h **** #   define LV_COLOR_GET_G(c) LV_COLOR_GET_G16(c)
 179:..\..\..\lvgl\version_6.1.2\lvgl\src\lv_core\../lv_misc/lv_color.h **** # else
 180:..\..\..\lvgl\version_6.1.2\lvgl\src\lv_core\../lv_misc/lv_color.h **** #   define LV_COLOR_GET_G(c) LV_COLOR_GET_G16_SWAP(c)
 181:..\..\..\lvgl\version_6.1.2\lvgl\src\lv_core\../lv_misc/lv_color.h **** # endif
 182:..\..\..\lvgl\version_6.1.2\lvgl\src\lv_core\../lv_misc/lv_color.h **** # define LV_COLOR_GET_B(c)   LV_COLOR_GET_B16(c)
 183:..\..\..\lvgl\version_6.1.2\lvgl\src\lv_core\../lv_misc/lv_color.h **** # define LV_COLOR_GET_A(c)   LV_COLOR_GET_A16(c)
 184:..\..\..\lvgl\version_6.1.2\lvgl\src\lv_core\../lv_misc/lv_color.h **** 
 185:..\..\..\lvgl\version_6.1.2\lvgl\src\lv_core\../lv_misc/lv_color.h **** #elif LV_COLOR_DEPTH == 32
 186:..\..\..\lvgl\version_6.1.2\lvgl\src\lv_core\../lv_misc/lv_color.h **** # define LV_COLOR_SET_R(c, v) LV_COLOR_SET_R32(c,v)
 187:..\..\..\lvgl\version_6.1.2\lvgl\src\lv_core\../lv_misc/lv_color.h **** # define LV_COLOR_SET_G(c, v) LV_COLOR_SET_G32(c,v)
 188:..\..\..\lvgl\version_6.1.2\lvgl\src\lv_core\../lv_misc/lv_color.h **** # define LV_COLOR_SET_B(c, v) LV_COLOR_SET_B32(c,v)
 189:..\..\..\lvgl\version_6.1.2\lvgl\src\lv_core\../lv_misc/lv_color.h **** # define LV_COLOR_SET_A(c, v) LV_COLOR_SET_A32(c,v)
 190:..\..\..\lvgl\version_6.1.2\lvgl\src\lv_core\../lv_misc/lv_color.h **** 
 191:..\..\..\lvgl\version_6.1.2\lvgl\src\lv_core\../lv_misc/lv_color.h **** # define LV_COLOR_GET_R(c) LV_COLOR_GET_R32(c)
 192:..\..\..\lvgl\version_6.1.2\lvgl\src\lv_core\../lv_misc/lv_color.h **** # define LV_COLOR_GET_G(c) LV_COLOR_GET_G32(c)
 193:..\..\..\lvgl\version_6.1.2\lvgl\src\lv_core\../lv_misc/lv_color.h **** # define LV_COLOR_GET_B(c) LV_COLOR_GET_B32(c)
 194:..\..\..\lvgl\version_6.1.2\lvgl\src\lv_core\../lv_misc/lv_color.h **** # define LV_COLOR_GET_A(c) LV_COLOR_GET_A32(c)
 195:..\..\..\lvgl\version_6.1.2\lvgl\src\lv_core\../lv_misc/lv_color.h **** #endif
 196:..\..\..\lvgl\version_6.1.2\lvgl\src\lv_core\../lv_misc/lv_color.h **** 
 197:..\..\..\lvgl\version_6.1.2\lvgl\src\lv_core\../lv_misc/lv_color.h **** /**********************
 198:..\..\..\lvgl\version_6.1.2\lvgl\src\lv_core\../lv_misc/lv_color.h ****  *      TYPEDEFS
 199:..\..\..\lvgl\version_6.1.2\lvgl\src\lv_core\../lv_misc/lv_color.h ****  **********************/
 200:..\..\..\lvgl\version_6.1.2\lvgl\src\lv_core\../lv_misc/lv_color.h **** 
 201:..\..\..\lvgl\version_6.1.2\lvgl\src\lv_core\../lv_misc/lv_color.h **** typedef union
ARM GAS  C:\Users\tmj32\AppData\Local\Temp\ccSL9kiF.s 			page 5


 202:..\..\..\lvgl\version_6.1.2\lvgl\src\lv_core\../lv_misc/lv_color.h **** {
 203:..\..\..\lvgl\version_6.1.2\lvgl\src\lv_core\../lv_misc/lv_color.h ****     struct
 204:..\..\..\lvgl\version_6.1.2\lvgl\src\lv_core\../lv_misc/lv_color.h ****     {
 205:..\..\..\lvgl\version_6.1.2\lvgl\src\lv_core\../lv_misc/lv_color.h ****         uint8_t blue : 1;
 206:..\..\..\lvgl\version_6.1.2\lvgl\src\lv_core\../lv_misc/lv_color.h ****         uint8_t green : 1;
 207:..\..\..\lvgl\version_6.1.2\lvgl\src\lv_core\../lv_misc/lv_color.h ****         uint8_t red : 1;
 208:..\..\..\lvgl\version_6.1.2\lvgl\src\lv_core\../lv_misc/lv_color.h ****     } ch;
 209:..\..\..\lvgl\version_6.1.2\lvgl\src\lv_core\../lv_misc/lv_color.h ****     uint8_t full;
 210:..\..\..\lvgl\version_6.1.2\lvgl\src\lv_core\../lv_misc/lv_color.h **** } lv_color1_t;
 211:..\..\..\lvgl\version_6.1.2\lvgl\src\lv_core\../lv_misc/lv_color.h **** 
 212:..\..\..\lvgl\version_6.1.2\lvgl\src\lv_core\../lv_misc/lv_color.h **** typedef union
 213:..\..\..\lvgl\version_6.1.2\lvgl\src\lv_core\../lv_misc/lv_color.h **** {
 214:..\..\..\lvgl\version_6.1.2\lvgl\src\lv_core\../lv_misc/lv_color.h ****     struct
 215:..\..\..\lvgl\version_6.1.2\lvgl\src\lv_core\../lv_misc/lv_color.h ****     {
 216:..\..\..\lvgl\version_6.1.2\lvgl\src\lv_core\../lv_misc/lv_color.h ****         uint8_t blue : 2;
 217:..\..\..\lvgl\version_6.1.2\lvgl\src\lv_core\../lv_misc/lv_color.h ****         uint8_t green : 3;
 218:..\..\..\lvgl\version_6.1.2\lvgl\src\lv_core\../lv_misc/lv_color.h ****         uint8_t red : 3;
 219:..\..\..\lvgl\version_6.1.2\lvgl\src\lv_core\../lv_misc/lv_color.h ****     } ch;
 220:..\..\..\lvgl\version_6.1.2\lvgl\src\lv_core\../lv_misc/lv_color.h ****     uint8_t full;
 221:..\..\..\lvgl\version_6.1.2\lvgl\src\lv_core\../lv_misc/lv_color.h **** } lv_color8_t;
 222:..\..\..\lvgl\version_6.1.2\lvgl\src\lv_core\../lv_misc/lv_color.h **** 
 223:..\..\..\lvgl\version_6.1.2\lvgl\src\lv_core\../lv_misc/lv_color.h **** typedef union
 224:..\..\..\lvgl\version_6.1.2\lvgl\src\lv_core\../lv_misc/lv_color.h **** {
 225:..\..\..\lvgl\version_6.1.2\lvgl\src\lv_core\../lv_misc/lv_color.h ****     struct
 226:..\..\..\lvgl\version_6.1.2\lvgl\src\lv_core\../lv_misc/lv_color.h ****     {
 227:..\..\..\lvgl\version_6.1.2\lvgl\src\lv_core\../lv_misc/lv_color.h **** #if LV_COLOR_16_SWAP == 0
 228:..\..\..\lvgl\version_6.1.2\lvgl\src\lv_core\../lv_misc/lv_color.h ****         uint16_t blue : 5;
 229:..\..\..\lvgl\version_6.1.2\lvgl\src\lv_core\../lv_misc/lv_color.h ****         uint16_t green : 6;
 230:..\..\..\lvgl\version_6.1.2\lvgl\src\lv_core\../lv_misc/lv_color.h ****         uint16_t red : 5;
 231:..\..\..\lvgl\version_6.1.2\lvgl\src\lv_core\../lv_misc/lv_color.h **** #else
 232:..\..\..\lvgl\version_6.1.2\lvgl\src\lv_core\../lv_misc/lv_color.h ****         uint16_t green_h : 3;
 233:..\..\..\lvgl\version_6.1.2\lvgl\src\lv_core\../lv_misc/lv_color.h ****         uint16_t red : 5;
 234:..\..\..\lvgl\version_6.1.2\lvgl\src\lv_core\../lv_misc/lv_color.h ****         uint16_t blue : 5;
 235:..\..\..\lvgl\version_6.1.2\lvgl\src\lv_core\../lv_misc/lv_color.h ****         uint16_t green_l : 3;
 236:..\..\..\lvgl\version_6.1.2\lvgl\src\lv_core\../lv_misc/lv_color.h **** #endif
 237:..\..\..\lvgl\version_6.1.2\lvgl\src\lv_core\../lv_misc/lv_color.h ****     } ch;
 238:..\..\..\lvgl\version_6.1.2\lvgl\src\lv_core\../lv_misc/lv_color.h ****     uint16_t full;
 239:..\..\..\lvgl\version_6.1.2\lvgl\src\lv_core\../lv_misc/lv_color.h **** } lv_color16_t;
 240:..\..\..\lvgl\version_6.1.2\lvgl\src\lv_core\../lv_misc/lv_color.h **** 
 241:..\..\..\lvgl\version_6.1.2\lvgl\src\lv_core\../lv_misc/lv_color.h **** typedef union
 242:..\..\..\lvgl\version_6.1.2\lvgl\src\lv_core\../lv_misc/lv_color.h **** {
 243:..\..\..\lvgl\version_6.1.2\lvgl\src\lv_core\../lv_misc/lv_color.h ****     struct
 244:..\..\..\lvgl\version_6.1.2\lvgl\src\lv_core\../lv_misc/lv_color.h ****     {
 245:..\..\..\lvgl\version_6.1.2\lvgl\src\lv_core\../lv_misc/lv_color.h ****         uint8_t blue;
 246:..\..\..\lvgl\version_6.1.2\lvgl\src\lv_core\../lv_misc/lv_color.h ****         uint8_t green;
 247:..\..\..\lvgl\version_6.1.2\lvgl\src\lv_core\../lv_misc/lv_color.h ****         uint8_t red;
 248:..\..\..\lvgl\version_6.1.2\lvgl\src\lv_core\../lv_misc/lv_color.h ****         uint8_t alpha;
 249:..\..\..\lvgl\version_6.1.2\lvgl\src\lv_core\../lv_misc/lv_color.h ****     } ch;
 250:..\..\..\lvgl\version_6.1.2\lvgl\src\lv_core\../lv_misc/lv_color.h ****     uint32_t full;
 251:..\..\..\lvgl\version_6.1.2\lvgl\src\lv_core\../lv_misc/lv_color.h **** } lv_color32_t;
 252:..\..\..\lvgl\version_6.1.2\lvgl\src\lv_core\../lv_misc/lv_color.h **** 
 253:..\..\..\lvgl\version_6.1.2\lvgl\src\lv_core\../lv_misc/lv_color.h **** #if LV_COLOR_DEPTH == 1
 254:..\..\..\lvgl\version_6.1.2\lvgl\src\lv_core\../lv_misc/lv_color.h **** typedef uint8_t lv_color_int_t;
 255:..\..\..\lvgl\version_6.1.2\lvgl\src\lv_core\../lv_misc/lv_color.h **** typedef lv_color1_t lv_color_t;
 256:..\..\..\lvgl\version_6.1.2\lvgl\src\lv_core\../lv_misc/lv_color.h **** #elif LV_COLOR_DEPTH == 8
 257:..\..\..\lvgl\version_6.1.2\lvgl\src\lv_core\../lv_misc/lv_color.h **** typedef uint8_t lv_color_int_t;
 258:..\..\..\lvgl\version_6.1.2\lvgl\src\lv_core\../lv_misc/lv_color.h **** typedef lv_color8_t lv_color_t;
ARM GAS  C:\Users\tmj32\AppData\Local\Temp\ccSL9kiF.s 			page 6


 259:..\..\..\lvgl\version_6.1.2\lvgl\src\lv_core\../lv_misc/lv_color.h **** #elif LV_COLOR_DEPTH == 16
 260:..\..\..\lvgl\version_6.1.2\lvgl\src\lv_core\../lv_misc/lv_color.h **** typedef uint16_t lv_color_int_t;
 261:..\..\..\lvgl\version_6.1.2\lvgl\src\lv_core\../lv_misc/lv_color.h **** typedef lv_color16_t lv_color_t;
 262:..\..\..\lvgl\version_6.1.2\lvgl\src\lv_core\../lv_misc/lv_color.h **** #elif LV_COLOR_DEPTH == 32
 263:..\..\..\lvgl\version_6.1.2\lvgl\src\lv_core\../lv_misc/lv_color.h **** typedef uint32_t lv_color_int_t;
 264:..\..\..\lvgl\version_6.1.2\lvgl\src\lv_core\../lv_misc/lv_color.h **** typedef lv_color32_t lv_color_t;
 265:..\..\..\lvgl\version_6.1.2\lvgl\src\lv_core\../lv_misc/lv_color.h **** #else
 266:..\..\..\lvgl\version_6.1.2\lvgl\src\lv_core\../lv_misc/lv_color.h **** #error "Invalid LV_COLOR_DEPTH in lv_conf.h! Set it to 1, 8, 16 or 32!"
 267:..\..\..\lvgl\version_6.1.2\lvgl\src\lv_core\../lv_misc/lv_color.h **** #endif
 268:..\..\..\lvgl\version_6.1.2\lvgl\src\lv_core\../lv_misc/lv_color.h **** 
 269:..\..\..\lvgl\version_6.1.2\lvgl\src\lv_core\../lv_misc/lv_color.h **** typedef uint8_t lv_opa_t;
 270:..\..\..\lvgl\version_6.1.2\lvgl\src\lv_core\../lv_misc/lv_color.h **** 
 271:..\..\..\lvgl\version_6.1.2\lvgl\src\lv_core\../lv_misc/lv_color.h **** typedef struct
 272:..\..\..\lvgl\version_6.1.2\lvgl\src\lv_core\../lv_misc/lv_color.h **** {
 273:..\..\..\lvgl\version_6.1.2\lvgl\src\lv_core\../lv_misc/lv_color.h ****     uint16_t h;
 274:..\..\..\lvgl\version_6.1.2\lvgl\src\lv_core\../lv_misc/lv_color.h ****     uint8_t s;
 275:..\..\..\lvgl\version_6.1.2\lvgl\src\lv_core\../lv_misc/lv_color.h ****     uint8_t v;
 276:..\..\..\lvgl\version_6.1.2\lvgl\src\lv_core\../lv_misc/lv_color.h **** } lv_color_hsv_t;
 277:..\..\..\lvgl\version_6.1.2\lvgl\src\lv_core\../lv_misc/lv_color.h **** 
 278:..\..\..\lvgl\version_6.1.2\lvgl\src\lv_core\../lv_misc/lv_color.h **** /**********************
 279:..\..\..\lvgl\version_6.1.2\lvgl\src\lv_core\../lv_misc/lv_color.h ****  * GLOBAL PROTOTYPES
 280:..\..\..\lvgl\version_6.1.2\lvgl\src\lv_core\../lv_misc/lv_color.h ****  **********************/
 281:..\..\..\lvgl\version_6.1.2\lvgl\src\lv_core\../lv_misc/lv_color.h **** 
 282:..\..\..\lvgl\version_6.1.2\lvgl\src\lv_core\../lv_misc/lv_color.h **** /*In color conversations:
 283:..\..\..\lvgl\version_6.1.2\lvgl\src\lv_core\../lv_misc/lv_color.h ****  * - When converting to bigger color type the LSB weight of 1 LSB is calculated
 284:..\..\..\lvgl\version_6.1.2\lvgl\src\lv_core\../lv_misc/lv_color.h ****  *   E.g. 16 bit Red has 5 bits
 285:..\..\..\lvgl\version_6.1.2\lvgl\src\lv_core\../lv_misc/lv_color.h ****  *         8 bit Red has 2 bits
 286:..\..\..\lvgl\version_6.1.2\lvgl\src\lv_core\../lv_misc/lv_color.h ****  *        ----------------------
 287:..\..\..\lvgl\version_6.1.2\lvgl\src\lv_core\../lv_misc/lv_color.h ****  *        8 bit red LSB = (2^5 - 1) / (2^2 - 1) = 31 / 3 = 10
 288:..\..\..\lvgl\version_6.1.2\lvgl\src\lv_core\../lv_misc/lv_color.h ****  *
 289:..\..\..\lvgl\version_6.1.2\lvgl\src\lv_core\../lv_misc/lv_color.h ****  * - When calculating to smaller color type simply shift out the LSBs
 290:..\..\..\lvgl\version_6.1.2\lvgl\src\lv_core\../lv_misc/lv_color.h ****  *   E.g.  8 bit Red has 2 bits
 291:..\..\..\lvgl\version_6.1.2\lvgl\src\lv_core\../lv_misc/lv_color.h ****  *        16 bit Red has 5 bits
 292:..\..\..\lvgl\version_6.1.2\lvgl\src\lv_core\../lv_misc/lv_color.h ****  *        ----------------------
 293:..\..\..\lvgl\version_6.1.2\lvgl\src\lv_core\../lv_misc/lv_color.h ****  *         Shift right with 5 - 3 = 2
 294:..\..\..\lvgl\version_6.1.2\lvgl\src\lv_core\../lv_misc/lv_color.h ****  */
 295:..\..\..\lvgl\version_6.1.2\lvgl\src\lv_core\../lv_misc/lv_color.h **** 
 296:..\..\..\lvgl\version_6.1.2\lvgl\src\lv_core\../lv_misc/lv_color.h **** static inline uint8_t lv_color_to1(lv_color_t color)
 297:..\..\..\lvgl\version_6.1.2\lvgl\src\lv_core\../lv_misc/lv_color.h **** {
 298:..\..\..\lvgl\version_6.1.2\lvgl\src\lv_core\../lv_misc/lv_color.h **** #if LV_COLOR_DEPTH == 1
 299:..\..\..\lvgl\version_6.1.2\lvgl\src\lv_core\../lv_misc/lv_color.h ****     return color.full;
 300:..\..\..\lvgl\version_6.1.2\lvgl\src\lv_core\../lv_misc/lv_color.h **** #elif LV_COLOR_DEPTH == 8
 301:..\..\..\lvgl\version_6.1.2\lvgl\src\lv_core\../lv_misc/lv_color.h ****     if((LV_COLOR_GET_R(color) & 0x4) || (LV_COLOR_GET_G(color) & 0x4) || (LV_COLOR_GET_B(color) & 0
 302:..\..\..\lvgl\version_6.1.2\lvgl\src\lv_core\../lv_misc/lv_color.h ****         return 1;
 303:..\..\..\lvgl\version_6.1.2\lvgl\src\lv_core\../lv_misc/lv_color.h ****     } else {
 304:..\..\..\lvgl\version_6.1.2\lvgl\src\lv_core\../lv_misc/lv_color.h ****         return 0;
 305:..\..\..\lvgl\version_6.1.2\lvgl\src\lv_core\../lv_misc/lv_color.h ****     }
 306:..\..\..\lvgl\version_6.1.2\lvgl\src\lv_core\../lv_misc/lv_color.h **** #elif LV_COLOR_DEPTH == 16
 307:..\..\..\lvgl\version_6.1.2\lvgl\src\lv_core\../lv_misc/lv_color.h ****     if((LV_COLOR_GET_R(color) & 0x10) || (LV_COLOR_GET_G(color) & 0x20) || (LV_COLOR_GET_B(color) &
 308:..\..\..\lvgl\version_6.1.2\lvgl\src\lv_core\../lv_misc/lv_color.h ****         return 1;
 309:..\..\..\lvgl\version_6.1.2\lvgl\src\lv_core\../lv_misc/lv_color.h ****     } else {
 310:..\..\..\lvgl\version_6.1.2\lvgl\src\lv_core\../lv_misc/lv_color.h ****         return 0;
 311:..\..\..\lvgl\version_6.1.2\lvgl\src\lv_core\../lv_misc/lv_color.h ****     }
 312:..\..\..\lvgl\version_6.1.2\lvgl\src\lv_core\../lv_misc/lv_color.h **** #elif LV_COLOR_DEPTH == 32
 313:..\..\..\lvgl\version_6.1.2\lvgl\src\lv_core\../lv_misc/lv_color.h ****     if((LV_COLOR_GET_R(color) & 0x80) || (LV_COLOR_GET_G(color) & 0x80) || (LV_COLOR_GET_B(color) &
 314:..\..\..\lvgl\version_6.1.2\lvgl\src\lv_core\../lv_misc/lv_color.h ****         return 1;
 315:..\..\..\lvgl\version_6.1.2\lvgl\src\lv_core\../lv_misc/lv_color.h ****     } else {
ARM GAS  C:\Users\tmj32\AppData\Local\Temp\ccSL9kiF.s 			page 7


 316:..\..\..\lvgl\version_6.1.2\lvgl\src\lv_core\../lv_misc/lv_color.h ****         return 0;
 317:..\..\..\lvgl\version_6.1.2\lvgl\src\lv_core\../lv_misc/lv_color.h ****     }
 318:..\..\..\lvgl\version_6.1.2\lvgl\src\lv_core\../lv_misc/lv_color.h **** #endif
 319:..\..\..\lvgl\version_6.1.2\lvgl\src\lv_core\../lv_misc/lv_color.h **** }
 320:..\..\..\lvgl\version_6.1.2\lvgl\src\lv_core\../lv_misc/lv_color.h **** 
 321:..\..\..\lvgl\version_6.1.2\lvgl\src\lv_core\../lv_misc/lv_color.h **** static inline uint8_t lv_color_to8(lv_color_t color)
 322:..\..\..\lvgl\version_6.1.2\lvgl\src\lv_core\../lv_misc/lv_color.h **** {
 323:..\..\..\lvgl\version_6.1.2\lvgl\src\lv_core\../lv_misc/lv_color.h **** #if LV_COLOR_DEPTH == 1
 324:..\..\..\lvgl\version_6.1.2\lvgl\src\lv_core\../lv_misc/lv_color.h ****     if(color.full == 0)
 325:..\..\..\lvgl\version_6.1.2\lvgl\src\lv_core\../lv_misc/lv_color.h ****         return 0;
 326:..\..\..\lvgl\version_6.1.2\lvgl\src\lv_core\../lv_misc/lv_color.h ****     else
 327:..\..\..\lvgl\version_6.1.2\lvgl\src\lv_core\../lv_misc/lv_color.h ****         return 0xFF;
 328:..\..\..\lvgl\version_6.1.2\lvgl\src\lv_core\../lv_misc/lv_color.h **** #elif LV_COLOR_DEPTH == 8
 329:..\..\..\lvgl\version_6.1.2\lvgl\src\lv_core\../lv_misc/lv_color.h ****     return color.full;
 330:..\..\..\lvgl\version_6.1.2\lvgl\src\lv_core\../lv_misc/lv_color.h **** #elif LV_COLOR_DEPTH == 16
 331:..\..\..\lvgl\version_6.1.2\lvgl\src\lv_core\../lv_misc/lv_color.h ****     lv_color8_t ret;
 332:..\..\..\lvgl\version_6.1.2\lvgl\src\lv_core\../lv_misc/lv_color.h ****     LV_COLOR_SET_R8(ret, LV_COLOR_GET_R(color) >> 2);   /* 5 - 3  = 2*/
 333:..\..\..\lvgl\version_6.1.2\lvgl\src\lv_core\../lv_misc/lv_color.h ****     LV_COLOR_SET_G8(ret, LV_COLOR_GET_G(color) >> 3); /* 6 - 3  = 3*/
 334:..\..\..\lvgl\version_6.1.2\lvgl\src\lv_core\../lv_misc/lv_color.h ****     LV_COLOR_SET_B8(ret, LV_COLOR_GET_B(color) >> 3);  /* 5 - 2  = 3*/
 335:..\..\..\lvgl\version_6.1.2\lvgl\src\lv_core\../lv_misc/lv_color.h ****     return ret.full;
 336:..\..\..\lvgl\version_6.1.2\lvgl\src\lv_core\../lv_misc/lv_color.h **** #elif LV_COLOR_DEPTH == 32
 337:..\..\..\lvgl\version_6.1.2\lvgl\src\lv_core\../lv_misc/lv_color.h ****     lv_color8_t ret;
 338:..\..\..\lvgl\version_6.1.2\lvgl\src\lv_core\../lv_misc/lv_color.h ****     LV_COLOR_SET_R8(ret, LV_COLOR_GET_R(color) >> 5);   /* 8 - 3  = 5*/
 339:..\..\..\lvgl\version_6.1.2\lvgl\src\lv_core\../lv_misc/lv_color.h ****     LV_COLOR_SET_G8(ret, LV_COLOR_GET_G(color) >> 5); /* 8 - 3  = 5*/
 340:..\..\..\lvgl\version_6.1.2\lvgl\src\lv_core\../lv_misc/lv_color.h ****     LV_COLOR_SET_B8(ret, LV_COLOR_GET_B(color) >> 6);  /* 8 - 2  = 6*/
 341:..\..\..\lvgl\version_6.1.2\lvgl\src\lv_core\../lv_misc/lv_color.h ****     return ret.full;
 342:..\..\..\lvgl\version_6.1.2\lvgl\src\lv_core\../lv_misc/lv_color.h **** #endif
 343:..\..\..\lvgl\version_6.1.2\lvgl\src\lv_core\../lv_misc/lv_color.h **** }
 344:..\..\..\lvgl\version_6.1.2\lvgl\src\lv_core\../lv_misc/lv_color.h **** 
 345:..\..\..\lvgl\version_6.1.2\lvgl\src\lv_core\../lv_misc/lv_color.h **** static inline uint16_t lv_color_to16(lv_color_t color)
 346:..\..\..\lvgl\version_6.1.2\lvgl\src\lv_core\../lv_misc/lv_color.h **** {
 347:..\..\..\lvgl\version_6.1.2\lvgl\src\lv_core\../lv_misc/lv_color.h **** #if LV_COLOR_DEPTH == 1
 348:..\..\..\lvgl\version_6.1.2\lvgl\src\lv_core\../lv_misc/lv_color.h ****     if(color.full == 0)
 349:..\..\..\lvgl\version_6.1.2\lvgl\src\lv_core\../lv_misc/lv_color.h ****         return 0;
 350:..\..\..\lvgl\version_6.1.2\lvgl\src\lv_core\../lv_misc/lv_color.h ****     else
 351:..\..\..\lvgl\version_6.1.2\lvgl\src\lv_core\../lv_misc/lv_color.h ****         return 0xFFFF;
 352:..\..\..\lvgl\version_6.1.2\lvgl\src\lv_core\../lv_misc/lv_color.h **** #elif LV_COLOR_DEPTH == 8
 353:..\..\..\lvgl\version_6.1.2\lvgl\src\lv_core\../lv_misc/lv_color.h ****     lv_color16_t ret;
 354:..\..\..\lvgl\version_6.1.2\lvgl\src\lv_core\../lv_misc/lv_color.h ****     LV_COLOR_SET_R16(ret, LV_COLOR_GET_R(color) * 4);     /*(2^5 - 1)/(2^3 - 1) = 31/7 = 4*/
 355:..\..\..\lvgl\version_6.1.2\lvgl\src\lv_core\../lv_misc/lv_color.h **** #if LV_COLOR_16_SWAP == 0
 356:..\..\..\lvgl\version_6.1.2\lvgl\src\lv_core\../lv_misc/lv_color.h ****     LV_COLOR_SET_G16(ret,  LV_COLOR_GET_G(color) * 9); /*(2^6 - 1)/(2^3 - 1) = 63/7 = 9*/
 357:..\..\..\lvgl\version_6.1.2\lvgl\src\lv_core\../lv_misc/lv_color.h **** #else
 358:..\..\..\lvgl\version_6.1.2\lvgl\src\lv_core\../lv_misc/lv_color.h ****     LV_COLOR_SET_G16_SWAP(ret, (LV_COLOR_GET_G(color) * 9)); /*(2^6 - 1)/(2^3 - 1) = 63/7 = 9*/
 359:..\..\..\lvgl\version_6.1.2\lvgl\src\lv_core\../lv_misc/lv_color.h **** #endif
 360:..\..\..\lvgl\version_6.1.2\lvgl\src\lv_core\../lv_misc/lv_color.h ****     LV_COLOR_SET_B16(ret, LV_COLOR_GET_B(color) * 10);  /*(2^5 - 1)/(2^2 - 1) = 31/3 = 10*/
 361:..\..\..\lvgl\version_6.1.2\lvgl\src\lv_core\../lv_misc/lv_color.h ****     return ret.full;
 362:..\..\..\lvgl\version_6.1.2\lvgl\src\lv_core\../lv_misc/lv_color.h **** #elif LV_COLOR_DEPTH == 16
 363:..\..\..\lvgl\version_6.1.2\lvgl\src\lv_core\../lv_misc/lv_color.h ****     return color.full;
 364:..\..\..\lvgl\version_6.1.2\lvgl\src\lv_core\../lv_misc/lv_color.h **** #elif LV_COLOR_DEPTH == 32
 365:..\..\..\lvgl\version_6.1.2\lvgl\src\lv_core\../lv_misc/lv_color.h ****     lv_color16_t ret;
 366:..\..\..\lvgl\version_6.1.2\lvgl\src\lv_core\../lv_misc/lv_color.h ****     LV_COLOR_SET_R16(ret, LV_COLOR_GET_R(color) >> 3);   /* 8 - 5  = 3*/
 367:..\..\..\lvgl\version_6.1.2\lvgl\src\lv_core\../lv_misc/lv_color.h **** 
 368:..\..\..\lvgl\version_6.1.2\lvgl\src\lv_core\../lv_misc/lv_color.h **** #if LV_COLOR_16_SWAP == 0
 369:..\..\..\lvgl\version_6.1.2\lvgl\src\lv_core\../lv_misc/lv_color.h ****     LV_COLOR_SET_G16(ret, LV_COLOR_GET_G(color) >> 2); /* 8 - 6  = 2*/
 370:..\..\..\lvgl\version_6.1.2\lvgl\src\lv_core\../lv_misc/lv_color.h **** #else
 371:..\..\..\lvgl\version_6.1.2\lvgl\src\lv_core\../lv_misc/lv_color.h ****     LV_COLOR_SET_G16_SWAP(ret, ret.ch.green_h = (LV_COLOR_GET_G(color) >> 2); /*(2^6 - 1)/(2^3 - 1)
 372:..\..\..\lvgl\version_6.1.2\lvgl\src\lv_core\../lv_misc/lv_color.h **** #endif
ARM GAS  C:\Users\tmj32\AppData\Local\Temp\ccSL9kiF.s 			page 8


 373:..\..\..\lvgl\version_6.1.2\lvgl\src\lv_core\../lv_misc/lv_color.h ****     LV_COLOR_SET_B16(ret, LV_COLOR_GET_B(color) >> 3);  /* 8 - 5  = 3*/
 374:..\..\..\lvgl\version_6.1.2\lvgl\src\lv_core\../lv_misc/lv_color.h ****     return ret.full;
 375:..\..\..\lvgl\version_6.1.2\lvgl\src\lv_core\../lv_misc/lv_color.h **** #endif                         
 376:..\..\..\lvgl\version_6.1.2\lvgl\src\lv_core\../lv_misc/lv_color.h **** }
 377:..\..\..\lvgl\version_6.1.2\lvgl\src\lv_core\../lv_misc/lv_color.h **** 
 378:..\..\..\lvgl\version_6.1.2\lvgl\src\lv_core\../lv_misc/lv_color.h **** static inline uint32_t lv_color_to32(lv_color_t color)
 379:..\..\..\lvgl\version_6.1.2\lvgl\src\lv_core\../lv_misc/lv_color.h **** {
 380:..\..\..\lvgl\version_6.1.2\lvgl\src\lv_core\../lv_misc/lv_color.h **** #if LV_COLOR_DEPTH == 1
 381:..\..\..\lvgl\version_6.1.2\lvgl\src\lv_core\../lv_misc/lv_color.h ****     if(color.full == 0)
 382:..\..\..\lvgl\version_6.1.2\lvgl\src\lv_core\../lv_misc/lv_color.h ****         return 0;
 383:..\..\..\lvgl\version_6.1.2\lvgl\src\lv_core\../lv_misc/lv_color.h ****     else
 384:..\..\..\lvgl\version_6.1.2\lvgl\src\lv_core\../lv_misc/lv_color.h ****         return 0xFFFFFFFF;
 385:..\..\..\lvgl\version_6.1.2\lvgl\src\lv_core\../lv_misc/lv_color.h **** #elif LV_COLOR_DEPTH == 8
 386:..\..\..\lvgl\version_6.1.2\lvgl\src\lv_core\../lv_misc/lv_color.h ****     lv_color32_t ret;
 387:..\..\..\lvgl\version_6.1.2\lvgl\src\lv_core\../lv_misc/lv_color.h ****     LV_COLOR_SET_R32(ret, LV_COLOR_GET_R(color) * 36);     /*(2^8 - 1)/(2^3 - 1) = 255/7 = 36*/
 388:..\..\..\lvgl\version_6.1.2\lvgl\src\lv_core\../lv_misc/lv_color.h ****     LV_COLOR_SET_G32(ret, LV_COLOR_GET_G(color) * 36); /*(2^8 - 1)/(2^3 - 1) = 255/7 = 36*/
 389:..\..\..\lvgl\version_6.1.2\lvgl\src\lv_core\../lv_misc/lv_color.h ****     LV_COLOR_SET_B32(ret, LV_COLOR_GET_B(color) * 85);   /*(2^8 - 1)/(2^2 - 1) = 255/3 = 85*/
 390:..\..\..\lvgl\version_6.1.2\lvgl\src\lv_core\../lv_misc/lv_color.h ****     LV_COLOR_SET_A32(ret, 0xFF);
 391:..\..\..\lvgl\version_6.1.2\lvgl\src\lv_core\../lv_misc/lv_color.h ****     return ret.full;
 392:..\..\..\lvgl\version_6.1.2\lvgl\src\lv_core\../lv_misc/lv_color.h **** #elif LV_COLOR_DEPTH == 16
 393:..\..\..\lvgl\version_6.1.2\lvgl\src\lv_core\../lv_misc/lv_color.h ****     /**
 394:..\..\..\lvgl\version_6.1.2\lvgl\src\lv_core\../lv_misc/lv_color.h ****      * The floating point math for conversion is:
 395:..\..\..\lvgl\version_6.1.2\lvgl\src\lv_core\../lv_misc/lv_color.h ****      *  valueto = valuefrom * ( (2^bitsto - 1) / (float)(2^bitsfrom - 1) )
 396:..\..\..\lvgl\version_6.1.2\lvgl\src\lv_core\../lv_misc/lv_color.h ****      * The faster integer math for conversion is:
 397:..\..\..\lvgl\version_6.1.2\lvgl\src\lv_core\../lv_misc/lv_color.h ****      *  valueto = ( valuefrom * multiplier + adder ) >> divisor
 398:..\..\..\lvgl\version_6.1.2\lvgl\src\lv_core\../lv_misc/lv_color.h ****      *   multiplier = FLOOR( ( (2^bitsto - 1) << divisor ) / (float)(2^bitsfrom - 1) )
 399:..\..\..\lvgl\version_6.1.2\lvgl\src\lv_core\../lv_misc/lv_color.h ****      * 
 400:..\..\..\lvgl\version_6.1.2\lvgl\src\lv_core\../lv_misc/lv_color.h ****      * Find the first divisor where ( adder >> divisor ) <= 0
 401:..\..\..\lvgl\version_6.1.2\lvgl\src\lv_core\../lv_misc/lv_color.h ****      * 
 402:..\..\..\lvgl\version_6.1.2\lvgl\src\lv_core\../lv_misc/lv_color.h ****      * 5-bit to 8-bit: ( 31 * multiplier + adder ) >> divisor = 255
 403:..\..\..\lvgl\version_6.1.2\lvgl\src\lv_core\../lv_misc/lv_color.h ****      * divisor  multiplier  adder  min (0)  max (31)
 404:..\..\..\lvgl\version_6.1.2\lvgl\src\lv_core\../lv_misc/lv_color.h ****      *       0           8      7        7       255
 405:..\..\..\lvgl\version_6.1.2\lvgl\src\lv_core\../lv_misc/lv_color.h ****      *       1          16     14        7       255
 406:..\..\..\lvgl\version_6.1.2\lvgl\src\lv_core\../lv_misc/lv_color.h ****      *       2          32     28        7       255
 407:..\..\..\lvgl\version_6.1.2\lvgl\src\lv_core\../lv_misc/lv_color.h ****      *       3          65     25        3       255
 408:..\..\..\lvgl\version_6.1.2\lvgl\src\lv_core\../lv_misc/lv_color.h ****      *       4         131     19        1       255
 409:..\..\..\lvgl\version_6.1.2\lvgl\src\lv_core\../lv_misc/lv_color.h ****      *       5         263      7        0       255
 410:..\..\..\lvgl\version_6.1.2\lvgl\src\lv_core\../lv_misc/lv_color.h ****      * 
 411:..\..\..\lvgl\version_6.1.2\lvgl\src\lv_core\../lv_misc/lv_color.h ****      * 6-bit to 8-bit: 255 = ( 63 * multiplier + adder ) >> divisor
 412:..\..\..\lvgl\version_6.1.2\lvgl\src\lv_core\../lv_misc/lv_color.h ****      * divisor  multiplier  adder  min (0)  max (63)
 413:..\..\..\lvgl\version_6.1.2\lvgl\src\lv_core\../lv_misc/lv_color.h ****      *       0           4      3        3       255
 414:..\..\..\lvgl\version_6.1.2\lvgl\src\lv_core\../lv_misc/lv_color.h ****      *       1           8      6        3       255
 415:..\..\..\lvgl\version_6.1.2\lvgl\src\lv_core\../lv_misc/lv_color.h ****      *       2          16     12        3       255
 416:..\..\..\lvgl\version_6.1.2\lvgl\src\lv_core\../lv_misc/lv_color.h ****      *       3          32     24        3       255
 417:..\..\..\lvgl\version_6.1.2\lvgl\src\lv_core\../lv_misc/lv_color.h ****      *       4          64     48        3       255
 418:..\..\..\lvgl\version_6.1.2\lvgl\src\lv_core\../lv_misc/lv_color.h ****      *       5         129     33        1       255
 419:..\..\..\lvgl\version_6.1.2\lvgl\src\lv_core\../lv_misc/lv_color.h ****      *       6         259      3        0       255
 420:..\..\..\lvgl\version_6.1.2\lvgl\src\lv_core\../lv_misc/lv_color.h ****      */
 421:..\..\..\lvgl\version_6.1.2\lvgl\src\lv_core\../lv_misc/lv_color.h ****     lv_color32_t ret;
 422:..\..\..\lvgl\version_6.1.2\lvgl\src\lv_core\../lv_misc/lv_color.h ****     LV_COLOR_SET_R32(ret, (LV_COLOR_GET_R(color) * 263 + 7 ) >> 5);
 423:..\..\..\lvgl\version_6.1.2\lvgl\src\lv_core\../lv_misc/lv_color.h ****     LV_COLOR_SET_G32(ret, (LV_COLOR_GET_G(color) * 259 + 3 ) >> 6);
 424:..\..\..\lvgl\version_6.1.2\lvgl\src\lv_core\../lv_misc/lv_color.h ****     LV_COLOR_SET_B32(ret, (LV_COLOR_GET_B(color) * 263 + 7 ) >> 5);
 425:..\..\..\lvgl\version_6.1.2\lvgl\src\lv_core\../lv_misc/lv_color.h ****     LV_COLOR_SET_A32(ret, 0xFF);
 426:..\..\..\lvgl\version_6.1.2\lvgl\src\lv_core\../lv_misc/lv_color.h ****     return ret.full;
 427:..\..\..\lvgl\version_6.1.2\lvgl\src\lv_core\../lv_misc/lv_color.h **** #elif LV_COLOR_DEPTH == 32
 428:..\..\..\lvgl\version_6.1.2\lvgl\src\lv_core\../lv_misc/lv_color.h ****     return color.full;
 429:..\..\..\lvgl\version_6.1.2\lvgl\src\lv_core\../lv_misc/lv_color.h **** #endif
ARM GAS  C:\Users\tmj32\AppData\Local\Temp\ccSL9kiF.s 			page 9


 430:..\..\..\lvgl\version_6.1.2\lvgl\src\lv_core\../lv_misc/lv_color.h **** }
 431:..\..\..\lvgl\version_6.1.2\lvgl\src\lv_core\../lv_misc/lv_color.h **** 
 432:..\..\..\lvgl\version_6.1.2\lvgl\src\lv_core\../lv_misc/lv_color.h **** static inline lv_color_t lv_color_mix(lv_color_t c1, lv_color_t c2, uint8_t mix)
 433:..\..\..\lvgl\version_6.1.2\lvgl\src\lv_core\../lv_misc/lv_color.h **** {
  28              		.loc 1 433 0
  29              		.cfi_startproc
  30              		@ args = 0, pretend = 0, frame = 24
  31              		@ frame_needed = 1, uses_anonymous_args = 0
  32              		@ link register save eliminated.
  33 0000 80B4     		push	{r7}
  34              		.cfi_def_cfa_offset 4
  35              		.cfi_offset 7, -4
  36 0002 87B0     		sub	sp, sp, #28
  37              		.cfi_def_cfa_offset 32
  38 0004 00AF     		add	r7, sp, #0
  39              		.cfi_def_cfa_register 7
  40 0006 F860     		str	r0, [r7, #12]
  41 0008 B960     		str	r1, [r7, #8]
  42 000a 1346     		mov	r3, r2
  43 000c FB71     		strb	r3, [r7, #7]
 434:..\..\..\lvgl\version_6.1.2\lvgl\src\lv_core\../lv_misc/lv_color.h ****     lv_color_t ret;
 435:..\..\..\lvgl\version_6.1.2\lvgl\src\lv_core\../lv_misc/lv_color.h **** #if LV_COLOR_DEPTH != 1
 436:..\..\..\lvgl\version_6.1.2\lvgl\src\lv_core\../lv_misc/lv_color.h ****     /*LV_COLOR_DEPTH == 8, 16 or 32*/
 437:..\..\..\lvgl\version_6.1.2\lvgl\src\lv_core\../lv_misc/lv_color.h ****     LV_COLOR_SET_R(ret, (uint16_t)((uint16_t) LV_COLOR_GET_R(c1) * mix + LV_COLOR_GET_R(c2) * (255 
  44              		.loc 1 437 0
  45 000e BB7B     		ldrb	r3, [r7, #14]	@ zero_extendqisi2
  46 0010 9AB2     		uxth	r2, r3
  47 0012 FB79     		ldrb	r3, [r7, #7]	@ zero_extendqisi2
  48 0014 9BB2     		uxth	r3, r3
  49 0016 12FB03F3 		smulbb	r3, r2, r3
  50 001a 9AB2     		uxth	r2, r3
  51 001c BB7A     		ldrb	r3, [r7, #10]	@ zero_extendqisi2
  52 001e 99B2     		uxth	r1, r3
  53 0020 FB79     		ldrb	r3, [r7, #7]	@ zero_extendqisi2
  54 0022 C3F1FF03 		rsb	r3, r3, #255
  55 0026 9BB2     		uxth	r3, r3
  56 0028 11FB03F3 		smulbb	r3, r1, r3
  57 002c 9BB2     		uxth	r3, r3
  58 002e 1344     		add	r3, r3, r2
  59 0030 9BB2     		uxth	r3, r3
  60 0032 1B0A     		lsrs	r3, r3, #8
  61 0034 9BB2     		uxth	r3, r3
  62 0036 DBB2     		uxtb	r3, r3
  63 0038 BB75     		strb	r3, [r7, #22]
 438:..\..\..\lvgl\version_6.1.2\lvgl\src\lv_core\../lv_misc/lv_color.h ****     LV_COLOR_SET_G(ret, (uint16_t)((uint16_t) LV_COLOR_GET_G(c1) * mix + LV_COLOR_GET_G(c2) * (255 
  64              		.loc 1 438 0
  65 003a 7B7B     		ldrb	r3, [r7, #13]	@ zero_extendqisi2
  66 003c 9AB2     		uxth	r2, r3
  67 003e FB79     		ldrb	r3, [r7, #7]	@ zero_extendqisi2
  68 0040 9BB2     		uxth	r3, r3
  69 0042 12FB03F3 		smulbb	r3, r2, r3
  70 0046 9AB2     		uxth	r2, r3
  71 0048 7B7A     		ldrb	r3, [r7, #9]	@ zero_extendqisi2
  72 004a 99B2     		uxth	r1, r3
  73 004c FB79     		ldrb	r3, [r7, #7]	@ zero_extendqisi2
  74 004e C3F1FF03 		rsb	r3, r3, #255
  75 0052 9BB2     		uxth	r3, r3
ARM GAS  C:\Users\tmj32\AppData\Local\Temp\ccSL9kiF.s 			page 10


  76 0054 11FB03F3 		smulbb	r3, r1, r3
  77 0058 9BB2     		uxth	r3, r3
  78 005a 1344     		add	r3, r3, r2
  79 005c 9BB2     		uxth	r3, r3
  80 005e 1B0A     		lsrs	r3, r3, #8
  81 0060 9BB2     		uxth	r3, r3
  82 0062 DBB2     		uxtb	r3, r3
  83 0064 7B75     		strb	r3, [r7, #21]
 439:..\..\..\lvgl\version_6.1.2\lvgl\src\lv_core\../lv_misc/lv_color.h ****     LV_COLOR_SET_B(ret, (uint16_t)((uint16_t) LV_COLOR_GET_B(c1) * mix + LV_COLOR_GET_B(c2) * (255 
  84              		.loc 1 439 0
  85 0066 3B7B     		ldrb	r3, [r7, #12]	@ zero_extendqisi2
  86 0068 9AB2     		uxth	r2, r3
  87 006a FB79     		ldrb	r3, [r7, #7]	@ zero_extendqisi2
  88 006c 9BB2     		uxth	r3, r3
  89 006e 12FB03F3 		smulbb	r3, r2, r3
  90 0072 9AB2     		uxth	r2, r3
  91 0074 3B7A     		ldrb	r3, [r7, #8]	@ zero_extendqisi2
  92 0076 99B2     		uxth	r1, r3
  93 0078 FB79     		ldrb	r3, [r7, #7]	@ zero_extendqisi2
  94 007a C3F1FF03 		rsb	r3, r3, #255
  95 007e 9BB2     		uxth	r3, r3
  96 0080 11FB03F3 		smulbb	r3, r1, r3
  97 0084 9BB2     		uxth	r3, r3
  98 0086 1344     		add	r3, r3, r2
  99 0088 9BB2     		uxth	r3, r3
 100 008a 1B0A     		lsrs	r3, r3, #8
 101 008c 9BB2     		uxth	r3, r3
 102 008e DBB2     		uxtb	r3, r3
 103 0090 3B75     		strb	r3, [r7, #20]
 440:..\..\..\lvgl\version_6.1.2\lvgl\src\lv_core\../lv_misc/lv_color.h ****     LV_COLOR_SET_A(ret, 0xFF);
 104              		.loc 1 440 0
 105 0092 FF23     		movs	r3, #255
 106 0094 FB75     		strb	r3, [r7, #23]
 441:..\..\..\lvgl\version_6.1.2\lvgl\src\lv_core\../lv_misc/lv_color.h **** #else
 442:..\..\..\lvgl\version_6.1.2\lvgl\src\lv_core\../lv_misc/lv_color.h ****     /*LV_COLOR_DEPTH == 1*/
 443:..\..\..\lvgl\version_6.1.2\lvgl\src\lv_core\../lv_misc/lv_color.h ****     ret.full = mix > LV_OPA_50 ? c1.full : c2.full;
 444:..\..\..\lvgl\version_6.1.2\lvgl\src\lv_core\../lv_misc/lv_color.h **** #endif
 445:..\..\..\lvgl\version_6.1.2\lvgl\src\lv_core\../lv_misc/lv_color.h **** 
 446:..\..\..\lvgl\version_6.1.2\lvgl\src\lv_core\../lv_misc/lv_color.h ****     return ret;
 107              		.loc 1 446 0
 108 0096 7B69     		ldr	r3, [r7, #20]
 447:..\..\..\lvgl\version_6.1.2\lvgl\src\lv_core\../lv_misc/lv_color.h **** }
 109              		.loc 1 447 0
 110 0098 1846     		mov	r0, r3
 111 009a 1C37     		adds	r7, r7, #28
 112              		.cfi_def_cfa_offset 4
 113 009c BD46     		mov	sp, r7
 114              		.cfi_def_cfa_register 13
 115              		@ sp needed
 116 009e 5DF8047B 		ldr	r7, [sp], #4
 117              		.cfi_restore 7
 118              		.cfi_def_cfa_offset 0
 119 00a2 7047     		bx	lr
 120              		.cfi_endproc
 121              	.LFE5:
 122              		.size	lv_color_mix, .-lv_color_mix
 123              		.section	.text.lv_color_make,"ax",%progbits
ARM GAS  C:\Users\tmj32\AppData\Local\Temp\ccSL9kiF.s 			page 11


 124              		.align	2
 125              		.thumb
 126              		.thumb_func
 127              		.type	lv_color_make, %function
 128              	lv_color_make:
 129              	.LFB7:
 448:..\..\..\lvgl\version_6.1.2\lvgl\src\lv_core\../lv_misc/lv_color.h **** 
 449:..\..\..\lvgl\version_6.1.2\lvgl\src\lv_core\../lv_misc/lv_color.h **** /**
 450:..\..\..\lvgl\version_6.1.2\lvgl\src\lv_core\../lv_misc/lv_color.h ****  * Get the brightness of a color
 451:..\..\..\lvgl\version_6.1.2\lvgl\src\lv_core\../lv_misc/lv_color.h ****  * @param color a color
 452:..\..\..\lvgl\version_6.1.2\lvgl\src\lv_core\../lv_misc/lv_color.h ****  * @return the brightness [0..255]
 453:..\..\..\lvgl\version_6.1.2\lvgl\src\lv_core\../lv_misc/lv_color.h ****  */
 454:..\..\..\lvgl\version_6.1.2\lvgl\src\lv_core\../lv_misc/lv_color.h **** static inline uint8_t lv_color_brightness(lv_color_t color)
 455:..\..\..\lvgl\version_6.1.2\lvgl\src\lv_core\../lv_misc/lv_color.h **** {
 456:..\..\..\lvgl\version_6.1.2\lvgl\src\lv_core\../lv_misc/lv_color.h ****     lv_color32_t c32;
 457:..\..\..\lvgl\version_6.1.2\lvgl\src\lv_core\../lv_misc/lv_color.h ****     c32.full        = lv_color_to32(color);
 458:..\..\..\lvgl\version_6.1.2\lvgl\src\lv_core\../lv_misc/lv_color.h ****     uint16_t bright = (uint16_t)(3u * LV_COLOR_GET_R32(c32) + LV_COLOR_GET_B32(c32) + 4u * LV_COLOR
 459:..\..\..\lvgl\version_6.1.2\lvgl\src\lv_core\../lv_misc/lv_color.h ****     return (uint8_t)(bright >> 3);
 460:..\..\..\lvgl\version_6.1.2\lvgl\src\lv_core\../lv_misc/lv_color.h **** }
 461:..\..\..\lvgl\version_6.1.2\lvgl\src\lv_core\../lv_misc/lv_color.h **** 
 462:..\..\..\lvgl\version_6.1.2\lvgl\src\lv_core\../lv_misc/lv_color.h **** /* The most simple macro to create a color from R,G and B values */
 463:..\..\..\lvgl\version_6.1.2\lvgl\src\lv_core\../lv_misc/lv_color.h **** #if LV_COLOR_DEPTH == 1
 464:..\..\..\lvgl\version_6.1.2\lvgl\src\lv_core\../lv_misc/lv_color.h **** #define LV_COLOR_MAKE(r8, g8, b8) ((lv_color_t){.full = (uint8_t)((b8 >> 7) | (g8 >> 7) | (r8 >> 7)
 465:..\..\..\lvgl\version_6.1.2\lvgl\src\lv_core\../lv_misc/lv_color.h **** #elif LV_COLOR_DEPTH == 8
 466:..\..\..\lvgl\version_6.1.2\lvgl\src\lv_core\../lv_misc/lv_color.h **** #define LV_COLOR_MAKE(r8, g8, b8) ((lv_color_t){{(uint8_t)((b8 >> 6) & 0x3U), (uint8_t)((g8 >> 5) &
 467:..\..\..\lvgl\version_6.1.2\lvgl\src\lv_core\../lv_misc/lv_color.h **** #elif LV_COLOR_DEPTH == 16
 468:..\..\..\lvgl\version_6.1.2\lvgl\src\lv_core\../lv_misc/lv_color.h **** #if LV_COLOR_16_SWAP == 0
 469:..\..\..\lvgl\version_6.1.2\lvgl\src\lv_core\../lv_misc/lv_color.h **** #define LV_COLOR_MAKE(r8, g8, b8) ((lv_color_t){{(uint16_t)((b8 >> 3) & 0x1FU), (uint16_t)((g8 >> 2
 470:..\..\..\lvgl\version_6.1.2\lvgl\src\lv_core\../lv_misc/lv_color.h **** #else
 471:..\..\..\lvgl\version_6.1.2\lvgl\src\lv_core\../lv_misc/lv_color.h **** #define LV_COLOR_MAKE(r8, g8, b8) ((lv_color_t){{(uint16_t)((g8 >> 5) & 0x7U), (uint16_t)((r8 >> 3)
 472:..\..\..\lvgl\version_6.1.2\lvgl\src\lv_core\../lv_misc/lv_color.h **** #endif
 473:..\..\..\lvgl\version_6.1.2\lvgl\src\lv_core\../lv_misc/lv_color.h **** #elif LV_COLOR_DEPTH == 32
 474:..\..\..\lvgl\version_6.1.2\lvgl\src\lv_core\../lv_misc/lv_color.h **** #define LV_COLOR_MAKE(r8, g8, b8) ((lv_color_t){{b8, g8, r8, 0xff}}) /*Fix 0xff alpha*/
 475:..\..\..\lvgl\version_6.1.2\lvgl\src\lv_core\../lv_misc/lv_color.h **** #endif
 476:..\..\..\lvgl\version_6.1.2\lvgl\src\lv_core\../lv_misc/lv_color.h **** 
 477:..\..\..\lvgl\version_6.1.2\lvgl\src\lv_core\../lv_misc/lv_color.h **** static inline lv_color_t lv_color_make(uint8_t r, uint8_t g, uint8_t b)
 478:..\..\..\lvgl\version_6.1.2\lvgl\src\lv_core\../lv_misc/lv_color.h **** {
 130              		.loc 1 478 0
 131              		.cfi_startproc
 132              		@ args = 0, pretend = 0, frame = 8
 133              		@ frame_needed = 1, uses_anonymous_args = 0
 134              		@ link register save eliminated.
 135 0000 90B4     		push	{r4, r7}
 136              		.cfi_def_cfa_offset 8
 137              		.cfi_offset 4, -8
 138              		.cfi_offset 7, -4
 139 0002 82B0     		sub	sp, sp, #8
 140              		.cfi_def_cfa_offset 16
 141 0004 00AF     		add	r7, sp, #0
 142              		.cfi_def_cfa_register 7
 143 0006 0446     		mov	r4, r0
 144 0008 0846     		mov	r0, r1
 145 000a 1146     		mov	r1, r2
 146 000c 2246     		mov	r2, r4
 147 000e FA71     		strb	r2, [r7, #7]
 148 0010 0246     		mov	r2, r0
 149 0012 BA71     		strb	r2, [r7, #6]
ARM GAS  C:\Users\tmj32\AppData\Local\Temp\ccSL9kiF.s 			page 12


 150 0014 0A46     		mov	r2, r1
 151 0016 7A71     		strb	r2, [r7, #5]
 479:..\..\..\lvgl\version_6.1.2\lvgl\src\lv_core\../lv_misc/lv_color.h ****     return LV_COLOR_MAKE(r, g, b);
 152              		.loc 1 479 0
 153 0018 7A79     		ldrb	r2, [r7, #5]
 154 001a 62F30703 		bfi	r3, r2, #0, #8
 155 001e BA79     		ldrb	r2, [r7, #6]
 156 0020 62F30F23 		bfi	r3, r2, #8, #8
 157 0024 FA79     		ldrb	r2, [r7, #7]
 158 0026 62F31743 		bfi	r3, r2, #16, #8
 159 002a 43F07F43 		orr	r3, r3, #-16777216
 480:..\..\..\lvgl\version_6.1.2\lvgl\src\lv_core\../lv_misc/lv_color.h **** }
 160              		.loc 1 480 0
 161 002e 1846     		mov	r0, r3
 162 0030 0837     		adds	r7, r7, #8
 163              		.cfi_def_cfa_offset 8
 164 0032 BD46     		mov	sp, r7
 165              		.cfi_def_cfa_register 13
 166              		@ sp needed
 167 0034 90BC     		pop	{r4, r7}
 168              		.cfi_restore 7
 169              		.cfi_restore 4
 170              		.cfi_def_cfa_offset 0
 171 0036 7047     		bx	lr
 172              		.cfi_endproc
 173              	.LFE7:
 174              		.size	lv_color_make, .-lv_color_make
 175              		.comm	lv_style_scr,80,4
 176              		.comm	lv_style_transp,80,4
 177              		.comm	lv_style_transp_fit,80,4
 178              		.comm	lv_style_transp_tight,80,4
 179              		.comm	lv_style_plain,80,4
 180              		.comm	lv_style_plain_color,80,4
 181              		.comm	lv_style_pretty,80,4
 182              		.comm	lv_style_pretty_color,80,4
 183              		.comm	lv_style_btn_rel,80,4
 184              		.comm	lv_style_btn_pr,80,4
 185              		.comm	lv_style_btn_tgl_rel,80,4
 186              		.comm	lv_style_btn_tgl_pr,80,4
 187              		.comm	lv_style_btn_ina,80,4
 188              		.section	.text.lv_style_init,"ax",%progbits
 189              		.align	2
 190              		.global	lv_style_init
 191              		.thumb
 192              		.thumb_func
 193              		.type	lv_style_init, %function
 194              	lv_style_init:
 195              	.LFB31:
 196              		.file 2 "..\\..\\..\\lvgl\\version_6.1.2\\lvgl\\src\\lv_core\\lv_style.c"
   1:..\..\..\lvgl\version_6.1.2\lvgl\src\lv_core/lv_style.c **** /**
   2:..\..\..\lvgl\version_6.1.2\lvgl\src\lv_core/lv_style.c ****  * @file lv_style.c
   3:..\..\..\lvgl\version_6.1.2\lvgl\src\lv_core/lv_style.c ****  *
   4:..\..\..\lvgl\version_6.1.2\lvgl\src\lv_core/lv_style.c ****  */
   5:..\..\..\lvgl\version_6.1.2\lvgl\src\lv_core/lv_style.c **** 
   6:..\..\..\lvgl\version_6.1.2\lvgl\src\lv_core/lv_style.c **** /*********************
   7:..\..\..\lvgl\version_6.1.2\lvgl\src\lv_core/lv_style.c ****  *      INCLUDES
   8:..\..\..\lvgl\version_6.1.2\lvgl\src\lv_core/lv_style.c ****  *********************/
ARM GAS  C:\Users\tmj32\AppData\Local\Temp\ccSL9kiF.s 			page 13


   9:..\..\..\lvgl\version_6.1.2\lvgl\src\lv_core/lv_style.c **** #include "lv_obj.h"
  10:..\..\..\lvgl\version_6.1.2\lvgl\src\lv_core/lv_style.c **** #include "../lv_core/lv_debug.h"
  11:..\..\..\lvgl\version_6.1.2\lvgl\src\lv_core/lv_style.c **** #include "../lv_misc/lv_mem.h"
  12:..\..\..\lvgl\version_6.1.2\lvgl\src\lv_core/lv_style.c **** #include "../lv_misc/lv_anim.h"
  13:..\..\..\lvgl\version_6.1.2\lvgl\src\lv_core/lv_style.c **** 
  14:..\..\..\lvgl\version_6.1.2\lvgl\src\lv_core/lv_style.c **** /*********************
  15:..\..\..\lvgl\version_6.1.2\lvgl\src\lv_core/lv_style.c ****  *      DEFINES
  16:..\..\..\lvgl\version_6.1.2\lvgl\src\lv_core/lv_style.c ****  *********************/
  17:..\..\..\lvgl\version_6.1.2\lvgl\src\lv_core/lv_style.c **** #define STYLE_MIX_MAX 256
  18:..\..\..\lvgl\version_6.1.2\lvgl\src\lv_core/lv_style.c **** #define STYLE_MIX_SHIFT 8 /*log2(STYLE_MIX_MAX)*/
  19:..\..\..\lvgl\version_6.1.2\lvgl\src\lv_core/lv_style.c **** 
  20:..\..\..\lvgl\version_6.1.2\lvgl\src\lv_core/lv_style.c **** #define VAL_PROP(v1, v2, r) v1 + (((v2 - v1) * r) >> STYLE_MIX_SHIFT)
  21:..\..\..\lvgl\version_6.1.2\lvgl\src\lv_core/lv_style.c **** #define STYLE_ATTR_MIX(attr, r)                                                                    
  22:..\..\..\lvgl\version_6.1.2\lvgl\src\lv_core/lv_style.c ****     if(start->attr != end->attr) {                                                                 
  23:..\..\..\lvgl\version_6.1.2\lvgl\src\lv_core/lv_style.c ****         res->attr = VAL_PROP(start->attr, end->attr, r);                                           
  24:..\..\..\lvgl\version_6.1.2\lvgl\src\lv_core/lv_style.c ****     } else {                                                                                       
  25:..\..\..\lvgl\version_6.1.2\lvgl\src\lv_core/lv_style.c ****         res->attr = start->attr;                                                                   
  26:..\..\..\lvgl\version_6.1.2\lvgl\src\lv_core/lv_style.c ****     }
  27:..\..\..\lvgl\version_6.1.2\lvgl\src\lv_core/lv_style.c **** 
  28:..\..\..\lvgl\version_6.1.2\lvgl\src\lv_core/lv_style.c **** /**********************
  29:..\..\..\lvgl\version_6.1.2\lvgl\src\lv_core/lv_style.c ****  *      TYPEDEFS
  30:..\..\..\lvgl\version_6.1.2\lvgl\src\lv_core/lv_style.c ****  **********************/
  31:..\..\..\lvgl\version_6.1.2\lvgl\src\lv_core/lv_style.c **** 
  32:..\..\..\lvgl\version_6.1.2\lvgl\src\lv_core/lv_style.c **** /**********************
  33:..\..\..\lvgl\version_6.1.2\lvgl\src\lv_core/lv_style.c ****  *  STATIC PROTOTYPES
  34:..\..\..\lvgl\version_6.1.2\lvgl\src\lv_core/lv_style.c ****  **********************/
  35:..\..\..\lvgl\version_6.1.2\lvgl\src\lv_core/lv_style.c **** #if LV_USE_ANIMATION
  36:..\..\..\lvgl\version_6.1.2\lvgl\src\lv_core/lv_style.c **** static void style_animator(lv_style_anim_dsc_t * dsc, lv_anim_value_t val);
  37:..\..\..\lvgl\version_6.1.2\lvgl\src\lv_core/lv_style.c **** static void style_animation_common_end_cb(lv_anim_t * a);
  38:..\..\..\lvgl\version_6.1.2\lvgl\src\lv_core/lv_style.c **** #endif
  39:..\..\..\lvgl\version_6.1.2\lvgl\src\lv_core/lv_style.c **** 
  40:..\..\..\lvgl\version_6.1.2\lvgl\src\lv_core/lv_style.c **** /**********************
  41:..\..\..\lvgl\version_6.1.2\lvgl\src\lv_core/lv_style.c ****  *  STATIC VARIABLES
  42:..\..\..\lvgl\version_6.1.2\lvgl\src\lv_core/lv_style.c ****  **********************/
  43:..\..\..\lvgl\version_6.1.2\lvgl\src\lv_core/lv_style.c **** lv_style_t lv_style_scr;
  44:..\..\..\lvgl\version_6.1.2\lvgl\src\lv_core/lv_style.c **** lv_style_t lv_style_transp;
  45:..\..\..\lvgl\version_6.1.2\lvgl\src\lv_core/lv_style.c **** lv_style_t lv_style_transp_fit;
  46:..\..\..\lvgl\version_6.1.2\lvgl\src\lv_core/lv_style.c **** lv_style_t lv_style_transp_tight;
  47:..\..\..\lvgl\version_6.1.2\lvgl\src\lv_core/lv_style.c **** lv_style_t lv_style_plain;
  48:..\..\..\lvgl\version_6.1.2\lvgl\src\lv_core/lv_style.c **** lv_style_t lv_style_plain_color;
  49:..\..\..\lvgl\version_6.1.2\lvgl\src\lv_core/lv_style.c **** lv_style_t lv_style_pretty;
  50:..\..\..\lvgl\version_6.1.2\lvgl\src\lv_core/lv_style.c **** lv_style_t lv_style_pretty_color;
  51:..\..\..\lvgl\version_6.1.2\lvgl\src\lv_core/lv_style.c **** lv_style_t lv_style_btn_rel;
  52:..\..\..\lvgl\version_6.1.2\lvgl\src\lv_core/lv_style.c **** lv_style_t lv_style_btn_pr;
  53:..\..\..\lvgl\version_6.1.2\lvgl\src\lv_core/lv_style.c **** lv_style_t lv_style_btn_tgl_rel;
  54:..\..\..\lvgl\version_6.1.2\lvgl\src\lv_core/lv_style.c **** lv_style_t lv_style_btn_tgl_pr;
  55:..\..\..\lvgl\version_6.1.2\lvgl\src\lv_core/lv_style.c **** lv_style_t lv_style_btn_ina;
  56:..\..\..\lvgl\version_6.1.2\lvgl\src\lv_core/lv_style.c **** 
  57:..\..\..\lvgl\version_6.1.2\lvgl\src\lv_core/lv_style.c **** /**********************
  58:..\..\..\lvgl\version_6.1.2\lvgl\src\lv_core/lv_style.c ****  *      MACROS
  59:..\..\..\lvgl\version_6.1.2\lvgl\src\lv_core/lv_style.c ****  **********************/
  60:..\..\..\lvgl\version_6.1.2\lvgl\src\lv_core/lv_style.c **** 
  61:..\..\..\lvgl\version_6.1.2\lvgl\src\lv_core/lv_style.c **** /**********************
  62:..\..\..\lvgl\version_6.1.2\lvgl\src\lv_core/lv_style.c ****  *   GLOBAL FUNCTIONS
  63:..\..\..\lvgl\version_6.1.2\lvgl\src\lv_core/lv_style.c ****  **********************/
  64:..\..\..\lvgl\version_6.1.2\lvgl\src\lv_core/lv_style.c **** 
  65:..\..\..\lvgl\version_6.1.2\lvgl\src\lv_core/lv_style.c **** /**
ARM GAS  C:\Users\tmj32\AppData\Local\Temp\ccSL9kiF.s 			page 14


  66:..\..\..\lvgl\version_6.1.2\lvgl\src\lv_core/lv_style.c ****  *  Init the basic styles
  67:..\..\..\lvgl\version_6.1.2\lvgl\src\lv_core/lv_style.c ****  */
  68:..\..\..\lvgl\version_6.1.2\lvgl\src\lv_core/lv_style.c **** void lv_style_init(void)
  69:..\..\..\lvgl\version_6.1.2\lvgl\src\lv_core/lv_style.c **** {
 197              		.loc 2 69 0
 198              		.cfi_startproc
 199              		@ args = 0, pretend = 0, frame = 0
 200              		@ frame_needed = 1, uses_anonymous_args = 0
 201 0000 98B5     		push	{r3, r4, r7, lr}
 202              		.cfi_def_cfa_offset 16
 203              		.cfi_offset 3, -16
 204              		.cfi_offset 4, -12
 205              		.cfi_offset 7, -8
 206              		.cfi_offset 14, -4
 207 0002 00AF     		add	r7, sp, #0
 208              		.cfi_def_cfa_register 7
  70:..\..\..\lvgl\version_6.1.2\lvgl\src\lv_core/lv_style.c ****     /* Not White/Black/Gray colors are created by HSV model with
  71:..\..\..\lvgl\version_6.1.2\lvgl\src\lv_core/lv_style.c ****      * HUE = 210*/
  72:..\..\..\lvgl\version_6.1.2\lvgl\src\lv_core/lv_style.c **** 
  73:..\..\..\lvgl\version_6.1.2\lvgl\src\lv_core/lv_style.c ****     /*Screen style*/
  74:..\..\..\lvgl\version_6.1.2\lvgl\src\lv_core/lv_style.c ****     lv_style_scr.glass               = 0;
 209              		.loc 2 74 0
 210 0004 B64A     		ldr	r2, .L6
 211 0006 1378     		ldrb	r3, [r2]
 212 0008 6FF30003 		bfc	r3, #0, #1
 213 000c 1370     		strb	r3, [r2]
  75:..\..\..\lvgl\version_6.1.2\lvgl\src\lv_core/lv_style.c ****     lv_style_scr.body.opa            = LV_OPA_COVER;
 214              		.loc 2 75 0
 215 000e B44B     		ldr	r3, .L6
 216 0010 FF22     		movs	r2, #255
 217 0012 9A73     		strb	r2, [r3, #14]
  76:..\..\..\lvgl\version_6.1.2\lvgl\src\lv_core/lv_style.c ****     lv_style_scr.body.main_color     = LV_COLOR_WHITE;
 218              		.loc 2 76 0
 219 0014 B24B     		ldr	r3, .L6
 220 0016 FF22     		movs	r2, #255
 221 0018 1A71     		strb	r2, [r3, #4]
 222 001a B14B     		ldr	r3, .L6
 223 001c FF22     		movs	r2, #255
 224 001e 5A71     		strb	r2, [r3, #5]
 225 0020 AF4B     		ldr	r3, .L6
 226 0022 FF22     		movs	r2, #255
 227 0024 9A71     		strb	r2, [r3, #6]
 228 0026 AE4B     		ldr	r3, .L6
 229 0028 FF22     		movs	r2, #255
 230 002a DA71     		strb	r2, [r3, #7]
  77:..\..\..\lvgl\version_6.1.2\lvgl\src\lv_core/lv_style.c ****     lv_style_scr.body.grad_color     = LV_COLOR_WHITE;
 231              		.loc 2 77 0
 232 002c AC4B     		ldr	r3, .L6
 233 002e FF22     		movs	r2, #255
 234 0030 1A72     		strb	r2, [r3, #8]
 235 0032 AB4B     		ldr	r3, .L6
 236 0034 FF22     		movs	r2, #255
 237 0036 5A72     		strb	r2, [r3, #9]
 238 0038 A94B     		ldr	r3, .L6
 239 003a FF22     		movs	r2, #255
 240 003c 9A72     		strb	r2, [r3, #10]
 241 003e A84B     		ldr	r3, .L6
ARM GAS  C:\Users\tmj32\AppData\Local\Temp\ccSL9kiF.s 			page 15


 242 0040 FF22     		movs	r2, #255
 243 0042 DA72     		strb	r2, [r3, #11]
  78:..\..\..\lvgl\version_6.1.2\lvgl\src\lv_core/lv_style.c ****     lv_style_scr.body.radius         = 0;
 244              		.loc 2 78 0
 245 0044 A64B     		ldr	r3, .L6
 246 0046 0022     		movs	r2, #0
 247 0048 9A81     		strh	r2, [r3, #12]	@ movhi
  79:..\..\..\lvgl\version_6.1.2\lvgl\src\lv_core/lv_style.c ****     lv_style_scr.body.padding.left   = 0;
 248              		.loc 2 79 0
 249 004a A54B     		ldr	r3, .L6
 250 004c 0022     		movs	r2, #0
 251 004e 9A84     		strh	r2, [r3, #36]	@ movhi
  80:..\..\..\lvgl\version_6.1.2\lvgl\src\lv_core/lv_style.c ****     lv_style_scr.body.padding.right  = 0;
 252              		.loc 2 80 0
 253 0050 A34B     		ldr	r3, .L6
 254 0052 0022     		movs	r2, #0
 255 0054 DA84     		strh	r2, [r3, #38]	@ movhi
  81:..\..\..\lvgl\version_6.1.2\lvgl\src\lv_core/lv_style.c ****     lv_style_scr.body.padding.top    = 0;
 256              		.loc 2 81 0
 257 0056 A24B     		ldr	r3, .L6
 258 0058 0022     		movs	r2, #0
 259 005a 1A84     		strh	r2, [r3, #32]	@ movhi
  82:..\..\..\lvgl\version_6.1.2\lvgl\src\lv_core/lv_style.c ****     lv_style_scr.body.padding.bottom = 0;
 260              		.loc 2 82 0
 261 005c A04B     		ldr	r3, .L6
 262 005e 0022     		movs	r2, #0
 263 0060 5A84     		strh	r2, [r3, #34]	@ movhi
  83:..\..\..\lvgl\version_6.1.2\lvgl\src\lv_core/lv_style.c ****     lv_style_scr.body.padding.inner  = LV_DPI / 20;
 264              		.loc 2 83 0
 265 0062 9F4B     		ldr	r3, .L6
 266 0064 0722     		movs	r2, #7
 267 0066 1A85     		strh	r2, [r3, #40]	@ movhi
  84:..\..\..\lvgl\version_6.1.2\lvgl\src\lv_core/lv_style.c **** 
  85:..\..\..\lvgl\version_6.1.2\lvgl\src\lv_core/lv_style.c ****     lv_style_scr.body.border.color = LV_COLOR_BLACK;
 268              		.loc 2 85 0
 269 0068 9D4B     		ldr	r3, .L6
 270 006a 0022     		movs	r2, #0
 271 006c 1A74     		strb	r2, [r3, #16]
 272 006e 9C4B     		ldr	r3, .L6
 273 0070 0022     		movs	r2, #0
 274 0072 5A74     		strb	r2, [r3, #17]
 275 0074 9A4B     		ldr	r3, .L6
 276 0076 0022     		movs	r2, #0
 277 0078 9A74     		strb	r2, [r3, #18]
 278 007a 994B     		ldr	r3, .L6
 279 007c FF22     		movs	r2, #255
 280 007e DA74     		strb	r2, [r3, #19]
  86:..\..\..\lvgl\version_6.1.2\lvgl\src\lv_core/lv_style.c ****     lv_style_scr.body.border.opa   = LV_OPA_COVER;
 281              		.loc 2 86 0
 282 0080 974B     		ldr	r3, .L6
 283 0082 FF22     		movs	r2, #255
 284 0084 DA75     		strb	r2, [r3, #23]
  87:..\..\..\lvgl\version_6.1.2\lvgl\src\lv_core/lv_style.c ****     lv_style_scr.body.border.width = 0;
 285              		.loc 2 87 0
 286 0086 964B     		ldr	r3, .L6
 287 0088 0022     		movs	r2, #0
 288 008a 9A82     		strh	r2, [r3, #20]	@ movhi
ARM GAS  C:\Users\tmj32\AppData\Local\Temp\ccSL9kiF.s 			page 16


  88:..\..\..\lvgl\version_6.1.2\lvgl\src\lv_core/lv_style.c ****     lv_style_scr.body.border.part  = LV_BORDER_FULL;
 289              		.loc 2 88 0
 290 008c 944B     		ldr	r3, .L6
 291 008e 0F22     		movs	r2, #15
 292 0090 9A75     		strb	r2, [r3, #22]
  89:..\..\..\lvgl\version_6.1.2\lvgl\src\lv_core/lv_style.c **** 
  90:..\..\..\lvgl\version_6.1.2\lvgl\src\lv_core/lv_style.c ****     lv_style_scr.body.shadow.color = LV_COLOR_GRAY;
 293              		.loc 2 90 0
 294 0092 934B     		ldr	r3, .L6
 295 0094 8022     		movs	r2, #128
 296 0096 1A76     		strb	r2, [r3, #24]
 297 0098 914B     		ldr	r3, .L6
 298 009a 8022     		movs	r2, #128
 299 009c 5A76     		strb	r2, [r3, #25]
 300 009e 904B     		ldr	r3, .L6
 301 00a0 8022     		movs	r2, #128
 302 00a2 9A76     		strb	r2, [r3, #26]
 303 00a4 8E4B     		ldr	r3, .L6
 304 00a6 FF22     		movs	r2, #255
 305 00a8 DA76     		strb	r2, [r3, #27]
  91:..\..\..\lvgl\version_6.1.2\lvgl\src\lv_core/lv_style.c ****     lv_style_scr.body.shadow.type  = LV_SHADOW_FULL;
 306              		.loc 2 91 0
 307 00aa 8D4B     		ldr	r3, .L6
 308 00ac 0122     		movs	r2, #1
 309 00ae 9A77     		strb	r2, [r3, #30]
  92:..\..\..\lvgl\version_6.1.2\lvgl\src\lv_core/lv_style.c ****     lv_style_scr.body.shadow.width = 0;
 310              		.loc 2 92 0
 311 00b0 8B4B     		ldr	r3, .L6
 312 00b2 0022     		movs	r2, #0
 313 00b4 9A83     		strh	r2, [r3, #28]	@ movhi
  93:..\..\..\lvgl\version_6.1.2\lvgl\src\lv_core/lv_style.c **** 
  94:..\..\..\lvgl\version_6.1.2\lvgl\src\lv_core/lv_style.c ****     lv_style_scr.text.opa          = LV_OPA_COVER;
 314              		.loc 2 94 0
 315 00b6 8A4B     		ldr	r3, .L6
 316 00b8 FF22     		movs	r2, #255
 317 00ba 83F83C20 		strb	r2, [r3, #60]
  95:..\..\..\lvgl\version_6.1.2\lvgl\src\lv_core/lv_style.c ****     lv_style_scr.text.color        = lv_color_make(0x30, 0x30, 0x30);
 318              		.loc 2 95 0
 319 00be 884C     		ldr	r4, .L6
 320 00c0 3022     		movs	r2, #48
 321 00c2 3021     		movs	r1, #48
 322 00c4 3020     		movs	r0, #48
 323 00c6 FFF7FEFF 		bl	lv_color_make
 324 00ca E062     		str	r0, [r4, #44]
  96:..\..\..\lvgl\version_6.1.2\lvgl\src\lv_core/lv_style.c ****     lv_style_scr.text.sel_color    = lv_color_make(0x55, 0x96, 0xd8);
 325              		.loc 2 96 0
 326 00cc 844C     		ldr	r4, .L6
 327 00ce D822     		movs	r2, #216
 328 00d0 9621     		movs	r1, #150
 329 00d2 5520     		movs	r0, #85
 330 00d4 FFF7FEFF 		bl	lv_color_make
 331 00d8 2063     		str	r0, [r4, #48]
  97:..\..\..\lvgl\version_6.1.2\lvgl\src\lv_core/lv_style.c ****     lv_style_scr.text.font         = LV_FONT_DEFAULT;
 332              		.loc 2 97 0
 333 00da 814B     		ldr	r3, .L6
 334 00dc 814A     		ldr	r2, .L6+4
 335 00de 5A63     		str	r2, [r3, #52]
ARM GAS  C:\Users\tmj32\AppData\Local\Temp\ccSL9kiF.s 			page 17


  98:..\..\..\lvgl\version_6.1.2\lvgl\src\lv_core/lv_style.c ****     lv_style_scr.text.letter_space = 0;
 336              		.loc 2 98 0
 337 00e0 7F4B     		ldr	r3, .L6
 338 00e2 0022     		movs	r2, #0
 339 00e4 1A87     		strh	r2, [r3, #56]	@ movhi
  99:..\..\..\lvgl\version_6.1.2\lvgl\src\lv_core/lv_style.c ****     lv_style_scr.text.line_space   = 2;
 340              		.loc 2 99 0
 341 00e6 7E4B     		ldr	r3, .L6
 342 00e8 0222     		movs	r2, #2
 343 00ea 5A87     		strh	r2, [r3, #58]	@ movhi
 100:..\..\..\lvgl\version_6.1.2\lvgl\src\lv_core/lv_style.c **** 
 101:..\..\..\lvgl\version_6.1.2\lvgl\src\lv_core/lv_style.c ****     lv_style_scr.image.opa     = LV_OPA_COVER;
 344              		.loc 2 101 0
 345 00ec 7C4B     		ldr	r3, .L6
 346 00ee FF22     		movs	r2, #255
 347 00f0 83F84520 		strb	r2, [r3, #69]
 102:..\..\..\lvgl\version_6.1.2\lvgl\src\lv_core/lv_style.c ****     lv_style_scr.image.color   = lv_color_make(0x20, 0x20, 0x20);
 348              		.loc 2 102 0
 349 00f4 7A4C     		ldr	r4, .L6
 350 00f6 2022     		movs	r2, #32
 351 00f8 2021     		movs	r1, #32
 352 00fa 2020     		movs	r0, #32
 353 00fc FFF7FEFF 		bl	lv_color_make
 354 0100 2064     		str	r0, [r4, #64]
 103:..\..\..\lvgl\version_6.1.2\lvgl\src\lv_core/lv_style.c ****     lv_style_scr.image.intense = LV_OPA_TRANSP;
 355              		.loc 2 103 0
 356 0102 774B     		ldr	r3, .L6
 357 0104 0022     		movs	r2, #0
 358 0106 83F84420 		strb	r2, [r3, #68]
 104:..\..\..\lvgl\version_6.1.2\lvgl\src\lv_core/lv_style.c **** 
 105:..\..\..\lvgl\version_6.1.2\lvgl\src\lv_core/lv_style.c ****     lv_style_scr.line.opa     = LV_OPA_COVER;
 359              		.loc 2 105 0
 360 010a 754B     		ldr	r3, .L6
 361 010c FF22     		movs	r2, #255
 362 010e 83F84E20 		strb	r2, [r3, #78]
 106:..\..\..\lvgl\version_6.1.2\lvgl\src\lv_core/lv_style.c ****     lv_style_scr.line.color   = lv_color_make(0x20, 0x20, 0x20);
 363              		.loc 2 106 0
 364 0112 734C     		ldr	r4, .L6
 365 0114 2022     		movs	r2, #32
 366 0116 2021     		movs	r1, #32
 367 0118 2020     		movs	r0, #32
 368 011a FFF7FEFF 		bl	lv_color_make
 369 011e A064     		str	r0, [r4, #72]
 107:..\..\..\lvgl\version_6.1.2\lvgl\src\lv_core/lv_style.c ****     lv_style_scr.line.width   = 2;
 370              		.loc 2 107 0
 371 0120 6F4B     		ldr	r3, .L6
 372 0122 0222     		movs	r2, #2
 373 0124 A3F84C20 		strh	r2, [r3, #76]	@ movhi
 108:..\..\..\lvgl\version_6.1.2\lvgl\src\lv_core/lv_style.c ****     lv_style_scr.line.rounded = 0;
 374              		.loc 2 108 0
 375 0128 6D4A     		ldr	r2, .L6
 376 012a 92F84F30 		ldrb	r3, [r2, #79]
 377 012e 6FF30003 		bfc	r3, #0, #1
 378 0132 82F84F30 		strb	r3, [r2, #79]
 109:..\..\..\lvgl\version_6.1.2\lvgl\src\lv_core/lv_style.c **** 
 110:..\..\..\lvgl\version_6.1.2\lvgl\src\lv_core/lv_style.c **** #if LV_USE_DEBUG
 111:..\..\..\lvgl\version_6.1.2\lvgl\src\lv_core/lv_style.c **** #if LV_USE_ASSERT_STYLE
ARM GAS  C:\Users\tmj32\AppData\Local\Temp\ccSL9kiF.s 			page 18


 112:..\..\..\lvgl\version_6.1.2\lvgl\src\lv_core/lv_style.c ****     lv_style_scr.debug_sentinel = LV_STYLE_DEGUG_SENTINEL_VALUE;
 113:..\..\..\lvgl\version_6.1.2\lvgl\src\lv_core/lv_style.c **** #endif
 114:..\..\..\lvgl\version_6.1.2\lvgl\src\lv_core/lv_style.c **** #endif
 115:..\..\..\lvgl\version_6.1.2\lvgl\src\lv_core/lv_style.c **** 
 116:..\..\..\lvgl\version_6.1.2\lvgl\src\lv_core/lv_style.c ****     /*Plain style (by default near the same as the screen style)*/
 117:..\..\..\lvgl\version_6.1.2\lvgl\src\lv_core/lv_style.c ****     lv_style_copy(&lv_style_plain, &lv_style_scr);
 379              		.loc 2 117 0
 380 0136 6A49     		ldr	r1, .L6
 381 0138 6B48     		ldr	r0, .L6+8
 382 013a FFF7FEFF 		bl	lv_style_copy
 118:..\..\..\lvgl\version_6.1.2\lvgl\src\lv_core/lv_style.c ****     lv_style_plain.body.padding.left   = LV_DPI / 20;
 383              		.loc 2 118 0
 384 013e 6A4B     		ldr	r3, .L6+8
 385 0140 0722     		movs	r2, #7
 386 0142 9A84     		strh	r2, [r3, #36]	@ movhi
 119:..\..\..\lvgl\version_6.1.2\lvgl\src\lv_core/lv_style.c ****     lv_style_plain.body.padding.right  = LV_DPI / 20;
 387              		.loc 2 119 0
 388 0144 684B     		ldr	r3, .L6+8
 389 0146 0722     		movs	r2, #7
 390 0148 DA84     		strh	r2, [r3, #38]	@ movhi
 120:..\..\..\lvgl\version_6.1.2\lvgl\src\lv_core/lv_style.c ****     lv_style_plain.body.padding.top    = LV_DPI / 20;
 391              		.loc 2 120 0
 392 014a 674B     		ldr	r3, .L6+8
 393 014c 0722     		movs	r2, #7
 394 014e 1A84     		strh	r2, [r3, #32]	@ movhi
 121:..\..\..\lvgl\version_6.1.2\lvgl\src\lv_core/lv_style.c ****     lv_style_plain.body.padding.bottom = LV_DPI / 20;
 395              		.loc 2 121 0
 396 0150 654B     		ldr	r3, .L6+8
 397 0152 0722     		movs	r2, #7
 398 0154 5A84     		strh	r2, [r3, #34]	@ movhi
 122:..\..\..\lvgl\version_6.1.2\lvgl\src\lv_core/lv_style.c **** 
 123:..\..\..\lvgl\version_6.1.2\lvgl\src\lv_core/lv_style.c ****     /*Plain color style*/
 124:..\..\..\lvgl\version_6.1.2\lvgl\src\lv_core/lv_style.c ****     lv_style_copy(&lv_style_plain_color, &lv_style_plain);
 399              		.loc 2 124 0
 400 0156 6449     		ldr	r1, .L6+8
 401 0158 6448     		ldr	r0, .L6+12
 402 015a FFF7FEFF 		bl	lv_style_copy
 125:..\..\..\lvgl\version_6.1.2\lvgl\src\lv_core/lv_style.c ****     lv_style_plain_color.text.color      = lv_color_make(0xf0, 0xf0, 0xf0);
 403              		.loc 2 125 0
 404 015e 634C     		ldr	r4, .L6+12
 405 0160 F022     		movs	r2, #240
 406 0162 F021     		movs	r1, #240
 407 0164 F020     		movs	r0, #240
 408 0166 FFF7FEFF 		bl	lv_color_make
 409 016a E062     		str	r0, [r4, #44]
 126:..\..\..\lvgl\version_6.1.2\lvgl\src\lv_core/lv_style.c ****     lv_style_plain_color.image.color     = lv_color_make(0xf0, 0xf0, 0xf0);
 410              		.loc 2 126 0
 411 016c 5F4C     		ldr	r4, .L6+12
 412 016e F022     		movs	r2, #240
 413 0170 F021     		movs	r1, #240
 414 0172 F020     		movs	r0, #240
 415 0174 FFF7FEFF 		bl	lv_color_make
 416 0178 2064     		str	r0, [r4, #64]
 127:..\..\..\lvgl\version_6.1.2\lvgl\src\lv_core/lv_style.c ****     lv_style_plain_color.line.color      = lv_color_make(0xf0, 0xf0, 0xf0);
 417              		.loc 2 127 0
 418 017a 5C4C     		ldr	r4, .L6+12
 419 017c F022     		movs	r2, #240
ARM GAS  C:\Users\tmj32\AppData\Local\Temp\ccSL9kiF.s 			page 19


 420 017e F021     		movs	r1, #240
 421 0180 F020     		movs	r0, #240
 422 0182 FFF7FEFF 		bl	lv_color_make
 423 0186 A064     		str	r0, [r4, #72]
 128:..\..\..\lvgl\version_6.1.2\lvgl\src\lv_core/lv_style.c ****     lv_style_plain_color.body.main_color = lv_color_make(0x55, 0x96, 0xd8);
 424              		.loc 2 128 0
 425 0188 584C     		ldr	r4, .L6+12
 426 018a D822     		movs	r2, #216
 427 018c 9621     		movs	r1, #150
 428 018e 5520     		movs	r0, #85
 429 0190 FFF7FEFF 		bl	lv_color_make
 430 0194 6060     		str	r0, [r4, #4]
 129:..\..\..\lvgl\version_6.1.2\lvgl\src\lv_core/lv_style.c ****     lv_style_plain_color.body.grad_color = lv_style_plain_color.body.main_color;
 431              		.loc 2 129 0
 432 0196 554A     		ldr	r2, .L6+12
 433 0198 544B     		ldr	r3, .L6+12
 434 019a 5B68     		ldr	r3, [r3, #4]
 435 019c 9360     		str	r3, [r2, #8]
 130:..\..\..\lvgl\version_6.1.2\lvgl\src\lv_core/lv_style.c **** 
 131:..\..\..\lvgl\version_6.1.2\lvgl\src\lv_core/lv_style.c ****     /*Pretty style */
 132:..\..\..\lvgl\version_6.1.2\lvgl\src\lv_core/lv_style.c ****     lv_style_copy(&lv_style_pretty, &lv_style_plain);
 436              		.loc 2 132 0
 437 019e 5249     		ldr	r1, .L6+8
 438 01a0 5348     		ldr	r0, .L6+16
 439 01a2 FFF7FEFF 		bl	lv_style_copy
 133:..\..\..\lvgl\version_6.1.2\lvgl\src\lv_core/lv_style.c ****     lv_style_pretty.text.color        = lv_color_make(0x20, 0x20, 0x20);
 440              		.loc 2 133 0
 441 01a6 524C     		ldr	r4, .L6+16
 442 01a8 2022     		movs	r2, #32
 443 01aa 2021     		movs	r1, #32
 444 01ac 2020     		movs	r0, #32
 445 01ae FFF7FEFF 		bl	lv_color_make
 446 01b2 E062     		str	r0, [r4, #44]
 134:..\..\..\lvgl\version_6.1.2\lvgl\src\lv_core/lv_style.c ****     lv_style_pretty.image.color       = lv_color_make(0x20, 0x20, 0x20);
 447              		.loc 2 134 0
 448 01b4 4E4C     		ldr	r4, .L6+16
 449 01b6 2022     		movs	r2, #32
 450 01b8 2021     		movs	r1, #32
 451 01ba 2020     		movs	r0, #32
 452 01bc FFF7FEFF 		bl	lv_color_make
 453 01c0 2064     		str	r0, [r4, #64]
 135:..\..\..\lvgl\version_6.1.2\lvgl\src\lv_core/lv_style.c ****     lv_style_pretty.line.color        = lv_color_make(0x20, 0x20, 0x20);
 454              		.loc 2 135 0
 455 01c2 4B4C     		ldr	r4, .L6+16
 456 01c4 2022     		movs	r2, #32
 457 01c6 2021     		movs	r1, #32
 458 01c8 2020     		movs	r0, #32
 459 01ca FFF7FEFF 		bl	lv_color_make
 460 01ce A064     		str	r0, [r4, #72]
 136:..\..\..\lvgl\version_6.1.2\lvgl\src\lv_core/lv_style.c ****     lv_style_pretty.body.main_color   = LV_COLOR_WHITE;
 461              		.loc 2 136 0
 462 01d0 474B     		ldr	r3, .L6+16
 463 01d2 FF22     		movs	r2, #255
 464 01d4 1A71     		strb	r2, [r3, #4]
 465 01d6 464B     		ldr	r3, .L6+16
 466 01d8 FF22     		movs	r2, #255
 467 01da 5A71     		strb	r2, [r3, #5]
ARM GAS  C:\Users\tmj32\AppData\Local\Temp\ccSL9kiF.s 			page 20


 468 01dc 444B     		ldr	r3, .L6+16
 469 01de FF22     		movs	r2, #255
 470 01e0 9A71     		strb	r2, [r3, #6]
 471 01e2 434B     		ldr	r3, .L6+16
 472 01e4 FF22     		movs	r2, #255
 473 01e6 DA71     		strb	r2, [r3, #7]
 137:..\..\..\lvgl\version_6.1.2\lvgl\src\lv_core/lv_style.c ****     lv_style_pretty.body.grad_color   = LV_COLOR_SILVER;
 474              		.loc 2 137 0
 475 01e8 414B     		ldr	r3, .L6+16
 476 01ea C022     		movs	r2, #192
 477 01ec 1A72     		strb	r2, [r3, #8]
 478 01ee 404B     		ldr	r3, .L6+16
 479 01f0 C022     		movs	r2, #192
 480 01f2 5A72     		strb	r2, [r3, #9]
 481 01f4 3E4B     		ldr	r3, .L6+16
 482 01f6 C022     		movs	r2, #192
 483 01f8 9A72     		strb	r2, [r3, #10]
 484 01fa 3D4B     		ldr	r3, .L6+16
 485 01fc FF22     		movs	r2, #255
 486 01fe DA72     		strb	r2, [r3, #11]
 138:..\..\..\lvgl\version_6.1.2\lvgl\src\lv_core/lv_style.c ****     lv_style_pretty.body.radius       = LV_DPI / 15;
 487              		.loc 2 138 0
 488 0200 3B4B     		ldr	r3, .L6+16
 489 0202 0A22     		movs	r2, #10
 490 0204 9A81     		strh	r2, [r3, #12]	@ movhi
 139:..\..\..\lvgl\version_6.1.2\lvgl\src\lv_core/lv_style.c ****     lv_style_pretty.body.border.color = lv_color_make(0x40, 0x40, 0x40);
 491              		.loc 2 139 0
 492 0206 3A4C     		ldr	r4, .L6+16
 493 0208 4022     		movs	r2, #64
 494 020a 4021     		movs	r1, #64
 495 020c 4020     		movs	r0, #64
 496 020e FFF7FEFF 		bl	lv_color_make
 497 0212 2061     		str	r0, [r4, #16]
 140:..\..\..\lvgl\version_6.1.2\lvgl\src\lv_core/lv_style.c ****     lv_style_pretty.body.border.width = LV_DPI / 50 >= 1 ? LV_DPI / 50 : 1;
 498              		.loc 2 140 0
 499 0214 364B     		ldr	r3, .L6+16
 500 0216 0322     		movs	r2, #3
 501 0218 9A82     		strh	r2, [r3, #20]	@ movhi
 141:..\..\..\lvgl\version_6.1.2\lvgl\src\lv_core/lv_style.c ****     lv_style_pretty.body.border.opa   = LV_OPA_30;
 502              		.loc 2 141 0
 503 021a 354B     		ldr	r3, .L6+16
 504 021c 4C22     		movs	r2, #76
 505 021e DA75     		strb	r2, [r3, #23]
 142:..\..\..\lvgl\version_6.1.2\lvgl\src\lv_core/lv_style.c **** 
 143:..\..\..\lvgl\version_6.1.2\lvgl\src\lv_core/lv_style.c ****     /*Pretty color style*/
 144:..\..\..\lvgl\version_6.1.2\lvgl\src\lv_core/lv_style.c ****     lv_style_copy(&lv_style_pretty_color, &lv_style_pretty);
 506              		.loc 2 144 0
 507 0220 3349     		ldr	r1, .L6+16
 508 0222 3448     		ldr	r0, .L6+20
 509 0224 FFF7FEFF 		bl	lv_style_copy
 145:..\..\..\lvgl\version_6.1.2\lvgl\src\lv_core/lv_style.c ****     lv_style_pretty_color.text.color        = lv_color_make(0xe0, 0xe0, 0xe0);
 510              		.loc 2 145 0
 511 0228 324C     		ldr	r4, .L6+20
 512 022a E022     		movs	r2, #224
 513 022c E021     		movs	r1, #224
 514 022e E020     		movs	r0, #224
 515 0230 FFF7FEFF 		bl	lv_color_make
ARM GAS  C:\Users\tmj32\AppData\Local\Temp\ccSL9kiF.s 			page 21


 516 0234 E062     		str	r0, [r4, #44]
 146:..\..\..\lvgl\version_6.1.2\lvgl\src\lv_core/lv_style.c ****     lv_style_pretty_color.image.color       = lv_color_make(0xe0, 0xe0, 0xe0);
 517              		.loc 2 146 0
 518 0236 2F4C     		ldr	r4, .L6+20
 519 0238 E022     		movs	r2, #224
 520 023a E021     		movs	r1, #224
 521 023c E020     		movs	r0, #224
 522 023e FFF7FEFF 		bl	lv_color_make
 523 0242 2064     		str	r0, [r4, #64]
 147:..\..\..\lvgl\version_6.1.2\lvgl\src\lv_core/lv_style.c ****     lv_style_pretty_color.line.color        = lv_color_make(0xc0, 0xc0, 0xc0);
 524              		.loc 2 147 0
 525 0244 2B4C     		ldr	r4, .L6+20
 526 0246 C022     		movs	r2, #192
 527 0248 C021     		movs	r1, #192
 528 024a C020     		movs	r0, #192
 529 024c FFF7FEFF 		bl	lv_color_make
 530 0250 A064     		str	r0, [r4, #72]
 148:..\..\..\lvgl\version_6.1.2\lvgl\src\lv_core/lv_style.c ****     lv_style_pretty_color.body.main_color   = lv_color_make(0x6b, 0x9a, 0xc7);
 531              		.loc 2 148 0
 532 0252 284C     		ldr	r4, .L6+20
 533 0254 C722     		movs	r2, #199
 534 0256 9A21     		movs	r1, #154
 535 0258 6B20     		movs	r0, #107
 536 025a FFF7FEFF 		bl	lv_color_make
 537 025e 6060     		str	r0, [r4, #4]
 149:..\..\..\lvgl\version_6.1.2\lvgl\src\lv_core/lv_style.c ****     lv_style_pretty_color.body.grad_color   = lv_color_make(0x2b, 0x59, 0x8b);
 538              		.loc 2 149 0
 539 0260 244C     		ldr	r4, .L6+20
 540 0262 8B22     		movs	r2, #139
 541 0264 5921     		movs	r1, #89
 542 0266 2B20     		movs	r0, #43
 543 0268 FFF7FEFF 		bl	lv_color_make
 544 026c A060     		str	r0, [r4, #8]
 150:..\..\..\lvgl\version_6.1.2\lvgl\src\lv_core/lv_style.c ****     lv_style_pretty_color.body.border.color = lv_color_make(0x15, 0x2c, 0x42);
 545              		.loc 2 150 0
 546 026e 214C     		ldr	r4, .L6+20
 547 0270 4222     		movs	r2, #66
 548 0272 2C21     		movs	r1, #44
 549 0274 1520     		movs	r0, #21
 550 0276 FFF7FEFF 		bl	lv_color_make
 551 027a 2061     		str	r0, [r4, #16]
 151:..\..\..\lvgl\version_6.1.2\lvgl\src\lv_core/lv_style.c **** 
 152:..\..\..\lvgl\version_6.1.2\lvgl\src\lv_core/lv_style.c ****     /*Transparent style*/
 153:..\..\..\lvgl\version_6.1.2\lvgl\src\lv_core/lv_style.c ****     lv_style_copy(&lv_style_transp, &lv_style_plain);
 552              		.loc 2 153 0
 553 027c 1A49     		ldr	r1, .L6+8
 554 027e 1E48     		ldr	r0, .L6+24
 555 0280 FFF7FEFF 		bl	lv_style_copy
 154:..\..\..\lvgl\version_6.1.2\lvgl\src\lv_core/lv_style.c ****     lv_style_transp.glass             = 1;
 556              		.loc 2 154 0
 557 0284 1C4A     		ldr	r2, .L6+24
 558 0286 1378     		ldrb	r3, [r2]
 559 0288 43F00103 		orr	r3, r3, #1
 560 028c 1370     		strb	r3, [r2]
 155:..\..\..\lvgl\version_6.1.2\lvgl\src\lv_core/lv_style.c ****     lv_style_transp.body.border.width = 0;
 561              		.loc 2 155 0
 562 028e 1A4B     		ldr	r3, .L6+24
ARM GAS  C:\Users\tmj32\AppData\Local\Temp\ccSL9kiF.s 			page 22


 563 0290 0022     		movs	r2, #0
 564 0292 9A82     		strh	r2, [r3, #20]	@ movhi
 156:..\..\..\lvgl\version_6.1.2\lvgl\src\lv_core/lv_style.c ****     lv_style_transp.body.opa          = LV_OPA_TRANSP;
 565              		.loc 2 156 0
 566 0294 184B     		ldr	r3, .L6+24
 567 0296 0022     		movs	r2, #0
 568 0298 9A73     		strb	r2, [r3, #14]
 157:..\..\..\lvgl\version_6.1.2\lvgl\src\lv_core/lv_style.c **** 
 158:..\..\..\lvgl\version_6.1.2\lvgl\src\lv_core/lv_style.c ****     /*Transparent fitting size*/
 159:..\..\..\lvgl\version_6.1.2\lvgl\src\lv_core/lv_style.c ****     lv_style_copy(&lv_style_transp_fit, &lv_style_transp);
 569              		.loc 2 159 0
 570 029a 1749     		ldr	r1, .L6+24
 571 029c 1748     		ldr	r0, .L6+28
 572 029e FFF7FEFF 		bl	lv_style_copy
 160:..\..\..\lvgl\version_6.1.2\lvgl\src\lv_core/lv_style.c ****     lv_style_transp_fit.body.padding.left   = 0;
 573              		.loc 2 160 0
 574 02a2 164B     		ldr	r3, .L6+28
 575 02a4 0022     		movs	r2, #0
 576 02a6 9A84     		strh	r2, [r3, #36]	@ movhi
 161:..\..\..\lvgl\version_6.1.2\lvgl\src\lv_core/lv_style.c ****     lv_style_transp_fit.body.padding.right  = 0;
 577              		.loc 2 161 0
 578 02a8 144B     		ldr	r3, .L6+28
 579 02aa 0022     		movs	r2, #0
 580 02ac DA84     		strh	r2, [r3, #38]	@ movhi
 162:..\..\..\lvgl\version_6.1.2\lvgl\src\lv_core/lv_style.c ****     lv_style_transp_fit.body.padding.top    = 0;
 581              		.loc 2 162 0
 582 02ae 134B     		ldr	r3, .L6+28
 583 02b0 0022     		movs	r2, #0
 584 02b2 1A84     		strh	r2, [r3, #32]	@ movhi
 163:..\..\..\lvgl\version_6.1.2\lvgl\src\lv_core/lv_style.c ****     lv_style_transp_fit.body.padding.bottom = 0;
 585              		.loc 2 163 0
 586 02b4 114B     		ldr	r3, .L6+28
 587 02b6 0022     		movs	r2, #0
 588 02b8 5A84     		strh	r2, [r3, #34]	@ movhi
 164:..\..\..\lvgl\version_6.1.2\lvgl\src\lv_core/lv_style.c **** 
 165:..\..\..\lvgl\version_6.1.2\lvgl\src\lv_core/lv_style.c ****     /*Transparent tight style*/
 166:..\..\..\lvgl\version_6.1.2\lvgl\src\lv_core/lv_style.c ****     lv_style_copy(&lv_style_transp_tight, &lv_style_transp_fit);
 589              		.loc 2 166 0
 590 02ba 1049     		ldr	r1, .L6+28
 591 02bc 1048     		ldr	r0, .L6+32
 592 02be FFF7FEFF 		bl	lv_style_copy
 167:..\..\..\lvgl\version_6.1.2\lvgl\src\lv_core/lv_style.c ****     lv_style_transp_tight.body.padding.inner = 0;
 593              		.loc 2 167 0
 594 02c2 0F4B     		ldr	r3, .L6+32
 595 02c4 0022     		movs	r2, #0
 596 02c6 1A85     		strh	r2, [r3, #40]	@ movhi
 168:..\..\..\lvgl\version_6.1.2\lvgl\src\lv_core/lv_style.c **** 
 169:..\..\..\lvgl\version_6.1.2\lvgl\src\lv_core/lv_style.c ****     /*Button released style*/
 170:..\..\..\lvgl\version_6.1.2\lvgl\src\lv_core/lv_style.c ****     lv_style_copy(&lv_style_btn_rel, &lv_style_plain);
 597              		.loc 2 170 0
 598 02c8 0749     		ldr	r1, .L6+8
 599 02ca 0E48     		ldr	r0, .L6+36
 600 02cc FFF7FEFF 		bl	lv_style_copy
 171:..\..\..\lvgl\version_6.1.2\lvgl\src\lv_core/lv_style.c ****     lv_style_btn_rel.body.main_color     = lv_color_make(0x76, 0xa2, 0xd0);
 601              		.loc 2 171 0
 602 02d0 0C4C     		ldr	r4, .L6+36
 603 02d2 D022     		movs	r2, #208
ARM GAS  C:\Users\tmj32\AppData\Local\Temp\ccSL9kiF.s 			page 23


 604 02d4 A221     		movs	r1, #162
 605 02d6 7620     		movs	r0, #118
 606 02d8 FFF7FEFF 		bl	lv_color_make
 607 02dc 6060     		str	r0, [r4, #4]
 608 02de 13E0     		b	.L7
 609              	.L8:
 610              		.align	2
 611              	.L6:
 612 02e0 00000000 		.word	lv_style_scr
 613 02e4 00000000 		.word	lv_font_roboto_16
 614 02e8 00000000 		.word	lv_style_plain
 615 02ec 00000000 		.word	lv_style_plain_color
 616 02f0 00000000 		.word	lv_style_pretty
 617 02f4 00000000 		.word	lv_style_pretty_color
 618 02f8 00000000 		.word	lv_style_transp
 619 02fc 00000000 		.word	lv_style_transp_fit
 620 0300 00000000 		.word	lv_style_transp_tight
 621 0304 00000000 		.word	lv_style_btn_rel
 622              	.L7:
 172:..\..\..\lvgl\version_6.1.2\lvgl\src\lv_core/lv_style.c ****     lv_style_btn_rel.body.grad_color     = lv_color_make(0x19, 0x3a, 0x5d);
 623              		.loc 2 172 0
 624 0308 774C     		ldr	r4, .L9
 625 030a 5D22     		movs	r2, #93
 626 030c 3A21     		movs	r1, #58
 627 030e 1920     		movs	r0, #25
 628 0310 FFF7FEFF 		bl	lv_color_make
 629 0314 A060     		str	r0, [r4, #8]
 173:..\..\..\lvgl\version_6.1.2\lvgl\src\lv_core/lv_style.c ****     lv_style_btn_rel.body.radius         = LV_DPI / 15;
 630              		.loc 2 173 0
 631 0316 744B     		ldr	r3, .L9
 632 0318 0A22     		movs	r2, #10
 633 031a 9A81     		strh	r2, [r3, #12]	@ movhi
 174:..\..\..\lvgl\version_6.1.2\lvgl\src\lv_core/lv_style.c ****     lv_style_btn_rel.body.padding.left   = LV_DPI / 4;
 634              		.loc 2 174 0
 635 031c 724B     		ldr	r3, .L9
 636 031e 2522     		movs	r2, #37
 637 0320 9A84     		strh	r2, [r3, #36]	@ movhi
 175:..\..\..\lvgl\version_6.1.2\lvgl\src\lv_core/lv_style.c ****     lv_style_btn_rel.body.padding.right  = LV_DPI / 4;
 638              		.loc 2 175 0
 639 0322 714B     		ldr	r3, .L9
 640 0324 2522     		movs	r2, #37
 641 0326 DA84     		strh	r2, [r3, #38]	@ movhi
 176:..\..\..\lvgl\version_6.1.2\lvgl\src\lv_core/lv_style.c ****     lv_style_btn_rel.body.padding.top    = LV_DPI / 6;
 642              		.loc 2 176 0
 643 0328 6F4B     		ldr	r3, .L9
 644 032a 1922     		movs	r2, #25
 645 032c 1A84     		strh	r2, [r3, #32]	@ movhi
 177:..\..\..\lvgl\version_6.1.2\lvgl\src\lv_core/lv_style.c ****     lv_style_btn_rel.body.padding.bottom = LV_DPI / 6;
 646              		.loc 2 177 0
 647 032e 6E4B     		ldr	r3, .L9
 648 0330 1922     		movs	r2, #25
 649 0332 5A84     		strh	r2, [r3, #34]	@ movhi
 178:..\..\..\lvgl\version_6.1.2\lvgl\src\lv_core/lv_style.c ****     lv_style_btn_rel.body.padding.inner  = LV_DPI / 10;
 650              		.loc 2 178 0
 651 0334 6C4B     		ldr	r3, .L9
 652 0336 0F22     		movs	r2, #15
 653 0338 1A85     		strh	r2, [r3, #40]	@ movhi
ARM GAS  C:\Users\tmj32\AppData\Local\Temp\ccSL9kiF.s 			page 24


 179:..\..\..\lvgl\version_6.1.2\lvgl\src\lv_core/lv_style.c ****     lv_style_btn_rel.body.border.color   = lv_color_make(0x0b, 0x19, 0x28);
 654              		.loc 2 179 0
 655 033a 6B4C     		ldr	r4, .L9
 656 033c 2822     		movs	r2, #40
 657 033e 1921     		movs	r1, #25
 658 0340 0B20     		movs	r0, #11
 659 0342 FFF7FEFF 		bl	lv_color_make
 660 0346 2061     		str	r0, [r4, #16]
 180:..\..\..\lvgl\version_6.1.2\lvgl\src\lv_core/lv_style.c ****     lv_style_btn_rel.body.border.width   = LV_DPI / 50 >= 1 ? LV_DPI / 50 : 1;
 661              		.loc 2 180 0
 662 0348 674B     		ldr	r3, .L9
 663 034a 0322     		movs	r2, #3
 664 034c 9A82     		strh	r2, [r3, #20]	@ movhi
 181:..\..\..\lvgl\version_6.1.2\lvgl\src\lv_core/lv_style.c ****     lv_style_btn_rel.body.border.opa     = LV_OPA_70;
 665              		.loc 2 181 0
 666 034e 664B     		ldr	r3, .L9
 667 0350 B222     		movs	r2, #178
 668 0352 DA75     		strb	r2, [r3, #23]
 182:..\..\..\lvgl\version_6.1.2\lvgl\src\lv_core/lv_style.c ****     lv_style_btn_rel.body.shadow.color   = LV_COLOR_GRAY;
 669              		.loc 2 182 0
 670 0354 644B     		ldr	r3, .L9
 671 0356 8022     		movs	r2, #128
 672 0358 1A76     		strb	r2, [r3, #24]
 673 035a 634B     		ldr	r3, .L9
 674 035c 8022     		movs	r2, #128
 675 035e 5A76     		strb	r2, [r3, #25]
 676 0360 614B     		ldr	r3, .L9
 677 0362 8022     		movs	r2, #128
 678 0364 9A76     		strb	r2, [r3, #26]
 679 0366 604B     		ldr	r3, .L9
 680 0368 FF22     		movs	r2, #255
 681 036a DA76     		strb	r2, [r3, #27]
 183:..\..\..\lvgl\version_6.1.2\lvgl\src\lv_core/lv_style.c ****     lv_style_btn_rel.body.shadow.width   = 0;
 682              		.loc 2 183 0
 683 036c 5E4B     		ldr	r3, .L9
 684 036e 0022     		movs	r2, #0
 685 0370 9A83     		strh	r2, [r3, #28]	@ movhi
 184:..\..\..\lvgl\version_6.1.2\lvgl\src\lv_core/lv_style.c ****     lv_style_btn_rel.text.color          = lv_color_make(0xff, 0xff, 0xff);
 686              		.loc 2 184 0
 687 0372 5D4C     		ldr	r4, .L9
 688 0374 FF22     		movs	r2, #255
 689 0376 FF21     		movs	r1, #255
 690 0378 FF20     		movs	r0, #255
 691 037a FFF7FEFF 		bl	lv_color_make
 692 037e E062     		str	r0, [r4, #44]
 185:..\..\..\lvgl\version_6.1.2\lvgl\src\lv_core/lv_style.c ****     lv_style_btn_rel.image.color         = lv_color_make(0xff, 0xff, 0xff);
 693              		.loc 2 185 0
 694 0380 594C     		ldr	r4, .L9
 695 0382 FF22     		movs	r2, #255
 696 0384 FF21     		movs	r1, #255
 697 0386 FF20     		movs	r0, #255
 698 0388 FFF7FEFF 		bl	lv_color_make
 699 038c 2064     		str	r0, [r4, #64]
 186:..\..\..\lvgl\version_6.1.2\lvgl\src\lv_core/lv_style.c **** 
 187:..\..\..\lvgl\version_6.1.2\lvgl\src\lv_core/lv_style.c ****     /*Button pressed style*/
 188:..\..\..\lvgl\version_6.1.2\lvgl\src\lv_core/lv_style.c ****     lv_style_copy(&lv_style_btn_pr, &lv_style_btn_rel);
 700              		.loc 2 188 0
ARM GAS  C:\Users\tmj32\AppData\Local\Temp\ccSL9kiF.s 			page 25


 701 038e 5649     		ldr	r1, .L9
 702 0390 5648     		ldr	r0, .L9+4
 703 0392 FFF7FEFF 		bl	lv_style_copy
 189:..\..\..\lvgl\version_6.1.2\lvgl\src\lv_core/lv_style.c ****     lv_style_btn_pr.body.main_color = lv_color_make(0x33, 0x62, 0x94);
 704              		.loc 2 189 0
 705 0396 554C     		ldr	r4, .L9+4
 706 0398 9422     		movs	r2, #148
 707 039a 6221     		movs	r1, #98
 708 039c 3320     		movs	r0, #51
 709 039e FFF7FEFF 		bl	lv_color_make
 710 03a2 6060     		str	r0, [r4, #4]
 190:..\..\..\lvgl\version_6.1.2\lvgl\src\lv_core/lv_style.c ****     lv_style_btn_pr.body.grad_color = lv_color_make(0x10, 0x26, 0x3c);
 711              		.loc 2 190 0
 712 03a4 514C     		ldr	r4, .L9+4
 713 03a6 3C22     		movs	r2, #60
 714 03a8 2621     		movs	r1, #38
 715 03aa 1020     		movs	r0, #16
 716 03ac FFF7FEFF 		bl	lv_color_make
 717 03b0 A060     		str	r0, [r4, #8]
 191:..\..\..\lvgl\version_6.1.2\lvgl\src\lv_core/lv_style.c ****     lv_style_btn_pr.text.color      = lv_color_make(0xa4, 0xb5, 0xc6);
 718              		.loc 2 191 0
 719 03b2 4E4C     		ldr	r4, .L9+4
 720 03b4 C622     		movs	r2, #198
 721 03b6 B521     		movs	r1, #181
 722 03b8 A420     		movs	r0, #164
 723 03ba FFF7FEFF 		bl	lv_color_make
 724 03be E062     		str	r0, [r4, #44]
 192:..\..\..\lvgl\version_6.1.2\lvgl\src\lv_core/lv_style.c ****     lv_style_btn_pr.image.color     = lv_color_make(0xa4, 0xb5, 0xc6);
 725              		.loc 2 192 0
 726 03c0 4A4C     		ldr	r4, .L9+4
 727 03c2 C622     		movs	r2, #198
 728 03c4 B521     		movs	r1, #181
 729 03c6 A420     		movs	r0, #164
 730 03c8 FFF7FEFF 		bl	lv_color_make
 731 03cc 2064     		str	r0, [r4, #64]
 193:..\..\..\lvgl\version_6.1.2\lvgl\src\lv_core/lv_style.c ****     lv_style_btn_pr.line.color      = lv_color_make(0xa4, 0xb5, 0xc6);
 732              		.loc 2 193 0
 733 03ce 474C     		ldr	r4, .L9+4
 734 03d0 C622     		movs	r2, #198
 735 03d2 B521     		movs	r1, #181
 736 03d4 A420     		movs	r0, #164
 737 03d6 FFF7FEFF 		bl	lv_color_make
 738 03da A064     		str	r0, [r4, #72]
 194:..\..\..\lvgl\version_6.1.2\lvgl\src\lv_core/lv_style.c **** 
 195:..\..\..\lvgl\version_6.1.2\lvgl\src\lv_core/lv_style.c ****     /*Button toggle released style*/
 196:..\..\..\lvgl\version_6.1.2\lvgl\src\lv_core/lv_style.c ****     lv_style_copy(&lv_style_btn_tgl_rel, &lv_style_btn_rel);
 739              		.loc 2 196 0
 740 03dc 4249     		ldr	r1, .L9
 741 03de 4448     		ldr	r0, .L9+8
 742 03e0 FFF7FEFF 		bl	lv_style_copy
 197:..\..\..\lvgl\version_6.1.2\lvgl\src\lv_core/lv_style.c ****     lv_style_btn_tgl_rel.body.main_color   = lv_color_make(0x0a, 0x11, 0x22);
 743              		.loc 2 197 0
 744 03e4 424C     		ldr	r4, .L9+8
 745 03e6 2222     		movs	r2, #34
 746 03e8 1121     		movs	r1, #17
 747 03ea 0A20     		movs	r0, #10
 748 03ec FFF7FEFF 		bl	lv_color_make
ARM GAS  C:\Users\tmj32\AppData\Local\Temp\ccSL9kiF.s 			page 26


 749 03f0 6060     		str	r0, [r4, #4]
 198:..\..\..\lvgl\version_6.1.2\lvgl\src\lv_core/lv_style.c ****     lv_style_btn_tgl_rel.body.grad_color   = lv_color_make(0x37, 0x62, 0x90);
 750              		.loc 2 198 0
 751 03f2 3F4C     		ldr	r4, .L9+8
 752 03f4 9022     		movs	r2, #144
 753 03f6 6221     		movs	r1, #98
 754 03f8 3720     		movs	r0, #55
 755 03fa FFF7FEFF 		bl	lv_color_make
 756 03fe A060     		str	r0, [r4, #8]
 199:..\..\..\lvgl\version_6.1.2\lvgl\src\lv_core/lv_style.c ****     lv_style_btn_tgl_rel.body.border.color = lv_color_make(0x01, 0x07, 0x0d);
 757              		.loc 2 199 0
 758 0400 3B4C     		ldr	r4, .L9+8
 759 0402 0D22     		movs	r2, #13
 760 0404 0721     		movs	r1, #7
 761 0406 0120     		movs	r0, #1
 762 0408 FFF7FEFF 		bl	lv_color_make
 763 040c 2061     		str	r0, [r4, #16]
 200:..\..\..\lvgl\version_6.1.2\lvgl\src\lv_core/lv_style.c ****     lv_style_btn_tgl_rel.text.color        = lv_color_make(0xc8, 0xdd, 0xf4);
 764              		.loc 2 200 0
 765 040e 384C     		ldr	r4, .L9+8
 766 0410 F422     		movs	r2, #244
 767 0412 DD21     		movs	r1, #221
 768 0414 C820     		movs	r0, #200
 769 0416 FFF7FEFF 		bl	lv_color_make
 770 041a E062     		str	r0, [r4, #44]
 201:..\..\..\lvgl\version_6.1.2\lvgl\src\lv_core/lv_style.c ****     lv_style_btn_tgl_rel.image.color       = lv_color_make(0xc8, 0xdd, 0xf4);
 771              		.loc 2 201 0
 772 041c 344C     		ldr	r4, .L9+8
 773 041e F422     		movs	r2, #244
 774 0420 DD21     		movs	r1, #221
 775 0422 C820     		movs	r0, #200
 776 0424 FFF7FEFF 		bl	lv_color_make
 777 0428 2064     		str	r0, [r4, #64]
 202:..\..\..\lvgl\version_6.1.2\lvgl\src\lv_core/lv_style.c ****     lv_style_btn_tgl_rel.line.color        = lv_color_make(0xc8, 0xdd, 0xf4);
 778              		.loc 2 202 0
 779 042a 314C     		ldr	r4, .L9+8
 780 042c F422     		movs	r2, #244
 781 042e DD21     		movs	r1, #221
 782 0430 C820     		movs	r0, #200
 783 0432 FFF7FEFF 		bl	lv_color_make
 784 0436 A064     		str	r0, [r4, #72]
 203:..\..\..\lvgl\version_6.1.2\lvgl\src\lv_core/lv_style.c **** 
 204:..\..\..\lvgl\version_6.1.2\lvgl\src\lv_core/lv_style.c ****     /*Button toggle pressed style*/
 205:..\..\..\lvgl\version_6.1.2\lvgl\src\lv_core/lv_style.c ****     lv_style_copy(&lv_style_btn_tgl_pr, &lv_style_btn_tgl_rel);
 785              		.loc 2 205 0
 786 0438 2D49     		ldr	r1, .L9+8
 787 043a 2E48     		ldr	r0, .L9+12
 788 043c FFF7FEFF 		bl	lv_style_copy
 206:..\..\..\lvgl\version_6.1.2\lvgl\src\lv_core/lv_style.c ****     lv_style_btn_tgl_pr.body.main_color = lv_color_make(0x02, 0x14, 0x27);
 789              		.loc 2 206 0
 790 0440 2C4C     		ldr	r4, .L9+12
 791 0442 2722     		movs	r2, #39
 792 0444 1421     		movs	r1, #20
 793 0446 0220     		movs	r0, #2
 794 0448 FFF7FEFF 		bl	lv_color_make
 795 044c 6060     		str	r0, [r4, #4]
 207:..\..\..\lvgl\version_6.1.2\lvgl\src\lv_core/lv_style.c ****     lv_style_btn_tgl_pr.body.grad_color = lv_color_make(0x2b, 0x4c, 0x70);
ARM GAS  C:\Users\tmj32\AppData\Local\Temp\ccSL9kiF.s 			page 27


 796              		.loc 2 207 0
 797 044e 294C     		ldr	r4, .L9+12
 798 0450 7022     		movs	r2, #112
 799 0452 4C21     		movs	r1, #76
 800 0454 2B20     		movs	r0, #43
 801 0456 FFF7FEFF 		bl	lv_color_make
 802 045a A060     		str	r0, [r4, #8]
 208:..\..\..\lvgl\version_6.1.2\lvgl\src\lv_core/lv_style.c ****     lv_style_btn_tgl_pr.text.color      = lv_color_make(0xa4, 0xb5, 0xc6);
 803              		.loc 2 208 0
 804 045c 254C     		ldr	r4, .L9+12
 805 045e C622     		movs	r2, #198
 806 0460 B521     		movs	r1, #181
 807 0462 A420     		movs	r0, #164
 808 0464 FFF7FEFF 		bl	lv_color_make
 809 0468 E062     		str	r0, [r4, #44]
 209:..\..\..\lvgl\version_6.1.2\lvgl\src\lv_core/lv_style.c ****     lv_style_btn_tgl_pr.image.color     = lv_color_make(0xa4, 0xb5, 0xc6);
 810              		.loc 2 209 0
 811 046a 224C     		ldr	r4, .L9+12
 812 046c C622     		movs	r2, #198
 813 046e B521     		movs	r1, #181
 814 0470 A420     		movs	r0, #164
 815 0472 FFF7FEFF 		bl	lv_color_make
 816 0476 2064     		str	r0, [r4, #64]
 210:..\..\..\lvgl\version_6.1.2\lvgl\src\lv_core/lv_style.c ****     lv_style_btn_tgl_pr.line.color      = lv_color_make(0xa4, 0xb5, 0xc6);
 817              		.loc 2 210 0
 818 0478 1E4C     		ldr	r4, .L9+12
 819 047a C622     		movs	r2, #198
 820 047c B521     		movs	r1, #181
 821 047e A420     		movs	r0, #164
 822 0480 FFF7FEFF 		bl	lv_color_make
 823 0484 A064     		str	r0, [r4, #72]
 211:..\..\..\lvgl\version_6.1.2\lvgl\src\lv_core/lv_style.c **** 
 212:..\..\..\lvgl\version_6.1.2\lvgl\src\lv_core/lv_style.c ****     /*Button inactive style*/
 213:..\..\..\lvgl\version_6.1.2\lvgl\src\lv_core/lv_style.c ****     lv_style_copy(&lv_style_btn_ina, &lv_style_btn_rel);
 824              		.loc 2 213 0
 825 0486 1849     		ldr	r1, .L9
 826 0488 1B48     		ldr	r0, .L9+16
 827 048a FFF7FEFF 		bl	lv_style_copy
 214:..\..\..\lvgl\version_6.1.2\lvgl\src\lv_core/lv_style.c ****     lv_style_btn_ina.body.main_color   = lv_color_make(0xd8, 0xd8, 0xd8);
 828              		.loc 2 214 0
 829 048e 1A4C     		ldr	r4, .L9+16
 830 0490 D822     		movs	r2, #216
 831 0492 D821     		movs	r1, #216
 832 0494 D820     		movs	r0, #216
 833 0496 FFF7FEFF 		bl	lv_color_make
 834 049a 6060     		str	r0, [r4, #4]
 215:..\..\..\lvgl\version_6.1.2\lvgl\src\lv_core/lv_style.c ****     lv_style_btn_ina.body.grad_color   = lv_color_make(0xd8, 0xd8, 0xd8);
 835              		.loc 2 215 0
 836 049c 164C     		ldr	r4, .L9+16
 837 049e D822     		movs	r2, #216
 838 04a0 D821     		movs	r1, #216
 839 04a2 D820     		movs	r0, #216
 840 04a4 FFF7FEFF 		bl	lv_color_make
 841 04a8 A060     		str	r0, [r4, #8]
 216:..\..\..\lvgl\version_6.1.2\lvgl\src\lv_core/lv_style.c ****     lv_style_btn_ina.body.border.color = lv_color_make(0x90, 0x90, 0x90);
 842              		.loc 2 216 0
 843 04aa 134C     		ldr	r4, .L9+16
ARM GAS  C:\Users\tmj32\AppData\Local\Temp\ccSL9kiF.s 			page 28


 844 04ac 9022     		movs	r2, #144
 845 04ae 9021     		movs	r1, #144
 846 04b0 9020     		movs	r0, #144
 847 04b2 FFF7FEFF 		bl	lv_color_make
 848 04b6 2061     		str	r0, [r4, #16]
 217:..\..\..\lvgl\version_6.1.2\lvgl\src\lv_core/lv_style.c ****     lv_style_btn_ina.text.color        = lv_color_make(0x70, 0x70, 0x70);
 849              		.loc 2 217 0
 850 04b8 0F4C     		ldr	r4, .L9+16
 851 04ba 7022     		movs	r2, #112
 852 04bc 7021     		movs	r1, #112
 853 04be 7020     		movs	r0, #112
 854 04c0 FFF7FEFF 		bl	lv_color_make
 855 04c4 E062     		str	r0, [r4, #44]
 218:..\..\..\lvgl\version_6.1.2\lvgl\src\lv_core/lv_style.c ****     lv_style_btn_ina.image.color       = lv_color_make(0x70, 0x70, 0x70);
 856              		.loc 2 218 0
 857 04c6 0C4C     		ldr	r4, .L9+16
 858 04c8 7022     		movs	r2, #112
 859 04ca 7021     		movs	r1, #112
 860 04cc 7020     		movs	r0, #112
 861 04ce FFF7FEFF 		bl	lv_color_make
 862 04d2 2064     		str	r0, [r4, #64]
 219:..\..\..\lvgl\version_6.1.2\lvgl\src\lv_core/lv_style.c ****     lv_style_btn_ina.line.color        = lv_color_make(0x70, 0x70, 0x70);
 863              		.loc 2 219 0
 864 04d4 084C     		ldr	r4, .L9+16
 865 04d6 7022     		movs	r2, #112
 866 04d8 7021     		movs	r1, #112
 867 04da 7020     		movs	r0, #112
 868 04dc FFF7FEFF 		bl	lv_color_make
 869 04e0 A064     		str	r0, [r4, #72]
 220:..\..\..\lvgl\version_6.1.2\lvgl\src\lv_core/lv_style.c **** }
 870              		.loc 2 220 0
 871 04e2 00BF     		nop
 872 04e4 98BD     		pop	{r3, r4, r7, pc}
 873              	.L10:
 874 04e6 00BF     		.align	2
 875              	.L9:
 876 04e8 00000000 		.word	lv_style_btn_rel
 877 04ec 00000000 		.word	lv_style_btn_pr
 878 04f0 00000000 		.word	lv_style_btn_tgl_rel
 879 04f4 00000000 		.word	lv_style_btn_tgl_pr
 880 04f8 00000000 		.word	lv_style_btn_ina
 881              		.cfi_endproc
 882              	.LFE31:
 883              		.size	lv_style_init, .-lv_style_init
 884              		.section	.text.lv_style_copy,"ax",%progbits
 885              		.align	2
 886              		.global	lv_style_copy
 887              		.thumb
 888              		.thumb_func
 889              		.type	lv_style_copy, %function
 890              	lv_style_copy:
 891              	.LFB32:
 221:..\..\..\lvgl\version_6.1.2\lvgl\src\lv_core/lv_style.c **** 
 222:..\..\..\lvgl\version_6.1.2\lvgl\src\lv_core/lv_style.c **** /**
 223:..\..\..\lvgl\version_6.1.2\lvgl\src\lv_core/lv_style.c ****  * Copy a style to an other
 224:..\..\..\lvgl\version_6.1.2\lvgl\src\lv_core/lv_style.c ****  * @param dest pointer to the destination style
 225:..\..\..\lvgl\version_6.1.2\lvgl\src\lv_core/lv_style.c ****  * @param src pointer to the source style
ARM GAS  C:\Users\tmj32\AppData\Local\Temp\ccSL9kiF.s 			page 29


 226:..\..\..\lvgl\version_6.1.2\lvgl\src\lv_core/lv_style.c ****  */
 227:..\..\..\lvgl\version_6.1.2\lvgl\src\lv_core/lv_style.c **** void lv_style_copy(lv_style_t * dest, const lv_style_t * src)
 228:..\..\..\lvgl\version_6.1.2\lvgl\src\lv_core/lv_style.c **** {
 892              		.loc 2 228 0
 893              		.cfi_startproc
 894              		@ args = 0, pretend = 0, frame = 8
 895              		@ frame_needed = 1, uses_anonymous_args = 0
 896 0000 80B5     		push	{r7, lr}
 897              		.cfi_def_cfa_offset 8
 898              		.cfi_offset 7, -8
 899              		.cfi_offset 14, -4
 900 0002 82B0     		sub	sp, sp, #8
 901              		.cfi_def_cfa_offset 16
 902 0004 00AF     		add	r7, sp, #0
 903              		.cfi_def_cfa_register 7
 904 0006 7860     		str	r0, [r7, #4]
 905 0008 3960     		str	r1, [r7]
 229:..\..\..\lvgl\version_6.1.2\lvgl\src\lv_core/lv_style.c ****     memcpy(dest, src, sizeof(lv_style_t));
 906              		.loc 2 229 0
 907 000a 5022     		movs	r2, #80
 908 000c 3968     		ldr	r1, [r7]
 909 000e 7868     		ldr	r0, [r7, #4]
 910 0010 FFF7FEFF 		bl	memcpy
 230:..\..\..\lvgl\version_6.1.2\lvgl\src\lv_core/lv_style.c **** }
 911              		.loc 2 230 0
 912 0014 00BF     		nop
 913 0016 0837     		adds	r7, r7, #8
 914              		.cfi_def_cfa_offset 8
 915 0018 BD46     		mov	sp, r7
 916              		.cfi_def_cfa_register 13
 917              		@ sp needed
 918 001a 80BD     		pop	{r7, pc}
 919              		.cfi_endproc
 920              	.LFE32:
 921              		.size	lv_style_copy, .-lv_style_copy
 922              		.section	.text.lv_style_mix,"ax",%progbits
 923              		.align	2
 924              		.global	lv_style_mix
 925              		.thumb
 926              		.thumb_func
 927              		.type	lv_style_mix, %function
 928              	lv_style_mix:
 929              	.LFB33:
 231:..\..\..\lvgl\version_6.1.2\lvgl\src\lv_core/lv_style.c **** 
 232:..\..\..\lvgl\version_6.1.2\lvgl\src\lv_core/lv_style.c **** /**
 233:..\..\..\lvgl\version_6.1.2\lvgl\src\lv_core/lv_style.c ****  * Mix two styles according to a given ratio
 234:..\..\..\lvgl\version_6.1.2\lvgl\src\lv_core/lv_style.c ****  * @param start start style
 235:..\..\..\lvgl\version_6.1.2\lvgl\src\lv_core/lv_style.c ****  * @param end end style
 236:..\..\..\lvgl\version_6.1.2\lvgl\src\lv_core/lv_style.c ****  * @param res store the result style here
 237:..\..\..\lvgl\version_6.1.2\lvgl\src\lv_core/lv_style.c ****  * @param ratio the ratio of mix [0..256]; 0: `start` style; 256: `end` style
 238:..\..\..\lvgl\version_6.1.2\lvgl\src\lv_core/lv_style.c ****  */
 239:..\..\..\lvgl\version_6.1.2\lvgl\src\lv_core/lv_style.c **** void lv_style_mix(const lv_style_t * start, const lv_style_t * end, lv_style_t * res, uint16_t rati
 240:..\..\..\lvgl\version_6.1.2\lvgl\src\lv_core/lv_style.c **** {
 930              		.loc 2 240 0
 931              		.cfi_startproc
 932              		@ args = 0, pretend = 0, frame = 24
 933              		@ frame_needed = 1, uses_anonymous_args = 0
ARM GAS  C:\Users\tmj32\AppData\Local\Temp\ccSL9kiF.s 			page 30


 934 0000 90B5     		push	{r4, r7, lr}
 935              		.cfi_def_cfa_offset 12
 936              		.cfi_offset 4, -12
 937              		.cfi_offset 7, -8
 938              		.cfi_offset 14, -4
 939 0002 87B0     		sub	sp, sp, #28
 940              		.cfi_def_cfa_offset 40
 941 0004 00AF     		add	r7, sp, #0
 942              		.cfi_def_cfa_register 7
 943 0006 F860     		str	r0, [r7, #12]
 944 0008 B960     		str	r1, [r7, #8]
 945 000a 7A60     		str	r2, [r7, #4]
 946 000c 7B80     		strh	r3, [r7, #2]	@ movhi
 241:..\..\..\lvgl\version_6.1.2\lvgl\src\lv_core/lv_style.c ****     STYLE_ATTR_MIX(body.opa, ratio);
 947              		.loc 2 241 0
 948 000e FB68     		ldr	r3, [r7, #12]
 949 0010 9A7B     		ldrb	r2, [r3, #14]	@ zero_extendqisi2
 950 0012 BB68     		ldr	r3, [r7, #8]
 951 0014 9B7B     		ldrb	r3, [r3, #14]	@ zero_extendqisi2
 952 0016 9A42     		cmp	r2, r3
 953 0018 11D0     		beq	.L13
 954              		.loc 2 241 0 is_stmt 0 discriminator 1
 955 001a FB68     		ldr	r3, [r7, #12]
 956 001c 9A7B     		ldrb	r2, [r3, #14]	@ zero_extendqisi2
 957 001e BB68     		ldr	r3, [r7, #8]
 958 0020 9B7B     		ldrb	r3, [r3, #14]	@ zero_extendqisi2
 959 0022 1946     		mov	r1, r3
 960 0024 FB68     		ldr	r3, [r7, #12]
 961 0026 9B7B     		ldrb	r3, [r3, #14]	@ zero_extendqisi2
 962 0028 CB1A     		subs	r3, r1, r3
 963 002a 7988     		ldrh	r1, [r7, #2]
 964 002c 01FB03F3 		mul	r3, r1, r3
 965 0030 1B12     		asrs	r3, r3, #8
 966 0032 DBB2     		uxtb	r3, r3
 967 0034 1344     		add	r3, r3, r2
 968 0036 DAB2     		uxtb	r2, r3
 969 0038 7B68     		ldr	r3, [r7, #4]
 970 003a 9A73     		strb	r2, [r3, #14]
 971 003c 03E0     		b	.L14
 972              	.L13:
 973              		.loc 2 241 0 discriminator 2
 974 003e FB68     		ldr	r3, [r7, #12]
 975 0040 9A7B     		ldrb	r2, [r3, #14]	@ zero_extendqisi2
 976 0042 7B68     		ldr	r3, [r7, #4]
 977 0044 9A73     		strb	r2, [r3, #14]
 978              	.L14:
 242:..\..\..\lvgl\version_6.1.2\lvgl\src\lv_core/lv_style.c ****     STYLE_ATTR_MIX(body.radius, ratio);
 979              		.loc 2 242 0 is_stmt 1
 980 0046 FB68     		ldr	r3, [r7, #12]
 981 0048 B3F90C20 		ldrsh	r2, [r3, #12]
 982 004c BB68     		ldr	r3, [r7, #8]
 983 004e B3F90C30 		ldrsh	r3, [r3, #12]
 984 0052 9A42     		cmp	r2, r3
 985 0054 16D0     		beq	.L15
 986              		.loc 2 242 0 is_stmt 0 discriminator 1
 987 0056 FB68     		ldr	r3, [r7, #12]
 988 0058 B3F90C30 		ldrsh	r3, [r3, #12]
ARM GAS  C:\Users\tmj32\AppData\Local\Temp\ccSL9kiF.s 			page 31


 989 005c 9AB2     		uxth	r2, r3
 990 005e BB68     		ldr	r3, [r7, #8]
 991 0060 B3F90C30 		ldrsh	r3, [r3, #12]
 992 0064 1946     		mov	r1, r3
 993 0066 FB68     		ldr	r3, [r7, #12]
 994 0068 B3F90C30 		ldrsh	r3, [r3, #12]
 995 006c CB1A     		subs	r3, r1, r3
 996 006e 7988     		ldrh	r1, [r7, #2]
 997 0070 01FB03F3 		mul	r3, r1, r3
 998 0074 1B12     		asrs	r3, r3, #8
 999 0076 9BB2     		uxth	r3, r3
 1000 0078 1344     		add	r3, r3, r2
 1001 007a 9BB2     		uxth	r3, r3
 1002 007c 1AB2     		sxth	r2, r3
 1003 007e 7B68     		ldr	r3, [r7, #4]
 1004 0080 9A81     		strh	r2, [r3, #12]	@ movhi
 1005 0082 04E0     		b	.L16
 1006              	.L15:
 1007              		.loc 2 242 0 discriminator 2
 1008 0084 FB68     		ldr	r3, [r7, #12]
 1009 0086 B3F90C20 		ldrsh	r2, [r3, #12]
 1010 008a 7B68     		ldr	r3, [r7, #4]
 1011 008c 9A81     		strh	r2, [r3, #12]	@ movhi
 1012              	.L16:
 243:..\..\..\lvgl\version_6.1.2\lvgl\src\lv_core/lv_style.c ****     STYLE_ATTR_MIX(body.border.width, ratio);
 1013              		.loc 2 243 0 is_stmt 1
 1014 008e FB68     		ldr	r3, [r7, #12]
 1015 0090 B3F91420 		ldrsh	r2, [r3, #20]
 1016 0094 BB68     		ldr	r3, [r7, #8]
 1017 0096 B3F91430 		ldrsh	r3, [r3, #20]
 1018 009a 9A42     		cmp	r2, r3
 1019 009c 16D0     		beq	.L17
 1020              		.loc 2 243 0 is_stmt 0 discriminator 1
 1021 009e FB68     		ldr	r3, [r7, #12]
 1022 00a0 B3F91430 		ldrsh	r3, [r3, #20]
 1023 00a4 9AB2     		uxth	r2, r3
 1024 00a6 BB68     		ldr	r3, [r7, #8]
 1025 00a8 B3F91430 		ldrsh	r3, [r3, #20]
 1026 00ac 1946     		mov	r1, r3
 1027 00ae FB68     		ldr	r3, [r7, #12]
 1028 00b0 B3F91430 		ldrsh	r3, [r3, #20]
 1029 00b4 CB1A     		subs	r3, r1, r3
 1030 00b6 7988     		ldrh	r1, [r7, #2]
 1031 00b8 01FB03F3 		mul	r3, r1, r3
 1032 00bc 1B12     		asrs	r3, r3, #8
 1033 00be 9BB2     		uxth	r3, r3
 1034 00c0 1344     		add	r3, r3, r2
 1035 00c2 9BB2     		uxth	r3, r3
 1036 00c4 1AB2     		sxth	r2, r3
 1037 00c6 7B68     		ldr	r3, [r7, #4]
 1038 00c8 9A82     		strh	r2, [r3, #20]	@ movhi
 1039 00ca 04E0     		b	.L18
 1040              	.L17:
 1041              		.loc 2 243 0 discriminator 2
 1042 00cc FB68     		ldr	r3, [r7, #12]
 1043 00ce B3F91420 		ldrsh	r2, [r3, #20]
 1044 00d2 7B68     		ldr	r3, [r7, #4]
ARM GAS  C:\Users\tmj32\AppData\Local\Temp\ccSL9kiF.s 			page 32


 1045 00d4 9A82     		strh	r2, [r3, #20]	@ movhi
 1046              	.L18:
 244:..\..\..\lvgl\version_6.1.2\lvgl\src\lv_core/lv_style.c ****     STYLE_ATTR_MIX(body.border.opa, ratio);
 1047              		.loc 2 244 0 is_stmt 1
 1048 00d6 FB68     		ldr	r3, [r7, #12]
 1049 00d8 DA7D     		ldrb	r2, [r3, #23]	@ zero_extendqisi2
 1050 00da BB68     		ldr	r3, [r7, #8]
 1051 00dc DB7D     		ldrb	r3, [r3, #23]	@ zero_extendqisi2
 1052 00de 9A42     		cmp	r2, r3
 1053 00e0 11D0     		beq	.L19
 1054              		.loc 2 244 0 is_stmt 0 discriminator 1
 1055 00e2 FB68     		ldr	r3, [r7, #12]
 1056 00e4 DA7D     		ldrb	r2, [r3, #23]	@ zero_extendqisi2
 1057 00e6 BB68     		ldr	r3, [r7, #8]
 1058 00e8 DB7D     		ldrb	r3, [r3, #23]	@ zero_extendqisi2
 1059 00ea 1946     		mov	r1, r3
 1060 00ec FB68     		ldr	r3, [r7, #12]
 1061 00ee DB7D     		ldrb	r3, [r3, #23]	@ zero_extendqisi2
 1062 00f0 CB1A     		subs	r3, r1, r3
 1063 00f2 7988     		ldrh	r1, [r7, #2]
 1064 00f4 01FB03F3 		mul	r3, r1, r3
 1065 00f8 1B12     		asrs	r3, r3, #8
 1066 00fa DBB2     		uxtb	r3, r3
 1067 00fc 1344     		add	r3, r3, r2
 1068 00fe DAB2     		uxtb	r2, r3
 1069 0100 7B68     		ldr	r3, [r7, #4]
 1070 0102 DA75     		strb	r2, [r3, #23]
 1071 0104 03E0     		b	.L20
 1072              	.L19:
 1073              		.loc 2 244 0 discriminator 2
 1074 0106 FB68     		ldr	r3, [r7, #12]
 1075 0108 DA7D     		ldrb	r2, [r3, #23]	@ zero_extendqisi2
 1076 010a 7B68     		ldr	r3, [r7, #4]
 1077 010c DA75     		strb	r2, [r3, #23]
 1078              	.L20:
 245:..\..\..\lvgl\version_6.1.2\lvgl\src\lv_core/lv_style.c ****     STYLE_ATTR_MIX(body.shadow.width, ratio);
 1079              		.loc 2 245 0 is_stmt 1
 1080 010e FB68     		ldr	r3, [r7, #12]
 1081 0110 B3F91C20 		ldrsh	r2, [r3, #28]
 1082 0114 BB68     		ldr	r3, [r7, #8]
 1083 0116 B3F91C30 		ldrsh	r3, [r3, #28]
 1084 011a 9A42     		cmp	r2, r3
 1085 011c 16D0     		beq	.L21
 1086              		.loc 2 245 0 is_stmt 0 discriminator 1
 1087 011e FB68     		ldr	r3, [r7, #12]
 1088 0120 B3F91C30 		ldrsh	r3, [r3, #28]
 1089 0124 9AB2     		uxth	r2, r3
 1090 0126 BB68     		ldr	r3, [r7, #8]
 1091 0128 B3F91C30 		ldrsh	r3, [r3, #28]
 1092 012c 1946     		mov	r1, r3
 1093 012e FB68     		ldr	r3, [r7, #12]
 1094 0130 B3F91C30 		ldrsh	r3, [r3, #28]
 1095 0134 CB1A     		subs	r3, r1, r3
 1096 0136 7988     		ldrh	r1, [r7, #2]
 1097 0138 01FB03F3 		mul	r3, r1, r3
 1098 013c 1B12     		asrs	r3, r3, #8
 1099 013e 9BB2     		uxth	r3, r3
ARM GAS  C:\Users\tmj32\AppData\Local\Temp\ccSL9kiF.s 			page 33


 1100 0140 1344     		add	r3, r3, r2
 1101 0142 9BB2     		uxth	r3, r3
 1102 0144 1AB2     		sxth	r2, r3
 1103 0146 7B68     		ldr	r3, [r7, #4]
 1104 0148 9A83     		strh	r2, [r3, #28]	@ movhi
 1105 014a 04E0     		b	.L22
 1106              	.L21:
 1107              		.loc 2 245 0 discriminator 2
 1108 014c FB68     		ldr	r3, [r7, #12]
 1109 014e B3F91C20 		ldrsh	r2, [r3, #28]
 1110 0152 7B68     		ldr	r3, [r7, #4]
 1111 0154 9A83     		strh	r2, [r3, #28]	@ movhi
 1112              	.L22:
 246:..\..\..\lvgl\version_6.1.2\lvgl\src\lv_core/lv_style.c ****     STYLE_ATTR_MIX(body.padding.left, ratio);
 1113              		.loc 2 246 0 is_stmt 1
 1114 0156 FB68     		ldr	r3, [r7, #12]
 1115 0158 B3F92420 		ldrsh	r2, [r3, #36]
 1116 015c BB68     		ldr	r3, [r7, #8]
 1117 015e B3F92430 		ldrsh	r3, [r3, #36]
 1118 0162 9A42     		cmp	r2, r3
 1119 0164 16D0     		beq	.L23
 1120              		.loc 2 246 0 is_stmt 0 discriminator 1
 1121 0166 FB68     		ldr	r3, [r7, #12]
 1122 0168 B3F92430 		ldrsh	r3, [r3, #36]
 1123 016c 9AB2     		uxth	r2, r3
 1124 016e BB68     		ldr	r3, [r7, #8]
 1125 0170 B3F92430 		ldrsh	r3, [r3, #36]
 1126 0174 1946     		mov	r1, r3
 1127 0176 FB68     		ldr	r3, [r7, #12]
 1128 0178 B3F92430 		ldrsh	r3, [r3, #36]
 1129 017c CB1A     		subs	r3, r1, r3
 1130 017e 7988     		ldrh	r1, [r7, #2]
 1131 0180 01FB03F3 		mul	r3, r1, r3
 1132 0184 1B12     		asrs	r3, r3, #8
 1133 0186 9BB2     		uxth	r3, r3
 1134 0188 1344     		add	r3, r3, r2
 1135 018a 9BB2     		uxth	r3, r3
 1136 018c 1AB2     		sxth	r2, r3
 1137 018e 7B68     		ldr	r3, [r7, #4]
 1138 0190 9A84     		strh	r2, [r3, #36]	@ movhi
 1139 0192 04E0     		b	.L24
 1140              	.L23:
 1141              		.loc 2 246 0 discriminator 2
 1142 0194 FB68     		ldr	r3, [r7, #12]
 1143 0196 B3F92420 		ldrsh	r2, [r3, #36]
 1144 019a 7B68     		ldr	r3, [r7, #4]
 1145 019c 9A84     		strh	r2, [r3, #36]	@ movhi
 1146              	.L24:
 247:..\..\..\lvgl\version_6.1.2\lvgl\src\lv_core/lv_style.c ****     STYLE_ATTR_MIX(body.padding.right, ratio);
 1147              		.loc 2 247 0 is_stmt 1
 1148 019e FB68     		ldr	r3, [r7, #12]
 1149 01a0 B3F92620 		ldrsh	r2, [r3, #38]
 1150 01a4 BB68     		ldr	r3, [r7, #8]
 1151 01a6 B3F92630 		ldrsh	r3, [r3, #38]
 1152 01aa 9A42     		cmp	r2, r3
 1153 01ac 16D0     		beq	.L25
 1154              		.loc 2 247 0 is_stmt 0 discriminator 1
ARM GAS  C:\Users\tmj32\AppData\Local\Temp\ccSL9kiF.s 			page 34


 1155 01ae FB68     		ldr	r3, [r7, #12]
 1156 01b0 B3F92630 		ldrsh	r3, [r3, #38]
 1157 01b4 9AB2     		uxth	r2, r3
 1158 01b6 BB68     		ldr	r3, [r7, #8]
 1159 01b8 B3F92630 		ldrsh	r3, [r3, #38]
 1160 01bc 1946     		mov	r1, r3
 1161 01be FB68     		ldr	r3, [r7, #12]
 1162 01c0 B3F92630 		ldrsh	r3, [r3, #38]
 1163 01c4 CB1A     		subs	r3, r1, r3
 1164 01c6 7988     		ldrh	r1, [r7, #2]
 1165 01c8 01FB03F3 		mul	r3, r1, r3
 1166 01cc 1B12     		asrs	r3, r3, #8
 1167 01ce 9BB2     		uxth	r3, r3
 1168 01d0 1344     		add	r3, r3, r2
 1169 01d2 9BB2     		uxth	r3, r3
 1170 01d4 1AB2     		sxth	r2, r3
 1171 01d6 7B68     		ldr	r3, [r7, #4]
 1172 01d8 DA84     		strh	r2, [r3, #38]	@ movhi
 1173 01da 04E0     		b	.L26
 1174              	.L25:
 1175              		.loc 2 247 0 discriminator 2
 1176 01dc FB68     		ldr	r3, [r7, #12]
 1177 01de B3F92620 		ldrsh	r2, [r3, #38]
 1178 01e2 7B68     		ldr	r3, [r7, #4]
 1179 01e4 DA84     		strh	r2, [r3, #38]	@ movhi
 1180              	.L26:
 248:..\..\..\lvgl\version_6.1.2\lvgl\src\lv_core/lv_style.c ****     STYLE_ATTR_MIX(body.padding.top, ratio);
 1181              		.loc 2 248 0 is_stmt 1
 1182 01e6 FB68     		ldr	r3, [r7, #12]
 1183 01e8 B3F92020 		ldrsh	r2, [r3, #32]
 1184 01ec BB68     		ldr	r3, [r7, #8]
 1185 01ee B3F92030 		ldrsh	r3, [r3, #32]
 1186 01f2 9A42     		cmp	r2, r3
 1187 01f4 16D0     		beq	.L27
 1188              		.loc 2 248 0 is_stmt 0 discriminator 1
 1189 01f6 FB68     		ldr	r3, [r7, #12]
 1190 01f8 B3F92030 		ldrsh	r3, [r3, #32]
 1191 01fc 9AB2     		uxth	r2, r3
 1192 01fe BB68     		ldr	r3, [r7, #8]
 1193 0200 B3F92030 		ldrsh	r3, [r3, #32]
 1194 0204 1946     		mov	r1, r3
 1195 0206 FB68     		ldr	r3, [r7, #12]
 1196 0208 B3F92030 		ldrsh	r3, [r3, #32]
 1197 020c CB1A     		subs	r3, r1, r3
 1198 020e 7988     		ldrh	r1, [r7, #2]
 1199 0210 01FB03F3 		mul	r3, r1, r3
 1200 0214 1B12     		asrs	r3, r3, #8
 1201 0216 9BB2     		uxth	r3, r3
 1202 0218 1344     		add	r3, r3, r2
 1203 021a 9BB2     		uxth	r3, r3
 1204 021c 1AB2     		sxth	r2, r3
 1205 021e 7B68     		ldr	r3, [r7, #4]
 1206 0220 1A84     		strh	r2, [r3, #32]	@ movhi
 1207 0222 04E0     		b	.L28
 1208              	.L27:
 1209              		.loc 2 248 0 discriminator 2
 1210 0224 FB68     		ldr	r3, [r7, #12]
ARM GAS  C:\Users\tmj32\AppData\Local\Temp\ccSL9kiF.s 			page 35


 1211 0226 B3F92020 		ldrsh	r2, [r3, #32]
 1212 022a 7B68     		ldr	r3, [r7, #4]
 1213 022c 1A84     		strh	r2, [r3, #32]	@ movhi
 1214              	.L28:
 249:..\..\..\lvgl\version_6.1.2\lvgl\src\lv_core/lv_style.c ****     STYLE_ATTR_MIX(body.padding.bottom, ratio);
 1215              		.loc 2 249 0 is_stmt 1
 1216 022e FB68     		ldr	r3, [r7, #12]
 1217 0230 B3F92220 		ldrsh	r2, [r3, #34]
 1218 0234 BB68     		ldr	r3, [r7, #8]
 1219 0236 B3F92230 		ldrsh	r3, [r3, #34]
 1220 023a 9A42     		cmp	r2, r3
 1221 023c 16D0     		beq	.L29
 1222              		.loc 2 249 0 is_stmt 0 discriminator 1
 1223 023e FB68     		ldr	r3, [r7, #12]
 1224 0240 B3F92230 		ldrsh	r3, [r3, #34]
 1225 0244 9AB2     		uxth	r2, r3
 1226 0246 BB68     		ldr	r3, [r7, #8]
 1227 0248 B3F92230 		ldrsh	r3, [r3, #34]
 1228 024c 1946     		mov	r1, r3
 1229 024e FB68     		ldr	r3, [r7, #12]
 1230 0250 B3F92230 		ldrsh	r3, [r3, #34]
 1231 0254 CB1A     		subs	r3, r1, r3
 1232 0256 7988     		ldrh	r1, [r7, #2]
 1233 0258 01FB03F3 		mul	r3, r1, r3
 1234 025c 1B12     		asrs	r3, r3, #8
 1235 025e 9BB2     		uxth	r3, r3
 1236 0260 1344     		add	r3, r3, r2
 1237 0262 9BB2     		uxth	r3, r3
 1238 0264 1AB2     		sxth	r2, r3
 1239 0266 7B68     		ldr	r3, [r7, #4]
 1240 0268 5A84     		strh	r2, [r3, #34]	@ movhi
 1241 026a 04E0     		b	.L30
 1242              	.L29:
 1243              		.loc 2 249 0 discriminator 2
 1244 026c FB68     		ldr	r3, [r7, #12]
 1245 026e B3F92220 		ldrsh	r2, [r3, #34]
 1246 0272 7B68     		ldr	r3, [r7, #4]
 1247 0274 5A84     		strh	r2, [r3, #34]	@ movhi
 1248              	.L30:
 250:..\..\..\lvgl\version_6.1.2\lvgl\src\lv_core/lv_style.c ****     STYLE_ATTR_MIX(body.padding.inner, ratio);
 1249              		.loc 2 250 0 is_stmt 1
 1250 0276 FB68     		ldr	r3, [r7, #12]
 1251 0278 B3F92820 		ldrsh	r2, [r3, #40]
 1252 027c BB68     		ldr	r3, [r7, #8]
 1253 027e B3F92830 		ldrsh	r3, [r3, #40]
 1254 0282 9A42     		cmp	r2, r3
 1255 0284 16D0     		beq	.L31
 1256              		.loc 2 250 0 is_stmt 0 discriminator 1
 1257 0286 FB68     		ldr	r3, [r7, #12]
 1258 0288 B3F92830 		ldrsh	r3, [r3, #40]
 1259 028c 9AB2     		uxth	r2, r3
 1260 028e BB68     		ldr	r3, [r7, #8]
 1261 0290 B3F92830 		ldrsh	r3, [r3, #40]
 1262 0294 1946     		mov	r1, r3
 1263 0296 FB68     		ldr	r3, [r7, #12]
 1264 0298 B3F92830 		ldrsh	r3, [r3, #40]
 1265 029c CB1A     		subs	r3, r1, r3
ARM GAS  C:\Users\tmj32\AppData\Local\Temp\ccSL9kiF.s 			page 36


 1266 029e 7988     		ldrh	r1, [r7, #2]
 1267 02a0 01FB03F3 		mul	r3, r1, r3
 1268 02a4 1B12     		asrs	r3, r3, #8
 1269 02a6 9BB2     		uxth	r3, r3
 1270 02a8 1344     		add	r3, r3, r2
 1271 02aa 9BB2     		uxth	r3, r3
 1272 02ac 1AB2     		sxth	r2, r3
 1273 02ae 7B68     		ldr	r3, [r7, #4]
 1274 02b0 1A85     		strh	r2, [r3, #40]	@ movhi
 1275 02b2 04E0     		b	.L32
 1276              	.L31:
 1277              		.loc 2 250 0 discriminator 2
 1278 02b4 FB68     		ldr	r3, [r7, #12]
 1279 02b6 B3F92820 		ldrsh	r2, [r3, #40]
 1280 02ba 7B68     		ldr	r3, [r7, #4]
 1281 02bc 1A85     		strh	r2, [r3, #40]	@ movhi
 1282              	.L32:
 251:..\..\..\lvgl\version_6.1.2\lvgl\src\lv_core/lv_style.c ****     STYLE_ATTR_MIX(text.line_space, ratio);
 1283              		.loc 2 251 0 is_stmt 1
 1284 02be FB68     		ldr	r3, [r7, #12]
 1285 02c0 B3F93A20 		ldrsh	r2, [r3, #58]
 1286 02c4 BB68     		ldr	r3, [r7, #8]
 1287 02c6 B3F93A30 		ldrsh	r3, [r3, #58]
 1288 02ca 9A42     		cmp	r2, r3
 1289 02cc 16D0     		beq	.L33
 1290              		.loc 2 251 0 is_stmt 0 discriminator 1
 1291 02ce FB68     		ldr	r3, [r7, #12]
 1292 02d0 B3F93A30 		ldrsh	r3, [r3, #58]
 1293 02d4 9AB2     		uxth	r2, r3
 1294 02d6 BB68     		ldr	r3, [r7, #8]
 1295 02d8 B3F93A30 		ldrsh	r3, [r3, #58]
 1296 02dc 1946     		mov	r1, r3
 1297 02de FB68     		ldr	r3, [r7, #12]
 1298 02e0 B3F93A30 		ldrsh	r3, [r3, #58]
 1299 02e4 CB1A     		subs	r3, r1, r3
 1300 02e6 7988     		ldrh	r1, [r7, #2]
 1301 02e8 01FB03F3 		mul	r3, r1, r3
 1302 02ec 1B12     		asrs	r3, r3, #8
 1303 02ee 9BB2     		uxth	r3, r3
 1304 02f0 1344     		add	r3, r3, r2
 1305 02f2 9BB2     		uxth	r3, r3
 1306 02f4 1AB2     		sxth	r2, r3
 1307 02f6 7B68     		ldr	r3, [r7, #4]
 1308 02f8 5A87     		strh	r2, [r3, #58]	@ movhi
 1309 02fa 04E0     		b	.L34
 1310              	.L33:
 1311              		.loc 2 251 0 discriminator 2
 1312 02fc FB68     		ldr	r3, [r7, #12]
 1313 02fe B3F93A20 		ldrsh	r2, [r3, #58]
 1314 0302 7B68     		ldr	r3, [r7, #4]
 1315 0304 5A87     		strh	r2, [r3, #58]	@ movhi
 1316              	.L34:
 252:..\..\..\lvgl\version_6.1.2\lvgl\src\lv_core/lv_style.c ****     STYLE_ATTR_MIX(text.letter_space, ratio);
 1317              		.loc 2 252 0 is_stmt 1
 1318 0306 FB68     		ldr	r3, [r7, #12]
 1319 0308 B3F93820 		ldrsh	r2, [r3, #56]
 1320 030c BB68     		ldr	r3, [r7, #8]
ARM GAS  C:\Users\tmj32\AppData\Local\Temp\ccSL9kiF.s 			page 37


 1321 030e B3F93830 		ldrsh	r3, [r3, #56]
 1322 0312 9A42     		cmp	r2, r3
 1323 0314 16D0     		beq	.L35
 1324              		.loc 2 252 0 is_stmt 0 discriminator 1
 1325 0316 FB68     		ldr	r3, [r7, #12]
 1326 0318 B3F93830 		ldrsh	r3, [r3, #56]
 1327 031c 9AB2     		uxth	r2, r3
 1328 031e BB68     		ldr	r3, [r7, #8]
 1329 0320 B3F93830 		ldrsh	r3, [r3, #56]
 1330 0324 1946     		mov	r1, r3
 1331 0326 FB68     		ldr	r3, [r7, #12]
 1332 0328 B3F93830 		ldrsh	r3, [r3, #56]
 1333 032c CB1A     		subs	r3, r1, r3
 1334 032e 7988     		ldrh	r1, [r7, #2]
 1335 0330 01FB03F3 		mul	r3, r1, r3
 1336 0334 1B12     		asrs	r3, r3, #8
 1337 0336 9BB2     		uxth	r3, r3
 1338 0338 1344     		add	r3, r3, r2
 1339 033a 9BB2     		uxth	r3, r3
 1340 033c 1AB2     		sxth	r2, r3
 1341 033e 7B68     		ldr	r3, [r7, #4]
 1342 0340 1A87     		strh	r2, [r3, #56]	@ movhi
 1343 0342 04E0     		b	.L36
 1344              	.L35:
 1345              		.loc 2 252 0 discriminator 2
 1346 0344 FB68     		ldr	r3, [r7, #12]
 1347 0346 B3F93820 		ldrsh	r2, [r3, #56]
 1348 034a 7B68     		ldr	r3, [r7, #4]
 1349 034c 1A87     		strh	r2, [r3, #56]	@ movhi
 1350              	.L36:
 253:..\..\..\lvgl\version_6.1.2\lvgl\src\lv_core/lv_style.c ****     STYLE_ATTR_MIX(text.opa, ratio);
 1351              		.loc 2 253 0 is_stmt 1
 1352 034e FB68     		ldr	r3, [r7, #12]
 1353 0350 93F83C20 		ldrb	r2, [r3, #60]	@ zero_extendqisi2
 1354 0354 BB68     		ldr	r3, [r7, #8]
 1355 0356 93F83C30 		ldrb	r3, [r3, #60]	@ zero_extendqisi2
 1356 035a 9A42     		cmp	r2, r3
 1357 035c 15D0     		beq	.L37
 1358              		.loc 2 253 0 is_stmt 0 discriminator 1
 1359 035e FB68     		ldr	r3, [r7, #12]
 1360 0360 93F83C20 		ldrb	r2, [r3, #60]	@ zero_extendqisi2
 1361 0364 BB68     		ldr	r3, [r7, #8]
 1362 0366 93F83C30 		ldrb	r3, [r3, #60]	@ zero_extendqisi2
 1363 036a 1946     		mov	r1, r3
 1364 036c FB68     		ldr	r3, [r7, #12]
 1365 036e 93F83C30 		ldrb	r3, [r3, #60]	@ zero_extendqisi2
 1366 0372 CB1A     		subs	r3, r1, r3
 1367 0374 7988     		ldrh	r1, [r7, #2]
 1368 0376 01FB03F3 		mul	r3, r1, r3
 1369 037a 1B12     		asrs	r3, r3, #8
 1370 037c DBB2     		uxtb	r3, r3
 1371 037e 1344     		add	r3, r3, r2
 1372 0380 DAB2     		uxtb	r2, r3
 1373 0382 7B68     		ldr	r3, [r7, #4]
 1374 0384 83F83C20 		strb	r2, [r3, #60]
 1375 0388 05E0     		b	.L38
 1376              	.L37:
ARM GAS  C:\Users\tmj32\AppData\Local\Temp\ccSL9kiF.s 			page 38


 1377              		.loc 2 253 0 discriminator 2
 1378 038a FB68     		ldr	r3, [r7, #12]
 1379 038c 93F83C20 		ldrb	r2, [r3, #60]	@ zero_extendqisi2
 1380 0390 7B68     		ldr	r3, [r7, #4]
 1381 0392 83F83C20 		strb	r2, [r3, #60]
 1382              	.L38:
 254:..\..\..\lvgl\version_6.1.2\lvgl\src\lv_core/lv_style.c ****     STYLE_ATTR_MIX(line.width, ratio);
 1383              		.loc 2 254 0 is_stmt 1
 1384 0396 FB68     		ldr	r3, [r7, #12]
 1385 0398 B3F94C20 		ldrsh	r2, [r3, #76]
 1386 039c BB68     		ldr	r3, [r7, #8]
 1387 039e B3F94C30 		ldrsh	r3, [r3, #76]
 1388 03a2 9A42     		cmp	r2, r3
 1389 03a4 17D0     		beq	.L39
 1390              		.loc 2 254 0 is_stmt 0 discriminator 1
 1391 03a6 FB68     		ldr	r3, [r7, #12]
 1392 03a8 B3F94C30 		ldrsh	r3, [r3, #76]
 1393 03ac 9AB2     		uxth	r2, r3
 1394 03ae BB68     		ldr	r3, [r7, #8]
 1395 03b0 B3F94C30 		ldrsh	r3, [r3, #76]
 1396 03b4 1946     		mov	r1, r3
 1397 03b6 FB68     		ldr	r3, [r7, #12]
 1398 03b8 B3F94C30 		ldrsh	r3, [r3, #76]
 1399 03bc CB1A     		subs	r3, r1, r3
 1400 03be 7988     		ldrh	r1, [r7, #2]
 1401 03c0 01FB03F3 		mul	r3, r1, r3
 1402 03c4 1B12     		asrs	r3, r3, #8
 1403 03c6 9BB2     		uxth	r3, r3
 1404 03c8 1344     		add	r3, r3, r2
 1405 03ca 9BB2     		uxth	r3, r3
 1406 03cc 1AB2     		sxth	r2, r3
 1407 03ce 7B68     		ldr	r3, [r7, #4]
 1408 03d0 A3F84C20 		strh	r2, [r3, #76]	@ movhi
 1409 03d4 05E0     		b	.L40
 1410              	.L39:
 1411              		.loc 2 254 0 discriminator 2
 1412 03d6 FB68     		ldr	r3, [r7, #12]
 1413 03d8 B3F94C20 		ldrsh	r2, [r3, #76]
 1414 03dc 7B68     		ldr	r3, [r7, #4]
 1415 03de A3F84C20 		strh	r2, [r3, #76]	@ movhi
 1416              	.L40:
 255:..\..\..\lvgl\version_6.1.2\lvgl\src\lv_core/lv_style.c ****     STYLE_ATTR_MIX(line.opa, ratio);
 1417              		.loc 2 255 0 is_stmt 1
 1418 03e2 FB68     		ldr	r3, [r7, #12]
 1419 03e4 93F84E20 		ldrb	r2, [r3, #78]	@ zero_extendqisi2
 1420 03e8 BB68     		ldr	r3, [r7, #8]
 1421 03ea 93F84E30 		ldrb	r3, [r3, #78]	@ zero_extendqisi2
 1422 03ee 9A42     		cmp	r2, r3
 1423 03f0 15D0     		beq	.L41
 1424              		.loc 2 255 0 is_stmt 0 discriminator 1
 1425 03f2 FB68     		ldr	r3, [r7, #12]
 1426 03f4 93F84E20 		ldrb	r2, [r3, #78]	@ zero_extendqisi2
 1427 03f8 BB68     		ldr	r3, [r7, #8]
 1428 03fa 93F84E30 		ldrb	r3, [r3, #78]	@ zero_extendqisi2
 1429 03fe 1946     		mov	r1, r3
 1430 0400 FB68     		ldr	r3, [r7, #12]
 1431 0402 93F84E30 		ldrb	r3, [r3, #78]	@ zero_extendqisi2
ARM GAS  C:\Users\tmj32\AppData\Local\Temp\ccSL9kiF.s 			page 39


 1432 0406 CB1A     		subs	r3, r1, r3
 1433 0408 7988     		ldrh	r1, [r7, #2]
 1434 040a 01FB03F3 		mul	r3, r1, r3
 1435 040e 1B12     		asrs	r3, r3, #8
 1436 0410 DBB2     		uxtb	r3, r3
 1437 0412 1344     		add	r3, r3, r2
 1438 0414 DAB2     		uxtb	r2, r3
 1439 0416 7B68     		ldr	r3, [r7, #4]
 1440 0418 83F84E20 		strb	r2, [r3, #78]
 1441 041c 05E0     		b	.L42
 1442              	.L41:
 1443              		.loc 2 255 0 discriminator 2
 1444 041e FB68     		ldr	r3, [r7, #12]
 1445 0420 93F84E20 		ldrb	r2, [r3, #78]	@ zero_extendqisi2
 1446 0424 7B68     		ldr	r3, [r7, #4]
 1447 0426 83F84E20 		strb	r2, [r3, #78]
 1448              	.L42:
 256:..\..\..\lvgl\version_6.1.2\lvgl\src\lv_core/lv_style.c ****     STYLE_ATTR_MIX(image.intense, ratio);
 1449              		.loc 2 256 0 is_stmt 1
 1450 042a FB68     		ldr	r3, [r7, #12]
 1451 042c 93F84420 		ldrb	r2, [r3, #68]	@ zero_extendqisi2
 1452 0430 BB68     		ldr	r3, [r7, #8]
 1453 0432 93F84430 		ldrb	r3, [r3, #68]	@ zero_extendqisi2
 1454 0436 9A42     		cmp	r2, r3
 1455 0438 15D0     		beq	.L43
 1456              		.loc 2 256 0 is_stmt 0 discriminator 1
 1457 043a FB68     		ldr	r3, [r7, #12]
 1458 043c 93F84420 		ldrb	r2, [r3, #68]	@ zero_extendqisi2
 1459 0440 BB68     		ldr	r3, [r7, #8]
 1460 0442 93F84430 		ldrb	r3, [r3, #68]	@ zero_extendqisi2
 1461 0446 1946     		mov	r1, r3
 1462 0448 FB68     		ldr	r3, [r7, #12]
 1463 044a 93F84430 		ldrb	r3, [r3, #68]	@ zero_extendqisi2
 1464 044e CB1A     		subs	r3, r1, r3
 1465 0450 7988     		ldrh	r1, [r7, #2]
 1466 0452 01FB03F3 		mul	r3, r1, r3
 1467 0456 1B12     		asrs	r3, r3, #8
 1468 0458 DBB2     		uxtb	r3, r3
 1469 045a 1344     		add	r3, r3, r2
 1470 045c DAB2     		uxtb	r2, r3
 1471 045e 7B68     		ldr	r3, [r7, #4]
 1472 0460 83F84420 		strb	r2, [r3, #68]
 1473 0464 05E0     		b	.L44
 1474              	.L43:
 1475              		.loc 2 256 0 discriminator 2
 1476 0466 FB68     		ldr	r3, [r7, #12]
 1477 0468 93F84420 		ldrb	r2, [r3, #68]	@ zero_extendqisi2
 1478 046c 7B68     		ldr	r3, [r7, #4]
 1479 046e 83F84420 		strb	r2, [r3, #68]
 1480              	.L44:
 257:..\..\..\lvgl\version_6.1.2\lvgl\src\lv_core/lv_style.c ****     STYLE_ATTR_MIX(image.opa, ratio);
 1481              		.loc 2 257 0 is_stmt 1
 1482 0472 FB68     		ldr	r3, [r7, #12]
 1483 0474 93F84520 		ldrb	r2, [r3, #69]	@ zero_extendqisi2
 1484 0478 BB68     		ldr	r3, [r7, #8]
 1485 047a 93F84530 		ldrb	r3, [r3, #69]	@ zero_extendqisi2
 1486 047e 9A42     		cmp	r2, r3
ARM GAS  C:\Users\tmj32\AppData\Local\Temp\ccSL9kiF.s 			page 40


 1487 0480 15D0     		beq	.L45
 1488              		.loc 2 257 0 is_stmt 0 discriminator 1
 1489 0482 FB68     		ldr	r3, [r7, #12]
 1490 0484 93F84520 		ldrb	r2, [r3, #69]	@ zero_extendqisi2
 1491 0488 BB68     		ldr	r3, [r7, #8]
 1492 048a 93F84530 		ldrb	r3, [r3, #69]	@ zero_extendqisi2
 1493 048e 1946     		mov	r1, r3
 1494 0490 FB68     		ldr	r3, [r7, #12]
 1495 0492 93F84530 		ldrb	r3, [r3, #69]	@ zero_extendqisi2
 1496 0496 CB1A     		subs	r3, r1, r3
 1497 0498 7988     		ldrh	r1, [r7, #2]
 1498 049a 01FB03F3 		mul	r3, r1, r3
 1499 049e 1B12     		asrs	r3, r3, #8
 1500 04a0 DBB2     		uxtb	r3, r3
 1501 04a2 1344     		add	r3, r3, r2
 1502 04a4 DAB2     		uxtb	r2, r3
 1503 04a6 7B68     		ldr	r3, [r7, #4]
 1504 04a8 83F84520 		strb	r2, [r3, #69]
 1505 04ac 05E0     		b	.L46
 1506              	.L45:
 1507              		.loc 2 257 0 discriminator 2
 1508 04ae FB68     		ldr	r3, [r7, #12]
 1509 04b0 93F84520 		ldrb	r2, [r3, #69]	@ zero_extendqisi2
 1510 04b4 7B68     		ldr	r3, [r7, #4]
 1511 04b6 83F84520 		strb	r2, [r3, #69]
 1512              	.L46:
 258:..\..\..\lvgl\version_6.1.2\lvgl\src\lv_core/lv_style.c **** 
 259:..\..\..\lvgl\version_6.1.2\lvgl\src\lv_core/lv_style.c ****     lv_opa_t opa = ratio == STYLE_MIX_MAX ? LV_OPA_COVER : ratio;
 1513              		.loc 2 259 0 is_stmt 1
 1514 04ba 7B88     		ldrh	r3, [r7, #2]
 1515 04bc B3F5807F 		cmp	r3, #256
 1516 04c0 02D0     		beq	.L47
 1517              		.loc 2 259 0 is_stmt 0 discriminator 1
 1518 04c2 7B88     		ldrh	r3, [r7, #2]	@ movhi
 1519 04c4 DBB2     		uxtb	r3, r3
 1520 04c6 00E0     		b	.L48
 1521              	.L47:
 1522              		.loc 2 259 0 discriminator 2
 1523 04c8 FF23     		movs	r3, #255
 1524              	.L48:
 1525              		.loc 2 259 0 discriminator 4
 1526 04ca FB75     		strb	r3, [r7, #23]
 260:..\..\..\lvgl\version_6.1.2\lvgl\src\lv_core/lv_style.c **** 
 261:..\..\..\lvgl\version_6.1.2\lvgl\src\lv_core/lv_style.c ****     res->body.main_color   = lv_color_mix(end->body.main_color, start->body.main_color, opa);
 1527              		.loc 2 261 0 is_stmt 1 discriminator 4
 1528 04cc 7C68     		ldr	r4, [r7, #4]
 1529 04ce FA7D     		ldrb	r2, [r7, #23]	@ zero_extendqisi2
 1530 04d0 F968     		ldr	r1, [r7, #12]
 1531 04d2 BB68     		ldr	r3, [r7, #8]
 1532 04d4 4968     		ldr	r1, [r1, #4]
 1533 04d6 5868     		ldr	r0, [r3, #4]
 1534 04d8 FFF7FEFF 		bl	lv_color_mix
 1535 04dc 6060     		str	r0, [r4, #4]
 262:..\..\..\lvgl\version_6.1.2\lvgl\src\lv_core/lv_style.c ****     res->body.grad_color   = lv_color_mix(end->body.grad_color, start->body.grad_color, opa);
 1536              		.loc 2 262 0 discriminator 4
 1537 04de 7C68     		ldr	r4, [r7, #4]
 1538 04e0 FA7D     		ldrb	r2, [r7, #23]	@ zero_extendqisi2
ARM GAS  C:\Users\tmj32\AppData\Local\Temp\ccSL9kiF.s 			page 41


 1539 04e2 F968     		ldr	r1, [r7, #12]
 1540 04e4 BB68     		ldr	r3, [r7, #8]
 1541 04e6 8968     		ldr	r1, [r1, #8]
 1542 04e8 9868     		ldr	r0, [r3, #8]
 1543 04ea FFF7FEFF 		bl	lv_color_mix
 1544 04ee A060     		str	r0, [r4, #8]
 263:..\..\..\lvgl\version_6.1.2\lvgl\src\lv_core/lv_style.c ****     res->body.border.color = lv_color_mix(end->body.border.color, start->body.border.color, opa);
 1545              		.loc 2 263 0 discriminator 4
 1546 04f0 7C68     		ldr	r4, [r7, #4]
 1547 04f2 FA7D     		ldrb	r2, [r7, #23]	@ zero_extendqisi2
 1548 04f4 F968     		ldr	r1, [r7, #12]
 1549 04f6 BB68     		ldr	r3, [r7, #8]
 1550 04f8 0969     		ldr	r1, [r1, #16]
 1551 04fa 1869     		ldr	r0, [r3, #16]
 1552 04fc FFF7FEFF 		bl	lv_color_mix
 1553 0500 2061     		str	r0, [r4, #16]
 264:..\..\..\lvgl\version_6.1.2\lvgl\src\lv_core/lv_style.c ****     res->body.shadow.color = lv_color_mix(end->body.shadow.color, start->body.shadow.color, opa);
 1554              		.loc 2 264 0 discriminator 4
 1555 0502 7C68     		ldr	r4, [r7, #4]
 1556 0504 FA7D     		ldrb	r2, [r7, #23]	@ zero_extendqisi2
 1557 0506 F968     		ldr	r1, [r7, #12]
 1558 0508 BB68     		ldr	r3, [r7, #8]
 1559 050a 8969     		ldr	r1, [r1, #24]
 1560 050c 9869     		ldr	r0, [r3, #24]
 1561 050e FFF7FEFF 		bl	lv_color_mix
 1562 0512 A061     		str	r0, [r4, #24]
 265:..\..\..\lvgl\version_6.1.2\lvgl\src\lv_core/lv_style.c ****     res->text.color        = lv_color_mix(end->text.color, start->text.color, opa);
 1563              		.loc 2 265 0 discriminator 4
 1564 0514 7C68     		ldr	r4, [r7, #4]
 1565 0516 FA7D     		ldrb	r2, [r7, #23]	@ zero_extendqisi2
 1566 0518 F968     		ldr	r1, [r7, #12]
 1567 051a BB68     		ldr	r3, [r7, #8]
 1568 051c C96A     		ldr	r1, [r1, #44]
 1569 051e D86A     		ldr	r0, [r3, #44]
 1570 0520 FFF7FEFF 		bl	lv_color_mix
 1571 0524 E062     		str	r0, [r4, #44]
 266:..\..\..\lvgl\version_6.1.2\lvgl\src\lv_core/lv_style.c ****     res->image.color       = lv_color_mix(end->image.color, start->image.color, opa);
 1572              		.loc 2 266 0 discriminator 4
 1573 0526 7C68     		ldr	r4, [r7, #4]
 1574 0528 FA7D     		ldrb	r2, [r7, #23]	@ zero_extendqisi2
 1575 052a F968     		ldr	r1, [r7, #12]
 1576 052c BB68     		ldr	r3, [r7, #8]
 1577 052e 096C     		ldr	r1, [r1, #64]
 1578 0530 186C     		ldr	r0, [r3, #64]
 1579 0532 FFF7FEFF 		bl	lv_color_mix
 1580 0536 2064     		str	r0, [r4, #64]
 267:..\..\..\lvgl\version_6.1.2\lvgl\src\lv_core/lv_style.c ****     res->line.color        = lv_color_mix(end->line.color, start->line.color, opa);
 1581              		.loc 2 267 0 discriminator 4
 1582 0538 7C68     		ldr	r4, [r7, #4]
 1583 053a FA7D     		ldrb	r2, [r7, #23]	@ zero_extendqisi2
 1584 053c F968     		ldr	r1, [r7, #12]
 1585 053e BB68     		ldr	r3, [r7, #8]
 1586 0540 896C     		ldr	r1, [r1, #72]
 1587 0542 986C     		ldr	r0, [r3, #72]
 1588 0544 FFF7FEFF 		bl	lv_color_mix
 1589 0548 A064     		str	r0, [r4, #72]
 268:..\..\..\lvgl\version_6.1.2\lvgl\src\lv_core/lv_style.c **** 
ARM GAS  C:\Users\tmj32\AppData\Local\Temp\ccSL9kiF.s 			page 42


 269:..\..\..\lvgl\version_6.1.2\lvgl\src\lv_core/lv_style.c ****     if(ratio < (STYLE_MIX_MAX >> 1)) {
 1590              		.loc 2 269 0 discriminator 4
 1591 054a 7B88     		ldrh	r3, [r7, #2]
 1592 054c 7F2B     		cmp	r3, #127
 1593 054e 23D8     		bhi	.L49
 270:..\..\..\lvgl\version_6.1.2\lvgl\src\lv_core/lv_style.c ****         res->body.border.part = start->body.border.part;
 1594              		.loc 2 270 0
 1595 0550 FB68     		ldr	r3, [r7, #12]
 1596 0552 9A7D     		ldrb	r2, [r3, #22]	@ zero_extendqisi2
 1597 0554 7B68     		ldr	r3, [r7, #4]
 1598 0556 9A75     		strb	r2, [r3, #22]
 271:..\..\..\lvgl\version_6.1.2\lvgl\src\lv_core/lv_style.c ****         res->glass            = start->glass;
 1599              		.loc 2 271 0
 1600 0558 FB68     		ldr	r3, [r7, #12]
 1601 055a 1B78     		ldrb	r3, [r3]
 1602 055c C3F30003 		ubfx	r3, r3, #0, #1
 1603 0560 D9B2     		uxtb	r1, r3
 1604 0562 7A68     		ldr	r2, [r7, #4]
 1605 0564 1378     		ldrb	r3, [r2]
 1606 0566 61F30003 		bfi	r3, r1, #0, #1
 1607 056a 1370     		strb	r3, [r2]
 272:..\..\..\lvgl\version_6.1.2\lvgl\src\lv_core/lv_style.c ****         res->text.font        = start->text.font;
 1608              		.loc 2 272 0
 1609 056c FB68     		ldr	r3, [r7, #12]
 1610 056e 5A6B     		ldr	r2, [r3, #52]
 1611 0570 7B68     		ldr	r3, [r7, #4]
 1612 0572 5A63     		str	r2, [r3, #52]
 273:..\..\..\lvgl\version_6.1.2\lvgl\src\lv_core/lv_style.c ****         res->body.shadow.type = start->body.shadow.type;
 1613              		.loc 2 273 0
 1614 0574 FB68     		ldr	r3, [r7, #12]
 1615 0576 9A7F     		ldrb	r2, [r3, #30]	@ zero_extendqisi2
 1616 0578 7B68     		ldr	r3, [r7, #4]
 1617 057a 9A77     		strb	r2, [r3, #30]
 274:..\..\..\lvgl\version_6.1.2\lvgl\src\lv_core/lv_style.c ****         res->line.rounded     = start->line.rounded;
 1618              		.loc 2 274 0
 1619 057c FB68     		ldr	r3, [r7, #12]
 1620 057e 93F84F30 		ldrb	r3, [r3, #79]
 1621 0582 C3F30003 		ubfx	r3, r3, #0, #1
 1622 0586 D9B2     		uxtb	r1, r3
 1623 0588 7A68     		ldr	r2, [r7, #4]
 1624 058a 92F84F30 		ldrb	r3, [r2, #79]
 1625 058e 61F30003 		bfi	r3, r1, #0, #1
 1626 0592 82F84F30 		strb	r3, [r2, #79]
 275:..\..\..\lvgl\version_6.1.2\lvgl\src\lv_core/lv_style.c ****     } else {
 276:..\..\..\lvgl\version_6.1.2\lvgl\src\lv_core/lv_style.c ****         res->body.border.part = end->body.border.part;
 277:..\..\..\lvgl\version_6.1.2\lvgl\src\lv_core/lv_style.c ****         res->glass            = end->glass;
 278:..\..\..\lvgl\version_6.1.2\lvgl\src\lv_core/lv_style.c ****         res->text.font        = end->text.font;
 279:..\..\..\lvgl\version_6.1.2\lvgl\src\lv_core/lv_style.c ****         res->body.shadow.type = end->body.shadow.type;
 280:..\..\..\lvgl\version_6.1.2\lvgl\src\lv_core/lv_style.c ****         res->line.rounded     = end->line.rounded;
 281:..\..\..\lvgl\version_6.1.2\lvgl\src\lv_core/lv_style.c ****     }
 282:..\..\..\lvgl\version_6.1.2\lvgl\src\lv_core/lv_style.c **** }
 1627              		.loc 2 282 0
 1628 0596 22E0     		b	.L51
 1629              	.L49:
 276:..\..\..\lvgl\version_6.1.2\lvgl\src\lv_core/lv_style.c ****         res->glass            = end->glass;
 1630              		.loc 2 276 0
 1631 0598 BB68     		ldr	r3, [r7, #8]
ARM GAS  C:\Users\tmj32\AppData\Local\Temp\ccSL9kiF.s 			page 43


 1632 059a 9A7D     		ldrb	r2, [r3, #22]	@ zero_extendqisi2
 1633 059c 7B68     		ldr	r3, [r7, #4]
 1634 059e 9A75     		strb	r2, [r3, #22]
 277:..\..\..\lvgl\version_6.1.2\lvgl\src\lv_core/lv_style.c ****         res->text.font        = end->text.font;
 1635              		.loc 2 277 0
 1636 05a0 BB68     		ldr	r3, [r7, #8]
 1637 05a2 1B78     		ldrb	r3, [r3]
 1638 05a4 C3F30003 		ubfx	r3, r3, #0, #1
 1639 05a8 D9B2     		uxtb	r1, r3
 1640 05aa 7A68     		ldr	r2, [r7, #4]
 1641 05ac 1378     		ldrb	r3, [r2]
 1642 05ae 61F30003 		bfi	r3, r1, #0, #1
 1643 05b2 1370     		strb	r3, [r2]
 278:..\..\..\lvgl\version_6.1.2\lvgl\src\lv_core/lv_style.c ****         res->body.shadow.type = end->body.shadow.type;
 1644              		.loc 2 278 0
 1645 05b4 BB68     		ldr	r3, [r7, #8]
 1646 05b6 5A6B     		ldr	r2, [r3, #52]
 1647 05b8 7B68     		ldr	r3, [r7, #4]
 1648 05ba 5A63     		str	r2, [r3, #52]
 279:..\..\..\lvgl\version_6.1.2\lvgl\src\lv_core/lv_style.c ****         res->line.rounded     = end->line.rounded;
 1649              		.loc 2 279 0
 1650 05bc BB68     		ldr	r3, [r7, #8]
 1651 05be 9A7F     		ldrb	r2, [r3, #30]	@ zero_extendqisi2
 1652 05c0 7B68     		ldr	r3, [r7, #4]
 1653 05c2 9A77     		strb	r2, [r3, #30]
 280:..\..\..\lvgl\version_6.1.2\lvgl\src\lv_core/lv_style.c ****     }
 1654              		.loc 2 280 0
 1655 05c4 BB68     		ldr	r3, [r7, #8]
 1656 05c6 93F84F30 		ldrb	r3, [r3, #79]
 1657 05ca C3F30003 		ubfx	r3, r3, #0, #1
 1658 05ce D9B2     		uxtb	r1, r3
 1659 05d0 7A68     		ldr	r2, [r7, #4]
 1660 05d2 92F84F30 		ldrb	r3, [r2, #79]
 1661 05d6 61F30003 		bfi	r3, r1, #0, #1
 1662 05da 82F84F30 		strb	r3, [r2, #79]
 1663              	.L51:
 1664              		.loc 2 282 0
 1665 05de 00BF     		nop
 1666 05e0 1C37     		adds	r7, r7, #28
 1667              		.cfi_def_cfa_offset 12
 1668 05e2 BD46     		mov	sp, r7
 1669              		.cfi_def_cfa_register 13
 1670              		@ sp needed
 1671 05e4 90BD     		pop	{r4, r7, pc}
 1672              		.cfi_endproc
 1673              	.LFE33:
 1674              		.size	lv_style_mix, .-lv_style_mix
 1675 05e6 00BF     		.section	.text.lv_style_anim_init,"ax",%progbits
 1676              		.align	2
 1677              		.global	lv_style_anim_init
 1678              		.thumb
 1679              		.thumb_func
 1680              		.type	lv_style_anim_init, %function
 1681              	lv_style_anim_init:
 1682              	.LFB34:
 283:..\..\..\lvgl\version_6.1.2\lvgl\src\lv_core/lv_style.c **** 
 284:..\..\..\lvgl\version_6.1.2\lvgl\src\lv_core/lv_style.c **** #if LV_USE_ANIMATION
ARM GAS  C:\Users\tmj32\AppData\Local\Temp\ccSL9kiF.s 			page 44


 285:..\..\..\lvgl\version_6.1.2\lvgl\src\lv_core/lv_style.c **** 
 286:..\..\..\lvgl\version_6.1.2\lvgl\src\lv_core/lv_style.c **** void lv_style_anim_init(lv_anim_t * a)
 287:..\..\..\lvgl\version_6.1.2\lvgl\src\lv_core/lv_style.c **** {
 1683              		.loc 2 287 0
 1684              		.cfi_startproc
 1685              		@ args = 0, pretend = 0, frame = 16
 1686              		@ frame_needed = 1, uses_anonymous_args = 0
 1687 0000 80B5     		push	{r7, lr}
 1688              		.cfi_def_cfa_offset 8
 1689              		.cfi_offset 7, -8
 1690              		.cfi_offset 14, -4
 1691 0002 84B0     		sub	sp, sp, #16
 1692              		.cfi_def_cfa_offset 24
 1693 0004 00AF     		add	r7, sp, #0
 1694              		.cfi_def_cfa_register 7
 1695 0006 7860     		str	r0, [r7, #4]
 288:..\..\..\lvgl\version_6.1.2\lvgl\src\lv_core/lv_style.c ****     lv_anim_init(a);
 1696              		.loc 2 288 0
 1697 0008 7868     		ldr	r0, [r7, #4]
 1698 000a FFF7FEFF 		bl	lv_anim_init
 289:..\..\..\lvgl\version_6.1.2\lvgl\src\lv_core/lv_style.c ****     a->start    = 0;
 1699              		.loc 2 289 0
 1700 000e 7B68     		ldr	r3, [r7, #4]
 1701 0010 0022     		movs	r2, #0
 1702 0012 1A61     		str	r2, [r3, #16]
 290:..\..\..\lvgl\version_6.1.2\lvgl\src\lv_core/lv_style.c ****     a->end      = STYLE_MIX_MAX;
 1703              		.loc 2 290 0
 1704 0014 7B68     		ldr	r3, [r7, #4]
 1705 0016 4FF48072 		mov	r2, #256
 1706 001a 5A61     		str	r2, [r3, #20]
 291:..\..\..\lvgl\version_6.1.2\lvgl\src\lv_core/lv_style.c ****     a->exec_cb  = (lv_anim_exec_xcb_t)style_animator;
 1707              		.loc 2 291 0
 1708 001c 7B68     		ldr	r3, [r7, #4]
 1709 001e 154A     		ldr	r2, .L56
 1710 0020 5A60     		str	r2, [r3, #4]
 292:..\..\..\lvgl\version_6.1.2\lvgl\src\lv_core/lv_style.c ****     a->path_cb  = lv_anim_path_linear;
 1711              		.loc 2 292 0
 1712 0022 7B68     		ldr	r3, [r7, #4]
 1713 0024 144A     		ldr	r2, .L56+4
 1714 0026 9A60     		str	r2, [r3, #8]
 293:..\..\..\lvgl\version_6.1.2\lvgl\src\lv_core/lv_style.c ****     a->ready_cb = style_animation_common_end_cb;
 1715              		.loc 2 293 0
 1716 0028 7B68     		ldr	r3, [r7, #4]
 1717 002a 144A     		ldr	r2, .L56+8
 1718 002c DA60     		str	r2, [r3, #12]
 294:..\..\..\lvgl\version_6.1.2\lvgl\src\lv_core/lv_style.c **** 
 295:..\..\..\lvgl\version_6.1.2\lvgl\src\lv_core/lv_style.c ****     lv_style_anim_dsc_t * dsc;
 296:..\..\..\lvgl\version_6.1.2\lvgl\src\lv_core/lv_style.c ****     dsc = lv_mem_alloc(sizeof(lv_style_anim_dsc_t));
 1719              		.loc 2 296 0
 1720 002e A820     		movs	r0, #168
 1721 0030 FFF7FEFF 		bl	lv_mem_alloc
 1722 0034 F860     		str	r0, [r7, #12]
 297:..\..\..\lvgl\version_6.1.2\lvgl\src\lv_core/lv_style.c ****     LV_ASSERT_MEM(dsc);
 298:..\..\..\lvgl\version_6.1.2\lvgl\src\lv_core/lv_style.c ****     if(dsc == NULL) return;
 1723              		.loc 2 298 0
 1724 0036 FB68     		ldr	r3, [r7, #12]
 1725 0038 002B     		cmp	r3, #0
ARM GAS  C:\Users\tmj32\AppData\Local\Temp\ccSL9kiF.s 			page 45


 1726 003a 16D0     		beq	.L55
 299:..\..\..\lvgl\version_6.1.2\lvgl\src\lv_core/lv_style.c ****     dsc->ready_cb   = NULL;
 1727              		.loc 2 299 0
 1728 003c FB68     		ldr	r3, [r7, #12]
 1729 003e 0022     		movs	r2, #0
 1730 0040 C3F8A420 		str	r2, [r3, #164]
 300:..\..\..\lvgl\version_6.1.2\lvgl\src\lv_core/lv_style.c ****     dsc->style_anim = NULL;
 1731              		.loc 2 300 0
 1732 0044 FB68     		ldr	r3, [r7, #12]
 1733 0046 0022     		movs	r2, #0
 1734 0048 C3F8A020 		str	r2, [r3, #160]
 301:..\..\..\lvgl\version_6.1.2\lvgl\src\lv_core/lv_style.c ****     lv_style_copy(&dsc->style_start, &lv_style_plain);
 1735              		.loc 2 301 0
 1736 004c FB68     		ldr	r3, [r7, #12]
 1737 004e 0C49     		ldr	r1, .L56+12
 1738 0050 1846     		mov	r0, r3
 1739 0052 FFF7FEFF 		bl	lv_style_copy
 302:..\..\..\lvgl\version_6.1.2\lvgl\src\lv_core/lv_style.c ****     lv_style_copy(&dsc->style_end, &lv_style_plain);
 1740              		.loc 2 302 0
 1741 0056 FB68     		ldr	r3, [r7, #12]
 1742 0058 5033     		adds	r3, r3, #80
 1743 005a 0949     		ldr	r1, .L56+12
 1744 005c 1846     		mov	r0, r3
 1745 005e FFF7FEFF 		bl	lv_style_copy
 303:..\..\..\lvgl\version_6.1.2\lvgl\src\lv_core/lv_style.c **** 
 304:..\..\..\lvgl\version_6.1.2\lvgl\src\lv_core/lv_style.c ****     a->var = (void *)dsc;
 1746              		.loc 2 304 0
 1747 0062 7B68     		ldr	r3, [r7, #4]
 1748 0064 FA68     		ldr	r2, [r7, #12]
 1749 0066 1A60     		str	r2, [r3]
 1750 0068 00E0     		b	.L52
 1751              	.L55:
 298:..\..\..\lvgl\version_6.1.2\lvgl\src\lv_core/lv_style.c ****     dsc->ready_cb   = NULL;
 1752              		.loc 2 298 0
 1753 006a 00BF     		nop
 1754              	.L52:
 305:..\..\..\lvgl\version_6.1.2\lvgl\src\lv_core/lv_style.c **** }
 1755              		.loc 2 305 0
 1756 006c 1037     		adds	r7, r7, #16
 1757              		.cfi_def_cfa_offset 8
 1758 006e BD46     		mov	sp, r7
 1759              		.cfi_def_cfa_register 13
 1760              		@ sp needed
 1761 0070 80BD     		pop	{r7, pc}
 1762              	.L57:
 1763 0072 00BF     		.align	2
 1764              	.L56:
 1765 0074 00000000 		.word	style_animator
 1766 0078 00000000 		.word	lv_anim_path_linear
 1767 007c 00000000 		.word	style_animation_common_end_cb
 1768 0080 00000000 		.word	lv_style_plain
 1769              		.cfi_endproc
 1770              	.LFE34:
 1771              		.size	lv_style_anim_init, .-lv_style_anim_init
 1772              		.section	.text.lv_style_anim_set_styles,"ax",%progbits
 1773              		.align	2
 1774              		.global	lv_style_anim_set_styles
ARM GAS  C:\Users\tmj32\AppData\Local\Temp\ccSL9kiF.s 			page 46


 1775              		.thumb
 1776              		.thumb_func
 1777              		.type	lv_style_anim_set_styles, %function
 1778              	lv_style_anim_set_styles:
 1779              	.LFB35:
 306:..\..\..\lvgl\version_6.1.2\lvgl\src\lv_core/lv_style.c **** 
 307:..\..\..\lvgl\version_6.1.2\lvgl\src\lv_core/lv_style.c **** void lv_style_anim_set_styles(lv_anim_t * a, lv_style_t * to_anim, const lv_style_t * start, const 
 308:..\..\..\lvgl\version_6.1.2\lvgl\src\lv_core/lv_style.c **** {
 1780              		.loc 2 308 0
 1781              		.cfi_startproc
 1782              		@ args = 0, pretend = 0, frame = 24
 1783              		@ frame_needed = 1, uses_anonymous_args = 0
 1784 0000 80B5     		push	{r7, lr}
 1785              		.cfi_def_cfa_offset 8
 1786              		.cfi_offset 7, -8
 1787              		.cfi_offset 14, -4
 1788 0002 86B0     		sub	sp, sp, #24
 1789              		.cfi_def_cfa_offset 32
 1790 0004 00AF     		add	r7, sp, #0
 1791              		.cfi_def_cfa_register 7
 1792 0006 F860     		str	r0, [r7, #12]
 1793 0008 B960     		str	r1, [r7, #8]
 1794 000a 7A60     		str	r2, [r7, #4]
 1795 000c 3B60     		str	r3, [r7]
 309:..\..\..\lvgl\version_6.1.2\lvgl\src\lv_core/lv_style.c **** 
 310:..\..\..\lvgl\version_6.1.2\lvgl\src\lv_core/lv_style.c ****     lv_style_anim_dsc_t * dsc = a->var;
 1796              		.loc 2 310 0
 1797 000e FB68     		ldr	r3, [r7, #12]
 1798 0010 1B68     		ldr	r3, [r3]
 1799 0012 7B61     		str	r3, [r7, #20]
 311:..\..\..\lvgl\version_6.1.2\lvgl\src\lv_core/lv_style.c ****     dsc->style_anim           = to_anim;
 1800              		.loc 2 311 0
 1801 0014 7B69     		ldr	r3, [r7, #20]
 1802 0016 BA68     		ldr	r2, [r7, #8]
 1803 0018 C3F8A020 		str	r2, [r3, #160]
 312:..\..\..\lvgl\version_6.1.2\lvgl\src\lv_core/lv_style.c ****     memcpy(&dsc->style_start, start, sizeof(lv_style_t));
 1804              		.loc 2 312 0
 1805 001c 7B69     		ldr	r3, [r7, #20]
 1806 001e 5022     		movs	r2, #80
 1807 0020 7968     		ldr	r1, [r7, #4]
 1808 0022 1846     		mov	r0, r3
 1809 0024 FFF7FEFF 		bl	memcpy
 313:..\..\..\lvgl\version_6.1.2\lvgl\src\lv_core/lv_style.c ****     memcpy(&dsc->style_end, end, sizeof(lv_style_t));
 1810              		.loc 2 313 0
 1811 0028 7B69     		ldr	r3, [r7, #20]
 1812 002a 5033     		adds	r3, r3, #80
 1813 002c 5022     		movs	r2, #80
 1814 002e 3968     		ldr	r1, [r7]
 1815 0030 1846     		mov	r0, r3
 1816 0032 FFF7FEFF 		bl	memcpy
 314:..\..\..\lvgl\version_6.1.2\lvgl\src\lv_core/lv_style.c ****     memcpy(dsc->style_anim, start, sizeof(lv_style_t));
 1817              		.loc 2 314 0
 1818 0036 7B69     		ldr	r3, [r7, #20]
 1819 0038 D3F8A030 		ldr	r3, [r3, #160]
 1820 003c 5022     		movs	r2, #80
 1821 003e 7968     		ldr	r1, [r7, #4]
 1822 0040 1846     		mov	r0, r3
ARM GAS  C:\Users\tmj32\AppData\Local\Temp\ccSL9kiF.s 			page 47


 1823 0042 FFF7FEFF 		bl	memcpy
 315:..\..\..\lvgl\version_6.1.2\lvgl\src\lv_core/lv_style.c **** }
 1824              		.loc 2 315 0
 1825 0046 00BF     		nop
 1826 0048 1837     		adds	r7, r7, #24
 1827              		.cfi_def_cfa_offset 8
 1828 004a BD46     		mov	sp, r7
 1829              		.cfi_def_cfa_register 13
 1830              		@ sp needed
 1831 004c 80BD     		pop	{r7, pc}
 1832              		.cfi_endproc
 1833              	.LFE35:
 1834              		.size	lv_style_anim_set_styles, .-lv_style_anim_set_styles
 1835 004e 00BF     		.section	.text.style_animator,"ax",%progbits
 1836              		.align	2
 1837              		.thumb
 1838              		.thumb_func
 1839              		.type	style_animator, %function
 1840              	style_animator:
 1841              	.LFB36:
 316:..\..\..\lvgl\version_6.1.2\lvgl\src\lv_core/lv_style.c **** #endif
 317:..\..\..\lvgl\version_6.1.2\lvgl\src\lv_core/lv_style.c **** /**********************
 318:..\..\..\lvgl\version_6.1.2\lvgl\src\lv_core/lv_style.c ****  *   STATIC FUNCTIONS
 319:..\..\..\lvgl\version_6.1.2\lvgl\src\lv_core/lv_style.c ****  **********************/
 320:..\..\..\lvgl\version_6.1.2\lvgl\src\lv_core/lv_style.c **** #if LV_USE_ANIMATION
 321:..\..\..\lvgl\version_6.1.2\lvgl\src\lv_core/lv_style.c **** /**
 322:..\..\..\lvgl\version_6.1.2\lvgl\src\lv_core/lv_style.c ****  * Used by the style animations to set the values of a style according to start and end style.
 323:..\..\..\lvgl\version_6.1.2\lvgl\src\lv_core/lv_style.c ****  * @param dsc the 'animated variable' set by lv_style_anim_create()
 324:..\..\..\lvgl\version_6.1.2\lvgl\src\lv_core/lv_style.c ****  * @param val the current state of the animation between 0 and LV_ANIM_RESOLUTION
 325:..\..\..\lvgl\version_6.1.2\lvgl\src\lv_core/lv_style.c ****  */
 326:..\..\..\lvgl\version_6.1.2\lvgl\src\lv_core/lv_style.c **** static void style_animator(lv_style_anim_dsc_t * dsc, lv_anim_value_t val)
 327:..\..\..\lvgl\version_6.1.2\lvgl\src\lv_core/lv_style.c **** {
 1842              		.loc 2 327 0
 1843              		.cfi_startproc
 1844              		@ args = 0, pretend = 0, frame = 24
 1845              		@ frame_needed = 1, uses_anonymous_args = 0
 1846 0000 80B5     		push	{r7, lr}
 1847              		.cfi_def_cfa_offset 8
 1848              		.cfi_offset 7, -8
 1849              		.cfi_offset 14, -4
 1850 0002 86B0     		sub	sp, sp, #24
 1851              		.cfi_def_cfa_offset 32
 1852 0004 00AF     		add	r7, sp, #0
 1853              		.cfi_def_cfa_register 7
 1854 0006 7860     		str	r0, [r7, #4]
 1855 0008 0B46     		mov	r3, r1
 1856 000a 7B80     		strh	r3, [r7, #2]	@ movhi
 328:..\..\..\lvgl\version_6.1.2\lvgl\src\lv_core/lv_style.c ****     const lv_style_t * start = &dsc->style_start;
 1857              		.loc 2 328 0
 1858 000c 7B68     		ldr	r3, [r7, #4]
 1859 000e 7B61     		str	r3, [r7, #20]
 329:..\..\..\lvgl\version_6.1.2\lvgl\src\lv_core/lv_style.c ****     const lv_style_t * end   = &dsc->style_end;
 1860              		.loc 2 329 0
 1861 0010 7B68     		ldr	r3, [r7, #4]
 1862 0012 5033     		adds	r3, r3, #80
 1863 0014 3B61     		str	r3, [r7, #16]
 330:..\..\..\lvgl\version_6.1.2\lvgl\src\lv_core/lv_style.c ****     lv_style_t * act         = dsc->style_anim;
ARM GAS  C:\Users\tmj32\AppData\Local\Temp\ccSL9kiF.s 			page 48


 1864              		.loc 2 330 0
 1865 0016 7B68     		ldr	r3, [r7, #4]
 1866 0018 D3F8A030 		ldr	r3, [r3, #160]
 1867 001c FB60     		str	r3, [r7, #12]
 331:..\..\..\lvgl\version_6.1.2\lvgl\src\lv_core/lv_style.c **** 
 332:..\..\..\lvgl\version_6.1.2\lvgl\src\lv_core/lv_style.c ****     lv_style_mix(start, end, act, val);
 1868              		.loc 2 332 0
 1869 001e 7B88     		ldrh	r3, [r7, #2]
 1870 0020 FA68     		ldr	r2, [r7, #12]
 1871 0022 3969     		ldr	r1, [r7, #16]
 1872 0024 7869     		ldr	r0, [r7, #20]
 1873 0026 FFF7FEFF 		bl	lv_style_mix
 333:..\..\..\lvgl\version_6.1.2\lvgl\src\lv_core/lv_style.c **** 
 334:..\..\..\lvgl\version_6.1.2\lvgl\src\lv_core/lv_style.c ****     lv_obj_report_style_mod(dsc->style_anim);
 1874              		.loc 2 334 0
 1875 002a 7B68     		ldr	r3, [r7, #4]
 1876 002c D3F8A030 		ldr	r3, [r3, #160]
 1877 0030 1846     		mov	r0, r3
 1878 0032 FFF7FEFF 		bl	lv_obj_report_style_mod
 335:..\..\..\lvgl\version_6.1.2\lvgl\src\lv_core/lv_style.c **** }
 1879              		.loc 2 335 0
 1880 0036 00BF     		nop
 1881 0038 1837     		adds	r7, r7, #24
 1882              		.cfi_def_cfa_offset 8
 1883 003a BD46     		mov	sp, r7
 1884              		.cfi_def_cfa_register 13
 1885              		@ sp needed
 1886 003c 80BD     		pop	{r7, pc}
 1887              		.cfi_endproc
 1888              	.LFE36:
 1889              		.size	style_animator, .-style_animator
 1890 003e 00BF     		.section	.text.style_animation_common_end_cb,"ax",%progbits
 1891              		.align	2
 1892              		.thumb
 1893              		.thumb_func
 1894              		.type	style_animation_common_end_cb, %function
 1895              	style_animation_common_end_cb:
 1896              	.LFB37:
 336:..\..\..\lvgl\version_6.1.2\lvgl\src\lv_core/lv_style.c **** 
 337:..\..\..\lvgl\version_6.1.2\lvgl\src\lv_core/lv_style.c **** /**
 338:..\..\..\lvgl\version_6.1.2\lvgl\src\lv_core/lv_style.c ****  * Called when a style animation is ready
 339:..\..\..\lvgl\version_6.1.2\lvgl\src\lv_core/lv_style.c ****  * It called the user defined call back and free the allocated memories
 340:..\..\..\lvgl\version_6.1.2\lvgl\src\lv_core/lv_style.c ****  * @param a pointer to the animation
 341:..\..\..\lvgl\version_6.1.2\lvgl\src\lv_core/lv_style.c ****  */
 342:..\..\..\lvgl\version_6.1.2\lvgl\src\lv_core/lv_style.c **** static void style_animation_common_end_cb(lv_anim_t * a)
 343:..\..\..\lvgl\version_6.1.2\lvgl\src\lv_core/lv_style.c **** {
 1897              		.loc 2 343 0
 1898              		.cfi_startproc
 1899              		@ args = 0, pretend = 0, frame = 16
 1900              		@ frame_needed = 1, uses_anonymous_args = 0
 1901 0000 80B5     		push	{r7, lr}
 1902              		.cfi_def_cfa_offset 8
 1903              		.cfi_offset 7, -8
 1904              		.cfi_offset 14, -4
 1905 0002 84B0     		sub	sp, sp, #16
 1906              		.cfi_def_cfa_offset 24
 1907 0004 00AF     		add	r7, sp, #0
ARM GAS  C:\Users\tmj32\AppData\Local\Temp\ccSL9kiF.s 			page 49


 1908              		.cfi_def_cfa_register 7
 1909 0006 7860     		str	r0, [r7, #4]
 344:..\..\..\lvgl\version_6.1.2\lvgl\src\lv_core/lv_style.c **** 
 345:..\..\..\lvgl\version_6.1.2\lvgl\src\lv_core/lv_style.c ****     (void)a;                            /*Unused*/
 346:..\..\..\lvgl\version_6.1.2\lvgl\src\lv_core/lv_style.c ****     lv_style_anim_dsc_t * dsc = a->var; /*To avoid casting*/
 1910              		.loc 2 346 0
 1911 0008 7B68     		ldr	r3, [r7, #4]
 1912 000a 1B68     		ldr	r3, [r3]
 1913 000c FB60     		str	r3, [r7, #12]
 347:..\..\..\lvgl\version_6.1.2\lvgl\src\lv_core/lv_style.c **** 
 348:..\..\..\lvgl\version_6.1.2\lvgl\src\lv_core/lv_style.c ****     if(dsc->ready_cb) dsc->ready_cb(a);
 1914              		.loc 2 348 0
 1915 000e FB68     		ldr	r3, [r7, #12]
 1916 0010 D3F8A430 		ldr	r3, [r3, #164]
 1917 0014 002B     		cmp	r3, #0
 1918 0016 04D0     		beq	.L61
 1919              		.loc 2 348 0 is_stmt 0 discriminator 1
 1920 0018 FB68     		ldr	r3, [r7, #12]
 1921 001a D3F8A430 		ldr	r3, [r3, #164]
 1922 001e 7868     		ldr	r0, [r7, #4]
 1923 0020 9847     		blx	r3
 1924              	.L61:
 349:..\..\..\lvgl\version_6.1.2\lvgl\src\lv_core/lv_style.c **** 
 350:..\..\..\lvgl\version_6.1.2\lvgl\src\lv_core/lv_style.c ****     lv_mem_free(dsc);
 1925              		.loc 2 350 0 is_stmt 1
 1926 0022 F868     		ldr	r0, [r7, #12]
 1927 0024 FFF7FEFF 		bl	lv_mem_free
 351:..\..\..\lvgl\version_6.1.2\lvgl\src\lv_core/lv_style.c **** }
 1928              		.loc 2 351 0
 1929 0028 00BF     		nop
 1930 002a 1037     		adds	r7, r7, #16
 1931              		.cfi_def_cfa_offset 8
 1932 002c BD46     		mov	sp, r7
 1933              		.cfi_def_cfa_register 13
 1934              		@ sp needed
 1935 002e 80BD     		pop	{r7, pc}
 1936              		.cfi_endproc
 1937              	.LFE37:
 1938              		.size	style_animation_common_end_cb, .-style_animation_common_end_cb
 1939              		.text
 1940              	.Letext0:
 1941              		.file 3 "c:\\program files (x86)\\cypress\\psoc creator\\4.3\\psoc creator\\import\\gnu\\arm\\5.4.
 1942              		.file 4 "c:\\program files (x86)\\cypress\\psoc creator\\4.3\\psoc creator\\import\\gnu\\arm\\5.4.
 1943              		.file 5 "..\\..\\..\\lvgl\\version_6.1.2\\lvgl\\src\\lv_core\\../../../lv_conf.h"
 1944              		.file 6 "..\\..\\..\\lvgl\\version_6.1.2\\lvgl\\src\\lv_core\\../lv_font/lv_font.h"
 1945              		.file 7 "..\\..\\..\\lvgl\\version_6.1.2\\lvgl\\src\\lv_core\\../lv_misc/lv_anim.h"
 1946              		.file 8 "..\\..\\..\\lvgl\\version_6.1.2\\lvgl\\src\\lv_core\\lv_style.h"