ARM GAS  C:\Users\tmj32\AppData\Local\Temp\cci6nv1n.s 			page 1


   1              		.syntax unified
   2              		.cpu cortex-m4
   3              		.eabi_attribute 27, 1
   4              		.fpu fpv4-sp-d16
   5              		.eabi_attribute 20, 1
   6              		.eabi_attribute 21, 1
   7              		.eabi_attribute 23, 3
   8              		.eabi_attribute 24, 1
   9              		.eabi_attribute 25, 1
  10              		.eabi_attribute 26, 1
  11              		.eabi_attribute 30, 6
  12              		.eabi_attribute 34, 1
  13              		.eabi_attribute 18, 4
  14              		.thumb
  15              		.syntax unified
  16              		.file	"lv_spinbox.c"
  17              		.text
  18              	.Ltext0:
  19              		.cfi_sections	.debug_frame
  20              		.section	.text.lv_spinbox_set_style,"ax",%progbits
  21              		.align	2
  22              		.thumb
  23              		.thumb_func
  24              		.type	lv_spinbox_set_style, %function
  25              	lv_spinbox_set_style:
  26              	.LFB56:
  27              		.file 1 "..\\..\\..\\lvgl\\version_6.1.2\\lvgl\\src\\lv_objx\\lv_spinbox.h"
   1:..\..\..\lvgl\version_6.1.2\lvgl\src\lv_objx/lv_spinbox.h **** /**
   2:..\..\..\lvgl\version_6.1.2\lvgl\src\lv_objx/lv_spinbox.h ****  * @file lv_spinbox.h
   3:..\..\..\lvgl\version_6.1.2\lvgl\src\lv_objx/lv_spinbox.h ****  *
   4:..\..\..\lvgl\version_6.1.2\lvgl\src\lv_objx/lv_spinbox.h ****  */
   5:..\..\..\lvgl\version_6.1.2\lvgl\src\lv_objx/lv_spinbox.h **** 
   6:..\..\..\lvgl\version_6.1.2\lvgl\src\lv_objx/lv_spinbox.h **** #ifndef LV_SPINBOX_H
   7:..\..\..\lvgl\version_6.1.2\lvgl\src\lv_objx/lv_spinbox.h **** #define LV_SPINBOX_H
   8:..\..\..\lvgl\version_6.1.2\lvgl\src\lv_objx/lv_spinbox.h **** 
   9:..\..\..\lvgl\version_6.1.2\lvgl\src\lv_objx/lv_spinbox.h **** #ifdef __cplusplus
  10:..\..\..\lvgl\version_6.1.2\lvgl\src\lv_objx/lv_spinbox.h **** extern "C" {
  11:..\..\..\lvgl\version_6.1.2\lvgl\src\lv_objx/lv_spinbox.h **** #endif
  12:..\..\..\lvgl\version_6.1.2\lvgl\src\lv_objx/lv_spinbox.h **** 
  13:..\..\..\lvgl\version_6.1.2\lvgl\src\lv_objx/lv_spinbox.h **** /*********************
  14:..\..\..\lvgl\version_6.1.2\lvgl\src\lv_objx/lv_spinbox.h ****  *      INCLUDES
  15:..\..\..\lvgl\version_6.1.2\lvgl\src\lv_objx/lv_spinbox.h ****  *********************/
  16:..\..\..\lvgl\version_6.1.2\lvgl\src\lv_objx/lv_spinbox.h **** #ifdef LV_CONF_INCLUDE_SIMPLE
  17:..\..\..\lvgl\version_6.1.2\lvgl\src\lv_objx/lv_spinbox.h **** #include "lv_conf.h"
  18:..\..\..\lvgl\version_6.1.2\lvgl\src\lv_objx/lv_spinbox.h **** #else
  19:..\..\..\lvgl\version_6.1.2\lvgl\src\lv_objx/lv_spinbox.h **** #include "../../../lv_conf.h"
  20:..\..\..\lvgl\version_6.1.2\lvgl\src\lv_objx/lv_spinbox.h **** #endif
  21:..\..\..\lvgl\version_6.1.2\lvgl\src\lv_objx/lv_spinbox.h **** 
  22:..\..\..\lvgl\version_6.1.2\lvgl\src\lv_objx/lv_spinbox.h **** #if LV_USE_SPINBOX != 0
  23:..\..\..\lvgl\version_6.1.2\lvgl\src\lv_objx/lv_spinbox.h **** 
  24:..\..\..\lvgl\version_6.1.2\lvgl\src\lv_objx/lv_spinbox.h **** /*Testing of dependencies*/
  25:..\..\..\lvgl\version_6.1.2\lvgl\src\lv_objx/lv_spinbox.h **** #if LV_USE_TA == 0
  26:..\..\..\lvgl\version_6.1.2\lvgl\src\lv_objx/lv_spinbox.h **** #error "lv_spinbox: lv_ta is required. Enable it in lv_conf.h (LV_USE_TA  1) "
  27:..\..\..\lvgl\version_6.1.2\lvgl\src\lv_objx/lv_spinbox.h **** #endif
  28:..\..\..\lvgl\version_6.1.2\lvgl\src\lv_objx/lv_spinbox.h **** 
  29:..\..\..\lvgl\version_6.1.2\lvgl\src\lv_objx/lv_spinbox.h **** #include "../lv_core/lv_obj.h"
  30:..\..\..\lvgl\version_6.1.2\lvgl\src\lv_objx/lv_spinbox.h **** #include "../lv_objx/lv_ta.h"
ARM GAS  C:\Users\tmj32\AppData\Local\Temp\cci6nv1n.s 			page 2


  31:..\..\..\lvgl\version_6.1.2\lvgl\src\lv_objx/lv_spinbox.h **** 
  32:..\..\..\lvgl\version_6.1.2\lvgl\src\lv_objx/lv_spinbox.h **** /*********************
  33:..\..\..\lvgl\version_6.1.2\lvgl\src\lv_objx/lv_spinbox.h ****  *      DEFINES
  34:..\..\..\lvgl\version_6.1.2\lvgl\src\lv_objx/lv_spinbox.h ****  *********************/
  35:..\..\..\lvgl\version_6.1.2\lvgl\src\lv_objx/lv_spinbox.h **** #define LV_SPINBOX_MAX_DIGIT_COUNT 16
  36:..\..\..\lvgl\version_6.1.2\lvgl\src\lv_objx/lv_spinbox.h **** 
  37:..\..\..\lvgl\version_6.1.2\lvgl\src\lv_objx/lv_spinbox.h **** /**********************
  38:..\..\..\lvgl\version_6.1.2\lvgl\src\lv_objx/lv_spinbox.h ****  *      TYPEDEFS
  39:..\..\..\lvgl\version_6.1.2\lvgl\src\lv_objx/lv_spinbox.h ****  **********************/
  40:..\..\..\lvgl\version_6.1.2\lvgl\src\lv_objx/lv_spinbox.h **** 
  41:..\..\..\lvgl\version_6.1.2\lvgl\src\lv_objx/lv_spinbox.h **** /*Data of spinbox*/
  42:..\..\..\lvgl\version_6.1.2\lvgl\src\lv_objx/lv_spinbox.h **** typedef struct
  43:..\..\..\lvgl\version_6.1.2\lvgl\src\lv_objx/lv_spinbox.h **** {
  44:..\..\..\lvgl\version_6.1.2\lvgl\src\lv_objx/lv_spinbox.h ****     lv_ta_ext_t ta; /*Ext. of ancestor*/
  45:..\..\..\lvgl\version_6.1.2\lvgl\src\lv_objx/lv_spinbox.h ****     /*New data for this type */
  46:..\..\..\lvgl\version_6.1.2\lvgl\src\lv_objx/lv_spinbox.h ****     int32_t value;
  47:..\..\..\lvgl\version_6.1.2\lvgl\src\lv_objx/lv_spinbox.h ****     int32_t range_max;
  48:..\..\..\lvgl\version_6.1.2\lvgl\src\lv_objx/lv_spinbox.h ****     int32_t range_min;
  49:..\..\..\lvgl\version_6.1.2\lvgl\src\lv_objx/lv_spinbox.h ****     int32_t step;
  50:..\..\..\lvgl\version_6.1.2\lvgl\src\lv_objx/lv_spinbox.h ****     uint16_t digit_count : 4;
  51:..\..\..\lvgl\version_6.1.2\lvgl\src\lv_objx/lv_spinbox.h ****     uint16_t dec_point_pos : 4; /*if 0, there is no separator and the number is an integer*/
  52:..\..\..\lvgl\version_6.1.2\lvgl\src\lv_objx/lv_spinbox.h ****     uint16_t digit_padding_left : 4;
  53:..\..\..\lvgl\version_6.1.2\lvgl\src\lv_objx/lv_spinbox.h **** } lv_spinbox_ext_t;
  54:..\..\..\lvgl\version_6.1.2\lvgl\src\lv_objx/lv_spinbox.h **** 
  55:..\..\..\lvgl\version_6.1.2\lvgl\src\lv_objx/lv_spinbox.h **** /*Styles*/
  56:..\..\..\lvgl\version_6.1.2\lvgl\src\lv_objx/lv_spinbox.h **** enum {
  57:..\..\..\lvgl\version_6.1.2\lvgl\src\lv_objx/lv_spinbox.h ****     LV_SPINBOX_STYLE_BG,
  58:..\..\..\lvgl\version_6.1.2\lvgl\src\lv_objx/lv_spinbox.h ****     LV_SPINBOX_STYLE_SB,
  59:..\..\..\lvgl\version_6.1.2\lvgl\src\lv_objx/lv_spinbox.h ****     LV_SPINBOX_STYLE_CURSOR,
  60:..\..\..\lvgl\version_6.1.2\lvgl\src\lv_objx/lv_spinbox.h **** };
  61:..\..\..\lvgl\version_6.1.2\lvgl\src\lv_objx/lv_spinbox.h **** typedef uint8_t lv_spinbox_style_t;
  62:..\..\..\lvgl\version_6.1.2\lvgl\src\lv_objx/lv_spinbox.h **** 
  63:..\..\..\lvgl\version_6.1.2\lvgl\src\lv_objx/lv_spinbox.h **** /**********************
  64:..\..\..\lvgl\version_6.1.2\lvgl\src\lv_objx/lv_spinbox.h ****  * GLOBAL PROTOTYPES
  65:..\..\..\lvgl\version_6.1.2\lvgl\src\lv_objx/lv_spinbox.h ****  **********************/
  66:..\..\..\lvgl\version_6.1.2\lvgl\src\lv_objx/lv_spinbox.h **** 
  67:..\..\..\lvgl\version_6.1.2\lvgl\src\lv_objx/lv_spinbox.h **** /**
  68:..\..\..\lvgl\version_6.1.2\lvgl\src\lv_objx/lv_spinbox.h ****  * Create a spinbox objects
  69:..\..\..\lvgl\version_6.1.2\lvgl\src\lv_objx/lv_spinbox.h ****  * @param par pointer to an object, it will be the parent of the new spinbox
  70:..\..\..\lvgl\version_6.1.2\lvgl\src\lv_objx/lv_spinbox.h ****  * @param copy pointer to a spinbox object, if not NULL then the new object will be copied from it
  71:..\..\..\lvgl\version_6.1.2\lvgl\src\lv_objx/lv_spinbox.h ****  * @return pointer to the created spinbox
  72:..\..\..\lvgl\version_6.1.2\lvgl\src\lv_objx/lv_spinbox.h ****  */
  73:..\..\..\lvgl\version_6.1.2\lvgl\src\lv_objx/lv_spinbox.h **** lv_obj_t * lv_spinbox_create(lv_obj_t * par, const lv_obj_t * copy);
  74:..\..\..\lvgl\version_6.1.2\lvgl\src\lv_objx/lv_spinbox.h **** 
  75:..\..\..\lvgl\version_6.1.2\lvgl\src\lv_objx/lv_spinbox.h **** /*=====================
  76:..\..\..\lvgl\version_6.1.2\lvgl\src\lv_objx/lv_spinbox.h ****  * Setter functions
  77:..\..\..\lvgl\version_6.1.2\lvgl\src\lv_objx/lv_spinbox.h ****  *====================*/
  78:..\..\..\lvgl\version_6.1.2\lvgl\src\lv_objx/lv_spinbox.h **** 
  79:..\..\..\lvgl\version_6.1.2\lvgl\src\lv_objx/lv_spinbox.h **** /**
  80:..\..\..\lvgl\version_6.1.2\lvgl\src\lv_objx/lv_spinbox.h ****  * Set a style of a spinbox.
  81:..\..\..\lvgl\version_6.1.2\lvgl\src\lv_objx/lv_spinbox.h ****  * @param templ pointer to template object
  82:..\..\..\lvgl\version_6.1.2\lvgl\src\lv_objx/lv_spinbox.h ****  * @param type which style should be set
  83:..\..\..\lvgl\version_6.1.2\lvgl\src\lv_objx/lv_spinbox.h ****  * @param style pointer to a style
  84:..\..\..\lvgl\version_6.1.2\lvgl\src\lv_objx/lv_spinbox.h ****  */
  85:..\..\..\lvgl\version_6.1.2\lvgl\src\lv_objx/lv_spinbox.h **** static inline void lv_spinbox_set_style(lv_obj_t * spinbox, lv_spinbox_style_t type, lv_style_t * s
  86:..\..\..\lvgl\version_6.1.2\lvgl\src\lv_objx/lv_spinbox.h **** {
  28              		.loc 1 86 0
ARM GAS  C:\Users\tmj32\AppData\Local\Temp\cci6nv1n.s 			page 3


  29              		.cfi_startproc
  30              		@ args = 0, pretend = 0, frame = 16
  31              		@ frame_needed = 1, uses_anonymous_args = 0
  32 0000 80B5     		push	{r7, lr}
  33              		.cfi_def_cfa_offset 8
  34              		.cfi_offset 7, -8
  35              		.cfi_offset 14, -4
  36 0002 84B0     		sub	sp, sp, #16
  37              		.cfi_def_cfa_offset 24
  38 0004 00AF     		add	r7, sp, #0
  39              		.cfi_def_cfa_register 7
  40 0006 F860     		str	r0, [r7, #12]
  41 0008 0B46     		mov	r3, r1
  42 000a 7A60     		str	r2, [r7, #4]
  43 000c FB72     		strb	r3, [r7, #11]
  87:..\..\..\lvgl\version_6.1.2\lvgl\src\lv_objx/lv_spinbox.h ****     lv_ta_set_style(spinbox, type, style);
  44              		.loc 1 87 0
  45 000e FB7A     		ldrb	r3, [r7, #11]	@ zero_extendqisi2
  46 0010 7A68     		ldr	r2, [r7, #4]
  47 0012 1946     		mov	r1, r3
  48 0014 F868     		ldr	r0, [r7, #12]
  49 0016 FFF7FEFF 		bl	lv_ta_set_style
  88:..\..\..\lvgl\version_6.1.2\lvgl\src\lv_objx/lv_spinbox.h **** }
  50              		.loc 1 88 0
  51 001a 00BF     		nop
  52 001c 1037     		adds	r7, r7, #16
  53              		.cfi_def_cfa_offset 8
  54 001e BD46     		mov	sp, r7
  55              		.cfi_def_cfa_register 13
  56              		@ sp needed
  57 0020 80BD     		pop	{r7, pc}
  58              		.cfi_endproc
  59              	.LFE56:
  60              		.size	lv_spinbox_set_style, .-lv_spinbox_set_style
  61 0022 00BF     		.bss
  62              		.align	2
  63              	ancestor_signal:
  64 0000 00000000 		.space	4
  65              		.align	2
  66              	ancestor_design:
  67 0004 00000000 		.space	4
  68              		.section	.text.lv_spinbox_create,"ax",%progbits
  69              		.align	2
  70              		.global	lv_spinbox_create
  71              		.thumb
  72              		.thumb_func
  73              		.type	lv_spinbox_create, %function
  74              	lv_spinbox_create:
  75              	.LFB58:
  76              		.file 2 "..\\..\\..\\lvgl\\version_6.1.2\\lvgl\\src\\lv_objx\\lv_spinbox.c"
   1:..\..\..\lvgl\version_6.1.2\lvgl\src\lv_objx/lv_spinbox.c **** /**
   2:..\..\..\lvgl\version_6.1.2\lvgl\src\lv_objx/lv_spinbox.c ****  * @file lv_spinbox.c
   3:..\..\..\lvgl\version_6.1.2\lvgl\src\lv_objx/lv_spinbox.c ****  *
   4:..\..\..\lvgl\version_6.1.2\lvgl\src\lv_objx/lv_spinbox.c ****  */
   5:..\..\..\lvgl\version_6.1.2\lvgl\src\lv_objx/lv_spinbox.c **** 
   6:..\..\..\lvgl\version_6.1.2\lvgl\src\lv_objx/lv_spinbox.c **** /*********************
   7:..\..\..\lvgl\version_6.1.2\lvgl\src\lv_objx/lv_spinbox.c ****  *      INCLUDES
ARM GAS  C:\Users\tmj32\AppData\Local\Temp\cci6nv1n.s 			page 4


   8:..\..\..\lvgl\version_6.1.2\lvgl\src\lv_objx/lv_spinbox.c ****  *********************/
   9:..\..\..\lvgl\version_6.1.2\lvgl\src\lv_objx/lv_spinbox.c **** #include "lv_spinbox.h"
  10:..\..\..\lvgl\version_6.1.2\lvgl\src\lv_objx/lv_spinbox.c **** 
  11:..\..\..\lvgl\version_6.1.2\lvgl\src\lv_objx/lv_spinbox.c **** #if LV_USE_SPINBOX != 0
  12:..\..\..\lvgl\version_6.1.2\lvgl\src\lv_objx/lv_spinbox.c **** #include "../lv_core/lv_debug.h"
  13:..\..\..\lvgl\version_6.1.2\lvgl\src\lv_objx/lv_spinbox.c **** #include "../lv_themes/lv_theme.h"
  14:..\..\..\lvgl\version_6.1.2\lvgl\src\lv_objx/lv_spinbox.c **** #include "../lv_misc/lv_math.h"
  15:..\..\..\lvgl\version_6.1.2\lvgl\src\lv_objx/lv_spinbox.c **** #include "../lv_misc/lv_utils.h"
  16:..\..\..\lvgl\version_6.1.2\lvgl\src\lv_objx/lv_spinbox.c **** 
  17:..\..\..\lvgl\version_6.1.2\lvgl\src\lv_objx/lv_spinbox.c **** /*********************
  18:..\..\..\lvgl\version_6.1.2\lvgl\src\lv_objx/lv_spinbox.c ****  *      DEFINES
  19:..\..\..\lvgl\version_6.1.2\lvgl\src\lv_objx/lv_spinbox.c ****  *********************/
  20:..\..\..\lvgl\version_6.1.2\lvgl\src\lv_objx/lv_spinbox.c **** #define LV_OBJX_NAME "lv_spinbox"
  21:..\..\..\lvgl\version_6.1.2\lvgl\src\lv_objx/lv_spinbox.c **** 
  22:..\..\..\lvgl\version_6.1.2\lvgl\src\lv_objx/lv_spinbox.c **** /**********************
  23:..\..\..\lvgl\version_6.1.2\lvgl\src\lv_objx/lv_spinbox.c ****  *      TYPEDEFS
  24:..\..\..\lvgl\version_6.1.2\lvgl\src\lv_objx/lv_spinbox.c ****  **********************/
  25:..\..\..\lvgl\version_6.1.2\lvgl\src\lv_objx/lv_spinbox.c **** 
  26:..\..\..\lvgl\version_6.1.2\lvgl\src\lv_objx/lv_spinbox.c **** /**********************
  27:..\..\..\lvgl\version_6.1.2\lvgl\src\lv_objx/lv_spinbox.c ****  *  STATIC PROTOTYPES
  28:..\..\..\lvgl\version_6.1.2\lvgl\src\lv_objx/lv_spinbox.c ****  **********************/
  29:..\..\..\lvgl\version_6.1.2\lvgl\src\lv_objx/lv_spinbox.c **** static lv_res_t lv_spinbox_signal(lv_obj_t * spinbox, lv_signal_t sign, void * param);
  30:..\..\..\lvgl\version_6.1.2\lvgl\src\lv_objx/lv_spinbox.c **** static void lv_spinbox_updatevalue(lv_obj_t * spinbox);
  31:..\..\..\lvgl\version_6.1.2\lvgl\src\lv_objx/lv_spinbox.c **** 
  32:..\..\..\lvgl\version_6.1.2\lvgl\src\lv_objx/lv_spinbox.c **** /**********************
  33:..\..\..\lvgl\version_6.1.2\lvgl\src\lv_objx/lv_spinbox.c ****  *  STATIC VARIABLES
  34:..\..\..\lvgl\version_6.1.2\lvgl\src\lv_objx/lv_spinbox.c ****  **********************/
  35:..\..\..\lvgl\version_6.1.2\lvgl\src\lv_objx/lv_spinbox.c **** static lv_signal_cb_t ancestor_signal;
  36:..\..\..\lvgl\version_6.1.2\lvgl\src\lv_objx/lv_spinbox.c **** static lv_design_cb_t ancestor_design;
  37:..\..\..\lvgl\version_6.1.2\lvgl\src\lv_objx/lv_spinbox.c **** 
  38:..\..\..\lvgl\version_6.1.2\lvgl\src\lv_objx/lv_spinbox.c **** /**********************
  39:..\..\..\lvgl\version_6.1.2\lvgl\src\lv_objx/lv_spinbox.c ****  *      MACROS
  40:..\..\..\lvgl\version_6.1.2\lvgl\src\lv_objx/lv_spinbox.c ****  **********************/
  41:..\..\..\lvgl\version_6.1.2\lvgl\src\lv_objx/lv_spinbox.c **** 
  42:..\..\..\lvgl\version_6.1.2\lvgl\src\lv_objx/lv_spinbox.c **** /**********************
  43:..\..\..\lvgl\version_6.1.2\lvgl\src\lv_objx/lv_spinbox.c ****  *   GLOBAL FUNCTIONS
  44:..\..\..\lvgl\version_6.1.2\lvgl\src\lv_objx/lv_spinbox.c ****  **********************/
  45:..\..\..\lvgl\version_6.1.2\lvgl\src\lv_objx/lv_spinbox.c **** 
  46:..\..\..\lvgl\version_6.1.2\lvgl\src\lv_objx/lv_spinbox.c **** /**
  47:..\..\..\lvgl\version_6.1.2\lvgl\src\lv_objx/lv_spinbox.c ****  * Create a spinbox object
  48:..\..\..\lvgl\version_6.1.2\lvgl\src\lv_objx/lv_spinbox.c ****  * @param par pointer to an object, it will be the parent of the new spinbox
  49:..\..\..\lvgl\version_6.1.2\lvgl\src\lv_objx/lv_spinbox.c ****  * @param copy pointer to a spinbox object, if not NULL then the new object will be copied from it
  50:..\..\..\lvgl\version_6.1.2\lvgl\src\lv_objx/lv_spinbox.c ****  * @return pointer to the created spinbox
  51:..\..\..\lvgl\version_6.1.2\lvgl\src\lv_objx/lv_spinbox.c ****  */
  52:..\..\..\lvgl\version_6.1.2\lvgl\src\lv_objx/lv_spinbox.c **** lv_obj_t * lv_spinbox_create(lv_obj_t * par, const lv_obj_t * copy)
  53:..\..\..\lvgl\version_6.1.2\lvgl\src\lv_objx/lv_spinbox.c **** {
  77              		.loc 2 53 0
  78              		.cfi_startproc
  79              		@ args = 0, pretend = 0, frame = 24
  80              		@ frame_needed = 1, uses_anonymous_args = 0
  81 0000 80B5     		push	{r7, lr}
  82              		.cfi_def_cfa_offset 8
  83              		.cfi_offset 7, -8
  84              		.cfi_offset 14, -4
  85 0002 86B0     		sub	sp, sp, #24
  86              		.cfi_def_cfa_offset 32
  87 0004 00AF     		add	r7, sp, #0
ARM GAS  C:\Users\tmj32\AppData\Local\Temp\cci6nv1n.s 			page 5


  88              		.cfi_def_cfa_register 7
  89 0006 7860     		str	r0, [r7, #4]
  90 0008 3960     		str	r1, [r7]
  54:..\..\..\lvgl\version_6.1.2\lvgl\src\lv_objx/lv_spinbox.c ****     LV_LOG_TRACE("spinbox create started");
  55:..\..\..\lvgl\version_6.1.2\lvgl\src\lv_objx/lv_spinbox.c **** 
  56:..\..\..\lvgl\version_6.1.2\lvgl\src\lv_objx/lv_spinbox.c ****     /*Create the ancestor of spinbox*/
  57:..\..\..\lvgl\version_6.1.2\lvgl\src\lv_objx/lv_spinbox.c ****     lv_obj_t * new_spinbox = lv_ta_create(par, copy);
  91              		.loc 2 57 0
  92 000a 3968     		ldr	r1, [r7]
  93 000c 7868     		ldr	r0, [r7, #4]
  94 000e FFF7FEFF 		bl	lv_ta_create
  95 0012 7861     		str	r0, [r7, #20]
  58:..\..\..\lvgl\version_6.1.2\lvgl\src\lv_objx/lv_spinbox.c ****     LV_ASSERT_MEM(new_spinbox);
  59:..\..\..\lvgl\version_6.1.2\lvgl\src\lv_objx/lv_spinbox.c ****     if(new_spinbox == NULL) return NULL;
  96              		.loc 2 59 0
  97 0014 7B69     		ldr	r3, [r7, #20]
  98 0016 002B     		cmp	r3, #0
  99 0018 01D1     		bne	.L3
 100              		.loc 2 59 0 is_stmt 0 discriminator 1
 101 001a 0023     		movs	r3, #0
 102 001c A7E0     		b	.L4
 103              	.L3:
  60:..\..\..\lvgl\version_6.1.2\lvgl\src\lv_objx/lv_spinbox.c **** 
  61:..\..\..\lvgl\version_6.1.2\lvgl\src\lv_objx/lv_spinbox.c ****     /*Allocate the spinbox type specific extended data*/
  62:..\..\..\lvgl\version_6.1.2\lvgl\src\lv_objx/lv_spinbox.c ****     lv_spinbox_ext_t * ext = lv_obj_allocate_ext_attr(new_spinbox, sizeof(lv_spinbox_ext_t));
 104              		.loc 2 62 0 is_stmt 1
 105 001e 7421     		movs	r1, #116
 106 0020 7869     		ldr	r0, [r7, #20]
 107 0022 FFF7FEFF 		bl	lv_obj_allocate_ext_attr
 108 0026 3861     		str	r0, [r7, #16]
  63:..\..\..\lvgl\version_6.1.2\lvgl\src\lv_objx/lv_spinbox.c ****     LV_ASSERT_MEM(ext);
  64:..\..\..\lvgl\version_6.1.2\lvgl\src\lv_objx/lv_spinbox.c ****     if(ext == NULL) return NULL;
 109              		.loc 2 64 0
 110 0028 3B69     		ldr	r3, [r7, #16]
 111 002a 002B     		cmp	r3, #0
 112 002c 01D1     		bne	.L5
 113              		.loc 2 64 0 is_stmt 0 discriminator 1
 114 002e 0023     		movs	r3, #0
 115 0030 9DE0     		b	.L4
 116              	.L5:
  65:..\..\..\lvgl\version_6.1.2\lvgl\src\lv_objx/lv_spinbox.c ****     if(ancestor_signal == NULL) ancestor_signal = lv_obj_get_signal_cb(new_spinbox);
 117              		.loc 2 65 0 is_stmt 1
 118 0032 514B     		ldr	r3, .L11
 119 0034 1B68     		ldr	r3, [r3]
 120 0036 002B     		cmp	r3, #0
 121 0038 05D1     		bne	.L6
 122              		.loc 2 65 0 is_stmt 0 discriminator 1
 123 003a 7869     		ldr	r0, [r7, #20]
 124 003c FFF7FEFF 		bl	lv_obj_get_signal_cb
 125 0040 0246     		mov	r2, r0
 126 0042 4D4B     		ldr	r3, .L11
 127 0044 1A60     		str	r2, [r3]
 128              	.L6:
  66:..\..\..\lvgl\version_6.1.2\lvgl\src\lv_objx/lv_spinbox.c ****     if(ancestor_design == NULL) ancestor_design = lv_obj_get_design_cb(new_spinbox);
 129              		.loc 2 66 0 is_stmt 1
 130 0046 4D4B     		ldr	r3, .L11+4
 131 0048 1B68     		ldr	r3, [r3]
ARM GAS  C:\Users\tmj32\AppData\Local\Temp\cci6nv1n.s 			page 6


 132 004a 002B     		cmp	r3, #0
 133 004c 05D1     		bne	.L7
 134              		.loc 2 66 0 is_stmt 0 discriminator 1
 135 004e 7869     		ldr	r0, [r7, #20]
 136 0050 FFF7FEFF 		bl	lv_obj_get_design_cb
 137 0054 0246     		mov	r2, r0
 138 0056 494B     		ldr	r3, .L11+4
 139 0058 1A60     		str	r2, [r3]
 140              	.L7:
  67:..\..\..\lvgl\version_6.1.2\lvgl\src\lv_objx/lv_spinbox.c **** 
  68:..\..\..\lvgl\version_6.1.2\lvgl\src\lv_objx/lv_spinbox.c ****     /*Initialize the allocated 'ext'*/
  69:..\..\..\lvgl\version_6.1.2\lvgl\src\lv_objx/lv_spinbox.c ****     ext->value              = 0;
 141              		.loc 2 69 0 is_stmt 1
 142 005a 3B69     		ldr	r3, [r7, #16]
 143 005c 0022     		movs	r2, #0
 144 005e 1A66     		str	r2, [r3, #96]
  70:..\..\..\lvgl\version_6.1.2\lvgl\src\lv_objx/lv_spinbox.c ****     ext->dec_point_pos      = 0;
 145              		.loc 2 70 0
 146 0060 3A69     		ldr	r2, [r7, #16]
 147 0062 92F87030 		ldrb	r3, [r2, #112]
 148 0066 6FF30713 		bfc	r3, #4, #4
 149 006a 82F87030 		strb	r3, [r2, #112]
  71:..\..\..\lvgl\version_6.1.2\lvgl\src\lv_objx/lv_spinbox.c ****     ext->digit_count        = 5;
 150              		.loc 2 71 0
 151 006e 3A69     		ldr	r2, [r7, #16]
 152 0070 92F87030 		ldrb	r3, [r2, #112]
 153 0074 0521     		movs	r1, #5
 154 0076 61F30303 		bfi	r3, r1, #0, #4
 155 007a 82F87030 		strb	r3, [r2, #112]
  72:..\..\..\lvgl\version_6.1.2\lvgl\src\lv_objx/lv_spinbox.c ****     ext->digit_padding_left = 0;
 156              		.loc 2 72 0
 157 007e 3A69     		ldr	r2, [r7, #16]
 158 0080 92F87130 		ldrb	r3, [r2, #113]
 159 0084 6FF30303 		bfc	r3, #0, #4
 160 0088 82F87130 		strb	r3, [r2, #113]
  73:..\..\..\lvgl\version_6.1.2\lvgl\src\lv_objx/lv_spinbox.c ****     ext->step               = 1;
 161              		.loc 2 73 0
 162 008c 3B69     		ldr	r3, [r7, #16]
 163 008e 0122     		movs	r2, #1
 164 0090 DA66     		str	r2, [r3, #108]
  74:..\..\..\lvgl\version_6.1.2\lvgl\src\lv_objx/lv_spinbox.c ****     ext->range_max          = 99999;
 165              		.loc 2 74 0
 166 0092 3B69     		ldr	r3, [r7, #16]
 167 0094 3A4A     		ldr	r2, .L11+8
 168 0096 5A66     		str	r2, [r3, #100]
  75:..\..\..\lvgl\version_6.1.2\lvgl\src\lv_objx/lv_spinbox.c ****     ext->range_min          = -99999;
 169              		.loc 2 75 0
 170 0098 3B69     		ldr	r3, [r7, #16]
 171 009a 3A4A     		ldr	r2, .L11+12
 172 009c 9A66     		str	r2, [r3, #104]
  76:..\..\..\lvgl\version_6.1.2\lvgl\src\lv_objx/lv_spinbox.c **** 
  77:..\..\..\lvgl\version_6.1.2\lvgl\src\lv_objx/lv_spinbox.c ****     lv_ta_set_cursor_type(new_spinbox, LV_CURSOR_BLOCK);
 173              		.loc 2 77 0
 174 009e 0221     		movs	r1, #2
 175 00a0 7869     		ldr	r0, [r7, #20]
 176 00a2 FFF7FEFF 		bl	lv_ta_set_cursor_type
  78:..\..\..\lvgl\version_6.1.2\lvgl\src\lv_objx/lv_spinbox.c ****     lv_ta_set_one_line(new_spinbox, true);
ARM GAS  C:\Users\tmj32\AppData\Local\Temp\cci6nv1n.s 			page 7


 177              		.loc 2 78 0
 178 00a6 0121     		movs	r1, #1
 179 00a8 7869     		ldr	r0, [r7, #20]
 180 00aa FFF7FEFF 		bl	lv_ta_set_one_line
  79:..\..\..\lvgl\version_6.1.2\lvgl\src\lv_objx/lv_spinbox.c ****     lv_ta_set_cursor_click_pos(new_spinbox, false);
 181              		.loc 2 79 0
 182 00ae 0021     		movs	r1, #0
 183 00b0 7869     		ldr	r0, [r7, #20]
 184 00b2 FFF7FEFF 		bl	lv_ta_set_cursor_click_pos
  80:..\..\..\lvgl\version_6.1.2\lvgl\src\lv_objx/lv_spinbox.c **** 
  81:..\..\..\lvgl\version_6.1.2\lvgl\src\lv_objx/lv_spinbox.c ****     /*The signal and design functions are not copied so set them here*/
  82:..\..\..\lvgl\version_6.1.2\lvgl\src\lv_objx/lv_spinbox.c ****     lv_obj_set_signal_cb(new_spinbox, lv_spinbox_signal);
 185              		.loc 2 82 0
 186 00b6 3449     		ldr	r1, .L11+16
 187 00b8 7869     		ldr	r0, [r7, #20]
 188 00ba FFF7FEFF 		bl	lv_obj_set_signal_cb
  83:..\..\..\lvgl\version_6.1.2\lvgl\src\lv_objx/lv_spinbox.c ****     lv_obj_set_design_cb(new_spinbox, ancestor_design); /*Leave the Text area's design function*/
 189              		.loc 2 83 0
 190 00be 2F4B     		ldr	r3, .L11+4
 191 00c0 1B68     		ldr	r3, [r3]
 192 00c2 1946     		mov	r1, r3
 193 00c4 7869     		ldr	r0, [r7, #20]
 194 00c6 FFF7FEFF 		bl	lv_obj_set_design_cb
  84:..\..\..\lvgl\version_6.1.2\lvgl\src\lv_objx/lv_spinbox.c **** 
  85:..\..\..\lvgl\version_6.1.2\lvgl\src\lv_objx/lv_spinbox.c ****     /*Init the new spinbox spinbox*/
  86:..\..\..\lvgl\version_6.1.2\lvgl\src\lv_objx/lv_spinbox.c ****     if(copy == NULL) {
 195              		.loc 2 86 0
 196 00ca 3B68     		ldr	r3, [r7]
 197 00cc 002B     		cmp	r3, #0
 198 00ce 1ED1     		bne	.L8
 199              	.LBB2:
  87:..\..\..\lvgl\version_6.1.2\lvgl\src\lv_objx/lv_spinbox.c ****         /*Set the default styles*/
  88:..\..\..\lvgl\version_6.1.2\lvgl\src\lv_objx/lv_spinbox.c ****         lv_theme_t * th = lv_theme_get_current();
 200              		.loc 2 88 0
 201 00d0 FFF7FEFF 		bl	lv_theme_get_current
 202 00d4 F860     		str	r0, [r7, #12]
  89:..\..\..\lvgl\version_6.1.2\lvgl\src\lv_objx/lv_spinbox.c ****         if(th) {
 203              		.loc 2 89 0
 204 00d6 FB68     		ldr	r3, [r7, #12]
 205 00d8 002B     		cmp	r3, #0
 206 00da 44D0     		beq	.L10
  90:..\..\..\lvgl\version_6.1.2\lvgl\src\lv_objx/lv_spinbox.c ****             lv_spinbox_set_style(new_spinbox, LV_SPINBOX_STYLE_BG, th->style.spinbox.bg);
 207              		.loc 2 90 0
 208 00dc FB68     		ldr	r3, [r7, #12]
 209 00de D3F82031 		ldr	r3, [r3, #288]
 210 00e2 1A46     		mov	r2, r3
 211 00e4 0021     		movs	r1, #0
 212 00e6 7869     		ldr	r0, [r7, #20]
 213 00e8 FFF7FEFF 		bl	lv_spinbox_set_style
  91:..\..\..\lvgl\version_6.1.2\lvgl\src\lv_objx/lv_spinbox.c ****             lv_spinbox_set_style(new_spinbox, LV_SPINBOX_STYLE_CURSOR, th->style.spinbox.cursor);
 214              		.loc 2 91 0
 215 00ec FB68     		ldr	r3, [r7, #12]
 216 00ee D3F82431 		ldr	r3, [r3, #292]
 217 00f2 1A46     		mov	r2, r3
 218 00f4 0221     		movs	r1, #2
 219 00f6 7869     		ldr	r0, [r7, #20]
 220 00f8 FFF7FEFF 		bl	lv_spinbox_set_style
ARM GAS  C:\Users\tmj32\AppData\Local\Temp\cci6nv1n.s 			page 8


  92:..\..\..\lvgl\version_6.1.2\lvgl\src\lv_objx/lv_spinbox.c ****             lv_spinbox_set_style(new_spinbox, LV_SPINBOX_STYLE_SB, th->style.spinbox.sb);
 221              		.loc 2 92 0
 222 00fc FB68     		ldr	r3, [r7, #12]
 223 00fe D3F82831 		ldr	r3, [r3, #296]
 224 0102 1A46     		mov	r2, r3
 225 0104 0121     		movs	r1, #1
 226 0106 7869     		ldr	r0, [r7, #20]
 227 0108 FFF7FEFF 		bl	lv_spinbox_set_style
 228 010c 2BE0     		b	.L10
 229              	.L8:
 230              	.LBE2:
 231              	.LBB3:
  93:..\..\..\lvgl\version_6.1.2\lvgl\src\lv_objx/lv_spinbox.c ****         }
  94:..\..\..\lvgl\version_6.1.2\lvgl\src\lv_objx/lv_spinbox.c ****     }
  95:..\..\..\lvgl\version_6.1.2\lvgl\src\lv_objx/lv_spinbox.c ****     /*Copy an existing spinbox*/
  96:..\..\..\lvgl\version_6.1.2\lvgl\src\lv_objx/lv_spinbox.c ****     else {
  97:..\..\..\lvgl\version_6.1.2\lvgl\src\lv_objx/lv_spinbox.c ****         lv_spinbox_ext_t * copy_ext = lv_obj_get_ext_attr(copy);
 232              		.loc 2 97 0
 233 010e 3868     		ldr	r0, [r7]
 234 0110 FFF7FEFF 		bl	lv_obj_get_ext_attr
 235 0114 B860     		str	r0, [r7, #8]
  98:..\..\..\lvgl\version_6.1.2\lvgl\src\lv_objx/lv_spinbox.c **** 
  99:..\..\..\lvgl\version_6.1.2\lvgl\src\lv_objx/lv_spinbox.c ****         lv_spinbox_set_value(new_spinbox, copy_ext->value);
 236              		.loc 2 99 0
 237 0116 BB68     		ldr	r3, [r7, #8]
 238 0118 1B6E     		ldr	r3, [r3, #96]
 239 011a 1946     		mov	r1, r3
 240 011c 7869     		ldr	r0, [r7, #20]
 241 011e FFF7FEFF 		bl	lv_spinbox_set_value
 100:..\..\..\lvgl\version_6.1.2\lvgl\src\lv_objx/lv_spinbox.c ****         lv_spinbox_set_digit_format(new_spinbox, (uint8_t)copy_ext->digit_count, (uint8_t)copy_ext-
 242              		.loc 2 100 0
 243 0122 BB68     		ldr	r3, [r7, #8]
 244 0124 93F87030 		ldrb	r3, [r3, #112]
 245 0128 C3F30303 		ubfx	r3, r3, #0, #4
 246 012c DBB2     		uxtb	r3, r3
 247 012e 1946     		mov	r1, r3
 248 0130 BB68     		ldr	r3, [r7, #8]
 249 0132 93F87030 		ldrb	r3, [r3, #112]
 250 0136 C3F30313 		ubfx	r3, r3, #4, #4
 251 013a DBB2     		uxtb	r3, r3
 252 013c 1A46     		mov	r2, r3
 253 013e 7869     		ldr	r0, [r7, #20]
 254 0140 FFF7FEFF 		bl	lv_spinbox_set_digit_format
 101:..\..\..\lvgl\version_6.1.2\lvgl\src\lv_objx/lv_spinbox.c ****         lv_spinbox_set_range(new_spinbox, copy_ext->range_min, copy_ext->range_max);
 255              		.loc 2 101 0
 256 0144 BB68     		ldr	r3, [r7, #8]
 257 0146 996E     		ldr	r1, [r3, #104]
 258 0148 BB68     		ldr	r3, [r7, #8]
 259 014a 5B6E     		ldr	r3, [r3, #100]
 260 014c 1A46     		mov	r2, r3
 261 014e 7869     		ldr	r0, [r7, #20]
 262 0150 FFF7FEFF 		bl	lv_spinbox_set_range
 102:..\..\..\lvgl\version_6.1.2\lvgl\src\lv_objx/lv_spinbox.c ****         lv_spinbox_set_step(new_spinbox, copy_ext->step);
 263              		.loc 2 102 0
 264 0154 BB68     		ldr	r3, [r7, #8]
 265 0156 DB6E     		ldr	r3, [r3, #108]
 266 0158 1946     		mov	r1, r3
ARM GAS  C:\Users\tmj32\AppData\Local\Temp\cci6nv1n.s 			page 9


 267 015a 7869     		ldr	r0, [r7, #20]
 268 015c FFF7FEFF 		bl	lv_spinbox_set_step
 103:..\..\..\lvgl\version_6.1.2\lvgl\src\lv_objx/lv_spinbox.c **** 
 104:..\..\..\lvgl\version_6.1.2\lvgl\src\lv_objx/lv_spinbox.c ****         /*Refresh the style with new signal function*/
 105:..\..\..\lvgl\version_6.1.2\lvgl\src\lv_objx/lv_spinbox.c ****         lv_obj_refresh_style(new_spinbox);
 269              		.loc 2 105 0
 270 0160 7869     		ldr	r0, [r7, #20]
 271 0162 FFF7FEFF 		bl	lv_obj_refresh_style
 272              	.L10:
 273              	.LBE3:
 106:..\..\..\lvgl\version_6.1.2\lvgl\src\lv_objx/lv_spinbox.c ****     }
 107:..\..\..\lvgl\version_6.1.2\lvgl\src\lv_objx/lv_spinbox.c **** 
 108:..\..\..\lvgl\version_6.1.2\lvgl\src\lv_objx/lv_spinbox.c ****     lv_spinbox_updatevalue(new_spinbox);
 274              		.loc 2 108 0
 275 0166 7869     		ldr	r0, [r7, #20]
 276 0168 FFF7FEFF 		bl	lv_spinbox_updatevalue
 109:..\..\..\lvgl\version_6.1.2\lvgl\src\lv_objx/lv_spinbox.c **** 
 110:..\..\..\lvgl\version_6.1.2\lvgl\src\lv_objx/lv_spinbox.c ****     LV_LOG_INFO("spinbox created");
 111:..\..\..\lvgl\version_6.1.2\lvgl\src\lv_objx/lv_spinbox.c **** 
 112:..\..\..\lvgl\version_6.1.2\lvgl\src\lv_objx/lv_spinbox.c ****     return new_spinbox;
 277              		.loc 2 112 0
 278 016c 7B69     		ldr	r3, [r7, #20]
 279              	.L4:
 113:..\..\..\lvgl\version_6.1.2\lvgl\src\lv_objx/lv_spinbox.c **** }
 280              		.loc 2 113 0
 281 016e 1846     		mov	r0, r3
 282 0170 1837     		adds	r7, r7, #24
 283              		.cfi_def_cfa_offset 8
 284 0172 BD46     		mov	sp, r7
 285              		.cfi_def_cfa_register 13
 286              		@ sp needed
 287 0174 80BD     		pop	{r7, pc}
 288              	.L12:
 289 0176 00BF     		.align	2
 290              	.L11:
 291 0178 00000000 		.word	ancestor_signal
 292 017c 04000000 		.word	ancestor_design
 293 0180 9F860100 		.word	99999
 294 0184 6179FEFF 		.word	-99999
 295 0188 00000000 		.word	lv_spinbox_signal
 296              		.cfi_endproc
 297              	.LFE58:
 298              		.size	lv_spinbox_create, .-lv_spinbox_create
 299              		.section	.text.lv_spinbox_set_value,"ax",%progbits
 300              		.align	2
 301              		.global	lv_spinbox_set_value
 302              		.thumb
 303              		.thumb_func
 304              		.type	lv_spinbox_set_value, %function
 305              	lv_spinbox_set_value:
 306              	.LFB59:
 114:..\..\..\lvgl\version_6.1.2\lvgl\src\lv_objx/lv_spinbox.c **** 
 115:..\..\..\lvgl\version_6.1.2\lvgl\src\lv_objx/lv_spinbox.c **** /*=====================
 116:..\..\..\lvgl\version_6.1.2\lvgl\src\lv_objx/lv_spinbox.c ****  * Setter functions
 117:..\..\..\lvgl\version_6.1.2\lvgl\src\lv_objx/lv_spinbox.c ****  *====================*/
 118:..\..\..\lvgl\version_6.1.2\lvgl\src\lv_objx/lv_spinbox.c **** 
 119:..\..\..\lvgl\version_6.1.2\lvgl\src\lv_objx/lv_spinbox.c **** /**
ARM GAS  C:\Users\tmj32\AppData\Local\Temp\cci6nv1n.s 			page 10


 120:..\..\..\lvgl\version_6.1.2\lvgl\src\lv_objx/lv_spinbox.c ****  * Set spinbox value
 121:..\..\..\lvgl\version_6.1.2\lvgl\src\lv_objx/lv_spinbox.c ****  * @param spinbox pointer to spinbox
 122:..\..\..\lvgl\version_6.1.2\lvgl\src\lv_objx/lv_spinbox.c ****  * @param i value to be set
 123:..\..\..\lvgl\version_6.1.2\lvgl\src\lv_objx/lv_spinbox.c ****  */
 124:..\..\..\lvgl\version_6.1.2\lvgl\src\lv_objx/lv_spinbox.c **** void lv_spinbox_set_value(lv_obj_t * spinbox, int32_t i)
 125:..\..\..\lvgl\version_6.1.2\lvgl\src\lv_objx/lv_spinbox.c **** {
 307              		.loc 2 125 0
 308              		.cfi_startproc
 309              		@ args = 0, pretend = 0, frame = 16
 310              		@ frame_needed = 1, uses_anonymous_args = 0
 311 0000 80B5     		push	{r7, lr}
 312              		.cfi_def_cfa_offset 8
 313              		.cfi_offset 7, -8
 314              		.cfi_offset 14, -4
 315 0002 84B0     		sub	sp, sp, #16
 316              		.cfi_def_cfa_offset 24
 317 0004 00AF     		add	r7, sp, #0
 318              		.cfi_def_cfa_register 7
 319 0006 7860     		str	r0, [r7, #4]
 320 0008 3960     		str	r1, [r7]
 126:..\..\..\lvgl\version_6.1.2\lvgl\src\lv_objx/lv_spinbox.c ****     LV_ASSERT_OBJ(spinbox, LV_OBJX_NAME);
 127:..\..\..\lvgl\version_6.1.2\lvgl\src\lv_objx/lv_spinbox.c **** 
 128:..\..\..\lvgl\version_6.1.2\lvgl\src\lv_objx/lv_spinbox.c ****     lv_spinbox_ext_t * ext = lv_obj_get_ext_attr(spinbox);
 321              		.loc 2 128 0
 322 000a 7868     		ldr	r0, [r7, #4]
 323 000c FFF7FEFF 		bl	lv_obj_get_ext_attr
 324 0010 F860     		str	r0, [r7, #12]
 129:..\..\..\lvgl\version_6.1.2\lvgl\src\lv_objx/lv_spinbox.c ****     if(ext == NULL) return;
 325              		.loc 2 129 0
 326 0012 FB68     		ldr	r3, [r7, #12]
 327 0014 002B     		cmp	r3, #0
 328 0016 16D0     		beq	.L18
 130:..\..\..\lvgl\version_6.1.2\lvgl\src\lv_objx/lv_spinbox.c **** 
 131:..\..\..\lvgl\version_6.1.2\lvgl\src\lv_objx/lv_spinbox.c ****     if(i > ext->range_max) i = ext->range_max;
 329              		.loc 2 131 0
 330 0018 FB68     		ldr	r3, [r7, #12]
 331 001a 5A6E     		ldr	r2, [r3, #100]
 332 001c 3B68     		ldr	r3, [r7]
 333 001e 9A42     		cmp	r2, r3
 334 0020 02DA     		bge	.L16
 335              		.loc 2 131 0 is_stmt 0 discriminator 1
 336 0022 FB68     		ldr	r3, [r7, #12]
 337 0024 5B6E     		ldr	r3, [r3, #100]
 338 0026 3B60     		str	r3, [r7]
 339              	.L16:
 132:..\..\..\lvgl\version_6.1.2\lvgl\src\lv_objx/lv_spinbox.c ****     if(i < ext->range_min) i = ext->range_min;
 340              		.loc 2 132 0 is_stmt 1
 341 0028 FB68     		ldr	r3, [r7, #12]
 342 002a 9A6E     		ldr	r2, [r3, #104]
 343 002c 3B68     		ldr	r3, [r7]
 344 002e 9A42     		cmp	r2, r3
 345 0030 02DD     		ble	.L17
 346              		.loc 2 132 0 is_stmt 0 discriminator 1
 347 0032 FB68     		ldr	r3, [r7, #12]
 348 0034 9B6E     		ldr	r3, [r3, #104]
 349 0036 3B60     		str	r3, [r7]
 350              	.L17:
ARM GAS  C:\Users\tmj32\AppData\Local\Temp\cci6nv1n.s 			page 11


 133:..\..\..\lvgl\version_6.1.2\lvgl\src\lv_objx/lv_spinbox.c **** 
 134:..\..\..\lvgl\version_6.1.2\lvgl\src\lv_objx/lv_spinbox.c ****     ext->value = i;
 351              		.loc 2 134 0 is_stmt 1
 352 0038 FB68     		ldr	r3, [r7, #12]
 353 003a 3A68     		ldr	r2, [r7]
 354 003c 1A66     		str	r2, [r3, #96]
 135:..\..\..\lvgl\version_6.1.2\lvgl\src\lv_objx/lv_spinbox.c **** 
 136:..\..\..\lvgl\version_6.1.2\lvgl\src\lv_objx/lv_spinbox.c ****     lv_spinbox_updatevalue(spinbox);
 355              		.loc 2 136 0
 356 003e 7868     		ldr	r0, [r7, #4]
 357 0040 FFF7FEFF 		bl	lv_spinbox_updatevalue
 358 0044 00E0     		b	.L13
 359              	.L18:
 129:..\..\..\lvgl\version_6.1.2\lvgl\src\lv_objx/lv_spinbox.c **** 
 360              		.loc 2 129 0
 361 0046 00BF     		nop
 362              	.L13:
 137:..\..\..\lvgl\version_6.1.2\lvgl\src\lv_objx/lv_spinbox.c **** }
 363              		.loc 2 137 0
 364 0048 1037     		adds	r7, r7, #16
 365              		.cfi_def_cfa_offset 8
 366 004a BD46     		mov	sp, r7
 367              		.cfi_def_cfa_register 13
 368              		@ sp needed
 369 004c 80BD     		pop	{r7, pc}
 370              		.cfi_endproc
 371              	.LFE59:
 372              		.size	lv_spinbox_set_value, .-lv_spinbox_set_value
 373 004e 00BF     		.section	.text.lv_spinbox_set_digit_format,"ax",%progbits
 374              		.align	2
 375              		.global	lv_spinbox_set_digit_format
 376              		.thumb
 377              		.thumb_func
 378              		.type	lv_spinbox_set_digit_format, %function
 379              	lv_spinbox_set_digit_format:
 380              	.LFB60:
 138:..\..\..\lvgl\version_6.1.2\lvgl\src\lv_objx/lv_spinbox.c **** 
 139:..\..\..\lvgl\version_6.1.2\lvgl\src\lv_objx/lv_spinbox.c **** /**
 140:..\..\..\lvgl\version_6.1.2\lvgl\src\lv_objx/lv_spinbox.c ****  * Set spinbox digit format (digit count and decimal format)
 141:..\..\..\lvgl\version_6.1.2\lvgl\src\lv_objx/lv_spinbox.c ****  * @param spinbox pointer to spinbox
 142:..\..\..\lvgl\version_6.1.2\lvgl\src\lv_objx/lv_spinbox.c ****  * @param digit_count number of digit excluding the decimal separator and the sign
 143:..\..\..\lvgl\version_6.1.2\lvgl\src\lv_objx/lv_spinbox.c ****  * @param separator_position number of digit before the decimal point. If 0, decimal point is not
 144:..\..\..\lvgl\version_6.1.2\lvgl\src\lv_objx/lv_spinbox.c ****  * shown
 145:..\..\..\lvgl\version_6.1.2\lvgl\src\lv_objx/lv_spinbox.c ****  */
 146:..\..\..\lvgl\version_6.1.2\lvgl\src\lv_objx/lv_spinbox.c **** void lv_spinbox_set_digit_format(lv_obj_t * spinbox, uint8_t digit_count, uint8_t separator_positio
 147:..\..\..\lvgl\version_6.1.2\lvgl\src\lv_objx/lv_spinbox.c **** {
 381              		.loc 2 147 0
 382              		.cfi_startproc
 383              		@ args = 0, pretend = 0, frame = 16
 384              		@ frame_needed = 1, uses_anonymous_args = 0
 385 0000 80B5     		push	{r7, lr}
 386              		.cfi_def_cfa_offset 8
 387              		.cfi_offset 7, -8
 388              		.cfi_offset 14, -4
 389 0002 84B0     		sub	sp, sp, #16
 390              		.cfi_def_cfa_offset 24
 391 0004 00AF     		add	r7, sp, #0
ARM GAS  C:\Users\tmj32\AppData\Local\Temp\cci6nv1n.s 			page 12


 392              		.cfi_def_cfa_register 7
 393 0006 7860     		str	r0, [r7, #4]
 394 0008 0B46     		mov	r3, r1
 395 000a FB70     		strb	r3, [r7, #3]
 396 000c 1346     		mov	r3, r2
 397 000e BB70     		strb	r3, [r7, #2]
 148:..\..\..\lvgl\version_6.1.2\lvgl\src\lv_objx/lv_spinbox.c ****     LV_ASSERT_OBJ(spinbox, LV_OBJX_NAME);
 149:..\..\..\lvgl\version_6.1.2\lvgl\src\lv_objx/lv_spinbox.c **** 
 150:..\..\..\lvgl\version_6.1.2\lvgl\src\lv_objx/lv_spinbox.c ****     lv_spinbox_ext_t * ext = lv_obj_get_ext_attr(spinbox);
 398              		.loc 2 150 0
 399 0010 7868     		ldr	r0, [r7, #4]
 400 0012 FFF7FEFF 		bl	lv_obj_get_ext_attr
 401 0016 F860     		str	r0, [r7, #12]
 151:..\..\..\lvgl\version_6.1.2\lvgl\src\lv_objx/lv_spinbox.c ****     if(ext == NULL) return;
 402              		.loc 2 151 0
 403 0018 FB68     		ldr	r3, [r7, #12]
 404 001a 002B     		cmp	r3, #0
 405 001c 23D0     		beq	.L24
 152:..\..\..\lvgl\version_6.1.2\lvgl\src\lv_objx/lv_spinbox.c **** 
 153:..\..\..\lvgl\version_6.1.2\lvgl\src\lv_objx/lv_spinbox.c ****     if(digit_count > LV_SPINBOX_MAX_DIGIT_COUNT) digit_count = LV_SPINBOX_MAX_DIGIT_COUNT;
 406              		.loc 2 153 0
 407 001e FB78     		ldrb	r3, [r7, #3]	@ zero_extendqisi2
 408 0020 102B     		cmp	r3, #16
 409 0022 01D9     		bls	.L22
 410              		.loc 2 153 0 is_stmt 0 discriminator 1
 411 0024 1023     		movs	r3, #16
 412 0026 FB70     		strb	r3, [r7, #3]
 413              	.L22:
 154:..\..\..\lvgl\version_6.1.2\lvgl\src\lv_objx/lv_spinbox.c **** 
 155:..\..\..\lvgl\version_6.1.2\lvgl\src\lv_objx/lv_spinbox.c ****     if(separator_position > LV_SPINBOX_MAX_DIGIT_COUNT) separator_position = LV_SPINBOX_MAX_DIGIT_C
 414              		.loc 2 155 0 is_stmt 1
 415 0028 BB78     		ldrb	r3, [r7, #2]	@ zero_extendqisi2
 416 002a 102B     		cmp	r3, #16
 417 002c 01D9     		bls	.L23
 418              		.loc 2 155 0 is_stmt 0 discriminator 1
 419 002e 1023     		movs	r3, #16
 420 0030 BB70     		strb	r3, [r7, #2]
 421              	.L23:
 156:..\..\..\lvgl\version_6.1.2\lvgl\src\lv_objx/lv_spinbox.c **** 
 157:..\..\..\lvgl\version_6.1.2\lvgl\src\lv_objx/lv_spinbox.c ****     ext->digit_count   = digit_count;
 422              		.loc 2 157 0 is_stmt 1
 423 0032 FB78     		ldrb	r3, [r7, #3]
 424 0034 03F00F03 		and	r3, r3, #15
 425 0038 D9B2     		uxtb	r1, r3
 426 003a FA68     		ldr	r2, [r7, #12]
 427 003c 92F87030 		ldrb	r3, [r2, #112]
 428 0040 61F30303 		bfi	r3, r1, #0, #4
 429 0044 82F87030 		strb	r3, [r2, #112]
 158:..\..\..\lvgl\version_6.1.2\lvgl\src\lv_objx/lv_spinbox.c ****     ext->dec_point_pos = separator_position;
 430              		.loc 2 158 0
 431 0048 BB78     		ldrb	r3, [r7, #2]
 432 004a 03F00F03 		and	r3, r3, #15
 433 004e D9B2     		uxtb	r1, r3
 434 0050 FA68     		ldr	r2, [r7, #12]
 435 0052 92F87030 		ldrb	r3, [r2, #112]
 436 0056 61F30713 		bfi	r3, r1, #4, #4
 437 005a 82F87030 		strb	r3, [r2, #112]
ARM GAS  C:\Users\tmj32\AppData\Local\Temp\cci6nv1n.s 			page 13


 159:..\..\..\lvgl\version_6.1.2\lvgl\src\lv_objx/lv_spinbox.c **** 
 160:..\..\..\lvgl\version_6.1.2\lvgl\src\lv_objx/lv_spinbox.c ****     lv_spinbox_updatevalue(spinbox);
 438              		.loc 2 160 0
 439 005e 7868     		ldr	r0, [r7, #4]
 440 0060 FFF7FEFF 		bl	lv_spinbox_updatevalue
 441 0064 00E0     		b	.L19
 442              	.L24:
 151:..\..\..\lvgl\version_6.1.2\lvgl\src\lv_objx/lv_spinbox.c **** 
 443              		.loc 2 151 0
 444 0066 00BF     		nop
 445              	.L19:
 161:..\..\..\lvgl\version_6.1.2\lvgl\src\lv_objx/lv_spinbox.c **** }
 446              		.loc 2 161 0
 447 0068 1037     		adds	r7, r7, #16
 448              		.cfi_def_cfa_offset 8
 449 006a BD46     		mov	sp, r7
 450              		.cfi_def_cfa_register 13
 451              		@ sp needed
 452 006c 80BD     		pop	{r7, pc}
 453              		.cfi_endproc
 454              	.LFE60:
 455              		.size	lv_spinbox_set_digit_format, .-lv_spinbox_set_digit_format
 456 006e 00BF     		.section	.text.lv_spinbox_set_step,"ax",%progbits
 457              		.align	2
 458              		.global	lv_spinbox_set_step
 459              		.thumb
 460              		.thumb_func
 461              		.type	lv_spinbox_set_step, %function
 462              	lv_spinbox_set_step:
 463              	.LFB61:
 162:..\..\..\lvgl\version_6.1.2\lvgl\src\lv_objx/lv_spinbox.c **** 
 163:..\..\..\lvgl\version_6.1.2\lvgl\src\lv_objx/lv_spinbox.c **** /**
 164:..\..\..\lvgl\version_6.1.2\lvgl\src\lv_objx/lv_spinbox.c ****  * Set spinbox step
 165:..\..\..\lvgl\version_6.1.2\lvgl\src\lv_objx/lv_spinbox.c ****  * @param spinbox pointer to spinbox
 166:..\..\..\lvgl\version_6.1.2\lvgl\src\lv_objx/lv_spinbox.c ****  * @param step steps on increment/decrement
 167:..\..\..\lvgl\version_6.1.2\lvgl\src\lv_objx/lv_spinbox.c ****  */
 168:..\..\..\lvgl\version_6.1.2\lvgl\src\lv_objx/lv_spinbox.c **** void lv_spinbox_set_step(lv_obj_t * spinbox, uint32_t step)
 169:..\..\..\lvgl\version_6.1.2\lvgl\src\lv_objx/lv_spinbox.c **** {
 464              		.loc 2 169 0
 465              		.cfi_startproc
 466              		@ args = 0, pretend = 0, frame = 16
 467              		@ frame_needed = 1, uses_anonymous_args = 0
 468 0000 80B5     		push	{r7, lr}
 469              		.cfi_def_cfa_offset 8
 470              		.cfi_offset 7, -8
 471              		.cfi_offset 14, -4
 472 0002 84B0     		sub	sp, sp, #16
 473              		.cfi_def_cfa_offset 24
 474 0004 00AF     		add	r7, sp, #0
 475              		.cfi_def_cfa_register 7
 476 0006 7860     		str	r0, [r7, #4]
 477 0008 3960     		str	r1, [r7]
 170:..\..\..\lvgl\version_6.1.2\lvgl\src\lv_objx/lv_spinbox.c ****     LV_ASSERT_OBJ(spinbox, LV_OBJX_NAME);
 171:..\..\..\lvgl\version_6.1.2\lvgl\src\lv_objx/lv_spinbox.c **** 
 172:..\..\..\lvgl\version_6.1.2\lvgl\src\lv_objx/lv_spinbox.c ****     lv_spinbox_ext_t * ext = lv_obj_get_ext_attr(spinbox);
 478              		.loc 2 172 0
 479 000a 7868     		ldr	r0, [r7, #4]
ARM GAS  C:\Users\tmj32\AppData\Local\Temp\cci6nv1n.s 			page 14


 480 000c FFF7FEFF 		bl	lv_obj_get_ext_attr
 481 0010 F860     		str	r0, [r7, #12]
 173:..\..\..\lvgl\version_6.1.2\lvgl\src\lv_objx/lv_spinbox.c ****     if(ext == NULL) return;
 482              		.loc 2 173 0
 483 0012 FB68     		ldr	r3, [r7, #12]
 484 0014 002B     		cmp	r3, #0
 485 0016 03D0     		beq	.L28
 174:..\..\..\lvgl\version_6.1.2\lvgl\src\lv_objx/lv_spinbox.c **** 
 175:..\..\..\lvgl\version_6.1.2\lvgl\src\lv_objx/lv_spinbox.c ****     ext->step = step;
 486              		.loc 2 175 0
 487 0018 3A68     		ldr	r2, [r7]
 488 001a FB68     		ldr	r3, [r7, #12]
 489 001c DA66     		str	r2, [r3, #108]
 490 001e 00E0     		b	.L25
 491              	.L28:
 173:..\..\..\lvgl\version_6.1.2\lvgl\src\lv_objx/lv_spinbox.c ****     if(ext == NULL) return;
 492              		.loc 2 173 0
 493 0020 00BF     		nop
 494              	.L25:
 176:..\..\..\lvgl\version_6.1.2\lvgl\src\lv_objx/lv_spinbox.c **** }
 495              		.loc 2 176 0
 496 0022 1037     		adds	r7, r7, #16
 497              		.cfi_def_cfa_offset 8
 498 0024 BD46     		mov	sp, r7
 499              		.cfi_def_cfa_register 13
 500              		@ sp needed
 501 0026 80BD     		pop	{r7, pc}
 502              		.cfi_endproc
 503              	.LFE61:
 504              		.size	lv_spinbox_set_step, .-lv_spinbox_set_step
 505              		.section	.text.lv_spinbox_set_range,"ax",%progbits
 506              		.align	2
 507              		.global	lv_spinbox_set_range
 508              		.thumb
 509              		.thumb_func
 510              		.type	lv_spinbox_set_range, %function
 511              	lv_spinbox_set_range:
 512              	.LFB62:
 177:..\..\..\lvgl\version_6.1.2\lvgl\src\lv_objx/lv_spinbox.c **** 
 178:..\..\..\lvgl\version_6.1.2\lvgl\src\lv_objx/lv_spinbox.c **** /**
 179:..\..\..\lvgl\version_6.1.2\lvgl\src\lv_objx/lv_spinbox.c ****  * Set spinbox value range
 180:..\..\..\lvgl\version_6.1.2\lvgl\src\lv_objx/lv_spinbox.c ****  * @param spinbox pointer to spinbox
 181:..\..\..\lvgl\version_6.1.2\lvgl\src\lv_objx/lv_spinbox.c ****  * @param range_min maximum value, inclusive
 182:..\..\..\lvgl\version_6.1.2\lvgl\src\lv_objx/lv_spinbox.c ****  * @param range_max minimum value, inclusive
 183:..\..\..\lvgl\version_6.1.2\lvgl\src\lv_objx/lv_spinbox.c ****  */
 184:..\..\..\lvgl\version_6.1.2\lvgl\src\lv_objx/lv_spinbox.c **** void lv_spinbox_set_range(lv_obj_t * spinbox, int32_t range_min, int32_t range_max)
 185:..\..\..\lvgl\version_6.1.2\lvgl\src\lv_objx/lv_spinbox.c **** {
 513              		.loc 2 185 0
 514              		.cfi_startproc
 515              		@ args = 0, pretend = 0, frame = 24
 516              		@ frame_needed = 1, uses_anonymous_args = 0
 517 0000 80B5     		push	{r7, lr}
 518              		.cfi_def_cfa_offset 8
 519              		.cfi_offset 7, -8
 520              		.cfi_offset 14, -4
 521 0002 86B0     		sub	sp, sp, #24
 522              		.cfi_def_cfa_offset 32
ARM GAS  C:\Users\tmj32\AppData\Local\Temp\cci6nv1n.s 			page 15


 523 0004 00AF     		add	r7, sp, #0
 524              		.cfi_def_cfa_register 7
 525 0006 F860     		str	r0, [r7, #12]
 526 0008 B960     		str	r1, [r7, #8]
 527 000a 7A60     		str	r2, [r7, #4]
 186:..\..\..\lvgl\version_6.1.2\lvgl\src\lv_objx/lv_spinbox.c ****     LV_ASSERT_OBJ(spinbox, LV_OBJX_NAME);
 187:..\..\..\lvgl\version_6.1.2\lvgl\src\lv_objx/lv_spinbox.c **** 
 188:..\..\..\lvgl\version_6.1.2\lvgl\src\lv_objx/lv_spinbox.c ****     lv_spinbox_ext_t * ext = lv_obj_get_ext_attr(spinbox);
 528              		.loc 2 188 0
 529 000c F868     		ldr	r0, [r7, #12]
 530 000e FFF7FEFF 		bl	lv_obj_get_ext_attr
 531 0012 7861     		str	r0, [r7, #20]
 189:..\..\..\lvgl\version_6.1.2\lvgl\src\lv_objx/lv_spinbox.c ****     if(ext == NULL) return;
 532              		.loc 2 189 0
 533 0014 7B69     		ldr	r3, [r7, #20]
 534 0016 002B     		cmp	r3, #0
 535 0018 20D0     		beq	.L33
 190:..\..\..\lvgl\version_6.1.2\lvgl\src\lv_objx/lv_spinbox.c **** 
 191:..\..\..\lvgl\version_6.1.2\lvgl\src\lv_objx/lv_spinbox.c ****     ext->range_max = range_max;
 536              		.loc 2 191 0
 537 001a 7B69     		ldr	r3, [r7, #20]
 538 001c 7A68     		ldr	r2, [r7, #4]
 539 001e 5A66     		str	r2, [r3, #100]
 192:..\..\..\lvgl\version_6.1.2\lvgl\src\lv_objx/lv_spinbox.c ****     ext->range_min = range_min;
 540              		.loc 2 192 0
 541 0020 7B69     		ldr	r3, [r7, #20]
 542 0022 BA68     		ldr	r2, [r7, #8]
 543 0024 9A66     		str	r2, [r3, #104]
 193:..\..\..\lvgl\version_6.1.2\lvgl\src\lv_objx/lv_spinbox.c **** 
 194:..\..\..\lvgl\version_6.1.2\lvgl\src\lv_objx/lv_spinbox.c ****     if(ext->value > ext->range_max) {
 544              		.loc 2 194 0
 545 0026 7B69     		ldr	r3, [r7, #20]
 546 0028 1A6E     		ldr	r2, [r3, #96]
 547 002a 7B69     		ldr	r3, [r7, #20]
 548 002c 5B6E     		ldr	r3, [r3, #100]
 549 002e 9A42     		cmp	r2, r3
 550 0030 06DD     		ble	.L32
 195:..\..\..\lvgl\version_6.1.2\lvgl\src\lv_objx/lv_spinbox.c ****         ext->value = ext->range_max;
 551              		.loc 2 195 0
 552 0032 7B69     		ldr	r3, [r7, #20]
 553 0034 5A6E     		ldr	r2, [r3, #100]
 554 0036 7B69     		ldr	r3, [r7, #20]
 555 0038 1A66     		str	r2, [r3, #96]
 196:..\..\..\lvgl\version_6.1.2\lvgl\src\lv_objx/lv_spinbox.c ****         lv_obj_invalidate(spinbox);
 556              		.loc 2 196 0
 557 003a F868     		ldr	r0, [r7, #12]
 558 003c FFF7FEFF 		bl	lv_obj_invalidate
 559              	.L32:
 197:..\..\..\lvgl\version_6.1.2\lvgl\src\lv_objx/lv_spinbox.c ****     }
 198:..\..\..\lvgl\version_6.1.2\lvgl\src\lv_objx/lv_spinbox.c ****     if(ext->value < ext->range_min) {
 560              		.loc 2 198 0
 561 0040 7B69     		ldr	r3, [r7, #20]
 562 0042 1A6E     		ldr	r2, [r3, #96]
 563 0044 7B69     		ldr	r3, [r7, #20]
 564 0046 9B6E     		ldr	r3, [r3, #104]
 565 0048 9A42     		cmp	r2, r3
 566 004a 08DA     		bge	.L29
ARM GAS  C:\Users\tmj32\AppData\Local\Temp\cci6nv1n.s 			page 16


 199:..\..\..\lvgl\version_6.1.2\lvgl\src\lv_objx/lv_spinbox.c ****         ext->value = ext->range_min;
 567              		.loc 2 199 0
 568 004c 7B69     		ldr	r3, [r7, #20]
 569 004e 9A6E     		ldr	r2, [r3, #104]
 570 0050 7B69     		ldr	r3, [r7, #20]
 571 0052 1A66     		str	r2, [r3, #96]
 200:..\..\..\lvgl\version_6.1.2\lvgl\src\lv_objx/lv_spinbox.c ****         lv_obj_invalidate(spinbox);
 572              		.loc 2 200 0
 573 0054 F868     		ldr	r0, [r7, #12]
 574 0056 FFF7FEFF 		bl	lv_obj_invalidate
 575 005a 00E0     		b	.L29
 576              	.L33:
 189:..\..\..\lvgl\version_6.1.2\lvgl\src\lv_objx/lv_spinbox.c **** 
 577              		.loc 2 189 0
 578 005c 00BF     		nop
 579              	.L29:
 201:..\..\..\lvgl\version_6.1.2\lvgl\src\lv_objx/lv_spinbox.c ****     }
 202:..\..\..\lvgl\version_6.1.2\lvgl\src\lv_objx/lv_spinbox.c **** }
 580              		.loc 2 202 0
 581 005e 1837     		adds	r7, r7, #24
 582              		.cfi_def_cfa_offset 8
 583 0060 BD46     		mov	sp, r7
 584              		.cfi_def_cfa_register 13
 585              		@ sp needed
 586 0062 80BD     		pop	{r7, pc}
 587              		.cfi_endproc
 588              	.LFE62:
 589              		.size	lv_spinbox_set_range, .-lv_spinbox_set_range
 590              		.section	.text.lv_spinbox_set_padding_left,"ax",%progbits
 591              		.align	2
 592              		.global	lv_spinbox_set_padding_left
 593              		.thumb
 594              		.thumb_func
 595              		.type	lv_spinbox_set_padding_left, %function
 596              	lv_spinbox_set_padding_left:
 597              	.LFB63:
 203:..\..\..\lvgl\version_6.1.2\lvgl\src\lv_objx/lv_spinbox.c **** 
 204:..\..\..\lvgl\version_6.1.2\lvgl\src\lv_objx/lv_spinbox.c **** /**
 205:..\..\..\lvgl\version_6.1.2\lvgl\src\lv_objx/lv_spinbox.c ****  * Set spinbox left padding in digits count (added between sign and first digit)
 206:..\..\..\lvgl\version_6.1.2\lvgl\src\lv_objx/lv_spinbox.c ****  * @param spinbox pointer to spinbox
 207:..\..\..\lvgl\version_6.1.2\lvgl\src\lv_objx/lv_spinbox.c ****  * @param cb Callback function called on value change event
 208:..\..\..\lvgl\version_6.1.2\lvgl\src\lv_objx/lv_spinbox.c ****  */
 209:..\..\..\lvgl\version_6.1.2\lvgl\src\lv_objx/lv_spinbox.c **** void lv_spinbox_set_padding_left(lv_obj_t * spinbox, uint8_t padding)
 210:..\..\..\lvgl\version_6.1.2\lvgl\src\lv_objx/lv_spinbox.c **** {
 598              		.loc 2 210 0
 599              		.cfi_startproc
 600              		@ args = 0, pretend = 0, frame = 16
 601              		@ frame_needed = 1, uses_anonymous_args = 0
 602 0000 80B5     		push	{r7, lr}
 603              		.cfi_def_cfa_offset 8
 604              		.cfi_offset 7, -8
 605              		.cfi_offset 14, -4
 606 0002 84B0     		sub	sp, sp, #16
 607              		.cfi_def_cfa_offset 24
 608 0004 00AF     		add	r7, sp, #0
 609              		.cfi_def_cfa_register 7
 610 0006 7860     		str	r0, [r7, #4]
ARM GAS  C:\Users\tmj32\AppData\Local\Temp\cci6nv1n.s 			page 17


 611 0008 0B46     		mov	r3, r1
 612 000a FB70     		strb	r3, [r7, #3]
 211:..\..\..\lvgl\version_6.1.2\lvgl\src\lv_objx/lv_spinbox.c ****     LV_ASSERT_OBJ(spinbox, LV_OBJX_NAME);
 212:..\..\..\lvgl\version_6.1.2\lvgl\src\lv_objx/lv_spinbox.c **** 
 213:..\..\..\lvgl\version_6.1.2\lvgl\src\lv_objx/lv_spinbox.c ****     lv_spinbox_ext_t * ext  = lv_obj_get_ext_attr(spinbox);
 613              		.loc 2 213 0
 614 000c 7868     		ldr	r0, [r7, #4]
 615 000e FFF7FEFF 		bl	lv_obj_get_ext_attr
 616 0012 F860     		str	r0, [r7, #12]
 214:..\..\..\lvgl\version_6.1.2\lvgl\src\lv_objx/lv_spinbox.c ****     ext->digit_padding_left = padding;
 617              		.loc 2 214 0
 618 0014 FB78     		ldrb	r3, [r7, #3]
 619 0016 03F00F03 		and	r3, r3, #15
 620 001a D9B2     		uxtb	r1, r3
 621 001c FA68     		ldr	r2, [r7, #12]
 622 001e 92F87130 		ldrb	r3, [r2, #113]
 623 0022 61F30303 		bfi	r3, r1, #0, #4
 624 0026 82F87130 		strb	r3, [r2, #113]
 215:..\..\..\lvgl\version_6.1.2\lvgl\src\lv_objx/lv_spinbox.c ****     lv_spinbox_updatevalue(spinbox);
 625              		.loc 2 215 0
 626 002a 7868     		ldr	r0, [r7, #4]
 627 002c FFF7FEFF 		bl	lv_spinbox_updatevalue
 216:..\..\..\lvgl\version_6.1.2\lvgl\src\lv_objx/lv_spinbox.c **** }
 628              		.loc 2 216 0
 629 0030 00BF     		nop
 630 0032 1037     		adds	r7, r7, #16
 631              		.cfi_def_cfa_offset 8
 632 0034 BD46     		mov	sp, r7
 633              		.cfi_def_cfa_register 13
 634              		@ sp needed
 635 0036 80BD     		pop	{r7, pc}
 636              		.cfi_endproc
 637              	.LFE63:
 638              		.size	lv_spinbox_set_padding_left, .-lv_spinbox_set_padding_left
 639              		.section	.text.lv_spinbox_get_value,"ax",%progbits
 640              		.align	2
 641              		.global	lv_spinbox_get_value
 642              		.thumb
 643              		.thumb_func
 644              		.type	lv_spinbox_get_value, %function
 645              	lv_spinbox_get_value:
 646              	.LFB64:
 217:..\..\..\lvgl\version_6.1.2\lvgl\src\lv_objx/lv_spinbox.c **** 
 218:..\..\..\lvgl\version_6.1.2\lvgl\src\lv_objx/lv_spinbox.c **** /*=====================
 219:..\..\..\lvgl\version_6.1.2\lvgl\src\lv_objx/lv_spinbox.c ****  * Getter functions
 220:..\..\..\lvgl\version_6.1.2\lvgl\src\lv_objx/lv_spinbox.c ****  *====================*/
 221:..\..\..\lvgl\version_6.1.2\lvgl\src\lv_objx/lv_spinbox.c **** 
 222:..\..\..\lvgl\version_6.1.2\lvgl\src\lv_objx/lv_spinbox.c **** /**
 223:..\..\..\lvgl\version_6.1.2\lvgl\src\lv_objx/lv_spinbox.c ****  * Get the spinbox numeral value (user has to convert to float according to its digit format)
 224:..\..\..\lvgl\version_6.1.2\lvgl\src\lv_objx/lv_spinbox.c ****  * @param spinbox pointer to spinbox
 225:..\..\..\lvgl\version_6.1.2\lvgl\src\lv_objx/lv_spinbox.c ****  * @return value integer value of the spinbox
 226:..\..\..\lvgl\version_6.1.2\lvgl\src\lv_objx/lv_spinbox.c ****  */
 227:..\..\..\lvgl\version_6.1.2\lvgl\src\lv_objx/lv_spinbox.c **** int32_t lv_spinbox_get_value(lv_obj_t * spinbox)
 228:..\..\..\lvgl\version_6.1.2\lvgl\src\lv_objx/lv_spinbox.c **** {
 647              		.loc 2 228 0
 648              		.cfi_startproc
 649              		@ args = 0, pretend = 0, frame = 16
ARM GAS  C:\Users\tmj32\AppData\Local\Temp\cci6nv1n.s 			page 18


 650              		@ frame_needed = 1, uses_anonymous_args = 0
 651 0000 80B5     		push	{r7, lr}
 652              		.cfi_def_cfa_offset 8
 653              		.cfi_offset 7, -8
 654              		.cfi_offset 14, -4
 655 0002 84B0     		sub	sp, sp, #16
 656              		.cfi_def_cfa_offset 24
 657 0004 00AF     		add	r7, sp, #0
 658              		.cfi_def_cfa_register 7
 659 0006 7860     		str	r0, [r7, #4]
 229:..\..\..\lvgl\version_6.1.2\lvgl\src\lv_objx/lv_spinbox.c ****     LV_ASSERT_OBJ(spinbox, LV_OBJX_NAME);
 230:..\..\..\lvgl\version_6.1.2\lvgl\src\lv_objx/lv_spinbox.c **** 
 231:..\..\..\lvgl\version_6.1.2\lvgl\src\lv_objx/lv_spinbox.c ****     lv_spinbox_ext_t * ext = lv_obj_get_ext_attr(spinbox);
 660              		.loc 2 231 0
 661 0008 7868     		ldr	r0, [r7, #4]
 662 000a FFF7FEFF 		bl	lv_obj_get_ext_attr
 663 000e F860     		str	r0, [r7, #12]
 232:..\..\..\lvgl\version_6.1.2\lvgl\src\lv_objx/lv_spinbox.c **** 
 233:..\..\..\lvgl\version_6.1.2\lvgl\src\lv_objx/lv_spinbox.c ****     return ext->value;
 664              		.loc 2 233 0
 665 0010 FB68     		ldr	r3, [r7, #12]
 666 0012 1B6E     		ldr	r3, [r3, #96]
 234:..\..\..\lvgl\version_6.1.2\lvgl\src\lv_objx/lv_spinbox.c **** }
 667              		.loc 2 234 0
 668 0014 1846     		mov	r0, r3
 669 0016 1037     		adds	r7, r7, #16
 670              		.cfi_def_cfa_offset 8
 671 0018 BD46     		mov	sp, r7
 672              		.cfi_def_cfa_register 13
 673              		@ sp needed
 674 001a 80BD     		pop	{r7, pc}
 675              		.cfi_endproc
 676              	.LFE64:
 677              		.size	lv_spinbox_get_value, .-lv_spinbox_get_value
 678              		.section	.text.lv_spinbox_step_next,"ax",%progbits
 679              		.align	2
 680              		.global	lv_spinbox_step_next
 681              		.thumb
 682              		.thumb_func
 683              		.type	lv_spinbox_step_next, %function
 684              	lv_spinbox_step_next:
 685              	.LFB65:
 235:..\..\..\lvgl\version_6.1.2\lvgl\src\lv_objx/lv_spinbox.c **** 
 236:..\..\..\lvgl\version_6.1.2\lvgl\src\lv_objx/lv_spinbox.c **** /*=====================
 237:..\..\..\lvgl\version_6.1.2\lvgl\src\lv_objx/lv_spinbox.c ****  * Other functions
 238:..\..\..\lvgl\version_6.1.2\lvgl\src\lv_objx/lv_spinbox.c ****  *====================*/
 239:..\..\..\lvgl\version_6.1.2\lvgl\src\lv_objx/lv_spinbox.c **** 
 240:..\..\..\lvgl\version_6.1.2\lvgl\src\lv_objx/lv_spinbox.c **** /**
 241:..\..\..\lvgl\version_6.1.2\lvgl\src\lv_objx/lv_spinbox.c ****  * Select next lower digit for edition
 242:..\..\..\lvgl\version_6.1.2\lvgl\src\lv_objx/lv_spinbox.c ****  * @param spinbox pointer to spinbox
 243:..\..\..\lvgl\version_6.1.2\lvgl\src\lv_objx/lv_spinbox.c ****  */
 244:..\..\..\lvgl\version_6.1.2\lvgl\src\lv_objx/lv_spinbox.c **** void lv_spinbox_step_next(lv_obj_t * spinbox)
 245:..\..\..\lvgl\version_6.1.2\lvgl\src\lv_objx/lv_spinbox.c **** {
 686              		.loc 2 245 0
 687              		.cfi_startproc
 688              		@ args = 0, pretend = 0, frame = 16
 689              		@ frame_needed = 1, uses_anonymous_args = 0
ARM GAS  C:\Users\tmj32\AppData\Local\Temp\cci6nv1n.s 			page 19


 690 0000 80B5     		push	{r7, lr}
 691              		.cfi_def_cfa_offset 8
 692              		.cfi_offset 7, -8
 693              		.cfi_offset 14, -4
 694 0002 84B0     		sub	sp, sp, #16
 695              		.cfi_def_cfa_offset 24
 696 0004 00AF     		add	r7, sp, #0
 697              		.cfi_def_cfa_register 7
 698 0006 7860     		str	r0, [r7, #4]
 246:..\..\..\lvgl\version_6.1.2\lvgl\src\lv_objx/lv_spinbox.c ****     LV_ASSERT_OBJ(spinbox, LV_OBJX_NAME);
 247:..\..\..\lvgl\version_6.1.2\lvgl\src\lv_objx/lv_spinbox.c **** 
 248:..\..\..\lvgl\version_6.1.2\lvgl\src\lv_objx/lv_spinbox.c ****     lv_spinbox_ext_t * ext = lv_obj_get_ext_attr(spinbox);
 699              		.loc 2 248 0
 700 0008 7868     		ldr	r0, [r7, #4]
 701 000a FFF7FEFF 		bl	lv_obj_get_ext_attr
 702 000e F860     		str	r0, [r7, #12]
 249:..\..\..\lvgl\version_6.1.2\lvgl\src\lv_objx/lv_spinbox.c **** 
 250:..\..\..\lvgl\version_6.1.2\lvgl\src\lv_objx/lv_spinbox.c ****     int32_t new_step = ext->step / 10;
 703              		.loc 2 250 0
 704 0010 FB68     		ldr	r3, [r7, #12]
 705 0012 DB6E     		ldr	r3, [r3, #108]
 706 0014 0B4A     		ldr	r2, .L40
 707 0016 82FB0312 		smull	r1, r2, r2, r3
 708 001a 9210     		asrs	r2, r2, #2
 709 001c DB17     		asrs	r3, r3, #31
 710 001e D31A     		subs	r3, r2, r3
 711 0020 BB60     		str	r3, [r7, #8]
 251:..\..\..\lvgl\version_6.1.2\lvgl\src\lv_objx/lv_spinbox.c ****     if((new_step) > 0)
 712              		.loc 2 251 0
 713 0022 BB68     		ldr	r3, [r7, #8]
 714 0024 002B     		cmp	r3, #0
 715 0026 03DD     		ble	.L38
 252:..\..\..\lvgl\version_6.1.2\lvgl\src\lv_objx/lv_spinbox.c ****         ext->step = new_step;
 716              		.loc 2 252 0
 717 0028 FB68     		ldr	r3, [r7, #12]
 718 002a BA68     		ldr	r2, [r7, #8]
 719 002c DA66     		str	r2, [r3, #108]
 720 002e 02E0     		b	.L39
 721              	.L38:
 253:..\..\..\lvgl\version_6.1.2\lvgl\src\lv_objx/lv_spinbox.c ****     else
 254:..\..\..\lvgl\version_6.1.2\lvgl\src\lv_objx/lv_spinbox.c ****         ext->step = 1;
 722              		.loc 2 254 0
 723 0030 FB68     		ldr	r3, [r7, #12]
 724 0032 0122     		movs	r2, #1
 725 0034 DA66     		str	r2, [r3, #108]
 726              	.L39:
 255:..\..\..\lvgl\version_6.1.2\lvgl\src\lv_objx/lv_spinbox.c **** 
 256:..\..\..\lvgl\version_6.1.2\lvgl\src\lv_objx/lv_spinbox.c ****     lv_spinbox_updatevalue(spinbox);
 727              		.loc 2 256 0
 728 0036 7868     		ldr	r0, [r7, #4]
 729 0038 FFF7FEFF 		bl	lv_spinbox_updatevalue
 257:..\..\..\lvgl\version_6.1.2\lvgl\src\lv_objx/lv_spinbox.c **** }
 730              		.loc 2 257 0
 731 003c 00BF     		nop
 732 003e 1037     		adds	r7, r7, #16
 733              		.cfi_def_cfa_offset 8
 734 0040 BD46     		mov	sp, r7
ARM GAS  C:\Users\tmj32\AppData\Local\Temp\cci6nv1n.s 			page 20


 735              		.cfi_def_cfa_register 13
 736              		@ sp needed
 737 0042 80BD     		pop	{r7, pc}
 738              	.L41:
 739              		.align	2
 740              	.L40:
 741 0044 67666666 		.word	1717986919
 742              		.cfi_endproc
 743              	.LFE65:
 744              		.size	lv_spinbox_step_next, .-lv_spinbox_step_next
 745              		.section	.text.lv_spinbox_step_prev,"ax",%progbits
 746              		.align	2
 747              		.global	lv_spinbox_step_prev
 748              		.thumb
 749              		.thumb_func
 750              		.type	lv_spinbox_step_prev, %function
 751              	lv_spinbox_step_prev:
 752              	.LFB66:
 258:..\..\..\lvgl\version_6.1.2\lvgl\src\lv_objx/lv_spinbox.c **** 
 259:..\..\..\lvgl\version_6.1.2\lvgl\src\lv_objx/lv_spinbox.c **** /**
 260:..\..\..\lvgl\version_6.1.2\lvgl\src\lv_objx/lv_spinbox.c ****  * Select next higher digit for edition
 261:..\..\..\lvgl\version_6.1.2\lvgl\src\lv_objx/lv_spinbox.c ****  * @param spinbox pointer to spinbox
 262:..\..\..\lvgl\version_6.1.2\lvgl\src\lv_objx/lv_spinbox.c ****  */
 263:..\..\..\lvgl\version_6.1.2\lvgl\src\lv_objx/lv_spinbox.c **** void lv_spinbox_step_prev(lv_obj_t * spinbox)
 264:..\..\..\lvgl\version_6.1.2\lvgl\src\lv_objx/lv_spinbox.c **** {
 753              		.loc 2 264 0
 754              		.cfi_startproc
 755              		@ args = 0, pretend = 0, frame = 24
 756              		@ frame_needed = 1, uses_anonymous_args = 0
 757 0000 80B5     		push	{r7, lr}
 758              		.cfi_def_cfa_offset 8
 759              		.cfi_offset 7, -8
 760              		.cfi_offset 14, -4
 761 0002 86B0     		sub	sp, sp, #24
 762              		.cfi_def_cfa_offset 32
 763 0004 00AF     		add	r7, sp, #0
 764              		.cfi_def_cfa_register 7
 765 0006 7860     		str	r0, [r7, #4]
 265:..\..\..\lvgl\version_6.1.2\lvgl\src\lv_objx/lv_spinbox.c ****     LV_ASSERT_OBJ(spinbox, LV_OBJX_NAME);
 266:..\..\..\lvgl\version_6.1.2\lvgl\src\lv_objx/lv_spinbox.c **** 
 267:..\..\..\lvgl\version_6.1.2\lvgl\src\lv_objx/lv_spinbox.c ****     lv_spinbox_ext_t * ext = lv_obj_get_ext_attr(spinbox);
 766              		.loc 2 267 0
 767 0008 7868     		ldr	r0, [r7, #4]
 768 000a FFF7FEFF 		bl	lv_obj_get_ext_attr
 769 000e 7861     		str	r0, [r7, #20]
 268:..\..\..\lvgl\version_6.1.2\lvgl\src\lv_objx/lv_spinbox.c ****     int32_t step_limit;
 269:..\..\..\lvgl\version_6.1.2\lvgl\src\lv_objx/lv_spinbox.c ****     step_limit       = LV_MATH_MAX(ext->range_max, (ext->range_min < 0 ? (-ext->range_min) : ext->r
 770              		.loc 2 269 0
 771 0010 7B69     		ldr	r3, [r7, #20]
 772 0012 9B6E     		ldr	r3, [r3, #104]
 773 0014 83EAE372 		eor	r2, r3, r3, asr #31
 774 0018 A2EBE372 		sub	r2, r2, r3, asr #31
 775 001c 7B69     		ldr	r3, [r7, #20]
 776 001e 5B6E     		ldr	r3, [r3, #100]
 777 0020 9342     		cmp	r3, r2
 778 0022 B8BF     		it	lt
 779 0024 1346     		movlt	r3, r2
ARM GAS  C:\Users\tmj32\AppData\Local\Temp\cci6nv1n.s 			page 21


 780 0026 3B61     		str	r3, [r7, #16]
 270:..\..\..\lvgl\version_6.1.2\lvgl\src\lv_objx/lv_spinbox.c ****     int32_t new_step = ext->step * 10;
 781              		.loc 2 270 0
 782 0028 7B69     		ldr	r3, [r7, #20]
 783 002a DA6E     		ldr	r2, [r3, #108]
 784 002c 1346     		mov	r3, r2
 785 002e 9B00     		lsls	r3, r3, #2
 786 0030 1344     		add	r3, r3, r2
 787 0032 5B00     		lsls	r3, r3, #1
 788 0034 FB60     		str	r3, [r7, #12]
 271:..\..\..\lvgl\version_6.1.2\lvgl\src\lv_objx/lv_spinbox.c ****     if(new_step <= step_limit) ext->step = new_step;
 789              		.loc 2 271 0
 790 0036 FA68     		ldr	r2, [r7, #12]
 791 0038 3B69     		ldr	r3, [r7, #16]
 792 003a 9A42     		cmp	r2, r3
 793 003c 02DC     		bgt	.L43
 794              		.loc 2 271 0 is_stmt 0 discriminator 1
 795 003e 7B69     		ldr	r3, [r7, #20]
 796 0040 FA68     		ldr	r2, [r7, #12]
 797 0042 DA66     		str	r2, [r3, #108]
 798              	.L43:
 272:..\..\..\lvgl\version_6.1.2\lvgl\src\lv_objx/lv_spinbox.c **** 
 273:..\..\..\lvgl\version_6.1.2\lvgl\src\lv_objx/lv_spinbox.c ****     lv_spinbox_updatevalue(spinbox);
 799              		.loc 2 273 0 is_stmt 1
 800 0044 7868     		ldr	r0, [r7, #4]
 801 0046 FFF7FEFF 		bl	lv_spinbox_updatevalue
 274:..\..\..\lvgl\version_6.1.2\lvgl\src\lv_objx/lv_spinbox.c **** }
 802              		.loc 2 274 0
 803 004a 00BF     		nop
 804 004c 1837     		adds	r7, r7, #24
 805              		.cfi_def_cfa_offset 8
 806 004e BD46     		mov	sp, r7
 807              		.cfi_def_cfa_register 13
 808              		@ sp needed
 809 0050 80BD     		pop	{r7, pc}
 810              		.cfi_endproc
 811              	.LFE66:
 812              		.size	lv_spinbox_step_prev, .-lv_spinbox_step_prev
 813 0052 00BF     		.section	.text.lv_spinbox_increment,"ax",%progbits
 814              		.align	2
 815              		.global	lv_spinbox_increment
 816              		.thumb
 817              		.thumb_func
 818              		.type	lv_spinbox_increment, %function
 819              	lv_spinbox_increment:
 820              	.LFB67:
 275:..\..\..\lvgl\version_6.1.2\lvgl\src\lv_objx/lv_spinbox.c **** 
 276:..\..\..\lvgl\version_6.1.2\lvgl\src\lv_objx/lv_spinbox.c **** /**
 277:..\..\..\lvgl\version_6.1.2\lvgl\src\lv_objx/lv_spinbox.c ****  * Increment spinbox value by one step
 278:..\..\..\lvgl\version_6.1.2\lvgl\src\lv_objx/lv_spinbox.c ****  * @param spinbox pointer to spinbox
 279:..\..\..\lvgl\version_6.1.2\lvgl\src\lv_objx/lv_spinbox.c ****  */
 280:..\..\..\lvgl\version_6.1.2\lvgl\src\lv_objx/lv_spinbox.c **** void lv_spinbox_increment(lv_obj_t * spinbox)
 281:..\..\..\lvgl\version_6.1.2\lvgl\src\lv_objx/lv_spinbox.c **** {
 821              		.loc 2 281 0
 822              		.cfi_startproc
 823              		@ args = 0, pretend = 0, frame = 16
 824              		@ frame_needed = 1, uses_anonymous_args = 0
ARM GAS  C:\Users\tmj32\AppData\Local\Temp\cci6nv1n.s 			page 22


 825 0000 80B5     		push	{r7, lr}
 826              		.cfi_def_cfa_offset 8
 827              		.cfi_offset 7, -8
 828              		.cfi_offset 14, -4
 829 0002 84B0     		sub	sp, sp, #16
 830              		.cfi_def_cfa_offset 24
 831 0004 00AF     		add	r7, sp, #0
 832              		.cfi_def_cfa_register 7
 833 0006 7860     		str	r0, [r7, #4]
 282:..\..\..\lvgl\version_6.1.2\lvgl\src\lv_objx/lv_spinbox.c ****     LV_ASSERT_OBJ(spinbox, LV_OBJX_NAME);
 283:..\..\..\lvgl\version_6.1.2\lvgl\src\lv_objx/lv_spinbox.c **** 
 284:..\..\..\lvgl\version_6.1.2\lvgl\src\lv_objx/lv_spinbox.c ****     lv_spinbox_ext_t * ext = lv_obj_get_ext_attr(spinbox);
 834              		.loc 2 284 0
 835 0008 7868     		ldr	r0, [r7, #4]
 836 000a FFF7FEFF 		bl	lv_obj_get_ext_attr
 837 000e F860     		str	r0, [r7, #12]
 285:..\..\..\lvgl\version_6.1.2\lvgl\src\lv_objx/lv_spinbox.c **** 
 286:..\..\..\lvgl\version_6.1.2\lvgl\src\lv_objx/lv_spinbox.c ****     if(ext->value + ext->step <= ext->range_max) {
 838              		.loc 2 286 0
 839 0010 FB68     		ldr	r3, [r7, #12]
 840 0012 1A6E     		ldr	r2, [r3, #96]
 841 0014 FB68     		ldr	r3, [r7, #12]
 842 0016 DB6E     		ldr	r3, [r3, #108]
 843 0018 1A44     		add	r2, r2, r3
 844 001a FB68     		ldr	r3, [r7, #12]
 845 001c 5B6E     		ldr	r3, [r3, #100]
 846 001e 9A42     		cmp	r2, r3
 847 0020 17DC     		bgt	.L45
 287:..\..\..\lvgl\version_6.1.2\lvgl\src\lv_objx/lv_spinbox.c ****         /*Special mode when zero crossing*/
 288:..\..\..\lvgl\version_6.1.2\lvgl\src\lv_objx/lv_spinbox.c ****         if((ext->value + ext->step) > 0 && ext->value < 0) ext->value = -ext->value;
 848              		.loc 2 288 0
 849 0022 FB68     		ldr	r3, [r7, #12]
 850 0024 1A6E     		ldr	r2, [r3, #96]
 851 0026 FB68     		ldr	r3, [r7, #12]
 852 0028 DB6E     		ldr	r3, [r3, #108]
 853 002a 1344     		add	r3, r3, r2
 854 002c 002B     		cmp	r3, #0
 855 002e 08DD     		ble	.L46
 856              		.loc 2 288 0 is_stmt 0 discriminator 1
 857 0030 FB68     		ldr	r3, [r7, #12]
 858 0032 1B6E     		ldr	r3, [r3, #96]
 859 0034 002B     		cmp	r3, #0
 860 0036 04DA     		bge	.L46
 861              		.loc 2 288 0 discriminator 2
 862 0038 FB68     		ldr	r3, [r7, #12]
 863 003a 1B6E     		ldr	r3, [r3, #96]
 864 003c 5A42     		negs	r2, r3
 865 003e FB68     		ldr	r3, [r7, #12]
 866 0040 1A66     		str	r2, [r3, #96]
 867              	.L46:
 289:..\..\..\lvgl\version_6.1.2\lvgl\src\lv_objx/lv_spinbox.c ****         ext->value += ext->step;
 868              		.loc 2 289 0 is_stmt 1
 869 0042 FB68     		ldr	r3, [r7, #12]
 870 0044 1A6E     		ldr	r2, [r3, #96]
 871 0046 FB68     		ldr	r3, [r7, #12]
 872 0048 DB6E     		ldr	r3, [r3, #108]
 873 004a 1A44     		add	r2, r2, r3
ARM GAS  C:\Users\tmj32\AppData\Local\Temp\cci6nv1n.s 			page 23


 874 004c FB68     		ldr	r3, [r7, #12]
 875 004e 1A66     		str	r2, [r3, #96]
 876 0050 03E0     		b	.L47
 877              	.L45:
 290:..\..\..\lvgl\version_6.1.2\lvgl\src\lv_objx/lv_spinbox.c **** 
 291:..\..\..\lvgl\version_6.1.2\lvgl\src\lv_objx/lv_spinbox.c ****     } else {
 292:..\..\..\lvgl\version_6.1.2\lvgl\src\lv_objx/lv_spinbox.c ****         ext->value = ext->range_max;
 878              		.loc 2 292 0
 879 0052 FB68     		ldr	r3, [r7, #12]
 880 0054 5A6E     		ldr	r2, [r3, #100]
 881 0056 FB68     		ldr	r3, [r7, #12]
 882 0058 1A66     		str	r2, [r3, #96]
 883              	.L47:
 293:..\..\..\lvgl\version_6.1.2\lvgl\src\lv_objx/lv_spinbox.c ****     }
 294:..\..\..\lvgl\version_6.1.2\lvgl\src\lv_objx/lv_spinbox.c **** 
 295:..\..\..\lvgl\version_6.1.2\lvgl\src\lv_objx/lv_spinbox.c ****     lv_spinbox_updatevalue(spinbox);
 884              		.loc 2 295 0
 885 005a 7868     		ldr	r0, [r7, #4]
 886 005c FFF7FEFF 		bl	lv_spinbox_updatevalue
 296:..\..\..\lvgl\version_6.1.2\lvgl\src\lv_objx/lv_spinbox.c **** }
 887              		.loc 2 296 0
 888 0060 00BF     		nop
 889 0062 1037     		adds	r7, r7, #16
 890              		.cfi_def_cfa_offset 8
 891 0064 BD46     		mov	sp, r7
 892              		.cfi_def_cfa_register 13
 893              		@ sp needed
 894 0066 80BD     		pop	{r7, pc}
 895              		.cfi_endproc
 896              	.LFE67:
 897              		.size	lv_spinbox_increment, .-lv_spinbox_increment
 898              		.section	.text.lv_spinbox_decrement,"ax",%progbits
 899              		.align	2
 900              		.global	lv_spinbox_decrement
 901              		.thumb
 902              		.thumb_func
 903              		.type	lv_spinbox_decrement, %function
 904              	lv_spinbox_decrement:
 905              	.LFB68:
 297:..\..\..\lvgl\version_6.1.2\lvgl\src\lv_objx/lv_spinbox.c **** 
 298:..\..\..\lvgl\version_6.1.2\lvgl\src\lv_objx/lv_spinbox.c **** /**
 299:..\..\..\lvgl\version_6.1.2\lvgl\src\lv_objx/lv_spinbox.c ****  * Decrement spinbox value by one step
 300:..\..\..\lvgl\version_6.1.2\lvgl\src\lv_objx/lv_spinbox.c ****  * @param spinbox pointer to spinbox
 301:..\..\..\lvgl\version_6.1.2\lvgl\src\lv_objx/lv_spinbox.c ****  */
 302:..\..\..\lvgl\version_6.1.2\lvgl\src\lv_objx/lv_spinbox.c **** void lv_spinbox_decrement(lv_obj_t * spinbox)
 303:..\..\..\lvgl\version_6.1.2\lvgl\src\lv_objx/lv_spinbox.c **** {
 906              		.loc 2 303 0
 907              		.cfi_startproc
 908              		@ args = 0, pretend = 0, frame = 16
 909              		@ frame_needed = 1, uses_anonymous_args = 0
 910 0000 80B5     		push	{r7, lr}
 911              		.cfi_def_cfa_offset 8
 912              		.cfi_offset 7, -8
 913              		.cfi_offset 14, -4
 914 0002 84B0     		sub	sp, sp, #16
 915              		.cfi_def_cfa_offset 24
 916 0004 00AF     		add	r7, sp, #0
ARM GAS  C:\Users\tmj32\AppData\Local\Temp\cci6nv1n.s 			page 24


 917              		.cfi_def_cfa_register 7
 918 0006 7860     		str	r0, [r7, #4]
 304:..\..\..\lvgl\version_6.1.2\lvgl\src\lv_objx/lv_spinbox.c ****     LV_ASSERT_OBJ(spinbox, LV_OBJX_NAME);
 305:..\..\..\lvgl\version_6.1.2\lvgl\src\lv_objx/lv_spinbox.c **** 
 306:..\..\..\lvgl\version_6.1.2\lvgl\src\lv_objx/lv_spinbox.c ****     lv_spinbox_ext_t * ext = lv_obj_get_ext_attr(spinbox);
 919              		.loc 2 306 0
 920 0008 7868     		ldr	r0, [r7, #4]
 921 000a FFF7FEFF 		bl	lv_obj_get_ext_attr
 922 000e F860     		str	r0, [r7, #12]
 307:..\..\..\lvgl\version_6.1.2\lvgl\src\lv_objx/lv_spinbox.c **** 
 308:..\..\..\lvgl\version_6.1.2\lvgl\src\lv_objx/lv_spinbox.c ****     if(ext->value - ext->step >= ext->range_min) {
 923              		.loc 2 308 0
 924 0010 FB68     		ldr	r3, [r7, #12]
 925 0012 1A6E     		ldr	r2, [r3, #96]
 926 0014 FB68     		ldr	r3, [r7, #12]
 927 0016 DB6E     		ldr	r3, [r3, #108]
 928 0018 D21A     		subs	r2, r2, r3
 929 001a FB68     		ldr	r3, [r7, #12]
 930 001c 9B6E     		ldr	r3, [r3, #104]
 931 001e 9A42     		cmp	r2, r3
 932 0020 17DB     		blt	.L49
 309:..\..\..\lvgl\version_6.1.2\lvgl\src\lv_objx/lv_spinbox.c ****         /*Special mode when zero crossing*/
 310:..\..\..\lvgl\version_6.1.2\lvgl\src\lv_objx/lv_spinbox.c ****         if((ext->value - ext->step) < 0 && ext->value > 0) ext->value = -ext->value;
 933              		.loc 2 310 0
 934 0022 FB68     		ldr	r3, [r7, #12]
 935 0024 1A6E     		ldr	r2, [r3, #96]
 936 0026 FB68     		ldr	r3, [r7, #12]
 937 0028 DB6E     		ldr	r3, [r3, #108]
 938 002a D31A     		subs	r3, r2, r3
 939 002c 002B     		cmp	r3, #0
 940 002e 08DA     		bge	.L50
 941              		.loc 2 310 0 is_stmt 0 discriminator 1
 942 0030 FB68     		ldr	r3, [r7, #12]
 943 0032 1B6E     		ldr	r3, [r3, #96]
 944 0034 002B     		cmp	r3, #0
 945 0036 04DD     		ble	.L50
 946              		.loc 2 310 0 discriminator 2
 947 0038 FB68     		ldr	r3, [r7, #12]
 948 003a 1B6E     		ldr	r3, [r3, #96]
 949 003c 5A42     		negs	r2, r3
 950 003e FB68     		ldr	r3, [r7, #12]
 951 0040 1A66     		str	r2, [r3, #96]
 952              	.L50:
 311:..\..\..\lvgl\version_6.1.2\lvgl\src\lv_objx/lv_spinbox.c ****         ext->value -= ext->step;
 953              		.loc 2 311 0 is_stmt 1
 954 0042 FB68     		ldr	r3, [r7, #12]
 955 0044 1A6E     		ldr	r2, [r3, #96]
 956 0046 FB68     		ldr	r3, [r7, #12]
 957 0048 DB6E     		ldr	r3, [r3, #108]
 958 004a D21A     		subs	r2, r2, r3
 959 004c FB68     		ldr	r3, [r7, #12]
 960 004e 1A66     		str	r2, [r3, #96]
 961 0050 03E0     		b	.L51
 962              	.L49:
 312:..\..\..\lvgl\version_6.1.2\lvgl\src\lv_objx/lv_spinbox.c ****     } else {
 313:..\..\..\lvgl\version_6.1.2\lvgl\src\lv_objx/lv_spinbox.c ****         ext->value = ext->range_min;
 963              		.loc 2 313 0
ARM GAS  C:\Users\tmj32\AppData\Local\Temp\cci6nv1n.s 			page 25


 964 0052 FB68     		ldr	r3, [r7, #12]
 965 0054 9A6E     		ldr	r2, [r3, #104]
 966 0056 FB68     		ldr	r3, [r7, #12]
 967 0058 1A66     		str	r2, [r3, #96]
 968              	.L51:
 314:..\..\..\lvgl\version_6.1.2\lvgl\src\lv_objx/lv_spinbox.c ****     }
 315:..\..\..\lvgl\version_6.1.2\lvgl\src\lv_objx/lv_spinbox.c **** 
 316:..\..\..\lvgl\version_6.1.2\lvgl\src\lv_objx/lv_spinbox.c ****     lv_spinbox_updatevalue(spinbox);
 969              		.loc 2 316 0
 970 005a 7868     		ldr	r0, [r7, #4]
 971 005c FFF7FEFF 		bl	lv_spinbox_updatevalue
 317:..\..\..\lvgl\version_6.1.2\lvgl\src\lv_objx/lv_spinbox.c **** }
 972              		.loc 2 317 0
 973 0060 00BF     		nop
 974 0062 1037     		adds	r7, r7, #16
 975              		.cfi_def_cfa_offset 8
 976 0064 BD46     		mov	sp, r7
 977              		.cfi_def_cfa_register 13
 978              		@ sp needed
 979 0066 80BD     		pop	{r7, pc}
 980              		.cfi_endproc
 981              	.LFE68:
 982              		.size	lv_spinbox_decrement, .-lv_spinbox_decrement
 983              		.section	.rodata
 984              		.align	2
 985              	.LC0:
 986 0000 6C765F73 		.ascii	"lv_spinbox\000"
 986      70696E62 
 986      6F7800
 987              		.section	.text.lv_spinbox_signal,"ax",%progbits
 988              		.align	2
 989              		.thumb
 990              		.thumb_func
 991              		.type	lv_spinbox_signal, %function
 992              	lv_spinbox_signal:
 993              	.LFB69:
 318:..\..\..\lvgl\version_6.1.2\lvgl\src\lv_objx/lv_spinbox.c **** 
 319:..\..\..\lvgl\version_6.1.2\lvgl\src\lv_objx/lv_spinbox.c **** /**********************
 320:..\..\..\lvgl\version_6.1.2\lvgl\src\lv_objx/lv_spinbox.c ****  *   STATIC FUNCTIONS
 321:..\..\..\lvgl\version_6.1.2\lvgl\src\lv_objx/lv_spinbox.c ****  **********************/
 322:..\..\..\lvgl\version_6.1.2\lvgl\src\lv_objx/lv_spinbox.c **** 
 323:..\..\..\lvgl\version_6.1.2\lvgl\src\lv_objx/lv_spinbox.c **** /**
 324:..\..\..\lvgl\version_6.1.2\lvgl\src\lv_objx/lv_spinbox.c ****  * Signal function of the spinbox
 325:..\..\..\lvgl\version_6.1.2\lvgl\src\lv_objx/lv_spinbox.c ****  * @param spinbox pointer to a spinbox object
 326:..\..\..\lvgl\version_6.1.2\lvgl\src\lv_objx/lv_spinbox.c ****  * @param sign a signal type from lv_signal_t enum
 327:..\..\..\lvgl\version_6.1.2\lvgl\src\lv_objx/lv_spinbox.c ****  * @param param pointer to a signal specific variable
 328:..\..\..\lvgl\version_6.1.2\lvgl\src\lv_objx/lv_spinbox.c ****  * @return LV_RES_OK: the object is not deleted in the function; LV_RES_INV: the object is deleted
 329:..\..\..\lvgl\version_6.1.2\lvgl\src\lv_objx/lv_spinbox.c ****  */
 330:..\..\..\lvgl\version_6.1.2\lvgl\src\lv_objx/lv_spinbox.c **** static lv_res_t lv_spinbox_signal(lv_obj_t * spinbox, lv_signal_t sign, void * param)
 331:..\..\..\lvgl\version_6.1.2\lvgl\src\lv_objx/lv_spinbox.c **** {
 994              		.loc 2 331 0
 995              		.cfi_startproc
 996              		@ args = 0, pretend = 0, frame = 40
 997              		@ frame_needed = 1, uses_anonymous_args = 0
 998 0000 80B5     		push	{r7, lr}
 999              		.cfi_def_cfa_offset 8
 1000              		.cfi_offset 7, -8
ARM GAS  C:\Users\tmj32\AppData\Local\Temp\cci6nv1n.s 			page 26


 1001              		.cfi_offset 14, -4
 1002 0002 8AB0     		sub	sp, sp, #40
 1003              		.cfi_def_cfa_offset 48
 1004 0004 00AF     		add	r7, sp, #0
 1005              		.cfi_def_cfa_register 7
 1006 0006 F860     		str	r0, [r7, #12]
 1007 0008 0B46     		mov	r3, r1
 1008 000a 7A60     		str	r2, [r7, #4]
 1009 000c FB72     		strb	r3, [r7, #11]
 332:..\..\..\lvgl\version_6.1.2\lvgl\src\lv_objx/lv_spinbox.c **** 
 333:..\..\..\lvgl\version_6.1.2\lvgl\src\lv_objx/lv_spinbox.c ****     lv_res_t res = LV_RES_OK;
 1010              		.loc 2 333 0
 1011 000e 0123     		movs	r3, #1
 1012 0010 87F82730 		strb	r3, [r7, #39]
 334:..\..\..\lvgl\version_6.1.2\lvgl\src\lv_objx/lv_spinbox.c **** 
 335:..\..\..\lvgl\version_6.1.2\lvgl\src\lv_objx/lv_spinbox.c ****     /* Include the ancient signal function */
 336:..\..\..\lvgl\version_6.1.2\lvgl\src\lv_objx/lv_spinbox.c ****     if(sign != LV_SIGNAL_CONTROL) {
 1013              		.loc 2 336 0
 1014 0014 FB7A     		ldrb	r3, [r7, #11]	@ zero_extendqisi2
 1015 0016 122B     		cmp	r3, #18
 1016 0018 0FD0     		beq	.L53
 337:..\..\..\lvgl\version_6.1.2\lvgl\src\lv_objx/lv_spinbox.c ****         res = ancestor_signal(spinbox, sign, param);
 1017              		.loc 2 337 0
 1018 001a 434B     		ldr	r3, .L71
 1019 001c 1B68     		ldr	r3, [r3]
 1020 001e F97A     		ldrb	r1, [r7, #11]	@ zero_extendqisi2
 1021 0020 7A68     		ldr	r2, [r7, #4]
 1022 0022 F868     		ldr	r0, [r7, #12]
 1023 0024 9847     		blx	r3
 1024 0026 0346     		mov	r3, r0
 1025 0028 87F82730 		strb	r3, [r7, #39]
 338:..\..\..\lvgl\version_6.1.2\lvgl\src\lv_objx/lv_spinbox.c ****         if(res != LV_RES_OK) return res;
 1026              		.loc 2 338 0
 1027 002c 97F82730 		ldrb	r3, [r7, #39]	@ zero_extendqisi2
 1028 0030 012B     		cmp	r3, #1
 1029 0032 02D0     		beq	.L53
 1030              		.loc 2 338 0 is_stmt 0 discriminator 1
 1031 0034 97F82730 		ldrb	r3, [r7, #39]	@ zero_extendqisi2
 1032 0038 72E0     		b	.L54
 1033              	.L53:
 339:..\..\..\lvgl\version_6.1.2\lvgl\src\lv_objx/lv_spinbox.c ****     }
 340:..\..\..\lvgl\version_6.1.2\lvgl\src\lv_objx/lv_spinbox.c ****     if(sign == LV_SIGNAL_GET_TYPE) return lv_obj_handle_get_type_signal(param, LV_OBJX_NAME);
 1034              		.loc 2 340 0 is_stmt 1
 1035 003a FB7A     		ldrb	r3, [r7, #11]	@ zero_extendqisi2
 1036 003c 072B     		cmp	r3, #7
 1037 003e 05D1     		bne	.L55
 1038              		.loc 2 340 0 is_stmt 0 discriminator 1
 1039 0040 3A49     		ldr	r1, .L71+4
 1040 0042 7868     		ldr	r0, [r7, #4]
 1041 0044 FFF7FEFF 		bl	lv_obj_handle_get_type_signal
 1042 0048 0346     		mov	r3, r0
 1043 004a 69E0     		b	.L54
 1044              	.L55:
 341:..\..\..\lvgl\version_6.1.2\lvgl\src\lv_objx/lv_spinbox.c **** 
 342:..\..\..\lvgl\version_6.1.2\lvgl\src\lv_objx/lv_spinbox.c **** 
 343:..\..\..\lvgl\version_6.1.2\lvgl\src\lv_objx/lv_spinbox.c ****     lv_spinbox_ext_t * ext = lv_obj_get_ext_attr(spinbox);
 1045              		.loc 2 343 0 is_stmt 1
ARM GAS  C:\Users\tmj32\AppData\Local\Temp\cci6nv1n.s 			page 27


 1046 004c F868     		ldr	r0, [r7, #12]
 1047 004e FFF7FEFF 		bl	lv_obj_get_ext_attr
 1048 0052 3862     		str	r0, [r7, #32]
 344:..\..\..\lvgl\version_6.1.2\lvgl\src\lv_objx/lv_spinbox.c ****     if(sign == LV_SIGNAL_CLEANUP) {
 1049              		.loc 2 344 0
 1050 0054 FB7A     		ldrb	r3, [r7, #11]	@ zero_extendqisi2
 1051 0056 002B     		cmp	r3, #0
 1052 0058 60D0     		beq	.L56
 345:..\..\..\lvgl\version_6.1.2\lvgl\src\lv_objx/lv_spinbox.c ****         /*Nothing to cleanup. (No dynamically allocated memory in 'ext')*/
 346:..\..\..\lvgl\version_6.1.2\lvgl\src\lv_objx/lv_spinbox.c ****     } else if(sign == LV_SIGNAL_GET_TYPE) {
 1053              		.loc 2 346 0
 1054 005a FB7A     		ldrb	r3, [r7, #11]	@ zero_extendqisi2
 1055 005c 072B     		cmp	r3, #7
 1056 005e 1ED1     		bne	.L57
 1057              	.LBB4:
 347:..\..\..\lvgl\version_6.1.2\lvgl\src\lv_objx/lv_spinbox.c ****         lv_obj_type_t * buf = param;
 1058              		.loc 2 347 0
 1059 0060 7B68     		ldr	r3, [r7, #4]
 1060 0062 FB61     		str	r3, [r7, #28]
 348:..\..\..\lvgl\version_6.1.2\lvgl\src\lv_objx/lv_spinbox.c ****         uint8_t i;
 349:..\..\..\lvgl\version_6.1.2\lvgl\src\lv_objx/lv_spinbox.c ****         for(i = 0; i < LV_MAX_ANCESTOR_NUM - 1; i++) { /*Find the last set data*/
 1061              		.loc 2 349 0
 1062 0064 0023     		movs	r3, #0
 1063 0066 87F82630 		strb	r3, [r7, #38]
 1064 006a 0BE0     		b	.L58
 1065              	.L61:
 350:..\..\..\lvgl\version_6.1.2\lvgl\src\lv_objx/lv_spinbox.c ****             if(buf->type[i] == NULL) break;
 1066              		.loc 2 350 0
 1067 006c 97F82620 		ldrb	r2, [r7, #38]	@ zero_extendqisi2
 1068 0070 FB69     		ldr	r3, [r7, #28]
 1069 0072 53F82230 		ldr	r3, [r3, r2, lsl #2]
 1070 0076 002B     		cmp	r3, #0
 1071 0078 09D0     		beq	.L70
 349:..\..\..\lvgl\version_6.1.2\lvgl\src\lv_objx/lv_spinbox.c ****             if(buf->type[i] == NULL) break;
 1072              		.loc 2 349 0 discriminator 2
 1073 007a 97F82630 		ldrb	r3, [r7, #38]	@ zero_extendqisi2
 1074 007e 0133     		adds	r3, r3, #1
 1075 0080 87F82630 		strb	r3, [r7, #38]
 1076              	.L58:
 349:..\..\..\lvgl\version_6.1.2\lvgl\src\lv_objx/lv_spinbox.c ****             if(buf->type[i] == NULL) break;
 1077              		.loc 2 349 0 is_stmt 0 discriminator 1
 1078 0084 97F82630 		ldrb	r3, [r7, #38]	@ zero_extendqisi2
 1079 0088 062B     		cmp	r3, #6
 1080 008a EFD9     		bls	.L61
 1081 008c 00E0     		b	.L60
 1082              	.L70:
 1083              		.loc 2 350 0 is_stmt 1
 1084 008e 00BF     		nop
 1085              	.L60:
 351:..\..\..\lvgl\version_6.1.2\lvgl\src\lv_objx/lv_spinbox.c ****         }
 352:..\..\..\lvgl\version_6.1.2\lvgl\src\lv_objx/lv_spinbox.c ****         buf->type[i] = "lv_spinbox";
 1086              		.loc 2 352 0
 1087 0090 97F82620 		ldrb	r2, [r7, #38]	@ zero_extendqisi2
 1088 0094 FB69     		ldr	r3, [r7, #28]
 1089 0096 2549     		ldr	r1, .L71+4
 1090 0098 43F82210 		str	r1, [r3, r2, lsl #2]
 1091              	.LBE4:
ARM GAS  C:\Users\tmj32\AppData\Local\Temp\cci6nv1n.s 			page 28


 1092 009c 3EE0     		b	.L56
 1093              	.L57:
 353:..\..\..\lvgl\version_6.1.2\lvgl\src\lv_objx/lv_spinbox.c ****     } else if(sign == LV_SIGNAL_RELEASED) {
 1094              		.loc 2 353 0
 1095 009e FB7A     		ldrb	r3, [r7, #11]	@ zero_extendqisi2
 1096 00a0 0B2B     		cmp	r3, #11
 1097 00a2 3BD0     		beq	.L56
 354:..\..\..\lvgl\version_6.1.2\lvgl\src\lv_objx/lv_spinbox.c ****         /*If released with an ENCODER then move to the next digit*/
 355:..\..\..\lvgl\version_6.1.2\lvgl\src\lv_objx/lv_spinbox.c **** #if LV_USE_GROUP
 356:..\..\..\lvgl\version_6.1.2\lvgl\src\lv_objx/lv_spinbox.c ****         lv_indev_t * indev = lv_indev_get_act();
 357:..\..\..\lvgl\version_6.1.2\lvgl\src\lv_objx/lv_spinbox.c ****         if(lv_indev_get_type(indev) == LV_INDEV_TYPE_ENCODER) {
 358:..\..\..\lvgl\version_6.1.2\lvgl\src\lv_objx/lv_spinbox.c ****             if(lv_group_get_editing(lv_obj_get_group(spinbox))) {
 359:..\..\..\lvgl\version_6.1.2\lvgl\src\lv_objx/lv_spinbox.c ****                 if(ext->step > 1) {
 360:..\..\..\lvgl\version_6.1.2\lvgl\src\lv_objx/lv_spinbox.c ****                     lv_spinbox_step_next(spinbox);
 361:..\..\..\lvgl\version_6.1.2\lvgl\src\lv_objx/lv_spinbox.c ****                 } else {
 362:..\..\..\lvgl\version_6.1.2\lvgl\src\lv_objx/lv_spinbox.c ****                     /*Restart from the MSB*/
 363:..\..\..\lvgl\version_6.1.2\lvgl\src\lv_objx/lv_spinbox.c ****                     ext->step = 1;
 364:..\..\..\lvgl\version_6.1.2\lvgl\src\lv_objx/lv_spinbox.c ****                     uint32_t i;
 365:..\..\..\lvgl\version_6.1.2\lvgl\src\lv_objx/lv_spinbox.c ****                     for(i = 0; i < ext->digit_count; i++) {
 366:..\..\..\lvgl\version_6.1.2\lvgl\src\lv_objx/lv_spinbox.c ****                         int32_t new_step = ext->step * 10;
 367:..\..\..\lvgl\version_6.1.2\lvgl\src\lv_objx/lv_spinbox.c ****                         if(new_step >= ext->range_max) break;
 368:..\..\..\lvgl\version_6.1.2\lvgl\src\lv_objx/lv_spinbox.c ****                         ext->step = new_step;
 369:..\..\..\lvgl\version_6.1.2\lvgl\src\lv_objx/lv_spinbox.c ****                     }
 370:..\..\..\lvgl\version_6.1.2\lvgl\src\lv_objx/lv_spinbox.c ****                     lv_spinbox_step_prev(spinbox);
 371:..\..\..\lvgl\version_6.1.2\lvgl\src\lv_objx/lv_spinbox.c ****                 }
 372:..\..\..\lvgl\version_6.1.2\lvgl\src\lv_objx/lv_spinbox.c ****             }
 373:..\..\..\lvgl\version_6.1.2\lvgl\src\lv_objx/lv_spinbox.c ****         }
 374:..\..\..\lvgl\version_6.1.2\lvgl\src\lv_objx/lv_spinbox.c **** #endif
 375:..\..\..\lvgl\version_6.1.2\lvgl\src\lv_objx/lv_spinbox.c ****     } else if(sign == LV_SIGNAL_CONTROL) {
 1098              		.loc 2 375 0
 1099 00a4 FB7A     		ldrb	r3, [r7, #11]	@ zero_extendqisi2
 1100 00a6 122B     		cmp	r3, #18
 1101 00a8 38D1     		bne	.L56
 1102              	.LBB5:
 376:..\..\..\lvgl\version_6.1.2\lvgl\src\lv_objx/lv_spinbox.c ****         lv_indev_type_t indev_type = lv_indev_get_type(lv_indev_get_act());
 1103              		.loc 2 376 0
 1104 00aa FFF7FEFF 		bl	lv_indev_get_act
 1105 00ae 0346     		mov	r3, r0
 1106 00b0 1846     		mov	r0, r3
 1107 00b2 FFF7FEFF 		bl	lv_indev_get_type
 1108 00b6 0346     		mov	r3, r0
 1109 00b8 FB76     		strb	r3, [r7, #27]
 377:..\..\..\lvgl\version_6.1.2\lvgl\src\lv_objx/lv_spinbox.c **** 
 378:..\..\..\lvgl\version_6.1.2\lvgl\src\lv_objx/lv_spinbox.c ****         uint32_t c = *((uint32_t *)param); /*uint32_t because can be UTF-8*/
 1110              		.loc 2 378 0
 1111 00ba 7B68     		ldr	r3, [r7, #4]
 1112 00bc 1B68     		ldr	r3, [r3]
 1113 00be 7B61     		str	r3, [r7, #20]
 379:..\..\..\lvgl\version_6.1.2\lvgl\src\lv_objx/lv_spinbox.c ****         if(c == LV_KEY_RIGHT) {
 1114              		.loc 2 379 0
 1115 00c0 7B69     		ldr	r3, [r7, #20]
 1116 00c2 132B     		cmp	r3, #19
 1117 00c4 0AD1     		bne	.L62
 380:..\..\..\lvgl\version_6.1.2\lvgl\src\lv_objx/lv_spinbox.c ****             if(indev_type == LV_INDEV_TYPE_ENCODER)
 1118              		.loc 2 380 0
 1119 00c6 FB7E     		ldrb	r3, [r7, #27]	@ zero_extendqisi2
 1120 00c8 042B     		cmp	r3, #4
ARM GAS  C:\Users\tmj32\AppData\Local\Temp\cci6nv1n.s 			page 29


 1121 00ca 03D1     		bne	.L63
 381:..\..\..\lvgl\version_6.1.2\lvgl\src\lv_objx/lv_spinbox.c ****                 lv_spinbox_increment(spinbox);
 1122              		.loc 2 381 0
 1123 00cc F868     		ldr	r0, [r7, #12]
 1124 00ce FFF7FEFF 		bl	lv_spinbox_increment
 1125 00d2 23E0     		b	.L56
 1126              	.L63:
 382:..\..\..\lvgl\version_6.1.2\lvgl\src\lv_objx/lv_spinbox.c ****             else
 383:..\..\..\lvgl\version_6.1.2\lvgl\src\lv_objx/lv_spinbox.c ****                 lv_spinbox_step_next(spinbox);
 1127              		.loc 2 383 0
 1128 00d4 F868     		ldr	r0, [r7, #12]
 1129 00d6 FFF7FEFF 		bl	lv_spinbox_step_next
 1130 00da 1FE0     		b	.L56
 1131              	.L62:
 384:..\..\..\lvgl\version_6.1.2\lvgl\src\lv_objx/lv_spinbox.c ****         } else if(c == LV_KEY_LEFT) {
 1132              		.loc 2 384 0
 1133 00dc 7B69     		ldr	r3, [r7, #20]
 1134 00de 142B     		cmp	r3, #20
 1135 00e0 0AD1     		bne	.L65
 385:..\..\..\lvgl\version_6.1.2\lvgl\src\lv_objx/lv_spinbox.c ****             if(indev_type == LV_INDEV_TYPE_ENCODER)
 1136              		.loc 2 385 0
 1137 00e2 FB7E     		ldrb	r3, [r7, #27]	@ zero_extendqisi2
 1138 00e4 042B     		cmp	r3, #4
 1139 00e6 03D1     		bne	.L66
 386:..\..\..\lvgl\version_6.1.2\lvgl\src\lv_objx/lv_spinbox.c ****                 lv_spinbox_decrement(spinbox);
 1140              		.loc 2 386 0
 1141 00e8 F868     		ldr	r0, [r7, #12]
 1142 00ea FFF7FEFF 		bl	lv_spinbox_decrement
 1143 00ee 15E0     		b	.L56
 1144              	.L66:
 387:..\..\..\lvgl\version_6.1.2\lvgl\src\lv_objx/lv_spinbox.c ****             else
 388:..\..\..\lvgl\version_6.1.2\lvgl\src\lv_objx/lv_spinbox.c ****                 lv_spinbox_step_prev(spinbox);
 1145              		.loc 2 388 0
 1146 00f0 F868     		ldr	r0, [r7, #12]
 1147 00f2 FFF7FEFF 		bl	lv_spinbox_step_prev
 1148 00f6 11E0     		b	.L56
 1149              	.L65:
 389:..\..\..\lvgl\version_6.1.2\lvgl\src\lv_objx/lv_spinbox.c ****         } else if(c == LV_KEY_UP) {
 1150              		.loc 2 389 0
 1151 00f8 7B69     		ldr	r3, [r7, #20]
 1152 00fa 112B     		cmp	r3, #17
 1153 00fc 03D1     		bne	.L68
 390:..\..\..\lvgl\version_6.1.2\lvgl\src\lv_objx/lv_spinbox.c ****             lv_spinbox_increment(spinbox);
 1154              		.loc 2 390 0
 1155 00fe F868     		ldr	r0, [r7, #12]
 1156 0100 FFF7FEFF 		bl	lv_spinbox_increment
 1157 0104 0AE0     		b	.L56
 1158              	.L68:
 391:..\..\..\lvgl\version_6.1.2\lvgl\src\lv_objx/lv_spinbox.c ****         } else if(c == LV_KEY_DOWN) {
 1159              		.loc 2 391 0
 1160 0106 7B69     		ldr	r3, [r7, #20]
 1161 0108 122B     		cmp	r3, #18
 1162 010a 03D1     		bne	.L69
 392:..\..\..\lvgl\version_6.1.2\lvgl\src\lv_objx/lv_spinbox.c ****             lv_spinbox_decrement(spinbox);
 1163              		.loc 2 392 0
 1164 010c F868     		ldr	r0, [r7, #12]
 1165 010e FFF7FEFF 		bl	lv_spinbox_decrement
ARM GAS  C:\Users\tmj32\AppData\Local\Temp\cci6nv1n.s 			page 30


 1166 0112 03E0     		b	.L56
 1167              	.L69:
 393:..\..\..\lvgl\version_6.1.2\lvgl\src\lv_objx/lv_spinbox.c ****         } else {
 394:..\..\..\lvgl\version_6.1.2\lvgl\src\lv_objx/lv_spinbox.c ****             lv_ta_add_char(spinbox, c);
 1168              		.loc 2 394 0
 1169 0114 7969     		ldr	r1, [r7, #20]
 1170 0116 F868     		ldr	r0, [r7, #12]
 1171 0118 FFF7FEFF 		bl	lv_ta_add_char
 1172              	.L56:
 1173              	.LBE5:
 395:..\..\..\lvgl\version_6.1.2\lvgl\src\lv_objx/lv_spinbox.c ****         }
 396:..\..\..\lvgl\version_6.1.2\lvgl\src\lv_objx/lv_spinbox.c ****     }
 397:..\..\..\lvgl\version_6.1.2\lvgl\src\lv_objx/lv_spinbox.c **** 
 398:..\..\..\lvgl\version_6.1.2\lvgl\src\lv_objx/lv_spinbox.c ****     return res;
 1174              		.loc 2 398 0
 1175 011c 97F82730 		ldrb	r3, [r7, #39]	@ zero_extendqisi2
 1176              	.L54:
 399:..\..\..\lvgl\version_6.1.2\lvgl\src\lv_objx/lv_spinbox.c **** }
 1177              		.loc 2 399 0
 1178 0120 1846     		mov	r0, r3
 1179 0122 2837     		adds	r7, r7, #40
 1180              		.cfi_def_cfa_offset 8
 1181 0124 BD46     		mov	sp, r7
 1182              		.cfi_def_cfa_register 13
 1183              		@ sp needed
 1184 0126 80BD     		pop	{r7, pc}
 1185              	.L72:
 1186              		.align	2
 1187              	.L71:
 1188 0128 00000000 		.word	ancestor_signal
 1189 012c 00000000 		.word	.LC0
 1190              		.cfi_endproc
 1191              	.LFE69:
 1192              		.size	lv_spinbox_signal, .-lv_spinbox_signal
 1193              		.section	.text.lv_spinbox_updatevalue,"ax",%progbits
 1194              		.align	2
 1195              		.thumb
 1196              		.thumb_func
 1197              		.type	lv_spinbox_updatevalue, %function
 1198              	lv_spinbox_updatevalue:
 1199              	.LFB70:
 400:..\..\..\lvgl\version_6.1.2\lvgl\src\lv_objx/lv_spinbox.c **** 
 401:..\..\..\lvgl\version_6.1.2\lvgl\src\lv_objx/lv_spinbox.c **** static void lv_spinbox_updatevalue(lv_obj_t * spinbox)
 402:..\..\..\lvgl\version_6.1.2\lvgl\src\lv_objx/lv_spinbox.c **** {
 1200              		.loc 2 402 0
 1201              		.cfi_startproc
 1202              		@ args = 0, pretend = 0, frame = 128
 1203              		@ frame_needed = 1, uses_anonymous_args = 0
 1204 0000 90B5     		push	{r4, r7, lr}
 1205              		.cfi_def_cfa_offset 12
 1206              		.cfi_offset 4, -12
 1207              		.cfi_offset 7, -8
 1208              		.cfi_offset 14, -4
 1209 0002 A1B0     		sub	sp, sp, #132
 1210              		.cfi_def_cfa_offset 144
 1211 0004 00AF     		add	r7, sp, #0
 1212              		.cfi_def_cfa_register 7
ARM GAS  C:\Users\tmj32\AppData\Local\Temp\cci6nv1n.s 			page 31


 1213 0006 7860     		str	r0, [r7, #4]
 403:..\..\..\lvgl\version_6.1.2\lvgl\src\lv_objx/lv_spinbox.c ****     lv_spinbox_ext_t * ext = lv_obj_get_ext_attr(spinbox);
 1214              		.loc 2 403 0
 1215 0008 7868     		ldr	r0, [r7, #4]
 1216 000a FFF7FEFF 		bl	lv_obj_get_ext_attr
 1217 000e B866     		str	r0, [r7, #104]
 404:..\..\..\lvgl\version_6.1.2\lvgl\src\lv_objx/lv_spinbox.c **** 
 405:..\..\..\lvgl\version_6.1.2\lvgl\src\lv_objx/lv_spinbox.c ****     char buf[LV_SPINBOX_MAX_DIGIT_COUNT + 8];
 406:..\..\..\lvgl\version_6.1.2\lvgl\src\lv_objx/lv_spinbox.c ****     memset(buf, 0, sizeof(buf));
 1218              		.loc 2 406 0
 1219 0010 07F14803 		add	r3, r7, #72
 1220 0014 1822     		movs	r2, #24
 1221 0016 0021     		movs	r1, #0
 1222 0018 1846     		mov	r0, r3
 1223 001a FFF7FEFF 		bl	memset
 407:..\..\..\lvgl\version_6.1.2\lvgl\src\lv_objx/lv_spinbox.c ****     char * buf_p = buf;
 1224              		.loc 2 407 0
 1225 001e 07F14803 		add	r3, r7, #72
 1226 0022 FB67     		str	r3, [r7, #124]
 408:..\..\..\lvgl\version_6.1.2\lvgl\src\lv_objx/lv_spinbox.c ****     uint8_t cur_shift_left = 0;
 1227              		.loc 2 408 0
 1228 0024 0023     		movs	r3, #0
 1229 0026 87F87B30 		strb	r3, [r7, #123]
 409:..\..\..\lvgl\version_6.1.2\lvgl\src\lv_objx/lv_spinbox.c **** 
 410:..\..\..\lvgl\version_6.1.2\lvgl\src\lv_objx/lv_spinbox.c ****     if (ext->range_min < 0) { // hide sign if there are only positive values
 1230              		.loc 2 410 0
 1231 002a BB6E     		ldr	r3, [r7, #104]
 1232 002c 9B6E     		ldr	r3, [r3, #104]
 1233 002e 002B     		cmp	r3, #0
 1234 0030 0CDA     		bge	.L74
 411:..\..\..\lvgl\version_6.1.2\lvgl\src\lv_objx/lv_spinbox.c ****         /*Add the sign*/
 412:..\..\..\lvgl\version_6.1.2\lvgl\src\lv_objx/lv_spinbox.c ****         (*buf_p) = ext->value >= 0 ? '+' : '-';
 1235              		.loc 2 412 0
 1236 0032 BB6E     		ldr	r3, [r7, #104]
 1237 0034 1B6E     		ldr	r3, [r3, #96]
 1238 0036 002B     		cmp	r3, #0
 1239 0038 01DB     		blt	.L75
 1240              		.loc 2 412 0 is_stmt 0 discriminator 1
 1241 003a 2B22     		movs	r2, #43
 1242 003c 00E0     		b	.L76
 1243              	.L75:
 1244              		.loc 2 412 0 discriminator 2
 1245 003e 2D22     		movs	r2, #45
 1246              	.L76:
 1247              		.loc 2 412 0 discriminator 4
 1248 0040 FB6F     		ldr	r3, [r7, #124]
 1249 0042 1A70     		strb	r2, [r3]
 413:..\..\..\lvgl\version_6.1.2\lvgl\src\lv_objx/lv_spinbox.c ****         buf_p++;
 1250              		.loc 2 413 0 is_stmt 1 discriminator 4
 1251 0044 FB6F     		ldr	r3, [r7, #124]
 1252 0046 0133     		adds	r3, r3, #1
 1253 0048 FB67     		str	r3, [r7, #124]
 1254 004a 04E0     		b	.L77
 1255              	.L74:
 414:..\..\..\lvgl\version_6.1.2\lvgl\src\lv_objx/lv_spinbox.c ****     } else {
 415:..\..\..\lvgl\version_6.1.2\lvgl\src\lv_objx/lv_spinbox.c ****     	/*Cursor need shift to left*/
 416:..\..\..\lvgl\version_6.1.2\lvgl\src\lv_objx/lv_spinbox.c ****     	cur_shift_left++;
ARM GAS  C:\Users\tmj32\AppData\Local\Temp\cci6nv1n.s 			page 32


 1256              		.loc 2 416 0
 1257 004c 97F87B30 		ldrb	r3, [r7, #123]	@ zero_extendqisi2
 1258 0050 0133     		adds	r3, r3, #1
 1259 0052 87F87B30 		strb	r3, [r7, #123]
 1260              	.L77:
 417:..\..\..\lvgl\version_6.1.2\lvgl\src\lv_objx/lv_spinbox.c ****     }
 418:..\..\..\lvgl\version_6.1.2\lvgl\src\lv_objx/lv_spinbox.c **** 
 419:..\..\..\lvgl\version_6.1.2\lvgl\src\lv_objx/lv_spinbox.c ****     int32_t i;
 420:..\..\..\lvgl\version_6.1.2\lvgl\src\lv_objx/lv_spinbox.c ****     /*padding left*/
 421:..\..\..\lvgl\version_6.1.2\lvgl\src\lv_objx/lv_spinbox.c ****     for(i = 0; i < ext->digit_padding_left; i++) {
 1261              		.loc 2 421 0
 1262 0056 0023     		movs	r3, #0
 1263 0058 7B67     		str	r3, [r7, #116]
 1264 005a 08E0     		b	.L78
 1265              	.L79:
 422:..\..\..\lvgl\version_6.1.2\lvgl\src\lv_objx/lv_spinbox.c ****         (*buf_p) = ' ';
 1266              		.loc 2 422 0 discriminator 3
 1267 005c FB6F     		ldr	r3, [r7, #124]
 1268 005e 2022     		movs	r2, #32
 1269 0060 1A70     		strb	r2, [r3]
 423:..\..\..\lvgl\version_6.1.2\lvgl\src\lv_objx/lv_spinbox.c ****         buf_p++;
 1270              		.loc 2 423 0 discriminator 3
 1271 0062 FB6F     		ldr	r3, [r7, #124]
 1272 0064 0133     		adds	r3, r3, #1
 1273 0066 FB67     		str	r3, [r7, #124]
 421:..\..\..\lvgl\version_6.1.2\lvgl\src\lv_objx/lv_spinbox.c ****         (*buf_p) = ' ';
 1274              		.loc 2 421 0 discriminator 3
 1275 0068 7B6F     		ldr	r3, [r7, #116]
 1276 006a 0133     		adds	r3, r3, #1
 1277 006c 7B67     		str	r3, [r7, #116]
 1278              	.L78:
 421:..\..\..\lvgl\version_6.1.2\lvgl\src\lv_objx/lv_spinbox.c ****         (*buf_p) = ' ';
 1279              		.loc 2 421 0 is_stmt 0 discriminator 1
 1280 006e BB6E     		ldr	r3, [r7, #104]
 1281 0070 93F87130 		ldrb	r3, [r3, #113]
 1282 0074 C3F30303 		ubfx	r3, r3, #0, #4
 1283 0078 DBB2     		uxtb	r3, r3
 1284 007a 1A46     		mov	r2, r3
 1285 007c 7B6F     		ldr	r3, [r7, #116]
 1286 007e 9A42     		cmp	r2, r3
 1287 0080 ECDC     		bgt	.L79
 424:..\..\..\lvgl\version_6.1.2\lvgl\src\lv_objx/lv_spinbox.c ****     }
 425:..\..\..\lvgl\version_6.1.2\lvgl\src\lv_objx/lv_spinbox.c **** 
 426:..\..\..\lvgl\version_6.1.2\lvgl\src\lv_objx/lv_spinbox.c ****     char digits[64];
 427:..\..\..\lvgl\version_6.1.2\lvgl\src\lv_objx/lv_spinbox.c ****     /*Convert the numbers to string (the sign is already handled so always covert positive number)*
 428:..\..\..\lvgl\version_6.1.2\lvgl\src\lv_objx/lv_spinbox.c ****     lv_utils_num_to_str(ext->value < 0 ? -ext->value : ext->value, digits);
 1288              		.loc 2 428 0 is_stmt 1
 1289 0082 BB6E     		ldr	r3, [r7, #104]
 1290 0084 1B6E     		ldr	r3, [r3, #96]
 1291 0086 002B     		cmp	r3, #0
 1292 0088 B8BF     		it	lt
 1293 008a 5B42     		rsblt	r3, r3, #0
 1294 008c 07F10802 		add	r2, r7, #8
 1295 0090 1146     		mov	r1, r2
 1296 0092 1846     		mov	r0, r3
 1297 0094 FFF7FEFF 		bl	lv_utils_num_to_str
 429:..\..\..\lvgl\version_6.1.2\lvgl\src\lv_objx/lv_spinbox.c **** 
ARM GAS  C:\Users\tmj32\AppData\Local\Temp\cci6nv1n.s 			page 33


 430:..\..\..\lvgl\version_6.1.2\lvgl\src\lv_objx/lv_spinbox.c ****     /*Add leading zeros*/
 431:..\..\..\lvgl\version_6.1.2\lvgl\src\lv_objx/lv_spinbox.c ****     int lz_cnt = ext->digit_count - (int)strlen(digits);
 1298              		.loc 2 431 0
 1299 0098 BB6E     		ldr	r3, [r7, #104]
 1300 009a 93F87030 		ldrb	r3, [r3, #112]
 1301 009e C3F30303 		ubfx	r3, r3, #0, #4
 1302 00a2 DBB2     		uxtb	r3, r3
 1303 00a4 1C46     		mov	r4, r3
 1304 00a6 07F10803 		add	r3, r7, #8
 1305 00aa 1846     		mov	r0, r3
 1306 00ac FFF7FEFF 		bl	strlen
 1307 00b0 0346     		mov	r3, r0
 1308 00b2 E31A     		subs	r3, r4, r3
 1309 00b4 7B66     		str	r3, [r7, #100]
 432:..\..\..\lvgl\version_6.1.2\lvgl\src\lv_objx/lv_spinbox.c ****     if(lz_cnt > 0) {
 1310              		.loc 2 432 0
 1311 00b6 7B6E     		ldr	r3, [r7, #100]
 1312 00b8 002B     		cmp	r3, #0
 1313 00ba 2BDD     		ble	.L80
 433:..\..\..\lvgl\version_6.1.2\lvgl\src\lv_objx/lv_spinbox.c ****         for(i = (uint16_t)strlen(digits); i >= 0; i--) {
 1314              		.loc 2 433 0
 1315 00bc 07F10803 		add	r3, r7, #8
 1316 00c0 1846     		mov	r0, r3
 1317 00c2 FFF7FEFF 		bl	strlen
 1318 00c6 0346     		mov	r3, r0
 1319 00c8 9BB2     		uxth	r3, r3
 1320 00ca 7B67     		str	r3, [r7, #116]
 1321 00cc 0FE0     		b	.L81
 1322              	.L82:
 434:..\..\..\lvgl\version_6.1.2\lvgl\src\lv_objx/lv_spinbox.c ****             digits[i + lz_cnt] = digits[i];
 1323              		.loc 2 434 0 discriminator 3
 1324 00ce 7A6F     		ldr	r2, [r7, #116]
 1325 00d0 7B6E     		ldr	r3, [r7, #100]
 1326 00d2 1344     		add	r3, r3, r2
 1327 00d4 07F10801 		add	r1, r7, #8
 1328 00d8 7A6F     		ldr	r2, [r7, #116]
 1329 00da 0A44     		add	r2, r2, r1
 1330 00dc 1278     		ldrb	r2, [r2]	@ zero_extendqisi2
 1331 00de 07F18001 		add	r1, r7, #128
 1332 00e2 0B44     		add	r3, r3, r1
 1333 00e4 03F8782C 		strb	r2, [r3, #-120]
 433:..\..\..\lvgl\version_6.1.2\lvgl\src\lv_objx/lv_spinbox.c ****         for(i = (uint16_t)strlen(digits); i >= 0; i--) {
 1334              		.loc 2 433 0 discriminator 3
 1335 00e8 7B6F     		ldr	r3, [r7, #116]
 1336 00ea 013B     		subs	r3, r3, #1
 1337 00ec 7B67     		str	r3, [r7, #116]
 1338              	.L81:
 433:..\..\..\lvgl\version_6.1.2\lvgl\src\lv_objx/lv_spinbox.c ****         for(i = (uint16_t)strlen(digits); i >= 0; i--) {
 1339              		.loc 2 433 0 is_stmt 0 discriminator 1
 1340 00ee 7B6F     		ldr	r3, [r7, #116]
 1341 00f0 002B     		cmp	r3, #0
 1342 00f2 ECDA     		bge	.L82
 435:..\..\..\lvgl\version_6.1.2\lvgl\src\lv_objx/lv_spinbox.c ****         }
 436:..\..\..\lvgl\version_6.1.2\lvgl\src\lv_objx/lv_spinbox.c ****         for(i = 0; i < lz_cnt; i++) {
 1343              		.loc 2 436 0 is_stmt 1
 1344 00f4 0023     		movs	r3, #0
 1345 00f6 7B67     		str	r3, [r7, #116]
ARM GAS  C:\Users\tmj32\AppData\Local\Temp\cci6nv1n.s 			page 34


 1346 00f8 08E0     		b	.L83
 1347              	.L84:
 437:..\..\..\lvgl\version_6.1.2\lvgl\src\lv_objx/lv_spinbox.c ****             digits[i] = '0';
 1348              		.loc 2 437 0 discriminator 3
 1349 00fa 07F10802 		add	r2, r7, #8
 1350 00fe 7B6F     		ldr	r3, [r7, #116]
 1351 0100 1344     		add	r3, r3, r2
 1352 0102 3022     		movs	r2, #48
 1353 0104 1A70     		strb	r2, [r3]
 436:..\..\..\lvgl\version_6.1.2\lvgl\src\lv_objx/lv_spinbox.c ****             digits[i] = '0';
 1354              		.loc 2 436 0 discriminator 3
 1355 0106 7B6F     		ldr	r3, [r7, #116]
 1356 0108 0133     		adds	r3, r3, #1
 1357 010a 7B67     		str	r3, [r7, #116]
 1358              	.L83:
 436:..\..\..\lvgl\version_6.1.2\lvgl\src\lv_objx/lv_spinbox.c ****             digits[i] = '0';
 1359              		.loc 2 436 0 is_stmt 0 discriminator 1
 1360 010c 7A6F     		ldr	r2, [r7, #116]
 1361 010e 7B6E     		ldr	r3, [r7, #100]
 1362 0110 9A42     		cmp	r2, r3
 1363 0112 F2DB     		blt	.L84
 1364              	.L80:
 438:..\..\..\lvgl\version_6.1.2\lvgl\src\lv_objx/lv_spinbox.c ****         }
 439:..\..\..\lvgl\version_6.1.2\lvgl\src\lv_objx/lv_spinbox.c ****     }
 440:..\..\..\lvgl\version_6.1.2\lvgl\src\lv_objx/lv_spinbox.c **** 
 441:..\..\..\lvgl\version_6.1.2\lvgl\src\lv_objx/lv_spinbox.c ****     int32_t intDigits;
 442:..\..\..\lvgl\version_6.1.2\lvgl\src\lv_objx/lv_spinbox.c ****     intDigits = (ext->dec_point_pos == 0) ? ext->digit_count : ext->dec_point_pos;
 1365              		.loc 2 442 0 is_stmt 1
 1366 0114 BB6E     		ldr	r3, [r7, #104]
 1367 0116 93F87030 		ldrb	r3, [r3, #112]	@ zero_extendqisi2
 1368 011a 23F00F03 		bic	r3, r3, #15
 1369 011e DBB2     		uxtb	r3, r3
 1370 0120 002B     		cmp	r3, #0
 1371 0122 06D1     		bne	.L85
 1372              		.loc 2 442 0 is_stmt 0 discriminator 1
 1373 0124 BB6E     		ldr	r3, [r7, #104]
 1374 0126 93F87030 		ldrb	r3, [r3, #112]
 1375 012a C3F30303 		ubfx	r3, r3, #0, #4
 1376 012e DBB2     		uxtb	r3, r3
 1377 0130 05E0     		b	.L86
 1378              	.L85:
 1379              		.loc 2 442 0 discriminator 2
 1380 0132 BB6E     		ldr	r3, [r7, #104]
 1381 0134 93F87030 		ldrb	r3, [r3, #112]
 1382 0138 C3F30313 		ubfx	r3, r3, #4, #4
 1383 013c DBB2     		uxtb	r3, r3
 1384              	.L86:
 1385              		.loc 2 442 0 discriminator 4
 1386 013e 3B66     		str	r3, [r7, #96]
 443:..\..\..\lvgl\version_6.1.2\lvgl\src\lv_objx/lv_spinbox.c **** 
 444:..\..\..\lvgl\version_6.1.2\lvgl\src\lv_objx/lv_spinbox.c ****     /*Add the decimal part*/
 445:..\..\..\lvgl\version_6.1.2\lvgl\src\lv_objx/lv_spinbox.c ****     for(i = 0; i < intDigits && digits[i] != '\0'; i++) {
 1387              		.loc 2 445 0 is_stmt 1 discriminator 4
 1388 0140 0023     		movs	r3, #0
 1389 0142 7B67     		str	r3, [r7, #116]
 1390 0144 0CE0     		b	.L87
 1391              	.L89:
ARM GAS  C:\Users\tmj32\AppData\Local\Temp\cci6nv1n.s 			page 35


 446:..\..\..\lvgl\version_6.1.2\lvgl\src\lv_objx/lv_spinbox.c ****         (*buf_p) = digits[i];
 1392              		.loc 2 446 0 discriminator 4
 1393 0146 07F10802 		add	r2, r7, #8
 1394 014a 7B6F     		ldr	r3, [r7, #116]
 1395 014c 1344     		add	r3, r3, r2
 1396 014e 1A78     		ldrb	r2, [r3]	@ zero_extendqisi2
 1397 0150 FB6F     		ldr	r3, [r7, #124]
 1398 0152 1A70     		strb	r2, [r3]
 447:..\..\..\lvgl\version_6.1.2\lvgl\src\lv_objx/lv_spinbox.c ****         buf_p++;
 1399              		.loc 2 447 0 discriminator 4
 1400 0154 FB6F     		ldr	r3, [r7, #124]
 1401 0156 0133     		adds	r3, r3, #1
 1402 0158 FB67     		str	r3, [r7, #124]
 445:..\..\..\lvgl\version_6.1.2\lvgl\src\lv_objx/lv_spinbox.c ****         (*buf_p) = digits[i];
 1403              		.loc 2 445 0 discriminator 4
 1404 015a 7B6F     		ldr	r3, [r7, #116]
 1405 015c 0133     		adds	r3, r3, #1
 1406 015e 7B67     		str	r3, [r7, #116]
 1407              	.L87:
 445:..\..\..\lvgl\version_6.1.2\lvgl\src\lv_objx/lv_spinbox.c ****         (*buf_p) = digits[i];
 1408              		.loc 2 445 0 is_stmt 0 discriminator 1
 1409 0160 7A6F     		ldr	r2, [r7, #116]
 1410 0162 3B6E     		ldr	r3, [r7, #96]
 1411 0164 9A42     		cmp	r2, r3
 1412 0166 06DA     		bge	.L88
 445:..\..\..\lvgl\version_6.1.2\lvgl\src\lv_objx/lv_spinbox.c ****         (*buf_p) = digits[i];
 1413              		.loc 2 445 0 discriminator 3
 1414 0168 07F10802 		add	r2, r7, #8
 1415 016c 7B6F     		ldr	r3, [r7, #116]
 1416 016e 1344     		add	r3, r3, r2
 1417 0170 1B78     		ldrb	r3, [r3]	@ zero_extendqisi2
 1418 0172 002B     		cmp	r3, #0
 1419 0174 E7D1     		bne	.L89
 1420              	.L88:
 448:..\..\..\lvgl\version_6.1.2\lvgl\src\lv_objx/lv_spinbox.c ****     }
 449:..\..\..\lvgl\version_6.1.2\lvgl\src\lv_objx/lv_spinbox.c **** 
 450:..\..\..\lvgl\version_6.1.2\lvgl\src\lv_objx/lv_spinbox.c ****     if(ext->dec_point_pos != 0) {
 1421              		.loc 2 450 0 is_stmt 1
 1422 0176 BB6E     		ldr	r3, [r7, #104]
 1423 0178 93F87030 		ldrb	r3, [r3, #112]	@ zero_extendqisi2
 1424 017c 23F00F03 		bic	r3, r3, #15
 1425 0180 DBB2     		uxtb	r3, r3
 1426 0182 002B     		cmp	r3, #0
 1427 0184 24D0     		beq	.L90
 451:..\..\..\lvgl\version_6.1.2\lvgl\src\lv_objx/lv_spinbox.c ****         /*Insert the decimal point*/
 452:..\..\..\lvgl\version_6.1.2\lvgl\src\lv_objx/lv_spinbox.c ****         (*buf_p) = '.';
 1428              		.loc 2 452 0
 1429 0186 FB6F     		ldr	r3, [r7, #124]
 1430 0188 2E22     		movs	r2, #46
 1431 018a 1A70     		strb	r2, [r3]
 453:..\..\..\lvgl\version_6.1.2\lvgl\src\lv_objx/lv_spinbox.c ****         buf_p++;
 1432              		.loc 2 453 0
 1433 018c FB6F     		ldr	r3, [r7, #124]
 1434 018e 0133     		adds	r3, r3, #1
 1435 0190 FB67     		str	r3, [r7, #124]
 454:..\..\..\lvgl\version_6.1.2\lvgl\src\lv_objx/lv_spinbox.c **** 
 455:..\..\..\lvgl\version_6.1.2\lvgl\src\lv_objx/lv_spinbox.c ****         for(/*Leave i*/; i < ext->digit_count && digits[i] != '\0'; i++) {
ARM GAS  C:\Users\tmj32\AppData\Local\Temp\cci6nv1n.s 			page 36


 1436              		.loc 2 455 0
 1437 0192 0CE0     		b	.L91
 1438              	.L92:
 456:..\..\..\lvgl\version_6.1.2\lvgl\src\lv_objx/lv_spinbox.c ****             (*buf_p) = digits[i];
 1439              		.loc 2 456 0 discriminator 3
 1440 0194 07F10802 		add	r2, r7, #8
 1441 0198 7B6F     		ldr	r3, [r7, #116]
 1442 019a 1344     		add	r3, r3, r2
 1443 019c 1A78     		ldrb	r2, [r3]	@ zero_extendqisi2
 1444 019e FB6F     		ldr	r3, [r7, #124]
 1445 01a0 1A70     		strb	r2, [r3]
 457:..\..\..\lvgl\version_6.1.2\lvgl\src\lv_objx/lv_spinbox.c ****             buf_p++;
 1446              		.loc 2 457 0 discriminator 3
 1447 01a2 FB6F     		ldr	r3, [r7, #124]
 1448 01a4 0133     		adds	r3, r3, #1
 1449 01a6 FB67     		str	r3, [r7, #124]
 455:..\..\..\lvgl\version_6.1.2\lvgl\src\lv_objx/lv_spinbox.c ****             (*buf_p) = digits[i];
 1450              		.loc 2 455 0 discriminator 3
 1451 01a8 7B6F     		ldr	r3, [r7, #116]
 1452 01aa 0133     		adds	r3, r3, #1
 1453 01ac 7B67     		str	r3, [r7, #116]
 1454              	.L91:
 455:..\..\..\lvgl\version_6.1.2\lvgl\src\lv_objx/lv_spinbox.c ****             (*buf_p) = digits[i];
 1455              		.loc 2 455 0 is_stmt 0 discriminator 1
 1456 01ae BB6E     		ldr	r3, [r7, #104]
 1457 01b0 93F87030 		ldrb	r3, [r3, #112]
 1458 01b4 C3F30303 		ubfx	r3, r3, #0, #4
 1459 01b8 DBB2     		uxtb	r3, r3
 1460 01ba 1A46     		mov	r2, r3
 1461 01bc 7B6F     		ldr	r3, [r7, #116]
 1462 01be 9A42     		cmp	r2, r3
 1463 01c0 06DD     		ble	.L90
 455:..\..\..\lvgl\version_6.1.2\lvgl\src\lv_objx/lv_spinbox.c ****             (*buf_p) = digits[i];
 1464              		.loc 2 455 0 discriminator 2
 1465 01c2 07F10802 		add	r2, r7, #8
 1466 01c6 7B6F     		ldr	r3, [r7, #116]
 1467 01c8 1344     		add	r3, r3, r2
 1468 01ca 1B78     		ldrb	r3, [r3]	@ zero_extendqisi2
 1469 01cc 002B     		cmp	r3, #0
 1470 01ce E1D1     		bne	.L92
 1471              	.L90:
 458:..\..\..\lvgl\version_6.1.2\lvgl\src\lv_objx/lv_spinbox.c ****         }
 459:..\..\..\lvgl\version_6.1.2\lvgl\src\lv_objx/lv_spinbox.c ****     }
 460:..\..\..\lvgl\version_6.1.2\lvgl\src\lv_objx/lv_spinbox.c **** 
 461:..\..\..\lvgl\version_6.1.2\lvgl\src\lv_objx/lv_spinbox.c ****     /*Refresh the text*/
 462:..\..\..\lvgl\version_6.1.2\lvgl\src\lv_objx/lv_spinbox.c ****     lv_ta_set_text(spinbox, (char *)buf);
 1472              		.loc 2 462 0 is_stmt 1
 1473 01d0 07F14803 		add	r3, r7, #72
 1474 01d4 1946     		mov	r1, r3
 1475 01d6 7868     		ldr	r0, [r7, #4]
 1476 01d8 FFF7FEFF 		bl	lv_ta_set_text
 463:..\..\..\lvgl\version_6.1.2\lvgl\src\lv_objx/lv_spinbox.c **** 
 464:..\..\..\lvgl\version_6.1.2\lvgl\src\lv_objx/lv_spinbox.c ****     /*Set the cursor position*/
 465:..\..\..\lvgl\version_6.1.2\lvgl\src\lv_objx/lv_spinbox.c ****     int32_t step    = ext->step;
 1477              		.loc 2 465 0
 1478 01dc BB6E     		ldr	r3, [r7, #104]
 1479 01de DB6E     		ldr	r3, [r3, #108]
ARM GAS  C:\Users\tmj32\AppData\Local\Temp\cci6nv1n.s 			page 37


 1480 01e0 3B67     		str	r3, [r7, #112]
 466:..\..\..\lvgl\version_6.1.2\lvgl\src\lv_objx/lv_spinbox.c ****     uint8_t cur_pos = (uint8_t)ext->digit_count;
 1481              		.loc 2 466 0
 1482 01e2 BB6E     		ldr	r3, [r7, #104]
 1483 01e4 93F87030 		ldrb	r3, [r3, #112]
 1484 01e8 C3F30303 		ubfx	r3, r3, #0, #4
 1485 01ec DBB2     		uxtb	r3, r3
 1486 01ee 87F86F30 		strb	r3, [r7, #111]
 467:..\..\..\lvgl\version_6.1.2\lvgl\src\lv_objx/lv_spinbox.c ****     while(step >= 10) {
 1487              		.loc 2 467 0
 1488 01f2 0CE0     		b	.L93
 1489              	.L94:
 468:..\..\..\lvgl\version_6.1.2\lvgl\src\lv_objx/lv_spinbox.c ****         step /= 10;
 1490              		.loc 2 468 0
 1491 01f4 3B6F     		ldr	r3, [r7, #112]
 1492 01f6 1A4A     		ldr	r2, .L96
 1493 01f8 82FB0312 		smull	r1, r2, r2, r3
 1494 01fc 9210     		asrs	r2, r2, #2
 1495 01fe DB17     		asrs	r3, r3, #31
 1496 0200 D31A     		subs	r3, r2, r3
 1497 0202 3B67     		str	r3, [r7, #112]
 469:..\..\..\lvgl\version_6.1.2\lvgl\src\lv_objx/lv_spinbox.c ****         cur_pos--;
 1498              		.loc 2 469 0
 1499 0204 97F86F30 		ldrb	r3, [r7, #111]	@ zero_extendqisi2
 1500 0208 013B     		subs	r3, r3, #1
 1501 020a 87F86F30 		strb	r3, [r7, #111]
 1502              	.L93:
 467:..\..\..\lvgl\version_6.1.2\lvgl\src\lv_objx/lv_spinbox.c ****     while(step >= 10) {
 1503              		.loc 2 467 0
 1504 020e 3B6F     		ldr	r3, [r7, #112]
 1505 0210 092B     		cmp	r3, #9
 1506 0212 EFDC     		bgt	.L94
 470:..\..\..\lvgl\version_6.1.2\lvgl\src\lv_objx/lv_spinbox.c ****     }
 471:..\..\..\lvgl\version_6.1.2\lvgl\src\lv_objx/lv_spinbox.c **** 
 472:..\..\..\lvgl\version_6.1.2\lvgl\src\lv_objx/lv_spinbox.c ****     if(cur_pos > intDigits) cur_pos++; /*Skip teh decimal point*/
 1507              		.loc 2 472 0
 1508 0214 97F86F20 		ldrb	r2, [r7, #111]	@ zero_extendqisi2
 1509 0218 3B6E     		ldr	r3, [r7, #96]
 1510 021a 9A42     		cmp	r2, r3
 1511 021c 04DD     		ble	.L95
 1512              		.loc 2 472 0 is_stmt 0 discriminator 1
 1513 021e 97F86F30 		ldrb	r3, [r7, #111]	@ zero_extendqisi2
 1514 0222 0133     		adds	r3, r3, #1
 1515 0224 87F86F30 		strb	r3, [r7, #111]
 1516              	.L95:
 473:..\..\..\lvgl\version_6.1.2\lvgl\src\lv_objx/lv_spinbox.c **** 
 474:..\..\..\lvgl\version_6.1.2\lvgl\src\lv_objx/lv_spinbox.c ****     cur_pos += (ext->digit_padding_left - cur_shift_left);
 1517              		.loc 2 474 0 is_stmt 1
 1518 0228 BB6E     		ldr	r3, [r7, #104]
 1519 022a 93F87130 		ldrb	r3, [r3, #113]
 1520 022e C3F30303 		ubfx	r3, r3, #0, #4
 1521 0232 DBB2     		uxtb	r3, r3
 1522 0234 1A46     		mov	r2, r3
 1523 0236 97F87B30 		ldrb	r3, [r7, #123]
 1524 023a D31A     		subs	r3, r2, r3
 1525 023c DAB2     		uxtb	r2, r3
 1526 023e 97F86F30 		ldrb	r3, [r7, #111]
ARM GAS  C:\Users\tmj32\AppData\Local\Temp\cci6nv1n.s 			page 38


 1527 0242 1344     		add	r3, r3, r2
 1528 0244 87F86F30 		strb	r3, [r7, #111]
 475:..\..\..\lvgl\version_6.1.2\lvgl\src\lv_objx/lv_spinbox.c **** 
 476:..\..\..\lvgl\version_6.1.2\lvgl\src\lv_objx/lv_spinbox.c ****     lv_ta_set_cursor_pos(spinbox, cur_pos);
 1529              		.loc 2 476 0
 1530 0248 97F86F30 		ldrb	r3, [r7, #111]	@ zero_extendqisi2
 1531 024c 1BB2     		sxth	r3, r3
 1532 024e 1946     		mov	r1, r3
 1533 0250 7868     		ldr	r0, [r7, #4]
 1534 0252 FFF7FEFF 		bl	lv_ta_set_cursor_pos
 477:..\..\..\lvgl\version_6.1.2\lvgl\src\lv_objx/lv_spinbox.c **** }
 1535              		.loc 2 477 0
 1536 0256 00BF     		nop
 1537 0258 8437     		adds	r7, r7, #132
 1538              		.cfi_def_cfa_offset 12
 1539 025a BD46     		mov	sp, r7
 1540              		.cfi_def_cfa_register 13
 1541              		@ sp needed
 1542 025c 90BD     		pop	{r4, r7, pc}
 1543              	.L97:
 1544 025e 00BF     		.align	2
 1545              	.L96:
 1546 0260 67666666 		.word	1717986919
 1547              		.cfi_endproc
 1548              	.LFE70:
 1549              		.size	lv_spinbox_updatevalue, .-lv_spinbox_updatevalue
 1550              		.text
 1551              	.Letext0:
 1552              		.file 3 "c:\\program files (x86)\\cypress\\psoc creator\\4.3\\psoc creator\\import\\gnu\\arm\\5.4.
 1553              		.file 4 "c:\\program files (x86)\\cypress\\psoc creator\\4.3\\psoc creator\\import\\gnu\\arm\\5.4.
 1554              		.file 5 "..\\..\\..\\lvgl\\version_6.1.2\\lvgl\\src\\lv_objx\\../../../lv_conf.h"
 1555              		.file 6 "..\\..\\..\\lvgl\\version_6.1.2\\lvgl\\src\\lv_objx\\../lv_core/../lv_font/lv_font.h"
 1556              		.file 7 "..\\..\\..\\lvgl\\version_6.1.2\\lvgl\\src\\lv_objx\\../lv_core/../lv_misc/lv_color.h"
 1557              		.file 8 "..\\..\\..\\lvgl\\version_6.1.2\\lvgl\\src\\lv_objx\\../lv_core/../lv_misc/lv_area.h"
 1558              		.file 9 "..\\..\\..\\lvgl\\version_6.1.2\\lvgl\\src\\lv_objx\\../lv_core/../lv_misc/lv_anim.h"
 1559              		.file 10 "..\\..\\..\\lvgl\\version_6.1.2\\lvgl\\src\\lv_objx\\../lv_core/lv_style.h"
 1560              		.file 11 "..\\..\\..\\lvgl\\version_6.1.2\\lvgl\\src\\lv_objx\\../lv_core/../lv_misc/lv_types.h"
 1561              		.file 12 "..\\..\\..\\lvgl\\version_6.1.2\\lvgl\\src\\lv_objx\\../lv_core/../lv_misc/lv_ll.h"
 1562              		.file 13 "..\\..\\..\\lvgl\\version_6.1.2\\lvgl\\src\\lv_objx\\../lv_core/../lv_misc/lv_bidi.h"
 1563              		.file 14 "..\\..\\..\\lvgl\\version_6.1.2\\lvgl\\src\\lv_objx\\../lv_core/lv_obj.h"
 1564              		.file 15 "..\\..\\..\\lvgl\\version_6.1.2\\lvgl\\src\\lv_objx\\../lv_core/../lv_hal/lv_hal_indev.h
 1565              		.file 16 "..\\..\\..\\lvgl\\version_6.1.2\\lvgl\\src\\lv_objx\\../lv_objx/lv_cont.h"
 1566              		.file 17 "..\\..\\..\\lvgl\\version_6.1.2\\lvgl\\src\\lv_objx\\../lv_objx/../lv_core/../lv_core/lv
 1567              		.file 18 "..\\..\\..\\lvgl\\version_6.1.2\\lvgl\\src\\lv_objx\\../lv_objx/lv_page.h"
 1568              		.file 19 "..\\..\\..\\lvgl\\version_6.1.2\\lvgl\\src\\lv_objx\\../lv_objx/lv_ta.h"
 1569              		.file 20 "..\\..\\..\\lvgl\\version_6.1.2\\lvgl\\src\\lv_objx\\../lv_themes/lv_theme.h"