ARM GAS  C:\Users\tmj32\AppData\Local\Temp\ccSL9kiF.s 			page 1


   1              		.syntax unified
   2              		.cpu cortex-m4
   3              		.eabi_attribute 27, 1
   4              		.fpu fpv4-sp-d16
   5              		.eabi_attribute 20, 1
   6              		.eabi_attribute 21, 1
   7              		.eabi_attribute 23, 3
   8              		.eabi_attribute 24, 1
   9              		.eabi_attribute 25, 1
  10              		.eabi_attribute 26, 1
  11              		.eabi_attribute 30, 6
  12              		.eabi_attribute 34, 1
  13              		.eabi_attribute 18, 4
  14              		.thumb
  15              		.syntax unified
  16              		.file	"lv_style.c"
  17              		.text
  18              	.Ltext0:
  19              		.cfi_sections	.debug_frame
  20              		.section	.text.lv_color_mix,"ax",%progbits
  21              		.align	2
  22              		.thumb
  23              		.thumb_func
  24              		.type	lv_color_mix, %function
  25              	lv_color_mix:
  26              	.LFB5:
  27              		.file 1 "..\\..\\..\\lvgl\\version_6.1.2\\lvgl\\src\\lv_core\\../lv_misc/lv_color.h"
   1:..\..\..\lvgl\version_6.1.2\lvgl\src\lv_core\../lv_misc/lv_color.h **** /**
   2:..\..\..\lvgl\version_6.1.2\lvgl\src\lv_core\../lv_misc/lv_color.h ****  * @file lv_color.h
   3:..\..\..\lvgl\version_6.1.2\lvgl\src\lv_core\../lv_misc/lv_color.h ****  *
   4:..\..\..\lvgl\version_6.1.2\lvgl\src\lv_core\../lv_misc/lv_color.h ****  */
   5:..\..\..\lvgl\version_6.1.2\lvgl\src\lv_core\../lv_misc/lv_color.h **** 
   6:..\..\..\lvgl\version_6.1.2\lvgl\src\lv_core\../lv_misc/lv_color.h **** #ifndef LV_COLOR_H
   7:..\..\..\lvgl\version_6.1.2\lvgl\src\lv_core\../lv_misc/lv_color.h **** #define LV_COLOR_H
   8:..\..\..\lvgl\version_6.1.2\lvgl\src\lv_core\../lv_misc/lv_color.h **** 
   9:..\..\..\lvgl\version_6.1.2\lvgl\src\lv_core\../lv_misc/lv_color.h **** #ifdef __cplusplus
  10:..\..\..\lvgl\version_6.1.2\lvgl\src\lv_core\../lv_misc/lv_color.h **** extern "C" {
  11:..\..\..\lvgl\version_6.1.2\lvgl\src\lv_core\../lv_misc/lv_color.h **** #endif
  12:..\..\..\lvgl\version_6.1.2\lvgl\src\lv_core\../lv_misc/lv_color.h **** 
  13:..\..\..\lvgl\version_6.1.2\lvgl\src\lv_core\../lv_misc/lv_color.h **** /*********************
  14:..\..\..\lvgl\version_6.1.2\lvgl\src\lv_core\../lv_misc/lv_color.h ****  *      INCLUDES
  15:..\..\..\lvgl\version_6.1.2\lvgl\src\lv_core\../lv_misc/lv_color.h ****  *********************/
  16:..\..\..\lvgl\version_6.1.2\lvgl\src\lv_core\../lv_misc/lv_color.h **** #ifdef LV_CONF_INCLUDE_SIMPLE
  17:..\..\..\lvgl\version_6.1.2\lvgl\src\lv_core\../lv_misc/lv_color.h **** #include "lv_conf.h"
  18:..\..\..\lvgl\version_6.1.2\lvgl\src\lv_core\../lv_misc/lv_color.h **** #else
  19:..\..\..\lvgl\version_6.1.2\lvgl\src\lv_core\../lv_misc/lv_color.h **** #include "../../../lv_conf.h"
  20:..\..\..\lvgl\version_6.1.2\lvgl\src\lv_core\../lv_misc/lv_color.h **** #endif
  21:..\..\..\lvgl\version_6.1.2\lvgl\src\lv_core\../lv_misc/lv_color.h **** 
  22:..\..\..\lvgl\version_6.1.2\lvgl\src\lv_core\../lv_misc/lv_color.h **** /*Error checking*/
  23:..\..\..\lvgl\version_6.1.2\lvgl\src\lv_core\../lv_misc/lv_color.h **** #if LV_COLOR_DEPTH == 24
  24:..\..\..\lvgl\version_6.1.2\lvgl\src\lv_core\../lv_misc/lv_color.h **** #error "LV_COLOR_DEPTH  24 is deprecated. Use LV_COLOR_DEPTH  32 instead (lv_conf.h)"
  25:..\..\..\lvgl\version_6.1.2\lvgl\src\lv_core\../lv_misc/lv_color.h **** #endif
  26:..\..\..\lvgl\version_6.1.2\lvgl\src\lv_core\../lv_misc/lv_color.h **** 
  27:..\..\..\lvgl\version_6.1.2\lvgl\src\lv_core\../lv_misc/lv_color.h **** #if LV_COLOR_DEPTH != 32 && LV_COLOR_SCREEN_TRANSP != 0
  28:..\..\..\lvgl\version_6.1.2\lvgl\src\lv_core\../lv_misc/lv_color.h **** #error "LV_COLOR_SCREEN_TRANSP requires LV_COLOR_DEPTH == 32. Set it in lv_conf.h"
  29:..\..\..\lvgl\version_6.1.2\lvgl\src\lv_core\../lv_misc/lv_color.h **** #endif
  30:..\..\..\lvgl\version_6.1.2\lvgl\src\lv_core\../lv_misc/lv_color.h **** 
ARM GAS  C:\Users\tmj32\AppData\Local\Temp\ccSL9kiF.s 			page 2


  31:..\..\..\lvgl\version_6.1.2\lvgl\src\lv_core\../lv_misc/lv_color.h **** #if LV_COLOR_DEPTH != 16 && LV_COLOR_16_SWAP != 0
  32:..\..\..\lvgl\version_6.1.2\lvgl\src\lv_core\../lv_misc/lv_color.h **** #error "LV_COLOR_16_SWAP requires LV_COLOR_DEPTH == 16. Set it in lv_conf.h"
  33:..\..\..\lvgl\version_6.1.2\lvgl\src\lv_core\../lv_misc/lv_color.h **** #endif
  34:..\..\..\lvgl\version_6.1.2\lvgl\src\lv_core\../lv_misc/lv_color.h **** 
  35:..\..\..\lvgl\version_6.1.2\lvgl\src\lv_core\../lv_misc/lv_color.h **** #include <stdint.h>
  36:..\..\..\lvgl\version_6.1.2\lvgl\src\lv_core\../lv_misc/lv_color.h **** 
  37:..\..\..\lvgl\version_6.1.2\lvgl\src\lv_core\../lv_misc/lv_color.h **** /*********************
  38:..\..\..\lvgl\version_6.1.2\lvgl\src\lv_core\../lv_misc/lv_color.h ****  *      DEFINES
  39:..\..\..\lvgl\version_6.1.2\lvgl\src\lv_core\../lv_misc/lv_color.h ****  *********************/
  40:..\..\..\lvgl\version_6.1.2\lvgl\src\lv_core\../lv_misc/lv_color.h **** #define LV_COLOR_WHITE LV_COLOR_MAKE(0xFF, 0xFF, 0xFF)
  41:..\..\..\lvgl\version_6.1.2\lvgl\src\lv_core\../lv_misc/lv_color.h **** #define LV_COLOR_SILVER LV_COLOR_MAKE(0xC0, 0xC0, 0xC0)
  42:..\..\..\lvgl\version_6.1.2\lvgl\src\lv_core\../lv_misc/lv_color.h **** #define LV_COLOR_GRAY LV_COLOR_MAKE(0x80, 0x80, 0x80)
  43:..\..\..\lvgl\version_6.1.2\lvgl\src\lv_core\../lv_misc/lv_color.h **** #define LV_COLOR_BLACK LV_COLOR_MAKE(0x00, 0x00, 0x00)
  44:..\..\..\lvgl\version_6.1.2\lvgl\src\lv_core\../lv_misc/lv_color.h **** #define LV_COLOR_RED LV_COLOR_MAKE(0xFF, 0x00, 0x00)
  45:..\..\..\lvgl\version_6.1.2\lvgl\src\lv_core\../lv_misc/lv_color.h **** #define LV_COLOR_MAROON LV_COLOR_MAKE(0x80, 0x00, 0x00)
  46:..\..\..\lvgl\version_6.1.2\lvgl\src\lv_core\../lv_misc/lv_color.h **** #define LV_COLOR_YELLOW LV_COLOR_MAKE(0xFF, 0xFF, 0x00)
  47:..\..\..\lvgl\version_6.1.2\lvgl\src\lv_core\../lv_misc/lv_color.h **** #define LV_COLOR_OLIVE LV_COLOR_MAKE(0x80, 0x80, 0x00)
  48:..\..\..\lvgl\version_6.1.2\lvgl\src\lv_core\../lv_misc/lv_color.h **** #define LV_COLOR_LIME LV_COLOR_MAKE(0x00, 0xFF, 0x00)
  49:..\..\..\lvgl\version_6.1.2\lvgl\src\lv_core\../lv_misc/lv_color.h **** #define LV_COLOR_GREEN LV_COLOR_MAKE(0x00, 0x80, 0x00)
  50:..\..\..\lvgl\version_6.1.2\lvgl\src\lv_core\../lv_misc/lv_color.h **** #define LV_COLOR_CYAN LV_COLOR_MAKE(0x00, 0xFF, 0xFF)
  51:..\..\..\lvgl\version_6.1.2\lvgl\src\lv_core\../lv_misc/lv_color.h **** #define LV_COLOR_AQUA LV_COLOR_CYAN
  52:..\..\..\lvgl\version_6.1.2\lvgl\src\lv_core\../lv_misc/lv_color.h **** #define LV_COLOR_TEAL LV_COLOR_MAKE(0x00, 0x80, 0x80)
  53:..\..\..\lvgl\version_6.1.2\lvgl\src\lv_core\../lv_misc/lv_color.h **** #define LV_COLOR_BLUE LV_COLOR_MAKE(0x00, 0x00, 0xFF)
  54:..\..\..\lvgl\version_6.1.2\lvgl\src\lv_core\../lv_misc/lv_color.h **** #define LV_COLOR_NAVY LV_COLOR_MAKE(0x00, 0x00, 0x80)
  55:..\..\..\lvgl\version_6.1.2\lvgl\src\lv_core\../lv_misc/lv_color.h **** #define LV_COLOR_MAGENTA LV_COLOR_MAKE(0xFF, 0x00, 0xFF)
  56:..\..\..\lvgl\version_6.1.2\lvgl\src\lv_core\../lv_misc/lv_color.h **** #define LV_COLOR_PURPLE LV_COLOR_MAKE(0x80, 0x00, 0x80)
  57:..\..\..\lvgl\version_6.1.2\lvgl\src\lv_core\../lv_misc/lv_color.h **** #define LV_COLOR_ORANGE LV_COLOR_MAKE(0xFF, 0xA5, 0x00)
  58:..\..\..\lvgl\version_6.1.2\lvgl\src\lv_core\../lv_misc/lv_color.h **** 
  59:..\..\..\lvgl\version_6.1.2\lvgl\src\lv_core\../lv_misc/lv_color.h **** /**
  60:..\..\..\lvgl\version_6.1.2\lvgl\src\lv_core\../lv_misc/lv_color.h ****  * Opacity percentages.
  61:..\..\..\lvgl\version_6.1.2\lvgl\src\lv_core\../lv_misc/lv_color.h ****  */
  62:..\..\..\lvgl\version_6.1.2\lvgl\src\lv_core\../lv_misc/lv_color.h **** enum {
  63:..\..\..\lvgl\version_6.1.2\lvgl\src\lv_core\../lv_misc/lv_color.h ****     LV_OPA_TRANSP = 0,
  64:..\..\..\lvgl\version_6.1.2\lvgl\src\lv_core\../lv_misc/lv_color.h ****     LV_OPA_0      = 0,
  65:..\..\..\lvgl\version_6.1.2\lvgl\src\lv_core\../lv_misc/lv_color.h ****     LV_OPA_10     = 25,
  66:..\..\..\lvgl\version_6.1.2\lvgl\src\lv_core\../lv_misc/lv_color.h ****     LV_OPA_20     = 51,
  67:..\..\..\lvgl\version_6.1.2\lvgl\src\lv_core\../lv_misc/lv_color.h ****     LV_OPA_30     = 76,
  68:..\..\..\lvgl\version_6.1.2\lvgl\src\lv_core\../lv_misc/lv_color.h ****     LV_OPA_40     = 102,
  69:..\..\..\lvgl\version_6.1.2\lvgl\src\lv_core\../lv_misc/lv_color.h ****     LV_OPA_50     = 127,
  70:..\..\..\lvgl\version_6.1.2\lvgl\src\lv_core\../lv_misc/lv_color.h ****     LV_OPA_60     = 153,
  71:..\..\..\lvgl\version_6.1.2\lvgl\src\lv_core\../lv_misc/lv_color.h ****     LV_OPA_70     = 178,
  72:..\..\..\lvgl\version_6.1.2\lvgl\src\lv_core\../lv_misc/lv_color.h ****     LV_OPA_80     = 204,
  73:..\..\..\lvgl\version_6.1.2\lvgl\src\lv_core\../lv_misc/lv_color.h ****     LV_OPA_90     = 229,
  74:..\..\..\lvgl\version_6.1.2\lvgl\src\lv_core\../lv_misc/lv_color.h ****     LV_OPA_100    = 255,
  75:..\..\..\lvgl\version_6.1.2\lvgl\src\lv_core\../lv_misc/lv_color.h ****     LV_OPA_COVER  = 255,
  76:..\..\..\lvgl\version_6.1.2\lvgl\src\lv_core\../lv_misc/lv_color.h **** };
  77:..\..\..\lvgl\version_6.1.2\lvgl\src\lv_core\../lv_misc/lv_color.h **** 
  78:..\..\..\lvgl\version_6.1.2\lvgl\src\lv_core\../lv_misc/lv_color.h **** #define LV_OPA_MIN 16  /*Opacities below this will be transparent*/
  79:..\..\..\lvgl\version_6.1.2\lvgl\src\lv_core\../lv_misc/lv_color.h **** #define LV_OPA_MAX 251 /*Opacities above this will fully cover*/
  80:..\..\..\lvgl\version_6.1.2\lvgl\src\lv_core\../lv_misc/lv_color.h **** 
  81:..\..\..\lvgl\version_6.1.2\lvgl\src\lv_core\../lv_misc/lv_color.h **** #if LV_COLOR_DEPTH == 1
  82:..\..\..\lvgl\version_6.1.2\lvgl\src\lv_core\../lv_misc/lv_color.h **** #define LV_COLOR_SIZE 8
  83:..\..\..\lvgl\version_6.1.2\lvgl\src\lv_core\../lv_misc/lv_color.h **** #elif LV_COLOR_DEPTH == 8
  84:..\..\..\lvgl\version_6.1.2\lvgl\src\lv_core\../lv_misc/lv_color.h **** #define LV_COLOR_SIZE 8
  85:..\..\..\lvgl\version_6.1.2\lvgl\src\lv_core\../lv_misc/lv_color.h **** #elif LV_COLOR_DEPTH == 16
  86:..\..\..\lvgl\version_6.1.2\lvgl\src\lv_core\../lv_misc/lv_color.h **** #define LV_COLOR_SIZE 16
  87:..\..\..\lvgl\version_6.1.2\lvgl\src\lv_core\../lv_misc/lv_color.h **** #elif LV_COLOR_DEPTH == 32
ARM GAS  C:\Users\tmj32\AppData\Local\Temp\ccSL9kiF.s 			page 3


  88:..\..\..\lvgl\version_6.1.2\lvgl\src\lv_core\../lv_misc/lv_color.h **** #define LV_COLOR_SIZE 32
  89:..\..\..\lvgl\version_6.1.2\lvgl\src\lv_core\../lv_misc/lv_color.h **** #else
  90:..\..\..\lvgl\version_6.1.2\lvgl\src\lv_core\../lv_misc/lv_color.h **** #error "Invalid LV_COLOR_DEPTH in lv_conf.h! Set it to 1, 8, 16 or 32!"
  91:..\..\..\lvgl\version_6.1.2\lvgl\src\lv_core\../lv_misc/lv_color.h **** #endif
  92:..\..\..\lvgl\version_6.1.2\lvgl\src\lv_core\../lv_misc/lv_color.h **** 
  93:..\..\..\lvgl\version_6.1.2\lvgl\src\lv_core\../lv_misc/lv_color.h **** /*---------------------------------------
  94:..\..\..\lvgl\version_6.1.2\lvgl\src\lv_core\../lv_misc/lv_color.h ****  * Macros for all existing  color depths
  95:..\..\..\lvgl\version_6.1.2\lvgl\src\lv_core\../lv_misc/lv_color.h ****  * to set/get values of the color channels
  96:..\..\..\lvgl\version_6.1.2\lvgl\src\lv_core\../lv_misc/lv_color.h ****  *------------------------------------------*/
  97:..\..\..\lvgl\version_6.1.2\lvgl\src\lv_core\../lv_misc/lv_color.h **** # define LV_COLOR_SET_R1(c, v) (c).ch.red = (uint8_t)((v) & 0x1);
  98:..\..\..\lvgl\version_6.1.2\lvgl\src\lv_core\../lv_misc/lv_color.h **** # define LV_COLOR_SET_G1(c, v) (c).ch.green = (uint8_t)((v) & 0x1);
  99:..\..\..\lvgl\version_6.1.2\lvgl\src\lv_core\../lv_misc/lv_color.h **** # define LV_COLOR_SET_B1(c, v) (c).ch.blue = (uint8_t)((v) & 0x1);
 100:..\..\..\lvgl\version_6.1.2\lvgl\src\lv_core\../lv_misc/lv_color.h **** # define LV_COLOR_SET_A1(c, v)
 101:..\..\..\lvgl\version_6.1.2\lvgl\src\lv_core\../lv_misc/lv_color.h **** 
 102:..\..\..\lvgl\version_6.1.2\lvgl\src\lv_core\../lv_misc/lv_color.h **** # define LV_COLOR_GET_R1(c) (c).ch.red
 103:..\..\..\lvgl\version_6.1.2\lvgl\src\lv_core\../lv_misc/lv_color.h **** # define LV_COLOR_GET_G1(c) (c).ch.green
 104:..\..\..\lvgl\version_6.1.2\lvgl\src\lv_core\../lv_misc/lv_color.h **** # define LV_COLOR_GET_B1(c) (c).ch.blue
 105:..\..\..\lvgl\version_6.1.2\lvgl\src\lv_core\../lv_misc/lv_color.h **** # define LV_COLOR_GET_A1(c) 1
 106:..\..\..\lvgl\version_6.1.2\lvgl\src\lv_core\../lv_misc/lv_color.h **** 
 107:..\..\..\lvgl\version_6.1.2\lvgl\src\lv_core\../lv_misc/lv_color.h **** # define LV_COLOR_SET_R8(c, v) (c).ch.red = (uint8_t)(v) & 0x7U;
 108:..\..\..\lvgl\version_6.1.2\lvgl\src\lv_core\../lv_misc/lv_color.h **** # define LV_COLOR_SET_G8(c, v) (c).ch.green = (uint8_t)(v) & 0x7U;
 109:..\..\..\lvgl\version_6.1.2\lvgl\src\lv_core\../lv_misc/lv_color.h **** # define LV_COLOR_SET_B8(c, v) (c).ch.blue = (uint8_t)(v) & 0x3U;
 110:..\..\..\lvgl\version_6.1.2\lvgl\src\lv_core\../lv_misc/lv_color.h **** # define LV_COLOR_SET_A8(c, v) do {} while(0)
 111:..\..\..\lvgl\version_6.1.2\lvgl\src\lv_core\../lv_misc/lv_color.h **** 
 112:..\..\..\lvgl\version_6.1.2\lvgl\src\lv_core\../lv_misc/lv_color.h **** # define LV_COLOR_GET_R8(c) (c).ch.red
 113:..\..\..\lvgl\version_6.1.2\lvgl\src\lv_core\../lv_misc/lv_color.h **** # define LV_COLOR_GET_G8(c) (c).ch.green
 114:..\..\..\lvgl\version_6.1.2\lvgl\src\lv_core\../lv_misc/lv_color.h **** # define LV_COLOR_GET_B8(c) (c).ch.blue
 115:..\..\..\lvgl\version_6.1.2\lvgl\src\lv_core\../lv_misc/lv_color.h **** # define LV_COLOR_GET_A8(c) 0xFF
 116:..\..\..\lvgl\version_6.1.2\lvgl\src\lv_core\../lv_misc/lv_color.h **** 
 117:..\..\..\lvgl\version_6.1.2\lvgl\src\lv_core\../lv_misc/lv_color.h **** # define LV_COLOR_SET_R16(c, v) (c).ch.red = (uint8_t)(v) & 0x1FU;
 118:..\..\..\lvgl\version_6.1.2\lvgl\src\lv_core\../lv_misc/lv_color.h **** # define LV_COLOR_SET_G16(c, v) (c).ch.green = (uint8_t)(v) & 0x3FU;
 119:..\..\..\lvgl\version_6.1.2\lvgl\src\lv_core\../lv_misc/lv_color.h **** # define LV_COLOR_SET_G16_SWAP(c, v) {(c).ch.green_h = (uint8_t)(((v) >> 3) & 0x7); (c).ch.green_l 
 120:..\..\..\lvgl\version_6.1.2\lvgl\src\lv_core\../lv_misc/lv_color.h **** # define LV_COLOR_SET_B16(c, v) (c).ch.blue = (uint8_t)(v) & 0x1FU;
 121:..\..\..\lvgl\version_6.1.2\lvgl\src\lv_core\../lv_misc/lv_color.h **** # define LV_COLOR_SET_A16(c, v) do {} while(0)
 122:..\..\..\lvgl\version_6.1.2\lvgl\src\lv_core\../lv_misc/lv_color.h **** 
 123:..\..\..\lvgl\version_6.1.2\lvgl\src\lv_core\../lv_misc/lv_color.h **** # define LV_COLOR_GET_R16(c) (c).ch.red
 124:..\..\..\lvgl\version_6.1.2\lvgl\src\lv_core\../lv_misc/lv_color.h **** # define LV_COLOR_GET_G16(c) (c).ch.green
 125:..\..\..\lvgl\version_6.1.2\lvgl\src\lv_core\../lv_misc/lv_color.h **** # define LV_COLOR_GET_G16_SWAP(c) (((c).ch.green_h << 3) + (c).ch.green_l)
 126:..\..\..\lvgl\version_6.1.2\lvgl\src\lv_core\../lv_misc/lv_color.h **** # define LV_COLOR_GET_B16(c) (c).ch.blue
 127:..\..\..\lvgl\version_6.1.2\lvgl\src\lv_core\../lv_misc/lv_color.h **** # define LV_COLOR_GET_A16(c) 0xFF
 128:..\..\..\lvgl\version_6.1.2\lvgl\src\lv_core\../lv_misc/lv_color.h **** 
 129:..\..\..\lvgl\version_6.1.2\lvgl\src\lv_core\../lv_misc/lv_color.h **** # define LV_COLOR_SET_R32(c, v) (c).ch.red = (uint32_t)((v) & 0xFF);
 130:..\..\..\lvgl\version_6.1.2\lvgl\src\lv_core\../lv_misc/lv_color.h **** # define LV_COLOR_SET_G32(c, v) (c).ch.green = (uint32_t)((v) & 0xFF);
 131:..\..\..\lvgl\version_6.1.2\lvgl\src\lv_core\../lv_misc/lv_color.h **** # define LV_COLOR_SET_B32(c, v) (c).ch.blue = (uint32_t)((v) & 0xFF);
 132:..\..\..\lvgl\version_6.1.2\lvgl\src\lv_core\../lv_misc/lv_color.h **** # define LV_COLOR_SET_A32(c, v) (c).ch.alpha = (uint32_t)((v) & 0xFF);
 133:..\..\..\lvgl\version_6.1.2\lvgl\src\lv_core\../lv_misc/lv_color.h **** 
 134:..\..\..\lvgl\version_6.1.2\lvgl\src\lv_core\../lv_misc/lv_color.h **** # define LV_COLOR_GET_R32(c) (c).ch.red
 135:..\..\..\lvgl\version_6.1.2\lvgl\src\lv_core\../lv_misc/lv_color.h **** # define LV_COLOR_GET_G32(c) (c).ch.green
 136:..\..\..\lvgl\version_6.1.2\lvgl\src\lv_core\../lv_misc/lv_color.h **** # define LV_COLOR_GET_B32(c) (c).ch.blue
 137:..\..\..\lvgl\version_6.1.2\lvgl\src\lv_core\../lv_misc/lv_color.h **** # define LV_COLOR_GET_A32(c) (c).ch.alpha
 138:..\..\..\lvgl\version_6.1.2\lvgl\src\lv_core\../lv_misc/lv_color.h **** 
 139:..\..\..\lvgl\version_6.1.2\lvgl\src\lv_core\../lv_misc/lv_color.h **** 
 140:..\..\..\lvgl\version_6.1.2\lvgl\src\lv_core\../lv_misc/lv_color.h **** /*---------------------------------------
 141:..\..\..\lvgl\version_6.1.2\lvgl\src\lv_core\../lv_misc/lv_color.h ****  * Macros for the current color depth
 142:..\..\..\lvgl\version_6.1.2\lvgl\src\lv_core\../lv_misc/lv_color.h ****  * to set/get values of the color channels
 143:..\..\..\lvgl\version_6.1.2\lvgl\src\lv_core\../lv_misc/lv_color.h ****  *------------------------------------------*/
 144:..\..\..\lvgl\version_6.1.2\lvgl\src\lv_core\../lv_misc/lv_color.h **** #if LV_COLOR_DEPTH == 1
ARM GAS  C:\Users\tmj32\AppData\Local\Temp\ccSL9kiF.s 			page 4


 145:..\..\..\lvgl\version_6.1.2\lvgl\src\lv_core\../lv_misc/lv_color.h **** # define LV_COLOR_SET_R(c, v) LV_COLOR_SET_R1(c,v)
 146:..\..\..\lvgl\version_6.1.2\lvgl\src\lv_core\../lv_misc/lv_color.h **** # define LV_COLOR_SET_G(c, v) LV_COLOR_SET_G1(c,v)
 147:..\..\..\lvgl\version_6.1.2\lvgl\src\lv_core\../lv_misc/lv_color.h **** # define LV_COLOR_SET_B(c, v) LV_COLOR_SET_B1(c,v)
 148:..\..\..\lvgl\version_6.1.2\lvgl\src\lv_core\../lv_misc/lv_color.h **** # define LV_COLOR_SET_A(c, v) LV_COLOR_SET_A1(c,v)
 149:..\..\..\lvgl\version_6.1.2\lvgl\src\lv_core\../lv_misc/lv_color.h **** 
 150:..\..\..\lvgl\version_6.1.2\lvgl\src\lv_core\../lv_misc/lv_color.h **** # define LV_COLOR_GET_R(c) LV_COLOR_GET_R1(c)
 151:..\..\..\lvgl\version_6.1.2\lvgl\src\lv_core\../lv_misc/lv_color.h **** # define LV_COLOR_GET_G(c) LV_COLOR_GET_G1(c)
 152:..\..\..\lvgl\version_6.1.2\lvgl\src\lv_core\../lv_misc/lv_color.h **** # define LV_COLOR_GET_B(c) LV_COLOR_GET_B1(c)
 153:..\..\..\lvgl\version_6.1.2\lvgl\src\lv_core\../lv_misc/lv_color.h **** # define LV_COLOR_GET_A(c) LV_COLOR_GET_A1(c)
 154:..\..\..\lvgl\version_6.1.2\lvgl\src\lv_core\../lv_misc/lv_color.h **** 
 155:..\..\..\lvgl\version_6.1.2\lvgl\src\lv_core\../lv_misc/lv_color.h **** #elif LV_COLOR_DEPTH == 8
 156:..\..\..\lvgl\version_6.1.2\lvgl\src\lv_core\../lv_misc/lv_color.h **** # define LV_COLOR_SET_R(c, v) LV_COLOR_SET_R8(c,v)
 157:..\..\..\lvgl\version_6.1.2\lvgl\src\lv_core\../lv_misc/lv_color.h **** # define LV_COLOR_SET_G(c, v) LV_COLOR_SET_G8(c,v)
 158:..\..\..\lvgl\version_6.1.2\lvgl\src\lv_core\../lv_misc/lv_color.h **** # define LV_COLOR_SET_B(c, v) LV_COLOR_SET_B8(c,v)
 159:..\..\..\lvgl\version_6.1.2\lvgl\src\lv_core\../lv_misc/lv_color.h **** # define LV_COLOR_SET_A(c, v) LV_COLOR_SET_A8(c,v)
 160:..\..\..\lvgl\version_6.1.2\lvgl\src\lv_core\../lv_misc/lv_color.h **** 
 161:..\..\..\lvgl\version_6.1.2\lvgl\src\lv_core\../lv_misc/lv_color.h **** # define LV_COLOR_GET_R(c) LV_COLOR_GET_R8(c)
 162:..\..\..\lvgl\version_6.1.2\lvgl\src\lv_core\../lv_misc/lv_color.h **** # define LV_COLOR_GET_G(c) LV_COLOR_GET_G8(c)
 163:..\..\..\lvgl\version_6.1.2\lvgl\src\lv_core\../lv_misc/lv_color.h **** # define LV_COLOR_GET_B(c) LV_COLOR_GET_B8(c)
 164:..\..\..\lvgl\version_6.1.2\lvgl\src\lv_core\../lv_misc/lv_color.h **** # define LV_COLOR_GET_A(c) LV_COLOR_GET_A8(c)
 165:..\..\..\lvgl\version_6.1.2\lvgl\src\lv_core\../lv_misc/lv_color.h **** 
 166:..\..\..\lvgl\version_6.1.2\lvgl\src\lv_core\../lv_misc/lv_color.h **** #elif LV_COLOR_DEPTH == 16
 167:..\..\..\lvgl\version_6.1.2\lvgl\src\lv_core\../lv_misc/lv_color.h **** # define LV_COLOR_SET_R(c, v) LV_COLOR_SET_R16(c,v)
 168:..\..\..\lvgl\version_6.1.2\lvgl\src\lv_core\../lv_misc/lv_color.h **** # if LV_COLOR_16_SWAP == 0
 169:..\..\..\lvgl\version_6.1.2\lvgl\src\lv_core\../lv_misc/lv_color.h **** #   define LV_COLOR_SET_G(c, v) LV_COLOR_SET_G16(c,v)
 170:..\..\..\lvgl\version_6.1.2\lvgl\src\lv_core\../lv_misc/lv_color.h **** # else
 171:..\..\..\lvgl\version_6.1.2\lvgl\src\lv_core\../lv_misc/lv_color.h **** #   define LV_COLOR_SET_G(c, v) LV_COLOR_SET_G16_SWAP(c,v)
 172:..\..\..\lvgl\version_6.1.2\lvgl\src\lv_core\../lv_misc/lv_color.h **** # endif
 173:..\..\..\lvgl\version_6.1.2\lvgl\src\lv_core\../lv_misc/lv_color.h **** # define LV_COLOR_SET_B(c, v) LV_COLOR_SET_B16(c,v)
 174:..\..\..\lvgl\version_6.1.2\lvgl\src\lv_core\../lv_misc/lv_color.h **** # define LV_COLOR_SET_A(c, v) LV_COLOR_SET_A16(c,v)
 175:..\..\..\lvgl\version_6.1.2\lvgl\src\lv_core\../lv_misc/lv_color.h **** 
 176:..\..\..\lvgl\version_6.1.2\lvgl\src\lv_core\../lv_misc/lv_color.h **** # define LV_COLOR_GET_R(c) LV_COLOR_GET_R16(c)
 177:..\..\..\lvgl\version_6.1.2\lvgl\src\lv_core\../lv_misc/lv_color.h **** # if LV_COLOR_16_SWAP == 0
 178:..\..\..\lvgl\version_6.1.2\lvgl\src\lv_core\../lv_misc/lv_color.h **** #   define LV_COLOR_GET_G(c) LV_COLOR_GET_G16(c)
 179:..\..\..\lvgl\version_6.1.2\lvgl\src\lv_core\../lv_misc/lv_color.h **** # else
 180:..\..\..\lvgl\version_6.1.2\lvgl\src\lv_core\../lv_misc/lv_color.h **** #   define LV_COLOR_GET_G(c) LV_COLOR_GET_G16_SWAP(c)
 181:..\..\..\lvgl\version_6.1.2\lvgl\src\lv_core\../lv_misc/lv_color.h **** # endif
 182:..\..\..\lvgl\version_6.1.2\lvgl\src\lv_core\../lv_misc/lv_color.h **** # define LV_COLOR_GET_B(c)   LV_COLOR_GET_B16(c)
 183:..\..\..\lvgl\version_6.1.2\lvgl\src\lv_core\../lv_misc/lv_color.h **** # define LV_COLOR_GET_A(c)   LV_COLOR_GET_A16(c)
 184:..\..\..\lvgl\version_6.1.2\lvgl\src\lv_core\../lv_misc/lv_color.h **** 
 185:..\..\..\lvgl\version_6.1.2\lvgl\src\lv_core\../lv_misc/lv_color.h **** #elif LV_COLOR_DEPTH == 32
 186:..\..\..\lvgl\version_6.1.2\lvgl\src\lv_core\../lv_misc/lv_color.h **** # define LV_COLOR_SET_R(c, v) LV_COLOR_SET_R32(c,v)
 187:..\..\..\lvgl\version_6.1.2\lvgl\src\lv_core\../lv_misc/lv_color.h **** # define LV_COLOR_SET_G(c, v) LV_COLOR_SET_G32(c,v)
 188:..\..\..\lvgl\version_6.1.2\lvgl\src\lv_core\../lv_misc/lv_color.h **** # define LV_COLOR_SET_B(c, v) LV_COLOR_SET_B32(c,v)
 189:..\..\..\lvgl\version_6.1.2\lvgl\src\lv_core\../lv_misc/lv_color.h **** # define LV_COLOR_SET_A(c, v) LV_COLOR_SET_A32(c,v)
 190:..\..\..\lvgl\version_6.1.2\lvgl\src\lv_core\../lv_misc/lv_color.h **** 
 191:..\..\..\lvgl\version_6.1.2\lvgl\src\lv_core\../lv_misc/lv_color.h **** # define LV_COLOR_GET_R(c) LV_COLOR_GET_R32(c)
 192:..\..\..\lvgl\version_6.1.2\lvgl\src\lv_core\../lv_misc/lv_color.h **** # define LV_COLOR_GET_G(c) LV_COLOR_GET_G32(c)
 193:..\..\..\lvgl\version_6.1.2\lvgl\src\lv_core\../lv_misc/lv_color.h **** # define LV_COLOR_GET_B(c) LV_COLOR_GET_B32(c)
 194:..\..\..\lvgl\version_6.1.2\lvgl\src\lv_core\../lv_misc/lv_color.h **** # define LV_COLOR_GET_A(c) LV_COLOR_GET_A32(c)
 195:..\..\..\lvgl\version_6.1.2\lvgl\src\lv_core\../lv_misc/lv_color.h **** #endif
 196:..\..\..\lvgl\version_6.1.2\lvgl\src\lv_core\../lv_misc/lv_color.h **** 
 197:..\..\..\lvgl\version_6.1.2\lvgl\src\lv_core\../lv_misc/lv_color.h **** /**********************
 198:..\..\..\lvgl\version_6.1.2\lvgl\src\lv_core\../lv_misc/lv_color.h ****  *      TYPEDEFS
 199:..\..\..\lvgl\version_6.1.2\lvgl\src\lv_core\../lv_misc/lv_color.h ****  **********************/
 200:..\..\..\lvgl\version_6.1.2\lvgl\src\lv_core\../lv_misc/lv_color.h **** 
 201:..\..\..\lvgl\version_6.1.2\lvgl\src\lv_core\../lv_misc/lv_color.h **** typedef union
ARM GAS  C:\Users\tmj32\AppData\Local\Temp\ccSL9kiF.s 			page 5


 202:..\..\..\lvgl\version_6.1.2\lvgl\src\lv_core\../lv_misc/lv_color.h **** {
 203:..\..\..\lvgl\version_6.1.2\lvgl\src\lv_core\../lv_misc/lv_color.h ****     struct
 204:..\..\..\lvgl\version_6.1.2\lvgl\src\lv_core\../lv_misc/lv_color.h ****     {
 205:..\..\..\lvgl\version_6.1.2\lvgl\src\lv_core\../lv_misc/lv_color.h ****         uint8_t blue : 1;
 206:..\..\..\lvgl\version_6.1.2\lvgl\src\lv_core\../lv_misc/lv_color.h ****         uint8_t green : 1;
 207:..\..\..\lvgl\version_6.1.2\lvgl\src\lv_core\../lv_misc/lv_color.h ****         uint8_t red : 1;
 208:..\..\..\lvgl\version_6.1.2\lvgl\src\lv_core\../lv_misc/lv_color.h ****     } ch;
 209:..\..\..\lvgl\version_6.1.2\lvgl\src\lv_core\../lv_misc/lv_color.h ****     uint8_t full;
 210:..\..\..\lvgl\version_6.1.2\lvgl\src\lv_core\../lv_misc/lv_color.h **** } lv_color1_t;
 211:..\..\..\lvgl\version_6.1.2\lvgl\src\lv_core\../lv_misc/lv_color.h **** 
 212:..\..\..\lvgl\version_6.1.2\lvgl\src\lv_core\../lv_misc/lv_color.h **** typedef union
 213:..\..\..\lvgl\version_6.1.2\lvgl\src\lv_core\../lv_misc/lv_color.h **** {
 214:..\..\..\lvgl\version_6.1.2\lvgl\src\lv_core\../lv_misc/lv_color.h ****     struct
 215:..\..\..\lvgl\version_6.1.2\lvgl\src\lv_core\../lv_misc/lv_color.h ****     {
 216:..\..\..\lvgl\version_6.1.2\lvgl\src\lv_core\../lv_misc/lv_color.h ****         uint8_t blue : 2;
 217:..\..\..\lvgl\version_6.1.2\lvgl\src\lv_core\../lv_misc/lv_color.h ****         uint8_t green : 3;
 218:..\..\..\lvgl\version_6.1.2\lvgl\src\lv_core\../lv_misc/lv_color.h ****         uint8_t red : 3;
 219:..\..\..\lvgl\version_6.1.2\lvgl\src\lv_core\../lv_misc/lv_color.h ****     } ch;
 220:..\..\..\lvgl\version_6.1.2\lvgl\src\lv_core\../lv_misc/lv_color.h ****     uint8_t full;
 221:..\..\..\lvgl\version_6.1.2\lvgl\src\lv_core\../lv_misc/lv_color.h **** } lv_color8_t;
 222:..\..\..\lvgl\version_6.1.2\lvgl\src\lv_core\../lv_misc/lv_color.h **** 
 223:..\..\..\lvgl\version_6.1.2\lvgl\src\lv_core\../lv_misc/lv_color.h **** typedef union
 224:..\..\..\lvgl\version_6.1.2\lvgl\src\lv_core\../lv_misc/lv_color.h **** {
 225:..\..\..\lvgl\version_6.1.2\lvgl\src\lv_core\../lv_misc/lv_color.h ****     struct
 226:..\..\..\lvgl\version_6.1.2\lvgl\src\lv_core\../lv_misc/lv_color.h ****     {
 227:..\..\..\lvgl\version_6.1.2\lvgl\src\lv_core\../lv_misc/lv_color.h **** #if LV_COLOR_16_SWAP == 0
 228:..\..\..\lvgl\version_6.1.2\lvgl\src\lv_core\../lv_misc/lv_color.h ****         uint16_t blue : 5;
 229:..\..\..\lvgl\version_6.1.2\lvgl\src\lv_core\../lv_misc/lv_color.h ****         uint16_t green : 6;
 230:..\..\..\lvgl\version_6.1.2\lvgl\src\lv_core\../lv_misc/lv_color.h ****         uint16_t red : 5;
 231:..\..\..\lvgl\version_6.1.2\lvgl\src\lv_core\../lv_misc/lv_color.h **** #else
 232:..\..\..\lvgl\version_6.1.2\lvgl\src\lv_core\../lv_misc/lv_color.h ****         uint16_t green_h : 3;
 233:..\..\..\lvgl\version_6.1.2\lvgl\src\lv_core\../lv_misc/lv_color.h ****         uint16_t red : 5;
 234:..\..\..\lvgl\version_6.1.2\lvgl\src\lv_core\../lv_misc/lv_color.h ****         uint16_t blue : 5;
 235:..\..\..\lvgl\version_6.1.2\lvgl\src\lv_core\../lv_misc/lv_color.h ****         uint16_t green_l : 3;
 236:..\..\..\lvgl\version_6.1.2\lvgl\src\lv_core\../lv_misc/lv_color.h **** #endif
 237:..\..\..\lvgl\version_6.1.2\lvgl\src\lv_core\../lv_misc/lv_color.h ****     } ch;
 238:..\..\..\lvgl\version_6.1.2\lvgl\src\lv_core\../lv_misc/lv_color.h ****     uint16_t full;
 239:..\..\..\lvgl\version_6.1.2\lvgl\src\lv_core\../lv_misc/lv_color.h **** } lv_color16_t;
 240:..\..\..\lvgl\version_6.1.2\lvgl\src\lv_core\../lv_misc/lv_color.h **** 
 241:..\..\..\lvgl\version_6.1.2\lvgl\src\lv_core\../lv_misc/lv_color.h **** typedef union
 242:..\..\..\lvgl\version_6.1.2\lvgl\src\lv_core\../lv_misc/lv_color.h **** {
 243:..\..\..\lvgl\version_6.1.2\lvgl\src\lv_core\../lv_misc/lv_color.h ****     struct
 244:..\..\..\lvgl\version_6.1.2\lvgl\src\lv_core\../lv_misc/lv_color.h ****     {
 245:..\..\..\lvgl\version_6.1.2\lvgl\src\lv_core\../lv_misc/lv_color.h ****         uint8_t blue;
 246:..\..\..\lvgl\version_6.1.2\lvgl\src\lv_core\../lv_misc/lv_color.h ****         uint8_t green;
 247:..\..\..\lvgl\version_6.1.2\lvgl\src\lv_core\../lv_misc/lv_color.h ****         uint8_t red;
 248:..\..\..\lvgl\version_6.1.2\lvgl\src\lv_core\../lv_misc/lv_color.h ****         uint8_t alpha;
 249:..\..\..\lvgl\version_6.1.2\lvgl\src\lv_core\../lv_misc/lv_color.h ****     } ch;
 250:..\..\..\lvgl\version_6.1.2\lvgl\src\lv_core\../lv_misc/lv_color.h ****     uint32_t full;
 251:..\..\..\lvgl\version_6.1.2\lvgl\src\lv_core\../lv_misc/lv_color.h **** } lv_color32_t;
 252:..\..\..\lvgl\version_6.1.2\lvgl\src\lv_core\../lv_misc/lv_color.h **** 
 253:..\..\..\lvgl\version_6.1.2\lvgl\src\lv_core\../lv_misc/lv_color.h **** #if LV_COLOR_DEPTH == 1
 254:..\..\..\lvgl\version_6.1.2\lvgl\src\lv_core\../lv_misc/lv_color.h **** typedef uint8_t lv_color_int_t;
 255:..\..\..\lvgl\version_6.1.2\lvgl\src\lv_core\../lv_misc/lv_color.h **** typedef lv_color1_t lv_color_t;
 256:..\..\..\lvgl\version_6.1.2\lvgl\src\lv_core\../lv_misc/lv_color.h **** #elif LV_COLOR_DEPTH == 8
 257:..\..\..\lvgl\version_6.1.2\lvgl\src\lv_core\../lv_misc/lv_color.h **** typedef uint8_t lv_color_int_t;
 258:..\..\..\lvgl\version_6.1.2\lvgl\src\lv_core\../lv_misc/lv_color.h **** typedef lv_color8_t lv_color_t;
ARM GAS  C:\Users\tmj32\AppData\Local\Temp\ccSL9kiF.s 			page 6


 259:..\..\..\lvgl\version_6.1.2\lvgl\src\lv_core\../lv_misc/lv_color.h **** #elif LV_COLOR_DEPTH == 16
 260:..\..\..\lvgl\version_6.1.2\lvgl\src\lv_core\../lv_misc/lv_color.h **** typedef uint16_t lv_color_int_t;
 261:..\..\..\lvgl\version_6.1.2\lvgl\src\lv_core\../lv_misc/lv_color.h **** typedef lv_color16_t lv_color_t;
 262:..\..\..\lvgl\version_6.1.2\lvgl\src\lv_core\../lv_misc/lv_color.h **** #elif LV_COLOR_DEPTH == 32
 263:..\..\..\lvgl\version_6.1.2\lvgl\src\lv_core\../lv_misc/lv_color.h **** typedef uint32_t lv_color_int_t;
 264:..\..\..\lvgl\version_6.1.2\lvgl\src\lv_core\../lv_misc/lv_color.h **** typedef lv_color32_t lv_color_t;
 265:..\..\..\lvgl\version_6.1.2\lvgl\src\lv_core\../lv_misc/lv_color.h **** #else
 266:..\..\..\lvgl\version_6.1.2\lvgl\src\lv_core\../lv_misc/lv_color.h **** #error "Invalid LV_COLOR_DEPTH in lv_conf.h! Set it to 1, 8, 16 or 32!"
 267:..\..\..\lvgl\version_6.1.2\lvgl\src\lv_core\../lv_misc/lv_color.h **** #endif
 268:..\..\..\lvgl\version_6.1.2\lvgl\src\lv_core\../lv_misc/lv_color.h **** 
 269:..\..\..\lvgl\version_6.1.2\lvgl\src\lv_core\../lv_misc/lv_color.h **** typedef uint8_t lv_opa_t;
 270:..\..\..\lvgl\version_6.1.2\lvgl\src\lv_core\../lv_misc/lv_color.h **** 
 271:..\..\..\lvgl\version_6.1.2\lvgl\src\lv_core\../lv_misc/lv_color.h **** typedef struct
 272:..\..\..\lvgl\version_6.1.2\lvgl\src\lv_core\../lv_misc/lv_color.h **** {
 273:..\..\..\lvgl\version_6.1.2\lvgl\src\lv_core\../lv_misc/lv_color.h ****     uint16_t h;
 274:..\..\..\lvgl\version_6.1.2\lvgl\src\lv_core\../lv_misc/lv_color.h ****     uint8_t s;
 275:..\..\..\lvgl\version_6.1.2\lvgl\src\lv_core\../lv_misc/lv_color.h ****     uint8_t v;
 276:..\..\..\lvgl\version_6.1.2\lvgl\src\lv_core\../lv_misc/lv_color.h **** } lv_color_hsv_t;
 277:..\..\..\lvgl\version_6.1.2\lvgl\src\lv_core\../lv_misc/lv_color.h **** 
 278:..\..\..\lvgl\version_6.1.2\lvgl\src\lv_core\../lv_misc/lv_color.h **** /**********************
 279:..\..\..\lvgl\version_6.1.2\lvgl\src\lv_core\../lv_misc/lv_color.h ****  * GLOBAL PROTOTYPES
 280:..\..\..\lvgl\version_6.1.2\lvgl\src\lv_core\../lv_misc/lv_color.h ****  **********************/
 281:..\..\..\lvgl\version_6.1.2\lvgl\src\lv_core\../lv_misc/lv_color.h **** 
 282:..\..\..\lvgl\version_6.1.2\lvgl\src\lv_core\../lv_misc/lv_color.h **** /*In color conversations:
 283:..\..\..\lvgl\version_6.1.2\lvgl\src\lv_core\../lv_misc/lv_color.h ****  * - When converting to bigger color type the LSB weight of 1 LSB is calculated
 284:..\..\..\lvgl\version_6.1.2\lvgl\src\lv_core\../lv_misc/lv_color.h ****  *   E.g. 16 bit Red has 5 bits
 285:..\..\..\lvgl\version_6.1.2\lvgl\src\lv_core\../lv_misc/lv_color.h ****  *         8 bit Red has 2 bits
 286:..\..\..\lvgl\version_6.1.2\lvgl\src\lv_core\../lv_misc/lv_color.h ****  *        ----------------------
 287:..\..\..\lvgl\version_6.1.2\lvgl\src\lv_core\../lv_misc/lv_color.h ****  *        8 bit red LSB = (2^5 - 1) / (2^2 - 1) = 31 / 3 = 10
 288:..\..\..\lvgl\version_6.1.2\lvgl\src\lv_core\../lv_misc/lv_color.h ****  *
 289:..\..\..\lvgl\version_6.1.2\lvgl\src\lv_core\../lv_misc/lv_color.h ****  * - When calculating to smaller color type simply shift out the LSBs
 290:..\..\..\lvgl\version_6.1.2\lvgl\src\lv_core\../lv_misc/lv_color.h ****  *   E.g.  8 bit Red has 2 bits
 291:..\..\..\lvgl\version_6.1.2\lvgl\src\lv_core\../lv_misc/lv_color.h ****  *        16 bit Red has 5 bits
 292:..\..\..\lvgl\version_6.1.2\lvgl\src\lv_core\../lv_misc/lv_color.h ****  *        ----------------------
 293:..\..\..\lvgl\version_6.1.2\lvgl\src\lv_core\../lv_misc/lv_color.h ****  *         Shift right with 5 - 3 = 2
 294:..\..\..\lvgl\version_6.1.2\lvgl\src\lv_core\../lv_misc/lv_color.h ****  */
 295:..\..\..\lvgl\version_6.1.2\lvgl\src\lv_core\../lv_misc/lv_color.h **** 
 296:..\..\..\lvgl\version_6.1.2\lvgl\src\lv_core\../lv_misc/lv_color.h **** static inline uint8_t lv_color_to1(lv_color_t color)
 297:..\..\..\lvgl\version_6.1.2\lvgl\src\lv_core\../lv_misc/lv_color.h **** {
 298:..\..\..\lvgl\version_6.1.2\lvgl\src\lv_core\../lv_misc/lv_color.h **** #if LV_COLOR_DEPTH == 1
 299:..\..\..\lvgl\version_6.1.2\lvgl\src\lv_core\../lv_misc/lv_color.h ****     return color.full;
 300:..\..\..\lvgl\version_6.1.2\lvgl\src\lv_core\../lv_misc/lv_color.h **** #elif LV_COLOR_DEPTH == 8
 301:..\..\..\lvgl\version_6.1.2\lvgl\src\lv_core\../lv_misc/lv_color.h ****     if((LV_COLOR_GET_R(color) & 0x4) || (LV_COLOR_GET_G(color) & 0x4) || (LV_COLOR_GET_B(color) & 0
 302:..\..\..\lvgl\version_6.1.2\lvgl\src\lv_core\../lv_misc/lv_color.h ****         return 1;
 303:..\..\..\lvgl\version_6.1.2\lvgl\src\lv_core\../lv_misc/lv_color.h ****     } else {
 304:..\..\..\lvgl\version_6.1.2\lvgl\src\lv_core\../lv_misc/lv_color.h ****         return 0;
 305:..\..\..\lvgl\version_6.1.2\lvgl\src\lv_core\../lv_misc/lv_color.h ****     }
 306:..\..\..\lvgl\version_6.1.2\lvgl\src\lv_core\../lv_misc/lv_color.h **** #elif LV_COLOR_DEPTH == 16
 307:..\..\..\lvgl\version_6.1.2\lvgl\src\lv_core\../lv_misc/lv_color.h ****     if((LV_COLOR_GET_R(color) & 0x10) || (LV_COLOR_GET_G(color) & 0x20) || (LV_COLOR_GET_B(color) &
 308:..\..\..\lvgl\version_6.1.2\lvgl\src\lv_core\../lv_misc/lv_color.h ****         return 1;
 309:..\..\..\lvgl\version_6.1.2\lvgl\src\lv_core\../lv_misc/lv_color.h ****     } else {
 310:..\..\..\lvgl\version_6.1.2\lvgl\src\lv_core\../lv_misc/lv_color.h ****         return 0;
 311:..\..\..\lvgl\version_6.1.2\lvgl\src\lv_core\../lv_misc/lv_color.h ****     }
 312:..\..\..\lvgl\version_6.1.2\lvgl\src\lv_core\../lv_misc/lv_color.h **** #elif LV_COLOR_DEPTH == 32
 313:..\..\..\lvgl\version_6.1.2\lvgl\src\lv_core\../lv_misc/lv_color.h ****     if((LV_COLOR_GET_R(color) & 0x80) || (LV_COLOR_GET_G(color) & 0x80) || (LV_COLOR_GET_B(color) &
 314:..\..\..\lvgl\version_6.1.2\lvgl\src\lv_core\../lv_misc/lv_color.h ****         return 1;
 315:..\..\..\lvgl\version_6.1.2\lvgl\src\lv_core\../lv_misc/lv_color.h ****     } else {
ARM GAS  C:\Users\tmj32\AppData\Local\Temp\ccSL9kiF.s 			page 7


 316:..\..\..\lvgl\version_6.1.2\lvgl\src\lv_core\../lv_misc/lv_color.h ****         return 0;
 317:..\..\..\lvgl\version_6.1.2\lvgl\src\lv_core\../lv_misc/lv_color.h ****     }
 318:..\..\..\lvgl\version_6.1.2\lvgl\src\lv_core\../lv_misc/lv_color.h **** #endif
 319:..\..\..\lvgl\version_6.1.2\lvgl\src\lv_core\../lv_misc/lv_color.h **** }
 320:..\..\..\lvgl\version_6.1.2\lvgl\src\lv_core\../lv_misc/lv_color.h **** 
 321:..\..\..\lvgl\version_6.1.2\lvgl\src\lv_core\../lv_misc/lv_color.h **** static inline uint8_t lv_color_to8(lv_color_t color)
 322:..\..\..\lvgl\version_6.1.2\lvgl\src\lv_core\../lv_misc/lv_color.h **** {
 323:..\..\..\lvgl\version_6.1.2\lvgl\src\lv_core\../lv_misc/lv_color.h **** #if LV_COLOR_DEPTH == 1
 324:..\..\..\lvgl\version_6.1.2\lvgl\src\lv_core\../lv_misc/lv_color.h ****     if(color.full == 0)
 325:..\..\..\lvgl\version_6.1.2\lvgl\src\lv_core\../lv_misc/lv_color.h ****         return 0;
 326:..\..\..\lvgl\version_6.1.2\lvgl\src\lv_core\../lv_misc/lv_color.h ****     else
 327:..\..\..\lvgl\version_6.1.2\lvgl\src\lv_core\../lv_misc/lv_color.h ****         return 0xFF;
 328:..\..\..\lvgl\version_6.1.2\lvgl\src\lv_core\../lv_misc/lv_color.h **** #elif LV_COLOR_DEPTH == 8
 329:..\..\..\lvgl\version_6.1.2\lvgl\src\lv_core\../lv_misc/lv_color.h ****     return color.full;
 330:..\..\..\lvgl\version_6.1.2\lvgl\src\lv_core\../lv_misc/lv_color.h **** #elif LV_COLOR_DEPTH == 16
 331:..\..\..\lvgl\version_6.1.2\lvgl\src\lv_core\../lv_misc/lv_color.h ****     lv_color8_t ret;
 332:..\..\..\lvgl\version_6.1.2\lvgl\src\lv_core\../lv_misc/lv_color.h ****     LV_COLOR_SET_R8(ret, LV_COLOR_GET_R(color) >> 2);   /* 5 - 3  = 2*/
 333:..\..\..\lvgl\version_6.1.2\lvgl\src\lv_core\../lv_misc/lv_color.h ****     LV_COLOR_SET_G8(ret, LV_COLOR_GET_G(color) >> 3); /* 6 - 3  = 3*/
 334:..\..\..\lvgl\version_6.1.2\lvgl\src\lv_core\../lv_misc/lv_color.h ****     LV_COLOR_SET_B8(ret, LV_COLOR_GET_B(color) >> 3);  /* 5 - 2  = 3*/
 335:..\..\..\lvgl\version_6.1.2\lvgl\src\lv_core\../lv_misc/lv_color.h ****     return ret.full;
 336:..\..\..\lvgl\version_6.1.2\lvgl\src\lv_core\../lv_misc/lv_color.h **** #elif LV_COLOR_DEPTH == 32
 337:..\..\..\lvgl\version_6.1.2\lvgl\src\lv_core\../lv_misc/lv_color.h ****     lv_color8_t ret;
 338:..\..\..\lvgl\version_6.1.2\lvgl\src\lv_core\../lv_misc/lv_color.h ****     LV_COLOR_SET_R8(ret, LV_COLOR_GET_R(color) >> 5);   /* 8 - 3  = 5*/
 339:..\..\..\lvgl\version_6.1.2\lvgl\src\lv_core\../lv_misc/lv_color.h ****     LV_COLOR_SET_G8(ret, LV_COLOR_GET_G(color) >> 5); /* 8 - 3  = 5*/
 340:..\..\..\lvgl\version_6.1.2\lvgl\src\lv_core\../lv_misc/lv_color.h ****     LV_COLOR_SET_B8(ret, LV_COLOR_GET_B(color) >> 6);  /* 8 - 2  = 6*/
 341:..\..\..\lvgl\version_6.1.2\lvgl\src\lv_core\../lv_misc/lv_color.h ****     return ret.full;
 342:..\..\..\lvgl\version_6.1.2\lvgl\src\lv_core\../lv_misc/lv_color.h **** #endif
 343:..\..\..\lvgl\version_6.1.2\lvgl\src\lv_core\../lv_misc/lv_color.h **** }
 344:..\..\..\lvgl\version_6.1.2\lvgl\src\lv_core\../lv_misc/lv_color.h **** 
 345:..\..\..\lvgl\version_6.1.2\lvgl\src\lv_core\../lv_misc/lv_color.h **** static inline uint16_t lv_color_to16(lv_color_t color)
 346:..\..\..\lvgl\version_6.1.2\lvgl\src\lv_core\../lv_misc/lv_color.h **** {
 347:..\..\..\lvgl\version_6.1.2\lvgl\src\lv_core\../lv_misc/lv_color.h **** #if LV_COLOR_DEPTH == 1
 348:..\..\..\lvgl\version_6.1.2\lvgl\src\lv_core\../lv_misc/lv_color.h ****     if(color.full == 0)
 349:..\..\..\lvgl\version_6.1.2\lvgl\src\lv_core\../lv_misc/lv_color.h ****         return 0;
 350:..\..\..\lvgl\version_6.1.2\lvgl\src\lv_core\../lv_misc/lv_color.h ****     else
 351:..\..\..\lvgl\version_6.1.2\lvgl\src\lv_core\../lv_misc/lv_color.h ****         return 0xFFFF;
 352:..\..\..\lvgl\version_6.1.2\lvgl\src\lv_core\../lv_misc/lv_color.h **** #elif LV_COLOR_DEPTH == 8
 353:..\..\..\lvgl\version_6.1.2\lvgl\src\lv_core\../lv_misc/lv_color.h ****     lv_color16_t ret;
 354:..\..\..\lvgl\version_6.1.2\lvgl\src\lv_core\../lv_misc/lv_color.h ****     LV_COLOR_SET_R16(ret, LV_COLOR_GET_R(color) * 4);     /*(2^5 - 1)/(2^3 - 1) = 31/7 = 4*/
 355:..\..\..\lvgl\version_6.1.2\lvgl\src\lv_core\../lv_misc/lv_color.h **** #if LV_COLOR_16_SWAP == 0
 356:..\..\..\lvgl\version_6.1.2\lvgl\src\lv_core\../lv_misc/lv_color.h ****     LV_COLOR_SET_G16(ret,  LV_COLOR_GET_G(color) * 9); /*(2^6 - 1)/(2^3 - 1) = 63/7 = 9*/
 357:..\..\..\lvgl\version_6.1.2\lvgl\src\lv_core\../lv_misc/lv_color.h **** #else
 358:..\..\..\lvgl\version_6.1.2\lvgl\src\lv_core\../lv_misc/lv_color.h ****     LV_COLOR_SET_G16_SWAP(ret, (LV_COLOR_GET_G(color) * 9)); /*(2^6 - 1)/(2^3 - 1) = 63/7 = 9*/
 359:..\..\..\lvgl\version_6.1.2\lvgl\src\lv_core\../lv_misc/lv_color.h **** #endif
 360:..\..\..\lvgl\version_6.1.2\lvgl\src\lv_core\../lv_misc/lv_color.h ****     LV_COLOR_SET_B16(ret, LV_COLOR_GET_B(color) * 10);  /*(2^5 - 1)/(2^2 - 1) = 31/3 = 10*/
 361:..\..\..\lvgl\version_6.1.2\lvgl\src\lv_core\../lv_misc/lv_color.h ****     return ret.full;
 362:..\..\..\lvgl\version_6.1.2\lvgl\src\lv_core\../lv_misc/lv_color.h **** #elif LV_COLOR_DEPTH == 16
 363:..\..\..\lvgl\version_6.1.2\lvgl\src\lv_core\../lv_misc/lv_color.h ****     return color.full;
 364:..\..\..\lvgl\version_6.1.2\lvgl\src\lv_core\../lv_misc/lv_color.h **** #elif LV_COLOR_DEPTH == 32
 365:..\..\..\lvgl\version_6.1.2\lvgl\src\lv_core\../lv_misc/lv_color.h ****     lv_color16_t ret;
 366:..\..\..\lvgl\version_6.1.2\lvgl\src\lv_core\../lv_misc/lv_color.h ****     LV_COLOR_SET_R16(ret, LV_COLOR_GET_R(color) >> 3);   /* 8 - 5  = 3*/
 367:..\..\..\lvgl\version_6.1.2\lvgl\src\lv_core\../lv_misc/lv_color.h **** 
 368:..\..\..\lvgl\version_6.1.2\lvgl\src\lv_core\../lv_misc/lv_color.h **** #if LV_COLOR_16_SWAP == 0
 369:..\..\..\lvgl\version_6.1.2\lvgl\src\lv_core\../lv_misc/lv_color.h ****     LV_COLOR_SET_G16(ret, LV_COLOR_GET_G(color) >> 2); /* 8 - 6  = 2*/
 370:..\..\..\lvgl\version_6.1.2\lvgl\src\lv_core\../lv_misc/lv_color.h **** #else
 371:..\..\..\lvgl\version_6.1.2\lvgl\src\lv_core\../lv_misc/lv_color.h ****     LV_COLOR_SET_G16_SWAP(ret, ret.ch.green_h = (LV_COLOR_GET_G(color) >> 2); /*(2^6 - 1)/(2^3 - 1)
 372:..\..\..\lvgl\version_6.1.2\lvgl\src\lv_core\../lv_misc/lv_color.h **** #endif
ARM GAS  C:\Users\tmj32\AppData\Local\Temp\ccSL9kiF.s 			page 8


 373:..\..\..\lvgl\version_6.1.2\lvgl\src\lv_core\../lv_misc/lv_color.h ****     LV_COLOR_SET_B16(ret, LV_COLOR_GET_B(color) >> 3);  /* 8 - 5  = 3*/
 374:..\..\..\lvgl\version_6.1.2\lvgl\src\lv_core\../lv_misc/lv_color.h ****     return ret.full;
 375:..\..\..\lvgl\version_6.1.2\lvgl\src\lv_core\../lv_misc/lv_color.h **** #endif                         
 376:..\..\..\lvgl\version_6.1.2\lvgl\src\lv_core\../lv_misc/lv_color.h **** }
 377:..\..\..\lvgl\version_6.1.2\lvgl\src\lv_core\../lv_misc/lv_color.h **** 
 378:..\..\..\lvgl\version_6.1.2\lvgl\src\lv_core\../lv_misc/lv_color.h **** static inline uint32_t lv_color_to32(lv_color_t color)
 379:..\..\..\lvgl\version_6.1.2\lvgl\src\lv_core\../lv_misc/lv_color.h **** {
 380:..\..\..\lvgl\version_6.1.2\lvgl\src\lv_core\../lv_misc/lv_color.h **** #if LV_COLOR_DEPTH == 1
 381:..\..\..\lvgl\version_6.1.2\lvgl\src\lv_core\../lv_misc/lv_color.h ****     if(color.full == 0)
 382:..\..\..\lvgl\version_6.1.2\lvgl\src\lv_core\../lv_misc/lv_color.h ****         return 0;
 383:..\..\..\lvgl\version_6.1.2\lvgl\src\lv_core\../lv_misc/lv_color.h ****     else
 384:..\..\..\lvgl\version_6.1.2\lvgl\src\lv_core\../lv_misc/lv_color.h ****         return 0xFFFFFFFF;
 385:..\..\..\lvgl\version_6.1.2\lvgl\src\lv_core\../lv_misc/lv_color.h **** #elif LV_COLOR_DEPTH == 8
 386:..\..\..\lvgl\version_6.1.2\lvgl\src\lv_core\../lv_misc/lv_color.h ****     lv_color32_t ret;
 387:..\..\..\lvgl\version_6.1.2\lvgl\src\lv_core\../lv_misc/lv_color.h ****     LV_COLOR_SET_R32(ret, LV_COLOR_GET_R(color) * 36);     /*(2^8 - 1)/(2^3 - 1) = 255/7 = 36*/
 388:..\..\..\lvgl\version_6.1.2\lvgl\src\lv_core\../lv_misc/lv_color.h ****     LV_COLOR_SET_G32(ret, LV_COLOR_GET_G(color) * 36); /*(2^8 - 1)/(2^3 - 1) = 255/7 = 36*/
 389:..\..\..\lvgl\version_6.1.2\lvgl\src\lv_core\../lv_misc/lv_color.h ****     LV_COLOR_SET_B32(ret, LV_COLOR_GET_B(color) * 85);   /*(2^8 - 1)/(2^2 - 1) = 255/3 = 85*/
 390:..\..\..\lvgl\version_6.1.2\lvgl\src\lv_core\../lv_misc/lv_color.h ****     LV_COLOR_SET_A32(ret, 0xFF);
 391:..\..\..\lvgl\version_6.1.2\lvgl\src\lv_core\../lv_misc/lv_color.h ****     return ret.full;
 392:..\..\..\lvgl\version_6.1.2\lvgl\src\lv_core\../lv_misc/lv_color.h **** #elif LV_COLOR_DEPTH == 16
 393:..\..\..\lvgl\version_6.1.2\lvgl\src\lv_core\../lv_misc/lv_color.h ****     /**
 394:..\..\..\lvgl\version_6.1.2\lvgl\src\lv_core\../lv_misc/lv_color.h ****      * The floating point math for conversion is:
 395:..\..\..\lvgl\version_6.1.2\lvgl\src\lv_core\../lv_misc/lv_color.h ****      *  valueto = valuefrom * ( (2^bitsto - 1) / (float)(2^bitsfrom - 1) )
 396:..\..\..\lvgl\version_6.1.2\lvgl\src\lv_core\../lv_misc/lv_color.h ****      * The faster integer math for conversion is:
 397:..\..\..\lvgl\version_6.1.2\lvgl\src\lv_core\../lv_misc/lv_color.h ****      *  valueto = ( valuefrom * multiplier + adder ) >> divisor
 398:..\..\..\lvgl\version_6.1.2\lvgl\src\lv_core\../lv_misc/lv_color.h ****      *   multiplier = FLOOR( ( (2^bitsto - 1) << divisor ) / (float)(2^bitsfrom - 1) )
 399:..\..\..\lvgl\version_6.1.2\lvgl\src\lv_core\../lv_misc/lv_color.h ****      * 
 400:..\..\..\lvgl\version_6.1.2\lvgl\src\lv_core\../lv_misc/lv_color.h ****      * Find the first divisor where ( adder >> divisor ) <= 0
 401:..\..\..\lvgl\version_6.1.2\lvgl\src\lv_core\../lv_misc/lv_color.h ****      * 
 402:..\..\..\lvgl\version_6.1.2\lvgl\src\lv_core\../lv_misc/lv_color.h ****      * 5-bit to 8-bit: ( 31 * multiplier + adder ) >> divisor = 255
 403:..\..\..\lvgl\version_6.1.2\lvgl\src\lv_core\../lv_misc/lv_color.h ****      * divisor  multiplier  adder  min (0)  max (31)
 404:..\..\..\lvgl\version_6.1.2\lvgl\src\lv_core\../lv_misc/lv_color.h ****      *       0           8      7        7       255
 405:..\..\..\lvgl\version_6.1.2\lvgl\src\lv_core\../lv_misc/lv_color.h ****      *       1          16     14        7       255
 406:..\..\..\lvgl\version_6.1.2\lvgl\src\lv_core\../lv_misc/lv_color.h ****      *       2          32     28        7       255
 407:..\..\..\lvgl\version_6.1.2\lvgl\src\lv_core\../lv_misc/lv_color.h ****      *       3          65     25        3       255
 408:..\..\..\lvgl\version_6.1.2\lvgl\src\lv_core\../lv_misc/lv_color.h ****      *       4         131     19        1       255
 409:..\..\..\lvgl\version_6.1.2\lvgl\src\lv_core\../lv_misc/lv_color.h ****      *       5         263      7        0       255
 410:..\..\..\lvgl\version_6.1.2\lvgl\src\lv_core\../lv_misc/lv_color.h ****      * 
 411:..\..\..\lvgl\version_6.1.2\lvgl\src\lv_core\../lv_misc/lv_color.h ****      * 6-bit to 8-bit: 255 = ( 63 * multiplier + adder ) >> divisor
 412:..\..\..\lvgl\version_6.1.2\lvgl\src\lv_core\../lv_misc/lv_color.h ****      * divisor  multiplier  adder  min (0)  max (63)
 413:..\..\..\lvgl\version_6.1.2\lvgl\src\lv_core\../lv_misc/lv_color.h ****      *       0           4      3        3       255
 414:..\..\..\lvgl\version_6.1.2\lvgl\src\lv_core\../lv_misc/lv_color.h ****      *       1           8      6        3       255
 415:..\..\..\lvgl\version_6.1.2\lvgl\src\lv_core\../lv_misc/lv_color.h ****      *       2          16     12        3       255
 416:..\..\..\lvgl\version_6.1.2\lvgl\src\lv_core\../lv_misc/lv_color.h ****      *       3          32     24        3       255
 417:..\..\..\lvgl\version_6.1.2\lvgl\src\lv_core\../lv_misc/lv_color.h ****      *       4          64     48        3       255
 418:..\..\..\lvgl\version_6.1.2\lvgl\src\lv_core\../lv_misc/lv_color.h ****      *       5         129     33        1       255
 419:..\..\..\lvgl\version_6.1.2\lvgl\src\lv_core\../lv_misc/lv_color.h ****      *       6         259      3        0       255
 420:..\..\..\lvgl\version_6.1.2\lvgl\src\lv_core\../lv_misc/lv_color.h ****      */
 421:..\..\..\lvgl\version_6.1.2\lvgl\src\lv_core\../lv_misc/lv_color.h ****     lv_color32_t ret;
 422:..\..\..\lvgl\version_6.1.2\lvgl\src\lv_core\../lv_misc/lv_color.h ****     LV_COLOR_SET_R32(ret, (LV_COLOR_GET_R(color) * 263 + 7 ) >> 5);
 423:..\..\..\lvgl\version_6.1.2\lvgl\src\lv_core\../lv_misc/lv_color.h ****     LV_COLOR_SET_G32(ret, (LV_COLOR_GET_G(color) * 259 + 3 ) >> 6);
 424:..\..\..\lvgl\version_6.1.2\lvgl\src\lv_core\../lv_misc/lv_color.h ****     LV_COLOR_SET_B32(ret, (LV_COLOR_GET_B(color) * 263 + 7 ) >> 5);
 425:..\..\..\lvgl\version_6.1.2\lvgl\src\lv_core\../lv_misc/lv_color.h ****     LV_COLOR_SET_A32(ret, 0xFF);
 426:..\..\..\lvgl\version_6.1.2\lvgl\src\lv_core\../lv_misc/lv_color.h ****     return ret.full;
 427:..\..\..\lvgl\version_6.1.2\lvgl\src\lv_core\../lv_misc/lv_color.h **** #elif LV_COLOR_DEPTH == 32
 428:..\..\..\lvgl\version_6.1.2\lvgl\src\lv_core\../lv_misc/lv_color.h ****     return color.full;
 429:..\..\..\lvgl\version_6.1.2\lvgl\src\lv_core\../lv_misc/lv_color.h **** #endif
ARM GAS  C:\Users\tmj32\AppData\Local\Temp\ccSL9kiF.s 			page 9


 430:..\..\..\lvgl\version_6.1.2\lvgl\src\lv_core\../lv_misc/lv_color.h **** }
 431:..\..\..\lvgl\version_6.1.2\lvgl\src\lv_core\../lv_misc/lv_color.h **** 
 432:..\..\..\lvgl\version_6.1.2\lvgl\src\lv_core\../lv_misc/lv_color.h **** static inline lv_color_t lv_color_mix(lv_color_t c1, lv_color_t c2, uint8_t mix)
 433:..\..\..\lvgl\version_6.1.2\lvgl\src\lv_core\../lv_misc/lv_color.h **** {
  28              		.loc 1 433 0
  29              		.cfi_startproc
  30              		@ args = 0, pretend = 0, frame = 24
  31              		@ frame_needed = 1, uses_anonymous_args = 0
  32              		@ link register save eliminated.
  33 0000 80B4     		push	{r7}
  34              		.cfi_def_cfa_offset 4
  35              		.cfi_offset 7, -4
  36 0002 87B0     		sub	sp, sp, #28
  37              		.cfi_def_cfa_offset 32
  38 0004 00AF     		add	r7, sp, #0
  39              		.cfi_def_cfa_register 7
  40 0006 F860     		str	r0, [r7, #12]
  41 0008 B960     		str	r1, [r7, #8]
  42 000a 1346     		mov	r3, r2
  43 000c FB71     		strb	r3, [r7, #7]
 434:..\..\..\lvgl\version_6.1.2\lvgl\src\lv_core\../lv_misc/lv_color.h ****     lv_color_t ret;
 435:..\..\..\lvgl\version_6.1.2\lvgl\src\lv_core\../lv_misc/lv_color.h **** #if LV_COLOR_DEPTH != 1
 436:..\..\..\lvgl\version_6.1.2\lvgl\src\lv_core\../lv_misc/lv_color.h ****     /*LV_COLOR_DEPTH == 8, 16 or 32*/
 437:..\..\..\lvgl\version_6.1.2\lvgl\src\lv_core\../lv_misc/lv_color.h ****     LV_COLOR_SET_R(ret, (uint16_t)((uint16_t) LV_COLOR_GET_R(c1) * mix + LV_COLOR_GET_R(c2) * (255 
  44              		.loc 1 437 0
  45 000e BB7B     		ldrb	r3, [r7, #14]	@ zero_extendqisi2
  46 0010 9AB2     		uxth	r2, r3
  47 0012 FB79     		ldrb	r3, [r7, #7]	@ zero_extendqisi2
  48 0014 9BB2     		uxth	r3, r3
  49 0016 12FB03F3 		smulbb	r3, r2, r3
  50 001a 9AB2     		uxth	r2, r3
  51 001c BB7A     		ldrb	r3, [r7, #10]	@ zero_extendqisi2
  52 001e 99B2     		uxth	r1, r3
  53 0020 FB79     		ldrb	r3, [r7, #7]	@ zero_extendqisi2
  54 0022 C3F1FF03 		rsb	r3, r3, #255
  55 0026 9BB2     		uxth	r3, r3
  56 0028 11FB03F3 		smulbb	r3, r1, r3
  57 002c 9BB2     		uxth	r3, r3
  58 002e 1344     		add	r3, r3, r2
  59 0030 9BB2     		uxth	r3, r3
  60 0032 1B0A     		lsrs	r3, r3, #8
  61 0034 9BB2     		uxth	r3, r3
  62 0036 DBB2     		uxtb	r3, r3
  63 0038 BB75     		strb	r3, [r7, #22]
 438:..\..\..\lvgl\version_6.1.2\lvgl\src\lv_core\../lv_misc/lv_color.h ****     LV_COLOR_SET_G(ret, (uint16_t)((uint16_t) LV_COLOR_GET_G(c1) * mix + LV_COLOR_GET_G(c2) * (255 
  64              		.loc 1 438 0
  65 003a 7B7B     		ldrb	r3, [r7, #13]	@ zero_extendqisi2
  66 003c 9AB2     		uxth	r2, r3
  67 003e FB79     		ldrb	r3, [r7, #7]	@ zero_extendqisi2
  68 0040 9BB2     		uxth	r3, r3
  69 0042 12FB03F3 		smulbb	r3, r2, r3
  70 0046 9AB2     		uxth	r2, r3
  71 0048 7B7A     		ldrb	r3, [r7, #9]	@ zero_extendqisi2
  72 004a 99B2     		uxth	r1, r3
  73 004c FB79     		ldrb	r3, [r7, #7]	@ zero_extendqisi2
  74 004e C3F1FF03 		rsb	r3, r3, #255
  75 0052 9BB2     		uxth	r3, r3
ARM GAS  C:\Users\tmj32\AppData\Local\Temp\ccSL9kiF.s 			page 10


  76 0054 11FB03F3 		smulbb	r3, r1, r3
  77 0058 9BB2     		uxth	r3, r3
  78 005a 1344     		add	r3, r3, r2
  79 005c 9BB2     		uxth	r3, r3
  80 005e 1B0A     		lsrs	r3, r3, #8
  81 0060 9BB2     		uxth	r3, r3
  82 0062 DBB2     		uxtb	r3, r3
  83 0064 7B75     		strb	r3, [r7, #21]
 439:..\..\..\lvgl\version_6.1.2\lvgl\src\lv_core\../lv_misc/lv_color.h ****     LV_COLOR_SET_B(ret, (uint16_t)((uint16_t) LV_COLOR_GET_B(c1) * mix + LV_COLOR_GET_B(c2) * (255 
  84              		.loc 1 439 0
  85 0066 3B7B     		ldrb	r3, [r7, #12]	@ zero_extendqisi2
  86 0068 9AB2     		uxth	r2, r3
  87 006a FB79     		ldrb	r3, [r7, #7]	@ zero_extendqisi2
  88 006c 9BB2     		uxth	r3, r3
  89 006e 12FB03F3 		smulbb	r3, r2, r3
  90 0072 9AB2     		uxth	r2, r3
  91 0074 3B7A     		ldrb	r3, [r7, #8]	@ zero_extendqisi2
  92 0076 99B2     		uxth	r1, r3
  93 0078 FB79     		ldrb	r3, [r7, #7]	@ zero_extendqisi2
  94 007a C3F1FF03 		rsb	r3, r3, #255
  95 007e 9BB2     		uxth	r3, r3
  96 0080 11FB03F3 		smulbb	r3, r1, r3
  97 0084 9BB2     		uxth	r3, r3
  98 0086 1344     		add	r3, r3, r2
  99 0088 9BB2     		uxth	r3, r3
 100 008a 1B0A     		lsrs	r3, r3, #8
 101 008c 9BB2     		uxth	r3, r3
 102 008e DBB2     		uxtb	r3, r3
 103 0090 3B75     		strb	r3, [r7, #20]
 440:..\..\..\lvgl\version_6.1.2\lvgl\src\lv_core\../lv_misc/lv_color.h ****     LV_COLOR_SET_A(ret, 0xFF);
 104              		.loc 1 440 0
 105 0092 FF23     		movs	r3, #255
 106 0094 FB75     		strb	r3, [r7, #23]
 441:..\..\..\lvgl\version_6.1.2\lvgl\src\lv_core\../lv_misc/lv_color.h **** #else
 442:..\..\..\lvgl\version_6.1.2\lvgl\src\lv_core\../lv_misc/lv_color.h ****     /*LV_COLOR_DEPTH == 1*/
 443:..\..\..\lvgl\version_6.1.2\lvgl\src\lv_core\../lv_misc/lv_color.h ****     ret.full = mix > LV_OPA_50 ? c1.full : c2.full;
 444:..\..\..\lvgl\version_6.1.2\lvgl\src\lv_core\../lv_misc/lv_color.h **** #endif
 445:..\..\..\lvgl\version_6.1.2\lvgl\src\lv_core\../lv_misc/lv_color.h **** 
 446:..\..\..\lvgl\version_6.1.2\lvgl\src\lv_core\../lv_misc/lv_color.h ****     return ret;
 107              		.loc 1 446 0
 108 0096 7B69     		ldr	r3, [r7, #20]
 447:..\..\..\lvgl\version_6.1.2\lvgl\src\lv_core\../lv_misc/lv_color.h **** }
 109              		.loc 1 447 0
 110 0098 1846     		mov	r0, r3
 111 009a 1C37     		adds	r7, r7, #28
 112              		.cfi_def_cfa_offset 4
 113 009c BD46     		mov	sp, r7
 114              		.cfi_def_cfa_register 13
 115              		@ sp needed
 116 009e 5DF8047B 		ldr	r7, [sp], #4
 117              		.cfi_restore 7
 118              		.cfi_def_cfa_offset 0
 119 00a2 7047     		bx	lr
 120              		.cfi_endproc
 121              	.LFE5:
 122              		.size	lv_color_mix, .-lv_color_mix
 123              		.section	.text.lv_color_make,"ax",%progbits
ARM GAS  C:\Users\tmj32\AppData\Local\Temp\ccSL9kiF.s 			page 11


 124              		.align	2
 125              		.thumb
 126              		.thumb_func
 127              		.type	lv_color_make, %function
 128              	lv_color_make:
 129              	.LFB7:
 448:..\..\..\lvgl\version_6.1.2\lvgl\src\lv_core\../lv_misc/lv_color.h **** 
 449:..\..\..\lvgl\version_6.1.2\lvgl\src\lv_core\../lv_misc/lv_color.h **** /**
 450:..\..\..\lvgl\version_6.1.2\lvgl\src\lv_core\../lv_misc/lv_color.h ****  * Get the brightness of a color
 451:..\..\..\lvgl\version_6.1.2\lvgl\src\lv_core\../lv_misc/lv_color.h ****  * @param color a color
 452:..\..\..\lvgl\version_6.1.2\lvgl\src\lv_core\../lv_misc/lv_color.h ****  * @return the brightness [0..255]
 453:..\..\..\lvgl\version_6.1.2\lvgl\src\lv_core\../lv_misc/lv_color.h ****  */
 454:..\..\..\lvgl\version_6.1.2\lvgl\src\lv_core\../lv_misc/lv_color.h **** static inline uint8_t lv_color_brightness(lv_color_t color)
 455:..\..\..\lvgl\version_6.1.2\lvgl\src\lv_core\../lv_misc/lv_color.h **** {
 456:..\..\..\lvgl\version_6.1.2\lvgl\src\lv_core\../lv_misc/lv_color.h ****     lv_color32_t c32;
 457:..\..\..\lvgl\version_6.1.2\lvgl\src\lv_core\../lv_misc/lv_color.h ****     c32.full        = lv_color_to32(color);
 458:..\..\..\lvgl\version_6.1.2\lvgl\src\lv_core\../lv_misc/lv_color.h ****     uint16_t bright = (uint16_t)(3u * LV_COLOR_GET_R32(c32) + LV_COLOR_GET_B32(c32) + 4u * LV_COLOR
 459:..\..\..\lvgl\version_6.1.2\lvgl\src\lv_core\../lv_misc/lv_color.h ****     return (uint8_t)(bright >> 3);
 460:..\..\..\lvgl\version_6.1.2\lvgl\src\lv_core\../lv_misc/lv_color.h **** }
 461:..\..\..\lvgl\version_6.1.2\lvgl\src\lv_core\../lv_misc/lv_color.h **** 
 462:..\..\..\lvgl\version_6.1.2\lvgl\src\lv_core\../lv_misc/lv_color.h **** /* The most simple macro to create a color from R,G and B values */
 463:..\..\..\lvgl\version_6.1.2\lvgl\src\lv_core\../lv_misc/lv_color.h **** #if LV_COLOR_DEPTH == 1
 464:..\..\..\lvgl\version_6.1.2\lvgl\src\lv_core\../lv_misc/lv_color.h **** #define LV_COLOR_MAKE(r8, g8, b8) ((lv_color_t){.full = (uint8_t)((b8 >> 7) | (g8 >> 7) | (r8 >> 7)
 465:..\..\..\lvgl\version_6.1.2\lvgl\src\lv_core\../lv_misc/lv_color.h **** #elif LV_COLOR_DEPTH == 8
 466:..\..\..\lvgl\version_6.1.2\lvgl\src\lv_core\../lv_misc/lv_color.h **** #define LV_COLOR_MAKE(r8, g8, b8) ((lv_color_t){{(uint8_t)((b8 >> 6) & 0x3U), (uint8_t)((g8 >> 5) &
 467:..\..\..\lvgl\version_6.1.2\lvgl\src\lv_core\../lv_misc/lv_color.h **** #elif LV_COLOR_DEPTH == 16
 468:..\..\..\lvgl\version_6.1.2\lvgl\src\lv_core\../lv_misc/lv_color.h **** #if LV_COLOR_16_SWAP == 0
 469:..\..\..\lvgl\version_6.1.2\lvgl\src\lv_core\../lv_misc/lv_color.h **** #define LV_COLOR_MAKE(r8, g8, b8) ((lv_color_t){{(uint16_t)((b8 >> 3) & 0x1FU), (uint16_t)((g8 >> 2
 470:..\..\..\lvgl\version_6.1.2\lvgl\src\lv_core\../lv_misc/lv_color.h **** #else
 471:..\..\..\lvgl\version_6.1.2\lvgl\src\lv_core\../lv_misc/lv_color.h **** #define LV_COLOR_MAKE(r8, g8, b8) ((lv_color_t){{(uint16_t)((g8 >> 5) & 0x7U), (uint16_t)((r8 >> 3)
 472:..\..\..\lvgl\version_6.1.2\lvgl\src\lv_core\../lv_misc/lv_color.h **** #endif
 473:..\..\..\lvgl\version_6.1.2\lvgl\src\lv_core\../lv_misc/lv_color.h **** #elif LV_COLOR_DEPTH == 32
 474:..\..\..\lvgl\version_6.1.2\lvgl\src\lv_core\../lv_misc/lv_color.h **** #define LV_COLOR_MAKE(r8, g8, b8) ((lv_color_t){{b8, g8, r8, 0xff}}) /*Fix 0xff alpha*/
 475:..\..\..\lvgl\version_6.1.2\lvgl\src\lv_core\../lv_misc/lv_color.h **** #endif
 476:..\..\..\lvgl\version_6.1.2\lvgl\src\lv_core\../lv_misc/lv_color.h **** 
 477:..\..\..\lvgl\version_6.1.2\lvgl\src\lv_core\../lv_misc/lv_color.h **** static inline lv_color_t lv_color_make(uint8_t r, uint8_t g, uint8_t b)
 478:..\..\..\lvgl\version_6.1.2\lvgl\src\lv_core\../lv_misc/lv_color.h **** {
 130              		.loc 1 478 0
 131              		.cfi_startproc
 132              		@ args = 0, pretend = 0, frame = 8
 133              		@ frame_needed = 1, uses_anonymous_args = 0
 134              		@ link register save eliminated.
 135 0000 90B4     		push	{r4, r7}
 136              		.cfi_def_cfa_offset 8
 137              		.cfi_offset 4, -8
 138              		.cfi_offset 7, -4
 139 0002 82B0     		sub	sp, sp, #8
 140              		.cfi_def_cfa_offset 16
 141 0004 00AF     		add	r7, sp, #0
 142              		.cfi_def_cfa_register 7
 143 0006 0446     		mov	r4, r0
 144 0008 0846     		mov	r0, r1
 145 000a 1146     		mov	r1, r2
 146 000c 2246     		mov	r2, r4
 147 000e FA71     		strb	r2, [r7, #7]
 148 0010 0246     		mov	r2, r0
 149 0012 BA71     		strb	r2, [r7, #6]
ARM GAS  C:\Users\tmj32\AppData\Local\Temp\ccSL9kiF.s 			page 12


 150 0014 0A46     		mov	r2, r1
 151 0016 7A71     		strb	r2, [r7, #5]
 479:..\..\..\lvgl\version_6.1.2\lvgl\src\lv_core\../lv_misc/lv_color.h ****     return LV_COLOR_MAKE(r, g, b);
 152              		.loc 1 479 0
 153 0018 7A79     		ldrb	r2, [r7, #5]
 154 001a 62F30703 		bfi	r3, r2, #0, #8
 155 001e BA79     		ldrb	r2, [r7, #6]
 156 0020 62F30F23 		bfi	r3, r2, #8, #8
 157 0024 FA79     		ldrb	r2, [r7, #7]
 158 0026 62F31743 		bfi	r3, r2, #16, #8
 159 002a 43F07F43 		orr	r3, r3, #-16777216
 480:..\..\..\lvgl\version_6.1.2\lvgl\src\lv_core\../lv_misc/lv_color.h **** }
 160              		.loc 1 480 0
 161 002e 1846     		mov	r0, r3
 162 0030 0837     		adds	r7, r7, #8
 163              		.cfi_def_cfa_offset 8
 164 0032 BD46     		mov	sp, r7
 165              		.cfi_def_cfa_register 13
 166              		@ sp needed
 167 0034 90BC     		pop	{r4, r7}
 168              		.cfi_restore 7
 169              		.cfi_restore 4
 170              		.cfi_def_cfa_offset 0
 171 0036 7047     		bx	lr
 172              		.cfi_endproc
 173              	.LFE7:
 174              		.size	lv_color_make, .-lv_color_make
 175              		.comm	lv_style_scr,80,4
 176              		.comm	lv_style_transp,80,4
 177              		.comm	lv_style_transp_fit,80,4
 178              		.comm	lv_style_transp_tight,80,4
 179              		.comm	lv_style_plain,80,4
 180              		.comm	lv_style_plain_color,80,4
 181              		.comm	lv_style_pretty,80,4
 182              		.comm	lv_style_pretty_color,80,4
 183              		.comm	lv_style_btn_rel,80,4
 184              		.comm	lv_style_btn_pr,80,4
 185              		.comm	lv_style_btn_tgl_rel,80,4
 186              		.comm	lv_style_btn_tgl_pr,80,4
 187              		.comm	lv_style_btn_ina,80,4
 188              		.section	.text.lv_style_init,"ax",%progbits
 189              		.align	2
 190              		.global	lv_style_init
 191              		.thumb
 192              		.thumb_func
 193              		.type	lv_style_init, %function
 194              	lv_style_init:
 195              	.LFB31:
 196              		.file 2 "..\\..\\..\\lvgl\\version_6.1.2\\lvgl\\src\\lv_core\\lv_style.c"
   1:..\..\..\lvgl\version_6.1.2\lvgl\src\lv_core/lv_style.c **** /**
   2:..\..\..\lvgl\version_6.1.2\lvgl\src\lv_core/lv_style.c ****  * @file lv_style.c
   3:..\..\..\lvgl\version_6.1.2\lvgl\src\lv_core/lv_style.c ****  *
   4:..\..\..\lvgl\version_6.1.2\lvgl\src\lv_core/lv_style.c ****  */
   5:..\..\..\lvgl\version_6.1.2\lvgl\src\lv_core/lv_style.c **** 
   6:..\..\..\lvgl\version_6.1.2\lvgl\src\lv_core/lv_style.c **** /*********************
   7:..\..\..\lvgl\version_6.1.2\lvgl\src\lv_core/lv_style.c ****  *      INCLUDES
   8:..\..\..\lvgl\version_6.1.2\lvgl\src\lv_core/lv_style.c ****  *********************/
ARM GAS  C:\Users\tmj32\AppData\Local\Temp\ccSL9kiF.s 			page 13


   9:..\..\..\lvgl\version_6.1.2\lvgl\src\lv_core/lv_style.c **** #include "lv_obj.h"
  10:..\..\..\lvgl\version_6.1.2\lvgl\src\lv_core/lv_style.c **** #include "../lv_core/lv_debug.h"
  11:..\..\..\lvgl\version_6.1.2\lvgl\src\lv_core/lv_style.c **** #include "../lv_misc/lv_mem.h"
  12:..\..\..\lvgl\version_6.1.2\lvgl\src\lv_core/lv_style.c **** #include "../lv_misc/lv_anim.h"
  13:..\..\..\lvgl\version_6.1.2\lvgl\src\lv_core/lv_style.c **** 
  14:..\..\..\lvgl\version_6.1.2\lvgl\src\lv_core/lv_style.c **** /*********************
  15:..\..\..\lvgl\version_6.1.2\lvgl\src\lv_core/lv_style.c ****  *      DEFINES
  16:..\..\..\lvgl\version_6.1.2\lvgl\src\lv_core/lv_style.c ****  *********************/
  17:..\..\..\lvgl\version_6.1.2\lvgl\src\lv_core/lv_style.c **** #define STYLE_MIX_MAX 256
  18:..\..\..\lvgl\version_6.1.2\lvgl\src\lv_core/lv_style.c **** #define STYLE_MIX_SHIFT 8 /*log2(STYLE_MIX_MAX)*/
  19:..\..\..\lvgl\version_6.1.2\lvgl\src\lv_core/lv_style.c **** 
  20:..\..\..\lvgl\version_6.1.2\lvgl\src\lv_core/lv_style.c **** #define VAL_PROP(v1, v2, r) v1 + (((v2 - v1) * r) >> STYLE_MIX_SHIFT)
  21:..\..\..\lvgl\version_6.1.2\lvgl\src\lv_core/lv_style.c **** #define STYLE_ATTR_MIX(attr, r)                                                                    
  22:..\..\..\lvgl\version_6.1.2\lvgl\src\lv_core/lv_style.c ****     if(start->attr != end->attr) {                                                                 
  23:..\..\..\lvgl\version_6.1.2\lvgl\src\lv_core/lv_style.c ****         res->attr = VAL_PROP(start->attr, end->attr, r);                                           
  24:..\..\..\lvgl\version_6.1.2\lvgl\src\lv_core/lv_style.c ****     } else {                                                                                       
  25:..\..\..\lvgl\version_6.1.2\lvgl\src\lv_core/lv_style.c ****         res->attr = start->attr;                                                                   
  26:..\..\..\lvgl\version_6.1.2\lvgl\src\lv_core/lv_style.c ****     }
  27:..\..\..\lvgl\version_6.1.2\lvgl\src\lv_core/lv_style.c **** 
  28:..\..\..\lvgl\version_6.1.2\lvgl\src\lv_core/lv_style.c **** /**********************
  29:..\..\..\lvgl\version_6.1.2\lvgl\src\lv_core/lv_style.c ****  *      TYPEDEFS
  30:..\..\..\lvgl\version_6.1.2\lvgl\src\lv_core/lv_style.c ****  **********************/
  31:..\..\..\lvgl\version_6.1.2\lvgl\src\lv_core/lv_style.c **** 
  32:..\..\..\lvgl\version_6.1.2\lvgl\src\lv_core/lv_style.c **** /**********************
  33:..\..\..\lvgl\version_6.1.2\lvgl\src\lv_core/lv_style.c ****  *  STATIC PROTOTYPES
  34:..\..\..\lvgl\version_6.1.2\lvgl\src\lv_core/lv_style.c ****  **********************/
  35:..\..\..\lvgl\version_6.1.2\lvgl\src\lv_core/lv_style.c **** #if LV_USE_ANIMATION
  36:..\..\..\lvgl\version_6.1.2\lvgl\src\lv_core/lv_style.c **** static void style_animator(lv_style_anim_dsc_t * dsc, lv_anim_value_t val);
  37:..\..\..\lvgl\version_6.1.2\lvgl\src\lv_core/lv_style.c **** static void style_animation_common_end_cb(lv_anim_t * a);
  38:..\..\..\lvgl\version_6.1.2\lvgl\src\lv_core/lv_style.c **** #endif
  39:..\..\..\lvgl\version_6.1.2\lvgl\src\lv_core/lv_style.c **** 
  40:..\..\..\lvgl\version_6.1.2\lvgl\src\lv_core/lv_style.c **** /**********************
  41:..\..\..\lvgl\version_6.1.2\lvgl\src\lv_core/lv_style.c ****  *  STATIC VARIABLES
  42:..\..\..\lvgl\version_6.1.2\lvgl\src\lv_core/lv_style.c ****  **********************/
  43:..\..\..\lvgl\version_6.1.2\lvgl\src\lv_core/lv_style.c **** lv_style_t lv_style_scr;
  44:..\..\..\lvgl\version_6.1.2\lvgl\src\lv_core/lv_style.c **** lv_style_t lv_style_transp;
  45:..\..\..\lvgl\version_6.1.2\lvgl\src\lv_core/lv_style.c **** lv_style_t lv_style_transp_fit;
  46:..\..\..\lvgl\version_6.1.2\lvgl\src\lv_core/lv_style.c **** lv_style_t lv_style_transp_tight;
  47:..\..\..\lvgl\version_6.1.2\lvgl\src\lv_core/lv_style.c **** lv_style_t lv_style_plain;
  48:..\..\..\lvgl\version_6.1.2\lvgl\src\lv_core/lv_style.c **** lv_style_t lv_style_plain_color;
  49:..\..\..\lvgl\version_6.1.2\lvgl\src\lv_core/lv_style.c **** lv_style_t lv_style_pretty;
  50:..\..\..\lvgl\version_6.1.2\lvgl\src\lv_core/lv_style.c **** lv_style_t lv_style_pretty_color;
  51:..\..\..\lvgl\version_6.1.2\lvgl\src\lv_core/lv_style.c **** lv_style_t lv_style_btn_rel;
  52:..\..\..\lvgl\version_6.1.2\lvgl\src\lv_core/lv_style.c **** lv_style_t lv_style_btn_pr;
  53:..\..\..\lvgl\version_6.1.2\lvgl\src\lv_core/lv_style.c **** lv_style_t lv_style_btn_tgl_rel;
  54:..\..\..\lvgl\version_6.1.2\lvgl\src\lv_core/lv_style.c **** lv_style_t lv_style_btn_tgl_pr;
  55:..\..\..\lvgl\version_6.1.2\lvgl\src\lv_core/lv_style.c **** lv_style_t lv_style_btn_ina;
  56:..\..\..\lvgl\version_6.1.2\lvgl\src\lv_core/lv_style.c **** 
  57:..\..\..\lvgl\version_6.1.2\lvgl\src\lv_core/lv_style.c **** /**********************
  58:..\..\..\lvgl\version_6.1.2\lvgl\src\lv_core/lv_style.c ****  *      MACROS
  59:..\..\..\lvgl\version_6.1.2\lvgl\src\lv_core/lv_style.c ****  **********************/
  60:..\..\..\lvgl\version_6.1.2\lvgl\src\lv_core/lv_style.c **** 
  61:..\..\..\lvgl\version_6.1.2\lvgl\src\lv_core/lv_style.c **** /**********************
  62:..\..\..\lvgl\version_6.1.2\lvgl\src\lv_core/lv_style.c ****  *   GLOBAL FUNCTIONS
  63:..\..\..\lvgl\version_6.1.2\lvgl\src\lv_core/lv_style.c ****  **********************/
  64:..\..\..\lvgl\version_6.1.2\lvgl\src\lv_core/lv_style.c **** 
  65:..\..\..\lvgl\version_6.1.2\lvgl\src\lv_core/lv_style.c **** /**
ARM GAS  C:\Users\tmj32\AppData\Local\Temp\ccSL9kiF.s 			page 14


  66:..\..\..\lvgl\version_6.1.2\lvgl\src\lv_core/lv_style.c ****  *  Init the basic styles
  67:..\..\..\lvgl\version_6.1.2\lvgl\src\lv_core/lv_style.c ****  */
  68:..\..\..\lvgl\version_6.1.2\lvgl\src\lv_core/lv_style.c **** void lv_style_init(void)
  69:..\..\..\lvgl\version_6.1.2\lvgl\src\lv_core/lv_style.c **** {
 197              		.loc 2 69 0
 198              		.cfi_startproc
 199              		@ args = 0, pretend = 0, frame = 0
 200              		@ frame_needed = 1, uses_anonymous_args = 0
 201 0000 98B5     		push	{r3, r4, r7, lr}
 202              		.cfi_def_cfa_offset 16
 203              		.cfi_offset 3, -16
 204              		.cfi_offset 4, -12
 205              		.cfi_offset 7, -8
 206              		.cfi_offset 14, -4
 207 0002 00AF     		add	r7, sp, #0
 208              		.cfi_def_cfa_register 7
  70:..\..\..\lvgl\version_6.1.2\lvgl\src\lv_core/lv_style.c ****     /* Not White/Black/Gray colors are created by HSV model with
  71:..\..\..\lvgl\version_6.1.2\lvgl\src\lv_core/lv_style.c ****      * HUE = 210*/
  72:..\..\..\lvgl\version_6.1.2\lvgl\src\lv_core/lv_style.c **** 
  73:..\..\..\lvgl\version_6.1.2\lvgl\src\lv_core/lv_style.c ****     /*Screen style*/
  74:..\..\..\lvgl\version_6.1.2\lvgl\src\lv_core/lv_style.c ****     lv_style_scr.glass               = 0;
 209              		.loc 2 74 0
 210 0004 B64A     		ldr	r2, .L6
 211 0006 1378     		ldrb	r3, [r2]
 212 0008 6FF30003 		bfc	r3, #0, #1
 213 000c 1370     		strb	r3, [r2]
  75:..\..\..\lvgl\version_6.1.2\lvgl\src\lv_core/lv_style.c ****     lv_style_scr.body.opa            = LV_OPA_COVER;
 214              		.loc 2 75 0
 215 000e B44B     		ldr	r3, .L6
 216 0010 FF22     		movs	r2, #255
 217 0012 9A73     		strb	r2, [r3, #14]
  76:..\..\..\lvgl\version_6.1.2\lvgl\src\lv_core/lv_style.c ****     lv_style_scr.body.main_color     = LV_COLOR_WHITE;
 218              		.loc 2 76 0
 219 0014 B24B     		ldr	r3, .L6
 220 0016 FF22     		movs	r2, #255
 221 0018 1A71     		strb	r2, [r3, #4]
 222 001a B14B     		ldr	r3, .L6
 223 001c FF22     		movs	r2, #255
 224 001e 5A71     		strb	r2, [r3, #5]
 225 0020 AF4B     		ldr	r3, .L6
 226 0022 FF22     		movs	r2, #255
 227 0024 9A71     		strb	r2, [r3, #6]
 228 0026 AE4B     		ldr	r3, .L6
 229 0028 FF22     		movs	r2, #255
 230 002a DA71     		strb	r2, [r3, #7]
  77:..\..\..\lvgl\version_6.1.2\lvgl\src\lv_core/lv_style.c ****     lv_style_scr.body.grad_color     = LV_COLOR_WHITE;
 231              		.loc 2 77 0
 232 002c AC4B     		ldr	r3, .L6
 233 002e FF22     		movs	r2, #255
 234 0030 1A72     		strb	r2, [r3, #8]
 235 0032 AB4B     		ldr	r3, .L6
 236 0034 FF22     		movs	r2, #255
 237 0036 5A72     		strb	r2, [r3, #9]
 238 0038 A94B     		ldr	r3, .L6
 239 003a FF22     		movs	r2, #255
 240 003c 9A72     		strb	r2, [r3, #10]
 241 003e A84B     		ldr	r3, .L6
ARM GAS  C:\Users\tmj32\AppData\Local\Temp\ccSL9kiF.s 			page 15


 242 0040 FF22     		movs	r2, #255
 243 0042 DA72     		strb	r2, [r3, #11]
  78:..\..\..\lvgl\version_6.1.2\lvgl\src\lv_core/lv_style.c ****     lv_style_scr.body.radius         = 0;
 244              		.loc 2 78 0
 245 0044 A64B     		ldr	r3, .L6
 246 0046 0022     		movs	r2, #0
 247 0048 9A81     		strh	r2, [r3, #12]	@ movhi
  79:..\..\..\lvgl\version_6.1.2\lvgl\src\lv_core/lv_style.c ****     lv_style_scr.body.padding.left   = 0;
 248              		.loc 2 79 0
 249 004a A54B     		ldr	r3, .L6
 250 004c 0022     		movs	r2, #0
 251 004e 9A84     		strh	r2, [r3, #36]	@ movhi
  80:..\..\..\lvgl\version_6.1.2\lvgl\src\lv_core/lv_style.c ****     lv_style_scr.body.padding.right  = 0;
 252              		.loc 2 80 0
 253 0050 A34B     		ldr	r3, .L6
 254 0052 0022     		movs	r2, #0
 255 0054 DA84     		strh	r2, [r3, #38]	@ movhi
  81:..\..\..\lvgl\version_6.1.2\lvgl\src\lv_core/lv_style.c ****     lv_style_scr.body.padding.top    = 0;
 256              		.loc 2 81 0
 257 0056 A24B     		ldr	r3, .L6
 258 0058 0022     		movs	r2, #0
 259 005a 1A84     		strh	r2, [r3, #32]	@ movhi
  82:..\..\..\lvgl\version_6.1.2\lvgl\src\lv_core/lv_style.c ****     lv_style_scr.body.padding.bottom = 0;
 260              		.loc 2 82 0
 261 005c A04B     		ldr	r3, .L6
 262 005e 0022     		movs	r2, #0
 263 0060 5A84     		strh	r2, [r3, #34]	@ movhi
  83:..\..\..\lvgl\version_6.1.2\lvgl\src\lv_core/lv_style.c ****     lv_style_scr.body.padding.inner  = LV_DPI / 20;
 264              		.loc 2 83 0
 265 0062 9F4B     		ldr	r3, .L6
 266 0064 0722     		movs	r2, #7
 267 0066 1A85     		strh	r2, [r3, #40]	@ movhi
  84:..\..\..\lvgl\version_6.1.2\lvgl\src\lv_core/lv_style.c **** 
  85:..\..\..\lvgl\version_6.1.2\lvgl\src\lv_core/lv_style.c ****     lv_style_scr.body.border.color = LV_COLOR_BLACK;
 268              		.loc 2 85 0
 269 0068 9D4B     		ldr	r3, .L6
 270 006a 0022     		movs	r2, #0
 271 006c 1A74     		strb	r2, [r3, #16]
 272 006e 9C4B     		ldr	r3, .L6
 273 0070 0022     		movs	r2, #0
 274 0072 5A74     		strb	r2, [r3, #17]
 275 0074 9A4B     		ldr	r3, .L6
 276 0076 0022     		movs	r2, #0
 277 0078 9A74     		strb	r2, [r3, #18]
 278 007a 994B     		ldr	r3, .L6
 279 007c FF22     		movs	r2, #255
 280 007e DA74     		strb	r2, [r3, #19]
  86:..\..\..\lvgl\version_6.1.2\lvgl\src\lv_core/lv_style.c ****     lv_style_scr.body.border.opa   = LV_OPA_COVER;
 281              		.loc 2 86 0
 282 0080 974B     		ldr	r3, .L6
 283 0082 FF22     		movs	r2, #255
 284 0084 DA75     		strb	r2, [r3, #23]
  87:..\..\..\lvgl\version_6.1.2\lvgl\src\lv_core/lv_style.c ****     lv_style_scr.body.border.width = 0;
 285              		.loc 2 87 0
 286 0086 964B     		ldr	r3, .L6
 287 0088 0022     		movs	r2, #0
 288 008a 9A82     		strh	r2, [r3, #20]	@ movhi
ARM GAS  C:\Users\tmj32\AppData\Local\Temp\ccSL9kiF.s 			page 16


  88:..\..\..\lvgl\version_6.1.2\lvgl\src\lv_core/lv_style.c ****     lv_style_scr.body.border.part  = LV_BORDER_FULL;
 289              		.loc 2 88 0
 290 008c 944B     		ldr	r3, .L6
 291 008e 0F22     		movs	r2, #15
 292 0090 9A75     		strb	r2, [r3, #22]
  89:..\..\..\lvgl\version_6.1.2\lvgl\src\lv_core/lv_style.c **** 
  90:..\..\..\lvgl\version_6.1.2\lvgl\src\lv_core/lv_style.c ****     lv_style_scr.body.shadow.color = LV_COLOR_GRAY;
 293              		.loc 2 90 0
 294 0092 934B     		ldr	r3, .L6
 295 0094 8022     		movs	r2, #128
 296 0096 1A76     		strb	r2, [r3, #24]
 297 0098 914B     		ldr	r3, .L6
 298 009a 8022     		movs	r2, #128
 299 009c 5A76     		strb	r2, [r3, #25]
 300 009e 904B     		ldr	r3, .L6
 301 00a0 8022     		movs	r2, #128
 302 00a2 9A76     		strb	r2, [r3, #26]
 303 00a4 8E4B     		ldr	r3, .L6
 304 00a6 FF22     		movs	r2, #255
 305 00a8 DA76     		strb	r2, [r3, #27]
  91:..\..\..\lvgl\version_6.1.2\lvgl\src\lv_core/lv_style.c ****     lv_style_scr.body.shadow.type  = LV_SHADOW_FULL;
 306              		.loc 2 91 0
 307 00aa 8D4B     		ldr	r3, .L6
 308 00ac 0122     		movs	r2, #1
 309 00ae 9A77     		strb	r2, [r3, #30]
  92:..\..\..\lvgl\version_6.1.2\lvgl\src\lv_core/lv_style.c ****     lv_style_scr.body.shadow.width = 0;
 310              		.loc 2 92 0
 311 00b0 8B4B     		ldr	r3, .L6
 312 00b2 0022     		movs	r2, #0
 313 00b4 9A83     		strh	r2, [r3, #28]	@ movhi
  93:..\..\..\lvgl\version_6.1.2\lvgl\src\lv_core/lv_style.c **** 
  94:..\..\..\lvgl\version_6.1.2\lvgl\src\lv_core/lv_style.c ****     lv_style_scr.text.opa          = LV_OPA_COVER;
 314              		.loc 2 94 0
 315 00b6 8A4B     		ldr	r3, .L6
 316 00b8 FF22     		movs	r2, #255
 317 00ba 83F83C20 		strb	r2, [r3, #60]
  95:..\..\..\lvgl\version_6.1.2\lvgl\src\lv_core/lv_style.c ****     lv_style_scr.text.color        = lv_color_make(0x30, 0x30, 0x30);
 318              		.loc 2 95 0
 319 00be 884C     		ldr	r4, .L6
 320 00c0 3022     		movs	r2, #48
 321 00c2 3021     		movs	r1, #48
 322 00c4 3020     		movs	r0, #48
 323 00c6 FFF7FEFF 		bl	lv_color_make
 324 00ca E062     		str	r0, [r4, #44]
  96:..\..\..\lvgl\version_6.1.2\lvgl\src\lv_core/lv_style.c ****     lv_style_scr.text.sel_color    = lv_color_make(0x55, 0x96, 0xd8);
 325              		.loc 2 96 0
 326 00cc 844C     		ldr	r4, .L6
 327 00ce D822     		movs	r2, #216
 328 00d0 9621     		movs	r1, #150
 329 00d2 5520     		movs	r0, #85
 330 00d4 FFF7FEFF 		bl	lv_color_make
 331 00d8 2063     		str	r0, [r4, #48]
  97:..\..\..\lvgl\version_6.1.2\lvgl\src\lv_core/lv_style.c ****     lv_style_scr.text.font         = LV_FONT_DEFAULT;
 332              		.loc 2 97 0
 333 00da 814B     		ldr	r3, .L6
 334 00dc 814A     		ldr	r2, .L6+4
 335 00de 5A63     		str	r2, [r3, #52]
ARM GAS  C:\Users\tmj32\AppData\Local\Temp\ccSL9kiF.s 			page 17


  98:..\..\..\lvgl\version_6.1.2\lvgl\src\lv_core/lv_style.c ****     lv_style_scr.text.letter_space = 0;
 336              		.loc 2 98 0
 337 00e0 7F4B     		ldr	r3, .L6
 338 00e2 0022     		movs	r2, #0
 339 00e4 1A87     		strh	r2, [r3, #56]	@ movhi
  99:..\..\..\lvgl\version_6.1.2\lvgl\src\lv_core/lv_style.c ****     lv_style_scr.text.line_space   = 2;
 340              		.loc 2 99 0
 341 00e6 7E4B     		ldr	r3, .L6
 342 00e8 0222     		movs	r2, #2
 343 00ea 5A87     		strh	r2, [r3, #58]	@ movhi
 100:..\..\..\lvgl\version_6.1.2\lvgl\src\lv_core/lv_style.c **** 
 101:..\..\..\lvgl\version_6.1.2\lvgl\src\lv_core/lv_style.c ****     lv_style_scr.image.opa     = LV_OPA_COVER;
 344              		.loc 2 101 0
 345 00ec 7C4B     		ldr	r3, .L6
 346 00ee FF22     		movs	r2, #255
 347 00f0 83F84520 		strb	r2, [r3, #69]
 102:..\..\..\lvgl\version_6.1.2\lvgl\src\lv_core/lv_style.c ****     lv_style_scr.image.color   = lv_color_make(0x20, 0x20, 0x20);
 348              		.loc 2 102 0
 349 00f4 7A4C     		ldr	r4, .L6
 350 00f6 2022     		movs	r2, #32
 351 00f8 2021     		movs	r1, #32
 352 00fa 2020     		movs	r0, #32
 353 00fc FFF7FEFF 		bl	lv_color_make
 354 0100 2064     		str	r0, [r4, #64]
 103:..\..\..\lvgl\version_6.1.2\lvgl\src\lv_core/lv_style.c ****     lv_style_scr.image.intense = LV_OPA_TRANSP;
 355              		.loc 2 103 0
 356 0102 774B     		ldr	r3, .L6
 357 0104 0022     		movs	r2, #0
 358 0106 83F84420 		strb	r2, [r3, #68]
 104:..\..\..\lvgl\version_6.1.2\lvgl\src\lv_core/lv_style.c **** 
 105:..\..\..\lvgl\version_6.1.2\lvgl\src\lv_core/lv_style.c ****     lv_style_scr.line.opa     = LV_OPA_COVER;
 359              		.loc 2 105 0
 360 010a 754B     		ldr	r3, .L6
 361 010c FF22     		movs	r2, #255
 362 010e 83F84E20 		strb	r2, [r3, #78]
 106:..\..\..\lvgl\version_6.1.2\lvgl\src\lv_core/lv_style.c ****     lv_style_scr.line.color   = lv_color_make(0x20, 0x20, 0x20);
 363              		.loc 2 106 0
 364 0112 734C     		ldr	r4, .L6
 365 0114 2022     		movs	r2, #32
 366 0116 2021     		movs	r1, #32
 367 0118 2020     		movs	r0, #32
 368 011a FFF7FEFF 		bl	lv_color_make
 369 011e A064     		str	r0, [r4, #72]
 107:..\..\..\lvgl\version_6.1.2\lvgl\src\lv_core/lv_style.c ****     lv_style_scr.line.width   = 2;
 370              		.loc 2 107 0
 371 0120 6F4B     		ldr	r3, .L6
 372 0122 0222     		movs	r2, #2
 373 0124 A3F84C20 		strh	r2, [r3, #76]	@ movhi
 108:..\..\..\lvgl\version_6.1.2\lvgl\src\lv_core/lv_style.c ****     lv_style_scr.line.rounded = 0;
 374              		.loc 2 108 0
 375 0128 6D4A     		ldr	r2, .L6
 376 012a 92F84F30 		ldrb	r3, [r2, #79]
 377 012e 6FF30003 		bfc	r3, #0, #1
 378 0132 82F84F30 		strb	r3, [r2, #79]
 109:..\..\..\lvgl\version_6.1.2\lvgl\src\lv_core/lv_style.c **** 
 110:..\..\..\lvgl\version_6.1.2\lvgl\src\lv_core/lv_style.c **** #if LV_USE_DEBUG
 111:..\..\..\lvgl\version_6.1.2\lvgl\src\lv_core/lv_style.c **** #if LV_USE_ASSERT_STYLE
ARM GAS  C:\Users\tmj32\AppData\Local\Temp\ccSL9kiF.s 			page 18


 112:..\..\..\lvgl\version_6.1.2\lvgl\src\lv_core/lv_style.c ****     lv_style_scr.debug_sentinel = LV_STYLE_DEGUG_SENTINEL_VALUE;
 113:..\..\..\lvgl\version_6.1.2\lvgl\src\lv_core/lv_style.c **** #endif
 114:..\..\..\lvgl\version_6.1.2\lvgl\src\lv_core/lv_style.c **** #endif
 115:..\..\..\lvgl\version_6.1.2\lvgl\src\lv_core/lv_style.c **** 
 116:..\..\..\lvgl\version_6.1.2\lvgl\src\lv_core/lv_style.c ****     /*Plain style (by default near the same as the screen style)*/
 117:..\..\..\lvgl\version_6.1.2\lvgl\src\lv_core/lv_style.c ****     lv_style_copy(&lv_style_plain, &lv_style_scr);
 379              		.loc 2 117 0
 380 0136 6A49     		ldr	r1, .L6
 381 0138 6B48     		ldr	r0, .L6+8
 382 013a FFF7FEFF 		bl	lv_style_copy
 118:..\..\..\lvgl\version_6.1.2\lvgl\src\lv_core/lv_style.c ****     lv_style_plain.body.padding.left   = LV_DPI / 20;
 383              		.loc 2 118 0
 384 013e 6A4B     		ldr	r3, .L6+8
 385 0140 0722     		movs	r2, #7
 386 0142 9A84     		strh	r2, [r3, #36]	@ movhi
 119:..\..\..\lvgl\version_6.1.2\lvgl\src\lv_core/lv_style.c ****     lv_style_plain.body.padding.right  = LV_DPI / 20;
 387              		.loc 2 119 0
 388 0144 684B     		ldr	r3, .L6+8
 389 0146 0722     		movs	r2, #7
 390 0148 DA84     		strh	r2, [r3, #38]	@ movhi
 120:..\..\..\lvgl\version_6.1.2\lvgl\src\lv_core/lv_style.c ****     lv_style_plain.body.padding.top    = LV_DPI / 20;
 391              		.loc 2 120 0
 392 014a 674B     		ldr	r3, .L6+8
 393 014c 0722     		movs	r2, #7
 394 014e 1A84     		strh	r2, [r3, #32]	@ movhi
 121:..\..\..\lvgl\version_6.1.2\lvgl\src\lv_core/lv_style.c ****     lv_style_plain.body.padding.bottom = LV_DPI / 20;
 395              		.loc 2 121 0
 396 0150 654B     		ldr	r3, .L6+8
 397 0152 0722     		movs	r2, #7
 398 0154 5A84     		strh	r2, [r3, #34]	@ movhi
 122:..\..\..\lvgl\version_6.1.2\lvgl\src\lv_core/lv_style.c **** 
 123:..\..\..\lvgl\version_6.1.2\lvgl\src\lv_core/lv_style.c ****     /*Plain color style*/
 124:..\..\..\lvgl\version_6.1.2\lvgl\src\lv_core/lv_style.c ****     lv_style_copy(&lv_style_plain_color, &lv_style_plain);
 399              		.loc 2 124 0
 400 0156 6449     		ldr	r1, .L6+8
 401 0158 6448     		ldr	r0, .L6+12
 402 015a FFF7FEFF 		bl	lv_style_copy
 125:..\..\..\lvgl\version_6.1.2\lvgl\src\lv_core/lv_style.c ****     lv_style_plain_color.text.color      = lv_color_make(0xf0, 0xf0, 0xf0);
 403              		.loc 2 125 0
 404 015e 634C     		ldr	r4, .L6+12
 405 0160 F022     		movs	r2, #240
 406 0162 F021     		movs	r1, #240
 407 0164 F020     		movs	r0, #240
 408 0166 FFF7FEFF 		bl	lv_color_make
 409 016a E062     		str	r0, [r4, #44]
 126:..\..\..\lvgl\version_6.1.2\lvgl\src\lv_core/lv_style.c ****     lv_style_plain_color.image.color     = lv_color_make(0xf0, 0xf0, 0xf0);
 410              		.loc 2 126 0
 411 016c 5F4C     		ldr	r4, .L6+12
 412 016e F022     		movs	r2, #240
 413 0170 F021     		movs	r1, #240
 414 0172 F020     		movs	r0, #240
 415 0174 FFF7FEFF 		bl	lv_color_make
 416 0178 2064     		str	r0, [r4, #64]
 127:..\..\..\lvgl\version_6.1.2\lvgl\src\lv_core/lv_style.c ****     lv_style_plain_color.line.color      = lv_color_make(0xf0, 0xf0, 0xf0);
 417              		.loc 2 127 0
 418 017a 5C4C     		ldr	r4, .L6+12
 419 017c F022     		movs	r2, #240
ARM GAS  C:\Users\tmj32\AppData\Local\Temp\ccSL9kiF.s 			page 19


 420 017e F021     		movs	r1, #240
 421 0180 F020     		movs	r0, #240
 422 0182 FFF7FEFF 		bl	lv_color_make
 423 0186 A064     		str	r0, [r4, #72]
 128:..\..\..\lvgl\version_6.1.2\lvgl\src\lv_core/lv_style.c ****     lv_style_plain_color.body.main_color = lv_color_make(0x55, 0x96, 0xd8);
 424              		.loc 2 128 0
 425 0188 584C     		ldr	r4, .L6+12
 426 018a D822     		movs	r2, #216
 427 018c 9621     		movs	r1, #150
 428 018e 5520     		movs	r0, #85
 429 0190 FFF7FEFF 		bl	lv_color_make
 430 0194 6060     		str	r0, [r4, #4]
 129:..\..\..\lvgl\version_6.1.2\lvgl\src\lv_core/lv_style.c ****     lv_style_plain_color.body.grad_color = lv_style_plain_color.body.main_color;
 431              		.loc 2 129 0
 432 0196 554A     		ldr	r2, .L6+12
 433 0198 544B     		ldr	r3, .L6+12
 434 019a 5B68     		ldr	r3, [r3, #4]
 435 019c 9360     		str	r3, [r2, #8]
 130:..\..\..\lvgl\version_6.1.2\lvgl\src\lv_core/lv_style.c **** 
 131:..\..\..\lvgl\version_6.1.2\lvgl\src\lv_core/lv_style.c ****     /*Pretty style */
 132:..\..\..\lvgl\version_6.1.2\lvgl\src\lv_core/lv_style.c ****     lv_style_copy(&lv_style_pretty, &lv_style_plain);
 436              		.loc 2 132 0
 437 019e 5249     		ldr	r1, .L6+8
 438 01a0 5348     		ldr	r0, .L6+16
 439 01a2 FFF7FEFF 		bl	lv_style_copy
 133:..\..\..\lvgl\version_6.1.2\lvgl\src\lv_core/lv_style.c ****     lv_style_pretty.text.color        = lv_color_make(0x20, 0x20, 0x20);
 440              		.loc 2 133 0
 441 01a6 524C     		ldr	r4, .L6+16
 442 01a8 2022     		movs	r2, #32
 443 01aa 2021     		movs	r1, #32
 444 01ac 2020     		movs	r0, #32
 445 01ae FFF7FEFF 		bl	lv_color_make
 446 01b2 E062     		str	r0, [r4, #44]
 134:..\..\..\lvgl\version_6.1.2\lvgl\src\lv_core/lv_style.c ****     lv_style_pretty.image.color       = lv_color_make(0x20, 0x20, 0x20);
 447              		.loc 2 134 0
 448 01b4 4E4C     		ldr	r4, .L6+16
 449 01b6 2022     		movs	r2, #32
 450 01b8 2021     		movs	r1, #32
 451 01ba 2020     		movs	r0, #32
 452 01bc FFF7FEFF 		bl	lv_color_make
 453 01c0 2064     		str	r0, [r4, #64]
 135:..\..\..\lvgl\version_6.1.2\lvgl\src\lv_core/lv_style.c ****     lv_style_pretty.line.color        = lv_color_make(0x20, 0x20, 0x20);
 454              		.loc 2 135 0
 455 01c2 4B4C     		ldr	r4, .L6+16
 456 01c4 2022     		movs	r2, #32
 457 01c6 2021     		movs	r1, #32
 458 01c8 2020     		movs	r0, #32
 459 01ca FFF7FEFF 		bl	lv_color_make
 460 01ce A064     		str	r0, [r4, #72]
 136:..\..\..\lvgl\version_6.1.2\lvgl\src\lv_core/lv_style.c ****     lv_style_pretty.body.main_color   = LV_COLOR_WHITE;
 461              		.loc 2 136 0
 462 01d0 474B     		ldr	r3, .L6+16
 463 01d2 FF22     		movs	r2, #255
 464 01d4 1A71     		strb	r2, [r3, #4]
 465 01d6 464B     		ldr	r3, .L6+16
 466 01d8 FF22     		movs	r2, #255
 467 01da 5A71     		strb	r2, [r3, #5]
ARM GAS  C:\Users\tmj32\AppData\Local\Temp\ccSL9kiF.s 			page 20


 468 01dc 444B     		ldr	r3, .L6+16
 469 01de FF22     		movs	r2, #255
 470 01e0 9A71     		strb	r2, [r3, #6]
 471 01e2 434B     		ldr	r3, .L6+16
 472 01e4 FF22     		movs	r2, #255
 473 01e6 DA71     		strb	r2, [r3, #7]
 137:..\..\..\lvgl\version_6.1.2\lvgl\src\lv_core/lv_style.c ****     lv_style_pretty.body.grad_color   = LV_COLOR_SILVER;
 474              		.loc 2 137 0
 475 01e8 414B     		ldr	r3, .L6+16
 476 01ea C022     		movs	r2, #192
 477 01ec 1A72     		strb	r2, [r3, #8]
 478 01ee 404B     		ldr	r3, .L6+16
 479 01f0 C022     		movs	r2, #192
 480 01f2 5A72     		strb	r2, [r3, #9]
 481 01f4 3E4B     		ldr	r3, .L6+16
 482 01f6 C022     		movs	r2, #192
 483 01f8 9A72     		strb	r2, [r3, #10]
 484 01fa 3D4B     		ldr	r3, .L6+16
 485 01fc FF22     		movs	r2, #255
 486 01fe DA72     		strb	r2, [r3, #11]
 138:..\..\..\lvgl\version_6.1.2\lvgl\src\lv_core/lv_style.c ****     lv_style_pretty.body.radius       = LV_DPI / 15;
 487              		.loc 2 138 0
 488 0200 3B4B     		ldr	r3, .L6+16
 489 0202 0A22     		movs	r2, #10
 490 0204 9A81     		strh	r2, [r3, #12]	@ movhi
 139:..\..\..\lvgl\version_6.1.2\lvgl\src\lv_core/lv_style.c ****     lv_style_pretty.body.border.color = lv_color_make(0x40, 0x40, 0x40);
 491              		.loc 2 139 0
 492 0206 3A4C     		ldr	r4, .L6+16
 493 0208 4022     		movs	r2, #64
 494 020a 4021     		movs	r1, #64
 495 020c 4020     		movs	r0, #64
 496 020e FFF7FEFF 		bl	lv_color_make
 497 0212 2061     		str	r0, [r4, #16]
 140:..\..\..\lvgl\version_6.1.2\lvgl\src\lv_core/lv_style.c ****     lv_style_pretty.body.border.width = LV_DPI / 50 >= 1 ? LV_DPI / 50 : 1;
 498              		.loc 2 140 0
 499 0214 364B     		ldr	r3, .L6+16
 500 0216 0322     		movs	r2, #3
 501 0218 9A82     		strh	r2, [r3, #20]	@ movhi
 141:..\..\..\lvgl\version_6.1.2\lvgl\src\lv_core/lv_style.c ****     lv_style_pretty.body.border.opa   = LV_OPA_30;
 502              		.loc 2 141 0
 503 021a 354B     		ldr	r3, .L6+16
 504 021c 4C22     		movs	r2, #76
 505 021e DA75     		strb	r2, [r3, #23]
 142:..\..\..\lvgl\version_6.1.2\lvgl\src\lv_core/lv_style.c **** 
 143:..\..\..\lvgl\version_6.1.2\lvgl\src\lv_core/lv_style.c ****     /*Pretty color style*/
 144:..\..\..\lvgl\version_6.1.2\lvgl\src\lv_core/lv_style.c ****     lv_style_copy(&lv_style_pretty_color, &lv_style_pretty);
 506              		.loc 2 144 0
 507 0220 3349     		ldr	r1, .L6+16
 508 0222 3448     		ldr	r0, .L6+20
 509 0224 FFF7FEFF 		bl	lv_style_copy
 145:..\..\..\lvgl\version_6.1.2\lvgl\src\lv_core/lv_style.c ****     lv_style_pretty_color.text.color        = lv_color_make(0xe0, 0xe0, 0xe0);
 510              		.loc 2 145 0
 511 0228 324C     		ldr	r4, .L6+20
 512 022a E022     		movs	r2, #224
 513 022c E021     		movs	r1, #224
 514 022e E020     		movs	r0, #224
 515 0230 FFF7FEFF 		bl	lv_color_make
ARM GAS  C:\Users\tmj32\AppData\Local\Temp\ccSL9kiF.s 			page 21


 516 0234 E062     		str	r0, [r4, #44]
 146:..\..\..\lvgl\version_6.1.2\lvgl\src\lv_core/lv_style.c ****     lv_style_pretty_color.image.color       = lv_color_make(0xe0, 0xe0, 0xe0);
 517              		.loc 2 146 0
 518 0236 2F4C     		ldr	r4, .L6+20
 519 0238 E022     		movs	r2, #224
 520 023a E021     		movs	r1, #224
 521 023c E020     		movs	r0, #224
 522 023e FFF7FEFF 		bl	lv_color_make
 523 0242 2064     		str	r0, [r4, #64]
 147:..\..\..\lvgl\version_6.1.2\lvgl\src\lv_core/lv_style.c ****     lv_style_pretty_color.line.color        = lv_color_make(0xc0, 0xc0, 0xc0);
 524              		.loc 2 147 0
 525 0244 2B4C     		ldr	r4, .L6+20
 526 0246 C022     		movs	r2, #192
 527 0248 C021     		movs	r1, #192
 528 024a C020     		movs	r0, #192
 529 024c FFF7FEFF 		bl	lv_color_make
 530 0250 A064     		str	r0, [r4, #72]
 148:..\..\..\lvgl\version_6.1.2\lvgl\src\lv_core/lv_style.c ****     lv_style_pretty_color.body.main_color   = lv_color_make(0x6b, 0x9a, 0xc7);
 531              		.loc 2 148 0
 532 0252 284C     		ldr	r4, .L6+20
 533 0254 C722     		movs	r2, #199
 534 0256 9A21     		movs	r1, #154
 535 0258 6B20     		movs	r0, #107
 536 025a FFF7FEFF 		bl	lv_color_make
 537 025e 6060     		str	r0, [r4, #4]
 149:..\..\..\lvgl\version_6.1.2\lvgl\src\lv_core/lv_style.c ****     lv_style_pretty_color.body.grad_color   = lv_color_make(0x2b, 0x59, 0x8b);
 538              		.loc 2 149 0
 539 0260 244C     		ldr	r4, .L6+20
 540 0262 8B22     		movs	r2, #139
 541 0264 5921     		movs	r1, #89
 542 0266 2B20     		movs	r0, #43
 543 0268 FFF7FEFF 		bl	lv_color_make
 544 026c A060     		str	r0, [r4, #8]
 150:..\..\..\lvgl\version_6.1.2\lvgl\src\lv_core/lv_style.c ****     lv_style_pretty_color.body.border.color = lv_color_make(0x15, 0x2c, 0x42);
 545              		.loc 2 150 0
 546 026e 214C     		ldr	r4, .L6+20
 547 0270 4222     		movs	r2, #66
 548 0272 2C21     		movs	r1, #44
 549 0274 1520     		movs	r0, #21
 550 0276 FFF7FEFF 		bl	lv_color_make
 551 027a 2061     		str	r0, [r4, #16]
 151:..\..\..\lvgl\version_6.1.2\lvgl\src\lv_core/lv_style.c **** 
 152:..\..\..\lvgl\version_6.1.2\lvgl\src\lv_core/lv_style.c ****     /*Transparent style*/
 153:..\..\..\lvgl\version_6.1.2\lvgl\src\lv_core/lv_style.c ****     lv_style_copy(&lv_style_transp, &lv_style_plain);
 552              		.loc 2 153 0
 553 027c 1A49     		ldr	r1, .L6+8
 554 027e 1E48     		ldr	r0, .L6+24
 555 0280 FFF7FEFF 		bl	lv_style_copy
 154:..\..\..\lvgl\version_6.1.2\lvgl\src\lv_core/lv_style.c ****     lv_style_transp.glass             = 1;
 556              		.loc 2 154 0
 557 0284 1C4A     		ldr	r2, .L6+24
 558 0286 1378     		ldrb	r3, [r2]
 559 0288 43F00103 		orr	r3, r3, #1
 560 028c 1370     		strb	r3, [r2]
 155:..\..\..\lvgl\version_6.1.2\lvgl\src\lv_core/lv_style.c ****     lv_style_transp.body.border.width = 0;
 561              		.loc 2 155 0
 562 028e 1A4B     		ldr	r3, .L6+24
ARM GAS  C:\Users\tmj32\AppData\Local\Temp\ccSL9kiF.s 			page 22


 563 0290 0022     		movs	r2, #0
 564 0292 9A82     		strh	r2, [r3, #20]	@ movhi
 156:..\..\..\lvgl\version_6.1.2\lvgl\src\lv_core/lv_style.c ****     lv_style_transp.body.opa          = LV_OPA_TRANSP;
 565              		.loc 2 156 0
 566 0294 184B     		ldr	r3, .L6+24
 567 0296 0022     		movs	r2, #0
 568 0298 9A73     		strb	r2, [r3, #14]
 157:..\..\..\lvgl\version_6.1.2\lvgl\src\lv_core/lv_style.c **** 
 158:..\..\..\lvgl\version_6.1.2\lvgl\src\lv_core/lv_style.c ****     /*Transparent fitting size*/
 159:..\..\..\lvgl\version_6.1.2\lvgl\src\lv_core/lv_style.c ****     lv_style_copy(&lv_style_transp_fit, &lv_style_transp);
 569              		.loc 2 159 0
 570 029a 1749     		ldr	r1, .L6+24
 571 029c 1748     		ldr	r0, .L6+28
 572 029e FFF7FEFF 		bl	lv_style_copy
 160:..\..\..\lvgl\version_6.1.2\lvgl\src\lv_core/lv_style.c ****     lv_style_transp_fit.body.padding.left   = 0;
 573              		.loc 2 160 0
 574 02a2 164B     		ldr	r3, .L6+28
 575 02a4 0022     		movs	r2, #0
 576 02a6 9A84     		strh	r2, [r3, #36]	@ movhi
 161:..\..\..\lvgl\version_6.1.2\lvgl\src\lv_core/lv_style.c ****     lv_style_transp_fit.body.padding.right  = 0;
 577              		.loc 2 161 0
 578 02a8 144B     		ldr	r3, .L6+28
 579 02aa 0022     		movs	r2, #0
 580 02ac DA84     		strh	r2, [r3, #38]	@ movhi
 162:..\..\..\lvgl\version_6.1.2\lvgl\src\lv_core/lv_style.c ****     lv_style_transp_fit.body.padding.top    = 0;
 581              		.loc 2 162 0
 582 02ae 134B     		ldr	r3, .L6+28
 583 02b0 0022     		movs	r2, #0
 584 02b2 1A84     		strh	r2, [r3, #32]	@ movhi
 163:..\..\..\lvgl\version_6.1.2\lvgl\src\lv_core/lv_style.c ****     lv_style_transp_fit.body.padding.bottom = 0;
 585              		.loc 2 163 0
 586 02b4 114B     		ldr	r3, .L6+28
 587 02b6 0022     		movs	r2, #0
 588 02b8 5A84     		strh	r2, [r3, #34]	@ movhi
 164:..\..\..\lvgl\version_6.1.2\lvgl\src\lv_core/lv_style.c **** 
 165:..\..\..\lvgl\version_6.1.2\lvgl\src\lv_core/lv_style.c ****     /*Transparent tight style*/
 166:..\..\..\lvgl\version_6.1.2\lvgl\src\lv_core/lv_style.c ****     lv_style_copy(&lv_style_transp_tight, &lv_style_transp_fit);
 589              		.loc 2 166 0
 590 02ba 1049     		ldr	r1, .L6+28
 591 02bc 1048     		ldr	r0, .L6+32
 592 02be FFF7FEFF 		bl	lv_style_copy
 167:..\..\..\lvgl\version_6.1.2\lvgl\src\lv_core/lv_style.c ****     lv_style_transp_tight.body.padding.inner = 0;
 593              		.loc 2 167 0
 594 02c2 0F4B     		ldr	r3, .L6+32
 595 02c4 0022     		movs	r2, #0
 596 02c6 1A85     		strh	r2, [r3, #40]	@ movhi
 168:..\..\..\lvgl\version_6.1.2\lvgl\src\lv_core/lv_style.c **** 
 169:..\..\..\lvgl\version_6.1.2\lvgl\src\lv_core/lv_style.c ****     /*Button released style*/
 170:..\..\..\lvgl\version_6.1.2\lvgl\src\lv_core/lv_style.c ****     lv_style_copy(&lv_style_btn_rel, &lv_style_plain);
 597              		.loc 2 170 0
 598 02c8 0749     		ldr	r1, .L6+8
 599 02ca 0E48     		ldr	r0, .L6+36
 600 02cc FFF7FEFF 		bl	lv_style_copy
 171:..\..\..\lvgl\version_6.1.2\lvgl\src\lv_core/lv_style.c ****     lv_style_btn_rel.body.main_color     = lv_color_make(0x76, 0xa2, 0xd0);
 601              		.loc 2 171 0
 602 02d0 0C4C     		ldr	r4, .L6+36
 603 02d2 D022     		movs	r2, #208
ARM GAS  C:\Users\tmj32\AppData\Local\Temp\ccSL9kiF.s 			page 23


 604 02d4 A221     		movs	r1, #162
 605 02d6 7620     		movs	r0, #118
 606 02d8 FFF7FEFF 		bl	lv_color_make
 607 02dc 6060     		str	r0, [r4, #4]
 608 02de 13E0     		b	.L7
 609              	.L8:
 610              		.align	2
 611              	.L6:
 612 02e0 00000000 		.word	lv_style_scr
 613 02e4 00000000 		.word	lv_font_roboto_16
 614 02e8 00000000 		.word	lv_style_plain
 615 02ec 00000000 		.word	lv_style_plain_color
 616 02f0 00000000 		.word	lv_style_pretty
 617 02f4 00000000 		.word	lv_style_pretty_color
 618 02f8 00000000 		.word	lv_style_transp
 619 02fc 00000000 		.word	lv_style_transp_fit
 620 0300 00000000 		.word	lv_style_transp_tight
 621 0304 00000000 		.word	lv_style_btn_rel
 622              	.L7:
 172:..\..\..\lvgl\version_6.1.2\lvgl\src\lv_core/lv_style.c ****     lv_style_btn_rel.body.grad_color     = lv_color_make(0x19, 0x3a, 0x5d);
 623              		.loc 2 172 0
 624 0308 774C     		ldr	r4, .L9
 625 030a 5D22     		movs	r2, #93
 626 030c 3A21     		movs	r1, #58
 627 030e 1920     		movs	r0, #25
 628 0310 FFF7FEFF 		bl	lv_color_make
 629 0314 A060     		str	r0, [r4, #8]
 173:..\..\..\lvgl\version_6.1.2\lvgl\src\lv_core/lv_style.c ****     lv_style_btn_rel.body.radius         = LV_DPI / 15;
 630              		.loc 2 173 0
 631 0316 744B     		ldr	r3, .L9
 632 0318 0A22     		movs	r2, #10
 633 031a 9A81     		strh	r2, [r3, #12]	@ movhi
 174:..\..\..\lvgl\version_6.1.2\lvgl\src\lv_core/lv_style.c ****     lv_style_btn_rel.body.padding.left   = LV_DPI / 4;
 634              		.loc 2 174 0
 635 031c 724B     		ldr	r3, .L9
 636 031e 2522     		movs	r2, #37
 637 0320 9A84     		strh	r2, [r3, #36]	@ movhi
 175:..\..\..\lvgl\version_6.1.2\lvgl\src\lv_core/lv_style.c ****     lv_style_btn_rel.body.padding.right  = LV_DPI / 4;
 638              		.loc 2 175 0
 639 0322 714B     		ldr	r3, .L9
 640 0324 2522     		movs	r2, #37
 641 0326 DA84     		strh	r2, [r3, #38]	@ movhi
 176:..\..\..\lvgl\version_6.1.2\lvgl\src\lv_core/lv_style.c ****     lv_style_btn_rel.body.padding.top    = LV_DPI / 6;
 642              		.loc 2 176 0
 643 0328 6F4B     		ldr	r3, .L9
 644 032a 1922     		movs	r2, #25
 645 032c 1A84     		strh	r2, [r3, #32]	@ movhi
 177:..\..\..\lvgl\version_6.1.2\lvgl\src\lv_core/lv_style.c ****     lv_style_btn_rel.body.padding.bottom = LV_DPI / 6;
 646              		.loc 2 177 0
 647 032e 6E4B     		ldr	r3, .L9
 648 0330 1922     		movs	r2, #25
 649 0332 5A84     		strh	r2, [r3, #34]	@ movhi
 178:..\..\..\lvgl\version_6.1.2\lvgl\src\lv_core/lv_style.c ****     lv_style_btn_rel.body.padding.inner  = LV_DPI / 10;
 650              		.loc 2 178 0
 651 0334 6C4B     		ldr	r3, .L9
 652 0336 0F22     		movs	r2, #15
 653 0338 1A85     		strh	r2, [r3, #40]	@ movhi
ARM GAS  C:\Users\tmj32\AppData\Local\Temp\ccSL9kiF.s 			page 24


 179:..\..\..\lvgl\version_6.1.2\lvgl\src\lv_core/lv_style.c ****     lv_style_btn_rel.body.border.color   = lv_color_make(0x0b, 0x19, 0x28);
 654              		.loc 2 179 0
 655 033a 6B4C     		ldr	r4, .L9
 656 033c 2822     		movs	r2, #40
 657 033e 1921     		movs	r1, #25
 658 0340 0B20     		movs	r0, #11
 659 0342 FFF7FEFF 		bl	lv_color_make
 660 0346 2061     		str	r0, [r4, #16]
 180:..\..\..\lvgl\version_6.1.2\lvgl\src\lv_core/lv_style.c ****     lv_style_btn_rel.body.border.width   = LV_DPI / 50 >= 1 ? LV_DPI / 50 : 1;
 661              		.loc 2 180 0
 662 0348 674B     		ldr	r3, .L9
 663 034a 0322     		movs	r2, #3
 664 034c 9A82     		strh	r2, [r3, #20]	@ movhi
 181:..\..\..\lvgl\version_6.1.2\lvgl\src\lv_core/lv_style.c ****     lv_style_btn_rel.body.border.opa     = LV_OPA_70;
 665              		.loc 2 181 0
 666 034e 664B     		ldr	r3, .L9
 667 0350 B222     		movs	r2, #178
 668 0352 DA75     		strb	r2, [r3, #23]
 182:..\..\..\lvgl\version_6.1.2\lvgl\src\lv_core/lv_style.c ****     lv_style_btn_rel.body.shadow.color   = LV_COLOR_GRAY;
 669              		.loc 2 182 0
 670 0354 644B     		ldr	r3, .L9
 671 0356 8022     		movs	r2, #128
 672 0358 1A76     		strb	r2, [r3, #24]
 673 035a 634B     		ldr	r3, .L9
 674 035c 8022     		movs	r2, #128
 675 035e 5A76     		strb	r2, [r3, #25]
 676 0360 614B     		ldr	r3, .L9
 677 0362 8022     		movs	r2, #128
 678 0364 9A76     		strb	r2, [r3, #26]
 679 0366 604B     		ldr	r3, .L9
 680 0368 FF22     		movs	r2, #255
 681 036a DA76     		strb	r2, [r3, #27]
 183:..\..\..\lvgl\version_6.1.2\lvgl\src\lv_core/lv_style.c ****     lv_style_btn_rel.body.shadow.width   = 0;
 682              		.loc 2 183 0
 683 036c 5E4B     		ldr	r3, .L9
 684 036e 0022     		movs	r2, #0
 685 0370 9A83     		strh	r2, [r3, #28]	@ movhi
 184:..\..\..\lvgl\version_6.1.2\lvgl\src\lv_core/lv_style.c ****     lv_style_btn_rel.text.color          = lv_color_make(0xff, 0xff, 0xff);
 686              		.loc 2 184 0
 687 0372 5D4C     		ldr	r4, .L9
 688 0374 FF22     		movs	r2, #255
 689 0376 FF21     		movs	r1, #255
 690 0378 FF20     		movs	r0, #255
 691 037a FFF7FEFF 		bl	lv_color_make
 692 037e E062     		str	r0, [r4, #44]
 185:..\..\..\lvgl\version_6.1.2\lvgl\src\lv_core/lv_style.c ****     lv_style_btn_rel.image.color         = lv_color_make(0xff, 0xff, 0xff);
 693              		.loc 2 185 0
 694 0380 594C     		ldr	r4, .L9
 695 0382 FF22     		movs	r2, #255
 696 0384 FF21     		movs	r1, #255
 697 0386 FF20     		movs	r0, #255
 698 0388 FFF7FEFF 		bl	lv_color_make
 699 038c 2064     		str	r0, [r4, #64]
 186:..\..\..\lvgl\version_6.1.2\lvgl\src\lv_core/lv_style.c **** 
 187:..\..\..\lvgl\version_6.1.2\lvgl\src\lv_core/lv_style.c ****     /*Button pressed style*/
 188:..\..\..\lvgl\version_6.1.2\lvgl\src\lv_core/lv_style.c ****     lv_style_copy(&lv_style_btn_pr, &lv_style_btn_rel);
 700              		.loc 2 188 0
ARM GAS  C:\Users\tmj32\AppData\Local\Temp\ccSL9kiF.s 			page 25


 701 038e 5649     		ldr	r1, .L9
 702 0390 5648     		ldr	r0, .L9+4
 703 0392 FFF7FEFF 		bl	lv_style_copy
 189:..\..\..\lvgl\version_6.1.2\lvgl\src\lv_core/lv_style.c ****     lv_style_btn_pr.body.main_color = lv_color_make(0x33, 0x62, 0x94);
 704              		.loc 2 189 0
 705 0396 554C     		ldr	r4, .L9+4
 706 0398 9422     		movs	r2, #148
 707 039a 6221     		movs	r1, #98
 708 039c 3320     		movs	r0, #51
 709 039e FFF7FEFF 		bl	lv_color_make
 710 03a2 6060     		str	r0, [r4, #4]
 190:..\..\..\lvgl\version_6.1.2\lvgl\src\lv_core/lv_style.c ****     lv_style_btn_pr.body.grad_color = lv_color_make(0x10, 0x26, 0x3c);
 711              		.loc 2 190 0
 712 03a4 514C     		ldr	r4, .L9+4
 713 03a6 3C22     		movs	r2, #60
 714 03a8 2621     		movs	r1, #38
 715 03aa 1020     		movs	r0, #16
 716 03ac FFF7FEFF 		bl	lv_color_make
 717 03b0 A060     		str	r0, [r4, #8]
 191:..\..\..\lvgl\version_6.1.2\lvgl\src\lv_core/lv_style.c ****     lv_style_btn_pr.text.color      = lv_color_make(0xa4, 0xb5, 0xc6);
 718              		.loc 2 191 0
 719 03b2 4E4C     		ldr	r4, .L9+4
 720 03b4 C622     		movs	r2, #198
 721 03b6 B521     		movs	r1, #181
 722 03b8 A420     		movs	r0, #164
 723 03ba FFF7FEFF 		bl	lv_color_make
 724 03be E062     		str	r0, [r4, #44]
 192:..\..\..\lvgl\version_6.1.2\lvgl\src\lv_core/lv_style.c ****     lv_style_btn_pr.image.color     = lv_color_make(0xa4, 0xb5, 0xc6);
 725              		.loc 2 192 0
 726 03c0 4A4C     		ldr	r4, .L9+4
 727 03c2 C622     		movs	r2, #198
 728 03c4 B521     		movs	r1, #181
 729 03c6 A420     		movs	r0, #164
 730 03c8 FFF7FEFF 		bl	lv_color_make
 731 03cc 2064     		str	r0, [r4, #64]
 193:..\..\..\lvgl\version_6.1.2\lvgl\src\lv_core/lv_style.c ****     lv_style_btn_pr.line.color      = lv_color_make(0xa4, 0xb5, 0xc6);
 732              		.loc 2 193 0
 733 03ce 474C     		ldr	r4, .L9+4
 734 03d0 C622     		movs	r2, #198
 735 03d2 B521     		movs	r1, #181
 736 03d4 A420     		movs	r0, #164
 737 03d6 FFF7FEFF 		bl	lv_color_make
 738 03da A064     		str	r0, [r4, #72]
 194:..\..\..\lvgl\version_6.1.2\lvgl\src\lv_core/lv_style.c **** 
 195:..\..\..\lvgl\version_6.1.2\lvgl\src\lv_core/lv_style.c ****     /*Button toggle released style*/
 196:..\..\..\lvgl\version_6.1.2\lvgl\src\lv_core/lv_style.c ****     lv_style_copy(&lv_style_btn_tgl_rel, &lv_style_btn_rel);
 739              		.loc 2 196 0
 740 03dc 4249     		ldr	r1, .L9
 741 03de 4448     		ldr	r0, .L9+8
 742 03e0 FFF7FEFF 		bl	lv_style_copy
 197:..\..\..\lvgl\version_6.1.2\lvgl\src\lv_core/lv_style.c ****     lv_style_btn_tgl_rel.body.main_color   = lv_color_make(0x0a, 0x11, 0x22);
 743              		.loc 2 197 0
 744 03e4 424C     		ldr	r4, .L9+8
 745 03e6 2222     		movs	r2, #34
 746 03e8 1121     		movs	r1, #17
 747 03ea 0A20     		movs	r0, #10
 748 03ec FFF7FEFF 		bl	lv_color_make
ARM GAS  C:\Users\tmj32\AppData\Local\Temp\ccSL9kiF.s 			page 26


 749 03f0 6060     		str	r0, [r4, #4]
 198:..\..\..\lvgl\version_6.1.2\lvgl\src\lv_core/lv_style.c ****     lv_style_btn_tgl_rel.body.grad_color   = lv_color_make(0x37, 0x62, 0x90);
 750              		.loc 2 198 0
 751 03f2 3F4C     		ldr	r4, .L9+8
 752 03f4 9022     		movs	r2, #144
 753 03f6 6221     		movs	r1, #98
 754 03f8 3720     		movs	r0, #55
 755 03fa FFF7FEFF 		bl	lv_color_make
 756 03fe A060     		str	r0, [r4, #8]
 199:..\..\..\lvgl\version_6.1.2\lvgl\src\lv_core/lv_style.c ****     lv_style_btn_tgl_rel.body.border.color = lv_color_make(0x01, 0x07, 0x0d);
 757              		.loc 2 199 0
 758 0400 3B4C     		ldr	r4, .L9+8
 759 0402 0D22     		movs	r2, #13
 760 0404 0721     		movs	r1, #7
 761 0406 0120     		movs	r0, #1
 762 0408 FFF7FEFF 		bl	lv_color_make
 763 040c 2061     		str	r0, [r4, #16]
 200:..\..\..\lvgl\version_6.1.2\lvgl\src\lv_core/lv_style.c ****     lv_style_btn_tgl_rel.text.color        = lv_color_make(0xc8, 0xdd, 0xf4);
 764              		.loc 2 200 0
 765 040e 384C     		ldr	r4, .L9+8
 766 0410 F422     		movs	r2, #244
 767 0412 DD21     		movs	r1, #221
 768 0414 C820     		movs	r0, #200
 769 0416 FFF7FEFF 		bl	lv_color_make
 770 041a E062     		str	r0, [r4, #44]
 201:..\..\..\lvgl\version_6.1.2\lvgl\src\lv_core/lv_style.c ****     lv_style_btn_tgl_rel.image.color       = lv_color_make(0xc8, 0xdd, 0xf4);
 771              		.loc 2 201 0
 772 041c 344C     		ldr	r4, .L9+8
 773 041e F422     		movs	r2, #244
 774 0420 DD21     		movs	r1, #221
 775 0422 C820     		movs	r0, #200
 776 0424 FFF7FEFF 		bl	lv_color_make
 777 0428 2064     		str	r0, [r4, #64]
 202:..\..\..\lvgl\version_6.1.2\lvgl\src\lv_core/lv_style.c ****     lv_style_btn_tgl_rel.line.color        = lv_color_make(0xc8, 0xdd, 0xf4);
 778              		.loc 2 202 0
 779 042a 314C     		ldr	r4, .L9+8
 780 042c F422     		movs	r2, #244
 781 042e DD21     		movs	r1, #221
 782 0430 C820     		movs	r0, #200
 783 0432 FFF7FEFF 		bl	lv_color_make
 784 0436 A064     		str	r0, [r4, #72]
 203:..\..\..\lvgl\version_6.1.2\lvgl\src\lv_core/lv_style.c **** 
 204:..\..\..\lvgl\version_6.1.2\lvgl\src\lv_core/lv_style.c ****     /*Button toggle pressed style*/
 205:..\..\..\lvgl\version_6.1.2\lvgl\src\lv_core/lv_style.c ****     lv_style_copy(&lv_style_btn_tgl_pr, &lv_style_btn_tgl_rel);
 785              		.loc 2 205 0
 786 0438 2D49     		ldr	r1, .L9+8
 787 043a 2E48     		ldr	r0, .L9+12
 788 043c FFF7FEFF 		bl	lv_style_copy
 206:..\..\..\lvgl\version_6.1.2\lvgl\src\lv_core/lv_style.c ****     lv_style_btn_tgl_pr.body.main_color = lv_color_make(0x02, 0x14, 0x27);
 789              		.loc 2 206 0
 790 0440 2C4C     		ldr	r4, .L9+12
 791 0442 2722     		movs	r2, #39
 792 0444 1421     		movs	r1, #20
 793 0446 0220     		movs	r0, #2
 794 0448 FFF7FEFF 		bl	lv_color_make
 795 044c 6060     		str	r0, [r4, #4]
 207:..\..\..\lvgl\version_6.1.2\lvgl\src\lv_core/lv_style.c ****     lv_style_btn_tgl_pr.body.grad_color = lv_color_make(0x2b, 0x4c, 0x70);
ARM GAS  C:\Users\tmj32\AppData\Local\Temp\ccSL9kiF.s 			page 27


 796              		.loc 2 207 0
 797 044e 294C     		ldr	r4, .L9+12
 798 0450 7022     		movs	r2, #112
 799 0452 4C21     		movs	r1, #76
 800 0454 2B20     		movs	r0, #43
 801 0456 FFF7FEFF 		bl	lv_color_make
 802 045a A060     		str	r0, [r4, #8]
 208:..\..\..\lvgl\version_6.1.2\lvgl\src\lv_core/lv_style.c ****     lv_style_btn_tgl_pr.text.color      = lv_color_make(0xa4, 0xb5, 0xc6);
 803              		.loc 2 208 0
 804 045c 254C     		ldr	r4, .L9+12
 805 045e C622     		movs	r2, #198
 806 0460 B521     		movs	r1, #181
 807 0462 A420     		movs	r0, #164
 808 0464 FFF7FEFF 		bl	lv_color_make
 809 0468 E062     		str	r0, [r4, #44]
 209:..\..\..\lvgl\version_6.1.2\lvgl\src\lv_core/lv_style.c ****     lv_style_btn_tgl_pr.image.color     = lv_color_make(0xa4, 0xb5, 0xc6);
 810              		.loc 2 209 0
 811 046a 224C     		ldr	r4, .L9+12
 812 046c C622     		movs	r2, #198
 813 046e B521     		movs	r1, #181
 814 0470 A420     		movs	r0, #164
 815 0472 FFF7FEFF 		bl	lv_color_make
 816 0476 2064     		str	r0, [r4, #64]
 210:..\..\..\lvgl\version_6.1.2\lvgl\src\lv_core/lv_style.c ****     lv_style_btn_tgl_pr.line.color      = lv_color_make(0xa4, 0xb5, 0xc6);
 817              		.loc 2 210 0
 818 0478 1E4C     		ldr	r4, .L9+12
 819 047a C622     		movs	r2, #198
 820 047c B521     		movs	r1, #181
 821 047e A420     		movs	r0, #164
 822 0480 FFF7FEFF 		bl	lv_color_make
 823 0484 A064     		str	r0, [r4, #72]
 211:..\..\..\lvgl\version_6.1.2\lvgl\src\lv_core/lv_style.c **** 
 212:..\..\..\lvgl\version_6.1.2\lvgl\src\lv_core/lv_style.c ****     /*Button inactive style*/
 213:..\..\..\lvgl\version_6.1.2\lvgl\src\lv_core/lv_style.c ****     lv_style_copy(&lv_style_btn_ina, &lv_style_btn_rel);
 824              		.loc 2 213 0
 825 0486 1849     		ldr	r1, .L9
 826 0488 1B48     		ldr	r0, .L9+16
 827 048a FFF7FEFF 		bl	lv_style_copy
 214:..\..\..\lvgl\version_6.1.2\lvgl\src\lv_core/lv_style.c ****     lv_style_btn_ina.body.main_color   = lv_color_make(0xd8, 0xd8, 0xd8);
 828              		.loc 2 214 0
 829 048e 1A4C     		ldr	r4, .L9+16
 830 0490 D822     		movs	r2, #216
 831 0492 D821     		movs	r1, #216
 832 0494 D820     		movs	r0, #216
 833 0496 FFF7FEFF 		bl	lv_color_make
 834 049a 6060     		str	r0, [r4, #4]
 215:..\..\..\lvgl\version_6.1.2\lvgl\src\lv_core/lv_style.c ****     lv_style_btn_ina.body.grad_color   = lv_color_make(0xd8, 0xd8, 0xd8);
 835              		.loc 2 215 0
 836 049c 164C     		ldr	r4, .L9+16
 837 049e D822     		movs	r2, #216
 838 04a0 D821     		movs	r1, #216
 839 04a2 D820     		movs	r0, #216
 840 04a4 FFF7FEFF 		bl	lv_color_make
 841 04a8 A060     		str	r0, [r4, #8]
 216:..\..\..\lvgl\version_6.1.2\lvgl\src\lv_core/lv_style.c ****     lv_style_btn_ina.body.border.color = lv_color_make(0x90, 0x90, 0x90);
 842              		.loc 2 216 0
 843 04aa 134C     		ldr	r4, .L9+16
ARM GAS  C:\Users\tmj32\AppData\Local\Temp\ccSL9kiF.s 			page 28


 844 04ac 9022     		movs	r2, #144
 845 04ae 9021     		movs	r1, #144
 846 04b0 9020     		movs	r0, #144
 847 04b2 FFF7FEFF 		bl	lv_color_make
 848 04b6 2061     		str	r0, [r4, #16]
 217:..\..\..\lvgl\version_6.1.2\lvgl\src\lv_core/lv_style.c ****     lv_style_btn_ina.text.color        = lv_color_make(0x70, 0x70, 0x70);
 849              		.loc 2 217 0
 850 04b8 0F4C     		ldr	r4, .L9+16
 851 04ba 7022     		movs	r2, #112
 852 04bc 7021     		movs	r1, #112
 853 04be 7020     		movs	r0, #112
 854 04c0 FFF7FEFF 		bl	lv_color_make
 855 04c4 E062     		str	r0, [r4, #44]
 218:..\..\..\lvgl\version_6.1.2\lvgl\src\lv_core/lv_style.c ****     lv_style_btn_ina.image.color       = lv_color_make(0x70, 0x70, 0x70);
 856              		.loc 2 218 0
 857 04c6 0C4C     		ldr	r4, .L9+16
 858 04c8 7022     		movs	r2, #112
 859 04ca 7021     		movs	r1, #112
 860 04cc 7020     		movs	r0, #112
 861 04ce FFF7FEFF 		bl	lv_color_make
 862 04d2 2064     		str	r0, [r4, #64]
 219:..\..\..\lvgl\version_6.1.2\lvgl\src\lv_core/lv_style.c ****     lv_style_btn_ina.line.color        = lv_color_make(0x70, 0x70, 0x70);
 863              		.loc 2 219 0
 864 04d4 084C     		ldr	r4, .L9+16
 865 04d6 7022     		movs	r2, #112
 866 04d8 7021     		movs	r1, #112
 867 04da 7020     		movs	r0, #112
 868 04dc FFF7FEFF 		bl	lv_color_make
 869 04e0 A064     		str	r0, [r4, #72]
 220:..\..\..\lvgl\version_6.1.2\lvgl\src\lv_core/lv_style.c **** }
 870              		.loc 2 220 0
 871 04e2 00BF     		nop
 872 04e4 98BD     		pop	{r3, r4, r7, pc}
 873              	.L10:
 874 04e6 00BF     		.align	2
 875              	.L9:
 876 04e8 00000000 		.word	lv_style_btn_rel
 877 04ec 00000000 		.word	lv_style_btn_pr
 878 04f0 00000000 		.word	lv_style_btn_tgl_rel
 879 04f4 00000000 		.word	lv_style_btn_tgl_pr
 880 04f8 00000000 		.word	lv_style_btn_ina
 881              		.cfi_endproc
 882              	.LFE31:
 883              		.size	lv_style_init, .-lv_style_init
 884              		.section	.text.lv_style_copy,"ax",%progbits
 885              		.align	2
 886              		.global	lv_style_copy
 887              		.thumb
 888              		.thumb_func
 889              		.type	lv_style_copy, %function
 890              	lv_style_copy:
 891              	.LFB32:
 221:..\..\..\lvgl\version_6.1.2\lvgl\src\lv_core/lv_style.c **** 
 222:..\..\..\lvgl\version_6.1.2\lvgl\src\lv_core/lv_style.c **** /**
 223:..\..\..\lvgl\version_6.1.2\lvgl\src\lv_core/lv_style.c ****  * Copy a style to an other
 224:..\..\..\lvgl\version_6.1.2\lvgl\src\lv_core/lv_style.c ****  * @param dest pointer to the destination style
 225:..\..\..\lvgl\version_6.1.2\lvgl\src\lv_core/lv_style.c ****  * @param src pointer to the source style
ARM GAS  C:\Users\tmj32\AppData\Local\Temp\ccSL9kiF.s 			page 29


 226:..\..\..\lvgl\version_6.1.2\lvgl\src\lv_core/lv_style.c ****  */
 227:..\..\..\lvgl\version_6.1.2\lvgl\src\lv_core/lv_style.c **** void lv_style_copy(lv_style_t * dest, const lv_style_t * src)
 228:..\..\..\lvgl\version_6.1.2\lvgl\src\lv_core/lv_style.c **** {
 892              		.loc 2 228 0
 893              		.cfi_startproc
 894              		@ args = 0, pretend = 0, frame = 8
 895              		@ frame_needed = 1, uses_anonymous_args = 0
 896 0000 80B5     		push	{r7, lr}
 897              		.cfi_def_cfa_offset 8
 898              		.cfi_offset 7, -8
 899              		.cfi_offset 14, -4
 900 0002 82B0     		sub	sp, sp, #8
 901              		.cfi_def_cfa_offset 16
 902 0004 00AF     		add	r7, sp, #0
 903              		.cfi_def_cfa_register 7
 904 0006 7860     		str	r0, [r7, #4]
 905 0008 3960     		str	r1, [r7]
 229:..\..\..\lvgl\version_6.1.2\lvgl\src\lv_core/lv_style.c ****     memcpy(dest, src, sizeof(lv_style_t));
 906              		.loc 2 229 0
 907 000a 5022     		movs	r2, #80
 908 000c 3968     		ldr	r1, [r7]
 909 000e 7868     		ldr	r0, [r7, #4]
 910 0010 FFF7FEFF 		bl	memcpy
 230:..\..\..\lvgl\version_6.1.2\lvgl\src\lv_core/lv_style.c **** }
 911              		.loc 2 230 0
 912 0014 00BF     		nop
 913 0016 0837     		adds	r7, r7, #8
 914              		.cfi_def_cfa_offset 8
 915 0018 BD46     		mov	sp, r7
 916              		.cfi_def_cfa_register 13
 917              		@ sp needed
 918 001a 80BD     		pop	{r7, pc}
 919              		.cfi_endproc
 920              	.LFE32:
 921              		.size	lv_style_copy, .-lv_style_copy
 922              		.section	.text.lv_style_mix,"ax",%progbits
 923              		.align	2
 924              		.global	lv_style_mix
 925              		.thumb
 926              		.thumb_func
 927              		.type	lv_style_mix, %function
 928              	lv_style_mix:
 929              	.LFB33:
 231:..\..\..\lvgl\version_6.1.2\lvgl\src\lv_core/lv_style.c **** 
 232:..\..\..\lvgl\version_6.1.2\lvgl\src\lv_core/lv_style.c **** /**
 233:..\..\..\lvgl\version_6.1.2\lvgl\src\lv_core/lv_style.c ****  * Mix two styles according to a given ratio
 234:..\..\..\lvgl\version_6.1.2\lvgl\src\lv_core/lv_style.c ****  * @param start start style
 235:..\..\..\lvgl\version_6.1.2\lvgl\src\lv_core/lv_style.c ****  * @param end end style
 236:..\..\..\lvgl\version_6.1.2\lvgl\src\lv_core/lv_style.c ****  * @param res store the result style here
 237:..\..\..\lvgl\version_6.1.2\lvgl\src\lv_core/lv_style.c ****  * @param ratio the ratio of mix [0..256]; 0: `start` style; 256: `end` style
 238:..\..\..\lvgl\version_6.1.2\lvgl\src\lv_core/lv_style.c ****  */
 239:..\..\..\lvgl\version_6.1.2\lvgl\src\lv_core/lv_style.c **** void lv_style_mix(const lv_style_t * start, const lv_style_t * end, lv_style_t * res, uint16_t rati
 240:..\..\..\lvgl\version_6.1.2\lvgl\src\lv_core/lv_style.c **** {
 930              		.loc 2 240 0
 931              		.cfi_startproc
 932              		@ args = 0, pretend = 0, frame = 24
 933              		@ frame_needed = 1, uses_anonymous_args = 0
ARM GAS  C:\Users\tmj32\AppData\Local\Temp\ccSL9kiF.s 			page 30


 934 0000 90B5     		push	{r4, r7, lr}
 935              		.cfi_def_cfa_offset 12
 936              		.cfi_offset 4, -12
 937              		.cfi_offset 7, -8
 938              		.cfi_offset 14, -4
 939 0002 87B0     		sub	sp, sp, #28
 940              		.cfi_def_cfa_offset 40
 941 0004 00AF     		add	r7, sp, #0
 942              		.cfi_def_cfa_register 7
 943 0006 F860     		str	r0, [r7, #12]
 944 0008 B960     		str	r1, [r7, #8]
 945 000a 7A60     		str	r2, [r7, #4]
 946 000c 7B80     		strh	r3, [r7, #2]	@ movhi
 241:..\..\..\lvgl\version_6.1.2\lvgl\src\lv_core/lv_style.c ****     STYLE_ATTR_MIX(body.opa, ratio);
 947              		.loc 2 241 0
 948 000e FB68     		ldr	r3, [r7, #12]
 949 0010 9A7B     		ldrb	r2, [r3, #14]	@ zero_extendqisi2
 950 0012 BB68     		ldr	r3, [r7, #8]
 951 0014 9B7B     		ldrb	r3, [r3, #14]	@ zero_extendqisi2
 952 0016 9A42     		cmp	r2, r3
 953 0018 11D0     		beq	.L13
 954              		.loc 2 241 0 is_stmt 0 discriminator 1
 955 001a FB68     		ldr	r3, [r7, #12]
 956 001c 9A7B     		ldrb	r2, [r3, #14]	@ zero_extendqisi2
 957 001e BB68     		ldr	r3, [r7, #8]
 958 0020 9B7B     		ldrb	r3, [r3, #14]	@ zero_extendqisi2
 959 0022 1946     		mov	r1, r3
 960 0024 FB68     		ldr	r3, [r7, #12]
 961 0026 9B7B     		ldrb	r3, [r3, #14]	@ zero_extendqisi2
 962 0028 CB1A     		subs	r3, r1, r3
 963 002a 7988     		ldrh	r1, [r7, #2]
 964 002c 01FB03F3 		mul	r3, r1, r3
 965 0030 1B12     		asrs	r3, r3, #8
 966 0032 DBB2     		uxtb	r3, r3
 967 0034 1344     		add	r3, r3, r2
 968 0036 DAB2     		uxtb	r2, r3
 969 0038 7B68     		ldr	r3, [r7, #4]
 970 003a 9A73     		strb	r2, [r3, #14]
 971 003c 03E0     		b	.L14
 972              	.L13:
 973              		.loc 2 241 0 discriminator 2
 974 003e FB68     		ldr	r3, [r7, #12]
 975 0040 9A7B     		ldrb	r2, [r3, #14]	@ zero_extendqisi2
 976 0042 7B68     		ldr	r3, [r7, #4]
 977 0044 9A73     		strb	r2, [r3, #14]
 978              	.L14:
 242:..\..\..\lvgl\version_6.1.2\lvgl\src\lv_core/lv_style.c ****     STYLE_ATTR_MIX(body.radius, ratio);
 979              		.loc 2 242 0 is_stmt 1
 980 0046 FB68     		ldr	r3, [r7, #12]
 981 0048 B3F90C20 		ldrsh	r2, [r3, #12]
 982 004c BB68     		ldr	r3, [r7, #8]
 983 004e B3F90C30 		ldrsh	r3, [r3, #12]
 984 0052 9A42     		cmp	r2, r3
 985 0054 16D0     		beq	.L15
 986              		.loc 2 242 0 is_stmt 0 discriminator 1
 987 0056 FB68     		ldr	r3, [r7, #12]
 988 0058 B3F90C30 		ldrsh	r3, [r3, #12]
ARM GAS  C:\Users\tmj32\AppData\Local\Temp\ccSL9kiF.s 			page 31


 989 005c 9AB2     		uxth	r2, r3
 990 005e BB68     		ldr	r3, [r7, #8]
 991 0060 B3F90C30 		ldrsh	r3, [r3, #12]
 992 0064 1946     		mov	r1, r3
 993 0066 FB68     		ldr	r3, [r7, #12]
 994 0068 B3F90C30 		ldrsh	r3, [r3, #12]
 995 006c CB1A     		subs	r3, r1, r3
 996 006e 7988     		ldrh	r1, [r7, #2]
 997 0070 01FB03F3 		mul	r3, r1, r3
 998 0074 1B12     		asrs	r3, r3, #8
 999 0076 9BB2     		uxth	r3, r3
 1000 0078 1344     		add	r3, r3, r2
 1001 007a 9BB2     		uxth	r3, r3
 1002 007c 1AB2     		sxth	r2, r3
 1003 007e 7B68     		ldr	r3, [r7, #4]
 1004 0080 9A81     		strh	r2, [r3, #12]	@ movhi
 1005 0082 04E0     		b	.L16
 1006              	.L15:
 1007              		.loc 2 242 0 discriminator 2
 1008 0084 FB68     		ldr	r3, [r7, #12]
 1009 0086 B3F90C20 		ldrsh	r2, [r3, #12]
 1010 008a 7B68     		ldr	r3, [r7, #4]
 1011 008c 9A81     		strh	r2, [r3, #12]	@ movhi
 1012              	.L16:
 243:..\..\..\lvgl\version_6.1.2\lvgl\src\lv_core/lv_style.c ****     STYLE_ATTR_MIX(body.border.width, ratio);
 1013              		.loc 2 243 0 is_stmt 1
 1014 008e FB68     		ldr	r3, [r7, #12]
 1015 0090 B3F91420 		ldrsh	r2, [r3, #20]
 1016 0094 BB68     		ldr	r3, [r7, #8]
 1017 0096 B3F91430 		ldrsh	r3, [r3, #20]
 1018 009a 9A42     		cmp	r2, r3
 1019 009c 16D0     		beq	.L17
 1020              		.loc 2 243 0 is_stmt 0 discriminator 1
 1021 009e FB68     		ldr	r3, [r7, #12]
 1022 00a0 B3F91430 		ldrsh	r3, [r3, #20]
 1023 00a4 9AB2     		uxth	r2, r3
 1024 00a6 BB68     		ldr	r3, [r7, #8]
 1025 00a8 B3F91430 		ldrsh	r3, [r3, #20]
 1026 00ac 1946     		mov	r1, r3
 1027 00ae FB68     		ldr	r3, [r7, #12]
 1028 00b0 B3F91430 		ldrsh	r3, [r3, #20]
 1029 00b4 CB1A     		subs	r3, r1, r3
 1030 00b6 7988     		ldrh	r1, [r7, #2]
 1031 00b8 01FB03F3 		mul	r3, r1, r3
 1032 00bc 1B12     		asrs	r3, r3, #8
 1033 00be 9BB2     		uxth	r3, r3
 1034 00c0 1344     		add	r3, r3, r2
 1035 00c2 9BB2     		uxth	r3, r3
 1036 00c4 1AB2     		sxth	r2, r3
 1037 00c6 7B68     		ldr	r3, [r7, #4]
 1038 00c8 9A82     		strh	r2, [r3, #20]	@ movhi
 1039 00ca 04E0     		b	.L18
 1040              	.L17:
 1041              		.loc 2 243 0 discriminator 2
 1042 00cc FB68     		ldr	r3, [r7, #12]
 1043 00ce B3F91420 		ldrsh	r2, [r3, #20]
 1044 00d2 7B68     		ldr	r3, [r7, #4]
ARM GAS  C:\Users\tmj32\AppData\Local\Temp\ccSL9kiF.s 			page 32


 1045 00d4 9A82     		strh	r2, [r3, #20]	@ movhi
 1046              	.L18:
 244:..\..\..\lvgl\version_6.1.2\lvgl\src\lv_core/lv_style.c ****     STYLE_ATTR_MIX(body.border.opa, ratio);
 1047              		.loc 2 244 0 is_stmt 1
 1048 00d6 FB68     		ldr	r3, [r7, #12]
 1049 00d8 DA7D     		ldrb	r2, [r3, #23]	@ zero_extendqisi2
 1050 00da BB68     		ldr	r3, [r7, #8]
 1051 00dc DB7D     		ldrb	r3, [r3, #23]	@ zero_extendqisi2
 1052 00de 9A42     		cmp	r2, r3
 1053 00e0 11D0     		beq	.L19
 1054              		.loc 2 244 0 is_stmt 0 discriminator 1
 1055 00e2 FB68     		ldr	r3, [r7, #12]
 1056 00e4 DA7D     		ldrb	r2, [r3, #23]	@ zero_extendqisi2
 1057 00e6 BB68     		ldr	r3, [r7, #8]
 1058 00e8 DB7D     		ldrb	r3, [r3, #23]	@ zero_extendqisi2
 1059 00ea 1946     		mov	r1, r3
 1060 00ec FB68     		ldr	r3, [r7, #12]
 1061 00ee DB7D     		ldrb	r3, [r3, #23]	@ zero_extendqisi2
 1062 00f0 CB1A     		subs	r3, r1, r3
 1063 00f2 7988     		ldrh	r1, [r7, #2]
 1064 00f4 01FB03F3 		mul	r3, r1, r3
 1065 00f8 1B12     		asrs	r3, r3, #8
 1066 00fa DBB2     		uxtb	r3, r3
 1067 00fc 1344     		add	r3, r3, r2
 1068 00fe DAB2     		uxtb	r2, r3
 1069 0100 7B68     		ldr	r3, [r7, #4]
 1070 0102 DA75     		strb	r2, [r3, #23]
 1071 0104 03E0     		b	.L20
 1072              	.L19:
 1073              		.loc 2 244 0 discriminator 2
 1074 0106 FB68     		ldr	r3, [r7, #12]
 1075 0108 DA7D     		ldrb	r2, [r3, #23]	@ zero_extendqisi2
 1076 010a 7B68     		ldr	r3, [r7, #4]
 1077 010c DA75     		strb	r2, [r3, #23]
 1078              	.L20:
 245:..\..\..\lvgl\version_6.1.2\lvgl\src\lv_core/lv_style.c ****     STYLE_ATTR_MIX(body.shadow.width, ratio);
 1079              		.loc 2 245 0 is_stmt 1
 1080 010e FB68     		ldr	r3, [r7, #12]
 1081 0110 B3F91C20 		ldrsh	r2, [r3, #28]
 1082 0114 BB68     		ldr	r3, [r7, #8]
 1083 0116 B3F91C30 		ldrsh	r3, [r3, #28]
 1084 011a 9A42     		cmp	r2, r3
 1085 011c 16D0     		beq	.L21
 1086              		.loc 2 245 0 is_stmt 0 discriminator 1
 1087 011e FB68     		ldr	r3, [r7, #12]
 1088 0120 B3F91C30 		ldrsh	r3, [r3, #28]
 1089 0124 9AB2     		uxth	r2, r3
 1090 0126 BB68     		ldr	r3, [r7, #8]
 1091 0128 B3F91C30 		ldrsh	r3, [r3, #28]
 1092 012c 1946     		mov	r1, r3
 1093 012e FB68     		ldr	r3, [r7, #12]
 1094 0130 B3F91C30 		ldrsh	r3, [r3, #28]
 1095 0134 CB1A     		subs	r3, r1, r3
 1096 0136 7988     		ldrh	r1, [r7, #2]
 1097 0138 01FB03F3 		mul	r3, r1, r3
 1098 013c 1B12     		asrs	r3, r3, #8
 1099 013e 9BB2     		uxth	r3, r3
ARM GAS  C:\Users\tmj32\AppData\Local\Temp\ccSL9kiF.s 			page 33


 1100 0140 1344     		add	r3, r3, r2
 1101 0142 9BB2     		uxth	r3, r3
 1102 0144 1AB2     		sxth	r2, r3
 1103 0146 7B68     		ldr	r3, [r7, #4]
 1104 0148 9A83     		strh	r2, [r3, #28]	@ movhi
 1105 014a 04E0     		b	.L22
 1106              	.L21:
 1107              		.loc 2 245 0 discriminator 2
 1108 014c FB68     		ldr	r3, [r7, #12]
 1109 014e B3F91C20 		ldrsh	r2, [r3, #28]
 1110 0152 7B68     		ldr	r3, [r7, #4]
 1111 0154 9A83     		strh	r2, [r3, #28]	@ movhi
 1112              	.L22:
 246:..\..\..\lvgl\version_6.1.2\lvgl\src\lv_core/lv_style.c ****     STYLE_ATTR_MIX(body.padding.left, ratio);
 1113              		.loc 2 246 0 is_stmt 1
 1114 0156 FB68     		ldr	r3, [r7, #12]
 1115 0158 B3F92420 		ldrsh	r2, [r3, #36]
 1116 015c BB68     		ldr	r3, [r7, #8]
 1117 015e B3F92430 		ldrsh	r3, [r3, #36]
 1118 0162 9A42     		cmp	r2, r3
 1119 0164 16D0     		beq	.L23
 1120              		.loc 2 246 0 is_stmt 0 discriminator 1
 1121 0166 FB68     		ldr	r3, [r7, #12]
 1122 0168 B3F92430 		ldrsh	r3, [r3, #36]
 1123 016c 9AB2     		uxth	r2, r3
 1124 016e BB68     		ldr	r3, [r7, #8]
 1125 0170 B3F92430 		ldrsh	r3, [r3, #36]
 1126 0174 1946     		mov	r1, r3
 1127 0176 FB68     		ldr	r3, [r7, #12]
 1128 0178 B3F92430 		ldrsh	r3, [r3, #36]
 1129 017c CB1A     		subs	r3, r1, r3
 1130 017e 7988     		ldrh	r1, [r7, #2]
 1131 0180 01FB03F3 		mul	r3, r1, r3
 1132 0184 1B12     		asrs	r3, r3, #8
 1133 0186 9BB2     		uxth	r3, r3
 1134 0188 1344     		add	r3, r3, r2
 1135 018a 9BB2     		uxth	r3, r3
 1136 018c 1AB2     		sxth	r2, r3
 1137 018e 7B68     		ldr	r3, [r7, #4]
 1138 0190 9A84     		strh	r2, [r3, #36]	@ movhi
 1139 0192 04E0     		b	.L24
 1140              	.L23:
 1141              		.loc 2 246 0 discriminator 2
 1142 0194 FB68     		ldr	r3, [r7, #12]
 1143 0196 B3F92420 		ldrsh	r2, [r3, #36]
 1144 019a 7B68     		ldr	r3, [r7, #4]
 1145 019c 9A84     		strh	r2, [r3, #36]	@ movhi
 1146              	.L24:
 247:..\..\..\lvgl\version_6.1.2\lvgl\src\lv_core/lv_style.c ****     STYLE_ATTR_MIX(body.padding.right, ratio);
 1147              		.loc 2 247 0 is_stmt 1
 1148 019e FB68     		ldr	r3, [r7, #12]
 1149 01a0 B3F92620 		ldrsh	r2, [r3, #38]
 1150 01a4 BB68     		ldr	r3, [r7, #8]
 1151 01a6 B3F92630 		ldrsh	r3, [r3, #38]
 1152 01aa 9A42     		cmp	r2, r3
 1153 01ac 16D0     		beq	.L25
 1154              		.loc 2 247 0 is_stmt 0 discriminator 1
ARM GAS  C:\Users\tmj32\AppData\Local\Temp\ccSL9kiF.s 			page 34


 1155 01ae FB68     		ldr	r3, [r7, #12]
 1156 01b0 B3F92630 		ldrsh	r3, [r3, #38]
 1157 01b4 9AB2     		uxth	r2, r3
 1158 01b6 BB68     		ldr	r3, [r7, #8]
 1159 01b8 B3F92630 		ldrsh	r3, [r3, #38]
 1160 01bc 1946     		mov	r1, r3
 1161 01be FB68     		ldr	r3, [r7, #12]
 1162 01c0 B3F92630 		ldrsh	r3, [r3, #38]
 1163 01c4 CB1A     		subs	r3, r1, r3
 1164 01c6 7988     		ldrh	r1, [r7, #2]
 1165 01c8 01FB03F3 		mul	r3, r1, r3
 1166 01cc 1B12     		asrs	r3, r3, #8
 1167 01ce 9BB2     		uxth	r3, r3
 1168 01d0 1344     		add	r3, r3, r2
 1169 01d2 9BB2     		uxth	r3, r3
 1170 01d4 1AB2     		sxth	r2, r3
 1171 01d6 7B68     		ldr	r3, [r7, #4]
 1172 01d8 DA84     		strh	r2, [r3, #38]	@ movhi
 1173 01da 04E0     		b	.L26
 1174              	.L25:
 1175              		.loc 2 247 0 discriminator 2
 1176 01dc FB68     		ldr	r3, [r7, #12]
 1177 01de B3F92620 		ldrsh	r2, [r3, #38]
 1178 01e2 7B68     		ldr	r3, [r7, #4]
 1179 01e4 DA84     		strh	r2, [r3, #38]	@ movhi
 1180              	.L26:
 248:..\..\..\lvgl\version_6.1.2\lvgl\src\lv_core/lv_style.c ****     STYLE_ATTR_MIX(body.padding.top, ratio);
 1181              		.loc 2 248 0 is_stmt 1
 1182 01e6 FB68     		ldr	r3, [r7, #12]
 1183 01e8 B3F92020 		ldrsh	r2, [r3, #32]
 1184 01ec BB68     		ldr	r3, [r7, #8]
 1185 01ee B3F92030 		ldrsh	r3, [r3, #32]
 1186 01f2 9A42     		cmp	r2, r3
 1187 01f4 16D0     		beq	.L27
 1188              		.loc 2 248 0 is_stmt 0 discriminator 1
 1189 01f6 FB68     		ldr	r3, [r7, #12]
 1190 01f8 B3F92030 		ldrsh	r3, [r3, #32]
 1191 01fc 9AB2     		uxth	r2, r3
 1192 01fe BB68     		ldr	r3, [r7, #8]
 1193 0200 B3F92030 		ldrsh	r3, [r3, #32]
 1194 0204 1946     		mov	r1, r3
 1195 0206 FB68     		ldr	r3, [r7, #12]
 1196 0208 B3F92030 		ldrsh	r3, [r3, #32]
 1197 020c CB1A     		subs	r3, r1, r3
 1198 020e 7988     		ldrh	r1, [r7, #2]
 1199 0210 01FB03F3 		mul	r3, r1, r3
 1200 0214 1B12     		asrs	r3, r3, #8
 1201 0216 9BB2     		uxth	r3, r3
 1202 0218 1344     		add	r3, r3, r2
 1203 021a 9BB2     		uxth	r3, r3
 1204 021c 1AB2     		sxth	r2, r3
 1205 021e 7B68     		ldr	r3, [r7, #4]
 1206 0220 1A84     		strh	r2, [r3, #32]	@ movhi
 1207 0222 04E0     		b	.L28
 1208              	.L27:
 1209              		.loc 2 248 0 discriminator 2
 1210 0224 FB68     		ldr	r3, [r7, #12]
ARM GAS  C:\Users\tmj32\AppData\Local\Temp\ccSL9kiF.s 			page 35


 1211 0226 B3F92020 		ldrsh	r2, [r3, #32]
 1212 022a 7B68     		ldr	r3, [r7, #4]
 1213 022c 1A84     		strh	r2, [r3, #32]	@ movhi
 1214              	.L28:
 249:..\..\..\lvgl\version_6.1.2\lvgl\src\lv_core/lv_style.c ****     STYLE_ATTR_MIX(body.padding.bottom, ratio);
 1215              		.loc 2 249 0 is_stmt 1
 1216 022e FB68     		ldr	r3, [r7, #12]
 1217 0230 B3F92220 		ldrsh	r2, [r3, #34]
 1218 0234 BB68     		ldr	r3, [r7, #8]
 1219 0236 B3F92230 		ldrsh	r3, [r3, #34]
 1220 023a 9A42     		cmp	r2, r3
 1221 023c 16D0     		beq	.L29
 1222              		.loc 2 249 0 is_stmt 0 discriminator 1
 1223 023e FB68     		ldr	r3, [r7, #12]
 1224 0240 B3F92230 		ldrsh	r3, [r3, #34]
 1225 0244 9AB2     		uxth	r2, r3
 1226 0246 BB68     		ldr	r3, [r7, #8]
 1227 0248 B3F92230 		ldrsh	r3, [r3, #34]
 1228 024c 1946     		mov	r1, r3
 1229 024e FB68     		ldr	r3, [r7, #12]
 1230 0250 B3F92230 		ldrsh	r3, [r3, #34]
 1231 0254 CB1A     		subs	r3, r1, r3
 1232 0256 7988     		ldrh	r1, [r7, #2]
 1233 0258 01FB03F3 		mul	r3, r1, r3
 1234 025c 1B12     		asrs	r3, r3, #8
 1235 025e 9BB2     		uxth	r3, r3
 1236 0260 1344     		add	r3, r3, r2
 1237 0262 9BB2     		uxth	r3, r3
 1238 0264 1AB2     		sxth	r2, r3
 1239 0266 7B68     		ldr	r3, [r7, #4]
 1240 0268 5A84     		strh	r2, [r3, #34]	@ movhi
 1241 026a 04E0     		b	.L30
 1242              	.L29:
 1243              		.loc 2 249 0 discriminator 2
 1244 026c FB68     		ldr	r3, [r7, #12]
 1245 026e B3F92220 		ldrsh	r2, [r3, #34]
 1246 0272 7B68     		ldr	r3, [r7, #4]
 1247 0274 5A84     		strh	r2, [r3, #34]	@ movhi
 1248              	.L30:
 250:..\..\..\lvgl\version_6.1.2\lvgl\src\lv_core/lv_style.c ****     STYLE_ATTR_MIX(body.padding.inner, ratio);
 1249              		.loc 2 250 0 is_stmt 1
 1250 0276 FB68     		ldr	r3, [r7, #12]
 1251 0278 B3F92820 		ldrsh	r2, [r3, #40]
 1252 027c BB68     		ldr	r3, [r7, #8]
 1253 027e B3F92830 		ldrsh	r3, [r3, #40]
 1254 0282 9A42     		cmp	r2, r3
 1255 0284 16D0     		beq	.L31
 1256              		.loc 2 250 0 is_stmt 0 discriminator 1
 1257 0286 FB68     		ldr	r3, [r7, #12]
 1258 0288 B3F92830 		ldrsh	r3, [r3, #40]
 1259 028c 9AB2     		uxth	r2, r3
 1260 028e BB68     		ldr	r3, [r7, #8]
 1261 0290 B3F92830 		ldrsh	r3, [r3, #40]
 1262 0294 1946     		mov	r1, r3
 1263 0296 FB68     		ldr	r3, [r7, #12]
 1264 0298 B3F92830 		ldrsh	r3, [r3, #40]
 1265 029c CB1A     		subs	r3, r1, r3
ARM GAS  C:\Users\tmj32\AppData\Local\Temp\ccSL9kiF.s 			page 36


 1266 029e 7988     		ldrh	r1, [r7, #2]
 1267 02a0 01FB03F3 		mul	r3, r1, r3
 1268 02a4 1B12     		asrs	r3, r3, #8
 1269 02a6 9BB2     		uxth	r3, r3
 1270 02a8 1344     		add	r3, r3, r2
 1271 02aa 9BB2     		uxth	r3, r3
 1272 02ac 1AB2     		sxth	r2, r3
 1273 02ae 7B68     		ldr	r3, [r7, #4]
 1274 02b0 1A85     		strh	r2, [r3, #40]	@ movhi
 1275 02b2 04E0     		b	.L32
 1276              	.L31:
 1277              		.loc 2 250 0 discriminator 2
 1278 02b4 FB68     		ldr	r3, [r7, #12]
 1279 02b6 B3F92820 		ldrsh	r2, [r3, #40]
 1280 02ba 7B68     		ldr	r3, [r7, #4]
 1281 02bc 1A85     		strh	r2, [r3, #40]	@ movhi
 1282              	.L32:
 251:..\..\..\lvgl\version_6.1.2\lvgl\src\lv_core/lv_style.c ****     STYLE_ATTR_MIX(text.line_space, ratio);
 1283              		.loc 2 251 0 is_stmt 1
 1284 02be FB68     		ldr	r3, [r7, #12]
 1285 02c0 B3F93A20 		ldrsh	r2, [r3, #58]
 1286 02c4 BB68     		ldr	r3, [r7, #8]
 1287 02c6 B3F93A30 		ldrsh	r3, [r3, #58]
 1288 02ca 9A42     		cmp	r2, r3
 1289 02cc 16D0     		beq	.L33
 1290              		.loc 2 251 0 is_stmt 0 discriminator 1
 1291 02ce FB68     		ldr	r3, [r7, #12]
 1292 02d0 B3F93A30 		ldrsh	r3, [r3, #58]
 1293 02d4 9AB2     		uxth	r2, r3
 1294 02d6 BB68     		ldr	r3, [r7, #8]
 1295 02d8 B3F93A30 		ldrsh	r3, [r3, #58]
 1296 02dc 1946     		mov	r1, r3
 1297 02de FB68     		ldr	r3, [r7, #12]
 1298 02e0 B3F93A30 		ldrsh	r3, [r3, #58]
 1299 02e4 CB1A     		subs	r3, r1, r3
 1300 02e6 7988     		ldrh	r1, [r7, #2]
 1301 02e8 01FB03F3 		mul	r3, r1, r3
 1302 02ec 1B12     		asrs	r3, r3, #8
 1303 02ee 9BB2     		uxth	r3, r3
 1304 02f0 1344     		add	r3, r3, r2
 1305 02f2 9BB2     		uxth	r3, r3
 1306 02f4 1AB2     		sxth	r2, r3
 1307 02f6 7B68     		ldr	r3, [r7, #4]
 1308 02f8 5A87     		strh	r2, [r3, #58]	@ movhi
 1309 02fa 04E0     		b	.L34
 1310              	.L33:
 1311              		.loc 2 251 0 discriminator 2
 1312 02fc FB68     		ldr	r3, [r7, #12]
 1313 02fe B3F93A20 		ldrsh	r2, [r3, #58]
 1314 0302 7B68     		ldr	r3, [r7, #4]
 1315 0304 5A87     		strh	r2, [r3, #58]	@ movhi
 1316              	.L34:
 252:..\..\..\lvgl\version_6.1.2\lvgl\src\lv_core/lv_style.c ****     STYLE_ATTR_MIX(text.letter_space, ratio);
 1317              		.loc 2 252 0 is_stmt 1
 1318 0306 FB68     		ldr	r3, [r7, #12]
 1319 0308 B3F93820 		ldrsh	r2, [r3, #56]
 1320 030c BB68     		ldr	r3, [r7, #8]
ARM GAS  C:\Users\tmj32\AppData\Local\Temp\ccSL9kiF.s 			page 37


 1321 030e B3F93830 		ldrsh	r3, [r3, #56]
 1322 0312 9A42     		cmp	r2, r3
 1323 0314 16D0     		beq	.L35
 1324              		.loc 2 252 0 is_stmt 0 discriminator 1
 1325 0316 FB68     		ldr	r3, [r7, #12]
 1326 0318 B3F93830 		ldrsh	r3, [r3, #56]
 1327 031c 9AB2     		uxth	r2, r3
 1328 031e BB68     		ldr	r3, [r7, #8]
 1329 0320 B3F93830 		ldrsh	r3, [r3, #56]
 1330 0324 1946     		mov	r1, r3
 1331 0326 FB68     		ldr	r3, [r7, #12]
 1332 0328 B3F93830 		ldrsh	r3, [r3, #56]
 1333 032c CB1A     		subs	r3, r1, r3
 1334 032e 7988     		ldrh	r1, [r7, #2]
 1335 0330 01FB03F3 		mul	r3, r1, r3
 1336 0334 1B12     		asrs	r3, r3, #8
 1337 0336 9BB2     		uxth	r3, r3
 1338 0338 1344     		add	r3, r3, r2
 1339 033a 9BB2     		uxth	r3, r3
 1340 033c 1AB2     		sxth	r2, r3
 1341 033e 7B68     		ldr	r3, [r7, #4]
 1342 0340 1A87     		strh	r2, [r3, #56]	@ movhi
 1343 0342 04E0     		b	.L36
 1344              	.L35:
 1345              		.loc 2 252 0 discriminator 2
 1346 0344 FB68     		ldr	r3, [r7, #12]
 1347 0346 B3F93820 		ldrsh	r2, [r3, #56]
 1348 034a 7B68     		ldr	r3, [r7, #4]
 1349 034c 1A87     		strh	r2, [r3, #56]	@ movhi
 1350              	.L36:
 253:..\..\..\lvgl\version_6.1.2\lvgl\src\lv_core/lv_style.c ****     STYLE_ATTR_MIX(text.opa, ratio);
 1351              		.loc 2 253 0 is_stmt 1
 1352 034e FB68     		ldr	r3, [r7, #12]
 1353 0350 93F83C20 		ldrb	r2, [r3, #60]	@ zero_extendqisi2
 1354 0354 BB68     		ldr	r3, [r7, #8]
 1355 0356 93F83C30 		ldrb	r3, [r3, #60]	@ zero_extendqisi2
 1356 035a 9A42     		cmp	r2, r3
 1357 035c 15D0     		beq	.L37
 1358              		.loc 2 253 0 is_stmt 0 discriminator 1
 1359 035e FB68     		ldr	r3, [r7, #12]
 1360 0360 93F83C20 		ldrb	r2, [r3, #60]	@ zero_extendqisi2
 1361 0364 BB68     		ldr	r3, [r7, #8]
 1362 0366 93F83C30 		ldrb	r3, [r3, #60]	@ zero_extendqisi2
 1363 036a 1946     		mov	r1, r3
 1364 036c FB68     		ldr	r3, [r7, #12]
 1365 036e 93F83C30 		ldrb	r3, [r3, #60]	@ zero_extendqisi2
 1366 0372 CB1A     		subs	r3, r1, r3
 1367 0374 7988     		ldrh	r1, [r7, #2]
 1368 0376 01FB03F3 		mul	r3, r1, r3
 1369 037a 1B12     		asrs	r3, r3, #8
 1370 037c DBB2     		uxtb	r3, r3
 1371 037e 1344     		add	r3, r3, r2
 1372 0380 DAB2     		uxtb	r2, r3
 1373 0382 7B68     		ldr	r3, [r7, #4]
 1374 0384 83F83C20 		strb	r2, [r3, #60]
 1375 0388 05E0     		b	.L38
 1376              	.L37:
ARM GAS  C:\Users\tmj32\AppData\Local\Temp\ccSL9kiF.s 			page 38


 1377              		.loc 2 253 0 discriminator 2
 1378 038a FB68     		ldr	r3, [r7, #12]
 1379 038c 93F83C20 		ldrb	r2, [r3, #60]	@ zero_extendqisi2
 1380 0390 7B68     		ldr	r3, [r7, #4]
 1381 0392 83F83C20 		strb	r2, [r3, #60]
 1382              	.L38:
 254:..\..\..\lvgl\version_6.1.2\lvgl\src\lv_core/lv_style.c ****     STYLE_ATTR_MIX(line.width, ratio);
 1383              		.loc 2 254 0 is_stmt 1
 1384 0396 FB68     		ldr	r3, [r7, #12]
 1385 0398 B3F94C20 		ldrsh	r2, [r3, #76]
 1386 039c BB68     		ldr	r3, [r7, #8]
 1387 039e B3F94C30 		ldrsh	r3, [r3, #76]
 1388 03a2 9A42     		cmp	r2, r3
 1389 03a4 17D0     		beq	.L39
 1390              		.loc 2 254 0 is_stmt 0 discriminator 1
 1391 03a6 FB68     		ldr	r3, [r7, #12]
 1392 03a8 B3F94C30 		ldrsh	r3, [r3, #76]
 1393 03ac 9AB2     		uxth	r2, r3
 1394 03ae BB68     		ldr	r3, [r7, #8]
 1395 03b0 B3F94C30 		ldrsh	r3, [r3, #76]
 1396 03b4 1946     		mov	r1, r3
 1397 03b6 FB68     		ldr	r3, [r7, #12]
 1398 03b8 B3F94C30 		ldrsh	r3, [r3, #76]
 1399 03bc CB1A     		subs	r3, r1, r3
 1400 03be 7988     		ldrh	r1, [r7, #2]
 1401 03c0 01FB03F3 		mul	r3, r1, r3
 1402 03c4 1B12     		asrs	r3, r3, #8
 1403 03c6 9BB2     		uxth	r3, r3
 1404 03c8 1344     		add	r3, r3, r2
 1405 03ca 9BB2     		uxth	r3, r3
 1406 03cc 1AB2     		sxth	r2, r3
 1407 03ce 7B68     		ldr	r3, [r7, #4]
 1408 03d0 A3F84C20 		strh	r2, [r3, #76]	@ movhi
 1409 03d4 05E0     		b	.L40
 1410              	.L39:
 1411              		.loc 2 254 0 discriminator 2
 1412 03d6 FB68     		ldr	r3, [r7, #12]
 1413 03d8 B3F94C20 		ldrsh	r2, [r3, #76]
 1414 03dc 7B68     		ldr	r3, [r7, #4]
 1415 03de A3F84C20 		strh	r2, [r3, #76]	@ movhi
 1416              	.L40:
 255:..\..\..\lvgl\version_6.1.2\lvgl\src\lv_core/lv_style.c ****     STYLE_ATTR_MIX(line.opa, ratio);
 1417              		.loc 2 255 0 is_stmt 1
 1418 03e2 FB68     		ldr	r3, [r7, #12]
 1419 03e4 93F84E20 		ldrb	r2, [r3, #78]	@ zero_extendqisi2
 1420 03e8 BB68     		ldr	r3, [r7, #8]
 1421 03ea 93F84E30 		ldrb	r3, [r3, #78]	@ zero_extendqisi2
 1422 03ee 9A42     		cmp	r2, r3
 1423 03f0 15D0     		beq	.L41
 1424              		.loc 2 255 0 is_stmt 0 discriminator 1
 1425 03f2 FB68     		ldr	r3, [r7, #12]
 1426 03f4 93F84E20 		ldrb	r2, [r3, #78]	@ zero_extendqisi2
 1427 03f8 BB68     		ldr	r3, [r7, #8]
 1428 03fa 93F84E30 		ldrb	r3, [r3, #78]	@ zero_extendqisi2
 1429 03fe 1946     		mov	r1, r3
 1430 0400 FB68     		ldr	r3, [r7, #12]
 1431 0402 93F84E30 		ldrb	r3, [r3, #78]	@ zero_extendqisi2
ARM GAS  C:\Users\tmj32\AppData\Local\Temp\ccSL9kiF.s 			page 39


 1432 0406 CB1A     		subs	r3, r1, r3
 1433 0408 7988     		ldrh	r1, [r7, #2]
 1434 040a 01FB03F3 		mul	r3, r1, r3
 1435 040e 1B12     		asrs	r3, r3, #8
 1436 0410 DBB2     		uxtb	r3, r3
 1437 0412 1344     		add	r3, r3, r2
 1438 0414 DAB2     		uxtb	r2, r3
 1439 0416 7B68     		ldr	r3, [r7, #4]
 1440 0418 83F84E20 		strb	r2, [r3, #78]
 1441 041c 05E0     		b	.L42
 1442              	.L41:
 1443              		.loc 2 255 0 discriminator 2
 1444 041e FB68     		ldr	r3, [r7, #12]
 1445 0420 93F84E20 		ldrb	r2, [r3, #78]	@ zero_extendqisi2
 1446 0424 7B68     		ldr	r3, [r7, #4]
 1447 0426 83F84E20 		strb	r2, [r3, #78]
 1448              	.L42:
 256:..\..\..\lvgl\version_6.1.2\lvgl\src\lv_core/lv_style.c ****     STYLE_ATTR_MIX(image.intense, ratio);
 1449              		.loc 2 256 0 is_stmt 1
 1450 042a FB68     		ldr	r3, [r7, #12]
 1451 042c 93F84420 		ldrb	r2, [r3, #68]	@ zero_extendqisi2
 1452 0430 BB68     		ldr	r3, [r7, #8]
 1453 0432 93F84430 		ldrb	r3, [r3, #68]	@ zero_extendqisi2
 1454 0436 9A42     		cmp	r2, r3
 1455 0438 15D0     		beq	.L43
 1456              		.loc 2 256 0 is_stmt 0 discriminator 1
 1457 043a FB68     		ldr	r3, [r7, #12]
 1458 043c 93F84420 		ldrb	r2, [r3, #68]	@ zero_extendqisi2
 1459 0440 BB68     		ldr	r3, [r7, #8]
 1460 0442 93F84430 		ldrb	r3, [r3, #68]	@ zero_extendqisi2
 1461 0446 1946     		mov	r1, r3
 1462 0448 FB68     		ldr	r3, [r7, #12]
 1463 044a 93F84430 		ldrb	r3, [r3, #68]	@ zero_extendqisi2
 1464 044e CB1A     		subs	r3, r1, r3
 1465 0450 7988     		ldrh	r1, [r7, #2]
 1466 0452 01FB03F3 		mul	r3, r1, r3
 1467 0456 1B12     		asrs	r3, r3, #8
 1468 0458 DBB2     		uxtb	r3, r3
 1469 045a 1344     		add	r3, r3, r2
 1470 045c DAB2     		uxtb	r2, r3
 1471 045e 7B68     		ldr	r3, [r7, #4]
 1472 0460 83F84420 		strb	r2, [r3, #68]
 1473 0464 05E0     		b	.L44
 1474              	.L43:
 1475              		.loc 2 256 0 discriminator 2
 1476 0466 FB68     		ldr	r3, [r7, #12]
 1477 0468 93F84420 		ldrb	r2, [r3, #68]	@ zero_extendqisi2
 1478 046c 7B68     		ldr	r3, [r7, #4]
 1479 046e 83F84420 		strb	r2, [r3, #68]
 1480              	.L44:
 257:..\..\..\lvgl\version_6.1.2\lvgl\src\lv_core/lv_style.c ****     STYLE_ATTR_MIX(image.opa, ratio);
 1481              		.loc 2 257 0 is_stmt 1
 1482 0472 FB68     		ldr	r3, [r7, #12]
 1483 0474 93F84520 		ldrb	r2, [r3, #69]	@ zero_extendqisi2
 1484 0478 BB68     		ldr	r3, [r7, #8]
 1485 047a 93F84530 		ldrb	r3, [r3, #69]	@ zero_extendqisi2
 1486 047e 9A42     		cmp	r2, r3
ARM GAS  C:\Users\tmj32\AppData\Local\Temp\ccSL9kiF.s 			page 40


 1487 0480 15D0     		beq	.L45
 1488              		.loc 2 257 0 is_stmt 0 discriminator 1
 1489 0482 FB68     		ldr	r3, [r7, #12]
 1490 0484 93F84520 		ldrb	r2, [r3, #69]	@ zero_extendqisi2
 1491 0488 BB68     		ldr	r3, [r7, #8]
 1492 048a 93F84530 		ldrb	r3, [r3, #69]	@ zero_extendqisi2
 1493 048e 1946     		mov	r1, r3
 1494 0490 FB68     		ldr	r3, [r7, #12]
 1495 0492 93F84530 		ldrb	r3, [r3, #69]	@ zero_extendqisi2
 1496 0496 CB1A     		subs	r3, r1, r3
 1497 0498 7988     		ldrh	r1, [r7, #2]
 1498 049a 01FB03F3 		mul	r3, r1, r3
 1499 049e 1B12     		asrs	r3, r3, #8
 1500 04a0 DBB2     		uxtb	r3, r3
 1501 04a2 1344     		add	r3, r3, r2
 1502 04a4 DAB2     		uxtb	r2, r3
 1503 04a6 7B68     		ldr	r3, [r7, #4]
 1504 04a8 83F84520 		strb	r2, [r3, #69]
 1505 04ac 05E0     		b	.L46
 1506              	.L45:
 1507              		.loc 2 257 0 discriminator 2
 1508 04ae FB68     		ldr	r3, [r7, #12]
 1509 04b0 93F84520 		ldrb	r2, [r3, #69]	@ zero_extendqisi2
 1510 04b4 7B68     		ldr	r3, [r7, #4]
 1511 04b6 83F84520 		strb	r2, [r3, #69]
 1512              	.L46:
 258:..\..\..\lvgl\version_6.1.2\lvgl\src\lv_core/lv_style.c **** 
 259:..\..\..\lvgl\version_6.1.2\lvgl\src\lv_core/lv_style.c ****     lv_opa_t opa = ratio == STYLE_MIX_MAX ? LV_OPA_COVER : ratio;
 1513              		.loc 2 259 0 is_stmt 1
 1514 04ba 7B88     		ldrh	r3, [r7, #2]
 1515 04bc B3F5807F 		cmp	r3, #256
 1516 04c0 02D0     		beq	.L47
 1517              		.loc 2 259 0 is_stmt 0 discriminator 1
 1518 04c2 7B88     		ldrh	r3, [r7, #2]	@ movhi
 1519 04c4 DBB2     		uxtb	r3, r3
 1520 04c6 00E0     		b	.L48
 1521              	.L47:
 1522              		.loc 2 259 0 discriminator 2
 1523 04c8 FF23     		movs	r3, #255
 1524              	.L48:
 1525              		.loc 2 259 0 discriminator 4
 1526 04ca FB75     		strb	r3, [r7, #23]
 260:..\..\..\lvgl\version_6.1.2\lvgl\src\lv_core/lv_style.c **** 
 261:..\..\..\lvgl\version_6.1.2\lvgl\src\lv_core/lv_style.c ****     res->body.main_color   = lv_color_mix(end->body.main_color, start->body.main_color, opa);
 1527              		.loc 2 261 0 is_stmt 1 discriminator 4
 1528 04cc 7C68     		ldr	r4, [r7, #4]
 1529 04ce FA7D     		ldrb	r2, [r7, #23]	@ zero_extendqisi2
 1530 04d0 F968     		ldr	r1, [r7, #12]
 1531 04d2 BB68     		ldr	r3, [r7, #8]
 1532 04d4 4968     		ldr	r1, [r1, #4]
 1533 04d6 5868     		ldr	r0, [r3, #4]
 1534 04d8 FFF7FEFF 		bl	lv_color_mix
 1535 04dc 6060     		str	r0, [r4, #4]
 262:..\..\..\lvgl\version_6.1.2\lvgl\src\lv_core/lv_style.c ****     res->body.grad_color   = lv_color_mix(end->body.grad_color, start->body.grad_color, opa);
 1536              		.loc 2 262 0 discriminator 4
 1537 04de 7C68     		ldr	r4, [r7, #4]
 1538 04e0 FA7D     		ldrb	r2, [r7, #23]	@ zero_extendqisi2
ARM GAS  C:\Users\tmj32\AppData\Local\Temp\ccSL9kiF.s 			page 41


 1539 04e2 F968     		ldr	r1, [r7, #12]
 1540 04e4 BB68     		ldr	r3, [r7, #8]
 1541 04e6 8968     		ldr	r1, [r1, #8]
 1542 04e8 9868     		ldr	r0, [r3, #8]
 1543 04ea FFF7FEFF 		bl	lv_color_mix
 1544 04ee A060     		str	r0, [r4, #8]
 263:..\..\..\lvgl\version_6.1.2\lvgl\src\lv_core/lv_style.c ****     res->body.border.color = lv_color_mix(end->body.border.color, start->body.border.color, opa);
 1545              		.loc 2 263 0 discriminator 4
 1546 04f0 7C68     		ldr	r4, [r7, #4]
 1547 04f2 FA7D     		ldrb	r2, [r7, #23]	@ zero_extendqisi2
 1548 04f4 F968     		ldr	r1, [r7, #12]
 1549 04f6 BB68     		ldr	r3, [r7, #8]
 1550 04f8 0969     		ldr	r1, [r1, #16]
 1551 04fa 1869     		ldr	r0, [r3, #16]
 1552 04fc FFF7FEFF 		bl	lv_color_mix
 1553 0500 2061     		str	r0, [r4, #16]
 264:..\..\..\lvgl\version_6.1.2\lvgl\src\lv_core/lv_style.c ****     res->body.shadow.color = lv_color_mix(end->body.shadow.color, start->body.shadow.color, opa);
 1554              		.loc 2 264 0 discriminator 4
 1555 0502 7C68     		ldr	r4, [r7, #4]
 1556 0504 FA7D     		ldrb	r2, [r7, #23]	@ zero_extendqisi2
 1557 0506 F968     		ldr	r1, [r7, #12]
 1558 0508 BB68     		ldr	r3, [r7, #8]
 1559 050a 8969     		ldr	r1, [r1, #24]
 1560 050c 9869     		ldr	r0, [r3, #24]
 1561 050e FFF7FEFF 		bl	lv_color_mix
 1562 0512 A061     		str	r0, [r4, #24]
 265:..\..\..\lvgl\version_6.1.2\lvgl\src\lv_core/lv_style.c ****     res->text.color        = lv_color_mix(end->text.color, start->text.color, opa);
 1563              		.loc 2 265 0 discriminator 4
 1564 0514 7C68     		ldr	r4, [r7, #4]
 1565 0516 FA7D     		ldrb	r2, [r7, #23]	@ zero_extendqisi2
 1566 0518 F968     		ldr	r1, [r7, #12]
 1567 051a BB68     		ldr	r3, [r7, #8]
 1568 051c C96A     		ldr	r1, [r1, #44]
 1569 051e D86A     		ldr	r0, [r3, #44]
 1570 0520 FFF7FEFF 		bl	lv_color_mix
 1571 0524 E062     		str	r0, [r4, #44]
 266:..\..\..\lvgl\version_6.1.2\lvgl\src\lv_core/lv_style.c ****     res->image.color       = lv_color_mix(end->image.color, start->image.color, opa);
 1572              		.loc 2 266 0 discriminator 4
 1573 0526 7C68     		ldr	r4, [r7, #4]
 1574 0528 FA7D     		ldrb	r2, [r7, #23]	@ zero_extendqisi2
 1575 052a F968     		ldr	r1, [r7, #12]
 1576 052c BB68     		ldr	r3, [r7, #8]
 1577 052e 096C     		ldr	r1, [r1, #64]
 1578 0530 186C     		ldr	r0, [r3, #64]
 1579 0532 FFF7FEFF 		bl	lv_color_mix
 1580 0536 2064     		str	r0, [r4, #64]
 267:..\..\..\lvgl\version_6.1.2\lvgl\src\lv_core/lv_style.c ****     res->line.color        = lv_color_mix(end->line.color, start->line.color, opa);
 1581              		.loc 2 267 0 discriminator 4
 1582 0538 7C68     		ldr	r4, [r7, #4]
 1583 053a FA7D     		ldrb	r2, [r7, #23]	@ zero_extendqisi2
 1584 053c F968     		ldr	r1, [r7, #12]
 1585 053e BB68     		ldr	r3, [r7, #8]
 1586 0540 896C     		ldr	r1, [r1, #72]
 1587 0542 986C     		ldr	r0, [r3, #72]
 1588 0544 FFF7FEFF 		bl	lv_color_mix
 1589 0548 A064     		str	r0, [r4, #72]
 268:..\..\..\lvgl\version_6.1.2\lvgl\src\lv_core/lv_style.c **** 
ARM GAS  C:\Users\tmj32\AppData\Local\Temp\ccSL9kiF.s 			page 42


 269:..\..\..\lvgl\version_6.1.2\lvgl\src\lv_core/lv_style.c ****     if(ratio < (STYLE_MIX_MAX >> 1)) {
 1590              		.loc 2 269 0 discriminator 4
 1591 054a 7B88     		ldrh	r3, [r7, #2]
 1592 054c 7F2B     		cmp	r3, #127
 1593 054e 23D8     		bhi	.L49
 270:..\..\..\lvgl\version_6.1.2\lvgl\src\lv_core/lv_style.c ****         res->body.border.part = start->body.border.part;
 1594              		.loc 2 270 0
 1595 0550 FB68     		ldr	r3, [r7, #12]
 1596 0552 9A7D     		ldrb	r2, [r3, #22]	@ zero_extendqisi2
 1597 0554 7B68     		ldr	r3, [r7, #4]
 1598 0556 9A75     		strb	r2, [r3, #22]
 271:..\..\..\lvgl\version_6.1.2\lvgl\src\lv_core/lv_style.c ****         res->glass            = start->glass;
 1599              		.loc 2 271 0
 1600 0558 FB68     		ldr	r3, [r7, #12]
 1601 055a 1B78     		ldrb	r3, [r3]
 1602 055c C3F30003 		ubfx	r3, r3, #0, #1
 1603 0560 D9B2     		uxtb	r1, r3
 1604 0562 7A68     		ldr	r2, [r7, #4]
 1605 0564 1378     		ldrb	r3, [r2]
 1606 0566 61F30003 		bfi	r3, r1, #0, #1
 1607 056a 1370     		strb	r3, [r2]
 272:..\..\..\lvgl\version_6.1.2\lvgl\src\lv_core/lv_style.c ****         res->text.font        = start->text.font;
 1608              		.loc 2 272 0
 1609 056c FB68     		ldr	r3, [r7, #12]
 1610 056e 5A6B     		ldr	r2, [r3, #52]
 1611 0570 7B68     		ldr	r3, [r7, #4]
 1612 0572 5A63     		str	r2, [r3, #52]
 273:..\..\..\lvgl\version_6.1.2\lvgl\src\lv_core/lv_style.c ****         res->body.shadow.type = start->body.shadow.type;
 1613              		.loc 2 273 0
 1614 0574 FB68     		ldr	r3, [r7, #12]
 1615 0576 9A7F     		ldrb	r2, [r3, #30]	@ zero_extendqisi2
 1616 0578 7B68     		ldr	r3, [r7, #4]
 1617 057a 9A77     		strb	r2, [r3, #30]
 274:..\..\..\lvgl\version_6.1.2\lvgl\src\lv_core/lv_style.c ****         res->line.rounded     = start->line.rounded;
 1618              		.loc 2 274 0
 1619 057c FB68     		ldr	r3, [r7, #12]
 1620 057e 93F84F30 		ldrb	r3, [r3, #79]
 1621 0582 C3F30003 		ubfx	r3, r3, #0, #1
 1622 0586 D9B2     		uxtb	r1, r3
 1623 0588 7A68     		ldr	r2, [r7, #4]
 1624 058a 92F84F30 		ldrb	r3, [r2, #79]
 1625 058e 61F30003 		bfi	r3, r1, #0, #1
 1626 0592 82F84F30 		strb	r3, [r2, #79]
 275:..\..\..\lvgl\version_6.1.2\lvgl\src\lv_core/lv_style.c ****     } else {
 276:..\..\..\lvgl\version_6.1.2\lvgl\src\lv_core/lv_style.c ****         res->body.border.part = end->body.border.part;
 277:..\..\..\lvgl\version_6.1.2\lvgl\src\lv_core/lv_style.c ****         res->glass            = end->glass;
 278:..\..\..\lvgl\version_6.1.2\lvgl\src\lv_core/lv_style.c ****         res->text.font        = end->text.font;
 279:..\..\..\lvgl\version_6.1.2\lvgl\src\lv_core/lv_style.c ****         res->body.shadow.type = end->body.shadow.type;
 280:..\..\..\lvgl\version_6.1.2\lvgl\src\lv_core/lv_style.c ****         res->line.rounded     = end->line.rounded;
 281:..\..\..\lvgl\version_6.1.2\lvgl\src\lv_core/lv_style.c ****     }
 282:..\..\..\lvgl\version_6.1.2\lvgl\src\lv_core/lv_style.c **** }
 1627              		.loc 2 282 0
 1628 0596 22E0     		b	.L51
 1629              	.L49:
 276:..\..\..\lvgl\version_6.1.2\lvgl\src\lv_core/lv_style.c ****         res->glass            = end->glass;
 1630              		.loc 2 276 0
 1631 0598 BB68     		ldr	r3, [r7, #8]
ARM GAS  C:\Users\tmj32\AppData\Local\Temp\ccSL9kiF.s 			page 43


 1632 059a 9A7D     		ldrb	r2, [r3, #22]	@ zero_extendqisi2
 1633 059c 7B68     		ldr	r3, [r7, #4]
 1634 059e 9A75     		strb	r2, [r3, #22]
 277:..\..\..\lvgl\version_6.1.2\lvgl\src\lv_core/lv_style.c ****         res->text.font        = end->text.font;
 1635              		.loc 2 277 0
 1636 05a0 BB68     		ldr	r3, [r7, #8]
 1637 05a2 1B78     		ldrb	r3, [r3]
 1638 05a4 C3F30003 		ubfx	r3, r3, #0, #1
 1639 05a8 D9B2     		uxtb	r1, r3
 1640 05aa 7A68     		ldr	r2, [r7, #4]
 1641 05ac 1378     		ldrb	r3, [r2]
 1642 05ae 61F30003 		bfi	r3, r1, #0, #1
 1643 05b2 1370     		strb	r3, [r2]
 278:..\..\..\lvgl\version_6.1.2\lvgl\src\lv_core/lv_style.c ****         res->body.shadow.type = end->body.shadow.type;
 1644              		.loc 2 278 0
 1645 05b4 BB68     		ldr	r3, [r7, #8]
 1646 05b6 5A6B     		ldr	r2, [r3, #52]
 1647 05b8 7B68     		ldr	r3, [r7, #4]
 1648 05ba 5A63     		str	r2, [r3, #52]
 279:..\..\..\lvgl\version_6.1.2\lvgl\src\lv_core/lv_style.c ****         res->line.rounded     = end->line.rounded;
 1649              		.loc 2 279 0
 1650 05bc BB68     		ldr	r3, [r7, #8]
 1651 05be 9A7F     		ldrb	r2, [r3, #30]	@ zero_extendqisi2
 1652 05c0 7B68     		ldr	r3, [r7, #4]
 1653 05c2 9A77     		strb	r2, [r3, #30]
 280:..\..\..\lvgl\version_6.1.2\lvgl\src\lv_core/lv_style.c ****     }
 1654              		.loc 2 280 0
 1655 05c4 BB68     		ldr	r3, [r7, #8]
 1656 05c6 93F84F30 		ldrb	r3, [r3, #79]
 1657 05ca C3F30003 		ubfx	r3, r3, #0, #1
 1658 05ce D9B2     		uxtb	r1, r3
 1659 05d0 7A68     		ldr	r2, [r7, #4]
 1660 05d2 92F84F30 		ldrb	r3, [r2, #79]
 1661 05d6 61F30003 		bfi	r3, r1, #0, #1
 1662 05da 82F84F30 		strb	r3, [r2, #79]
 1663              	.L51:
 1664              		.loc 2 282 0
 1665 05de 00BF     		nop
 1666 05e0 1C37     		adds	r7, r7, #28
 1667              		.cfi_def_cfa_offset 12
 1668 05e2 BD46     		mov	sp, r7
 1669              		.cfi_def_cfa_register 13
 1670              		@ sp needed
 1671 05e4 90BD     		pop	{r4, r7, pc}
 1672              		.cfi_endproc
 1673              	.LFE33:
 1674              		.size	lv_style_mix, .-lv_style_mix
 1675 05e6 00BF     		.section	.text.lv_style_anim_init,"ax",%progbits
 1676              		.align	2
 1677              		.global	lv_style_anim_init
 1678              		.thumb
 1679              		.thumb_func
 1680              		.type	lv_style_anim_init, %function
 1681              	lv_style_anim_init:
 1682              	.LFB34:
 283:..\..\..\lvgl\version_6.1.2\lvgl\src\lv_core/lv_style.c **** 
 284:..\..\..\lvgl\version_6.1.2\lvgl\src\lv_core/lv_style.c **** #if LV_USE_ANIMATION
ARM GAS  C:\Users\tmj32\AppData\Local\Temp\ccSL9kiF.s 			page 44


 285:..\..\..\lvgl\version_6.1.2\lvgl\src\lv_core/lv_style.c **** 
 286:..\..\..\lvgl\version_6.1.2\lvgl\src\lv_core/lv_style.c **** void lv_style_anim_init(lv_anim_t * a)
 287:..\..\..\lvgl\version_6.1.2\lvgl\src\lv_core/lv_style.c **** {
 1683              		.loc 2 287 0
 1684              		.cfi_startproc
 1685              		@ args = 0, pretend = 0, frame = 16
 1686              		@ frame_needed = 1, uses_anonymous_args = 0
 1687 0000 80B5     		push	{r7, lr}
 1688              		.cfi_def_cfa_offset 8
 1689              		.cfi_offset 7, -8
 1690              		.cfi_offset 14, -4
 1691 0002 84B0     		sub	sp, sp, #16
 1692              		.cfi_def_cfa_offset 24
 1693 0004 00AF     		add	r7, sp, #0
 1694              		.cfi_def_cfa_register 7
 1695 0006 7860     		str	r0, [r7, #4]
 288:..\..\..\lvgl\version_6.1.2\lvgl\src\lv_core/lv_style.c ****     lv_anim_init(a);
 1696              		.loc 2 288 0
 1697 0008 7868     		ldr	r0, [r7, #4]
 1698 000a FFF7FEFF 		bl	lv_anim_init
 289:..\..\..\lvgl\version_6.1.2\lvgl\src\lv_core/lv_style.c ****     a->start    = 0;
 1699              		.loc 2 289 0
 1700 000e 7B68     		ldr	r3, [r7, #4]
 1701 0010 0022     		movs	r2, #0
 1702 0012 1A61     		str	r2, [r3, #16]
 290:..\..\..\lvgl\version_6.1.2\lvgl\src\lv_core/lv_style.c ****     a->end      = STYLE_MIX_MAX;
 1703              		.loc 2 290 0
 1704 0014 7B68     		ldr	r3, [r7, #4]
 1705 0016 4FF48072 		mov	r2, #256
 1706 001a 5A61     		str	r2, [r3, #20]
 291:..\..\..\lvgl\version_6.1.2\lvgl\src\lv_core/lv_style.c ****     a->exec_cb  = (lv_anim_exec_xcb_t)style_animator;
 1707              		.loc 2 291 0
 1708 001c 7B68     		ldr	r3, [r7, #4]
 1709 001e 154A     		ldr	r2, .L56
 1710 0020 5A60     		str	r2, [r3, #4]
 292:..\..\..\lvgl\version_6.1.2\lvgl\src\lv_core/lv_style.c ****     a->path_cb  = lv_anim_path_linear;
 1711              		.loc 2 292 0
 1712 0022 7B68     		ldr	r3, [r7, #4]
 1713 0024 144A     		ldr	r2, .L56+4
 1714 0026 9A60     		str	r2, [r3, #8]
 293:..\..\..\lvgl\version_6.1.2\lvgl\src\lv_core/lv_style.c ****     a->ready_cb = style_animation_common_end_cb;
 1715              		.loc 2 293 0
 1716 0028 7B68     		ldr	r3, [r7, #4]
 1717 002a 144A     		ldr	r2, .L56+8
 1718 002c DA60     		str	r2, [r3, #12]
 294:..\..\..\lvgl\version_6.1.2\lvgl\src\lv_core/lv_style.c **** 
 295:..\..\..\lvgl\version_6.1.2\lvgl\src\lv_core/lv_style.c ****     lv_style_anim_dsc_t * dsc;
 296:..\..\..\lvgl\version_6.1.2\lvgl\src\lv_core/lv_style.c ****     dsc = lv_mem_alloc(sizeof(lv_style_anim_dsc_t));
 1719              		.loc 2 296 0
 1720 002e A820     		movs	r0, #168
 1721 0030 FFF7FEFF 		bl	lv_mem_alloc
 1722 0034 F860     		str	r0, [r7, #12]
 297:..\..\..\lvgl\version_6.1.2\lvgl\src\lv_core/lv_style.c ****     LV_ASSERT_MEM(dsc);
 298:..\..\..\lvgl\version_6.1.2\lvgl\src\lv_core/lv_style.c ****     if(dsc == NULL) return;
 1723              		.loc 2 298 0
 1724 0036 FB68     		ldr	r3, [r7, #12]
 1725 0038 002B     		cmp	r3, #0
ARM GAS  C:\Users\tmj32\AppData\Local\Temp\ccSL9kiF.s 			page 45


 1726 003a 16D0     		beq	.L55
 299:..\..\..\lvgl\version_6.1.2\lvgl\src\lv_core/lv_style.c ****     dsc->ready_cb   = NULL;
 1727              		.loc 2 299 0
 1728 003c FB68     		ldr	r3, [r7, #12]
 1729 003e 0022     		movs	r2, #0
 1730 0040 C3F8A420 		str	r2, [r3, #164]
 300:..\..\..\lvgl\version_6.1.2\lvgl\src\lv_core/lv_style.c ****     dsc->style_anim = NULL;
 1731              		.loc 2 300 0
 1732 0044 FB68     		ldr	r3, [r7, #12]
 1733 0046 0022     		movs	r2, #0
 1734 0048 C3F8A020 		str	r2, [r3, #160]
 301:..\..\..\lvgl\version_6.1.2\lvgl\src\lv_core/lv_style.c ****     lv_style_copy(&dsc->style_start, &lv_style_plain);
 1735              		.loc 2 301 0
 1736 004c FB68     		ldr	r3, [r7, #12]
 1737 004e 0C49     		ldr	r1, .L56+12
 1738 0050 1846     		mov	r0, r3
 1739 0052 FFF7FEFF 		bl	lv_style_copy
 302:..\..\..\lvgl\version_6.1.2\lvgl\src\lv_core/lv_style.c ****     lv_style_copy(&dsc->style_end, &lv_style_plain);
 1740              		.loc 2 302 0
 1741 0056 FB68     		ldr	r3, [r7, #12]
 1742 0058 5033     		adds	r3, r3, #80
 1743 005a 0949     		ldr	r1, .L56+12
 1744 005c 1846     		mov	r0, r3
 1745 005e FFF7FEFF 		bl	lv_style_copy
 303:..\..\..\lvgl\version_6.1.2\lvgl\src\lv_core/lv_style.c **** 
 304:..\..\..\lvgl\version_6.1.2\lvgl\src\lv_core/lv_style.c ****     a->var = (void *)dsc;
 1746              		.loc 2 304 0
 1747 0062 7B68     		ldr	r3, [r7, #4]
 1748 0064 FA68     		ldr	r2, [r7, #12]
 1749 0066 1A60     		str	r2, [r3]
 1750 0068 00E0     		b	.L52
 1751              	.L55:
 298:..\..\..\lvgl\version_6.1.2\lvgl\src\lv_core/lv_style.c ****     dsc->ready_cb   = NULL;
 1752              		.loc 2 298 0
 1753 006a 00BF     		nop
 1754              	.L52:
 305:..\..\..\lvgl\version_6.1.2\lvgl\src\lv_core/lv_style.c **** }
 1755              		.loc 2 305 0
 1756 006c 1037     		adds	r7, r7, #16
 1757              		.cfi_def_cfa_offset 8
 1758 006e BD46     		mov	sp, r7
 1759              		.cfi_def_cfa_register 13
 1760              		@ sp needed
 1761 0070 80BD     		pop	{r7, pc}
 1762              	.L57:
 1763 0072 00BF     		.align	2
 1764              	.L56:
 1765 0074 00000000 		.word	style_animator
 1766 0078 00000000 		.word	lv_anim_path_linear
 1767 007c 00000000 		.word	style_animation_common_end_cb
 1768 0080 00000000 		.word	lv_style_plain
 1769              		.cfi_endproc
 1770              	.LFE34:
 1771              		.size	lv_style_anim_init, .-lv_style_anim_init
 1772              		.section	.text.lv_style_anim_set_styles,"ax",%progbits
 1773              		.align	2
 1774              		.global	lv_style_anim_set_styles
ARM GAS  C:\Users\tmj32\AppData\Local\Temp\ccSL9kiF.s 			page 46


 1775              		.thumb
 1776              		.thumb_func
 1777              		.type	lv_style_anim_set_styles, %function
 1778              	lv_style_anim_set_styles:
 1779              	.LFB35:
 306:..\..\..\lvgl\version_6.1.2\lvgl\src\lv_core/lv_style.c **** 
 307:..\..\..\lvgl\version_6.1.2\lvgl\src\lv_core/lv_style.c **** void lv_style_anim_set_styles(lv_anim_t * a, lv_style_t * to_anim, const lv_style_t * start, const 
 308:..\..\..\lvgl\version_6.1.2\lvgl\src\lv_core/lv_style.c **** {
 1780              		.loc 2 308 0
 1781              		.cfi_startproc
 1782              		@ args = 0, pretend = 0, frame = 24
 1783              		@ frame_needed = 1, uses_anonymous_args = 0
 1784 0000 80B5     		push	{r7, lr}
 1785              		.cfi_def_cfa_offset 8
 1786              		.cfi_offset 7, -8
 1787              		.cfi_offset 14, -4
 1788 0002 86B0     		sub	sp, sp, #24
 1789              		.cfi_def_cfa_offset 32
 1790 0004 00AF     		add	r7, sp, #0
 1791              		.cfi_def_cfa_register 7
 1792 0006 F860     		str	r0, [r7, #12]
 1793 0008 B960     		str	r1, [r7, #8]
 1794 000a 7A60     		str	r2, [r7, #4]
 1795 000c 3B60     		str	r3, [r7]
 309:..\..\..\lvgl\version_6.1.2\lvgl\src\lv_core/lv_style.c **** 
 310:..\..\..\lvgl\version_6.1.2\lvgl\src\lv_core/lv_style.c ****     lv_style_anim_dsc_t * dsc = a->var;
 1796              		.loc 2 310 0
 1797 000e FB68     		ldr	r3, [r7, #12]
 1798 0010 1B68     		ldr	r3, [r3]
 1799 0012 7B61     		str	r3, [r7, #20]
 311:..\..\..\lvgl\version_6.1.2\lvgl\src\lv_core/lv_style.c ****     dsc->style_anim           = to_anim;
 1800              		.loc 2 311 0
 1801 0014 7B69     		ldr	r3, [r7, #20]
 1802 0016 BA68     		ldr	r2, [r7, #8]
 1803 0018 C3F8A020 		str	r2, [r3, #160]
 312:..\..\..\lvgl\version_6.1.2\lvgl\src\lv_core/lv_style.c ****     memcpy(&dsc->style_start, start, sizeof(lv_style_t));
 1804              		.loc 2 312 0
 1805 001c 7B69     		ldr	r3, [r7, #20]
 1806 001e 5022     		movs	r2, #80
 1807 0020 7968     		ldr	r1, [r7, #4]
 1808 0022 1846     		mov	r0, r3
 1809 0024 FFF7FEFF 		bl	memcpy
 313:..\..\..\lvgl\version_6.1.2\lvgl\src\lv_core/lv_style.c ****     memcpy(&dsc->style_end, end, sizeof(lv_style_t));
 1810              		.loc 2 313 0
 1811 0028 7B69     		ldr	r3, [r7, #20]
 1812 002a 5033     		adds	r3, r3, #80
 1813 002c 5022     		movs	r2, #80
 1814 002e 3968     		ldr	r1, [r7]
 1815 0030 1846     		mov	r0, r3
 1816 0032 FFF7FEFF 		bl	memcpy
 314:..\..\..\lvgl\version_6.1.2\lvgl\src\lv_core/lv_style.c ****     memcpy(dsc->style_anim, start, sizeof(lv_style_t));
 1817              		.loc 2 314 0
 1818 0036 7B69     		ldr	r3, [r7, #20]
 1819 0038 D3F8A030 		ldr	r3, [r3, #160]
 1820 003c 5022     		movs	r2, #80
 1821 003e 7968     		ldr	r1, [r7, #4]
 1822 0040 1846     		mov	r0, r3
ARM GAS  C:\Users\tmj32\AppData\Local\Temp\ccSL9kiF.s 			page 47


 1823 0042 FFF7FEFF 		bl	memcpy
 315:..\..\..\lvgl\version_6.1.2\lvgl\src\lv_core/lv_style.c **** }
 1824              		.loc 2 315 0
 1825 0046 00BF     		nop
 1826 0048 1837     		adds	r7, r7, #24
 1827              		.cfi_def_cfa_offset 8
 1828 004a BD46     		mov	sp, r7
 1829              		.cfi_def_cfa_register 13
 1830              		@ sp needed
 1831 004c 80BD     		pop	{r7, pc}
 1832              		.cfi_endproc
 1833              	.LFE35:
 1834              		.size	lv_style_anim_set_styles, .-lv_style_anim_set_styles
 1835 004e 00BF     		.section	.text.style_animator,"ax",%progbits
 1836              		.align	2
 1837              		.thumb
 1838              		.thumb_func
 1839              		.type	style_animator, %function
 1840              	style_animator:
 1841              	.LFB36:
 316:..\..\..\lvgl\version_6.1.2\lvgl\src\lv_core/lv_style.c **** #endif
 317:..\..\..\lvgl\version_6.1.2\lvgl\src\lv_core/lv_style.c **** /**********************
 318:..\..\..\lvgl\version_6.1.2\lvgl\src\lv_core/lv_style.c ****  *   STATIC FUNCTIONS
 319:..\..\..\lvgl\version_6.1.2\lvgl\src\lv_core/lv_style.c ****  **********************/
 320:..\..\..\lvgl\version_6.1.2\lvgl\src\lv_core/lv_style.c **** #if LV_USE_ANIMATION
 321:..\..\..\lvgl\version_6.1.2\lvgl\src\lv_core/lv_style.c **** /**
 322:..\..\..\lvgl\version_6.1.2\lvgl\src\lv_core/lv_style.c ****  * Used by the style animations to set the values of a style according to start and end style.
 323:..\..\..\lvgl\version_6.1.2\lvgl\src\lv_core/lv_style.c ****  * @param dsc the 'animated variable' set by lv_style_anim_create()
 324:..\..\..\lvgl\version_6.1.2\lvgl\src\lv_core/lv_style.c ****  * @param val the current state of the animation between 0 and LV_ANIM_RESOLUTION
 325:..\..\..\lvgl\version_6.1.2\lvgl\src\lv_core/lv_style.c ****  */
 326:..\..\..\lvgl\version_6.1.2\lvgl\src\lv_core/lv_style.c **** static void style_animator(lv_style_anim_dsc_t * dsc, lv_anim_value_t val)
 327:..\..\..\lvgl\version_6.1.2\lvgl\src\lv_core/lv_style.c **** {
 1842              		.loc 2 327 0
 1843              		.cfi_startproc
 1844              		@ args = 0, pretend = 0, frame = 24
 1845              		@ frame_needed = 1, uses_anonymous_args = 0
 1846 0000 80B5     		push	{r7, lr}
 1847              		.cfi_def_cfa_offset 8
 1848              		.cfi_offset 7, -8
 1849              		.cfi_offset 14, -4
 1850 0002 86B0     		sub	sp, sp, #24
 1851              		.cfi_def_cfa_offset 32
 1852 0004 00AF     		add	r7, sp, #0
 1853              		.cfi_def_cfa_register 7
 1854 0006 7860     		str	r0, [r7, #4]
 1855 0008 0B46     		mov	r3, r1
 1856 000a 7B80     		strh	r3, [r7, #2]	@ movhi
 328:..\..\..\lvgl\version_6.1.2\lvgl\src\lv_core/lv_style.c ****     const lv_style_t * start = &dsc->style_start;
 1857              		.loc 2 328 0
 1858 000c 7B68     		ldr	r3, [r7, #4]
 1859 000e 7B61     		str	r3, [r7, #20]
 329:..\..\..\lvgl\version_6.1.2\lvgl\src\lv_core/lv_style.c ****     const lv_style_t * end   = &dsc->style_end;
 1860              		.loc 2 329 0
 1861 0010 7B68     		ldr	r3, [r7, #4]
 1862 0012 5033     		adds	r3, r3, #80
 1863 0014 3B61     		str	r3, [r7, #16]
 330:..\..\..\lvgl\version_6.1.2\lvgl\src\lv_core/lv_style.c ****     lv_style_t * act         = dsc->style_anim;
ARM GAS  C:\Users\tmj32\AppData\Local\Temp\ccSL9kiF.s 			page 48


 1864              		.loc 2 330 0
 1865 0016 7B68     		ldr	r3, [r7, #4]
 1866 0018 D3F8A030 		ldr	r3, [r3, #160]
 1867 001c FB60     		str	r3, [r7, #12]
 331:..\..\..\lvgl\version_6.1.2\lvgl\src\lv_core/lv_style.c **** 
 332:..\..\..\lvgl\version_6.1.2\lvgl\src\lv_core/lv_style.c ****     lv_style_mix(start, end, act, val);
 1868              		.loc 2 332 0
 1869 001e 7B88     		ldrh	r3, [r7, #2]
 1870 0020 FA68     		ldr	r2, [r7, #12]
 1871 0022 3969     		ldr	r1, [r7, #16]
 1872 0024 7869     		ldr	r0, [r7, #20]
 1873 0026 FFF7FEFF 		bl	lv_style_mix
 333:..\..\..\lvgl\version_6.1.2\lvgl\src\lv_core/lv_style.c **** 
 334:..\..\..\lvgl\version_6.1.2\lvgl\src\lv_core/lv_style.c ****     lv_obj_report_style_mod(dsc->style_anim);
 1874              		.loc 2 334 0
 1875 002a 7B68     		ldr	r3, [r7, #4]
 1876 002c D3F8A030 		ldr	r3, [r3, #160]
 1877 0030 1846     		mov	r0, r3
 1878 0032 FFF7FEFF 		bl	lv_obj_report_style_mod
 335:..\..\..\lvgl\version_6.1.2\lvgl\src\lv_core/lv_style.c **** }
 1879              		.loc 2 335 0
 1880 0036 00BF     		nop
 1881 0038 1837     		adds	r7, r7, #24
 1882              		.cfi_def_cfa_offset 8
 1883 003a BD46     		mov	sp, r7
 1884              		.cfi_def_cfa_register 13
 1885              		@ sp needed
 1886 003c 80BD     		pop	{r7, pc}
 1887              		.cfi_endproc
 1888              	.LFE36:
 1889              		.size	style_animator, .-style_animator
 1890 003e 00BF     		.section	.text.style_animation_common_end_cb,"ax",%progbits
 1891              		.align	2
 1892              		.thumb
 1893              		.thumb_func
 1894              		.type	style_animation_common_end_cb, %function
 1895              	style_animation_common_end_cb:
 1896              	.LFB37:
 336:..\..\..\lvgl\version_6.1.2\lvgl\src\lv_core/lv_style.c **** 
 337:..\..\..\lvgl\version_6.1.2\lvgl\src\lv_core/lv_style.c **** /**
 338:..\..\..\lvgl\version_6.1.2\lvgl\src\lv_core/lv_style.c ****  * Called when a style animation is ready
 339:..\..\..\lvgl\version_6.1.2\lvgl\src\lv_core/lv_style.c ****  * It called the user defined call back and free the allocated memories
 340:..\..\..\lvgl\version_6.1.2\lvgl\src\lv_core/lv_style.c ****  * @param a pointer to the animation
 341:..\..\..\lvgl\version_6.1.2\lvgl\src\lv_core/lv_style.c ****  */
 342:..\..\..\lvgl\version_6.1.2\lvgl\src\lv_core/lv_style.c **** static void style_animation_common_end_cb(lv_anim_t * a)
 343:..\..\..\lvgl\version_6.1.2\lvgl\src\lv_core/lv_style.c **** {
 1897              		.loc 2 343 0
 1898              		.cfi_startproc
 1899              		@ args = 0, pretend = 0, frame = 16
 1900              		@ frame_needed = 1, uses_anonymous_args = 0
 1901 0000 80B5     		push	{r7, lr}
 1902              		.cfi_def_cfa_offset 8
 1903              		.cfi_offset 7, -8
 1904              		.cfi_offset 14, -4
 1905 0002 84B0     		sub	sp, sp, #16
 1906              		.cfi_def_cfa_offset 24
 1907 0004 00AF     		add	r7, sp, #0
ARM GAS  C:\Users\tmj32\AppData\Local\Temp\ccSL9kiF.s 			page 49


 1908              		.cfi_def_cfa_register 7
 1909 0006 7860     		str	r0, [r7, #4]
 344:..\..\..\lvgl\version_6.1.2\lvgl\src\lv_core/lv_style.c **** 
 345:..\..\..\lvgl\version_6.1.2\lvgl\src\lv_core/lv_style.c ****     (void)a;                            /*Unused*/
 346:..\..\..\lvgl\version_6.1.2\lvgl\src\lv_core/lv_style.c ****     lv_style_anim_dsc_t * dsc = a->var; /*To avoid casting*/
 1910              		.loc 2 346 0
 1911 0008 7B68     		ldr	r3, [r7, #4]
 1912 000a 1B68     		ldr	r3, [r3]
 1913 000c FB60     		str	r3, [r7, #12]
 347:..\..\..\lvgl\version_6.1.2\lvgl\src\lv_core/lv_style.c **** 
 348:..\..\..\lvgl\version_6.1.2\lvgl\src\lv_core/lv_style.c ****     if(dsc->ready_cb) dsc->ready_cb(a);
 1914              		.loc 2 348 0
 1915 000e FB68     		ldr	r3, [r7, #12]
 1916 0010 D3F8A430 		ldr	r3, [r3, #164]
 1917 0014 002B     		cmp	r3, #0
 1918 0016 04D0     		beq	.L61
 1919              		.loc 2 348 0 is_stmt 0 discriminator 1
 1920 0018 FB68     		ldr	r3, [r7, #12]
 1921 001a D3F8A430 		ldr	r3, [r3, #164]
 1922 001e 7868     		ldr	r0, [r7, #4]
 1923 0020 9847     		blx	r3
 1924              	.L61:
 349:..\..\..\lvgl\version_6.1.2\lvgl\src\lv_core/lv_style.c **** 
 350:..\..\..\lvgl\version_6.1.2\lvgl\src\lv_core/lv_style.c ****     lv_mem_free(dsc);
 1925              		.loc 2 350 0 is_stmt 1
 1926 0022 F868     		ldr	r0, [r7, #12]
 1927 0024 FFF7FEFF 		bl	lv_mem_free
 351:..\..\..\lvgl\version_6.1.2\lvgl\src\lv_core/lv_style.c **** }
 1928              		.loc 2 351 0
 1929 0028 00BF     		nop
 1930 002a 1037     		adds	r7, r7, #16
 1931              		.cfi_def_cfa_offset 8
 1932 002c BD46     		mov	sp, r7
 1933              		.cfi_def_cfa_register 13
 1934              		@ sp needed
 1935 002e 80BD     		pop	{r7, pc}
 1936              		.cfi_endproc
 1937              	.LFE37:
 1938              		.size	style_animation_common_end_cb, .-style_animation_common_end_cb
 1939              		.text
 1940              	.Letext0:
 1941              		.file 3 "c:\\program files (x86)\\cypress\\psoc creator\\4.3\\psoc creator\\import\\gnu\\arm\\5.4.
 1942              		.file 4 "c:\\program files (x86)\\cypress\\psoc creator\\4.3\\psoc creator\\import\\gnu\\arm\\5.4.
 1943              		.file 5 "..\\..\\..\\lvgl\\version_6.1.2\\lvgl\\src\\lv_core\\../../../lv_conf.h"
 1944              		.file 6 "..\\..\\..\\lvgl\\version_6.1.2\\lvgl\\src\\lv_core\\../lv_font/lv_font.h"
 1945              		.file 7 "..\\..\\..\\lvgl\\version_6.1.2\\lvgl\\src\\lv_core\\../lv_misc/lv_anim.h"
 1946              		.file 8 "..\\..\\..\\lvgl\\version_6.1.2\\lvgl\\src\\lv_core\\lv_style.h"
 1947              		.section	.debug_info,"",%progbits
 1948              	.Ldebug_info0:
 1949 0000 760A0000 		.4byte	0xa76
 1950 0004 0400     		.2byte	0x4
 1951 0006 00000000 		.4byte	.Ldebug_abbrev0
 1952 000a 04       		.byte	0x4
 1953 000b 01       		.uleb128 0x1
 1954 000c 1C070000 		.4byte	.LASF143
 1955 0010 0C       		.byte	0xc
 1956 0011 93040000 		.4byte	.LASF144
ARM GAS  C:\Users\tmj32\AppData\Local\Temp\ccSL9kiF.s 			page 50


 1957 0015 40010000 		.4byte	.LASF145
 1958 0019 00000000 		.4byte	.Ldebug_ranges0+0
 1959 001d 00000000 		.4byte	0
 1960 0021 00000000 		.4byte	.Ldebug_line0
 1961 0025 02       		.uleb128 0x2
 1962 0026 46040000 		.4byte	.LASF0
 1963 002a 03       		.byte	0x3
 1964 002b 1B       		.byte	0x1b
 1965 002c 30000000 		.4byte	0x30
 1966 0030 03       		.uleb128 0x3
 1967 0031 01       		.byte	0x1
 1968 0032 06       		.byte	0x6
 1969 0033 C7060000 		.4byte	.LASF2
 1970 0037 02       		.uleb128 0x2
 1971 0038 95050000 		.4byte	.LASF1
 1972 003c 03       		.byte	0x3
 1973 003d 1D       		.byte	0x1d
 1974 003e 42000000 		.4byte	0x42
 1975 0042 03       		.uleb128 0x3
 1976 0043 01       		.byte	0x1
 1977 0044 08       		.byte	0x8
 1978 0045 5A060000 		.4byte	.LASF3
 1979 0049 02       		.uleb128 0x2
 1980 004a E4030000 		.4byte	.LASF4
 1981 004e 03       		.byte	0x3
 1982 004f 29       		.byte	0x29
 1983 0050 54000000 		.4byte	0x54
 1984 0054 03       		.uleb128 0x3
 1985 0055 02       		.byte	0x2
 1986 0056 05       		.byte	0x5
 1987 0057 20050000 		.4byte	.LASF5
 1988 005b 02       		.uleb128 0x2
 1989 005c 78020000 		.4byte	.LASF6
 1990 0060 03       		.byte	0x3
 1991 0061 2B       		.byte	0x2b
 1992 0062 66000000 		.4byte	0x66
 1993 0066 03       		.uleb128 0x3
 1994 0067 02       		.byte	0x2
 1995 0068 07       		.byte	0x7
 1996 0069 DB060000 		.4byte	.LASF7
 1997 006d 02       		.uleb128 0x2
 1998 006e D0000000 		.4byte	.LASF8
 1999 0072 03       		.byte	0x3
 2000 0073 3F       		.byte	0x3f
 2001 0074 78000000 		.4byte	0x78
 2002 0078 03       		.uleb128 0x3
 2003 0079 04       		.byte	0x4
 2004 007a 05       		.byte	0x5
 2005 007b 55050000 		.4byte	.LASF9
 2006 007f 02       		.uleb128 0x2
 2007 0080 68060000 		.4byte	.LASF10
 2008 0084 03       		.byte	0x3
 2009 0085 41       		.byte	0x41
 2010 0086 8A000000 		.4byte	0x8a
 2011 008a 03       		.uleb128 0x3
 2012 008b 04       		.byte	0x4
 2013 008c 07       		.byte	0x7
ARM GAS  C:\Users\tmj32\AppData\Local\Temp\ccSL9kiF.s 			page 51


 2014 008d EF050000 		.4byte	.LASF11
 2015 0091 03       		.uleb128 0x3
 2016 0092 08       		.byte	0x8
 2017 0093 05       		.byte	0x5
 2018 0094 96030000 		.4byte	.LASF12
 2019 0098 03       		.uleb128 0x3
 2020 0099 08       		.byte	0x8
 2021 009a 07       		.byte	0x7
 2022 009b 3A020000 		.4byte	.LASF13
 2023 009f 04       		.uleb128 0x4
 2024 00a0 04       		.byte	0x4
 2025 00a1 05       		.byte	0x5
 2026 00a2 696E7400 		.ascii	"int\000"
 2027 00a6 03       		.uleb128 0x3
 2028 00a7 04       		.byte	0x4
 2029 00a8 07       		.byte	0x7
 2030 00a9 9E000000 		.4byte	.LASF14
 2031 00ad 02       		.uleb128 0x2
 2032 00ae EC010000 		.4byte	.LASF15
 2033 00b2 04       		.byte	0x4
 2034 00b3 14       		.byte	0x14
 2035 00b4 25000000 		.4byte	0x25
 2036 00b8 02       		.uleb128 0x2
 2037 00b9 5F030000 		.4byte	.LASF16
 2038 00bd 04       		.byte	0x4
 2039 00be 18       		.byte	0x18
 2040 00bf 37000000 		.4byte	0x37
 2041 00c3 02       		.uleb128 0x2
 2042 00c4 1D020000 		.4byte	.LASF17
 2043 00c8 04       		.byte	0x4
 2044 00c9 20       		.byte	0x20
 2045 00ca 49000000 		.4byte	0x49
 2046 00ce 02       		.uleb128 0x2
 2047 00cf 7B040000 		.4byte	.LASF18
 2048 00d3 04       		.byte	0x4
 2049 00d4 24       		.byte	0x24
 2050 00d5 5B000000 		.4byte	0x5b
 2051 00d9 02       		.uleb128 0x2
 2052 00da 2D060000 		.4byte	.LASF19
 2053 00de 04       		.byte	0x4
 2054 00df 2C       		.byte	0x2c
 2055 00e0 6D000000 		.4byte	0x6d
 2056 00e4 02       		.uleb128 0x2
 2057 00e5 E3010000 		.4byte	.LASF20
 2058 00e9 04       		.byte	0x4
 2059 00ea 30       		.byte	0x30
 2060 00eb 7F000000 		.4byte	0x7f
 2061 00ef 02       		.uleb128 0x2
 2062 00f0 7A050000 		.4byte	.LASF21
 2063 00f4 05       		.byte	0x5
 2064 00f5 3C       		.byte	0x3c
 2065 00f6 C3000000 		.4byte	0xc3
 2066 00fa 05       		.uleb128 0x5
 2067 00fb 04       		.byte	0x4
 2068 00fc 03       		.uleb128 0x3
 2069 00fd 08       		.byte	0x8
 2070 00fe 04       		.byte	0x4
ARM GAS  C:\Users\tmj32\AppData\Local\Temp\ccSL9kiF.s 			page 52


 2071 00ff 6F040000 		.4byte	.LASF22
 2072 0103 06       		.uleb128 0x6
 2073 0104 08       		.byte	0x8
 2074 0105 06       		.byte	0x6
 2075 0106 2E       		.byte	0x2e
 2076 0107 54010000 		.4byte	0x154
 2077 010b 07       		.uleb128 0x7
 2078 010c 03080000 		.4byte	.LASF23
 2079 0110 06       		.byte	0x6
 2080 0111 30       		.byte	0x30
 2081 0112 CE000000 		.4byte	0xce
 2082 0116 00       		.byte	0
 2083 0117 07       		.uleb128 0x7
 2084 0118 CE050000 		.4byte	.LASF24
 2085 011c 06       		.byte	0x6
 2086 011d 31       		.byte	0x31
 2087 011e B8000000 		.4byte	0xb8
 2088 0122 02       		.byte	0x2
 2089 0123 07       		.uleb128 0x7
 2090 0124 C3050000 		.4byte	.LASF25
 2091 0128 06       		.byte	0x6
 2092 0129 32       		.byte	0x32
 2093 012a B8000000 		.4byte	0xb8
 2094 012e 03       		.byte	0x3
 2095 012f 07       		.uleb128 0x7
 2096 0130 AB000000 		.4byte	.LASF26
 2097 0134 06       		.byte	0x6
 2098 0135 33       		.byte	0x33
 2099 0136 AD000000 		.4byte	0xad
 2100 013a 04       		.byte	0x4
 2101 013b 07       		.uleb128 0x7
 2102 013c B1000000 		.4byte	.LASF27
 2103 0140 06       		.byte	0x6
 2104 0141 34       		.byte	0x34
 2105 0142 AD000000 		.4byte	0xad
 2106 0146 05       		.byte	0x5
 2107 0147 08       		.uleb128 0x8
 2108 0148 62707000 		.ascii	"bpp\000"
 2109 014c 06       		.byte	0x6
 2110 014d 35       		.byte	0x35
 2111 014e B8000000 		.4byte	0xb8
 2112 0152 06       		.byte	0x6
 2113 0153 00       		.byte	0
 2114 0154 02       		.uleb128 0x2
 2115 0155 4B030000 		.4byte	.LASF28
 2116 0159 06       		.byte	0x6
 2117 015a 36       		.byte	0x36
 2118 015b 03010000 		.4byte	0x103
 2119 015f 09       		.uleb128 0x9
 2120 0160 07030000 		.4byte	.LASF59
 2121 0164 10       		.byte	0x10
 2122 0165 06       		.byte	0x6
 2123 0166 44       		.byte	0x44
 2124 0167 B7010000 		.4byte	0x1b7
 2125 016b 07       		.uleb128 0x7
 2126 016c B7000000 		.4byte	.LASF29
 2127 0170 06       		.byte	0x6
ARM GAS  C:\Users\tmj32\AppData\Local\Temp\ccSL9kiF.s 			page 53


 2128 0171 47       		.byte	0x47
 2129 0172 ED010000 		.4byte	0x1ed
 2130 0176 00       		.byte	0
 2131 0177 07       		.uleb128 0x7
 2132 0178 96060000 		.4byte	.LASF30
 2133 017c 06       		.byte	0x6
 2134 017d 4A       		.byte	0x4a
 2135 017e 12020000 		.4byte	0x212
 2136 0182 04       		.byte	0x4
 2137 0183 07       		.uleb128 0x7
 2138 0184 2C030000 		.4byte	.LASF31
 2139 0188 06       		.byte	0x6
 2140 0189 4D       		.byte	0x4d
 2141 018a B8000000 		.4byte	0xb8
 2142 018e 08       		.byte	0x8
 2143 018f 07       		.uleb128 0x7
 2144 0190 35060000 		.4byte	.LASF32
 2145 0194 06       		.byte	0x6
 2146 0195 4E       		.byte	0x4e
 2147 0196 AD000000 		.4byte	0xad
 2148 019a 09       		.byte	0x9
 2149 019b 0A       		.uleb128 0xa
 2150 019c 35040000 		.4byte	.LASF69
 2151 01a0 06       		.byte	0x6
 2152 01a1 4F       		.byte	0x4f
 2153 01a2 B8000000 		.4byte	0xb8
 2154 01a6 01       		.byte	0x1
 2155 01a7 02       		.byte	0x2
 2156 01a8 06       		.byte	0x6
 2157 01a9 0A       		.byte	0xa
 2158 01aa 08       		.uleb128 0x8
 2159 01ab 64736300 		.ascii	"dsc\000"
 2160 01af 06       		.byte	0x6
 2161 01b0 50       		.byte	0x50
 2162 01b1 FA000000 		.4byte	0xfa
 2163 01b5 0C       		.byte	0xc
 2164 01b6 00       		.byte	0
 2165 01b7 0B       		.uleb128 0xb
 2166 01b8 D5010000 		.4byte	0x1d5
 2167 01bc D5010000 		.4byte	0x1d5
 2168 01c0 0C       		.uleb128 0xc
 2169 01c1 DC010000 		.4byte	0x1dc
 2170 01c5 0C       		.uleb128 0xc
 2171 01c6 E7010000 		.4byte	0x1e7
 2172 01ca 0C       		.uleb128 0xc
 2173 01cb E4000000 		.4byte	0xe4
 2174 01cf 0C       		.uleb128 0xc
 2175 01d0 E4000000 		.4byte	0xe4
 2176 01d4 00       		.byte	0
 2177 01d5 03       		.uleb128 0x3
 2178 01d6 01       		.byte	0x1
 2179 01d7 02       		.byte	0x2
 2180 01d8 EB020000 		.4byte	.LASF33
 2181 01dc 0D       		.uleb128 0xd
 2182 01dd 04       		.byte	0x4
 2183 01de E2010000 		.4byte	0x1e2
 2184 01e2 0E       		.uleb128 0xe
ARM GAS  C:\Users\tmj32\AppData\Local\Temp\ccSL9kiF.s 			page 54


 2185 01e3 5F010000 		.4byte	0x15f
 2186 01e7 0D       		.uleb128 0xd
 2187 01e8 04       		.byte	0x4
 2188 01e9 54010000 		.4byte	0x154
 2189 01ed 0D       		.uleb128 0xd
 2190 01ee 04       		.byte	0x4
 2191 01ef B7010000 		.4byte	0x1b7
 2192 01f3 0B       		.uleb128 0xb
 2193 01f4 07020000 		.4byte	0x207
 2194 01f8 07020000 		.4byte	0x207
 2195 01fc 0C       		.uleb128 0xc
 2196 01fd DC010000 		.4byte	0x1dc
 2197 0201 0C       		.uleb128 0xc
 2198 0202 E4000000 		.4byte	0xe4
 2199 0206 00       		.byte	0
 2200 0207 0D       		.uleb128 0xd
 2201 0208 04       		.byte	0x4
 2202 0209 0D020000 		.4byte	0x20d
 2203 020d 0E       		.uleb128 0xe
 2204 020e B8000000 		.4byte	0xb8
 2205 0212 0D       		.uleb128 0xd
 2206 0213 04       		.byte	0x4
 2207 0214 F3010000 		.4byte	0x1f3
 2208 0218 02       		.uleb128 0x2
 2209 0219 EC040000 		.4byte	.LASF34
 2210 021d 06       		.byte	0x6
 2211 021e 56       		.byte	0x56
 2212 021f 5F010000 		.4byte	0x15f
 2213 0223 0F       		.uleb128 0xf
 2214 0224 01       		.byte	0x1
 2215 0225 42000000 		.4byte	0x42
 2216 0229 01       		.byte	0x1
 2217 022a 3E       		.byte	0x3e
 2218 022b 7E020000 		.4byte	0x27e
 2219 022f 10       		.uleb128 0x10
 2220 0230 6A020000 		.4byte	.LASF35
 2221 0234 00       		.byte	0
 2222 0235 10       		.uleb128 0x10
 2223 0236 85000000 		.4byte	.LASF36
 2224 023a 00       		.byte	0
 2225 023b 10       		.uleb128 0x10
 2226 023c 8C030000 		.4byte	.LASF37
 2227 0240 19       		.byte	0x19
 2228 0241 10       		.uleb128 0x10
 2229 0242 06040000 		.4byte	.LASF38
 2230 0246 33       		.byte	0x33
 2231 0247 10       		.uleb128 0x10
 2232 0248 65040000 		.4byte	.LASF39
 2233 024c 4C       		.byte	0x4c
 2234 024d 10       		.uleb128 0x10
 2235 024e 5E050000 		.4byte	.LASF40
 2236 0252 66       		.byte	0x66
 2237 0253 10       		.uleb128 0x10
 2238 0254 9F050000 		.4byte	.LASF41
 2239 0258 7F       		.byte	0x7f
 2240 0259 10       		.uleb128 0x10
 2241 025a 4B060000 		.4byte	.LASF42
ARM GAS  C:\Users\tmj32\AppData\Local\Temp\ccSL9kiF.s 			page 55


 2242 025e 99       		.byte	0x99
 2243 025f 10       		.uleb128 0x10
 2244 0260 B6060000 		.4byte	.LASF43
 2245 0264 B2       		.byte	0xb2
 2246 0265 10       		.uleb128 0x10
 2247 0266 FB060000 		.4byte	.LASF44
 2248 026a CC       		.byte	0xcc
 2249 026b 10       		.uleb128 0x10
 2250 026c 42000000 		.4byte	.LASF45
 2251 0270 E5       		.byte	0xe5
 2252 0271 10       		.uleb128 0x10
 2253 0272 8A050000 		.4byte	.LASF46
 2254 0276 FF       		.byte	0xff
 2255 0277 10       		.uleb128 0x10
 2256 0278 21000000 		.4byte	.LASF47
 2257 027c FF       		.byte	0xff
 2258 027d 00       		.byte	0
 2259 027e 06       		.uleb128 0x6
 2260 027f 04       		.byte	0x4
 2261 0280 01       		.byte	0x1
 2262 0281 F3       		.byte	0xf3
 2263 0282 B7020000 		.4byte	0x2b7
 2264 0286 07       		.uleb128 0x7
 2265 0287 75050000 		.4byte	.LASF48
 2266 028b 01       		.byte	0x1
 2267 028c F5       		.byte	0xf5
 2268 028d B8000000 		.4byte	0xb8
 2269 0291 00       		.byte	0
 2270 0292 07       		.uleb128 0x7
 2271 0293 5F040000 		.4byte	.LASF49
 2272 0297 01       		.byte	0x1
 2273 0298 F6       		.byte	0xf6
 2274 0299 B8000000 		.4byte	0xb8
 2275 029d 01       		.byte	0x1
 2276 029e 08       		.uleb128 0x8
 2277 029f 72656400 		.ascii	"red\000"
 2278 02a3 01       		.byte	0x1
 2279 02a4 F7       		.byte	0xf7
 2280 02a5 B8000000 		.4byte	0xb8
 2281 02a9 02       		.byte	0x2
 2282 02aa 07       		.uleb128 0x7
 2283 02ab 27060000 		.4byte	.LASF50
 2284 02af 01       		.byte	0x1
 2285 02b0 F8       		.byte	0xf8
 2286 02b1 B8000000 		.4byte	0xb8
 2287 02b5 03       		.byte	0x3
 2288 02b6 00       		.byte	0
 2289 02b7 11       		.uleb128 0x11
 2290 02b8 04       		.byte	0x4
 2291 02b9 01       		.byte	0x1
 2292 02ba F1       		.byte	0xf1
 2293 02bb D5020000 		.4byte	0x2d5
 2294 02bf 12       		.uleb128 0x12
 2295 02c0 636800   		.ascii	"ch\000"
 2296 02c3 01       		.byte	0x1
 2297 02c4 F9       		.byte	0xf9
 2298 02c5 7E020000 		.4byte	0x27e
ARM GAS  C:\Users\tmj32\AppData\Local\Temp\ccSL9kiF.s 			page 56


 2299 02c9 13       		.uleb128 0x13
 2300 02ca 3D000000 		.4byte	.LASF51
 2301 02ce 01       		.byte	0x1
 2302 02cf FA       		.byte	0xfa
 2303 02d0 E4000000 		.4byte	0xe4
 2304 02d4 00       		.byte	0
 2305 02d5 02       		.uleb128 0x2
 2306 02d6 F3010000 		.4byte	.LASF52
 2307 02da 01       		.byte	0x1
 2308 02db FB       		.byte	0xfb
 2309 02dc B7020000 		.4byte	0x2b7
 2310 02e0 14       		.uleb128 0x14
 2311 02e1 3B040000 		.4byte	.LASF53
 2312 02e5 01       		.byte	0x1
 2313 02e6 0801     		.2byte	0x108
 2314 02e8 D5020000 		.4byte	0x2d5
 2315 02ec 14       		.uleb128 0x14
 2316 02ed 30050000 		.4byte	.LASF54
 2317 02f1 01       		.byte	0x1
 2318 02f2 0D01     		.2byte	0x10d
 2319 02f4 B8000000 		.4byte	0xb8
 2320 02f8 03       		.uleb128 0x3
 2321 02f9 04       		.byte	0x4
 2322 02fa 07       		.byte	0x7
 2323 02fb E3040000 		.4byte	.LASF55
 2324 02ff 03       		.uleb128 0x3
 2325 0300 01       		.byte	0x1
 2326 0301 08       		.byte	0x8
 2327 0302 38030000 		.4byte	.LASF56
 2328 0306 02       		.uleb128 0x2
 2329 0307 E0070000 		.4byte	.LASF57
 2330 030b 07       		.byte	0x7
 2331 030c 2B       		.byte	0x2b
 2332 030d EF000000 		.4byte	0xef
 2333 0311 02       		.uleb128 0x2
 2334 0312 03010000 		.4byte	.LASF58
 2335 0316 07       		.byte	0x7
 2336 0317 37       		.byte	0x37
 2337 0318 1C030000 		.4byte	0x31c
 2338 031c 0D       		.uleb128 0xd
 2339 031d 04       		.byte	0x4
 2340 031e 22030000 		.4byte	0x322
 2341 0322 15       		.uleb128 0x15
 2342 0323 32030000 		.4byte	0x332
 2343 0327 0C       		.uleb128 0xc
 2344 0328 FA000000 		.4byte	0xfa
 2345 032c 0C       		.uleb128 0xc
 2346 032d 06030000 		.4byte	0x306
 2347 0331 00       		.byte	0
 2348 0332 0D       		.uleb128 0xd
 2349 0333 04       		.byte	0x4
 2350 0334 38030000 		.4byte	0x338
 2351 0338 09       		.uleb128 0x9
 2352 0339 35010000 		.4byte	.LASF60
 2353 033d 24       		.byte	0x24
 2354 033e 07       		.byte	0x7
 2355 033f 44       		.byte	0x44
ARM GAS  C:\Users\tmj32\AppData\Local\Temp\ccSL9kiF.s 			page 57


 2356 0340 F9030000 		.4byte	0x3f9
 2357 0344 08       		.uleb128 0x8
 2358 0345 76617200 		.ascii	"var\000"
 2359 0349 07       		.byte	0x7
 2360 034a 46       		.byte	0x46
 2361 034b FA000000 		.4byte	0xfa
 2362 034f 00       		.byte	0
 2363 0350 07       		.uleb128 0x7
 2364 0351 19000000 		.4byte	.LASF61
 2365 0355 07       		.byte	0x7
 2366 0356 47       		.byte	0x47
 2367 0357 11030000 		.4byte	0x311
 2368 035b 04       		.byte	0x4
 2369 035c 07       		.uleb128 0x7
 2370 035d FE030000 		.4byte	.LASF62
 2371 0361 07       		.byte	0x7
 2372 0362 48       		.byte	0x48
 2373 0363 F9030000 		.4byte	0x3f9
 2374 0367 08       		.byte	0x8
 2375 0368 07       		.uleb128 0x7
 2376 0369 DA000000 		.4byte	.LASF63
 2377 036d 07       		.byte	0x7
 2378 036e 49       		.byte	0x49
 2379 036f 24040000 		.4byte	0x424
 2380 0373 0C       		.byte	0xc
 2381 0374 07       		.uleb128 0x7
 2382 0375 A9050000 		.4byte	.LASF64
 2383 0379 07       		.byte	0x7
 2384 037a 4A       		.byte	0x4a
 2385 037b D9000000 		.4byte	0xd9
 2386 037f 10       		.byte	0x10
 2387 0380 08       		.uleb128 0x8
 2388 0381 656E6400 		.ascii	"end\000"
 2389 0385 07       		.byte	0x7
 2390 0386 4B       		.byte	0x4b
 2391 0387 D9000000 		.4byte	0xd9
 2392 038b 14       		.byte	0x14
 2393 038c 07       		.uleb128 0x7
 2394 038d 9D020000 		.4byte	.LASF65
 2395 0391 07       		.byte	0x7
 2396 0392 4C       		.byte	0x4c
 2397 0393 CE000000 		.4byte	0xce
 2398 0397 18       		.byte	0x18
 2399 0398 07       		.uleb128 0x7
 2400 0399 E6050000 		.4byte	.LASF66
 2401 039d 07       		.byte	0x7
 2402 039e 4D       		.byte	0x4d
 2403 039f C3000000 		.4byte	0xc3
 2404 03a3 1A       		.byte	0x1a
 2405 03a4 07       		.uleb128 0x7
 2406 03a5 2E000000 		.4byte	.LASF67
 2407 03a9 07       		.byte	0x7
 2408 03aa 4E       		.byte	0x4e
 2409 03ab CE000000 		.4byte	0xce
 2410 03af 1C       		.byte	0x1c
 2411 03b0 07       		.uleb128 0x7
 2412 03b1 CB040000 		.4byte	.LASF68
ARM GAS  C:\Users\tmj32\AppData\Local\Temp\ccSL9kiF.s 			page 58


 2413 03b5 07       		.byte	0x7
 2414 03b6 4F       		.byte	0x4f
 2415 03b7 CE000000 		.4byte	0xce
 2416 03bb 1E       		.byte	0x1e
 2417 03bc 0A       		.uleb128 0xa
 2418 03bd B7030000 		.4byte	.LASF70
 2419 03c1 07       		.byte	0x7
 2420 03c2 54       		.byte	0x54
 2421 03c3 B8000000 		.4byte	0xb8
 2422 03c7 01       		.byte	0x1
 2423 03c8 01       		.byte	0x1
 2424 03c9 07       		.byte	0x7
 2425 03ca 20       		.byte	0x20
 2426 03cb 0A       		.uleb128 0xa
 2427 03cc 44030000 		.4byte	.LASF71
 2428 03d0 07       		.byte	0x7
 2429 03d1 55       		.byte	0x55
 2430 03d2 B8000000 		.4byte	0xb8
 2431 03d6 01       		.byte	0x1
 2432 03d7 01       		.byte	0x1
 2433 03d8 06       		.byte	0x6
 2434 03d9 20       		.byte	0x20
 2435 03da 0A       		.uleb128 0xa
 2436 03db 39050000 		.4byte	.LASF72
 2437 03df 07       		.byte	0x7
 2438 03e0 57       		.byte	0x57
 2439 03e1 B8000000 		.4byte	0xb8
 2440 03e5 01       		.byte	0x1
 2441 03e6 01       		.byte	0x1
 2442 03e7 05       		.byte	0x5
 2443 03e8 20       		.byte	0x20
 2444 03e9 0A       		.uleb128 0xa
 2445 03ea D3060000 		.4byte	.LASF73
 2446 03ee 07       		.byte	0x7
 2447 03ef 58       		.byte	0x58
 2448 03f0 E4000000 		.4byte	0xe4
 2449 03f4 04       		.byte	0x4
 2450 03f5 01       		.byte	0x1
 2451 03f6 1C       		.byte	0x1c
 2452 03f7 20       		.byte	0x20
 2453 03f8 00       		.byte	0
 2454 03f9 02       		.uleb128 0x2
 2455 03fa 0E050000 		.4byte	.LASF74
 2456 03fe 07       		.byte	0x7
 2457 03ff 3E       		.byte	0x3e
 2458 0400 04040000 		.4byte	0x404
 2459 0404 0D       		.uleb128 0xd
 2460 0405 04       		.byte	0x4
 2461 0406 0A040000 		.4byte	0x40a
 2462 040a 0B       		.uleb128 0xb
 2463 040b 06030000 		.4byte	0x306
 2464 040f 19040000 		.4byte	0x419
 2465 0413 0C       		.uleb128 0xc
 2466 0414 19040000 		.4byte	0x419
 2467 0418 00       		.byte	0
 2468 0419 0D       		.uleb128 0xd
 2469 041a 04       		.byte	0x4
ARM GAS  C:\Users\tmj32\AppData\Local\Temp\ccSL9kiF.s 			page 59


 2470 041b 1F040000 		.4byte	0x41f
 2471 041f 0E       		.uleb128 0xe
 2472 0420 38030000 		.4byte	0x338
 2473 0424 02       		.uleb128 0x2
 2474 0425 BC020000 		.4byte	.LASF75
 2475 0429 07       		.byte	0x7
 2476 042a 41       		.byte	0x41
 2477 042b 2F040000 		.4byte	0x42f
 2478 042f 0D       		.uleb128 0xd
 2479 0430 04       		.byte	0x4
 2480 0431 35040000 		.4byte	0x435
 2481 0435 15       		.uleb128 0x15
 2482 0436 40040000 		.4byte	0x440
 2483 043a 0C       		.uleb128 0xc
 2484 043b 32030000 		.4byte	0x332
 2485 043f 00       		.byte	0
 2486 0440 02       		.uleb128 0x2
 2487 0441 22030000 		.4byte	.LASF76
 2488 0445 07       		.byte	0x7
 2489 0446 59       		.byte	0x59
 2490 0447 38030000 		.4byte	0x338
 2491 044b 0F       		.uleb128 0xf
 2492 044c 01       		.byte	0x1
 2493 044d 42000000 		.4byte	0x42
 2494 0451 08       		.byte	0x8
 2495 0452 23       		.byte	0x23
 2496 0453 82040000 		.4byte	0x482
 2497 0457 10       		.uleb128 0x10
 2498 0458 A7060000 		.4byte	.LASF77
 2499 045c 00       		.byte	0
 2500 045d 10       		.uleb128 0x10
 2501 045e 16040000 		.4byte	.LASF78
 2502 0462 01       		.byte	0x1
 2503 0463 10       		.uleb128 0x10
 2504 0464 DD020000 		.4byte	.LASF79
 2505 0468 02       		.byte	0x2
 2506 0469 10       		.uleb128 0x10
 2507 046a 46050000 		.4byte	.LASF80
 2508 046e 04       		.byte	0x4
 2509 046f 10       		.uleb128 0x10
 2510 0470 8E000000 		.4byte	.LASF81
 2511 0474 08       		.byte	0x8
 2512 0475 10       		.uleb128 0x10
 2513 0476 C0030000 		.4byte	.LASF82
 2514 047a 0F       		.byte	0xf
 2515 047b 10       		.uleb128 0x10
 2516 047c 8A020000 		.4byte	.LASF83
 2517 0480 10       		.byte	0x10
 2518 0481 00       		.byte	0
 2519 0482 02       		.uleb128 0x2
 2520 0483 CF070000 		.4byte	.LASF84
 2521 0487 08       		.byte	0x8
 2522 0488 2C       		.byte	0x2c
 2523 0489 B8000000 		.4byte	0xb8
 2524 048d 0F       		.uleb128 0xf
 2525 048e 01       		.byte	0x1
 2526 048f 42000000 		.4byte	0x42
ARM GAS  C:\Users\tmj32\AppData\Local\Temp\ccSL9kiF.s 			page 60


 2527 0493 08       		.byte	0x8
 2528 0494 2F       		.byte	0x2f
 2529 0495 A6040000 		.4byte	0x4a6
 2530 0499 10       		.uleb128 0x10
 2531 049a E3000000 		.4byte	.LASF85
 2532 049e 00       		.byte	0
 2533 049f 10       		.uleb128 0x10
 2534 04a0 84040000 		.4byte	.LASF86
 2535 04a4 01       		.byte	0x1
 2536 04a5 00       		.byte	0
 2537 04a6 02       		.uleb128 0x2
 2538 04a7 67030000 		.4byte	.LASF87
 2539 04ab 08       		.byte	0x8
 2540 04ac 33       		.byte	0x33
 2541 04ad B8000000 		.4byte	0xb8
 2542 04b1 06       		.uleb128 0x6
 2543 04b2 08       		.byte	0x8
 2544 04b3 08       		.byte	0x8
 2545 04b4 48       		.byte	0x48
 2546 04b5 EA040000 		.4byte	0x4ea
 2547 04b9 07       		.uleb128 0x7
 2548 04ba B6020000 		.4byte	.LASF88
 2549 04be 08       		.byte	0x8
 2550 04bf 4A       		.byte	0x4a
 2551 04c0 E0020000 		.4byte	0x2e0
 2552 04c4 00       		.byte	0
 2553 04c5 07       		.uleb128 0x7
 2554 04c6 D7020000 		.4byte	.LASF89
 2555 04ca 08       		.byte	0x8
 2556 04cb 4B       		.byte	0x4b
 2557 04cc EF000000 		.4byte	0xef
 2558 04d0 04       		.byte	0x4
 2559 04d1 07       		.uleb128 0x7
 2560 04d2 51020000 		.4byte	.LASF90
 2561 04d6 08       		.byte	0x8
 2562 04d7 4C       		.byte	0x4c
 2563 04d8 82040000 		.4byte	0x482
 2564 04dc 06       		.byte	0x6
 2565 04dd 08       		.uleb128 0x8
 2566 04de 6F706100 		.ascii	"opa\000"
 2567 04e2 08       		.byte	0x8
 2568 04e3 4D       		.byte	0x4d
 2569 04e4 EC020000 		.4byte	0x2ec
 2570 04e8 07       		.byte	0x7
 2571 04e9 00       		.byte	0
 2572 04ea 06       		.uleb128 0x6
 2573 04eb 08       		.byte	0x8
 2574 04ec 08       		.byte	0x8
 2575 04ed 51       		.byte	0x51
 2576 04ee 17050000 		.4byte	0x517
 2577 04f2 07       		.uleb128 0x7
 2578 04f3 B6020000 		.4byte	.LASF88
 2579 04f7 08       		.byte	0x8
 2580 04f8 53       		.byte	0x53
 2581 04f9 E0020000 		.4byte	0x2e0
 2582 04fd 00       		.byte	0
 2583 04fe 07       		.uleb128 0x7
ARM GAS  C:\Users\tmj32\AppData\Local\Temp\ccSL9kiF.s 			page 61


 2584 04ff D7020000 		.4byte	.LASF89
 2585 0503 08       		.byte	0x8
 2586 0504 54       		.byte	0x54
 2587 0505 EF000000 		.4byte	0xef
 2588 0509 04       		.byte	0x4
 2589 050a 07       		.uleb128 0x7
 2590 050b 55060000 		.4byte	.LASF91
 2591 050f 08       		.byte	0x8
 2592 0510 55       		.byte	0x55
 2593 0511 A6040000 		.4byte	0x4a6
 2594 0515 06       		.byte	0x6
 2595 0516 00       		.byte	0
 2596 0517 06       		.uleb128 0x6
 2597 0518 0A       		.byte	0xa
 2598 0519 08       		.byte	0x8
 2599 051a 58       		.byte	0x58
 2600 051b 5C050000 		.4byte	0x55c
 2601 051f 08       		.uleb128 0x8
 2602 0520 746F7000 		.ascii	"top\000"
 2603 0524 08       		.byte	0x8
 2604 0525 5A       		.byte	0x5a
 2605 0526 EF000000 		.4byte	0xef
 2606 052a 00       		.byte	0
 2607 052b 07       		.uleb128 0x7
 2608 052c 3D030000 		.4byte	.LASF92
 2609 0530 08       		.byte	0x8
 2610 0531 5B       		.byte	0x5b
 2611 0532 EF000000 		.4byte	0xef
 2612 0536 02       		.byte	0x2
 2613 0537 07       		.uleb128 0x7
 2614 0538 85050000 		.4byte	.LASF93
 2615 053c 08       		.byte	0x8
 2616 053d 5C       		.byte	0x5c
 2617 053e EF000000 		.4byte	0xef
 2618 0542 04       		.byte	0x4
 2619 0543 07       		.uleb128 0x7
 2620 0544 86030000 		.4byte	.LASF94
 2621 0548 08       		.byte	0x8
 2622 0549 5D       		.byte	0x5d
 2623 054a EF000000 		.4byte	0xef
 2624 054e 06       		.byte	0x6
 2625 054f 07       		.uleb128 0x7
 2626 0550 DD010000 		.4byte	.LASF95
 2627 0554 08       		.byte	0x8
 2628 0555 5E       		.byte	0x5e
 2629 0556 EF000000 		.4byte	0xef
 2630 055a 08       		.byte	0x8
 2631 055b 00       		.byte	0
 2632 055c 06       		.uleb128 0x6
 2633 055d 28       		.byte	0x28
 2634 055e 08       		.byte	0x8
 2635 055f 41       		.byte	0x41
 2636 0560 B9050000 		.4byte	0x5b9
 2637 0564 07       		.uleb128 0x7
 2638 0565 03050000 		.4byte	.LASF96
 2639 0569 08       		.byte	0x8
 2640 056a 43       		.byte	0x43
ARM GAS  C:\Users\tmj32\AppData\Local\Temp\ccSL9kiF.s 			page 62


 2641 056b E0020000 		.4byte	0x2e0
 2642 056f 00       		.byte	0
 2643 0570 07       		.uleb128 0x7
 2644 0571 D8040000 		.4byte	.LASF97
 2645 0575 08       		.byte	0x8
 2646 0576 44       		.byte	0x44
 2647 0577 E0020000 		.4byte	0x2e0
 2648 057b 04       		.byte	0x4
 2649 057c 07       		.uleb128 0x7
 2650 057d 3F060000 		.4byte	.LASF98
 2651 0581 08       		.byte	0x8
 2652 0582 45       		.byte	0x45
 2653 0583 EF000000 		.4byte	0xef
 2654 0587 08       		.byte	0x8
 2655 0588 08       		.uleb128 0x8
 2656 0589 6F706100 		.ascii	"opa\000"
 2657 058d 08       		.byte	0x8
 2658 058e 46       		.byte	0x46
 2659 058f EC020000 		.4byte	0x2ec
 2660 0593 0A       		.byte	0xa
 2661 0594 07       		.uleb128 0x7
 2662 0595 83020000 		.4byte	.LASF99
 2663 0599 08       		.byte	0x8
 2664 059a 4E       		.byte	0x4e
 2665 059b B1040000 		.4byte	0x4b1
 2666 059f 0C       		.byte	0xc
 2667 05a0 07       		.uleb128 0x7
 2668 05a1 C0060000 		.4byte	.LASF100
 2669 05a5 08       		.byte	0x8
 2670 05a6 56       		.byte	0x56
 2671 05a7 EA040000 		.4byte	0x4ea
 2672 05ab 14       		.byte	0x14
 2673 05ac 07       		.uleb128 0x7
 2674 05ad AF030000 		.4byte	.LASF101
 2675 05b1 08       		.byte	0x8
 2676 05b2 5F       		.byte	0x5f
 2677 05b3 17050000 		.4byte	0x517
 2678 05b7 1C       		.byte	0x1c
 2679 05b8 00       		.byte	0
 2680 05b9 06       		.uleb128 0x6
 2681 05ba 14       		.byte	0x14
 2682 05bb 08       		.byte	0x8
 2683 05bc 63       		.byte	0x63
 2684 05bd 0A060000 		.4byte	0x60a
 2685 05c1 07       		.uleb128 0x7
 2686 05c2 B6020000 		.4byte	.LASF88
 2687 05c6 08       		.byte	0x8
 2688 05c7 65       		.byte	0x65
 2689 05c8 E0020000 		.4byte	0x2e0
 2690 05cc 00       		.byte	0
 2691 05cd 07       		.uleb128 0x7
 2692 05ce 00020000 		.4byte	.LASF102
 2693 05d2 08       		.byte	0x8
 2694 05d3 66       		.byte	0x66
 2695 05d4 E0020000 		.4byte	0x2e0
 2696 05d8 04       		.byte	0x4
 2697 05d9 07       		.uleb128 0x7
ARM GAS  C:\Users\tmj32\AppData\Local\Temp\ccSL9kiF.s 			page 63


 2698 05da C9050000 		.4byte	.LASF103
 2699 05de 08       		.byte	0x8
 2700 05df 67       		.byte	0x67
 2701 05e0 0A060000 		.4byte	0x60a
 2702 05e4 08       		.byte	0x8
 2703 05e5 07       		.uleb128 0x7
 2704 05e6 F6040000 		.4byte	.LASF104
 2705 05ea 08       		.byte	0x8
 2706 05eb 68       		.byte	0x68
 2707 05ec EF000000 		.4byte	0xef
 2708 05f0 0C       		.byte	0xc
 2709 05f1 07       		.uleb128 0x7
 2710 05f2 17030000 		.4byte	.LASF105
 2711 05f6 08       		.byte	0x8
 2712 05f7 69       		.byte	0x69
 2713 05f8 EF000000 		.4byte	0xef
 2714 05fc 0E       		.byte	0xe
 2715 05fd 08       		.uleb128 0x8
 2716 05fe 6F706100 		.ascii	"opa\000"
 2717 0602 08       		.byte	0x8
 2718 0603 6A       		.byte	0x6a
 2719 0604 EC020000 		.4byte	0x2ec
 2720 0608 10       		.byte	0x10
 2721 0609 00       		.byte	0
 2722 060a 0D       		.uleb128 0xd
 2723 060b 04       		.byte	0x4
 2724 060c 10060000 		.4byte	0x610
 2725 0610 0E       		.uleb128 0xe
 2726 0611 18020000 		.4byte	0x218
 2727 0615 06       		.uleb128 0x6
 2728 0616 08       		.byte	0x8
 2729 0617 08       		.byte	0x8
 2730 0618 6E       		.byte	0x6e
 2731 0619 42060000 		.4byte	0x642
 2732 061d 07       		.uleb128 0x7
 2733 061e B6020000 		.4byte	.LASF88
 2734 0622 08       		.byte	0x8
 2735 0623 70       		.byte	0x70
 2736 0624 E0020000 		.4byte	0x2e0
 2737 0628 00       		.byte	0
 2738 0629 07       		.uleb128 0x7
 2739 062a 1F060000 		.4byte	.LASF106
 2740 062e 08       		.byte	0x8
 2741 062f 71       		.byte	0x71
 2742 0630 EC020000 		.4byte	0x2ec
 2743 0634 04       		.byte	0x4
 2744 0635 08       		.uleb128 0x8
 2745 0636 6F706100 		.ascii	"opa\000"
 2746 063a 08       		.byte	0x8
 2747 063b 72       		.byte	0x72
 2748 063c EC020000 		.4byte	0x2ec
 2749 0640 05       		.byte	0x5
 2750 0641 00       		.byte	0
 2751 0642 06       		.uleb128 0x6
 2752 0643 08       		.byte	0x8
 2753 0644 08       		.byte	0x8
 2754 0645 76       		.byte	0x76
ARM GAS  C:\Users\tmj32\AppData\Local\Temp\ccSL9kiF.s 			page 64


 2755 0646 7E060000 		.4byte	0x67e
 2756 064a 07       		.uleb128 0x7
 2757 064b B6020000 		.4byte	.LASF88
 2758 064f 08       		.byte	0x8
 2759 0650 78       		.byte	0x78
 2760 0651 E0020000 		.4byte	0x2e0
 2761 0655 00       		.byte	0
 2762 0656 07       		.uleb128 0x7
 2763 0657 D7020000 		.4byte	.LASF89
 2764 065b 08       		.byte	0x8
 2765 065c 79       		.byte	0x79
 2766 065d EF000000 		.4byte	0xef
 2767 0661 04       		.byte	0x4
 2768 0662 08       		.uleb128 0x8
 2769 0663 6F706100 		.ascii	"opa\000"
 2770 0667 08       		.byte	0x8
 2771 0668 7A       		.byte	0x7a
 2772 0669 EC020000 		.4byte	0x2ec
 2773 066d 06       		.byte	0x6
 2774 066e 0A       		.uleb128 0xa
 2775 066f CF020000 		.4byte	.LASF107
 2776 0673 08       		.byte	0x8
 2777 0674 7B       		.byte	0x7b
 2778 0675 B8000000 		.4byte	0xb8
 2779 0679 01       		.byte	0x1
 2780 067a 01       		.byte	0x1
 2781 067b 07       		.byte	0x7
 2782 067c 07       		.byte	0x7
 2783 067d 00       		.byte	0
 2784 067e 06       		.uleb128 0x6
 2785 067f 50       		.byte	0x50
 2786 0680 08       		.byte	0x8
 2787 0681 3C       		.byte	0x3c
 2788 0682 C6060000 		.4byte	0x6c6
 2789 0686 0A       		.uleb128 0xa
 2790 0687 A4030000 		.4byte	.LASF108
 2791 068b 08       		.byte	0x8
 2792 068c 3E       		.byte	0x3e
 2793 068d B8000000 		.4byte	0xb8
 2794 0691 01       		.byte	0x1
 2795 0692 01       		.byte	0x1
 2796 0693 07       		.byte	0x7
 2797 0694 00       		.byte	0
 2798 0695 07       		.uleb128 0x7
 2799 0696 46060000 		.4byte	.LASF109
 2800 069a 08       		.byte	0x8
 2801 069b 60       		.byte	0x60
 2802 069c 5C050000 		.4byte	0x55c
 2803 06a0 04       		.byte	0x4
 2804 06a1 07       		.uleb128 0x7
 2805 06a2 AA030000 		.4byte	.LASF110
 2806 06a6 08       		.byte	0x8
 2807 06a7 6B       		.byte	0x6b
 2808 06a8 B9050000 		.4byte	0x5b9
 2809 06ac 2C       		.byte	0x2c
 2810 06ad 07       		.uleb128 0x7
 2811 06ae 10040000 		.4byte	.LASF111
ARM GAS  C:\Users\tmj32\AppData\Local\Temp\ccSL9kiF.s 			page 65


 2812 06b2 08       		.byte	0x8
 2813 06b3 73       		.byte	0x73
 2814 06b4 15060000 		.4byte	0x615
 2815 06b8 40       		.byte	0x40
 2816 06b9 07       		.uleb128 0x7
 2817 06ba 73060000 		.4byte	.LASF112
 2818 06be 08       		.byte	0x8
 2819 06bf 7C       		.byte	0x7c
 2820 06c0 42060000 		.4byte	0x642
 2821 06c4 48       		.byte	0x48
 2822 06c5 00       		.byte	0
 2823 06c6 02       		.uleb128 0x2
 2824 06c7 C5000000 		.4byte	.LASF113
 2825 06cb 08       		.byte	0x8
 2826 06cc 84       		.byte	0x84
 2827 06cd 7E060000 		.4byte	0x67e
 2828 06d1 06       		.uleb128 0x6
 2829 06d2 A8       		.byte	0xa8
 2830 06d3 08       		.byte	0x8
 2831 06d4 88       		.byte	0x88
 2832 06d5 0A070000 		.4byte	0x70a
 2833 06d9 07       		.uleb128 0x7
 2834 06da 79000000 		.4byte	.LASF114
 2835 06de 08       		.byte	0x8
 2836 06df 8A       		.byte	0x8a
 2837 06e0 C6060000 		.4byte	0x6c6
 2838 06e4 00       		.byte	0
 2839 06e5 07       		.uleb128 0x7
 2840 06e6 05070000 		.4byte	.LASF115
 2841 06ea 08       		.byte	0x8
 2842 06eb 8C       		.byte	0x8c
 2843 06ec C6060000 		.4byte	0x6c6
 2844 06f0 50       		.byte	0x50
 2845 06f1 07       		.uleb128 0x7
 2846 06f2 4C000000 		.4byte	.LASF116
 2847 06f6 08       		.byte	0x8
 2848 06f7 8D       		.byte	0x8d
 2849 06f8 0A070000 		.4byte	0x70a
 2850 06fc A0       		.byte	0xa0
 2851 06fd 07       		.uleb128 0x7
 2852 06fe DA000000 		.4byte	.LASF63
 2853 0702 08       		.byte	0x8
 2854 0703 8E       		.byte	0x8e
 2855 0704 24040000 		.4byte	0x424
 2856 0708 A4       		.byte	0xa4
 2857 0709 00       		.byte	0
 2858 070a 0D       		.uleb128 0xd
 2859 070b 04       		.byte	0x4
 2860 070c C6060000 		.4byte	0x6c6
 2861 0710 02       		.uleb128 0x2
 2862 0711 56020000 		.4byte	.LASF117
 2863 0715 08       		.byte	0x8
 2864 0716 8F       		.byte	0x8f
 2865 0717 D1060000 		.4byte	0x6d1
 2866 071b 0D       		.uleb128 0xd
 2867 071c 04       		.byte	0x4
 2868 071d 21070000 		.4byte	0x721
ARM GAS  C:\Users\tmj32\AppData\Local\Temp\ccSL9kiF.s 			page 66


 2869 0721 0E       		.uleb128 0xe
 2870 0722 C6060000 		.4byte	0x6c6
 2871 0726 16       		.uleb128 0x16
 2872 0727 68050000 		.4byte	.LASF118
 2873 072b 01       		.byte	0x1
 2874 072c B001     		.2byte	0x1b0
 2875 072e E0020000 		.4byte	0x2e0
 2876 0732 00000000 		.4byte	.LFB5
 2877 0736 A4000000 		.4byte	.LFE5-.LFB5
 2878 073a 01       		.uleb128 0x1
 2879 073b 9C       		.byte	0x9c
 2880 073c 7B070000 		.4byte	0x77b
 2881 0740 17       		.uleb128 0x17
 2882 0741 633100   		.ascii	"c1\000"
 2883 0744 01       		.byte	0x1
 2884 0745 B001     		.2byte	0x1b0
 2885 0747 E0020000 		.4byte	0x2e0
 2886 074b 02       		.uleb128 0x2
 2887 074c 91       		.byte	0x91
 2888 074d 6C       		.sleb128 -20
 2889 074e 17       		.uleb128 0x17
 2890 074f 633200   		.ascii	"c2\000"
 2891 0752 01       		.byte	0x1
 2892 0753 B001     		.2byte	0x1b0
 2893 0755 E0020000 		.4byte	0x2e0
 2894 0759 02       		.uleb128 0x2
 2895 075a 91       		.byte	0x91
 2896 075b 68       		.sleb128 -24
 2897 075c 17       		.uleb128 0x17
 2898 075d 6D697800 		.ascii	"mix\000"
 2899 0761 01       		.byte	0x1
 2900 0762 B001     		.2byte	0x1b0
 2901 0764 B8000000 		.4byte	0xb8
 2902 0768 02       		.uleb128 0x2
 2903 0769 91       		.byte	0x91
 2904 076a 67       		.sleb128 -25
 2905 076b 18       		.uleb128 0x18
 2906 076c 72657400 		.ascii	"ret\000"
 2907 0770 01       		.byte	0x1
 2908 0771 B201     		.2byte	0x1b2
 2909 0773 E0020000 		.4byte	0x2e0
 2910 0777 02       		.uleb128 0x2
 2911 0778 91       		.byte	0x91
 2912 0779 74       		.sleb128 -12
 2913 077a 00       		.byte	0
 2914 077b 16       		.uleb128 0x16
 2915 077c 78030000 		.4byte	.LASF119
 2916 0780 01       		.byte	0x1
 2917 0781 DD01     		.2byte	0x1dd
 2918 0783 E0020000 		.4byte	0x2e0
 2919 0787 00000000 		.4byte	.LFB7
 2920 078b 38000000 		.4byte	.LFE7-.LFB7
 2921 078f 01       		.uleb128 0x1
 2922 0790 9C       		.byte	0x9c
 2923 0791 BD070000 		.4byte	0x7bd
 2924 0795 17       		.uleb128 0x17
 2925 0796 7200     		.ascii	"r\000"
ARM GAS  C:\Users\tmj32\AppData\Local\Temp\ccSL9kiF.s 			page 67


 2926 0798 01       		.byte	0x1
 2927 0799 DD01     		.2byte	0x1dd
 2928 079b B8000000 		.4byte	0xb8
 2929 079f 02       		.uleb128 0x2
 2930 07a0 91       		.byte	0x91
 2931 07a1 77       		.sleb128 -9
 2932 07a2 17       		.uleb128 0x17
 2933 07a3 6700     		.ascii	"g\000"
 2934 07a5 01       		.byte	0x1
 2935 07a6 DD01     		.2byte	0x1dd
 2936 07a8 B8000000 		.4byte	0xb8
 2937 07ac 02       		.uleb128 0x2
 2938 07ad 91       		.byte	0x91
 2939 07ae 76       		.sleb128 -10
 2940 07af 17       		.uleb128 0x17
 2941 07b0 6200     		.ascii	"b\000"
 2942 07b2 01       		.byte	0x1
 2943 07b3 DD01     		.2byte	0x1dd
 2944 07b5 B8000000 		.4byte	0xb8
 2945 07b9 02       		.uleb128 0x2
 2946 07ba 91       		.byte	0x91
 2947 07bb 75       		.sleb128 -11
 2948 07bc 00       		.byte	0
 2949 07bd 19       		.uleb128 0x19
 2950 07be 27040000 		.4byte	.LASF146
 2951 07c2 02       		.byte	0x2
 2952 07c3 44       		.byte	0x44
 2953 07c4 00000000 		.4byte	.LFB31
 2954 07c8 FC040000 		.4byte	.LFE31-.LFB31
 2955 07cc 01       		.uleb128 0x1
 2956 07cd 9C       		.byte	0x9c
 2957 07ce 1A       		.uleb128 0x1a
 2958 07cf F5070000 		.4byte	.LASF121
 2959 07d3 02       		.byte	0x2
 2960 07d4 E3       		.byte	0xe3
 2961 07d5 00000000 		.4byte	.LFB32
 2962 07d9 1C000000 		.4byte	.LFE32-.LFB32
 2963 07dd 01       		.uleb128 0x1
 2964 07de 9C       		.byte	0x9c
 2965 07df 00080000 		.4byte	0x800
 2966 07e3 1B       		.uleb128 0x1b
 2967 07e4 F0070000 		.4byte	.LASF120
 2968 07e8 02       		.byte	0x2
 2969 07e9 E3       		.byte	0xe3
 2970 07ea 0A070000 		.4byte	0x70a
 2971 07ee 02       		.uleb128 0x2
 2972 07ef 91       		.byte	0x91
 2973 07f0 74       		.sleb128 -12
 2974 07f1 1C       		.uleb128 0x1c
 2975 07f2 73726300 		.ascii	"src\000"
 2976 07f6 02       		.byte	0x2
 2977 07f7 E3       		.byte	0xe3
 2978 07f8 1B070000 		.4byte	0x71b
 2979 07fc 02       		.uleb128 0x2
 2980 07fd 91       		.byte	0x91
 2981 07fe 70       		.sleb128 -16
 2982 07ff 00       		.byte	0
ARM GAS  C:\Users\tmj32\AppData\Local\Temp\ccSL9kiF.s 			page 68


 2983 0800 1A       		.uleb128 0x1a
 2984 0801 0F070000 		.4byte	.LASF122
 2985 0805 02       		.byte	0x2
 2986 0806 EF       		.byte	0xef
 2987 0807 00000000 		.4byte	.LFB33
 2988 080b E6050000 		.4byte	.LFE33-.LFB33
 2989 080f 01       		.uleb128 0x1
 2990 0810 9C       		.byte	0x9c
 2991 0811 5D080000 		.4byte	0x85d
 2992 0815 1B       		.uleb128 0x1b
 2993 0816 A9050000 		.4byte	.LASF64
 2994 081a 02       		.byte	0x2
 2995 081b EF       		.byte	0xef
 2996 081c 1B070000 		.4byte	0x71b
 2997 0820 02       		.uleb128 0x2
 2998 0821 91       		.byte	0x91
 2999 0822 64       		.sleb128 -28
 3000 0823 1C       		.uleb128 0x1c
 3001 0824 656E6400 		.ascii	"end\000"
 3002 0828 02       		.byte	0x2
 3003 0829 EF       		.byte	0xef
 3004 082a 1B070000 		.4byte	0x71b
 3005 082e 02       		.uleb128 0x2
 3006 082f 91       		.byte	0x91
 3007 0830 60       		.sleb128 -32
 3008 0831 1C       		.uleb128 0x1c
 3009 0832 72657300 		.ascii	"res\000"
 3010 0836 02       		.byte	0x2
 3011 0837 EF       		.byte	0xef
 3012 0838 0A070000 		.4byte	0x70a
 3013 083c 02       		.uleb128 0x2
 3014 083d 91       		.byte	0x91
 3015 083e 5C       		.sleb128 -36
 3016 083f 1B       		.uleb128 0x1b
 3017 0840 2A050000 		.4byte	.LASF123
 3018 0844 02       		.byte	0x2
 3019 0845 EF       		.byte	0xef
 3020 0846 CE000000 		.4byte	0xce
 3021 084a 02       		.uleb128 0x2
 3022 084b 91       		.byte	0x91
 3023 084c 5A       		.sleb128 -38
 3024 084d 18       		.uleb128 0x18
 3025 084e 6F706100 		.ascii	"opa\000"
 3026 0852 02       		.byte	0x2
 3027 0853 0301     		.2byte	0x103
 3028 0855 EC020000 		.4byte	0x2ec
 3029 0859 02       		.uleb128 0x2
 3030 085a 91       		.byte	0x91
 3031 085b 6F       		.sleb128 -17
 3032 085c 00       		.byte	0
 3033 085d 1D       		.uleb128 0x1d
 3034 085e 0A020000 		.4byte	.LASF124
 3035 0862 02       		.byte	0x2
 3036 0863 1E01     		.2byte	0x11e
 3037 0865 00000000 		.4byte	.LFB34
 3038 0869 84000000 		.4byte	.LFE34-.LFB34
 3039 086d 01       		.uleb128 0x1
ARM GAS  C:\Users\tmj32\AppData\Local\Temp\ccSL9kiF.s 			page 69


 3040 086e 9C       		.byte	0x9c
 3041 086f 90080000 		.4byte	0x890
 3042 0873 17       		.uleb128 0x17
 3043 0874 6100     		.ascii	"a\000"
 3044 0876 02       		.byte	0x2
 3045 0877 1E01     		.2byte	0x11e
 3046 0879 90080000 		.4byte	0x890
 3047 087d 02       		.uleb128 0x2
 3048 087e 91       		.byte	0x91
 3049 087f 6C       		.sleb128 -20
 3050 0880 18       		.uleb128 0x18
 3051 0881 64736300 		.ascii	"dsc\000"
 3052 0885 02       		.byte	0x2
 3053 0886 2701     		.2byte	0x127
 3054 0888 96080000 		.4byte	0x896
 3055 088c 02       		.uleb128 0x2
 3056 088d 91       		.byte	0x91
 3057 088e 74       		.sleb128 -12
 3058 088f 00       		.byte	0
 3059 0890 0D       		.uleb128 0xd
 3060 0891 04       		.byte	0x4
 3061 0892 40040000 		.4byte	0x440
 3062 0896 0D       		.uleb128 0xd
 3063 0897 04       		.byte	0x4
 3064 0898 10070000 		.4byte	0x710
 3065 089c 1D       		.uleb128 0x1d
 3066 089d 00000000 		.4byte	.LASF125
 3067 08a1 02       		.byte	0x2
 3068 08a2 3301     		.2byte	0x133
 3069 08a4 00000000 		.4byte	.LFB35
 3070 08a8 4E000000 		.4byte	.LFE35-.LFB35
 3071 08ac 01       		.uleb128 0x1
 3072 08ad 9C       		.byte	0x9c
 3073 08ae FC080000 		.4byte	0x8fc
 3074 08b2 17       		.uleb128 0x17
 3075 08b3 6100     		.ascii	"a\000"
 3076 08b5 02       		.byte	0x2
 3077 08b6 3301     		.2byte	0x133
 3078 08b8 90080000 		.4byte	0x890
 3079 08bc 02       		.uleb128 0x2
 3080 08bd 91       		.byte	0x91
 3081 08be 6C       		.sleb128 -20
 3082 08bf 1E       		.uleb128 0x1e
 3083 08c0 8E060000 		.4byte	.LASF126
 3084 08c4 02       		.byte	0x2
 3085 08c5 3301     		.2byte	0x133
 3086 08c7 0A070000 		.4byte	0x70a
 3087 08cb 02       		.uleb128 0x2
 3088 08cc 91       		.byte	0x91
 3089 08cd 68       		.sleb128 -24
 3090 08ce 1E       		.uleb128 0x1e
 3091 08cf A9050000 		.4byte	.LASF64
 3092 08d3 02       		.byte	0x2
 3093 08d4 3301     		.2byte	0x133
 3094 08d6 1B070000 		.4byte	0x71b
 3095 08da 02       		.uleb128 0x2
 3096 08db 91       		.byte	0x91
ARM GAS  C:\Users\tmj32\AppData\Local\Temp\ccSL9kiF.s 			page 70


 3097 08dc 64       		.sleb128 -28
 3098 08dd 17       		.uleb128 0x17
 3099 08de 656E6400 		.ascii	"end\000"
 3100 08e2 02       		.byte	0x2
 3101 08e3 3301     		.2byte	0x133
 3102 08e5 1B070000 		.4byte	0x71b
 3103 08e9 02       		.uleb128 0x2
 3104 08ea 91       		.byte	0x91
 3105 08eb 60       		.sleb128 -32
 3106 08ec 18       		.uleb128 0x18
 3107 08ed 64736300 		.ascii	"dsc\000"
 3108 08f1 02       		.byte	0x2
 3109 08f2 3601     		.2byte	0x136
 3110 08f4 96080000 		.4byte	0x896
 3111 08f8 02       		.uleb128 0x2
 3112 08f9 91       		.byte	0x91
 3113 08fa 74       		.sleb128 -12
 3114 08fb 00       		.byte	0
 3115 08fc 1F       		.uleb128 0x1f
 3116 08fd F4000000 		.4byte	.LASF127
 3117 0901 02       		.byte	0x2
 3118 0902 4601     		.2byte	0x146
 3119 0904 00000000 		.4byte	.LFB36
 3120 0908 3E000000 		.4byte	.LFE36-.LFB36
 3121 090c 01       		.uleb128 0x1
 3122 090d 9C       		.byte	0x9c
 3123 090e 5E090000 		.4byte	0x95e
 3124 0912 17       		.uleb128 0x17
 3125 0913 64736300 		.ascii	"dsc\000"
 3126 0917 02       		.byte	0x2
 3127 0918 4601     		.2byte	0x146
 3128 091a 96080000 		.4byte	0x896
 3129 091e 02       		.uleb128 0x2
 3130 091f 91       		.byte	0x91
 3131 0920 64       		.sleb128 -28
 3132 0921 17       		.uleb128 0x17
 3133 0922 76616C00 		.ascii	"val\000"
 3134 0926 02       		.byte	0x2
 3135 0927 4601     		.2byte	0x146
 3136 0929 06030000 		.4byte	0x306
 3137 092d 02       		.uleb128 0x2
 3138 092e 91       		.byte	0x91
 3139 092f 62       		.sleb128 -30
 3140 0930 20       		.uleb128 0x20
 3141 0931 A9050000 		.4byte	.LASF64
 3142 0935 02       		.byte	0x2
 3143 0936 4801     		.2byte	0x148
 3144 0938 1B070000 		.4byte	0x71b
 3145 093c 02       		.uleb128 0x2
 3146 093d 91       		.byte	0x91
 3147 093e 74       		.sleb128 -12
 3148 093f 18       		.uleb128 0x18
 3149 0940 656E6400 		.ascii	"end\000"
 3150 0944 02       		.byte	0x2
 3151 0945 4901     		.2byte	0x149
 3152 0947 1B070000 		.4byte	0x71b
 3153 094b 02       		.uleb128 0x2
ARM GAS  C:\Users\tmj32\AppData\Local\Temp\ccSL9kiF.s 			page 71


 3154 094c 91       		.byte	0x91
 3155 094d 70       		.sleb128 -16
 3156 094e 18       		.uleb128 0x18
 3157 094f 61637400 		.ascii	"act\000"
 3158 0953 02       		.byte	0x2
 3159 0954 4A01     		.2byte	0x14a
 3160 0956 0A070000 		.4byte	0x70a
 3161 095a 02       		.uleb128 0x2
 3162 095b 91       		.byte	0x91
 3163 095c 6C       		.sleb128 -20
 3164 095d 00       		.byte	0
 3165 095e 1F       		.uleb128 0x1f
 3166 095f 01060000 		.4byte	.LASF128
 3167 0963 02       		.byte	0x2
 3168 0964 5601     		.2byte	0x156
 3169 0966 00000000 		.4byte	.LFB37
 3170 096a 30000000 		.4byte	.LFE37-.LFB37
 3171 096e 01       		.uleb128 0x1
 3172 096f 9C       		.byte	0x9c
 3173 0970 91090000 		.4byte	0x991
 3174 0974 17       		.uleb128 0x17
 3175 0975 6100     		.ascii	"a\000"
 3176 0977 02       		.byte	0x2
 3177 0978 5601     		.2byte	0x156
 3178 097a 90080000 		.4byte	0x890
 3179 097e 02       		.uleb128 0x2
 3180 097f 91       		.byte	0x91
 3181 0980 6C       		.sleb128 -20
 3182 0981 18       		.uleb128 0x18
 3183 0982 64736300 		.ascii	"dsc\000"
 3184 0986 02       		.byte	0x2
 3185 0987 5A01     		.2byte	0x15a
 3186 0989 96080000 		.4byte	0x896
 3187 098d 02       		.uleb128 0x2
 3188 098e 91       		.byte	0x91
 3189 098f 74       		.sleb128 -12
 3190 0990 00       		.byte	0
 3191 0991 21       		.uleb128 0x21
 3192 0992 D4050000 		.4byte	.LASF129
 3193 0996 06       		.byte	0x6
 3194 0997 8C       		.byte	0x8c
 3195 0998 18020000 		.4byte	0x218
 3196 099c 22       		.uleb128 0x22
 3197 099d EE060000 		.4byte	.LASF130
 3198 09a1 02       		.byte	0x2
 3199 09a2 2B       		.byte	0x2b
 3200 09a3 C6060000 		.4byte	0x6c6
 3201 09a7 05       		.uleb128 0x5
 3202 09a8 03       		.byte	0x3
 3203 09a9 00000000 		.4byte	lv_style_scr
 3204 09ad 22       		.uleb128 0x22
 3205 09ae 4F040000 		.4byte	.LASF131
 3206 09b2 02       		.byte	0x2
 3207 09b3 2C       		.byte	0x2c
 3208 09b4 C6060000 		.4byte	0x6c6
 3209 09b8 05       		.uleb128 0x5
 3210 09b9 03       		.byte	0x3
ARM GAS  C:\Users\tmj32\AppData\Local\Temp\ccSL9kiF.s 			page 72


 3211 09ba 00000000 		.4byte	lv_style_transp
 3212 09be 22       		.uleb128 0x22
 3213 09bf AF050000 		.4byte	.LASF132
 3214 09c3 02       		.byte	0x2
 3215 09c4 2D       		.byte	0x2d
 3216 09c5 C6060000 		.4byte	0x6c6
 3217 09c9 05       		.uleb128 0x5
 3218 09ca 03       		.byte	0x3
 3219 09cb 00000000 		.4byte	lv_style_transp_fit
 3220 09cf 22       		.uleb128 0x22
 3221 09d0 F1020000 		.4byte	.LASF133
 3222 09d4 02       		.byte	0x2
 3223 09d5 2E       		.byte	0x2e
 3224 09d6 C6060000 		.4byte	0x6c6
 3225 09da 05       		.uleb128 0x5
 3226 09db 03       		.byte	0x3
 3227 09dc 00000000 		.4byte	lv_style_transp_tight
 3228 09e0 22       		.uleb128 0x22
 3229 09e1 26010000 		.4byte	.LASF134
 3230 09e5 02       		.byte	0x2
 3231 09e6 2F       		.byte	0x2f
 3232 09e7 C6060000 		.4byte	0x6c6
 3233 09eb 05       		.uleb128 0x5
 3234 09ec 03       		.byte	0x3
 3235 09ed 00000000 		.4byte	lv_style_plain
 3236 09f1 22       		.uleb128 0x22
 3237 09f2 CF030000 		.4byte	.LASF135
 3238 09f6 02       		.byte	0x2
 3239 09f7 30       		.byte	0x30
 3240 09f8 C6060000 		.4byte	0x6c6
 3241 09fc 05       		.uleb128 0x5
 3242 09fd 03       		.byte	0x3
 3243 09fe 00000000 		.4byte	lv_style_plain_color
 3244 0a02 22       		.uleb128 0x22
 3245 0a03 16010000 		.4byte	.LASF136
 3246 0a07 02       		.byte	0x2
 3247 0a08 31       		.byte	0x31
 3248 0a09 C6060000 		.4byte	0x6c6
 3249 0a0d 05       		.uleb128 0x5
 3250 0a0e 03       		.byte	0x3
 3251 0a0f 00000000 		.4byte	lv_style_pretty
 3252 0a13 22       		.uleb128 0x22
 3253 0a14 78060000 		.4byte	.LASF137
 3254 0a18 02       		.byte	0x2
 3255 0a19 32       		.byte	0x32
 3256 0a1a C6060000 		.4byte	0x6c6
 3257 0a1e 05       		.uleb128 0x5
 3258 0a1f 03       		.byte	0x3
 3259 0a20 00000000 		.4byte	lv_style_pretty_color
 3260 0a24 22       		.uleb128 0x22
 3261 0a25 57000000 		.4byte	.LASF138
 3262 0a29 02       		.byte	0x2
 3263 0a2a 33       		.byte	0x33
 3264 0a2b C6060000 		.4byte	0x6c6
 3265 0a2f 05       		.uleb128 0x5
 3266 0a30 03       		.byte	0x3
 3267 0a31 00000000 		.4byte	lv_style_btn_rel
ARM GAS  C:\Users\tmj32\AppData\Local\Temp\ccSL9kiF.s 			page 73


 3268 0a35 22       		.uleb128 0x22
 3269 0a36 EE030000 		.4byte	.LASF139
 3270 0a3a 02       		.byte	0x2
 3271 0a3b 34       		.byte	0x34
 3272 0a3c C6060000 		.4byte	0x6c6
 3273 0a40 05       		.uleb128 0x5
 3274 0a41 03       		.byte	0x3
 3275 0a42 00000000 		.4byte	lv_style_btn_pr
 3276 0a46 22       		.uleb128 0x22
 3277 0a47 25020000 		.4byte	.LASF140
 3278 0a4b 02       		.byte	0x2
 3279 0a4c 35       		.byte	0x35
 3280 0a4d C6060000 		.4byte	0x6c6
 3281 0a51 05       		.uleb128 0x5
 3282 0a52 03       		.byte	0x3
 3283 0a53 00000000 		.4byte	lv_style_btn_tgl_rel
 3284 0a57 22       		.uleb128 0x22
 3285 0a58 A2020000 		.4byte	.LASF141
 3286 0a5c 02       		.byte	0x2
 3287 0a5d 36       		.byte	0x36
 3288 0a5e C6060000 		.4byte	0x6c6
 3289 0a62 05       		.uleb128 0x5
 3290 0a63 03       		.byte	0x3
 3291 0a64 00000000 		.4byte	lv_style_btn_tgl_pr
 3292 0a68 22       		.uleb128 0x22
 3293 0a69 68000000 		.4byte	.LASF142
 3294 0a6d 02       		.byte	0x2
 3295 0a6e 37       		.byte	0x37
 3296 0a6f C6060000 		.4byte	0x6c6
 3297 0a73 05       		.uleb128 0x5
 3298 0a74 03       		.byte	0x3
 3299 0a75 00000000 		.4byte	lv_style_btn_ina
 3300 0a79 00       		.byte	0
 3301              		.section	.debug_abbrev,"",%progbits
 3302              	.Ldebug_abbrev0:
 3303 0000 01       		.uleb128 0x1
 3304 0001 11       		.uleb128 0x11
 3305 0002 01       		.byte	0x1
 3306 0003 25       		.uleb128 0x25
 3307 0004 0E       		.uleb128 0xe
 3308 0005 13       		.uleb128 0x13
 3309 0006 0B       		.uleb128 0xb
 3310 0007 03       		.uleb128 0x3
 3311 0008 0E       		.uleb128 0xe
 3312 0009 1B       		.uleb128 0x1b
 3313 000a 0E       		.uleb128 0xe
 3314 000b 55       		.uleb128 0x55
 3315 000c 17       		.uleb128 0x17
 3316 000d 11       		.uleb128 0x11
 3317 000e 01       		.uleb128 0x1
 3318 000f 10       		.uleb128 0x10
 3319 0010 17       		.uleb128 0x17
 3320 0011 00       		.byte	0
 3321 0012 00       		.byte	0
 3322 0013 02       		.uleb128 0x2
 3323 0014 16       		.uleb128 0x16
 3324 0015 00       		.byte	0
ARM GAS  C:\Users\tmj32\AppData\Local\Temp\ccSL9kiF.s 			page 74


 3325 0016 03       		.uleb128 0x3
 3326 0017 0E       		.uleb128 0xe
 3327 0018 3A       		.uleb128 0x3a
 3328 0019 0B       		.uleb128 0xb
 3329 001a 3B       		.uleb128 0x3b
 3330 001b 0B       		.uleb128 0xb
 3331 001c 49       		.uleb128 0x49
 3332 001d 13       		.uleb128 0x13
 3333 001e 00       		.byte	0
 3334 001f 00       		.byte	0
 3335 0020 03       		.uleb128 0x3
 3336 0021 24       		.uleb128 0x24
 3337 0022 00       		.byte	0
 3338 0023 0B       		.uleb128 0xb
 3339 0024 0B       		.uleb128 0xb
 3340 0025 3E       		.uleb128 0x3e
 3341 0026 0B       		.uleb128 0xb
 3342 0027 03       		.uleb128 0x3
 3343 0028 0E       		.uleb128 0xe
 3344 0029 00       		.byte	0
 3345 002a 00       		.byte	0
 3346 002b 04       		.uleb128 0x4
 3347 002c 24       		.uleb128 0x24
 3348 002d 00       		.byte	0
 3349 002e 0B       		.uleb128 0xb
 3350 002f 0B       		.uleb128 0xb
 3351 0030 3E       		.uleb128 0x3e
 3352 0031 0B       		.uleb128 0xb
 3353 0032 03       		.uleb128 0x3
 3354 0033 08       		.uleb128 0x8
 3355 0034 00       		.byte	0
 3356 0035 00       		.byte	0
 3357 0036 05       		.uleb128 0x5
 3358 0037 0F       		.uleb128 0xf
 3359 0038 00       		.byte	0
 3360 0039 0B       		.uleb128 0xb
 3361 003a 0B       		.uleb128 0xb
 3362 003b 00       		.byte	0
 3363 003c 00       		.byte	0
 3364 003d 06       		.uleb128 0x6
 3365 003e 13       		.uleb128 0x13
 3366 003f 01       		.byte	0x1
 3367 0040 0B       		.uleb128 0xb
 3368 0041 0B       		.uleb128 0xb
 3369 0042 3A       		.uleb128 0x3a
 3370 0043 0B       		.uleb128 0xb
 3371 0044 3B       		.uleb128 0x3b
 3372 0045 0B       		.uleb128 0xb
 3373 0046 01       		.uleb128 0x1
 3374 0047 13       		.uleb128 0x13
 3375 0048 00       		.byte	0
 3376 0049 00       		.byte	0
 3377 004a 07       		.uleb128 0x7
 3378 004b 0D       		.uleb128 0xd
 3379 004c 00       		.byte	0
 3380 004d 03       		.uleb128 0x3
 3381 004e 0E       		.uleb128 0xe
ARM GAS  C:\Users\tmj32\AppData\Local\Temp\ccSL9kiF.s 			page 75


 3382 004f 3A       		.uleb128 0x3a
 3383 0050 0B       		.uleb128 0xb
 3384 0051 3B       		.uleb128 0x3b
 3385 0052 0B       		.uleb128 0xb
 3386 0053 49       		.uleb128 0x49
 3387 0054 13       		.uleb128 0x13
 3388 0055 38       		.uleb128 0x38
 3389 0056 0B       		.uleb128 0xb
 3390 0057 00       		.byte	0
 3391 0058 00       		.byte	0
 3392 0059 08       		.uleb128 0x8
 3393 005a 0D       		.uleb128 0xd
 3394 005b 00       		.byte	0
 3395 005c 03       		.uleb128 0x3
 3396 005d 08       		.uleb128 0x8
 3397 005e 3A       		.uleb128 0x3a
 3398 005f 0B       		.uleb128 0xb
 3399 0060 3B       		.uleb128 0x3b
 3400 0061 0B       		.uleb128 0xb
 3401 0062 49       		.uleb128 0x49
 3402 0063 13       		.uleb128 0x13
 3403 0064 38       		.uleb128 0x38
 3404 0065 0B       		.uleb128 0xb
 3405 0066 00       		.byte	0
 3406 0067 00       		.byte	0
 3407 0068 09       		.uleb128 0x9
 3408 0069 13       		.uleb128 0x13
 3409 006a 01       		.byte	0x1
 3410 006b 03       		.uleb128 0x3
 3411 006c 0E       		.uleb128 0xe
 3412 006d 0B       		.uleb128 0xb
 3413 006e 0B       		.uleb128 0xb
 3414 006f 3A       		.uleb128 0x3a
 3415 0070 0B       		.uleb128 0xb
 3416 0071 3B       		.uleb128 0x3b
 3417 0072 0B       		.uleb128 0xb
 3418 0073 01       		.uleb128 0x1
 3419 0074 13       		.uleb128 0x13
 3420 0075 00       		.byte	0
 3421 0076 00       		.byte	0
 3422 0077 0A       		.uleb128 0xa
 3423 0078 0D       		.uleb128 0xd
 3424 0079 00       		.byte	0
 3425 007a 03       		.uleb128 0x3
 3426 007b 0E       		.uleb128 0xe
 3427 007c 3A       		.uleb128 0x3a
 3428 007d 0B       		.uleb128 0xb
 3429 007e 3B       		.uleb128 0x3b
 3430 007f 0B       		.uleb128 0xb
 3431 0080 49       		.uleb128 0x49
 3432 0081 13       		.uleb128 0x13
 3433 0082 0B       		.uleb128 0xb
 3434 0083 0B       		.uleb128 0xb
 3435 0084 0D       		.uleb128 0xd
 3436 0085 0B       		.uleb128 0xb
 3437 0086 0C       		.uleb128 0xc
 3438 0087 0B       		.uleb128 0xb
ARM GAS  C:\Users\tmj32\AppData\Local\Temp\ccSL9kiF.s 			page 76


 3439 0088 38       		.uleb128 0x38
 3440 0089 0B       		.uleb128 0xb
 3441 008a 00       		.byte	0
 3442 008b 00       		.byte	0
 3443 008c 0B       		.uleb128 0xb
 3444 008d 15       		.uleb128 0x15
 3445 008e 01       		.byte	0x1
 3446 008f 27       		.uleb128 0x27
 3447 0090 19       		.uleb128 0x19
 3448 0091 49       		.uleb128 0x49
 3449 0092 13       		.uleb128 0x13
 3450 0093 01       		.uleb128 0x1
 3451 0094 13       		.uleb128 0x13
 3452 0095 00       		.byte	0
 3453 0096 00       		.byte	0
 3454 0097 0C       		.uleb128 0xc
 3455 0098 05       		.uleb128 0x5
 3456 0099 00       		.byte	0
 3457 009a 49       		.uleb128 0x49
 3458 009b 13       		.uleb128 0x13
 3459 009c 00       		.byte	0
 3460 009d 00       		.byte	0
 3461 009e 0D       		.uleb128 0xd
 3462 009f 0F       		.uleb128 0xf
 3463 00a0 00       		.byte	0
 3464 00a1 0B       		.uleb128 0xb
 3465 00a2 0B       		.uleb128 0xb
 3466 00a3 49       		.uleb128 0x49
 3467 00a4 13       		.uleb128 0x13
 3468 00a5 00       		.byte	0
 3469 00a6 00       		.byte	0
 3470 00a7 0E       		.uleb128 0xe
 3471 00a8 26       		.uleb128 0x26
 3472 00a9 00       		.byte	0
 3473 00aa 49       		.uleb128 0x49
 3474 00ab 13       		.uleb128 0x13
 3475 00ac 00       		.byte	0
 3476 00ad 00       		.byte	0
 3477 00ae 0F       		.uleb128 0xf
 3478 00af 04       		.uleb128 0x4
 3479 00b0 01       		.byte	0x1
 3480 00b1 0B       		.uleb128 0xb
 3481 00b2 0B       		.uleb128 0xb
 3482 00b3 49       		.uleb128 0x49
 3483 00b4 13       		.uleb128 0x13
 3484 00b5 3A       		.uleb128 0x3a
 3485 00b6 0B       		.uleb128 0xb
 3486 00b7 3B       		.uleb128 0x3b
 3487 00b8 0B       		.uleb128 0xb
 3488 00b9 01       		.uleb128 0x1
 3489 00ba 13       		.uleb128 0x13
 3490 00bb 00       		.byte	0
 3491 00bc 00       		.byte	0
 3492 00bd 10       		.uleb128 0x10
 3493 00be 28       		.uleb128 0x28
 3494 00bf 00       		.byte	0
 3495 00c0 03       		.uleb128 0x3
ARM GAS  C:\Users\tmj32\AppData\Local\Temp\ccSL9kiF.s 			page 77


 3496 00c1 0E       		.uleb128 0xe
 3497 00c2 1C       		.uleb128 0x1c
 3498 00c3 0B       		.uleb128 0xb
 3499 00c4 00       		.byte	0
 3500 00c5 00       		.byte	0
 3501 00c6 11       		.uleb128 0x11
 3502 00c7 17       		.uleb128 0x17
 3503 00c8 01       		.byte	0x1
 3504 00c9 0B       		.uleb128 0xb
 3505 00ca 0B       		.uleb128 0xb
 3506 00cb 3A       		.uleb128 0x3a
 3507 00cc 0B       		.uleb128 0xb
 3508 00cd 3B       		.uleb128 0x3b
 3509 00ce 0B       		.uleb128 0xb
 3510 00cf 01       		.uleb128 0x1
 3511 00d0 13       		.uleb128 0x13
 3512 00d1 00       		.byte	0
 3513 00d2 00       		.byte	0
 3514 00d3 12       		.uleb128 0x12
 3515 00d4 0D       		.uleb128 0xd
 3516 00d5 00       		.byte	0
 3517 00d6 03       		.uleb128 0x3
 3518 00d7 08       		.uleb128 0x8
 3519 00d8 3A       		.uleb128 0x3a
 3520 00d9 0B       		.uleb128 0xb
 3521 00da 3B       		.uleb128 0x3b
 3522 00db 0B       		.uleb128 0xb
 3523 00dc 49       		.uleb128 0x49
 3524 00dd 13       		.uleb128 0x13
 3525 00de 00       		.byte	0
 3526 00df 00       		.byte	0
 3527 00e0 13       		.uleb128 0x13
 3528 00e1 0D       		.uleb128 0xd
 3529 00e2 00       		.byte	0
 3530 00e3 03       		.uleb128 0x3
 3531 00e4 0E       		.uleb128 0xe
 3532 00e5 3A       		.uleb128 0x3a
 3533 00e6 0B       		.uleb128 0xb
 3534 00e7 3B       		.uleb128 0x3b
 3535 00e8 0B       		.uleb128 0xb
 3536 00e9 49       		.uleb128 0x49
 3537 00ea 13       		.uleb128 0x13
 3538 00eb 00       		.byte	0
 3539 00ec 00       		.byte	0
 3540 00ed 14       		.uleb128 0x14
 3541 00ee 16       		.uleb128 0x16
 3542 00ef 00       		.byte	0
 3543 00f0 03       		.uleb128 0x3
 3544 00f1 0E       		.uleb128 0xe
 3545 00f2 3A       		.uleb128 0x3a
 3546 00f3 0B       		.uleb128 0xb
 3547 00f4 3B       		.uleb128 0x3b
 3548 00f5 05       		.uleb128 0x5
 3549 00f6 49       		.uleb128 0x49
 3550 00f7 13       		.uleb128 0x13
 3551 00f8 00       		.byte	0
 3552 00f9 00       		.byte	0
ARM GAS  C:\Users\tmj32\AppData\Local\Temp\ccSL9kiF.s 			page 78


 3553 00fa 15       		.uleb128 0x15
 3554 00fb 15       		.uleb128 0x15
 3555 00fc 01       		.byte	0x1
 3556 00fd 27       		.uleb128 0x27
 3557 00fe 19       		.uleb128 0x19
 3558 00ff 01       		.uleb128 0x1
 3559 0100 13       		.uleb128 0x13
 3560 0101 00       		.byte	0
 3561 0102 00       		.byte	0
 3562 0103 16       		.uleb128 0x16
 3563 0104 2E       		.uleb128 0x2e
 3564 0105 01       		.byte	0x1
 3565 0106 03       		.uleb128 0x3
 3566 0107 0E       		.uleb128 0xe
 3567 0108 3A       		.uleb128 0x3a
 3568 0109 0B       		.uleb128 0xb
 3569 010a 3B       		.uleb128 0x3b
 3570 010b 05       		.uleb128 0x5
 3571 010c 27       		.uleb128 0x27
 3572 010d 19       		.uleb128 0x19
 3573 010e 49       		.uleb128 0x49
 3574 010f 13       		.uleb128 0x13
 3575 0110 11       		.uleb128 0x11
 3576 0111 01       		.uleb128 0x1
 3577 0112 12       		.uleb128 0x12
 3578 0113 06       		.uleb128 0x6
 3579 0114 40       		.uleb128 0x40
 3580 0115 18       		.uleb128 0x18
 3581 0116 9742     		.uleb128 0x2117
 3582 0118 19       		.uleb128 0x19
 3583 0119 01       		.uleb128 0x1
 3584 011a 13       		.uleb128 0x13
 3585 011b 00       		.byte	0
 3586 011c 00       		.byte	0
 3587 011d 17       		.uleb128 0x17
 3588 011e 05       		.uleb128 0x5
 3589 011f 00       		.byte	0
 3590 0120 03       		.uleb128 0x3
 3591 0121 08       		.uleb128 0x8
 3592 0122 3A       		.uleb128 0x3a
 3593 0123 0B       		.uleb128 0xb
 3594 0124 3B       		.uleb128 0x3b
 3595 0125 05       		.uleb128 0x5
 3596 0126 49       		.uleb128 0x49
 3597 0127 13       		.uleb128 0x13
 3598 0128 02       		.uleb128 0x2
 3599 0129 18       		.uleb128 0x18
 3600 012a 00       		.byte	0
 3601 012b 00       		.byte	0
 3602 012c 18       		.uleb128 0x18
 3603 012d 34       		.uleb128 0x34
 3604 012e 00       		.byte	0
 3605 012f 03       		.uleb128 0x3
 3606 0130 08       		.uleb128 0x8
 3607 0131 3A       		.uleb128 0x3a
 3608 0132 0B       		.uleb128 0xb
 3609 0133 3B       		.uleb128 0x3b
ARM GAS  C:\Users\tmj32\AppData\Local\Temp\ccSL9kiF.s 			page 79


 3610 0134 05       		.uleb128 0x5
 3611 0135 49       		.uleb128 0x49
 3612 0136 13       		.uleb128 0x13
 3613 0137 02       		.uleb128 0x2
 3614 0138 18       		.uleb128 0x18
 3615 0139 00       		.byte	0
 3616 013a 00       		.byte	0
 3617 013b 19       		.uleb128 0x19
 3618 013c 2E       		.uleb128 0x2e
 3619 013d 00       		.byte	0
 3620 013e 3F       		.uleb128 0x3f
 3621 013f 19       		.uleb128 0x19
 3622 0140 03       		.uleb128 0x3
 3623 0141 0E       		.uleb128 0xe
 3624 0142 3A       		.uleb128 0x3a
 3625 0143 0B       		.uleb128 0xb
 3626 0144 3B       		.uleb128 0x3b
 3627 0145 0B       		.uleb128 0xb
 3628 0146 27       		.uleb128 0x27
 3629 0147 19       		.uleb128 0x19
 3630 0148 11       		.uleb128 0x11
 3631 0149 01       		.uleb128 0x1
 3632 014a 12       		.uleb128 0x12
 3633 014b 06       		.uleb128 0x6
 3634 014c 40       		.uleb128 0x40
 3635 014d 18       		.uleb128 0x18
 3636 014e 9642     		.uleb128 0x2116
 3637 0150 19       		.uleb128 0x19
 3638 0151 00       		.byte	0
 3639 0152 00       		.byte	0
 3640 0153 1A       		.uleb128 0x1a
 3641 0154 2E       		.uleb128 0x2e
 3642 0155 01       		.byte	0x1
 3643 0156 3F       		.uleb128 0x3f
 3644 0157 19       		.uleb128 0x19
 3645 0158 03       		.uleb128 0x3
 3646 0159 0E       		.uleb128 0xe
 3647 015a 3A       		.uleb128 0x3a
 3648 015b 0B       		.uleb128 0xb
 3649 015c 3B       		.uleb128 0x3b
 3650 015d 0B       		.uleb128 0xb
 3651 015e 27       		.uleb128 0x27
 3652 015f 19       		.uleb128 0x19
 3653 0160 11       		.uleb128 0x11
 3654 0161 01       		.uleb128 0x1
 3655 0162 12       		.uleb128 0x12
 3656 0163 06       		.uleb128 0x6
 3657 0164 40       		.uleb128 0x40
 3658 0165 18       		.uleb128 0x18
 3659 0166 9642     		.uleb128 0x2116
 3660 0168 19       		.uleb128 0x19
 3661 0169 01       		.uleb128 0x1
 3662 016a 13       		.uleb128 0x13
 3663 016b 00       		.byte	0
 3664 016c 00       		.byte	0
 3665 016d 1B       		.uleb128 0x1b
 3666 016e 05       		.uleb128 0x5
ARM GAS  C:\Users\tmj32\AppData\Local\Temp\ccSL9kiF.s 			page 80


 3667 016f 00       		.byte	0
 3668 0170 03       		.uleb128 0x3
 3669 0171 0E       		.uleb128 0xe
 3670 0172 3A       		.uleb128 0x3a
 3671 0173 0B       		.uleb128 0xb
 3672 0174 3B       		.uleb128 0x3b
 3673 0175 0B       		.uleb128 0xb
 3674 0176 49       		.uleb128 0x49
 3675 0177 13       		.uleb128 0x13
 3676 0178 02       		.uleb128 0x2
 3677 0179 18       		.uleb128 0x18
 3678 017a 00       		.byte	0
 3679 017b 00       		.byte	0
 3680 017c 1C       		.uleb128 0x1c
 3681 017d 05       		.uleb128 0x5
 3682 017e 00       		.byte	0
 3683 017f 03       		.uleb128 0x3
 3684 0180 08       		.uleb128 0x8
 3685 0181 3A       		.uleb128 0x3a
 3686 0182 0B       		.uleb128 0xb
 3687 0183 3B       		.uleb128 0x3b
 3688 0184 0B       		.uleb128 0xb
 3689 0185 49       		.uleb128 0x49
 3690 0186 13       		.uleb128 0x13
 3691 0187 02       		.uleb128 0x2
 3692 0188 18       		.uleb128 0x18
 3693 0189 00       		.byte	0
 3694 018a 00       		.byte	0
 3695 018b 1D       		.uleb128 0x1d
 3696 018c 2E       		.uleb128 0x2e
 3697 018d 01       		.byte	0x1
 3698 018e 3F       		.uleb128 0x3f
 3699 018f 19       		.uleb128 0x19
 3700 0190 03       		.uleb128 0x3
 3701 0191 0E       		.uleb128 0xe
 3702 0192 3A       		.uleb128 0x3a
 3703 0193 0B       		.uleb128 0xb
 3704 0194 3B       		.uleb128 0x3b
 3705 0195 05       		.uleb128 0x5
 3706 0196 27       		.uleb128 0x27
 3707 0197 19       		.uleb128 0x19
 3708 0198 11       		.uleb128 0x11
 3709 0199 01       		.uleb128 0x1
 3710 019a 12       		.uleb128 0x12
 3711 019b 06       		.uleb128 0x6
 3712 019c 40       		.uleb128 0x40
 3713 019d 18       		.uleb128 0x18
 3714 019e 9642     		.uleb128 0x2116
 3715 01a0 19       		.uleb128 0x19
 3716 01a1 01       		.uleb128 0x1
 3717 01a2 13       		.uleb128 0x13
 3718 01a3 00       		.byte	0
 3719 01a4 00       		.byte	0
 3720 01a5 1E       		.uleb128 0x1e
 3721 01a6 05       		.uleb128 0x5
 3722 01a7 00       		.byte	0
 3723 01a8 03       		.uleb128 0x3
ARM GAS  C:\Users\tmj32\AppData\Local\Temp\ccSL9kiF.s 			page 81


 3724 01a9 0E       		.uleb128 0xe
 3725 01aa 3A       		.uleb128 0x3a
 3726 01ab 0B       		.uleb128 0xb
 3727 01ac 3B       		.uleb128 0x3b
 3728 01ad 05       		.uleb128 0x5
 3729 01ae 49       		.uleb128 0x49
 3730 01af 13       		.uleb128 0x13
 3731 01b0 02       		.uleb128 0x2
 3732 01b1 18       		.uleb128 0x18
 3733 01b2 00       		.byte	0
 3734 01b3 00       		.byte	0
 3735 01b4 1F       		.uleb128 0x1f
 3736 01b5 2E       		.uleb128 0x2e
 3737 01b6 01       		.byte	0x1
 3738 01b7 03       		.uleb128 0x3
 3739 01b8 0E       		.uleb128 0xe
 3740 01b9 3A       		.uleb128 0x3a
 3741 01ba 0B       		.uleb128 0xb
 3742 01bb 3B       		.uleb128 0x3b
 3743 01bc 05       		.uleb128 0x5
 3744 01bd 27       		.uleb128 0x27
 3745 01be 19       		.uleb128 0x19
 3746 01bf 11       		.uleb128 0x11
 3747 01c0 01       		.uleb128 0x1
 3748 01c1 12       		.uleb128 0x12
 3749 01c2 06       		.uleb128 0x6
 3750 01c3 40       		.uleb128 0x40
 3751 01c4 18       		.uleb128 0x18
 3752 01c5 9642     		.uleb128 0x2116
 3753 01c7 19       		.uleb128 0x19
 3754 01c8 01       		.uleb128 0x1
 3755 01c9 13       		.uleb128 0x13
 3756 01ca 00       		.byte	0
 3757 01cb 00       		.byte	0
 3758 01cc 20       		.uleb128 0x20
 3759 01cd 34       		.uleb128 0x34
 3760 01ce 00       		.byte	0
 3761 01cf 03       		.uleb128 0x3
 3762 01d0 0E       		.uleb128 0xe
 3763 01d1 3A       		.uleb128 0x3a
 3764 01d2 0B       		.uleb128 0xb
 3765 01d3 3B       		.uleb128 0x3b
 3766 01d4 05       		.uleb128 0x5
 3767 01d5 49       		.uleb128 0x49
 3768 01d6 13       		.uleb128 0x13
 3769 01d7 02       		.uleb128 0x2
 3770 01d8 18       		.uleb128 0x18
 3771 01d9 00       		.byte	0
 3772 01da 00       		.byte	0
 3773 01db 21       		.uleb128 0x21
 3774 01dc 34       		.uleb128 0x34
 3775 01dd 00       		.byte	0
 3776 01de 03       		.uleb128 0x3
 3777 01df 0E       		.uleb128 0xe
 3778 01e0 3A       		.uleb128 0x3a
 3779 01e1 0B       		.uleb128 0xb
 3780 01e2 3B       		.uleb128 0x3b
ARM GAS  C:\Users\tmj32\AppData\Local\Temp\ccSL9kiF.s 			page 82


 3781 01e3 0B       		.uleb128 0xb
 3782 01e4 49       		.uleb128 0x49
 3783 01e5 13       		.uleb128 0x13
 3784 01e6 3F       		.uleb128 0x3f
 3785 01e7 19       		.uleb128 0x19
 3786 01e8 3C       		.uleb128 0x3c
 3787 01e9 19       		.uleb128 0x19
 3788 01ea 00       		.byte	0
 3789 01eb 00       		.byte	0
 3790 01ec 22       		.uleb128 0x22
 3791 01ed 34       		.uleb128 0x34
 3792 01ee 00       		.byte	0
 3793 01ef 03       		.uleb128 0x3
 3794 01f0 0E       		.uleb128 0xe
 3795 01f1 3A       		.uleb128 0x3a
 3796 01f2 0B       		.uleb128 0xb
 3797 01f3 3B       		.uleb128 0x3b
 3798 01f4 0B       		.uleb128 0xb
 3799 01f5 49       		.uleb128 0x49
 3800 01f6 13       		.uleb128 0x13
 3801 01f7 3F       		.uleb128 0x3f
 3802 01f8 19       		.uleb128 0x19
 3803 01f9 02       		.uleb128 0x2
 3804 01fa 18       		.uleb128 0x18
 3805 01fb 00       		.byte	0
 3806 01fc 00       		.byte	0
 3807 01fd 00       		.byte	0
 3808              		.section	.debug_aranges,"",%progbits
 3809 0000 5C000000 		.4byte	0x5c
 3810 0004 0200     		.2byte	0x2
 3811 0006 00000000 		.4byte	.Ldebug_info0
 3812 000a 04       		.byte	0x4
 3813 000b 00       		.byte	0
 3814 000c 0000     		.2byte	0
 3815 000e 0000     		.2byte	0
 3816 0010 00000000 		.4byte	.LFB5
 3817 0014 A4000000 		.4byte	.LFE5-.LFB5
 3818 0018 00000000 		.4byte	.LFB7
 3819 001c 38000000 		.4byte	.LFE7-.LFB7
 3820 0020 00000000 		.4byte	.LFB31
 3821 0024 FC040000 		.4byte	.LFE31-.LFB31
 3822 0028 00000000 		.4byte	.LFB32
 3823 002c 1C000000 		.4byte	.LFE32-.LFB32
 3824 0030 00000000 		.4byte	.LFB33
 3825 0034 E6050000 		.4byte	.LFE33-.LFB33
 3826 0038 00000000 		.4byte	.LFB34
 3827 003c 84000000 		.4byte	.LFE34-.LFB34
 3828 0040 00000000 		.4byte	.LFB35
 3829 0044 4E000000 		.4byte	.LFE35-.LFB35
 3830 0048 00000000 		.4byte	.LFB36
 3831 004c 3E000000 		.4byte	.LFE36-.LFB36
 3832 0050 00000000 		.4byte	.LFB37
 3833 0054 30000000 		.4byte	.LFE37-.LFB37
 3834 0058 00000000 		.4byte	0
 3835 005c 00000000 		.4byte	0
 3836              		.section	.debug_ranges,"",%progbits
 3837              	.Ldebug_ranges0:
ARM GAS  C:\Users\tmj32\AppData\Local\Temp\ccSL9kiF.s 			page 83


 3838 0000 00000000 		.4byte	.LFB5
 3839 0004 A4000000 		.4byte	.LFE5
 3840 0008 00000000 		.4byte	.LFB7
 3841 000c 38000000 		.4byte	.LFE7
 3842 0010 00000000 		.4byte	.LFB31
 3843 0014 FC040000 		.4byte	.LFE31
 3844 0018 00000000 		.4byte	.LFB32
 3845 001c 1C000000 		.4byte	.LFE32
 3846 0020 00000000 		.4byte	.LFB33
 3847 0024 E6050000 		.4byte	.LFE33
 3848 0028 00000000 		.4byte	.LFB34
 3849 002c 84000000 		.4byte	.LFE34
 3850 0030 00000000 		.4byte	.LFB35
 3851 0034 4E000000 		.4byte	.LFE35
 3852 0038 00000000 		.4byte	.LFB36
 3853 003c 3E000000 		.4byte	.LFE36
 3854 0040 00000000 		.4byte	.LFB37
 3855 0044 30000000 		.4byte	.LFE37
 3856 0048 00000000 		.4byte	0
 3857 004c 00000000 		.4byte	0
 3858              		.section	.debug_line,"",%progbits
 3859              	.Ldebug_line0:
 3860 0000 B6040000 		.section	.debug_str,"MS",%progbits,1
 3860      02003402 
 3860      00000201 
 3860      FB0E0D00 
 3860      01010101 
 3861              	.LASF125:
 3862 0000 6C765F73 		.ascii	"lv_style_anim_set_styles\000"
 3862      74796C65 
 3862      5F616E69 
 3862      6D5F7365 
 3862      745F7374 
 3863              	.LASF61:
 3864 0019 65786563 		.ascii	"exec_cb\000"
 3864      5F636200 
 3865              	.LASF47:
 3866 0021 4C565F4F 		.ascii	"LV_OPA_COVER\000"
 3866      50415F43 
 3866      4F564552 
 3866      00
 3867              	.LASF67:
 3868 002e 706C6179 		.ascii	"playback_pause\000"
 3868      6261636B 
 3868      5F706175 
 3868      736500
 3869              	.LASF51:
 3870 003d 66756C6C 		.ascii	"full\000"
 3870      00
 3871              	.LASF45:
 3872 0042 4C565F4F 		.ascii	"LV_OPA_90\000"
 3872      50415F39 
 3872      3000
 3873              	.LASF116:
 3874 004c 7374796C 		.ascii	"style_anim\000"
 3874      655F616E 
 3874      696D00
ARM GAS  C:\Users\tmj32\AppData\Local\Temp\ccSL9kiF.s 			page 84


 3875              	.LASF138:
 3876 0057 6C765F73 		.ascii	"lv_style_btn_rel\000"
 3876      74796C65 
 3876      5F62746E 
 3876      5F72656C 
 3876      00
 3877              	.LASF142:
 3878 0068 6C765F73 		.ascii	"lv_style_btn_ina\000"
 3878      74796C65 
 3878      5F62746E 
 3878      5F696E61 
 3878      00
 3879              	.LASF114:
 3880 0079 7374796C 		.ascii	"style_start\000"
 3880      655F7374 
 3880      61727400 
 3881              	.LASF36:
 3882 0085 4C565F4F 		.ascii	"LV_OPA_0\000"
 3882      50415F30 
 3882      00
 3883              	.LASF81:
 3884 008e 4C565F42 		.ascii	"LV_BORDER_RIGHT\000"
 3884      4F524445 
 3884      525F5249 
 3884      47485400 
 3885              	.LASF14:
 3886 009e 756E7369 		.ascii	"unsigned int\000"
 3886      676E6564 
 3886      20696E74 
 3886      00
 3887              	.LASF26:
 3888 00ab 6F66735F 		.ascii	"ofs_x\000"
 3888      7800
 3889              	.LASF27:
 3890 00b1 6F66735F 		.ascii	"ofs_y\000"
 3890      7900
 3891              	.LASF29:
 3892 00b7 6765745F 		.ascii	"get_glyph_dsc\000"
 3892      676C7970 
 3892      685F6473 
 3892      6300
 3893              	.LASF113:
 3894 00c5 6C765F73 		.ascii	"lv_style_t\000"
 3894      74796C65 
 3894      5F7400
 3895              	.LASF8:
 3896 00d0 5F5F696E 		.ascii	"__int32_t\000"
 3896      7433325F 
 3896      7400
 3897              	.LASF63:
 3898 00da 72656164 		.ascii	"ready_cb\000"
 3898      795F6362 
 3898      00
 3899              	.LASF85:
 3900 00e3 4C565F53 		.ascii	"LV_SHADOW_BOTTOM\000"
 3900      4841444F 
 3900      575F424F 
ARM GAS  C:\Users\tmj32\AppData\Local\Temp\ccSL9kiF.s 			page 85


 3900      54544F4D 
 3900      00
 3901              	.LASF127:
 3902 00f4 7374796C 		.ascii	"style_animator\000"
 3902      655F616E 
 3902      696D6174 
 3902      6F7200
 3903              	.LASF58:
 3904 0103 6C765F61 		.ascii	"lv_anim_exec_xcb_t\000"
 3904      6E696D5F 
 3904      65786563 
 3904      5F786362 
 3904      5F7400
 3905              	.LASF136:
 3906 0116 6C765F73 		.ascii	"lv_style_pretty\000"
 3906      74796C65 
 3906      5F707265 
 3906      74747900 
 3907              	.LASF134:
 3908 0126 6C765F73 		.ascii	"lv_style_plain\000"
 3908      74796C65 
 3908      5F706C61 
 3908      696E00
 3909              	.LASF60:
 3910 0135 5F6C765F 		.ascii	"_lv_anim_t\000"
 3910      616E696D 
 3910      5F7400
 3911              	.LASF145:
 3912 0140 433A5C55 		.ascii	"C:\\Users\\tmj32\\Documents\\TCNJ\\Senior_Project\\"
 3912      73657273 
 3912      5C746D6A 
 3912      33325C44 
 3912      6F63756D 
 3913 016d 4F736369 		.ascii	"Oscilloscope_Senior_Project\\tcom_engineering\\embe"
 3913      6C6C6F73 
 3913      636F7065 
 3913      5F53656E 
 3913      696F725F 
 3914 019e 645F7377 		.ascii	"d_sw\\tcom_app\\tcom_app_psoc6_lvgl6\\tcom_displ_te"
 3914      5C74636F 
 3914      6D5F6170 
 3914      705C7463 
 3914      6F6D5F61 
 3915 01ce 73745F70 		.ascii	"st_psoc6.cydsn\000"
 3915      736F6336 
 3915      2E637964 
 3915      736E00
 3916              	.LASF95:
 3917 01dd 696E6E65 		.ascii	"inner\000"
 3917      7200
 3918              	.LASF20:
 3919 01e3 75696E74 		.ascii	"uint32_t\000"
 3919      33325F74 
 3919      00
 3920              	.LASF15:
 3921 01ec 696E7438 		.ascii	"int8_t\000"
 3921      5F7400
ARM GAS  C:\Users\tmj32\AppData\Local\Temp\ccSL9kiF.s 			page 86


 3922              	.LASF52:
 3923 01f3 6C765F63 		.ascii	"lv_color32_t\000"
 3923      6F6C6F72 
 3923      33325F74 
 3923      00
 3924              	.LASF102:
 3925 0200 73656C5F 		.ascii	"sel_color\000"
 3925      636F6C6F 
 3925      7200
 3926              	.LASF124:
 3927 020a 6C765F73 		.ascii	"lv_style_anim_init\000"
 3927      74796C65 
 3927      5F616E69 
 3927      6D5F696E 
 3927      697400
 3928              	.LASF17:
 3929 021d 696E7431 		.ascii	"int16_t\000"
 3929      365F7400 
 3930              	.LASF140:
 3931 0225 6C765F73 		.ascii	"lv_style_btn_tgl_rel\000"
 3931      74796C65 
 3931      5F62746E 
 3931      5F74676C 
 3931      5F72656C 
 3932              	.LASF13:
 3933 023a 6C6F6E67 		.ascii	"long long unsigned int\000"
 3933      206C6F6E 
 3933      6720756E 
 3933      7369676E 
 3933      65642069 
 3934              	.LASF90:
 3935 0251 70617274 		.ascii	"part\000"
 3935      00
 3936              	.LASF117:
 3937 0256 6C765F73 		.ascii	"lv_style_anim_dsc_t\000"
 3937      74796C65 
 3937      5F616E69 
 3937      6D5F6473 
 3937      635F7400 
 3938              	.LASF35:
 3939 026a 4C565F4F 		.ascii	"LV_OPA_TRANSP\000"
 3939      50415F54 
 3939      52414E53 
 3939      5000
 3940              	.LASF6:
 3941 0278 5F5F7569 		.ascii	"__uint16_t\000"
 3941      6E743136 
 3941      5F7400
 3942              	.LASF99:
 3943 0283 626F7264 		.ascii	"border\000"
 3943      657200
 3944              	.LASF83:
 3945 028a 4C565F42 		.ascii	"LV_BORDER_INTERNAL\000"
 3945      4F524445 
 3945      525F494E 
 3945      5445524E 
 3945      414C00
ARM GAS  C:\Users\tmj32\AppData\Local\Temp\ccSL9kiF.s 			page 87


 3946              	.LASF65:
 3947 029d 74696D65 		.ascii	"time\000"
 3947      00
 3948              	.LASF141:
 3949 02a2 6C765F73 		.ascii	"lv_style_btn_tgl_pr\000"
 3949      74796C65 
 3949      5F62746E 
 3949      5F74676C 
 3949      5F707200 
 3950              	.LASF88:
 3951 02b6 636F6C6F 		.ascii	"color\000"
 3951      7200
 3952              	.LASF75:
 3953 02bc 6C765F61 		.ascii	"lv_anim_ready_cb_t\000"
 3953      6E696D5F 
 3953      72656164 
 3953      795F6362 
 3953      5F7400
 3954              	.LASF107:
 3955 02cf 726F756E 		.ascii	"rounded\000"
 3955      64656400 
 3956              	.LASF89:
 3957 02d7 77696474 		.ascii	"width\000"
 3957      6800
 3958              	.LASF79:
 3959 02dd 4C565F42 		.ascii	"LV_BORDER_TOP\000"
 3959      4F524445 
 3959      525F544F 
 3959      5000
 3960              	.LASF33:
 3961 02eb 5F426F6F 		.ascii	"_Bool\000"
 3961      6C00
 3962              	.LASF133:
 3963 02f1 6C765F73 		.ascii	"lv_style_transp_tight\000"
 3963      74796C65 
 3963      5F747261 
 3963      6E73705F 
 3963      74696768 
 3964              	.LASF59:
 3965 0307 5F6C765F 		.ascii	"_lv_font_struct\000"
 3965      666F6E74 
 3965      5F737472 
 3965      75637400 
 3966              	.LASF105:
 3967 0317 6C696E65 		.ascii	"line_space\000"
 3967      5F737061 
 3967      636500
 3968              	.LASF76:
 3969 0322 6C765F61 		.ascii	"lv_anim_t\000"
 3969      6E696D5F 
 3969      7400
 3970              	.LASF31:
 3971 032c 6C696E65 		.ascii	"line_height\000"
 3971      5F686569 
 3971      67687400 
 3972              	.LASF56:
 3973 0338 63686172 		.ascii	"char\000"
ARM GAS  C:\Users\tmj32\AppData\Local\Temp\ccSL9kiF.s 			page 88


 3973      00
 3974              	.LASF92:
 3975 033d 626F7474 		.ascii	"bottom\000"
 3975      6F6D00
 3976              	.LASF71:
 3977 0344 72657065 		.ascii	"repeat\000"
 3977      617400
 3978              	.LASF28:
 3979 034b 6C765F66 		.ascii	"lv_font_glyph_dsc_t\000"
 3979      6F6E745F 
 3979      676C7970 
 3979      685F6473 
 3979      635F7400 
 3980              	.LASF16:
 3981 035f 75696E74 		.ascii	"uint8_t\000"
 3981      385F7400 
 3982              	.LASF87:
 3983 0367 6C765F73 		.ascii	"lv_shadow_type_t\000"
 3983      6861646F 
 3983      775F7479 
 3983      70655F74 
 3983      00
 3984              	.LASF119:
 3985 0378 6C765F63 		.ascii	"lv_color_make\000"
 3985      6F6C6F72 
 3985      5F6D616B 
 3985      6500
 3986              	.LASF94:
 3987 0386 72696768 		.ascii	"right\000"
 3987      7400
 3988              	.LASF37:
 3989 038c 4C565F4F 		.ascii	"LV_OPA_10\000"
 3989      50415F31 
 3989      3000
 3990              	.LASF12:
 3991 0396 6C6F6E67 		.ascii	"long long int\000"
 3991      206C6F6E 
 3991      6720696E 
 3991      7400
 3992              	.LASF108:
 3993 03a4 676C6173 		.ascii	"glass\000"
 3993      7300
 3994              	.LASF110:
 3995 03aa 74657874 		.ascii	"text\000"
 3995      00
 3996              	.LASF101:
 3997 03af 70616464 		.ascii	"padding\000"
 3997      696E6700 
 3998              	.LASF70:
 3999 03b7 706C6179 		.ascii	"playback\000"
 3999      6261636B 
 3999      00
 4000              	.LASF82:
 4001 03c0 4C565F42 		.ascii	"LV_BORDER_FULL\000"
 4001      4F524445 
 4001      525F4655 
 4001      4C4C00
ARM GAS  C:\Users\tmj32\AppData\Local\Temp\ccSL9kiF.s 			page 89


 4002              	.LASF135:
 4003 03cf 6C765F73 		.ascii	"lv_style_plain_color\000"
 4003      74796C65 
 4003      5F706C61 
 4003      696E5F63 
 4003      6F6C6F72 
 4004              	.LASF4:
 4005 03e4 5F5F696E 		.ascii	"__int16_t\000"
 4005      7431365F 
 4005      7400
 4006              	.LASF139:
 4007 03ee 6C765F73 		.ascii	"lv_style_btn_pr\000"
 4007      74796C65 
 4007      5F62746E 
 4007      5F707200 
 4008              	.LASF62:
 4009 03fe 70617468 		.ascii	"path_cb\000"
 4009      5F636200 
 4010              	.LASF38:
 4011 0406 4C565F4F 		.ascii	"LV_OPA_20\000"
 4011      50415F32 
 4011      3000
 4012              	.LASF111:
 4013 0410 696D6167 		.ascii	"image\000"
 4013      6500
 4014              	.LASF78:
 4015 0416 4C565F42 		.ascii	"LV_BORDER_BOTTOM\000"
 4015      4F524445 
 4015      525F424F 
 4015      54544F4D 
 4015      00
 4016              	.LASF146:
 4017 0427 6C765F73 		.ascii	"lv_style_init\000"
 4017      74796C65 
 4017      5F696E69 
 4017      7400
 4018              	.LASF69:
 4019 0435 73756270 		.ascii	"subpx\000"
 4019      7800
 4020              	.LASF53:
 4021 043b 6C765F63 		.ascii	"lv_color_t\000"
 4021      6F6C6F72 
 4021      5F7400
 4022              	.LASF0:
 4023 0446 5F5F696E 		.ascii	"__int8_t\000"
 4023      74385F74 
 4023      00
 4024              	.LASF131:
 4025 044f 6C765F73 		.ascii	"lv_style_transp\000"
 4025      74796C65 
 4025      5F747261 
 4025      6E737000 
 4026              	.LASF49:
 4027 045f 67726565 		.ascii	"green\000"
 4027      6E00
 4028              	.LASF39:
 4029 0465 4C565F4F 		.ascii	"LV_OPA_30\000"
ARM GAS  C:\Users\tmj32\AppData\Local\Temp\ccSL9kiF.s 			page 90


 4029      50415F33 
 4029      3000
 4030              	.LASF22:
 4031 046f 6C6F6E67 		.ascii	"long double\000"
 4031      20646F75 
 4031      626C6500 
 4032              	.LASF18:
 4033 047b 75696E74 		.ascii	"uint16_t\000"
 4033      31365F74 
 4033      00
 4034              	.LASF86:
 4035 0484 4C565F53 		.ascii	"LV_SHADOW_FULL\000"
 4035      4841444F 
 4035      575F4655 
 4035      4C4C00
 4036              	.LASF144:
 4037 0493 2E2E5C2E 		.ascii	"..\\..\\..\\lvgl\\version_6.1.2\\lvgl\\src\\lv_core"
 4037      2E5C2E2E 
 4037      5C6C7667 
 4037      6C5C7665 
 4037      7273696F 
 4038 04bf 5C6C765F 		.ascii	"\\lv_style.c\000"
 4038      7374796C 
 4038      652E6300 
 4039              	.LASF68:
 4040 04cb 72657065 		.ascii	"repeat_pause\000"
 4040      61745F70 
 4040      61757365 
 4040      00
 4041              	.LASF97:
 4042 04d8 67726164 		.ascii	"grad_color\000"
 4042      5F636F6C 
 4042      6F7200
 4043              	.LASF55:
 4044 04e3 73697A65 		.ascii	"sizetype\000"
 4044      74797065 
 4044      00
 4045              	.LASF34:
 4046 04ec 6C765F66 		.ascii	"lv_font_t\000"
 4046      6F6E745F 
 4046      7400
 4047              	.LASF104:
 4048 04f6 6C657474 		.ascii	"letter_space\000"
 4048      65725F73 
 4048      70616365 
 4048      00
 4049              	.LASF96:
 4050 0503 6D61696E 		.ascii	"main_color\000"
 4050      5F636F6C 
 4050      6F7200
 4051              	.LASF74:
 4052 050e 6C765F61 		.ascii	"lv_anim_path_cb_t\000"
 4052      6E696D5F 
 4052      70617468 
 4052      5F63625F 
 4052      7400
 4053              	.LASF5:
ARM GAS  C:\Users\tmj32\AppData\Local\Temp\ccSL9kiF.s 			page 91


 4054 0520 73686F72 		.ascii	"short int\000"
 4054      7420696E 
 4054      7400
 4055              	.LASF123:
 4056 052a 72617469 		.ascii	"ratio\000"
 4056      6F00
 4057              	.LASF54:
 4058 0530 6C765F6F 		.ascii	"lv_opa_t\000"
 4058      70615F74 
 4058      00
 4059              	.LASF72:
 4060 0539 706C6179 		.ascii	"playback_now\000"
 4060      6261636B 
 4060      5F6E6F77 
 4060      00
 4061              	.LASF80:
 4062 0546 4C565F42 		.ascii	"LV_BORDER_LEFT\000"
 4062      4F524445 
 4062      525F4C45 
 4062      465400
 4063              	.LASF9:
 4064 0555 6C6F6E67 		.ascii	"long int\000"
 4064      20696E74 
 4064      00
 4065              	.LASF40:
 4066 055e 4C565F4F 		.ascii	"LV_OPA_40\000"
 4066      50415F34 
 4066      3000
 4067              	.LASF118:
 4068 0568 6C765F63 		.ascii	"lv_color_mix\000"
 4068      6F6C6F72 
 4068      5F6D6978 
 4068      00
 4069              	.LASF48:
 4070 0575 626C7565 		.ascii	"blue\000"
 4070      00
 4071              	.LASF21:
 4072 057a 6C765F63 		.ascii	"lv_coord_t\000"
 4072      6F6F7264 
 4072      5F7400
 4073              	.LASF93:
 4074 0585 6C656674 		.ascii	"left\000"
 4074      00
 4075              	.LASF46:
 4076 058a 4C565F4F 		.ascii	"LV_OPA_100\000"
 4076      50415F31 
 4076      303000
 4077              	.LASF1:
 4078 0595 5F5F7569 		.ascii	"__uint8_t\000"
 4078      6E74385F 
 4078      7400
 4079              	.LASF41:
 4080 059f 4C565F4F 		.ascii	"LV_OPA_50\000"
 4080      50415F35 
 4080      3000
 4081              	.LASF64:
 4082 05a9 73746172 		.ascii	"start\000"
ARM GAS  C:\Users\tmj32\AppData\Local\Temp\ccSL9kiF.s 			page 92


 4082      7400
 4083              	.LASF132:
 4084 05af 6C765F73 		.ascii	"lv_style_transp_fit\000"
 4084      74796C65 
 4084      5F747261 
 4084      6E73705F 
 4084      66697400 
 4085              	.LASF25:
 4086 05c3 626F785F 		.ascii	"box_h\000"
 4086      6800
 4087              	.LASF103:
 4088 05c9 666F6E74 		.ascii	"font\000"
 4088      00
 4089              	.LASF24:
 4090 05ce 626F785F 		.ascii	"box_w\000"
 4090      7700
 4091              	.LASF129:
 4092 05d4 6C765F66 		.ascii	"lv_font_roboto_16\000"
 4092      6F6E745F 
 4092      726F626F 
 4092      746F5F31 
 4092      3600
 4093              	.LASF66:
 4094 05e6 6163745F 		.ascii	"act_time\000"
 4094      74696D65 
 4094      00
 4095              	.LASF11:
 4096 05ef 6C6F6E67 		.ascii	"long unsigned int\000"
 4096      20756E73 
 4096      69676E65 
 4096      6420696E 
 4096      7400
 4097              	.LASF128:
 4098 0601 7374796C 		.ascii	"style_animation_common_end_cb\000"
 4098      655F616E 
 4098      696D6174 
 4098      696F6E5F 
 4098      636F6D6D 
 4099              	.LASF106:
 4100 061f 696E7465 		.ascii	"intense\000"
 4100      6E736500 
 4101              	.LASF50:
 4102 0627 616C7068 		.ascii	"alpha\000"
 4102      6100
 4103              	.LASF19:
 4104 062d 696E7433 		.ascii	"int32_t\000"
 4104      325F7400 
 4105              	.LASF32:
 4106 0635 62617365 		.ascii	"base_line\000"
 4106      5F6C696E 
 4106      6500
 4107              	.LASF98:
 4108 063f 72616469 		.ascii	"radius\000"
 4108      757300
 4109              	.LASF109:
 4110 0646 626F6479 		.ascii	"body\000"
 4110      00
ARM GAS  C:\Users\tmj32\AppData\Local\Temp\ccSL9kiF.s 			page 93


 4111              	.LASF42:
 4112 064b 4C565F4F 		.ascii	"LV_OPA_60\000"
 4112      50415F36 
 4112      3000
 4113              	.LASF91:
 4114 0655 74797065 		.ascii	"type\000"
 4114      00
 4115              	.LASF3:
 4116 065a 756E7369 		.ascii	"unsigned char\000"
 4116      676E6564 
 4116      20636861 
 4116      7200
 4117              	.LASF10:
 4118 0668 5F5F7569 		.ascii	"__uint32_t\000"
 4118      6E743332 
 4118      5F7400
 4119              	.LASF112:
 4120 0673 6C696E65 		.ascii	"line\000"
 4120      00
 4121              	.LASF137:
 4122 0678 6C765F73 		.ascii	"lv_style_pretty_color\000"
 4122      74796C65 
 4122      5F707265 
 4122      7474795F 
 4122      636F6C6F 
 4123              	.LASF126:
 4124 068e 746F5F61 		.ascii	"to_anim\000"
 4124      6E696D00 
 4125              	.LASF30:
 4126 0696 6765745F 		.ascii	"get_glyph_bitmap\000"
 4126      676C7970 
 4126      685F6269 
 4126      746D6170 
 4126      00
 4127              	.LASF77:
 4128 06a7 4C565F42 		.ascii	"LV_BORDER_NONE\000"
 4128      4F524445 
 4128      525F4E4F 
 4128      4E4500
 4129              	.LASF43:
 4130 06b6 4C565F4F 		.ascii	"LV_OPA_70\000"
 4130      50415F37 
 4130      3000
 4131              	.LASF100:
 4132 06c0 73686164 		.ascii	"shadow\000"
 4132      6F7700
 4133              	.LASF2:
 4134 06c7 7369676E 		.ascii	"signed char\000"
 4134      65642063 
 4134      68617200 
 4135              	.LASF73:
 4136 06d3 6861735F 		.ascii	"has_run\000"
 4136      72756E00 
 4137              	.LASF7:
 4138 06db 73686F72 		.ascii	"short unsigned int\000"
 4138      7420756E 
 4138      7369676E 
ARM GAS  C:\Users\tmj32\AppData\Local\Temp\ccSL9kiF.s 			page 94


 4138      65642069 
 4138      6E7400
 4139              	.LASF130:
 4140 06ee 6C765F73 		.ascii	"lv_style_scr\000"
 4140      74796C65 
 4140      5F736372 
 4140      00
 4141              	.LASF44:
 4142 06fb 4C565F4F 		.ascii	"LV_OPA_80\000"
 4142      50415F38 
 4142      3000
 4143              	.LASF115:
 4144 0705 7374796C 		.ascii	"style_end\000"
 4144      655F656E 
 4144      6400
 4145              	.LASF122:
 4146 070f 6C765F73 		.ascii	"lv_style_mix\000"
 4146      74796C65 
 4146      5F6D6978 
 4146      00
 4147              	.LASF143:
 4148 071c 474E5520 		.ascii	"GNU C11 5.4.1 20160609 (release) [ARM/embedded-5-br"
 4148      43313120 
 4148      352E342E 
 4148      31203230 
 4148      31363036 
 4149 074f 616E6368 		.ascii	"anch revision 237715] -mcpu=cortex-m4 -mfloat-abi=s"
 4149      20726576 
 4149      6973696F 
 4149      6E203233 
 4149      37373135 
 4150 0782 6F667466 		.ascii	"oftfp -mfpu=fpv4-sp-d16 -mthumb -g -O0 -ffunction-s"
 4150      70202D6D 
 4150      6670753D 
 4150      66707634 
 4150      2D73702D 
 4151 07b5 65637469 		.ascii	"ections -ffat-lto-objects\000"
 4151      6F6E7320 
 4151      2D666661 
 4151      742D6C74 
 4151      6F2D6F62 
 4152              	.LASF84:
 4153 07cf 6C765F62 		.ascii	"lv_border_part_t\000"
 4153      6F726465 
 4153      725F7061 
 4153      72745F74 
 4153      00
 4154              	.LASF57:
 4155 07e0 6C765F61 		.ascii	"lv_anim_value_t\000"
 4155      6E696D5F 
 4155      76616C75 
 4155      655F7400 
 4156              	.LASF120:
 4157 07f0 64657374 		.ascii	"dest\000"
 4157      00
 4158              	.LASF121:
 4159 07f5 6C765F73 		.ascii	"lv_style_copy\000"
ARM GAS  C:\Users\tmj32\AppData\Local\Temp\ccSL9kiF.s 			page 95


 4159      74796C65 
 4159      5F636F70 
 4159      7900
 4160              	.LASF23:
 4161 0803 6164765F 		.ascii	"adv_w\000"
 4161      7700
 4162              		.ident	"GCC: (GNU Tools for ARM Embedded Processors) 5.4.1 20160609 (release) [ARM/embedded-5-bran
