ARM GAS  C:\Users\tmj32\AppData\Local\Temp\cc8DwYg3.s 			page 1


   1              		.syntax unified
   2              		.cpu cortex-m4
   3              		.eabi_attribute 27, 1
   4              		.fpu fpv4-sp-d16
   5              		.eabi_attribute 20, 1
   6              		.eabi_attribute 21, 1
   7              		.eabi_attribute 23, 3
   8              		.eabi_attribute 24, 1
   9              		.eabi_attribute 25, 1
  10              		.eabi_attribute 26, 1
  11              		.eabi_attribute 30, 6
  12              		.eabi_attribute 34, 1
  13              		.eabi_attribute 18, 4
  14              		.thumb
  15              		.syntax unified
  16              		.file	"lv_theme_material.c"
  17              		.text
  18              	.Ltext0:
  19              		.cfi_sections	.debug_frame
  20              		.section	.text.lv_color_make,"ax",%progbits
  21              		.align	2
  22              		.thumb
  23              		.thumb_func
  24              		.type	lv_color_make, %function
  25              	lv_color_make:
  26              	.LFB7:
  27              		.file 1 "..\\..\\..\\lvgl\\version_6.1.2\\lvgl\\src\\lv_themes\\../lv_core/../lv_misc/lv_color.h"
   1:..\..\..\lvgl\version_6.1.2\lvgl\src\lv_themes\../lv_core/../lv_misc/lv_color.h **** /**
   2:..\..\..\lvgl\version_6.1.2\lvgl\src\lv_themes\../lv_core/../lv_misc/lv_color.h ****  * @file lv_color.h
   3:..\..\..\lvgl\version_6.1.2\lvgl\src\lv_themes\../lv_core/../lv_misc/lv_color.h ****  *
   4:..\..\..\lvgl\version_6.1.2\lvgl\src\lv_themes\../lv_core/../lv_misc/lv_color.h ****  */
   5:..\..\..\lvgl\version_6.1.2\lvgl\src\lv_themes\../lv_core/../lv_misc/lv_color.h **** 
   6:..\..\..\lvgl\version_6.1.2\lvgl\src\lv_themes\../lv_core/../lv_misc/lv_color.h **** #ifndef LV_COLOR_H
   7:..\..\..\lvgl\version_6.1.2\lvgl\src\lv_themes\../lv_core/../lv_misc/lv_color.h **** #define LV_COLOR_H
   8:..\..\..\lvgl\version_6.1.2\lvgl\src\lv_themes\../lv_core/../lv_misc/lv_color.h **** 
   9:..\..\..\lvgl\version_6.1.2\lvgl\src\lv_themes\../lv_core/../lv_misc/lv_color.h **** #ifdef __cplusplus
  10:..\..\..\lvgl\version_6.1.2\lvgl\src\lv_themes\../lv_core/../lv_misc/lv_color.h **** extern "C" {
  11:..\..\..\lvgl\version_6.1.2\lvgl\src\lv_themes\../lv_core/../lv_misc/lv_color.h **** #endif
  12:..\..\..\lvgl\version_6.1.2\lvgl\src\lv_themes\../lv_core/../lv_misc/lv_color.h **** 
  13:..\..\..\lvgl\version_6.1.2\lvgl\src\lv_themes\../lv_core/../lv_misc/lv_color.h **** /*********************
  14:..\..\..\lvgl\version_6.1.2\lvgl\src\lv_themes\../lv_core/../lv_misc/lv_color.h ****  *      INCLUDES
  15:..\..\..\lvgl\version_6.1.2\lvgl\src\lv_themes\../lv_core/../lv_misc/lv_color.h ****  *********************/
  16:..\..\..\lvgl\version_6.1.2\lvgl\src\lv_themes\../lv_core/../lv_misc/lv_color.h **** #ifdef LV_CONF_INCLUDE_SIMPLE
  17:..\..\..\lvgl\version_6.1.2\lvgl\src\lv_themes\../lv_core/../lv_misc/lv_color.h **** #include "lv_conf.h"
  18:..\..\..\lvgl\version_6.1.2\lvgl\src\lv_themes\../lv_core/../lv_misc/lv_color.h **** #else
  19:..\..\..\lvgl\version_6.1.2\lvgl\src\lv_themes\../lv_core/../lv_misc/lv_color.h **** #include "../../../lv_conf.h"
  20:..\..\..\lvgl\version_6.1.2\lvgl\src\lv_themes\../lv_core/../lv_misc/lv_color.h **** #endif
  21:..\..\..\lvgl\version_6.1.2\lvgl\src\lv_themes\../lv_core/../lv_misc/lv_color.h **** 
  22:..\..\..\lvgl\version_6.1.2\lvgl\src\lv_themes\../lv_core/../lv_misc/lv_color.h **** /*Error checking*/
  23:..\..\..\lvgl\version_6.1.2\lvgl\src\lv_themes\../lv_core/../lv_misc/lv_color.h **** #if LV_COLOR_DEPTH == 24
  24:..\..\..\lvgl\version_6.1.2\lvgl\src\lv_themes\../lv_core/../lv_misc/lv_color.h **** #error "LV_COLOR_DEPTH  24 is deprecated. Use LV_COLOR_DEPTH  32 instead (lv_conf.h)"
  25:..\..\..\lvgl\version_6.1.2\lvgl\src\lv_themes\../lv_core/../lv_misc/lv_color.h **** #endif
  26:..\..\..\lvgl\version_6.1.2\lvgl\src\lv_themes\../lv_core/../lv_misc/lv_color.h **** 
  27:..\..\..\lvgl\version_6.1.2\lvgl\src\lv_themes\../lv_core/../lv_misc/lv_color.h **** #if LV_COLOR_DEPTH != 32 && LV_COLOR_SCREEN_TRANSP != 0
  28:..\..\..\lvgl\version_6.1.2\lvgl\src\lv_themes\../lv_core/../lv_misc/lv_color.h **** #error "LV_COLOR_SCREEN_TRANSP requires LV_COLOR_DEPTH == 32. Set it in lv_conf.h"
  29:..\..\..\lvgl\version_6.1.2\lvgl\src\lv_themes\../lv_core/../lv_misc/lv_color.h **** #endif
  30:..\..\..\lvgl\version_6.1.2\lvgl\src\lv_themes\../lv_core/../lv_misc/lv_color.h **** 
ARM GAS  C:\Users\tmj32\AppData\Local\Temp\cc8DwYg3.s 			page 2


  31:..\..\..\lvgl\version_6.1.2\lvgl\src\lv_themes\../lv_core/../lv_misc/lv_color.h **** #if LV_COLOR_DEPTH != 16 && LV_COLOR_16_SWAP != 0
  32:..\..\..\lvgl\version_6.1.2\lvgl\src\lv_themes\../lv_core/../lv_misc/lv_color.h **** #error "LV_COLOR_16_SWAP requires LV_COLOR_DEPTH == 16. Set it in lv_conf.h"
  33:..\..\..\lvgl\version_6.1.2\lvgl\src\lv_themes\../lv_core/../lv_misc/lv_color.h **** #endif
  34:..\..\..\lvgl\version_6.1.2\lvgl\src\lv_themes\../lv_core/../lv_misc/lv_color.h **** 
  35:..\..\..\lvgl\version_6.1.2\lvgl\src\lv_themes\../lv_core/../lv_misc/lv_color.h **** #include <stdint.h>
  36:..\..\..\lvgl\version_6.1.2\lvgl\src\lv_themes\../lv_core/../lv_misc/lv_color.h **** 
  37:..\..\..\lvgl\version_6.1.2\lvgl\src\lv_themes\../lv_core/../lv_misc/lv_color.h **** /*********************
  38:..\..\..\lvgl\version_6.1.2\lvgl\src\lv_themes\../lv_core/../lv_misc/lv_color.h ****  *      DEFINES
  39:..\..\..\lvgl\version_6.1.2\lvgl\src\lv_themes\../lv_core/../lv_misc/lv_color.h ****  *********************/
  40:..\..\..\lvgl\version_6.1.2\lvgl\src\lv_themes\../lv_core/../lv_misc/lv_color.h **** #define LV_COLOR_WHITE LV_COLOR_MAKE(0xFF, 0xFF, 0xFF)
  41:..\..\..\lvgl\version_6.1.2\lvgl\src\lv_themes\../lv_core/../lv_misc/lv_color.h **** #define LV_COLOR_SILVER LV_COLOR_MAKE(0xC0, 0xC0, 0xC0)
  42:..\..\..\lvgl\version_6.1.2\lvgl\src\lv_themes\../lv_core/../lv_misc/lv_color.h **** #define LV_COLOR_GRAY LV_COLOR_MAKE(0x80, 0x80, 0x80)
  43:..\..\..\lvgl\version_6.1.2\lvgl\src\lv_themes\../lv_core/../lv_misc/lv_color.h **** #define LV_COLOR_BLACK LV_COLOR_MAKE(0x00, 0x00, 0x00)
  44:..\..\..\lvgl\version_6.1.2\lvgl\src\lv_themes\../lv_core/../lv_misc/lv_color.h **** #define LV_COLOR_RED LV_COLOR_MAKE(0xFF, 0x00, 0x00)
  45:..\..\..\lvgl\version_6.1.2\lvgl\src\lv_themes\../lv_core/../lv_misc/lv_color.h **** #define LV_COLOR_MAROON LV_COLOR_MAKE(0x80, 0x00, 0x00)
  46:..\..\..\lvgl\version_6.1.2\lvgl\src\lv_themes\../lv_core/../lv_misc/lv_color.h **** #define LV_COLOR_YELLOW LV_COLOR_MAKE(0xFF, 0xFF, 0x00)
  47:..\..\..\lvgl\version_6.1.2\lvgl\src\lv_themes\../lv_core/../lv_misc/lv_color.h **** #define LV_COLOR_OLIVE LV_COLOR_MAKE(0x80, 0x80, 0x00)
  48:..\..\..\lvgl\version_6.1.2\lvgl\src\lv_themes\../lv_core/../lv_misc/lv_color.h **** #define LV_COLOR_LIME LV_COLOR_MAKE(0x00, 0xFF, 0x00)
  49:..\..\..\lvgl\version_6.1.2\lvgl\src\lv_themes\../lv_core/../lv_misc/lv_color.h **** #define LV_COLOR_GREEN LV_COLOR_MAKE(0x00, 0x80, 0x00)
  50:..\..\..\lvgl\version_6.1.2\lvgl\src\lv_themes\../lv_core/../lv_misc/lv_color.h **** #define LV_COLOR_CYAN LV_COLOR_MAKE(0x00, 0xFF, 0xFF)
  51:..\..\..\lvgl\version_6.1.2\lvgl\src\lv_themes\../lv_core/../lv_misc/lv_color.h **** #define LV_COLOR_AQUA LV_COLOR_CYAN
  52:..\..\..\lvgl\version_6.1.2\lvgl\src\lv_themes\../lv_core/../lv_misc/lv_color.h **** #define LV_COLOR_TEAL LV_COLOR_MAKE(0x00, 0x80, 0x80)
  53:..\..\..\lvgl\version_6.1.2\lvgl\src\lv_themes\../lv_core/../lv_misc/lv_color.h **** #define LV_COLOR_BLUE LV_COLOR_MAKE(0x00, 0x00, 0xFF)
  54:..\..\..\lvgl\version_6.1.2\lvgl\src\lv_themes\../lv_core/../lv_misc/lv_color.h **** #define LV_COLOR_NAVY LV_COLOR_MAKE(0x00, 0x00, 0x80)
  55:..\..\..\lvgl\version_6.1.2\lvgl\src\lv_themes\../lv_core/../lv_misc/lv_color.h **** #define LV_COLOR_MAGENTA LV_COLOR_MAKE(0xFF, 0x00, 0xFF)
  56:..\..\..\lvgl\version_6.1.2\lvgl\src\lv_themes\../lv_core/../lv_misc/lv_color.h **** #define LV_COLOR_PURPLE LV_COLOR_MAKE(0x80, 0x00, 0x80)
  57:..\..\..\lvgl\version_6.1.2\lvgl\src\lv_themes\../lv_core/../lv_misc/lv_color.h **** #define LV_COLOR_ORANGE LV_COLOR_MAKE(0xFF, 0xA5, 0x00)
  58:..\..\..\lvgl\version_6.1.2\lvgl\src\lv_themes\../lv_core/../lv_misc/lv_color.h **** 
  59:..\..\..\lvgl\version_6.1.2\lvgl\src\lv_themes\../lv_core/../lv_misc/lv_color.h **** /**
  60:..\..\..\lvgl\version_6.1.2\lvgl\src\lv_themes\../lv_core/../lv_misc/lv_color.h ****  * Opacity percentages.
  61:..\..\..\lvgl\version_6.1.2\lvgl\src\lv_themes\../lv_core/../lv_misc/lv_color.h ****  */
  62:..\..\..\lvgl\version_6.1.2\lvgl\src\lv_themes\../lv_core/../lv_misc/lv_color.h **** enum {
  63:..\..\..\lvgl\version_6.1.2\lvgl\src\lv_themes\../lv_core/../lv_misc/lv_color.h ****     LV_OPA_TRANSP = 0,
  64:..\..\..\lvgl\version_6.1.2\lvgl\src\lv_themes\../lv_core/../lv_misc/lv_color.h ****     LV_OPA_0      = 0,
  65:..\..\..\lvgl\version_6.1.2\lvgl\src\lv_themes\../lv_core/../lv_misc/lv_color.h ****     LV_OPA_10     = 25,
  66:..\..\..\lvgl\version_6.1.2\lvgl\src\lv_themes\../lv_core/../lv_misc/lv_color.h ****     LV_OPA_20     = 51,
  67:..\..\..\lvgl\version_6.1.2\lvgl\src\lv_themes\../lv_core/../lv_misc/lv_color.h ****     LV_OPA_30     = 76,
  68:..\..\..\lvgl\version_6.1.2\lvgl\src\lv_themes\../lv_core/../lv_misc/lv_color.h ****     LV_OPA_40     = 102,
  69:..\..\..\lvgl\version_6.1.2\lvgl\src\lv_themes\../lv_core/../lv_misc/lv_color.h ****     LV_OPA_50     = 127,
  70:..\..\..\lvgl\version_6.1.2\lvgl\src\lv_themes\../lv_core/../lv_misc/lv_color.h ****     LV_OPA_60     = 153,
  71:..\..\..\lvgl\version_6.1.2\lvgl\src\lv_themes\../lv_core/../lv_misc/lv_color.h ****     LV_OPA_70     = 178,
  72:..\..\..\lvgl\version_6.1.2\lvgl\src\lv_themes\../lv_core/../lv_misc/lv_color.h ****     LV_OPA_80     = 204,
  73:..\..\..\lvgl\version_6.1.2\lvgl\src\lv_themes\../lv_core/../lv_misc/lv_color.h ****     LV_OPA_90     = 229,
  74:..\..\..\lvgl\version_6.1.2\lvgl\src\lv_themes\../lv_core/../lv_misc/lv_color.h ****     LV_OPA_100    = 255,
  75:..\..\..\lvgl\version_6.1.2\lvgl\src\lv_themes\../lv_core/../lv_misc/lv_color.h ****     LV_OPA_COVER  = 255,
  76:..\..\..\lvgl\version_6.1.2\lvgl\src\lv_themes\../lv_core/../lv_misc/lv_color.h **** };
  77:..\..\..\lvgl\version_6.1.2\lvgl\src\lv_themes\../lv_core/../lv_misc/lv_color.h **** 
  78:..\..\..\lvgl\version_6.1.2\lvgl\src\lv_themes\../lv_core/../lv_misc/lv_color.h **** #define LV_OPA_MIN 16  /*Opacities below this will be transparent*/
  79:..\..\..\lvgl\version_6.1.2\lvgl\src\lv_themes\../lv_core/../lv_misc/lv_color.h **** #define LV_OPA_MAX 251 /*Opacities above this will fully cover*/
  80:..\..\..\lvgl\version_6.1.2\lvgl\src\lv_themes\../lv_core/../lv_misc/lv_color.h **** 
  81:..\..\..\lvgl\version_6.1.2\lvgl\src\lv_themes\../lv_core/../lv_misc/lv_color.h **** #if LV_COLOR_DEPTH == 1
  82:..\..\..\lvgl\version_6.1.2\lvgl\src\lv_themes\../lv_core/../lv_misc/lv_color.h **** #define LV_COLOR_SIZE 8
  83:..\..\..\lvgl\version_6.1.2\lvgl\src\lv_themes\../lv_core/../lv_misc/lv_color.h **** #elif LV_COLOR_DEPTH == 8
  84:..\..\..\lvgl\version_6.1.2\lvgl\src\lv_themes\../lv_core/../lv_misc/lv_color.h **** #define LV_COLOR_SIZE 8
  85:..\..\..\lvgl\version_6.1.2\lvgl\src\lv_themes\../lv_core/../lv_misc/lv_color.h **** #elif LV_COLOR_DEPTH == 16
  86:..\..\..\lvgl\version_6.1.2\lvgl\src\lv_themes\../lv_core/../lv_misc/lv_color.h **** #define LV_COLOR_SIZE 16
  87:..\..\..\lvgl\version_6.1.2\lvgl\src\lv_themes\../lv_core/../lv_misc/lv_color.h **** #elif LV_COLOR_DEPTH == 32
ARM GAS  C:\Users\tmj32\AppData\Local\Temp\cc8DwYg3.s 			page 3


  88:..\..\..\lvgl\version_6.1.2\lvgl\src\lv_themes\../lv_core/../lv_misc/lv_color.h **** #define LV_COLOR_SIZE 32
  89:..\..\..\lvgl\version_6.1.2\lvgl\src\lv_themes\../lv_core/../lv_misc/lv_color.h **** #else
  90:..\..\..\lvgl\version_6.1.2\lvgl\src\lv_themes\../lv_core/../lv_misc/lv_color.h **** #error "Invalid LV_COLOR_DEPTH in lv_conf.h! Set it to 1, 8, 16 or 32!"
  91:..\..\..\lvgl\version_6.1.2\lvgl\src\lv_themes\../lv_core/../lv_misc/lv_color.h **** #endif
  92:..\..\..\lvgl\version_6.1.2\lvgl\src\lv_themes\../lv_core/../lv_misc/lv_color.h **** 
  93:..\..\..\lvgl\version_6.1.2\lvgl\src\lv_themes\../lv_core/../lv_misc/lv_color.h **** /*---------------------------------------
  94:..\..\..\lvgl\version_6.1.2\lvgl\src\lv_themes\../lv_core/../lv_misc/lv_color.h ****  * Macros for all existing  color depths
  95:..\..\..\lvgl\version_6.1.2\lvgl\src\lv_themes\../lv_core/../lv_misc/lv_color.h ****  * to set/get values of the color channels
  96:..\..\..\lvgl\version_6.1.2\lvgl\src\lv_themes\../lv_core/../lv_misc/lv_color.h ****  *------------------------------------------*/
  97:..\..\..\lvgl\version_6.1.2\lvgl\src\lv_themes\../lv_core/../lv_misc/lv_color.h **** # define LV_COLOR_SET_R1(c, v) (c).ch.red = (uint8_t)((v) & 0x1);
  98:..\..\..\lvgl\version_6.1.2\lvgl\src\lv_themes\../lv_core/../lv_misc/lv_color.h **** # define LV_COLOR_SET_G1(c, v) (c).ch.green = (uint8_t)((v) & 0x1);
  99:..\..\..\lvgl\version_6.1.2\lvgl\src\lv_themes\../lv_core/../lv_misc/lv_color.h **** # define LV_COLOR_SET_B1(c, v) (c).ch.blue = (uint8_t)((v) & 0x1);
 100:..\..\..\lvgl\version_6.1.2\lvgl\src\lv_themes\../lv_core/../lv_misc/lv_color.h **** # define LV_COLOR_SET_A1(c, v)
 101:..\..\..\lvgl\version_6.1.2\lvgl\src\lv_themes\../lv_core/../lv_misc/lv_color.h **** 
 102:..\..\..\lvgl\version_6.1.2\lvgl\src\lv_themes\../lv_core/../lv_misc/lv_color.h **** # define LV_COLOR_GET_R1(c) (c).ch.red
 103:..\..\..\lvgl\version_6.1.2\lvgl\src\lv_themes\../lv_core/../lv_misc/lv_color.h **** # define LV_COLOR_GET_G1(c) (c).ch.green
 104:..\..\..\lvgl\version_6.1.2\lvgl\src\lv_themes\../lv_core/../lv_misc/lv_color.h **** # define LV_COLOR_GET_B1(c) (c).ch.blue
 105:..\..\..\lvgl\version_6.1.2\lvgl\src\lv_themes\../lv_core/../lv_misc/lv_color.h **** # define LV_COLOR_GET_A1(c) 1
 106:..\..\..\lvgl\version_6.1.2\lvgl\src\lv_themes\../lv_core/../lv_misc/lv_color.h **** 
 107:..\..\..\lvgl\version_6.1.2\lvgl\src\lv_themes\../lv_core/../lv_misc/lv_color.h **** # define LV_COLOR_SET_R8(c, v) (c).ch.red = (uint8_t)(v) & 0x7U;
 108:..\..\..\lvgl\version_6.1.2\lvgl\src\lv_themes\../lv_core/../lv_misc/lv_color.h **** # define LV_COLOR_SET_G8(c, v) (c).ch.green = (uint8_t)(v) & 0x7U;
 109:..\..\..\lvgl\version_6.1.2\lvgl\src\lv_themes\../lv_core/../lv_misc/lv_color.h **** # define LV_COLOR_SET_B8(c, v) (c).ch.blue = (uint8_t)(v) & 0x3U;
 110:..\..\..\lvgl\version_6.1.2\lvgl\src\lv_themes\../lv_core/../lv_misc/lv_color.h **** # define LV_COLOR_SET_A8(c, v) do {} while(0)
 111:..\..\..\lvgl\version_6.1.2\lvgl\src\lv_themes\../lv_core/../lv_misc/lv_color.h **** 
 112:..\..\..\lvgl\version_6.1.2\lvgl\src\lv_themes\../lv_core/../lv_misc/lv_color.h **** # define LV_COLOR_GET_R8(c) (c).ch.red
 113:..\..\..\lvgl\version_6.1.2\lvgl\src\lv_themes\../lv_core/../lv_misc/lv_color.h **** # define LV_COLOR_GET_G8(c) (c).ch.green
 114:..\..\..\lvgl\version_6.1.2\lvgl\src\lv_themes\../lv_core/../lv_misc/lv_color.h **** # define LV_COLOR_GET_B8(c) (c).ch.blue
 115:..\..\..\lvgl\version_6.1.2\lvgl\src\lv_themes\../lv_core/../lv_misc/lv_color.h **** # define LV_COLOR_GET_A8(c) 0xFF
 116:..\..\..\lvgl\version_6.1.2\lvgl\src\lv_themes\../lv_core/../lv_misc/lv_color.h **** 
 117:..\..\..\lvgl\version_6.1.2\lvgl\src\lv_themes\../lv_core/../lv_misc/lv_color.h **** # define LV_COLOR_SET_R16(c, v) (c).ch.red = (uint8_t)(v) & 0x1FU;
 118:..\..\..\lvgl\version_6.1.2\lvgl\src\lv_themes\../lv_core/../lv_misc/lv_color.h **** # define LV_COLOR_SET_G16(c, v) (c).ch.green = (uint8_t)(v) & 0x3FU;
 119:..\..\..\lvgl\version_6.1.2\lvgl\src\lv_themes\../lv_core/../lv_misc/lv_color.h **** # define LV_COLOR_SET_G16_SWAP(c, v) {(c).ch.green_h = (uint8_t)(((v) >> 3) & 0x7); (c).ch.green_l 
 120:..\..\..\lvgl\version_6.1.2\lvgl\src\lv_themes\../lv_core/../lv_misc/lv_color.h **** # define LV_COLOR_SET_B16(c, v) (c).ch.blue = (uint8_t)(v) & 0x1FU;
 121:..\..\..\lvgl\version_6.1.2\lvgl\src\lv_themes\../lv_core/../lv_misc/lv_color.h **** # define LV_COLOR_SET_A16(c, v) do {} while(0)
 122:..\..\..\lvgl\version_6.1.2\lvgl\src\lv_themes\../lv_core/../lv_misc/lv_color.h **** 
 123:..\..\..\lvgl\version_6.1.2\lvgl\src\lv_themes\../lv_core/../lv_misc/lv_color.h **** # define LV_COLOR_GET_R16(c) (c).ch.red
 124:..\..\..\lvgl\version_6.1.2\lvgl\src\lv_themes\../lv_core/../lv_misc/lv_color.h **** # define LV_COLOR_GET_G16(c) (c).ch.green
 125:..\..\..\lvgl\version_6.1.2\lvgl\src\lv_themes\../lv_core/../lv_misc/lv_color.h **** # define LV_COLOR_GET_G16_SWAP(c) (((c).ch.green_h << 3) + (c).ch.green_l)
 126:..\..\..\lvgl\version_6.1.2\lvgl\src\lv_themes\../lv_core/../lv_misc/lv_color.h **** # define LV_COLOR_GET_B16(c) (c).ch.blue
 127:..\..\..\lvgl\version_6.1.2\lvgl\src\lv_themes\../lv_core/../lv_misc/lv_color.h **** # define LV_COLOR_GET_A16(c) 0xFF
 128:..\..\..\lvgl\version_6.1.2\lvgl\src\lv_themes\../lv_core/../lv_misc/lv_color.h **** 
 129:..\..\..\lvgl\version_6.1.2\lvgl\src\lv_themes\../lv_core/../lv_misc/lv_color.h **** # define LV_COLOR_SET_R32(c, v) (c).ch.red = (uint32_t)((v) & 0xFF);
 130:..\..\..\lvgl\version_6.1.2\lvgl\src\lv_themes\../lv_core/../lv_misc/lv_color.h **** # define LV_COLOR_SET_G32(c, v) (c).ch.green = (uint32_t)((v) & 0xFF);
 131:..\..\..\lvgl\version_6.1.2\lvgl\src\lv_themes\../lv_core/../lv_misc/lv_color.h **** # define LV_COLOR_SET_B32(c, v) (c).ch.blue = (uint32_t)((v) & 0xFF);
 132:..\..\..\lvgl\version_6.1.2\lvgl\src\lv_themes\../lv_core/../lv_misc/lv_color.h **** # define LV_COLOR_SET_A32(c, v) (c).ch.alpha = (uint32_t)((v) & 0xFF);
 133:..\..\..\lvgl\version_6.1.2\lvgl\src\lv_themes\../lv_core/../lv_misc/lv_color.h **** 
 134:..\..\..\lvgl\version_6.1.2\lvgl\src\lv_themes\../lv_core/../lv_misc/lv_color.h **** # define LV_COLOR_GET_R32(c) (c).ch.red
 135:..\..\..\lvgl\version_6.1.2\lvgl\src\lv_themes\../lv_core/../lv_misc/lv_color.h **** # define LV_COLOR_GET_G32(c) (c).ch.green
 136:..\..\..\lvgl\version_6.1.2\lvgl\src\lv_themes\../lv_core/../lv_misc/lv_color.h **** # define LV_COLOR_GET_B32(c) (c).ch.blue
 137:..\..\..\lvgl\version_6.1.2\lvgl\src\lv_themes\../lv_core/../lv_misc/lv_color.h **** # define LV_COLOR_GET_A32(c) (c).ch.alpha
 138:..\..\..\lvgl\version_6.1.2\lvgl\src\lv_themes\../lv_core/../lv_misc/lv_color.h **** 
 139:..\..\..\lvgl\version_6.1.2\lvgl\src\lv_themes\../lv_core/../lv_misc/lv_color.h **** 
 140:..\..\..\lvgl\version_6.1.2\lvgl\src\lv_themes\../lv_core/../lv_misc/lv_color.h **** /*---------------------------------------
 141:..\..\..\lvgl\version_6.1.2\lvgl\src\lv_themes\../lv_core/../lv_misc/lv_color.h ****  * Macros for the current color depth
 142:..\..\..\lvgl\version_6.1.2\lvgl\src\lv_themes\../lv_core/../lv_misc/lv_color.h ****  * to set/get values of the color channels
 143:..\..\..\lvgl\version_6.1.2\lvgl\src\lv_themes\../lv_core/../lv_misc/lv_color.h ****  *------------------------------------------*/
 144:..\..\..\lvgl\version_6.1.2\lvgl\src\lv_themes\../lv_core/../lv_misc/lv_color.h **** #if LV_COLOR_DEPTH == 1
ARM GAS  C:\Users\tmj32\AppData\Local\Temp\cc8DwYg3.s 			page 4


 145:..\..\..\lvgl\version_6.1.2\lvgl\src\lv_themes\../lv_core/../lv_misc/lv_color.h **** # define LV_COLOR_SET_R(c, v) LV_COLOR_SET_R1(c,v)
 146:..\..\..\lvgl\version_6.1.2\lvgl\src\lv_themes\../lv_core/../lv_misc/lv_color.h **** # define LV_COLOR_SET_G(c, v) LV_COLOR_SET_G1(c,v)
 147:..\..\..\lvgl\version_6.1.2\lvgl\src\lv_themes\../lv_core/../lv_misc/lv_color.h **** # define LV_COLOR_SET_B(c, v) LV_COLOR_SET_B1(c,v)
 148:..\..\..\lvgl\version_6.1.2\lvgl\src\lv_themes\../lv_core/../lv_misc/lv_color.h **** # define LV_COLOR_SET_A(c, v) LV_COLOR_SET_A1(c,v)
 149:..\..\..\lvgl\version_6.1.2\lvgl\src\lv_themes\../lv_core/../lv_misc/lv_color.h **** 
 150:..\..\..\lvgl\version_6.1.2\lvgl\src\lv_themes\../lv_core/../lv_misc/lv_color.h **** # define LV_COLOR_GET_R(c) LV_COLOR_GET_R1(c)
 151:..\..\..\lvgl\version_6.1.2\lvgl\src\lv_themes\../lv_core/../lv_misc/lv_color.h **** # define LV_COLOR_GET_G(c) LV_COLOR_GET_G1(c)
 152:..\..\..\lvgl\version_6.1.2\lvgl\src\lv_themes\../lv_core/../lv_misc/lv_color.h **** # define LV_COLOR_GET_B(c) LV_COLOR_GET_B1(c)
 153:..\..\..\lvgl\version_6.1.2\lvgl\src\lv_themes\../lv_core/../lv_misc/lv_color.h **** # define LV_COLOR_GET_A(c) LV_COLOR_GET_A1(c)
 154:..\..\..\lvgl\version_6.1.2\lvgl\src\lv_themes\../lv_core/../lv_misc/lv_color.h **** 
 155:..\..\..\lvgl\version_6.1.2\lvgl\src\lv_themes\../lv_core/../lv_misc/lv_color.h **** #elif LV_COLOR_DEPTH == 8
 156:..\..\..\lvgl\version_6.1.2\lvgl\src\lv_themes\../lv_core/../lv_misc/lv_color.h **** # define LV_COLOR_SET_R(c, v) LV_COLOR_SET_R8(c,v)
 157:..\..\..\lvgl\version_6.1.2\lvgl\src\lv_themes\../lv_core/../lv_misc/lv_color.h **** # define LV_COLOR_SET_G(c, v) LV_COLOR_SET_G8(c,v)
 158:..\..\..\lvgl\version_6.1.2\lvgl\src\lv_themes\../lv_core/../lv_misc/lv_color.h **** # define LV_COLOR_SET_B(c, v) LV_COLOR_SET_B8(c,v)
 159:..\..\..\lvgl\version_6.1.2\lvgl\src\lv_themes\../lv_core/../lv_misc/lv_color.h **** # define LV_COLOR_SET_A(c, v) LV_COLOR_SET_A8(c,v)
 160:..\..\..\lvgl\version_6.1.2\lvgl\src\lv_themes\../lv_core/../lv_misc/lv_color.h **** 
 161:..\..\..\lvgl\version_6.1.2\lvgl\src\lv_themes\../lv_core/../lv_misc/lv_color.h **** # define LV_COLOR_GET_R(c) LV_COLOR_GET_R8(c)
 162:..\..\..\lvgl\version_6.1.2\lvgl\src\lv_themes\../lv_core/../lv_misc/lv_color.h **** # define LV_COLOR_GET_G(c) LV_COLOR_GET_G8(c)
 163:..\..\..\lvgl\version_6.1.2\lvgl\src\lv_themes\../lv_core/../lv_misc/lv_color.h **** # define LV_COLOR_GET_B(c) LV_COLOR_GET_B8(c)
 164:..\..\..\lvgl\version_6.1.2\lvgl\src\lv_themes\../lv_core/../lv_misc/lv_color.h **** # define LV_COLOR_GET_A(c) LV_COLOR_GET_A8(c)
 165:..\..\..\lvgl\version_6.1.2\lvgl\src\lv_themes\../lv_core/../lv_misc/lv_color.h **** 
 166:..\..\..\lvgl\version_6.1.2\lvgl\src\lv_themes\../lv_core/../lv_misc/lv_color.h **** #elif LV_COLOR_DEPTH == 16
 167:..\..\..\lvgl\version_6.1.2\lvgl\src\lv_themes\../lv_core/../lv_misc/lv_color.h **** # define LV_COLOR_SET_R(c, v) LV_COLOR_SET_R16(c,v)
 168:..\..\..\lvgl\version_6.1.2\lvgl\src\lv_themes\../lv_core/../lv_misc/lv_color.h **** # if LV_COLOR_16_SWAP == 0
 169:..\..\..\lvgl\version_6.1.2\lvgl\src\lv_themes\../lv_core/../lv_misc/lv_color.h **** #   define LV_COLOR_SET_G(c, v) LV_COLOR_SET_G16(c,v)
 170:..\..\..\lvgl\version_6.1.2\lvgl\src\lv_themes\../lv_core/../lv_misc/lv_color.h **** # else
 171:..\..\..\lvgl\version_6.1.2\lvgl\src\lv_themes\../lv_core/../lv_misc/lv_color.h **** #   define LV_COLOR_SET_G(c, v) LV_COLOR_SET_G16_SWAP(c,v)
 172:..\..\..\lvgl\version_6.1.2\lvgl\src\lv_themes\../lv_core/../lv_misc/lv_color.h **** # endif
 173:..\..\..\lvgl\version_6.1.2\lvgl\src\lv_themes\../lv_core/../lv_misc/lv_color.h **** # define LV_COLOR_SET_B(c, v) LV_COLOR_SET_B16(c,v)
 174:..\..\..\lvgl\version_6.1.2\lvgl\src\lv_themes\../lv_core/../lv_misc/lv_color.h **** # define LV_COLOR_SET_A(c, v) LV_COLOR_SET_A16(c,v)
 175:..\..\..\lvgl\version_6.1.2\lvgl\src\lv_themes\../lv_core/../lv_misc/lv_color.h **** 
 176:..\..\..\lvgl\version_6.1.2\lvgl\src\lv_themes\../lv_core/../lv_misc/lv_color.h **** # define LV_COLOR_GET_R(c) LV_COLOR_GET_R16(c)
 177:..\..\..\lvgl\version_6.1.2\lvgl\src\lv_themes\../lv_core/../lv_misc/lv_color.h **** # if LV_COLOR_16_SWAP == 0
 178:..\..\..\lvgl\version_6.1.2\lvgl\src\lv_themes\../lv_core/../lv_misc/lv_color.h **** #   define LV_COLOR_GET_G(c) LV_COLOR_GET_G16(c)
 179:..\..\..\lvgl\version_6.1.2\lvgl\src\lv_themes\../lv_core/../lv_misc/lv_color.h **** # else
 180:..\..\..\lvgl\version_6.1.2\lvgl\src\lv_themes\../lv_core/../lv_misc/lv_color.h **** #   define LV_COLOR_GET_G(c) LV_COLOR_GET_G16_SWAP(c)
 181:..\..\..\lvgl\version_6.1.2\lvgl\src\lv_themes\../lv_core/../lv_misc/lv_color.h **** # endif
 182:..\..\..\lvgl\version_6.1.2\lvgl\src\lv_themes\../lv_core/../lv_misc/lv_color.h **** # define LV_COLOR_GET_B(c)   LV_COLOR_GET_B16(c)
 183:..\..\..\lvgl\version_6.1.2\lvgl\src\lv_themes\../lv_core/../lv_misc/lv_color.h **** # define LV_COLOR_GET_A(c)   LV_COLOR_GET_A16(c)
 184:..\..\..\lvgl\version_6.1.2\lvgl\src\lv_themes\../lv_core/../lv_misc/lv_color.h **** 
 185:..\..\..\lvgl\version_6.1.2\lvgl\src\lv_themes\../lv_core/../lv_misc/lv_color.h **** #elif LV_COLOR_DEPTH == 32
 186:..\..\..\lvgl\version_6.1.2\lvgl\src\lv_themes\../lv_core/../lv_misc/lv_color.h **** # define LV_COLOR_SET_R(c, v) LV_COLOR_SET_R32(c,v)
 187:..\..\..\lvgl\version_6.1.2\lvgl\src\lv_themes\../lv_core/../lv_misc/lv_color.h **** # define LV_COLOR_SET_G(c, v) LV_COLOR_SET_G32(c,v)
 188:..\..\..\lvgl\version_6.1.2\lvgl\src\lv_themes\../lv_core/../lv_misc/lv_color.h **** # define LV_COLOR_SET_B(c, v) LV_COLOR_SET_B32(c,v)
 189:..\..\..\lvgl\version_6.1.2\lvgl\src\lv_themes\../lv_core/../lv_misc/lv_color.h **** # define LV_COLOR_SET_A(c, v) LV_COLOR_SET_A32(c,v)
 190:..\..\..\lvgl\version_6.1.2\lvgl\src\lv_themes\../lv_core/../lv_misc/lv_color.h **** 
 191:..\..\..\lvgl\version_6.1.2\lvgl\src\lv_themes\../lv_core/../lv_misc/lv_color.h **** # define LV_COLOR_GET_R(c) LV_COLOR_GET_R32(c)
 192:..\..\..\lvgl\version_6.1.2\lvgl\src\lv_themes\../lv_core/../lv_misc/lv_color.h **** # define LV_COLOR_GET_G(c) LV_COLOR_GET_G32(c)
 193:..\..\..\lvgl\version_6.1.2\lvgl\src\lv_themes\../lv_core/../lv_misc/lv_color.h **** # define LV_COLOR_GET_B(c) LV_COLOR_GET_B32(c)
 194:..\..\..\lvgl\version_6.1.2\lvgl\src\lv_themes\../lv_core/../lv_misc/lv_color.h **** # define LV_COLOR_GET_A(c) LV_COLOR_GET_A32(c)
 195:..\..\..\lvgl\version_6.1.2\lvgl\src\lv_themes\../lv_core/../lv_misc/lv_color.h **** #endif
 196:..\..\..\lvgl\version_6.1.2\lvgl\src\lv_themes\../lv_core/../lv_misc/lv_color.h **** 
 197:..\..\..\lvgl\version_6.1.2\lvgl\src\lv_themes\../lv_core/../lv_misc/lv_color.h **** /**********************
 198:..\..\..\lvgl\version_6.1.2\lvgl\src\lv_themes\../lv_core/../lv_misc/lv_color.h ****  *      TYPEDEFS
 199:..\..\..\lvgl\version_6.1.2\lvgl\src\lv_themes\../lv_core/../lv_misc/lv_color.h ****  **********************/
 200:..\..\..\lvgl\version_6.1.2\lvgl\src\lv_themes\../lv_core/../lv_misc/lv_color.h **** 
 201:..\..\..\lvgl\version_6.1.2\lvgl\src\lv_themes\../lv_core/../lv_misc/lv_color.h **** typedef union
ARM GAS  C:\Users\tmj32\AppData\Local\Temp\cc8DwYg3.s 			page 5


 202:..\..\..\lvgl\version_6.1.2\lvgl\src\lv_themes\../lv_core/../lv_misc/lv_color.h **** {
 203:..\..\..\lvgl\version_6.1.2\lvgl\src\lv_themes\../lv_core/../lv_misc/lv_color.h ****     struct
 204:..\..\..\lvgl\version_6.1.2\lvgl\src\lv_themes\../lv_core/../lv_misc/lv_color.h ****     {
 205:..\..\..\lvgl\version_6.1.2\lvgl\src\lv_themes\../lv_core/../lv_misc/lv_color.h ****         uint8_t blue : 1;
 206:..\..\..\lvgl\version_6.1.2\lvgl\src\lv_themes\../lv_core/../lv_misc/lv_color.h ****         uint8_t green : 1;
 207:..\..\..\lvgl\version_6.1.2\lvgl\src\lv_themes\../lv_core/../lv_misc/lv_color.h ****         uint8_t red : 1;
 208:..\..\..\lvgl\version_6.1.2\lvgl\src\lv_themes\../lv_core/../lv_misc/lv_color.h ****     } ch;
 209:..\..\..\lvgl\version_6.1.2\lvgl\src\lv_themes\../lv_core/../lv_misc/lv_color.h ****     uint8_t full;
 210:..\..\..\lvgl\version_6.1.2\lvgl\src\lv_themes\../lv_core/../lv_misc/lv_color.h **** } lv_color1_t;
 211:..\..\..\lvgl\version_6.1.2\lvgl\src\lv_themes\../lv_core/../lv_misc/lv_color.h **** 
 212:..\..\..\lvgl\version_6.1.2\lvgl\src\lv_themes\../lv_core/../lv_misc/lv_color.h **** typedef union
 213:..\..\..\lvgl\version_6.1.2\lvgl\src\lv_themes\../lv_core/../lv_misc/lv_color.h **** {
 214:..\..\..\lvgl\version_6.1.2\lvgl\src\lv_themes\../lv_core/../lv_misc/lv_color.h ****     struct
 215:..\..\..\lvgl\version_6.1.2\lvgl\src\lv_themes\../lv_core/../lv_misc/lv_color.h ****     {
 216:..\..\..\lvgl\version_6.1.2\lvgl\src\lv_themes\../lv_core/../lv_misc/lv_color.h ****         uint8_t blue : 2;
 217:..\..\..\lvgl\version_6.1.2\lvgl\src\lv_themes\../lv_core/../lv_misc/lv_color.h ****         uint8_t green : 3;
 218:..\..\..\lvgl\version_6.1.2\lvgl\src\lv_themes\../lv_core/../lv_misc/lv_color.h ****         uint8_t red : 3;
 219:..\..\..\lvgl\version_6.1.2\lvgl\src\lv_themes\../lv_core/../lv_misc/lv_color.h ****     } ch;
 220:..\..\..\lvgl\version_6.1.2\lvgl\src\lv_themes\../lv_core/../lv_misc/lv_color.h ****     uint8_t full;
 221:..\..\..\lvgl\version_6.1.2\lvgl\src\lv_themes\../lv_core/../lv_misc/lv_color.h **** } lv_color8_t;
 222:..\..\..\lvgl\version_6.1.2\lvgl\src\lv_themes\../lv_core/../lv_misc/lv_color.h **** 
 223:..\..\..\lvgl\version_6.1.2\lvgl\src\lv_themes\../lv_core/../lv_misc/lv_color.h **** typedef union
 224:..\..\..\lvgl\version_6.1.2\lvgl\src\lv_themes\../lv_core/../lv_misc/lv_color.h **** {
 225:..\..\..\lvgl\version_6.1.2\lvgl\src\lv_themes\../lv_core/../lv_misc/lv_color.h ****     struct
 226:..\..\..\lvgl\version_6.1.2\lvgl\src\lv_themes\../lv_core/../lv_misc/lv_color.h ****     {
 227:..\..\..\lvgl\version_6.1.2\lvgl\src\lv_themes\../lv_core/../lv_misc/lv_color.h **** #if LV_COLOR_16_SWAP == 0
 228:..\..\..\lvgl\version_6.1.2\lvgl\src\lv_themes\../lv_core/../lv_misc/lv_color.h ****         uint16_t blue : 5;
 229:..\..\..\lvgl\version_6.1.2\lvgl\src\lv_themes\../lv_core/../lv_misc/lv_color.h ****         uint16_t green : 6;
 230:..\..\..\lvgl\version_6.1.2\lvgl\src\lv_themes\../lv_core/../lv_misc/lv_color.h ****         uint16_t red : 5;
 231:..\..\..\lvgl\version_6.1.2\lvgl\src\lv_themes\../lv_core/../lv_misc/lv_color.h **** #else
 232:..\..\..\lvgl\version_6.1.2\lvgl\src\lv_themes\../lv_core/../lv_misc/lv_color.h ****         uint16_t green_h : 3;
 233:..\..\..\lvgl\version_6.1.2\lvgl\src\lv_themes\../lv_core/../lv_misc/lv_color.h ****         uint16_t red : 5;
 234:..\..\..\lvgl\version_6.1.2\lvgl\src\lv_themes\../lv_core/../lv_misc/lv_color.h ****         uint16_t blue : 5;
 235:..\..\..\lvgl\version_6.1.2\lvgl\src\lv_themes\../lv_core/../lv_misc/lv_color.h ****         uint16_t green_l : 3;
 236:..\..\..\lvgl\version_6.1.2\lvgl\src\lv_themes\../lv_core/../lv_misc/lv_color.h **** #endif
 237:..\..\..\lvgl\version_6.1.2\lvgl\src\lv_themes\../lv_core/../lv_misc/lv_color.h ****     } ch;
 238:..\..\..\lvgl\version_6.1.2\lvgl\src\lv_themes\../lv_core/../lv_misc/lv_color.h ****     uint16_t full;
 239:..\..\..\lvgl\version_6.1.2\lvgl\src\lv_themes\../lv_core/../lv_misc/lv_color.h **** } lv_color16_t;
 240:..\..\..\lvgl\version_6.1.2\lvgl\src\lv_themes\../lv_core/../lv_misc/lv_color.h **** 
 241:..\..\..\lvgl\version_6.1.2\lvgl\src\lv_themes\../lv_core/../lv_misc/lv_color.h **** typedef union
 242:..\..\..\lvgl\version_6.1.2\lvgl\src\lv_themes\../lv_core/../lv_misc/lv_color.h **** {
 243:..\..\..\lvgl\version_6.1.2\lvgl\src\lv_themes\../lv_core/../lv_misc/lv_color.h ****     struct
 244:..\..\..\lvgl\version_6.1.2\lvgl\src\lv_themes\../lv_core/../lv_misc/lv_color.h ****     {
 245:..\..\..\lvgl\version_6.1.2\lvgl\src\lv_themes\../lv_core/../lv_misc/lv_color.h ****         uint8_t blue;
 246:..\..\..\lvgl\version_6.1.2\lvgl\src\lv_themes\../lv_core/../lv_misc/lv_color.h ****         uint8_t green;
 247:..\..\..\lvgl\version_6.1.2\lvgl\src\lv_themes\../lv_core/../lv_misc/lv_color.h ****         uint8_t red;
 248:..\..\..\lvgl\version_6.1.2\lvgl\src\lv_themes\../lv_core/../lv_misc/lv_color.h ****         uint8_t alpha;
 249:..\..\..\lvgl\version_6.1.2\lvgl\src\lv_themes\../lv_core/../lv_misc/lv_color.h ****     } ch;
 250:..\..\..\lvgl\version_6.1.2\lvgl\src\lv_themes\../lv_core/../lv_misc/lv_color.h ****     uint32_t full;
 251:..\..\..\lvgl\version_6.1.2\lvgl\src\lv_themes\../lv_core/../lv_misc/lv_color.h **** } lv_color32_t;
 252:..\..\..\lvgl\version_6.1.2\lvgl\src\lv_themes\../lv_core/../lv_misc/lv_color.h **** 
 253:..\..\..\lvgl\version_6.1.2\lvgl\src\lv_themes\../lv_core/../lv_misc/lv_color.h **** #if LV_COLOR_DEPTH == 1
 254:..\..\..\lvgl\version_6.1.2\lvgl\src\lv_themes\../lv_core/../lv_misc/lv_color.h **** typedef uint8_t lv_color_int_t;
 255:..\..\..\lvgl\version_6.1.2\lvgl\src\lv_themes\../lv_core/../lv_misc/lv_color.h **** typedef lv_color1_t lv_color_t;
 256:..\..\..\lvgl\version_6.1.2\lvgl\src\lv_themes\../lv_core/../lv_misc/lv_color.h **** #elif LV_COLOR_DEPTH == 8
 257:..\..\..\lvgl\version_6.1.2\lvgl\src\lv_themes\../lv_core/../lv_misc/lv_color.h **** typedef uint8_t lv_color_int_t;
 258:..\..\..\lvgl\version_6.1.2\lvgl\src\lv_themes\../lv_core/../lv_misc/lv_color.h **** typedef lv_color8_t lv_color_t;
ARM GAS  C:\Users\tmj32\AppData\Local\Temp\cc8DwYg3.s 			page 6


 259:..\..\..\lvgl\version_6.1.2\lvgl\src\lv_themes\../lv_core/../lv_misc/lv_color.h **** #elif LV_COLOR_DEPTH == 16
 260:..\..\..\lvgl\version_6.1.2\lvgl\src\lv_themes\../lv_core/../lv_misc/lv_color.h **** typedef uint16_t lv_color_int_t;
 261:..\..\..\lvgl\version_6.1.2\lvgl\src\lv_themes\../lv_core/../lv_misc/lv_color.h **** typedef lv_color16_t lv_color_t;
 262:..\..\..\lvgl\version_6.1.2\lvgl\src\lv_themes\../lv_core/../lv_misc/lv_color.h **** #elif LV_COLOR_DEPTH == 32
 263:..\..\..\lvgl\version_6.1.2\lvgl\src\lv_themes\../lv_core/../lv_misc/lv_color.h **** typedef uint32_t lv_color_int_t;
 264:..\..\..\lvgl\version_6.1.2\lvgl\src\lv_themes\../lv_core/../lv_misc/lv_color.h **** typedef lv_color32_t lv_color_t;
 265:..\..\..\lvgl\version_6.1.2\lvgl\src\lv_themes\../lv_core/../lv_misc/lv_color.h **** #else
 266:..\..\..\lvgl\version_6.1.2\lvgl\src\lv_themes\../lv_core/../lv_misc/lv_color.h **** #error "Invalid LV_COLOR_DEPTH in lv_conf.h! Set it to 1, 8, 16 or 32!"
 267:..\..\..\lvgl\version_6.1.2\lvgl\src\lv_themes\../lv_core/../lv_misc/lv_color.h **** #endif
 268:..\..\..\lvgl\version_6.1.2\lvgl\src\lv_themes\../lv_core/../lv_misc/lv_color.h **** 
 269:..\..\..\lvgl\version_6.1.2\lvgl\src\lv_themes\../lv_core/../lv_misc/lv_color.h **** typedef uint8_t lv_opa_t;
 270:..\..\..\lvgl\version_6.1.2\lvgl\src\lv_themes\../lv_core/../lv_misc/lv_color.h **** 
 271:..\..\..\lvgl\version_6.1.2\lvgl\src\lv_themes\../lv_core/../lv_misc/lv_color.h **** typedef struct
 272:..\..\..\lvgl\version_6.1.2\lvgl\src\lv_themes\../lv_core/../lv_misc/lv_color.h **** {
 273:..\..\..\lvgl\version_6.1.2\lvgl\src\lv_themes\../lv_core/../lv_misc/lv_color.h ****     uint16_t h;
 274:..\..\..\lvgl\version_6.1.2\lvgl\src\lv_themes\../lv_core/../lv_misc/lv_color.h ****     uint8_t s;
 275:..\..\..\lvgl\version_6.1.2\lvgl\src\lv_themes\../lv_core/../lv_misc/lv_color.h ****     uint8_t v;
 276:..\..\..\lvgl\version_6.1.2\lvgl\src\lv_themes\../lv_core/../lv_misc/lv_color.h **** } lv_color_hsv_t;
 277:..\..\..\lvgl\version_6.1.2\lvgl\src\lv_themes\../lv_core/../lv_misc/lv_color.h **** 
 278:..\..\..\lvgl\version_6.1.2\lvgl\src\lv_themes\../lv_core/../lv_misc/lv_color.h **** /**********************
 279:..\..\..\lvgl\version_6.1.2\lvgl\src\lv_themes\../lv_core/../lv_misc/lv_color.h ****  * GLOBAL PROTOTYPES
 280:..\..\..\lvgl\version_6.1.2\lvgl\src\lv_themes\../lv_core/../lv_misc/lv_color.h ****  **********************/
 281:..\..\..\lvgl\version_6.1.2\lvgl\src\lv_themes\../lv_core/../lv_misc/lv_color.h **** 
 282:..\..\..\lvgl\version_6.1.2\lvgl\src\lv_themes\../lv_core/../lv_misc/lv_color.h **** /*In color conversations:
 283:..\..\..\lvgl\version_6.1.2\lvgl\src\lv_themes\../lv_core/../lv_misc/lv_color.h ****  * - When converting to bigger color type the LSB weight of 1 LSB is calculated
 284:..\..\..\lvgl\version_6.1.2\lvgl\src\lv_themes\../lv_core/../lv_misc/lv_color.h ****  *   E.g. 16 bit Red has 5 bits
 285:..\..\..\lvgl\version_6.1.2\lvgl\src\lv_themes\../lv_core/../lv_misc/lv_color.h ****  *         8 bit Red has 2 bits
 286:..\..\..\lvgl\version_6.1.2\lvgl\src\lv_themes\../lv_core/../lv_misc/lv_color.h ****  *        ----------------------
 287:..\..\..\lvgl\version_6.1.2\lvgl\src\lv_themes\../lv_core/../lv_misc/lv_color.h ****  *        8 bit red LSB = (2^5 - 1) / (2^2 - 1) = 31 / 3 = 10
 288:..\..\..\lvgl\version_6.1.2\lvgl\src\lv_themes\../lv_core/../lv_misc/lv_color.h ****  *
 289:..\..\..\lvgl\version_6.1.2\lvgl\src\lv_themes\../lv_core/../lv_misc/lv_color.h ****  * - When calculating to smaller color type simply shift out the LSBs
 290:..\..\..\lvgl\version_6.1.2\lvgl\src\lv_themes\../lv_core/../lv_misc/lv_color.h ****  *   E.g.  8 bit Red has 2 bits
 291:..\..\..\lvgl\version_6.1.2\lvgl\src\lv_themes\../lv_core/../lv_misc/lv_color.h ****  *        16 bit Red has 5 bits
 292:..\..\..\lvgl\version_6.1.2\lvgl\src\lv_themes\../lv_core/../lv_misc/lv_color.h ****  *        ----------------------
 293:..\..\..\lvgl\version_6.1.2\lvgl\src\lv_themes\../lv_core/../lv_misc/lv_color.h ****  *         Shift right with 5 - 3 = 2
 294:..\..\..\lvgl\version_6.1.2\lvgl\src\lv_themes\../lv_core/../lv_misc/lv_color.h ****  */
 295:..\..\..\lvgl\version_6.1.2\lvgl\src\lv_themes\../lv_core/../lv_misc/lv_color.h **** 
 296:..\..\..\lvgl\version_6.1.2\lvgl\src\lv_themes\../lv_core/../lv_misc/lv_color.h **** static inline uint8_t lv_color_to1(lv_color_t color)
 297:..\..\..\lvgl\version_6.1.2\lvgl\src\lv_themes\../lv_core/../lv_misc/lv_color.h **** {
 298:..\..\..\lvgl\version_6.1.2\lvgl\src\lv_themes\../lv_core/../lv_misc/lv_color.h **** #if LV_COLOR_DEPTH == 1
 299:..\..\..\lvgl\version_6.1.2\lvgl\src\lv_themes\../lv_core/../lv_misc/lv_color.h ****     return color.full;
 300:..\..\..\lvgl\version_6.1.2\lvgl\src\lv_themes\../lv_core/../lv_misc/lv_color.h **** #elif LV_COLOR_DEPTH == 8
 301:..\..\..\lvgl\version_6.1.2\lvgl\src\lv_themes\../lv_core/../lv_misc/lv_color.h ****     if((LV_COLOR_GET_R(color) & 0x4) || (LV_COLOR_GET_G(color) & 0x4) || (LV_COLOR_GET_B(color) & 0
 302:..\..\..\lvgl\version_6.1.2\lvgl\src\lv_themes\../lv_core/../lv_misc/lv_color.h ****         return 1;
 303:..\..\..\lvgl\version_6.1.2\lvgl\src\lv_themes\../lv_core/../lv_misc/lv_color.h ****     } else {
 304:..\..\..\lvgl\version_6.1.2\lvgl\src\lv_themes\../lv_core/../lv_misc/lv_color.h ****         return 0;
 305:..\..\..\lvgl\version_6.1.2\lvgl\src\lv_themes\../lv_core/../lv_misc/lv_color.h ****     }
 306:..\..\..\lvgl\version_6.1.2\lvgl\src\lv_themes\../lv_core/../lv_misc/lv_color.h **** #elif LV_COLOR_DEPTH == 16
 307:..\..\..\lvgl\version_6.1.2\lvgl\src\lv_themes\../lv_core/../lv_misc/lv_color.h ****     if((LV_COLOR_GET_R(color) & 0x10) || (LV_COLOR_GET_G(color) & 0x20) || (LV_COLOR_GET_B(color) &
 308:..\..\..\lvgl\version_6.1.2\lvgl\src\lv_themes\../lv_core/../lv_misc/lv_color.h ****         return 1;
 309:..\..\..\lvgl\version_6.1.2\lvgl\src\lv_themes\../lv_core/../lv_misc/lv_color.h ****     } else {
 310:..\..\..\lvgl\version_6.1.2\lvgl\src\lv_themes\../lv_core/../lv_misc/lv_color.h ****         return 0;
 311:..\..\..\lvgl\version_6.1.2\lvgl\src\lv_themes\../lv_core/../lv_misc/lv_color.h ****     }
 312:..\..\..\lvgl\version_6.1.2\lvgl\src\lv_themes\../lv_core/../lv_misc/lv_color.h **** #elif LV_COLOR_DEPTH == 32
 313:..\..\..\lvgl\version_6.1.2\lvgl\src\lv_themes\../lv_core/../lv_misc/lv_color.h ****     if((LV_COLOR_GET_R(color) & 0x80) || (LV_COLOR_GET_G(color) & 0x80) || (LV_COLOR_GET_B(color) &
 314:..\..\..\lvgl\version_6.1.2\lvgl\src\lv_themes\../lv_core/../lv_misc/lv_color.h ****         return 1;
 315:..\..\..\lvgl\version_6.1.2\lvgl\src\lv_themes\../lv_core/../lv_misc/lv_color.h ****     } else {
ARM GAS  C:\Users\tmj32\AppData\Local\Temp\cc8DwYg3.s 			page 7


 316:..\..\..\lvgl\version_6.1.2\lvgl\src\lv_themes\../lv_core/../lv_misc/lv_color.h ****         return 0;
 317:..\..\..\lvgl\version_6.1.2\lvgl\src\lv_themes\../lv_core/../lv_misc/lv_color.h ****     }
 318:..\..\..\lvgl\version_6.1.2\lvgl\src\lv_themes\../lv_core/../lv_misc/lv_color.h **** #endif
 319:..\..\..\lvgl\version_6.1.2\lvgl\src\lv_themes\../lv_core/../lv_misc/lv_color.h **** }
 320:..\..\..\lvgl\version_6.1.2\lvgl\src\lv_themes\../lv_core/../lv_misc/lv_color.h **** 
 321:..\..\..\lvgl\version_6.1.2\lvgl\src\lv_themes\../lv_core/../lv_misc/lv_color.h **** static inline uint8_t lv_color_to8(lv_color_t color)
 322:..\..\..\lvgl\version_6.1.2\lvgl\src\lv_themes\../lv_core/../lv_misc/lv_color.h **** {
 323:..\..\..\lvgl\version_6.1.2\lvgl\src\lv_themes\../lv_core/../lv_misc/lv_color.h **** #if LV_COLOR_DEPTH == 1
 324:..\..\..\lvgl\version_6.1.2\lvgl\src\lv_themes\../lv_core/../lv_misc/lv_color.h ****     if(color.full == 0)
 325:..\..\..\lvgl\version_6.1.2\lvgl\src\lv_themes\../lv_core/../lv_misc/lv_color.h ****         return 0;
 326:..\..\..\lvgl\version_6.1.2\lvgl\src\lv_themes\../lv_core/../lv_misc/lv_color.h ****     else
 327:..\..\..\lvgl\version_6.1.2\lvgl\src\lv_themes\../lv_core/../lv_misc/lv_color.h ****         return 0xFF;
 328:..\..\..\lvgl\version_6.1.2\lvgl\src\lv_themes\../lv_core/../lv_misc/lv_color.h **** #elif LV_COLOR_DEPTH == 8
 329:..\..\..\lvgl\version_6.1.2\lvgl\src\lv_themes\../lv_core/../lv_misc/lv_color.h ****     return color.full;
 330:..\..\..\lvgl\version_6.1.2\lvgl\src\lv_themes\../lv_core/../lv_misc/lv_color.h **** #elif LV_COLOR_DEPTH == 16
 331:..\..\..\lvgl\version_6.1.2\lvgl\src\lv_themes\../lv_core/../lv_misc/lv_color.h ****     lv_color8_t ret;
 332:..\..\..\lvgl\version_6.1.2\lvgl\src\lv_themes\../lv_core/../lv_misc/lv_color.h ****     LV_COLOR_SET_R8(ret, LV_COLOR_GET_R(color) >> 2);   /* 5 - 3  = 2*/
 333:..\..\..\lvgl\version_6.1.2\lvgl\src\lv_themes\../lv_core/../lv_misc/lv_color.h ****     LV_COLOR_SET_G8(ret, LV_COLOR_GET_G(color) >> 3); /* 6 - 3  = 3*/
 334:..\..\..\lvgl\version_6.1.2\lvgl\src\lv_themes\../lv_core/../lv_misc/lv_color.h ****     LV_COLOR_SET_B8(ret, LV_COLOR_GET_B(color) >> 3);  /* 5 - 2  = 3*/
 335:..\..\..\lvgl\version_6.1.2\lvgl\src\lv_themes\../lv_core/../lv_misc/lv_color.h ****     return ret.full;
 336:..\..\..\lvgl\version_6.1.2\lvgl\src\lv_themes\../lv_core/../lv_misc/lv_color.h **** #elif LV_COLOR_DEPTH == 32
 337:..\..\..\lvgl\version_6.1.2\lvgl\src\lv_themes\../lv_core/../lv_misc/lv_color.h ****     lv_color8_t ret;
 338:..\..\..\lvgl\version_6.1.2\lvgl\src\lv_themes\../lv_core/../lv_misc/lv_color.h ****     LV_COLOR_SET_R8(ret, LV_COLOR_GET_R(color) >> 5);   /* 8 - 3  = 5*/
 339:..\..\..\lvgl\version_6.1.2\lvgl\src\lv_themes\../lv_core/../lv_misc/lv_color.h ****     LV_COLOR_SET_G8(ret, LV_COLOR_GET_G(color) >> 5); /* 8 - 3  = 5*/
 340:..\..\..\lvgl\version_6.1.2\lvgl\src\lv_themes\../lv_core/../lv_misc/lv_color.h ****     LV_COLOR_SET_B8(ret, LV_COLOR_GET_B(color) >> 6);  /* 8 - 2  = 6*/
 341:..\..\..\lvgl\version_6.1.2\lvgl\src\lv_themes\../lv_core/../lv_misc/lv_color.h ****     return ret.full;
 342:..\..\..\lvgl\version_6.1.2\lvgl\src\lv_themes\../lv_core/../lv_misc/lv_color.h **** #endif
 343:..\..\..\lvgl\version_6.1.2\lvgl\src\lv_themes\../lv_core/../lv_misc/lv_color.h **** }
 344:..\..\..\lvgl\version_6.1.2\lvgl\src\lv_themes\../lv_core/../lv_misc/lv_color.h **** 
 345:..\..\..\lvgl\version_6.1.2\lvgl\src\lv_themes\../lv_core/../lv_misc/lv_color.h **** static inline uint16_t lv_color_to16(lv_color_t color)
 346:..\..\..\lvgl\version_6.1.2\lvgl\src\lv_themes\../lv_core/../lv_misc/lv_color.h **** {
 347:..\..\..\lvgl\version_6.1.2\lvgl\src\lv_themes\../lv_core/../lv_misc/lv_color.h **** #if LV_COLOR_DEPTH == 1
 348:..\..\..\lvgl\version_6.1.2\lvgl\src\lv_themes\../lv_core/../lv_misc/lv_color.h ****     if(color.full == 0)
 349:..\..\..\lvgl\version_6.1.2\lvgl\src\lv_themes\../lv_core/../lv_misc/lv_color.h ****         return 0;
 350:..\..\..\lvgl\version_6.1.2\lvgl\src\lv_themes\../lv_core/../lv_misc/lv_color.h ****     else
 351:..\..\..\lvgl\version_6.1.2\lvgl\src\lv_themes\../lv_core/../lv_misc/lv_color.h ****         return 0xFFFF;
 352:..\..\..\lvgl\version_6.1.2\lvgl\src\lv_themes\../lv_core/../lv_misc/lv_color.h **** #elif LV_COLOR_DEPTH == 8
 353:..\..\..\lvgl\version_6.1.2\lvgl\src\lv_themes\../lv_core/../lv_misc/lv_color.h ****     lv_color16_t ret;
 354:..\..\..\lvgl\version_6.1.2\lvgl\src\lv_themes\../lv_core/../lv_misc/lv_color.h ****     LV_COLOR_SET_R16(ret, LV_COLOR_GET_R(color) * 4);     /*(2^5 - 1)/(2^3 - 1) = 31/7 = 4*/
 355:..\..\..\lvgl\version_6.1.2\lvgl\src\lv_themes\../lv_core/../lv_misc/lv_color.h **** #if LV_COLOR_16_SWAP == 0
 356:..\..\..\lvgl\version_6.1.2\lvgl\src\lv_themes\../lv_core/../lv_misc/lv_color.h ****     LV_COLOR_SET_G16(ret,  LV_COLOR_GET_G(color) * 9); /*(2^6 - 1)/(2^3 - 1) = 63/7 = 9*/
 357:..\..\..\lvgl\version_6.1.2\lvgl\src\lv_themes\../lv_core/../lv_misc/lv_color.h **** #else
 358:..\..\..\lvgl\version_6.1.2\lvgl\src\lv_themes\../lv_core/../lv_misc/lv_color.h ****     LV_COLOR_SET_G16_SWAP(ret, (LV_COLOR_GET_G(color) * 9)); /*(2^6 - 1)/(2^3 - 1) = 63/7 = 9*/
 359:..\..\..\lvgl\version_6.1.2\lvgl\src\lv_themes\../lv_core/../lv_misc/lv_color.h **** #endif
 360:..\..\..\lvgl\version_6.1.2\lvgl\src\lv_themes\../lv_core/../lv_misc/lv_color.h ****     LV_COLOR_SET_B16(ret, LV_COLOR_GET_B(color) * 10);  /*(2^5 - 1)/(2^2 - 1) = 31/3 = 10*/
 361:..\..\..\lvgl\version_6.1.2\lvgl\src\lv_themes\../lv_core/../lv_misc/lv_color.h ****     return ret.full;
 362:..\..\..\lvgl\version_6.1.2\lvgl\src\lv_themes\../lv_core/../lv_misc/lv_color.h **** #elif LV_COLOR_DEPTH == 16
 363:..\..\..\lvgl\version_6.1.2\lvgl\src\lv_themes\../lv_core/../lv_misc/lv_color.h ****     return color.full;
 364:..\..\..\lvgl\version_6.1.2\lvgl\src\lv_themes\../lv_core/../lv_misc/lv_color.h **** #elif LV_COLOR_DEPTH == 32
 365:..\..\..\lvgl\version_6.1.2\lvgl\src\lv_themes\../lv_core/../lv_misc/lv_color.h ****     lv_color16_t ret;
 366:..\..\..\lvgl\version_6.1.2\lvgl\src\lv_themes\../lv_core/../lv_misc/lv_color.h ****     LV_COLOR_SET_R16(ret, LV_COLOR_GET_R(color) >> 3);   /* 8 - 5  = 3*/
 367:..\..\..\lvgl\version_6.1.2\lvgl\src\lv_themes\../lv_core/../lv_misc/lv_color.h **** 
 368:..\..\..\lvgl\version_6.1.2\lvgl\src\lv_themes\../lv_core/../lv_misc/lv_color.h **** #if LV_COLOR_16_SWAP == 0
 369:..\..\..\lvgl\version_6.1.2\lvgl\src\lv_themes\../lv_core/../lv_misc/lv_color.h ****     LV_COLOR_SET_G16(ret, LV_COLOR_GET_G(color) >> 2); /* 8 - 6  = 2*/
 370:..\..\..\lvgl\version_6.1.2\lvgl\src\lv_themes\../lv_core/../lv_misc/lv_color.h **** #else
 371:..\..\..\lvgl\version_6.1.2\lvgl\src\lv_themes\../lv_core/../lv_misc/lv_color.h ****     LV_COLOR_SET_G16_SWAP(ret, ret.ch.green_h = (LV_COLOR_GET_G(color) >> 2); /*(2^6 - 1)/(2^3 - 1)
 372:..\..\..\lvgl\version_6.1.2\lvgl\src\lv_themes\../lv_core/../lv_misc/lv_color.h **** #endif
ARM GAS  C:\Users\tmj32\AppData\Local\Temp\cc8DwYg3.s 			page 8


 373:..\..\..\lvgl\version_6.1.2\lvgl\src\lv_themes\../lv_core/../lv_misc/lv_color.h ****     LV_COLOR_SET_B16(ret, LV_COLOR_GET_B(color) >> 3);  /* 8 - 5  = 3*/
 374:..\..\..\lvgl\version_6.1.2\lvgl\src\lv_themes\../lv_core/../lv_misc/lv_color.h ****     return ret.full;
 375:..\..\..\lvgl\version_6.1.2\lvgl\src\lv_themes\../lv_core/../lv_misc/lv_color.h **** #endif                         
 376:..\..\..\lvgl\version_6.1.2\lvgl\src\lv_themes\../lv_core/../lv_misc/lv_color.h **** }
 377:..\..\..\lvgl\version_6.1.2\lvgl\src\lv_themes\../lv_core/../lv_misc/lv_color.h **** 
 378:..\..\..\lvgl\version_6.1.2\lvgl\src\lv_themes\../lv_core/../lv_misc/lv_color.h **** static inline uint32_t lv_color_to32(lv_color_t color)
 379:..\..\..\lvgl\version_6.1.2\lvgl\src\lv_themes\../lv_core/../lv_misc/lv_color.h **** {
 380:..\..\..\lvgl\version_6.1.2\lvgl\src\lv_themes\../lv_core/../lv_misc/lv_color.h **** #if LV_COLOR_DEPTH == 1
 381:..\..\..\lvgl\version_6.1.2\lvgl\src\lv_themes\../lv_core/../lv_misc/lv_color.h ****     if(color.full == 0)
 382:..\..\..\lvgl\version_6.1.2\lvgl\src\lv_themes\../lv_core/../lv_misc/lv_color.h ****         return 0;
 383:..\..\..\lvgl\version_6.1.2\lvgl\src\lv_themes\../lv_core/../lv_misc/lv_color.h ****     else
 384:..\..\..\lvgl\version_6.1.2\lvgl\src\lv_themes\../lv_core/../lv_misc/lv_color.h ****         return 0xFFFFFFFF;
 385:..\..\..\lvgl\version_6.1.2\lvgl\src\lv_themes\../lv_core/../lv_misc/lv_color.h **** #elif LV_COLOR_DEPTH == 8
 386:..\..\..\lvgl\version_6.1.2\lvgl\src\lv_themes\../lv_core/../lv_misc/lv_color.h ****     lv_color32_t ret;
 387:..\..\..\lvgl\version_6.1.2\lvgl\src\lv_themes\../lv_core/../lv_misc/lv_color.h ****     LV_COLOR_SET_R32(ret, LV_COLOR_GET_R(color) * 36);     /*(2^8 - 1)/(2^3 - 1) = 255/7 = 36*/
 388:..\..\..\lvgl\version_6.1.2\lvgl\src\lv_themes\../lv_core/../lv_misc/lv_color.h ****     LV_COLOR_SET_G32(ret, LV_COLOR_GET_G(color) * 36); /*(2^8 - 1)/(2^3 - 1) = 255/7 = 36*/
 389:..\..\..\lvgl\version_6.1.2\lvgl\src\lv_themes\../lv_core/../lv_misc/lv_color.h ****     LV_COLOR_SET_B32(ret, LV_COLOR_GET_B(color) * 85);   /*(2^8 - 1)/(2^2 - 1) = 255/3 = 85*/
 390:..\..\..\lvgl\version_6.1.2\lvgl\src\lv_themes\../lv_core/../lv_misc/lv_color.h ****     LV_COLOR_SET_A32(ret, 0xFF);
 391:..\..\..\lvgl\version_6.1.2\lvgl\src\lv_themes\../lv_core/../lv_misc/lv_color.h ****     return ret.full;
 392:..\..\..\lvgl\version_6.1.2\lvgl\src\lv_themes\../lv_core/../lv_misc/lv_color.h **** #elif LV_COLOR_DEPTH == 16
 393:..\..\..\lvgl\version_6.1.2\lvgl\src\lv_themes\../lv_core/../lv_misc/lv_color.h ****     /**
 394:..\..\..\lvgl\version_6.1.2\lvgl\src\lv_themes\../lv_core/../lv_misc/lv_color.h ****      * The floating point math for conversion is:
 395:..\..\..\lvgl\version_6.1.2\lvgl\src\lv_themes\../lv_core/../lv_misc/lv_color.h ****      *  valueto = valuefrom * ( (2^bitsto - 1) / (float)(2^bitsfrom - 1) )
 396:..\..\..\lvgl\version_6.1.2\lvgl\src\lv_themes\../lv_core/../lv_misc/lv_color.h ****      * The faster integer math for conversion is:
 397:..\..\..\lvgl\version_6.1.2\lvgl\src\lv_themes\../lv_core/../lv_misc/lv_color.h ****      *  valueto = ( valuefrom * multiplier + adder ) >> divisor
 398:..\..\..\lvgl\version_6.1.2\lvgl\src\lv_themes\../lv_core/../lv_misc/lv_color.h ****      *   multiplier = FLOOR( ( (2^bitsto - 1) << divisor ) / (float)(2^bitsfrom - 1) )
 399:..\..\..\lvgl\version_6.1.2\lvgl\src\lv_themes\../lv_core/../lv_misc/lv_color.h ****      * 
 400:..\..\..\lvgl\version_6.1.2\lvgl\src\lv_themes\../lv_core/../lv_misc/lv_color.h ****      * Find the first divisor where ( adder >> divisor ) <= 0
 401:..\..\..\lvgl\version_6.1.2\lvgl\src\lv_themes\../lv_core/../lv_misc/lv_color.h ****      * 
 402:..\..\..\lvgl\version_6.1.2\lvgl\src\lv_themes\../lv_core/../lv_misc/lv_color.h ****      * 5-bit to 8-bit: ( 31 * multiplier + adder ) >> divisor = 255
 403:..\..\..\lvgl\version_6.1.2\lvgl\src\lv_themes\../lv_core/../lv_misc/lv_color.h ****      * divisor  multiplier  adder  min (0)  max (31)
 404:..\..\..\lvgl\version_6.1.2\lvgl\src\lv_themes\../lv_core/../lv_misc/lv_color.h ****      *       0           8      7        7       255
 405:..\..\..\lvgl\version_6.1.2\lvgl\src\lv_themes\../lv_core/../lv_misc/lv_color.h ****      *       1          16     14        7       255
 406:..\..\..\lvgl\version_6.1.2\lvgl\src\lv_themes\../lv_core/../lv_misc/lv_color.h ****      *       2          32     28        7       255
 407:..\..\..\lvgl\version_6.1.2\lvgl\src\lv_themes\../lv_core/../lv_misc/lv_color.h ****      *       3          65     25        3       255
 408:..\..\..\lvgl\version_6.1.2\lvgl\src\lv_themes\../lv_core/../lv_misc/lv_color.h ****      *       4         131     19        1       255
 409:..\..\..\lvgl\version_6.1.2\lvgl\src\lv_themes\../lv_core/../lv_misc/lv_color.h ****      *       5         263      7        0       255
 410:..\..\..\lvgl\version_6.1.2\lvgl\src\lv_themes\../lv_core/../lv_misc/lv_color.h ****      * 
 411:..\..\..\lvgl\version_6.1.2\lvgl\src\lv_themes\../lv_core/../lv_misc/lv_color.h ****      * 6-bit to 8-bit: 255 = ( 63 * multiplier + adder ) >> divisor
 412:..\..\..\lvgl\version_6.1.2\lvgl\src\lv_themes\../lv_core/../lv_misc/lv_color.h ****      * divisor  multiplier  adder  min (0)  max (63)
 413:..\..\..\lvgl\version_6.1.2\lvgl\src\lv_themes\../lv_core/../lv_misc/lv_color.h ****      *       0           4      3        3       255
 414:..\..\..\lvgl\version_6.1.2\lvgl\src\lv_themes\../lv_core/../lv_misc/lv_color.h ****      *       1           8      6        3       255
 415:..\..\..\lvgl\version_6.1.2\lvgl\src\lv_themes\../lv_core/../lv_misc/lv_color.h ****      *       2          16     12        3       255
 416:..\..\..\lvgl\version_6.1.2\lvgl\src\lv_themes\../lv_core/../lv_misc/lv_color.h ****      *       3          32     24        3       255
 417:..\..\..\lvgl\version_6.1.2\lvgl\src\lv_themes\../lv_core/../lv_misc/lv_color.h ****      *       4          64     48        3       255
 418:..\..\..\lvgl\version_6.1.2\lvgl\src\lv_themes\../lv_core/../lv_misc/lv_color.h ****      *       5         129     33        1       255
 419:..\..\..\lvgl\version_6.1.2\lvgl\src\lv_themes\../lv_core/../lv_misc/lv_color.h ****      *       6         259      3        0       255
 420:..\..\..\lvgl\version_6.1.2\lvgl\src\lv_themes\../lv_core/../lv_misc/lv_color.h ****      */
 421:..\..\..\lvgl\version_6.1.2\lvgl\src\lv_themes\../lv_core/../lv_misc/lv_color.h ****     lv_color32_t ret;
 422:..\..\..\lvgl\version_6.1.2\lvgl\src\lv_themes\../lv_core/../lv_misc/lv_color.h ****     LV_COLOR_SET_R32(ret, (LV_COLOR_GET_R(color) * 263 + 7 ) >> 5);
 423:..\..\..\lvgl\version_6.1.2\lvgl\src\lv_themes\../lv_core/../lv_misc/lv_color.h ****     LV_COLOR_SET_G32(ret, (LV_COLOR_GET_G(color) * 259 + 3 ) >> 6);
 424:..\..\..\lvgl\version_6.1.2\lvgl\src\lv_themes\../lv_core/../lv_misc/lv_color.h ****     LV_COLOR_SET_B32(ret, (LV_COLOR_GET_B(color) * 263 + 7 ) >> 5);
 425:..\..\..\lvgl\version_6.1.2\lvgl\src\lv_themes\../lv_core/../lv_misc/lv_color.h ****     LV_COLOR_SET_A32(ret, 0xFF);
 426:..\..\..\lvgl\version_6.1.2\lvgl\src\lv_themes\../lv_core/../lv_misc/lv_color.h ****     return ret.full;
 427:..\..\..\lvgl\version_6.1.2\lvgl\src\lv_themes\../lv_core/../lv_misc/lv_color.h **** #elif LV_COLOR_DEPTH == 32
 428:..\..\..\lvgl\version_6.1.2\lvgl\src\lv_themes\../lv_core/../lv_misc/lv_color.h ****     return color.full;
 429:..\..\..\lvgl\version_6.1.2\lvgl\src\lv_themes\../lv_core/../lv_misc/lv_color.h **** #endif
ARM GAS  C:\Users\tmj32\AppData\Local\Temp\cc8DwYg3.s 			page 9


 430:..\..\..\lvgl\version_6.1.2\lvgl\src\lv_themes\../lv_core/../lv_misc/lv_color.h **** }
 431:..\..\..\lvgl\version_6.1.2\lvgl\src\lv_themes\../lv_core/../lv_misc/lv_color.h **** 
 432:..\..\..\lvgl\version_6.1.2\lvgl\src\lv_themes\../lv_core/../lv_misc/lv_color.h **** static inline lv_color_t lv_color_mix(lv_color_t c1, lv_color_t c2, uint8_t mix)
 433:..\..\..\lvgl\version_6.1.2\lvgl\src\lv_themes\../lv_core/../lv_misc/lv_color.h **** {
 434:..\..\..\lvgl\version_6.1.2\lvgl\src\lv_themes\../lv_core/../lv_misc/lv_color.h ****     lv_color_t ret;
 435:..\..\..\lvgl\version_6.1.2\lvgl\src\lv_themes\../lv_core/../lv_misc/lv_color.h **** #if LV_COLOR_DEPTH != 1
 436:..\..\..\lvgl\version_6.1.2\lvgl\src\lv_themes\../lv_core/../lv_misc/lv_color.h ****     /*LV_COLOR_DEPTH == 8, 16 or 32*/
 437:..\..\..\lvgl\version_6.1.2\lvgl\src\lv_themes\../lv_core/../lv_misc/lv_color.h ****     LV_COLOR_SET_R(ret, (uint16_t)((uint16_t) LV_COLOR_GET_R(c1) * mix + LV_COLOR_GET_R(c2) * (255 
 438:..\..\..\lvgl\version_6.1.2\lvgl\src\lv_themes\../lv_core/../lv_misc/lv_color.h ****     LV_COLOR_SET_G(ret, (uint16_t)((uint16_t) LV_COLOR_GET_G(c1) * mix + LV_COLOR_GET_G(c2) * (255 
 439:..\..\..\lvgl\version_6.1.2\lvgl\src\lv_themes\../lv_core/../lv_misc/lv_color.h ****     LV_COLOR_SET_B(ret, (uint16_t)((uint16_t) LV_COLOR_GET_B(c1) * mix + LV_COLOR_GET_B(c2) * (255 
 440:..\..\..\lvgl\version_6.1.2\lvgl\src\lv_themes\../lv_core/../lv_misc/lv_color.h ****     LV_COLOR_SET_A(ret, 0xFF);
 441:..\..\..\lvgl\version_6.1.2\lvgl\src\lv_themes\../lv_core/../lv_misc/lv_color.h **** #else
 442:..\..\..\lvgl\version_6.1.2\lvgl\src\lv_themes\../lv_core/../lv_misc/lv_color.h ****     /*LV_COLOR_DEPTH == 1*/
 443:..\..\..\lvgl\version_6.1.2\lvgl\src\lv_themes\../lv_core/../lv_misc/lv_color.h ****     ret.full = mix > LV_OPA_50 ? c1.full : c2.full;
 444:..\..\..\lvgl\version_6.1.2\lvgl\src\lv_themes\../lv_core/../lv_misc/lv_color.h **** #endif
 445:..\..\..\lvgl\version_6.1.2\lvgl\src\lv_themes\../lv_core/../lv_misc/lv_color.h **** 
 446:..\..\..\lvgl\version_6.1.2\lvgl\src\lv_themes\../lv_core/../lv_misc/lv_color.h ****     return ret;
 447:..\..\..\lvgl\version_6.1.2\lvgl\src\lv_themes\../lv_core/../lv_misc/lv_color.h **** }
 448:..\..\..\lvgl\version_6.1.2\lvgl\src\lv_themes\../lv_core/../lv_misc/lv_color.h **** 
 449:..\..\..\lvgl\version_6.1.2\lvgl\src\lv_themes\../lv_core/../lv_misc/lv_color.h **** /**
 450:..\..\..\lvgl\version_6.1.2\lvgl\src\lv_themes\../lv_core/../lv_misc/lv_color.h ****  * Get the brightness of a color
 451:..\..\..\lvgl\version_6.1.2\lvgl\src\lv_themes\../lv_core/../lv_misc/lv_color.h ****  * @param color a color
 452:..\..\..\lvgl\version_6.1.2\lvgl\src\lv_themes\../lv_core/../lv_misc/lv_color.h ****  * @return the brightness [0..255]
 453:..\..\..\lvgl\version_6.1.2\lvgl\src\lv_themes\../lv_core/../lv_misc/lv_color.h ****  */
 454:..\..\..\lvgl\version_6.1.2\lvgl\src\lv_themes\../lv_core/../lv_misc/lv_color.h **** static inline uint8_t lv_color_brightness(lv_color_t color)
 455:..\..\..\lvgl\version_6.1.2\lvgl\src\lv_themes\../lv_core/../lv_misc/lv_color.h **** {
 456:..\..\..\lvgl\version_6.1.2\lvgl\src\lv_themes\../lv_core/../lv_misc/lv_color.h ****     lv_color32_t c32;
 457:..\..\..\lvgl\version_6.1.2\lvgl\src\lv_themes\../lv_core/../lv_misc/lv_color.h ****     c32.full        = lv_color_to32(color);
 458:..\..\..\lvgl\version_6.1.2\lvgl\src\lv_themes\../lv_core/../lv_misc/lv_color.h ****     uint16_t bright = (uint16_t)(3u * LV_COLOR_GET_R32(c32) + LV_COLOR_GET_B32(c32) + 4u * LV_COLOR
 459:..\..\..\lvgl\version_6.1.2\lvgl\src\lv_themes\../lv_core/../lv_misc/lv_color.h ****     return (uint8_t)(bright >> 3);
 460:..\..\..\lvgl\version_6.1.2\lvgl\src\lv_themes\../lv_core/../lv_misc/lv_color.h **** }
 461:..\..\..\lvgl\version_6.1.2\lvgl\src\lv_themes\../lv_core/../lv_misc/lv_color.h **** 
 462:..\..\..\lvgl\version_6.1.2\lvgl\src\lv_themes\../lv_core/../lv_misc/lv_color.h **** /* The most simple macro to create a color from R,G and B values */
 463:..\..\..\lvgl\version_6.1.2\lvgl\src\lv_themes\../lv_core/../lv_misc/lv_color.h **** #if LV_COLOR_DEPTH == 1
 464:..\..\..\lvgl\version_6.1.2\lvgl\src\lv_themes\../lv_core/../lv_misc/lv_color.h **** #define LV_COLOR_MAKE(r8, g8, b8) ((lv_color_t){.full = (uint8_t)((b8 >> 7) | (g8 >> 7) | (r8 >> 7)
 465:..\..\..\lvgl\version_6.1.2\lvgl\src\lv_themes\../lv_core/../lv_misc/lv_color.h **** #elif LV_COLOR_DEPTH == 8
 466:..\..\..\lvgl\version_6.1.2\lvgl\src\lv_themes\../lv_core/../lv_misc/lv_color.h **** #define LV_COLOR_MAKE(r8, g8, b8) ((lv_color_t){{(uint8_t)((b8 >> 6) & 0x3U), (uint8_t)((g8 >> 5) &
 467:..\..\..\lvgl\version_6.1.2\lvgl\src\lv_themes\../lv_core/../lv_misc/lv_color.h **** #elif LV_COLOR_DEPTH == 16
 468:..\..\..\lvgl\version_6.1.2\lvgl\src\lv_themes\../lv_core/../lv_misc/lv_color.h **** #if LV_COLOR_16_SWAP == 0
 469:..\..\..\lvgl\version_6.1.2\lvgl\src\lv_themes\../lv_core/../lv_misc/lv_color.h **** #define LV_COLOR_MAKE(r8, g8, b8) ((lv_color_t){{(uint16_t)((b8 >> 3) & 0x1FU), (uint16_t)((g8 >> 2
 470:..\..\..\lvgl\version_6.1.2\lvgl\src\lv_themes\../lv_core/../lv_misc/lv_color.h **** #else
 471:..\..\..\lvgl\version_6.1.2\lvgl\src\lv_themes\../lv_core/../lv_misc/lv_color.h **** #define LV_COLOR_MAKE(r8, g8, b8) ((lv_color_t){{(uint16_t)((g8 >> 5) & 0x7U), (uint16_t)((r8 >> 3)
 472:..\..\..\lvgl\version_6.1.2\lvgl\src\lv_themes\../lv_core/../lv_misc/lv_color.h **** #endif
 473:..\..\..\lvgl\version_6.1.2\lvgl\src\lv_themes\../lv_core/../lv_misc/lv_color.h **** #elif LV_COLOR_DEPTH == 32
 474:..\..\..\lvgl\version_6.1.2\lvgl\src\lv_themes\../lv_core/../lv_misc/lv_color.h **** #define LV_COLOR_MAKE(r8, g8, b8) ((lv_color_t){{b8, g8, r8, 0xff}}) /*Fix 0xff alpha*/
 475:..\..\..\lvgl\version_6.1.2\lvgl\src\lv_themes\../lv_core/../lv_misc/lv_color.h **** #endif
 476:..\..\..\lvgl\version_6.1.2\lvgl\src\lv_themes\../lv_core/../lv_misc/lv_color.h **** 
 477:..\..\..\lvgl\version_6.1.2\lvgl\src\lv_themes\../lv_core/../lv_misc/lv_color.h **** static inline lv_color_t lv_color_make(uint8_t r, uint8_t g, uint8_t b)
 478:..\..\..\lvgl\version_6.1.2\lvgl\src\lv_themes\../lv_core/../lv_misc/lv_color.h **** {
  28              		.loc 1 478 0
  29              		.cfi_startproc
  30              		@ args = 0, pretend = 0, frame = 8
  31              		@ frame_needed = 1, uses_anonymous_args = 0
  32              		@ link register save eliminated.
  33 0000 90B4     		push	{r4, r7}
  34              		.cfi_def_cfa_offset 8
  35              		.cfi_offset 4, -8
ARM GAS  C:\Users\tmj32\AppData\Local\Temp\cc8DwYg3.s 			page 10


  36              		.cfi_offset 7, -4
  37 0002 82B0     		sub	sp, sp, #8
  38              		.cfi_def_cfa_offset 16
  39 0004 00AF     		add	r7, sp, #0
  40              		.cfi_def_cfa_register 7
  41 0006 0446     		mov	r4, r0
  42 0008 0846     		mov	r0, r1
  43 000a 1146     		mov	r1, r2
  44 000c 2246     		mov	r2, r4
  45 000e FA71     		strb	r2, [r7, #7]
  46 0010 0246     		mov	r2, r0
  47 0012 BA71     		strb	r2, [r7, #6]
  48 0014 0A46     		mov	r2, r1
  49 0016 7A71     		strb	r2, [r7, #5]
 479:..\..\..\lvgl\version_6.1.2\lvgl\src\lv_themes\../lv_core/../lv_misc/lv_color.h ****     return LV_COLOR_MAKE(r, g, b);
  50              		.loc 1 479 0
  51 0018 7A79     		ldrb	r2, [r7, #5]
  52 001a 62F30703 		bfi	r3, r2, #0, #8
  53 001e BA79     		ldrb	r2, [r7, #6]
  54 0020 62F30F23 		bfi	r3, r2, #8, #8
  55 0024 FA79     		ldrb	r2, [r7, #7]
  56 0026 62F31743 		bfi	r3, r2, #16, #8
  57 002a 43F07F43 		orr	r3, r3, #-16777216
 480:..\..\..\lvgl\version_6.1.2\lvgl\src\lv_themes\../lv_core/../lv_misc/lv_color.h **** }
  58              		.loc 1 480 0
  59 002e 1846     		mov	r0, r3
  60 0030 0837     		adds	r7, r7, #8
  61              		.cfi_def_cfa_offset 8
  62 0032 BD46     		mov	sp, r7
  63              		.cfi_def_cfa_register 13
  64              		@ sp needed
  65 0034 90BC     		pop	{r4, r7}
  66              		.cfi_restore 7
  67              		.cfi_restore 4
  68              		.cfi_def_cfa_offset 0
  69 0036 7047     		bx	lr
  70              		.cfi_endproc
  71              	.LFE7:
  72              		.size	lv_color_make, .-lv_color_make
  73              		.section	.text.lv_color_hex,"ax",%progbits
  74              		.align	2
  75              		.thumb
  76              		.thumb_func
  77              		.type	lv_color_hex, %function
  78              	lv_color_hex:
  79              	.LFB8:
 481:..\..\..\lvgl\version_6.1.2\lvgl\src\lv_themes\../lv_core/../lv_misc/lv_color.h **** 
 482:..\..\..\lvgl\version_6.1.2\lvgl\src\lv_themes\../lv_core/../lv_misc/lv_color.h **** static inline lv_color_t lv_color_hex(uint32_t c)
 483:..\..\..\lvgl\version_6.1.2\lvgl\src\lv_themes\../lv_core/../lv_misc/lv_color.h **** {
  80              		.loc 1 483 0
  81              		.cfi_startproc
  82              		@ args = 0, pretend = 0, frame = 8
  83              		@ frame_needed = 1, uses_anonymous_args = 0
  84 0000 80B5     		push	{r7, lr}
  85              		.cfi_def_cfa_offset 8
  86              		.cfi_offset 7, -8
  87              		.cfi_offset 14, -4
ARM GAS  C:\Users\tmj32\AppData\Local\Temp\cc8DwYg3.s 			page 11


  88 0002 82B0     		sub	sp, sp, #8
  89              		.cfi_def_cfa_offset 16
  90 0004 00AF     		add	r7, sp, #0
  91              		.cfi_def_cfa_register 7
  92 0006 7860     		str	r0, [r7, #4]
 484:..\..\..\lvgl\version_6.1.2\lvgl\src\lv_themes\../lv_core/../lv_misc/lv_color.h ****     return lv_color_make((uint8_t)((c >> 16) & 0xFF), (uint8_t)((c >> 8) & 0xFF), (uint8_t)(c & 0xF
  93              		.loc 1 484 0
  94 0008 7B68     		ldr	r3, [r7, #4]
  95 000a 1B0C     		lsrs	r3, r3, #16
  96 000c D8B2     		uxtb	r0, r3
  97 000e 7B68     		ldr	r3, [r7, #4]
  98 0010 1B0A     		lsrs	r3, r3, #8
  99 0012 DBB2     		uxtb	r3, r3
 100 0014 7A68     		ldr	r2, [r7, #4]
 101 0016 D2B2     		uxtb	r2, r2
 102 0018 1946     		mov	r1, r3
 103 001a FFF7FEFF 		bl	lv_color_make
 104 001e 0346     		mov	r3, r0
 485:..\..\..\lvgl\version_6.1.2\lvgl\src\lv_themes\../lv_core/../lv_misc/lv_color.h **** }
 105              		.loc 1 485 0
 106 0020 1846     		mov	r0, r3
 107 0022 0837     		adds	r7, r7, #8
 108              		.cfi_def_cfa_offset 8
 109 0024 BD46     		mov	sp, r7
 110              		.cfi_def_cfa_register 13
 111              		@ sp needed
 112 0026 80BD     		pop	{r7, pc}
 113              		.cfi_endproc
 114              	.LFE8:
 115              		.size	lv_color_hex, .-lv_color_hex
 116              		.section	.text.lv_color_hex3,"ax",%progbits
 117              		.align	2
 118              		.thumb
 119              		.thumb_func
 120              		.type	lv_color_hex3, %function
 121              	lv_color_hex3:
 122              	.LFB9:
 486:..\..\..\lvgl\version_6.1.2\lvgl\src\lv_themes\../lv_core/../lv_misc/lv_color.h **** 
 487:..\..\..\lvgl\version_6.1.2\lvgl\src\lv_themes\../lv_core/../lv_misc/lv_color.h **** static inline lv_color_t lv_color_hex3(uint32_t c)
 488:..\..\..\lvgl\version_6.1.2\lvgl\src\lv_themes\../lv_core/../lv_misc/lv_color.h **** {
 123              		.loc 1 488 0
 124              		.cfi_startproc
 125              		@ args = 0, pretend = 0, frame = 8
 126              		@ frame_needed = 1, uses_anonymous_args = 0
 127 0000 80B5     		push	{r7, lr}
 128              		.cfi_def_cfa_offset 8
 129              		.cfi_offset 7, -8
 130              		.cfi_offset 14, -4
 131 0002 82B0     		sub	sp, sp, #8
 132              		.cfi_def_cfa_offset 16
 133 0004 00AF     		add	r7, sp, #0
 134              		.cfi_def_cfa_register 7
 135 0006 7860     		str	r0, [r7, #4]
 489:..\..\..\lvgl\version_6.1.2\lvgl\src\lv_themes\../lv_core/../lv_misc/lv_color.h ****     return lv_color_make((uint8_t)(((c >> 4) & 0xF0) | ((c >> 8) & 0xF)), (uint8_t)((c & 0xF0) | ((
 136              		.loc 1 489 0
 137 0008 7B68     		ldr	r3, [r7, #4]
 138 000a 1B09     		lsrs	r3, r3, #4
ARM GAS  C:\Users\tmj32\AppData\Local\Temp\cc8DwYg3.s 			page 12


 139 000c DBB2     		uxtb	r3, r3
 140 000e 23F00F03 		bic	r3, r3, #15
 141 0012 DAB2     		uxtb	r2, r3
 142 0014 7B68     		ldr	r3, [r7, #4]
 143 0016 1B0A     		lsrs	r3, r3, #8
 144 0018 DBB2     		uxtb	r3, r3
 145 001a 03F00F03 		and	r3, r3, #15
 146 001e DBB2     		uxtb	r3, r3
 147 0020 1343     		orrs	r3, r3, r2
 148 0022 D8B2     		uxtb	r0, r3
 149 0024 7B68     		ldr	r3, [r7, #4]
 150 0026 DBB2     		uxtb	r3, r3
 151 0028 23F00F03 		bic	r3, r3, #15
 152 002c DAB2     		uxtb	r2, r3
 153 002e 7B68     		ldr	r3, [r7, #4]
 154 0030 1B09     		lsrs	r3, r3, #4
 155 0032 DBB2     		uxtb	r3, r3
 156 0034 03F00F03 		and	r3, r3, #15
 157 0038 DBB2     		uxtb	r3, r3
 158 003a 1343     		orrs	r3, r3, r2
 159 003c D9B2     		uxtb	r1, r3
 160 003e 7B68     		ldr	r3, [r7, #4]
 161 0040 DBB2     		uxtb	r3, r3
 162 0042 03F00F03 		and	r3, r3, #15
 163 0046 DAB2     		uxtb	r2, r3
 164 0048 7B68     		ldr	r3, [r7, #4]
 165 004a DBB2     		uxtb	r3, r3
 166 004c 1B01     		lsls	r3, r3, #4
 167 004e DBB2     		uxtb	r3, r3
 168 0050 1343     		orrs	r3, r3, r2
 169 0052 DBB2     		uxtb	r3, r3
 170 0054 1A46     		mov	r2, r3
 171 0056 FFF7FEFF 		bl	lv_color_make
 172 005a 0346     		mov	r3, r0
 490:..\..\..\lvgl\version_6.1.2\lvgl\src\lv_themes\../lv_core/../lv_misc/lv_color.h ****                          (uint8_t)((c & 0xF) | ((c & 0xF) << 4)));
 491:..\..\..\lvgl\version_6.1.2\lvgl\src\lv_themes\../lv_core/../lv_misc/lv_color.h **** }
 173              		.loc 1 491 0
 174 005c 1846     		mov	r0, r3
 175 005e 0837     		adds	r7, r7, #8
 176              		.cfi_def_cfa_offset 8
 177 0060 BD46     		mov	sp, r7
 178              		.cfi_def_cfa_register 13
 179              		@ sp needed
 180 0062 80BD     		pop	{r7, pc}
 181              		.cfi_endproc
 182              	.LFE9:
 183              		.size	lv_color_hex3, .-lv_color_hex3
 184              		.bss
 185              		.align	2
 186              	theme:
 187 0000 00000000 		.space	424
 187      00000000 
 187      00000000 
 187      00000000 
 187      00000000 
 188              		.align	2
 189              	def:
ARM GAS  C:\Users\tmj32\AppData\Local\Temp\cc8DwYg3.s 			page 13


 190 01a8 00000000 		.space	80
 190      00000000 
 190      00000000 
 190      00000000 
 190      00000000 
 191              		.align	2
 192              	sb:
 193 01f8 00000000 		.space	80
 193      00000000 
 193      00000000 
 193      00000000 
 193      00000000 
 194              		.align	1
 195              	_hue:
 196 0248 0000     		.space	2
 197 024a 0000     		.align	2
 198              	_font:
 199 024c 00000000 		.space	4
 200              		.section	.text.basic_init,"ax",%progbits
 201              		.align	2
 202              		.thumb
 203              		.thumb_func
 204              		.type	basic_init, %function
 205              	basic_init:
 206              	.LFB31:
 207              		.file 2 "..\\..\\..\\lvgl\\version_6.1.2\\lvgl\\src\\lv_themes\\lv_theme_material.c"
   1:..\..\..\lvgl\version_6.1.2\lvgl\src\lv_themes/lv_theme_material.c **** /**
   2:..\..\..\lvgl\version_6.1.2\lvgl\src\lv_themes/lv_theme_material.c ****  * @file lv_theme_material.c
   3:..\..\..\lvgl\version_6.1.2\lvgl\src\lv_themes/lv_theme_material.c ****  *
   4:..\..\..\lvgl\version_6.1.2\lvgl\src\lv_themes/lv_theme_material.c ****  */
   5:..\..\..\lvgl\version_6.1.2\lvgl\src\lv_themes/lv_theme_material.c **** 
   6:..\..\..\lvgl\version_6.1.2\lvgl\src\lv_themes/lv_theme_material.c **** /*********************
   7:..\..\..\lvgl\version_6.1.2\lvgl\src\lv_themes/lv_theme_material.c ****  *      INCLUDES
   8:..\..\..\lvgl\version_6.1.2\lvgl\src\lv_themes/lv_theme_material.c ****  *********************/
   9:..\..\..\lvgl\version_6.1.2\lvgl\src\lv_themes/lv_theme_material.c **** #include "lv_theme.h"
  10:..\..\..\lvgl\version_6.1.2\lvgl\src\lv_themes/lv_theme_material.c **** 
  11:..\..\..\lvgl\version_6.1.2\lvgl\src\lv_themes/lv_theme_material.c **** #if LV_USE_THEME_MATERIAL
  12:..\..\..\lvgl\version_6.1.2\lvgl\src\lv_themes/lv_theme_material.c **** 
  13:..\..\..\lvgl\version_6.1.2\lvgl\src\lv_themes/lv_theme_material.c **** /*********************
  14:..\..\..\lvgl\version_6.1.2\lvgl\src\lv_themes/lv_theme_material.c ****  *      DEFINES
  15:..\..\..\lvgl\version_6.1.2\lvgl\src\lv_themes/lv_theme_material.c ****  *********************/
  16:..\..\..\lvgl\version_6.1.2\lvgl\src\lv_themes/lv_theme_material.c **** #define DEF_RADIUS 4
  17:..\..\..\lvgl\version_6.1.2\lvgl\src\lv_themes/lv_theme_material.c **** #define DEF_SHADOW_COLOR lv_color_hex3(0xaaa)
  18:..\..\..\lvgl\version_6.1.2\lvgl\src\lv_themes/lv_theme_material.c **** 
  19:..\..\..\lvgl\version_6.1.2\lvgl\src\lv_themes/lv_theme_material.c **** /**********************
  20:..\..\..\lvgl\version_6.1.2\lvgl\src\lv_themes/lv_theme_material.c ****  *      TYPEDEFS
  21:..\..\..\lvgl\version_6.1.2\lvgl\src\lv_themes/lv_theme_material.c ****  **********************/
  22:..\..\..\lvgl\version_6.1.2\lvgl\src\lv_themes/lv_theme_material.c **** 
  23:..\..\..\lvgl\version_6.1.2\lvgl\src\lv_themes/lv_theme_material.c **** /**********************
  24:..\..\..\lvgl\version_6.1.2\lvgl\src\lv_themes/lv_theme_material.c ****  *  STATIC PROTOTYPES
  25:..\..\..\lvgl\version_6.1.2\lvgl\src\lv_themes/lv_theme_material.c ****  **********************/
  26:..\..\..\lvgl\version_6.1.2\lvgl\src\lv_themes/lv_theme_material.c **** 
  27:..\..\..\lvgl\version_6.1.2\lvgl\src\lv_themes/lv_theme_material.c **** /**********************
  28:..\..\..\lvgl\version_6.1.2\lvgl\src\lv_themes/lv_theme_material.c ****  *  STATIC VARIABLES
  29:..\..\..\lvgl\version_6.1.2\lvgl\src\lv_themes/lv_theme_material.c ****  **********************/
  30:..\..\..\lvgl\version_6.1.2\lvgl\src\lv_themes/lv_theme_material.c **** static lv_theme_t theme;
  31:..\..\..\lvgl\version_6.1.2\lvgl\src\lv_themes/lv_theme_material.c **** static lv_style_t def;
ARM GAS  C:\Users\tmj32\AppData\Local\Temp\cc8DwYg3.s 			page 14


  32:..\..\..\lvgl\version_6.1.2\lvgl\src\lv_themes/lv_theme_material.c **** 
  33:..\..\..\lvgl\version_6.1.2\lvgl\src\lv_themes/lv_theme_material.c **** /*Static style definitions*/
  34:..\..\..\lvgl\version_6.1.2\lvgl\src\lv_themes/lv_theme_material.c **** static lv_style_t sb;
  35:..\..\..\lvgl\version_6.1.2\lvgl\src\lv_themes/lv_theme_material.c **** 
  36:..\..\..\lvgl\version_6.1.2\lvgl\src\lv_themes/lv_theme_material.c **** /*Saved input parameters*/
  37:..\..\..\lvgl\version_6.1.2\lvgl\src\lv_themes/lv_theme_material.c **** static uint16_t _hue;
  38:..\..\..\lvgl\version_6.1.2\lvgl\src\lv_themes/lv_theme_material.c **** static lv_font_t * _font;
  39:..\..\..\lvgl\version_6.1.2\lvgl\src\lv_themes/lv_theme_material.c **** 
  40:..\..\..\lvgl\version_6.1.2\lvgl\src\lv_themes/lv_theme_material.c **** /**********************
  41:..\..\..\lvgl\version_6.1.2\lvgl\src\lv_themes/lv_theme_material.c ****  *      MACROS
  42:..\..\..\lvgl\version_6.1.2\lvgl\src\lv_themes/lv_theme_material.c ****  **********************/
  43:..\..\..\lvgl\version_6.1.2\lvgl\src\lv_themes/lv_theme_material.c **** 
  44:..\..\..\lvgl\version_6.1.2\lvgl\src\lv_themes/lv_theme_material.c **** /**********************
  45:..\..\..\lvgl\version_6.1.2\lvgl\src\lv_themes/lv_theme_material.c ****  *   STATIC FUNCTIONS
  46:..\..\..\lvgl\version_6.1.2\lvgl\src\lv_themes/lv_theme_material.c ****  **********************/
  47:..\..\..\lvgl\version_6.1.2\lvgl\src\lv_themes/lv_theme_material.c **** 
  48:..\..\..\lvgl\version_6.1.2\lvgl\src\lv_themes/lv_theme_material.c **** static void basic_init(void)
  49:..\..\..\lvgl\version_6.1.2\lvgl\src\lv_themes/lv_theme_material.c **** {
 208              		.loc 2 49 0
 209              		.cfi_startproc
 210              		@ args = 0, pretend = 0, frame = 0
 211              		@ frame_needed = 1, uses_anonymous_args = 0
 212 0000 98B5     		push	{r3, r4, r7, lr}
 213              		.cfi_def_cfa_offset 16
 214              		.cfi_offset 3, -16
 215              		.cfi_offset 4, -12
 216              		.cfi_offset 7, -8
 217              		.cfi_offset 14, -4
 218 0002 00AF     		add	r7, sp, #0
 219              		.cfi_def_cfa_register 7
  50:..\..\..\lvgl\version_6.1.2\lvgl\src\lv_themes/lv_theme_material.c ****     static lv_style_t bg, panel, scr;
  51:..\..\..\lvgl\version_6.1.2\lvgl\src\lv_themes/lv_theme_material.c **** 
  52:..\..\..\lvgl\version_6.1.2\lvgl\src\lv_themes/lv_theme_material.c ****     lv_style_copy(&def, &lv_style_plain); /*Initialize the default style*/
 220              		.loc 2 52 0
 221 0004 5649     		ldr	r1, .L8
 222 0006 5748     		ldr	r0, .L8+4
 223 0008 FFF7FEFF 		bl	lv_style_copy
  53:..\..\..\lvgl\version_6.1.2\lvgl\src\lv_themes/lv_theme_material.c ****     def.text.font   = _font;
 224              		.loc 2 53 0
 225 000c 564B     		ldr	r3, .L8+8
 226 000e 1B68     		ldr	r3, [r3]
 227 0010 544A     		ldr	r2, .L8+4
 228 0012 5363     		str	r3, [r2, #52]
  54:..\..\..\lvgl\version_6.1.2\lvgl\src\lv_themes/lv_theme_material.c ****     def.body.radius = DEF_RADIUS;
 229              		.loc 2 54 0
 230 0014 534B     		ldr	r3, .L8+4
 231 0016 0422     		movs	r2, #4
 232 0018 9A81     		strh	r2, [r3, #12]	@ movhi
  55:..\..\..\lvgl\version_6.1.2\lvgl\src\lv_themes/lv_theme_material.c **** 
  56:..\..\..\lvgl\version_6.1.2\lvgl\src\lv_themes/lv_theme_material.c ****     lv_style_copy(&bg, &def);
 233              		.loc 2 56 0
 234 001a 5249     		ldr	r1, .L8+4
 235 001c 5348     		ldr	r0, .L8+12
 236 001e FFF7FEFF 		bl	lv_style_copy
  57:..\..\..\lvgl\version_6.1.2\lvgl\src\lv_themes/lv_theme_material.c ****     bg.body.main_color = lv_color_hex(0xf0f0f0);
 237              		.loc 2 57 0
 238 0022 524C     		ldr	r4, .L8+12
ARM GAS  C:\Users\tmj32\AppData\Local\Temp\cc8DwYg3.s 			page 15


 239 0024 5248     		ldr	r0, .L8+16
 240 0026 FFF7FEFF 		bl	lv_color_hex
 241 002a 6060     		str	r0, [r4, #4]
  58:..\..\..\lvgl\version_6.1.2\lvgl\src\lv_themes/lv_theme_material.c ****     bg.body.grad_color = bg.body.main_color;
 242              		.loc 2 58 0
 243 002c 4F4A     		ldr	r2, .L8+12
 244 002e 4F4B     		ldr	r3, .L8+12
 245 0030 5B68     		ldr	r3, [r3, #4]
 246 0032 9360     		str	r3, [r2, #8]
  59:..\..\..\lvgl\version_6.1.2\lvgl\src\lv_themes/lv_theme_material.c ****     bg.body.radius     = 0;
 247              		.loc 2 59 0
 248 0034 4D4B     		ldr	r3, .L8+12
 249 0036 0022     		movs	r2, #0
 250 0038 9A81     		strh	r2, [r3, #12]	@ movhi
  60:..\..\..\lvgl\version_6.1.2\lvgl\src\lv_themes/lv_theme_material.c **** 
  61:..\..\..\lvgl\version_6.1.2\lvgl\src\lv_themes/lv_theme_material.c ****     lv_style_copy(&scr, &bg);
 251              		.loc 2 61 0
 252 003a 4C49     		ldr	r1, .L8+12
 253 003c 4D48     		ldr	r0, .L8+20
 254 003e FFF7FEFF 		bl	lv_style_copy
  62:..\..\..\lvgl\version_6.1.2\lvgl\src\lv_themes/lv_theme_material.c ****     scr.body.padding.bottom = 0;
 255              		.loc 2 62 0
 256 0042 4C4B     		ldr	r3, .L8+20
 257 0044 0022     		movs	r2, #0
 258 0046 5A84     		strh	r2, [r3, #34]	@ movhi
  63:..\..\..\lvgl\version_6.1.2\lvgl\src\lv_themes/lv_theme_material.c ****     scr.body.padding.top    = 0;
 259              		.loc 2 63 0
 260 0048 4A4B     		ldr	r3, .L8+20
 261 004a 0022     		movs	r2, #0
 262 004c 1A84     		strh	r2, [r3, #32]	@ movhi
  64:..\..\..\lvgl\version_6.1.2\lvgl\src\lv_themes/lv_theme_material.c ****     scr.body.padding.left   = 0;
 263              		.loc 2 64 0
 264 004e 494B     		ldr	r3, .L8+20
 265 0050 0022     		movs	r2, #0
 266 0052 9A84     		strh	r2, [r3, #36]	@ movhi
  65:..\..\..\lvgl\version_6.1.2\lvgl\src\lv_themes/lv_theme_material.c ****     scr.body.padding.right  = 0;
 267              		.loc 2 65 0
 268 0054 474B     		ldr	r3, .L8+20
 269 0056 0022     		movs	r2, #0
 270 0058 DA84     		strh	r2, [r3, #38]	@ movhi
  66:..\..\..\lvgl\version_6.1.2\lvgl\src\lv_themes/lv_theme_material.c **** 
  67:..\..\..\lvgl\version_6.1.2\lvgl\src\lv_themes/lv_theme_material.c ****     lv_style_copy(&panel, &def);
 271              		.loc 2 67 0
 272 005a 4249     		ldr	r1, .L8+4
 273 005c 4648     		ldr	r0, .L8+24
 274 005e FFF7FEFF 		bl	lv_style_copy
  68:..\..\..\lvgl\version_6.1.2\lvgl\src\lv_themes/lv_theme_material.c ****     panel.body.radius         = DEF_RADIUS;
 275              		.loc 2 68 0
 276 0062 454B     		ldr	r3, .L8+24
 277 0064 0422     		movs	r2, #4
 278 0066 9A81     		strh	r2, [r3, #12]	@ movhi
  69:..\..\..\lvgl\version_6.1.2\lvgl\src\lv_themes/lv_theme_material.c ****     panel.body.main_color     = LV_COLOR_WHITE;
 279              		.loc 2 69 0
 280 0068 434B     		ldr	r3, .L8+24
 281 006a FF22     		movs	r2, #255
 282 006c 1A71     		strb	r2, [r3, #4]
 283 006e 424B     		ldr	r3, .L8+24
ARM GAS  C:\Users\tmj32\AppData\Local\Temp\cc8DwYg3.s 			page 16


 284 0070 FF22     		movs	r2, #255
 285 0072 5A71     		strb	r2, [r3, #5]
 286 0074 404B     		ldr	r3, .L8+24
 287 0076 FF22     		movs	r2, #255
 288 0078 9A71     		strb	r2, [r3, #6]
 289 007a 3F4B     		ldr	r3, .L8+24
 290 007c FF22     		movs	r2, #255
 291 007e DA71     		strb	r2, [r3, #7]
  70:..\..\..\lvgl\version_6.1.2\lvgl\src\lv_themes/lv_theme_material.c ****     panel.body.grad_color     = LV_COLOR_WHITE;
 292              		.loc 2 70 0
 293 0080 3D4B     		ldr	r3, .L8+24
 294 0082 FF22     		movs	r2, #255
 295 0084 1A72     		strb	r2, [r3, #8]
 296 0086 3C4B     		ldr	r3, .L8+24
 297 0088 FF22     		movs	r2, #255
 298 008a 5A72     		strb	r2, [r3, #9]
 299 008c 3A4B     		ldr	r3, .L8+24
 300 008e FF22     		movs	r2, #255
 301 0090 9A72     		strb	r2, [r3, #10]
 302 0092 394B     		ldr	r3, .L8+24
 303 0094 FF22     		movs	r2, #255
 304 0096 DA72     		strb	r2, [r3, #11]
  71:..\..\..\lvgl\version_6.1.2\lvgl\src\lv_themes/lv_theme_material.c ****     panel.body.border.width   = 1;
 305              		.loc 2 71 0
 306 0098 374B     		ldr	r3, .L8+24
 307 009a 0122     		movs	r2, #1
 308 009c 9A82     		strh	r2, [r3, #20]	@ movhi
  72:..\..\..\lvgl\version_6.1.2\lvgl\src\lv_themes/lv_theme_material.c ****     panel.body.border.color   = lv_color_hex3(0xbbb);
 309              		.loc 2 72 0
 310 009e 364C     		ldr	r4, .L8+24
 311 00a0 40F6BB30 		movw	r0, #3003
 312 00a4 FFF7FEFF 		bl	lv_color_hex3
 313 00a8 2061     		str	r0, [r4, #16]
  73:..\..\..\lvgl\version_6.1.2\lvgl\src\lv_themes/lv_theme_material.c ****     panel.body.border.opa     = LV_OPA_COVER;
 314              		.loc 2 73 0
 315 00aa 334B     		ldr	r3, .L8+24
 316 00ac FF22     		movs	r2, #255
 317 00ae DA75     		strb	r2, [r3, #23]
  74:..\..\..\lvgl\version_6.1.2\lvgl\src\lv_themes/lv_theme_material.c ****     panel.body.shadow.color   = DEF_SHADOW_COLOR;
 318              		.loc 2 74 0
 319 00b0 314C     		ldr	r4, .L8+24
 320 00b2 40F6AA20 		movw	r0, #2730
 321 00b6 FFF7FEFF 		bl	lv_color_hex3
 322 00ba A061     		str	r0, [r4, #24]
  75:..\..\..\lvgl\version_6.1.2\lvgl\src\lv_themes/lv_theme_material.c ****     panel.body.shadow.type    = LV_SHADOW_BOTTOM;
 323              		.loc 2 75 0
 324 00bc 2E4B     		ldr	r3, .L8+24
 325 00be 0022     		movs	r2, #0
 326 00c0 9A77     		strb	r2, [r3, #30]
  76:..\..\..\lvgl\version_6.1.2\lvgl\src\lv_themes/lv_theme_material.c ****     panel.body.shadow.width   = 4;
 327              		.loc 2 76 0
 328 00c2 2D4B     		ldr	r3, .L8+24
 329 00c4 0422     		movs	r2, #4
 330 00c6 9A83     		strh	r2, [r3, #28]	@ movhi
  77:..\..\..\lvgl\version_6.1.2\lvgl\src\lv_themes/lv_theme_material.c ****     panel.body.padding.left   = LV_DPI / 8;
 331              		.loc 2 77 0
 332 00c8 2B4B     		ldr	r3, .L8+24
ARM GAS  C:\Users\tmj32\AppData\Local\Temp\cc8DwYg3.s 			page 17


 333 00ca 1222     		movs	r2, #18
 334 00cc 9A84     		strh	r2, [r3, #36]	@ movhi
  78:..\..\..\lvgl\version_6.1.2\lvgl\src\lv_themes/lv_theme_material.c ****     panel.body.padding.right  = LV_DPI / 8;
 335              		.loc 2 78 0
 336 00ce 2A4B     		ldr	r3, .L8+24
 337 00d0 1222     		movs	r2, #18
 338 00d2 DA84     		strh	r2, [r3, #38]	@ movhi
  79:..\..\..\lvgl\version_6.1.2\lvgl\src\lv_themes/lv_theme_material.c ****     panel.body.padding.top    = LV_DPI / 8;
 339              		.loc 2 79 0
 340 00d4 284B     		ldr	r3, .L8+24
 341 00d6 1222     		movs	r2, #18
 342 00d8 1A84     		strh	r2, [r3, #32]	@ movhi
  80:..\..\..\lvgl\version_6.1.2\lvgl\src\lv_themes/lv_theme_material.c ****     panel.body.padding.bottom = LV_DPI / 8;
 343              		.loc 2 80 0
 344 00da 274B     		ldr	r3, .L8+24
 345 00dc 1222     		movs	r2, #18
 346 00de 5A84     		strh	r2, [r3, #34]	@ movhi
  81:..\..\..\lvgl\version_6.1.2\lvgl\src\lv_themes/lv_theme_material.c ****     panel.body.padding.inner  = LV_DPI / 12;
 347              		.loc 2 81 0
 348 00e0 254B     		ldr	r3, .L8+24
 349 00e2 0C22     		movs	r2, #12
 350 00e4 1A85     		strh	r2, [r3, #40]	@ movhi
  82:..\..\..\lvgl\version_6.1.2\lvgl\src\lv_themes/lv_theme_material.c ****     panel.text.color          = lv_color_hex3(0x333);
 351              		.loc 2 82 0
 352 00e6 244C     		ldr	r4, .L8+24
 353 00e8 40F23330 		movw	r0, #819
 354 00ec FFF7FEFF 		bl	lv_color_hex3
 355 00f0 E062     		str	r0, [r4, #44]
  83:..\..\..\lvgl\version_6.1.2\lvgl\src\lv_themes/lv_theme_material.c ****     panel.image.color         = lv_color_hex3(0x333);
 356              		.loc 2 83 0
 357 00f2 214C     		ldr	r4, .L8+24
 358 00f4 40F23330 		movw	r0, #819
 359 00f8 FFF7FEFF 		bl	lv_color_hex3
 360 00fc 2064     		str	r0, [r4, #64]
  84:..\..\..\lvgl\version_6.1.2\lvgl\src\lv_themes/lv_theme_material.c **** 
  85:..\..\..\lvgl\version_6.1.2\lvgl\src\lv_themes/lv_theme_material.c ****     lv_style_copy(&sb, &def);
 361              		.loc 2 85 0
 362 00fe 1949     		ldr	r1, .L8+4
 363 0100 1E48     		ldr	r0, .L8+28
 364 0102 FFF7FEFF 		bl	lv_style_copy
  86:..\..\..\lvgl\version_6.1.2\lvgl\src\lv_themes/lv_theme_material.c ****     sb.body.main_color     = LV_COLOR_BLACK;
 365              		.loc 2 86 0
 366 0106 1D4B     		ldr	r3, .L8+28
 367 0108 0022     		movs	r2, #0
 368 010a 1A71     		strb	r2, [r3, #4]
 369 010c 1B4B     		ldr	r3, .L8+28
 370 010e 0022     		movs	r2, #0
 371 0110 5A71     		strb	r2, [r3, #5]
 372 0112 1A4B     		ldr	r3, .L8+28
 373 0114 0022     		movs	r2, #0
 374 0116 9A71     		strb	r2, [r3, #6]
 375 0118 184B     		ldr	r3, .L8+28
 376 011a FF22     		movs	r2, #255
 377 011c DA71     		strb	r2, [r3, #7]
  87:..\..\..\lvgl\version_6.1.2\lvgl\src\lv_themes/lv_theme_material.c ****     sb.body.grad_color     = LV_COLOR_BLACK;
 378              		.loc 2 87 0
 379 011e 174B     		ldr	r3, .L8+28
ARM GAS  C:\Users\tmj32\AppData\Local\Temp\cc8DwYg3.s 			page 18


 380 0120 0022     		movs	r2, #0
 381 0122 1A72     		strb	r2, [r3, #8]
 382 0124 154B     		ldr	r3, .L8+28
 383 0126 0022     		movs	r2, #0
 384 0128 5A72     		strb	r2, [r3, #9]
 385 012a 144B     		ldr	r3, .L8+28
 386 012c 0022     		movs	r2, #0
 387 012e 9A72     		strb	r2, [r3, #10]
 388 0130 124B     		ldr	r3, .L8+28
 389 0132 FF22     		movs	r2, #255
 390 0134 DA72     		strb	r2, [r3, #11]
  88:..\..\..\lvgl\version_6.1.2\lvgl\src\lv_themes/lv_theme_material.c ****     sb.body.opa            = LV_OPA_40;
 391              		.loc 2 88 0
 392 0136 114B     		ldr	r3, .L8+28
 393 0138 6622     		movs	r2, #102
 394 013a 9A73     		strb	r2, [r3, #14]
  89:..\..\..\lvgl\version_6.1.2\lvgl\src\lv_themes/lv_theme_material.c ****     sb.body.padding.right  = LV_DPI / 25;
 395              		.loc 2 89 0
 396 013c 0F4B     		ldr	r3, .L8+28
 397 013e 0622     		movs	r2, #6
 398 0140 DA84     		strh	r2, [r3, #38]	@ movhi
  90:..\..\..\lvgl\version_6.1.2\lvgl\src\lv_themes/lv_theme_material.c ****     sb.body.padding.bottom = LV_DPI / 25;
 399              		.loc 2 90 0
 400 0142 0E4B     		ldr	r3, .L8+28
 401 0144 0622     		movs	r2, #6
 402 0146 5A84     		strh	r2, [r3, #34]	@ movhi
  91:..\..\..\lvgl\version_6.1.2\lvgl\src\lv_themes/lv_theme_material.c **** 
  92:..\..\..\lvgl\version_6.1.2\lvgl\src\lv_themes/lv_theme_material.c ****     theme.style.bg    = &bg;
 403              		.loc 2 92 0
 404 0148 0D4B     		ldr	r3, .L8+32
 405 014a 084A     		ldr	r2, .L8+12
 406 014c 5A60     		str	r2, [r3, #4]
  93:..\..\..\lvgl\version_6.1.2\lvgl\src\lv_themes/lv_theme_material.c ****     theme.style.scr   = &scr;
 407              		.loc 2 93 0
 408 014e 0C4B     		ldr	r3, .L8+32
 409 0150 084A     		ldr	r2, .L8+20
 410 0152 1A60     		str	r2, [r3]
  94:..\..\..\lvgl\version_6.1.2\lvgl\src\lv_themes/lv_theme_material.c ****     theme.style.panel = &panel;
 411              		.loc 2 94 0
 412 0154 0A4B     		ldr	r3, .L8+32
 413 0156 084A     		ldr	r2, .L8+24
 414 0158 9A60     		str	r2, [r3, #8]
  95:..\..\..\lvgl\version_6.1.2\lvgl\src\lv_themes/lv_theme_material.c **** }
 415              		.loc 2 95 0
 416 015a 00BF     		nop
 417 015c 98BD     		pop	{r3, r4, r7, pc}
 418              	.L9:
 419 015e 00BF     		.align	2
 420              	.L8:
 421 0160 00000000 		.word	lv_style_plain
 422 0164 A8010000 		.word	def
 423 0168 4C020000 		.word	_font
 424 016c 50020000 		.word	bg.5947
 425 0170 F0F0F000 		.word	15790320
 426 0174 A0020000 		.word	scr.5949
 427 0178 F0020000 		.word	panel.5948
 428 017c F8010000 		.word	sb
ARM GAS  C:\Users\tmj32\AppData\Local\Temp\cc8DwYg3.s 			page 19


 429 0180 00000000 		.word	theme
 430              		.cfi_endproc
 431              	.LFE31:
 432              		.size	basic_init, .-basic_init
 433              		.section	.text.cont_init,"ax",%progbits
 434              		.align	2
 435              		.thumb
 436              		.thumb_func
 437              		.type	cont_init, %function
 438              	cont_init:
 439              	.LFB32:
  96:..\..\..\lvgl\version_6.1.2\lvgl\src\lv_themes/lv_theme_material.c **** 
  97:..\..\..\lvgl\version_6.1.2\lvgl\src\lv_themes/lv_theme_material.c **** static void cont_init(void)
  98:..\..\..\lvgl\version_6.1.2\lvgl\src\lv_themes/lv_theme_material.c **** {
 440              		.loc 2 98 0
 441              		.cfi_startproc
 442              		@ args = 0, pretend = 0, frame = 0
 443              		@ frame_needed = 1, uses_anonymous_args = 0
 444              		@ link register save eliminated.
 445 0000 80B4     		push	{r7}
 446              		.cfi_def_cfa_offset 4
 447              		.cfi_offset 7, -4
 448 0002 00AF     		add	r7, sp, #0
 449              		.cfi_def_cfa_register 7
  99:..\..\..\lvgl\version_6.1.2\lvgl\src\lv_themes/lv_theme_material.c **** #if LV_USE_CONT != 0
 100:..\..\..\lvgl\version_6.1.2\lvgl\src\lv_themes/lv_theme_material.c **** 
 101:..\..\..\lvgl\version_6.1.2\lvgl\src\lv_themes/lv_theme_material.c ****     theme.style.cont = theme.style.panel;
 450              		.loc 2 101 0
 451 0004 044B     		ldr	r3, .L11
 452 0006 9B68     		ldr	r3, [r3, #8]
 453 0008 034A     		ldr	r2, .L11
 454 000a D360     		str	r3, [r2, #12]
 102:..\..\..\lvgl\version_6.1.2\lvgl\src\lv_themes/lv_theme_material.c **** #endif
 103:..\..\..\lvgl\version_6.1.2\lvgl\src\lv_themes/lv_theme_material.c **** }
 455              		.loc 2 103 0
 456 000c 00BF     		nop
 457 000e BD46     		mov	sp, r7
 458              		.cfi_def_cfa_register 13
 459              		@ sp needed
 460 0010 5DF8047B 		ldr	r7, [sp], #4
 461              		.cfi_restore 7
 462              		.cfi_def_cfa_offset 0
 463 0014 7047     		bx	lr
 464              	.L12:
 465 0016 00BF     		.align	2
 466              	.L11:
 467 0018 00000000 		.word	theme
 468              		.cfi_endproc
 469              	.LFE32:
 470              		.size	cont_init, .-cont_init
 471              		.section	.text.btn_init,"ax",%progbits
 472              		.align	2
 473              		.thumb
 474              		.thumb_func
 475              		.type	btn_init, %function
 476              	btn_init:
 477              	.LFB33:
ARM GAS  C:\Users\tmj32\AppData\Local\Temp\cc8DwYg3.s 			page 20


 104:..\..\..\lvgl\version_6.1.2\lvgl\src\lv_themes/lv_theme_material.c **** 
 105:..\..\..\lvgl\version_6.1.2\lvgl\src\lv_themes/lv_theme_material.c **** static void btn_init(void)
 106:..\..\..\lvgl\version_6.1.2\lvgl\src\lv_themes/lv_theme_material.c **** {
 478              		.loc 2 106 0
 479              		.cfi_startproc
 480              		@ args = 0, pretend = 0, frame = 0
 481              		@ frame_needed = 1, uses_anonymous_args = 0
 482 0000 98B5     		push	{r3, r4, r7, lr}
 483              		.cfi_def_cfa_offset 16
 484              		.cfi_offset 3, -16
 485              		.cfi_offset 4, -12
 486              		.cfi_offset 7, -8
 487              		.cfi_offset 14, -4
 488 0002 00AF     		add	r7, sp, #0
 489              		.cfi_def_cfa_register 7
 107:..\..\..\lvgl\version_6.1.2\lvgl\src\lv_themes/lv_theme_material.c **** #if LV_USE_BTN != 0
 108:..\..\..\lvgl\version_6.1.2\lvgl\src\lv_themes/lv_theme_material.c ****     static lv_style_t rel, pr, tgl_rel, tgl_pr, ina;
 109:..\..\..\lvgl\version_6.1.2\lvgl\src\lv_themes/lv_theme_material.c **** 
 110:..\..\..\lvgl\version_6.1.2\lvgl\src\lv_themes/lv_theme_material.c ****     lv_style_copy(&rel, &def);
 490              		.loc 2 110 0
 491 0004 5849     		ldr	r1, .L14
 492 0006 5948     		ldr	r0, .L14+4
 493 0008 FFF7FEFF 		bl	lv_style_copy
 111:..\..\..\lvgl\version_6.1.2\lvgl\src\lv_themes/lv_theme_material.c ****     rel.body.main_color     = lv_color_hsv_to_rgb(_hue, 90, 70);
 494              		.loc 2 111 0
 495 000c 584B     		ldr	r3, .L14+8
 496 000e 1B88     		ldrh	r3, [r3]
 497 0010 564C     		ldr	r4, .L14+4
 498 0012 4622     		movs	r2, #70
 499 0014 5A21     		movs	r1, #90
 500 0016 1846     		mov	r0, r3
 501 0018 FFF7FEFF 		bl	lv_color_hsv_to_rgb
 502 001c 6060     		str	r0, [r4, #4]
 112:..\..\..\lvgl\version_6.1.2\lvgl\src\lv_themes/lv_theme_material.c ****     rel.body.grad_color     = rel.body.main_color;
 503              		.loc 2 112 0
 504 001e 534A     		ldr	r2, .L14+4
 505 0020 524B     		ldr	r3, .L14+4
 506 0022 5B68     		ldr	r3, [r3, #4]
 507 0024 9360     		str	r3, [r2, #8]
 113:..\..\..\lvgl\version_6.1.2\lvgl\src\lv_themes/lv_theme_material.c ****     rel.body.radius         = DEF_RADIUS;
 508              		.loc 2 113 0
 509 0026 514B     		ldr	r3, .L14+4
 510 0028 0422     		movs	r2, #4
 511 002a 9A81     		strh	r2, [r3, #12]	@ movhi
 114:..\..\..\lvgl\version_6.1.2\lvgl\src\lv_themes/lv_theme_material.c ****     rel.body.padding.left   = LV_DPI / 6;
 512              		.loc 2 114 0
 513 002c 4F4B     		ldr	r3, .L14+4
 514 002e 1922     		movs	r2, #25
 515 0030 9A84     		strh	r2, [r3, #36]	@ movhi
 115:..\..\..\lvgl\version_6.1.2\lvgl\src\lv_themes/lv_theme_material.c ****     rel.body.padding.right  = LV_DPI / 6;
 516              		.loc 2 115 0
 517 0032 4E4B     		ldr	r3, .L14+4
 518 0034 1922     		movs	r2, #25
 519 0036 DA84     		strh	r2, [r3, #38]	@ movhi
 116:..\..\..\lvgl\version_6.1.2\lvgl\src\lv_themes/lv_theme_material.c ****     rel.body.padding.top    = LV_DPI / 8;
 520              		.loc 2 116 0
 521 0038 4C4B     		ldr	r3, .L14+4
ARM GAS  C:\Users\tmj32\AppData\Local\Temp\cc8DwYg3.s 			page 21


 522 003a 1222     		movs	r2, #18
 523 003c 1A84     		strh	r2, [r3, #32]	@ movhi
 117:..\..\..\lvgl\version_6.1.2\lvgl\src\lv_themes/lv_theme_material.c ****     rel.body.padding.bottom = LV_DPI / 8;
 524              		.loc 2 117 0
 525 003e 4B4B     		ldr	r3, .L14+4
 526 0040 1222     		movs	r2, #18
 527 0042 5A84     		strh	r2, [r3, #34]	@ movhi
 118:..\..\..\lvgl\version_6.1.2\lvgl\src\lv_themes/lv_theme_material.c ****     rel.body.padding.inner  = LV_DPI / 10;
 528              		.loc 2 118 0
 529 0044 494B     		ldr	r3, .L14+4
 530 0046 0F22     		movs	r2, #15
 531 0048 1A85     		strh	r2, [r3, #40]	@ movhi
 119:..\..\..\lvgl\version_6.1.2\lvgl\src\lv_themes/lv_theme_material.c ****     rel.body.shadow.color   = DEF_SHADOW_COLOR;
 532              		.loc 2 119 0
 533 004a 484C     		ldr	r4, .L14+4
 534 004c 40F6AA20 		movw	r0, #2730
 535 0050 FFF7FEFF 		bl	lv_color_hex3
 536 0054 A061     		str	r0, [r4, #24]
 120:..\..\..\lvgl\version_6.1.2\lvgl\src\lv_themes/lv_theme_material.c ****     rel.body.shadow.type    = LV_SHADOW_BOTTOM;
 537              		.loc 2 120 0
 538 0056 454B     		ldr	r3, .L14+4
 539 0058 0022     		movs	r2, #0
 540 005a 9A77     		strb	r2, [r3, #30]
 121:..\..\..\lvgl\version_6.1.2\lvgl\src\lv_themes/lv_theme_material.c ****     rel.body.shadow.width   = 6;
 541              		.loc 2 121 0
 542 005c 434B     		ldr	r3, .L14+4
 543 005e 0622     		movs	r2, #6
 544 0060 9A83     		strh	r2, [r3, #28]	@ movhi
 122:..\..\..\lvgl\version_6.1.2\lvgl\src\lv_themes/lv_theme_material.c ****     rel.text.color          = lv_color_hsv_to_rgb(_hue, 5, 95);
 545              		.loc 2 122 0
 546 0062 434B     		ldr	r3, .L14+8
 547 0064 1B88     		ldrh	r3, [r3]
 548 0066 414C     		ldr	r4, .L14+4
 549 0068 5F22     		movs	r2, #95
 550 006a 0521     		movs	r1, #5
 551 006c 1846     		mov	r0, r3
 552 006e FFF7FEFF 		bl	lv_color_hsv_to_rgb
 553 0072 E062     		str	r0, [r4, #44]
 123:..\..\..\lvgl\version_6.1.2\lvgl\src\lv_themes/lv_theme_material.c ****     rel.image.color         = lv_color_hsv_to_rgb(_hue, 5, 95);
 554              		.loc 2 123 0
 555 0074 3E4B     		ldr	r3, .L14+8
 556 0076 1B88     		ldrh	r3, [r3]
 557 0078 3C4C     		ldr	r4, .L14+4
 558 007a 5F22     		movs	r2, #95
 559 007c 0521     		movs	r1, #5
 560 007e 1846     		mov	r0, r3
 561 0080 FFF7FEFF 		bl	lv_color_hsv_to_rgb
 562 0084 2064     		str	r0, [r4, #64]
 124:..\..\..\lvgl\version_6.1.2\lvgl\src\lv_themes/lv_theme_material.c **** 
 125:..\..\..\lvgl\version_6.1.2\lvgl\src\lv_themes/lv_theme_material.c ****     lv_style_copy(&pr, &rel);
 563              		.loc 2 125 0
 564 0086 3949     		ldr	r1, .L14+4
 565 0088 3A48     		ldr	r0, .L14+12
 566 008a FFF7FEFF 		bl	lv_style_copy
 126:..\..\..\lvgl\version_6.1.2\lvgl\src\lv_themes/lv_theme_material.c ****     pr.body.main_color   = lv_color_hsv_to_rgb(_hue, 90, 60);
 567              		.loc 2 126 0
 568 008e 384B     		ldr	r3, .L14+8
ARM GAS  C:\Users\tmj32\AppData\Local\Temp\cc8DwYg3.s 			page 22


 569 0090 1B88     		ldrh	r3, [r3]
 570 0092 384C     		ldr	r4, .L14+12
 571 0094 3C22     		movs	r2, #60
 572 0096 5A21     		movs	r1, #90
 573 0098 1846     		mov	r0, r3
 574 009a FFF7FEFF 		bl	lv_color_hsv_to_rgb
 575 009e 6060     		str	r0, [r4, #4]
 127:..\..\..\lvgl\version_6.1.2\lvgl\src\lv_themes/lv_theme_material.c ****     pr.body.grad_color   = pr.body.main_color;
 576              		.loc 2 127 0
 577 00a0 344A     		ldr	r2, .L14+12
 578 00a2 344B     		ldr	r3, .L14+12
 579 00a4 5B68     		ldr	r3, [r3, #4]
 580 00a6 9360     		str	r3, [r2, #8]
 128:..\..\..\lvgl\version_6.1.2\lvgl\src\lv_themes/lv_theme_material.c ****     pr.body.shadow.width = 4;
 581              		.loc 2 128 0
 582 00a8 324B     		ldr	r3, .L14+12
 583 00aa 0422     		movs	r2, #4
 584 00ac 9A83     		strh	r2, [r3, #28]	@ movhi
 129:..\..\..\lvgl\version_6.1.2\lvgl\src\lv_themes/lv_theme_material.c **** 
 130:..\..\..\lvgl\version_6.1.2\lvgl\src\lv_themes/lv_theme_material.c ****     lv_style_copy(&tgl_rel, &rel);
 585              		.loc 2 130 0
 586 00ae 2F49     		ldr	r1, .L14+4
 587 00b0 3148     		ldr	r0, .L14+16
 588 00b2 FFF7FEFF 		bl	lv_style_copy
 131:..\..\..\lvgl\version_6.1.2\lvgl\src\lv_themes/lv_theme_material.c ****     tgl_rel.body.main_color   = lv_color_hsv_to_rgb(_hue, 95, 50);
 589              		.loc 2 131 0
 590 00b6 2E4B     		ldr	r3, .L14+8
 591 00b8 1B88     		ldrh	r3, [r3]
 592 00ba 2F4C     		ldr	r4, .L14+16
 593 00bc 3222     		movs	r2, #50
 594 00be 5F21     		movs	r1, #95
 595 00c0 1846     		mov	r0, r3
 596 00c2 FFF7FEFF 		bl	lv_color_hsv_to_rgb
 597 00c6 6060     		str	r0, [r4, #4]
 132:..\..\..\lvgl\version_6.1.2\lvgl\src\lv_themes/lv_theme_material.c ****     tgl_rel.body.grad_color   = tgl_rel.body.main_color;
 598              		.loc 2 132 0
 599 00c8 2B4A     		ldr	r2, .L14+16
 600 00ca 2B4B     		ldr	r3, .L14+16
 601 00cc 5B68     		ldr	r3, [r3, #4]
 602 00ce 9360     		str	r3, [r2, #8]
 133:..\..\..\lvgl\version_6.1.2\lvgl\src\lv_themes/lv_theme_material.c ****     tgl_rel.body.shadow.width = 4;
 603              		.loc 2 133 0
 604 00d0 294B     		ldr	r3, .L14+16
 605 00d2 0422     		movs	r2, #4
 606 00d4 9A83     		strh	r2, [r3, #28]	@ movhi
 134:..\..\..\lvgl\version_6.1.2\lvgl\src\lv_themes/lv_theme_material.c **** 
 135:..\..\..\lvgl\version_6.1.2\lvgl\src\lv_themes/lv_theme_material.c ****     lv_style_copy(&tgl_pr, &tgl_rel);
 607              		.loc 2 135 0
 608 00d6 2849     		ldr	r1, .L14+16
 609 00d8 2848     		ldr	r0, .L14+20
 610 00da FFF7FEFF 		bl	lv_style_copy
 136:..\..\..\lvgl\version_6.1.2\lvgl\src\lv_themes/lv_theme_material.c ****     tgl_pr.body.main_color   = lv_color_hsv_to_rgb(_hue, 95, 40);
 611              		.loc 2 136 0
 612 00de 244B     		ldr	r3, .L14+8
 613 00e0 1B88     		ldrh	r3, [r3]
 614 00e2 264C     		ldr	r4, .L14+20
 615 00e4 2822     		movs	r2, #40
ARM GAS  C:\Users\tmj32\AppData\Local\Temp\cc8DwYg3.s 			page 23


 616 00e6 5F21     		movs	r1, #95
 617 00e8 1846     		mov	r0, r3
 618 00ea FFF7FEFF 		bl	lv_color_hsv_to_rgb
 619 00ee 6060     		str	r0, [r4, #4]
 137:..\..\..\lvgl\version_6.1.2\lvgl\src\lv_themes/lv_theme_material.c ****     tgl_pr.body.grad_color   = tgl_pr.body.main_color;
 620              		.loc 2 137 0
 621 00f0 224A     		ldr	r2, .L14+20
 622 00f2 224B     		ldr	r3, .L14+20
 623 00f4 5B68     		ldr	r3, [r3, #4]
 624 00f6 9360     		str	r3, [r2, #8]
 138:..\..\..\lvgl\version_6.1.2\lvgl\src\lv_themes/lv_theme_material.c ****     tgl_pr.body.shadow.width = 2;
 625              		.loc 2 138 0
 626 00f8 204B     		ldr	r3, .L14+20
 627 00fa 0222     		movs	r2, #2
 628 00fc 9A83     		strh	r2, [r3, #28]	@ movhi
 139:..\..\..\lvgl\version_6.1.2\lvgl\src\lv_themes/lv_theme_material.c **** 
 140:..\..\..\lvgl\version_6.1.2\lvgl\src\lv_themes/lv_theme_material.c ****     lv_style_copy(&ina, &rel);
 629              		.loc 2 140 0
 630 00fe 1B49     		ldr	r1, .L14+4
 631 0100 1F48     		ldr	r0, .L14+24
 632 0102 FFF7FEFF 		bl	lv_style_copy
 141:..\..\..\lvgl\version_6.1.2\lvgl\src\lv_themes/lv_theme_material.c ****     ina.body.main_color   = lv_color_hex3(0xccc);
 633              		.loc 2 141 0
 634 0106 1E4C     		ldr	r4, .L14+24
 635 0108 40F6CC40 		movw	r0, #3276
 636 010c FFF7FEFF 		bl	lv_color_hex3
 637 0110 6060     		str	r0, [r4, #4]
 142:..\..\..\lvgl\version_6.1.2\lvgl\src\lv_themes/lv_theme_material.c ****     ina.body.grad_color   = ina.body.main_color;
 638              		.loc 2 142 0
 639 0112 1B4A     		ldr	r2, .L14+24
 640 0114 1A4B     		ldr	r3, .L14+24
 641 0116 5B68     		ldr	r3, [r3, #4]
 642 0118 9360     		str	r3, [r2, #8]
 143:..\..\..\lvgl\version_6.1.2\lvgl\src\lv_themes/lv_theme_material.c ****     ina.body.shadow.width = 0;
 643              		.loc 2 143 0
 644 011a 194B     		ldr	r3, .L14+24
 645 011c 0022     		movs	r2, #0
 646 011e 9A83     		strh	r2, [r3, #28]	@ movhi
 144:..\..\..\lvgl\version_6.1.2\lvgl\src\lv_themes/lv_theme_material.c ****     ina.text.color        = lv_color_hsv_to_rgb(_hue, 95, 5);
 647              		.loc 2 144 0
 648 0120 134B     		ldr	r3, .L14+8
 649 0122 1B88     		ldrh	r3, [r3]
 650 0124 164C     		ldr	r4, .L14+24
 651 0126 0522     		movs	r2, #5
 652 0128 5F21     		movs	r1, #95
 653 012a 1846     		mov	r0, r3
 654 012c FFF7FEFF 		bl	lv_color_hsv_to_rgb
 655 0130 E062     		str	r0, [r4, #44]
 145:..\..\..\lvgl\version_6.1.2\lvgl\src\lv_themes/lv_theme_material.c ****     ina.image.color       = lv_color_hsv_to_rgb(_hue, 95, 5);
 656              		.loc 2 145 0
 657 0132 0F4B     		ldr	r3, .L14+8
 658 0134 1B88     		ldrh	r3, [r3]
 659 0136 124C     		ldr	r4, .L14+24
 660 0138 0522     		movs	r2, #5
 661 013a 5F21     		movs	r1, #95
 662 013c 1846     		mov	r0, r3
 663 013e FFF7FEFF 		bl	lv_color_hsv_to_rgb
ARM GAS  C:\Users\tmj32\AppData\Local\Temp\cc8DwYg3.s 			page 24


 664 0142 2064     		str	r0, [r4, #64]
 146:..\..\..\lvgl\version_6.1.2\lvgl\src\lv_themes/lv_theme_material.c **** 
 147:..\..\..\lvgl\version_6.1.2\lvgl\src\lv_themes/lv_theme_material.c ****     theme.style.btn.rel     = &rel;
 665              		.loc 2 147 0
 666 0144 0F4B     		ldr	r3, .L14+28
 667 0146 094A     		ldr	r2, .L14+4
 668 0148 1A61     		str	r2, [r3, #16]
 148:..\..\..\lvgl\version_6.1.2\lvgl\src\lv_themes/lv_theme_material.c ****     theme.style.btn.pr      = &pr;
 669              		.loc 2 148 0
 670 014a 0E4B     		ldr	r3, .L14+28
 671 014c 094A     		ldr	r2, .L14+12
 672 014e 5A61     		str	r2, [r3, #20]
 149:..\..\..\lvgl\version_6.1.2\lvgl\src\lv_themes/lv_theme_material.c ****     theme.style.btn.tgl_rel = &tgl_rel;
 673              		.loc 2 149 0
 674 0150 0C4B     		ldr	r3, .L14+28
 675 0152 094A     		ldr	r2, .L14+16
 676 0154 9A61     		str	r2, [r3, #24]
 150:..\..\..\lvgl\version_6.1.2\lvgl\src\lv_themes/lv_theme_material.c ****     theme.style.btn.tgl_pr  = &tgl_pr;
 677              		.loc 2 150 0
 678 0156 0B4B     		ldr	r3, .L14+28
 679 0158 084A     		ldr	r2, .L14+20
 680 015a DA61     		str	r2, [r3, #28]
 151:..\..\..\lvgl\version_6.1.2\lvgl\src\lv_themes/lv_theme_material.c ****     theme.style.btn.ina     = &ina;
 681              		.loc 2 151 0
 682 015c 094B     		ldr	r3, .L14+28
 683 015e 084A     		ldr	r2, .L14+24
 684 0160 1A62     		str	r2, [r3, #32]
 152:..\..\..\lvgl\version_6.1.2\lvgl\src\lv_themes/lv_theme_material.c **** #endif
 153:..\..\..\lvgl\version_6.1.2\lvgl\src\lv_themes/lv_theme_material.c **** }
 685              		.loc 2 153 0
 686 0162 00BF     		nop
 687 0164 98BD     		pop	{r3, r4, r7, pc}
 688              	.L15:
 689 0166 00BF     		.align	2
 690              	.L14:
 691 0168 A8010000 		.word	def
 692 016c 40030000 		.word	rel.5960
 693 0170 48020000 		.word	_hue
 694 0174 90030000 		.word	pr.5961
 695 0178 E0030000 		.word	tgl_rel.5962
 696 017c 30040000 		.word	tgl_pr.5963
 697 0180 80040000 		.word	ina.5964
 698 0184 00000000 		.word	theme
 699              		.cfi_endproc
 700              	.LFE33:
 701              		.size	btn_init, .-btn_init
 702              		.section	.text.label_init,"ax",%progbits
 703              		.align	2
 704              		.thumb
 705              		.thumb_func
 706              		.type	label_init, %function
 707              	label_init:
 708              	.LFB34:
 154:..\..\..\lvgl\version_6.1.2\lvgl\src\lv_themes/lv_theme_material.c **** 
 155:..\..\..\lvgl\version_6.1.2\lvgl\src\lv_themes/lv_theme_material.c **** static void label_init(void)
 156:..\..\..\lvgl\version_6.1.2\lvgl\src\lv_themes/lv_theme_material.c **** {
 709              		.loc 2 156 0
ARM GAS  C:\Users\tmj32\AppData\Local\Temp\cc8DwYg3.s 			page 25


 710              		.cfi_startproc
 711              		@ args = 0, pretend = 0, frame = 0
 712              		@ frame_needed = 1, uses_anonymous_args = 0
 713 0000 98B5     		push	{r3, r4, r7, lr}
 714              		.cfi_def_cfa_offset 16
 715              		.cfi_offset 3, -16
 716              		.cfi_offset 4, -12
 717              		.cfi_offset 7, -8
 718              		.cfi_offset 14, -4
 719 0002 00AF     		add	r7, sp, #0
 720              		.cfi_def_cfa_register 7
 157:..\..\..\lvgl\version_6.1.2\lvgl\src\lv_themes/lv_theme_material.c **** #if LV_USE_LABEL != 0
 158:..\..\..\lvgl\version_6.1.2\lvgl\src\lv_themes/lv_theme_material.c ****     static lv_style_t prim, sec, hint;
 159:..\..\..\lvgl\version_6.1.2\lvgl\src\lv_themes/lv_theme_material.c **** 
 160:..\..\..\lvgl\version_6.1.2\lvgl\src\lv_themes/lv_theme_material.c ****     lv_style_copy(&prim, &def);
 721              		.loc 2 160 0
 722 0004 1A49     		ldr	r1, .L17
 723 0006 1B48     		ldr	r0, .L17+4
 724 0008 FFF7FEFF 		bl	lv_style_copy
 161:..\..\..\lvgl\version_6.1.2\lvgl\src\lv_themes/lv_theme_material.c ****     prim.text.font  = _font;
 725              		.loc 2 161 0
 726 000c 1A4B     		ldr	r3, .L17+8
 727 000e 1B68     		ldr	r3, [r3]
 728 0010 184A     		ldr	r2, .L17+4
 729 0012 5363     		str	r3, [r2, #52]
 162:..\..\..\lvgl\version_6.1.2\lvgl\src\lv_themes/lv_theme_material.c ****     prim.text.color = lv_color_hsv_to_rgb(_hue, 80, 10);
 730              		.loc 2 162 0
 731 0014 194B     		ldr	r3, .L17+12
 732 0016 1B88     		ldrh	r3, [r3]
 733 0018 164C     		ldr	r4, .L17+4
 734 001a 0A22     		movs	r2, #10
 735 001c 5021     		movs	r1, #80
 736 001e 1846     		mov	r0, r3
 737 0020 FFF7FEFF 		bl	lv_color_hsv_to_rgb
 738 0024 E062     		str	r0, [r4, #44]
 163:..\..\..\lvgl\version_6.1.2\lvgl\src\lv_themes/lv_theme_material.c **** 
 164:..\..\..\lvgl\version_6.1.2\lvgl\src\lv_themes/lv_theme_material.c ****     lv_style_copy(&sec, &prim);
 739              		.loc 2 164 0
 740 0026 1349     		ldr	r1, .L17+4
 741 0028 1548     		ldr	r0, .L17+16
 742 002a FFF7FEFF 		bl	lv_style_copy
 165:..\..\..\lvgl\version_6.1.2\lvgl\src\lv_themes/lv_theme_material.c ****     sec.text.color = lv_color_hsv_to_rgb(_hue, 80, 75);
 743              		.loc 2 165 0
 744 002e 134B     		ldr	r3, .L17+12
 745 0030 1B88     		ldrh	r3, [r3]
 746 0032 134C     		ldr	r4, .L17+16
 747 0034 4B22     		movs	r2, #75
 748 0036 5021     		movs	r1, #80
 749 0038 1846     		mov	r0, r3
 750 003a FFF7FEFF 		bl	lv_color_hsv_to_rgb
 751 003e E062     		str	r0, [r4, #44]
 166:..\..\..\lvgl\version_6.1.2\lvgl\src\lv_themes/lv_theme_material.c **** 
 167:..\..\..\lvgl\version_6.1.2\lvgl\src\lv_themes/lv_theme_material.c ****     lv_style_copy(&hint, &prim);
 752              		.loc 2 167 0
 753 0040 0C49     		ldr	r1, .L17+4
 754 0042 1048     		ldr	r0, .L17+20
 755 0044 FFF7FEFF 		bl	lv_style_copy
ARM GAS  C:\Users\tmj32\AppData\Local\Temp\cc8DwYg3.s 			page 26


 168:..\..\..\lvgl\version_6.1.2\lvgl\src\lv_themes/lv_theme_material.c ****     hint.text.color = lv_color_hsv_to_rgb(_hue, 40, 90);
 756              		.loc 2 168 0
 757 0048 0C4B     		ldr	r3, .L17+12
 758 004a 1B88     		ldrh	r3, [r3]
 759 004c 0D4C     		ldr	r4, .L17+20
 760 004e 5A22     		movs	r2, #90
 761 0050 2821     		movs	r1, #40
 762 0052 1846     		mov	r0, r3
 763 0054 FFF7FEFF 		bl	lv_color_hsv_to_rgb
 764 0058 E062     		str	r0, [r4, #44]
 169:..\..\..\lvgl\version_6.1.2\lvgl\src\lv_themes/lv_theme_material.c **** 
 170:..\..\..\lvgl\version_6.1.2\lvgl\src\lv_themes/lv_theme_material.c ****     theme.style.label.prim = &prim;
 765              		.loc 2 170 0
 766 005a 0B4B     		ldr	r3, .L17+24
 767 005c 054A     		ldr	r2, .L17+4
 768 005e 9A63     		str	r2, [r3, #56]
 171:..\..\..\lvgl\version_6.1.2\lvgl\src\lv_themes/lv_theme_material.c ****     theme.style.label.sec  = &sec;
 769              		.loc 2 171 0
 770 0060 094B     		ldr	r3, .L17+24
 771 0062 074A     		ldr	r2, .L17+16
 772 0064 DA63     		str	r2, [r3, #60]
 172:..\..\..\lvgl\version_6.1.2\lvgl\src\lv_themes/lv_theme_material.c ****     theme.style.label.hint = &hint;
 773              		.loc 2 172 0
 774 0066 084B     		ldr	r3, .L17+24
 775 0068 064A     		ldr	r2, .L17+20
 776 006a 1A64     		str	r2, [r3, #64]
 173:..\..\..\lvgl\version_6.1.2\lvgl\src\lv_themes/lv_theme_material.c **** #endif
 174:..\..\..\lvgl\version_6.1.2\lvgl\src\lv_themes/lv_theme_material.c **** }
 777              		.loc 2 174 0
 778 006c 00BF     		nop
 779 006e 98BD     		pop	{r3, r4, r7, pc}
 780              	.L18:
 781              		.align	2
 782              	.L17:
 783 0070 A8010000 		.word	def
 784 0074 D0040000 		.word	prim.5968
 785 0078 4C020000 		.word	_font
 786 007c 48020000 		.word	_hue
 787 0080 20050000 		.word	sec.5969
 788 0084 70050000 		.word	hint.5970
 789 0088 00000000 		.word	theme
 790              		.cfi_endproc
 791              	.LFE34:
 792              		.size	label_init, .-label_init
 793              		.section	.text.img_init,"ax",%progbits
 794              		.align	2
 795              		.thumb
 796              		.thumb_func
 797              		.type	img_init, %function
 798              	img_init:
 799              	.LFB35:
 175:..\..\..\lvgl\version_6.1.2\lvgl\src\lv_themes/lv_theme_material.c **** 
 176:..\..\..\lvgl\version_6.1.2\lvgl\src\lv_themes/lv_theme_material.c **** static void img_init(void)
 177:..\..\..\lvgl\version_6.1.2\lvgl\src\lv_themes/lv_theme_material.c **** {
 800              		.loc 2 177 0
 801              		.cfi_startproc
 802              		@ args = 0, pretend = 0, frame = 0
ARM GAS  C:\Users\tmj32\AppData\Local\Temp\cc8DwYg3.s 			page 27


 803              		@ frame_needed = 1, uses_anonymous_args = 0
 804 0000 98B5     		push	{r3, r4, r7, lr}
 805              		.cfi_def_cfa_offset 16
 806              		.cfi_offset 3, -16
 807              		.cfi_offset 4, -12
 808              		.cfi_offset 7, -8
 809              		.cfi_offset 14, -4
 810 0002 00AF     		add	r7, sp, #0
 811              		.cfi_def_cfa_register 7
 178:..\..\..\lvgl\version_6.1.2\lvgl\src\lv_themes/lv_theme_material.c **** #if LV_USE_IMG != 0
 179:..\..\..\lvgl\version_6.1.2\lvgl\src\lv_themes/lv_theme_material.c ****     static lv_style_t img_light, img_dark;
 180:..\..\..\lvgl\version_6.1.2\lvgl\src\lv_themes/lv_theme_material.c ****     lv_style_copy(&img_light, &def);
 812              		.loc 2 180 0
 813 0004 1449     		ldr	r1, .L20
 814 0006 1548     		ldr	r0, .L20+4
 815 0008 FFF7FEFF 		bl	lv_style_copy
 181:..\..\..\lvgl\version_6.1.2\lvgl\src\lv_themes/lv_theme_material.c ****     img_light.image.color   = lv_color_hsv_to_rgb(_hue, 15, 85);
 816              		.loc 2 181 0
 817 000c 144B     		ldr	r3, .L20+8
 818 000e 1B88     		ldrh	r3, [r3]
 819 0010 124C     		ldr	r4, .L20+4
 820 0012 5522     		movs	r2, #85
 821 0014 0F21     		movs	r1, #15
 822 0016 1846     		mov	r0, r3
 823 0018 FFF7FEFF 		bl	lv_color_hsv_to_rgb
 824 001c 2064     		str	r0, [r4, #64]
 182:..\..\..\lvgl\version_6.1.2\lvgl\src\lv_themes/lv_theme_material.c ****     img_light.image.intense = LV_OPA_80;
 825              		.loc 2 182 0
 826 001e 0F4B     		ldr	r3, .L20+4
 827 0020 CC22     		movs	r2, #204
 828 0022 83F84420 		strb	r2, [r3, #68]
 183:..\..\..\lvgl\version_6.1.2\lvgl\src\lv_themes/lv_theme_material.c **** 
 184:..\..\..\lvgl\version_6.1.2\lvgl\src\lv_themes/lv_theme_material.c ****     lv_style_copy(&img_dark, &def);
 829              		.loc 2 184 0
 830 0026 0C49     		ldr	r1, .L20
 831 0028 0E48     		ldr	r0, .L20+12
 832 002a FFF7FEFF 		bl	lv_style_copy
 185:..\..\..\lvgl\version_6.1.2\lvgl\src\lv_themes/lv_theme_material.c ****     img_light.image.color   = lv_color_hsv_to_rgb(_hue, 85, 65);
 833              		.loc 2 185 0
 834 002e 0C4B     		ldr	r3, .L20+8
 835 0030 1B88     		ldrh	r3, [r3]
 836 0032 0A4C     		ldr	r4, .L20+4
 837 0034 4122     		movs	r2, #65
 838 0036 5521     		movs	r1, #85
 839 0038 1846     		mov	r0, r3
 840 003a FFF7FEFF 		bl	lv_color_hsv_to_rgb
 841 003e 2064     		str	r0, [r4, #64]
 186:..\..\..\lvgl\version_6.1.2\lvgl\src\lv_themes/lv_theme_material.c ****     img_light.image.intense = LV_OPA_80;
 842              		.loc 2 186 0
 843 0040 064B     		ldr	r3, .L20+4
 844 0042 CC22     		movs	r2, #204
 845 0044 83F84420 		strb	r2, [r3, #68]
 187:..\..\..\lvgl\version_6.1.2\lvgl\src\lv_themes/lv_theme_material.c **** 
 188:..\..\..\lvgl\version_6.1.2\lvgl\src\lv_themes/lv_theme_material.c ****     theme.style.img.light = &def;
 846              		.loc 2 188 0
 847 0048 074B     		ldr	r3, .L20+16
 848 004a 034A     		ldr	r2, .L20
ARM GAS  C:\Users\tmj32\AppData\Local\Temp\cc8DwYg3.s 			page 28


 849 004c 5A64     		str	r2, [r3, #68]
 189:..\..\..\lvgl\version_6.1.2\lvgl\src\lv_themes/lv_theme_material.c ****     theme.style.img.dark  = &def;
 850              		.loc 2 189 0
 851 004e 064B     		ldr	r3, .L20+16
 852 0050 014A     		ldr	r2, .L20
 853 0052 9A64     		str	r2, [r3, #72]
 190:..\..\..\lvgl\version_6.1.2\lvgl\src\lv_themes/lv_theme_material.c **** #endif
 191:..\..\..\lvgl\version_6.1.2\lvgl\src\lv_themes/lv_theme_material.c **** }
 854              		.loc 2 191 0
 855 0054 00BF     		nop
 856 0056 98BD     		pop	{r3, r4, r7, pc}
 857              	.L21:
 858              		.align	2
 859              	.L20:
 860 0058 A8010000 		.word	def
 861 005c C0050000 		.word	img_light.5974
 862 0060 48020000 		.word	_hue
 863 0064 10060000 		.word	img_dark.5975
 864 0068 00000000 		.word	theme
 865              		.cfi_endproc
 866              	.LFE35:
 867              		.size	img_init, .-img_init
 868              		.section	.text.line_init,"ax",%progbits
 869              		.align	2
 870              		.thumb
 871              		.thumb_func
 872              		.type	line_init, %function
 873              	line_init:
 874              	.LFB36:
 192:..\..\..\lvgl\version_6.1.2\lvgl\src\lv_themes/lv_theme_material.c **** 
 193:..\..\..\lvgl\version_6.1.2\lvgl\src\lv_themes/lv_theme_material.c **** static void line_init(void)
 194:..\..\..\lvgl\version_6.1.2\lvgl\src\lv_themes/lv_theme_material.c **** {
 875              		.loc 2 194 0
 876              		.cfi_startproc
 877              		@ args = 0, pretend = 0, frame = 0
 878              		@ frame_needed = 1, uses_anonymous_args = 0
 879              		@ link register save eliminated.
 880 0000 80B4     		push	{r7}
 881              		.cfi_def_cfa_offset 4
 882              		.cfi_offset 7, -4
 883 0002 00AF     		add	r7, sp, #0
 884              		.cfi_def_cfa_register 7
 195:..\..\..\lvgl\version_6.1.2\lvgl\src\lv_themes/lv_theme_material.c **** #if LV_USE_LINE != 0
 196:..\..\..\lvgl\version_6.1.2\lvgl\src\lv_themes/lv_theme_material.c **** 
 197:..\..\..\lvgl\version_6.1.2\lvgl\src\lv_themes/lv_theme_material.c ****     theme.style.line.decor = &def;
 885              		.loc 2 197 0
 886 0004 034B     		ldr	r3, .L23
 887 0006 044A     		ldr	r2, .L23+4
 888 0008 DA64     		str	r2, [r3, #76]
 198:..\..\..\lvgl\version_6.1.2\lvgl\src\lv_themes/lv_theme_material.c **** #endif
 199:..\..\..\lvgl\version_6.1.2\lvgl\src\lv_themes/lv_theme_material.c **** }
 889              		.loc 2 199 0
 890 000a 00BF     		nop
 891 000c BD46     		mov	sp, r7
 892              		.cfi_def_cfa_register 13
 893              		@ sp needed
 894 000e 5DF8047B 		ldr	r7, [sp], #4
ARM GAS  C:\Users\tmj32\AppData\Local\Temp\cc8DwYg3.s 			page 29


 895              		.cfi_restore 7
 896              		.cfi_def_cfa_offset 0
 897 0012 7047     		bx	lr
 898              	.L24:
 899              		.align	2
 900              	.L23:
 901 0014 00000000 		.word	theme
 902 0018 A8010000 		.word	def
 903              		.cfi_endproc
 904              	.LFE36:
 905              		.size	line_init, .-line_init
 906              		.section	.text.led_init,"ax",%progbits
 907              		.align	2
 908              		.thumb
 909              		.thumb_func
 910              		.type	led_init, %function
 911              	led_init:
 912              	.LFB37:
 200:..\..\..\lvgl\version_6.1.2\lvgl\src\lv_themes/lv_theme_material.c **** 
 201:..\..\..\lvgl\version_6.1.2\lvgl\src\lv_themes/lv_theme_material.c **** static void led_init(void)
 202:..\..\..\lvgl\version_6.1.2\lvgl\src\lv_themes/lv_theme_material.c **** {
 913              		.loc 2 202 0
 914              		.cfi_startproc
 915              		@ args = 0, pretend = 0, frame = 0
 916              		@ frame_needed = 1, uses_anonymous_args = 0
 917 0000 98B5     		push	{r3, r4, r7, lr}
 918              		.cfi_def_cfa_offset 16
 919              		.cfi_offset 3, -16
 920              		.cfi_offset 4, -12
 921              		.cfi_offset 7, -8
 922              		.cfi_offset 14, -4
 923 0002 00AF     		add	r7, sp, #0
 924              		.cfi_def_cfa_register 7
 203:..\..\..\lvgl\version_6.1.2\lvgl\src\lv_themes/lv_theme_material.c **** #if LV_USE_LED != 0
 204:..\..\..\lvgl\version_6.1.2\lvgl\src\lv_themes/lv_theme_material.c ****     static lv_style_t led;
 205:..\..\..\lvgl\version_6.1.2\lvgl\src\lv_themes/lv_theme_material.c ****     lv_style_copy(&led, &def);
 925              		.loc 2 205 0
 926 0004 1C49     		ldr	r1, .L26
 927 0006 1D48     		ldr	r0, .L26+4
 928 0008 FFF7FEFF 		bl	lv_style_copy
 206:..\..\..\lvgl\version_6.1.2\lvgl\src\lv_themes/lv_theme_material.c ****     led.body.shadow.width = LV_DPI / 10;
 929              		.loc 2 206 0
 930 000c 1B4B     		ldr	r3, .L26+4
 931 000e 0F22     		movs	r2, #15
 932 0010 9A83     		strh	r2, [r3, #28]	@ movhi
 207:..\..\..\lvgl\version_6.1.2\lvgl\src\lv_themes/lv_theme_material.c ****     led.body.radius       = LV_RADIUS_CIRCLE;
 933              		.loc 2 207 0
 934 0012 1A4B     		ldr	r3, .L26+4
 935 0014 47F61842 		movw	r2, #31768
 936 0018 9A81     		strh	r2, [r3, #12]	@ movhi
 208:..\..\..\lvgl\version_6.1.2\lvgl\src\lv_themes/lv_theme_material.c ****     led.body.border.width = LV_DPI / 30;
 937              		.loc 2 208 0
 938 001a 184B     		ldr	r3, .L26+4
 939 001c 0522     		movs	r2, #5
 940 001e 9A82     		strh	r2, [r3, #20]	@ movhi
 209:..\..\..\lvgl\version_6.1.2\lvgl\src\lv_themes/lv_theme_material.c ****     led.body.border.opa   = LV_OPA_30;
 941              		.loc 2 209 0
ARM GAS  C:\Users\tmj32\AppData\Local\Temp\cc8DwYg3.s 			page 30


 942 0020 164B     		ldr	r3, .L26+4
 943 0022 4C22     		movs	r2, #76
 944 0024 DA75     		strb	r2, [r3, #23]
 210:..\..\..\lvgl\version_6.1.2\lvgl\src\lv_themes/lv_theme_material.c ****     led.body.main_color   = lv_color_hsv_to_rgb(_hue, 100, 100);
 945              		.loc 2 210 0
 946 0026 164B     		ldr	r3, .L26+8
 947 0028 1B88     		ldrh	r3, [r3]
 948 002a 144C     		ldr	r4, .L26+4
 949 002c 6422     		movs	r2, #100
 950 002e 6421     		movs	r1, #100
 951 0030 1846     		mov	r0, r3
 952 0032 FFF7FEFF 		bl	lv_color_hsv_to_rgb
 953 0036 6060     		str	r0, [r4, #4]
 211:..\..\..\lvgl\version_6.1.2\lvgl\src\lv_themes/lv_theme_material.c ****     led.body.grad_color   = lv_color_hsv_to_rgb(_hue, 100, 100);
 954              		.loc 2 211 0
 955 0038 114B     		ldr	r3, .L26+8
 956 003a 1B88     		ldrh	r3, [r3]
 957 003c 0F4C     		ldr	r4, .L26+4
 958 003e 6422     		movs	r2, #100
 959 0040 6421     		movs	r1, #100
 960 0042 1846     		mov	r0, r3
 961 0044 FFF7FEFF 		bl	lv_color_hsv_to_rgb
 962 0048 A060     		str	r0, [r4, #8]
 212:..\..\..\lvgl\version_6.1.2\lvgl\src\lv_themes/lv_theme_material.c ****     led.body.border.color = lv_color_hsv_to_rgb(_hue, 60, 60);
 963              		.loc 2 212 0
 964 004a 0D4B     		ldr	r3, .L26+8
 965 004c 1B88     		ldrh	r3, [r3]
 966 004e 0B4C     		ldr	r4, .L26+4
 967 0050 3C22     		movs	r2, #60
 968 0052 3C21     		movs	r1, #60
 969 0054 1846     		mov	r0, r3
 970 0056 FFF7FEFF 		bl	lv_color_hsv_to_rgb
 971 005a 2061     		str	r0, [r4, #16]
 213:..\..\..\lvgl\version_6.1.2\lvgl\src\lv_themes/lv_theme_material.c ****     led.body.shadow.color = lv_color_hsv_to_rgb(_hue, 100, 100);
 972              		.loc 2 213 0
 973 005c 084B     		ldr	r3, .L26+8
 974 005e 1B88     		ldrh	r3, [r3]
 975 0060 064C     		ldr	r4, .L26+4
 976 0062 6422     		movs	r2, #100
 977 0064 6421     		movs	r1, #100
 978 0066 1846     		mov	r0, r3
 979 0068 FFF7FEFF 		bl	lv_color_hsv_to_rgb
 980 006c A061     		str	r0, [r4, #24]
 214:..\..\..\lvgl\version_6.1.2\lvgl\src\lv_themes/lv_theme_material.c **** 
 215:..\..\..\lvgl\version_6.1.2\lvgl\src\lv_themes/lv_theme_material.c ****     theme.style.led = &led;
 981              		.loc 2 215 0
 982 006e 054B     		ldr	r3, .L26+12
 983 0070 024A     		ldr	r2, .L26+4
 984 0072 1A65     		str	r2, [r3, #80]
 216:..\..\..\lvgl\version_6.1.2\lvgl\src\lv_themes/lv_theme_material.c **** #endif
 217:..\..\..\lvgl\version_6.1.2\lvgl\src\lv_themes/lv_theme_material.c **** }
 985              		.loc 2 217 0
 986 0074 00BF     		nop
 987 0076 98BD     		pop	{r3, r4, r7, pc}
 988              	.L27:
 989              		.align	2
 990              	.L26:
ARM GAS  C:\Users\tmj32\AppData\Local\Temp\cc8DwYg3.s 			page 31


 991 0078 A8010000 		.word	def
 992 007c 60060000 		.word	led.5982
 993 0080 48020000 		.word	_hue
 994 0084 00000000 		.word	theme
 995              		.cfi_endproc
 996              	.LFE37:
 997              		.size	led_init, .-led_init
 998              		.section	.text.bar_init,"ax",%progbits
 999              		.align	2
 1000              		.thumb
 1001              		.thumb_func
 1002              		.type	bar_init, %function
 1003              	bar_init:
 1004              	.LFB38:
 218:..\..\..\lvgl\version_6.1.2\lvgl\src\lv_themes/lv_theme_material.c **** 
 219:..\..\..\lvgl\version_6.1.2\lvgl\src\lv_themes/lv_theme_material.c **** static void bar_init(void)
 220:..\..\..\lvgl\version_6.1.2\lvgl\src\lv_themes/lv_theme_material.c **** {
 1005              		.loc 2 220 0
 1006              		.cfi_startproc
 1007              		@ args = 0, pretend = 0, frame = 0
 1008              		@ frame_needed = 1, uses_anonymous_args = 0
 1009 0000 98B5     		push	{r3, r4, r7, lr}
 1010              		.cfi_def_cfa_offset 16
 1011              		.cfi_offset 3, -16
 1012              		.cfi_offset 4, -12
 1013              		.cfi_offset 7, -8
 1014              		.cfi_offset 14, -4
 1015 0002 00AF     		add	r7, sp, #0
 1016              		.cfi_def_cfa_register 7
 221:..\..\..\lvgl\version_6.1.2\lvgl\src\lv_themes/lv_theme_material.c **** #if LV_USE_BAR
 222:..\..\..\lvgl\version_6.1.2\lvgl\src\lv_themes/lv_theme_material.c ****     static lv_style_t bar_bg, bar_indic;
 223:..\..\..\lvgl\version_6.1.2\lvgl\src\lv_themes/lv_theme_material.c **** 
 224:..\..\..\lvgl\version_6.1.2\lvgl\src\lv_themes/lv_theme_material.c ****     lv_style_copy(&bar_bg, &def);
 1017              		.loc 2 224 0
 1018 0004 2349     		ldr	r1, .L29
 1019 0006 2448     		ldr	r0, .L29+4
 1020 0008 FFF7FEFF 		bl	lv_style_copy
 225:..\..\..\lvgl\version_6.1.2\lvgl\src\lv_themes/lv_theme_material.c ****     bar_bg.body.main_color     = lv_color_hsv_to_rgb(_hue, 15, 95);
 1021              		.loc 2 225 0
 1022 000c 234B     		ldr	r3, .L29+8
 1023 000e 1B88     		ldrh	r3, [r3]
 1024 0010 214C     		ldr	r4, .L29+4
 1025 0012 5F22     		movs	r2, #95
 1026 0014 0F21     		movs	r1, #15
 1027 0016 1846     		mov	r0, r3
 1028 0018 FFF7FEFF 		bl	lv_color_hsv_to_rgb
 1029 001c 6060     		str	r0, [r4, #4]
 226:..\..\..\lvgl\version_6.1.2\lvgl\src\lv_themes/lv_theme_material.c ****     bar_bg.body.grad_color     = bar_bg.body.main_color;
 1030              		.loc 2 226 0
 1031 001e 1E4A     		ldr	r2, .L29+4
 1032 0020 1D4B     		ldr	r3, .L29+4
 1033 0022 5B68     		ldr	r3, [r3, #4]
 1034 0024 9360     		str	r3, [r2, #8]
 227:..\..\..\lvgl\version_6.1.2\lvgl\src\lv_themes/lv_theme_material.c ****     bar_bg.body.radius         = 3;
 1035              		.loc 2 227 0
 1036 0026 1C4B     		ldr	r3, .L29+4
 1037 0028 0322     		movs	r2, #3
ARM GAS  C:\Users\tmj32\AppData\Local\Temp\cc8DwYg3.s 			page 32


 1038 002a 9A81     		strh	r2, [r3, #12]	@ movhi
 228:..\..\..\lvgl\version_6.1.2\lvgl\src\lv_themes/lv_theme_material.c ****     bar_bg.body.border.width   = 0;
 1039              		.loc 2 228 0
 1040 002c 1A4B     		ldr	r3, .L29+4
 1041 002e 0022     		movs	r2, #0
 1042 0030 9A82     		strh	r2, [r3, #20]	@ movhi
 229:..\..\..\lvgl\version_6.1.2\lvgl\src\lv_themes/lv_theme_material.c ****     bar_bg.body.padding.left   = LV_DPI / 16;
 1043              		.loc 2 229 0
 1044 0032 194B     		ldr	r3, .L29+4
 1045 0034 0922     		movs	r2, #9
 1046 0036 9A84     		strh	r2, [r3, #36]	@ movhi
 230:..\..\..\lvgl\version_6.1.2\lvgl\src\lv_themes/lv_theme_material.c ****     bar_bg.body.padding.right  = LV_DPI / 16;
 1047              		.loc 2 230 0
 1048 0038 174B     		ldr	r3, .L29+4
 1049 003a 0922     		movs	r2, #9
 1050 003c DA84     		strh	r2, [r3, #38]	@ movhi
 231:..\..\..\lvgl\version_6.1.2\lvgl\src\lv_themes/lv_theme_material.c ****     bar_bg.body.padding.top    = LV_DPI / 16;
 1051              		.loc 2 231 0
 1052 003e 164B     		ldr	r3, .L29+4
 1053 0040 0922     		movs	r2, #9
 1054 0042 1A84     		strh	r2, [r3, #32]	@ movhi
 232:..\..\..\lvgl\version_6.1.2\lvgl\src\lv_themes/lv_theme_material.c ****     bar_bg.body.padding.bottom = LV_DPI / 16;
 1055              		.loc 2 232 0
 1056 0044 144B     		ldr	r3, .L29+4
 1057 0046 0922     		movs	r2, #9
 1058 0048 5A84     		strh	r2, [r3, #34]	@ movhi
 233:..\..\..\lvgl\version_6.1.2\lvgl\src\lv_themes/lv_theme_material.c **** 
 234:..\..\..\lvgl\version_6.1.2\lvgl\src\lv_themes/lv_theme_material.c ****     lv_style_copy(&bar_indic, &bar_bg);
 1059              		.loc 2 234 0
 1060 004a 1349     		ldr	r1, .L29+4
 1061 004c 1448     		ldr	r0, .L29+12
 1062 004e FFF7FEFF 		bl	lv_style_copy
 235:..\..\..\lvgl\version_6.1.2\lvgl\src\lv_themes/lv_theme_material.c ****     bar_indic.body.main_color     = lv_color_hsv_to_rgb(_hue, 85, 70);
 1063              		.loc 2 235 0
 1064 0052 124B     		ldr	r3, .L29+8
 1065 0054 1B88     		ldrh	r3, [r3]
 1066 0056 124C     		ldr	r4, .L29+12
 1067 0058 4622     		movs	r2, #70
 1068 005a 5521     		movs	r1, #85
 1069 005c 1846     		mov	r0, r3
 1070 005e FFF7FEFF 		bl	lv_color_hsv_to_rgb
 1071 0062 6060     		str	r0, [r4, #4]
 236:..\..\..\lvgl\version_6.1.2\lvgl\src\lv_themes/lv_theme_material.c ****     bar_indic.body.grad_color     = bar_indic.body.main_color;
 1072              		.loc 2 236 0
 1073 0064 0E4A     		ldr	r2, .L29+12
 1074 0066 0E4B     		ldr	r3, .L29+12
 1075 0068 5B68     		ldr	r3, [r3, #4]
 1076 006a 9360     		str	r3, [r2, #8]
 237:..\..\..\lvgl\version_6.1.2\lvgl\src\lv_themes/lv_theme_material.c ****     bar_indic.body.padding.left   = 0;
 1077              		.loc 2 237 0
 1078 006c 0C4B     		ldr	r3, .L29+12
 1079 006e 0022     		movs	r2, #0
 1080 0070 9A84     		strh	r2, [r3, #36]	@ movhi
 238:..\..\..\lvgl\version_6.1.2\lvgl\src\lv_themes/lv_theme_material.c ****     bar_indic.body.padding.right  = 0;
 1081              		.loc 2 238 0
 1082 0072 0B4B     		ldr	r3, .L29+12
 1083 0074 0022     		movs	r2, #0
ARM GAS  C:\Users\tmj32\AppData\Local\Temp\cc8DwYg3.s 			page 33


 1084 0076 DA84     		strh	r2, [r3, #38]	@ movhi
 239:..\..\..\lvgl\version_6.1.2\lvgl\src\lv_themes/lv_theme_material.c ****     bar_indic.body.padding.top    = 0;
 1085              		.loc 2 239 0
 1086 0078 094B     		ldr	r3, .L29+12
 1087 007a 0022     		movs	r2, #0
 1088 007c 1A84     		strh	r2, [r3, #32]	@ movhi
 240:..\..\..\lvgl\version_6.1.2\lvgl\src\lv_themes/lv_theme_material.c ****     bar_indic.body.padding.bottom = 0;
 1089              		.loc 2 240 0
 1090 007e 084B     		ldr	r3, .L29+12
 1091 0080 0022     		movs	r2, #0
 1092 0082 5A84     		strh	r2, [r3, #34]	@ movhi
 241:..\..\..\lvgl\version_6.1.2\lvgl\src\lv_themes/lv_theme_material.c **** 
 242:..\..\..\lvgl\version_6.1.2\lvgl\src\lv_themes/lv_theme_material.c ****     theme.style.bar.bg    = &bar_bg;
 1093              		.loc 2 242 0
 1094 0084 074B     		ldr	r3, .L29+16
 1095 0086 044A     		ldr	r2, .L29+4
 1096 0088 5A65     		str	r2, [r3, #84]
 243:..\..\..\lvgl\version_6.1.2\lvgl\src\lv_themes/lv_theme_material.c ****     theme.style.bar.indic = &bar_indic;
 1097              		.loc 2 243 0
 1098 008a 064B     		ldr	r3, .L29+16
 1099 008c 044A     		ldr	r2, .L29+12
 1100 008e 9A65     		str	r2, [r3, #88]
 244:..\..\..\lvgl\version_6.1.2\lvgl\src\lv_themes/lv_theme_material.c **** #endif
 245:..\..\..\lvgl\version_6.1.2\lvgl\src\lv_themes/lv_theme_material.c **** }
 1101              		.loc 2 245 0
 1102 0090 00BF     		nop
 1103 0092 98BD     		pop	{r3, r4, r7, pc}
 1104              	.L30:
 1105              		.align	2
 1106              	.L29:
 1107 0094 A8010000 		.word	def
 1108 0098 B0060000 		.word	bar_bg.5986
 1109 009c 48020000 		.word	_hue
 1110 00a0 00070000 		.word	bar_indic.5987
 1111 00a4 00000000 		.word	theme
 1112              		.cfi_endproc
 1113              	.LFE38:
 1114              		.size	bar_init, .-bar_init
 1115              		.section	.text.slider_init,"ax",%progbits
 1116              		.align	2
 1117              		.thumb
 1118              		.thumb_func
 1119              		.type	slider_init, %function
 1120              	slider_init:
 1121              	.LFB39:
 246:..\..\..\lvgl\version_6.1.2\lvgl\src\lv_themes/lv_theme_material.c **** 
 247:..\..\..\lvgl\version_6.1.2\lvgl\src\lv_themes/lv_theme_material.c **** static void slider_init(void)
 248:..\..\..\lvgl\version_6.1.2\lvgl\src\lv_themes/lv_theme_material.c **** {
 1122              		.loc 2 248 0
 1123              		.cfi_startproc
 1124              		@ args = 0, pretend = 0, frame = 0
 1125              		@ frame_needed = 1, uses_anonymous_args = 0
 1126 0000 80B5     		push	{r7, lr}
 1127              		.cfi_def_cfa_offset 8
 1128              		.cfi_offset 7, -8
 1129              		.cfi_offset 14, -4
 1130 0002 00AF     		add	r7, sp, #0
ARM GAS  C:\Users\tmj32\AppData\Local\Temp\cc8DwYg3.s 			page 34


 1131              		.cfi_def_cfa_register 7
 249:..\..\..\lvgl\version_6.1.2\lvgl\src\lv_themes/lv_theme_material.c **** #if LV_USE_SLIDER != 0
 250:..\..\..\lvgl\version_6.1.2\lvgl\src\lv_themes/lv_theme_material.c ****     static lv_style_t knob;
 251:..\..\..\lvgl\version_6.1.2\lvgl\src\lv_themes/lv_theme_material.c **** 
 252:..\..\..\lvgl\version_6.1.2\lvgl\src\lv_themes/lv_theme_material.c ****     lv_style_copy(&knob, &def);
 1132              		.loc 2 252 0
 1133 0004 1049     		ldr	r1, .L32
 1134 0006 1148     		ldr	r0, .L32+4
 1135 0008 FFF7FEFF 		bl	lv_style_copy
 253:..\..\..\lvgl\version_6.1.2\lvgl\src\lv_themes/lv_theme_material.c ****     knob.body.radius       = LV_RADIUS_CIRCLE;
 1136              		.loc 2 253 0
 1137 000c 0F4B     		ldr	r3, .L32+4
 1138 000e 47F61842 		movw	r2, #31768
 1139 0012 9A81     		strh	r2, [r3, #12]	@ movhi
 254:..\..\..\lvgl\version_6.1.2\lvgl\src\lv_themes/lv_theme_material.c ****     knob.body.border.width = 0;
 1140              		.loc 2 254 0
 1141 0014 0D4B     		ldr	r3, .L32+4
 1142 0016 0022     		movs	r2, #0
 1143 0018 9A82     		strh	r2, [r3, #20]	@ movhi
 255:..\..\..\lvgl\version_6.1.2\lvgl\src\lv_themes/lv_theme_material.c ****     knob.body.main_color   = theme.style.bar.indic->body.main_color;
 1144              		.loc 2 255 0
 1145 001a 0D4B     		ldr	r3, .L32+8
 1146 001c 9B6D     		ldr	r3, [r3, #88]
 1147 001e 0B4A     		ldr	r2, .L32+4
 1148 0020 5B68     		ldr	r3, [r3, #4]
 1149 0022 5360     		str	r3, [r2, #4]
 256:..\..\..\lvgl\version_6.1.2\lvgl\src\lv_themes/lv_theme_material.c ****     knob.body.grad_color   = knob.body.main_color;
 1150              		.loc 2 256 0
 1151 0024 094A     		ldr	r2, .L32+4
 1152 0026 094B     		ldr	r3, .L32+4
 1153 0028 5B68     		ldr	r3, [r3, #4]
 1154 002a 9360     		str	r3, [r2, #8]
 257:..\..\..\lvgl\version_6.1.2\lvgl\src\lv_themes/lv_theme_material.c **** 
 258:..\..\..\lvgl\version_6.1.2\lvgl\src\lv_themes/lv_theme_material.c ****     theme.style.slider.bg    = theme.style.bar.bg;
 1155              		.loc 2 258 0
 1156 002c 084B     		ldr	r3, .L32+8
 1157 002e 5B6D     		ldr	r3, [r3, #84]
 1158 0030 074A     		ldr	r2, .L32+8
 1159 0032 D365     		str	r3, [r2, #92]
 259:..\..\..\lvgl\version_6.1.2\lvgl\src\lv_themes/lv_theme_material.c ****     theme.style.slider.indic = theme.style.bar.indic;
 1160              		.loc 2 259 0
 1161 0034 064B     		ldr	r3, .L32+8
 1162 0036 9B6D     		ldr	r3, [r3, #88]
 1163 0038 054A     		ldr	r2, .L32+8
 1164 003a 1366     		str	r3, [r2, #96]
 260:..\..\..\lvgl\version_6.1.2\lvgl\src\lv_themes/lv_theme_material.c ****     theme.style.slider.knob  = &knob;
 1165              		.loc 2 260 0
 1166 003c 044B     		ldr	r3, .L32+8
 1167 003e 034A     		ldr	r2, .L32+4
 1168 0040 5A66     		str	r2, [r3, #100]
 261:..\..\..\lvgl\version_6.1.2\lvgl\src\lv_themes/lv_theme_material.c **** #endif
 262:..\..\..\lvgl\version_6.1.2\lvgl\src\lv_themes/lv_theme_material.c **** }
 1169              		.loc 2 262 0
 1170 0042 00BF     		nop
 1171 0044 80BD     		pop	{r7, pc}
 1172              	.L33:
 1173 0046 00BF     		.align	2
ARM GAS  C:\Users\tmj32\AppData\Local\Temp\cc8DwYg3.s 			page 35


 1174              	.L32:
 1175 0048 A8010000 		.word	def
 1176 004c 50070000 		.word	knob.5991
 1177 0050 00000000 		.word	theme
 1178              		.cfi_endproc
 1179              	.LFE39:
 1180              		.size	slider_init, .-slider_init
 1181              		.section	.text.sw_init,"ax",%progbits
 1182              		.align	2
 1183              		.thumb
 1184              		.thumb_func
 1185              		.type	sw_init, %function
 1186              	sw_init:
 1187              	.LFB40:
 263:..\..\..\lvgl\version_6.1.2\lvgl\src\lv_themes/lv_theme_material.c **** 
 264:..\..\..\lvgl\version_6.1.2\lvgl\src\lv_themes/lv_theme_material.c **** static void sw_init(void)
 265:..\..\..\lvgl\version_6.1.2\lvgl\src\lv_themes/lv_theme_material.c **** {
 1188              		.loc 2 265 0
 1189              		.cfi_startproc
 1190              		@ args = 0, pretend = 0, frame = 0
 1191              		@ frame_needed = 1, uses_anonymous_args = 0
 1192 0000 98B5     		push	{r3, r4, r7, lr}
 1193              		.cfi_def_cfa_offset 16
 1194              		.cfi_offset 3, -16
 1195              		.cfi_offset 4, -12
 1196              		.cfi_offset 7, -8
 1197              		.cfi_offset 14, -4
 1198 0002 00AF     		add	r7, sp, #0
 1199              		.cfi_def_cfa_register 7
 266:..\..\..\lvgl\version_6.1.2\lvgl\src\lv_themes/lv_theme_material.c **** #if LV_USE_SW != 0
 267:..\..\..\lvgl\version_6.1.2\lvgl\src\lv_themes/lv_theme_material.c ****     static lv_style_t sw_bg, sw_indic, sw_knob_off, sw_knob_on;
 268:..\..\..\lvgl\version_6.1.2\lvgl\src\lv_themes/lv_theme_material.c ****     lv_style_copy(&sw_bg, theme.style.slider.bg);
 1200              		.loc 2 268 0
 1201 0004 274B     		ldr	r3, .L35
 1202 0006 DB6D     		ldr	r3, [r3, #92]
 1203 0008 1946     		mov	r1, r3
 1204 000a 2748     		ldr	r0, .L35+4
 1205 000c FFF7FEFF 		bl	lv_style_copy
 269:..\..\..\lvgl\version_6.1.2\lvgl\src\lv_themes/lv_theme_material.c ****     sw_bg.body.radius = LV_RADIUS_CIRCLE;
 1206              		.loc 2 269 0
 1207 0010 254B     		ldr	r3, .L35+4
 1208 0012 47F61842 		movw	r2, #31768
 1209 0016 9A81     		strh	r2, [r3, #12]	@ movhi
 270:..\..\..\lvgl\version_6.1.2\lvgl\src\lv_themes/lv_theme_material.c **** 
 271:..\..\..\lvgl\version_6.1.2\lvgl\src\lv_themes/lv_theme_material.c ****     lv_style_copy(&sw_indic, theme.style.slider.bg);
 1210              		.loc 2 271 0
 1211 0018 224B     		ldr	r3, .L35
 1212 001a DB6D     		ldr	r3, [r3, #92]
 1213 001c 1946     		mov	r1, r3
 1214 001e 2348     		ldr	r0, .L35+8
 1215 0020 FFF7FEFF 		bl	lv_style_copy
 272:..\..\..\lvgl\version_6.1.2\lvgl\src\lv_themes/lv_theme_material.c ****     sw_indic.body.radius = LV_RADIUS_CIRCLE;
 1216              		.loc 2 272 0
 1217 0024 214B     		ldr	r3, .L35+8
 1218 0026 47F61842 		movw	r2, #31768
 1219 002a 9A81     		strh	r2, [r3, #12]	@ movhi
 273:..\..\..\lvgl\version_6.1.2\lvgl\src\lv_themes/lv_theme_material.c **** 
ARM GAS  C:\Users\tmj32\AppData\Local\Temp\cc8DwYg3.s 			page 36


 274:..\..\..\lvgl\version_6.1.2\lvgl\src\lv_themes/lv_theme_material.c ****     lv_style_copy(&sw_knob_on, theme.style.slider.knob);
 1220              		.loc 2 274 0
 1221 002c 1D4B     		ldr	r3, .L35
 1222 002e 5B6E     		ldr	r3, [r3, #100]
 1223 0030 1946     		mov	r1, r3
 1224 0032 1F48     		ldr	r0, .L35+12
 1225 0034 FFF7FEFF 		bl	lv_style_copy
 275:..\..\..\lvgl\version_6.1.2\lvgl\src\lv_themes/lv_theme_material.c ****     sw_knob_on.body.shadow.width = 3;
 1226              		.loc 2 275 0
 1227 0038 1D4B     		ldr	r3, .L35+12
 1228 003a 0322     		movs	r2, #3
 1229 003c 9A83     		strh	r2, [r3, #28]	@ movhi
 276:..\..\..\lvgl\version_6.1.2\lvgl\src\lv_themes/lv_theme_material.c ****     sw_knob_on.body.shadow.type  = LV_SHADOW_BOTTOM;
 1230              		.loc 2 276 0
 1231 003e 1C4B     		ldr	r3, .L35+12
 1232 0040 0022     		movs	r2, #0
 1233 0042 9A77     		strb	r2, [r3, #30]
 277:..\..\..\lvgl\version_6.1.2\lvgl\src\lv_themes/lv_theme_material.c ****     sw_knob_on.body.shadow.color = DEF_SHADOW_COLOR;
 1234              		.loc 2 277 0
 1235 0044 1A4C     		ldr	r4, .L35+12
 1236 0046 40F6AA20 		movw	r0, #2730
 1237 004a FFF7FEFF 		bl	lv_color_hex3
 1238 004e A061     		str	r0, [r4, #24]
 278:..\..\..\lvgl\version_6.1.2\lvgl\src\lv_themes/lv_theme_material.c **** 
 279:..\..\..\lvgl\version_6.1.2\lvgl\src\lv_themes/lv_theme_material.c ****     lv_style_copy(&sw_knob_off, &sw_knob_on);
 1239              		.loc 2 279 0
 1240 0050 1749     		ldr	r1, .L35+12
 1241 0052 1848     		ldr	r0, .L35+16
 1242 0054 FFF7FEFF 		bl	lv_style_copy
 280:..\..\..\lvgl\version_6.1.2\lvgl\src\lv_themes/lv_theme_material.c ****     sw_knob_off.body.main_color   = lv_color_hex(0xfafafa);
 1243              		.loc 2 280 0
 1244 0058 164C     		ldr	r4, .L35+16
 1245 005a 1748     		ldr	r0, .L35+20
 1246 005c FFF7FEFF 		bl	lv_color_hex
 1247 0060 6060     		str	r0, [r4, #4]
 281:..\..\..\lvgl\version_6.1.2\lvgl\src\lv_themes/lv_theme_material.c ****     sw_knob_off.body.grad_color   = sw_knob_off.body.main_color;
 1248              		.loc 2 281 0
 1249 0062 144A     		ldr	r2, .L35+16
 1250 0064 134B     		ldr	r3, .L35+16
 1251 0066 5B68     		ldr	r3, [r3, #4]
 1252 0068 9360     		str	r3, [r2, #8]
 282:..\..\..\lvgl\version_6.1.2\lvgl\src\lv_themes/lv_theme_material.c ****     sw_knob_off.body.border.width = 1;
 1253              		.loc 2 282 0
 1254 006a 124B     		ldr	r3, .L35+16
 1255 006c 0122     		movs	r2, #1
 1256 006e 9A82     		strh	r2, [r3, #20]	@ movhi
 283:..\..\..\lvgl\version_6.1.2\lvgl\src\lv_themes/lv_theme_material.c ****     sw_knob_off.body.border.color = lv_color_hex3(0x999);
 1257              		.loc 2 283 0
 1258 0070 104C     		ldr	r4, .L35+16
 1259 0072 40F69910 		movw	r0, #2457
 1260 0076 FFF7FEFF 		bl	lv_color_hex3
 1261 007a 2061     		str	r0, [r4, #16]
 284:..\..\..\lvgl\version_6.1.2\lvgl\src\lv_themes/lv_theme_material.c ****     sw_knob_off.body.border.opa   = LV_OPA_COVER;
 1262              		.loc 2 284 0
 1263 007c 0D4B     		ldr	r3, .L35+16
 1264 007e FF22     		movs	r2, #255
 1265 0080 DA75     		strb	r2, [r3, #23]
ARM GAS  C:\Users\tmj32\AppData\Local\Temp\cc8DwYg3.s 			page 37


 285:..\..\..\lvgl\version_6.1.2\lvgl\src\lv_themes/lv_theme_material.c **** 
 286:..\..\..\lvgl\version_6.1.2\lvgl\src\lv_themes/lv_theme_material.c ****     theme.style.sw.bg       = &sw_bg;
 1266              		.loc 2 286 0
 1267 0082 084B     		ldr	r3, .L35
 1268 0084 084A     		ldr	r2, .L35+4
 1269 0086 9A67     		str	r2, [r3, #120]
 287:..\..\..\lvgl\version_6.1.2\lvgl\src\lv_themes/lv_theme_material.c ****     theme.style.sw.indic    = &sw_indic;
 1270              		.loc 2 287 0
 1271 0088 064B     		ldr	r3, .L35
 1272 008a 084A     		ldr	r2, .L35+8
 1273 008c DA67     		str	r2, [r3, #124]
 288:..\..\..\lvgl\version_6.1.2\lvgl\src\lv_themes/lv_theme_material.c ****     theme.style.sw.knob_off = &sw_knob_off;
 1274              		.loc 2 288 0
 1275 008e 054B     		ldr	r3, .L35
 1276 0090 084A     		ldr	r2, .L35+16
 1277 0092 C3F88020 		str	r2, [r3, #128]
 289:..\..\..\lvgl\version_6.1.2\lvgl\src\lv_themes/lv_theme_material.c ****     theme.style.sw.knob_on  = &sw_knob_on;
 1278              		.loc 2 289 0
 1279 0096 034B     		ldr	r3, .L35
 1280 0098 054A     		ldr	r2, .L35+12
 1281 009a C3F88420 		str	r2, [r3, #132]
 290:..\..\..\lvgl\version_6.1.2\lvgl\src\lv_themes/lv_theme_material.c **** #endif
 291:..\..\..\lvgl\version_6.1.2\lvgl\src\lv_themes/lv_theme_material.c **** }
 1282              		.loc 2 291 0
 1283 009e 00BF     		nop
 1284 00a0 98BD     		pop	{r3, r4, r7, pc}
 1285              	.L36:
 1286 00a2 00BF     		.align	2
 1287              	.L35:
 1288 00a4 00000000 		.word	theme
 1289 00a8 A0070000 		.word	sw_bg.5995
 1290 00ac F0070000 		.word	sw_indic.5996
 1291 00b0 40080000 		.word	sw_knob_on.5998
 1292 00b4 90080000 		.word	sw_knob_off.5997
 1293 00b8 FAFAFA00 		.word	16448250
 1294              		.cfi_endproc
 1295              	.LFE40:
 1296              		.size	sw_init, .-sw_init
 1297              		.section	.text.lmeter_init,"ax",%progbits
 1298              		.align	2
 1299              		.thumb
 1300              		.thumb_func
 1301              		.type	lmeter_init, %function
 1302              	lmeter_init:
 1303              	.LFB41:
 292:..\..\..\lvgl\version_6.1.2\lvgl\src\lv_themes/lv_theme_material.c **** 
 293:..\..\..\lvgl\version_6.1.2\lvgl\src\lv_themes/lv_theme_material.c **** static void lmeter_init(void)
 294:..\..\..\lvgl\version_6.1.2\lvgl\src\lv_themes/lv_theme_material.c **** {
 1304              		.loc 2 294 0
 1305              		.cfi_startproc
 1306              		@ args = 0, pretend = 0, frame = 0
 1307              		@ frame_needed = 1, uses_anonymous_args = 0
 1308 0000 98B5     		push	{r3, r4, r7, lr}
 1309              		.cfi_def_cfa_offset 16
 1310              		.cfi_offset 3, -16
 1311              		.cfi_offset 4, -12
 1312              		.cfi_offset 7, -8
ARM GAS  C:\Users\tmj32\AppData\Local\Temp\cc8DwYg3.s 			page 38


 1313              		.cfi_offset 14, -4
 1314 0002 00AF     		add	r7, sp, #0
 1315              		.cfi_def_cfa_register 7
 295:..\..\..\lvgl\version_6.1.2\lvgl\src\lv_themes/lv_theme_material.c **** #if LV_USE_LMETER != 0
 296:..\..\..\lvgl\version_6.1.2\lvgl\src\lv_themes/lv_theme_material.c ****     static lv_style_t lmeter;
 297:..\..\..\lvgl\version_6.1.2\lvgl\src\lv_themes/lv_theme_material.c ****     lv_style_copy(&lmeter, &def);
 1316              		.loc 2 297 0
 1317 0004 1149     		ldr	r1, .L38
 1318 0006 1248     		ldr	r0, .L38+4
 1319 0008 FFF7FEFF 		bl	lv_style_copy
 298:..\..\..\lvgl\version_6.1.2\lvgl\src\lv_themes/lv_theme_material.c ****     lmeter.body.main_color   = lv_color_hsv_to_rgb(_hue, 75, 90);
 1320              		.loc 2 298 0
 1321 000c 114B     		ldr	r3, .L38+8
 1322 000e 1B88     		ldrh	r3, [r3]
 1323 0010 0F4C     		ldr	r4, .L38+4
 1324 0012 5A22     		movs	r2, #90
 1325 0014 4B21     		movs	r1, #75
 1326 0016 1846     		mov	r0, r3
 1327 0018 FFF7FEFF 		bl	lv_color_hsv_to_rgb
 1328 001c 6060     		str	r0, [r4, #4]
 299:..\..\..\lvgl\version_6.1.2\lvgl\src\lv_themes/lv_theme_material.c ****     lmeter.body.grad_color   = lmeter.body.main_color;
 1329              		.loc 2 299 0
 1330 001e 0C4A     		ldr	r2, .L38+4
 1331 0020 0B4B     		ldr	r3, .L38+4
 1332 0022 5B68     		ldr	r3, [r3, #4]
 1333 0024 9360     		str	r3, [r2, #8]
 300:..\..\..\lvgl\version_6.1.2\lvgl\src\lv_themes/lv_theme_material.c ****     lmeter.body.padding.left = LV_DPI / 10; /*Scale line length*/
 1334              		.loc 2 300 0
 1335 0026 0A4B     		ldr	r3, .L38+4
 1336 0028 0F22     		movs	r2, #15
 1337 002a 9A84     		strh	r2, [r3, #36]	@ movhi
 301:..\..\..\lvgl\version_6.1.2\lvgl\src\lv_themes/lv_theme_material.c ****     lmeter.line.color        = lv_color_hex3(0x999);
 1338              		.loc 2 301 0
 1339 002c 084C     		ldr	r4, .L38+4
 1340 002e 40F69910 		movw	r0, #2457
 1341 0032 FFF7FEFF 		bl	lv_color_hex3
 1342 0036 A064     		str	r0, [r4, #72]
 302:..\..\..\lvgl\version_6.1.2\lvgl\src\lv_themes/lv_theme_material.c ****     lmeter.line.width        = 2;
 1343              		.loc 2 302 0
 1344 0038 054B     		ldr	r3, .L38+4
 1345 003a 0222     		movs	r2, #2
 1346 003c A3F84C20 		strh	r2, [r3, #76]	@ movhi
 303:..\..\..\lvgl\version_6.1.2\lvgl\src\lv_themes/lv_theme_material.c **** 
 304:..\..\..\lvgl\version_6.1.2\lvgl\src\lv_themes/lv_theme_material.c ****     theme.style.lmeter = &lmeter;
 1347              		.loc 2 304 0
 1348 0040 054B     		ldr	r3, .L38+12
 1349 0042 034A     		ldr	r2, .L38+4
 1350 0044 9A66     		str	r2, [r3, #104]
 305:..\..\..\lvgl\version_6.1.2\lvgl\src\lv_themes/lv_theme_material.c **** #endif
 306:..\..\..\lvgl\version_6.1.2\lvgl\src\lv_themes/lv_theme_material.c **** }
 1351              		.loc 2 306 0
 1352 0046 00BF     		nop
 1353 0048 98BD     		pop	{r3, r4, r7, pc}
 1354              	.L39:
 1355 004a 00BF     		.align	2
 1356              	.L38:
 1357 004c A8010000 		.word	def
ARM GAS  C:\Users\tmj32\AppData\Local\Temp\cc8DwYg3.s 			page 39


 1358 0050 E0080000 		.word	lmeter.6002
 1359 0054 48020000 		.word	_hue
 1360 0058 00000000 		.word	theme
 1361              		.cfi_endproc
 1362              	.LFE41:
 1363              		.size	lmeter_init, .-lmeter_init
 1364              		.section	.text.gauge_init,"ax",%progbits
 1365              		.align	2
 1366              		.thumb
 1367              		.thumb_func
 1368              		.type	gauge_init, %function
 1369              	gauge_init:
 1370              	.LFB42:
 307:..\..\..\lvgl\version_6.1.2\lvgl\src\lv_themes/lv_theme_material.c **** 
 308:..\..\..\lvgl\version_6.1.2\lvgl\src\lv_themes/lv_theme_material.c **** static void gauge_init(void)
 309:..\..\..\lvgl\version_6.1.2\lvgl\src\lv_themes/lv_theme_material.c **** {
 1371              		.loc 2 309 0
 1372              		.cfi_startproc
 1373              		@ args = 0, pretend = 0, frame = 0
 1374              		@ frame_needed = 1, uses_anonymous_args = 0
 1375 0000 98B5     		push	{r3, r4, r7, lr}
 1376              		.cfi_def_cfa_offset 16
 1377              		.cfi_offset 3, -16
 1378              		.cfi_offset 4, -12
 1379              		.cfi_offset 7, -8
 1380              		.cfi_offset 14, -4
 1381 0002 00AF     		add	r7, sp, #0
 1382              		.cfi_def_cfa_register 7
 310:..\..\..\lvgl\version_6.1.2\lvgl\src\lv_themes/lv_theme_material.c **** #if LV_USE_GAUGE != 0
 311:..\..\..\lvgl\version_6.1.2\lvgl\src\lv_themes/lv_theme_material.c **** 
 312:..\..\..\lvgl\version_6.1.2\lvgl\src\lv_themes/lv_theme_material.c ****     static lv_style_t gauge;
 313:..\..\..\lvgl\version_6.1.2\lvgl\src\lv_themes/lv_theme_material.c ****     lv_style_copy(&gauge, &def);
 1383              		.loc 2 313 0
 1384 0004 1A49     		ldr	r1, .L41
 1385 0006 1B48     		ldr	r0, .L41+4
 1386 0008 FFF7FEFF 		bl	lv_style_copy
 314:..\..\..\lvgl\version_6.1.2\lvgl\src\lv_themes/lv_theme_material.c ****     gauge.body.main_color    = lv_color_hsv_to_rgb(_hue, 10, 60);
 1387              		.loc 2 314 0
 1388 000c 1A4B     		ldr	r3, .L41+8
 1389 000e 1B88     		ldrh	r3, [r3]
 1390 0010 184C     		ldr	r4, .L41+4
 1391 0012 3C22     		movs	r2, #60
 1392 0014 0A21     		movs	r1, #10
 1393 0016 1846     		mov	r0, r3
 1394 0018 FFF7FEFF 		bl	lv_color_hsv_to_rgb
 1395 001c 6060     		str	r0, [r4, #4]
 315:..\..\..\lvgl\version_6.1.2\lvgl\src\lv_themes/lv_theme_material.c ****     gauge.body.grad_color    = gauge.body.main_color;
 1396              		.loc 2 315 0
 1397 001e 154A     		ldr	r2, .L41+4
 1398 0020 144B     		ldr	r3, .L41+4
 1399 0022 5B68     		ldr	r3, [r3, #4]
 1400 0024 9360     		str	r3, [r2, #8]
 316:..\..\..\lvgl\version_6.1.2\lvgl\src\lv_themes/lv_theme_material.c ****     gauge.body.padding.left  = LV_DPI / 16; /*Scale line length*/
 1401              		.loc 2 316 0
 1402 0026 134B     		ldr	r3, .L41+4
 1403 0028 0922     		movs	r2, #9
 1404 002a 9A84     		strh	r2, [r3, #36]	@ movhi
ARM GAS  C:\Users\tmj32\AppData\Local\Temp\cc8DwYg3.s 			page 40


 317:..\..\..\lvgl\version_6.1.2\lvgl\src\lv_themes/lv_theme_material.c ****     gauge.body.padding.inner = LV_DPI / 8;
 1405              		.loc 2 317 0
 1406 002c 114B     		ldr	r3, .L41+4
 1407 002e 1222     		movs	r2, #18
 1408 0030 1A85     		strh	r2, [r3, #40]	@ movhi
 318:..\..\..\lvgl\version_6.1.2\lvgl\src\lv_themes/lv_theme_material.c ****     gauge.body.border.color  = lv_color_hex3(0x999);
 1409              		.loc 2 318 0
 1410 0032 104C     		ldr	r4, .L41+4
 1411 0034 40F69910 		movw	r0, #2457
 1412 0038 FFF7FEFF 		bl	lv_color_hex3
 1413 003c 2061     		str	r0, [r4, #16]
 319:..\..\..\lvgl\version_6.1.2\lvgl\src\lv_themes/lv_theme_material.c ****     gauge.text.color         = lv_color_hex3(0x333);
 1414              		.loc 2 319 0
 1415 003e 0D4C     		ldr	r4, .L41+4
 1416 0040 40F23330 		movw	r0, #819
 1417 0044 FFF7FEFF 		bl	lv_color_hex3
 1418 0048 E062     		str	r0, [r4, #44]
 320:..\..\..\lvgl\version_6.1.2\lvgl\src\lv_themes/lv_theme_material.c ****     gauge.line.width         = 3;
 1419              		.loc 2 320 0
 1420 004a 0A4B     		ldr	r3, .L41+4
 1421 004c 0322     		movs	r2, #3
 1422 004e A3F84C20 		strh	r2, [r3, #76]	@ movhi
 321:..\..\..\lvgl\version_6.1.2\lvgl\src\lv_themes/lv_theme_material.c ****     gauge.line.color         = lv_color_hsv_to_rgb(_hue, 95, 70);
 1423              		.loc 2 321 0
 1424 0052 094B     		ldr	r3, .L41+8
 1425 0054 1B88     		ldrh	r3, [r3]
 1426 0056 074C     		ldr	r4, .L41+4
 1427 0058 4622     		movs	r2, #70
 1428 005a 5F21     		movs	r1, #95
 1429 005c 1846     		mov	r0, r3
 1430 005e FFF7FEFF 		bl	lv_color_hsv_to_rgb
 1431 0062 A064     		str	r0, [r4, #72]
 322:..\..\..\lvgl\version_6.1.2\lvgl\src\lv_themes/lv_theme_material.c **** 
 323:..\..\..\lvgl\version_6.1.2\lvgl\src\lv_themes/lv_theme_material.c ****     theme.style.gauge = &gauge;
 1432              		.loc 2 323 0
 1433 0064 054B     		ldr	r3, .L41+12
 1434 0066 034A     		ldr	r2, .L41+4
 1435 0068 DA66     		str	r2, [r3, #108]
 324:..\..\..\lvgl\version_6.1.2\lvgl\src\lv_themes/lv_theme_material.c **** #endif
 325:..\..\..\lvgl\version_6.1.2\lvgl\src\lv_themes/lv_theme_material.c **** }
 1436              		.loc 2 325 0
 1437 006a 00BF     		nop
 1438 006c 98BD     		pop	{r3, r4, r7, pc}
 1439              	.L42:
 1440 006e 00BF     		.align	2
 1441              	.L41:
 1442 0070 A8010000 		.word	def
 1443 0074 30090000 		.word	gauge.6006
 1444 0078 48020000 		.word	_hue
 1445 007c 00000000 		.word	theme
 1446              		.cfi_endproc
 1447              	.LFE42:
 1448              		.size	gauge_init, .-gauge_init
 1449              		.section	.text.arc_init,"ax",%progbits
 1450              		.align	2
 1451              		.thumb
 1452              		.thumb_func
ARM GAS  C:\Users\tmj32\AppData\Local\Temp\cc8DwYg3.s 			page 41


 1453              		.type	arc_init, %function
 1454              	arc_init:
 1455              	.LFB43:
 326:..\..\..\lvgl\version_6.1.2\lvgl\src\lv_themes/lv_theme_material.c **** 
 327:..\..\..\lvgl\version_6.1.2\lvgl\src\lv_themes/lv_theme_material.c **** static void arc_init(void)
 328:..\..\..\lvgl\version_6.1.2\lvgl\src\lv_themes/lv_theme_material.c **** {
 1456              		.loc 2 328 0
 1457              		.cfi_startproc
 1458              		@ args = 0, pretend = 0, frame = 0
 1459              		@ frame_needed = 1, uses_anonymous_args = 0
 1460 0000 98B5     		push	{r3, r4, r7, lr}
 1461              		.cfi_def_cfa_offset 16
 1462              		.cfi_offset 3, -16
 1463              		.cfi_offset 4, -12
 1464              		.cfi_offset 7, -8
 1465              		.cfi_offset 14, -4
 1466 0002 00AF     		add	r7, sp, #0
 1467              		.cfi_def_cfa_register 7
 329:..\..\..\lvgl\version_6.1.2\lvgl\src\lv_themes/lv_theme_material.c **** #if LV_USE_ARC != 0
 330:..\..\..\lvgl\version_6.1.2\lvgl\src\lv_themes/lv_theme_material.c **** 
 331:..\..\..\lvgl\version_6.1.2\lvgl\src\lv_themes/lv_theme_material.c ****     static lv_style_t arc;
 332:..\..\..\lvgl\version_6.1.2\lvgl\src\lv_themes/lv_theme_material.c ****     lv_style_copy(&arc, &def);
 1468              		.loc 2 332 0
 1469 0004 1649     		ldr	r1, .L44
 1470 0006 1748     		ldr	r0, .L44+4
 1471 0008 FFF7FEFF 		bl	lv_style_copy
 333:..\..\..\lvgl\version_6.1.2\lvgl\src\lv_themes/lv_theme_material.c ****     arc.line.width = 10;
 1472              		.loc 2 333 0
 1473 000c 154B     		ldr	r3, .L44+4
 1474 000e 0A22     		movs	r2, #10
 1475 0010 A3F84C20 		strh	r2, [r3, #76]	@ movhi
 334:..\..\..\lvgl\version_6.1.2\lvgl\src\lv_themes/lv_theme_material.c ****     arc.line.color = lv_color_hsv_to_rgb(_hue, 90, 90);
 1476              		.loc 2 334 0
 1477 0014 144B     		ldr	r3, .L44+8
 1478 0016 1B88     		ldrh	r3, [r3]
 1479 0018 124C     		ldr	r4, .L44+4
 1480 001a 5A22     		movs	r2, #90
 1481 001c 5A21     		movs	r1, #90
 1482 001e 1846     		mov	r0, r3
 1483 0020 FFF7FEFF 		bl	lv_color_hsv_to_rgb
 1484 0024 A064     		str	r0, [r4, #72]
 335:..\..\..\lvgl\version_6.1.2\lvgl\src\lv_themes/lv_theme_material.c **** 
 336:..\..\..\lvgl\version_6.1.2\lvgl\src\lv_themes/lv_theme_material.c ****     /*For prelaoder*/
 337:..\..\..\lvgl\version_6.1.2\lvgl\src\lv_themes/lv_theme_material.c ****     arc.body.border.width   = 10;
 1485              		.loc 2 337 0
 1486 0026 0F4B     		ldr	r3, .L44+4
 1487 0028 0A22     		movs	r2, #10
 1488 002a 9A82     		strh	r2, [r3, #20]	@ movhi
 338:..\..\..\lvgl\version_6.1.2\lvgl\src\lv_themes/lv_theme_material.c ****     arc.body.border.color   = lv_color_hsv_to_rgb(_hue, 30, 90);
 1489              		.loc 2 338 0
 1490 002c 0E4B     		ldr	r3, .L44+8
 1491 002e 1B88     		ldrh	r3, [r3]
 1492 0030 0C4C     		ldr	r4, .L44+4
 1493 0032 5A22     		movs	r2, #90
 1494 0034 1E21     		movs	r1, #30
 1495 0036 1846     		mov	r0, r3
 1496 0038 FFF7FEFF 		bl	lv_color_hsv_to_rgb
ARM GAS  C:\Users\tmj32\AppData\Local\Temp\cc8DwYg3.s 			page 42


 1497 003c 2061     		str	r0, [r4, #16]
 339:..\..\..\lvgl\version_6.1.2\lvgl\src\lv_themes/lv_theme_material.c ****     arc.body.padding.left   = 0;
 1498              		.loc 2 339 0
 1499 003e 094B     		ldr	r3, .L44+4
 1500 0040 0022     		movs	r2, #0
 1501 0042 9A84     		strh	r2, [r3, #36]	@ movhi
 340:..\..\..\lvgl\version_6.1.2\lvgl\src\lv_themes/lv_theme_material.c ****     arc.body.padding.right  = 0;
 1502              		.loc 2 340 0
 1503 0044 074B     		ldr	r3, .L44+4
 1504 0046 0022     		movs	r2, #0
 1505 0048 DA84     		strh	r2, [r3, #38]	@ movhi
 341:..\..\..\lvgl\version_6.1.2\lvgl\src\lv_themes/lv_theme_material.c ****     arc.body.padding.top    = 0;
 1506              		.loc 2 341 0
 1507 004a 064B     		ldr	r3, .L44+4
 1508 004c 0022     		movs	r2, #0
 1509 004e 1A84     		strh	r2, [r3, #32]	@ movhi
 342:..\..\..\lvgl\version_6.1.2\lvgl\src\lv_themes/lv_theme_material.c ****     arc.body.padding.bottom = 0;
 1510              		.loc 2 342 0
 1511 0050 044B     		ldr	r3, .L44+4
 1512 0052 0022     		movs	r2, #0
 1513 0054 5A84     		strh	r2, [r3, #34]	@ movhi
 343:..\..\..\lvgl\version_6.1.2\lvgl\src\lv_themes/lv_theme_material.c **** 
 344:..\..\..\lvgl\version_6.1.2\lvgl\src\lv_themes/lv_theme_material.c ****     theme.style.arc = &arc;
 1514              		.loc 2 344 0
 1515 0056 054B     		ldr	r3, .L44+12
 1516 0058 024A     		ldr	r2, .L44+4
 1517 005a 1A67     		str	r2, [r3, #112]
 345:..\..\..\lvgl\version_6.1.2\lvgl\src\lv_themes/lv_theme_material.c **** #endif
 346:..\..\..\lvgl\version_6.1.2\lvgl\src\lv_themes/lv_theme_material.c **** }
 1518              		.loc 2 346 0
 1519 005c 00BF     		nop
 1520 005e 98BD     		pop	{r3, r4, r7, pc}
 1521              	.L45:
 1522              		.align	2
 1523              	.L44:
 1524 0060 A8010000 		.word	def
 1525 0064 80090000 		.word	arc.6010
 1526 0068 48020000 		.word	_hue
 1527 006c 00000000 		.word	theme
 1528              		.cfi_endproc
 1529              	.LFE43:
 1530              		.size	arc_init, .-arc_init
 1531              		.section	.text.preload_init,"ax",%progbits
 1532              		.align	2
 1533              		.thumb
 1534              		.thumb_func
 1535              		.type	preload_init, %function
 1536              	preload_init:
 1537              	.LFB44:
 347:..\..\..\lvgl\version_6.1.2\lvgl\src\lv_themes/lv_theme_material.c **** 
 348:..\..\..\lvgl\version_6.1.2\lvgl\src\lv_themes/lv_theme_material.c **** static void preload_init(void)
 349:..\..\..\lvgl\version_6.1.2\lvgl\src\lv_themes/lv_theme_material.c **** {
 1538              		.loc 2 349 0
 1539              		.cfi_startproc
 1540              		@ args = 0, pretend = 0, frame = 0
 1541              		@ frame_needed = 1, uses_anonymous_args = 0
 1542              		@ link register save eliminated.
ARM GAS  C:\Users\tmj32\AppData\Local\Temp\cc8DwYg3.s 			page 43


 1543 0000 80B4     		push	{r7}
 1544              		.cfi_def_cfa_offset 4
 1545              		.cfi_offset 7, -4
 1546 0002 00AF     		add	r7, sp, #0
 1547              		.cfi_def_cfa_register 7
 350:..\..\..\lvgl\version_6.1.2\lvgl\src\lv_themes/lv_theme_material.c **** #if LV_USE_PRELOAD != 0
 351:..\..\..\lvgl\version_6.1.2\lvgl\src\lv_themes/lv_theme_material.c **** 
 352:..\..\..\lvgl\version_6.1.2\lvgl\src\lv_themes/lv_theme_material.c ****     theme.style.preload = theme.style.arc;
 1548              		.loc 2 352 0
 1549 0004 044B     		ldr	r3, .L47
 1550 0006 1B6F     		ldr	r3, [r3, #112]
 1551 0008 034A     		ldr	r2, .L47
 1552 000a 5367     		str	r3, [r2, #116]
 353:..\..\..\lvgl\version_6.1.2\lvgl\src\lv_themes/lv_theme_material.c **** #endif
 354:..\..\..\lvgl\version_6.1.2\lvgl\src\lv_themes/lv_theme_material.c **** }
 1553              		.loc 2 354 0
 1554 000c 00BF     		nop
 1555 000e BD46     		mov	sp, r7
 1556              		.cfi_def_cfa_register 13
 1557              		@ sp needed
 1558 0010 5DF8047B 		ldr	r7, [sp], #4
 1559              		.cfi_restore 7
 1560              		.cfi_def_cfa_offset 0
 1561 0014 7047     		bx	lr
 1562              	.L48:
 1563 0016 00BF     		.align	2
 1564              	.L47:
 1565 0018 00000000 		.word	theme
 1566              		.cfi_endproc
 1567              	.LFE44:
 1568              		.size	preload_init, .-preload_init
 1569              		.section	.text.chart_init,"ax",%progbits
 1570              		.align	2
 1571              		.thumb
 1572              		.thumb_func
 1573              		.type	chart_init, %function
 1574              	chart_init:
 1575              	.LFB45:
 355:..\..\..\lvgl\version_6.1.2\lvgl\src\lv_themes/lv_theme_material.c **** 
 356:..\..\..\lvgl\version_6.1.2\lvgl\src\lv_themes/lv_theme_material.c **** static void chart_init(void)
 357:..\..\..\lvgl\version_6.1.2\lvgl\src\lv_themes/lv_theme_material.c **** {
 1576              		.loc 2 357 0
 1577              		.cfi_startproc
 1578              		@ args = 0, pretend = 0, frame = 0
 1579              		@ frame_needed = 1, uses_anonymous_args = 0
 1580              		@ link register save eliminated.
 1581 0000 80B4     		push	{r7}
 1582              		.cfi_def_cfa_offset 4
 1583              		.cfi_offset 7, -4
 1584 0002 00AF     		add	r7, sp, #0
 1585              		.cfi_def_cfa_register 7
 358:..\..\..\lvgl\version_6.1.2\lvgl\src\lv_themes/lv_theme_material.c **** #if LV_USE_CHART
 359:..\..\..\lvgl\version_6.1.2\lvgl\src\lv_themes/lv_theme_material.c ****     theme.style.chart = theme.style.panel;
 1586              		.loc 2 359 0
 1587 0004 044B     		ldr	r3, .L50
 1588 0006 9B68     		ldr	r3, [r3, #8]
 1589 0008 034A     		ldr	r2, .L50
ARM GAS  C:\Users\tmj32\AppData\Local\Temp\cc8DwYg3.s 			page 44


 1590 000a C2F88830 		str	r3, [r2, #136]
 360:..\..\..\lvgl\version_6.1.2\lvgl\src\lv_themes/lv_theme_material.c **** #endif
 361:..\..\..\lvgl\version_6.1.2\lvgl\src\lv_themes/lv_theme_material.c **** }
 1591              		.loc 2 361 0
 1592 000e 00BF     		nop
 1593 0010 BD46     		mov	sp, r7
 1594              		.cfi_def_cfa_register 13
 1595              		@ sp needed
 1596 0012 5DF8047B 		ldr	r7, [sp], #4
 1597              		.cfi_restore 7
 1598              		.cfi_def_cfa_offset 0
 1599 0016 7047     		bx	lr
 1600              	.L51:
 1601              		.align	2
 1602              	.L50:
 1603 0018 00000000 		.word	theme
 1604              		.cfi_endproc
 1605              	.LFE45:
 1606              		.size	chart_init, .-chart_init
 1607              		.section	.text.calendar_init,"ax",%progbits
 1608              		.align	2
 1609              		.thumb
 1610              		.thumb_func
 1611              		.type	calendar_init, %function
 1612              	calendar_init:
 1613              	.LFB46:
 362:..\..\..\lvgl\version_6.1.2\lvgl\src\lv_themes/lv_theme_material.c **** 
 363:..\..\..\lvgl\version_6.1.2\lvgl\src\lv_themes/lv_theme_material.c **** static void calendar_init(void)
 364:..\..\..\lvgl\version_6.1.2\lvgl\src\lv_themes/lv_theme_material.c **** {
 1614              		.loc 2 364 0
 1615              		.cfi_startproc
 1616              		@ args = 0, pretend = 0, frame = 0
 1617              		@ frame_needed = 1, uses_anonymous_args = 0
 1618 0000 98B5     		push	{r3, r4, r7, lr}
 1619              		.cfi_def_cfa_offset 16
 1620              		.cfi_offset 3, -16
 1621              		.cfi_offset 4, -12
 1622              		.cfi_offset 7, -8
 1623              		.cfi_offset 14, -4
 1624 0002 00AF     		add	r7, sp, #0
 1625              		.cfi_def_cfa_register 7
 365:..\..\..\lvgl\version_6.1.2\lvgl\src\lv_themes/lv_theme_material.c **** #if LV_USE_CALENDAR
 366:..\..\..\lvgl\version_6.1.2\lvgl\src\lv_themes/lv_theme_material.c ****     static lv_style_t ina_days;
 367:..\..\..\lvgl\version_6.1.2\lvgl\src\lv_themes/lv_theme_material.c ****     lv_style_copy(&ina_days, &def);
 1626              		.loc 2 367 0
 1627 0004 4949     		ldr	r1, .L53
 1628 0006 4A48     		ldr	r0, .L53+4
 1629 0008 FFF7FEFF 		bl	lv_style_copy
 368:..\..\..\lvgl\version_6.1.2\lvgl\src\lv_themes/lv_theme_material.c ****     ina_days.text.color = lv_color_hsv_to_rgb(_hue, 0, 70);
 1630              		.loc 2 368 0
 1631 000c 494B     		ldr	r3, .L53+8
 1632 000e 1B88     		ldrh	r3, [r3]
 1633 0010 474C     		ldr	r4, .L53+4
 1634 0012 4622     		movs	r2, #70
 1635 0014 0021     		movs	r1, #0
 1636 0016 1846     		mov	r0, r3
 1637 0018 FFF7FEFF 		bl	lv_color_hsv_to_rgb
ARM GAS  C:\Users\tmj32\AppData\Local\Temp\cc8DwYg3.s 			page 45


 1638 001c E062     		str	r0, [r4, #44]
 369:..\..\..\lvgl\version_6.1.2\lvgl\src\lv_themes/lv_theme_material.c **** 
 370:..\..\..\lvgl\version_6.1.2\lvgl\src\lv_themes/lv_theme_material.c ****     static lv_style_t high_days;
 371:..\..\..\lvgl\version_6.1.2\lvgl\src\lv_themes/lv_theme_material.c ****     lv_style_copy(&high_days, &def);
 1639              		.loc 2 371 0
 1640 001e 4349     		ldr	r1, .L53
 1641 0020 4548     		ldr	r0, .L53+12
 1642 0022 FFF7FEFF 		bl	lv_style_copy
 372:..\..\..\lvgl\version_6.1.2\lvgl\src\lv_themes/lv_theme_material.c ****     high_days.text.color = lv_color_hsv_to_rgb(_hue, 80, 90);
 1643              		.loc 2 372 0
 1644 0026 434B     		ldr	r3, .L53+8
 1645 0028 1B88     		ldrh	r3, [r3]
 1646 002a 434C     		ldr	r4, .L53+12
 1647 002c 5A22     		movs	r2, #90
 1648 002e 5021     		movs	r1, #80
 1649 0030 1846     		mov	r0, r3
 1650 0032 FFF7FEFF 		bl	lv_color_hsv_to_rgb
 1651 0036 E062     		str	r0, [r4, #44]
 373:..\..\..\lvgl\version_6.1.2\lvgl\src\lv_themes/lv_theme_material.c **** 
 374:..\..\..\lvgl\version_6.1.2\lvgl\src\lv_themes/lv_theme_material.c ****     static lv_style_t week_box;
 375:..\..\..\lvgl\version_6.1.2\lvgl\src\lv_themes/lv_theme_material.c ****     lv_style_copy(&week_box, &def);
 1652              		.loc 2 375 0
 1653 0038 3C49     		ldr	r1, .L53
 1654 003a 4048     		ldr	r0, .L53+16
 1655 003c FFF7FEFF 		bl	lv_style_copy
 376:..\..\..\lvgl\version_6.1.2\lvgl\src\lv_themes/lv_theme_material.c ****     week_box.body.main_color     = lv_color_hsv_to_rgb(_hue, 40, 100);
 1656              		.loc 2 376 0
 1657 0040 3C4B     		ldr	r3, .L53+8
 1658 0042 1B88     		ldrh	r3, [r3]
 1659 0044 3D4C     		ldr	r4, .L53+16
 1660 0046 6422     		movs	r2, #100
 1661 0048 2821     		movs	r1, #40
 1662 004a 1846     		mov	r0, r3
 1663 004c FFF7FEFF 		bl	lv_color_hsv_to_rgb
 1664 0050 6060     		str	r0, [r4, #4]
 377:..\..\..\lvgl\version_6.1.2\lvgl\src\lv_themes/lv_theme_material.c ****     week_box.body.grad_color     = lv_color_hsv_to_rgb(_hue, 40, 100);
 1665              		.loc 2 377 0
 1666 0052 384B     		ldr	r3, .L53+8
 1667 0054 1B88     		ldrh	r3, [r3]
 1668 0056 394C     		ldr	r4, .L53+16
 1669 0058 6422     		movs	r2, #100
 1670 005a 2821     		movs	r1, #40
 1671 005c 1846     		mov	r0, r3
 1672 005e FFF7FEFF 		bl	lv_color_hsv_to_rgb
 1673 0062 A060     		str	r0, [r4, #8]
 378:..\..\..\lvgl\version_6.1.2\lvgl\src\lv_themes/lv_theme_material.c ****     week_box.body.padding.top    = LV_DPI / 20;
 1674              		.loc 2 378 0
 1675 0064 354B     		ldr	r3, .L53+16
 1676 0066 0722     		movs	r2, #7
 1677 0068 1A84     		strh	r2, [r3, #32]	@ movhi
 379:..\..\..\lvgl\version_6.1.2\lvgl\src\lv_themes/lv_theme_material.c ****     week_box.body.padding.bottom = LV_DPI / 20;
 1678              		.loc 2 379 0
 1679 006a 344B     		ldr	r3, .L53+16
 1680 006c 0722     		movs	r2, #7
 1681 006e 5A84     		strh	r2, [r3, #34]	@ movhi
 380:..\..\..\lvgl\version_6.1.2\lvgl\src\lv_themes/lv_theme_material.c ****     week_box.body.padding.left   = theme.style.panel->body.padding.left;
 1682              		.loc 2 380 0
ARM GAS  C:\Users\tmj32\AppData\Local\Temp\cc8DwYg3.s 			page 46


 1683 0070 334B     		ldr	r3, .L53+20
 1684 0072 9B68     		ldr	r3, [r3, #8]
 1685 0074 B3F92420 		ldrsh	r2, [r3, #36]
 1686 0078 304B     		ldr	r3, .L53+16
 1687 007a 9A84     		strh	r2, [r3, #36]	@ movhi
 381:..\..\..\lvgl\version_6.1.2\lvgl\src\lv_themes/lv_theme_material.c ****     week_box.body.padding.right  = theme.style.panel->body.padding.right;
 1688              		.loc 2 381 0
 1689 007c 304B     		ldr	r3, .L53+20
 1690 007e 9B68     		ldr	r3, [r3, #8]
 1691 0080 B3F92620 		ldrsh	r2, [r3, #38]
 1692 0084 2D4B     		ldr	r3, .L53+16
 1693 0086 DA84     		strh	r2, [r3, #38]	@ movhi
 382:..\..\..\lvgl\version_6.1.2\lvgl\src\lv_themes/lv_theme_material.c ****     week_box.body.border.color   = theme.style.panel->body.border.color;
 1694              		.loc 2 382 0
 1695 0088 2D4B     		ldr	r3, .L53+20
 1696 008a 9B68     		ldr	r3, [r3, #8]
 1697 008c 2B4A     		ldr	r2, .L53+16
 1698 008e 1B69     		ldr	r3, [r3, #16]
 1699 0090 1361     		str	r3, [r2, #16]
 383:..\..\..\lvgl\version_6.1.2\lvgl\src\lv_themes/lv_theme_material.c ****     week_box.body.border.width   = theme.style.panel->body.border.width;
 1700              		.loc 2 383 0
 1701 0092 2B4B     		ldr	r3, .L53+20
 1702 0094 9B68     		ldr	r3, [r3, #8]
 1703 0096 B3F91420 		ldrsh	r2, [r3, #20]
 1704 009a 284B     		ldr	r3, .L53+16
 1705 009c 9A82     		strh	r2, [r3, #20]	@ movhi
 384:..\..\..\lvgl\version_6.1.2\lvgl\src\lv_themes/lv_theme_material.c ****     week_box.body.border.part    = LV_BORDER_LEFT | LV_BORDER_RIGHT;
 1706              		.loc 2 384 0
 1707 009e 274B     		ldr	r3, .L53+16
 1708 00a0 0C22     		movs	r2, #12
 1709 00a2 9A75     		strb	r2, [r3, #22]
 385:..\..\..\lvgl\version_6.1.2\lvgl\src\lv_themes/lv_theme_material.c ****     week_box.body.radius         = 0;
 1710              		.loc 2 385 0
 1711 00a4 254B     		ldr	r3, .L53+16
 1712 00a6 0022     		movs	r2, #0
 1713 00a8 9A81     		strh	r2, [r3, #12]	@ movhi
 386:..\..\..\lvgl\version_6.1.2\lvgl\src\lv_themes/lv_theme_material.c **** 
 387:..\..\..\lvgl\version_6.1.2\lvgl\src\lv_themes/lv_theme_material.c ****     static lv_style_t today_box;
 388:..\..\..\lvgl\version_6.1.2\lvgl\src\lv_themes/lv_theme_material.c ****     lv_style_copy(&today_box, &def);
 1714              		.loc 2 388 0
 1715 00aa 2049     		ldr	r1, .L53
 1716 00ac 2548     		ldr	r0, .L53+24
 1717 00ae FFF7FEFF 		bl	lv_style_copy
 389:..\..\..\lvgl\version_6.1.2\lvgl\src\lv_themes/lv_theme_material.c ****     today_box.body.main_color     = LV_COLOR_WHITE;
 1718              		.loc 2 389 0
 1719 00b2 244B     		ldr	r3, .L53+24
 1720 00b4 FF22     		movs	r2, #255
 1721 00b6 1A71     		strb	r2, [r3, #4]
 1722 00b8 224B     		ldr	r3, .L53+24
 1723 00ba FF22     		movs	r2, #255
 1724 00bc 5A71     		strb	r2, [r3, #5]
 1725 00be 214B     		ldr	r3, .L53+24
 1726 00c0 FF22     		movs	r2, #255
 1727 00c2 9A71     		strb	r2, [r3, #6]
 1728 00c4 1F4B     		ldr	r3, .L53+24
 1729 00c6 FF22     		movs	r2, #255
 1730 00c8 DA71     		strb	r2, [r3, #7]
ARM GAS  C:\Users\tmj32\AppData\Local\Temp\cc8DwYg3.s 			page 47


 390:..\..\..\lvgl\version_6.1.2\lvgl\src\lv_themes/lv_theme_material.c ****     today_box.body.grad_color     = LV_COLOR_WHITE;
 1731              		.loc 2 390 0
 1732 00ca 1E4B     		ldr	r3, .L53+24
 1733 00cc FF22     		movs	r2, #255
 1734 00ce 1A72     		strb	r2, [r3, #8]
 1735 00d0 1C4B     		ldr	r3, .L53+24
 1736 00d2 FF22     		movs	r2, #255
 1737 00d4 5A72     		strb	r2, [r3, #9]
 1738 00d6 1B4B     		ldr	r3, .L53+24
 1739 00d8 FF22     		movs	r2, #255
 1740 00da 9A72     		strb	r2, [r3, #10]
 1741 00dc 194B     		ldr	r3, .L53+24
 1742 00de FF22     		movs	r2, #255
 1743 00e0 DA72     		strb	r2, [r3, #11]
 391:..\..\..\lvgl\version_6.1.2\lvgl\src\lv_themes/lv_theme_material.c ****     today_box.body.padding.top    = LV_DPI / 20;
 1744              		.loc 2 391 0
 1745 00e2 184B     		ldr	r3, .L53+24
 1746 00e4 0722     		movs	r2, #7
 1747 00e6 1A84     		strh	r2, [r3, #32]	@ movhi
 392:..\..\..\lvgl\version_6.1.2\lvgl\src\lv_themes/lv_theme_material.c ****     today_box.body.padding.bottom = LV_DPI / 20;
 1748              		.loc 2 392 0
 1749 00e8 164B     		ldr	r3, .L53+24
 1750 00ea 0722     		movs	r2, #7
 1751 00ec 5A84     		strh	r2, [r3, #34]	@ movhi
 393:..\..\..\lvgl\version_6.1.2\lvgl\src\lv_themes/lv_theme_material.c ****     today_box.body.radius         = 0;
 1752              		.loc 2 393 0
 1753 00ee 154B     		ldr	r3, .L53+24
 1754 00f0 0022     		movs	r2, #0
 1755 00f2 9A81     		strh	r2, [r3, #12]	@ movhi
 394:..\..\..\lvgl\version_6.1.2\lvgl\src\lv_themes/lv_theme_material.c **** 
 395:..\..\..\lvgl\version_6.1.2\lvgl\src\lv_themes/lv_theme_material.c ****     theme.style.calendar.bg               = theme.style.panel;
 1756              		.loc 2 395 0
 1757 00f4 124B     		ldr	r3, .L53+20
 1758 00f6 9B68     		ldr	r3, [r3, #8]
 1759 00f8 114A     		ldr	r2, .L53+20
 1760 00fa C2F88C30 		str	r3, [r2, #140]
 396:..\..\..\lvgl\version_6.1.2\lvgl\src\lv_themes/lv_theme_material.c ****     theme.style.calendar.header           = &lv_style_transp;
 1761              		.loc 2 396 0
 1762 00fe 104B     		ldr	r3, .L53+20
 1763 0100 114A     		ldr	r2, .L53+28
 1764 0102 C3F89020 		str	r2, [r3, #144]
 397:..\..\..\lvgl\version_6.1.2\lvgl\src\lv_themes/lv_theme_material.c ****     theme.style.calendar.inactive_days    = &ina_days;
 1765              		.loc 2 397 0
 1766 0106 0E4B     		ldr	r3, .L53+20
 1767 0108 094A     		ldr	r2, .L53+4
 1768 010a C3F8A020 		str	r2, [r3, #160]
 398:..\..\..\lvgl\version_6.1.2\lvgl\src\lv_themes/lv_theme_material.c ****     theme.style.calendar.highlighted_days = &high_days;
 1769              		.loc 2 398 0
 1770 010e 0C4B     		ldr	r3, .L53+20
 1771 0110 094A     		ldr	r2, .L53+12
 1772 0112 C3F89C20 		str	r2, [r3, #156]
 399:..\..\..\lvgl\version_6.1.2\lvgl\src\lv_themes/lv_theme_material.c ****     theme.style.calendar.week_box         = &week_box;
 1773              		.loc 2 399 0
 1774 0116 0A4B     		ldr	r3, .L53+20
 1775 0118 084A     		ldr	r2, .L53+16
 1776 011a C3F8A420 		str	r2, [r3, #164]
 400:..\..\..\lvgl\version_6.1.2\lvgl\src\lv_themes/lv_theme_material.c ****     theme.style.calendar.today_box        = &today_box;
ARM GAS  C:\Users\tmj32\AppData\Local\Temp\cc8DwYg3.s 			page 48


 1777              		.loc 2 400 0
 1778 011e 084B     		ldr	r3, .L53+20
 1779 0120 084A     		ldr	r2, .L53+24
 1780 0122 C3F8A820 		str	r2, [r3, #168]
 401:..\..\..\lvgl\version_6.1.2\lvgl\src\lv_themes/lv_theme_material.c **** #endif
 402:..\..\..\lvgl\version_6.1.2\lvgl\src\lv_themes/lv_theme_material.c **** }
 1781              		.loc 2 402 0
 1782 0126 00BF     		nop
 1783 0128 98BD     		pop	{r3, r4, r7, pc}
 1784              	.L54:
 1785 012a 00BF     		.align	2
 1786              	.L53:
 1787 012c A8010000 		.word	def
 1788 0130 D0090000 		.word	ina_days.6020
 1789 0134 48020000 		.word	_hue
 1790 0138 200A0000 		.word	high_days.6021
 1791 013c 700A0000 		.word	week_box.6022
 1792 0140 00000000 		.word	theme
 1793 0144 C00A0000 		.word	today_box.6023
 1794 0148 00000000 		.word	lv_style_transp
 1795              		.cfi_endproc
 1796              	.LFE46:
 1797              		.size	calendar_init, .-calendar_init
 1798              		.section	.text.cb_init,"ax",%progbits
 1799              		.align	2
 1800              		.thumb
 1801              		.thumb_func
 1802              		.type	cb_init, %function
 1803              	cb_init:
 1804              	.LFB47:
 403:..\..\..\lvgl\version_6.1.2\lvgl\src\lv_themes/lv_theme_material.c **** 
 404:..\..\..\lvgl\version_6.1.2\lvgl\src\lv_themes/lv_theme_material.c **** static void cb_init(void)
 405:..\..\..\lvgl\version_6.1.2\lvgl\src\lv_themes/lv_theme_material.c **** {
 1805              		.loc 2 405 0
 1806              		.cfi_startproc
 1807              		@ args = 0, pretend = 0, frame = 0
 1808              		@ frame_needed = 1, uses_anonymous_args = 0
 1809 0000 98B5     		push	{r3, r4, r7, lr}
 1810              		.cfi_def_cfa_offset 16
 1811              		.cfi_offset 3, -16
 1812              		.cfi_offset 4, -12
 1813              		.cfi_offset 7, -8
 1814              		.cfi_offset 14, -4
 1815 0002 00AF     		add	r7, sp, #0
 1816              		.cfi_def_cfa_register 7
 406:..\..\..\lvgl\version_6.1.2\lvgl\src\lv_themes/lv_theme_material.c **** #if LV_USE_CB != 0
 407:..\..\..\lvgl\version_6.1.2\lvgl\src\lv_themes/lv_theme_material.c ****     static lv_style_t rel, pr, tgl_rel, tgl_pr, ina;
 408:..\..\..\lvgl\version_6.1.2\lvgl\src\lv_themes/lv_theme_material.c ****     lv_style_copy(&rel, theme.style.panel);
 1817              		.loc 2 408 0
 1818 0004 334B     		ldr	r3, .L56
 1819 0006 9B68     		ldr	r3, [r3, #8]
 1820 0008 1946     		mov	r1, r3
 1821 000a 3348     		ldr	r0, .L56+4
 1822 000c FFF7FEFF 		bl	lv_style_copy
 409:..\..\..\lvgl\version_6.1.2\lvgl\src\lv_themes/lv_theme_material.c ****     rel.body.shadow.type  = LV_SHADOW_BOTTOM;
 1823              		.loc 2 409 0
 1824 0010 314B     		ldr	r3, .L56+4
ARM GAS  C:\Users\tmj32\AppData\Local\Temp\cc8DwYg3.s 			page 49


 1825 0012 0022     		movs	r2, #0
 1826 0014 9A77     		strb	r2, [r3, #30]
 410:..\..\..\lvgl\version_6.1.2\lvgl\src\lv_themes/lv_theme_material.c ****     rel.body.shadow.width = 3;
 1827              		.loc 2 410 0
 1828 0016 304B     		ldr	r3, .L56+4
 1829 0018 0322     		movs	r2, #3
 1830 001a 9A83     		strh	r2, [r3, #28]	@ movhi
 411:..\..\..\lvgl\version_6.1.2\lvgl\src\lv_themes/lv_theme_material.c **** 
 412:..\..\..\lvgl\version_6.1.2\lvgl\src\lv_themes/lv_theme_material.c ****     lv_style_copy(&pr, &rel);
 1831              		.loc 2 412 0
 1832 001c 2E49     		ldr	r1, .L56+4
 1833 001e 2F48     		ldr	r0, .L56+8
 1834 0020 FFF7FEFF 		bl	lv_style_copy
 413:..\..\..\lvgl\version_6.1.2\lvgl\src\lv_themes/lv_theme_material.c ****     pr.body.main_color   = lv_color_hex3(0xccc);
 1835              		.loc 2 413 0
 1836 0024 2D4C     		ldr	r4, .L56+8
 1837 0026 40F6CC40 		movw	r0, #3276
 1838 002a FFF7FEFF 		bl	lv_color_hex3
 1839 002e 6060     		str	r0, [r4, #4]
 414:..\..\..\lvgl\version_6.1.2\lvgl\src\lv_themes/lv_theme_material.c ****     pr.body.grad_color   = pr.body.main_color;
 1840              		.loc 2 414 0
 1841 0030 2A4A     		ldr	r2, .L56+8
 1842 0032 2A4B     		ldr	r3, .L56+8
 1843 0034 5B68     		ldr	r3, [r3, #4]
 1844 0036 9360     		str	r3, [r2, #8]
 415:..\..\..\lvgl\version_6.1.2\lvgl\src\lv_themes/lv_theme_material.c ****     pr.body.shadow.width = 0;
 1845              		.loc 2 415 0
 1846 0038 284B     		ldr	r3, .L56+8
 1847 003a 0022     		movs	r2, #0
 1848 003c 9A83     		strh	r2, [r3, #28]	@ movhi
 416:..\..\..\lvgl\version_6.1.2\lvgl\src\lv_themes/lv_theme_material.c **** 
 417:..\..\..\lvgl\version_6.1.2\lvgl\src\lv_themes/lv_theme_material.c ****     lv_style_copy(&tgl_rel, &rel);
 1849              		.loc 2 417 0
 1850 003e 2649     		ldr	r1, .L56+4
 1851 0040 2748     		ldr	r0, .L56+12
 1852 0042 FFF7FEFF 		bl	lv_style_copy
 418:..\..\..\lvgl\version_6.1.2\lvgl\src\lv_themes/lv_theme_material.c ****     tgl_rel.body.main_color   = lv_color_hsv_to_rgb(_hue, 75, 85);
 1853              		.loc 2 418 0
 1854 0046 274B     		ldr	r3, .L56+16
 1855 0048 1B88     		ldrh	r3, [r3]
 1856 004a 254C     		ldr	r4, .L56+12
 1857 004c 5522     		movs	r2, #85
 1858 004e 4B21     		movs	r1, #75
 1859 0050 1846     		mov	r0, r3
 1860 0052 FFF7FEFF 		bl	lv_color_hsv_to_rgb
 1861 0056 6060     		str	r0, [r4, #4]
 419:..\..\..\lvgl\version_6.1.2\lvgl\src\lv_themes/lv_theme_material.c ****     tgl_rel.body.grad_color   = tgl_rel.body.main_color;
 1862              		.loc 2 419 0
 1863 0058 214A     		ldr	r2, .L56+12
 1864 005a 214B     		ldr	r3, .L56+12
 1865 005c 5B68     		ldr	r3, [r3, #4]
 1866 005e 9360     		str	r3, [r2, #8]
 420:..\..\..\lvgl\version_6.1.2\lvgl\src\lv_themes/lv_theme_material.c ****     tgl_rel.body.shadow.type  = LV_SHADOW_FULL;
 1867              		.loc 2 420 0
 1868 0060 1F4B     		ldr	r3, .L56+12
 1869 0062 0122     		movs	r2, #1
 1870 0064 9A77     		strb	r2, [r3, #30]
ARM GAS  C:\Users\tmj32\AppData\Local\Temp\cc8DwYg3.s 			page 50


 421:..\..\..\lvgl\version_6.1.2\lvgl\src\lv_themes/lv_theme_material.c ****     tgl_rel.body.shadow.width = 0;
 1871              		.loc 2 421 0
 1872 0066 1E4B     		ldr	r3, .L56+12
 1873 0068 0022     		movs	r2, #0
 1874 006a 9A83     		strh	r2, [r3, #28]	@ movhi
 422:..\..\..\lvgl\version_6.1.2\lvgl\src\lv_themes/lv_theme_material.c **** 
 423:..\..\..\lvgl\version_6.1.2\lvgl\src\lv_themes/lv_theme_material.c ****     lv_style_copy(&tgl_pr, &tgl_rel);
 1875              		.loc 2 423 0
 1876 006c 1C49     		ldr	r1, .L56+12
 1877 006e 1E48     		ldr	r0, .L56+20
 1878 0070 FFF7FEFF 		bl	lv_style_copy
 424:..\..\..\lvgl\version_6.1.2\lvgl\src\lv_themes/lv_theme_material.c ****     tgl_pr.body.main_color   = lv_color_hsv_to_rgb(_hue, 75, 65);
 1879              		.loc 2 424 0
 1880 0074 1B4B     		ldr	r3, .L56+16
 1881 0076 1B88     		ldrh	r3, [r3]
 1882 0078 1B4C     		ldr	r4, .L56+20
 1883 007a 4122     		movs	r2, #65
 1884 007c 4B21     		movs	r1, #75
 1885 007e 1846     		mov	r0, r3
 1886 0080 FFF7FEFF 		bl	lv_color_hsv_to_rgb
 1887 0084 6060     		str	r0, [r4, #4]
 425:..\..\..\lvgl\version_6.1.2\lvgl\src\lv_themes/lv_theme_material.c ****     tgl_pr.body.grad_color   = tgl_pr.body.main_color;
 1888              		.loc 2 425 0
 1889 0086 184A     		ldr	r2, .L56+20
 1890 0088 174B     		ldr	r3, .L56+20
 1891 008a 5B68     		ldr	r3, [r3, #4]
 1892 008c 9360     		str	r3, [r2, #8]
 426:..\..\..\lvgl\version_6.1.2\lvgl\src\lv_themes/lv_theme_material.c ****     tgl_pr.body.shadow.width = 0;
 1893              		.loc 2 426 0
 1894 008e 164B     		ldr	r3, .L56+20
 1895 0090 0022     		movs	r2, #0
 1896 0092 9A83     		strh	r2, [r3, #28]	@ movhi
 427:..\..\..\lvgl\version_6.1.2\lvgl\src\lv_themes/lv_theme_material.c **** 
 428:..\..\..\lvgl\version_6.1.2\lvgl\src\lv_themes/lv_theme_material.c ****     lv_style_copy(&ina, theme.style.btn.ina);
 1897              		.loc 2 428 0
 1898 0094 0F4B     		ldr	r3, .L56
 1899 0096 1B6A     		ldr	r3, [r3, #32]
 1900 0098 1946     		mov	r1, r3
 1901 009a 1448     		ldr	r0, .L56+24
 1902 009c FFF7FEFF 		bl	lv_style_copy
 429:..\..\..\lvgl\version_6.1.2\lvgl\src\lv_themes/lv_theme_material.c **** 
 430:..\..\..\lvgl\version_6.1.2\lvgl\src\lv_themes/lv_theme_material.c ****     theme.style.cb.bg          = &lv_style_transp;
 1903              		.loc 2 430 0
 1904 00a0 0C4B     		ldr	r3, .L56
 1905 00a2 134A     		ldr	r2, .L56+28
 1906 00a4 C3F8AC20 		str	r2, [r3, #172]
 431:..\..\..\lvgl\version_6.1.2\lvgl\src\lv_themes/lv_theme_material.c ****     theme.style.cb.box.rel     = &rel;
 1907              		.loc 2 431 0
 1908 00a8 0A4B     		ldr	r3, .L56
 1909 00aa 0B4A     		ldr	r2, .L56+4
 1910 00ac C3F8B020 		str	r2, [r3, #176]
 432:..\..\..\lvgl\version_6.1.2\lvgl\src\lv_themes/lv_theme_material.c ****     theme.style.cb.box.pr      = &pr;
 1911              		.loc 2 432 0
 1912 00b0 084B     		ldr	r3, .L56
 1913 00b2 0A4A     		ldr	r2, .L56+8
 1914 00b4 C3F8B420 		str	r2, [r3, #180]
 433:..\..\..\lvgl\version_6.1.2\lvgl\src\lv_themes/lv_theme_material.c ****     theme.style.cb.box.tgl_rel = &tgl_rel;
ARM GAS  C:\Users\tmj32\AppData\Local\Temp\cc8DwYg3.s 			page 51


 1915              		.loc 2 433 0
 1916 00b8 064B     		ldr	r3, .L56
 1917 00ba 094A     		ldr	r2, .L56+12
 1918 00bc C3F8B820 		str	r2, [r3, #184]
 434:..\..\..\lvgl\version_6.1.2\lvgl\src\lv_themes/lv_theme_material.c ****     theme.style.cb.box.tgl_pr  = &tgl_pr;
 1919              		.loc 2 434 0
 1920 00c0 044B     		ldr	r3, .L56
 1921 00c2 094A     		ldr	r2, .L56+20
 1922 00c4 C3F8BC20 		str	r2, [r3, #188]
 435:..\..\..\lvgl\version_6.1.2\lvgl\src\lv_themes/lv_theme_material.c ****     theme.style.cb.box.ina     = &ina;
 1923              		.loc 2 435 0
 1924 00c8 024B     		ldr	r3, .L56
 1925 00ca 084A     		ldr	r2, .L56+24
 1926 00cc C3F8C020 		str	r2, [r3, #192]
 436:..\..\..\lvgl\version_6.1.2\lvgl\src\lv_themes/lv_theme_material.c **** #endif
 437:..\..\..\lvgl\version_6.1.2\lvgl\src\lv_themes/lv_theme_material.c **** }
 1927              		.loc 2 437 0
 1928 00d0 00BF     		nop
 1929 00d2 98BD     		pop	{r3, r4, r7, pc}
 1930              	.L57:
 1931              		.align	2
 1932              	.L56:
 1933 00d4 00000000 		.word	theme
 1934 00d8 100B0000 		.word	rel.6029
 1935 00dc 600B0000 		.word	pr.6030
 1936 00e0 B00B0000 		.word	tgl_rel.6031
 1937 00e4 48020000 		.word	_hue
 1938 00e8 000C0000 		.word	tgl_pr.6032
 1939 00ec 500C0000 		.word	ina.6033
 1940 00f0 00000000 		.word	lv_style_transp
 1941              		.cfi_endproc
 1942              	.LFE47:
 1943              		.size	cb_init, .-cb_init
 1944              		.section	.text.btnm_init,"ax",%progbits
 1945              		.align	2
 1946              		.thumb
 1947              		.thumb_func
 1948              		.type	btnm_init, %function
 1949              	btnm_init:
 1950              	.LFB48:
 438:..\..\..\lvgl\version_6.1.2\lvgl\src\lv_themes/lv_theme_material.c **** 
 439:..\..\..\lvgl\version_6.1.2\lvgl\src\lv_themes/lv_theme_material.c **** static void btnm_init(void)
 440:..\..\..\lvgl\version_6.1.2\lvgl\src\lv_themes/lv_theme_material.c **** {
 1951              		.loc 2 440 0
 1952              		.cfi_startproc
 1953              		@ args = 0, pretend = 0, frame = 0
 1954              		@ frame_needed = 1, uses_anonymous_args = 0
 1955 0000 98B5     		push	{r3, r4, r7, lr}
 1956              		.cfi_def_cfa_offset 16
 1957              		.cfi_offset 3, -16
 1958              		.cfi_offset 4, -12
 1959              		.cfi_offset 7, -8
 1960              		.cfi_offset 14, -4
 1961 0002 00AF     		add	r7, sp, #0
 1962              		.cfi_def_cfa_register 7
 441:..\..\..\lvgl\version_6.1.2\lvgl\src\lv_themes/lv_theme_material.c **** #if LV_USE_BTNM
 442:..\..\..\lvgl\version_6.1.2\lvgl\src\lv_themes/lv_theme_material.c ****     static lv_style_t bg, rel, pr, tgl_rel, tgl_pr, ina;
ARM GAS  C:\Users\tmj32\AppData\Local\Temp\cc8DwYg3.s 			page 52


 443:..\..\..\lvgl\version_6.1.2\lvgl\src\lv_themes/lv_theme_material.c **** 
 444:..\..\..\lvgl\version_6.1.2\lvgl\src\lv_themes/lv_theme_material.c ****     lv_style_copy(&bg, theme.style.panel);
 1963              		.loc 2 444 0
 1964 0004 504B     		ldr	r3, .L59
 1965 0006 9B68     		ldr	r3, [r3, #8]
 1966 0008 1946     		mov	r1, r3
 1967 000a 5048     		ldr	r0, .L59+4
 1968 000c FFF7FEFF 		bl	lv_style_copy
 445:..\..\..\lvgl\version_6.1.2\lvgl\src\lv_themes/lv_theme_material.c ****     bg.body.padding.left   = 0;
 1969              		.loc 2 445 0
 1970 0010 4E4B     		ldr	r3, .L59+4
 1971 0012 0022     		movs	r2, #0
 1972 0014 9A84     		strh	r2, [r3, #36]	@ movhi
 446:..\..\..\lvgl\version_6.1.2\lvgl\src\lv_themes/lv_theme_material.c ****     bg.body.padding.right  = 0;
 1973              		.loc 2 446 0
 1974 0016 4D4B     		ldr	r3, .L59+4
 1975 0018 0022     		movs	r2, #0
 1976 001a DA84     		strh	r2, [r3, #38]	@ movhi
 447:..\..\..\lvgl\version_6.1.2\lvgl\src\lv_themes/lv_theme_material.c ****     bg.body.padding.top    = 0;
 1977              		.loc 2 447 0
 1978 001c 4B4B     		ldr	r3, .L59+4
 1979 001e 0022     		movs	r2, #0
 1980 0020 1A84     		strh	r2, [r3, #32]	@ movhi
 448:..\..\..\lvgl\version_6.1.2\lvgl\src\lv_themes/lv_theme_material.c ****     bg.body.padding.bottom = 0;
 1981              		.loc 2 448 0
 1982 0022 4A4B     		ldr	r3, .L59+4
 1983 0024 0022     		movs	r2, #0
 1984 0026 5A84     		strh	r2, [r3, #34]	@ movhi
 449:..\..\..\lvgl\version_6.1.2\lvgl\src\lv_themes/lv_theme_material.c ****     bg.body.padding.inner  = 0;
 1985              		.loc 2 449 0
 1986 0028 484B     		ldr	r3, .L59+4
 1987 002a 0022     		movs	r2, #0
 1988 002c 1A85     		strh	r2, [r3, #40]	@ movhi
 450:..\..\..\lvgl\version_6.1.2\lvgl\src\lv_themes/lv_theme_material.c ****     bg.text.color          = lv_color_hex3(0x555);
 1989              		.loc 2 450 0
 1990 002e 474C     		ldr	r4, .L59+4
 1991 0030 40F25550 		movw	r0, #1365
 1992 0034 FFF7FEFF 		bl	lv_color_hex3
 1993 0038 E062     		str	r0, [r4, #44]
 451:..\..\..\lvgl\version_6.1.2\lvgl\src\lv_themes/lv_theme_material.c **** 
 452:..\..\..\lvgl\version_6.1.2\lvgl\src\lv_themes/lv_theme_material.c ****     lv_style_copy(&rel, theme.style.panel);
 1994              		.loc 2 452 0
 1995 003a 434B     		ldr	r3, .L59
 1996 003c 9B68     		ldr	r3, [r3, #8]
 1997 003e 1946     		mov	r1, r3
 1998 0040 4348     		ldr	r0, .L59+8
 1999 0042 FFF7FEFF 		bl	lv_style_copy
 453:..\..\..\lvgl\version_6.1.2\lvgl\src\lv_themes/lv_theme_material.c ****     rel.body.border.part  = LV_BORDER_FULL | LV_BORDER_INTERNAL;
 2000              		.loc 2 453 0
 2001 0046 424B     		ldr	r3, .L59+8
 2002 0048 1F22     		movs	r2, #31
 2003 004a 9A75     		strb	r2, [r3, #22]
 454:..\..\..\lvgl\version_6.1.2\lvgl\src\lv_themes/lv_theme_material.c ****     rel.body.border.width = 1;
 2004              		.loc 2 454 0
 2005 004c 404B     		ldr	r3, .L59+8
 2006 004e 0122     		movs	r2, #1
 2007 0050 9A82     		strh	r2, [r3, #20]	@ movhi
ARM GAS  C:\Users\tmj32\AppData\Local\Temp\cc8DwYg3.s 			page 53


 455:..\..\..\lvgl\version_6.1.2\lvgl\src\lv_themes/lv_theme_material.c ****     rel.body.border.color = lv_color_hex3(0xbbb);
 2008              		.loc 2 455 0
 2009 0052 3F4C     		ldr	r4, .L59+8
 2010 0054 40F6BB30 		movw	r0, #3003
 2011 0058 FFF7FEFF 		bl	lv_color_hex3
 2012 005c 2061     		str	r0, [r4, #16]
 456:..\..\..\lvgl\version_6.1.2\lvgl\src\lv_themes/lv_theme_material.c ****     rel.body.opa          = LV_OPA_TRANSP;
 2013              		.loc 2 456 0
 2014 005e 3C4B     		ldr	r3, .L59+8
 2015 0060 0022     		movs	r2, #0
 2016 0062 9A73     		strb	r2, [r3, #14]
 457:..\..\..\lvgl\version_6.1.2\lvgl\src\lv_themes/lv_theme_material.c ****     rel.body.shadow.width = 0;
 2017              		.loc 2 457 0
 2018 0064 3A4B     		ldr	r3, .L59+8
 2019 0066 0022     		movs	r2, #0
 2020 0068 9A83     		strh	r2, [r3, #28]	@ movhi
 458:..\..\..\lvgl\version_6.1.2\lvgl\src\lv_themes/lv_theme_material.c **** 
 459:..\..\..\lvgl\version_6.1.2\lvgl\src\lv_themes/lv_theme_material.c ****     lv_style_copy(&pr, &rel);
 2021              		.loc 2 459 0
 2022 006a 3949     		ldr	r1, .L59+8
 2023 006c 3948     		ldr	r0, .L59+12
 2024 006e FFF7FEFF 		bl	lv_style_copy
 460:..\..\..\lvgl\version_6.1.2\lvgl\src\lv_themes/lv_theme_material.c ****     pr.glass             = 0;
 2025              		.loc 2 460 0
 2026 0072 384A     		ldr	r2, .L59+12
 2027 0074 1378     		ldrb	r3, [r2]
 2028 0076 6FF30003 		bfc	r3, #0, #1
 2029 007a 1370     		strb	r3, [r2]
 461:..\..\..\lvgl\version_6.1.2\lvgl\src\lv_themes/lv_theme_material.c ****     pr.body.main_color   = lv_color_hex3(0xddd);
 2030              		.loc 2 461 0
 2031 007c 354C     		ldr	r4, .L59+12
 2032 007e 40F6DD50 		movw	r0, #3549
 2033 0082 FFF7FEFF 		bl	lv_color_hex3
 2034 0086 6060     		str	r0, [r4, #4]
 462:..\..\..\lvgl\version_6.1.2\lvgl\src\lv_themes/lv_theme_material.c ****     pr.body.grad_color   = pr.body.main_color;
 2035              		.loc 2 462 0
 2036 0088 324A     		ldr	r2, .L59+12
 2037 008a 324B     		ldr	r3, .L59+12
 2038 008c 5B68     		ldr	r3, [r3, #4]
 2039 008e 9360     		str	r3, [r2, #8]
 463:..\..\..\lvgl\version_6.1.2\lvgl\src\lv_themes/lv_theme_material.c ****     pr.body.border.width = 0;
 2040              		.loc 2 463 0
 2041 0090 304B     		ldr	r3, .L59+12
 2042 0092 0022     		movs	r2, #0
 2043 0094 9A82     		strh	r2, [r3, #20]	@ movhi
 464:..\..\..\lvgl\version_6.1.2\lvgl\src\lv_themes/lv_theme_material.c ****     pr.body.opa          = LV_OPA_COVER;
 2044              		.loc 2 464 0
 2045 0096 2F4B     		ldr	r3, .L59+12
 2046 0098 FF22     		movs	r2, #255
 2047 009a 9A73     		strb	r2, [r3, #14]
 465:..\..\..\lvgl\version_6.1.2\lvgl\src\lv_themes/lv_theme_material.c **** 
 466:..\..\..\lvgl\version_6.1.2\lvgl\src\lv_themes/lv_theme_material.c ****     lv_style_copy(&tgl_rel, &pr);
 2048              		.loc 2 466 0
 2049 009c 2D49     		ldr	r1, .L59+12
 2050 009e 2E48     		ldr	r0, .L59+16
 2051 00a0 FFF7FEFF 		bl	lv_style_copy
 467:..\..\..\lvgl\version_6.1.2\lvgl\src\lv_themes/lv_theme_material.c ****     tgl_rel.body.main_color = lv_color_hsv_to_rgb(_hue, 90, 70);
ARM GAS  C:\Users\tmj32\AppData\Local\Temp\cc8DwYg3.s 			page 54


 2052              		.loc 2 467 0
 2053 00a4 2D4B     		ldr	r3, .L59+20
 2054 00a6 1B88     		ldrh	r3, [r3]
 2055 00a8 2B4C     		ldr	r4, .L59+16
 2056 00aa 4622     		movs	r2, #70
 2057 00ac 5A21     		movs	r1, #90
 2058 00ae 1846     		mov	r0, r3
 2059 00b0 FFF7FEFF 		bl	lv_color_hsv_to_rgb
 2060 00b4 6060     		str	r0, [r4, #4]
 468:..\..\..\lvgl\version_6.1.2\lvgl\src\lv_themes/lv_theme_material.c ****     tgl_rel.body.grad_color = tgl_rel.body.main_color;
 2061              		.loc 2 468 0
 2062 00b6 284A     		ldr	r2, .L59+16
 2063 00b8 274B     		ldr	r3, .L59+16
 2064 00ba 5B68     		ldr	r3, [r3, #4]
 2065 00bc 9360     		str	r3, [r2, #8]
 469:..\..\..\lvgl\version_6.1.2\lvgl\src\lv_themes/lv_theme_material.c ****     tgl_rel.text.color      = lv_color_hsv_to_rgb(_hue, 5, 95);
 2066              		.loc 2 469 0
 2067 00be 274B     		ldr	r3, .L59+20
 2068 00c0 1B88     		ldrh	r3, [r3]
 2069 00c2 254C     		ldr	r4, .L59+16
 2070 00c4 5F22     		movs	r2, #95
 2071 00c6 0521     		movs	r1, #5
 2072 00c8 1846     		mov	r0, r3
 2073 00ca FFF7FEFF 		bl	lv_color_hsv_to_rgb
 2074 00ce E062     		str	r0, [r4, #44]
 470:..\..\..\lvgl\version_6.1.2\lvgl\src\lv_themes/lv_theme_material.c **** 
 471:..\..\..\lvgl\version_6.1.2\lvgl\src\lv_themes/lv_theme_material.c ****     lv_style_copy(&tgl_pr, &tgl_rel);
 2075              		.loc 2 471 0
 2076 00d0 2149     		ldr	r1, .L59+16
 2077 00d2 2348     		ldr	r0, .L59+24
 2078 00d4 FFF7FEFF 		bl	lv_style_copy
 472:..\..\..\lvgl\version_6.1.2\lvgl\src\lv_themes/lv_theme_material.c ****     tgl_pr.body.main_color   = lv_color_hsv_to_rgb(_hue, 95, 65);
 2079              		.loc 2 472 0
 2080 00d8 204B     		ldr	r3, .L59+20
 2081 00da 1B88     		ldrh	r3, [r3]
 2082 00dc 204C     		ldr	r4, .L59+24
 2083 00de 4122     		movs	r2, #65
 2084 00e0 5F21     		movs	r1, #95
 2085 00e2 1846     		mov	r0, r3
 2086 00e4 FFF7FEFF 		bl	lv_color_hsv_to_rgb
 2087 00e8 6060     		str	r0, [r4, #4]
 473:..\..\..\lvgl\version_6.1.2\lvgl\src\lv_themes/lv_theme_material.c ****     tgl_pr.body.grad_color   = tgl_pr.body.main_color;
 2088              		.loc 2 473 0
 2089 00ea 1D4A     		ldr	r2, .L59+24
 2090 00ec 1C4B     		ldr	r3, .L59+24
 2091 00ee 5B68     		ldr	r3, [r3, #4]
 2092 00f0 9360     		str	r3, [r2, #8]
 474:..\..\..\lvgl\version_6.1.2\lvgl\src\lv_themes/lv_theme_material.c ****     tgl_pr.body.border.width = 0;
 2093              		.loc 2 474 0
 2094 00f2 1B4B     		ldr	r3, .L59+24
 2095 00f4 0022     		movs	r2, #0
 2096 00f6 9A82     		strh	r2, [r3, #20]	@ movhi
 475:..\..\..\lvgl\version_6.1.2\lvgl\src\lv_themes/lv_theme_material.c **** 
 476:..\..\..\lvgl\version_6.1.2\lvgl\src\lv_themes/lv_theme_material.c ****     lv_style_copy(&ina, &pr);
 2097              		.loc 2 476 0
 2098 00f8 1649     		ldr	r1, .L59+12
 2099 00fa 1A48     		ldr	r0, .L59+28
ARM GAS  C:\Users\tmj32\AppData\Local\Temp\cc8DwYg3.s 			page 55


 2100 00fc FFF7FEFF 		bl	lv_style_copy
 477:..\..\..\lvgl\version_6.1.2\lvgl\src\lv_themes/lv_theme_material.c ****     ina.body.main_color = lv_color_hex3(0xccc);
 2101              		.loc 2 477 0
 2102 0100 184C     		ldr	r4, .L59+28
 2103 0102 40F6CC40 		movw	r0, #3276
 2104 0106 FFF7FEFF 		bl	lv_color_hex3
 2105 010a 6060     		str	r0, [r4, #4]
 478:..\..\..\lvgl\version_6.1.2\lvgl\src\lv_themes/lv_theme_material.c ****     ina.body.grad_color = ina.body.main_color;
 2106              		.loc 2 478 0
 2107 010c 154A     		ldr	r2, .L59+28
 2108 010e 154B     		ldr	r3, .L59+28
 2109 0110 5B68     		ldr	r3, [r3, #4]
 2110 0112 9360     		str	r3, [r2, #8]
 479:..\..\..\lvgl\version_6.1.2\lvgl\src\lv_themes/lv_theme_material.c **** 
 480:..\..\..\lvgl\version_6.1.2\lvgl\src\lv_themes/lv_theme_material.c ****     theme.style.btnm.bg          = &bg;
 2111              		.loc 2 480 0
 2112 0114 0C4B     		ldr	r3, .L59
 2113 0116 0D4A     		ldr	r2, .L59+4
 2114 0118 C3F8C420 		str	r2, [r3, #196]
 481:..\..\..\lvgl\version_6.1.2\lvgl\src\lv_themes/lv_theme_material.c ****     theme.style.btnm.btn.rel     = &rel;
 2115              		.loc 2 481 0
 2116 011c 0A4B     		ldr	r3, .L59
 2117 011e 0C4A     		ldr	r2, .L59+8
 2118 0120 C3F8C820 		str	r2, [r3, #200]
 482:..\..\..\lvgl\version_6.1.2\lvgl\src\lv_themes/lv_theme_material.c ****     theme.style.btnm.btn.pr      = &pr;
 2119              		.loc 2 482 0
 2120 0124 084B     		ldr	r3, .L59
 2121 0126 0B4A     		ldr	r2, .L59+12
 2122 0128 C3F8CC20 		str	r2, [r3, #204]
 483:..\..\..\lvgl\version_6.1.2\lvgl\src\lv_themes/lv_theme_material.c ****     theme.style.btnm.btn.tgl_rel = &tgl_rel;
 2123              		.loc 2 483 0
 2124 012c 064B     		ldr	r3, .L59
 2125 012e 0A4A     		ldr	r2, .L59+16
 2126 0130 C3F8D020 		str	r2, [r3, #208]
 484:..\..\..\lvgl\version_6.1.2\lvgl\src\lv_themes/lv_theme_material.c ****     theme.style.btnm.btn.tgl_pr  = &tgl_pr;
 2127              		.loc 2 484 0
 2128 0134 044B     		ldr	r3, .L59
 2129 0136 0A4A     		ldr	r2, .L59+24
 2130 0138 C3F8D420 		str	r2, [r3, #212]
 485:..\..\..\lvgl\version_6.1.2\lvgl\src\lv_themes/lv_theme_material.c ****     theme.style.btnm.btn.ina     = &def;
 2131              		.loc 2 485 0
 2132 013c 024B     		ldr	r3, .L59
 2133 013e 0A4A     		ldr	r2, .L59+32
 2134 0140 C3F8D820 		str	r2, [r3, #216]
 486:..\..\..\lvgl\version_6.1.2\lvgl\src\lv_themes/lv_theme_material.c **** #endif
 487:..\..\..\lvgl\version_6.1.2\lvgl\src\lv_themes/lv_theme_material.c **** }
 2135              		.loc 2 487 0
 2136 0144 00BF     		nop
 2137 0146 98BD     		pop	{r3, r4, r7, pc}
 2138              	.L60:
 2139              		.align	2
 2140              	.L59:
 2141 0148 00000000 		.word	theme
 2142 014c A00C0000 		.word	bg.6037
 2143 0150 F00C0000 		.word	rel.6038
 2144 0154 400D0000 		.word	pr.6039
 2145 0158 900D0000 		.word	tgl_rel.6040
ARM GAS  C:\Users\tmj32\AppData\Local\Temp\cc8DwYg3.s 			page 56


 2146 015c 48020000 		.word	_hue
 2147 0160 E00D0000 		.word	tgl_pr.6041
 2148 0164 300E0000 		.word	ina.6042
 2149 0168 A8010000 		.word	def
 2150              		.cfi_endproc
 2151              	.LFE48:
 2152              		.size	btnm_init, .-btnm_init
 2153              		.section	.text.kb_init,"ax",%progbits
 2154              		.align	2
 2155              		.thumb
 2156              		.thumb_func
 2157              		.type	kb_init, %function
 2158              	kb_init:
 2159              	.LFB49:
 488:..\..\..\lvgl\version_6.1.2\lvgl\src\lv_themes/lv_theme_material.c **** 
 489:..\..\..\lvgl\version_6.1.2\lvgl\src\lv_themes/lv_theme_material.c **** static void kb_init(void)
 490:..\..\..\lvgl\version_6.1.2\lvgl\src\lv_themes/lv_theme_material.c **** {
 2160              		.loc 2 490 0
 2161              		.cfi_startproc
 2162              		@ args = 0, pretend = 0, frame = 0
 2163              		@ frame_needed = 1, uses_anonymous_args = 0
 2164 0000 80B5     		push	{r7, lr}
 2165              		.cfi_def_cfa_offset 8
 2166              		.cfi_offset 7, -8
 2167              		.cfi_offset 14, -4
 2168 0002 00AF     		add	r7, sp, #0
 2169              		.cfi_def_cfa_register 7
 491:..\..\..\lvgl\version_6.1.2\lvgl\src\lv_themes/lv_theme_material.c **** #if LV_USE_KB
 492:..\..\..\lvgl\version_6.1.2\lvgl\src\lv_themes/lv_theme_material.c **** 
 493:..\..\..\lvgl\version_6.1.2\lvgl\src\lv_themes/lv_theme_material.c ****     static lv_style_t rel;
 494:..\..\..\lvgl\version_6.1.2\lvgl\src\lv_themes/lv_theme_material.c ****     lv_style_copy(&rel, &lv_style_transp);
 2170              		.loc 2 494 0
 2171 0004 1549     		ldr	r1, .L62
 2172 0006 1648     		ldr	r0, .L62+4
 2173 0008 FFF7FEFF 		bl	lv_style_copy
 495:..\..\..\lvgl\version_6.1.2\lvgl\src\lv_themes/lv_theme_material.c ****     rel.text.font = _font;
 2174              		.loc 2 495 0
 2175 000c 154B     		ldr	r3, .L62+8
 2176 000e 1B68     		ldr	r3, [r3]
 2177 0010 134A     		ldr	r2, .L62+4
 2178 0012 5363     		str	r3, [r2, #52]
 496:..\..\..\lvgl\version_6.1.2\lvgl\src\lv_themes/lv_theme_material.c **** 
 497:..\..\..\lvgl\version_6.1.2\lvgl\src\lv_themes/lv_theme_material.c ****     theme.style.kb.bg          = theme.style.btnm.bg;
 2179              		.loc 2 497 0
 2180 0014 144B     		ldr	r3, .L62+12
 2181 0016 D3F8C430 		ldr	r3, [r3, #196]
 2182 001a 134A     		ldr	r2, .L62+12
 2183 001c C2F8DC30 		str	r3, [r2, #220]
 498:..\..\..\lvgl\version_6.1.2\lvgl\src\lv_themes/lv_theme_material.c ****     theme.style.kb.btn.rel     = &rel;
 2184              		.loc 2 498 0
 2185 0020 114B     		ldr	r3, .L62+12
 2186 0022 0F4A     		ldr	r2, .L62+4
 2187 0024 C3F8E020 		str	r2, [r3, #224]
 499:..\..\..\lvgl\version_6.1.2\lvgl\src\lv_themes/lv_theme_material.c ****     theme.style.kb.btn.pr      = theme.style.btnm.btn.pr;
 2188              		.loc 2 499 0
 2189 0028 0F4B     		ldr	r3, .L62+12
 2190 002a D3F8CC30 		ldr	r3, [r3, #204]
ARM GAS  C:\Users\tmj32\AppData\Local\Temp\cc8DwYg3.s 			page 57


 2191 002e 0E4A     		ldr	r2, .L62+12
 2192 0030 C2F8E430 		str	r3, [r2, #228]
 500:..\..\..\lvgl\version_6.1.2\lvgl\src\lv_themes/lv_theme_material.c ****     theme.style.kb.btn.tgl_rel = theme.style.btnm.btn.tgl_rel;
 2193              		.loc 2 500 0
 2194 0034 0C4B     		ldr	r3, .L62+12
 2195 0036 D3F8D030 		ldr	r3, [r3, #208]
 2196 003a 0B4A     		ldr	r2, .L62+12
 2197 003c C2F8E830 		str	r3, [r2, #232]
 501:..\..\..\lvgl\version_6.1.2\lvgl\src\lv_themes/lv_theme_material.c ****     theme.style.kb.btn.tgl_pr  = theme.style.btnm.btn.tgl_pr;
 2198              		.loc 2 501 0
 2199 0040 094B     		ldr	r3, .L62+12
 2200 0042 D3F8D430 		ldr	r3, [r3, #212]
 2201 0046 084A     		ldr	r2, .L62+12
 2202 0048 C2F8EC30 		str	r3, [r2, #236]
 502:..\..\..\lvgl\version_6.1.2\lvgl\src\lv_themes/lv_theme_material.c ****     theme.style.kb.btn.ina     = theme.style.btnm.btn.ina;
 2203              		.loc 2 502 0
 2204 004c 064B     		ldr	r3, .L62+12
 2205 004e D3F8D830 		ldr	r3, [r3, #216]
 2206 0052 054A     		ldr	r2, .L62+12
 2207 0054 C2F8F030 		str	r3, [r2, #240]
 503:..\..\..\lvgl\version_6.1.2\lvgl\src\lv_themes/lv_theme_material.c **** #endif
 504:..\..\..\lvgl\version_6.1.2\lvgl\src\lv_themes/lv_theme_material.c **** }
 2208              		.loc 2 504 0
 2209 0058 00BF     		nop
 2210 005a 80BD     		pop	{r7, pc}
 2211              	.L63:
 2212              		.align	2
 2213              	.L62:
 2214 005c 00000000 		.word	lv_style_transp
 2215 0060 800E0000 		.word	rel.6046
 2216 0064 4C020000 		.word	_font
 2217 0068 00000000 		.word	theme
 2218              		.cfi_endproc
 2219              	.LFE49:
 2220              		.size	kb_init, .-kb_init
 2221              		.section	.text.mbox_init,"ax",%progbits
 2222              		.align	2
 2223              		.thumb
 2224              		.thumb_func
 2225              		.type	mbox_init, %function
 2226              	mbox_init:
 2227              	.LFB50:
 505:..\..\..\lvgl\version_6.1.2\lvgl\src\lv_themes/lv_theme_material.c **** 
 506:..\..\..\lvgl\version_6.1.2\lvgl\src\lv_themes/lv_theme_material.c **** static void mbox_init(void)
 507:..\..\..\lvgl\version_6.1.2\lvgl\src\lv_themes/lv_theme_material.c **** {
 2228              		.loc 2 507 0
 2229              		.cfi_startproc
 2230              		@ args = 0, pretend = 0, frame = 0
 2231              		@ frame_needed = 1, uses_anonymous_args = 0
 2232 0000 98B5     		push	{r3, r4, r7, lr}
 2233              		.cfi_def_cfa_offset 16
 2234              		.cfi_offset 3, -16
 2235              		.cfi_offset 4, -12
 2236              		.cfi_offset 7, -8
 2237              		.cfi_offset 14, -4
 2238 0002 00AF     		add	r7, sp, #0
 2239              		.cfi_def_cfa_register 7
ARM GAS  C:\Users\tmj32\AppData\Local\Temp\cc8DwYg3.s 			page 58


 508:..\..\..\lvgl\version_6.1.2\lvgl\src\lv_themes/lv_theme_material.c **** #if LV_USE_MBOX
 509:..\..\..\lvgl\version_6.1.2\lvgl\src\lv_themes/lv_theme_material.c ****     static lv_style_t pr, rel;
 510:..\..\..\lvgl\version_6.1.2\lvgl\src\lv_themes/lv_theme_material.c **** 
 511:..\..\..\lvgl\version_6.1.2\lvgl\src\lv_themes/lv_theme_material.c ****     lv_style_copy(&rel, &lv_style_transp);
 2240              		.loc 2 511 0
 2241 0004 1C49     		ldr	r1, .L65
 2242 0006 1D48     		ldr	r0, .L65+4
 2243 0008 FFF7FEFF 		bl	lv_style_copy
 512:..\..\..\lvgl\version_6.1.2\lvgl\src\lv_themes/lv_theme_material.c ****     rel.glass      = 0;
 2244              		.loc 2 512 0
 2245 000c 1B4A     		ldr	r2, .L65+4
 2246 000e 1378     		ldrb	r3, [r2]
 2247 0010 6FF30003 		bfc	r3, #0, #1
 2248 0014 1370     		strb	r3, [r2]
 513:..\..\..\lvgl\version_6.1.2\lvgl\src\lv_themes/lv_theme_material.c ****     rel.text.font  = _font;
 2249              		.loc 2 513 0
 2250 0016 1A4B     		ldr	r3, .L65+8
 2251 0018 1B68     		ldr	r3, [r3]
 2252 001a 184A     		ldr	r2, .L65+4
 2253 001c 5363     		str	r3, [r2, #52]
 514:..\..\..\lvgl\version_6.1.2\lvgl\src\lv_themes/lv_theme_material.c ****     rel.text.color = lv_color_hsv_to_rgb(_hue, 85, 75);
 2254              		.loc 2 514 0
 2255 001e 194B     		ldr	r3, .L65+12
 2256 0020 1B88     		ldrh	r3, [r3]
 2257 0022 164C     		ldr	r4, .L65+4
 2258 0024 4B22     		movs	r2, #75
 2259 0026 5521     		movs	r1, #85
 2260 0028 1846     		mov	r0, r3
 2261 002a FFF7FEFF 		bl	lv_color_hsv_to_rgb
 2262 002e E062     		str	r0, [r4, #44]
 515:..\..\..\lvgl\version_6.1.2\lvgl\src\lv_themes/lv_theme_material.c **** 
 516:..\..\..\lvgl\version_6.1.2\lvgl\src\lv_themes/lv_theme_material.c ****     lv_style_copy(&pr, theme.style.btnm.btn.pr);
 2263              		.loc 2 516 0
 2264 0030 154B     		ldr	r3, .L65+16
 2265 0032 D3F8CC30 		ldr	r3, [r3, #204]
 2266 0036 1946     		mov	r1, r3
 2267 0038 1448     		ldr	r0, .L65+20
 2268 003a FFF7FEFF 		bl	lv_style_copy
 517:..\..\..\lvgl\version_6.1.2\lvgl\src\lv_themes/lv_theme_material.c ****     pr.text.color = lv_color_hsv_to_rgb(_hue, 85, 60);
 2269              		.loc 2 517 0
 2270 003e 114B     		ldr	r3, .L65+12
 2271 0040 1B88     		ldrh	r3, [r3]
 2272 0042 124C     		ldr	r4, .L65+20
 2273 0044 3C22     		movs	r2, #60
 2274 0046 5521     		movs	r1, #85
 2275 0048 1846     		mov	r0, r3
 2276 004a FFF7FEFF 		bl	lv_color_hsv_to_rgb
 2277 004e E062     		str	r0, [r4, #44]
 518:..\..\..\lvgl\version_6.1.2\lvgl\src\lv_themes/lv_theme_material.c **** 
 519:..\..\..\lvgl\version_6.1.2\lvgl\src\lv_themes/lv_theme_material.c ****     theme.style.mbox.bg      = theme.style.panel;
 2278              		.loc 2 519 0
 2279 0050 0D4B     		ldr	r3, .L65+16
 2280 0052 9B68     		ldr	r3, [r3, #8]
 2281 0054 0C4A     		ldr	r2, .L65+16
 2282 0056 C2F8F430 		str	r3, [r2, #244]
 520:..\..\..\lvgl\version_6.1.2\lvgl\src\lv_themes/lv_theme_material.c ****     theme.style.mbox.btn.bg  = &lv_style_transp;
 2283              		.loc 2 520 0
ARM GAS  C:\Users\tmj32\AppData\Local\Temp\cc8DwYg3.s 			page 59


 2284 005a 0B4B     		ldr	r3, .L65+16
 2285 005c 064A     		ldr	r2, .L65
 2286 005e C3F8F820 		str	r2, [r3, #248]
 521:..\..\..\lvgl\version_6.1.2\lvgl\src\lv_themes/lv_theme_material.c ****     theme.style.mbox.btn.rel = &rel;
 2287              		.loc 2 521 0
 2288 0062 094B     		ldr	r3, .L65+16
 2289 0064 054A     		ldr	r2, .L65+4
 2290 0066 C3F8FC20 		str	r2, [r3, #252]
 522:..\..\..\lvgl\version_6.1.2\lvgl\src\lv_themes/lv_theme_material.c ****     theme.style.mbox.btn.pr  = &pr;
 2291              		.loc 2 522 0
 2292 006a 074B     		ldr	r3, .L65+16
 2293 006c 074A     		ldr	r2, .L65+20
 2294 006e C3F80021 		str	r2, [r3, #256]
 523:..\..\..\lvgl\version_6.1.2\lvgl\src\lv_themes/lv_theme_material.c **** #endif
 524:..\..\..\lvgl\version_6.1.2\lvgl\src\lv_themes/lv_theme_material.c **** }
 2295              		.loc 2 524 0
 2296 0072 00BF     		nop
 2297 0074 98BD     		pop	{r3, r4, r7, pc}
 2298              	.L66:
 2299 0076 00BF     		.align	2
 2300              	.L65:
 2301 0078 00000000 		.word	lv_style_transp
 2302 007c D00E0000 		.word	rel.6051
 2303 0080 4C020000 		.word	_font
 2304 0084 48020000 		.word	_hue
 2305 0088 00000000 		.word	theme
 2306 008c 200F0000 		.word	pr.6050
 2307              		.cfi_endproc
 2308              	.LFE50:
 2309              		.size	mbox_init, .-mbox_init
 2310              		.section	.text.page_init,"ax",%progbits
 2311              		.align	2
 2312              		.thumb
 2313              		.thumb_func
 2314              		.type	page_init, %function
 2315              	page_init:
 2316              	.LFB51:
 525:..\..\..\lvgl\version_6.1.2\lvgl\src\lv_themes/lv_theme_material.c **** 
 526:..\..\..\lvgl\version_6.1.2\lvgl\src\lv_themes/lv_theme_material.c **** static void page_init(void)
 527:..\..\..\lvgl\version_6.1.2\lvgl\src\lv_themes/lv_theme_material.c **** {
 2317              		.loc 2 527 0
 2318              		.cfi_startproc
 2319              		@ args = 0, pretend = 0, frame = 0
 2320              		@ frame_needed = 1, uses_anonymous_args = 0
 2321              		@ link register save eliminated.
 2322 0000 80B4     		push	{r7}
 2323              		.cfi_def_cfa_offset 4
 2324              		.cfi_offset 7, -4
 2325 0002 00AF     		add	r7, sp, #0
 2326              		.cfi_def_cfa_register 7
 528:..\..\..\lvgl\version_6.1.2\lvgl\src\lv_themes/lv_theme_material.c **** #if LV_USE_PAGE
 529:..\..\..\lvgl\version_6.1.2\lvgl\src\lv_themes/lv_theme_material.c **** 
 530:..\..\..\lvgl\version_6.1.2\lvgl\src\lv_themes/lv_theme_material.c ****     theme.style.page.bg   = theme.style.panel;
 2327              		.loc 2 530 0
 2328 0004 084B     		ldr	r3, .L68
 2329 0006 9B68     		ldr	r3, [r3, #8]
 2330 0008 074A     		ldr	r2, .L68
ARM GAS  C:\Users\tmj32\AppData\Local\Temp\cc8DwYg3.s 			page 60


 2331 000a C2F80431 		str	r3, [r2, #260]
 531:..\..\..\lvgl\version_6.1.2\lvgl\src\lv_themes/lv_theme_material.c ****     theme.style.page.scrl = &lv_style_transp;
 2332              		.loc 2 531 0
 2333 000e 064B     		ldr	r3, .L68
 2334 0010 064A     		ldr	r2, .L68+4
 2335 0012 C3F80821 		str	r2, [r3, #264]
 532:..\..\..\lvgl\version_6.1.2\lvgl\src\lv_themes/lv_theme_material.c ****     theme.style.page.sb   = &sb;
 2336              		.loc 2 532 0
 2337 0016 044B     		ldr	r3, .L68
 2338 0018 054A     		ldr	r2, .L68+8
 2339 001a C3F80C21 		str	r2, [r3, #268]
 533:..\..\..\lvgl\version_6.1.2\lvgl\src\lv_themes/lv_theme_material.c **** #endif
 534:..\..\..\lvgl\version_6.1.2\lvgl\src\lv_themes/lv_theme_material.c **** }
 2340              		.loc 2 534 0
 2341 001e 00BF     		nop
 2342 0020 BD46     		mov	sp, r7
 2343              		.cfi_def_cfa_register 13
 2344              		@ sp needed
 2345 0022 5DF8047B 		ldr	r7, [sp], #4
 2346              		.cfi_restore 7
 2347              		.cfi_def_cfa_offset 0
 2348 0026 7047     		bx	lr
 2349              	.L69:
 2350              		.align	2
 2351              	.L68:
 2352 0028 00000000 		.word	theme
 2353 002c 00000000 		.word	lv_style_transp
 2354 0030 F8010000 		.word	sb
 2355              		.cfi_endproc
 2356              	.LFE51:
 2357              		.size	page_init, .-page_init
 2358              		.section	.text.ta_init,"ax",%progbits
 2359              		.align	2
 2360              		.thumb
 2361              		.thumb_func
 2362              		.type	ta_init, %function
 2363              	ta_init:
 2364              	.LFB52:
 535:..\..\..\lvgl\version_6.1.2\lvgl\src\lv_themes/lv_theme_material.c **** 
 536:..\..\..\lvgl\version_6.1.2\lvgl\src\lv_themes/lv_theme_material.c **** static void ta_init(void)
 537:..\..\..\lvgl\version_6.1.2\lvgl\src\lv_themes/lv_theme_material.c **** {
 2365              		.loc 2 537 0
 2366              		.cfi_startproc
 2367              		@ args = 0, pretend = 0, frame = 0
 2368              		@ frame_needed = 1, uses_anonymous_args = 0
 2369 0000 98B5     		push	{r3, r4, r7, lr}
 2370              		.cfi_def_cfa_offset 16
 2371              		.cfi_offset 3, -16
 2372              		.cfi_offset 4, -12
 2373              		.cfi_offset 7, -8
 2374              		.cfi_offset 14, -4
 2375 0002 00AF     		add	r7, sp, #0
 2376              		.cfi_def_cfa_register 7
 538:..\..\..\lvgl\version_6.1.2\lvgl\src\lv_themes/lv_theme_material.c **** #if LV_USE_TA
 539:..\..\..\lvgl\version_6.1.2\lvgl\src\lv_themes/lv_theme_material.c ****     static lv_style_t oneline;
 540:..\..\..\lvgl\version_6.1.2\lvgl\src\lv_themes/lv_theme_material.c **** 
 541:..\..\..\lvgl\version_6.1.2\lvgl\src\lv_themes/lv_theme_material.c ****     lv_style_copy(&oneline, &def);
ARM GAS  C:\Users\tmj32\AppData\Local\Temp\cc8DwYg3.s 			page 61


 2377              		.loc 2 541 0
 2378 0004 1849     		ldr	r1, .L71
 2379 0006 1948     		ldr	r0, .L71+4
 2380 0008 FFF7FEFF 		bl	lv_style_copy
 542:..\..\..\lvgl\version_6.1.2\lvgl\src\lv_themes/lv_theme_material.c ****     oneline.body.opa          = LV_OPA_TRANSP;
 2381              		.loc 2 542 0
 2382 000c 174B     		ldr	r3, .L71+4
 2383 000e 0022     		movs	r2, #0
 2384 0010 9A73     		strb	r2, [r3, #14]
 543:..\..\..\lvgl\version_6.1.2\lvgl\src\lv_themes/lv_theme_material.c ****     oneline.body.radius       = 0;
 2385              		.loc 2 543 0
 2386 0012 164B     		ldr	r3, .L71+4
 2387 0014 0022     		movs	r2, #0
 2388 0016 9A81     		strh	r2, [r3, #12]	@ movhi
 544:..\..\..\lvgl\version_6.1.2\lvgl\src\lv_themes/lv_theme_material.c ****     oneline.body.border.part  = LV_BORDER_BOTTOM;
 2389              		.loc 2 544 0
 2390 0018 144B     		ldr	r3, .L71+4
 2391 001a 0122     		movs	r2, #1
 2392 001c 9A75     		strb	r2, [r3, #22]
 545:..\..\..\lvgl\version_6.1.2\lvgl\src\lv_themes/lv_theme_material.c ****     oneline.body.border.width = 3;
 2393              		.loc 2 545 0
 2394 001e 134B     		ldr	r3, .L71+4
 2395 0020 0322     		movs	r2, #3
 2396 0022 9A82     		strh	r2, [r3, #20]	@ movhi
 546:..\..\..\lvgl\version_6.1.2\lvgl\src\lv_themes/lv_theme_material.c ****     oneline.body.border.color = lv_color_hex3(0x333);
 2397              		.loc 2 546 0
 2398 0024 114C     		ldr	r4, .L71+4
 2399 0026 40F23330 		movw	r0, #819
 2400 002a FFF7FEFF 		bl	lv_color_hex3
 2401 002e 2061     		str	r0, [r4, #16]
 547:..\..\..\lvgl\version_6.1.2\lvgl\src\lv_themes/lv_theme_material.c ****     oneline.body.border.opa   = LV_OPA_COVER;
 2402              		.loc 2 547 0
 2403 0030 0E4B     		ldr	r3, .L71+4
 2404 0032 FF22     		movs	r2, #255
 2405 0034 DA75     		strb	r2, [r3, #23]
 548:..\..\..\lvgl\version_6.1.2\lvgl\src\lv_themes/lv_theme_material.c ****     oneline.text.color        = lv_color_hex3(0x333);
 2406              		.loc 2 548 0
 2407 0036 0D4C     		ldr	r4, .L71+4
 2408 0038 40F23330 		movw	r0, #819
 2409 003c FFF7FEFF 		bl	lv_color_hex3
 2410 0040 E062     		str	r0, [r4, #44]
 549:..\..\..\lvgl\version_6.1.2\lvgl\src\lv_themes/lv_theme_material.c **** 
 550:..\..\..\lvgl\version_6.1.2\lvgl\src\lv_themes/lv_theme_material.c ****     theme.style.ta.area    = theme.style.panel;
 2411              		.loc 2 550 0
 2412 0042 0B4B     		ldr	r3, .L71+8
 2413 0044 9B68     		ldr	r3, [r3, #8]
 2414 0046 0A4A     		ldr	r2, .L71+8
 2415 0048 C2F81031 		str	r3, [r2, #272]
 551:..\..\..\lvgl\version_6.1.2\lvgl\src\lv_themes/lv_theme_material.c ****     theme.style.ta.oneline = &oneline;
 2416              		.loc 2 551 0
 2417 004c 084B     		ldr	r3, .L71+8
 2418 004e 074A     		ldr	r2, .L71+4
 2419 0050 C3F81421 		str	r2, [r3, #276]
 552:..\..\..\lvgl\version_6.1.2\lvgl\src\lv_themes/lv_theme_material.c ****     theme.style.ta.cursor  = NULL; /*Let library to calculate the cursor's style*/
 2420              		.loc 2 552 0
 2421 0054 064B     		ldr	r3, .L71+8
 2422 0056 0022     		movs	r2, #0
ARM GAS  C:\Users\tmj32\AppData\Local\Temp\cc8DwYg3.s 			page 62


 2423 0058 C3F81821 		str	r2, [r3, #280]
 553:..\..\..\lvgl\version_6.1.2\lvgl\src\lv_themes/lv_theme_material.c ****     theme.style.ta.sb      = &sb;
 2424              		.loc 2 553 0
 2425 005c 044B     		ldr	r3, .L71+8
 2426 005e 054A     		ldr	r2, .L71+12
 2427 0060 C3F81C21 		str	r2, [r3, #284]
 554:..\..\..\lvgl\version_6.1.2\lvgl\src\lv_themes/lv_theme_material.c **** #endif
 555:..\..\..\lvgl\version_6.1.2\lvgl\src\lv_themes/lv_theme_material.c **** }
 2428              		.loc 2 555 0
 2429 0064 00BF     		nop
 2430 0066 98BD     		pop	{r3, r4, r7, pc}
 2431              	.L72:
 2432              		.align	2
 2433              	.L71:
 2434 0068 A8010000 		.word	def
 2435 006c 700F0000 		.word	oneline.6058
 2436 0070 00000000 		.word	theme
 2437 0074 F8010000 		.word	sb
 2438              		.cfi_endproc
 2439              	.LFE52:
 2440              		.size	ta_init, .-ta_init
 2441              		.section	.text.spinbox_init,"ax",%progbits
 2442              		.align	2
 2443              		.thumb
 2444              		.thumb_func
 2445              		.type	spinbox_init, %function
 2446              	spinbox_init:
 2447              	.LFB53:
 556:..\..\..\lvgl\version_6.1.2\lvgl\src\lv_themes/lv_theme_material.c **** 
 557:..\..\..\lvgl\version_6.1.2\lvgl\src\lv_themes/lv_theme_material.c **** static void spinbox_init(void)
 558:..\..\..\lvgl\version_6.1.2\lvgl\src\lv_themes/lv_theme_material.c **** {
 2448              		.loc 2 558 0
 2449              		.cfi_startproc
 2450              		@ args = 0, pretend = 0, frame = 0
 2451              		@ frame_needed = 1, uses_anonymous_args = 0
 2452              		@ link register save eliminated.
 2453 0000 80B4     		push	{r7}
 2454              		.cfi_def_cfa_offset 4
 2455              		.cfi_offset 7, -4
 2456 0002 00AF     		add	r7, sp, #0
 2457              		.cfi_def_cfa_register 7
 559:..\..\..\lvgl\version_6.1.2\lvgl\src\lv_themes/lv_theme_material.c **** #if LV_USE_SPINBOX
 560:..\..\..\lvgl\version_6.1.2\lvgl\src\lv_themes/lv_theme_material.c ****     theme.style.spinbox.bg     = theme.style.panel;
 2458              		.loc 2 560 0
 2459 0004 0A4B     		ldr	r3, .L74
 2460 0006 9B68     		ldr	r3, [r3, #8]
 2461 0008 094A     		ldr	r2, .L74
 2462 000a C2F82031 		str	r3, [r2, #288]
 561:..\..\..\lvgl\version_6.1.2\lvgl\src\lv_themes/lv_theme_material.c ****     theme.style.spinbox.cursor = theme.style.ta.cursor;
 2463              		.loc 2 561 0
 2464 000e 084B     		ldr	r3, .L74
 2465 0010 D3F81831 		ldr	r3, [r3, #280]
 2466 0014 064A     		ldr	r2, .L74
 2467 0016 C2F82431 		str	r3, [r2, #292]
 562:..\..\..\lvgl\version_6.1.2\lvgl\src\lv_themes/lv_theme_material.c ****     theme.style.spinbox.sb     = theme.style.ta.sb;
 2468              		.loc 2 562 0
 2469 001a 054B     		ldr	r3, .L74
ARM GAS  C:\Users\tmj32\AppData\Local\Temp\cc8DwYg3.s 			page 63


 2470 001c D3F81C31 		ldr	r3, [r3, #284]
 2471 0020 034A     		ldr	r2, .L74
 2472 0022 C2F82831 		str	r3, [r2, #296]
 563:..\..\..\lvgl\version_6.1.2\lvgl\src\lv_themes/lv_theme_material.c **** #endif
 564:..\..\..\lvgl\version_6.1.2\lvgl\src\lv_themes/lv_theme_material.c **** }
 2473              		.loc 2 564 0
 2474 0026 00BF     		nop
 2475 0028 BD46     		mov	sp, r7
 2476              		.cfi_def_cfa_register 13
 2477              		@ sp needed
 2478 002a 5DF8047B 		ldr	r7, [sp], #4
 2479              		.cfi_restore 7
 2480              		.cfi_def_cfa_offset 0
 2481 002e 7047     		bx	lr
 2482              	.L75:
 2483              		.align	2
 2484              	.L74:
 2485 0030 00000000 		.word	theme
 2486              		.cfi_endproc
 2487              	.LFE53:
 2488              		.size	spinbox_init, .-spinbox_init
 2489              		.section	.text.list_init,"ax",%progbits
 2490              		.align	2
 2491              		.thumb
 2492              		.thumb_func
 2493              		.type	list_init, %function
 2494              	list_init:
 2495              	.LFB54:
 565:..\..\..\lvgl\version_6.1.2\lvgl\src\lv_themes/lv_theme_material.c **** 
 566:..\..\..\lvgl\version_6.1.2\lvgl\src\lv_themes/lv_theme_material.c **** static void list_init(void)
 567:..\..\..\lvgl\version_6.1.2\lvgl\src\lv_themes/lv_theme_material.c **** {
 2496              		.loc 2 567 0
 2497              		.cfi_startproc
 2498              		@ args = 0, pretend = 0, frame = 0
 2499              		@ frame_needed = 1, uses_anonymous_args = 0
 2500 0000 98B5     		push	{r3, r4, r7, lr}
 2501              		.cfi_def_cfa_offset 16
 2502              		.cfi_offset 3, -16
 2503              		.cfi_offset 4, -12
 2504              		.cfi_offset 7, -8
 2505              		.cfi_offset 14, -4
 2506 0002 00AF     		add	r7, sp, #0
 2507              		.cfi_def_cfa_register 7
 568:..\..\..\lvgl\version_6.1.2\lvgl\src\lv_themes/lv_theme_material.c **** #if LV_USE_LIST != 0
 569:..\..\..\lvgl\version_6.1.2\lvgl\src\lv_themes/lv_theme_material.c **** 
 570:..\..\..\lvgl\version_6.1.2\lvgl\src\lv_themes/lv_theme_material.c ****     static lv_style_t list_bg, rel, pr, tgl_rel, tgl_pr, ina;
 571:..\..\..\lvgl\version_6.1.2\lvgl\src\lv_themes/lv_theme_material.c **** 
 572:..\..\..\lvgl\version_6.1.2\lvgl\src\lv_themes/lv_theme_material.c ****     lv_style_copy(&list_bg, theme.style.panel);
 2508              		.loc 2 572 0
 2509 0004 584B     		ldr	r3, .L77
 2510 0006 9B68     		ldr	r3, [r3, #8]
 2511 0008 1946     		mov	r1, r3
 2512 000a 5848     		ldr	r0, .L77+4
 2513 000c FFF7FEFF 		bl	lv_style_copy
 573:..\..\..\lvgl\version_6.1.2\lvgl\src\lv_themes/lv_theme_material.c ****     list_bg.body.padding.left   = 0;
 2514              		.loc 2 573 0
 2515 0010 564B     		ldr	r3, .L77+4
ARM GAS  C:\Users\tmj32\AppData\Local\Temp\cc8DwYg3.s 			page 64


 2516 0012 0022     		movs	r2, #0
 2517 0014 9A84     		strh	r2, [r3, #36]	@ movhi
 574:..\..\..\lvgl\version_6.1.2\lvgl\src\lv_themes/lv_theme_material.c ****     list_bg.body.padding.right  = 0;
 2518              		.loc 2 574 0
 2519 0016 554B     		ldr	r3, .L77+4
 2520 0018 0022     		movs	r2, #0
 2521 001a DA84     		strh	r2, [r3, #38]	@ movhi
 575:..\..\..\lvgl\version_6.1.2\lvgl\src\lv_themes/lv_theme_material.c ****     list_bg.body.padding.top    = 0;
 2522              		.loc 2 575 0
 2523 001c 534B     		ldr	r3, .L77+4
 2524 001e 0022     		movs	r2, #0
 2525 0020 1A84     		strh	r2, [r3, #32]	@ movhi
 576:..\..\..\lvgl\version_6.1.2\lvgl\src\lv_themes/lv_theme_material.c ****     list_bg.body.padding.bottom = 0;
 2526              		.loc 2 576 0
 2527 0022 524B     		ldr	r3, .L77+4
 2528 0024 0022     		movs	r2, #0
 2529 0026 5A84     		strh	r2, [r3, #34]	@ movhi
 577:..\..\..\lvgl\version_6.1.2\lvgl\src\lv_themes/lv_theme_material.c ****     list_bg.body.padding.inner  = 0;
 2530              		.loc 2 577 0
 2531 0028 504B     		ldr	r3, .L77+4
 2532 002a 0022     		movs	r2, #0
 2533 002c 1A85     		strh	r2, [r3, #40]	@ movhi
 578:..\..\..\lvgl\version_6.1.2\lvgl\src\lv_themes/lv_theme_material.c **** 
 579:..\..\..\lvgl\version_6.1.2\lvgl\src\lv_themes/lv_theme_material.c ****     lv_style_copy(&rel, &lv_style_transp);
 2534              		.loc 2 579 0
 2535 002e 5049     		ldr	r1, .L77+8
 2536 0030 5048     		ldr	r0, .L77+12
 2537 0032 FFF7FEFF 		bl	lv_style_copy
 580:..\..\..\lvgl\version_6.1.2\lvgl\src\lv_themes/lv_theme_material.c ****     rel.body.padding.left   = LV_DPI / 8;
 2538              		.loc 2 580 0
 2539 0036 4F4B     		ldr	r3, .L77+12
 2540 0038 1222     		movs	r2, #18
 2541 003a 9A84     		strh	r2, [r3, #36]	@ movhi
 581:..\..\..\lvgl\version_6.1.2\lvgl\src\lv_themes/lv_theme_material.c ****     rel.body.padding.right  = LV_DPI / 8;
 2542              		.loc 2 581 0
 2543 003c 4D4B     		ldr	r3, .L77+12
 2544 003e 1222     		movs	r2, #18
 2545 0040 DA84     		strh	r2, [r3, #38]	@ movhi
 582:..\..\..\lvgl\version_6.1.2\lvgl\src\lv_themes/lv_theme_material.c ****     rel.body.padding.top    = LV_DPI / 6;
 2546              		.loc 2 582 0
 2547 0042 4C4B     		ldr	r3, .L77+12
 2548 0044 1922     		movs	r2, #25
 2549 0046 1A84     		strh	r2, [r3, #32]	@ movhi
 583:..\..\..\lvgl\version_6.1.2\lvgl\src\lv_themes/lv_theme_material.c ****     rel.body.padding.bottom = LV_DPI / 6;
 2550              		.loc 2 583 0
 2551 0048 4A4B     		ldr	r3, .L77+12
 2552 004a 1922     		movs	r2, #25
 2553 004c 5A84     		strh	r2, [r3, #34]	@ movhi
 584:..\..\..\lvgl\version_6.1.2\lvgl\src\lv_themes/lv_theme_material.c ****     rel.body.radius         = 10;
 2554              		.loc 2 584 0
 2555 004e 494B     		ldr	r3, .L77+12
 2556 0050 0A22     		movs	r2, #10
 2557 0052 9A81     		strh	r2, [r3, #12]	@ movhi
 585:..\..\..\lvgl\version_6.1.2\lvgl\src\lv_themes/lv_theme_material.c ****     rel.body.border.color   = lv_color_hex3(0xbbb);
 2558              		.loc 2 585 0
 2559 0054 474C     		ldr	r4, .L77+12
 2560 0056 40F6BB30 		movw	r0, #3003
ARM GAS  C:\Users\tmj32\AppData\Local\Temp\cc8DwYg3.s 			page 65


 2561 005a FFF7FEFF 		bl	lv_color_hex3
 2562 005e 2061     		str	r0, [r4, #16]
 586:..\..\..\lvgl\version_6.1.2\lvgl\src\lv_themes/lv_theme_material.c ****     rel.body.border.width   = 1;
 2563              		.loc 2 586 0
 2564 0060 444B     		ldr	r3, .L77+12
 2565 0062 0122     		movs	r2, #1
 2566 0064 9A82     		strh	r2, [r3, #20]	@ movhi
 587:..\..\..\lvgl\version_6.1.2\lvgl\src\lv_themes/lv_theme_material.c ****     rel.body.border.part    = LV_BORDER_BOTTOM;
 2567              		.loc 2 587 0
 2568 0066 434B     		ldr	r3, .L77+12
 2569 0068 0122     		movs	r2, #1
 2570 006a 9A75     		strb	r2, [r3, #22]
 588:..\..\..\lvgl\version_6.1.2\lvgl\src\lv_themes/lv_theme_material.c **** 
 589:..\..\..\lvgl\version_6.1.2\lvgl\src\lv_themes/lv_theme_material.c ****     lv_style_copy(&pr, &rel);
 2571              		.loc 2 589 0
 2572 006c 4149     		ldr	r1, .L77+12
 2573 006e 4248     		ldr	r0, .L77+16
 2574 0070 FFF7FEFF 		bl	lv_style_copy
 590:..\..\..\lvgl\version_6.1.2\lvgl\src\lv_themes/lv_theme_material.c ****     pr.glass             = 0;
 2575              		.loc 2 590 0
 2576 0074 404A     		ldr	r2, .L77+16
 2577 0076 1378     		ldrb	r3, [r2]
 2578 0078 6FF30003 		bfc	r3, #0, #1
 2579 007c 1370     		strb	r3, [r2]
 591:..\..\..\lvgl\version_6.1.2\lvgl\src\lv_themes/lv_theme_material.c ****     pr.body.main_color   = lv_color_hex3(0xddd);
 2580              		.loc 2 591 0
 2581 007e 3E4C     		ldr	r4, .L77+16
 2582 0080 40F6DD50 		movw	r0, #3549
 2583 0084 FFF7FEFF 		bl	lv_color_hex3
 2584 0088 6060     		str	r0, [r4, #4]
 592:..\..\..\lvgl\version_6.1.2\lvgl\src\lv_themes/lv_theme_material.c ****     pr.body.grad_color   = pr.body.main_color;
 2585              		.loc 2 592 0
 2586 008a 3B4A     		ldr	r2, .L77+16
 2587 008c 3A4B     		ldr	r3, .L77+16
 2588 008e 5B68     		ldr	r3, [r3, #4]
 2589 0090 9360     		str	r3, [r2, #8]
 593:..\..\..\lvgl\version_6.1.2\lvgl\src\lv_themes/lv_theme_material.c ****     pr.body.border.width = 0;
 2590              		.loc 2 593 0
 2591 0092 394B     		ldr	r3, .L77+16
 2592 0094 0022     		movs	r2, #0
 2593 0096 9A82     		strh	r2, [r3, #20]	@ movhi
 594:..\..\..\lvgl\version_6.1.2\lvgl\src\lv_themes/lv_theme_material.c ****     pr.body.opa          = LV_OPA_COVER;
 2594              		.loc 2 594 0
 2595 0098 374B     		ldr	r3, .L77+16
 2596 009a FF22     		movs	r2, #255
 2597 009c 9A73     		strb	r2, [r3, #14]
 595:..\..\..\lvgl\version_6.1.2\lvgl\src\lv_themes/lv_theme_material.c ****     pr.body.radius       = DEF_RADIUS;
 2598              		.loc 2 595 0
 2599 009e 364B     		ldr	r3, .L77+16
 2600 00a0 0422     		movs	r2, #4
 2601 00a2 9A81     		strh	r2, [r3, #12]	@ movhi
 596:..\..\..\lvgl\version_6.1.2\lvgl\src\lv_themes/lv_theme_material.c ****     pr.text.font         = _font;
 2602              		.loc 2 596 0
 2603 00a4 354B     		ldr	r3, .L77+20
 2604 00a6 1B68     		ldr	r3, [r3]
 2605 00a8 334A     		ldr	r2, .L77+16
 2606 00aa 5363     		str	r3, [r2, #52]
ARM GAS  C:\Users\tmj32\AppData\Local\Temp\cc8DwYg3.s 			page 66


 597:..\..\..\lvgl\version_6.1.2\lvgl\src\lv_themes/lv_theme_material.c **** 
 598:..\..\..\lvgl\version_6.1.2\lvgl\src\lv_themes/lv_theme_material.c ****     lv_style_copy(&tgl_rel, &pr);
 2607              		.loc 2 598 0
 2608 00ac 3249     		ldr	r1, .L77+16
 2609 00ae 3448     		ldr	r0, .L77+24
 2610 00b0 FFF7FEFF 		bl	lv_style_copy
 599:..\..\..\lvgl\version_6.1.2\lvgl\src\lv_themes/lv_theme_material.c ****     tgl_rel.body.main_color = lv_color_hsv_to_rgb(_hue, 90, 70);
 2611              		.loc 2 599 0
 2612 00b4 334B     		ldr	r3, .L77+28
 2613 00b6 1B88     		ldrh	r3, [r3]
 2614 00b8 314C     		ldr	r4, .L77+24
 2615 00ba 4622     		movs	r2, #70
 2616 00bc 5A21     		movs	r1, #90
 2617 00be 1846     		mov	r0, r3
 2618 00c0 FFF7FEFF 		bl	lv_color_hsv_to_rgb
 2619 00c4 6060     		str	r0, [r4, #4]
 600:..\..\..\lvgl\version_6.1.2\lvgl\src\lv_themes/lv_theme_material.c ****     tgl_rel.body.grad_color = tgl_rel.body.main_color;
 2620              		.loc 2 600 0
 2621 00c6 2E4A     		ldr	r2, .L77+24
 2622 00c8 2D4B     		ldr	r3, .L77+24
 2623 00ca 5B68     		ldr	r3, [r3, #4]
 2624 00cc 9360     		str	r3, [r2, #8]
 601:..\..\..\lvgl\version_6.1.2\lvgl\src\lv_themes/lv_theme_material.c ****     tgl_rel.text.color      = lv_color_hsv_to_rgb(_hue, 5, 95);
 2625              		.loc 2 601 0
 2626 00ce 2D4B     		ldr	r3, .L77+28
 2627 00d0 1B88     		ldrh	r3, [r3]
 2628 00d2 2B4C     		ldr	r4, .L77+24
 2629 00d4 5F22     		movs	r2, #95
 2630 00d6 0521     		movs	r1, #5
 2631 00d8 1846     		mov	r0, r3
 2632 00da FFF7FEFF 		bl	lv_color_hsv_to_rgb
 2633 00de E062     		str	r0, [r4, #44]
 602:..\..\..\lvgl\version_6.1.2\lvgl\src\lv_themes/lv_theme_material.c **** 
 603:..\..\..\lvgl\version_6.1.2\lvgl\src\lv_themes/lv_theme_material.c ****     lv_style_copy(&tgl_pr, &tgl_rel);
 2634              		.loc 2 603 0
 2635 00e0 2749     		ldr	r1, .L77+24
 2636 00e2 2948     		ldr	r0, .L77+32
 2637 00e4 FFF7FEFF 		bl	lv_style_copy
 604:..\..\..\lvgl\version_6.1.2\lvgl\src\lv_themes/lv_theme_material.c ****     tgl_pr.body.main_color   = lv_color_hsv_to_rgb(_hue, 90, 60);
 2638              		.loc 2 604 0
 2639 00e8 264B     		ldr	r3, .L77+28
 2640 00ea 1B88     		ldrh	r3, [r3]
 2641 00ec 264C     		ldr	r4, .L77+32
 2642 00ee 3C22     		movs	r2, #60
 2643 00f0 5A21     		movs	r1, #90
 2644 00f2 1846     		mov	r0, r3
 2645 00f4 FFF7FEFF 		bl	lv_color_hsv_to_rgb
 2646 00f8 6060     		str	r0, [r4, #4]
 605:..\..\..\lvgl\version_6.1.2\lvgl\src\lv_themes/lv_theme_material.c ****     tgl_pr.body.grad_color   = tgl_pr.body.main_color;
 2647              		.loc 2 605 0
 2648 00fa 234A     		ldr	r2, .L77+32
 2649 00fc 224B     		ldr	r3, .L77+32
 2650 00fe 5B68     		ldr	r3, [r3, #4]
 2651 0100 9360     		str	r3, [r2, #8]
 606:..\..\..\lvgl\version_6.1.2\lvgl\src\lv_themes/lv_theme_material.c ****     tgl_pr.body.border.width = 0;
 2652              		.loc 2 606 0
 2653 0102 214B     		ldr	r3, .L77+32
ARM GAS  C:\Users\tmj32\AppData\Local\Temp\cc8DwYg3.s 			page 67


 2654 0104 0022     		movs	r2, #0
 2655 0106 9A82     		strh	r2, [r3, #20]	@ movhi
 607:..\..\..\lvgl\version_6.1.2\lvgl\src\lv_themes/lv_theme_material.c **** 
 608:..\..\..\lvgl\version_6.1.2\lvgl\src\lv_themes/lv_theme_material.c ****     lv_style_copy(&ina, &pr);
 2656              		.loc 2 608 0
 2657 0108 1B49     		ldr	r1, .L77+16
 2658 010a 2048     		ldr	r0, .L77+36
 2659 010c FFF7FEFF 		bl	lv_style_copy
 609:..\..\..\lvgl\version_6.1.2\lvgl\src\lv_themes/lv_theme_material.c ****     ina.body.main_color = lv_color_hex3(0xccc);
 2660              		.loc 2 609 0
 2661 0110 1E4C     		ldr	r4, .L77+36
 2662 0112 40F6CC40 		movw	r0, #3276
 2663 0116 FFF7FEFF 		bl	lv_color_hex3
 2664 011a 6060     		str	r0, [r4, #4]
 610:..\..\..\lvgl\version_6.1.2\lvgl\src\lv_themes/lv_theme_material.c ****     ina.body.grad_color = ina.body.main_color;
 2665              		.loc 2 610 0
 2666 011c 1B4A     		ldr	r2, .L77+36
 2667 011e 1B4B     		ldr	r3, .L77+36
 2668 0120 5B68     		ldr	r3, [r3, #4]
 2669 0122 9360     		str	r3, [r2, #8]
 611:..\..\..\lvgl\version_6.1.2\lvgl\src\lv_themes/lv_theme_material.c **** 
 612:..\..\..\lvgl\version_6.1.2\lvgl\src\lv_themes/lv_theme_material.c ****     theme.style.list.sb          = &sb;
 2670              		.loc 2 612 0
 2671 0124 104B     		ldr	r3, .L77
 2672 0126 1A4A     		ldr	r2, .L77+40
 2673 0128 C3F83421 		str	r2, [r3, #308]
 613:..\..\..\lvgl\version_6.1.2\lvgl\src\lv_themes/lv_theme_material.c ****     theme.style.list.bg          = &list_bg;
 2674              		.loc 2 613 0
 2675 012c 0E4B     		ldr	r3, .L77
 2676 012e 0F4A     		ldr	r2, .L77+4
 2677 0130 C3F82C21 		str	r2, [r3, #300]
 614:..\..\..\lvgl\version_6.1.2\lvgl\src\lv_themes/lv_theme_material.c ****     theme.style.list.scrl        = &lv_style_transp_tight;
 2678              		.loc 2 614 0
 2679 0134 0C4B     		ldr	r3, .L77
 2680 0136 174A     		ldr	r2, .L77+44
 2681 0138 C3F83021 		str	r2, [r3, #304]
 615:..\..\..\lvgl\version_6.1.2\lvgl\src\lv_themes/lv_theme_material.c ****     theme.style.list.btn.rel     = &rel;
 2682              		.loc 2 615 0
 2683 013c 0A4B     		ldr	r3, .L77
 2684 013e 0D4A     		ldr	r2, .L77+12
 2685 0140 C3F83821 		str	r2, [r3, #312]
 616:..\..\..\lvgl\version_6.1.2\lvgl\src\lv_themes/lv_theme_material.c ****     theme.style.list.btn.pr      = &pr;
 2686              		.loc 2 616 0
 2687 0144 084B     		ldr	r3, .L77
 2688 0146 0C4A     		ldr	r2, .L77+16
 2689 0148 C3F83C21 		str	r2, [r3, #316]
 617:..\..\..\lvgl\version_6.1.2\lvgl\src\lv_themes/lv_theme_material.c ****     theme.style.list.btn.tgl_rel = &tgl_rel;
 2690              		.loc 2 617 0
 2691 014c 064B     		ldr	r3, .L77
 2692 014e 0C4A     		ldr	r2, .L77+24
 2693 0150 C3F84021 		str	r2, [r3, #320]
 618:..\..\..\lvgl\version_6.1.2\lvgl\src\lv_themes/lv_theme_material.c ****     theme.style.list.btn.tgl_pr  = &tgl_pr;
 2694              		.loc 2 618 0
 2695 0154 044B     		ldr	r3, .L77
 2696 0156 0C4A     		ldr	r2, .L77+32
 2697 0158 C3F84421 		str	r2, [r3, #324]
 619:..\..\..\lvgl\version_6.1.2\lvgl\src\lv_themes/lv_theme_material.c ****     theme.style.list.btn.ina     = &ina;
ARM GAS  C:\Users\tmj32\AppData\Local\Temp\cc8DwYg3.s 			page 68


 2698              		.loc 2 619 0
 2699 015c 024B     		ldr	r3, .L77
 2700 015e 0B4A     		ldr	r2, .L77+36
 2701 0160 C3F84821 		str	r2, [r3, #328]
 620:..\..\..\lvgl\version_6.1.2\lvgl\src\lv_themes/lv_theme_material.c **** #endif
 621:..\..\..\lvgl\version_6.1.2\lvgl\src\lv_themes/lv_theme_material.c **** }
 2702              		.loc 2 621 0
 2703 0164 00BF     		nop
 2704 0166 98BD     		pop	{r3, r4, r7, pc}
 2705              	.L78:
 2706              		.align	2
 2707              	.L77:
 2708 0168 00000000 		.word	theme
 2709 016c C00F0000 		.word	list_bg.6065
 2710 0170 00000000 		.word	lv_style_transp
 2711 0174 10100000 		.word	rel.6066
 2712 0178 60100000 		.word	pr.6067
 2713 017c 4C020000 		.word	_font
 2714 0180 B0100000 		.word	tgl_rel.6068
 2715 0184 48020000 		.word	_hue
 2716 0188 00110000 		.word	tgl_pr.6069
 2717 018c 50110000 		.word	ina.6070
 2718 0190 F8010000 		.word	sb
 2719 0194 00000000 		.word	lv_style_transp_tight
 2720              		.cfi_endproc
 2721              	.LFE54:
 2722              		.size	list_init, .-list_init
 2723              		.section	.text.ddlist_init,"ax",%progbits
 2724              		.align	2
 2725              		.thumb
 2726              		.thumb_func
 2727              		.type	ddlist_init, %function
 2728              	ddlist_init:
 2729              	.LFB55:
 622:..\..\..\lvgl\version_6.1.2\lvgl\src\lv_themes/lv_theme_material.c **** 
 623:..\..\..\lvgl\version_6.1.2\lvgl\src\lv_themes/lv_theme_material.c **** static void ddlist_init(void)
 624:..\..\..\lvgl\version_6.1.2\lvgl\src\lv_themes/lv_theme_material.c **** {
 2730              		.loc 2 624 0
 2731              		.cfi_startproc
 2732              		@ args = 0, pretend = 0, frame = 0
 2733              		@ frame_needed = 1, uses_anonymous_args = 0
 2734 0000 98B5     		push	{r3, r4, r7, lr}
 2735              		.cfi_def_cfa_offset 16
 2736              		.cfi_offset 3, -16
 2737              		.cfi_offset 4, -12
 2738              		.cfi_offset 7, -8
 2739              		.cfi_offset 14, -4
 2740 0002 00AF     		add	r7, sp, #0
 2741              		.cfi_def_cfa_register 7
 625:..\..\..\lvgl\version_6.1.2\lvgl\src\lv_themes/lv_theme_material.c **** #if LV_USE_DDLIST != 0
 626:..\..\..\lvgl\version_6.1.2\lvgl\src\lv_themes/lv_theme_material.c ****     static lv_style_t bg, sel;
 627:..\..\..\lvgl\version_6.1.2\lvgl\src\lv_themes/lv_theme_material.c ****     lv_style_copy(&bg, theme.style.panel);
 2742              		.loc 2 627 0
 2743 0004 214B     		ldr	r3, .L80
 2744 0006 9B68     		ldr	r3, [r3, #8]
 2745 0008 1946     		mov	r1, r3
 2746 000a 2148     		ldr	r0, .L80+4
ARM GAS  C:\Users\tmj32\AppData\Local\Temp\cc8DwYg3.s 			page 69


 2747 000c FFF7FEFF 		bl	lv_style_copy
 628:..\..\..\lvgl\version_6.1.2\lvgl\src\lv_themes/lv_theme_material.c ****     bg.body.padding.left   = LV_DPI / 6;
 2748              		.loc 2 628 0
 2749 0010 1F4B     		ldr	r3, .L80+4
 2750 0012 1922     		movs	r2, #25
 2751 0014 9A84     		strh	r2, [r3, #36]	@ movhi
 629:..\..\..\lvgl\version_6.1.2\lvgl\src\lv_themes/lv_theme_material.c ****     bg.body.padding.right  = LV_DPI / 6;
 2752              		.loc 2 629 0
 2753 0016 1E4B     		ldr	r3, .L80+4
 2754 0018 1922     		movs	r2, #25
 2755 001a DA84     		strh	r2, [r3, #38]	@ movhi
 630:..\..\..\lvgl\version_6.1.2\lvgl\src\lv_themes/lv_theme_material.c ****     bg.body.padding.top    = LV_DPI / 6;
 2756              		.loc 2 630 0
 2757 001c 1C4B     		ldr	r3, .L80+4
 2758 001e 1922     		movs	r2, #25
 2759 0020 1A84     		strh	r2, [r3, #32]	@ movhi
 631:..\..\..\lvgl\version_6.1.2\lvgl\src\lv_themes/lv_theme_material.c ****     bg.body.padding.bottom = LV_DPI / 6;
 2760              		.loc 2 631 0
 2761 0022 1B4B     		ldr	r3, .L80+4
 2762 0024 1922     		movs	r2, #25
 2763 0026 5A84     		strh	r2, [r3, #34]	@ movhi
 632:..\..\..\lvgl\version_6.1.2\lvgl\src\lv_themes/lv_theme_material.c ****     bg.text.line_space     = LV_DPI / 8;
 2764              		.loc 2 632 0
 2765 0028 194B     		ldr	r3, .L80+4
 2766 002a 1222     		movs	r2, #18
 2767 002c 5A87     		strh	r2, [r3, #58]	@ movhi
 633:..\..\..\lvgl\version_6.1.2\lvgl\src\lv_themes/lv_theme_material.c **** 
 634:..\..\..\lvgl\version_6.1.2\lvgl\src\lv_themes/lv_theme_material.c ****     lv_style_copy(&sel, &bg);
 2768              		.loc 2 634 0
 2769 002e 1849     		ldr	r1, .L80+4
 2770 0030 1848     		ldr	r0, .L80+8
 2771 0032 FFF7FEFF 		bl	lv_style_copy
 635:..\..\..\lvgl\version_6.1.2\lvgl\src\lv_themes/lv_theme_material.c ****     sel.body.main_color   = lv_color_hsv_to_rgb(_hue, 90, 70);
 2772              		.loc 2 635 0
 2773 0036 184B     		ldr	r3, .L80+12
 2774 0038 1B88     		ldrh	r3, [r3]
 2775 003a 164C     		ldr	r4, .L80+8
 2776 003c 4622     		movs	r2, #70
 2777 003e 5A21     		movs	r1, #90
 2778 0040 1846     		mov	r0, r3
 2779 0042 FFF7FEFF 		bl	lv_color_hsv_to_rgb
 2780 0046 6060     		str	r0, [r4, #4]
 636:..\..\..\lvgl\version_6.1.2\lvgl\src\lv_themes/lv_theme_material.c ****     sel.body.grad_color   = sel.body.main_color;
 2781              		.loc 2 636 0
 2782 0048 124A     		ldr	r2, .L80+8
 2783 004a 124B     		ldr	r3, .L80+8
 2784 004c 5B68     		ldr	r3, [r3, #4]
 2785 004e 9360     		str	r3, [r2, #8]
 637:..\..\..\lvgl\version_6.1.2\lvgl\src\lv_themes/lv_theme_material.c ****     sel.body.border.width = 0;
 2786              		.loc 2 637 0
 2787 0050 104B     		ldr	r3, .L80+8
 2788 0052 0022     		movs	r2, #0
 2789 0054 9A82     		strh	r2, [r3, #20]	@ movhi
 638:..\..\..\lvgl\version_6.1.2\lvgl\src\lv_themes/lv_theme_material.c ****     sel.body.shadow.width = 0;
 2790              		.loc 2 638 0
 2791 0056 0F4B     		ldr	r3, .L80+8
 2792 0058 0022     		movs	r2, #0
ARM GAS  C:\Users\tmj32\AppData\Local\Temp\cc8DwYg3.s 			page 70


 2793 005a 9A83     		strh	r2, [r3, #28]	@ movhi
 639:..\..\..\lvgl\version_6.1.2\lvgl\src\lv_themes/lv_theme_material.c ****     sel.text.color        = lv_color_hsv_to_rgb(_hue, 5, 95);
 2794              		.loc 2 639 0
 2795 005c 0E4B     		ldr	r3, .L80+12
 2796 005e 1B88     		ldrh	r3, [r3]
 2797 0060 0C4C     		ldr	r4, .L80+8
 2798 0062 5F22     		movs	r2, #95
 2799 0064 0521     		movs	r1, #5
 2800 0066 1846     		mov	r0, r3
 2801 0068 FFF7FEFF 		bl	lv_color_hsv_to_rgb
 2802 006c E062     		str	r0, [r4, #44]
 640:..\..\..\lvgl\version_6.1.2\lvgl\src\lv_themes/lv_theme_material.c **** 
 641:..\..\..\lvgl\version_6.1.2\lvgl\src\lv_themes/lv_theme_material.c ****     theme.style.ddlist.bg  = &bg;
 2803              		.loc 2 641 0
 2804 006e 074B     		ldr	r3, .L80
 2805 0070 074A     		ldr	r2, .L80+4
 2806 0072 C3F84C21 		str	r2, [r3, #332]
 642:..\..\..\lvgl\version_6.1.2\lvgl\src\lv_themes/lv_theme_material.c ****     theme.style.ddlist.sel = &sel;
 2807              		.loc 2 642 0
 2808 0076 054B     		ldr	r3, .L80
 2809 0078 064A     		ldr	r2, .L80+8
 2810 007a C3F85021 		str	r2, [r3, #336]
 643:..\..\..\lvgl\version_6.1.2\lvgl\src\lv_themes/lv_theme_material.c ****     theme.style.ddlist.sb  = &sb;
 2811              		.loc 2 643 0
 2812 007e 034B     		ldr	r3, .L80
 2813 0080 064A     		ldr	r2, .L80+16
 2814 0082 C3F85421 		str	r2, [r3, #340]
 644:..\..\..\lvgl\version_6.1.2\lvgl\src\lv_themes/lv_theme_material.c **** #endif
 645:..\..\..\lvgl\version_6.1.2\lvgl\src\lv_themes/lv_theme_material.c **** }
 2815              		.loc 2 645 0
 2816 0086 00BF     		nop
 2817 0088 98BD     		pop	{r3, r4, r7, pc}
 2818              	.L81:
 2819 008a 00BF     		.align	2
 2820              	.L80:
 2821 008c 00000000 		.word	theme
 2822 0090 A0110000 		.word	bg.6074
 2823 0094 F0110000 		.word	sel.6075
 2824 0098 48020000 		.word	_hue
 2825 009c F8010000 		.word	sb
 2826              		.cfi_endproc
 2827              	.LFE55:
 2828              		.size	ddlist_init, .-ddlist_init
 2829              		.section	.text.roller_init,"ax",%progbits
 2830              		.align	2
 2831              		.thumb
 2832              		.thumb_func
 2833              		.type	roller_init, %function
 2834              	roller_init:
 2835              	.LFB56:
 646:..\..\..\lvgl\version_6.1.2\lvgl\src\lv_themes/lv_theme_material.c **** 
 647:..\..\..\lvgl\version_6.1.2\lvgl\src\lv_themes/lv_theme_material.c **** static void roller_init(void)
 648:..\..\..\lvgl\version_6.1.2\lvgl\src\lv_themes/lv_theme_material.c **** {
 2836              		.loc 2 648 0
 2837              		.cfi_startproc
 2838              		@ args = 0, pretend = 0, frame = 0
 2839              		@ frame_needed = 1, uses_anonymous_args = 0
ARM GAS  C:\Users\tmj32\AppData\Local\Temp\cc8DwYg3.s 			page 71


 2840 0000 98B5     		push	{r3, r4, r7, lr}
 2841              		.cfi_def_cfa_offset 16
 2842              		.cfi_offset 3, -16
 2843              		.cfi_offset 4, -12
 2844              		.cfi_offset 7, -8
 2845              		.cfi_offset 14, -4
 2846 0002 00AF     		add	r7, sp, #0
 2847              		.cfi_def_cfa_register 7
 649:..\..\..\lvgl\version_6.1.2\lvgl\src\lv_themes/lv_theme_material.c **** #if LV_USE_ROLLER != 0
 650:..\..\..\lvgl\version_6.1.2\lvgl\src\lv_themes/lv_theme_material.c ****     static lv_style_t roller_bg, roller_sel;
 651:..\..\..\lvgl\version_6.1.2\lvgl\src\lv_themes/lv_theme_material.c **** 
 652:..\..\..\lvgl\version_6.1.2\lvgl\src\lv_themes/lv_theme_material.c ****     lv_style_copy(&roller_bg, &lv_style_transp);
 2848              		.loc 2 652 0
 2849 0004 1949     		ldr	r1, .L83
 2850 0006 1A48     		ldr	r0, .L83+4
 2851 0008 FFF7FEFF 		bl	lv_style_copy
 653:..\..\..\lvgl\version_6.1.2\lvgl\src\lv_themes/lv_theme_material.c ****     roller_bg.body.padding.left   = LV_DPI / 6;
 2852              		.loc 2 653 0
 2853 000c 184B     		ldr	r3, .L83+4
 2854 000e 1922     		movs	r2, #25
 2855 0010 9A84     		strh	r2, [r3, #36]	@ movhi
 654:..\..\..\lvgl\version_6.1.2\lvgl\src\lv_themes/lv_theme_material.c ****     roller_bg.body.padding.right  = LV_DPI / 6;
 2856              		.loc 2 654 0
 2857 0012 174B     		ldr	r3, .L83+4
 2858 0014 1922     		movs	r2, #25
 2859 0016 DA84     		strh	r2, [r3, #38]	@ movhi
 655:..\..\..\lvgl\version_6.1.2\lvgl\src\lv_themes/lv_theme_material.c ****     roller_bg.body.padding.top    = LV_DPI / 6;
 2860              		.loc 2 655 0
 2861 0018 154B     		ldr	r3, .L83+4
 2862 001a 1922     		movs	r2, #25
 2863 001c 1A84     		strh	r2, [r3, #32]	@ movhi
 656:..\..\..\lvgl\version_6.1.2\lvgl\src\lv_themes/lv_theme_material.c ****     roller_bg.body.padding.bottom = LV_DPI / 6;
 2864              		.loc 2 656 0
 2865 001e 144B     		ldr	r3, .L83+4
 2866 0020 1922     		movs	r2, #25
 2867 0022 5A84     		strh	r2, [r3, #34]	@ movhi
 657:..\..\..\lvgl\version_6.1.2\lvgl\src\lv_themes/lv_theme_material.c ****     roller_bg.text.line_space     = LV_DPI / 8;
 2868              		.loc 2 657 0
 2869 0024 124B     		ldr	r3, .L83+4
 2870 0026 1222     		movs	r2, #18
 2871 0028 5A87     		strh	r2, [r3, #58]	@ movhi
 658:..\..\..\lvgl\version_6.1.2\lvgl\src\lv_themes/lv_theme_material.c ****     roller_bg.text.font           = _font;
 2872              		.loc 2 658 0
 2873 002a 124B     		ldr	r3, .L83+8
 2874 002c 1B68     		ldr	r3, [r3]
 2875 002e 104A     		ldr	r2, .L83+4
 2876 0030 5363     		str	r3, [r2, #52]
 659:..\..\..\lvgl\version_6.1.2\lvgl\src\lv_themes/lv_theme_material.c ****     roller_bg.glass               = 0;
 2877              		.loc 2 659 0
 2878 0032 0F4A     		ldr	r2, .L83+4
 2879 0034 1378     		ldrb	r3, [r2]
 2880 0036 6FF30003 		bfc	r3, #0, #1
 2881 003a 1370     		strb	r3, [r2]
 660:..\..\..\lvgl\version_6.1.2\lvgl\src\lv_themes/lv_theme_material.c **** 
 661:..\..\..\lvgl\version_6.1.2\lvgl\src\lv_themes/lv_theme_material.c ****     lv_style_copy(&roller_sel, &roller_bg);
 2882              		.loc 2 661 0
 2883 003c 0C49     		ldr	r1, .L83+4
ARM GAS  C:\Users\tmj32\AppData\Local\Temp\cc8DwYg3.s 			page 72


 2884 003e 0E48     		ldr	r0, .L83+12
 2885 0040 FFF7FEFF 		bl	lv_style_copy
 662:..\..\..\lvgl\version_6.1.2\lvgl\src\lv_themes/lv_theme_material.c ****     roller_sel.text.color = lv_color_hsv_to_rgb(_hue, 90, 70);
 2886              		.loc 2 662 0
 2887 0044 0D4B     		ldr	r3, .L83+16
 2888 0046 1B88     		ldrh	r3, [r3]
 2889 0048 0B4C     		ldr	r4, .L83+12
 2890 004a 4622     		movs	r2, #70
 2891 004c 5A21     		movs	r1, #90
 2892 004e 1846     		mov	r0, r3
 2893 0050 FFF7FEFF 		bl	lv_color_hsv_to_rgb
 2894 0054 E062     		str	r0, [r4, #44]
 663:..\..\..\lvgl\version_6.1.2\lvgl\src\lv_themes/lv_theme_material.c **** 
 664:..\..\..\lvgl\version_6.1.2\lvgl\src\lv_themes/lv_theme_material.c ****     theme.style.roller.bg  = &roller_bg;
 2895              		.loc 2 664 0
 2896 0056 0A4B     		ldr	r3, .L83+20
 2897 0058 054A     		ldr	r2, .L83+4
 2898 005a C3F85821 		str	r2, [r3, #344]
 665:..\..\..\lvgl\version_6.1.2\lvgl\src\lv_themes/lv_theme_material.c ****     theme.style.roller.sel = &roller_sel;
 2899              		.loc 2 665 0
 2900 005e 084B     		ldr	r3, .L83+20
 2901 0060 054A     		ldr	r2, .L83+12
 2902 0062 C3F85C21 		str	r2, [r3, #348]
 666:..\..\..\lvgl\version_6.1.2\lvgl\src\lv_themes/lv_theme_material.c **** #endif
 667:..\..\..\lvgl\version_6.1.2\lvgl\src\lv_themes/lv_theme_material.c **** }
 2903              		.loc 2 667 0
 2904 0066 00BF     		nop
 2905 0068 98BD     		pop	{r3, r4, r7, pc}
 2906              	.L84:
 2907 006a 00BF     		.align	2
 2908              	.L83:
 2909 006c 00000000 		.word	lv_style_transp
 2910 0070 40120000 		.word	roller_bg.6079
 2911 0074 4C020000 		.word	_font
 2912 0078 90120000 		.word	roller_sel.6080
 2913 007c 48020000 		.word	_hue
 2914 0080 00000000 		.word	theme
 2915              		.cfi_endproc
 2916              	.LFE56:
 2917              		.size	roller_init, .-roller_init
 2918              		.section	.text.tabview_init,"ax",%progbits
 2919              		.align	2
 2920              		.thumb
 2921              		.thumb_func
 2922              		.type	tabview_init, %function
 2923              	tabview_init:
 2924              	.LFB57:
 668:..\..\..\lvgl\version_6.1.2\lvgl\src\lv_themes/lv_theme_material.c **** 
 669:..\..\..\lvgl\version_6.1.2\lvgl\src\lv_themes/lv_theme_material.c **** static void tabview_init(void)
 670:..\..\..\lvgl\version_6.1.2\lvgl\src\lv_themes/lv_theme_material.c **** {
 2925              		.loc 2 670 0
 2926              		.cfi_startproc
 2927              		@ args = 0, pretend = 0, frame = 0
 2928              		@ frame_needed = 1, uses_anonymous_args = 0
 2929 0000 98B5     		push	{r3, r4, r7, lr}
 2930              		.cfi_def_cfa_offset 16
 2931              		.cfi_offset 3, -16
ARM GAS  C:\Users\tmj32\AppData\Local\Temp\cc8DwYg3.s 			page 73


 2932              		.cfi_offset 4, -12
 2933              		.cfi_offset 7, -8
 2934              		.cfi_offset 14, -4
 2935 0002 00AF     		add	r7, sp, #0
 2936              		.cfi_def_cfa_register 7
 671:..\..\..\lvgl\version_6.1.2\lvgl\src\lv_themes/lv_theme_material.c **** #if LV_USE_TABVIEW != 0
 672:..\..\..\lvgl\version_6.1.2\lvgl\src\lv_themes/lv_theme_material.c ****     static lv_style_t indic, btn_bg, rel, pr, tgl_rel, tgl_pr;
 673:..\..\..\lvgl\version_6.1.2\lvgl\src\lv_themes/lv_theme_material.c **** 
 674:..\..\..\lvgl\version_6.1.2\lvgl\src\lv_themes/lv_theme_material.c ****     lv_style_copy(&indic, &def);
 2937              		.loc 2 674 0
 2938 0004 7649     		ldr	r1, .L86
 2939 0006 7748     		ldr	r0, .L86+4
 2940 0008 FFF7FEFF 		bl	lv_style_copy
 675:..\..\..\lvgl\version_6.1.2\lvgl\src\lv_themes/lv_theme_material.c ****     indic.body.main_color    = lv_color_hsv_to_rgb(_hue, 90, 70);
 2941              		.loc 2 675 0
 2942 000c 764B     		ldr	r3, .L86+8
 2943 000e 1B88     		ldrh	r3, [r3]
 2944 0010 744C     		ldr	r4, .L86+4
 2945 0012 4622     		movs	r2, #70
 2946 0014 5A21     		movs	r1, #90
 2947 0016 1846     		mov	r0, r3
 2948 0018 FFF7FEFF 		bl	lv_color_hsv_to_rgb
 2949 001c 6060     		str	r0, [r4, #4]
 676:..\..\..\lvgl\version_6.1.2\lvgl\src\lv_themes/lv_theme_material.c ****     indic.body.grad_color    = indic.body.main_color;
 2950              		.loc 2 676 0
 2951 001e 714A     		ldr	r2, .L86+4
 2952 0020 704B     		ldr	r3, .L86+4
 2953 0022 5B68     		ldr	r3, [r3, #4]
 2954 0024 9360     		str	r3, [r2, #8]
 677:..\..\..\lvgl\version_6.1.2\lvgl\src\lv_themes/lv_theme_material.c ****     indic.body.radius        = 0;
 2955              		.loc 2 677 0
 2956 0026 6F4B     		ldr	r3, .L86+4
 2957 0028 0022     		movs	r2, #0
 2958 002a 9A81     		strh	r2, [r3, #12]	@ movhi
 678:..\..\..\lvgl\version_6.1.2\lvgl\src\lv_themes/lv_theme_material.c ****     indic.body.border.width  = 0;
 2959              		.loc 2 678 0
 2960 002c 6D4B     		ldr	r3, .L86+4
 2961 002e 0022     		movs	r2, #0
 2962 0030 9A82     		strh	r2, [r3, #20]	@ movhi
 679:..\..\..\lvgl\version_6.1.2\lvgl\src\lv_themes/lv_theme_material.c ****     indic.body.padding.inner = LV_DPI / 20;
 2963              		.loc 2 679 0
 2964 0032 6C4B     		ldr	r3, .L86+4
 2965 0034 0722     		movs	r2, #7
 2966 0036 1A85     		strh	r2, [r3, #40]	@ movhi
 680:..\..\..\lvgl\version_6.1.2\lvgl\src\lv_themes/lv_theme_material.c **** 
 681:..\..\..\lvgl\version_6.1.2\lvgl\src\lv_themes/lv_theme_material.c ****     lv_style_copy(&btn_bg, &def);
 2967              		.loc 2 681 0
 2968 0038 6949     		ldr	r1, .L86
 2969 003a 6C48     		ldr	r0, .L86+12
 2970 003c FFF7FEFF 		bl	lv_style_copy
 682:..\..\..\lvgl\version_6.1.2\lvgl\src\lv_themes/lv_theme_material.c ****     btn_bg.body.main_color     = lv_color_hex3(0xccc);
 2971              		.loc 2 682 0
 2972 0040 6A4C     		ldr	r4, .L86+12
 2973 0042 40F6CC40 		movw	r0, #3276
 2974 0046 FFF7FEFF 		bl	lv_color_hex3
 2975 004a 6060     		str	r0, [r4, #4]
 683:..\..\..\lvgl\version_6.1.2\lvgl\src\lv_themes/lv_theme_material.c ****     btn_bg.body.grad_color     = btn_bg.body.main_color;
ARM GAS  C:\Users\tmj32\AppData\Local\Temp\cc8DwYg3.s 			page 74


 2976              		.loc 2 683 0
 2977 004c 674A     		ldr	r2, .L86+12
 2978 004e 674B     		ldr	r3, .L86+12
 2979 0050 5B68     		ldr	r3, [r3, #4]
 2980 0052 9360     		str	r3, [r2, #8]
 684:..\..\..\lvgl\version_6.1.2\lvgl\src\lv_themes/lv_theme_material.c ****     btn_bg.body.radius         = 0;
 2981              		.loc 2 684 0
 2982 0054 654B     		ldr	r3, .L86+12
 2983 0056 0022     		movs	r2, #0
 2984 0058 9A81     		strh	r2, [r3, #12]	@ movhi
 685:..\..\..\lvgl\version_6.1.2\lvgl\src\lv_themes/lv_theme_material.c ****     btn_bg.body.border.width   = 1;
 2985              		.loc 2 685 0
 2986 005a 644B     		ldr	r3, .L86+12
 2987 005c 0122     		movs	r2, #1
 2988 005e 9A82     		strh	r2, [r3, #20]	@ movhi
 686:..\..\..\lvgl\version_6.1.2\lvgl\src\lv_themes/lv_theme_material.c ****     btn_bg.body.border.color   = lv_color_hex3(0x888);
 2989              		.loc 2 686 0
 2990 0060 624C     		ldr	r4, .L86+12
 2991 0062 40F68800 		movw	r0, #2184
 2992 0066 FFF7FEFF 		bl	lv_color_hex3
 2993 006a 2061     		str	r0, [r4, #16]
 687:..\..\..\lvgl\version_6.1.2\lvgl\src\lv_themes/lv_theme_material.c ****     btn_bg.body.border.part    = LV_BORDER_BOTTOM;
 2994              		.loc 2 687 0
 2995 006c 5F4B     		ldr	r3, .L86+12
 2996 006e 0122     		movs	r2, #1
 2997 0070 9A75     		strb	r2, [r3, #22]
 688:..\..\..\lvgl\version_6.1.2\lvgl\src\lv_themes/lv_theme_material.c ****     btn_bg.body.border.opa     = LV_OPA_COVER;
 2998              		.loc 2 688 0
 2999 0072 5E4B     		ldr	r3, .L86+12
 3000 0074 FF22     		movs	r2, #255
 3001 0076 DA75     		strb	r2, [r3, #23]
 689:..\..\..\lvgl\version_6.1.2\lvgl\src\lv_themes/lv_theme_material.c ****     btn_bg.body.shadow.width   = 5;
 3002              		.loc 2 689 0
 3003 0078 5C4B     		ldr	r3, .L86+12
 3004 007a 0522     		movs	r2, #5
 3005 007c 9A83     		strh	r2, [r3, #28]	@ movhi
 690:..\..\..\lvgl\version_6.1.2\lvgl\src\lv_themes/lv_theme_material.c ****     btn_bg.body.shadow.color   = DEF_SHADOW_COLOR;
 3006              		.loc 2 690 0
 3007 007e 5B4C     		ldr	r4, .L86+12
 3008 0080 40F6AA20 		movw	r0, #2730
 3009 0084 FFF7FEFF 		bl	lv_color_hex3
 3010 0088 A061     		str	r0, [r4, #24]
 691:..\..\..\lvgl\version_6.1.2\lvgl\src\lv_themes/lv_theme_material.c ****     btn_bg.body.shadow.type    = LV_SHADOW_BOTTOM;
 3011              		.loc 2 691 0
 3012 008a 584B     		ldr	r3, .L86+12
 3013 008c 0022     		movs	r2, #0
 3014 008e 9A77     		strb	r2, [r3, #30]
 692:..\..\..\lvgl\version_6.1.2\lvgl\src\lv_themes/lv_theme_material.c ****     btn_bg.body.padding.inner  = 0;
 3015              		.loc 2 692 0
 3016 0090 564B     		ldr	r3, .L86+12
 3017 0092 0022     		movs	r2, #0
 3018 0094 1A85     		strh	r2, [r3, #40]	@ movhi
 693:..\..\..\lvgl\version_6.1.2\lvgl\src\lv_themes/lv_theme_material.c ****     btn_bg.body.padding.left   = 0;
 3019              		.loc 2 693 0
 3020 0096 554B     		ldr	r3, .L86+12
 3021 0098 0022     		movs	r2, #0
 3022 009a 9A84     		strh	r2, [r3, #36]	@ movhi
ARM GAS  C:\Users\tmj32\AppData\Local\Temp\cc8DwYg3.s 			page 75


 694:..\..\..\lvgl\version_6.1.2\lvgl\src\lv_themes/lv_theme_material.c ****     btn_bg.body.padding.right  = 0;
 3023              		.loc 2 694 0
 3024 009c 534B     		ldr	r3, .L86+12
 3025 009e 0022     		movs	r2, #0
 3026 00a0 DA84     		strh	r2, [r3, #38]	@ movhi
 695:..\..\..\lvgl\version_6.1.2\lvgl\src\lv_themes/lv_theme_material.c ****     btn_bg.body.padding.top    = 0;
 3027              		.loc 2 695 0
 3028 00a2 524B     		ldr	r3, .L86+12
 3029 00a4 0022     		movs	r2, #0
 3030 00a6 1A84     		strh	r2, [r3, #32]	@ movhi
 696:..\..\..\lvgl\version_6.1.2\lvgl\src\lv_themes/lv_theme_material.c ****     btn_bg.body.padding.bottom = 0;
 3031              		.loc 2 696 0
 3032 00a8 504B     		ldr	r3, .L86+12
 3033 00aa 0022     		movs	r2, #0
 3034 00ac 5A84     		strh	r2, [r3, #34]	@ movhi
 697:..\..\..\lvgl\version_6.1.2\lvgl\src\lv_themes/lv_theme_material.c ****     btn_bg.text.color          = lv_color_hex3(0x333);
 3035              		.loc 2 697 0
 3036 00ae 4F4C     		ldr	r4, .L86+12
 3037 00b0 40F23330 		movw	r0, #819
 3038 00b4 FFF7FEFF 		bl	lv_color_hex3
 3039 00b8 E062     		str	r0, [r4, #44]
 698:..\..\..\lvgl\version_6.1.2\lvgl\src\lv_themes/lv_theme_material.c **** 
 699:..\..\..\lvgl\version_6.1.2\lvgl\src\lv_themes/lv_theme_material.c ****     lv_style_copy(&rel, &lv_style_transp);
 3040              		.loc 2 699 0
 3041 00ba 4D49     		ldr	r1, .L86+16
 3042 00bc 4D48     		ldr	r0, .L86+20
 3043 00be FFF7FEFF 		bl	lv_style_copy
 700:..\..\..\lvgl\version_6.1.2\lvgl\src\lv_themes/lv_theme_material.c ****     rel.body.padding.top    = LV_DPI / 8;
 3044              		.loc 2 700 0
 3045 00c2 4C4B     		ldr	r3, .L86+20
 3046 00c4 1222     		movs	r2, #18
 3047 00c6 1A84     		strh	r2, [r3, #32]	@ movhi
 701:..\..\..\lvgl\version_6.1.2\lvgl\src\lv_themes/lv_theme_material.c ****     rel.body.padding.bottom = LV_DPI / 8;
 3048              		.loc 2 701 0
 3049 00c8 4A4B     		ldr	r3, .L86+20
 3050 00ca 1222     		movs	r2, #18
 3051 00cc 5A84     		strh	r2, [r3, #34]	@ movhi
 702:..\..\..\lvgl\version_6.1.2\lvgl\src\lv_themes/lv_theme_material.c ****     rel.text.font           = _font;
 3052              		.loc 2 702 0
 3053 00ce 4A4B     		ldr	r3, .L86+24
 3054 00d0 1B68     		ldr	r3, [r3]
 3055 00d2 484A     		ldr	r2, .L86+20
 3056 00d4 5363     		str	r3, [r2, #52]
 703:..\..\..\lvgl\version_6.1.2\lvgl\src\lv_themes/lv_theme_material.c **** 
 704:..\..\..\lvgl\version_6.1.2\lvgl\src\lv_themes/lv_theme_material.c ****     lv_style_copy(&pr, &def);
 3057              		.loc 2 704 0
 3058 00d6 4249     		ldr	r1, .L86
 3059 00d8 4848     		ldr	r0, .L86+28
 3060 00da FFF7FEFF 		bl	lv_style_copy
 705:..\..\..\lvgl\version_6.1.2\lvgl\src\lv_themes/lv_theme_material.c ****     pr.body.main_color   = lv_color_hex3(0xbbb);
 3061              		.loc 2 705 0
 3062 00de 474C     		ldr	r4, .L86+28
 3063 00e0 40F6BB30 		movw	r0, #3003
 3064 00e4 FFF7FEFF 		bl	lv_color_hex3
 3065 00e8 6060     		str	r0, [r4, #4]
 706:..\..\..\lvgl\version_6.1.2\lvgl\src\lv_themes/lv_theme_material.c ****     pr.body.grad_color   = pr.body.main_color;
 3066              		.loc 2 706 0
ARM GAS  C:\Users\tmj32\AppData\Local\Temp\cc8DwYg3.s 			page 76


 3067 00ea 444A     		ldr	r2, .L86+28
 3068 00ec 434B     		ldr	r3, .L86+28
 3069 00ee 5B68     		ldr	r3, [r3, #4]
 3070 00f0 9360     		str	r3, [r2, #8]
 707:..\..\..\lvgl\version_6.1.2\lvgl\src\lv_themes/lv_theme_material.c ****     pr.body.border.width = 0;
 3071              		.loc 2 707 0
 3072 00f2 424B     		ldr	r3, .L86+28
 3073 00f4 0022     		movs	r2, #0
 3074 00f6 9A82     		strh	r2, [r3, #20]	@ movhi
 708:..\..\..\lvgl\version_6.1.2\lvgl\src\lv_themes/lv_theme_material.c ****     pr.body.opa          = LV_OPA_COVER;
 3075              		.loc 2 708 0
 3076 00f8 404B     		ldr	r3, .L86+28
 3077 00fa FF22     		movs	r2, #255
 3078 00fc 9A73     		strb	r2, [r3, #14]
 709:..\..\..\lvgl\version_6.1.2\lvgl\src\lv_themes/lv_theme_material.c ****     pr.body.radius       = 0;
 3079              		.loc 2 709 0
 3080 00fe 3F4B     		ldr	r3, .L86+28
 3081 0100 0022     		movs	r2, #0
 3082 0102 9A81     		strh	r2, [r3, #12]	@ movhi
 710:..\..\..\lvgl\version_6.1.2\lvgl\src\lv_themes/lv_theme_material.c ****     pr.body.border.width = 1;
 3083              		.loc 2 710 0
 3084 0104 3D4B     		ldr	r3, .L86+28
 3085 0106 0122     		movs	r2, #1
 3086 0108 9A82     		strh	r2, [r3, #20]	@ movhi
 711:..\..\..\lvgl\version_6.1.2\lvgl\src\lv_themes/lv_theme_material.c ****     pr.body.border.color = lv_color_hex3(0x888);
 3087              		.loc 2 711 0
 3088 010a 3C4C     		ldr	r4, .L86+28
 3089 010c 40F68800 		movw	r0, #2184
 3090 0110 FFF7FEFF 		bl	lv_color_hex3
 3091 0114 2061     		str	r0, [r4, #16]
 712:..\..\..\lvgl\version_6.1.2\lvgl\src\lv_themes/lv_theme_material.c ****     pr.body.border.part  = LV_BORDER_BOTTOM;
 3092              		.loc 2 712 0
 3093 0116 394B     		ldr	r3, .L86+28
 3094 0118 0122     		movs	r2, #1
 3095 011a 9A75     		strb	r2, [r3, #22]
 713:..\..\..\lvgl\version_6.1.2\lvgl\src\lv_themes/lv_theme_material.c ****     pr.body.border.opa   = LV_OPA_COVER;
 3096              		.loc 2 713 0
 3097 011c 374B     		ldr	r3, .L86+28
 3098 011e FF22     		movs	r2, #255
 3099 0120 DA75     		strb	r2, [r3, #23]
 714:..\..\..\lvgl\version_6.1.2\lvgl\src\lv_themes/lv_theme_material.c ****     pr.text.color        = lv_color_hex3(0x111);
 3100              		.loc 2 714 0
 3101 0122 364C     		ldr	r4, .L86+28
 3102 0124 40F21110 		movw	r0, #273
 3103 0128 FFF7FEFF 		bl	lv_color_hex3
 3104 012c E062     		str	r0, [r4, #44]
 715:..\..\..\lvgl\version_6.1.2\lvgl\src\lv_themes/lv_theme_material.c **** 
 716:..\..\..\lvgl\version_6.1.2\lvgl\src\lv_themes/lv_theme_material.c ****     lv_style_copy(&tgl_rel, &lv_style_transp);
 3105              		.loc 2 716 0
 3106 012e 3049     		ldr	r1, .L86+16
 3107 0130 3348     		ldr	r0, .L86+32
 3108 0132 FFF7FEFF 		bl	lv_style_copy
 717:..\..\..\lvgl\version_6.1.2\lvgl\src\lv_themes/lv_theme_material.c ****     tgl_rel.glass      = 0;
 3109              		.loc 2 717 0
 3110 0136 324A     		ldr	r2, .L86+32
 3111 0138 1378     		ldrb	r3, [r2]
 3112 013a 6FF30003 		bfc	r3, #0, #1
ARM GAS  C:\Users\tmj32\AppData\Local\Temp\cc8DwYg3.s 			page 77


 3113 013e 1370     		strb	r3, [r2]
 718:..\..\..\lvgl\version_6.1.2\lvgl\src\lv_themes/lv_theme_material.c ****     tgl_rel.text.font  = _font;
 3114              		.loc 2 718 0
 3115 0140 2D4B     		ldr	r3, .L86+24
 3116 0142 1B68     		ldr	r3, [r3]
 3117 0144 2E4A     		ldr	r2, .L86+32
 3118 0146 5363     		str	r3, [r2, #52]
 719:..\..\..\lvgl\version_6.1.2\lvgl\src\lv_themes/lv_theme_material.c ****     tgl_rel.text.color = lv_color_hsv_to_rgb(_hue, 90, 70);
 3119              		.loc 2 719 0
 3120 0148 274B     		ldr	r3, .L86+8
 3121 014a 1B88     		ldrh	r3, [r3]
 3122 014c 2C4C     		ldr	r4, .L86+32
 3123 014e 4622     		movs	r2, #70
 3124 0150 5A21     		movs	r1, #90
 3125 0152 1846     		mov	r0, r3
 3126 0154 FFF7FEFF 		bl	lv_color_hsv_to_rgb
 3127 0158 E062     		str	r0, [r4, #44]
 720:..\..\..\lvgl\version_6.1.2\lvgl\src\lv_themes/lv_theme_material.c **** 
 721:..\..\..\lvgl\version_6.1.2\lvgl\src\lv_themes/lv_theme_material.c ****     lv_style_copy(&tgl_pr, &def);
 3128              		.loc 2 721 0
 3129 015a 2149     		ldr	r1, .L86
 3130 015c 2948     		ldr	r0, .L86+36
 3131 015e FFF7FEFF 		bl	lv_style_copy
 722:..\..\..\lvgl\version_6.1.2\lvgl\src\lv_themes/lv_theme_material.c ****     tgl_pr.body.main_color   = lv_color_hsv_to_rgb(_hue, 15, 85);
 3132              		.loc 2 722 0
 3133 0162 214B     		ldr	r3, .L86+8
 3134 0164 1B88     		ldrh	r3, [r3]
 3135 0166 274C     		ldr	r4, .L86+36
 3136 0168 5522     		movs	r2, #85
 3137 016a 0F21     		movs	r1, #15
 3138 016c 1846     		mov	r0, r3
 3139 016e FFF7FEFF 		bl	lv_color_hsv_to_rgb
 3140 0172 6060     		str	r0, [r4, #4]
 723:..\..\..\lvgl\version_6.1.2\lvgl\src\lv_themes/lv_theme_material.c ****     tgl_pr.body.grad_color   = tgl_pr.body.main_color;
 3141              		.loc 2 723 0
 3142 0174 234A     		ldr	r2, .L86+36
 3143 0176 234B     		ldr	r3, .L86+36
 3144 0178 5B68     		ldr	r3, [r3, #4]
 3145 017a 9360     		str	r3, [r2, #8]
 724:..\..\..\lvgl\version_6.1.2\lvgl\src\lv_themes/lv_theme_material.c ****     tgl_pr.body.border.width = 0;
 3146              		.loc 2 724 0
 3147 017c 214B     		ldr	r3, .L86+36
 3148 017e 0022     		movs	r2, #0
 3149 0180 9A82     		strh	r2, [r3, #20]	@ movhi
 725:..\..\..\lvgl\version_6.1.2\lvgl\src\lv_themes/lv_theme_material.c ****     tgl_pr.body.opa          = LV_OPA_COVER;
 3150              		.loc 2 725 0
 3151 0182 204B     		ldr	r3, .L86+36
 3152 0184 FF22     		movs	r2, #255
 3153 0186 9A73     		strb	r2, [r3, #14]
 726:..\..\..\lvgl\version_6.1.2\lvgl\src\lv_themes/lv_theme_material.c ****     tgl_pr.body.radius       = 0;
 3154              		.loc 2 726 0
 3155 0188 1E4B     		ldr	r3, .L86+36
 3156 018a 0022     		movs	r2, #0
 3157 018c 9A81     		strh	r2, [r3, #12]	@ movhi
 727:..\..\..\lvgl\version_6.1.2\lvgl\src\lv_themes/lv_theme_material.c ****     tgl_pr.text.color        = lv_color_hsv_to_rgb(_hue, 90, 60);
 3158              		.loc 2 727 0
 3159 018e 164B     		ldr	r3, .L86+8
ARM GAS  C:\Users\tmj32\AppData\Local\Temp\cc8DwYg3.s 			page 78


 3160 0190 1B88     		ldrh	r3, [r3]
 3161 0192 1C4C     		ldr	r4, .L86+36
 3162 0194 3C22     		movs	r2, #60
 3163 0196 5A21     		movs	r1, #90
 3164 0198 1846     		mov	r0, r3
 3165 019a FFF7FEFF 		bl	lv_color_hsv_to_rgb
 3166 019e E062     		str	r0, [r4, #44]
 728:..\..\..\lvgl\version_6.1.2\lvgl\src\lv_themes/lv_theme_material.c **** 
 729:..\..\..\lvgl\version_6.1.2\lvgl\src\lv_themes/lv_theme_material.c ****     theme.style.tabview.bg          = theme.style.bg;
 3167              		.loc 2 729 0
 3168 01a0 194B     		ldr	r3, .L86+40
 3169 01a2 5B68     		ldr	r3, [r3, #4]
 3170 01a4 184A     		ldr	r2, .L86+40
 3171 01a6 C2F86031 		str	r3, [r2, #352]
 730:..\..\..\lvgl\version_6.1.2\lvgl\src\lv_themes/lv_theme_material.c ****     theme.style.tabview.indic       = &indic;
 3172              		.loc 2 730 0
 3173 01aa 174B     		ldr	r3, .L86+40
 3174 01ac 0D4A     		ldr	r2, .L86+4
 3175 01ae C3F86421 		str	r2, [r3, #356]
 731:..\..\..\lvgl\version_6.1.2\lvgl\src\lv_themes/lv_theme_material.c ****     theme.style.tabview.btn.bg      = &btn_bg;
 3176              		.loc 2 731 0
 3177 01b2 154B     		ldr	r3, .L86+40
 3178 01b4 0D4A     		ldr	r2, .L86+12
 3179 01b6 C3F86821 		str	r2, [r3, #360]
 732:..\..\..\lvgl\version_6.1.2\lvgl\src\lv_themes/lv_theme_material.c ****     theme.style.tabview.btn.rel     = &rel;
 3180              		.loc 2 732 0
 3181 01ba 134B     		ldr	r3, .L86+40
 3182 01bc 0D4A     		ldr	r2, .L86+20
 3183 01be C3F86C21 		str	r2, [r3, #364]
 733:..\..\..\lvgl\version_6.1.2\lvgl\src\lv_themes/lv_theme_material.c ****     theme.style.tabview.btn.pr      = &pr;
 3184              		.loc 2 733 0
 3185 01c2 114B     		ldr	r3, .L86+40
 3186 01c4 0D4A     		ldr	r2, .L86+28
 3187 01c6 C3F87021 		str	r2, [r3, #368]
 734:..\..\..\lvgl\version_6.1.2\lvgl\src\lv_themes/lv_theme_material.c ****     theme.style.tabview.btn.tgl_rel = &tgl_rel;
 3188              		.loc 2 734 0
 3189 01ca 0F4B     		ldr	r3, .L86+40
 3190 01cc 0C4A     		ldr	r2, .L86+32
 3191 01ce C3F87421 		str	r2, [r3, #372]
 735:..\..\..\lvgl\version_6.1.2\lvgl\src\lv_themes/lv_theme_material.c ****     theme.style.tabview.btn.tgl_pr  = &tgl_pr;
 3192              		.loc 2 735 0
 3193 01d2 0D4B     		ldr	r3, .L86+40
 3194 01d4 0B4A     		ldr	r2, .L86+36
 3195 01d6 C3F87821 		str	r2, [r3, #376]
 736:..\..\..\lvgl\version_6.1.2\lvgl\src\lv_themes/lv_theme_material.c **** #endif
 737:..\..\..\lvgl\version_6.1.2\lvgl\src\lv_themes/lv_theme_material.c **** }
 3196              		.loc 2 737 0
 3197 01da 00BF     		nop
 3198 01dc 98BD     		pop	{r3, r4, r7, pc}
 3199              	.L87:
 3200 01de 00BF     		.align	2
 3201              	.L86:
 3202 01e0 A8010000 		.word	def
 3203 01e4 E0120000 		.word	indic.6084
 3204 01e8 48020000 		.word	_hue
 3205 01ec 30130000 		.word	btn_bg.6085
 3206 01f0 00000000 		.word	lv_style_transp
ARM GAS  C:\Users\tmj32\AppData\Local\Temp\cc8DwYg3.s 			page 79


 3207 01f4 80130000 		.word	rel.6086
 3208 01f8 4C020000 		.word	_font
 3209 01fc D0130000 		.word	pr.6087
 3210 0200 20140000 		.word	tgl_rel.6088
 3211 0204 70140000 		.word	tgl_pr.6089
 3212 0208 00000000 		.word	theme
 3213              		.cfi_endproc
 3214              	.LFE57:
 3215              		.size	tabview_init, .-tabview_init
 3216              		.section	.text.tileview_init,"ax",%progbits
 3217              		.align	2
 3218              		.thumb
 3219              		.thumb_func
 3220              		.type	tileview_init, %function
 3221              	tileview_init:
 3222              	.LFB58:
 738:..\..\..\lvgl\version_6.1.2\lvgl\src\lv_themes/lv_theme_material.c **** 
 739:..\..\..\lvgl\version_6.1.2\lvgl\src\lv_themes/lv_theme_material.c **** static void tileview_init(void)
 740:..\..\..\lvgl\version_6.1.2\lvgl\src\lv_themes/lv_theme_material.c **** {
 3223              		.loc 2 740 0
 3224              		.cfi_startproc
 3225              		@ args = 0, pretend = 0, frame = 0
 3226              		@ frame_needed = 1, uses_anonymous_args = 0
 3227              		@ link register save eliminated.
 3228 0000 80B4     		push	{r7}
 3229              		.cfi_def_cfa_offset 4
 3230              		.cfi_offset 7, -4
 3231 0002 00AF     		add	r7, sp, #0
 3232              		.cfi_def_cfa_register 7
 741:..\..\..\lvgl\version_6.1.2\lvgl\src\lv_themes/lv_theme_material.c **** #if LV_USE_TILEVIEW != 0
 742:..\..\..\lvgl\version_6.1.2\lvgl\src\lv_themes/lv_theme_material.c ****     theme.style.tileview.bg   = &lv_style_transp_tight;
 3233              		.loc 2 742 0
 3234 0004 094B     		ldr	r3, .L89
 3235 0006 0A4A     		ldr	r2, .L89+4
 3236 0008 C3F87C21 		str	r2, [r3, #380]
 743:..\..\..\lvgl\version_6.1.2\lvgl\src\lv_themes/lv_theme_material.c ****     theme.style.tileview.scrl = &lv_style_transp_tight;
 3237              		.loc 2 743 0
 3238 000c 074B     		ldr	r3, .L89
 3239 000e 084A     		ldr	r2, .L89+4
 3240 0010 C3F88021 		str	r2, [r3, #384]
 744:..\..\..\lvgl\version_6.1.2\lvgl\src\lv_themes/lv_theme_material.c ****     theme.style.tileview.sb   = theme.style.page.sb;
 3241              		.loc 2 744 0
 3242 0014 054B     		ldr	r3, .L89
 3243 0016 D3F80C31 		ldr	r3, [r3, #268]
 3244 001a 044A     		ldr	r2, .L89
 3245 001c C2F88431 		str	r3, [r2, #388]
 745:..\..\..\lvgl\version_6.1.2\lvgl\src\lv_themes/lv_theme_material.c **** #endif
 746:..\..\..\lvgl\version_6.1.2\lvgl\src\lv_themes/lv_theme_material.c **** }
 3246              		.loc 2 746 0
 3247 0020 00BF     		nop
 3248 0022 BD46     		mov	sp, r7
 3249              		.cfi_def_cfa_register 13
 3250              		@ sp needed
 3251 0024 5DF8047B 		ldr	r7, [sp], #4
 3252              		.cfi_restore 7
 3253              		.cfi_def_cfa_offset 0
 3254 0028 7047     		bx	lr
ARM GAS  C:\Users\tmj32\AppData\Local\Temp\cc8DwYg3.s 			page 80


 3255              	.L90:
 3256 002a 00BF     		.align	2
 3257              	.L89:
 3258 002c 00000000 		.word	theme
 3259 0030 00000000 		.word	lv_style_transp_tight
 3260              		.cfi_endproc
 3261              	.LFE58:
 3262              		.size	tileview_init, .-tileview_init
 3263              		.section	.text.table_init,"ax",%progbits
 3264              		.align	2
 3265              		.thumb
 3266              		.thumb_func
 3267              		.type	table_init, %function
 3268              	table_init:
 3269              	.LFB59:
 747:..\..\..\lvgl\version_6.1.2\lvgl\src\lv_themes/lv_theme_material.c **** 
 748:..\..\..\lvgl\version_6.1.2\lvgl\src\lv_themes/lv_theme_material.c **** static void table_init(void)
 749:..\..\..\lvgl\version_6.1.2\lvgl\src\lv_themes/lv_theme_material.c **** {
 3270              		.loc 2 749 0
 3271              		.cfi_startproc
 3272              		@ args = 0, pretend = 0, frame = 0
 3273              		@ frame_needed = 1, uses_anonymous_args = 0
 3274 0000 80B5     		push	{r7, lr}
 3275              		.cfi_def_cfa_offset 8
 3276              		.cfi_offset 7, -8
 3277              		.cfi_offset 14, -4
 3278 0002 00AF     		add	r7, sp, #0
 3279              		.cfi_def_cfa_register 7
 750:..\..\..\lvgl\version_6.1.2\lvgl\src\lv_themes/lv_theme_material.c **** #if LV_USE_TABLE != 0
 751:..\..\..\lvgl\version_6.1.2\lvgl\src\lv_themes/lv_theme_material.c ****     static lv_style_t cell;
 752:..\..\..\lvgl\version_6.1.2\lvgl\src\lv_themes/lv_theme_material.c ****     lv_style_copy(&cell, theme.style.panel);
 3280              		.loc 2 752 0
 3281 0004 104B     		ldr	r3, .L92
 3282 0006 9B68     		ldr	r3, [r3, #8]
 3283 0008 1946     		mov	r1, r3
 3284 000a 1048     		ldr	r0, .L92+4
 3285 000c FFF7FEFF 		bl	lv_style_copy
 753:..\..\..\lvgl\version_6.1.2\lvgl\src\lv_themes/lv_theme_material.c ****     cell.body.radius         = 0;
 3286              		.loc 2 753 0
 3287 0010 0E4B     		ldr	r3, .L92+4
 3288 0012 0022     		movs	r2, #0
 3289 0014 9A81     		strh	r2, [r3, #12]	@ movhi
 754:..\..\..\lvgl\version_6.1.2\lvgl\src\lv_themes/lv_theme_material.c ****     cell.body.border.width   = 1;
 3290              		.loc 2 754 0
 3291 0016 0D4B     		ldr	r3, .L92+4
 3292 0018 0122     		movs	r2, #1
 3293 001a 9A82     		strh	r2, [r3, #20]	@ movhi
 755:..\..\..\lvgl\version_6.1.2\lvgl\src\lv_themes/lv_theme_material.c ****     cell.body.padding.left   = LV_DPI / 12;
 3294              		.loc 2 755 0
 3295 001c 0B4B     		ldr	r3, .L92+4
 3296 001e 0C22     		movs	r2, #12
 3297 0020 9A84     		strh	r2, [r3, #36]	@ movhi
 756:..\..\..\lvgl\version_6.1.2\lvgl\src\lv_themes/lv_theme_material.c ****     cell.body.padding.right  = LV_DPI / 12;
 3298              		.loc 2 756 0
 3299 0022 0A4B     		ldr	r3, .L92+4
 3300 0024 0C22     		movs	r2, #12
 3301 0026 DA84     		strh	r2, [r3, #38]	@ movhi
ARM GAS  C:\Users\tmj32\AppData\Local\Temp\cc8DwYg3.s 			page 81


 757:..\..\..\lvgl\version_6.1.2\lvgl\src\lv_themes/lv_theme_material.c ****     cell.body.padding.top    = LV_DPI / 12;
 3302              		.loc 2 757 0
 3303 0028 084B     		ldr	r3, .L92+4
 3304 002a 0C22     		movs	r2, #12
 3305 002c 1A84     		strh	r2, [r3, #32]	@ movhi
 758:..\..\..\lvgl\version_6.1.2\lvgl\src\lv_themes/lv_theme_material.c ****     cell.body.padding.bottom = LV_DPI / 12;
 3306              		.loc 2 758 0
 3307 002e 074B     		ldr	r3, .L92+4
 3308 0030 0C22     		movs	r2, #12
 3309 0032 5A84     		strh	r2, [r3, #34]	@ movhi
 759:..\..\..\lvgl\version_6.1.2\lvgl\src\lv_themes/lv_theme_material.c **** 
 760:..\..\..\lvgl\version_6.1.2\lvgl\src\lv_themes/lv_theme_material.c ****     theme.style.table.bg   = &lv_style_transp_tight;
 3310              		.loc 2 760 0
 3311 0034 044B     		ldr	r3, .L92
 3312 0036 064A     		ldr	r2, .L92+8
 3313 0038 C3F88821 		str	r2, [r3, #392]
 761:..\..\..\lvgl\version_6.1.2\lvgl\src\lv_themes/lv_theme_material.c ****     theme.style.table.cell = &cell;
 3314              		.loc 2 761 0
 3315 003c 024B     		ldr	r3, .L92
 3316 003e 034A     		ldr	r2, .L92+4
 3317 0040 C3F88C21 		str	r2, [r3, #396]
 762:..\..\..\lvgl\version_6.1.2\lvgl\src\lv_themes/lv_theme_material.c **** #endif
 763:..\..\..\lvgl\version_6.1.2\lvgl\src\lv_themes/lv_theme_material.c **** }
 3318              		.loc 2 763 0
 3319 0044 00BF     		nop
 3320 0046 80BD     		pop	{r7, pc}
 3321              	.L93:
 3322              		.align	2
 3323              	.L92:
 3324 0048 00000000 		.word	theme
 3325 004c C0140000 		.word	cell.6096
 3326 0050 00000000 		.word	lv_style_transp_tight
 3327              		.cfi_endproc
 3328              	.LFE59:
 3329              		.size	table_init, .-table_init
 3330              		.section	.text.win_init,"ax",%progbits
 3331              		.align	2
 3332              		.thumb
 3333              		.thumb_func
 3334              		.type	win_init, %function
 3335              	win_init:
 3336              	.LFB60:
 764:..\..\..\lvgl\version_6.1.2\lvgl\src\lv_themes/lv_theme_material.c **** 
 765:..\..\..\lvgl\version_6.1.2\lvgl\src\lv_themes/lv_theme_material.c **** static void win_init(void)
 766:..\..\..\lvgl\version_6.1.2\lvgl\src\lv_themes/lv_theme_material.c **** {
 3337              		.loc 2 766 0
 3338              		.cfi_startproc
 3339              		@ args = 0, pretend = 0, frame = 0
 3340              		@ frame_needed = 1, uses_anonymous_args = 0
 3341 0000 98B5     		push	{r3, r4, r7, lr}
 3342              		.cfi_def_cfa_offset 16
 3343              		.cfi_offset 3, -16
 3344              		.cfi_offset 4, -12
 3345              		.cfi_offset 7, -8
 3346              		.cfi_offset 14, -4
 3347 0002 00AF     		add	r7, sp, #0
 3348              		.cfi_def_cfa_register 7
ARM GAS  C:\Users\tmj32\AppData\Local\Temp\cc8DwYg3.s 			page 82


 767:..\..\..\lvgl\version_6.1.2\lvgl\src\lv_themes/lv_theme_material.c **** #if LV_USE_WIN != 0
 768:..\..\..\lvgl\version_6.1.2\lvgl\src\lv_themes/lv_theme_material.c ****     static lv_style_t header, pr;
 769:..\..\..\lvgl\version_6.1.2\lvgl\src\lv_themes/lv_theme_material.c **** 
 770:..\..\..\lvgl\version_6.1.2\lvgl\src\lv_themes/lv_theme_material.c ****     lv_style_copy(&header, &def);
 3349              		.loc 2 770 0
 3350 0004 3C49     		ldr	r1, .L95
 3351 0006 3D48     		ldr	r0, .L95+4
 3352 0008 FFF7FEFF 		bl	lv_style_copy
 771:..\..\..\lvgl\version_6.1.2\lvgl\src\lv_themes/lv_theme_material.c ****     header.body.main_color     = lv_color_hex3(0xccc);
 3353              		.loc 2 771 0
 3354 000c 3B4C     		ldr	r4, .L95+4
 3355 000e 40F6CC40 		movw	r0, #3276
 3356 0012 FFF7FEFF 		bl	lv_color_hex3
 3357 0016 6060     		str	r0, [r4, #4]
 772:..\..\..\lvgl\version_6.1.2\lvgl\src\lv_themes/lv_theme_material.c ****     header.body.grad_color     = header.body.main_color;
 3358              		.loc 2 772 0
 3359 0018 384A     		ldr	r2, .L95+4
 3360 001a 384B     		ldr	r3, .L95+4
 3361 001c 5B68     		ldr	r3, [r3, #4]
 3362 001e 9360     		str	r3, [r2, #8]
 773:..\..\..\lvgl\version_6.1.2\lvgl\src\lv_themes/lv_theme_material.c ****     header.body.radius         = 0;
 3363              		.loc 2 773 0
 3364 0020 364B     		ldr	r3, .L95+4
 3365 0022 0022     		movs	r2, #0
 3366 0024 9A81     		strh	r2, [r3, #12]	@ movhi
 774:..\..\..\lvgl\version_6.1.2\lvgl\src\lv_themes/lv_theme_material.c ****     header.body.border.width   = 1;
 3367              		.loc 2 774 0
 3368 0026 354B     		ldr	r3, .L95+4
 3369 0028 0122     		movs	r2, #1
 3370 002a 9A82     		strh	r2, [r3, #20]	@ movhi
 775:..\..\..\lvgl\version_6.1.2\lvgl\src\lv_themes/lv_theme_material.c ****     header.body.border.color   = lv_color_hex3(0xbbb);
 3371              		.loc 2 775 0
 3372 002c 334C     		ldr	r4, .L95+4
 3373 002e 40F6BB30 		movw	r0, #3003
 3374 0032 FFF7FEFF 		bl	lv_color_hex3
 3375 0036 2061     		str	r0, [r4, #16]
 776:..\..\..\lvgl\version_6.1.2\lvgl\src\lv_themes/lv_theme_material.c ****     header.body.border.part    = LV_BORDER_BOTTOM;
 3376              		.loc 2 776 0
 3377 0038 304B     		ldr	r3, .L95+4
 3378 003a 0122     		movs	r2, #1
 3379 003c 9A75     		strb	r2, [r3, #22]
 777:..\..\..\lvgl\version_6.1.2\lvgl\src\lv_themes/lv_theme_material.c ****     header.body.border.opa     = LV_OPA_COVER;
 3380              		.loc 2 777 0
 3381 003e 2F4B     		ldr	r3, .L95+4
 3382 0040 FF22     		movs	r2, #255
 3383 0042 DA75     		strb	r2, [r3, #23]
 778:..\..\..\lvgl\version_6.1.2\lvgl\src\lv_themes/lv_theme_material.c ****     header.body.padding.inner  = 0;
 3384              		.loc 2 778 0
 3385 0044 2D4B     		ldr	r3, .L95+4
 3386 0046 0022     		movs	r2, #0
 3387 0048 1A85     		strh	r2, [r3, #40]	@ movhi
 779:..\..\..\lvgl\version_6.1.2\lvgl\src\lv_themes/lv_theme_material.c ****     header.body.padding.left   = 0;
 3388              		.loc 2 779 0
 3389 004a 2C4B     		ldr	r3, .L95+4
 3390 004c 0022     		movs	r2, #0
 3391 004e 9A84     		strh	r2, [r3, #36]	@ movhi
 780:..\..\..\lvgl\version_6.1.2\lvgl\src\lv_themes/lv_theme_material.c ****     header.body.padding.right  = 0;
ARM GAS  C:\Users\tmj32\AppData\Local\Temp\cc8DwYg3.s 			page 83


 3392              		.loc 2 780 0
 3393 0050 2A4B     		ldr	r3, .L95+4
 3394 0052 0022     		movs	r2, #0
 3395 0054 DA84     		strh	r2, [r3, #38]	@ movhi
 781:..\..\..\lvgl\version_6.1.2\lvgl\src\lv_themes/lv_theme_material.c ****     header.body.padding.top    = 0;
 3396              		.loc 2 781 0
 3397 0056 294B     		ldr	r3, .L95+4
 3398 0058 0022     		movs	r2, #0
 3399 005a 1A84     		strh	r2, [r3, #32]	@ movhi
 782:..\..\..\lvgl\version_6.1.2\lvgl\src\lv_themes/lv_theme_material.c ****     header.body.padding.bottom = 0;
 3400              		.loc 2 782 0
 3401 005c 274B     		ldr	r3, .L95+4
 3402 005e 0022     		movs	r2, #0
 3403 0060 5A84     		strh	r2, [r3, #34]	@ movhi
 783:..\..\..\lvgl\version_6.1.2\lvgl\src\lv_themes/lv_theme_material.c ****     header.text.color          = lv_color_hex3(0x333);
 3404              		.loc 2 783 0
 3405 0062 264C     		ldr	r4, .L95+4
 3406 0064 40F23330 		movw	r0, #819
 3407 0068 FFF7FEFF 		bl	lv_color_hex3
 3408 006c E062     		str	r0, [r4, #44]
 784:..\..\..\lvgl\version_6.1.2\lvgl\src\lv_themes/lv_theme_material.c ****     header.image.color         = lv_color_hex3(0x333);
 3409              		.loc 2 784 0
 3410 006e 234C     		ldr	r4, .L95+4
 3411 0070 40F23330 		movw	r0, #819
 3412 0074 FFF7FEFF 		bl	lv_color_hex3
 3413 0078 2064     		str	r0, [r4, #64]
 785:..\..\..\lvgl\version_6.1.2\lvgl\src\lv_themes/lv_theme_material.c **** 
 786:..\..\..\lvgl\version_6.1.2\lvgl\src\lv_themes/lv_theme_material.c ****     lv_style_copy(&pr, &def);
 3414              		.loc 2 786 0
 3415 007a 1F49     		ldr	r1, .L95
 3416 007c 2048     		ldr	r0, .L95+8
 3417 007e FFF7FEFF 		bl	lv_style_copy
 787:..\..\..\lvgl\version_6.1.2\lvgl\src\lv_themes/lv_theme_material.c ****     pr.body.main_color   = lv_color_hex3(0xbbb);
 3418              		.loc 2 787 0
 3419 0082 1F4C     		ldr	r4, .L95+8
 3420 0084 40F6BB30 		movw	r0, #3003
 3421 0088 FFF7FEFF 		bl	lv_color_hex3
 3422 008c 6060     		str	r0, [r4, #4]
 788:..\..\..\lvgl\version_6.1.2\lvgl\src\lv_themes/lv_theme_material.c ****     pr.body.grad_color   = pr.body.main_color;
 3423              		.loc 2 788 0
 3424 008e 1C4A     		ldr	r2, .L95+8
 3425 0090 1B4B     		ldr	r3, .L95+8
 3426 0092 5B68     		ldr	r3, [r3, #4]
 3427 0094 9360     		str	r3, [r2, #8]
 789:..\..\..\lvgl\version_6.1.2\lvgl\src\lv_themes/lv_theme_material.c ****     pr.body.border.width = 0;
 3428              		.loc 2 789 0
 3429 0096 1A4B     		ldr	r3, .L95+8
 3430 0098 0022     		movs	r2, #0
 3431 009a 9A82     		strh	r2, [r3, #20]	@ movhi
 790:..\..\..\lvgl\version_6.1.2\lvgl\src\lv_themes/lv_theme_material.c ****     pr.body.opa          = LV_OPA_COVER;
 3432              		.loc 2 790 0
 3433 009c 184B     		ldr	r3, .L95+8
 3434 009e FF22     		movs	r2, #255
 3435 00a0 9A73     		strb	r2, [r3, #14]
 791:..\..\..\lvgl\version_6.1.2\lvgl\src\lv_themes/lv_theme_material.c ****     pr.body.radius       = 0;
 3436              		.loc 2 791 0
 3437 00a2 174B     		ldr	r3, .L95+8
ARM GAS  C:\Users\tmj32\AppData\Local\Temp\cc8DwYg3.s 			page 84


 3438 00a4 0022     		movs	r2, #0
 3439 00a6 9A81     		strh	r2, [r3, #12]	@ movhi
 792:..\..\..\lvgl\version_6.1.2\lvgl\src\lv_themes/lv_theme_material.c ****     pr.text.color        = lv_color_hex3(0x111);
 3440              		.loc 2 792 0
 3441 00a8 154C     		ldr	r4, .L95+8
 3442 00aa 40F21110 		movw	r0, #273
 3443 00ae FFF7FEFF 		bl	lv_color_hex3
 3444 00b2 E062     		str	r0, [r4, #44]
 793:..\..\..\lvgl\version_6.1.2\lvgl\src\lv_themes/lv_theme_material.c ****     pr.image.color       = lv_color_hex3(0x111);
 3445              		.loc 2 793 0
 3446 00b4 124C     		ldr	r4, .L95+8
 3447 00b6 40F21110 		movw	r0, #273
 3448 00ba FFF7FEFF 		bl	lv_color_hex3
 3449 00be 2064     		str	r0, [r4, #64]
 794:..\..\..\lvgl\version_6.1.2\lvgl\src\lv_themes/lv_theme_material.c **** 
 795:..\..\..\lvgl\version_6.1.2\lvgl\src\lv_themes/lv_theme_material.c ****     theme.style.win.bg      = theme.style.panel;
 3450              		.loc 2 795 0
 3451 00c0 104B     		ldr	r3, .L95+12
 3452 00c2 9B68     		ldr	r3, [r3, #8]
 3453 00c4 0F4A     		ldr	r2, .L95+12
 3454 00c6 C2F89031 		str	r3, [r2, #400]
 796:..\..\..\lvgl\version_6.1.2\lvgl\src\lv_themes/lv_theme_material.c ****     theme.style.win.sb      = &sb;
 3455              		.loc 2 796 0
 3456 00ca 0E4B     		ldr	r3, .L95+12
 3457 00cc 0E4A     		ldr	r2, .L95+16
 3458 00ce C3F89421 		str	r2, [r3, #404]
 797:..\..\..\lvgl\version_6.1.2\lvgl\src\lv_themes/lv_theme_material.c ****     theme.style.win.header  = &header;
 3459              		.loc 2 797 0
 3460 00d2 0C4B     		ldr	r3, .L95+12
 3461 00d4 094A     		ldr	r2, .L95+4
 3462 00d6 C3F89821 		str	r2, [r3, #408]
 798:..\..\..\lvgl\version_6.1.2\lvgl\src\lv_themes/lv_theme_material.c ****     theme.style.win.content = &lv_style_transp;
 3463              		.loc 2 798 0
 3464 00da 0A4B     		ldr	r3, .L95+12
 3465 00dc 0B4A     		ldr	r2, .L95+20
 3466 00de C3F89C21 		str	r2, [r3, #412]
 799:..\..\..\lvgl\version_6.1.2\lvgl\src\lv_themes/lv_theme_material.c ****     theme.style.win.btn.rel = &lv_style_transp;
 3467              		.loc 2 799 0
 3468 00e2 084B     		ldr	r3, .L95+12
 3469 00e4 094A     		ldr	r2, .L95+20
 3470 00e6 C3F8A021 		str	r2, [r3, #416]
 800:..\..\..\lvgl\version_6.1.2\lvgl\src\lv_themes/lv_theme_material.c ****     theme.style.win.btn.pr  = &pr;
 3471              		.loc 2 800 0
 3472 00ea 064B     		ldr	r3, .L95+12
 3473 00ec 044A     		ldr	r2, .L95+8
 3474 00ee C3F8A421 		str	r2, [r3, #420]
 801:..\..\..\lvgl\version_6.1.2\lvgl\src\lv_themes/lv_theme_material.c **** #endif
 802:..\..\..\lvgl\version_6.1.2\lvgl\src\lv_themes/lv_theme_material.c **** }
 3475              		.loc 2 802 0
 3476 00f2 00BF     		nop
 3477 00f4 98BD     		pop	{r3, r4, r7, pc}
 3478              	.L96:
 3479 00f6 00BF     		.align	2
 3480              	.L95:
 3481 00f8 A8010000 		.word	def
 3482 00fc 10150000 		.word	header.6100
 3483 0100 60150000 		.word	pr.6101
ARM GAS  C:\Users\tmj32\AppData\Local\Temp\cc8DwYg3.s 			page 85


 3484 0104 00000000 		.word	theme
 3485 0108 F8010000 		.word	sb
 3486 010c 00000000 		.word	lv_style_transp
 3487              		.cfi_endproc
 3488              	.LFE60:
 3489              		.size	win_init, .-win_init
 3490              		.section	.text.lv_theme_material_init,"ax",%progbits
 3491              		.align	2
 3492              		.global	lv_theme_material_init
 3493              		.thumb
 3494              		.thumb_func
 3495              		.type	lv_theme_material_init, %function
 3496              	lv_theme_material_init:
 3497              	.LFB61:
 803:..\..\..\lvgl\version_6.1.2\lvgl\src\lv_themes/lv_theme_material.c **** 
 804:..\..\..\lvgl\version_6.1.2\lvgl\src\lv_themes/lv_theme_material.c **** #if LV_USE_GROUP
 805:..\..\..\lvgl\version_6.1.2\lvgl\src\lv_themes/lv_theme_material.c **** 
 806:..\..\..\lvgl\version_6.1.2\lvgl\src\lv_themes/lv_theme_material.c **** static void style_mod(lv_group_t * group, lv_style_t * style)
 807:..\..\..\lvgl\version_6.1.2\lvgl\src\lv_themes/lv_theme_material.c **** {
 808:..\..\..\lvgl\version_6.1.2\lvgl\src\lv_themes/lv_theme_material.c ****     (void)group; /*Unused*/
 809:..\..\..\lvgl\version_6.1.2\lvgl\src\lv_themes/lv_theme_material.c **** #if LV_COLOR_DEPTH != 1
 810:..\..\..\lvgl\version_6.1.2\lvgl\src\lv_themes/lv_theme_material.c ****     uint16_t hue2 = (_hue + 60) % 360;
 811:..\..\..\lvgl\version_6.1.2\lvgl\src\lv_themes/lv_theme_material.c **** 
 812:..\..\..\lvgl\version_6.1.2\lvgl\src\lv_themes/lv_theme_material.c ****     /*Make the style to be a little bit orange*/
 813:..\..\..\lvgl\version_6.1.2\lvgl\src\lv_themes/lv_theme_material.c ****     style->body.border.opa   = LV_OPA_COVER;
 814:..\..\..\lvgl\version_6.1.2\lvgl\src\lv_themes/lv_theme_material.c ****     style->body.border.color = lv_color_hsv_to_rgb(hue2, 90, 70);
 815:..\..\..\lvgl\version_6.1.2\lvgl\src\lv_themes/lv_theme_material.c **** 
 816:..\..\..\lvgl\version_6.1.2\lvgl\src\lv_themes/lv_theme_material.c ****     /*If not empty or has border then emphasis the border*/
 817:..\..\..\lvgl\version_6.1.2\lvgl\src\lv_themes/lv_theme_material.c ****     if(style->body.opa != LV_OPA_TRANSP || style->body.border.width != 0) style->body.border.width 
 818:..\..\..\lvgl\version_6.1.2\lvgl\src\lv_themes/lv_theme_material.c **** 
 819:..\..\..\lvgl\version_6.1.2\lvgl\src\lv_themes/lv_theme_material.c ****     style->body.main_color   = lv_color_mix(style->body.main_color, lv_color_hsv_to_rgb(hue2, 90, 7
 820:..\..\..\lvgl\version_6.1.2\lvgl\src\lv_themes/lv_theme_material.c ****     style->body.grad_color   = lv_color_mix(style->body.grad_color, lv_color_hsv_to_rgb(hue2, 90, 7
 821:..\..\..\lvgl\version_6.1.2\lvgl\src\lv_themes/lv_theme_material.c ****     style->body.shadow.color = lv_color_mix(style->body.shadow.color, lv_color_hsv_to_rgb(hue2, 90,
 822:..\..\..\lvgl\version_6.1.2\lvgl\src\lv_themes/lv_theme_material.c **** 
 823:..\..\..\lvgl\version_6.1.2\lvgl\src\lv_themes/lv_theme_material.c ****     style->text.color = lv_color_mix(style->text.color, lv_color_hsv_to_rgb(hue2, 90, 70), LV_OPA_7
 824:..\..\..\lvgl\version_6.1.2\lvgl\src\lv_themes/lv_theme_material.c **** #else
 825:..\..\..\lvgl\version_6.1.2\lvgl\src\lv_themes/lv_theme_material.c ****     style->body.border.opa   = LV_OPA_COVER;
 826:..\..\..\lvgl\version_6.1.2\lvgl\src\lv_themes/lv_theme_material.c ****     style->body.border.color = LV_COLOR_BLACK;
 827:..\..\..\lvgl\version_6.1.2\lvgl\src\lv_themes/lv_theme_material.c ****     style->body.border.width = 2;
 828:..\..\..\lvgl\version_6.1.2\lvgl\src\lv_themes/lv_theme_material.c **** #endif
 829:..\..\..\lvgl\version_6.1.2\lvgl\src\lv_themes/lv_theme_material.c **** }
 830:..\..\..\lvgl\version_6.1.2\lvgl\src\lv_themes/lv_theme_material.c **** 
 831:..\..\..\lvgl\version_6.1.2\lvgl\src\lv_themes/lv_theme_material.c **** static void style_mod_edit(lv_group_t * group, lv_style_t * style)
 832:..\..\..\lvgl\version_6.1.2\lvgl\src\lv_themes/lv_theme_material.c **** {
 833:..\..\..\lvgl\version_6.1.2\lvgl\src\lv_themes/lv_theme_material.c ****     (void)group; /*Unused*/
 834:..\..\..\lvgl\version_6.1.2\lvgl\src\lv_themes/lv_theme_material.c **** #if LV_COLOR_DEPTH != 1
 835:..\..\..\lvgl\version_6.1.2\lvgl\src\lv_themes/lv_theme_material.c ****     uint16_t hue2 = (_hue + 300) % 360;
 836:..\..\..\lvgl\version_6.1.2\lvgl\src\lv_themes/lv_theme_material.c **** 
 837:..\..\..\lvgl\version_6.1.2\lvgl\src\lv_themes/lv_theme_material.c ****     /*Make the style to be a little bit orange*/
 838:..\..\..\lvgl\version_6.1.2\lvgl\src\lv_themes/lv_theme_material.c ****     style->body.border.opa   = LV_OPA_COVER;
 839:..\..\..\lvgl\version_6.1.2\lvgl\src\lv_themes/lv_theme_material.c ****     style->body.border.color = LV_COLOR_GREEN;
 840:..\..\..\lvgl\version_6.1.2\lvgl\src\lv_themes/lv_theme_material.c **** 
 841:..\..\..\lvgl\version_6.1.2\lvgl\src\lv_themes/lv_theme_material.c ****     /*If not empty or has border then emphasis the border*/
 842:..\..\..\lvgl\version_6.1.2\lvgl\src\lv_themes/lv_theme_material.c ****     if(style->body.opa != LV_OPA_TRANSP || style->body.border.width != 0) style->body.border.width 
 843:..\..\..\lvgl\version_6.1.2\lvgl\src\lv_themes/lv_theme_material.c **** 
 844:..\..\..\lvgl\version_6.1.2\lvgl\src\lv_themes/lv_theme_material.c **** 
 845:..\..\..\lvgl\version_6.1.2\lvgl\src\lv_themes/lv_theme_material.c ****     style->body.main_color   = lv_color_mix(style->body.main_color, lv_color_hsv_to_rgb(hue2, 90, 7
ARM GAS  C:\Users\tmj32\AppData\Local\Temp\cc8DwYg3.s 			page 86


 846:..\..\..\lvgl\version_6.1.2\lvgl\src\lv_themes/lv_theme_material.c ****     style->body.grad_color   = lv_color_mix(style->body.grad_color, lv_color_hsv_to_rgb(hue2, 90, 7
 847:..\..\..\lvgl\version_6.1.2\lvgl\src\lv_themes/lv_theme_material.c ****     style->body.shadow.color = lv_color_mix(style->body.shadow.color, lv_color_hsv_to_rgb(hue2, 90,
 848:..\..\..\lvgl\version_6.1.2\lvgl\src\lv_themes/lv_theme_material.c **** 
 849:..\..\..\lvgl\version_6.1.2\lvgl\src\lv_themes/lv_theme_material.c ****     style->text.color = lv_color_mix(style->text.color, lv_color_hsv_to_rgb(hue2, 90, 70), LV_OPA_7
 850:..\..\..\lvgl\version_6.1.2\lvgl\src\lv_themes/lv_theme_material.c **** #else
 851:..\..\..\lvgl\version_6.1.2\lvgl\src\lv_themes/lv_theme_material.c ****     style->body.border.opa   = LV_OPA_COVER;
 852:..\..\..\lvgl\version_6.1.2\lvgl\src\lv_themes/lv_theme_material.c ****     style->body.border.color = LV_COLOR_BLACK;
 853:..\..\..\lvgl\version_6.1.2\lvgl\src\lv_themes/lv_theme_material.c ****     style->body.border.width = 3;
 854:..\..\..\lvgl\version_6.1.2\lvgl\src\lv_themes/lv_theme_material.c **** #endif
 855:..\..\..\lvgl\version_6.1.2\lvgl\src\lv_themes/lv_theme_material.c **** }
 856:..\..\..\lvgl\version_6.1.2\lvgl\src\lv_themes/lv_theme_material.c **** 
 857:..\..\..\lvgl\version_6.1.2\lvgl\src\lv_themes/lv_theme_material.c **** #endif /*LV_USE_GROUP*/
 858:..\..\..\lvgl\version_6.1.2\lvgl\src\lv_themes/lv_theme_material.c **** 
 859:..\..\..\lvgl\version_6.1.2\lvgl\src\lv_themes/lv_theme_material.c **** /**********************
 860:..\..\..\lvgl\version_6.1.2\lvgl\src\lv_themes/lv_theme_material.c ****  *   GLOBAL FUNCTIONS
 861:..\..\..\lvgl\version_6.1.2\lvgl\src\lv_themes/lv_theme_material.c ****  **********************/
 862:..\..\..\lvgl\version_6.1.2\lvgl\src\lv_themes/lv_theme_material.c **** 
 863:..\..\..\lvgl\version_6.1.2\lvgl\src\lv_themes/lv_theme_material.c **** /**
 864:..\..\..\lvgl\version_6.1.2\lvgl\src\lv_themes/lv_theme_material.c ****  * Initialize the material theme
 865:..\..\..\lvgl\version_6.1.2\lvgl\src\lv_themes/lv_theme_material.c ****  * @param hue [0..360] hue value from HSV color space to define the theme's base color
 866:..\..\..\lvgl\version_6.1.2\lvgl\src\lv_themes/lv_theme_material.c ****  * @param font pointer to a font (NULL to use the default)
 867:..\..\..\lvgl\version_6.1.2\lvgl\src\lv_themes/lv_theme_material.c ****  * @return pointer to the initialized theme
 868:..\..\..\lvgl\version_6.1.2\lvgl\src\lv_themes/lv_theme_material.c ****  */
 869:..\..\..\lvgl\version_6.1.2\lvgl\src\lv_themes/lv_theme_material.c **** lv_theme_t * lv_theme_material_init(uint16_t hue, lv_font_t * font)
 870:..\..\..\lvgl\version_6.1.2\lvgl\src\lv_themes/lv_theme_material.c **** {
 3498              		.loc 2 870 0
 3499              		.cfi_startproc
 3500              		@ args = 0, pretend = 0, frame = 16
 3501              		@ frame_needed = 1, uses_anonymous_args = 0
 3502 0000 80B5     		push	{r7, lr}
 3503              		.cfi_def_cfa_offset 8
 3504              		.cfi_offset 7, -8
 3505              		.cfi_offset 14, -4
 3506 0002 84B0     		sub	sp, sp, #16
 3507              		.cfi_def_cfa_offset 24
 3508 0004 00AF     		add	r7, sp, #0
 3509              		.cfi_def_cfa_register 7
 3510 0006 0346     		mov	r3, r0
 3511 0008 3960     		str	r1, [r7]
 3512 000a FB80     		strh	r3, [r7, #6]	@ movhi
 871:..\..\..\lvgl\version_6.1.2\lvgl\src\lv_themes/lv_theme_material.c ****     if(font == NULL) font = LV_FONT_DEFAULT;
 3513              		.loc 2 871 0
 3514 000c 3B68     		ldr	r3, [r7]
 3515 000e 002B     		cmp	r3, #0
 3516 0010 01D1     		bne	.L98
 3517              		.loc 2 871 0 is_stmt 0 discriminator 1
 3518 0012 2D4B     		ldr	r3, .L102
 3519 0014 3B60     		str	r3, [r7]
 3520              	.L98:
 872:..\..\..\lvgl\version_6.1.2\lvgl\src\lv_themes/lv_theme_material.c **** 
 873:..\..\..\lvgl\version_6.1.2\lvgl\src\lv_themes/lv_theme_material.c ****     _hue  = hue;
 3521              		.loc 2 873 0 is_stmt 1
 3522 0016 2D4A     		ldr	r2, .L102+4
 3523 0018 FB88     		ldrh	r3, [r7, #6]	@ movhi
 3524 001a 1380     		strh	r3, [r2]	@ movhi
 874:..\..\..\lvgl\version_6.1.2\lvgl\src\lv_themes/lv_theme_material.c ****     _font = font;
 3525              		.loc 2 874 0
ARM GAS  C:\Users\tmj32\AppData\Local\Temp\cc8DwYg3.s 			page 87


 3526 001c 2C4A     		ldr	r2, .L102+8
 3527 001e 3B68     		ldr	r3, [r7]
 3528 0020 1360     		str	r3, [r2]
 875:..\..\..\lvgl\version_6.1.2\lvgl\src\lv_themes/lv_theme_material.c **** 
 876:..\..\..\lvgl\version_6.1.2\lvgl\src\lv_themes/lv_theme_material.c ****     /*For backward compatibility initialize all theme elements with a default style */
 877:..\..\..\lvgl\version_6.1.2\lvgl\src\lv_themes/lv_theme_material.c ****     uint16_t i;
 878:..\..\..\lvgl\version_6.1.2\lvgl\src\lv_themes/lv_theme_material.c ****     lv_style_t ** style_p = (lv_style_t **)&theme.style;
 3529              		.loc 2 878 0
 3530 0022 2C4B     		ldr	r3, .L102+12
 3531 0024 BB60     		str	r3, [r7, #8]
 879:..\..\..\lvgl\version_6.1.2\lvgl\src\lv_themes/lv_theme_material.c ****     for(i = 0; i < LV_THEME_STYLE_COUNT; i++) {
 3532              		.loc 2 879 0
 3533 0026 0023     		movs	r3, #0
 3534 0028 FB81     		strh	r3, [r7, #14]	@ movhi
 3535 002a 08E0     		b	.L99
 3536              	.L100:
 880:..\..\..\lvgl\version_6.1.2\lvgl\src\lv_themes/lv_theme_material.c ****         *style_p = &def;
 3537              		.loc 2 880 0 discriminator 3
 3538 002c BB68     		ldr	r3, [r7, #8]
 3539 002e 2A4A     		ldr	r2, .L102+16
 3540 0030 1A60     		str	r2, [r3]
 881:..\..\..\lvgl\version_6.1.2\lvgl\src\lv_themes/lv_theme_material.c ****         style_p++;
 3541              		.loc 2 881 0 discriminator 3
 3542 0032 BB68     		ldr	r3, [r7, #8]
 3543 0034 0433     		adds	r3, r3, #4
 3544 0036 BB60     		str	r3, [r7, #8]
 879:..\..\..\lvgl\version_6.1.2\lvgl\src\lv_themes/lv_theme_material.c ****     for(i = 0; i < LV_THEME_STYLE_COUNT; i++) {
 3545              		.loc 2 879 0 discriminator 3
 3546 0038 FB89     		ldrh	r3, [r7, #14]
 3547 003a 0133     		adds	r3, r3, #1
 3548 003c FB81     		strh	r3, [r7, #14]	@ movhi
 3549              	.L99:
 879:..\..\..\lvgl\version_6.1.2\lvgl\src\lv_themes/lv_theme_material.c ****     for(i = 0; i < LV_THEME_STYLE_COUNT; i++) {
 3550              		.loc 2 879 0 is_stmt 0 discriminator 1
 3551 003e FB89     		ldrh	r3, [r7, #14]
 3552 0040 692B     		cmp	r3, #105
 3553 0042 F3D9     		bls	.L100
 882:..\..\..\lvgl\version_6.1.2\lvgl\src\lv_themes/lv_theme_material.c ****     }
 883:..\..\..\lvgl\version_6.1.2\lvgl\src\lv_themes/lv_theme_material.c **** 
 884:..\..\..\lvgl\version_6.1.2\lvgl\src\lv_themes/lv_theme_material.c ****     basic_init();
 3554              		.loc 2 884 0 is_stmt 1
 3555 0044 FFF7FEFF 		bl	basic_init
 885:..\..\..\lvgl\version_6.1.2\lvgl\src\lv_themes/lv_theme_material.c ****     cont_init();
 3556              		.loc 2 885 0
 3557 0048 FFF7FEFF 		bl	cont_init
 886:..\..\..\lvgl\version_6.1.2\lvgl\src\lv_themes/lv_theme_material.c ****     btn_init();
 3558              		.loc 2 886 0
 3559 004c FFF7FEFF 		bl	btn_init
 887:..\..\..\lvgl\version_6.1.2\lvgl\src\lv_themes/lv_theme_material.c ****     label_init();
 3560              		.loc 2 887 0
 3561 0050 FFF7FEFF 		bl	label_init
 888:..\..\..\lvgl\version_6.1.2\lvgl\src\lv_themes/lv_theme_material.c ****     img_init();
 3562              		.loc 2 888 0
 3563 0054 FFF7FEFF 		bl	img_init
 889:..\..\..\lvgl\version_6.1.2\lvgl\src\lv_themes/lv_theme_material.c ****     line_init();
 3564              		.loc 2 889 0
 3565 0058 FFF7FEFF 		bl	line_init
ARM GAS  C:\Users\tmj32\AppData\Local\Temp\cc8DwYg3.s 			page 88


 890:..\..\..\lvgl\version_6.1.2\lvgl\src\lv_themes/lv_theme_material.c ****     led_init();
 3566              		.loc 2 890 0
 3567 005c FFF7FEFF 		bl	led_init
 891:..\..\..\lvgl\version_6.1.2\lvgl\src\lv_themes/lv_theme_material.c ****     bar_init();
 3568              		.loc 2 891 0
 3569 0060 FFF7FEFF 		bl	bar_init
 892:..\..\..\lvgl\version_6.1.2\lvgl\src\lv_themes/lv_theme_material.c ****     slider_init();
 3570              		.loc 2 892 0
 3571 0064 FFF7FEFF 		bl	slider_init
 893:..\..\..\lvgl\version_6.1.2\lvgl\src\lv_themes/lv_theme_material.c ****     sw_init();
 3572              		.loc 2 893 0
 3573 0068 FFF7FEFF 		bl	sw_init
 894:..\..\..\lvgl\version_6.1.2\lvgl\src\lv_themes/lv_theme_material.c ****     lmeter_init();
 3574              		.loc 2 894 0
 3575 006c FFF7FEFF 		bl	lmeter_init
 895:..\..\..\lvgl\version_6.1.2\lvgl\src\lv_themes/lv_theme_material.c ****     gauge_init();
 3576              		.loc 2 895 0
 3577 0070 FFF7FEFF 		bl	gauge_init
 896:..\..\..\lvgl\version_6.1.2\lvgl\src\lv_themes/lv_theme_material.c ****     chart_init();
 3578              		.loc 2 896 0
 3579 0074 FFF7FEFF 		bl	chart_init
 897:..\..\..\lvgl\version_6.1.2\lvgl\src\lv_themes/lv_theme_material.c ****     arc_init();
 3580              		.loc 2 897 0
 3581 0078 FFF7FEFF 		bl	arc_init
 898:..\..\..\lvgl\version_6.1.2\lvgl\src\lv_themes/lv_theme_material.c ****     preload_init();
 3582              		.loc 2 898 0
 3583 007c FFF7FEFF 		bl	preload_init
 899:..\..\..\lvgl\version_6.1.2\lvgl\src\lv_themes/lv_theme_material.c ****     calendar_init();
 3584              		.loc 2 899 0
 3585 0080 FFF7FEFF 		bl	calendar_init
 900:..\..\..\lvgl\version_6.1.2\lvgl\src\lv_themes/lv_theme_material.c ****     cb_init();
 3586              		.loc 2 900 0
 3587 0084 FFF7FEFF 		bl	cb_init
 901:..\..\..\lvgl\version_6.1.2\lvgl\src\lv_themes/lv_theme_material.c ****     btnm_init();
 3588              		.loc 2 901 0
 3589 0088 FFF7FEFF 		bl	btnm_init
 902:..\..\..\lvgl\version_6.1.2\lvgl\src\lv_themes/lv_theme_material.c ****     kb_init();
 3590              		.loc 2 902 0
 3591 008c FFF7FEFF 		bl	kb_init
 903:..\..\..\lvgl\version_6.1.2\lvgl\src\lv_themes/lv_theme_material.c ****     mbox_init();
 3592              		.loc 2 903 0
 3593 0090 FFF7FEFF 		bl	mbox_init
 904:..\..\..\lvgl\version_6.1.2\lvgl\src\lv_themes/lv_theme_material.c ****     page_init();
 3594              		.loc 2 904 0
 3595 0094 FFF7FEFF 		bl	page_init
 905:..\..\..\lvgl\version_6.1.2\lvgl\src\lv_themes/lv_theme_material.c ****     ta_init();
 3596              		.loc 2 905 0
 3597 0098 FFF7FEFF 		bl	ta_init
 906:..\..\..\lvgl\version_6.1.2\lvgl\src\lv_themes/lv_theme_material.c ****     spinbox_init();
 3598              		.loc 2 906 0
 3599 009c FFF7FEFF 		bl	spinbox_init
 907:..\..\..\lvgl\version_6.1.2\lvgl\src\lv_themes/lv_theme_material.c ****     list_init();
 3600              		.loc 2 907 0
 3601 00a0 FFF7FEFF 		bl	list_init
 908:..\..\..\lvgl\version_6.1.2\lvgl\src\lv_themes/lv_theme_material.c ****     ddlist_init();
 3602              		.loc 2 908 0
 3603 00a4 FFF7FEFF 		bl	ddlist_init
ARM GAS  C:\Users\tmj32\AppData\Local\Temp\cc8DwYg3.s 			page 89


 909:..\..\..\lvgl\version_6.1.2\lvgl\src\lv_themes/lv_theme_material.c ****     roller_init();
 3604              		.loc 2 909 0
 3605 00a8 FFF7FEFF 		bl	roller_init
 910:..\..\..\lvgl\version_6.1.2\lvgl\src\lv_themes/lv_theme_material.c ****     tabview_init();
 3606              		.loc 2 910 0
 3607 00ac FFF7FEFF 		bl	tabview_init
 911:..\..\..\lvgl\version_6.1.2\lvgl\src\lv_themes/lv_theme_material.c ****     tileview_init();
 3608              		.loc 2 911 0
 3609 00b0 FFF7FEFF 		bl	tileview_init
 912:..\..\..\lvgl\version_6.1.2\lvgl\src\lv_themes/lv_theme_material.c ****     table_init();
 3610              		.loc 2 912 0
 3611 00b4 FFF7FEFF 		bl	table_init
 913:..\..\..\lvgl\version_6.1.2\lvgl\src\lv_themes/lv_theme_material.c ****     win_init();
 3612              		.loc 2 913 0
 3613 00b8 FFF7FEFF 		bl	win_init
 914:..\..\..\lvgl\version_6.1.2\lvgl\src\lv_themes/lv_theme_material.c **** 
 915:..\..\..\lvgl\version_6.1.2\lvgl\src\lv_themes/lv_theme_material.c **** #if LV_USE_GROUP
 916:..\..\..\lvgl\version_6.1.2\lvgl\src\lv_themes/lv_theme_material.c ****     theme.group.style_mod_xcb      = style_mod;
 917:..\..\..\lvgl\version_6.1.2\lvgl\src\lv_themes/lv_theme_material.c ****     theme.group.style_mod_edit_xcb = style_mod_edit;
 918:..\..\..\lvgl\version_6.1.2\lvgl\src\lv_themes/lv_theme_material.c **** #endif
 919:..\..\..\lvgl\version_6.1.2\lvgl\src\lv_themes/lv_theme_material.c **** 
 920:..\..\..\lvgl\version_6.1.2\lvgl\src\lv_themes/lv_theme_material.c ****     return &theme;
 3614              		.loc 2 920 0
 3615 00bc 054B     		ldr	r3, .L102+12
 921:..\..\..\lvgl\version_6.1.2\lvgl\src\lv_themes/lv_theme_material.c **** }
 3616              		.loc 2 921 0
 3617 00be 1846     		mov	r0, r3
 3618 00c0 1037     		adds	r7, r7, #16
 3619              		.cfi_def_cfa_offset 8
 3620 00c2 BD46     		mov	sp, r7
 3621              		.cfi_def_cfa_register 13
 3622              		@ sp needed
 3623 00c4 80BD     		pop	{r7, pc}
 3624              	.L103:
 3625 00c6 00BF     		.align	2
 3626              	.L102:
 3627 00c8 00000000 		.word	lv_font_roboto_16
 3628 00cc 48020000 		.word	_hue
 3629 00d0 4C020000 		.word	_font
 3630 00d4 00000000 		.word	theme
 3631 00d8 A8010000 		.word	def
 3632              		.cfi_endproc
 3633              	.LFE61:
 3634              		.size	lv_theme_material_init, .-lv_theme_material_init
 3635              		.section	.text.lv_theme_get_material,"ax",%progbits
 3636              		.align	2
 3637              		.global	lv_theme_get_material
 3638              		.thumb
 3639              		.thumb_func
 3640              		.type	lv_theme_get_material, %function
 3641              	lv_theme_get_material:
 3642              	.LFB62:
 922:..\..\..\lvgl\version_6.1.2\lvgl\src\lv_themes/lv_theme_material.c **** 
 923:..\..\..\lvgl\version_6.1.2\lvgl\src\lv_themes/lv_theme_material.c **** /**
 924:..\..\..\lvgl\version_6.1.2\lvgl\src\lv_themes/lv_theme_material.c ****  * Get a pointer to the theme
 925:..\..\..\lvgl\version_6.1.2\lvgl\src\lv_themes/lv_theme_material.c ****  * @return pointer to the theme
 926:..\..\..\lvgl\version_6.1.2\lvgl\src\lv_themes/lv_theme_material.c ****  */
ARM GAS  C:\Users\tmj32\AppData\Local\Temp\cc8DwYg3.s 			page 90


 927:..\..\..\lvgl\version_6.1.2\lvgl\src\lv_themes/lv_theme_material.c **** lv_theme_t * lv_theme_get_material(void)
 928:..\..\..\lvgl\version_6.1.2\lvgl\src\lv_themes/lv_theme_material.c **** {
 3643              		.loc 2 928 0
 3644              		.cfi_startproc
 3645              		@ args = 0, pretend = 0, frame = 0
 3646              		@ frame_needed = 1, uses_anonymous_args = 0
 3647              		@ link register save eliminated.
 3648 0000 80B4     		push	{r7}
 3649              		.cfi_def_cfa_offset 4
 3650              		.cfi_offset 7, -4
 3651 0002 00AF     		add	r7, sp, #0
 3652              		.cfi_def_cfa_register 7
 929:..\..\..\lvgl\version_6.1.2\lvgl\src\lv_themes/lv_theme_material.c ****     return &theme;
 3653              		.loc 2 929 0
 3654 0004 024B     		ldr	r3, .L106
 930:..\..\..\lvgl\version_6.1.2\lvgl\src\lv_themes/lv_theme_material.c **** }
 3655              		.loc 2 930 0
 3656 0006 1846     		mov	r0, r3
 3657 0008 BD46     		mov	sp, r7
 3658              		.cfi_def_cfa_register 13
 3659              		@ sp needed
 3660 000a 5DF8047B 		ldr	r7, [sp], #4
 3661              		.cfi_restore 7
 3662              		.cfi_def_cfa_offset 0
 3663 000e 7047     		bx	lr
 3664              	.L107:
 3665              		.align	2
 3666              	.L106:
 3667 0010 00000000 		.word	theme
 3668              		.cfi_endproc
 3669              	.LFE62:
 3670              		.size	lv_theme_get_material, .-lv_theme_get_material
 3671              		.bss
 3672              		.align	2
 3673              	bg.5947:
 3674 0250 00000000 		.space	80
 3674      00000000 
 3674      00000000 
 3674      00000000 
 3674      00000000 
 3675              		.align	2
 3676              	scr.5949:
 3677 02a0 00000000 		.space	80
 3677      00000000 
 3677      00000000 
 3677      00000000 
 3677      00000000 
 3678              		.align	2
 3679              	panel.5948:
 3680 02f0 00000000 		.space	80
 3680      00000000 
 3680      00000000 
 3680      00000000 
 3680      00000000 
 3681              		.align	2
 3682              	rel.5960:
 3683 0340 00000000 		.space	80
ARM GAS  C:\Users\tmj32\AppData\Local\Temp\cc8DwYg3.s 			page 91


 3683      00000000 
 3683      00000000 
 3683      00000000 
 3683      00000000 
 3684              		.align	2
 3685              	pr.5961:
 3686 0390 00000000 		.space	80
 3686      00000000 
 3686      00000000 
 3686      00000000 
 3686      00000000 
 3687              		.align	2
 3688              	tgl_rel.5962:
 3689 03e0 00000000 		.space	80
 3689      00000000 
 3689      00000000 
 3689      00000000 
 3689      00000000 
 3690              		.align	2
 3691              	tgl_pr.5963:
 3692 0430 00000000 		.space	80
 3692      00000000 
 3692      00000000 
 3692      00000000 
 3692      00000000 
 3693              		.align	2
 3694              	ina.5964:
 3695 0480 00000000 		.space	80
 3695      00000000 
 3695      00000000 
 3695      00000000 
 3695      00000000 
 3696              		.align	2
 3697              	prim.5968:
 3698 04d0 00000000 		.space	80
 3698      00000000 
 3698      00000000 
 3698      00000000 
 3698      00000000 
 3699              		.align	2
 3700              	sec.5969:
 3701 0520 00000000 		.space	80
 3701      00000000 
 3701      00000000 
 3701      00000000 
 3701      00000000 
 3702              		.align	2
 3703              	hint.5970:
 3704 0570 00000000 		.space	80
 3704      00000000 
 3704      00000000 
 3704      00000000 
 3704      00000000 
 3705              		.align	2
 3706              	img_light.5974:
 3707 05c0 00000000 		.space	80
 3707      00000000 
ARM GAS  C:\Users\tmj32\AppData\Local\Temp\cc8DwYg3.s 			page 92


 3707      00000000 
 3707      00000000 
 3707      00000000 
 3708              		.align	2
 3709              	img_dark.5975:
 3710 0610 00000000 		.space	80
 3710      00000000 
 3710      00000000 
 3710      00000000 
 3710      00000000 
 3711              		.align	2
 3712              	led.5982:
 3713 0660 00000000 		.space	80
 3713      00000000 
 3713      00000000 
 3713      00000000 
 3713      00000000 
 3714              		.align	2
 3715              	bar_bg.5986:
 3716 06b0 00000000 		.space	80
 3716      00000000 
 3716      00000000 
 3716      00000000 
 3716      00000000 
 3717              		.align	2
 3718              	bar_indic.5987:
 3719 0700 00000000 		.space	80
 3719      00000000 
 3719      00000000 
 3719      00000000 
 3719      00000000 
 3720              		.align	2
 3721              	knob.5991:
 3722 0750 00000000 		.space	80
 3722      00000000 
 3722      00000000 
 3722      00000000 
 3722      00000000 
 3723              		.align	2
 3724              	sw_bg.5995:
 3725 07a0 00000000 		.space	80
 3725      00000000 
 3725      00000000 
 3725      00000000 
 3725      00000000 
 3726              		.align	2
 3727              	sw_indic.5996:
 3728 07f0 00000000 		.space	80
 3728      00000000 
 3728      00000000 
 3728      00000000 
 3728      00000000 
 3729              		.align	2
 3730              	sw_knob_on.5998:
 3731 0840 00000000 		.space	80
 3731      00000000 
 3731      00000000 
ARM GAS  C:\Users\tmj32\AppData\Local\Temp\cc8DwYg3.s 			page 93


 3731      00000000 
 3731      00000000 
 3732              		.align	2
 3733              	sw_knob_off.5997:
 3734 0890 00000000 		.space	80
 3734      00000000 
 3734      00000000 
 3734      00000000 
 3734      00000000 
 3735              		.align	2
 3736              	lmeter.6002:
 3737 08e0 00000000 		.space	80
 3737      00000000 
 3737      00000000 
 3737      00000000 
 3737      00000000 
 3738              		.align	2
 3739              	gauge.6006:
 3740 0930 00000000 		.space	80
 3740      00000000 
 3740      00000000 
 3740      00000000 
 3740      00000000 
 3741              		.align	2
 3742              	arc.6010:
 3743 0980 00000000 		.space	80
 3743      00000000 
 3743      00000000 
 3743      00000000 
 3743      00000000 
 3744              		.align	2
 3745              	ina_days.6020:
 3746 09d0 00000000 		.space	80
 3746      00000000 
 3746      00000000 
 3746      00000000 
 3746      00000000 
 3747              		.align	2
 3748              	high_days.6021:
 3749 0a20 00000000 		.space	80
 3749      00000000 
 3749      00000000 
 3749      00000000 
 3749      00000000 
 3750              		.align	2
 3751              	week_box.6022:
 3752 0a70 00000000 		.space	80
 3752      00000000 
 3752      00000000 
 3752      00000000 
 3752      00000000 
 3753              		.align	2
 3754              	today_box.6023:
 3755 0ac0 00000000 		.space	80
 3755      00000000 
 3755      00000000 
 3755      00000000 
ARM GAS  C:\Users\tmj32\AppData\Local\Temp\cc8DwYg3.s 			page 94


 3755      00000000 
 3756              		.align	2
 3757              	rel.6029:
 3758 0b10 00000000 		.space	80
 3758      00000000 
 3758      00000000 
 3758      00000000 
 3758      00000000 
 3759              		.align	2
 3760              	pr.6030:
 3761 0b60 00000000 		.space	80
 3761      00000000 
 3761      00000000 
 3761      00000000 
 3761      00000000 
 3762              		.align	2
 3763              	tgl_rel.6031:
 3764 0bb0 00000000 		.space	80
 3764      00000000 
 3764      00000000 
 3764      00000000 
 3764      00000000 
 3765              		.align	2
 3766              	tgl_pr.6032:
 3767 0c00 00000000 		.space	80
 3767      00000000 
 3767      00000000 
 3767      00000000 
 3767      00000000 
 3768              		.align	2
 3769              	ina.6033:
 3770 0c50 00000000 		.space	80
 3770      00000000 
 3770      00000000 
 3770      00000000 
 3770      00000000 
 3771              		.align	2
 3772              	bg.6037:
 3773 0ca0 00000000 		.space	80
 3773      00000000 
 3773      00000000 
 3773      00000000 
 3773      00000000 
 3774              		.align	2
 3775              	rel.6038:
 3776 0cf0 00000000 		.space	80
 3776      00000000 
 3776      00000000 
 3776      00000000 
 3776      00000000 
 3777              		.align	2
 3778              	pr.6039:
 3779 0d40 00000000 		.space	80
 3779      00000000 
 3779      00000000 
 3779      00000000 
 3779      00000000 
ARM GAS  C:\Users\tmj32\AppData\Local\Temp\cc8DwYg3.s 			page 95


 3780              		.align	2
 3781              	tgl_rel.6040:
 3782 0d90 00000000 		.space	80
 3782      00000000 
 3782      00000000 
 3782      00000000 
 3782      00000000 
 3783              		.align	2
 3784              	tgl_pr.6041:
 3785 0de0 00000000 		.space	80
 3785      00000000 
 3785      00000000 
 3785      00000000 
 3785      00000000 
 3786              		.align	2
 3787              	ina.6042:
 3788 0e30 00000000 		.space	80
 3788      00000000 
 3788      00000000 
 3788      00000000 
 3788      00000000 
 3789              		.align	2
 3790              	rel.6046:
 3791 0e80 00000000 		.space	80
 3791      00000000 
 3791      00000000 
 3791      00000000 
 3791      00000000 
 3792              		.align	2
 3793              	rel.6051:
 3794 0ed0 00000000 		.space	80
 3794      00000000 
 3794      00000000 
 3794      00000000 
 3794      00000000 
 3795              		.align	2
 3796              	pr.6050:
 3797 0f20 00000000 		.space	80
 3797      00000000 
 3797      00000000 
 3797      00000000 
 3797      00000000 
 3798              		.align	2
 3799              	oneline.6058:
 3800 0f70 00000000 		.space	80
 3800      00000000 
 3800      00000000 
 3800      00000000 
 3800      00000000 
 3801              		.align	2
 3802              	list_bg.6065:
 3803 0fc0 00000000 		.space	80
 3803      00000000 
 3803      00000000 
 3803      00000000 
 3803      00000000 
 3804              		.align	2
ARM GAS  C:\Users\tmj32\AppData\Local\Temp\cc8DwYg3.s 			page 96


 3805              	rel.6066:
 3806 1010 00000000 		.space	80
 3806      00000000 
 3806      00000000 
 3806      00000000 
 3806      00000000 
 3807              		.align	2
 3808              	pr.6067:
 3809 1060 00000000 		.space	80
 3809      00000000 
 3809      00000000 
 3809      00000000 
 3809      00000000 
 3810              		.align	2
 3811              	tgl_rel.6068:
 3812 10b0 00000000 		.space	80
 3812      00000000 
 3812      00000000 
 3812      00000000 
 3812      00000000 
 3813              		.align	2
 3814              	tgl_pr.6069:
 3815 1100 00000000 		.space	80
 3815      00000000 
 3815      00000000 
 3815      00000000 
 3815      00000000 
 3816              		.align	2
 3817              	ina.6070:
 3818 1150 00000000 		.space	80
 3818      00000000 
 3818      00000000 
 3818      00000000 
 3818      00000000 
 3819              		.align	2
 3820              	bg.6074:
 3821 11a0 00000000 		.space	80
 3821      00000000 
 3821      00000000 
 3821      00000000 
 3821      00000000 
 3822              		.align	2
 3823              	sel.6075:
 3824 11f0 00000000 		.space	80
 3824      00000000 
 3824      00000000 
 3824      00000000 
 3824      00000000 
 3825              		.align	2
 3826              	roller_bg.6079:
 3827 1240 00000000 		.space	80
 3827      00000000 
 3827      00000000 
 3827      00000000 
 3827      00000000 
 3828              		.align	2
 3829              	roller_sel.6080:
ARM GAS  C:\Users\tmj32\AppData\Local\Temp\cc8DwYg3.s 			page 97


 3830 1290 00000000 		.space	80
 3830      00000000 
 3830      00000000 
 3830      00000000 
 3830      00000000 
 3831              		.align	2
 3832              	indic.6084:
 3833 12e0 00000000 		.space	80
 3833      00000000 
 3833      00000000 
 3833      00000000 
 3833      00000000 
 3834              		.align	2
 3835              	btn_bg.6085:
 3836 1330 00000000 		.space	80
 3836      00000000 
 3836      00000000 
 3836      00000000 
 3836      00000000 
 3837              		.align	2
 3838              	rel.6086:
 3839 1380 00000000 		.space	80
 3839      00000000 
 3839      00000000 
 3839      00000000 
 3839      00000000 
 3840              		.align	2
 3841              	pr.6087:
 3842 13d0 00000000 		.space	80
 3842      00000000 
 3842      00000000 
 3842      00000000 
 3842      00000000 
 3843              		.align	2
 3844              	tgl_rel.6088:
 3845 1420 00000000 		.space	80
 3845      00000000 
 3845      00000000 
 3845      00000000 
 3845      00000000 
 3846              		.align	2
 3847              	tgl_pr.6089:
 3848 1470 00000000 		.space	80
 3848      00000000 
 3848      00000000 
 3848      00000000 
 3848      00000000 
 3849              		.align	2
 3850              	cell.6096:
 3851 14c0 00000000 		.space	80
 3851      00000000 
 3851      00000000 
 3851      00000000 
 3851      00000000 
 3852              		.align	2
 3853              	header.6100:
 3854 1510 00000000 		.space	80
ARM GAS  C:\Users\tmj32\AppData\Local\Temp\cc8DwYg3.s 			page 98


 3854      00000000 
 3854      00000000 
 3854      00000000 
 3854      00000000 
 3855              		.align	2
 3856              	pr.6101:
 3857 1560 00000000 		.space	80
 3857      00000000 
 3857      00000000 
 3857      00000000 
 3857      00000000 
 3858              		.text
 3859              	.Letext0:
 3860              		.file 3 "c:\\program files (x86)\\cypress\\psoc creator\\4.3\\psoc creator\\import\\gnu\\arm\\5.4.
 3861              		.file 4 "c:\\program files (x86)\\cypress\\psoc creator\\4.3\\psoc creator\\import\\gnu\\arm\\5.4.
 3862              		.file 5 "..\\..\\..\\lvgl\\version_6.1.2\\lvgl\\src\\lv_themes\\../../../lv_conf.h"
 3863              		.file 6 "..\\..\\..\\lvgl\\version_6.1.2\\lvgl\\src\\lv_themes\\../lv_core/../lv_font/lv_font.h"
 3864              		.file 7 "..\\..\\..\\lvgl\\version_6.1.2\\lvgl\\src\\lv_themes\\../lv_core/lv_style.h"
 3865              		.file 8 "..\\..\\..\\lvgl\\version_6.1.2\\lvgl\\src\\lv_themes\\lv_theme.h"
 3866              		.section	.debug_info,"",%progbits
 3867              	.Ldebug_info0:
 3868 0000 7D150000 		.4byte	0x157d
 3869 0004 0400     		.2byte	0x4
 3870 0006 00000000 		.4byte	.Ldebug_abbrev0
 3871 000a 04       		.byte	0x4
 3872 000b 01       		.uleb128 0x1
 3873 000c 0D080000 		.4byte	.LASF194
 3874 0010 0C       		.byte	0xc
 3875 0011 64020000 		.4byte	.LASF195
 3876 0015 85050000 		.4byte	.LASF196
 3877 0019 00000000 		.4byte	.Ldebug_ranges0+0
 3878 001d 00000000 		.4byte	0
 3879 0021 00000000 		.4byte	.Ldebug_line0
 3880 0025 02       		.uleb128 0x2
 3881 0026 09010000 		.4byte	.LASF0
 3882 002a 03       		.byte	0x3
 3883 002b 1B       		.byte	0x1b
 3884 002c 30000000 		.4byte	0x30
 3885 0030 03       		.uleb128 0x3
 3886 0031 01       		.byte	0x1
 3887 0032 06       		.byte	0x6
 3888 0033 7C010000 		.4byte	.LASF2
 3889 0037 02       		.uleb128 0x2
 3890 0038 75000000 		.4byte	.LASF1
 3891 003c 03       		.byte	0x3
 3892 003d 1D       		.byte	0x1d
 3893 003e 42000000 		.4byte	0x42
 3894 0042 03       		.uleb128 0x3
 3895 0043 01       		.byte	0x1
 3896 0044 08       		.byte	0x8
 3897 0045 0F050000 		.4byte	.LASF3
 3898 0049 02       		.uleb128 0x2
 3899 004a 40020000 		.4byte	.LASF4
 3900 004e 03       		.byte	0x3
 3901 004f 29       		.byte	0x29
 3902 0050 54000000 		.4byte	0x54
 3903 0054 03       		.uleb128 0x3
ARM GAS  C:\Users\tmj32\AppData\Local\Temp\cc8DwYg3.s 			page 99


 3904 0055 02       		.byte	0x2
 3905 0056 05       		.byte	0x5
 3906 0057 CB010000 		.4byte	.LASF5
 3907 005b 02       		.uleb128 0x2
 3908 005c 9D060000 		.4byte	.LASF6
 3909 0060 03       		.byte	0x3
 3910 0061 2B       		.byte	0x2b
 3911 0062 66000000 		.4byte	0x66
 3912 0066 03       		.uleb128 0x3
 3913 0067 02       		.byte	0x2
 3914 0068 07       		.byte	0x7
 3915 0069 3C030000 		.4byte	.LASF7
 3916 006d 03       		.uleb128 0x3
 3917 006e 04       		.byte	0x4
 3918 006f 05       		.byte	0x5
 3919 0070 98010000 		.4byte	.LASF8
 3920 0074 02       		.uleb128 0x2
 3921 0075 2B020000 		.4byte	.LASF9
 3922 0079 03       		.byte	0x3
 3923 007a 41       		.byte	0x41
 3924 007b 7F000000 		.4byte	0x7f
 3925 007f 03       		.uleb128 0x3
 3926 0080 04       		.byte	0x4
 3927 0081 07       		.byte	0x7
 3928 0082 F9020000 		.4byte	.LASF10
 3929 0086 03       		.uleb128 0x3
 3930 0087 08       		.byte	0x8
 3931 0088 05       		.byte	0x5
 3932 0089 6E010000 		.4byte	.LASF11
 3933 008d 03       		.uleb128 0x3
 3934 008e 08       		.byte	0x8
 3935 008f 07       		.byte	0x7
 3936 0090 BF000000 		.4byte	.LASF12
 3937 0094 04       		.uleb128 0x4
 3938 0095 04       		.byte	0x4
 3939 0096 05       		.byte	0x5
 3940 0097 696E7400 		.ascii	"int\000"
 3941 009b 03       		.uleb128 0x3
 3942 009c 04       		.byte	0x4
 3943 009d 07       		.byte	0x7
 3944 009e BC020000 		.4byte	.LASF13
 3945 00a2 02       		.uleb128 0x2
 3946 00a3 22070000 		.4byte	.LASF14
 3947 00a7 04       		.byte	0x4
 3948 00a8 14       		.byte	0x14
 3949 00a9 25000000 		.4byte	0x25
 3950 00ad 02       		.uleb128 0x2
 3951 00ae CC060000 		.4byte	.LASF15
 3952 00b2 04       		.byte	0x4
 3953 00b3 18       		.byte	0x18
 3954 00b4 37000000 		.4byte	0x37
 3955 00b8 02       		.uleb128 0x2
 3956 00b9 5E010000 		.4byte	.LASF16
 3957 00bd 04       		.byte	0x4
 3958 00be 20       		.byte	0x20
 3959 00bf 49000000 		.4byte	0x49
 3960 00c3 02       		.uleb128 0x2
ARM GAS  C:\Users\tmj32\AppData\Local\Temp\cc8DwYg3.s 			page 100


 3961 00c4 D1020000 		.4byte	.LASF17
 3962 00c8 04       		.byte	0x4
 3963 00c9 24       		.byte	0x24
 3964 00ca 5B000000 		.4byte	0x5b
 3965 00ce 02       		.uleb128 0x2
 3966 00cf 22060000 		.4byte	.LASF18
 3967 00d3 04       		.byte	0x4
 3968 00d4 30       		.byte	0x30
 3969 00d5 74000000 		.4byte	0x74
 3970 00d9 02       		.uleb128 0x2
 3971 00da 46010000 		.4byte	.LASF19
 3972 00de 05       		.byte	0x5
 3973 00df 3C       		.byte	0x3c
 3974 00e0 B8000000 		.4byte	0xb8
 3975 00e4 05       		.uleb128 0x5
 3976 00e5 04       		.byte	0x4
 3977 00e6 03       		.uleb128 0x3
 3978 00e7 08       		.byte	0x8
 3979 00e8 04       		.byte	0x4
 3980 00e9 20040000 		.4byte	.LASF20
 3981 00ed 06       		.uleb128 0x6
 3982 00ee 08       		.byte	0x8
 3983 00ef 06       		.byte	0x6
 3984 00f0 2E       		.byte	0x2e
 3985 00f1 3E010000 		.4byte	0x13e
 3986 00f5 07       		.uleb128 0x7
 3987 00f6 F7060000 		.4byte	.LASF21
 3988 00fa 06       		.byte	0x6
 3989 00fb 30       		.byte	0x30
 3990 00fc C3000000 		.4byte	0xc3
 3991 0100 00       		.byte	0
 3992 0101 07       		.uleb128 0x7
 3993 0102 A9070000 		.4byte	.LASF22
 3994 0106 06       		.byte	0x6
 3995 0107 31       		.byte	0x31
 3996 0108 AD000000 		.4byte	0xad
 3997 010c 02       		.byte	0x2
 3998 010d 07       		.uleb128 0x7
 3999 010e 1C070000 		.4byte	.LASF23
 4000 0112 06       		.byte	0x6
 4001 0113 32       		.byte	0x32
 4002 0114 AD000000 		.4byte	0xad
 4003 0118 03       		.byte	0x3
 4004 0119 07       		.uleb128 0x7
 4005 011a F1070000 		.4byte	.LASF24
 4006 011e 06       		.byte	0x6
 4007 011f 33       		.byte	0x33
 4008 0120 A2000000 		.4byte	0xa2
 4009 0124 04       		.byte	0x4
 4010 0125 07       		.uleb128 0x7
 4011 0126 F7070000 		.4byte	.LASF25
 4012 012a 06       		.byte	0x6
 4013 012b 34       		.byte	0x34
 4014 012c A2000000 		.4byte	0xa2
 4015 0130 05       		.byte	0x5
 4016 0131 08       		.uleb128 0x8
 4017 0132 62707000 		.ascii	"bpp\000"
ARM GAS  C:\Users\tmj32\AppData\Local\Temp\cc8DwYg3.s 			page 101


 4018 0136 06       		.byte	0x6
 4019 0137 35       		.byte	0x35
 4020 0138 AD000000 		.4byte	0xad
 4021 013c 06       		.byte	0x6
 4022 013d 00       		.byte	0
 4023 013e 02       		.uleb128 0x2
 4024 013f C0080000 		.4byte	.LASF26
 4025 0143 06       		.byte	0x6
 4026 0144 36       		.byte	0x36
 4027 0145 ED000000 		.4byte	0xed
 4028 0149 09       		.uleb128 0x9
 4029 014a C3070000 		.4byte	.LASF197
 4030 014e 10       		.byte	0x10
 4031 014f 06       		.byte	0x6
 4032 0150 44       		.byte	0x44
 4033 0151 A1010000 		.4byte	0x1a1
 4034 0155 07       		.uleb128 0x7
 4035 0156 DA020000 		.4byte	.LASF27
 4036 015a 06       		.byte	0x6
 4037 015b 47       		.byte	0x47
 4038 015c D7010000 		.4byte	0x1d7
 4039 0160 00       		.byte	0
 4040 0161 07       		.uleb128 0x7
 4041 0162 22000000 		.4byte	.LASF28
 4042 0166 06       		.byte	0x6
 4043 0167 4A       		.byte	0x4a
 4044 0168 FC010000 		.4byte	0x1fc
 4045 016c 04       		.byte	0x4
 4046 016d 07       		.uleb128 0x7
 4047 016e 59030000 		.4byte	.LASF29
 4048 0172 06       		.byte	0x6
 4049 0173 4D       		.byte	0x4d
 4050 0174 AD000000 		.4byte	0xad
 4051 0178 08       		.byte	0x8
 4052 0179 07       		.uleb128 0x7
 4053 017a E7040000 		.4byte	.LASF30
 4054 017e 06       		.byte	0x6
 4055 017f 4E       		.byte	0x4e
 4056 0180 A2000000 		.4byte	0xa2
 4057 0184 09       		.byte	0x9
 4058 0185 0A       		.uleb128 0xa
 4059 0186 6A030000 		.4byte	.LASF85
 4060 018a 06       		.byte	0x6
 4061 018b 4F       		.byte	0x4f
 4062 018c AD000000 		.4byte	0xad
 4063 0190 01       		.byte	0x1
 4064 0191 02       		.byte	0x2
 4065 0192 06       		.byte	0x6
 4066 0193 0A       		.byte	0xa
 4067 0194 08       		.uleb128 0x8
 4068 0195 64736300 		.ascii	"dsc\000"
 4069 0199 06       		.byte	0x6
 4070 019a 50       		.byte	0x50
 4071 019b E4000000 		.4byte	0xe4
 4072 019f 0C       		.byte	0xc
 4073 01a0 00       		.byte	0
 4074 01a1 0B       		.uleb128 0xb
ARM GAS  C:\Users\tmj32\AppData\Local\Temp\cc8DwYg3.s 			page 102


 4075 01a2 BF010000 		.4byte	0x1bf
 4076 01a6 BF010000 		.4byte	0x1bf
 4077 01aa 0C       		.uleb128 0xc
 4078 01ab C6010000 		.4byte	0x1c6
 4079 01af 0C       		.uleb128 0xc
 4080 01b0 D1010000 		.4byte	0x1d1
 4081 01b4 0C       		.uleb128 0xc
 4082 01b5 CE000000 		.4byte	0xce
 4083 01b9 0C       		.uleb128 0xc
 4084 01ba CE000000 		.4byte	0xce
 4085 01be 00       		.byte	0
 4086 01bf 03       		.uleb128 0x3
 4087 01c0 01       		.byte	0x1
 4088 01c1 02       		.byte	0x2
 4089 01c2 09050000 		.4byte	.LASF31
 4090 01c6 0D       		.uleb128 0xd
 4091 01c7 04       		.byte	0x4
 4092 01c8 CC010000 		.4byte	0x1cc
 4093 01cc 0E       		.uleb128 0xe
 4094 01cd 49010000 		.4byte	0x149
 4095 01d1 0D       		.uleb128 0xd
 4096 01d2 04       		.byte	0x4
 4097 01d3 3E010000 		.4byte	0x13e
 4098 01d7 0D       		.uleb128 0xd
 4099 01d8 04       		.byte	0x4
 4100 01d9 A1010000 		.4byte	0x1a1
 4101 01dd 0B       		.uleb128 0xb
 4102 01de F1010000 		.4byte	0x1f1
 4103 01e2 F1010000 		.4byte	0x1f1
 4104 01e6 0C       		.uleb128 0xc
 4105 01e7 C6010000 		.4byte	0x1c6
 4106 01eb 0C       		.uleb128 0xc
 4107 01ec CE000000 		.4byte	0xce
 4108 01f0 00       		.byte	0
 4109 01f1 0D       		.uleb128 0xd
 4110 01f2 04       		.byte	0x4
 4111 01f3 F7010000 		.4byte	0x1f7
 4112 01f7 0E       		.uleb128 0xe
 4113 01f8 AD000000 		.4byte	0xad
 4114 01fc 0D       		.uleb128 0xd
 4115 01fd 04       		.byte	0x4
 4116 01fe DD010000 		.4byte	0x1dd
 4117 0202 02       		.uleb128 0x2
 4118 0203 D6000000 		.4byte	.LASF32
 4119 0207 06       		.byte	0x6
 4120 0208 56       		.byte	0x56
 4121 0209 49010000 		.4byte	0x149
 4122 020d 0F       		.uleb128 0xf
 4123 020e 01       		.byte	0x1
 4124 020f 42000000 		.4byte	0x42
 4125 0213 01       		.byte	0x1
 4126 0214 3E       		.byte	0x3e
 4127 0215 68020000 		.4byte	0x268
 4128 0219 10       		.uleb128 0x10
 4129 021a 12040000 		.4byte	.LASF33
 4130 021e 00       		.byte	0
 4131 021f 10       		.uleb128 0x10
ARM GAS  C:\Users\tmj32\AppData\Local\Temp\cc8DwYg3.s 			page 103


 4132 0220 F4010000 		.4byte	.LASF34
 4133 0224 00       		.byte	0
 4134 0225 10       		.uleb128 0x10
 4135 0226 FF040000 		.4byte	.LASF35
 4136 022a 19       		.byte	0x19
 4137 022b 10       		.uleb128 0x10
 4138 022c 89060000 		.4byte	.LASF36
 4139 0230 33       		.byte	0x33
 4140 0231 10       		.uleb128 0x10
 4141 0232 5A000000 		.4byte	.LASF37
 4142 0236 4C       		.byte	0x4c
 4143 0237 10       		.uleb128 0x10
 4144 0238 50000000 		.4byte	.LASF38
 4145 023c 66       		.byte	0x66
 4146 023d 10       		.uleb128 0x10
 4147 023e 65040000 		.4byte	.LASF39
 4148 0242 7F       		.byte	0x7f
 4149 0243 10       		.uleb128 0x10
 4150 0244 36020000 		.4byte	.LASF40
 4151 0248 99       		.byte	0x99
 4152 0249 10       		.uleb128 0x10
 4153 024a 7E030000 		.4byte	.LASF41
 4154 024e B2       		.byte	0xb2
 4155 024f 10       		.uleb128 0x10
 4156 0250 5B040000 		.4byte	.LASF42
 4157 0254 CC       		.byte	0xcc
 4158 0255 10       		.uleb128 0x10
 4159 0256 51050000 		.4byte	.LASF43
 4160 025a E5       		.byte	0xe5
 4161 025b 10       		.uleb128 0x10
 4162 025c EC060000 		.4byte	.LASF44
 4163 0260 FF       		.byte	0xff
 4164 0261 10       		.uleb128 0x10
 4165 0262 E7010000 		.4byte	.LASF45
 4166 0266 FF       		.byte	0xff
 4167 0267 00       		.byte	0
 4168 0268 06       		.uleb128 0x6
 4169 0269 04       		.byte	0x4
 4170 026a 01       		.byte	0x1
 4171 026b F3       		.byte	0xf3
 4172 026c A1020000 		.4byte	0x2a1
 4173 0270 07       		.uleb128 0x7
 4174 0271 68060000 		.4byte	.LASF46
 4175 0275 01       		.byte	0x1
 4176 0276 F5       		.byte	0xf5
 4177 0277 AD000000 		.4byte	0xad
 4178 027b 00       		.byte	0
 4179 027c 07       		.uleb128 0x7
 4180 027d 8D070000 		.4byte	.LASF47
 4181 0281 01       		.byte	0x1
 4182 0282 F6       		.byte	0xf6
 4183 0283 AD000000 		.4byte	0xad
 4184 0287 01       		.byte	0x1
 4185 0288 08       		.uleb128 0x8
 4186 0289 72656400 		.ascii	"red\000"
 4187 028d 01       		.byte	0x1
 4188 028e F7       		.byte	0xf7
ARM GAS  C:\Users\tmj32\AppData\Local\Temp\cc8DwYg3.s 			page 104


 4189 028f AD000000 		.4byte	0xad
 4190 0293 02       		.byte	0x2
 4191 0294 07       		.uleb128 0x7
 4192 0295 88010000 		.4byte	.LASF48
 4193 0299 01       		.byte	0x1
 4194 029a F8       		.byte	0xf8
 4195 029b AD000000 		.4byte	0xad
 4196 029f 03       		.byte	0x3
 4197 02a0 00       		.byte	0
 4198 02a1 11       		.uleb128 0x11
 4199 02a2 04       		.byte	0x4
 4200 02a3 01       		.byte	0x1
 4201 02a4 F1       		.byte	0xf1
 4202 02a5 BF020000 		.4byte	0x2bf
 4203 02a9 12       		.uleb128 0x12
 4204 02aa 636800   		.ascii	"ch\000"
 4205 02ad 01       		.byte	0x1
 4206 02ae F9       		.byte	0xf9
 4207 02af 68020000 		.4byte	0x268
 4208 02b3 13       		.uleb128 0x13
 4209 02b4 2C040000 		.4byte	.LASF49
 4210 02b8 01       		.byte	0x1
 4211 02b9 FA       		.byte	0xfa
 4212 02ba CE000000 		.4byte	0xce
 4213 02be 00       		.byte	0
 4214 02bf 02       		.uleb128 0x2
 4215 02c0 12010000 		.4byte	.LASF50
 4216 02c4 01       		.byte	0x1
 4217 02c5 FB       		.byte	0xfb
 4218 02c6 A1020000 		.4byte	0x2a1
 4219 02ca 14       		.uleb128 0x14
 4220 02cb DA060000 		.4byte	.LASF51
 4221 02cf 01       		.byte	0x1
 4222 02d0 0801     		.2byte	0x108
 4223 02d2 BF020000 		.4byte	0x2bf
 4224 02d6 14       		.uleb128 0x14
 4225 02d7 CD030000 		.4byte	.LASF52
 4226 02db 01       		.byte	0x1
 4227 02dc 0D01     		.2byte	0x10d
 4228 02de AD000000 		.4byte	0xad
 4229 02e2 03       		.uleb128 0x3
 4230 02e3 04       		.byte	0x4
 4231 02e4 07       		.byte	0x7
 4232 02e5 FC030000 		.4byte	.LASF53
 4233 02e9 03       		.uleb128 0x3
 4234 02ea 01       		.byte	0x1
 4235 02eb 08       		.byte	0x8
 4236 02ec 7C060000 		.4byte	.LASF54
 4237 02f0 0F       		.uleb128 0xf
 4238 02f1 01       		.byte	0x1
 4239 02f2 42000000 		.4byte	0x42
 4240 02f6 07       		.byte	0x7
 4241 02f7 23       		.byte	0x23
 4242 02f8 27030000 		.4byte	0x327
 4243 02fc 10       		.uleb128 0x10
 4244 02fd 4A020000 		.4byte	.LASF55
 4245 0301 00       		.byte	0
ARM GAS  C:\Users\tmj32\AppData\Local\Temp\cc8DwYg3.s 			page 105


 4246 0302 10       		.uleb128 0x10
 4247 0303 41040000 		.4byte	.LASF56
 4248 0307 01       		.byte	0x1
 4249 0308 10       		.uleb128 0x10
 4250 0309 F1040000 		.4byte	.LASF57
 4251 030d 02       		.byte	0x2
 4252 030e 10       		.uleb128 0x10
 4253 030f 40070000 		.4byte	.LASF58
 4254 0313 04       		.byte	0x4
 4255 0314 10       		.uleb128 0x10
 4256 0315 AE060000 		.4byte	.LASF59
 4257 0319 08       		.byte	0x8
 4258 031a 10       		.uleb128 0x10
 4259 031b 31070000 		.4byte	.LASF60
 4260 031f 0F       		.byte	0xf
 4261 0320 10       		.uleb128 0x10
 4262 0321 33000000 		.4byte	.LASF61
 4263 0325 10       		.byte	0x10
 4264 0326 00       		.byte	0
 4265 0327 02       		.uleb128 0x2
 4266 0328 E0070000 		.4byte	.LASF62
 4267 032c 07       		.byte	0x7
 4268 032d 2C       		.byte	0x2c
 4269 032e AD000000 		.4byte	0xad
 4270 0332 0F       		.uleb128 0xf
 4271 0333 01       		.byte	0x1
 4272 0334 42000000 		.4byte	0x42
 4273 0338 07       		.byte	0x7
 4274 0339 2F       		.byte	0x2f
 4275 033a 4B030000 		.4byte	0x34b
 4276 033e 10       		.uleb128 0x10
 4277 033f 67070000 		.4byte	.LASF63
 4278 0343 00       		.byte	0
 4279 0344 10       		.uleb128 0x10
 4280 0345 9E000000 		.4byte	.LASF64
 4281 0349 01       		.byte	0x1
 4282 034a 00       		.byte	0
 4283 034b 02       		.uleb128 0x2
 4284 034c BC040000 		.4byte	.LASF65
 4285 0350 07       		.byte	0x7
 4286 0351 33       		.byte	0x33
 4287 0352 AD000000 		.4byte	0xad
 4288 0356 06       		.uleb128 0x6
 4289 0357 08       		.byte	0x8
 4290 0358 07       		.byte	0x7
 4291 0359 48       		.byte	0x48
 4292 035a 8F030000 		.4byte	0x38f
 4293 035e 07       		.uleb128 0x7
 4294 035f 76060000 		.4byte	.LASF66
 4295 0363 07       		.byte	0x7
 4296 0364 4A       		.byte	0x4a
 4297 0365 CA020000 		.4byte	0x2ca
 4298 0369 00       		.byte	0
 4299 036a 07       		.uleb128 0x7
 4300 036b 18030000 		.4byte	.LASF67
 4301 036f 07       		.byte	0x7
 4302 0370 4B       		.byte	0x4b
ARM GAS  C:\Users\tmj32\AppData\Local\Temp\cc8DwYg3.s 			page 106


 4303 0371 D9000000 		.4byte	0xd9
 4304 0375 04       		.byte	0x4
 4305 0376 07       		.uleb128 0x7
 4306 0377 64050000 		.4byte	.LASF68
 4307 037b 07       		.byte	0x7
 4308 037c 4C       		.byte	0x4c
 4309 037d 27030000 		.4byte	0x327
 4310 0381 06       		.byte	0x6
 4311 0382 08       		.uleb128 0x8
 4312 0383 6F706100 		.ascii	"opa\000"
 4313 0387 07       		.byte	0x7
 4314 0388 4D       		.byte	0x4d
 4315 0389 D6020000 		.4byte	0x2d6
 4316 038d 07       		.byte	0x7
 4317 038e 00       		.byte	0
 4318 038f 06       		.uleb128 0x6
 4319 0390 08       		.byte	0x8
 4320 0391 07       		.byte	0x7
 4321 0392 51       		.byte	0x51
 4322 0393 BC030000 		.4byte	0x3bc
 4323 0397 07       		.uleb128 0x7
 4324 0398 76060000 		.4byte	.LASF66
 4325 039c 07       		.byte	0x7
 4326 039d 53       		.byte	0x53
 4327 039e CA020000 		.4byte	0x2ca
 4328 03a2 00       		.byte	0
 4329 03a3 07       		.uleb128 0x7
 4330 03a4 18030000 		.4byte	.LASF67
 4331 03a8 07       		.byte	0x7
 4332 03a9 54       		.byte	0x54
 4333 03aa D9000000 		.4byte	0xd9
 4334 03ae 04       		.byte	0x4
 4335 03af 07       		.uleb128 0x7
 4336 03b0 99000000 		.4byte	.LASF69
 4337 03b4 07       		.byte	0x7
 4338 03b5 55       		.byte	0x55
 4339 03b6 4B030000 		.4byte	0x34b
 4340 03ba 06       		.byte	0x6
 4341 03bb 00       		.byte	0
 4342 03bc 06       		.uleb128 0x6
 4343 03bd 0A       		.byte	0xa
 4344 03be 07       		.byte	0x7
 4345 03bf 58       		.byte	0x58
 4346 03c0 01040000 		.4byte	0x401
 4347 03c4 08       		.uleb128 0x8
 4348 03c5 746F7000 		.ascii	"top\000"
 4349 03c9 07       		.byte	0x7
 4350 03ca 5A       		.byte	0x5a
 4351 03cb D9000000 		.4byte	0xd9
 4352 03cf 00       		.byte	0
 4353 03d0 07       		.uleb128 0x7
 4354 03d1 FD010000 		.4byte	.LASF70
 4355 03d5 07       		.byte	0x7
 4356 03d6 5B       		.byte	0x5b
 4357 03d7 D9000000 		.4byte	0xd9
 4358 03db 02       		.byte	0x2
 4359 03dc 07       		.uleb128 0x7
ARM GAS  C:\Users\tmj32\AppData\Local\Temp\cc8DwYg3.s 			page 107


 4360 03dd F1080000 		.4byte	.LASF71
 4361 03e1 07       		.byte	0x7
 4362 03e2 5C       		.byte	0x5c
 4363 03e3 D9000000 		.4byte	0xd9
 4364 03e7 04       		.byte	0x4
 4365 03e8 07       		.uleb128 0x7
 4366 03e9 58010000 		.4byte	.LASF72
 4367 03ed 07       		.byte	0x7
 4368 03ee 5D       		.byte	0x5d
 4369 03ef D9000000 		.4byte	0xd9
 4370 03f3 06       		.byte	0x6
 4371 03f4 07       		.uleb128 0x7
 4372 03f5 D4080000 		.4byte	.LASF73
 4373 03f9 07       		.byte	0x7
 4374 03fa 5E       		.byte	0x5e
 4375 03fb D9000000 		.4byte	0xd9
 4376 03ff 08       		.byte	0x8
 4377 0400 00       		.byte	0
 4378 0401 06       		.uleb128 0x6
 4379 0402 28       		.byte	0x28
 4380 0403 07       		.byte	0x7
 4381 0404 41       		.byte	0x41
 4382 0405 5E040000 		.4byte	0x45e
 4383 0409 07       		.uleb128 0x7
 4384 040a B3010000 		.4byte	.LASF74
 4385 040e 07       		.byte	0x7
 4386 040f 43       		.byte	0x43
 4387 0410 CA020000 		.4byte	0x2ca
 4388 0414 00       		.byte	0
 4389 0415 07       		.uleb128 0x7
 4390 0416 69050000 		.4byte	.LASF75
 4391 041a 07       		.byte	0x7
 4392 041b 44       		.byte	0x44
 4393 041c CA020000 		.4byte	0x2ca
 4394 0420 04       		.byte	0x4
 4395 0421 07       		.uleb128 0x7
 4396 0422 D6030000 		.4byte	.LASF76
 4397 0426 07       		.byte	0x7
 4398 0427 45       		.byte	0x45
 4399 0428 D9000000 		.4byte	0xd9
 4400 042c 08       		.byte	0x8
 4401 042d 08       		.uleb128 0x8
 4402 042e 6F706100 		.ascii	"opa\000"
 4403 0432 07       		.byte	0x7
 4404 0433 46       		.byte	0x46
 4405 0434 D6020000 		.4byte	0x2d6
 4406 0438 0A       		.byte	0xa
 4407 0439 07       		.uleb128 0x7
 4408 043a 28050000 		.4byte	.LASF77
 4409 043e 07       		.byte	0x7
 4410 043f 4E       		.byte	0x4e
 4411 0440 56030000 		.4byte	0x356
 4412 0444 0C       		.byte	0xc
 4413 0445 07       		.uleb128 0x7
 4414 0446 2F050000 		.4byte	.LASF78
 4415 044a 07       		.byte	0x7
 4416 044b 56       		.byte	0x56
ARM GAS  C:\Users\tmj32\AppData\Local\Temp\cc8DwYg3.s 			page 108


 4417 044c 8F030000 		.4byte	0x38f
 4418 0450 14       		.byte	0x14
 4419 0451 07       		.uleb128 0x7
 4420 0452 0E000000 		.4byte	.LASF79
 4421 0456 07       		.byte	0x7
 4422 0457 5F       		.byte	0x5f
 4423 0458 BC030000 		.4byte	0x3bc
 4424 045c 1C       		.byte	0x1c
 4425 045d 00       		.byte	0
 4426 045e 06       		.uleb128 0x6
 4427 045f 14       		.byte	0x14
 4428 0460 07       		.byte	0x7
 4429 0461 63       		.byte	0x63
 4430 0462 AF040000 		.4byte	0x4af
 4431 0466 07       		.uleb128 0x7
 4432 0467 76060000 		.4byte	.LASF66
 4433 046b 07       		.byte	0x7
 4434 046c 65       		.byte	0x65
 4435 046d CA020000 		.4byte	0x2ca
 4436 0471 00       		.byte	0
 4437 0472 07       		.uleb128 0x7
 4438 0473 E4030000 		.4byte	.LASF80
 4439 0477 07       		.byte	0x7
 4440 0478 66       		.byte	0x66
 4441 0479 CA020000 		.4byte	0x2ca
 4442 047d 04       		.byte	0x4
 4443 047e 07       		.uleb128 0x7
 4444 047f 88070000 		.4byte	.LASF81
 4445 0483 07       		.byte	0x7
 4446 0484 67       		.byte	0x67
 4447 0485 AF040000 		.4byte	0x4af
 4448 0489 08       		.byte	0x8
 4449 048a 07       		.uleb128 0x7
 4450 048b AF040000 		.4byte	.LASF82
 4451 048f 07       		.byte	0x7
 4452 0490 68       		.byte	0x68
 4453 0491 D9000000 		.4byte	0xd9
 4454 0495 0C       		.byte	0xc
 4455 0496 07       		.uleb128 0x7
 4456 0497 EC000000 		.4byte	.LASF83
 4457 049b 07       		.byte	0x7
 4458 049c 69       		.byte	0x69
 4459 049d D9000000 		.4byte	0xd9
 4460 04a1 0E       		.byte	0xe
 4461 04a2 08       		.uleb128 0x8
 4462 04a3 6F706100 		.ascii	"opa\000"
 4463 04a7 07       		.byte	0x7
 4464 04a8 6A       		.byte	0x6a
 4465 04a9 D6020000 		.4byte	0x2d6
 4466 04ad 10       		.byte	0x10
 4467 04ae 00       		.byte	0
 4468 04af 0D       		.uleb128 0xd
 4469 04b0 04       		.byte	0x4
 4470 04b1 B5040000 		.4byte	0x4b5
 4471 04b5 0E       		.uleb128 0xe
 4472 04b6 02020000 		.4byte	0x202
 4473 04ba 06       		.uleb128 0x6
ARM GAS  C:\Users\tmj32\AppData\Local\Temp\cc8DwYg3.s 			page 109


 4474 04bb 08       		.byte	0x8
 4475 04bc 07       		.byte	0x7
 4476 04bd 6E       		.byte	0x6e
 4477 04be E7040000 		.4byte	0x4e7
 4478 04c2 07       		.uleb128 0x7
 4479 04c3 76060000 		.4byte	.LASF66
 4480 04c7 07       		.byte	0x7
 4481 04c8 70       		.byte	0x70
 4482 04c9 CA020000 		.4byte	0x2ca
 4483 04cd 00       		.byte	0
 4484 04ce 07       		.uleb128 0x7
 4485 04cf 93070000 		.4byte	.LASF84
 4486 04d3 07       		.byte	0x7
 4487 04d4 71       		.byte	0x71
 4488 04d5 D6020000 		.4byte	0x2d6
 4489 04d9 04       		.byte	0x4
 4490 04da 08       		.uleb128 0x8
 4491 04db 6F706100 		.ascii	"opa\000"
 4492 04df 07       		.byte	0x7
 4493 04e0 72       		.byte	0x72
 4494 04e1 D6020000 		.4byte	0x2d6
 4495 04e5 05       		.byte	0x5
 4496 04e6 00       		.byte	0
 4497 04e7 06       		.uleb128 0x6
 4498 04e8 08       		.byte	0x8
 4499 04e9 07       		.byte	0x7
 4500 04ea 76       		.byte	0x76
 4501 04eb 23050000 		.4byte	0x523
 4502 04ef 07       		.uleb128 0x7
 4503 04f0 76060000 		.4byte	.LASF66
 4504 04f4 07       		.byte	0x7
 4505 04f5 78       		.byte	0x78
 4506 04f6 CA020000 		.4byte	0x2ca
 4507 04fa 00       		.byte	0
 4508 04fb 07       		.uleb128 0x7
 4509 04fc 18030000 		.4byte	.LASF67
 4510 0500 07       		.byte	0x7
 4511 0501 79       		.byte	0x79
 4512 0502 D9000000 		.4byte	0xd9
 4513 0506 04       		.byte	0x4
 4514 0507 08       		.uleb128 0x8
 4515 0508 6F706100 		.ascii	"opa\000"
 4516 050c 07       		.byte	0x7
 4517 050d 7A       		.byte	0x7a
 4518 050e D6020000 		.4byte	0x2d6
 4519 0512 06       		.byte	0x6
 4520 0513 0A       		.uleb128 0xa
 4521 0514 6F040000 		.4byte	.LASF86
 4522 0518 07       		.byte	0x7
 4523 0519 7B       		.byte	0x7b
 4524 051a AD000000 		.4byte	0xad
 4525 051e 01       		.byte	0x1
 4526 051f 01       		.byte	0x1
 4527 0520 07       		.byte	0x7
 4528 0521 07       		.byte	0x7
 4529 0522 00       		.byte	0
 4530 0523 06       		.uleb128 0x6
ARM GAS  C:\Users\tmj32\AppData\Local\Temp\cc8DwYg3.s 			page 110


 4531 0524 50       		.byte	0x50
 4532 0525 07       		.byte	0x7
 4533 0526 3C       		.byte	0x3c
 4534 0527 6B050000 		.4byte	0x56b
 4535 052b 0A       		.uleb128 0xa
 4536 052c 1F010000 		.4byte	.LASF87
 4537 0530 07       		.byte	0x7
 4538 0531 3E       		.byte	0x3e
 4539 0532 AD000000 		.4byte	0xad
 4540 0536 01       		.byte	0x1
 4541 0537 01       		.byte	0x1
 4542 0538 07       		.byte	0x7
 4543 0539 00       		.byte	0
 4544 053a 07       		.uleb128 0x7
 4545 053b 8E010000 		.4byte	.LASF88
 4546 053f 07       		.byte	0x7
 4547 0540 60       		.byte	0x60
 4548 0541 01040000 		.4byte	0x401
 4549 0545 04       		.byte	0x4
 4550 0546 07       		.uleb128 0x7
 4551 0547 04010000 		.4byte	.LASF89
 4552 054b 07       		.byte	0x7
 4553 054c 6B       		.byte	0x6b
 4554 054d 5E040000 		.4byte	0x45e
 4555 0551 2C       		.byte	0x2c
 4556 0552 07       		.uleb128 0x7
 4557 0553 36050000 		.4byte	.LASF90
 4558 0557 07       		.byte	0x7
 4559 0558 73       		.byte	0x73
 4560 0559 BA040000 		.4byte	0x4ba
 4561 055d 40       		.byte	0x40
 4562 055e 07       		.uleb128 0x7
 4563 055f E8020000 		.4byte	.LASF91
 4564 0563 07       		.byte	0x7
 4565 0564 7C       		.byte	0x7c
 4566 0565 E7040000 		.4byte	0x4e7
 4567 0569 48       		.byte	0x48
 4568 056a 00       		.byte	0
 4569 056b 02       		.uleb128 0x2
 4570 056c 1D050000 		.4byte	.LASF92
 4571 0570 07       		.byte	0x7
 4572 0571 84       		.byte	0x84
 4573 0572 23050000 		.4byte	0x523
 4574 0576 0D       		.uleb128 0xd
 4575 0577 04       		.byte	0x4
 4576 0578 6B050000 		.4byte	0x56b
 4577 057c 06       		.uleb128 0x6
 4578 057d 14       		.byte	0x14
 4579 057e 08       		.byte	0x8
 4580 057f 34       		.byte	0x34
 4581 0580 C0050000 		.4byte	0x5c0
 4582 0584 08       		.uleb128 0x8
 4583 0585 72656C00 		.ascii	"rel\000"
 4584 0589 08       		.byte	0x8
 4585 058a 36       		.byte	0x36
 4586 058b 76050000 		.4byte	0x576
 4587 058f 00       		.byte	0
ARM GAS  C:\Users\tmj32\AppData\Local\Temp\cc8DwYg3.s 			page 111


 4588 0590 08       		.uleb128 0x8
 4589 0591 707200   		.ascii	"pr\000"
 4590 0594 08       		.byte	0x8
 4591 0595 37       		.byte	0x37
 4592 0596 76050000 		.4byte	0x576
 4593 059a 04       		.byte	0x4
 4594 059b 07       		.uleb128 0x7
 4595 059c EE030000 		.4byte	.LASF93
 4596 05a0 08       		.byte	0x8
 4597 05a1 38       		.byte	0x38
 4598 05a2 76050000 		.4byte	0x576
 4599 05a6 08       		.byte	0x8
 4600 05a7 07       		.uleb128 0x7
 4601 05a8 61060000 		.4byte	.LASF94
 4602 05ac 08       		.byte	0x8
 4603 05ad 39       		.byte	0x39
 4604 05ae 76050000 		.4byte	0x576
 4605 05b2 0C       		.byte	0xc
 4606 05b3 08       		.uleb128 0x8
 4607 05b4 696E6100 		.ascii	"ina\000"
 4608 05b8 08       		.byte	0x8
 4609 05b9 3A       		.byte	0x3a
 4610 05ba 76050000 		.4byte	0x576
 4611 05be 10       		.byte	0x10
 4612 05bf 00       		.byte	0
 4613 05c0 06       		.uleb128 0x6
 4614 05c1 14       		.byte	0x14
 4615 05c2 08       		.byte	0x8
 4616 05c3 3F       		.byte	0x3f
 4617 05c4 04060000 		.4byte	0x604
 4618 05c8 08       		.uleb128 0x8
 4619 05c9 72656C00 		.ascii	"rel\000"
 4620 05cd 08       		.byte	0x8
 4621 05ce 41       		.byte	0x41
 4622 05cf 76050000 		.4byte	0x576
 4623 05d3 00       		.byte	0
 4624 05d4 08       		.uleb128 0x8
 4625 05d5 707200   		.ascii	"pr\000"
 4626 05d8 08       		.byte	0x8
 4627 05d9 42       		.byte	0x42
 4628 05da 76050000 		.4byte	0x576
 4629 05de 04       		.byte	0x4
 4630 05df 07       		.uleb128 0x7
 4631 05e0 EE030000 		.4byte	.LASF93
 4632 05e4 08       		.byte	0x8
 4633 05e5 43       		.byte	0x43
 4634 05e6 76050000 		.4byte	0x576
 4635 05ea 08       		.byte	0x8
 4636 05eb 07       		.uleb128 0x7
 4637 05ec 61060000 		.4byte	.LASF94
 4638 05f0 08       		.byte	0x8
 4639 05f1 44       		.byte	0x44
 4640 05f2 76050000 		.4byte	0x576
 4641 05f6 0C       		.byte	0xc
 4642 05f7 08       		.uleb128 0x8
 4643 05f8 696E6100 		.ascii	"ina\000"
 4644 05fc 08       		.byte	0x8
ARM GAS  C:\Users\tmj32\AppData\Local\Temp\cc8DwYg3.s 			page 112


 4645 05fd 45       		.byte	0x45
 4646 05fe 76050000 		.4byte	0x576
 4647 0602 10       		.byte	0x10
 4648 0603 00       		.byte	0
 4649 0604 06       		.uleb128 0x6
 4650 0605 0C       		.byte	0xc
 4651 0606 08       		.byte	0x8
 4652 0607 4A       		.byte	0x4a
 4653 0608 31060000 		.4byte	0x631
 4654 060c 07       		.uleb128 0x7
 4655 060d 8B040000 		.4byte	.LASF95
 4656 0611 08       		.byte	0x8
 4657 0612 4C       		.byte	0x4c
 4658 0613 76050000 		.4byte	0x576
 4659 0617 00       		.byte	0
 4660 0618 08       		.uleb128 0x8
 4661 0619 73656300 		.ascii	"sec\000"
 4662 061d 08       		.byte	0x8
 4663 061e 4D       		.byte	0x4d
 4664 061f 76050000 		.4byte	0x576
 4665 0623 04       		.byte	0x4
 4666 0624 07       		.uleb128 0x7
 4667 0625 4D060000 		.4byte	.LASF96
 4668 0629 08       		.byte	0x8
 4669 062a 4E       		.byte	0x4e
 4670 062b 76050000 		.4byte	0x576
 4671 062f 08       		.byte	0x8
 4672 0630 00       		.byte	0
 4673 0631 06       		.uleb128 0x6
 4674 0632 08       		.byte	0x8
 4675 0633 08       		.byte	0x8
 4676 0634 53       		.byte	0x53
 4677 0635 52060000 		.4byte	0x652
 4678 0639 07       		.uleb128 0x7
 4679 063a 7F000000 		.4byte	.LASF97
 4680 063e 08       		.byte	0x8
 4681 063f 55       		.byte	0x55
 4682 0640 76050000 		.4byte	0x576
 4683 0644 00       		.byte	0
 4684 0645 07       		.uleb128 0x7
 4685 0646 E2040000 		.4byte	.LASF98
 4686 064a 08       		.byte	0x8
 4687 064b 56       		.byte	0x56
 4688 064c 76050000 		.4byte	0x576
 4689 0650 04       		.byte	0x4
 4690 0651 00       		.byte	0
 4691 0652 06       		.uleb128 0x6
 4692 0653 04       		.byte	0x4
 4693 0654 08       		.byte	0x8
 4694 0655 5B       		.byte	0x5b
 4695 0656 67060000 		.4byte	0x667
 4696 065a 07       		.uleb128 0x7
 4697 065b 74050000 		.4byte	.LASF99
 4698 065f 08       		.byte	0x8
 4699 0660 5D       		.byte	0x5d
 4700 0661 76050000 		.4byte	0x576
 4701 0665 00       		.byte	0
ARM GAS  C:\Users\tmj32\AppData\Local\Temp\cc8DwYg3.s 			page 113


 4702 0666 00       		.byte	0
 4703 0667 06       		.uleb128 0x6
 4704 0668 08       		.byte	0x8
 4705 0669 08       		.byte	0x8
 4706 066a 66       		.byte	0x66
 4707 066b 87060000 		.4byte	0x687
 4708 066f 08       		.uleb128 0x8
 4709 0670 626700   		.ascii	"bg\000"
 4710 0673 08       		.byte	0x8
 4711 0674 68       		.byte	0x68
 4712 0675 76050000 		.4byte	0x576
 4713 0679 00       		.byte	0
 4714 067a 07       		.uleb128 0x7
 4715 067b 04020000 		.4byte	.LASF100
 4716 067f 08       		.byte	0x8
 4717 0680 69       		.byte	0x69
 4718 0681 76050000 		.4byte	0x576
 4719 0685 04       		.byte	0x4
 4720 0686 00       		.byte	0
 4721 0687 06       		.uleb128 0x6
 4722 0688 0C       		.byte	0xc
 4723 0689 08       		.byte	0x8
 4724 068a 6E       		.byte	0x6e
 4725 068b B3060000 		.4byte	0x6b3
 4726 068f 08       		.uleb128 0x8
 4727 0690 626700   		.ascii	"bg\000"
 4728 0693 08       		.byte	0x8
 4729 0694 70       		.byte	0x70
 4730 0695 76050000 		.4byte	0x576
 4731 0699 00       		.byte	0
 4732 069a 07       		.uleb128 0x7
 4733 069b 04020000 		.4byte	.LASF100
 4734 069f 08       		.byte	0x8
 4735 06a0 71       		.byte	0x71
 4736 06a1 76050000 		.4byte	0x576
 4737 06a5 04       		.byte	0x4
 4738 06a6 07       		.uleb128 0x7
 4739 06a7 DD040000 		.4byte	.LASF101
 4740 06ab 08       		.byte	0x8
 4741 06ac 72       		.byte	0x72
 4742 06ad 76050000 		.4byte	0x576
 4743 06b1 08       		.byte	0x8
 4744 06b2 00       		.byte	0
 4745 06b3 06       		.uleb128 0x6
 4746 06b4 10       		.byte	0x10
 4747 06b5 08       		.byte	0x8
 4748 06b6 87       		.byte	0x87
 4749 06b7 EB060000 		.4byte	0x6eb
 4750 06bb 08       		.uleb128 0x8
 4751 06bc 626700   		.ascii	"bg\000"
 4752 06bf 08       		.byte	0x8
 4753 06c0 89       		.byte	0x89
 4754 06c1 76050000 		.4byte	0x576
 4755 06c5 00       		.byte	0
 4756 06c6 07       		.uleb128 0x7
 4757 06c7 04020000 		.4byte	.LASF100
 4758 06cb 08       		.byte	0x8
ARM GAS  C:\Users\tmj32\AppData\Local\Temp\cc8DwYg3.s 			page 114


 4759 06cc 8A       		.byte	0x8a
 4760 06cd 76050000 		.4byte	0x576
 4761 06d1 04       		.byte	0x4
 4762 06d2 07       		.uleb128 0x7
 4763 06d3 55070000 		.4byte	.LASF102
 4764 06d7 08       		.byte	0x8
 4765 06d8 8B       		.byte	0x8b
 4766 06d9 76050000 		.4byte	0x576
 4767 06dd 08       		.byte	0x8
 4768 06de 07       		.uleb128 0x7
 4769 06df B4020000 		.4byte	.LASF103
 4770 06e3 08       		.byte	0x8
 4771 06e4 8C       		.byte	0x8c
 4772 06e5 76050000 		.4byte	0x576
 4773 06e9 0C       		.byte	0xc
 4774 06ea 00       		.byte	0
 4775 06eb 06       		.uleb128 0x6
 4776 06ec 20       		.byte	0x20
 4777 06ed 08       		.byte	0x8
 4778 06ee 95       		.byte	0x95
 4779 06ef 53070000 		.4byte	0x753
 4780 06f3 08       		.uleb128 0x8
 4781 06f4 626700   		.ascii	"bg\000"
 4782 06f7 08       		.byte	0x8
 4783 06f8 97       		.byte	0x97
 4784 06f9 76050000 		.4byte	0x576
 4785 06fd 00       		.byte	0
 4786 06fe 07       		.uleb128 0x7
 4787 06ff FE080000 		.4byte	.LASF104
 4788 0703 08       		.byte	0x8
 4789 0704 98       		.byte	0x98
 4790 0705 76050000 		.4byte	0x576
 4791 0709 04       		.byte	0x4
 4792 070a 07       		.uleb128 0x7
 4793 070b 08070000 		.4byte	.LASF105
 4794 070f 08       		.byte	0x8
 4795 0710 99       		.byte	0x99
 4796 0711 76050000 		.4byte	0x576
 4797 0715 08       		.byte	0x8
 4798 0716 07       		.uleb128 0x7
 4799 0717 88030000 		.4byte	.LASF106
 4800 071b 08       		.byte	0x8
 4801 071c 9A       		.byte	0x9a
 4802 071d 76050000 		.4byte	0x576
 4803 0721 0C       		.byte	0xc
 4804 0722 07       		.uleb128 0x7
 4805 0723 A9030000 		.4byte	.LASF107
 4806 0727 08       		.byte	0x8
 4807 0728 9B       		.byte	0x9b
 4808 0729 76050000 		.4byte	0x576
 4809 072d 10       		.byte	0x10
 4810 072e 07       		.uleb128 0x7
 4811 072f 70030000 		.4byte	.LASF108
 4812 0733 08       		.byte	0x8
 4813 0734 9C       		.byte	0x9c
 4814 0735 76050000 		.4byte	0x576
 4815 0739 14       		.byte	0x14
ARM GAS  C:\Users\tmj32\AppData\Local\Temp\cc8DwYg3.s 			page 115


 4816 073a 07       		.uleb128 0x7
 4817 073b 33030000 		.4byte	.LASF109
 4818 073f 08       		.byte	0x8
 4819 0740 9D       		.byte	0x9d
 4820 0741 76050000 		.4byte	0x576
 4821 0745 18       		.byte	0x18
 4822 0746 07       		.uleb128 0x7
 4823 0747 93060000 		.4byte	.LASF110
 4824 074b 08       		.byte	0x8
 4825 074c 9E       		.byte	0x9e
 4826 074d 76050000 		.4byte	0x576
 4827 0751 1C       		.byte	0x1c
 4828 0752 00       		.byte	0
 4829 0753 06       		.uleb128 0x6
 4830 0754 14       		.byte	0x14
 4831 0755 08       		.byte	0x8
 4832 0756 A6       		.byte	0xa6
 4833 0757 97070000 		.4byte	0x797
 4834 075b 08       		.uleb128 0x8
 4835 075c 72656C00 		.ascii	"rel\000"
 4836 0760 08       		.byte	0x8
 4837 0761 A8       		.byte	0xa8
 4838 0762 76050000 		.4byte	0x576
 4839 0766 00       		.byte	0
 4840 0767 08       		.uleb128 0x8
 4841 0768 707200   		.ascii	"pr\000"
 4842 076b 08       		.byte	0x8
 4843 076c A9       		.byte	0xa9
 4844 076d 76050000 		.4byte	0x576
 4845 0771 04       		.byte	0x4
 4846 0772 07       		.uleb128 0x7
 4847 0773 EE030000 		.4byte	.LASF93
 4848 0777 08       		.byte	0x8
 4849 0778 AA       		.byte	0xaa
 4850 0779 76050000 		.4byte	0x576
 4851 077d 08       		.byte	0x8
 4852 077e 07       		.uleb128 0x7
 4853 077f 61060000 		.4byte	.LASF94
 4854 0783 08       		.byte	0x8
 4855 0784 AB       		.byte	0xab
 4856 0785 76050000 		.4byte	0x576
 4857 0789 0C       		.byte	0xc
 4858 078a 08       		.uleb128 0x8
 4859 078b 696E6100 		.ascii	"ina\000"
 4860 078f 08       		.byte	0x8
 4861 0790 AC       		.byte	0xac
 4862 0791 76050000 		.4byte	0x576
 4863 0795 10       		.byte	0x10
 4864 0796 00       		.byte	0
 4865 0797 06       		.uleb128 0x6
 4866 0798 18       		.byte	0x18
 4867 0799 08       		.byte	0x8
 4868 079a A3       		.byte	0xa3
 4869 079b B7070000 		.4byte	0x7b7
 4870 079f 08       		.uleb128 0x8
 4871 07a0 626700   		.ascii	"bg\000"
 4872 07a3 08       		.byte	0x8
ARM GAS  C:\Users\tmj32\AppData\Local\Temp\cc8DwYg3.s 			page 116


 4873 07a4 A5       		.byte	0xa5
 4874 07a5 76050000 		.4byte	0x576
 4875 07a9 00       		.byte	0
 4876 07aa 08       		.uleb128 0x8
 4877 07ab 626F7800 		.ascii	"box\000"
 4878 07af 08       		.byte	0x8
 4879 07b0 AD       		.byte	0xad
 4880 07b1 53070000 		.4byte	0x753
 4881 07b5 04       		.byte	0x4
 4882 07b6 00       		.byte	0
 4883 07b7 06       		.uleb128 0x6
 4884 07b8 14       		.byte	0x14
 4885 07b9 08       		.byte	0x8
 4886 07ba B5       		.byte	0xb5
 4887 07bb FB070000 		.4byte	0x7fb
 4888 07bf 08       		.uleb128 0x8
 4889 07c0 72656C00 		.ascii	"rel\000"
 4890 07c4 08       		.byte	0x8
 4891 07c5 B7       		.byte	0xb7
 4892 07c6 76050000 		.4byte	0x576
 4893 07ca 00       		.byte	0
 4894 07cb 08       		.uleb128 0x8
 4895 07cc 707200   		.ascii	"pr\000"
 4896 07cf 08       		.byte	0x8
 4897 07d0 B8       		.byte	0xb8
 4898 07d1 76050000 		.4byte	0x576
 4899 07d5 04       		.byte	0x4
 4900 07d6 07       		.uleb128 0x7
 4901 07d7 EE030000 		.4byte	.LASF93
 4902 07db 08       		.byte	0x8
 4903 07dc B9       		.byte	0xb9
 4904 07dd 76050000 		.4byte	0x576
 4905 07e1 08       		.byte	0x8
 4906 07e2 07       		.uleb128 0x7
 4907 07e3 61060000 		.4byte	.LASF94
 4908 07e7 08       		.byte	0x8
 4909 07e8 BA       		.byte	0xba
 4910 07e9 76050000 		.4byte	0x576
 4911 07ed 0C       		.byte	0xc
 4912 07ee 08       		.uleb128 0x8
 4913 07ef 696E6100 		.ascii	"ina\000"
 4914 07f3 08       		.byte	0x8
 4915 07f4 BB       		.byte	0xbb
 4916 07f5 76050000 		.4byte	0x576
 4917 07f9 10       		.byte	0x10
 4918 07fa 00       		.byte	0
 4919 07fb 06       		.uleb128 0x6
 4920 07fc 18       		.byte	0x18
 4921 07fd 08       		.byte	0x8
 4922 07fe B2       		.byte	0xb2
 4923 07ff 1B080000 		.4byte	0x81b
 4924 0803 08       		.uleb128 0x8
 4925 0804 626700   		.ascii	"bg\000"
 4926 0807 08       		.byte	0x8
 4927 0808 B4       		.byte	0xb4
 4928 0809 76050000 		.4byte	0x576
 4929 080d 00       		.byte	0
ARM GAS  C:\Users\tmj32\AppData\Local\Temp\cc8DwYg3.s 			page 117


 4930 080e 08       		.uleb128 0x8
 4931 080f 62746E00 		.ascii	"btn\000"
 4932 0813 08       		.byte	0x8
 4933 0814 BC       		.byte	0xbc
 4934 0815 B7070000 		.4byte	0x7b7
 4935 0819 04       		.byte	0x4
 4936 081a 00       		.byte	0
 4937 081b 06       		.uleb128 0x6
 4938 081c 14       		.byte	0x14
 4939 081d 08       		.byte	0x8
 4940 081e C4       		.byte	0xc4
 4941 081f 5F080000 		.4byte	0x85f
 4942 0823 08       		.uleb128 0x8
 4943 0824 72656C00 		.ascii	"rel\000"
 4944 0828 08       		.byte	0x8
 4945 0829 C6       		.byte	0xc6
 4946 082a 76050000 		.4byte	0x576
 4947 082e 00       		.byte	0
 4948 082f 08       		.uleb128 0x8
 4949 0830 707200   		.ascii	"pr\000"
 4950 0833 08       		.byte	0x8
 4951 0834 C7       		.byte	0xc7
 4952 0835 76050000 		.4byte	0x576
 4953 0839 04       		.byte	0x4
 4954 083a 07       		.uleb128 0x7
 4955 083b EE030000 		.4byte	.LASF93
 4956 083f 08       		.byte	0x8
 4957 0840 C8       		.byte	0xc8
 4958 0841 76050000 		.4byte	0x576
 4959 0845 08       		.byte	0x8
 4960 0846 07       		.uleb128 0x7
 4961 0847 61060000 		.4byte	.LASF94
 4962 084b 08       		.byte	0x8
 4963 084c C9       		.byte	0xc9
 4964 084d 76050000 		.4byte	0x576
 4965 0851 0C       		.byte	0xc
 4966 0852 08       		.uleb128 0x8
 4967 0853 696E6100 		.ascii	"ina\000"
 4968 0857 08       		.byte	0x8
 4969 0858 CA       		.byte	0xca
 4970 0859 76050000 		.4byte	0x576
 4971 085d 10       		.byte	0x10
 4972 085e 00       		.byte	0
 4973 085f 06       		.uleb128 0x6
 4974 0860 18       		.byte	0x18
 4975 0861 08       		.byte	0x8
 4976 0862 C1       		.byte	0xc1
 4977 0863 7F080000 		.4byte	0x87f
 4978 0867 08       		.uleb128 0x8
 4979 0868 626700   		.ascii	"bg\000"
 4980 086b 08       		.byte	0x8
 4981 086c C3       		.byte	0xc3
 4982 086d 76050000 		.4byte	0x576
 4983 0871 00       		.byte	0
 4984 0872 08       		.uleb128 0x8
 4985 0873 62746E00 		.ascii	"btn\000"
 4986 0877 08       		.byte	0x8
ARM GAS  C:\Users\tmj32\AppData\Local\Temp\cc8DwYg3.s 			page 118


 4987 0878 CB       		.byte	0xcb
 4988 0879 1B080000 		.4byte	0x81b
 4989 087d 04       		.byte	0x4
 4990 087e 00       		.byte	0
 4991 087f 06       		.uleb128 0x6
 4992 0880 0C       		.byte	0xc
 4993 0881 08       		.byte	0x8
 4994 0882 D3       		.byte	0xd3
 4995 0883 AA080000 		.4byte	0x8aa
 4996 0887 08       		.uleb128 0x8
 4997 0888 626700   		.ascii	"bg\000"
 4998 088b 08       		.byte	0x8
 4999 088c D5       		.byte	0xd5
 5000 088d 76050000 		.4byte	0x576
 5001 0891 00       		.byte	0
 5002 0892 08       		.uleb128 0x8
 5003 0893 72656C00 		.ascii	"rel\000"
 5004 0897 08       		.byte	0x8
 5005 0898 D6       		.byte	0xd6
 5006 0899 76050000 		.4byte	0x576
 5007 089d 04       		.byte	0x4
 5008 089e 08       		.uleb128 0x8
 5009 089f 707200   		.ascii	"pr\000"
 5010 08a2 08       		.byte	0x8
 5011 08a3 D7       		.byte	0xd7
 5012 08a4 76050000 		.4byte	0x576
 5013 08a8 08       		.byte	0x8
 5014 08a9 00       		.byte	0
 5015 08aa 06       		.uleb128 0x6
 5016 08ab 10       		.byte	0x10
 5017 08ac 08       		.byte	0x8
 5018 08ad D0       		.byte	0xd0
 5019 08ae CA080000 		.4byte	0x8ca
 5020 08b2 08       		.uleb128 0x8
 5021 08b3 626700   		.ascii	"bg\000"
 5022 08b6 08       		.byte	0x8
 5023 08b7 D2       		.byte	0xd2
 5024 08b8 76050000 		.4byte	0x576
 5025 08bc 00       		.byte	0
 5026 08bd 08       		.uleb128 0x8
 5027 08be 62746E00 		.ascii	"btn\000"
 5028 08c2 08       		.byte	0x8
 5029 08c3 D8       		.byte	0xd8
 5030 08c4 7F080000 		.4byte	0x87f
 5031 08c8 04       		.byte	0x4
 5032 08c9 00       		.byte	0
 5033 08ca 06       		.uleb128 0x6
 5034 08cb 0C       		.byte	0xc
 5035 08cc 08       		.byte	0x8
 5036 08cd DD       		.byte	0xdd
 5037 08ce F5080000 		.4byte	0x8f5
 5038 08d2 08       		.uleb128 0x8
 5039 08d3 626700   		.ascii	"bg\000"
 5040 08d6 08       		.byte	0x8
 5041 08d7 DF       		.byte	0xdf
 5042 08d8 76050000 		.4byte	0x576
 5043 08dc 00       		.byte	0
ARM GAS  C:\Users\tmj32\AppData\Local\Temp\cc8DwYg3.s 			page 119


 5044 08dd 07       		.uleb128 0x7
 5045 08de 92030000 		.4byte	.LASF111
 5046 08e2 08       		.byte	0x8
 5047 08e3 E0       		.byte	0xe0
 5048 08e4 76050000 		.4byte	0x576
 5049 08e8 04       		.byte	0x4
 5050 08e9 08       		.uleb128 0x8
 5051 08ea 736200   		.ascii	"sb\000"
 5052 08ed 08       		.byte	0x8
 5053 08ee E1       		.byte	0xe1
 5054 08ef 76050000 		.4byte	0x576
 5055 08f3 08       		.byte	0x8
 5056 08f4 00       		.byte	0
 5057 08f5 06       		.uleb128 0x6
 5058 08f6 10       		.byte	0x10
 5059 08f7 08       		.byte	0x8
 5060 08f8 E6       		.byte	0xe6
 5061 08f9 2D090000 		.4byte	0x92d
 5062 08fd 07       		.uleb128 0x7
 5063 08fe 3C050000 		.4byte	.LASF112
 5064 0902 08       		.byte	0x8
 5065 0903 E8       		.byte	0xe8
 5066 0904 76050000 		.4byte	0x576
 5067 0908 00       		.byte	0
 5068 0909 07       		.uleb128 0x7
 5069 090a 64000000 		.4byte	.LASF113
 5070 090e 08       		.byte	0x8
 5071 090f E9       		.byte	0xe9
 5072 0910 76050000 		.4byte	0x576
 5073 0914 04       		.byte	0x4
 5074 0915 07       		.uleb128 0x7
 5075 0916 F7000000 		.4byte	.LASF114
 5076 091a 08       		.byte	0x8
 5077 091b EA       		.byte	0xea
 5078 091c 76050000 		.4byte	0x576
 5079 0920 08       		.byte	0x8
 5080 0921 08       		.uleb128 0x8
 5081 0922 736200   		.ascii	"sb\000"
 5082 0925 08       		.byte	0x8
 5083 0926 EB       		.byte	0xeb
 5084 0927 76050000 		.4byte	0x576
 5085 092b 0C       		.byte	0xc
 5086 092c 00       		.byte	0
 5087 092d 06       		.uleb128 0x6
 5088 092e 0C       		.byte	0xc
 5089 092f 08       		.byte	0x8
 5090 0930 F0       		.byte	0xf0
 5091 0931 58090000 		.4byte	0x958
 5092 0935 08       		.uleb128 0x8
 5093 0936 626700   		.ascii	"bg\000"
 5094 0939 08       		.byte	0x8
 5095 093a F2       		.byte	0xf2
 5096 093b 76050000 		.4byte	0x576
 5097 093f 00       		.byte	0
 5098 0940 07       		.uleb128 0x7
 5099 0941 F7000000 		.4byte	.LASF114
 5100 0945 08       		.byte	0x8
ARM GAS  C:\Users\tmj32\AppData\Local\Temp\cc8DwYg3.s 			page 120


 5101 0946 F3       		.byte	0xf3
 5102 0947 76050000 		.4byte	0x576
 5103 094b 04       		.byte	0x4
 5104 094c 08       		.uleb128 0x8
 5105 094d 736200   		.ascii	"sb\000"
 5106 0950 08       		.byte	0x8
 5107 0951 F4       		.byte	0xf4
 5108 0952 76050000 		.4byte	0x576
 5109 0956 08       		.byte	0x8
 5110 0957 00       		.byte	0
 5111 0958 06       		.uleb128 0x6
 5112 0959 14       		.byte	0x14
 5113 095a 08       		.byte	0x8
 5114 095b FE       		.byte	0xfe
 5115 095c A1090000 		.4byte	0x9a1
 5116 0960 15       		.uleb128 0x15
 5117 0961 72656C00 		.ascii	"rel\000"
 5118 0965 08       		.byte	0x8
 5119 0966 0001     		.2byte	0x100
 5120 0968 76050000 		.4byte	0x576
 5121 096c 00       		.byte	0
 5122 096d 15       		.uleb128 0x15
 5123 096e 707200   		.ascii	"pr\000"
 5124 0971 08       		.byte	0x8
 5125 0972 0101     		.2byte	0x101
 5126 0974 76050000 		.4byte	0x576
 5127 0978 04       		.byte	0x4
 5128 0979 16       		.uleb128 0x16
 5129 097a EE030000 		.4byte	.LASF93
 5130 097e 08       		.byte	0x8
 5131 097f 0201     		.2byte	0x102
 5132 0981 76050000 		.4byte	0x576
 5133 0985 08       		.byte	0x8
 5134 0986 16       		.uleb128 0x16
 5135 0987 61060000 		.4byte	.LASF94
 5136 098b 08       		.byte	0x8
 5137 098c 0301     		.2byte	0x103
 5138 098e 76050000 		.4byte	0x576
 5139 0992 0C       		.byte	0xc
 5140 0993 15       		.uleb128 0x15
 5141 0994 696E6100 		.ascii	"ina\000"
 5142 0998 08       		.byte	0x8
 5143 0999 0401     		.2byte	0x104
 5144 099b 76050000 		.4byte	0x576
 5145 099f 10       		.byte	0x10
 5146 09a0 00       		.byte	0
 5147 09a1 06       		.uleb128 0x6
 5148 09a2 20       		.byte	0x20
 5149 09a3 08       		.byte	0x8
 5150 09a4 F9       		.byte	0xf9
 5151 09a5 D9090000 		.4byte	0x9d9
 5152 09a9 08       		.uleb128 0x8
 5153 09aa 626700   		.ascii	"bg\000"
 5154 09ad 08       		.byte	0x8
 5155 09ae FB       		.byte	0xfb
 5156 09af 76050000 		.4byte	0x576
 5157 09b3 00       		.byte	0
ARM GAS  C:\Users\tmj32\AppData\Local\Temp\cc8DwYg3.s 			page 121


 5158 09b4 07       		.uleb128 0x7
 5159 09b5 92030000 		.4byte	.LASF111
 5160 09b9 08       		.byte	0x8
 5161 09ba FC       		.byte	0xfc
 5162 09bb 76050000 		.4byte	0x576
 5163 09bf 04       		.byte	0x4
 5164 09c0 08       		.uleb128 0x8
 5165 09c1 736200   		.ascii	"sb\000"
 5166 09c4 08       		.byte	0x8
 5167 09c5 FD       		.byte	0xfd
 5168 09c6 76050000 		.4byte	0x576
 5169 09ca 08       		.byte	0x8
 5170 09cb 15       		.uleb128 0x15
 5171 09cc 62746E00 		.ascii	"btn\000"
 5172 09d0 08       		.byte	0x8
 5173 09d1 0501     		.2byte	0x105
 5174 09d3 58090000 		.4byte	0x958
 5175 09d7 0C       		.byte	0xc
 5176 09d8 00       		.byte	0
 5177 09d9 17       		.uleb128 0x17
 5178 09da 0C       		.byte	0xc
 5179 09db 08       		.byte	0x8
 5180 09dc 0A01     		.2byte	0x10a
 5181 09de 080A0000 		.4byte	0xa08
 5182 09e2 15       		.uleb128 0x15
 5183 09e3 626700   		.ascii	"bg\000"
 5184 09e6 08       		.byte	0x8
 5185 09e7 0C01     		.2byte	0x10c
 5186 09e9 76050000 		.4byte	0x576
 5187 09ed 00       		.byte	0
 5188 09ee 15       		.uleb128 0x15
 5189 09ef 73656C00 		.ascii	"sel\000"
 5190 09f3 08       		.byte	0x8
 5191 09f4 0D01     		.2byte	0x10d
 5192 09f6 76050000 		.4byte	0x576
 5193 09fa 04       		.byte	0x4
 5194 09fb 15       		.uleb128 0x15
 5195 09fc 736200   		.ascii	"sb\000"
 5196 09ff 08       		.byte	0x8
 5197 0a00 0E01     		.2byte	0x10e
 5198 0a02 76050000 		.4byte	0x576
 5199 0a06 08       		.byte	0x8
 5200 0a07 00       		.byte	0
 5201 0a08 17       		.uleb128 0x17
 5202 0a09 08       		.byte	0x8
 5203 0a0a 08       		.byte	0x8
 5204 0a0b 1301     		.2byte	0x113
 5205 0a0d 2B0A0000 		.4byte	0xa2b
 5206 0a11 15       		.uleb128 0x15
 5207 0a12 626700   		.ascii	"bg\000"
 5208 0a15 08       		.byte	0x8
 5209 0a16 1501     		.2byte	0x115
 5210 0a18 76050000 		.4byte	0x576
 5211 0a1c 00       		.byte	0
 5212 0a1d 15       		.uleb128 0x15
 5213 0a1e 73656C00 		.ascii	"sel\000"
 5214 0a22 08       		.byte	0x8
ARM GAS  C:\Users\tmj32\AppData\Local\Temp\cc8DwYg3.s 			page 122


 5215 0a23 1601     		.2byte	0x116
 5216 0a25 76050000 		.4byte	0x576
 5217 0a29 04       		.byte	0x4
 5218 0a2a 00       		.byte	0
 5219 0a2b 17       		.uleb128 0x17
 5220 0a2c 14       		.byte	0x14
 5221 0a2d 08       		.byte	0x8
 5222 0a2e 1F01     		.2byte	0x11f
 5223 0a30 740A0000 		.4byte	0xa74
 5224 0a34 15       		.uleb128 0x15
 5225 0a35 626700   		.ascii	"bg\000"
 5226 0a38 08       		.byte	0x8
 5227 0a39 2101     		.2byte	0x121
 5228 0a3b 76050000 		.4byte	0x576
 5229 0a3f 00       		.byte	0
 5230 0a40 15       		.uleb128 0x15
 5231 0a41 72656C00 		.ascii	"rel\000"
 5232 0a45 08       		.byte	0x8
 5233 0a46 2201     		.2byte	0x122
 5234 0a48 76050000 		.4byte	0x576
 5235 0a4c 04       		.byte	0x4
 5236 0a4d 15       		.uleb128 0x15
 5237 0a4e 707200   		.ascii	"pr\000"
 5238 0a51 08       		.byte	0x8
 5239 0a52 2301     		.2byte	0x123
 5240 0a54 76050000 		.4byte	0x576
 5241 0a58 08       		.byte	0x8
 5242 0a59 16       		.uleb128 0x16
 5243 0a5a EE030000 		.4byte	.LASF93
 5244 0a5e 08       		.byte	0x8
 5245 0a5f 2401     		.2byte	0x124
 5246 0a61 76050000 		.4byte	0x576
 5247 0a65 0C       		.byte	0xc
 5248 0a66 16       		.uleb128 0x16
 5249 0a67 61060000 		.4byte	.LASF94
 5250 0a6b 08       		.byte	0x8
 5251 0a6c 2501     		.2byte	0x125
 5252 0a6e 76050000 		.4byte	0x576
 5253 0a72 10       		.byte	0x10
 5254 0a73 00       		.byte	0
 5255 0a74 17       		.uleb128 0x17
 5256 0a75 1C       		.byte	0x1c
 5257 0a76 08       		.byte	0x8
 5258 0a77 1B01     		.2byte	0x11b
 5259 0a79 A40A0000 		.4byte	0xaa4
 5260 0a7d 15       		.uleb128 0x15
 5261 0a7e 626700   		.ascii	"bg\000"
 5262 0a81 08       		.byte	0x8
 5263 0a82 1D01     		.2byte	0x11d
 5264 0a84 76050000 		.4byte	0x576
 5265 0a88 00       		.byte	0
 5266 0a89 16       		.uleb128 0x16
 5267 0a8a 04020000 		.4byte	.LASF100
 5268 0a8e 08       		.byte	0x8
 5269 0a8f 1E01     		.2byte	0x11e
 5270 0a91 76050000 		.4byte	0x576
 5271 0a95 04       		.byte	0x4
ARM GAS  C:\Users\tmj32\AppData\Local\Temp\cc8DwYg3.s 			page 123


 5272 0a96 15       		.uleb128 0x15
 5273 0a97 62746E00 		.ascii	"btn\000"
 5274 0a9b 08       		.byte	0x8
 5275 0a9c 2601     		.2byte	0x126
 5276 0a9e 2B0A0000 		.4byte	0xa2b
 5277 0aa2 08       		.byte	0x8
 5278 0aa3 00       		.byte	0
 5279 0aa4 17       		.uleb128 0x17
 5280 0aa5 0C       		.byte	0xc
 5281 0aa6 08       		.byte	0x8
 5282 0aa7 2B01     		.2byte	0x12b
 5283 0aa9 D30A0000 		.4byte	0xad3
 5284 0aad 15       		.uleb128 0x15
 5285 0aae 626700   		.ascii	"bg\000"
 5286 0ab1 08       		.byte	0x8
 5287 0ab2 2D01     		.2byte	0x12d
 5288 0ab4 76050000 		.4byte	0x576
 5289 0ab8 00       		.byte	0
 5290 0ab9 16       		.uleb128 0x16
 5291 0aba 92030000 		.4byte	.LASF111
 5292 0abe 08       		.byte	0x8
 5293 0abf 2E01     		.2byte	0x12e
 5294 0ac1 76050000 		.4byte	0x576
 5295 0ac5 04       		.byte	0x4
 5296 0ac6 15       		.uleb128 0x15
 5297 0ac7 736200   		.ascii	"sb\000"
 5298 0aca 08       		.byte	0x8
 5299 0acb 2F01     		.2byte	0x12f
 5300 0acd 76050000 		.4byte	0x576
 5301 0ad1 08       		.byte	0x8
 5302 0ad2 00       		.byte	0
 5303 0ad3 17       		.uleb128 0x17
 5304 0ad4 08       		.byte	0x8
 5305 0ad5 08       		.byte	0x8
 5306 0ad6 3401     		.2byte	0x134
 5307 0ad8 F60A0000 		.4byte	0xaf6
 5308 0adc 15       		.uleb128 0x15
 5309 0add 626700   		.ascii	"bg\000"
 5310 0ae0 08       		.byte	0x8
 5311 0ae1 3601     		.2byte	0x136
 5312 0ae3 76050000 		.4byte	0x576
 5313 0ae7 00       		.byte	0
 5314 0ae8 16       		.uleb128 0x16
 5315 0ae9 2B060000 		.4byte	.LASF115
 5316 0aed 08       		.byte	0x8
 5317 0aee 3701     		.2byte	0x137
 5318 0af0 76050000 		.4byte	0x576
 5319 0af4 04       		.byte	0x4
 5320 0af5 00       		.byte	0
 5321 0af6 17       		.uleb128 0x17
 5322 0af7 08       		.byte	0x8
 5323 0af8 08       		.byte	0x8
 5324 0af9 4201     		.2byte	0x142
 5325 0afb 190B0000 		.4byte	0xb19
 5326 0aff 15       		.uleb128 0x15
 5327 0b00 72656C00 		.ascii	"rel\000"
 5328 0b04 08       		.byte	0x8
ARM GAS  C:\Users\tmj32\AppData\Local\Temp\cc8DwYg3.s 			page 124


 5329 0b05 4401     		.2byte	0x144
 5330 0b07 76050000 		.4byte	0x576
 5331 0b0b 00       		.byte	0
 5332 0b0c 15       		.uleb128 0x15
 5333 0b0d 707200   		.ascii	"pr\000"
 5334 0b10 08       		.byte	0x8
 5335 0b11 4501     		.2byte	0x145
 5336 0b13 76050000 		.4byte	0x576
 5337 0b17 04       		.byte	0x4
 5338 0b18 00       		.byte	0
 5339 0b19 17       		.uleb128 0x17
 5340 0b1a 18       		.byte	0x18
 5341 0b1b 08       		.byte	0x8
 5342 0b1c 3C01     		.2byte	0x13c
 5343 0b1e 620B0000 		.4byte	0xb62
 5344 0b22 15       		.uleb128 0x15
 5345 0b23 626700   		.ascii	"bg\000"
 5346 0b26 08       		.byte	0x8
 5347 0b27 3E01     		.2byte	0x13e
 5348 0b29 76050000 		.4byte	0x576
 5349 0b2d 00       		.byte	0
 5350 0b2e 15       		.uleb128 0x15
 5351 0b2f 736200   		.ascii	"sb\000"
 5352 0b32 08       		.byte	0x8
 5353 0b33 3F01     		.2byte	0x13f
 5354 0b35 76050000 		.4byte	0x576
 5355 0b39 04       		.byte	0x4
 5356 0b3a 16       		.uleb128 0x16
 5357 0b3b FE080000 		.4byte	.LASF104
 5358 0b3f 08       		.byte	0x8
 5359 0b40 4001     		.2byte	0x140
 5360 0b42 76050000 		.4byte	0x576
 5361 0b46 08       		.byte	0x8
 5362 0b47 16       		.uleb128 0x16
 5363 0b48 52060000 		.4byte	.LASF116
 5364 0b4c 08       		.byte	0x8
 5365 0b4d 4101     		.2byte	0x141
 5366 0b4f 76050000 		.4byte	0x576
 5367 0b53 0C       		.byte	0xc
 5368 0b54 15       		.uleb128 0x15
 5369 0b55 62746E00 		.ascii	"btn\000"
 5370 0b59 08       		.byte	0x8
 5371 0b5a 4601     		.2byte	0x146
 5372 0b5c F60A0000 		.4byte	0xaf6
 5373 0b60 10       		.byte	0x10
 5374 0b61 00       		.byte	0
 5375 0b62 18       		.uleb128 0x18
 5376 0b63 A801     		.2byte	0x1a8
 5377 0b65 08       		.byte	0x8
 5378 0b66 29       		.byte	0x29
 5379 0b67 040D0000 		.4byte	0xd04
 5380 0b6b 08       		.uleb128 0x8
 5381 0b6c 73637200 		.ascii	"scr\000"
 5382 0b70 08       		.byte	0x8
 5383 0b71 2B       		.byte	0x2b
 5384 0b72 76050000 		.4byte	0x576
 5385 0b76 00       		.byte	0
ARM GAS  C:\Users\tmj32\AppData\Local\Temp\cc8DwYg3.s 			page 125


 5386 0b77 08       		.uleb128 0x8
 5387 0b78 626700   		.ascii	"bg\000"
 5388 0b7b 08       		.byte	0x8
 5389 0b7c 2C       		.byte	0x2c
 5390 0b7d 76050000 		.4byte	0x576
 5391 0b81 04       		.byte	0x4
 5392 0b82 07       		.uleb128 0x7
 5393 0b83 A8060000 		.4byte	.LASF117
 5394 0b87 08       		.byte	0x8
 5395 0b88 2D       		.byte	0x2d
 5396 0b89 76050000 		.4byte	0x576
 5397 0b8d 08       		.byte	0x8
 5398 0b8e 07       		.uleb128 0x7
 5399 0b8f 9B070000 		.4byte	.LASF118
 5400 0b93 08       		.byte	0x8
 5401 0b94 30       		.byte	0x30
 5402 0b95 76050000 		.4byte	0x576
 5403 0b99 0C       		.byte	0xc
 5404 0b9a 08       		.uleb128 0x8
 5405 0b9b 62746E00 		.ascii	"btn\000"
 5406 0b9f 08       		.byte	0x8
 5407 0ba0 3B       		.byte	0x3b
 5408 0ba1 7C050000 		.4byte	0x57c
 5409 0ba5 10       		.byte	0x10
 5410 0ba6 07       		.uleb128 0x7
 5411 0ba7 E5060000 		.4byte	.LASF119
 5412 0bab 08       		.byte	0x8
 5413 0bac 46       		.byte	0x46
 5414 0bad C0050000 		.4byte	0x5c0
 5415 0bb1 24       		.byte	0x24
 5416 0bb2 07       		.uleb128 0x7
 5417 0bb3 97030000 		.4byte	.LASF120
 5418 0bb7 08       		.byte	0x8
 5419 0bb8 4F       		.byte	0x4f
 5420 0bb9 04060000 		.4byte	0x604
 5421 0bbd 38       		.byte	0x38
 5422 0bbe 08       		.uleb128 0x8
 5423 0bbf 696D6700 		.ascii	"img\000"
 5424 0bc3 08       		.byte	0x8
 5425 0bc4 57       		.byte	0x57
 5426 0bc5 31060000 		.4byte	0x631
 5427 0bc9 44       		.byte	0x44
 5428 0bca 07       		.uleb128 0x7
 5429 0bcb E8020000 		.4byte	.LASF91
 5430 0bcf 08       		.byte	0x8
 5431 0bd0 5E       		.byte	0x5e
 5432 0bd1 52060000 		.4byte	0x652
 5433 0bd5 4C       		.byte	0x4c
 5434 0bd6 08       		.uleb128 0x8
 5435 0bd7 6C656400 		.ascii	"led\000"
 5436 0bdb 08       		.byte	0x8
 5437 0bdc 62       		.byte	0x62
 5438 0bdd 76050000 		.4byte	0x576
 5439 0be1 50       		.byte	0x50
 5440 0be2 08       		.uleb128 0x8
 5441 0be3 62617200 		.ascii	"bar\000"
 5442 0be7 08       		.byte	0x8
ARM GAS  C:\Users\tmj32\AppData\Local\Temp\cc8DwYg3.s 			page 126


 5443 0be8 6A       		.byte	0x6a
 5444 0be9 67060000 		.4byte	0x667
 5445 0bed 54       		.byte	0x54
 5446 0bee 07       		.uleb128 0x7
 5447 0bef 05090000 		.4byte	.LASF121
 5448 0bf3 08       		.byte	0x8
 5449 0bf4 73       		.byte	0x73
 5450 0bf5 87060000 		.4byte	0x687
 5451 0bf9 5C       		.byte	0x5c
 5452 0bfa 07       		.uleb128 0x7
 5453 0bfb DD030000 		.4byte	.LASF122
 5454 0bff 08       		.byte	0x8
 5455 0c00 77       		.byte	0x77
 5456 0c01 76050000 		.4byte	0x576
 5457 0c05 68       		.byte	0x68
 5458 0c06 07       		.uleb128 0x7
 5459 0c07 FE000000 		.4byte	.LASF123
 5460 0c0b 08       		.byte	0x8
 5461 0c0c 7B       		.byte	0x7b
 5462 0c0d 76050000 		.4byte	0x576
 5463 0c11 6C       		.byte	0x6c
 5464 0c12 08       		.uleb128 0x8
 5465 0c13 61726300 		.ascii	"arc\000"
 5466 0c17 08       		.byte	0x8
 5467 0c18 7F       		.byte	0x7f
 5468 0c19 76050000 		.4byte	0x576
 5469 0c1d 70       		.byte	0x70
 5470 0c1e 07       		.uleb128 0x7
 5471 0c1f 29070000 		.4byte	.LASF124
 5472 0c23 08       		.byte	0x8
 5473 0c24 83       		.byte	0x83
 5474 0c25 76050000 		.4byte	0x576
 5475 0c29 74       		.byte	0x74
 5476 0c2a 08       		.uleb128 0x8
 5477 0c2b 737700   		.ascii	"sw\000"
 5478 0c2e 08       		.byte	0x8
 5479 0c2f 8D       		.byte	0x8d
 5480 0c30 B3060000 		.4byte	0x6b3
 5481 0c34 78       		.byte	0x78
 5482 0c35 07       		.uleb128 0x7
 5483 0c36 AF070000 		.4byte	.LASF125
 5484 0c3a 08       		.byte	0x8
 5485 0c3b 91       		.byte	0x91
 5486 0c3c 76050000 		.4byte	0x576
 5487 0c40 88       		.byte	0x88
 5488 0c41 07       		.uleb128 0x7
 5489 0c42 A0070000 		.4byte	.LASF126
 5490 0c46 08       		.byte	0x8
 5491 0c47 9F       		.byte	0x9f
 5492 0c48 EB060000 		.4byte	0x6eb
 5493 0c4c 8C       		.byte	0x8c
 5494 0c4d 08       		.uleb128 0x8
 5495 0c4e 636200   		.ascii	"cb\000"
 5496 0c51 08       		.byte	0x8
 5497 0c52 AE       		.byte	0xae
 5498 0c53 97070000 		.4byte	0x797
 5499 0c57 AC       		.byte	0xac
ARM GAS  C:\Users\tmj32\AppData\Local\Temp\cc8DwYg3.s 			page 127


 5500 0c58 07       		.uleb128 0x7
 5501 0c59 65030000 		.4byte	.LASF127
 5502 0c5d 08       		.byte	0x8
 5503 0c5e BD       		.byte	0xbd
 5504 0c5f FB070000 		.4byte	0x7fb
 5505 0c63 C4       		.byte	0xc4
 5506 0c64 08       		.uleb128 0x8
 5507 0c65 6B6200   		.ascii	"kb\000"
 5508 0c68 08       		.byte	0x8
 5509 0c69 CC       		.byte	0xcc
 5510 0c6a 5F080000 		.4byte	0x85f
 5511 0c6e DC       		.byte	0xdc
 5512 0c6f 07       		.uleb128 0x7
 5513 0c70 CD040000 		.4byte	.LASF128
 5514 0c74 08       		.byte	0x8
 5515 0c75 D9       		.byte	0xd9
 5516 0c76 AA080000 		.4byte	0x8aa
 5517 0c7a F4       		.byte	0xf4
 5518 0c7b 19       		.uleb128 0x19
 5519 0c7c 0B030000 		.4byte	.LASF129
 5520 0c80 08       		.byte	0x8
 5521 0c81 E2       		.byte	0xe2
 5522 0c82 CA080000 		.4byte	0x8ca
 5523 0c86 0401     		.2byte	0x104
 5524 0c88 1A       		.uleb128 0x1a
 5525 0c89 746100   		.ascii	"ta\000"
 5526 0c8c 08       		.byte	0x8
 5527 0c8d EC       		.byte	0xec
 5528 0c8e F5080000 		.4byte	0x8f5
 5529 0c92 1001     		.2byte	0x110
 5530 0c94 19       		.uleb128 0x19
 5531 0c95 10030000 		.4byte	.LASF130
 5532 0c99 08       		.byte	0x8
 5533 0c9a F5       		.byte	0xf5
 5534 0c9b 2D090000 		.4byte	0x92d
 5535 0c9f 2001     		.2byte	0x120
 5536 0ca1 1B       		.uleb128 0x1b
 5537 0ca2 93010000 		.4byte	.LASF131
 5538 0ca6 08       		.byte	0x8
 5539 0ca7 0601     		.2byte	0x106
 5540 0ca9 A1090000 		.4byte	0x9a1
 5541 0cad 2C01     		.2byte	0x12c
 5542 0caf 1B       		.uleb128 0x1b
 5543 0cb0 81070000 		.4byte	.LASF132
 5544 0cb4 08       		.byte	0x8
 5545 0cb5 0F01     		.2byte	0x10f
 5546 0cb7 D9090000 		.4byte	0x9d9
 5547 0cbb 4C01     		.2byte	0x14c
 5548 0cbd 1B       		.uleb128 0x1b
 5549 0cbe 30060000 		.4byte	.LASF133
 5550 0cc2 08       		.byte	0x8
 5551 0cc3 1701     		.2byte	0x117
 5552 0cc5 080A0000 		.4byte	0xa08
 5553 0cc9 5801     		.2byte	0x158
 5554 0ccb 1B       		.uleb128 0x1b
 5555 0ccc F6080000 		.4byte	.LASF134
 5556 0cd0 08       		.byte	0x8
ARM GAS  C:\Users\tmj32\AppData\Local\Temp\cc8DwYg3.s 			page 128


 5557 0cd1 2701     		.2byte	0x127
 5558 0cd3 740A0000 		.4byte	0xa74
 5559 0cd7 6001     		.2byte	0x160
 5560 0cd9 1B       		.uleb128 0x1b
 5561 0cda 52040000 		.4byte	.LASF135
 5562 0cde 08       		.byte	0x8
 5563 0cdf 3001     		.2byte	0x130
 5564 0ce1 A40A0000 		.4byte	0xaa4
 5565 0ce5 7C01     		.2byte	0x17c
 5566 0ce7 1B       		.uleb128 0x1b
 5567 0ce8 4B050000 		.4byte	.LASF136
 5568 0cec 08       		.byte	0x8
 5569 0ced 3801     		.2byte	0x138
 5570 0cef D30A0000 		.4byte	0xad3
 5571 0cf3 8801     		.2byte	0x188
 5572 0cf5 1C       		.uleb128 0x1c
 5573 0cf6 77696E00 		.ascii	"win\000"
 5574 0cfa 08       		.byte	0x8
 5575 0cfb 4701     		.2byte	0x147
 5576 0cfd 190B0000 		.4byte	0xb19
 5577 0d01 9001     		.2byte	0x190
 5578 0d03 00       		.byte	0
 5579 0d04 18       		.uleb128 0x18
 5580 0d05 A801     		.2byte	0x1a8
 5581 0d07 08       		.byte	0x8
 5582 0d08 27       		.byte	0x27
 5583 0d09 1B0D0000 		.4byte	0xd1b
 5584 0d0d 16       		.uleb128 0x16
 5585 0d0e D4060000 		.4byte	.LASF137
 5586 0d12 08       		.byte	0x8
 5587 0d13 4901     		.2byte	0x149
 5588 0d15 620B0000 		.4byte	0xb62
 5589 0d19 00       		.byte	0
 5590 0d1a 00       		.byte	0
 5591 0d1b 14       		.uleb128 0x14
 5592 0d1c FD060000 		.4byte	.LASF138
 5593 0d20 08       		.byte	0x8
 5594 0d21 5401     		.2byte	0x154
 5595 0d23 040D0000 		.4byte	0xd04
 5596 0d27 1D       		.uleb128 0x1d
 5597 0d28 77040000 		.4byte	.LASF139
 5598 0d2c 01       		.byte	0x1
 5599 0d2d DD01     		.2byte	0x1dd
 5600 0d2f CA020000 		.4byte	0x2ca
 5601 0d33 00000000 		.4byte	.LFB7
 5602 0d37 38000000 		.4byte	.LFE7-.LFB7
 5603 0d3b 01       		.uleb128 0x1
 5604 0d3c 9C       		.byte	0x9c
 5605 0d3d 690D0000 		.4byte	0xd69
 5606 0d41 1E       		.uleb128 0x1e
 5607 0d42 7200     		.ascii	"r\000"
 5608 0d44 01       		.byte	0x1
 5609 0d45 DD01     		.2byte	0x1dd
 5610 0d47 AD000000 		.4byte	0xad
 5611 0d4b 02       		.uleb128 0x2
 5612 0d4c 91       		.byte	0x91
 5613 0d4d 77       		.sleb128 -9
ARM GAS  C:\Users\tmj32\AppData\Local\Temp\cc8DwYg3.s 			page 129


 5614 0d4e 1E       		.uleb128 0x1e
 5615 0d4f 6700     		.ascii	"g\000"
 5616 0d51 01       		.byte	0x1
 5617 0d52 DD01     		.2byte	0x1dd
 5618 0d54 AD000000 		.4byte	0xad
 5619 0d58 02       		.uleb128 0x2
 5620 0d59 91       		.byte	0x91
 5621 0d5a 76       		.sleb128 -10
 5622 0d5b 1E       		.uleb128 0x1e
 5623 0d5c 6200     		.ascii	"b\000"
 5624 0d5e 01       		.byte	0x1
 5625 0d5f DD01     		.2byte	0x1dd
 5626 0d61 AD000000 		.4byte	0xad
 5627 0d65 02       		.uleb128 0x2
 5628 0d66 91       		.byte	0x91
 5629 0d67 75       		.sleb128 -11
 5630 0d68 00       		.byte	0
 5631 0d69 1F       		.uleb128 0x1f
 5632 0d6a A7020000 		.4byte	.LASF140
 5633 0d6e 01       		.byte	0x1
 5634 0d6f E201     		.2byte	0x1e2
 5635 0d71 CA020000 		.4byte	0x2ca
 5636 0d75 00000000 		.4byte	.LFB8
 5637 0d79 28000000 		.4byte	.LFE8-.LFB8
 5638 0d7d 01       		.uleb128 0x1
 5639 0d7e 9C       		.byte	0x9c
 5640 0d7f 910D0000 		.4byte	0xd91
 5641 0d83 1E       		.uleb128 0x1e
 5642 0d84 6300     		.ascii	"c\000"
 5643 0d86 01       		.byte	0x1
 5644 0d87 E201     		.2byte	0x1e2
 5645 0d89 CE000000 		.4byte	0xce
 5646 0d8d 02       		.uleb128 0x2
 5647 0d8e 91       		.byte	0x91
 5648 0d8f 74       		.sleb128 -12
 5649 0d90 00       		.byte	0
 5650 0d91 1F       		.uleb128 0x1f
 5651 0d92 00000000 		.4byte	.LASF141
 5652 0d96 01       		.byte	0x1
 5653 0d97 E701     		.2byte	0x1e7
 5654 0d99 CA020000 		.4byte	0x2ca
 5655 0d9d 00000000 		.4byte	.LFB9
 5656 0da1 64000000 		.4byte	.LFE9-.LFB9
 5657 0da5 01       		.uleb128 0x1
 5658 0da6 9C       		.byte	0x9c
 5659 0da7 B90D0000 		.4byte	0xdb9
 5660 0dab 1E       		.uleb128 0x1e
 5661 0dac 6300     		.ascii	"c\000"
 5662 0dae 01       		.byte	0x1
 5663 0daf E701     		.2byte	0x1e7
 5664 0db1 CE000000 		.4byte	0xce
 5665 0db5 02       		.uleb128 0x2
 5666 0db6 91       		.byte	0x91
 5667 0db7 74       		.sleb128 -12
 5668 0db8 00       		.byte	0
 5669 0db9 20       		.uleb128 0x20
 5670 0dba E6080000 		.4byte	.LASF142
ARM GAS  C:\Users\tmj32\AppData\Local\Temp\cc8DwYg3.s 			page 130


 5671 0dbe 02       		.byte	0x2
 5672 0dbf 30       		.byte	0x30
 5673 0dc0 00000000 		.4byte	.LFB31
 5674 0dc4 84010000 		.4byte	.LFE31-.LFB31
 5675 0dc8 01       		.uleb128 0x1
 5676 0dc9 9C       		.byte	0x9c
 5677 0dca 010E0000 		.4byte	0xe01
 5678 0dce 21       		.uleb128 0x21
 5679 0dcf 626700   		.ascii	"bg\000"
 5680 0dd2 02       		.byte	0x2
 5681 0dd3 32       		.byte	0x32
 5682 0dd4 6B050000 		.4byte	0x56b
 5683 0dd8 05       		.uleb128 0x5
 5684 0dd9 03       		.byte	0x3
 5685 0dda 50020000 		.4byte	bg.5947
 5686 0dde 22       		.uleb128 0x22
 5687 0ddf A8060000 		.4byte	.LASF117
 5688 0de3 02       		.byte	0x2
 5689 0de4 32       		.byte	0x32
 5690 0de5 6B050000 		.4byte	0x56b
 5691 0de9 05       		.uleb128 0x5
 5692 0dea 03       		.byte	0x3
 5693 0deb F0020000 		.4byte	panel.5948
 5694 0def 21       		.uleb128 0x21
 5695 0df0 73637200 		.ascii	"scr\000"
 5696 0df4 02       		.byte	0x2
 5697 0df5 32       		.byte	0x32
 5698 0df6 6B050000 		.4byte	0x56b
 5699 0dfa 05       		.uleb128 0x5
 5700 0dfb 03       		.byte	0x3
 5701 0dfc A0020000 		.4byte	scr.5949
 5702 0e00 00       		.byte	0
 5703 0e01 23       		.uleb128 0x23
 5704 0e02 4F030000 		.4byte	.LASF148
 5705 0e06 02       		.byte	0x2
 5706 0e07 61       		.byte	0x61
 5707 0e08 00000000 		.4byte	.LFB32
 5708 0e0c 1C000000 		.4byte	.LFE32-.LFB32
 5709 0e10 01       		.uleb128 0x1
 5710 0e11 9C       		.byte	0x9c
 5711 0e12 20       		.uleb128 0x20
 5712 0e13 5E070000 		.4byte	.LASF143
 5713 0e17 02       		.byte	0x2
 5714 0e18 69       		.byte	0x69
 5715 0e19 00000000 		.4byte	.LFB33
 5716 0e1d 88010000 		.4byte	.LFE33-.LFB33
 5717 0e21 01       		.uleb128 0x1
 5718 0e22 9C       		.byte	0x9c
 5719 0e23 7C0E0000 		.4byte	0xe7c
 5720 0e27 21       		.uleb128 0x21
 5721 0e28 72656C00 		.ascii	"rel\000"
 5722 0e2c 02       		.byte	0x2
 5723 0e2d 6C       		.byte	0x6c
 5724 0e2e 6B050000 		.4byte	0x56b
 5725 0e32 05       		.uleb128 0x5
 5726 0e33 03       		.byte	0x3
 5727 0e34 40030000 		.4byte	rel.5960
ARM GAS  C:\Users\tmj32\AppData\Local\Temp\cc8DwYg3.s 			page 131


 5728 0e38 21       		.uleb128 0x21
 5729 0e39 707200   		.ascii	"pr\000"
 5730 0e3c 02       		.byte	0x2
 5731 0e3d 6C       		.byte	0x6c
 5732 0e3e 6B050000 		.4byte	0x56b
 5733 0e42 05       		.uleb128 0x5
 5734 0e43 03       		.byte	0x3
 5735 0e44 90030000 		.4byte	pr.5961
 5736 0e48 22       		.uleb128 0x22
 5737 0e49 EE030000 		.4byte	.LASF93
 5738 0e4d 02       		.byte	0x2
 5739 0e4e 6C       		.byte	0x6c
 5740 0e4f 6B050000 		.4byte	0x56b
 5741 0e53 05       		.uleb128 0x5
 5742 0e54 03       		.byte	0x3
 5743 0e55 E0030000 		.4byte	tgl_rel.5962
 5744 0e59 22       		.uleb128 0x22
 5745 0e5a 61060000 		.4byte	.LASF94
 5746 0e5e 02       		.byte	0x2
 5747 0e5f 6C       		.byte	0x6c
 5748 0e60 6B050000 		.4byte	0x56b
 5749 0e64 05       		.uleb128 0x5
 5750 0e65 03       		.byte	0x3
 5751 0e66 30040000 		.4byte	tgl_pr.5963
 5752 0e6a 21       		.uleb128 0x21
 5753 0e6b 696E6100 		.ascii	"ina\000"
 5754 0e6f 02       		.byte	0x2
 5755 0e70 6C       		.byte	0x6c
 5756 0e71 6B050000 		.4byte	0x56b
 5757 0e75 05       		.uleb128 0x5
 5758 0e76 03       		.byte	0x3
 5759 0e77 80040000 		.4byte	ina.5964
 5760 0e7b 00       		.byte	0
 5761 0e7c 20       		.uleb128 0x20
 5762 0e7d 7A050000 		.4byte	.LASF144
 5763 0e81 02       		.byte	0x2
 5764 0e82 9B       		.byte	0x9b
 5765 0e83 00000000 		.4byte	.LFB34
 5766 0e87 8C000000 		.4byte	.LFE34-.LFB34
 5767 0e8b 01       		.uleb128 0x1
 5768 0e8c 9C       		.byte	0x9c
 5769 0e8d C50E0000 		.4byte	0xec5
 5770 0e91 22       		.uleb128 0x22
 5771 0e92 8B040000 		.4byte	.LASF95
 5772 0e96 02       		.byte	0x2
 5773 0e97 9E       		.byte	0x9e
 5774 0e98 6B050000 		.4byte	0x56b
 5775 0e9c 05       		.uleb128 0x5
 5776 0e9d 03       		.byte	0x3
 5777 0e9e D0040000 		.4byte	prim.5968
 5778 0ea2 21       		.uleb128 0x21
 5779 0ea3 73656300 		.ascii	"sec\000"
 5780 0ea7 02       		.byte	0x2
 5781 0ea8 9E       		.byte	0x9e
 5782 0ea9 6B050000 		.4byte	0x56b
 5783 0ead 05       		.uleb128 0x5
 5784 0eae 03       		.byte	0x3
ARM GAS  C:\Users\tmj32\AppData\Local\Temp\cc8DwYg3.s 			page 132


 5785 0eaf 20050000 		.4byte	sec.5969
 5786 0eb3 22       		.uleb128 0x22
 5787 0eb4 4D060000 		.4byte	.LASF96
 5788 0eb8 02       		.byte	0x2
 5789 0eb9 9E       		.byte	0x9e
 5790 0eba 6B050000 		.4byte	0x56b
 5791 0ebe 05       		.uleb128 0x5
 5792 0ebf 03       		.byte	0x3
 5793 0ec0 70050000 		.4byte	hint.5970
 5794 0ec4 00       		.byte	0
 5795 0ec5 20       		.uleb128 0x20
 5796 0ec6 5B050000 		.4byte	.LASF145
 5797 0eca 02       		.byte	0x2
 5798 0ecb B0       		.byte	0xb0
 5799 0ecc 00000000 		.4byte	.LFB35
 5800 0ed0 6C000000 		.4byte	.LFE35-.LFB35
 5801 0ed4 01       		.uleb128 0x1
 5802 0ed5 9C       		.byte	0x9c
 5803 0ed6 FD0E0000 		.4byte	0xefd
 5804 0eda 22       		.uleb128 0x22
 5805 0edb BA030000 		.4byte	.LASF146
 5806 0edf 02       		.byte	0x2
 5807 0ee0 B3       		.byte	0xb3
 5808 0ee1 6B050000 		.4byte	0x56b
 5809 0ee5 05       		.uleb128 0x5
 5810 0ee6 03       		.byte	0x3
 5811 0ee7 C0050000 		.4byte	img_light.5974
 5812 0eeb 22       		.uleb128 0x22
 5813 0eec 6D060000 		.4byte	.LASF147
 5814 0ef0 02       		.byte	0x2
 5815 0ef1 B3       		.byte	0xb3
 5816 0ef2 6B050000 		.4byte	0x56b
 5817 0ef6 05       		.uleb128 0x5
 5818 0ef7 03       		.byte	0x3
 5819 0ef8 10060000 		.4byte	img_dark.5975
 5820 0efc 00       		.byte	0
 5821 0efd 23       		.uleb128 0x23
 5822 0efe A9010000 		.4byte	.LASF149
 5823 0f02 02       		.byte	0x2
 5824 0f03 C1       		.byte	0xc1
 5825 0f04 00000000 		.4byte	.LFB36
 5826 0f08 1C000000 		.4byte	.LFE36-.LFB36
 5827 0f0c 01       		.uleb128 0x1
 5828 0f0d 9C       		.byte	0x9c
 5829 0f0e 20       		.uleb128 0x20
 5830 0f0f 0C090000 		.4byte	.LASF150
 5831 0f13 02       		.byte	0x2
 5832 0f14 C9       		.byte	0xc9
 5833 0f15 00000000 		.4byte	.LFB37
 5834 0f19 88000000 		.4byte	.LFE37-.LFB37
 5835 0f1d 01       		.uleb128 0x1
 5836 0f1e 9C       		.byte	0x9c
 5837 0f1f 350F0000 		.4byte	0xf35
 5838 0f23 21       		.uleb128 0x21
 5839 0f24 6C656400 		.ascii	"led\000"
 5840 0f28 02       		.byte	0x2
 5841 0f29 CC       		.byte	0xcc
ARM GAS  C:\Users\tmj32\AppData\Local\Temp\cc8DwYg3.s 			page 133


 5842 0f2a 6B050000 		.4byte	0x56b
 5843 0f2e 05       		.uleb128 0x5
 5844 0f2f 03       		.byte	0x3
 5845 0f30 60060000 		.4byte	led.5982
 5846 0f34 00       		.byte	0
 5847 0f35 20       		.uleb128 0x20
 5848 0f36 A6040000 		.4byte	.LASF151
 5849 0f3a 02       		.byte	0x2
 5850 0f3b DB       		.byte	0xdb
 5851 0f3c 00000000 		.4byte	.LFB38
 5852 0f40 A8000000 		.4byte	.LFE38-.LFB38
 5853 0f44 01       		.uleb128 0x1
 5854 0f45 9C       		.byte	0x9c
 5855 0f46 6D0F0000 		.4byte	0xf6d
 5856 0f4a 22       		.uleb128 0x22
 5857 0f4b 5A060000 		.4byte	.LASF152
 5858 0f4f 02       		.byte	0x2
 5859 0f50 DE       		.byte	0xde
 5860 0f51 6B050000 		.4byte	0x56b
 5861 0f55 05       		.uleb128 0x5
 5862 0f56 03       		.byte	0x3
 5863 0f57 B0060000 		.4byte	bar_bg.5986
 5864 0f5b 22       		.uleb128 0x22
 5865 0f5c AD000000 		.4byte	.LASF153
 5866 0f60 02       		.byte	0x2
 5867 0f61 DE       		.byte	0xde
 5868 0f62 6B050000 		.4byte	0x56b
 5869 0f66 05       		.uleb128 0x5
 5870 0f67 03       		.byte	0x3
 5871 0f68 00070000 		.4byte	bar_indic.5987
 5872 0f6c 00       		.byte	0
 5873 0f6d 20       		.uleb128 0x20
 5874 0f6e 16000000 		.4byte	.LASF154
 5875 0f72 02       		.byte	0x2
 5876 0f73 F7       		.byte	0xf7
 5877 0f74 00000000 		.4byte	.LFB39
 5878 0f78 54000000 		.4byte	.LFE39-.LFB39
 5879 0f7c 01       		.uleb128 0x1
 5880 0f7d 9C       		.byte	0x9c
 5881 0f7e 940F0000 		.4byte	0xf94
 5882 0f82 22       		.uleb128 0x22
 5883 0f83 DD040000 		.4byte	.LASF101
 5884 0f87 02       		.byte	0x2
 5885 0f88 FA       		.byte	0xfa
 5886 0f89 6B050000 		.4byte	0x56b
 5887 0f8d 05       		.uleb128 0x5
 5888 0f8e 03       		.byte	0x3
 5889 0f8f 50070000 		.4byte	knob.5991
 5890 0f93 00       		.byte	0
 5891 0f94 24       		.uleb128 0x24
 5892 0f95 25010000 		.4byte	.LASF155
 5893 0f99 02       		.byte	0x2
 5894 0f9a 0801     		.2byte	0x108
 5895 0f9c 00000000 		.4byte	.LFB40
 5896 0fa0 BC000000 		.4byte	.LFE40-.LFB40
 5897 0fa4 01       		.uleb128 0x1
 5898 0fa5 9C       		.byte	0x9c
ARM GAS  C:\Users\tmj32\AppData\Local\Temp\cc8DwYg3.s 			page 134


 5899 0fa6 F30F0000 		.4byte	0xff3
 5900 0faa 25       		.uleb128 0x25
 5901 0fab 4F070000 		.4byte	.LASF156
 5902 0faf 02       		.byte	0x2
 5903 0fb0 0B01     		.2byte	0x10b
 5904 0fb2 6B050000 		.4byte	0x56b
 5905 0fb6 05       		.uleb128 0x5
 5906 0fb7 03       		.byte	0x3
 5907 0fb8 A0070000 		.4byte	sw_bg.5995
 5908 0fbc 25       		.uleb128 0x25
 5909 0fbd 6C000000 		.4byte	.LASF157
 5910 0fc1 02       		.byte	0x2
 5911 0fc2 0B01     		.2byte	0x10b
 5912 0fc4 6B050000 		.4byte	0x56b
 5913 0fc8 05       		.uleb128 0x5
 5914 0fc9 03       		.byte	0x3
 5915 0fca F0070000 		.4byte	sw_indic.5996
 5916 0fce 25       		.uleb128 0x25
 5917 0fcf E0000000 		.4byte	.LASF158
 5918 0fd3 02       		.byte	0x2
 5919 0fd4 0B01     		.2byte	0x10b
 5920 0fd6 6B050000 		.4byte	0x56b
 5921 0fda 05       		.uleb128 0x5
 5922 0fdb 03       		.byte	0x3
 5923 0fdc 90080000 		.4byte	sw_knob_off.5997
 5924 0fe0 25       		.uleb128 0x25
 5925 0fe1 31040000 		.4byte	.LASF159
 5926 0fe5 02       		.byte	0x2
 5927 0fe6 0B01     		.2byte	0x10b
 5928 0fe8 6B050000 		.4byte	0x56b
 5929 0fec 05       		.uleb128 0x5
 5930 0fed 03       		.byte	0x3
 5931 0fee 40080000 		.4byte	sw_knob_on.5998
 5932 0ff2 00       		.byte	0
 5933 0ff3 24       		.uleb128 0x24
 5934 0ff4 9D030000 		.4byte	.LASF160
 5935 0ff8 02       		.byte	0x2
 5936 0ff9 2501     		.2byte	0x125
 5937 0ffb 00000000 		.4byte	.LFB41
 5938 0fff 5C000000 		.4byte	.LFE41-.LFB41
 5939 1003 01       		.uleb128 0x1
 5940 1004 9C       		.byte	0x9c
 5941 1005 1C100000 		.4byte	0x101c
 5942 1009 25       		.uleb128 0x25
 5943 100a DD030000 		.4byte	.LASF122
 5944 100e 02       		.byte	0x2
 5945 100f 2801     		.2byte	0x128
 5946 1011 6B050000 		.4byte	0x56b
 5947 1015 05       		.uleb128 0x5
 5948 1016 03       		.byte	0x3
 5949 1017 E0080000 		.4byte	lmeter.6002
 5950 101b 00       		.byte	0
 5951 101c 24       		.uleb128 0x24
 5952 101d D2040000 		.4byte	.LASF161
 5953 1021 02       		.byte	0x2
 5954 1022 3401     		.2byte	0x134
 5955 1024 00000000 		.4byte	.LFB42
ARM GAS  C:\Users\tmj32\AppData\Local\Temp\cc8DwYg3.s 			page 135


 5956 1028 80000000 		.4byte	.LFE42-.LFB42
 5957 102c 01       		.uleb128 0x1
 5958 102d 9C       		.byte	0x9c
 5959 102e 45100000 		.4byte	0x1045
 5960 1032 25       		.uleb128 0x25
 5961 1033 FE000000 		.4byte	.LASF123
 5962 1037 02       		.byte	0x2
 5963 1038 3801     		.2byte	0x138
 5964 103a 6B050000 		.4byte	0x56b
 5965 103e 05       		.uleb128 0x5
 5966 103f 03       		.byte	0x3
 5967 1040 30090000 		.4byte	gauge.6006
 5968 1044 00       		.byte	0
 5969 1045 24       		.uleb128 0x24
 5970 1046 85000000 		.4byte	.LASF162
 5971 104a 02       		.byte	0x2
 5972 104b 4701     		.2byte	0x147
 5973 104d 00000000 		.4byte	.LFB43
 5974 1051 70000000 		.4byte	.LFE43-.LFB43
 5975 1055 01       		.uleb128 0x1
 5976 1056 9C       		.byte	0x9c
 5977 1057 6E100000 		.4byte	0x106e
 5978 105b 26       		.uleb128 0x26
 5979 105c 61726300 		.ascii	"arc\000"
 5980 1060 02       		.byte	0x2
 5981 1061 4B01     		.2byte	0x14b
 5982 1063 6B050000 		.4byte	0x56b
 5983 1067 05       		.uleb128 0x5
 5984 1068 03       		.byte	0x3
 5985 1069 80090000 		.4byte	arc.6010
 5986 106d 00       		.byte	0
 5987 106e 27       		.uleb128 0x27
 5988 106f D3070000 		.4byte	.LASF163
 5989 1073 02       		.byte	0x2
 5990 1074 5C01     		.2byte	0x15c
 5991 1076 00000000 		.4byte	.LFB44
 5992 107a 1C000000 		.4byte	.LFE44-.LFB44
 5993 107e 01       		.uleb128 0x1
 5994 107f 9C       		.byte	0x9c
 5995 1080 27       		.uleb128 0x27
 5996 1081 1E030000 		.4byte	.LASF164
 5997 1085 02       		.byte	0x2
 5998 1086 6401     		.2byte	0x164
 5999 1088 00000000 		.4byte	.LFB45
 6000 108c 1C000000 		.4byte	.LFE45-.LFB45
 6001 1090 01       		.uleb128 0x1
 6002 1091 9C       		.byte	0x9c
 6003 1092 24       		.uleb128 0x24
 6004 1093 BE060000 		.4byte	.LASF165
 6005 1097 02       		.byte	0x2
 6006 1098 6B01     		.2byte	0x16b
 6007 109a 00000000 		.4byte	.LFB46
 6008 109e 4C010000 		.4byte	.LFE46-.LFB46
 6009 10a2 01       		.uleb128 0x1
 6010 10a3 9C       		.byte	0x9c
 6011 10a4 F1100000 		.4byte	0x10f1
 6012 10a8 25       		.uleb128 0x25
ARM GAS  C:\Users\tmj32\AppData\Local\Temp\cc8DwYg3.s 			page 136


 6013 10a9 78070000 		.4byte	.LASF166
 6014 10ad 02       		.byte	0x2
 6015 10ae 6E01     		.2byte	0x16e
 6016 10b0 6B050000 		.4byte	0x56b
 6017 10b4 05       		.uleb128 0x5
 6018 10b5 03       		.byte	0x3
 6019 10b6 D0090000 		.4byte	ina_days.6020
 6020 10ba 25       		.uleb128 0x25
 6021 10bb 29030000 		.4byte	.LASF167
 6022 10bf 02       		.byte	0x2
 6023 10c0 7201     		.2byte	0x172
 6024 10c2 6B050000 		.4byte	0x56b
 6025 10c6 05       		.uleb128 0x5
 6026 10c7 03       		.byte	0x3
 6027 10c8 200A0000 		.4byte	high_days.6021
 6028 10cc 25       		.uleb128 0x25
 6029 10cd 33030000 		.4byte	.LASF109
 6030 10d1 02       		.byte	0x2
 6031 10d2 7601     		.2byte	0x176
 6032 10d4 6B050000 		.4byte	0x56b
 6033 10d8 05       		.uleb128 0x5
 6034 10d9 03       		.byte	0x3
 6035 10da 700A0000 		.4byte	week_box.6022
 6036 10de 25       		.uleb128 0x25
 6037 10df 93060000 		.4byte	.LASF110
 6038 10e3 02       		.byte	0x2
 6039 10e4 8301     		.2byte	0x183
 6040 10e6 6B050000 		.4byte	0x56b
 6041 10ea 05       		.uleb128 0x5
 6042 10eb 03       		.byte	0x3
 6043 10ec C00A0000 		.4byte	today_box.6023
 6044 10f0 00       		.byte	0
 6045 10f1 24       		.uleb128 0x24
 6046 10f2 A1010000 		.4byte	.LASF168
 6047 10f6 02       		.byte	0x2
 6048 10f7 9401     		.2byte	0x194
 6049 10f9 00000000 		.4byte	.LFB47
 6050 10fd F4000000 		.4byte	.LFE47-.LFB47
 6051 1101 01       		.uleb128 0x1
 6052 1102 9C       		.byte	0x9c
 6053 1103 61110000 		.4byte	0x1161
 6054 1107 26       		.uleb128 0x26
 6055 1108 72656C00 		.ascii	"rel\000"
 6056 110c 02       		.byte	0x2
 6057 110d 9701     		.2byte	0x197
 6058 110f 6B050000 		.4byte	0x56b
 6059 1113 05       		.uleb128 0x5
 6060 1114 03       		.byte	0x3
 6061 1115 100B0000 		.4byte	rel.6029
 6062 1119 26       		.uleb128 0x26
 6063 111a 707200   		.ascii	"pr\000"
 6064 111d 02       		.byte	0x2
 6065 111e 9701     		.2byte	0x197
 6066 1120 6B050000 		.4byte	0x56b
 6067 1124 05       		.uleb128 0x5
 6068 1125 03       		.byte	0x3
 6069 1126 600B0000 		.4byte	pr.6030
ARM GAS  C:\Users\tmj32\AppData\Local\Temp\cc8DwYg3.s 			page 137


 6070 112a 25       		.uleb128 0x25
 6071 112b EE030000 		.4byte	.LASF93
 6072 112f 02       		.byte	0x2
 6073 1130 9701     		.2byte	0x197
 6074 1132 6B050000 		.4byte	0x56b
 6075 1136 05       		.uleb128 0x5
 6076 1137 03       		.byte	0x3
 6077 1138 B00B0000 		.4byte	tgl_rel.6031
 6078 113c 25       		.uleb128 0x25
 6079 113d 61060000 		.4byte	.LASF94
 6080 1141 02       		.byte	0x2
 6081 1142 9701     		.2byte	0x197
 6082 1144 6B050000 		.4byte	0x56b
 6083 1148 05       		.uleb128 0x5
 6084 1149 03       		.byte	0x3
 6085 114a 000C0000 		.4byte	tgl_pr.6032
 6086 114e 26       		.uleb128 0x26
 6087 114f 696E6100 		.ascii	"ina\000"
 6088 1153 02       		.byte	0x2
 6089 1154 9701     		.2byte	0x197
 6090 1156 6B050000 		.4byte	0x56b
 6091 115a 05       		.uleb128 0x5
 6092 115b 03       		.byte	0x3
 6093 115c 500C0000 		.4byte	ina.6033
 6094 1160 00       		.byte	0
 6095 1161 24       		.uleb128 0x24
 6096 1162 41050000 		.4byte	.LASF169
 6097 1166 02       		.byte	0x2
 6098 1167 B701     		.2byte	0x1b7
 6099 1169 00000000 		.4byte	.LFB48
 6100 116d 6C010000 		.4byte	.LFE48-.LFB48
 6101 1171 01       		.uleb128 0x1
 6102 1172 9C       		.byte	0x9c
 6103 1173 E2110000 		.4byte	0x11e2
 6104 1177 26       		.uleb128 0x26
 6105 1178 626700   		.ascii	"bg\000"
 6106 117b 02       		.byte	0x2
 6107 117c BA01     		.2byte	0x1ba
 6108 117e 6B050000 		.4byte	0x56b
 6109 1182 05       		.uleb128 0x5
 6110 1183 03       		.byte	0x3
 6111 1184 A00C0000 		.4byte	bg.6037
 6112 1188 26       		.uleb128 0x26
 6113 1189 72656C00 		.ascii	"rel\000"
 6114 118d 02       		.byte	0x2
 6115 118e BA01     		.2byte	0x1ba
 6116 1190 6B050000 		.4byte	0x56b
 6117 1194 05       		.uleb128 0x5
 6118 1195 03       		.byte	0x3
 6119 1196 F00C0000 		.4byte	rel.6038
 6120 119a 26       		.uleb128 0x26
 6121 119b 707200   		.ascii	"pr\000"
 6122 119e 02       		.byte	0x2
 6123 119f BA01     		.2byte	0x1ba
 6124 11a1 6B050000 		.4byte	0x56b
 6125 11a5 05       		.uleb128 0x5
 6126 11a6 03       		.byte	0x3
ARM GAS  C:\Users\tmj32\AppData\Local\Temp\cc8DwYg3.s 			page 138


 6127 11a7 400D0000 		.4byte	pr.6039
 6128 11ab 25       		.uleb128 0x25
 6129 11ac EE030000 		.4byte	.LASF93
 6130 11b0 02       		.byte	0x2
 6131 11b1 BA01     		.2byte	0x1ba
 6132 11b3 6B050000 		.4byte	0x56b
 6133 11b7 05       		.uleb128 0x5
 6134 11b8 03       		.byte	0x3
 6135 11b9 900D0000 		.4byte	tgl_rel.6040
 6136 11bd 25       		.uleb128 0x25
 6137 11be 61060000 		.4byte	.LASF94
 6138 11c2 02       		.byte	0x2
 6139 11c3 BA01     		.2byte	0x1ba
 6140 11c5 6B050000 		.4byte	0x56b
 6141 11c9 05       		.uleb128 0x5
 6142 11ca 03       		.byte	0x3
 6143 11cb E00D0000 		.4byte	tgl_pr.6041
 6144 11cf 26       		.uleb128 0x26
 6145 11d0 696E6100 		.ascii	"ina\000"
 6146 11d4 02       		.byte	0x2
 6147 11d5 BA01     		.2byte	0x1ba
 6148 11d7 6B050000 		.4byte	0x56b
 6149 11db 05       		.uleb128 0x5
 6150 11dc 03       		.byte	0x3
 6151 11dd 300E0000 		.4byte	ina.6042
 6152 11e1 00       		.byte	0
 6153 11e2 24       		.uleb128 0x24
 6154 11e3 C9020000 		.4byte	.LASF170
 6155 11e7 02       		.byte	0x2
 6156 11e8 E901     		.2byte	0x1e9
 6157 11ea 00000000 		.4byte	.LFB49
 6158 11ee 6C000000 		.4byte	.LFE49-.LFB49
 6159 11f2 01       		.uleb128 0x1
 6160 11f3 9C       		.byte	0x9c
 6161 11f4 0B120000 		.4byte	0x120b
 6162 11f8 26       		.uleb128 0x26
 6163 11f9 72656C00 		.ascii	"rel\000"
 6164 11fd 02       		.byte	0x2
 6165 11fe ED01     		.2byte	0x1ed
 6166 1200 6B050000 		.4byte	0x56b
 6167 1204 05       		.uleb128 0x5
 6168 1205 03       		.byte	0x3
 6169 1206 800E0000 		.4byte	rel.6046
 6170 120a 00       		.byte	0
 6171 120b 24       		.uleb128 0x24
 6172 120c 12070000 		.4byte	.LASF171
 6173 1210 02       		.byte	0x2
 6174 1211 FA01     		.2byte	0x1fa
 6175 1213 00000000 		.4byte	.LFB50
 6176 1217 90000000 		.4byte	.LFE50-.LFB50
 6177 121b 01       		.uleb128 0x1
 6178 121c 9C       		.byte	0x9c
 6179 121d 45120000 		.4byte	0x1245
 6180 1221 26       		.uleb128 0x26
 6181 1222 707200   		.ascii	"pr\000"
 6182 1225 02       		.byte	0x2
 6183 1226 FD01     		.2byte	0x1fd
ARM GAS  C:\Users\tmj32\AppData\Local\Temp\cc8DwYg3.s 			page 139


 6184 1228 6B050000 		.4byte	0x56b
 6185 122c 05       		.uleb128 0x5
 6186 122d 03       		.byte	0x3
 6187 122e 200F0000 		.4byte	pr.6050
 6188 1232 26       		.uleb128 0x26
 6189 1233 72656C00 		.ascii	"rel\000"
 6190 1237 02       		.byte	0x2
 6191 1238 FD01     		.2byte	0x1fd
 6192 123a 6B050000 		.4byte	0x56b
 6193 123e 05       		.uleb128 0x5
 6194 123f 03       		.byte	0x3
 6195 1240 D00E0000 		.4byte	rel.6051
 6196 1244 00       		.byte	0
 6197 1245 27       		.uleb128 0x27
 6198 1246 46000000 		.4byte	.LASF172
 6199 124a 02       		.byte	0x2
 6200 124b 0E02     		.2byte	0x20e
 6201 124d 00000000 		.4byte	.LFB51
 6202 1251 34000000 		.4byte	.LFE51-.LFB51
 6203 1255 01       		.uleb128 0x1
 6204 1256 9C       		.byte	0x9c
 6205 1257 24       		.uleb128 0x24
 6206 1258 66010000 		.4byte	.LASF173
 6207 125c 02       		.byte	0x2
 6208 125d 1802     		.2byte	0x218
 6209 125f 00000000 		.4byte	.LFB52
 6210 1263 78000000 		.4byte	.LFE52-.LFB52
 6211 1267 01       		.uleb128 0x1
 6212 1268 9C       		.byte	0x9c
 6213 1269 80120000 		.4byte	0x1280
 6214 126d 25       		.uleb128 0x25
 6215 126e 64000000 		.4byte	.LASF113
 6216 1272 02       		.byte	0x2
 6217 1273 1B02     		.2byte	0x21b
 6218 1275 6B050000 		.4byte	0x56b
 6219 1279 05       		.uleb128 0x5
 6220 127a 03       		.byte	0x3
 6221 127b 700F0000 		.4byte	oneline.6058
 6222 127f 00       		.byte	0
 6223 1280 27       		.uleb128 0x27
 6224 1281 BE010000 		.4byte	.LASF174
 6225 1285 02       		.byte	0x2
 6226 1286 2D02     		.2byte	0x22d
 6227 1288 00000000 		.4byte	.LFB53
 6228 128c 34000000 		.4byte	.LFE53-.LFB53
 6229 1290 01       		.uleb128 0x1
 6230 1291 9C       		.byte	0x9c
 6231 1292 24       		.uleb128 0x24
 6232 1293 3C010000 		.4byte	.LASF175
 6233 1297 02       		.byte	0x2
 6234 1298 3602     		.2byte	0x236
 6235 129a 00000000 		.4byte	.LFB54
 6236 129e 98010000 		.4byte	.LFE54-.LFB54
 6237 12a2 01       		.uleb128 0x1
 6238 12a3 9C       		.byte	0x9c
 6239 12a4 14130000 		.4byte	0x1314
 6240 12a8 25       		.uleb128 0x25
ARM GAS  C:\Users\tmj32\AppData\Local\Temp\cc8DwYg3.s 			page 140


 6241 12a9 81060000 		.4byte	.LASF176
 6242 12ad 02       		.byte	0x2
 6243 12ae 3A02     		.2byte	0x23a
 6244 12b0 6B050000 		.4byte	0x56b
 6245 12b4 05       		.uleb128 0x5
 6246 12b5 03       		.byte	0x3
 6247 12b6 C00F0000 		.4byte	list_bg.6065
 6248 12ba 26       		.uleb128 0x26
 6249 12bb 72656C00 		.ascii	"rel\000"
 6250 12bf 02       		.byte	0x2
 6251 12c0 3A02     		.2byte	0x23a
 6252 12c2 6B050000 		.4byte	0x56b
 6253 12c6 05       		.uleb128 0x5
 6254 12c7 03       		.byte	0x3
 6255 12c8 10100000 		.4byte	rel.6066
 6256 12cc 26       		.uleb128 0x26
 6257 12cd 707200   		.ascii	"pr\000"
 6258 12d0 02       		.byte	0x2
 6259 12d1 3A02     		.2byte	0x23a
 6260 12d3 6B050000 		.4byte	0x56b
 6261 12d7 05       		.uleb128 0x5
 6262 12d8 03       		.byte	0x3
 6263 12d9 60100000 		.4byte	pr.6067
 6264 12dd 25       		.uleb128 0x25
 6265 12de EE030000 		.4byte	.LASF93
 6266 12e2 02       		.byte	0x2
 6267 12e3 3A02     		.2byte	0x23a
 6268 12e5 6B050000 		.4byte	0x56b
 6269 12e9 05       		.uleb128 0x5
 6270 12ea 03       		.byte	0x3
 6271 12eb B0100000 		.4byte	tgl_rel.6068
 6272 12ef 25       		.uleb128 0x25
 6273 12f0 61060000 		.4byte	.LASF94
 6274 12f4 02       		.byte	0x2
 6275 12f5 3A02     		.2byte	0x23a
 6276 12f7 6B050000 		.4byte	0x56b
 6277 12fb 05       		.uleb128 0x5
 6278 12fc 03       		.byte	0x3
 6279 12fd 00110000 		.4byte	tgl_pr.6069
 6280 1301 26       		.uleb128 0x26
 6281 1302 696E6100 		.ascii	"ina\000"
 6282 1306 02       		.byte	0x2
 6283 1307 3A02     		.2byte	0x23a
 6284 1309 6B050000 		.4byte	0x56b
 6285 130d 05       		.uleb128 0x5
 6286 130e 03       		.byte	0x3
 6287 130f 50110000 		.4byte	ina.6070
 6288 1313 00       		.byte	0
 6289 1314 24       		.uleb128 0x24
 6290 1315 ED020000 		.4byte	.LASF177
 6291 1319 02       		.byte	0x2
 6292 131a 6F02     		.2byte	0x26f
 6293 131c 00000000 		.4byte	.LFB55
 6294 1320 A0000000 		.4byte	.LFE55-.LFB55
 6295 1324 01       		.uleb128 0x1
 6296 1325 9C       		.byte	0x9c
 6297 1326 4E130000 		.4byte	0x134e
ARM GAS  C:\Users\tmj32\AppData\Local\Temp\cc8DwYg3.s 			page 141


 6298 132a 26       		.uleb128 0x26
 6299 132b 626700   		.ascii	"bg\000"
 6300 132e 02       		.byte	0x2
 6301 132f 7202     		.2byte	0x272
 6302 1331 6B050000 		.4byte	0x56b
 6303 1335 05       		.uleb128 0x5
 6304 1336 03       		.byte	0x3
 6305 1337 A0110000 		.4byte	bg.6074
 6306 133b 26       		.uleb128 0x26
 6307 133c 73656C00 		.ascii	"sel\000"
 6308 1340 02       		.byte	0x2
 6309 1341 7202     		.2byte	0x272
 6310 1343 6B050000 		.4byte	0x56b
 6311 1347 05       		.uleb128 0x5
 6312 1348 03       		.byte	0x3
 6313 1349 F0110000 		.4byte	sel.6075
 6314 134d 00       		.byte	0
 6315 134e 24       		.uleb128 0x24
 6316 134f DA080000 		.4byte	.LASF178
 6317 1353 02       		.byte	0x2
 6318 1354 8702     		.2byte	0x287
 6319 1356 00000000 		.4byte	.LFB56
 6320 135a 84000000 		.4byte	.LFE56-.LFB56
 6321 135e 01       		.uleb128 0x1
 6322 135f 9C       		.byte	0x9c
 6323 1360 89130000 		.4byte	0x1389
 6324 1364 25       		.uleb128 0x25
 6325 1365 0A020000 		.4byte	.LASF179
 6326 1369 02       		.byte	0x2
 6327 136a 8A02     		.2byte	0x28a
 6328 136c 6B050000 		.4byte	0x56b
 6329 1370 05       		.uleb128 0x5
 6330 1371 03       		.byte	0x3
 6331 1372 40120000 		.4byte	roller_bg.6079
 6332 1376 25       		.uleb128 0x25
 6333 1377 59020000 		.4byte	.LASF180
 6334 137b 02       		.byte	0x2
 6335 137c 8A02     		.2byte	0x28a
 6336 137e 6B050000 		.4byte	0x56b
 6337 1382 05       		.uleb128 0x5
 6338 1383 03       		.byte	0x3
 6339 1384 90120000 		.4byte	roller_sel.6080
 6340 1388 00       		.byte	0
 6341 1389 24       		.uleb128 0x24
 6342 138a 05040000 		.4byte	.LASF181
 6343 138e 02       		.byte	0x2
 6344 138f 9D02     		.2byte	0x29d
 6345 1391 00000000 		.4byte	.LFB57
 6346 1395 0C020000 		.4byte	.LFE57-.LFB57
 6347 1399 01       		.uleb128 0x1
 6348 139a 9C       		.byte	0x9c
 6349 139b 0B140000 		.4byte	0x140b
 6350 139f 25       		.uleb128 0x25
 6351 13a0 04020000 		.4byte	.LASF100
 6352 13a4 02       		.byte	0x2
 6353 13a5 A002     		.2byte	0x2a0
 6354 13a7 6B050000 		.4byte	0x56b
ARM GAS  C:\Users\tmj32\AppData\Local\Temp\cc8DwYg3.s 			page 142


 6355 13ab 05       		.uleb128 0x5
 6356 13ac 03       		.byte	0x3
 6357 13ad E0120000 		.4byte	indic.6084
 6358 13b1 25       		.uleb128 0x25
 6359 13b2 51010000 		.4byte	.LASF182
 6360 13b6 02       		.byte	0x2
 6361 13b7 A002     		.2byte	0x2a0
 6362 13b9 6B050000 		.4byte	0x56b
 6363 13bd 05       		.uleb128 0x5
 6364 13be 03       		.byte	0x3
 6365 13bf 30130000 		.4byte	btn_bg.6085
 6366 13c3 26       		.uleb128 0x26
 6367 13c4 72656C00 		.ascii	"rel\000"
 6368 13c8 02       		.byte	0x2
 6369 13c9 A002     		.2byte	0x2a0
 6370 13cb 6B050000 		.4byte	0x56b
 6371 13cf 05       		.uleb128 0x5
 6372 13d0 03       		.byte	0x3
 6373 13d1 80130000 		.4byte	rel.6086
 6374 13d5 26       		.uleb128 0x26
 6375 13d6 707200   		.ascii	"pr\000"
 6376 13d9 02       		.byte	0x2
 6377 13da A002     		.2byte	0x2a0
 6378 13dc 6B050000 		.4byte	0x56b
 6379 13e0 05       		.uleb128 0x5
 6380 13e1 03       		.byte	0x3
 6381 13e2 D0130000 		.4byte	pr.6087
 6382 13e6 25       		.uleb128 0x25
 6383 13e7 EE030000 		.4byte	.LASF93
 6384 13eb 02       		.byte	0x2
 6385 13ec A002     		.2byte	0x2a0
 6386 13ee 6B050000 		.4byte	0x56b
 6387 13f2 05       		.uleb128 0x5
 6388 13f3 03       		.byte	0x3
 6389 13f4 20140000 		.4byte	tgl_rel.6088
 6390 13f8 25       		.uleb128 0x25
 6391 13f9 61060000 		.4byte	.LASF94
 6392 13fd 02       		.byte	0x2
 6393 13fe A002     		.2byte	0x2a0
 6394 1400 6B050000 		.4byte	0x56b
 6395 1404 05       		.uleb128 0x5
 6396 1405 03       		.byte	0x3
 6397 1406 70140000 		.4byte	tgl_pr.6089
 6398 140a 00       		.byte	0
 6399 140b 27       		.uleb128 0x27
 6400 140c B5070000 		.4byte	.LASF183
 6401 1410 02       		.byte	0x2
 6402 1411 E302     		.2byte	0x2e3
 6403 1413 00000000 		.4byte	.LFB58
 6404 1417 34000000 		.4byte	.LFE58-.LFB58
 6405 141b 01       		.uleb128 0x1
 6406 141c 9C       		.byte	0x9c
 6407 141d 24       		.uleb128 0x24
 6408 141e 8E000000 		.4byte	.LASF184
 6409 1422 02       		.byte	0x2
 6410 1423 EC02     		.2byte	0x2ec
 6411 1425 00000000 		.4byte	.LFB59
ARM GAS  C:\Users\tmj32\AppData\Local\Temp\cc8DwYg3.s 			page 143


 6412 1429 54000000 		.4byte	.LFE59-.LFB59
 6413 142d 01       		.uleb128 0x1
 6414 142e 9C       		.byte	0x9c
 6415 142f 46140000 		.4byte	0x1446
 6416 1433 25       		.uleb128 0x25
 6417 1434 2B060000 		.4byte	.LASF115
 6418 1438 02       		.byte	0x2
 6419 1439 EF02     		.2byte	0x2ef
 6420 143b 6B050000 		.4byte	0x56b
 6421 143f 05       		.uleb128 0x5
 6422 1440 03       		.byte	0x3
 6423 1441 C0140000 		.4byte	cell.6096
 6424 1445 00       		.byte	0
 6425 1446 24       		.uleb128 0x24
 6426 1447 C4030000 		.4byte	.LASF185
 6427 144b 02       		.byte	0x2
 6428 144c FD02     		.2byte	0x2fd
 6429 144e 00000000 		.4byte	.LFB60
 6430 1452 10010000 		.4byte	.LFE60-.LFB60
 6431 1456 01       		.uleb128 0x1
 6432 1457 9C       		.byte	0x9c
 6433 1458 80140000 		.4byte	0x1480
 6434 145c 25       		.uleb128 0x25
 6435 145d FE080000 		.4byte	.LASF104
 6436 1461 02       		.byte	0x2
 6437 1462 0003     		.2byte	0x300
 6438 1464 6B050000 		.4byte	0x56b
 6439 1468 05       		.uleb128 0x5
 6440 1469 03       		.byte	0x3
 6441 146a 10150000 		.4byte	header.6100
 6442 146e 26       		.uleb128 0x26
 6443 146f 707200   		.ascii	"pr\000"
 6444 1472 02       		.byte	0x2
 6445 1473 0003     		.2byte	0x300
 6446 1475 6B050000 		.4byte	0x56b
 6447 1479 05       		.uleb128 0x5
 6448 147a 03       		.byte	0x3
 6449 147b 60150000 		.4byte	pr.6101
 6450 147f 00       		.byte	0
 6451 1480 28       		.uleb128 0x28
 6452 1481 14020000 		.4byte	.LASF198
 6453 1485 02       		.byte	0x2
 6454 1486 6503     		.2byte	0x365
 6455 1488 D5140000 		.4byte	0x14d5
 6456 148c 00000000 		.4byte	.LFB61
 6457 1490 DC000000 		.4byte	.LFE61-.LFB61
 6458 1494 01       		.uleb128 0x1
 6459 1495 9C       		.byte	0x9c
 6460 1496 D5140000 		.4byte	0x14d5
 6461 149a 1E       		.uleb128 0x1e
 6462 149b 68756500 		.ascii	"hue\000"
 6463 149f 02       		.byte	0x2
 6464 14a0 6503     		.2byte	0x365
 6465 14a2 C3000000 		.4byte	0xc3
 6466 14a6 02       		.uleb128 0x2
 6467 14a7 91       		.byte	0x91
 6468 14a8 6E       		.sleb128 -18
ARM GAS  C:\Users\tmj32\AppData\Local\Temp\cc8DwYg3.s 			page 144


 6469 14a9 29       		.uleb128 0x29
 6470 14aa 88070000 		.4byte	.LASF81
 6471 14ae 02       		.byte	0x2
 6472 14af 6503     		.2byte	0x365
 6473 14b1 DB140000 		.4byte	0x14db
 6474 14b5 02       		.uleb128 0x2
 6475 14b6 91       		.byte	0x91
 6476 14b7 68       		.sleb128 -24
 6477 14b8 26       		.uleb128 0x26
 6478 14b9 6900     		.ascii	"i\000"
 6479 14bb 02       		.byte	0x2
 6480 14bc 6D03     		.2byte	0x36d
 6481 14be C3000000 		.4byte	0xc3
 6482 14c2 02       		.uleb128 0x2
 6483 14c3 91       		.byte	0x91
 6484 14c4 76       		.sleb128 -10
 6485 14c5 25       		.uleb128 0x25
 6486 14c6 B7000000 		.4byte	.LASF186
 6487 14ca 02       		.byte	0x2
 6488 14cb 6E03     		.2byte	0x36e
 6489 14cd E1140000 		.4byte	0x14e1
 6490 14d1 02       		.uleb128 0x2
 6491 14d2 91       		.byte	0x91
 6492 14d3 70       		.sleb128 -16
 6493 14d4 00       		.byte	0
 6494 14d5 0D       		.uleb128 0xd
 6495 14d6 04       		.byte	0x4
 6496 14d7 1B0D0000 		.4byte	0xd1b
 6497 14db 0D       		.uleb128 0xd
 6498 14dc 04       		.byte	0x4
 6499 14dd 02020000 		.4byte	0x202
 6500 14e1 0D       		.uleb128 0xd
 6501 14e2 04       		.byte	0x4
 6502 14e3 76050000 		.4byte	0x576
 6503 14e7 2A       		.uleb128 0x2a
 6504 14e8 37060000 		.4byte	.LASF199
 6505 14ec 02       		.byte	0x2
 6506 14ed 9F03     		.2byte	0x39f
 6507 14ef D5140000 		.4byte	0x14d5
 6508 14f3 00000000 		.4byte	.LFB62
 6509 14f7 14000000 		.4byte	.LFE62-.LFB62
 6510 14fb 01       		.uleb128 0x1
 6511 14fc 9C       		.byte	0x9c
 6512 14fd 22       		.uleb128 0x22
 6513 14fe F6030000 		.4byte	.LASF187
 6514 1502 02       		.byte	0x2
 6515 1503 1E       		.byte	0x1e
 6516 1504 1B0D0000 		.4byte	0xd1b
 6517 1508 05       		.uleb128 0x5
 6518 1509 03       		.byte	0x3
 6519 150a 00000000 		.4byte	theme
 6520 150e 21       		.uleb128 0x21
 6521 150f 64656600 		.ascii	"def\000"
 6522 1513 02       		.byte	0x2
 6523 1514 1F       		.byte	0x1f
 6524 1515 6B050000 		.4byte	0x56b
 6525 1519 05       		.uleb128 0x5
ARM GAS  C:\Users\tmj32\AppData\Local\Temp\cc8DwYg3.s 			page 145


 6526 151a 03       		.byte	0x3
 6527 151b A8010000 		.4byte	def
 6528 151f 21       		.uleb128 0x21
 6529 1520 736200   		.ascii	"sb\000"
 6530 1523 02       		.byte	0x2
 6531 1524 22       		.byte	0x22
 6532 1525 6B050000 		.4byte	0x56b
 6533 1529 05       		.uleb128 0x5
 6534 152a 03       		.byte	0x3
 6535 152b F8010000 		.4byte	sb
 6536 152f 22       		.uleb128 0x22
 6537 1530 3C040000 		.4byte	.LASF188
 6538 1534 02       		.byte	0x2
 6539 1535 25       		.byte	0x25
 6540 1536 C3000000 		.4byte	0xc3
 6541 153a 05       		.uleb128 0x5
 6542 153b 03       		.byte	0x3
 6543 153c 48020000 		.4byte	_hue
 6544 1540 22       		.uleb128 0x22
 6545 1541 85040000 		.4byte	.LASF189
 6546 1545 02       		.byte	0x2
 6547 1546 26       		.byte	0x26
 6548 1547 DB140000 		.4byte	0x14db
 6549 154b 05       		.uleb128 0x5
 6550 154c 03       		.byte	0x3
 6551 154d 4C020000 		.4byte	_font
 6552 1551 2B       		.uleb128 0x2b
 6553 1552 D5010000 		.4byte	.LASF190
 6554 1556 06       		.byte	0x6
 6555 1557 8C       		.byte	0x8c
 6556 1558 02020000 		.4byte	0x202
 6557 155c 2C       		.uleb128 0x2c
 6558 155d FD070000 		.4byte	.LASF191
 6559 1561 07       		.byte	0x7
 6560 1562 0C01     		.2byte	0x10c
 6561 1564 6B050000 		.4byte	0x56b
 6562 1568 2C       		.uleb128 0x2c
 6563 1569 90040000 		.4byte	.LASF192
 6564 156d 07       		.byte	0x7
 6565 156e 0E01     		.2byte	0x10e
 6566 1570 6B050000 		.4byte	0x56b
 6567 1574 2C       		.uleb128 0x2c
 6568 1575 2D010000 		.4byte	.LASF193
 6569 1579 07       		.byte	0x7
 6570 157a 0F01     		.2byte	0x10f
 6571 157c 6B050000 		.4byte	0x56b
 6572 1580 00       		.byte	0
 6573              		.section	.debug_abbrev,"",%progbits
 6574              	.Ldebug_abbrev0:
 6575 0000 01       		.uleb128 0x1
 6576 0001 11       		.uleb128 0x11
 6577 0002 01       		.byte	0x1
 6578 0003 25       		.uleb128 0x25
 6579 0004 0E       		.uleb128 0xe
 6580 0005 13       		.uleb128 0x13
 6581 0006 0B       		.uleb128 0xb
 6582 0007 03       		.uleb128 0x3
ARM GAS  C:\Users\tmj32\AppData\Local\Temp\cc8DwYg3.s 			page 146


 6583 0008 0E       		.uleb128 0xe
 6584 0009 1B       		.uleb128 0x1b
 6585 000a 0E       		.uleb128 0xe
 6586 000b 55       		.uleb128 0x55
 6587 000c 17       		.uleb128 0x17
 6588 000d 11       		.uleb128 0x11
 6589 000e 01       		.uleb128 0x1
 6590 000f 10       		.uleb128 0x10
 6591 0010 17       		.uleb128 0x17
 6592 0011 00       		.byte	0
 6593 0012 00       		.byte	0
 6594 0013 02       		.uleb128 0x2
 6595 0014 16       		.uleb128 0x16
 6596 0015 00       		.byte	0
 6597 0016 03       		.uleb128 0x3
 6598 0017 0E       		.uleb128 0xe
 6599 0018 3A       		.uleb128 0x3a
 6600 0019 0B       		.uleb128 0xb
 6601 001a 3B       		.uleb128 0x3b
 6602 001b 0B       		.uleb128 0xb
 6603 001c 49       		.uleb128 0x49
 6604 001d 13       		.uleb128 0x13
 6605 001e 00       		.byte	0
 6606 001f 00       		.byte	0
 6607 0020 03       		.uleb128 0x3
 6608 0021 24       		.uleb128 0x24
 6609 0022 00       		.byte	0
 6610 0023 0B       		.uleb128 0xb
 6611 0024 0B       		.uleb128 0xb
 6612 0025 3E       		.uleb128 0x3e
 6613 0026 0B       		.uleb128 0xb
 6614 0027 03       		.uleb128 0x3
 6615 0028 0E       		.uleb128 0xe
 6616 0029 00       		.byte	0
 6617 002a 00       		.byte	0
 6618 002b 04       		.uleb128 0x4
 6619 002c 24       		.uleb128 0x24
 6620 002d 00       		.byte	0
 6621 002e 0B       		.uleb128 0xb
 6622 002f 0B       		.uleb128 0xb
 6623 0030 3E       		.uleb128 0x3e
 6624 0031 0B       		.uleb128 0xb
 6625 0032 03       		.uleb128 0x3
 6626 0033 08       		.uleb128 0x8
 6627 0034 00       		.byte	0
 6628 0035 00       		.byte	0
 6629 0036 05       		.uleb128 0x5
 6630 0037 0F       		.uleb128 0xf
 6631 0038 00       		.byte	0
 6632 0039 0B       		.uleb128 0xb
 6633 003a 0B       		.uleb128 0xb
 6634 003b 00       		.byte	0
 6635 003c 00       		.byte	0
 6636 003d 06       		.uleb128 0x6
 6637 003e 13       		.uleb128 0x13
 6638 003f 01       		.byte	0x1
 6639 0040 0B       		.uleb128 0xb
ARM GAS  C:\Users\tmj32\AppData\Local\Temp\cc8DwYg3.s 			page 147


 6640 0041 0B       		.uleb128 0xb
 6641 0042 3A       		.uleb128 0x3a
 6642 0043 0B       		.uleb128 0xb
 6643 0044 3B       		.uleb128 0x3b
 6644 0045 0B       		.uleb128 0xb
 6645 0046 01       		.uleb128 0x1
 6646 0047 13       		.uleb128 0x13
 6647 0048 00       		.byte	0
 6648 0049 00       		.byte	0
 6649 004a 07       		.uleb128 0x7
 6650 004b 0D       		.uleb128 0xd
 6651 004c 00       		.byte	0
 6652 004d 03       		.uleb128 0x3
 6653 004e 0E       		.uleb128 0xe
 6654 004f 3A       		.uleb128 0x3a
 6655 0050 0B       		.uleb128 0xb
 6656 0051 3B       		.uleb128 0x3b
 6657 0052 0B       		.uleb128 0xb
 6658 0053 49       		.uleb128 0x49
 6659 0054 13       		.uleb128 0x13
 6660 0055 38       		.uleb128 0x38
 6661 0056 0B       		.uleb128 0xb
 6662 0057 00       		.byte	0
 6663 0058 00       		.byte	0
 6664 0059 08       		.uleb128 0x8
 6665 005a 0D       		.uleb128 0xd
 6666 005b 00       		.byte	0
 6667 005c 03       		.uleb128 0x3
 6668 005d 08       		.uleb128 0x8
 6669 005e 3A       		.uleb128 0x3a
 6670 005f 0B       		.uleb128 0xb
 6671 0060 3B       		.uleb128 0x3b
 6672 0061 0B       		.uleb128 0xb
 6673 0062 49       		.uleb128 0x49
 6674 0063 13       		.uleb128 0x13
 6675 0064 38       		.uleb128 0x38
 6676 0065 0B       		.uleb128 0xb
 6677 0066 00       		.byte	0
 6678 0067 00       		.byte	0
 6679 0068 09       		.uleb128 0x9
 6680 0069 13       		.uleb128 0x13
 6681 006a 01       		.byte	0x1
 6682 006b 03       		.uleb128 0x3
 6683 006c 0E       		.uleb128 0xe
 6684 006d 0B       		.uleb128 0xb
 6685 006e 0B       		.uleb128 0xb
 6686 006f 3A       		.uleb128 0x3a
 6687 0070 0B       		.uleb128 0xb
 6688 0071 3B       		.uleb128 0x3b
 6689 0072 0B       		.uleb128 0xb
 6690 0073 01       		.uleb128 0x1
 6691 0074 13       		.uleb128 0x13
 6692 0075 00       		.byte	0
 6693 0076 00       		.byte	0
 6694 0077 0A       		.uleb128 0xa
 6695 0078 0D       		.uleb128 0xd
 6696 0079 00       		.byte	0
ARM GAS  C:\Users\tmj32\AppData\Local\Temp\cc8DwYg3.s 			page 148


 6697 007a 03       		.uleb128 0x3
 6698 007b 0E       		.uleb128 0xe
 6699 007c 3A       		.uleb128 0x3a
 6700 007d 0B       		.uleb128 0xb
 6701 007e 3B       		.uleb128 0x3b
 6702 007f 0B       		.uleb128 0xb
 6703 0080 49       		.uleb128 0x49
 6704 0081 13       		.uleb128 0x13
 6705 0082 0B       		.uleb128 0xb
 6706 0083 0B       		.uleb128 0xb
 6707 0084 0D       		.uleb128 0xd
 6708 0085 0B       		.uleb128 0xb
 6709 0086 0C       		.uleb128 0xc
 6710 0087 0B       		.uleb128 0xb
 6711 0088 38       		.uleb128 0x38
 6712 0089 0B       		.uleb128 0xb
 6713 008a 00       		.byte	0
 6714 008b 00       		.byte	0
 6715 008c 0B       		.uleb128 0xb
 6716 008d 15       		.uleb128 0x15
 6717 008e 01       		.byte	0x1
 6718 008f 27       		.uleb128 0x27
 6719 0090 19       		.uleb128 0x19
 6720 0091 49       		.uleb128 0x49
 6721 0092 13       		.uleb128 0x13
 6722 0093 01       		.uleb128 0x1
 6723 0094 13       		.uleb128 0x13
 6724 0095 00       		.byte	0
 6725 0096 00       		.byte	0
 6726 0097 0C       		.uleb128 0xc
 6727 0098 05       		.uleb128 0x5
 6728 0099 00       		.byte	0
 6729 009a 49       		.uleb128 0x49
 6730 009b 13       		.uleb128 0x13
 6731 009c 00       		.byte	0
 6732 009d 00       		.byte	0
 6733 009e 0D       		.uleb128 0xd
 6734 009f 0F       		.uleb128 0xf
 6735 00a0 00       		.byte	0
 6736 00a1 0B       		.uleb128 0xb
 6737 00a2 0B       		.uleb128 0xb
 6738 00a3 49       		.uleb128 0x49
 6739 00a4 13       		.uleb128 0x13
 6740 00a5 00       		.byte	0
 6741 00a6 00       		.byte	0
 6742 00a7 0E       		.uleb128 0xe
 6743 00a8 26       		.uleb128 0x26
 6744 00a9 00       		.byte	0
 6745 00aa 49       		.uleb128 0x49
 6746 00ab 13       		.uleb128 0x13
 6747 00ac 00       		.byte	0
 6748 00ad 00       		.byte	0
 6749 00ae 0F       		.uleb128 0xf
 6750 00af 04       		.uleb128 0x4
 6751 00b0 01       		.byte	0x1
 6752 00b1 0B       		.uleb128 0xb
 6753 00b2 0B       		.uleb128 0xb
ARM GAS  C:\Users\tmj32\AppData\Local\Temp\cc8DwYg3.s 			page 149


 6754 00b3 49       		.uleb128 0x49
 6755 00b4 13       		.uleb128 0x13
 6756 00b5 3A       		.uleb128 0x3a
 6757 00b6 0B       		.uleb128 0xb
 6758 00b7 3B       		.uleb128 0x3b
 6759 00b8 0B       		.uleb128 0xb
 6760 00b9 01       		.uleb128 0x1
 6761 00ba 13       		.uleb128 0x13
 6762 00bb 00       		.byte	0
 6763 00bc 00       		.byte	0
 6764 00bd 10       		.uleb128 0x10
 6765 00be 28       		.uleb128 0x28
 6766 00bf 00       		.byte	0
 6767 00c0 03       		.uleb128 0x3
 6768 00c1 0E       		.uleb128 0xe
 6769 00c2 1C       		.uleb128 0x1c
 6770 00c3 0B       		.uleb128 0xb
 6771 00c4 00       		.byte	0
 6772 00c5 00       		.byte	0
 6773 00c6 11       		.uleb128 0x11
 6774 00c7 17       		.uleb128 0x17
 6775 00c8 01       		.byte	0x1
 6776 00c9 0B       		.uleb128 0xb
 6777 00ca 0B       		.uleb128 0xb
 6778 00cb 3A       		.uleb128 0x3a
 6779 00cc 0B       		.uleb128 0xb
 6780 00cd 3B       		.uleb128 0x3b
 6781 00ce 0B       		.uleb128 0xb
 6782 00cf 01       		.uleb128 0x1
 6783 00d0 13       		.uleb128 0x13
 6784 00d1 00       		.byte	0
 6785 00d2 00       		.byte	0
 6786 00d3 12       		.uleb128 0x12
 6787 00d4 0D       		.uleb128 0xd
 6788 00d5 00       		.byte	0
 6789 00d6 03       		.uleb128 0x3
 6790 00d7 08       		.uleb128 0x8
 6791 00d8 3A       		.uleb128 0x3a
 6792 00d9 0B       		.uleb128 0xb
 6793 00da 3B       		.uleb128 0x3b
 6794 00db 0B       		.uleb128 0xb
 6795 00dc 49       		.uleb128 0x49
 6796 00dd 13       		.uleb128 0x13
 6797 00de 00       		.byte	0
 6798 00df 00       		.byte	0
 6799 00e0 13       		.uleb128 0x13
 6800 00e1 0D       		.uleb128 0xd
 6801 00e2 00       		.byte	0
 6802 00e3 03       		.uleb128 0x3
 6803 00e4 0E       		.uleb128 0xe
 6804 00e5 3A       		.uleb128 0x3a
 6805 00e6 0B       		.uleb128 0xb
 6806 00e7 3B       		.uleb128 0x3b
 6807 00e8 0B       		.uleb128 0xb
 6808 00e9 49       		.uleb128 0x49
 6809 00ea 13       		.uleb128 0x13
 6810 00eb 00       		.byte	0
ARM GAS  C:\Users\tmj32\AppData\Local\Temp\cc8DwYg3.s 			page 150


 6811 00ec 00       		.byte	0
 6812 00ed 14       		.uleb128 0x14
 6813 00ee 16       		.uleb128 0x16
 6814 00ef 00       		.byte	0
 6815 00f0 03       		.uleb128 0x3
 6816 00f1 0E       		.uleb128 0xe
 6817 00f2 3A       		.uleb128 0x3a
 6818 00f3 0B       		.uleb128 0xb
 6819 00f4 3B       		.uleb128 0x3b
 6820 00f5 05       		.uleb128 0x5
 6821 00f6 49       		.uleb128 0x49
 6822 00f7 13       		.uleb128 0x13
 6823 00f8 00       		.byte	0
 6824 00f9 00       		.byte	0
 6825 00fa 15       		.uleb128 0x15
 6826 00fb 0D       		.uleb128 0xd
 6827 00fc 00       		.byte	0
 6828 00fd 03       		.uleb128 0x3
 6829 00fe 08       		.uleb128 0x8
 6830 00ff 3A       		.uleb128 0x3a
 6831 0100 0B       		.uleb128 0xb
 6832 0101 3B       		.uleb128 0x3b
 6833 0102 05       		.uleb128 0x5
 6834 0103 49       		.uleb128 0x49
 6835 0104 13       		.uleb128 0x13
 6836 0105 38       		.uleb128 0x38
 6837 0106 0B       		.uleb128 0xb
 6838 0107 00       		.byte	0
 6839 0108 00       		.byte	0
 6840 0109 16       		.uleb128 0x16
 6841 010a 0D       		.uleb128 0xd
 6842 010b 00       		.byte	0
 6843 010c 03       		.uleb128 0x3
 6844 010d 0E       		.uleb128 0xe
 6845 010e 3A       		.uleb128 0x3a
 6846 010f 0B       		.uleb128 0xb
 6847 0110 3B       		.uleb128 0x3b
 6848 0111 05       		.uleb128 0x5
 6849 0112 49       		.uleb128 0x49
 6850 0113 13       		.uleb128 0x13
 6851 0114 38       		.uleb128 0x38
 6852 0115 0B       		.uleb128 0xb
 6853 0116 00       		.byte	0
 6854 0117 00       		.byte	0
 6855 0118 17       		.uleb128 0x17
 6856 0119 13       		.uleb128 0x13
 6857 011a 01       		.byte	0x1
 6858 011b 0B       		.uleb128 0xb
 6859 011c 0B       		.uleb128 0xb
 6860 011d 3A       		.uleb128 0x3a
 6861 011e 0B       		.uleb128 0xb
 6862 011f 3B       		.uleb128 0x3b
 6863 0120 05       		.uleb128 0x5
 6864 0121 01       		.uleb128 0x1
 6865 0122 13       		.uleb128 0x13
 6866 0123 00       		.byte	0
 6867 0124 00       		.byte	0
ARM GAS  C:\Users\tmj32\AppData\Local\Temp\cc8DwYg3.s 			page 151


 6868 0125 18       		.uleb128 0x18
 6869 0126 13       		.uleb128 0x13
 6870 0127 01       		.byte	0x1
 6871 0128 0B       		.uleb128 0xb
 6872 0129 05       		.uleb128 0x5
 6873 012a 3A       		.uleb128 0x3a
 6874 012b 0B       		.uleb128 0xb
 6875 012c 3B       		.uleb128 0x3b
 6876 012d 0B       		.uleb128 0xb
 6877 012e 01       		.uleb128 0x1
 6878 012f 13       		.uleb128 0x13
 6879 0130 00       		.byte	0
 6880 0131 00       		.byte	0
 6881 0132 19       		.uleb128 0x19
 6882 0133 0D       		.uleb128 0xd
 6883 0134 00       		.byte	0
 6884 0135 03       		.uleb128 0x3
 6885 0136 0E       		.uleb128 0xe
 6886 0137 3A       		.uleb128 0x3a
 6887 0138 0B       		.uleb128 0xb
 6888 0139 3B       		.uleb128 0x3b
 6889 013a 0B       		.uleb128 0xb
 6890 013b 49       		.uleb128 0x49
 6891 013c 13       		.uleb128 0x13
 6892 013d 38       		.uleb128 0x38
 6893 013e 05       		.uleb128 0x5
 6894 013f 00       		.byte	0
 6895 0140 00       		.byte	0
 6896 0141 1A       		.uleb128 0x1a
 6897 0142 0D       		.uleb128 0xd
 6898 0143 00       		.byte	0
 6899 0144 03       		.uleb128 0x3
 6900 0145 08       		.uleb128 0x8
 6901 0146 3A       		.uleb128 0x3a
 6902 0147 0B       		.uleb128 0xb
 6903 0148 3B       		.uleb128 0x3b
 6904 0149 0B       		.uleb128 0xb
 6905 014a 49       		.uleb128 0x49
 6906 014b 13       		.uleb128 0x13
 6907 014c 38       		.uleb128 0x38
 6908 014d 05       		.uleb128 0x5
 6909 014e 00       		.byte	0
 6910 014f 00       		.byte	0
 6911 0150 1B       		.uleb128 0x1b
 6912 0151 0D       		.uleb128 0xd
 6913 0152 00       		.byte	0
 6914 0153 03       		.uleb128 0x3
 6915 0154 0E       		.uleb128 0xe
 6916 0155 3A       		.uleb128 0x3a
 6917 0156 0B       		.uleb128 0xb
 6918 0157 3B       		.uleb128 0x3b
 6919 0158 05       		.uleb128 0x5
 6920 0159 49       		.uleb128 0x49
 6921 015a 13       		.uleb128 0x13
 6922 015b 38       		.uleb128 0x38
 6923 015c 05       		.uleb128 0x5
 6924 015d 00       		.byte	0
ARM GAS  C:\Users\tmj32\AppData\Local\Temp\cc8DwYg3.s 			page 152


 6925 015e 00       		.byte	0
 6926 015f 1C       		.uleb128 0x1c
 6927 0160 0D       		.uleb128 0xd
 6928 0161 00       		.byte	0
 6929 0162 03       		.uleb128 0x3
 6930 0163 08       		.uleb128 0x8
 6931 0164 3A       		.uleb128 0x3a
 6932 0165 0B       		.uleb128 0xb
 6933 0166 3B       		.uleb128 0x3b
 6934 0167 05       		.uleb128 0x5
 6935 0168 49       		.uleb128 0x49
 6936 0169 13       		.uleb128 0x13
 6937 016a 38       		.uleb128 0x38
 6938 016b 05       		.uleb128 0x5
 6939 016c 00       		.byte	0
 6940 016d 00       		.byte	0
 6941 016e 1D       		.uleb128 0x1d
 6942 016f 2E       		.uleb128 0x2e
 6943 0170 01       		.byte	0x1
 6944 0171 03       		.uleb128 0x3
 6945 0172 0E       		.uleb128 0xe
 6946 0173 3A       		.uleb128 0x3a
 6947 0174 0B       		.uleb128 0xb
 6948 0175 3B       		.uleb128 0x3b
 6949 0176 05       		.uleb128 0x5
 6950 0177 27       		.uleb128 0x27
 6951 0178 19       		.uleb128 0x19
 6952 0179 49       		.uleb128 0x49
 6953 017a 13       		.uleb128 0x13
 6954 017b 11       		.uleb128 0x11
 6955 017c 01       		.uleb128 0x1
 6956 017d 12       		.uleb128 0x12
 6957 017e 06       		.uleb128 0x6
 6958 017f 40       		.uleb128 0x40
 6959 0180 18       		.uleb128 0x18
 6960 0181 9742     		.uleb128 0x2117
 6961 0183 19       		.uleb128 0x19
 6962 0184 01       		.uleb128 0x1
 6963 0185 13       		.uleb128 0x13
 6964 0186 00       		.byte	0
 6965 0187 00       		.byte	0
 6966 0188 1E       		.uleb128 0x1e
 6967 0189 05       		.uleb128 0x5
 6968 018a 00       		.byte	0
 6969 018b 03       		.uleb128 0x3
 6970 018c 08       		.uleb128 0x8
 6971 018d 3A       		.uleb128 0x3a
 6972 018e 0B       		.uleb128 0xb
 6973 018f 3B       		.uleb128 0x3b
 6974 0190 05       		.uleb128 0x5
 6975 0191 49       		.uleb128 0x49
 6976 0192 13       		.uleb128 0x13
 6977 0193 02       		.uleb128 0x2
 6978 0194 18       		.uleb128 0x18
 6979 0195 00       		.byte	0
 6980 0196 00       		.byte	0
 6981 0197 1F       		.uleb128 0x1f
ARM GAS  C:\Users\tmj32\AppData\Local\Temp\cc8DwYg3.s 			page 153


 6982 0198 2E       		.uleb128 0x2e
 6983 0199 01       		.byte	0x1
 6984 019a 03       		.uleb128 0x3
 6985 019b 0E       		.uleb128 0xe
 6986 019c 3A       		.uleb128 0x3a
 6987 019d 0B       		.uleb128 0xb
 6988 019e 3B       		.uleb128 0x3b
 6989 019f 05       		.uleb128 0x5
 6990 01a0 27       		.uleb128 0x27
 6991 01a1 19       		.uleb128 0x19
 6992 01a2 49       		.uleb128 0x49
 6993 01a3 13       		.uleb128 0x13
 6994 01a4 11       		.uleb128 0x11
 6995 01a5 01       		.uleb128 0x1
 6996 01a6 12       		.uleb128 0x12
 6997 01a7 06       		.uleb128 0x6
 6998 01a8 40       		.uleb128 0x40
 6999 01a9 18       		.uleb128 0x18
 7000 01aa 9642     		.uleb128 0x2116
 7001 01ac 19       		.uleb128 0x19
 7002 01ad 01       		.uleb128 0x1
 7003 01ae 13       		.uleb128 0x13
 7004 01af 00       		.byte	0
 7005 01b0 00       		.byte	0
 7006 01b1 20       		.uleb128 0x20
 7007 01b2 2E       		.uleb128 0x2e
 7008 01b3 01       		.byte	0x1
 7009 01b4 03       		.uleb128 0x3
 7010 01b5 0E       		.uleb128 0xe
 7011 01b6 3A       		.uleb128 0x3a
 7012 01b7 0B       		.uleb128 0xb
 7013 01b8 3B       		.uleb128 0x3b
 7014 01b9 0B       		.uleb128 0xb
 7015 01ba 27       		.uleb128 0x27
 7016 01bb 19       		.uleb128 0x19
 7017 01bc 11       		.uleb128 0x11
 7018 01bd 01       		.uleb128 0x1
 7019 01be 12       		.uleb128 0x12
 7020 01bf 06       		.uleb128 0x6
 7021 01c0 40       		.uleb128 0x40
 7022 01c1 18       		.uleb128 0x18
 7023 01c2 9642     		.uleb128 0x2116
 7024 01c4 19       		.uleb128 0x19
 7025 01c5 01       		.uleb128 0x1
 7026 01c6 13       		.uleb128 0x13
 7027 01c7 00       		.byte	0
 7028 01c8 00       		.byte	0
 7029 01c9 21       		.uleb128 0x21
 7030 01ca 34       		.uleb128 0x34
 7031 01cb 00       		.byte	0
 7032 01cc 03       		.uleb128 0x3
 7033 01cd 08       		.uleb128 0x8
 7034 01ce 3A       		.uleb128 0x3a
 7035 01cf 0B       		.uleb128 0xb
 7036 01d0 3B       		.uleb128 0x3b
 7037 01d1 0B       		.uleb128 0xb
 7038 01d2 49       		.uleb128 0x49
ARM GAS  C:\Users\tmj32\AppData\Local\Temp\cc8DwYg3.s 			page 154


 7039 01d3 13       		.uleb128 0x13
 7040 01d4 02       		.uleb128 0x2
 7041 01d5 18       		.uleb128 0x18
 7042 01d6 00       		.byte	0
 7043 01d7 00       		.byte	0
 7044 01d8 22       		.uleb128 0x22
 7045 01d9 34       		.uleb128 0x34
 7046 01da 00       		.byte	0
 7047 01db 03       		.uleb128 0x3
 7048 01dc 0E       		.uleb128 0xe
 7049 01dd 3A       		.uleb128 0x3a
 7050 01de 0B       		.uleb128 0xb
 7051 01df 3B       		.uleb128 0x3b
 7052 01e0 0B       		.uleb128 0xb
 7053 01e1 49       		.uleb128 0x49
 7054 01e2 13       		.uleb128 0x13
 7055 01e3 02       		.uleb128 0x2
 7056 01e4 18       		.uleb128 0x18
 7057 01e5 00       		.byte	0
 7058 01e6 00       		.byte	0
 7059 01e7 23       		.uleb128 0x23
 7060 01e8 2E       		.uleb128 0x2e
 7061 01e9 00       		.byte	0
 7062 01ea 03       		.uleb128 0x3
 7063 01eb 0E       		.uleb128 0xe
 7064 01ec 3A       		.uleb128 0x3a
 7065 01ed 0B       		.uleb128 0xb
 7066 01ee 3B       		.uleb128 0x3b
 7067 01ef 0B       		.uleb128 0xb
 7068 01f0 27       		.uleb128 0x27
 7069 01f1 19       		.uleb128 0x19
 7070 01f2 11       		.uleb128 0x11
 7071 01f3 01       		.uleb128 0x1
 7072 01f4 12       		.uleb128 0x12
 7073 01f5 06       		.uleb128 0x6
 7074 01f6 40       		.uleb128 0x40
 7075 01f7 18       		.uleb128 0x18
 7076 01f8 9742     		.uleb128 0x2117
 7077 01fa 19       		.uleb128 0x19
 7078 01fb 00       		.byte	0
 7079 01fc 00       		.byte	0
 7080 01fd 24       		.uleb128 0x24
 7081 01fe 2E       		.uleb128 0x2e
 7082 01ff 01       		.byte	0x1
 7083 0200 03       		.uleb128 0x3
 7084 0201 0E       		.uleb128 0xe
 7085 0202 3A       		.uleb128 0x3a
 7086 0203 0B       		.uleb128 0xb
 7087 0204 3B       		.uleb128 0x3b
 7088 0205 05       		.uleb128 0x5
 7089 0206 27       		.uleb128 0x27
 7090 0207 19       		.uleb128 0x19
 7091 0208 11       		.uleb128 0x11
 7092 0209 01       		.uleb128 0x1
 7093 020a 12       		.uleb128 0x12
 7094 020b 06       		.uleb128 0x6
 7095 020c 40       		.uleb128 0x40
ARM GAS  C:\Users\tmj32\AppData\Local\Temp\cc8DwYg3.s 			page 155


 7096 020d 18       		.uleb128 0x18
 7097 020e 9642     		.uleb128 0x2116
 7098 0210 19       		.uleb128 0x19
 7099 0211 01       		.uleb128 0x1
 7100 0212 13       		.uleb128 0x13
 7101 0213 00       		.byte	0
 7102 0214 00       		.byte	0
 7103 0215 25       		.uleb128 0x25
 7104 0216 34       		.uleb128 0x34
 7105 0217 00       		.byte	0
 7106 0218 03       		.uleb128 0x3
 7107 0219 0E       		.uleb128 0xe
 7108 021a 3A       		.uleb128 0x3a
 7109 021b 0B       		.uleb128 0xb
 7110 021c 3B       		.uleb128 0x3b
 7111 021d 05       		.uleb128 0x5
 7112 021e 49       		.uleb128 0x49
 7113 021f 13       		.uleb128 0x13
 7114 0220 02       		.uleb128 0x2
 7115 0221 18       		.uleb128 0x18
 7116 0222 00       		.byte	0
 7117 0223 00       		.byte	0
 7118 0224 26       		.uleb128 0x26
 7119 0225 34       		.uleb128 0x34
 7120 0226 00       		.byte	0
 7121 0227 03       		.uleb128 0x3
 7122 0228 08       		.uleb128 0x8
 7123 0229 3A       		.uleb128 0x3a
 7124 022a 0B       		.uleb128 0xb
 7125 022b 3B       		.uleb128 0x3b
 7126 022c 05       		.uleb128 0x5
 7127 022d 49       		.uleb128 0x49
 7128 022e 13       		.uleb128 0x13
 7129 022f 02       		.uleb128 0x2
 7130 0230 18       		.uleb128 0x18
 7131 0231 00       		.byte	0
 7132 0232 00       		.byte	0
 7133 0233 27       		.uleb128 0x27
 7134 0234 2E       		.uleb128 0x2e
 7135 0235 00       		.byte	0
 7136 0236 03       		.uleb128 0x3
 7137 0237 0E       		.uleb128 0xe
 7138 0238 3A       		.uleb128 0x3a
 7139 0239 0B       		.uleb128 0xb
 7140 023a 3B       		.uleb128 0x3b
 7141 023b 05       		.uleb128 0x5
 7142 023c 27       		.uleb128 0x27
 7143 023d 19       		.uleb128 0x19
 7144 023e 11       		.uleb128 0x11
 7145 023f 01       		.uleb128 0x1
 7146 0240 12       		.uleb128 0x12
 7147 0241 06       		.uleb128 0x6
 7148 0242 40       		.uleb128 0x40
 7149 0243 18       		.uleb128 0x18
 7150 0244 9742     		.uleb128 0x2117
 7151 0246 19       		.uleb128 0x19
 7152 0247 00       		.byte	0
ARM GAS  C:\Users\tmj32\AppData\Local\Temp\cc8DwYg3.s 			page 156


 7153 0248 00       		.byte	0
 7154 0249 28       		.uleb128 0x28
 7155 024a 2E       		.uleb128 0x2e
 7156 024b 01       		.byte	0x1
 7157 024c 3F       		.uleb128 0x3f
 7158 024d 19       		.uleb128 0x19
 7159 024e 03       		.uleb128 0x3
 7160 024f 0E       		.uleb128 0xe
 7161 0250 3A       		.uleb128 0x3a
 7162 0251 0B       		.uleb128 0xb
 7163 0252 3B       		.uleb128 0x3b
 7164 0253 05       		.uleb128 0x5
 7165 0254 27       		.uleb128 0x27
 7166 0255 19       		.uleb128 0x19
 7167 0256 49       		.uleb128 0x49
 7168 0257 13       		.uleb128 0x13
 7169 0258 11       		.uleb128 0x11
 7170 0259 01       		.uleb128 0x1
 7171 025a 12       		.uleb128 0x12
 7172 025b 06       		.uleb128 0x6
 7173 025c 40       		.uleb128 0x40
 7174 025d 18       		.uleb128 0x18
 7175 025e 9642     		.uleb128 0x2116
 7176 0260 19       		.uleb128 0x19
 7177 0261 01       		.uleb128 0x1
 7178 0262 13       		.uleb128 0x13
 7179 0263 00       		.byte	0
 7180 0264 00       		.byte	0
 7181 0265 29       		.uleb128 0x29
 7182 0266 05       		.uleb128 0x5
 7183 0267 00       		.byte	0
 7184 0268 03       		.uleb128 0x3
 7185 0269 0E       		.uleb128 0xe
 7186 026a 3A       		.uleb128 0x3a
 7187 026b 0B       		.uleb128 0xb
 7188 026c 3B       		.uleb128 0x3b
 7189 026d 05       		.uleb128 0x5
 7190 026e 49       		.uleb128 0x49
 7191 026f 13       		.uleb128 0x13
 7192 0270 02       		.uleb128 0x2
 7193 0271 18       		.uleb128 0x18
 7194 0272 00       		.byte	0
 7195 0273 00       		.byte	0
 7196 0274 2A       		.uleb128 0x2a
 7197 0275 2E       		.uleb128 0x2e
 7198 0276 00       		.byte	0
 7199 0277 3F       		.uleb128 0x3f
 7200 0278 19       		.uleb128 0x19
 7201 0279 03       		.uleb128 0x3
 7202 027a 0E       		.uleb128 0xe
 7203 027b 3A       		.uleb128 0x3a
 7204 027c 0B       		.uleb128 0xb
 7205 027d 3B       		.uleb128 0x3b
 7206 027e 05       		.uleb128 0x5
 7207 027f 27       		.uleb128 0x27
 7208 0280 19       		.uleb128 0x19
 7209 0281 49       		.uleb128 0x49
ARM GAS  C:\Users\tmj32\AppData\Local\Temp\cc8DwYg3.s 			page 157


 7210 0282 13       		.uleb128 0x13
 7211 0283 11       		.uleb128 0x11
 7212 0284 01       		.uleb128 0x1
 7213 0285 12       		.uleb128 0x12
 7214 0286 06       		.uleb128 0x6
 7215 0287 40       		.uleb128 0x40
 7216 0288 18       		.uleb128 0x18
 7217 0289 9742     		.uleb128 0x2117
 7218 028b 19       		.uleb128 0x19
 7219 028c 00       		.byte	0
 7220 028d 00       		.byte	0
 7221 028e 2B       		.uleb128 0x2b
 7222 028f 34       		.uleb128 0x34
 7223 0290 00       		.byte	0
 7224 0291 03       		.uleb128 0x3
 7225 0292 0E       		.uleb128 0xe
 7226 0293 3A       		.uleb128 0x3a
 7227 0294 0B       		.uleb128 0xb
 7228 0295 3B       		.uleb128 0x3b
 7229 0296 0B       		.uleb128 0xb
 7230 0297 49       		.uleb128 0x49
 7231 0298 13       		.uleb128 0x13
 7232 0299 3F       		.uleb128 0x3f
 7233 029a 19       		.uleb128 0x19
 7234 029b 3C       		.uleb128 0x3c
 7235 029c 19       		.uleb128 0x19
 7236 029d 00       		.byte	0
 7237 029e 00       		.byte	0
 7238 029f 2C       		.uleb128 0x2c
 7239 02a0 34       		.uleb128 0x34
 7240 02a1 00       		.byte	0
 7241 02a2 03       		.uleb128 0x3
 7242 02a3 0E       		.uleb128 0xe
 7243 02a4 3A       		.uleb128 0x3a
 7244 02a5 0B       		.uleb128 0xb
 7245 02a6 3B       		.uleb128 0x3b
 7246 02a7 05       		.uleb128 0x5
 7247 02a8 49       		.uleb128 0x49
 7248 02a9 13       		.uleb128 0x13
 7249 02aa 3F       		.uleb128 0x3f
 7250 02ab 19       		.uleb128 0x19
 7251 02ac 3C       		.uleb128 0x3c
 7252 02ad 19       		.uleb128 0x19
 7253 02ae 00       		.byte	0
 7254 02af 00       		.byte	0
 7255 02b0 00       		.byte	0
 7256              		.section	.debug_aranges,"",%progbits
 7257 0000 2C010000 		.4byte	0x12c
 7258 0004 0200     		.2byte	0x2
 7259 0006 00000000 		.4byte	.Ldebug_info0
 7260 000a 04       		.byte	0x4
 7261 000b 00       		.byte	0
 7262 000c 0000     		.2byte	0
 7263 000e 0000     		.2byte	0
 7264 0010 00000000 		.4byte	.LFB7
 7265 0014 38000000 		.4byte	.LFE7-.LFB7
 7266 0018 00000000 		.4byte	.LFB8
ARM GAS  C:\Users\tmj32\AppData\Local\Temp\cc8DwYg3.s 			page 158


 7267 001c 28000000 		.4byte	.LFE8-.LFB8
 7268 0020 00000000 		.4byte	.LFB9
 7269 0024 64000000 		.4byte	.LFE9-.LFB9
 7270 0028 00000000 		.4byte	.LFB31
 7271 002c 84010000 		.4byte	.LFE31-.LFB31
 7272 0030 00000000 		.4byte	.LFB32
 7273 0034 1C000000 		.4byte	.LFE32-.LFB32
 7274 0038 00000000 		.4byte	.LFB33
 7275 003c 88010000 		.4byte	.LFE33-.LFB33
 7276 0040 00000000 		.4byte	.LFB34
 7277 0044 8C000000 		.4byte	.LFE34-.LFB34
 7278 0048 00000000 		.4byte	.LFB35
 7279 004c 6C000000 		.4byte	.LFE35-.LFB35
 7280 0050 00000000 		.4byte	.LFB36
 7281 0054 1C000000 		.4byte	.LFE36-.LFB36
 7282 0058 00000000 		.4byte	.LFB37
 7283 005c 88000000 		.4byte	.LFE37-.LFB37
 7284 0060 00000000 		.4byte	.LFB38
 7285 0064 A8000000 		.4byte	.LFE38-.LFB38
 7286 0068 00000000 		.4byte	.LFB39
 7287 006c 54000000 		.4byte	.LFE39-.LFB39
 7288 0070 00000000 		.4byte	.LFB40
 7289 0074 BC000000 		.4byte	.LFE40-.LFB40
 7290 0078 00000000 		.4byte	.LFB41
 7291 007c 5C000000 		.4byte	.LFE41-.LFB41
 7292 0080 00000000 		.4byte	.LFB42
 7293 0084 80000000 		.4byte	.LFE42-.LFB42
 7294 0088 00000000 		.4byte	.LFB43
 7295 008c 70000000 		.4byte	.LFE43-.LFB43
 7296 0090 00000000 		.4byte	.LFB44
 7297 0094 1C000000 		.4byte	.LFE44-.LFB44
 7298 0098 00000000 		.4byte	.LFB45
 7299 009c 1C000000 		.4byte	.LFE45-.LFB45
 7300 00a0 00000000 		.4byte	.LFB46
 7301 00a4 4C010000 		.4byte	.LFE46-.LFB46
 7302 00a8 00000000 		.4byte	.LFB47
 7303 00ac F4000000 		.4byte	.LFE47-.LFB47
 7304 00b0 00000000 		.4byte	.LFB48
 7305 00b4 6C010000 		.4byte	.LFE48-.LFB48
 7306 00b8 00000000 		.4byte	.LFB49
 7307 00bc 6C000000 		.4byte	.LFE49-.LFB49
 7308 00c0 00000000 		.4byte	.LFB50
 7309 00c4 90000000 		.4byte	.LFE50-.LFB50
 7310 00c8 00000000 		.4byte	.LFB51
 7311 00cc 34000000 		.4byte	.LFE51-.LFB51
 7312 00d0 00000000 		.4byte	.LFB52
 7313 00d4 78000000 		.4byte	.LFE52-.LFB52
 7314 00d8 00000000 		.4byte	.LFB53
 7315 00dc 34000000 		.4byte	.LFE53-.LFB53
 7316 00e0 00000000 		.4byte	.LFB54
 7317 00e4 98010000 		.4byte	.LFE54-.LFB54
 7318 00e8 00000000 		.4byte	.LFB55
 7319 00ec A0000000 		.4byte	.LFE55-.LFB55
 7320 00f0 00000000 		.4byte	.LFB56
 7321 00f4 84000000 		.4byte	.LFE56-.LFB56
 7322 00f8 00000000 		.4byte	.LFB57
 7323 00fc 0C020000 		.4byte	.LFE57-.LFB57
ARM GAS  C:\Users\tmj32\AppData\Local\Temp\cc8DwYg3.s 			page 159


 7324 0100 00000000 		.4byte	.LFB58
 7325 0104 34000000 		.4byte	.LFE58-.LFB58
 7326 0108 00000000 		.4byte	.LFB59
 7327 010c 54000000 		.4byte	.LFE59-.LFB59
 7328 0110 00000000 		.4byte	.LFB60
 7329 0114 10010000 		.4byte	.LFE60-.LFB60
 7330 0118 00000000 		.4byte	.LFB61
 7331 011c DC000000 		.4byte	.LFE61-.LFB61
 7332 0120 00000000 		.4byte	.LFB62
 7333 0124 14000000 		.4byte	.LFE62-.LFB62
 7334 0128 00000000 		.4byte	0
 7335 012c 00000000 		.4byte	0
 7336              		.section	.debug_ranges,"",%progbits
 7337              	.Ldebug_ranges0:
 7338 0000 00000000 		.4byte	.LFB7
 7339 0004 38000000 		.4byte	.LFE7
 7340 0008 00000000 		.4byte	.LFB8
 7341 000c 28000000 		.4byte	.LFE8
 7342 0010 00000000 		.4byte	.LFB9
 7343 0014 64000000 		.4byte	.LFE9
 7344 0018 00000000 		.4byte	.LFB31
 7345 001c 84010000 		.4byte	.LFE31
 7346 0020 00000000 		.4byte	.LFB32
 7347 0024 1C000000 		.4byte	.LFE32
 7348 0028 00000000 		.4byte	.LFB33
 7349 002c 88010000 		.4byte	.LFE33
 7350 0030 00000000 		.4byte	.LFB34
 7351 0034 8C000000 		.4byte	.LFE34
 7352 0038 00000000 		.4byte	.LFB35
 7353 003c 6C000000 		.4byte	.LFE35
 7354 0040 00000000 		.4byte	.LFB36
 7355 0044 1C000000 		.4byte	.LFE36
 7356 0048 00000000 		.4byte	.LFB37
 7357 004c 88000000 		.4byte	.LFE37
 7358 0050 00000000 		.4byte	.LFB38
 7359 0054 A8000000 		.4byte	.LFE38
 7360 0058 00000000 		.4byte	.LFB39
 7361 005c 54000000 		.4byte	.LFE39
 7362 0060 00000000 		.4byte	.LFB40
 7363 0064 BC000000 		.4byte	.LFE40
 7364 0068 00000000 		.4byte	.LFB41
 7365 006c 5C000000 		.4byte	.LFE41
 7366 0070 00000000 		.4byte	.LFB42
 7367 0074 80000000 		.4byte	.LFE42
 7368 0078 00000000 		.4byte	.LFB43
 7369 007c 70000000 		.4byte	.LFE43
 7370 0080 00000000 		.4byte	.LFB44
 7371 0084 1C000000 		.4byte	.LFE44
 7372 0088 00000000 		.4byte	.LFB45
 7373 008c 1C000000 		.4byte	.LFE45
 7374 0090 00000000 		.4byte	.LFB46
 7375 0094 4C010000 		.4byte	.LFE46
 7376 0098 00000000 		.4byte	.LFB47
 7377 009c F4000000 		.4byte	.LFE47
 7378 00a0 00000000 		.4byte	.LFB48
 7379 00a4 6C010000 		.4byte	.LFE48
 7380 00a8 00000000 		.4byte	.LFB49
ARM GAS  C:\Users\tmj32\AppData\Local\Temp\cc8DwYg3.s 			page 160


 7381 00ac 6C000000 		.4byte	.LFE49
 7382 00b0 00000000 		.4byte	.LFB50
 7383 00b4 90000000 		.4byte	.LFE50
 7384 00b8 00000000 		.4byte	.LFB51
 7385 00bc 34000000 		.4byte	.LFE51
 7386 00c0 00000000 		.4byte	.LFB52
 7387 00c4 78000000 		.4byte	.LFE52
 7388 00c8 00000000 		.4byte	.LFB53
 7389 00cc 34000000 		.4byte	.LFE53
 7390 00d0 00000000 		.4byte	.LFB54
 7391 00d4 98010000 		.4byte	.LFE54
 7392 00d8 00000000 		.4byte	.LFB55
 7393 00dc A0000000 		.4byte	.LFE55
 7394 00e0 00000000 		.4byte	.LFB56
 7395 00e4 84000000 		.4byte	.LFE56
 7396 00e8 00000000 		.4byte	.LFB57
 7397 00ec 0C020000 		.4byte	.LFE57
 7398 00f0 00000000 		.4byte	.LFB58
 7399 00f4 34000000 		.4byte	.LFE58
 7400 00f8 00000000 		.4byte	.LFB59
 7401 00fc 54000000 		.4byte	.LFE59
 7402 0100 00000000 		.4byte	.LFB60
 7403 0104 10010000 		.4byte	.LFE60
 7404 0108 00000000 		.4byte	.LFB61
 7405 010c DC000000 		.4byte	.LFE61
 7406 0110 00000000 		.4byte	.LFB62
 7407 0114 14000000 		.4byte	.LFE62
 7408 0118 00000000 		.4byte	0
 7409 011c 00000000 		.4byte	0
 7410              		.section	.debug_line,"",%progbits
 7411              	.Ldebug_line0:
 7412 0000 47070000 		.section	.debug_str,"MS",%progbits,1
 7412      02009602 
 7412      00000201 
 7412      FB0E0D00 
 7412      01010101 
 7413              	.LASF141:
 7414 0000 6C765F63 		.ascii	"lv_color_hex3\000"
 7414      6F6C6F72 
 7414      5F686578 
 7414      3300
 7415              	.LASF79:
 7416 000e 70616464 		.ascii	"padding\000"
 7416      696E6700 
 7417              	.LASF154:
 7418 0016 736C6964 		.ascii	"slider_init\000"
 7418      65725F69 
 7418      6E697400 
 7419              	.LASF28:
 7420 0022 6765745F 		.ascii	"get_glyph_bitmap\000"
 7420      676C7970 
 7420      685F6269 
 7420      746D6170 
 7420      00
 7421              	.LASF61:
 7422 0033 4C565F42 		.ascii	"LV_BORDER_INTERNAL\000"
 7422      4F524445 
ARM GAS  C:\Users\tmj32\AppData\Local\Temp\cc8DwYg3.s 			page 161


 7422      525F494E 
 7422      5445524E 
 7422      414C00
 7423              	.LASF172:
 7424 0046 70616765 		.ascii	"page_init\000"
 7424      5F696E69 
 7424      7400
 7425              	.LASF38:
 7426 0050 4C565F4F 		.ascii	"LV_OPA_40\000"
 7426      50415F34 
 7426      3000
 7427              	.LASF37:
 7428 005a 4C565F4F 		.ascii	"LV_OPA_30\000"
 7428      50415F33 
 7428      3000
 7429              	.LASF113:
 7430 0064 6F6E656C 		.ascii	"oneline\000"
 7430      696E6500 
 7431              	.LASF157:
 7432 006c 73775F69 		.ascii	"sw_indic\000"
 7432      6E646963 
 7432      00
 7433              	.LASF1:
 7434 0075 5F5F7569 		.ascii	"__uint8_t\000"
 7434      6E74385F 
 7434      7400
 7435              	.LASF97:
 7436 007f 6C696768 		.ascii	"light\000"
 7436      7400
 7437              	.LASF162:
 7438 0085 6172635F 		.ascii	"arc_init\000"
 7438      696E6974 
 7438      00
 7439              	.LASF184:
 7440 008e 7461626C 		.ascii	"table_init\000"
 7440      655F696E 
 7440      697400
 7441              	.LASF69:
 7442 0099 74797065 		.ascii	"type\000"
 7442      00
 7443              	.LASF64:
 7444 009e 4C565F53 		.ascii	"LV_SHADOW_FULL\000"
 7444      4841444F 
 7444      575F4655 
 7444      4C4C00
 7445              	.LASF153:
 7446 00ad 6261725F 		.ascii	"bar_indic\000"
 7446      696E6469 
 7446      6300
 7447              	.LASF186:
 7448 00b7 7374796C 		.ascii	"style_p\000"
 7448      655F7000 
 7449              	.LASF12:
 7450 00bf 6C6F6E67 		.ascii	"long long unsigned int\000"
 7450      206C6F6E 
 7450      6720756E 
 7450      7369676E 
ARM GAS  C:\Users\tmj32\AppData\Local\Temp\cc8DwYg3.s 			page 162


 7450      65642069 
 7451              	.LASF32:
 7452 00d6 6C765F66 		.ascii	"lv_font_t\000"
 7452      6F6E745F 
 7452      7400
 7453              	.LASF158:
 7454 00e0 73775F6B 		.ascii	"sw_knob_off\000"
 7454      6E6F625F 
 7454      6F666600 
 7455              	.LASF83:
 7456 00ec 6C696E65 		.ascii	"line_space\000"
 7456      5F737061 
 7456      636500
 7457              	.LASF114:
 7458 00f7 63757273 		.ascii	"cursor\000"
 7458      6F7200
 7459              	.LASF123:
 7460 00fe 67617567 		.ascii	"gauge\000"
 7460      6500
 7461              	.LASF89:
 7462 0104 74657874 		.ascii	"text\000"
 7462      00
 7463              	.LASF0:
 7464 0109 5F5F696E 		.ascii	"__int8_t\000"
 7464      74385F74 
 7464      00
 7465              	.LASF50:
 7466 0112 6C765F63 		.ascii	"lv_color32_t\000"
 7466      6F6C6F72 
 7466      33325F74 
 7466      00
 7467              	.LASF87:
 7468 011f 676C6173 		.ascii	"glass\000"
 7468      7300
 7469              	.LASF155:
 7470 0125 73775F69 		.ascii	"sw_init\000"
 7470      6E697400 
 7471              	.LASF193:
 7472 012d 6C765F73 		.ascii	"lv_style_plain\000"
 7472      74796C65 
 7472      5F706C61 
 7472      696E00
 7473              	.LASF175:
 7474 013c 6C697374 		.ascii	"list_init\000"
 7474      5F696E69 
 7474      7400
 7475              	.LASF19:
 7476 0146 6C765F63 		.ascii	"lv_coord_t\000"
 7476      6F6F7264 
 7476      5F7400
 7477              	.LASF182:
 7478 0151 62746E5F 		.ascii	"btn_bg\000"
 7478      626700
 7479              	.LASF72:
 7480 0158 72696768 		.ascii	"right\000"
 7480      7400
 7481              	.LASF16:
ARM GAS  C:\Users\tmj32\AppData\Local\Temp\cc8DwYg3.s 			page 163


 7482 015e 696E7431 		.ascii	"int16_t\000"
 7482      365F7400 
 7483              	.LASF173:
 7484 0166 74615F69 		.ascii	"ta_init\000"
 7484      6E697400 
 7485              	.LASF11:
 7486 016e 6C6F6E67 		.ascii	"long long int\000"
 7486      206C6F6E 
 7486      6720696E 
 7486      7400
 7487              	.LASF2:
 7488 017c 7369676E 		.ascii	"signed char\000"
 7488      65642063 
 7488      68617200 
 7489              	.LASF48:
 7490 0188 616C7068 		.ascii	"alpha\000"
 7490      6100
 7491              	.LASF88:
 7492 018e 626F6479 		.ascii	"body\000"
 7492      00
 7493              	.LASF131:
 7494 0193 6C697374 		.ascii	"list\000"
 7494      00
 7495              	.LASF8:
 7496 0198 6C6F6E67 		.ascii	"long int\000"
 7496      20696E74 
 7496      00
 7497              	.LASF168:
 7498 01a1 63625F69 		.ascii	"cb_init\000"
 7498      6E697400 
 7499              	.LASF149:
 7500 01a9 6C696E65 		.ascii	"line_init\000"
 7500      5F696E69 
 7500      7400
 7501              	.LASF74:
 7502 01b3 6D61696E 		.ascii	"main_color\000"
 7502      5F636F6C 
 7502      6F7200
 7503              	.LASF174:
 7504 01be 7370696E 		.ascii	"spinbox_init\000"
 7504      626F785F 
 7504      696E6974 
 7504      00
 7505              	.LASF5:
 7506 01cb 73686F72 		.ascii	"short int\000"
 7506      7420696E 
 7506      7400
 7507              	.LASF190:
 7508 01d5 6C765F66 		.ascii	"lv_font_roboto_16\000"
 7508      6F6E745F 
 7508      726F626F 
 7508      746F5F31 
 7508      3600
 7509              	.LASF45:
 7510 01e7 4C565F4F 		.ascii	"LV_OPA_COVER\000"
 7510      50415F43 
 7510      4F564552 
ARM GAS  C:\Users\tmj32\AppData\Local\Temp\cc8DwYg3.s 			page 164


 7510      00
 7511              	.LASF34:
 7512 01f4 4C565F4F 		.ascii	"LV_OPA_0\000"
 7512      50415F30 
 7512      00
 7513              	.LASF70:
 7514 01fd 626F7474 		.ascii	"bottom\000"
 7514      6F6D00
 7515              	.LASF100:
 7516 0204 696E6469 		.ascii	"indic\000"
 7516      6300
 7517              	.LASF179:
 7518 020a 726F6C6C 		.ascii	"roller_bg\000"
 7518      65725F62 
 7518      6700
 7519              	.LASF198:
 7520 0214 6C765F74 		.ascii	"lv_theme_material_init\000"
 7520      68656D65 
 7520      5F6D6174 
 7520      65726961 
 7520      6C5F696E 
 7521              	.LASF9:
 7522 022b 5F5F7569 		.ascii	"__uint32_t\000"
 7522      6E743332 
 7522      5F7400
 7523              	.LASF40:
 7524 0236 4C565F4F 		.ascii	"LV_OPA_60\000"
 7524      50415F36 
 7524      3000
 7525              	.LASF4:
 7526 0240 5F5F696E 		.ascii	"__int16_t\000"
 7526      7431365F 
 7526      7400
 7527              	.LASF55:
 7528 024a 4C565F42 		.ascii	"LV_BORDER_NONE\000"
 7528      4F524445 
 7528      525F4E4F 
 7528      4E4500
 7529              	.LASF180:
 7530 0259 726F6C6C 		.ascii	"roller_sel\000"
 7530      65725F73 
 7530      656C00
 7531              	.LASF195:
 7532 0264 2E2E5C2E 		.ascii	"..\\..\\..\\lvgl\\version_6.1.2\\lvgl\\src\\lv_them"
 7532      2E5C2E2E 
 7532      5C6C7667 
 7532      6C5C7665 
 7532      7273696F 
 7533 0290 65735C6C 		.ascii	"es\\lv_theme_material.c\000"
 7533      765F7468 
 7533      656D655F 
 7533      6D617465 
 7533      7269616C 
 7534              	.LASF140:
 7535 02a7 6C765F63 		.ascii	"lv_color_hex\000"
 7535      6F6C6F72 
 7535      5F686578 
ARM GAS  C:\Users\tmj32\AppData\Local\Temp\cc8DwYg3.s 			page 165


 7535      00
 7536              	.LASF103:
 7537 02b4 6B6E6F62 		.ascii	"knob_on\000"
 7537      5F6F6E00 
 7538              	.LASF13:
 7539 02bc 756E7369 		.ascii	"unsigned int\000"
 7539      676E6564 
 7539      20696E74 
 7539      00
 7540              	.LASF170:
 7541 02c9 6B625F69 		.ascii	"kb_init\000"
 7541      6E697400 
 7542              	.LASF17:
 7543 02d1 75696E74 		.ascii	"uint16_t\000"
 7543      31365F74 
 7543      00
 7544              	.LASF27:
 7545 02da 6765745F 		.ascii	"get_glyph_dsc\000"
 7545      676C7970 
 7545      685F6473 
 7545      6300
 7546              	.LASF91:
 7547 02e8 6C696E65 		.ascii	"line\000"
 7547      00
 7548              	.LASF177:
 7549 02ed 64646C69 		.ascii	"ddlist_init\000"
 7549      73745F69 
 7549      6E697400 
 7550              	.LASF10:
 7551 02f9 6C6F6E67 		.ascii	"long unsigned int\000"
 7551      20756E73 
 7551      69676E65 
 7551      6420696E 
 7551      7400
 7552              	.LASF129:
 7553 030b 70616765 		.ascii	"page\000"
 7553      00
 7554              	.LASF130:
 7555 0310 7370696E 		.ascii	"spinbox\000"
 7555      626F7800 
 7556              	.LASF67:
 7557 0318 77696474 		.ascii	"width\000"
 7557      6800
 7558              	.LASF164:
 7559 031e 63686172 		.ascii	"chart_init\000"
 7559      745F696E 
 7559      697400
 7560              	.LASF167:
 7561 0329 68696768 		.ascii	"high_days\000"
 7561      5F646179 
 7561      7300
 7562              	.LASF109:
 7563 0333 7765656B 		.ascii	"week_box\000"
 7563      5F626F78 
 7563      00
 7564              	.LASF7:
 7565 033c 73686F72 		.ascii	"short unsigned int\000"
ARM GAS  C:\Users\tmj32\AppData\Local\Temp\cc8DwYg3.s 			page 166


 7565      7420756E 
 7565      7369676E 
 7565      65642069 
 7565      6E7400
 7566              	.LASF148:
 7567 034f 636F6E74 		.ascii	"cont_init\000"
 7567      5F696E69 
 7567      7400
 7568              	.LASF29:
 7569 0359 6C696E65 		.ascii	"line_height\000"
 7569      5F686569 
 7569      67687400 
 7570              	.LASF127:
 7571 0365 62746E6D 		.ascii	"btnm\000"
 7571      00
 7572              	.LASF85:
 7573 036a 73756270 		.ascii	"subpx\000"
 7573      7800
 7574              	.LASF108:
 7575 0370 696E6163 		.ascii	"inactive_days\000"
 7575      74697665 
 7575      5F646179 
 7575      7300
 7576              	.LASF41:
 7577 037e 4C565F4F 		.ascii	"LV_OPA_70\000"
 7577      50415F37 
 7577      3000
 7578              	.LASF106:
 7579 0388 6461795F 		.ascii	"day_names\000"
 7579      6E616D65 
 7579      7300
 7580              	.LASF111:
 7581 0392 7363726C 		.ascii	"scrl\000"
 7581      00
 7582              	.LASF120:
 7583 0397 6C616265 		.ascii	"label\000"
 7583      6C00
 7584              	.LASF160:
 7585 039d 6C6D6574 		.ascii	"lmeter_init\000"
 7585      65725F69 
 7585      6E697400 
 7586              	.LASF107:
 7587 03a9 68696768 		.ascii	"highlighted_days\000"
 7587      6C696768 
 7587      7465645F 
 7587      64617973 
 7587      00
 7588              	.LASF146:
 7589 03ba 696D675F 		.ascii	"img_light\000"
 7589      6C696768 
 7589      7400
 7590              	.LASF185:
 7591 03c4 77696E5F 		.ascii	"win_init\000"
 7591      696E6974 
 7591      00
 7592              	.LASF52:
 7593 03cd 6C765F6F 		.ascii	"lv_opa_t\000"
ARM GAS  C:\Users\tmj32\AppData\Local\Temp\cc8DwYg3.s 			page 167


 7593      70615F74 
 7593      00
 7594              	.LASF76:
 7595 03d6 72616469 		.ascii	"radius\000"
 7595      757300
 7596              	.LASF122:
 7597 03dd 6C6D6574 		.ascii	"lmeter\000"
 7597      657200
 7598              	.LASF80:
 7599 03e4 73656C5F 		.ascii	"sel_color\000"
 7599      636F6C6F 
 7599      7200
 7600              	.LASF93:
 7601 03ee 74676C5F 		.ascii	"tgl_rel\000"
 7601      72656C00 
 7602              	.LASF187:
 7603 03f6 7468656D 		.ascii	"theme\000"
 7603      6500
 7604              	.LASF53:
 7605 03fc 73697A65 		.ascii	"sizetype\000"
 7605      74797065 
 7605      00
 7606              	.LASF181:
 7607 0405 74616276 		.ascii	"tabview_init\000"
 7607      6965775F 
 7607      696E6974 
 7607      00
 7608              	.LASF33:
 7609 0412 4C565F4F 		.ascii	"LV_OPA_TRANSP\000"
 7609      50415F54 
 7609      52414E53 
 7609      5000
 7610              	.LASF20:
 7611 0420 6C6F6E67 		.ascii	"long double\000"
 7611      20646F75 
 7611      626C6500 
 7612              	.LASF49:
 7613 042c 66756C6C 		.ascii	"full\000"
 7613      00
 7614              	.LASF159:
 7615 0431 73775F6B 		.ascii	"sw_knob_on\000"
 7615      6E6F625F 
 7615      6F6E00
 7616              	.LASF188:
 7617 043c 5F687565 		.ascii	"_hue\000"
 7617      00
 7618              	.LASF56:
 7619 0441 4C565F42 		.ascii	"LV_BORDER_BOTTOM\000"
 7619      4F524445 
 7619      525F424F 
 7619      54544F4D 
 7619      00
 7620              	.LASF135:
 7621 0452 74696C65 		.ascii	"tileview\000"
 7621      76696577 
 7621      00
 7622              	.LASF42:
ARM GAS  C:\Users\tmj32\AppData\Local\Temp\cc8DwYg3.s 			page 168


 7623 045b 4C565F4F 		.ascii	"LV_OPA_80\000"
 7623      50415F38 
 7623      3000
 7624              	.LASF39:
 7625 0465 4C565F4F 		.ascii	"LV_OPA_50\000"
 7625      50415F35 
 7625      3000
 7626              	.LASF86:
 7627 046f 726F756E 		.ascii	"rounded\000"
 7627      64656400 
 7628              	.LASF139:
 7629 0477 6C765F63 		.ascii	"lv_color_make\000"
 7629      6F6C6F72 
 7629      5F6D616B 
 7629      6500
 7630              	.LASF189:
 7631 0485 5F666F6E 		.ascii	"_font\000"
 7631      7400
 7632              	.LASF95:
 7633 048b 7072696D 		.ascii	"prim\000"
 7633      00
 7634              	.LASF192:
 7635 0490 6C765F73 		.ascii	"lv_style_transp_tight\000"
 7635      74796C65 
 7635      5F747261 
 7635      6E73705F 
 7635      74696768 
 7636              	.LASF151:
 7637 04a6 6261725F 		.ascii	"bar_init\000"
 7637      696E6974 
 7637      00
 7638              	.LASF82:
 7639 04af 6C657474 		.ascii	"letter_space\000"
 7639      65725F73 
 7639      70616365 
 7639      00
 7640              	.LASF65:
 7641 04bc 6C765F73 		.ascii	"lv_shadow_type_t\000"
 7641      6861646F 
 7641      775F7479 
 7641      70655F74 
 7641      00
 7642              	.LASF128:
 7643 04cd 6D626F78 		.ascii	"mbox\000"
 7643      00
 7644              	.LASF161:
 7645 04d2 67617567 		.ascii	"gauge_init\000"
 7645      655F696E 
 7645      697400
 7646              	.LASF101:
 7647 04dd 6B6E6F62 		.ascii	"knob\000"
 7647      00
 7648              	.LASF98:
 7649 04e2 6461726B 		.ascii	"dark\000"
 7649      00
 7650              	.LASF30:
 7651 04e7 62617365 		.ascii	"base_line\000"
ARM GAS  C:\Users\tmj32\AppData\Local\Temp\cc8DwYg3.s 			page 169


 7651      5F6C696E 
 7651      6500
 7652              	.LASF57:
 7653 04f1 4C565F42 		.ascii	"LV_BORDER_TOP\000"
 7653      4F524445 
 7653      525F544F 
 7653      5000
 7654              	.LASF35:
 7655 04ff 4C565F4F 		.ascii	"LV_OPA_10\000"
 7655      50415F31 
 7655      3000
 7656              	.LASF31:
 7657 0509 5F426F6F 		.ascii	"_Bool\000"
 7657      6C00
 7658              	.LASF3:
 7659 050f 756E7369 		.ascii	"unsigned char\000"
 7659      676E6564 
 7659      20636861 
 7659      7200
 7660              	.LASF92:
 7661 051d 6C765F73 		.ascii	"lv_style_t\000"
 7661      74796C65 
 7661      5F7400
 7662              	.LASF77:
 7663 0528 626F7264 		.ascii	"border\000"
 7663      657200
 7664              	.LASF78:
 7665 052f 73686164 		.ascii	"shadow\000"
 7665      6F7700
 7666              	.LASF90:
 7667 0536 696D6167 		.ascii	"image\000"
 7667      6500
 7668              	.LASF112:
 7669 053c 61726561 		.ascii	"area\000"
 7669      00
 7670              	.LASF169:
 7671 0541 62746E6D 		.ascii	"btnm_init\000"
 7671      5F696E69 
 7671      7400
 7672              	.LASF136:
 7673 054b 7461626C 		.ascii	"table\000"
 7673      6500
 7674              	.LASF43:
 7675 0551 4C565F4F 		.ascii	"LV_OPA_90\000"
 7675      50415F39 
 7675      3000
 7676              	.LASF145:
 7677 055b 696D675F 		.ascii	"img_init\000"
 7677      696E6974 
 7677      00
 7678              	.LASF68:
 7679 0564 70617274 		.ascii	"part\000"
 7679      00
 7680              	.LASF75:
 7681 0569 67726164 		.ascii	"grad_color\000"
 7681      5F636F6C 
 7681      6F7200
ARM GAS  C:\Users\tmj32\AppData\Local\Temp\cc8DwYg3.s 			page 170


 7682              	.LASF99:
 7683 0574 6465636F 		.ascii	"decor\000"
 7683      7200
 7684              	.LASF144:
 7685 057a 6C616265 		.ascii	"label_init\000"
 7685      6C5F696E 
 7685      697400
 7686              	.LASF196:
 7687 0585 433A5C55 		.ascii	"C:\\Users\\tmj32\\Documents\\TCNJ\\Senior_Project\\"
 7687      73657273 
 7687      5C746D6A 
 7687      33325C44 
 7687      6F63756D 
 7688 05b2 4F736369 		.ascii	"Oscilloscope_Senior_Project\\tcom_engineering\\embe"
 7688      6C6C6F73 
 7688      636F7065 
 7688      5F53656E 
 7688      696F725F 
 7689 05e3 645F7377 		.ascii	"d_sw\\tcom_app\\tcom_app_psoc6_lvgl6\\tcom_displ_te"
 7689      5C74636F 
 7689      6D5F6170 
 7689      705C7463 
 7689      6F6D5F61 
 7690 0613 73745F70 		.ascii	"st_psoc6.cydsn\000"
 7690      736F6336 
 7690      2E637964 
 7690      736E00
 7691              	.LASF18:
 7692 0622 75696E74 		.ascii	"uint32_t\000"
 7692      33325F74 
 7692      00
 7693              	.LASF115:
 7694 062b 63656C6C 		.ascii	"cell\000"
 7694      00
 7695              	.LASF133:
 7696 0630 726F6C6C 		.ascii	"roller\000"
 7696      657200
 7697              	.LASF199:
 7698 0637 6C765F74 		.ascii	"lv_theme_get_material\000"
 7698      68656D65 
 7698      5F676574 
 7698      5F6D6174 
 7698      65726961 
 7699              	.LASF96:
 7700 064d 68696E74 		.ascii	"hint\000"
 7700      00
 7701              	.LASF116:
 7702 0652 636F6E74 		.ascii	"content\000"
 7702      656E7400 
 7703              	.LASF152:
 7704 065a 6261725F 		.ascii	"bar_bg\000"
 7704      626700
 7705              	.LASF94:
 7706 0661 74676C5F 		.ascii	"tgl_pr\000"
 7706      707200
 7707              	.LASF46:
 7708 0668 626C7565 		.ascii	"blue\000"
ARM GAS  C:\Users\tmj32\AppData\Local\Temp\cc8DwYg3.s 			page 171


 7708      00
 7709              	.LASF147:
 7710 066d 696D675F 		.ascii	"img_dark\000"
 7710      6461726B 
 7710      00
 7711              	.LASF66:
 7712 0676 636F6C6F 		.ascii	"color\000"
 7712      7200
 7713              	.LASF54:
 7714 067c 63686172 		.ascii	"char\000"
 7714      00
 7715              	.LASF176:
 7716 0681 6C697374 		.ascii	"list_bg\000"
 7716      5F626700 
 7717              	.LASF36:
 7718 0689 4C565F4F 		.ascii	"LV_OPA_20\000"
 7718      50415F32 
 7718      3000
 7719              	.LASF110:
 7720 0693 746F6461 		.ascii	"today_box\000"
 7720      795F626F 
 7720      7800
 7721              	.LASF6:
 7722 069d 5F5F7569 		.ascii	"__uint16_t\000"
 7722      6E743136 
 7722      5F7400
 7723              	.LASF117:
 7724 06a8 70616E65 		.ascii	"panel\000"
 7724      6C00
 7725              	.LASF59:
 7726 06ae 4C565F42 		.ascii	"LV_BORDER_RIGHT\000"
 7726      4F524445 
 7726      525F5249 
 7726      47485400 
 7727              	.LASF165:
 7728 06be 63616C65 		.ascii	"calendar_init\000"
 7728      6E646172 
 7728      5F696E69 
 7728      7400
 7729              	.LASF15:
 7730 06cc 75696E74 		.ascii	"uint8_t\000"
 7730      385F7400 
 7731              	.LASF137:
 7732 06d4 7374796C 		.ascii	"style\000"
 7732      6500
 7733              	.LASF51:
 7734 06da 6C765F63 		.ascii	"lv_color_t\000"
 7734      6F6C6F72 
 7734      5F7400
 7735              	.LASF119:
 7736 06e5 696D6762 		.ascii	"imgbtn\000"
 7736      746E00
 7737              	.LASF44:
 7738 06ec 4C565F4F 		.ascii	"LV_OPA_100\000"
 7738      50415F31 
 7738      303000
 7739              	.LASF21:
ARM GAS  C:\Users\tmj32\AppData\Local\Temp\cc8DwYg3.s 			page 172


 7740 06f7 6164765F 		.ascii	"adv_w\000"
 7740      7700
 7741              	.LASF138:
 7742 06fd 6C765F74 		.ascii	"lv_theme_t\000"
 7742      68656D65 
 7742      5F7400
 7743              	.LASF105:
 7744 0708 68656164 		.ascii	"header_pr\000"
 7744      65725F70 
 7744      7200
 7745              	.LASF171:
 7746 0712 6D626F78 		.ascii	"mbox_init\000"
 7746      5F696E69 
 7746      7400
 7747              	.LASF23:
 7748 071c 626F785F 		.ascii	"box_h\000"
 7748      6800
 7749              	.LASF14:
 7750 0722 696E7438 		.ascii	"int8_t\000"
 7750      5F7400
 7751              	.LASF124:
 7752 0729 7072656C 		.ascii	"preload\000"
 7752      6F616400 
 7753              	.LASF60:
 7754 0731 4C565F42 		.ascii	"LV_BORDER_FULL\000"
 7754      4F524445 
 7754      525F4655 
 7754      4C4C00
 7755              	.LASF58:
 7756 0740 4C565F42 		.ascii	"LV_BORDER_LEFT\000"
 7756      4F524445 
 7756      525F4C45 
 7756      465400
 7757              	.LASF156:
 7758 074f 73775F62 		.ascii	"sw_bg\000"
 7758      6700
 7759              	.LASF102:
 7760 0755 6B6E6F62 		.ascii	"knob_off\000"
 7760      5F6F6666 
 7760      00
 7761              	.LASF143:
 7762 075e 62746E5F 		.ascii	"btn_init\000"
 7762      696E6974 
 7762      00
 7763              	.LASF63:
 7764 0767 4C565F53 		.ascii	"LV_SHADOW_BOTTOM\000"
 7764      4841444F 
 7764      575F424F 
 7764      54544F4D 
 7764      00
 7765              	.LASF166:
 7766 0778 696E615F 		.ascii	"ina_days\000"
 7766      64617973 
 7766      00
 7767              	.LASF132:
 7768 0781 64646C69 		.ascii	"ddlist\000"
 7768      737400
ARM GAS  C:\Users\tmj32\AppData\Local\Temp\cc8DwYg3.s 			page 173


 7769              	.LASF81:
 7770 0788 666F6E74 		.ascii	"font\000"
 7770      00
 7771              	.LASF47:
 7772 078d 67726565 		.ascii	"green\000"
 7772      6E00
 7773              	.LASF84:
 7774 0793 696E7465 		.ascii	"intense\000"
 7774      6E736500 
 7775              	.LASF118:
 7776 079b 636F6E74 		.ascii	"cont\000"
 7776      00
 7777              	.LASF126:
 7778 07a0 63616C65 		.ascii	"calendar\000"
 7778      6E646172 
 7778      00
 7779              	.LASF22:
 7780 07a9 626F785F 		.ascii	"box_w\000"
 7780      7700
 7781              	.LASF125:
 7782 07af 63686172 		.ascii	"chart\000"
 7782      7400
 7783              	.LASF183:
 7784 07b5 74696C65 		.ascii	"tileview_init\000"
 7784      76696577 
 7784      5F696E69 
 7784      7400
 7785              	.LASF197:
 7786 07c3 5F6C765F 		.ascii	"_lv_font_struct\000"
 7786      666F6E74 
 7786      5F737472 
 7786      75637400 
 7787              	.LASF163:
 7788 07d3 7072656C 		.ascii	"preload_init\000"
 7788      6F61645F 
 7788      696E6974 
 7788      00
 7789              	.LASF62:
 7790 07e0 6C765F62 		.ascii	"lv_border_part_t\000"
 7790      6F726465 
 7790      725F7061 
 7790      72745F74 
 7790      00
 7791              	.LASF24:
 7792 07f1 6F66735F 		.ascii	"ofs_x\000"
 7792      7800
 7793              	.LASF25:
 7794 07f7 6F66735F 		.ascii	"ofs_y\000"
 7794      7900
 7795              	.LASF191:
 7796 07fd 6C765F73 		.ascii	"lv_style_transp\000"
 7796      74796C65 
 7796      5F747261 
 7796      6E737000 
 7797              	.LASF194:
 7798 080d 474E5520 		.ascii	"GNU C11 5.4.1 20160609 (release) [ARM/embedded-5-br"
 7798      43313120 
ARM GAS  C:\Users\tmj32\AppData\Local\Temp\cc8DwYg3.s 			page 174


 7798      352E342E 
 7798      31203230 
 7798      31363036 
 7799 0840 616E6368 		.ascii	"anch revision 237715] -mcpu=cortex-m4 -mfloat-abi=s"
 7799      20726576 
 7799      6973696F 
 7799      6E203233 
 7799      37373135 
 7800 0873 6F667466 		.ascii	"oftfp -mfpu=fpv4-sp-d16 -mthumb -g -O0 -ffunction-s"
 7800      70202D6D 
 7800      6670753D 
 7800      66707634 
 7800      2D73702D 
 7801 08a6 65637469 		.ascii	"ections -ffat-lto-objects\000"
 7801      6F6E7320 
 7801      2D666661 
 7801      742D6C74 
 7801      6F2D6F62 
 7802              	.LASF26:
 7803 08c0 6C765F66 		.ascii	"lv_font_glyph_dsc_t\000"
 7803      6F6E745F 
 7803      676C7970 
 7803      685F6473 
 7803      635F7400 
 7804              	.LASF73:
 7805 08d4 696E6E65 		.ascii	"inner\000"
 7805      7200
 7806              	.LASF178:
 7807 08da 726F6C6C 		.ascii	"roller_init\000"
 7807      65725F69 
 7807      6E697400 
 7808              	.LASF142:
 7809 08e6 62617369 		.ascii	"basic_init\000"
 7809      635F696E 
 7809      697400
 7810              	.LASF71:
 7811 08f1 6C656674 		.ascii	"left\000"
 7811      00
 7812              	.LASF134:
 7813 08f6 74616276 		.ascii	"tabview\000"
 7813      69657700 
 7814              	.LASF104:
 7815 08fe 68656164 		.ascii	"header\000"
 7815      657200
 7816              	.LASF121:
 7817 0905 736C6964 		.ascii	"slider\000"
 7817      657200
 7818              	.LASF150:
 7819 090c 6C65645F 		.ascii	"led_init\000"
 7819      696E6974 
 7819      00
 7820              		.ident	"GCC: (GNU Tools for ARM Embedded Processors) 5.4.1 20160609 (release) [ARM/embedded-5-bran
