ARM GAS  C:\Users\tmj32\AppData\Local\Temp\cc8DwYg3.s 			page 1


   1              		.syntax unified
   2              		.cpu cortex-m4
   3              		.eabi_attribute 27, 1
   4              		.fpu fpv4-sp-d16
   5              		.eabi_attribute 20, 1
   6              		.eabi_attribute 21, 1
   7              		.eabi_attribute 23, 3
   8              		.eabi_attribute 24, 1
   9              		.eabi_attribute 25, 1
  10              		.eabi_attribute 26, 1
  11              		.eabi_attribute 30, 6
  12              		.eabi_attribute 34, 1
  13              		.eabi_attribute 18, 4
  14              		.thumb
  15              		.syntax unified
  16              		.file	"lv_theme_material.c"
  17              		.text
  18              	.Ltext0:
  19              		.cfi_sections	.debug_frame
  20              		.section	.text.lv_color_make,"ax",%progbits
  21              		.align	2
  22              		.thumb
  23              		.thumb_func
  24              		.type	lv_color_make, %function
  25              	lv_color_make:
  26              	.LFB7:
  27              		.file 1 "..\\..\\..\\lvgl\\version_6.1.2\\lvgl\\src\\lv_themes\\../lv_core/../lv_misc/lv_color.h"
   1:..\..\..\lvgl\version_6.1.2\lvgl\src\lv_themes\../lv_core/../lv_misc/lv_color.h **** /**
   2:..\..\..\lvgl\version_6.1.2\lvgl\src\lv_themes\../lv_core/../lv_misc/lv_color.h ****  * @file lv_color.h
   3:..\..\..\lvgl\version_6.1.2\lvgl\src\lv_themes\../lv_core/../lv_misc/lv_color.h ****  *
   4:..\..\..\lvgl\version_6.1.2\lvgl\src\lv_themes\../lv_core/../lv_misc/lv_color.h ****  */
   5:..\..\..\lvgl\version_6.1.2\lvgl\src\lv_themes\../lv_core/../lv_misc/lv_color.h **** 
   6:..\..\..\lvgl\version_6.1.2\lvgl\src\lv_themes\../lv_core/../lv_misc/lv_color.h **** #ifndef LV_COLOR_H
   7:..\..\..\lvgl\version_6.1.2\lvgl\src\lv_themes\../lv_core/../lv_misc/lv_color.h **** #define LV_COLOR_H
   8:..\..\..\lvgl\version_6.1.2\lvgl\src\lv_themes\../lv_core/../lv_misc/lv_color.h **** 
   9:..\..\..\lvgl\version_6.1.2\lvgl\src\lv_themes\../lv_core/../lv_misc/lv_color.h **** #ifdef __cplusplus
  10:..\..\..\lvgl\version_6.1.2\lvgl\src\lv_themes\../lv_core/../lv_misc/lv_color.h **** extern "C" {
  11:..\..\..\lvgl\version_6.1.2\lvgl\src\lv_themes\../lv_core/../lv_misc/lv_color.h **** #endif
  12:..\..\..\lvgl\version_6.1.2\lvgl\src\lv_themes\../lv_core/../lv_misc/lv_color.h **** 
  13:..\..\..\lvgl\version_6.1.2\lvgl\src\lv_themes\../lv_core/../lv_misc/lv_color.h **** /*********************
  14:..\..\..\lvgl\version_6.1.2\lvgl\src\lv_themes\../lv_core/../lv_misc/lv_color.h ****  *      INCLUDES
  15:..\..\..\lvgl\version_6.1.2\lvgl\src\lv_themes\../lv_core/../lv_misc/lv_color.h ****  *********************/
  16:..\..\..\lvgl\version_6.1.2\lvgl\src\lv_themes\../lv_core/../lv_misc/lv_color.h **** #ifdef LV_CONF_INCLUDE_SIMPLE
  17:..\..\..\lvgl\version_6.1.2\lvgl\src\lv_themes\../lv_core/../lv_misc/lv_color.h **** #include "lv_conf.h"
  18:..\..\..\lvgl\version_6.1.2\lvgl\src\lv_themes\../lv_core/../lv_misc/lv_color.h **** #else
  19:..\..\..\lvgl\version_6.1.2\lvgl\src\lv_themes\../lv_core/../lv_misc/lv_color.h **** #include "../../../lv_conf.h"
  20:..\..\..\lvgl\version_6.1.2\lvgl\src\lv_themes\../lv_core/../lv_misc/lv_color.h **** #endif
  21:..\..\..\lvgl\version_6.1.2\lvgl\src\lv_themes\../lv_core/../lv_misc/lv_color.h **** 
  22:..\..\..\lvgl\version_6.1.2\lvgl\src\lv_themes\../lv_core/../lv_misc/lv_color.h **** /*Error checking*/
  23:..\..\..\lvgl\version_6.1.2\lvgl\src\lv_themes\../lv_core/../lv_misc/lv_color.h **** #if LV_COLOR_DEPTH == 24
  24:..\..\..\lvgl\version_6.1.2\lvgl\src\lv_themes\../lv_core/../lv_misc/lv_color.h **** #error "LV_COLOR_DEPTH  24 is deprecated. Use LV_COLOR_DEPTH  32 instead (lv_conf.h)"
  25:..\..\..\lvgl\version_6.1.2\lvgl\src\lv_themes\../lv_core/../lv_misc/lv_color.h **** #endif
  26:..\..\..\lvgl\version_6.1.2\lvgl\src\lv_themes\../lv_core/../lv_misc/lv_color.h **** 
  27:..\..\..\lvgl\version_6.1.2\lvgl\src\lv_themes\../lv_core/../lv_misc/lv_color.h **** #if LV_COLOR_DEPTH != 32 && LV_COLOR_SCREEN_TRANSP != 0
  28:..\..\..\lvgl\version_6.1.2\lvgl\src\lv_themes\../lv_core/../lv_misc/lv_color.h **** #error "LV_COLOR_SCREEN_TRANSP requires LV_COLOR_DEPTH == 32. Set it in lv_conf.h"
  29:..\..\..\lvgl\version_6.1.2\lvgl\src\lv_themes\../lv_core/../lv_misc/lv_color.h **** #endif
  30:..\..\..\lvgl\version_6.1.2\lvgl\src\lv_themes\../lv_core/../lv_misc/lv_color.h **** 
ARM GAS  C:\Users\tmj32\AppData\Local\Temp\cc8DwYg3.s 			page 2


  31:..\..\..\lvgl\version_6.1.2\lvgl\src\lv_themes\../lv_core/../lv_misc/lv_color.h **** #if LV_COLOR_DEPTH != 16 && LV_COLOR_16_SWAP != 0
  32:..\..\..\lvgl\version_6.1.2\lvgl\src\lv_themes\../lv_core/../lv_misc/lv_color.h **** #error "LV_COLOR_16_SWAP requires LV_COLOR_DEPTH == 16. Set it in lv_conf.h"
  33:..\..\..\lvgl\version_6.1.2\lvgl\src\lv_themes\../lv_core/../lv_misc/lv_color.h **** #endif
  34:..\..\..\lvgl\version_6.1.2\lvgl\src\lv_themes\../lv_core/../lv_misc/lv_color.h **** 
  35:..\..\..\lvgl\version_6.1.2\lvgl\src\lv_themes\../lv_core/../lv_misc/lv_color.h **** #include <stdint.h>
  36:..\..\..\lvgl\version_6.1.2\lvgl\src\lv_themes\../lv_core/../lv_misc/lv_color.h **** 
  37:..\..\..\lvgl\version_6.1.2\lvgl\src\lv_themes\../lv_core/../lv_misc/lv_color.h **** /*********************
  38:..\..\..\lvgl\version_6.1.2\lvgl\src\lv_themes\../lv_core/../lv_misc/lv_color.h ****  *      DEFINES
  39:..\..\..\lvgl\version_6.1.2\lvgl\src\lv_themes\../lv_core/../lv_misc/lv_color.h ****  *********************/
  40:..\..\..\lvgl\version_6.1.2\lvgl\src\lv_themes\../lv_core/../lv_misc/lv_color.h **** #define LV_COLOR_WHITE LV_COLOR_MAKE(0xFF, 0xFF, 0xFF)
  41:..\..\..\lvgl\version_6.1.2\lvgl\src\lv_themes\../lv_core/../lv_misc/lv_color.h **** #define LV_COLOR_SILVER LV_COLOR_MAKE(0xC0, 0xC0, 0xC0)
  42:..\..\..\lvgl\version_6.1.2\lvgl\src\lv_themes\../lv_core/../lv_misc/lv_color.h **** #define LV_COLOR_GRAY LV_COLOR_MAKE(0x80, 0x80, 0x80)
  43:..\..\..\lvgl\version_6.1.2\lvgl\src\lv_themes\../lv_core/../lv_misc/lv_color.h **** #define LV_COLOR_BLACK LV_COLOR_MAKE(0x00, 0x00, 0x00)
  44:..\..\..\lvgl\version_6.1.2\lvgl\src\lv_themes\../lv_core/../lv_misc/lv_color.h **** #define LV_COLOR_RED LV_COLOR_MAKE(0xFF, 0x00, 0x00)
  45:..\..\..\lvgl\version_6.1.2\lvgl\src\lv_themes\../lv_core/../lv_misc/lv_color.h **** #define LV_COLOR_MAROON LV_COLOR_MAKE(0x80, 0x00, 0x00)
  46:..\..\..\lvgl\version_6.1.2\lvgl\src\lv_themes\../lv_core/../lv_misc/lv_color.h **** #define LV_COLOR_YELLOW LV_COLOR_MAKE(0xFF, 0xFF, 0x00)
  47:..\..\..\lvgl\version_6.1.2\lvgl\src\lv_themes\../lv_core/../lv_misc/lv_color.h **** #define LV_COLOR_OLIVE LV_COLOR_MAKE(0x80, 0x80, 0x00)
  48:..\..\..\lvgl\version_6.1.2\lvgl\src\lv_themes\../lv_core/../lv_misc/lv_color.h **** #define LV_COLOR_LIME LV_COLOR_MAKE(0x00, 0xFF, 0x00)
  49:..\..\..\lvgl\version_6.1.2\lvgl\src\lv_themes\../lv_core/../lv_misc/lv_color.h **** #define LV_COLOR_GREEN LV_COLOR_MAKE(0x00, 0x80, 0x00)
  50:..\..\..\lvgl\version_6.1.2\lvgl\src\lv_themes\../lv_core/../lv_misc/lv_color.h **** #define LV_COLOR_CYAN LV_COLOR_MAKE(0x00, 0xFF, 0xFF)
  51:..\..\..\lvgl\version_6.1.2\lvgl\src\lv_themes\../lv_core/../lv_misc/lv_color.h **** #define LV_COLOR_AQUA LV_COLOR_CYAN
  52:..\..\..\lvgl\version_6.1.2\lvgl\src\lv_themes\../lv_core/../lv_misc/lv_color.h **** #define LV_COLOR_TEAL LV_COLOR_MAKE(0x00, 0x80, 0x80)
  53:..\..\..\lvgl\version_6.1.2\lvgl\src\lv_themes\../lv_core/../lv_misc/lv_color.h **** #define LV_COLOR_BLUE LV_COLOR_MAKE(0x00, 0x00, 0xFF)
  54:..\..\..\lvgl\version_6.1.2\lvgl\src\lv_themes\../lv_core/../lv_misc/lv_color.h **** #define LV_COLOR_NAVY LV_COLOR_MAKE(0x00, 0x00, 0x80)
  55:..\..\..\lvgl\version_6.1.2\lvgl\src\lv_themes\../lv_core/../lv_misc/lv_color.h **** #define LV_COLOR_MAGENTA LV_COLOR_MAKE(0xFF, 0x00, 0xFF)
  56:..\..\..\lvgl\version_6.1.2\lvgl\src\lv_themes\../lv_core/../lv_misc/lv_color.h **** #define LV_COLOR_PURPLE LV_COLOR_MAKE(0x80, 0x00, 0x80)
  57:..\..\..\lvgl\version_6.1.2\lvgl\src\lv_themes\../lv_core/../lv_misc/lv_color.h **** #define LV_COLOR_ORANGE LV_COLOR_MAKE(0xFF, 0xA5, 0x00)
  58:..\..\..\lvgl\version_6.1.2\lvgl\src\lv_themes\../lv_core/../lv_misc/lv_color.h **** 
  59:..\..\..\lvgl\version_6.1.2\lvgl\src\lv_themes\../lv_core/../lv_misc/lv_color.h **** /**
  60:..\..\..\lvgl\version_6.1.2\lvgl\src\lv_themes\../lv_core/../lv_misc/lv_color.h ****  * Opacity percentages.
  61:..\..\..\lvgl\version_6.1.2\lvgl\src\lv_themes\../lv_core/../lv_misc/lv_color.h ****  */
  62:..\..\..\lvgl\version_6.1.2\lvgl\src\lv_themes\../lv_core/../lv_misc/lv_color.h **** enum {
  63:..\..\..\lvgl\version_6.1.2\lvgl\src\lv_themes\../lv_core/../lv_misc/lv_color.h ****     LV_OPA_TRANSP = 0,
  64:..\..\..\lvgl\version_6.1.2\lvgl\src\lv_themes\../lv_core/../lv_misc/lv_color.h ****     LV_OPA_0      = 0,
  65:..\..\..\lvgl\version_6.1.2\lvgl\src\lv_themes\../lv_core/../lv_misc/lv_color.h ****     LV_OPA_10     = 25,
  66:..\..\..\lvgl\version_6.1.2\lvgl\src\lv_themes\../lv_core/../lv_misc/lv_color.h ****     LV_OPA_20     = 51,
  67:..\..\..\lvgl\version_6.1.2\lvgl\src\lv_themes\../lv_core/../lv_misc/lv_color.h ****     LV_OPA_30     = 76,
  68:..\..\..\lvgl\version_6.1.2\lvgl\src\lv_themes\../lv_core/../lv_misc/lv_color.h ****     LV_OPA_40     = 102,
  69:..\..\..\lvgl\version_6.1.2\lvgl\src\lv_themes\../lv_core/../lv_misc/lv_color.h ****     LV_OPA_50     = 127,
  70:..\..\..\lvgl\version_6.1.2\lvgl\src\lv_themes\../lv_core/../lv_misc/lv_color.h ****     LV_OPA_60     = 153,
  71:..\..\..\lvgl\version_6.1.2\lvgl\src\lv_themes\../lv_core/../lv_misc/lv_color.h ****     LV_OPA_70     = 178,
  72:..\..\..\lvgl\version_6.1.2\lvgl\src\lv_themes\../lv_core/../lv_misc/lv_color.h ****     LV_OPA_80     = 204,
  73:..\..\..\lvgl\version_6.1.2\lvgl\src\lv_themes\../lv_core/../lv_misc/lv_color.h ****     LV_OPA_90     = 229,
  74:..\..\..\lvgl\version_6.1.2\lvgl\src\lv_themes\../lv_core/../lv_misc/lv_color.h ****     LV_OPA_100    = 255,
  75:..\..\..\lvgl\version_6.1.2\lvgl\src\lv_themes\../lv_core/../lv_misc/lv_color.h ****     LV_OPA_COVER  = 255,
  76:..\..\..\lvgl\version_6.1.2\lvgl\src\lv_themes\../lv_core/../lv_misc/lv_color.h **** };
  77:..\..\..\lvgl\version_6.1.2\lvgl\src\lv_themes\../lv_core/../lv_misc/lv_color.h **** 
  78:..\..\..\lvgl\version_6.1.2\lvgl\src\lv_themes\../lv_core/../lv_misc/lv_color.h **** #define LV_OPA_MIN 16  /*Opacities below this will be transparent*/
  79:..\..\..\lvgl\version_6.1.2\lvgl\src\lv_themes\../lv_core/../lv_misc/lv_color.h **** #define LV_OPA_MAX 251 /*Opacities above this will fully cover*/
  80:..\..\..\lvgl\version_6.1.2\lvgl\src\lv_themes\../lv_core/../lv_misc/lv_color.h **** 
  81:..\..\..\lvgl\version_6.1.2\lvgl\src\lv_themes\../lv_core/../lv_misc/lv_color.h **** #if LV_COLOR_DEPTH == 1
  82:..\..\..\lvgl\version_6.1.2\lvgl\src\lv_themes\../lv_core/../lv_misc/lv_color.h **** #define LV_COLOR_SIZE 8
  83:..\..\..\lvgl\version_6.1.2\lvgl\src\lv_themes\../lv_core/../lv_misc/lv_color.h **** #elif LV_COLOR_DEPTH == 8
  84:..\..\..\lvgl\version_6.1.2\lvgl\src\lv_themes\../lv_core/../lv_misc/lv_color.h **** #define LV_COLOR_SIZE 8
  85:..\..\..\lvgl\version_6.1.2\lvgl\src\lv_themes\../lv_core/../lv_misc/lv_color.h **** #elif LV_COLOR_DEPTH == 16
  86:..\..\..\lvgl\version_6.1.2\lvgl\src\lv_themes\../lv_core/../lv_misc/lv_color.h **** #define LV_COLOR_SIZE 16
  87:..\..\..\lvgl\version_6.1.2\lvgl\src\lv_themes\../lv_core/../lv_misc/lv_color.h **** #elif LV_COLOR_DEPTH == 32
ARM GAS  C:\Users\tmj32\AppData\Local\Temp\cc8DwYg3.s 			page 3


  88:..\..\..\lvgl\version_6.1.2\lvgl\src\lv_themes\../lv_core/../lv_misc/lv_color.h **** #define LV_COLOR_SIZE 32
  89:..\..\..\lvgl\version_6.1.2\lvgl\src\lv_themes\../lv_core/../lv_misc/lv_color.h **** #else
  90:..\..\..\lvgl\version_6.1.2\lvgl\src\lv_themes\../lv_core/../lv_misc/lv_color.h **** #error "Invalid LV_COLOR_DEPTH in lv_conf.h! Set it to 1, 8, 16 or 32!"
  91:..\..\..\lvgl\version_6.1.2\lvgl\src\lv_themes\../lv_core/../lv_misc/lv_color.h **** #endif
  92:..\..\..\lvgl\version_6.1.2\lvgl\src\lv_themes\../lv_core/../lv_misc/lv_color.h **** 
  93:..\..\..\lvgl\version_6.1.2\lvgl\src\lv_themes\../lv_core/../lv_misc/lv_color.h **** /*---------------------------------------
  94:..\..\..\lvgl\version_6.1.2\lvgl\src\lv_themes\../lv_core/../lv_misc/lv_color.h ****  * Macros for all existing  color depths
  95:..\..\..\lvgl\version_6.1.2\lvgl\src\lv_themes\../lv_core/../lv_misc/lv_color.h ****  * to set/get values of the color channels
  96:..\..\..\lvgl\version_6.1.2\lvgl\src\lv_themes\../lv_core/../lv_misc/lv_color.h ****  *------------------------------------------*/
  97:..\..\..\lvgl\version_6.1.2\lvgl\src\lv_themes\../lv_core/../lv_misc/lv_color.h **** # define LV_COLOR_SET_R1(c, v) (c).ch.red = (uint8_t)((v) & 0x1);
  98:..\..\..\lvgl\version_6.1.2\lvgl\src\lv_themes\../lv_core/../lv_misc/lv_color.h **** # define LV_COLOR_SET_G1(c, v) (c).ch.green = (uint8_t)((v) & 0x1);
  99:..\..\..\lvgl\version_6.1.2\lvgl\src\lv_themes\../lv_core/../lv_misc/lv_color.h **** # define LV_COLOR_SET_B1(c, v) (c).ch.blue = (uint8_t)((v) & 0x1);
 100:..\..\..\lvgl\version_6.1.2\lvgl\src\lv_themes\../lv_core/../lv_misc/lv_color.h **** # define LV_COLOR_SET_A1(c, v)
 101:..\..\..\lvgl\version_6.1.2\lvgl\src\lv_themes\../lv_core/../lv_misc/lv_color.h **** 
 102:..\..\..\lvgl\version_6.1.2\lvgl\src\lv_themes\../lv_core/../lv_misc/lv_color.h **** # define LV_COLOR_GET_R1(c) (c).ch.red
 103:..\..\..\lvgl\version_6.1.2\lvgl\src\lv_themes\../lv_core/../lv_misc/lv_color.h **** # define LV_COLOR_GET_G1(c) (c).ch.green
 104:..\..\..\lvgl\version_6.1.2\lvgl\src\lv_themes\../lv_core/../lv_misc/lv_color.h **** # define LV_COLOR_GET_B1(c) (c).ch.blue
 105:..\..\..\lvgl\version_6.1.2\lvgl\src\lv_themes\../lv_core/../lv_misc/lv_color.h **** # define LV_COLOR_GET_A1(c) 1
 106:..\..\..\lvgl\version_6.1.2\lvgl\src\lv_themes\../lv_core/../lv_misc/lv_color.h **** 
 107:..\..\..\lvgl\version_6.1.2\lvgl\src\lv_themes\../lv_core/../lv_misc/lv_color.h **** # define LV_COLOR_SET_R8(c, v) (c).ch.red = (uint8_t)(v) & 0x7U;
 108:..\..\..\lvgl\version_6.1.2\lvgl\src\lv_themes\../lv_core/../lv_misc/lv_color.h **** # define LV_COLOR_SET_G8(c, v) (c).ch.green = (uint8_t)(v) & 0x7U;
 109:..\..\..\lvgl\version_6.1.2\lvgl\src\lv_themes\../lv_core/../lv_misc/lv_color.h **** # define LV_COLOR_SET_B8(c, v) (c).ch.blue = (uint8_t)(v) & 0x3U;
 110:..\..\..\lvgl\version_6.1.2\lvgl\src\lv_themes\../lv_core/../lv_misc/lv_color.h **** # define LV_COLOR_SET_A8(c, v) do {} while(0)
 111:..\..\..\lvgl\version_6.1.2\lvgl\src\lv_themes\../lv_core/../lv_misc/lv_color.h **** 
 112:..\..\..\lvgl\version_6.1.2\lvgl\src\lv_themes\../lv_core/../lv_misc/lv_color.h **** # define LV_COLOR_GET_R8(c) (c).ch.red
 113:..\..\..\lvgl\version_6.1.2\lvgl\src\lv_themes\../lv_core/../lv_misc/lv_color.h **** # define LV_COLOR_GET_G8(c) (c).ch.green
 114:..\..\..\lvgl\version_6.1.2\lvgl\src\lv_themes\../lv_core/../lv_misc/lv_color.h **** # define LV_COLOR_GET_B8(c) (c).ch.blue
 115:..\..\..\lvgl\version_6.1.2\lvgl\src\lv_themes\../lv_core/../lv_misc/lv_color.h **** # define LV_COLOR_GET_A8(c) 0xFF
 116:..\..\..\lvgl\version_6.1.2\lvgl\src\lv_themes\../lv_core/../lv_misc/lv_color.h **** 
 117:..\..\..\lvgl\version_6.1.2\lvgl\src\lv_themes\../lv_core/../lv_misc/lv_color.h **** # define LV_COLOR_SET_R16(c, v) (c).ch.red = (uint8_t)(v) & 0x1FU;
 118:..\..\..\lvgl\version_6.1.2\lvgl\src\lv_themes\../lv_core/../lv_misc/lv_color.h **** # define LV_COLOR_SET_G16(c, v) (c).ch.green = (uint8_t)(v) & 0x3FU;
 119:..\..\..\lvgl\version_6.1.2\lvgl\src\lv_themes\../lv_core/../lv_misc/lv_color.h **** # define LV_COLOR_SET_G16_SWAP(c, v) {(c).ch.green_h = (uint8_t)(((v) >> 3) & 0x7); (c).ch.green_l 
 120:..\..\..\lvgl\version_6.1.2\lvgl\src\lv_themes\../lv_core/../lv_misc/lv_color.h **** # define LV_COLOR_SET_B16(c, v) (c).ch.blue = (uint8_t)(v) & 0x1FU;
 121:..\..\..\lvgl\version_6.1.2\lvgl\src\lv_themes\../lv_core/../lv_misc/lv_color.h **** # define LV_COLOR_SET_A16(c, v) do {} while(0)
 122:..\..\..\lvgl\version_6.1.2\lvgl\src\lv_themes\../lv_core/../lv_misc/lv_color.h **** 
 123:..\..\..\lvgl\version_6.1.2\lvgl\src\lv_themes\../lv_core/../lv_misc/lv_color.h **** # define LV_COLOR_GET_R16(c) (c).ch.red
 124:..\..\..\lvgl\version_6.1.2\lvgl\src\lv_themes\../lv_core/../lv_misc/lv_color.h **** # define LV_COLOR_GET_G16(c) (c).ch.green
 125:..\..\..\lvgl\version_6.1.2\lvgl\src\lv_themes\../lv_core/../lv_misc/lv_color.h **** # define LV_COLOR_GET_G16_SWAP(c) (((c).ch.green_h << 3) + (c).ch.green_l)
 126:..\..\..\lvgl\version_6.1.2\lvgl\src\lv_themes\../lv_core/../lv_misc/lv_color.h **** # define LV_COLOR_GET_B16(c) (c).ch.blue
 127:..\..\..\lvgl\version_6.1.2\lvgl\src\lv_themes\../lv_core/../lv_misc/lv_color.h **** # define LV_COLOR_GET_A16(c) 0xFF
 128:..\..\..\lvgl\version_6.1.2\lvgl\src\lv_themes\../lv_core/../lv_misc/lv_color.h **** 
 129:..\..\..\lvgl\version_6.1.2\lvgl\src\lv_themes\../lv_core/../lv_misc/lv_color.h **** # define LV_COLOR_SET_R32(c, v) (c).ch.red = (uint32_t)((v) & 0xFF);
 130:..\..\..\lvgl\version_6.1.2\lvgl\src\lv_themes\../lv_core/../lv_misc/lv_color.h **** # define LV_COLOR_SET_G32(c, v) (c).ch.green = (uint32_t)((v) & 0xFF);
 131:..\..\..\lvgl\version_6.1.2\lvgl\src\lv_themes\../lv_core/../lv_misc/lv_color.h **** # define LV_COLOR_SET_B32(c, v) (c).ch.blue = (uint32_t)((v) & 0xFF);
 132:..\..\..\lvgl\version_6.1.2\lvgl\src\lv_themes\../lv_core/../lv_misc/lv_color.h **** # define LV_COLOR_SET_A32(c, v) (c).ch.alpha = (uint32_t)((v) & 0xFF);
 133:..\..\..\lvgl\version_6.1.2\lvgl\src\lv_themes\../lv_core/../lv_misc/lv_color.h **** 
 134:..\..\..\lvgl\version_6.1.2\lvgl\src\lv_themes\../lv_core/../lv_misc/lv_color.h **** # define LV_COLOR_GET_R32(c) (c).ch.red
 135:..\..\..\lvgl\version_6.1.2\lvgl\src\lv_themes\../lv_core/../lv_misc/lv_color.h **** # define LV_COLOR_GET_G32(c) (c).ch.green
 136:..\..\..\lvgl\version_6.1.2\lvgl\src\lv_themes\../lv_core/../lv_misc/lv_color.h **** # define LV_COLOR_GET_B32(c) (c).ch.blue
 137:..\..\..\lvgl\version_6.1.2\lvgl\src\lv_themes\../lv_core/../lv_misc/lv_color.h **** # define LV_COLOR_GET_A32(c) (c).ch.alpha
 138:..\..\..\lvgl\version_6.1.2\lvgl\src\lv_themes\../lv_core/../lv_misc/lv_color.h **** 
 139:..\..\..\lvgl\version_6.1.2\lvgl\src\lv_themes\../lv_core/../lv_misc/lv_color.h **** 
 140:..\..\..\lvgl\version_6.1.2\lvgl\src\lv_themes\../lv_core/../lv_misc/lv_color.h **** /*---------------------------------------
 141:..\..\..\lvgl\version_6.1.2\lvgl\src\lv_themes\../lv_core/../lv_misc/lv_color.h ****  * Macros for the current color depth
 142:..\..\..\lvgl\version_6.1.2\lvgl\src\lv_themes\../lv_core/../lv_misc/lv_color.h ****  * to set/get values of the color channels
 143:..\..\..\lvgl\version_6.1.2\lvgl\src\lv_themes\../lv_core/../lv_misc/lv_color.h ****  *------------------------------------------*/
 144:..\..\..\lvgl\version_6.1.2\lvgl\src\lv_themes\../lv_core/../lv_misc/lv_color.h **** #if LV_COLOR_DEPTH == 1
ARM GAS  C:\Users\tmj32\AppData\Local\Temp\cc8DwYg3.s 			page 4


 145:..\..\..\lvgl\version_6.1.2\lvgl\src\lv_themes\../lv_core/../lv_misc/lv_color.h **** # define LV_COLOR_SET_R(c, v) LV_COLOR_SET_R1(c,v)
 146:..\..\..\lvgl\version_6.1.2\lvgl\src\lv_themes\../lv_core/../lv_misc/lv_color.h **** # define LV_COLOR_SET_G(c, v) LV_COLOR_SET_G1(c,v)
 147:..\..\..\lvgl\version_6.1.2\lvgl\src\lv_themes\../lv_core/../lv_misc/lv_color.h **** # define LV_COLOR_SET_B(c, v) LV_COLOR_SET_B1(c,v)
 148:..\..\..\lvgl\version_6.1.2\lvgl\src\lv_themes\../lv_core/../lv_misc/lv_color.h **** # define LV_COLOR_SET_A(c, v) LV_COLOR_SET_A1(c,v)
 149:..\..\..\lvgl\version_6.1.2\lvgl\src\lv_themes\../lv_core/../lv_misc/lv_color.h **** 
 150:..\..\..\lvgl\version_6.1.2\lvgl\src\lv_themes\../lv_core/../lv_misc/lv_color.h **** # define LV_COLOR_GET_R(c) LV_COLOR_GET_R1(c)
 151:..\..\..\lvgl\version_6.1.2\lvgl\src\lv_themes\../lv_core/../lv_misc/lv_color.h **** # define LV_COLOR_GET_G(c) LV_COLOR_GET_G1(c)
 152:..\..\..\lvgl\version_6.1.2\lvgl\src\lv_themes\../lv_core/../lv_misc/lv_color.h **** # define LV_COLOR_GET_B(c) LV_COLOR_GET_B1(c)
 153:..\..\..\lvgl\version_6.1.2\lvgl\src\lv_themes\../lv_core/../lv_misc/lv_color.h **** # define LV_COLOR_GET_A(c) LV_COLOR_GET_A1(c)
 154:..\..\..\lvgl\version_6.1.2\lvgl\src\lv_themes\../lv_core/../lv_misc/lv_color.h **** 
 155:..\..\..\lvgl\version_6.1.2\lvgl\src\lv_themes\../lv_core/../lv_misc/lv_color.h **** #elif LV_COLOR_DEPTH == 8
 156:..\..\..\lvgl\version_6.1.2\lvgl\src\lv_themes\../lv_core/../lv_misc/lv_color.h **** # define LV_COLOR_SET_R(c, v) LV_COLOR_SET_R8(c,v)
 157:..\..\..\lvgl\version_6.1.2\lvgl\src\lv_themes\../lv_core/../lv_misc/lv_color.h **** # define LV_COLOR_SET_G(c, v) LV_COLOR_SET_G8(c,v)
 158:..\..\..\lvgl\version_6.1.2\lvgl\src\lv_themes\../lv_core/../lv_misc/lv_color.h **** # define LV_COLOR_SET_B(c, v) LV_COLOR_SET_B8(c,v)
 159:..\..\..\lvgl\version_6.1.2\lvgl\src\lv_themes\../lv_core/../lv_misc/lv_color.h **** # define LV_COLOR_SET_A(c, v) LV_COLOR_SET_A8(c,v)
 160:..\..\..\lvgl\version_6.1.2\lvgl\src\lv_themes\../lv_core/../lv_misc/lv_color.h **** 
 161:..\..\..\lvgl\version_6.1.2\lvgl\src\lv_themes\../lv_core/../lv_misc/lv_color.h **** # define LV_COLOR_GET_R(c) LV_COLOR_GET_R8(c)
 162:..\..\..\lvgl\version_6.1.2\lvgl\src\lv_themes\../lv_core/../lv_misc/lv_color.h **** # define LV_COLOR_GET_G(c) LV_COLOR_GET_G8(c)
 163:..\..\..\lvgl\version_6.1.2\lvgl\src\lv_themes\../lv_core/../lv_misc/lv_color.h **** # define LV_COLOR_GET_B(c) LV_COLOR_GET_B8(c)
 164:..\..\..\lvgl\version_6.1.2\lvgl\src\lv_themes\../lv_core/../lv_misc/lv_color.h **** # define LV_COLOR_GET_A(c) LV_COLOR_GET_A8(c)
 165:..\..\..\lvgl\version_6.1.2\lvgl\src\lv_themes\../lv_core/../lv_misc/lv_color.h **** 
 166:..\..\..\lvgl\version_6.1.2\lvgl\src\lv_themes\../lv_core/../lv_misc/lv_color.h **** #elif LV_COLOR_DEPTH == 16
 167:..\..\..\lvgl\version_6.1.2\lvgl\src\lv_themes\../lv_core/../lv_misc/lv_color.h **** # define LV_COLOR_SET_R(c, v) LV_COLOR_SET_R16(c,v)
 168:..\..\..\lvgl\version_6.1.2\lvgl\src\lv_themes\../lv_core/../lv_misc/lv_color.h **** # if LV_COLOR_16_SWAP == 0
 169:..\..\..\lvgl\version_6.1.2\lvgl\src\lv_themes\../lv_core/../lv_misc/lv_color.h **** #   define LV_COLOR_SET_G(c, v) LV_COLOR_SET_G16(c,v)
 170:..\..\..\lvgl\version_6.1.2\lvgl\src\lv_themes\../lv_core/../lv_misc/lv_color.h **** # else
 171:..\..\..\lvgl\version_6.1.2\lvgl\src\lv_themes\../lv_core/../lv_misc/lv_color.h **** #   define LV_COLOR_SET_G(c, v) LV_COLOR_SET_G16_SWAP(c,v)
 172:..\..\..\lvgl\version_6.1.2\lvgl\src\lv_themes\../lv_core/../lv_misc/lv_color.h **** # endif
 173:..\..\..\lvgl\version_6.1.2\lvgl\src\lv_themes\../lv_core/../lv_misc/lv_color.h **** # define LV_COLOR_SET_B(c, v) LV_COLOR_SET_B16(c,v)
 174:..\..\..\lvgl\version_6.1.2\lvgl\src\lv_themes\../lv_core/../lv_misc/lv_color.h **** # define LV_COLOR_SET_A(c, v) LV_COLOR_SET_A16(c,v)
 175:..\..\..\lvgl\version_6.1.2\lvgl\src\lv_themes\../lv_core/../lv_misc/lv_color.h **** 
 176:..\..\..\lvgl\version_6.1.2\lvgl\src\lv_themes\../lv_core/../lv_misc/lv_color.h **** # define LV_COLOR_GET_R(c) LV_COLOR_GET_R16(c)
 177:..\..\..\lvgl\version_6.1.2\lvgl\src\lv_themes\../lv_core/../lv_misc/lv_color.h **** # if LV_COLOR_16_SWAP == 0
 178:..\..\..\lvgl\version_6.1.2\lvgl\src\lv_themes\../lv_core/../lv_misc/lv_color.h **** #   define LV_COLOR_GET_G(c) LV_COLOR_GET_G16(c)
 179:..\..\..\lvgl\version_6.1.2\lvgl\src\lv_themes\../lv_core/../lv_misc/lv_color.h **** # else
 180:..\..\..\lvgl\version_6.1.2\lvgl\src\lv_themes\../lv_core/../lv_misc/lv_color.h **** #   define LV_COLOR_GET_G(c) LV_COLOR_GET_G16_SWAP(c)
 181:..\..\..\lvgl\version_6.1.2\lvgl\src\lv_themes\../lv_core/../lv_misc/lv_color.h **** # endif
 182:..\..\..\lvgl\version_6.1.2\lvgl\src\lv_themes\../lv_core/../lv_misc/lv_color.h **** # define LV_COLOR_GET_B(c)   LV_COLOR_GET_B16(c)
 183:..\..\..\lvgl\version_6.1.2\lvgl\src\lv_themes\../lv_core/../lv_misc/lv_color.h **** # define LV_COLOR_GET_A(c)   LV_COLOR_GET_A16(c)
 184:..\..\..\lvgl\version_6.1.2\lvgl\src\lv_themes\../lv_core/../lv_misc/lv_color.h **** 
 185:..\..\..\lvgl\version_6.1.2\lvgl\src\lv_themes\../lv_core/../lv_misc/lv_color.h **** #elif LV_COLOR_DEPTH == 32
 186:..\..\..\lvgl\version_6.1.2\lvgl\src\lv_themes\../lv_core/../lv_misc/lv_color.h **** # define LV_COLOR_SET_R(c, v) LV_COLOR_SET_R32(c,v)
 187:..\..\..\lvgl\version_6.1.2\lvgl\src\lv_themes\../lv_core/../lv_misc/lv_color.h **** # define LV_COLOR_SET_G(c, v) LV_COLOR_SET_G32(c,v)
 188:..\..\..\lvgl\version_6.1.2\lvgl\src\lv_themes\../lv_core/../lv_misc/lv_color.h **** # define LV_COLOR_SET_B(c, v) LV_COLOR_SET_B32(c,v)
 189:..\..\..\lvgl\version_6.1.2\lvgl\src\lv_themes\../lv_core/../lv_misc/lv_color.h **** # define LV_COLOR_SET_A(c, v) LV_COLOR_SET_A32(c,v)
 190:..\..\..\lvgl\version_6.1.2\lvgl\src\lv_themes\../lv_core/../lv_misc/lv_color.h **** 
 191:..\..\..\lvgl\version_6.1.2\lvgl\src\lv_themes\../lv_core/../lv_misc/lv_color.h **** # define LV_COLOR_GET_R(c) LV_COLOR_GET_R32(c)
 192:..\..\..\lvgl\version_6.1.2\lvgl\src\lv_themes\../lv_core/../lv_misc/lv_color.h **** # define LV_COLOR_GET_G(c) LV_COLOR_GET_G32(c)
 193:..\..\..\lvgl\version_6.1.2\lvgl\src\lv_themes\../lv_core/../lv_misc/lv_color.h **** # define LV_COLOR_GET_B(c) LV_COLOR_GET_B32(c)
 194:..\..\..\lvgl\version_6.1.2\lvgl\src\lv_themes\../lv_core/../lv_misc/lv_color.h **** # define LV_COLOR_GET_A(c) LV_COLOR_GET_A32(c)
 195:..\..\..\lvgl\version_6.1.2\lvgl\src\lv_themes\../lv_core/../lv_misc/lv_color.h **** #endif
 196:..\..\..\lvgl\version_6.1.2\lvgl\src\lv_themes\../lv_core/../lv_misc/lv_color.h **** 
 197:..\..\..\lvgl\version_6.1.2\lvgl\src\lv_themes\../lv_core/../lv_misc/lv_color.h **** /**********************
 198:..\..\..\lvgl\version_6.1.2\lvgl\src\lv_themes\../lv_core/../lv_misc/lv_color.h ****  *      TYPEDEFS
 199:..\..\..\lvgl\version_6.1.2\lvgl\src\lv_themes\../lv_core/../lv_misc/lv_color.h ****  **********************/
 200:..\..\..\lvgl\version_6.1.2\lvgl\src\lv_themes\../lv_core/../lv_misc/lv_color.h **** 
 201:..\..\..\lvgl\version_6.1.2\lvgl\src\lv_themes\../lv_core/../lv_misc/lv_color.h **** typedef union
ARM GAS  C:\Users\tmj32\AppData\Local\Temp\cc8DwYg3.s 			page 5


 202:..\..\..\lvgl\version_6.1.2\lvgl\src\lv_themes\../lv_core/../lv_misc/lv_color.h **** {
 203:..\..\..\lvgl\version_6.1.2\lvgl\src\lv_themes\../lv_core/../lv_misc/lv_color.h ****     struct
 204:..\..\..\lvgl\version_6.1.2\lvgl\src\lv_themes\../lv_core/../lv_misc/lv_color.h ****     {
 205:..\..\..\lvgl\version_6.1.2\lvgl\src\lv_themes\../lv_core/../lv_misc/lv_color.h ****         uint8_t blue : 1;
 206:..\..\..\lvgl\version_6.1.2\lvgl\src\lv_themes\../lv_core/../lv_misc/lv_color.h ****         uint8_t green : 1;
 207:..\..\..\lvgl\version_6.1.2\lvgl\src\lv_themes\../lv_core/../lv_misc/lv_color.h ****         uint8_t red : 1;
 208:..\..\..\lvgl\version_6.1.2\lvgl\src\lv_themes\../lv_core/../lv_misc/lv_color.h ****     } ch;
 209:..\..\..\lvgl\version_6.1.2\lvgl\src\lv_themes\../lv_core/../lv_misc/lv_color.h ****     uint8_t full;
 210:..\..\..\lvgl\version_6.1.2\lvgl\src\lv_themes\../lv_core/../lv_misc/lv_color.h **** } lv_color1_t;
 211:..\..\..\lvgl\version_6.1.2\lvgl\src\lv_themes\../lv_core/../lv_misc/lv_color.h **** 
 212:..\..\..\lvgl\version_6.1.2\lvgl\src\lv_themes\../lv_core/../lv_misc/lv_color.h **** typedef union
 213:..\..\..\lvgl\version_6.1.2\lvgl\src\lv_themes\../lv_core/../lv_misc/lv_color.h **** {
 214:..\..\..\lvgl\version_6.1.2\lvgl\src\lv_themes\../lv_core/../lv_misc/lv_color.h ****     struct
 215:..\..\..\lvgl\version_6.1.2\lvgl\src\lv_themes\../lv_core/../lv_misc/lv_color.h ****     {
 216:..\..\..\lvgl\version_6.1.2\lvgl\src\lv_themes\../lv_core/../lv_misc/lv_color.h ****         uint8_t blue : 2;
 217:..\..\..\lvgl\version_6.1.2\lvgl\src\lv_themes\../lv_core/../lv_misc/lv_color.h ****         uint8_t green : 3;
 218:..\..\..\lvgl\version_6.1.2\lvgl\src\lv_themes\../lv_core/../lv_misc/lv_color.h ****         uint8_t red : 3;
 219:..\..\..\lvgl\version_6.1.2\lvgl\src\lv_themes\../lv_core/../lv_misc/lv_color.h ****     } ch;
 220:..\..\..\lvgl\version_6.1.2\lvgl\src\lv_themes\../lv_core/../lv_misc/lv_color.h ****     uint8_t full;
 221:..\..\..\lvgl\version_6.1.2\lvgl\src\lv_themes\../lv_core/../lv_misc/lv_color.h **** } lv_color8_t;
 222:..\..\..\lvgl\version_6.1.2\lvgl\src\lv_themes\../lv_core/../lv_misc/lv_color.h **** 
 223:..\..\..\lvgl\version_6.1.2\lvgl\src\lv_themes\../lv_core/../lv_misc/lv_color.h **** typedef union
 224:..\..\..\lvgl\version_6.1.2\lvgl\src\lv_themes\../lv_core/../lv_misc/lv_color.h **** {
 225:..\..\..\lvgl\version_6.1.2\lvgl\src\lv_themes\../lv_core/../lv_misc/lv_color.h ****     struct
 226:..\..\..\lvgl\version_6.1.2\lvgl\src\lv_themes\../lv_core/../lv_misc/lv_color.h ****     {
 227:..\..\..\lvgl\version_6.1.2\lvgl\src\lv_themes\../lv_core/../lv_misc/lv_color.h **** #if LV_COLOR_16_SWAP == 0
 228:..\..\..\lvgl\version_6.1.2\lvgl\src\lv_themes\../lv_core/../lv_misc/lv_color.h ****         uint16_t blue : 5;
 229:..\..\..\lvgl\version_6.1.2\lvgl\src\lv_themes\../lv_core/../lv_misc/lv_color.h ****         uint16_t green : 6;
 230:..\..\..\lvgl\version_6.1.2\lvgl\src\lv_themes\../lv_core/../lv_misc/lv_color.h ****         uint16_t red : 5;
 231:..\..\..\lvgl\version_6.1.2\lvgl\src\lv_themes\../lv_core/../lv_misc/lv_color.h **** #else
 232:..\..\..\lvgl\version_6.1.2\lvgl\src\lv_themes\../lv_core/../lv_misc/lv_color.h ****         uint16_t green_h : 3;
 233:..\..\..\lvgl\version_6.1.2\lvgl\src\lv_themes\../lv_core/../lv_misc/lv_color.h ****         uint16_t red : 5;
 234:..\..\..\lvgl\version_6.1.2\lvgl\src\lv_themes\../lv_core/../lv_misc/lv_color.h ****         uint16_t blue : 5;
 235:..\..\..\lvgl\version_6.1.2\lvgl\src\lv_themes\../lv_core/../lv_misc/lv_color.h ****         uint16_t green_l : 3;
 236:..\..\..\lvgl\version_6.1.2\lvgl\src\lv_themes\../lv_core/../lv_misc/lv_color.h **** #endif
 237:..\..\..\lvgl\version_6.1.2\lvgl\src\lv_themes\../lv_core/../lv_misc/lv_color.h ****     } ch;
 238:..\..\..\lvgl\version_6.1.2\lvgl\src\lv_themes\../lv_core/../lv_misc/lv_color.h ****     uint16_t full;
 239:..\..\..\lvgl\version_6.1.2\lvgl\src\lv_themes\../lv_core/../lv_misc/lv_color.h **** } lv_color16_t;
 240:..\..\..\lvgl\version_6.1.2\lvgl\src\lv_themes\../lv_core/../lv_misc/lv_color.h **** 
 241:..\..\..\lvgl\version_6.1.2\lvgl\src\lv_themes\../lv_core/../lv_misc/lv_color.h **** typedef union
 242:..\..\..\lvgl\version_6.1.2\lvgl\src\lv_themes\../lv_core/../lv_misc/lv_color.h **** {
 243:..\..\..\lvgl\version_6.1.2\lvgl\src\lv_themes\../lv_core/../lv_misc/lv_color.h ****     struct
 244:..\..\..\lvgl\version_6.1.2\lvgl\src\lv_themes\../lv_core/../lv_misc/lv_color.h ****     {
 245:..\..\..\lvgl\version_6.1.2\lvgl\src\lv_themes\../lv_core/../lv_misc/lv_color.h ****         uint8_t blue;
 246:..\..\..\lvgl\version_6.1.2\lvgl\src\lv_themes\../lv_core/../lv_misc/lv_color.h ****         uint8_t green;
 247:..\..\..\lvgl\version_6.1.2\lvgl\src\lv_themes\../lv_core/../lv_misc/lv_color.h ****         uint8_t red;
 248:..\..\..\lvgl\version_6.1.2\lvgl\src\lv_themes\../lv_core/../lv_misc/lv_color.h ****         uint8_t alpha;
 249:..\..\..\lvgl\version_6.1.2\lvgl\src\lv_themes\../lv_core/../lv_misc/lv_color.h ****     } ch;
 250:..\..\..\lvgl\version_6.1.2\lvgl\src\lv_themes\../lv_core/../lv_misc/lv_color.h ****     uint32_t full;
 251:..\..\..\lvgl\version_6.1.2\lvgl\src\lv_themes\../lv_core/../lv_misc/lv_color.h **** } lv_color32_t;
 252:..\..\..\lvgl\version_6.1.2\lvgl\src\lv_themes\../lv_core/../lv_misc/lv_color.h **** 
 253:..\..\..\lvgl\version_6.1.2\lvgl\src\lv_themes\../lv_core/../lv_misc/lv_color.h **** #if LV_COLOR_DEPTH == 1
 254:..\..\..\lvgl\version_6.1.2\lvgl\src\lv_themes\../lv_core/../lv_misc/lv_color.h **** typedef uint8_t lv_color_int_t;
 255:..\..\..\lvgl\version_6.1.2\lvgl\src\lv_themes\../lv_core/../lv_misc/lv_color.h **** typedef lv_color1_t lv_color_t;
 256:..\..\..\lvgl\version_6.1.2\lvgl\src\lv_themes\../lv_core/../lv_misc/lv_color.h **** #elif LV_COLOR_DEPTH == 8
 257:..\..\..\lvgl\version_6.1.2\lvgl\src\lv_themes\../lv_core/../lv_misc/lv_color.h **** typedef uint8_t lv_color_int_t;
 258:..\..\..\lvgl\version_6.1.2\lvgl\src\lv_themes\../lv_core/../lv_misc/lv_color.h **** typedef lv_color8_t lv_color_t;
ARM GAS  C:\Users\tmj32\AppData\Local\Temp\cc8DwYg3.s 			page 6


 259:..\..\..\lvgl\version_6.1.2\lvgl\src\lv_themes\../lv_core/../lv_misc/lv_color.h **** #elif LV_COLOR_DEPTH == 16
 260:..\..\..\lvgl\version_6.1.2\lvgl\src\lv_themes\../lv_core/../lv_misc/lv_color.h **** typedef uint16_t lv_color_int_t;
 261:..\..\..\lvgl\version_6.1.2\lvgl\src\lv_themes\../lv_core/../lv_misc/lv_color.h **** typedef lv_color16_t lv_color_t;
 262:..\..\..\lvgl\version_6.1.2\lvgl\src\lv_themes\../lv_core/../lv_misc/lv_color.h **** #elif LV_COLOR_DEPTH == 32
 263:..\..\..\lvgl\version_6.1.2\lvgl\src\lv_themes\../lv_core/../lv_misc/lv_color.h **** typedef uint32_t lv_color_int_t;
 264:..\..\..\lvgl\version_6.1.2\lvgl\src\lv_themes\../lv_core/../lv_misc/lv_color.h **** typedef lv_color32_t lv_color_t;
 265:..\..\..\lvgl\version_6.1.2\lvgl\src\lv_themes\../lv_core/../lv_misc/lv_color.h **** #else
 266:..\..\..\lvgl\version_6.1.2\lvgl\src\lv_themes\../lv_core/../lv_misc/lv_color.h **** #error "Invalid LV_COLOR_DEPTH in lv_conf.h! Set it to 1, 8, 16 or 32!"
 267:..\..\..\lvgl\version_6.1.2\lvgl\src\lv_themes\../lv_core/../lv_misc/lv_color.h **** #endif
 268:..\..\..\lvgl\version_6.1.2\lvgl\src\lv_themes\../lv_core/../lv_misc/lv_color.h **** 
 269:..\..\..\lvgl\version_6.1.2\lvgl\src\lv_themes\../lv_core/../lv_misc/lv_color.h **** typedef uint8_t lv_opa_t;
 270:..\..\..\lvgl\version_6.1.2\lvgl\src\lv_themes\../lv_core/../lv_misc/lv_color.h **** 
 271:..\..\..\lvgl\version_6.1.2\lvgl\src\lv_themes\../lv_core/../lv_misc/lv_color.h **** typedef struct
 272:..\..\..\lvgl\version_6.1.2\lvgl\src\lv_themes\../lv_core/../lv_misc/lv_color.h **** {
 273:..\..\..\lvgl\version_6.1.2\lvgl\src\lv_themes\../lv_core/../lv_misc/lv_color.h ****     uint16_t h;
 274:..\..\..\lvgl\version_6.1.2\lvgl\src\lv_themes\../lv_core/../lv_misc/lv_color.h ****     uint8_t s;
 275:..\..\..\lvgl\version_6.1.2\lvgl\src\lv_themes\../lv_core/../lv_misc/lv_color.h ****     uint8_t v;
 276:..\..\..\lvgl\version_6.1.2\lvgl\src\lv_themes\../lv_core/../lv_misc/lv_color.h **** } lv_color_hsv_t;
 277:..\..\..\lvgl\version_6.1.2\lvgl\src\lv_themes\../lv_core/../lv_misc/lv_color.h **** 
 278:..\..\..\lvgl\version_6.1.2\lvgl\src\lv_themes\../lv_core/../lv_misc/lv_color.h **** /**********************
 279:..\..\..\lvgl\version_6.1.2\lvgl\src\lv_themes\../lv_core/../lv_misc/lv_color.h ****  * GLOBAL PROTOTYPES
 280:..\..\..\lvgl\version_6.1.2\lvgl\src\lv_themes\../lv_core/../lv_misc/lv_color.h ****  **********************/
 281:..\..\..\lvgl\version_6.1.2\lvgl\src\lv_themes\../lv_core/../lv_misc/lv_color.h **** 
 282:..\..\..\lvgl\version_6.1.2\lvgl\src\lv_themes\../lv_core/../lv_misc/lv_color.h **** /*In color conversations:
 283:..\..\..\lvgl\version_6.1.2\lvgl\src\lv_themes\../lv_core/../lv_misc/lv_color.h ****  * - When converting to bigger color type the LSB weight of 1 LSB is calculated
 284:..\..\..\lvgl\version_6.1.2\lvgl\src\lv_themes\../lv_core/../lv_misc/lv_color.h ****  *   E.g. 16 bit Red has 5 bits
 285:..\..\..\lvgl\version_6.1.2\lvgl\src\lv_themes\../lv_core/../lv_misc/lv_color.h ****  *         8 bit Red has 2 bits
 286:..\..\..\lvgl\version_6.1.2\lvgl\src\lv_themes\../lv_core/../lv_misc/lv_color.h ****  *        ----------------------
 287:..\..\..\lvgl\version_6.1.2\lvgl\src\lv_themes\../lv_core/../lv_misc/lv_color.h ****  *        8 bit red LSB = (2^5 - 1) / (2^2 - 1) = 31 / 3 = 10
 288:..\..\..\lvgl\version_6.1.2\lvgl\src\lv_themes\../lv_core/../lv_misc/lv_color.h ****  *
 289:..\..\..\lvgl\version_6.1.2\lvgl\src\lv_themes\../lv_core/../lv_misc/lv_color.h ****  * - When calculating to smaller color type simply shift out the LSBs
 290:..\..\..\lvgl\version_6.1.2\lvgl\src\lv_themes\../lv_core/../lv_misc/lv_color.h ****  *   E.g.  8 bit Red has 2 bits
 291:..\..\..\lvgl\version_6.1.2\lvgl\src\lv_themes\../lv_core/../lv_misc/lv_color.h ****  *        16 bit Red has 5 bits
 292:..\..\..\lvgl\version_6.1.2\lvgl\src\lv_themes\../lv_core/../lv_misc/lv_color.h ****  *        ----------------------
 293:..\..\..\lvgl\version_6.1.2\lvgl\src\lv_themes\../lv_core/../lv_misc/lv_color.h ****  *         Shift right with 5 - 3 = 2
 294:..\..\..\lvgl\version_6.1.2\lvgl\src\lv_themes\../lv_core/../lv_misc/lv_color.h ****  */
 295:..\..\..\lvgl\version_6.1.2\lvgl\src\lv_themes\../lv_core/../lv_misc/lv_color.h **** 
 296:..\..\..\lvgl\version_6.1.2\lvgl\src\lv_themes\../lv_core/../lv_misc/lv_color.h **** static inline uint8_t lv_color_to1(lv_color_t color)
 297:..\..\..\lvgl\version_6.1.2\lvgl\src\lv_themes\../lv_core/../lv_misc/lv_color.h **** {
 298:..\..\..\lvgl\version_6.1.2\lvgl\src\lv_themes\../lv_core/../lv_misc/lv_color.h **** #if LV_COLOR_DEPTH == 1
 299:..\..\..\lvgl\version_6.1.2\lvgl\src\lv_themes\../lv_core/../lv_misc/lv_color.h ****     return color.full;
 300:..\..\..\lvgl\version_6.1.2\lvgl\src\lv_themes\../lv_core/../lv_misc/lv_color.h **** #elif LV_COLOR_DEPTH == 8
 301:..\..\..\lvgl\version_6.1.2\lvgl\src\lv_themes\../lv_core/../lv_misc/lv_color.h ****     if((LV_COLOR_GET_R(color) & 0x4) || (LV_COLOR_GET_G(color) & 0x4) || (LV_COLOR_GET_B(color) & 0
 302:..\..\..\lvgl\version_6.1.2\lvgl\src\lv_themes\../lv_core/../lv_misc/lv_color.h ****         return 1;
 303:..\..\..\lvgl\version_6.1.2\lvgl\src\lv_themes\../lv_core/../lv_misc/lv_color.h ****     } else {
 304:..\..\..\lvgl\version_6.1.2\lvgl\src\lv_themes\../lv_core/../lv_misc/lv_color.h ****         return 0;
 305:..\..\..\lvgl\version_6.1.2\lvgl\src\lv_themes\../lv_core/../lv_misc/lv_color.h ****     }
 306:..\..\..\lvgl\version_6.1.2\lvgl\src\lv_themes\../lv_core/../lv_misc/lv_color.h **** #elif LV_COLOR_DEPTH == 16
 307:..\..\..\lvgl\version_6.1.2\lvgl\src\lv_themes\../lv_core/../lv_misc/lv_color.h ****     if((LV_COLOR_GET_R(color) & 0x10) || (LV_COLOR_GET_G(color) & 0x20) || (LV_COLOR_GET_B(color) &
 308:..\..\..\lvgl\version_6.1.2\lvgl\src\lv_themes\../lv_core/../lv_misc/lv_color.h ****         return 1;
 309:..\..\..\lvgl\version_6.1.2\lvgl\src\lv_themes\../lv_core/../lv_misc/lv_color.h ****     } else {
 310:..\..\..\lvgl\version_6.1.2\lvgl\src\lv_themes\../lv_core/../lv_misc/lv_color.h ****         return 0;
 311:..\..\..\lvgl\version_6.1.2\lvgl\src\lv_themes\../lv_core/../lv_misc/lv_color.h ****     }
 312:..\..\..\lvgl\version_6.1.2\lvgl\src\lv_themes\../lv_core/../lv_misc/lv_color.h **** #elif LV_COLOR_DEPTH == 32
 313:..\..\..\lvgl\version_6.1.2\lvgl\src\lv_themes\../lv_core/../lv_misc/lv_color.h ****     if((LV_COLOR_GET_R(color) & 0x80) || (LV_COLOR_GET_G(color) & 0x80) || (LV_COLOR_GET_B(color) &
 314:..\..\..\lvgl\version_6.1.2\lvgl\src\lv_themes\../lv_core/../lv_misc/lv_color.h ****         return 1;
 315:..\..\..\lvgl\version_6.1.2\lvgl\src\lv_themes\../lv_core/../lv_misc/lv_color.h ****     } else {
ARM GAS  C:\Users\tmj32\AppData\Local\Temp\cc8DwYg3.s 			page 7


 316:..\..\..\lvgl\version_6.1.2\lvgl\src\lv_themes\../lv_core/../lv_misc/lv_color.h ****         return 0;
 317:..\..\..\lvgl\version_6.1.2\lvgl\src\lv_themes\../lv_core/../lv_misc/lv_color.h ****     }
 318:..\..\..\lvgl\version_6.1.2\lvgl\src\lv_themes\../lv_core/../lv_misc/lv_color.h **** #endif
 319:..\..\..\lvgl\version_6.1.2\lvgl\src\lv_themes\../lv_core/../lv_misc/lv_color.h **** }
 320:..\..\..\lvgl\version_6.1.2\lvgl\src\lv_themes\../lv_core/../lv_misc/lv_color.h **** 
 321:..\..\..\lvgl\version_6.1.2\lvgl\src\lv_themes\../lv_core/../lv_misc/lv_color.h **** static inline uint8_t lv_color_to8(lv_color_t color)
 322:..\..\..\lvgl\version_6.1.2\lvgl\src\lv_themes\../lv_core/../lv_misc/lv_color.h **** {
 323:..\..\..\lvgl\version_6.1.2\lvgl\src\lv_themes\../lv_core/../lv_misc/lv_color.h **** #if LV_COLOR_DEPTH == 1
 324:..\..\..\lvgl\version_6.1.2\lvgl\src\lv_themes\../lv_core/../lv_misc/lv_color.h ****     if(color.full == 0)
 325:..\..\..\lvgl\version_6.1.2\lvgl\src\lv_themes\../lv_core/../lv_misc/lv_color.h ****         return 0;
 326:..\..\..\lvgl\version_6.1.2\lvgl\src\lv_themes\../lv_core/../lv_misc/lv_color.h ****     else
 327:..\..\..\lvgl\version_6.1.2\lvgl\src\lv_themes\../lv_core/../lv_misc/lv_color.h ****         return 0xFF;
 328:..\..\..\lvgl\version_6.1.2\lvgl\src\lv_themes\../lv_core/../lv_misc/lv_color.h **** #elif LV_COLOR_DEPTH == 8
 329:..\..\..\lvgl\version_6.1.2\lvgl\src\lv_themes\../lv_core/../lv_misc/lv_color.h ****     return color.full;
 330:..\..\..\lvgl\version_6.1.2\lvgl\src\lv_themes\../lv_core/../lv_misc/lv_color.h **** #elif LV_COLOR_DEPTH == 16
 331:..\..\..\lvgl\version_6.1.2\lvgl\src\lv_themes\../lv_core/../lv_misc/lv_color.h ****     lv_color8_t ret;
 332:..\..\..\lvgl\version_6.1.2\lvgl\src\lv_themes\../lv_core/../lv_misc/lv_color.h ****     LV_COLOR_SET_R8(ret, LV_COLOR_GET_R(color) >> 2);   /* 5 - 3  = 2*/
 333:..\..\..\lvgl\version_6.1.2\lvgl\src\lv_themes\../lv_core/../lv_misc/lv_color.h ****     LV_COLOR_SET_G8(ret, LV_COLOR_GET_G(color) >> 3); /* 6 - 3  = 3*/
 334:..\..\..\lvgl\version_6.1.2\lvgl\src\lv_themes\../lv_core/../lv_misc/lv_color.h ****     LV_COLOR_SET_B8(ret, LV_COLOR_GET_B(color) >> 3);  /* 5 - 2  = 3*/
 335:..\..\..\lvgl\version_6.1.2\lvgl\src\lv_themes\../lv_core/../lv_misc/lv_color.h ****     return ret.full;
 336:..\..\..\lvgl\version_6.1.2\lvgl\src\lv_themes\../lv_core/../lv_misc/lv_color.h **** #elif LV_COLOR_DEPTH == 32
 337:..\..\..\lvgl\version_6.1.2\lvgl\src\lv_themes\../lv_core/../lv_misc/lv_color.h ****     lv_color8_t ret;
 338:..\..\..\lvgl\version_6.1.2\lvgl\src\lv_themes\../lv_core/../lv_misc/lv_color.h ****     LV_COLOR_SET_R8(ret, LV_COLOR_GET_R(color) >> 5);   /* 8 - 3  = 5*/
 339:..\..\..\lvgl\version_6.1.2\lvgl\src\lv_themes\../lv_core/../lv_misc/lv_color.h ****     LV_COLOR_SET_G8(ret, LV_COLOR_GET_G(color) >> 5); /* 8 - 3  = 5*/
 340:..\..\..\lvgl\version_6.1.2\lvgl\src\lv_themes\../lv_core/../lv_misc/lv_color.h ****     LV_COLOR_SET_B8(ret, LV_COLOR_GET_B(color) >> 6);  /* 8 - 2  = 6*/
 341:..\..\..\lvgl\version_6.1.2\lvgl\src\lv_themes\../lv_core/../lv_misc/lv_color.h ****     return ret.full;
 342:..\..\..\lvgl\version_6.1.2\lvgl\src\lv_themes\../lv_core/../lv_misc/lv_color.h **** #endif
 343:..\..\..\lvgl\version_6.1.2\lvgl\src\lv_themes\../lv_core/../lv_misc/lv_color.h **** }
 344:..\..\..\lvgl\version_6.1.2\lvgl\src\lv_themes\../lv_core/../lv_misc/lv_color.h **** 
 345:..\..\..\lvgl\version_6.1.2\lvgl\src\lv_themes\../lv_core/../lv_misc/lv_color.h **** static inline uint16_t lv_color_to16(lv_color_t color)
 346:..\..\..\lvgl\version_6.1.2\lvgl\src\lv_themes\../lv_core/../lv_misc/lv_color.h **** {
 347:..\..\..\lvgl\version_6.1.2\lvgl\src\lv_themes\../lv_core/../lv_misc/lv_color.h **** #if LV_COLOR_DEPTH == 1
 348:..\..\..\lvgl\version_6.1.2\lvgl\src\lv_themes\../lv_core/../lv_misc/lv_color.h ****     if(color.full == 0)
 349:..\..\..\lvgl\version_6.1.2\lvgl\src\lv_themes\../lv_core/../lv_misc/lv_color.h ****         return 0;
 350:..\..\..\lvgl\version_6.1.2\lvgl\src\lv_themes\../lv_core/../lv_misc/lv_color.h ****     else
 351:..\..\..\lvgl\version_6.1.2\lvgl\src\lv_themes\../lv_core/../lv_misc/lv_color.h ****         return 0xFFFF;
 352:..\..\..\lvgl\version_6.1.2\lvgl\src\lv_themes\../lv_core/../lv_misc/lv_color.h **** #elif LV_COLOR_DEPTH == 8
 353:..\..\..\lvgl\version_6.1.2\lvgl\src\lv_themes\../lv_core/../lv_misc/lv_color.h ****     lv_color16_t ret;
 354:..\..\..\lvgl\version_6.1.2\lvgl\src\lv_themes\../lv_core/../lv_misc/lv_color.h ****     LV_COLOR_SET_R16(ret, LV_COLOR_GET_R(color) * 4);     /*(2^5 - 1)/(2^3 - 1) = 31/7 = 4*/
 355:..\..\..\lvgl\version_6.1.2\lvgl\src\lv_themes\../lv_core/../lv_misc/lv_color.h **** #if LV_COLOR_16_SWAP == 0
 356:..\..\..\lvgl\version_6.1.2\lvgl\src\lv_themes\../lv_core/../lv_misc/lv_color.h ****     LV_COLOR_SET_G16(ret,  LV_COLOR_GET_G(color) * 9); /*(2^6 - 1)/(2^3 - 1) = 63/7 = 9*/
 357:..\..\..\lvgl\version_6.1.2\lvgl\src\lv_themes\../lv_core/../lv_misc/lv_color.h **** #else
 358:..\..\..\lvgl\version_6.1.2\lvgl\src\lv_themes\../lv_core/../lv_misc/lv_color.h ****     LV_COLOR_SET_G16_SWAP(ret, (LV_COLOR_GET_G(color) * 9)); /*(2^6 - 1)/(2^3 - 1) = 63/7 = 9*/
 359:..\..\..\lvgl\version_6.1.2\lvgl\src\lv_themes\../lv_core/../lv_misc/lv_color.h **** #endif
 360:..\..\..\lvgl\version_6.1.2\lvgl\src\lv_themes\../lv_core/../lv_misc/lv_color.h ****     LV_COLOR_SET_B16(ret, LV_COLOR_GET_B(color) * 10);  /*(2^5 - 1)/(2^2 - 1) = 31/3 = 10*/
 361:..\..\..\lvgl\version_6.1.2\lvgl\src\lv_themes\../lv_core/../lv_misc/lv_color.h ****     return ret.full;
 362:..\..\..\lvgl\version_6.1.2\lvgl\src\lv_themes\../lv_core/../lv_misc/lv_color.h **** #elif LV_COLOR_DEPTH == 16
 363:..\..\..\lvgl\version_6.1.2\lvgl\src\lv_themes\../lv_core/../lv_misc/lv_color.h ****     return color.full;
 364:..\..\..\lvgl\version_6.1.2\lvgl\src\lv_themes\../lv_core/../lv_misc/lv_color.h **** #elif LV_COLOR_DEPTH == 32
 365:..\..\..\lvgl\version_6.1.2\lvgl\src\lv_themes\../lv_core/../lv_misc/lv_color.h ****     lv_color16_t ret;
 366:..\..\..\lvgl\version_6.1.2\lvgl\src\lv_themes\../lv_core/../lv_misc/lv_color.h ****     LV_COLOR_SET_R16(ret, LV_COLOR_GET_R(color) >> 3);   /* 8 - 5  = 3*/
 367:..\..\..\lvgl\version_6.1.2\lvgl\src\lv_themes\../lv_core/../lv_misc/lv_color.h **** 
 368:..\..\..\lvgl\version_6.1.2\lvgl\src\lv_themes\../lv_core/../lv_misc/lv_color.h **** #if LV_COLOR_16_SWAP == 0
 369:..\..\..\lvgl\version_6.1.2\lvgl\src\lv_themes\../lv_core/../lv_misc/lv_color.h ****     LV_COLOR_SET_G16(ret, LV_COLOR_GET_G(color) >> 2); /* 8 - 6  = 2*/
 370:..\..\..\lvgl\version_6.1.2\lvgl\src\lv_themes\../lv_core/../lv_misc/lv_color.h **** #else
 371:..\..\..\lvgl\version_6.1.2\lvgl\src\lv_themes\../lv_core/../lv_misc/lv_color.h ****     LV_COLOR_SET_G16_SWAP(ret, ret.ch.green_h = (LV_COLOR_GET_G(color) >> 2); /*(2^6 - 1)/(2^3 - 1)
 372:..\..\..\lvgl\version_6.1.2\lvgl\src\lv_themes\../lv_core/../lv_misc/lv_color.h **** #endif
ARM GAS  C:\Users\tmj32\AppData\Local\Temp\cc8DwYg3.s 			page 8


 373:..\..\..\lvgl\version_6.1.2\lvgl\src\lv_themes\../lv_core/../lv_misc/lv_color.h ****     LV_COLOR_SET_B16(ret, LV_COLOR_GET_B(color) >> 3);  /* 8 - 5  = 3*/
 374:..\..\..\lvgl\version_6.1.2\lvgl\src\lv_themes\../lv_core/../lv_misc/lv_color.h ****     return ret.full;
 375:..\..\..\lvgl\version_6.1.2\lvgl\src\lv_themes\../lv_core/../lv_misc/lv_color.h **** #endif                         
 376:..\..\..\lvgl\version_6.1.2\lvgl\src\lv_themes\../lv_core/../lv_misc/lv_color.h **** }
 377:..\..\..\lvgl\version_6.1.2\lvgl\src\lv_themes\../lv_core/../lv_misc/lv_color.h **** 
 378:..\..\..\lvgl\version_6.1.2\lvgl\src\lv_themes\../lv_core/../lv_misc/lv_color.h **** static inline uint32_t lv_color_to32(lv_color_t color)
 379:..\..\..\lvgl\version_6.1.2\lvgl\src\lv_themes\../lv_core/../lv_misc/lv_color.h **** {
 380:..\..\..\lvgl\version_6.1.2\lvgl\src\lv_themes\../lv_core/../lv_misc/lv_color.h **** #if LV_COLOR_DEPTH == 1
 381:..\..\..\lvgl\version_6.1.2\lvgl\src\lv_themes\../lv_core/../lv_misc/lv_color.h ****     if(color.full == 0)
 382:..\..\..\lvgl\version_6.1.2\lvgl\src\lv_themes\../lv_core/../lv_misc/lv_color.h ****         return 0;
 383:..\..\..\lvgl\version_6.1.2\lvgl\src\lv_themes\../lv_core/../lv_misc/lv_color.h ****     else
 384:..\..\..\lvgl\version_6.1.2\lvgl\src\lv_themes\../lv_core/../lv_misc/lv_color.h ****         return 0xFFFFFFFF;
 385:..\..\..\lvgl\version_6.1.2\lvgl\src\lv_themes\../lv_core/../lv_misc/lv_color.h **** #elif LV_COLOR_DEPTH == 8
 386:..\..\..\lvgl\version_6.1.2\lvgl\src\lv_themes\../lv_core/../lv_misc/lv_color.h ****     lv_color32_t ret;
 387:..\..\..\lvgl\version_6.1.2\lvgl\src\lv_themes\../lv_core/../lv_misc/lv_color.h ****     LV_COLOR_SET_R32(ret, LV_COLOR_GET_R(color) * 36);     /*(2^8 - 1)/(2^3 - 1) = 255/7 = 36*/
 388:..\..\..\lvgl\version_6.1.2\lvgl\src\lv_themes\../lv_core/../lv_misc/lv_color.h ****     LV_COLOR_SET_G32(ret, LV_COLOR_GET_G(color) * 36); /*(2^8 - 1)/(2^3 - 1) = 255/7 = 36*/
 389:..\..\..\lvgl\version_6.1.2\lvgl\src\lv_themes\../lv_core/../lv_misc/lv_color.h ****     LV_COLOR_SET_B32(ret, LV_COLOR_GET_B(color) * 85);   /*(2^8 - 1)/(2^2 - 1) = 255/3 = 85*/
 390:..\..\..\lvgl\version_6.1.2\lvgl\src\lv_themes\../lv_core/../lv_misc/lv_color.h ****     LV_COLOR_SET_A32(ret, 0xFF);
 391:..\..\..\lvgl\version_6.1.2\lvgl\src\lv_themes\../lv_core/../lv_misc/lv_color.h ****     return ret.full;
 392:..\..\..\lvgl\version_6.1.2\lvgl\src\lv_themes\../lv_core/../lv_misc/lv_color.h **** #elif LV_COLOR_DEPTH == 16
 393:..\..\..\lvgl\version_6.1.2\lvgl\src\lv_themes\../lv_core/../lv_misc/lv_color.h ****     /**
 394:..\..\..\lvgl\version_6.1.2\lvgl\src\lv_themes\../lv_core/../lv_misc/lv_color.h ****      * The floating point math for conversion is:
 395:..\..\..\lvgl\version_6.1.2\lvgl\src\lv_themes\../lv_core/../lv_misc/lv_color.h ****      *  valueto = valuefrom * ( (2^bitsto - 1) / (float)(2^bitsfrom - 1) )
 396:..\..\..\lvgl\version_6.1.2\lvgl\src\lv_themes\../lv_core/../lv_misc/lv_color.h ****      * The faster integer math for conversion is:
 397:..\..\..\lvgl\version_6.1.2\lvgl\src\lv_themes\../lv_core/../lv_misc/lv_color.h ****      *  valueto = ( valuefrom * multiplier + adder ) >> divisor
 398:..\..\..\lvgl\version_6.1.2\lvgl\src\lv_themes\../lv_core/../lv_misc/lv_color.h ****      *   multiplier = FLOOR( ( (2^bitsto - 1) << divisor ) / (float)(2^bitsfrom - 1) )
 399:..\..\..\lvgl\version_6.1.2\lvgl\src\lv_themes\../lv_core/../lv_misc/lv_color.h ****      * 
 400:..\..\..\lvgl\version_6.1.2\lvgl\src\lv_themes\../lv_core/../lv_misc/lv_color.h ****      * Find the first divisor where ( adder >> divisor ) <= 0
 401:..\..\..\lvgl\version_6.1.2\lvgl\src\lv_themes\../lv_core/../lv_misc/lv_color.h ****      * 
 402:..\..\..\lvgl\version_6.1.2\lvgl\src\lv_themes\../lv_core/../lv_misc/lv_color.h ****      * 5-bit to 8-bit: ( 31 * multiplier + adder ) >> divisor = 255
 403:..\..\..\lvgl\version_6.1.2\lvgl\src\lv_themes\../lv_core/../lv_misc/lv_color.h ****      * divisor  multiplier  adder  min (0)  max (31)
 404:..\..\..\lvgl\version_6.1.2\lvgl\src\lv_themes\../lv_core/../lv_misc/lv_color.h ****      *       0           8      7        7       255
 405:..\..\..\lvgl\version_6.1.2\lvgl\src\lv_themes\../lv_core/../lv_misc/lv_color.h ****      *       1          16     14        7       255
 406:..\..\..\lvgl\version_6.1.2\lvgl\src\lv_themes\../lv_core/../lv_misc/lv_color.h ****      *       2          32     28        7       255
 407:..\..\..\lvgl\version_6.1.2\lvgl\src\lv_themes\../lv_core/../lv_misc/lv_color.h ****      *       3          65     25        3       255
 408:..\..\..\lvgl\version_6.1.2\lvgl\src\lv_themes\../lv_core/../lv_misc/lv_color.h ****      *       4         131     19        1       255
 409:..\..\..\lvgl\version_6.1.2\lvgl\src\lv_themes\../lv_core/../lv_misc/lv_color.h ****      *       5         263      7        0       255
 410:..\..\..\lvgl\version_6.1.2\lvgl\src\lv_themes\../lv_core/../lv_misc/lv_color.h ****      * 
 411:..\..\..\lvgl\version_6.1.2\lvgl\src\lv_themes\../lv_core/../lv_misc/lv_color.h ****      * 6-bit to 8-bit: 255 = ( 63 * multiplier + adder ) >> divisor
 412:..\..\..\lvgl\version_6.1.2\lvgl\src\lv_themes\../lv_core/../lv_misc/lv_color.h ****      * divisor  multiplier  adder  min (0)  max (63)
 413:..\..\..\lvgl\version_6.1.2\lvgl\src\lv_themes\../lv_core/../lv_misc/lv_color.h ****      *       0           4      3        3       255
 414:..\..\..\lvgl\version_6.1.2\lvgl\src\lv_themes\../lv_core/../lv_misc/lv_color.h ****      *       1           8      6        3       255
 415:..\..\..\lvgl\version_6.1.2\lvgl\src\lv_themes\../lv_core/../lv_misc/lv_color.h ****      *       2          16     12        3       255
 416:..\..\..\lvgl\version_6.1.2\lvgl\src\lv_themes\../lv_core/../lv_misc/lv_color.h ****      *       3          32     24        3       255
 417:..\..\..\lvgl\version_6.1.2\lvgl\src\lv_themes\../lv_core/../lv_misc/lv_color.h ****      *       4          64     48        3       255
 418:..\..\..\lvgl\version_6.1.2\lvgl\src\lv_themes\../lv_core/../lv_misc/lv_color.h ****      *       5         129     33        1       255
 419:..\..\..\lvgl\version_6.1.2\lvgl\src\lv_themes\../lv_core/../lv_misc/lv_color.h ****      *       6         259      3        0       255
 420:..\..\..\lvgl\version_6.1.2\lvgl\src\lv_themes\../lv_core/../lv_misc/lv_color.h ****      */
 421:..\..\..\lvgl\version_6.1.2\lvgl\src\lv_themes\../lv_core/../lv_misc/lv_color.h ****     lv_color32_t ret;
 422:..\..\..\lvgl\version_6.1.2\lvgl\src\lv_themes\../lv_core/../lv_misc/lv_color.h ****     LV_COLOR_SET_R32(ret, (LV_COLOR_GET_R(color) * 263 + 7 ) >> 5);
 423:..\..\..\lvgl\version_6.1.2\lvgl\src\lv_themes\../lv_core/../lv_misc/lv_color.h ****     LV_COLOR_SET_G32(ret, (LV_COLOR_GET_G(color) * 259 + 3 ) >> 6);
 424:..\..\..\lvgl\version_6.1.2\lvgl\src\lv_themes\../lv_core/../lv_misc/lv_color.h ****     LV_COLOR_SET_B32(ret, (LV_COLOR_GET_B(color) * 263 + 7 ) >> 5);
 425:..\..\..\lvgl\version_6.1.2\lvgl\src\lv_themes\../lv_core/../lv_misc/lv_color.h ****     LV_COLOR_SET_A32(ret, 0xFF);
 426:..\..\..\lvgl\version_6.1.2\lvgl\src\lv_themes\../lv_core/../lv_misc/lv_color.h ****     return ret.full;
 427:..\..\..\lvgl\version_6.1.2\lvgl\src\lv_themes\../lv_core/../lv_misc/lv_color.h **** #elif LV_COLOR_DEPTH == 32
 428:..\..\..\lvgl\version_6.1.2\lvgl\src\lv_themes\../lv_core/../lv_misc/lv_color.h ****     return color.full;
 429:..\..\..\lvgl\version_6.1.2\lvgl\src\lv_themes\../lv_core/../lv_misc/lv_color.h **** #endif
ARM GAS  C:\Users\tmj32\AppData\Local\Temp\cc8DwYg3.s 			page 9


 430:..\..\..\lvgl\version_6.1.2\lvgl\src\lv_themes\../lv_core/../lv_misc/lv_color.h **** }
 431:..\..\..\lvgl\version_6.1.2\lvgl\src\lv_themes\../lv_core/../lv_misc/lv_color.h **** 
 432:..\..\..\lvgl\version_6.1.2\lvgl\src\lv_themes\../lv_core/../lv_misc/lv_color.h **** static inline lv_color_t lv_color_mix(lv_color_t c1, lv_color_t c2, uint8_t mix)
 433:..\..\..\lvgl\version_6.1.2\lvgl\src\lv_themes\../lv_core/../lv_misc/lv_color.h **** {
 434:..\..\..\lvgl\version_6.1.2\lvgl\src\lv_themes\../lv_core/../lv_misc/lv_color.h ****     lv_color_t ret;
 435:..\..\..\lvgl\version_6.1.2\lvgl\src\lv_themes\../lv_core/../lv_misc/lv_color.h **** #if LV_COLOR_DEPTH != 1
 436:..\..\..\lvgl\version_6.1.2\lvgl\src\lv_themes\../lv_core/../lv_misc/lv_color.h ****     /*LV_COLOR_DEPTH == 8, 16 or 32*/
 437:..\..\..\lvgl\version_6.1.2\lvgl\src\lv_themes\../lv_core/../lv_misc/lv_color.h ****     LV_COLOR_SET_R(ret, (uint16_t)((uint16_t) LV_COLOR_GET_R(c1) * mix + LV_COLOR_GET_R(c2) * (255 
 438:..\..\..\lvgl\version_6.1.2\lvgl\src\lv_themes\../lv_core/../lv_misc/lv_color.h ****     LV_COLOR_SET_G(ret, (uint16_t)((uint16_t) LV_COLOR_GET_G(c1) * mix + LV_COLOR_GET_G(c2) * (255 
 439:..\..\..\lvgl\version_6.1.2\lvgl\src\lv_themes\../lv_core/../lv_misc/lv_color.h ****     LV_COLOR_SET_B(ret, (uint16_t)((uint16_t) LV_COLOR_GET_B(c1) * mix + LV_COLOR_GET_B(c2) * (255 
 440:..\..\..\lvgl\version_6.1.2\lvgl\src\lv_themes\../lv_core/../lv_misc/lv_color.h ****     LV_COLOR_SET_A(ret, 0xFF);
 441:..\..\..\lvgl\version_6.1.2\lvgl\src\lv_themes\../lv_core/../lv_misc/lv_color.h **** #else
 442:..\..\..\lvgl\version_6.1.2\lvgl\src\lv_themes\../lv_core/../lv_misc/lv_color.h ****     /*LV_COLOR_DEPTH == 1*/
 443:..\..\..\lvgl\version_6.1.2\lvgl\src\lv_themes\../lv_core/../lv_misc/lv_color.h ****     ret.full = mix > LV_OPA_50 ? c1.full : c2.full;
 444:..\..\..\lvgl\version_6.1.2\lvgl\src\lv_themes\../lv_core/../lv_misc/lv_color.h **** #endif
 445:..\..\..\lvgl\version_6.1.2\lvgl\src\lv_themes\../lv_core/../lv_misc/lv_color.h **** 
 446:..\..\..\lvgl\version_6.1.2\lvgl\src\lv_themes\../lv_core/../lv_misc/lv_color.h ****     return ret;
 447:..\..\..\lvgl\version_6.1.2\lvgl\src\lv_themes\../lv_core/../lv_misc/lv_color.h **** }
 448:..\..\..\lvgl\version_6.1.2\lvgl\src\lv_themes\../lv_core/../lv_misc/lv_color.h **** 
 449:..\..\..\lvgl\version_6.1.2\lvgl\src\lv_themes\../lv_core/../lv_misc/lv_color.h **** /**
 450:..\..\..\lvgl\version_6.1.2\lvgl\src\lv_themes\../lv_core/../lv_misc/lv_color.h ****  * Get the brightness of a color
 451:..\..\..\lvgl\version_6.1.2\lvgl\src\lv_themes\../lv_core/../lv_misc/lv_color.h ****  * @param color a color
 452:..\..\..\lvgl\version_6.1.2\lvgl\src\lv_themes\../lv_core/../lv_misc/lv_color.h ****  * @return the brightness [0..255]
 453:..\..\..\lvgl\version_6.1.2\lvgl\src\lv_themes\../lv_core/../lv_misc/lv_color.h ****  */
 454:..\..\..\lvgl\version_6.1.2\lvgl\src\lv_themes\../lv_core/../lv_misc/lv_color.h **** static inline uint8_t lv_color_brightness(lv_color_t color)
 455:..\..\..\lvgl\version_6.1.2\lvgl\src\lv_themes\../lv_core/../lv_misc/lv_color.h **** {
 456:..\..\..\lvgl\version_6.1.2\lvgl\src\lv_themes\../lv_core/../lv_misc/lv_color.h ****     lv_color32_t c32;
 457:..\..\..\lvgl\version_6.1.2\lvgl\src\lv_themes\../lv_core/../lv_misc/lv_color.h ****     c32.full        = lv_color_to32(color);
 458:..\..\..\lvgl\version_6.1.2\lvgl\src\lv_themes\../lv_core/../lv_misc/lv_color.h ****     uint16_t bright = (uint16_t)(3u * LV_COLOR_GET_R32(c32) + LV_COLOR_GET_B32(c32) + 4u * LV_COLOR
 459:..\..\..\lvgl\version_6.1.2\lvgl\src\lv_themes\../lv_core/../lv_misc/lv_color.h ****     return (uint8_t)(bright >> 3);
 460:..\..\..\lvgl\version_6.1.2\lvgl\src\lv_themes\../lv_core/../lv_misc/lv_color.h **** }
 461:..\..\..\lvgl\version_6.1.2\lvgl\src\lv_themes\../lv_core/../lv_misc/lv_color.h **** 
 462:..\..\..\lvgl\version_6.1.2\lvgl\src\lv_themes\../lv_core/../lv_misc/lv_color.h **** /* The most simple macro to create a color from R,G and B values */
 463:..\..\..\lvgl\version_6.1.2\lvgl\src\lv_themes\../lv_core/../lv_misc/lv_color.h **** #if LV_COLOR_DEPTH == 1
 464:..\..\..\lvgl\version_6.1.2\lvgl\src\lv_themes\../lv_core/../lv_misc/lv_color.h **** #define LV_COLOR_MAKE(r8, g8, b8) ((lv_color_t){.full = (uint8_t)((b8 >> 7) | (g8 >> 7) | (r8 >> 7)
 465:..\..\..\lvgl\version_6.1.2\lvgl\src\lv_themes\../lv_core/../lv_misc/lv_color.h **** #elif LV_COLOR_DEPTH == 8
 466:..\..\..\lvgl\version_6.1.2\lvgl\src\lv_themes\../lv_core/../lv_misc/lv_color.h **** #define LV_COLOR_MAKE(r8, g8, b8) ((lv_color_t){{(uint8_t)((b8 >> 6) & 0x3U), (uint8_t)((g8 >> 5) &
 467:..\..\..\lvgl\version_6.1.2\lvgl\src\lv_themes\../lv_core/../lv_misc/lv_color.h **** #elif LV_COLOR_DEPTH == 16
 468:..\..\..\lvgl\version_6.1.2\lvgl\src\lv_themes\../lv_core/../lv_misc/lv_color.h **** #if LV_COLOR_16_SWAP == 0
 469:..\..\..\lvgl\version_6.1.2\lvgl\src\lv_themes\../lv_core/../lv_misc/lv_color.h **** #define LV_COLOR_MAKE(r8, g8, b8) ((lv_color_t){{(uint16_t)((b8 >> 3) & 0x1FU), (uint16_t)((g8 >> 2
 470:..\..\..\lvgl\version_6.1.2\lvgl\src\lv_themes\../lv_core/../lv_misc/lv_color.h **** #else
 471:..\..\..\lvgl\version_6.1.2\lvgl\src\lv_themes\../lv_core/../lv_misc/lv_color.h **** #define LV_COLOR_MAKE(r8, g8, b8) ((lv_color_t){{(uint16_t)((g8 >> 5) & 0x7U), (uint16_t)((r8 >> 3)
 472:..\..\..\lvgl\version_6.1.2\lvgl\src\lv_themes\../lv_core/../lv_misc/lv_color.h **** #endif
 473:..\..\..\lvgl\version_6.1.2\lvgl\src\lv_themes\../lv_core/../lv_misc/lv_color.h **** #elif LV_COLOR_DEPTH == 32
 474:..\..\..\lvgl\version_6.1.2\lvgl\src\lv_themes\../lv_core/../lv_misc/lv_color.h **** #define LV_COLOR_MAKE(r8, g8, b8) ((lv_color_t){{b8, g8, r8, 0xff}}) /*Fix 0xff alpha*/
 475:..\..\..\lvgl\version_6.1.2\lvgl\src\lv_themes\../lv_core/../lv_misc/lv_color.h **** #endif
 476:..\..\..\lvgl\version_6.1.2\lvgl\src\lv_themes\../lv_core/../lv_misc/lv_color.h **** 
 477:..\..\..\lvgl\version_6.1.2\lvgl\src\lv_themes\../lv_core/../lv_misc/lv_color.h **** static inline lv_color_t lv_color_make(uint8_t r, uint8_t g, uint8_t b)
 478:..\..\..\lvgl\version_6.1.2\lvgl\src\lv_themes\../lv_core/../lv_misc/lv_color.h **** {
  28              		.loc 1 478 0
  29              		.cfi_startproc
  30              		@ args = 0, pretend = 0, frame = 8
  31              		@ frame_needed = 1, uses_anonymous_args = 0
  32              		@ link register save eliminated.
  33 0000 90B4     		push	{r4, r7}
  34              		.cfi_def_cfa_offset 8
  35              		.cfi_offset 4, -8
ARM GAS  C:\Users\tmj32\AppData\Local\Temp\cc8DwYg3.s 			page 10


  36              		.cfi_offset 7, -4
  37 0002 82B0     		sub	sp, sp, #8
  38              		.cfi_def_cfa_offset 16
  39 0004 00AF     		add	r7, sp, #0
  40              		.cfi_def_cfa_register 7
  41 0006 0446     		mov	r4, r0
  42 0008 0846     		mov	r0, r1
  43 000a 1146     		mov	r1, r2
  44 000c 2246     		mov	r2, r4
  45 000e FA71     		strb	r2, [r7, #7]
  46 0010 0246     		mov	r2, r0
  47 0012 BA71     		strb	r2, [r7, #6]
  48 0014 0A46     		mov	r2, r1
  49 0016 7A71     		strb	r2, [r7, #5]
 479:..\..\..\lvgl\version_6.1.2\lvgl\src\lv_themes\../lv_core/../lv_misc/lv_color.h ****     return LV_COLOR_MAKE(r, g, b);
  50              		.loc 1 479 0
  51 0018 7A79     		ldrb	r2, [r7, #5]
  52 001a 62F30703 		bfi	r3, r2, #0, #8
  53 001e BA79     		ldrb	r2, [r7, #6]
  54 0020 62F30F23 		bfi	r3, r2, #8, #8
  55 0024 FA79     		ldrb	r2, [r7, #7]
  56 0026 62F31743 		bfi	r3, r2, #16, #8
  57 002a 43F07F43 		orr	r3, r3, #-16777216
 480:..\..\..\lvgl\version_6.1.2\lvgl\src\lv_themes\../lv_core/../lv_misc/lv_color.h **** }
  58              		.loc 1 480 0
  59 002e 1846     		mov	r0, r3
  60 0030 0837     		adds	r7, r7, #8
  61              		.cfi_def_cfa_offset 8
  62 0032 BD46     		mov	sp, r7
  63              		.cfi_def_cfa_register 13
  64              		@ sp needed
  65 0034 90BC     		pop	{r4, r7}
  66              		.cfi_restore 7
  67              		.cfi_restore 4
  68              		.cfi_def_cfa_offset 0
  69 0036 7047     		bx	lr
  70              		.cfi_endproc
  71              	.LFE7:
  72              		.size	lv_color_make, .-lv_color_make
  73              		.section	.text.lv_color_hex,"ax",%progbits
  74              		.align	2
  75              		.thumb
  76              		.thumb_func
  77              		.type	lv_color_hex, %function
  78              	lv_color_hex:
  79              	.LFB8:
 481:..\..\..\lvgl\version_6.1.2\lvgl\src\lv_themes\../lv_core/../lv_misc/lv_color.h **** 
 482:..\..\..\lvgl\version_6.1.2\lvgl\src\lv_themes\../lv_core/../lv_misc/lv_color.h **** static inline lv_color_t lv_color_hex(uint32_t c)
 483:..\..\..\lvgl\version_6.1.2\lvgl\src\lv_themes\../lv_core/../lv_misc/lv_color.h **** {
  80              		.loc 1 483 0
  81              		.cfi_startproc
  82              		@ args = 0, pretend = 0, frame = 8
  83              		@ frame_needed = 1, uses_anonymous_args = 0
  84 0000 80B5     		push	{r7, lr}
  85              		.cfi_def_cfa_offset 8
  86              		.cfi_offset 7, -8
  87              		.cfi_offset 14, -4
ARM GAS  C:\Users\tmj32\AppData\Local\Temp\cc8DwYg3.s 			page 11


  88 0002 82B0     		sub	sp, sp, #8
  89              		.cfi_def_cfa_offset 16
  90 0004 00AF     		add	r7, sp, #0
  91              		.cfi_def_cfa_register 7
  92 0006 7860     		str	r0, [r7, #4]
 484:..\..\..\lvgl\version_6.1.2\lvgl\src\lv_themes\../lv_core/../lv_misc/lv_color.h ****     return lv_color_make((uint8_t)((c >> 16) & 0xFF), (uint8_t)((c >> 8) & 0xFF), (uint8_t)(c & 0xF
  93              		.loc 1 484 0
  94 0008 7B68     		ldr	r3, [r7, #4]
  95 000a 1B0C     		lsrs	r3, r3, #16
  96 000c D8B2     		uxtb	r0, r3
  97 000e 7B68     		ldr	r3, [r7, #4]
  98 0010 1B0A     		lsrs	r3, r3, #8
  99 0012 DBB2     		uxtb	r3, r3
 100 0014 7A68     		ldr	r2, [r7, #4]
 101 0016 D2B2     		uxtb	r2, r2
 102 0018 1946     		mov	r1, r3
 103 001a FFF7FEFF 		bl	lv_color_make
 104 001e 0346     		mov	r3, r0
 485:..\..\..\lvgl\version_6.1.2\lvgl\src\lv_themes\../lv_core/../lv_misc/lv_color.h **** }
 105              		.loc 1 485 0
 106 0020 1846     		mov	r0, r3
 107 0022 0837     		adds	r7, r7, #8
 108              		.cfi_def_cfa_offset 8
 109 0024 BD46     		mov	sp, r7
 110              		.cfi_def_cfa_register 13
 111              		@ sp needed
 112 0026 80BD     		pop	{r7, pc}
 113              		.cfi_endproc
 114              	.LFE8:
 115              		.size	lv_color_hex, .-lv_color_hex
 116              		.section	.text.lv_color_hex3,"ax",%progbits
 117              		.align	2
 118              		.thumb
 119              		.thumb_func
 120              		.type	lv_color_hex3, %function
 121              	lv_color_hex3:
 122              	.LFB9:
 486:..\..\..\lvgl\version_6.1.2\lvgl\src\lv_themes\../lv_core/../lv_misc/lv_color.h **** 
 487:..\..\..\lvgl\version_6.1.2\lvgl\src\lv_themes\../lv_core/../lv_misc/lv_color.h **** static inline lv_color_t lv_color_hex3(uint32_t c)
 488:..\..\..\lvgl\version_6.1.2\lvgl\src\lv_themes\../lv_core/../lv_misc/lv_color.h **** {
 123              		.loc 1 488 0
 124              		.cfi_startproc
 125              		@ args = 0, pretend = 0, frame = 8
 126              		@ frame_needed = 1, uses_anonymous_args = 0
 127 0000 80B5     		push	{r7, lr}
 128              		.cfi_def_cfa_offset 8
 129              		.cfi_offset 7, -8
 130              		.cfi_offset 14, -4
 131 0002 82B0     		sub	sp, sp, #8
 132              		.cfi_def_cfa_offset 16
 133 0004 00AF     		add	r7, sp, #0
 134              		.cfi_def_cfa_register 7
 135 0006 7860     		str	r0, [r7, #4]
 489:..\..\..\lvgl\version_6.1.2\lvgl\src\lv_themes\../lv_core/../lv_misc/lv_color.h ****     return lv_color_make((uint8_t)(((c >> 4) & 0xF0) | ((c >> 8) & 0xF)), (uint8_t)((c & 0xF0) | ((
 136              		.loc 1 489 0
 137 0008 7B68     		ldr	r3, [r7, #4]
 138 000a 1B09     		lsrs	r3, r3, #4
ARM GAS  C:\Users\tmj32\AppData\Local\Temp\cc8DwYg3.s 			page 12


 139 000c DBB2     		uxtb	r3, r3
 140 000e 23F00F03 		bic	r3, r3, #15
 141 0012 DAB2     		uxtb	r2, r3
 142 0014 7B68     		ldr	r3, [r7, #4]
 143 0016 1B0A     		lsrs	r3, r3, #8
 144 0018 DBB2     		uxtb	r3, r3
 145 001a 03F00F03 		and	r3, r3, #15
 146 001e DBB2     		uxtb	r3, r3
 147 0020 1343     		orrs	r3, r3, r2
 148 0022 D8B2     		uxtb	r0, r3
 149 0024 7B68     		ldr	r3, [r7, #4]
 150 0026 DBB2     		uxtb	r3, r3
 151 0028 23F00F03 		bic	r3, r3, #15
 152 002c DAB2     		uxtb	r2, r3
 153 002e 7B68     		ldr	r3, [r7, #4]
 154 0030 1B09     		lsrs	r3, r3, #4
 155 0032 DBB2     		uxtb	r3, r3
 156 0034 03F00F03 		and	r3, r3, #15
 157 0038 DBB2     		uxtb	r3, r3
 158 003a 1343     		orrs	r3, r3, r2
 159 003c D9B2     		uxtb	r1, r3
 160 003e 7B68     		ldr	r3, [r7, #4]
 161 0040 DBB2     		uxtb	r3, r3
 162 0042 03F00F03 		and	r3, r3, #15
 163 0046 DAB2     		uxtb	r2, r3
 164 0048 7B68     		ldr	r3, [r7, #4]
 165 004a DBB2     		uxtb	r3, r3
 166 004c 1B01     		lsls	r3, r3, #4
 167 004e DBB2     		uxtb	r3, r3
 168 0050 1343     		orrs	r3, r3, r2
 169 0052 DBB2     		uxtb	r3, r3
 170 0054 1A46     		mov	r2, r3
 171 0056 FFF7FEFF 		bl	lv_color_make
 172 005a 0346     		mov	r3, r0
 490:..\..\..\lvgl\version_6.1.2\lvgl\src\lv_themes\../lv_core/../lv_misc/lv_color.h ****                          (uint8_t)((c & 0xF) | ((c & 0xF) << 4)));
 491:..\..\..\lvgl\version_6.1.2\lvgl\src\lv_themes\../lv_core/../lv_misc/lv_color.h **** }
 173              		.loc 1 491 0
 174 005c 1846     		mov	r0, r3
 175 005e 0837     		adds	r7, r7, #8
 176              		.cfi_def_cfa_offset 8
 177 0060 BD46     		mov	sp, r7
 178              		.cfi_def_cfa_register 13
 179              		@ sp needed
 180 0062 80BD     		pop	{r7, pc}
 181              		.cfi_endproc
 182              	.LFE9:
 183              		.size	lv_color_hex3, .-lv_color_hex3
 184              		.bss
 185              		.align	2
 186              	theme:
 187 0000 00000000 		.space	424
 187      00000000 
 187      00000000 
 187      00000000 
 187      00000000 
 188              		.align	2
 189              	def:
ARM GAS  C:\Users\tmj32\AppData\Local\Temp\cc8DwYg3.s 			page 13


 190 01a8 00000000 		.space	80
 190      00000000 
 190      00000000 
 190      00000000 
 190      00000000 
 191              		.align	2
 192              	sb:
 193 01f8 00000000 		.space	80
 193      00000000 
 193      00000000 
 193      00000000 
 193      00000000 
 194              		.align	1
 195              	_hue:
 196 0248 0000     		.space	2
 197 024a 0000     		.align	2
 198              	_font:
 199 024c 00000000 		.space	4
 200              		.section	.text.basic_init,"ax",%progbits
 201              		.align	2
 202              		.thumb
 203              		.thumb_func
 204              		.type	basic_init, %function
 205              	basic_init:
 206              	.LFB31:
 207              		.file 2 "..\\..\\..\\lvgl\\version_6.1.2\\lvgl\\src\\lv_themes\\lv_theme_material.c"
   1:..\..\..\lvgl\version_6.1.2\lvgl\src\lv_themes/lv_theme_material.c **** /**
   2:..\..\..\lvgl\version_6.1.2\lvgl\src\lv_themes/lv_theme_material.c ****  * @file lv_theme_material.c
   3:..\..\..\lvgl\version_6.1.2\lvgl\src\lv_themes/lv_theme_material.c ****  *
   4:..\..\..\lvgl\version_6.1.2\lvgl\src\lv_themes/lv_theme_material.c ****  */
   5:..\..\..\lvgl\version_6.1.2\lvgl\src\lv_themes/lv_theme_material.c **** 
   6:..\..\..\lvgl\version_6.1.2\lvgl\src\lv_themes/lv_theme_material.c **** /*********************
   7:..\..\..\lvgl\version_6.1.2\lvgl\src\lv_themes/lv_theme_material.c ****  *      INCLUDES
   8:..\..\..\lvgl\version_6.1.2\lvgl\src\lv_themes/lv_theme_material.c ****  *********************/
   9:..\..\..\lvgl\version_6.1.2\lvgl\src\lv_themes/lv_theme_material.c **** #include "lv_theme.h"
  10:..\..\..\lvgl\version_6.1.2\lvgl\src\lv_themes/lv_theme_material.c **** 
  11:..\..\..\lvgl\version_6.1.2\lvgl\src\lv_themes/lv_theme_material.c **** #if LV_USE_THEME_MATERIAL
  12:..\..\..\lvgl\version_6.1.2\lvgl\src\lv_themes/lv_theme_material.c **** 
  13:..\..\..\lvgl\version_6.1.2\lvgl\src\lv_themes/lv_theme_material.c **** /*********************
  14:..\..\..\lvgl\version_6.1.2\lvgl\src\lv_themes/lv_theme_material.c ****  *      DEFINES
  15:..\..\..\lvgl\version_6.1.2\lvgl\src\lv_themes/lv_theme_material.c ****  *********************/
  16:..\..\..\lvgl\version_6.1.2\lvgl\src\lv_themes/lv_theme_material.c **** #define DEF_RADIUS 4
  17:..\..\..\lvgl\version_6.1.2\lvgl\src\lv_themes/lv_theme_material.c **** #define DEF_SHADOW_COLOR lv_color_hex3(0xaaa)
  18:..\..\..\lvgl\version_6.1.2\lvgl\src\lv_themes/lv_theme_material.c **** 
  19:..\..\..\lvgl\version_6.1.2\lvgl\src\lv_themes/lv_theme_material.c **** /**********************
  20:..\..\..\lvgl\version_6.1.2\lvgl\src\lv_themes/lv_theme_material.c ****  *      TYPEDEFS
  21:..\..\..\lvgl\version_6.1.2\lvgl\src\lv_themes/lv_theme_material.c ****  **********************/
  22:..\..\..\lvgl\version_6.1.2\lvgl\src\lv_themes/lv_theme_material.c **** 
  23:..\..\..\lvgl\version_6.1.2\lvgl\src\lv_themes/lv_theme_material.c **** /**********************
  24:..\..\..\lvgl\version_6.1.2\lvgl\src\lv_themes/lv_theme_material.c ****  *  STATIC PROTOTYPES
  25:..\..\..\lvgl\version_6.1.2\lvgl\src\lv_themes/lv_theme_material.c ****  **********************/
  26:..\..\..\lvgl\version_6.1.2\lvgl\src\lv_themes/lv_theme_material.c **** 
  27:..\..\..\lvgl\version_6.1.2\lvgl\src\lv_themes/lv_theme_material.c **** /**********************
  28:..\..\..\lvgl\version_6.1.2\lvgl\src\lv_themes/lv_theme_material.c ****  *  STATIC VARIABLES
  29:..\..\..\lvgl\version_6.1.2\lvgl\src\lv_themes/lv_theme_material.c ****  **********************/
  30:..\..\..\lvgl\version_6.1.2\lvgl\src\lv_themes/lv_theme_material.c **** static lv_theme_t theme;
  31:..\..\..\lvgl\version_6.1.2\lvgl\src\lv_themes/lv_theme_material.c **** static lv_style_t def;
ARM GAS  C:\Users\tmj32\AppData\Local\Temp\cc8DwYg3.s 			page 14


  32:..\..\..\lvgl\version_6.1.2\lvgl\src\lv_themes/lv_theme_material.c **** 
  33:..\..\..\lvgl\version_6.1.2\lvgl\src\lv_themes/lv_theme_material.c **** /*Static style definitions*/
  34:..\..\..\lvgl\version_6.1.2\lvgl\src\lv_themes/lv_theme_material.c **** static lv_style_t sb;
  35:..\..\..\lvgl\version_6.1.2\lvgl\src\lv_themes/lv_theme_material.c **** 
  36:..\..\..\lvgl\version_6.1.2\lvgl\src\lv_themes/lv_theme_material.c **** /*Saved input parameters*/
  37:..\..\..\lvgl\version_6.1.2\lvgl\src\lv_themes/lv_theme_material.c **** static uint16_t _hue;
  38:..\..\..\lvgl\version_6.1.2\lvgl\src\lv_themes/lv_theme_material.c **** static lv_font_t * _font;
  39:..\..\..\lvgl\version_6.1.2\lvgl\src\lv_themes/lv_theme_material.c **** 
  40:..\..\..\lvgl\version_6.1.2\lvgl\src\lv_themes/lv_theme_material.c **** /**********************
  41:..\..\..\lvgl\version_6.1.2\lvgl\src\lv_themes/lv_theme_material.c ****  *      MACROS
  42:..\..\..\lvgl\version_6.1.2\lvgl\src\lv_themes/lv_theme_material.c ****  **********************/
  43:..\..\..\lvgl\version_6.1.2\lvgl\src\lv_themes/lv_theme_material.c **** 
  44:..\..\..\lvgl\version_6.1.2\lvgl\src\lv_themes/lv_theme_material.c **** /**********************
  45:..\..\..\lvgl\version_6.1.2\lvgl\src\lv_themes/lv_theme_material.c ****  *   STATIC FUNCTIONS
  46:..\..\..\lvgl\version_6.1.2\lvgl\src\lv_themes/lv_theme_material.c ****  **********************/
  47:..\..\..\lvgl\version_6.1.2\lvgl\src\lv_themes/lv_theme_material.c **** 
  48:..\..\..\lvgl\version_6.1.2\lvgl\src\lv_themes/lv_theme_material.c **** static void basic_init(void)
  49:..\..\..\lvgl\version_6.1.2\lvgl\src\lv_themes/lv_theme_material.c **** {
 208              		.loc 2 49 0
 209              		.cfi_startproc
 210              		@ args = 0, pretend = 0, frame = 0
 211              		@ frame_needed = 1, uses_anonymous_args = 0
 212 0000 98B5     		push	{r3, r4, r7, lr}
 213              		.cfi_def_cfa_offset 16
 214              		.cfi_offset 3, -16
 215              		.cfi_offset 4, -12
 216              		.cfi_offset 7, -8
 217              		.cfi_offset 14, -4
 218 0002 00AF     		add	r7, sp, #0
 219              		.cfi_def_cfa_register 7
  50:..\..\..\lvgl\version_6.1.2\lvgl\src\lv_themes/lv_theme_material.c ****     static lv_style_t bg, panel, scr;
  51:..\..\..\lvgl\version_6.1.2\lvgl\src\lv_themes/lv_theme_material.c **** 
  52:..\..\..\lvgl\version_6.1.2\lvgl\src\lv_themes/lv_theme_material.c ****     lv_style_copy(&def, &lv_style_plain); /*Initialize the default style*/
 220              		.loc 2 52 0
 221 0004 5649     		ldr	r1, .L8
 222 0006 5748     		ldr	r0, .L8+4
 223 0008 FFF7FEFF 		bl	lv_style_copy
  53:..\..\..\lvgl\version_6.1.2\lvgl\src\lv_themes/lv_theme_material.c ****     def.text.font   = _font;
 224              		.loc 2 53 0
 225 000c 564B     		ldr	r3, .L8+8
 226 000e 1B68     		ldr	r3, [r3]
 227 0010 544A     		ldr	r2, .L8+4
 228 0012 5363     		str	r3, [r2, #52]
  54:..\..\..\lvgl\version_6.1.2\lvgl\src\lv_themes/lv_theme_material.c ****     def.body.radius = DEF_RADIUS;
 229              		.loc 2 54 0
 230 0014 534B     		ldr	r3, .L8+4
 231 0016 0422     		movs	r2, #4
 232 0018 9A81     		strh	r2, [r3, #12]	@ movhi
  55:..\..\..\lvgl\version_6.1.2\lvgl\src\lv_themes/lv_theme_material.c **** 
  56:..\..\..\lvgl\version_6.1.2\lvgl\src\lv_themes/lv_theme_material.c ****     lv_style_copy(&bg, &def);
 233              		.loc 2 56 0
 234 001a 5249     		ldr	r1, .L8+4
 235 001c 5348     		ldr	r0, .L8+12
 236 001e FFF7FEFF 		bl	lv_style_copy
  57:..\..\..\lvgl\version_6.1.2\lvgl\src\lv_themes/lv_theme_material.c ****     bg.body.main_color = lv_color_hex(0xf0f0f0);
 237              		.loc 2 57 0
 238 0022 524C     		ldr	r4, .L8+12
ARM GAS  C:\Users\tmj32\AppData\Local\Temp\cc8DwYg3.s 			page 15


 239 0024 5248     		ldr	r0, .L8+16
 240 0026 FFF7FEFF 		bl	lv_color_hex
 241 002a 6060     		str	r0, [r4, #4]
  58:..\..\..\lvgl\version_6.1.2\lvgl\src\lv_themes/lv_theme_material.c ****     bg.body.grad_color = bg.body.main_color;
 242              		.loc 2 58 0
 243 002c 4F4A     		ldr	r2, .L8+12
 244 002e 4F4B     		ldr	r3, .L8+12
 245 0030 5B68     		ldr	r3, [r3, #4]
 246 0032 9360     		str	r3, [r2, #8]
  59:..\..\..\lvgl\version_6.1.2\lvgl\src\lv_themes/lv_theme_material.c ****     bg.body.radius     = 0;
 247              		.loc 2 59 0
 248 0034 4D4B     		ldr	r3, .L8+12
 249 0036 0022     		movs	r2, #0
 250 0038 9A81     		strh	r2, [r3, #12]	@ movhi
  60:..\..\..\lvgl\version_6.1.2\lvgl\src\lv_themes/lv_theme_material.c **** 
  61:..\..\..\lvgl\version_6.1.2\lvgl\src\lv_themes/lv_theme_material.c ****     lv_style_copy(&scr, &bg);
 251              		.loc 2 61 0
 252 003a 4C49     		ldr	r1, .L8+12
 253 003c 4D48     		ldr	r0, .L8+20
 254 003e FFF7FEFF 		bl	lv_style_copy
  62:..\..\..\lvgl\version_6.1.2\lvgl\src\lv_themes/lv_theme_material.c ****     scr.body.padding.bottom = 0;
 255              		.loc 2 62 0
 256 0042 4C4B     		ldr	r3, .L8+20
 257 0044 0022     		movs	r2, #0
 258 0046 5A84     		strh	r2, [r3, #34]	@ movhi
  63:..\..\..\lvgl\version_6.1.2\lvgl\src\lv_themes/lv_theme_material.c ****     scr.body.padding.top    = 0;
 259              		.loc 2 63 0
 260 0048 4A4B     		ldr	r3, .L8+20
 261 004a 0022     		movs	r2, #0
 262 004c 1A84     		strh	r2, [r3, #32]	@ movhi
  64:..\..\..\lvgl\version_6.1.2\lvgl\src\lv_themes/lv_theme_material.c ****     scr.body.padding.left   = 0;
 263              		.loc 2 64 0
 264 004e 494B     		ldr	r3, .L8+20
 265 0050 0022     		movs	r2, #0
 266 0052 9A84     		strh	r2, [r3, #36]	@ movhi
  65:..\..\..\lvgl\version_6.1.2\lvgl\src\lv_themes/lv_theme_material.c ****     scr.body.padding.right  = 0;
 267              		.loc 2 65 0
 268 0054 474B     		ldr	r3, .L8+20
 269 0056 0022     		movs	r2, #0
 270 0058 DA84     		strh	r2, [r3, #38]	@ movhi
  66:..\..\..\lvgl\version_6.1.2\lvgl\src\lv_themes/lv_theme_material.c **** 
  67:..\..\..\lvgl\version_6.1.2\lvgl\src\lv_themes/lv_theme_material.c ****     lv_style_copy(&panel, &def);
 271              		.loc 2 67 0
 272 005a 4249     		ldr	r1, .L8+4
 273 005c 4648     		ldr	r0, .L8+24
 274 005e FFF7FEFF 		bl	lv_style_copy
  68:..\..\..\lvgl\version_6.1.2\lvgl\src\lv_themes/lv_theme_material.c ****     panel.body.radius         = DEF_RADIUS;
 275              		.loc 2 68 0
 276 0062 454B     		ldr	r3, .L8+24
 277 0064 0422     		movs	r2, #4
 278 0066 9A81     		strh	r2, [r3, #12]	@ movhi
  69:..\..\..\lvgl\version_6.1.2\lvgl\src\lv_themes/lv_theme_material.c ****     panel.body.main_color     = LV_COLOR_WHITE;
 279              		.loc 2 69 0
 280 0068 434B     		ldr	r3, .L8+24
 281 006a FF22     		movs	r2, #255
 282 006c 1A71     		strb	r2, [r3, #4]
 283 006e 424B     		ldr	r3, .L8+24
ARM GAS  C:\Users\tmj32\AppData\Local\Temp\cc8DwYg3.s 			page 16


 284 0070 FF22     		movs	r2, #255
 285 0072 5A71     		strb	r2, [r3, #5]
 286 0074 404B     		ldr	r3, .L8+24
 287 0076 FF22     		movs	r2, #255
 288 0078 9A71     		strb	r2, [r3, #6]
 289 007a 3F4B     		ldr	r3, .L8+24
 290 007c FF22     		movs	r2, #255
 291 007e DA71     		strb	r2, [r3, #7]
  70:..\..\..\lvgl\version_6.1.2\lvgl\src\lv_themes/lv_theme_material.c ****     panel.body.grad_color     = LV_COLOR_WHITE;
 292              		.loc 2 70 0
 293 0080 3D4B     		ldr	r3, .L8+24
 294 0082 FF22     		movs	r2, #255
 295 0084 1A72     		strb	r2, [r3, #8]
 296 0086 3C4B     		ldr	r3, .L8+24
 297 0088 FF22     		movs	r2, #255
 298 008a 5A72     		strb	r2, [r3, #9]
 299 008c 3A4B     		ldr	r3, .L8+24
 300 008e FF22     		movs	r2, #255
 301 0090 9A72     		strb	r2, [r3, #10]
 302 0092 394B     		ldr	r3, .L8+24
 303 0094 FF22     		movs	r2, #255
 304 0096 DA72     		strb	r2, [r3, #11]
  71:..\..\..\lvgl\version_6.1.2\lvgl\src\lv_themes/lv_theme_material.c ****     panel.body.border.width   = 1;
 305              		.loc 2 71 0
 306 0098 374B     		ldr	r3, .L8+24
 307 009a 0122     		movs	r2, #1
 308 009c 9A82     		strh	r2, [r3, #20]	@ movhi
  72:..\..\..\lvgl\version_6.1.2\lvgl\src\lv_themes/lv_theme_material.c ****     panel.body.border.color   = lv_color_hex3(0xbbb);
 309              		.loc 2 72 0
 310 009e 364C     		ldr	r4, .L8+24
 311 00a0 40F6BB30 		movw	r0, #3003
 312 00a4 FFF7FEFF 		bl	lv_color_hex3
 313 00a8 2061     		str	r0, [r4, #16]
  73:..\..\..\lvgl\version_6.1.2\lvgl\src\lv_themes/lv_theme_material.c ****     panel.body.border.opa     = LV_OPA_COVER;
 314              		.loc 2 73 0
 315 00aa 334B     		ldr	r3, .L8+24
 316 00ac FF22     		movs	r2, #255
 317 00ae DA75     		strb	r2, [r3, #23]
  74:..\..\..\lvgl\version_6.1.2\lvgl\src\lv_themes/lv_theme_material.c ****     panel.body.shadow.color   = DEF_SHADOW_COLOR;
 318              		.loc 2 74 0
 319 00b0 314C     		ldr	r4, .L8+24
 320 00b2 40F6AA20 		movw	r0, #2730
 321 00b6 FFF7FEFF 		bl	lv_color_hex3
 322 00ba A061     		str	r0, [r4, #24]
  75:..\..\..\lvgl\version_6.1.2\lvgl\src\lv_themes/lv_theme_material.c ****     panel.body.shadow.type    = LV_SHADOW_BOTTOM;
 323              		.loc 2 75 0
 324 00bc 2E4B     		ldr	r3, .L8+24
 325 00be 0022     		movs	r2, #0
 326 00c0 9A77     		strb	r2, [r3, #30]
  76:..\..\..\lvgl\version_6.1.2\lvgl\src\lv_themes/lv_theme_material.c ****     panel.body.shadow.width   = 4;
 327              		.loc 2 76 0
 328 00c2 2D4B     		ldr	r3, .L8+24
 329 00c4 0422     		movs	r2, #4
 330 00c6 9A83     		strh	r2, [r3, #28]	@ movhi
  77:..\..\..\lvgl\version_6.1.2\lvgl\src\lv_themes/lv_theme_material.c ****     panel.body.padding.left   = LV_DPI / 8;
 331              		.loc 2 77 0
 332 00c8 2B4B     		ldr	r3, .L8+24
ARM GAS  C:\Users\tmj32\AppData\Local\Temp\cc8DwYg3.s 			page 17


 333 00ca 1222     		movs	r2, #18
 334 00cc 9A84     		strh	r2, [r3, #36]	@ movhi
  78:..\..\..\lvgl\version_6.1.2\lvgl\src\lv_themes/lv_theme_material.c ****     panel.body.padding.right  = LV_DPI / 8;
 335              		.loc 2 78 0
 336 00ce 2A4B     		ldr	r3, .L8+24
 337 00d0 1222     		movs	r2, #18
 338 00d2 DA84     		strh	r2, [r3, #38]	@ movhi
  79:..\..\..\lvgl\version_6.1.2\lvgl\src\lv_themes/lv_theme_material.c ****     panel.body.padding.top    = LV_DPI / 8;
 339              		.loc 2 79 0
 340 00d4 284B     		ldr	r3, .L8+24
 341 00d6 1222     		movs	r2, #18
 342 00d8 1A84     		strh	r2, [r3, #32]	@ movhi
  80:..\..\..\lvgl\version_6.1.2\lvgl\src\lv_themes/lv_theme_material.c ****     panel.body.padding.bottom = LV_DPI / 8;
 343              		.loc 2 80 0
 344 00da 274B     		ldr	r3, .L8+24
 345 00dc 1222     		movs	r2, #18
 346 00de 5A84     		strh	r2, [r3, #34]	@ movhi
  81:..\..\..\lvgl\version_6.1.2\lvgl\src\lv_themes/lv_theme_material.c ****     panel.body.padding.inner  = LV_DPI / 12;
 347              		.loc 2 81 0
 348 00e0 254B     		ldr	r3, .L8+24
 349 00e2 0C22     		movs	r2, #12
 350 00e4 1A85     		strh	r2, [r3, #40]	@ movhi
  82:..\..\..\lvgl\version_6.1.2\lvgl\src\lv_themes/lv_theme_material.c ****     panel.text.color          = lv_color_hex3(0x333);
 351              		.loc 2 82 0
 352 00e6 244C     		ldr	r4, .L8+24
 353 00e8 40F23330 		movw	r0, #819
 354 00ec FFF7FEFF 		bl	lv_color_hex3
 355 00f0 E062     		str	r0, [r4, #44]
  83:..\..\..\lvgl\version_6.1.2\lvgl\src\lv_themes/lv_theme_material.c ****     panel.image.color         = lv_color_hex3(0x333);
 356              		.loc 2 83 0
 357 00f2 214C     		ldr	r4, .L8+24
 358 00f4 40F23330 		movw	r0, #819
 359 00f8 FFF7FEFF 		bl	lv_color_hex3
 360 00fc 2064     		str	r0, [r4, #64]
  84:..\..\..\lvgl\version_6.1.2\lvgl\src\lv_themes/lv_theme_material.c **** 
  85:..\..\..\lvgl\version_6.1.2\lvgl\src\lv_themes/lv_theme_material.c ****     lv_style_copy(&sb, &def);
 361              		.loc 2 85 0
 362 00fe 1949     		ldr	r1, .L8+4
 363 0100 1E48     		ldr	r0, .L8+28
 364 0102 FFF7FEFF 		bl	lv_style_copy
  86:..\..\..\lvgl\version_6.1.2\lvgl\src\lv_themes/lv_theme_material.c ****     sb.body.main_color     = LV_COLOR_BLACK;
 365              		.loc 2 86 0
 366 0106 1D4B     		ldr	r3, .L8+28
 367 0108 0022     		movs	r2, #0
 368 010a 1A71     		strb	r2, [r3, #4]
 369 010c 1B4B     		ldr	r3, .L8+28
 370 010e 0022     		movs	r2, #0
 371 0110 5A71     		strb	r2, [r3, #5]
 372 0112 1A4B     		ldr	r3, .L8+28
 373 0114 0022     		movs	r2, #0
 374 0116 9A71     		strb	r2, [r3, #6]
 375 0118 184B     		ldr	r3, .L8+28
 376 011a FF22     		movs	r2, #255
 377 011c DA71     		strb	r2, [r3, #7]
  87:..\..\..\lvgl\version_6.1.2\lvgl\src\lv_themes/lv_theme_material.c ****     sb.body.grad_color     = LV_COLOR_BLACK;
 378              		.loc 2 87 0
 379 011e 174B     		ldr	r3, .L8+28
ARM GAS  C:\Users\tmj32\AppData\Local\Temp\cc8DwYg3.s 			page 18


 380 0120 0022     		movs	r2, #0
 381 0122 1A72     		strb	r2, [r3, #8]
 382 0124 154B     		ldr	r3, .L8+28
 383 0126 0022     		movs	r2, #0
 384 0128 5A72     		strb	r2, [r3, #9]
 385 012a 144B     		ldr	r3, .L8+28
 386 012c 0022     		movs	r2, #0
 387 012e 9A72     		strb	r2, [r3, #10]
 388 0130 124B     		ldr	r3, .L8+28
 389 0132 FF22     		movs	r2, #255
 390 0134 DA72     		strb	r2, [r3, #11]
  88:..\..\..\lvgl\version_6.1.2\lvgl\src\lv_themes/lv_theme_material.c ****     sb.body.opa            = LV_OPA_40;
 391              		.loc 2 88 0
 392 0136 114B     		ldr	r3, .L8+28
 393 0138 6622     		movs	r2, #102
 394 013a 9A73     		strb	r2, [r3, #14]
  89:..\..\..\lvgl\version_6.1.2\lvgl\src\lv_themes/lv_theme_material.c ****     sb.body.padding.right  = LV_DPI / 25;
 395              		.loc 2 89 0
 396 013c 0F4B     		ldr	r3, .L8+28
 397 013e 0622     		movs	r2, #6
 398 0140 DA84     		strh	r2, [r3, #38]	@ movhi
  90:..\..\..\lvgl\version_6.1.2\lvgl\src\lv_themes/lv_theme_material.c ****     sb.body.padding.bottom = LV_DPI / 25;
 399              		.loc 2 90 0
 400 0142 0E4B     		ldr	r3, .L8+28
 401 0144 0622     		movs	r2, #6
 402 0146 5A84     		strh	r2, [r3, #34]	@ movhi
  91:..\..\..\lvgl\version_6.1.2\lvgl\src\lv_themes/lv_theme_material.c **** 
  92:..\..\..\lvgl\version_6.1.2\lvgl\src\lv_themes/lv_theme_material.c ****     theme.style.bg    = &bg;
 403              		.loc 2 92 0
 404 0148 0D4B     		ldr	r3, .L8+32
 405 014a 084A     		ldr	r2, .L8+12
 406 014c 5A60     		str	r2, [r3, #4]
  93:..\..\..\lvgl\version_6.1.2\lvgl\src\lv_themes/lv_theme_material.c ****     theme.style.scr   = &scr;
 407              		.loc 2 93 0
 408 014e 0C4B     		ldr	r3, .L8+32
 409 0150 084A     		ldr	r2, .L8+20
 410 0152 1A60     		str	r2, [r3]
  94:..\..\..\lvgl\version_6.1.2\lvgl\src\lv_themes/lv_theme_material.c ****     theme.style.panel = &panel;
 411              		.loc 2 94 0
 412 0154 0A4B     		ldr	r3, .L8+32
 413 0156 084A     		ldr	r2, .L8+24
 414 0158 9A60     		str	r2, [r3, #8]
  95:..\..\..\lvgl\version_6.1.2\lvgl\src\lv_themes/lv_theme_material.c **** }
 415              		.loc 2 95 0
 416 015a 00BF     		nop
 417 015c 98BD     		pop	{r3, r4, r7, pc}
 418              	.L9:
 419 015e 00BF     		.align	2
 420              	.L8:
 421 0160 00000000 		.word	lv_style_plain
 422 0164 A8010000 		.word	def
 423 0168 4C020000 		.word	_font
 424 016c 50020000 		.word	bg.5947
 425 0170 F0F0F000 		.word	15790320
 426 0174 A0020000 		.word	scr.5949
 427 0178 F0020000 		.word	panel.5948
 428 017c F8010000 		.word	sb
ARM GAS  C:\Users\tmj32\AppData\Local\Temp\cc8DwYg3.s 			page 19


 429 0180 00000000 		.word	theme
 430              		.cfi_endproc
 431              	.LFE31:
 432              		.size	basic_init, .-basic_init
 433              		.section	.text.cont_init,"ax",%progbits
 434              		.align	2
 435              		.thumb
 436              		.thumb_func
 437              		.type	cont_init, %function
 438              	cont_init:
 439              	.LFB32:
  96:..\..\..\lvgl\version_6.1.2\lvgl\src\lv_themes/lv_theme_material.c **** 
  97:..\..\..\lvgl\version_6.1.2\lvgl\src\lv_themes/lv_theme_material.c **** static void cont_init(void)
  98:..\..\..\lvgl\version_6.1.2\lvgl\src\lv_themes/lv_theme_material.c **** {
 440              		.loc 2 98 0
 441              		.cfi_startproc
 442              		@ args = 0, pretend = 0, frame = 0
 443              		@ frame_needed = 1, uses_anonymous_args = 0
 444              		@ link register save eliminated.
 445 0000 80B4     		push	{r7}
 446              		.cfi_def_cfa_offset 4
 447              		.cfi_offset 7, -4
 448 0002 00AF     		add	r7, sp, #0
 449              		.cfi_def_cfa_register 7
  99:..\..\..\lvgl\version_6.1.2\lvgl\src\lv_themes/lv_theme_material.c **** #if LV_USE_CONT != 0
 100:..\..\..\lvgl\version_6.1.2\lvgl\src\lv_themes/lv_theme_material.c **** 
 101:..\..\..\lvgl\version_6.1.2\lvgl\src\lv_themes/lv_theme_material.c ****     theme.style.cont = theme.style.panel;
 450              		.loc 2 101 0
 451 0004 044B     		ldr	r3, .L11
 452 0006 9B68     		ldr	r3, [r3, #8]
 453 0008 034A     		ldr	r2, .L11
 454 000a D360     		str	r3, [r2, #12]
 102:..\..\..\lvgl\version_6.1.2\lvgl\src\lv_themes/lv_theme_material.c **** #endif
 103:..\..\..\lvgl\version_6.1.2\lvgl\src\lv_themes/lv_theme_material.c **** }
 455              		.loc 2 103 0
 456 000c 00BF     		nop
 457 000e BD46     		mov	sp, r7
 458              		.cfi_def_cfa_register 13
 459              		@ sp needed
 460 0010 5DF8047B 		ldr	r7, [sp], #4
 461              		.cfi_restore 7
 462              		.cfi_def_cfa_offset 0
 463 0014 7047     		bx	lr
 464              	.L12:
 465 0016 00BF     		.align	2
 466              	.L11:
 467 0018 00000000 		.word	theme
 468              		.cfi_endproc
 469              	.LFE32:
 470              		.size	cont_init, .-cont_init
 471              		.section	.text.btn_init,"ax",%progbits
 472              		.align	2
 473              		.thumb
 474              		.thumb_func
 475              		.type	btn_init, %function
 476              	btn_init:
 477              	.LFB33:
ARM GAS  C:\Users\tmj32\AppData\Local\Temp\cc8DwYg3.s 			page 20


 104:..\..\..\lvgl\version_6.1.2\lvgl\src\lv_themes/lv_theme_material.c **** 
 105:..\..\..\lvgl\version_6.1.2\lvgl\src\lv_themes/lv_theme_material.c **** static void btn_init(void)
 106:..\..\..\lvgl\version_6.1.2\lvgl\src\lv_themes/lv_theme_material.c **** {
 478              		.loc 2 106 0
 479              		.cfi_startproc
 480              		@ args = 0, pretend = 0, frame = 0
 481              		@ frame_needed = 1, uses_anonymous_args = 0
 482 0000 98B5     		push	{r3, r4, r7, lr}
 483              		.cfi_def_cfa_offset 16
 484              		.cfi_offset 3, -16
 485              		.cfi_offset 4, -12
 486              		.cfi_offset 7, -8
 487              		.cfi_offset 14, -4
 488 0002 00AF     		add	r7, sp, #0
 489              		.cfi_def_cfa_register 7
 107:..\..\..\lvgl\version_6.1.2\lvgl\src\lv_themes/lv_theme_material.c **** #if LV_USE_BTN != 0
 108:..\..\..\lvgl\version_6.1.2\lvgl\src\lv_themes/lv_theme_material.c ****     static lv_style_t rel, pr, tgl_rel, tgl_pr, ina;
 109:..\..\..\lvgl\version_6.1.2\lvgl\src\lv_themes/lv_theme_material.c **** 
 110:..\..\..\lvgl\version_6.1.2\lvgl\src\lv_themes/lv_theme_material.c ****     lv_style_copy(&rel, &def);
 490              		.loc 2 110 0
 491 0004 5849     		ldr	r1, .L14
 492 0006 5948     		ldr	r0, .L14+4
 493 0008 FFF7FEFF 		bl	lv_style_copy
 111:..\..\..\lvgl\version_6.1.2\lvgl\src\lv_themes/lv_theme_material.c ****     rel.body.main_color     = lv_color_hsv_to_rgb(_hue, 90, 70);
 494              		.loc 2 111 0
 495 000c 584B     		ldr	r3, .L14+8
 496 000e 1B88     		ldrh	r3, [r3]
 497 0010 564C     		ldr	r4, .L14+4
 498 0012 4622     		movs	r2, #70
 499 0014 5A21     		movs	r1, #90
 500 0016 1846     		mov	r0, r3
 501 0018 FFF7FEFF 		bl	lv_color_hsv_to_rgb
 502 001c 6060     		str	r0, [r4, #4]
 112:..\..\..\lvgl\version_6.1.2\lvgl\src\lv_themes/lv_theme_material.c ****     rel.body.grad_color     = rel.body.main_color;
 503              		.loc 2 112 0
 504 001e 534A     		ldr	r2, .L14+4
 505 0020 524B     		ldr	r3, .L14+4
 506 0022 5B68     		ldr	r3, [r3, #4]
 507 0024 9360     		str	r3, [r2, #8]
 113:..\..\..\lvgl\version_6.1.2\lvgl\src\lv_themes/lv_theme_material.c ****     rel.body.radius         = DEF_RADIUS;
 508              		.loc 2 113 0
 509 0026 514B     		ldr	r3, .L14+4
 510 0028 0422     		movs	r2, #4
 511 002a 9A81     		strh	r2, [r3, #12]	@ movhi
 114:..\..\..\lvgl\version_6.1.2\lvgl\src\lv_themes/lv_theme_material.c ****     rel.body.padding.left   = LV_DPI / 6;
 512              		.loc 2 114 0
 513 002c 4F4B     		ldr	r3, .L14+4
 514 002e 1922     		movs	r2, #25
 515 0030 9A84     		strh	r2, [r3, #36]	@ movhi
 115:..\..\..\lvgl\version_6.1.2\lvgl\src\lv_themes/lv_theme_material.c ****     rel.body.padding.right  = LV_DPI / 6;
 516              		.loc 2 115 0
 517 0032 4E4B     		ldr	r3, .L14+4
 518 0034 1922     		movs	r2, #25
 519 0036 DA84     		strh	r2, [r3, #38]	@ movhi
 116:..\..\..\lvgl\version_6.1.2\lvgl\src\lv_themes/lv_theme_material.c ****     rel.body.padding.top    = LV_DPI / 8;
 520              		.loc 2 116 0
 521 0038 4C4B     		ldr	r3, .L14+4
ARM GAS  C:\Users\tmj32\AppData\Local\Temp\cc8DwYg3.s 			page 21


 522 003a 1222     		movs	r2, #18
 523 003c 1A84     		strh	r2, [r3, #32]	@ movhi
 117:..\..\..\lvgl\version_6.1.2\lvgl\src\lv_themes/lv_theme_material.c ****     rel.body.padding.bottom = LV_DPI / 8;
 524              		.loc 2 117 0
 525 003e 4B4B     		ldr	r3, .L14+4
 526 0040 1222     		movs	r2, #18
 527 0042 5A84     		strh	r2, [r3, #34]	@ movhi
 118:..\..\..\lvgl\version_6.1.2\lvgl\src\lv_themes/lv_theme_material.c ****     rel.body.padding.inner  = LV_DPI / 10;
 528              		.loc 2 118 0
 529 0044 494B     		ldr	r3, .L14+4
 530 0046 0F22     		movs	r2, #15
 531 0048 1A85     		strh	r2, [r3, #40]	@ movhi
 119:..\..\..\lvgl\version_6.1.2\lvgl\src\lv_themes/lv_theme_material.c ****     rel.body.shadow.color   = DEF_SHADOW_COLOR;
 532              		.loc 2 119 0
 533 004a 484C     		ldr	r4, .L14+4
 534 004c 40F6AA20 		movw	r0, #2730
 535 0050 FFF7FEFF 		bl	lv_color_hex3
 536 0054 A061     		str	r0, [r4, #24]
 120:..\..\..\lvgl\version_6.1.2\lvgl\src\lv_themes/lv_theme_material.c ****     rel.body.shadow.type    = LV_SHADOW_BOTTOM;
 537              		.loc 2 120 0
 538 0056 454B     		ldr	r3, .L14+4
 539 0058 0022     		movs	r2, #0
 540 005a 9A77     		strb	r2, [r3, #30]
 121:..\..\..\lvgl\version_6.1.2\lvgl\src\lv_themes/lv_theme_material.c ****     rel.body.shadow.width   = 6;
 541              		.loc 2 121 0
 542 005c 434B     		ldr	r3, .L14+4
 543 005e 0622     		movs	r2, #6
 544 0060 9A83     		strh	r2, [r3, #28]	@ movhi
 122:..\..\..\lvgl\version_6.1.2\lvgl\src\lv_themes/lv_theme_material.c ****     rel.text.color          = lv_color_hsv_to_rgb(_hue, 5, 95);
 545              		.loc 2 122 0
 546 0062 434B     		ldr	r3, .L14+8
 547 0064 1B88     		ldrh	r3, [r3]
 548 0066 414C     		ldr	r4, .L14+4
 549 0068 5F22     		movs	r2, #95
 550 006a 0521     		movs	r1, #5
 551 006c 1846     		mov	r0, r3
 552 006e FFF7FEFF 		bl	lv_color_hsv_to_rgb
 553 0072 E062     		str	r0, [r4, #44]
 123:..\..\..\lvgl\version_6.1.2\lvgl\src\lv_themes/lv_theme_material.c ****     rel.image.color         = lv_color_hsv_to_rgb(_hue, 5, 95);
 554              		.loc 2 123 0
 555 0074 3E4B     		ldr	r3, .L14+8
 556 0076 1B88     		ldrh	r3, [r3]
 557 0078 3C4C     		ldr	r4, .L14+4
 558 007a 5F22     		movs	r2, #95
 559 007c 0521     		movs	r1, #5
 560 007e 1846     		mov	r0, r3
 561 0080 FFF7FEFF 		bl	lv_color_hsv_to_rgb
 562 0084 2064     		str	r0, [r4, #64]
 124:..\..\..\lvgl\version_6.1.2\lvgl\src\lv_themes/lv_theme_material.c **** 
 125:..\..\..\lvgl\version_6.1.2\lvgl\src\lv_themes/lv_theme_material.c ****     lv_style_copy(&pr, &rel);
 563              		.loc 2 125 0
 564 0086 3949     		ldr	r1, .L14+4
 565 0088 3A48     		ldr	r0, .L14+12
 566 008a FFF7FEFF 		bl	lv_style_copy
 126:..\..\..\lvgl\version_6.1.2\lvgl\src\lv_themes/lv_theme_material.c ****     pr.body.main_color   = lv_color_hsv_to_rgb(_hue, 90, 60);
 567              		.loc 2 126 0
 568 008e 384B     		ldr	r3, .L14+8
ARM GAS  C:\Users\tmj32\AppData\Local\Temp\cc8DwYg3.s 			page 22


 569 0090 1B88     		ldrh	r3, [r3]
 570 0092 384C     		ldr	r4, .L14+12
 571 0094 3C22     		movs	r2, #60
 572 0096 5A21     		movs	r1, #90
 573 0098 1846     		mov	r0, r3
 574 009a FFF7FEFF 		bl	lv_color_hsv_to_rgb
 575 009e 6060     		str	r0, [r4, #4]
 127:..\..\..\lvgl\version_6.1.2\lvgl\src\lv_themes/lv_theme_material.c ****     pr.body.grad_color   = pr.body.main_color;
 576              		.loc 2 127 0
 577 00a0 344A     		ldr	r2, .L14+12
 578 00a2 344B     		ldr	r3, .L14+12
 579 00a4 5B68     		ldr	r3, [r3, #4]
 580 00a6 9360     		str	r3, [r2, #8]
 128:..\..\..\lvgl\version_6.1.2\lvgl\src\lv_themes/lv_theme_material.c ****     pr.body.shadow.width = 4;
 581              		.loc 2 128 0
 582 00a8 324B     		ldr	r3, .L14+12
 583 00aa 0422     		movs	r2, #4
 584 00ac 9A83     		strh	r2, [r3, #28]	@ movhi
 129:..\..\..\lvgl\version_6.1.2\lvgl\src\lv_themes/lv_theme_material.c **** 
 130:..\..\..\lvgl\version_6.1.2\lvgl\src\lv_themes/lv_theme_material.c ****     lv_style_copy(&tgl_rel, &rel);
 585              		.loc 2 130 0
 586 00ae 2F49     		ldr	r1, .L14+4
 587 00b0 3148     		ldr	r0, .L14+16
 588 00b2 FFF7FEFF 		bl	lv_style_copy
 131:..\..\..\lvgl\version_6.1.2\lvgl\src\lv_themes/lv_theme_material.c ****     tgl_rel.body.main_color   = lv_color_hsv_to_rgb(_hue, 95, 50);
 589              		.loc 2 131 0
 590 00b6 2E4B     		ldr	r3, .L14+8
 591 00b8 1B88     		ldrh	r3, [r3]
 592 00ba 2F4C     		ldr	r4, .L14+16
 593 00bc 3222     		movs	r2, #50
 594 00be 5F21     		movs	r1, #95
 595 00c0 1846     		mov	r0, r3
 596 00c2 FFF7FEFF 		bl	lv_color_hsv_to_rgb
 597 00c6 6060     		str	r0, [r4, #4]
 132:..\..\..\lvgl\version_6.1.2\lvgl\src\lv_themes/lv_theme_material.c ****     tgl_rel.body.grad_color   = tgl_rel.body.main_color;
 598              		.loc 2 132 0
 599 00c8 2B4A     		ldr	r2, .L14+16
 600 00ca 2B4B     		ldr	r3, .L14+16
 601 00cc 5B68     		ldr	r3, [r3, #4]
 602 00ce 9360     		str	r3, [r2, #8]
 133:..\..\..\lvgl\version_6.1.2\lvgl\src\lv_themes/lv_theme_material.c ****     tgl_rel.body.shadow.width = 4;
 603              		.loc 2 133 0
 604 00d0 294B     		ldr	r3, .L14+16
 605 00d2 0422     		movs	r2, #4
 606 00d4 9A83     		strh	r2, [r3, #28]	@ movhi
 134:..\..\..\lvgl\version_6.1.2\lvgl\src\lv_themes/lv_theme_material.c **** 
 135:..\..\..\lvgl\version_6.1.2\lvgl\src\lv_themes/lv_theme_material.c ****     lv_style_copy(&tgl_pr, &tgl_rel);
 607              		.loc 2 135 0
 608 00d6 2849     		ldr	r1, .L14+16
 609 00d8 2848     		ldr	r0, .L14+20
 610 00da FFF7FEFF 		bl	lv_style_copy
 136:..\..\..\lvgl\version_6.1.2\lvgl\src\lv_themes/lv_theme_material.c ****     tgl_pr.body.main_color   = lv_color_hsv_to_rgb(_hue, 95, 40);
 611              		.loc 2 136 0
 612 00de 244B     		ldr	r3, .L14+8
 613 00e0 1B88     		ldrh	r3, [r3]
 614 00e2 264C     		ldr	r4, .L14+20
 615 00e4 2822     		movs	r2, #40
ARM GAS  C:\Users\tmj32\AppData\Local\Temp\cc8DwYg3.s 			page 23


 616 00e6 5F21     		movs	r1, #95
 617 00e8 1846     		mov	r0, r3
 618 00ea FFF7FEFF 		bl	lv_color_hsv_to_rgb
 619 00ee 6060     		str	r0, [r4, #4]
 137:..\..\..\lvgl\version_6.1.2\lvgl\src\lv_themes/lv_theme_material.c ****     tgl_pr.body.grad_color   = tgl_pr.body.main_color;
 620              		.loc 2 137 0
 621 00f0 224A     		ldr	r2, .L14+20
 622 00f2 224B     		ldr	r3, .L14+20
 623 00f4 5B68     		ldr	r3, [r3, #4]
 624 00f6 9360     		str	r3, [r2, #8]
 138:..\..\..\lvgl\version_6.1.2\lvgl\src\lv_themes/lv_theme_material.c ****     tgl_pr.body.shadow.width = 2;
 625              		.loc 2 138 0
 626 00f8 204B     		ldr	r3, .L14+20
 627 00fa 0222     		movs	r2, #2
 628 00fc 9A83     		strh	r2, [r3, #28]	@ movhi
 139:..\..\..\lvgl\version_6.1.2\lvgl\src\lv_themes/lv_theme_material.c **** 
 140:..\..\..\lvgl\version_6.1.2\lvgl\src\lv_themes/lv_theme_material.c ****     lv_style_copy(&ina, &rel);
 629              		.loc 2 140 0
 630 00fe 1B49     		ldr	r1, .L14+4
 631 0100 1F48     		ldr	r0, .L14+24
 632 0102 FFF7FEFF 		bl	lv_style_copy
 141:..\..\..\lvgl\version_6.1.2\lvgl\src\lv_themes/lv_theme_material.c ****     ina.body.main_color   = lv_color_hex3(0xccc);
 633              		.loc 2 141 0
 634 0106 1E4C     		ldr	r4, .L14+24
 635 0108 40F6CC40 		movw	r0, #3276
 636 010c FFF7FEFF 		bl	lv_color_hex3
 637 0110 6060     		str	r0, [r4, #4]
 142:..\..\..\lvgl\version_6.1.2\lvgl\src\lv_themes/lv_theme_material.c ****     ina.body.grad_color   = ina.body.main_color;
 638              		.loc 2 142 0
 639 0112 1B4A     		ldr	r2, .L14+24
 640 0114 1A4B     		ldr	r3, .L14+24
 641 0116 5B68     		ldr	r3, [r3, #4]
 642 0118 9360     		str	r3, [r2, #8]
 143:..\..\..\lvgl\version_6.1.2\lvgl\src\lv_themes/lv_theme_material.c ****     ina.body.shadow.width = 0;
 643              		.loc 2 143 0
 644 011a 194B     		ldr	r3, .L14+24
 645 011c 0022     		movs	r2, #0
 646 011e 9A83     		strh	r2, [r3, #28]	@ movhi
 144:..\..\..\lvgl\version_6.1.2\lvgl\src\lv_themes/lv_theme_material.c ****     ina.text.color        = lv_color_hsv_to_rgb(_hue, 95, 5);
 647              		.loc 2 144 0
 648 0120 134B     		ldr	r3, .L14+8
 649 0122 1B88     		ldrh	r3, [r3]
 650 0124 164C     		ldr	r4, .L14+24
 651 0126 0522     		movs	r2, #5
 652 0128 5F21     		movs	r1, #95
 653 012a 1846     		mov	r0, r3
 654 012c FFF7FEFF 		bl	lv_color_hsv_to_rgb
 655 0130 E062     		str	r0, [r4, #44]
 145:..\..\..\lvgl\version_6.1.2\lvgl\src\lv_themes/lv_theme_material.c ****     ina.image.color       = lv_color_hsv_to_rgb(_hue, 95, 5);
 656              		.loc 2 145 0
 657 0132 0F4B     		ldr	r3, .L14+8
 658 0134 1B88     		ldrh	r3, [r3]
 659 0136 124C     		ldr	r4, .L14+24
 660 0138 0522     		movs	r2, #5
 661 013a 5F21     		movs	r1, #95
 662 013c 1846     		mov	r0, r3
 663 013e FFF7FEFF 		bl	lv_color_hsv_to_rgb
ARM GAS  C:\Users\tmj32\AppData\Local\Temp\cc8DwYg3.s 			page 24


 664 0142 2064     		str	r0, [r4, #64]
 146:..\..\..\lvgl\version_6.1.2\lvgl\src\lv_themes/lv_theme_material.c **** 
 147:..\..\..\lvgl\version_6.1.2\lvgl\src\lv_themes/lv_theme_material.c ****     theme.style.btn.rel     = &rel;
 665              		.loc 2 147 0
 666 0144 0F4B     		ldr	r3, .L14+28
 667 0146 094A     		ldr	r2, .L14+4
 668 0148 1A61     		str	r2, [r3, #16]
 148:..\..\..\lvgl\version_6.1.2\lvgl\src\lv_themes/lv_theme_material.c ****     theme.style.btn.pr      = &pr;
 669              		.loc 2 148 0
 670 014a 0E4B     		ldr	r3, .L14+28
 671 014c 094A     		ldr	r2, .L14+12
 672 014e 5A61     		str	r2, [r3, #20]
 149:..\..\..\lvgl\version_6.1.2\lvgl\src\lv_themes/lv_theme_material.c ****     theme.style.btn.tgl_rel = &tgl_rel;
 673              		.loc 2 149 0
 674 0150 0C4B     		ldr	r3, .L14+28
 675 0152 094A     		ldr	r2, .L14+16
 676 0154 9A61     		str	r2, [r3, #24]
 150:..\..\..\lvgl\version_6.1.2\lvgl\src\lv_themes/lv_theme_material.c ****     theme.style.btn.tgl_pr  = &tgl_pr;
 677              		.loc 2 150 0
 678 0156 0B4B     		ldr	r3, .L14+28
 679 0158 084A     		ldr	r2, .L14+20
 680 015a DA61     		str	r2, [r3, #28]
 151:..\..\..\lvgl\version_6.1.2\lvgl\src\lv_themes/lv_theme_material.c ****     theme.style.btn.ina     = &ina;
 681              		.loc 2 151 0
 682 015c 094B     		ldr	r3, .L14+28
 683 015e 084A     		ldr	r2, .L14+24
 684 0160 1A62     		str	r2, [r3, #32]
 152:..\..\..\lvgl\version_6.1.2\lvgl\src\lv_themes/lv_theme_material.c **** #endif
 153:..\..\..\lvgl\version_6.1.2\lvgl\src\lv_themes/lv_theme_material.c **** }
 685              		.loc 2 153 0
 686 0162 00BF     		nop
 687 0164 98BD     		pop	{r3, r4, r7, pc}
 688              	.L15:
 689 0166 00BF     		.align	2
 690              	.L14:
 691 0168 A8010000 		.word	def
 692 016c 40030000 		.word	rel.5960
 693 0170 48020000 		.word	_hue
 694 0174 90030000 		.word	pr.5961
 695 0178 E0030000 		.word	tgl_rel.5962
 696 017c 30040000 		.word	tgl_pr.5963
 697 0180 80040000 		.word	ina.5964
 698 0184 00000000 		.word	theme
 699              		.cfi_endproc
 700              	.LFE33:
 701              		.size	btn_init, .-btn_init
 702              		.section	.text.label_init,"ax",%progbits
 703              		.align	2
 704              		.thumb
 705              		.thumb_func
 706              		.type	label_init, %function
 707              	label_init:
 708              	.LFB34:
 154:..\..\..\lvgl\version_6.1.2\lvgl\src\lv_themes/lv_theme_material.c **** 
 155:..\..\..\lvgl\version_6.1.2\lvgl\src\lv_themes/lv_theme_material.c **** static void label_init(void)
 156:..\..\..\lvgl\version_6.1.2\lvgl\src\lv_themes/lv_theme_material.c **** {
 709              		.loc 2 156 0
ARM GAS  C:\Users\tmj32\AppData\Local\Temp\cc8DwYg3.s 			page 25


 710              		.cfi_startproc
 711              		@ args = 0, pretend = 0, frame = 0
 712              		@ frame_needed = 1, uses_anonymous_args = 0
 713 0000 98B5     		push	{r3, r4, r7, lr}
 714              		.cfi_def_cfa_offset 16
 715              		.cfi_offset 3, -16
 716              		.cfi_offset 4, -12
 717              		.cfi_offset 7, -8
 718              		.cfi_offset 14, -4
 719 0002 00AF     		add	r7, sp, #0
 720              		.cfi_def_cfa_register 7
 157:..\..\..\lvgl\version_6.1.2\lvgl\src\lv_themes/lv_theme_material.c **** #if LV_USE_LABEL != 0
 158:..\..\..\lvgl\version_6.1.2\lvgl\src\lv_themes/lv_theme_material.c ****     static lv_style_t prim, sec, hint;
 159:..\..\..\lvgl\version_6.1.2\lvgl\src\lv_themes/lv_theme_material.c **** 
 160:..\..\..\lvgl\version_6.1.2\lvgl\src\lv_themes/lv_theme_material.c ****     lv_style_copy(&prim, &def);
 721              		.loc 2 160 0
 722 0004 1A49     		ldr	r1, .L17
 723 0006 1B48     		ldr	r0, .L17+4
 724 0008 FFF7FEFF 		bl	lv_style_copy
 161:..\..\..\lvgl\version_6.1.2\lvgl\src\lv_themes/lv_theme_material.c ****     prim.text.font  = _font;
 725              		.loc 2 161 0
 726 000c 1A4B     		ldr	r3, .L17+8
 727 000e 1B68     		ldr	r3, [r3]
 728 0010 184A     		ldr	r2, .L17+4
 729 0012 5363     		str	r3, [r2, #52]
 162:..\..\..\lvgl\version_6.1.2\lvgl\src\lv_themes/lv_theme_material.c ****     prim.text.color = lv_color_hsv_to_rgb(_hue, 80, 10);
 730              		.loc 2 162 0
 731 0014 194B     		ldr	r3, .L17+12
 732 0016 1B88     		ldrh	r3, [r3]
 733 0018 164C     		ldr	r4, .L17+4
 734 001a 0A22     		movs	r2, #10
 735 001c 5021     		movs	r1, #80
 736 001e 1846     		mov	r0, r3
 737 0020 FFF7FEFF 		bl	lv_color_hsv_to_rgb
 738 0024 E062     		str	r0, [r4, #44]
 163:..\..\..\lvgl\version_6.1.2\lvgl\src\lv_themes/lv_theme_material.c **** 
 164:..\..\..\lvgl\version_6.1.2\lvgl\src\lv_themes/lv_theme_material.c ****     lv_style_copy(&sec, &prim);
 739              		.loc 2 164 0
 740 0026 1349     		ldr	r1, .L17+4
 741 0028 1548     		ldr	r0, .L17+16
 742 002a FFF7FEFF 		bl	lv_style_copy
 165:..\..\..\lvgl\version_6.1.2\lvgl\src\lv_themes/lv_theme_material.c ****     sec.text.color = lv_color_hsv_to_rgb(_hue, 80, 75);
 743              		.loc 2 165 0
 744 002e 134B     		ldr	r3, .L17+12
 745 0030 1B88     		ldrh	r3, [r3]
 746 0032 134C     		ldr	r4, .L17+16
 747 0034 4B22     		movs	r2, #75
 748 0036 5021     		movs	r1, #80
 749 0038 1846     		mov	r0, r3
 750 003a FFF7FEFF 		bl	lv_color_hsv_to_rgb
 751 003e E062     		str	r0, [r4, #44]
 166:..\..\..\lvgl\version_6.1.2\lvgl\src\lv_themes/lv_theme_material.c **** 
 167:..\..\..\lvgl\version_6.1.2\lvgl\src\lv_themes/lv_theme_material.c ****     lv_style_copy(&hint, &prim);
 752              		.loc 2 167 0
 753 0040 0C49     		ldr	r1, .L17+4
 754 0042 1048     		ldr	r0, .L17+20
 755 0044 FFF7FEFF 		bl	lv_style_copy
ARM GAS  C:\Users\tmj32\AppData\Local\Temp\cc8DwYg3.s 			page 26


 168:..\..\..\lvgl\version_6.1.2\lvgl\src\lv_themes/lv_theme_material.c ****     hint.text.color = lv_color_hsv_to_rgb(_hue, 40, 90);
 756              		.loc 2 168 0
 757 0048 0C4B     		ldr	r3, .L17+12
 758 004a 1B88     		ldrh	r3, [r3]
 759 004c 0D4C     		ldr	r4, .L17+20
 760 004e 5A22     		movs	r2, #90
 761 0050 2821     		movs	r1, #40
 762 0052 1846     		mov	r0, r3
 763 0054 FFF7FEFF 		bl	lv_color_hsv_to_rgb
 764 0058 E062     		str	r0, [r4, #44]
 169:..\..\..\lvgl\version_6.1.2\lvgl\src\lv_themes/lv_theme_material.c **** 
 170:..\..\..\lvgl\version_6.1.2\lvgl\src\lv_themes/lv_theme_material.c ****     theme.style.label.prim = &prim;
 765              		.loc 2 170 0
 766 005a 0B4B     		ldr	r3, .L17+24
 767 005c 054A     		ldr	r2, .L17+4
 768 005e 9A63     		str	r2, [r3, #56]
 171:..\..\..\lvgl\version_6.1.2\lvgl\src\lv_themes/lv_theme_material.c ****     theme.style.label.sec  = &sec;
 769              		.loc 2 171 0
 770 0060 094B     		ldr	r3, .L17+24
 771 0062 074A     		ldr	r2, .L17+16
 772 0064 DA63     		str	r2, [r3, #60]
 172:..\..\..\lvgl\version_6.1.2\lvgl\src\lv_themes/lv_theme_material.c ****     theme.style.label.hint = &hint;
 773              		.loc 2 172 0
 774 0066 084B     		ldr	r3, .L17+24
 775 0068 064A     		ldr	r2, .L17+20
 776 006a 1A64     		str	r2, [r3, #64]
 173:..\..\..\lvgl\version_6.1.2\lvgl\src\lv_themes/lv_theme_material.c **** #endif
 174:..\..\..\lvgl\version_6.1.2\lvgl\src\lv_themes/lv_theme_material.c **** }
 777              		.loc 2 174 0
 778 006c 00BF     		nop
 779 006e 98BD     		pop	{r3, r4, r7, pc}
 780              	.L18:
 781              		.align	2
 782              	.L17:
 783 0070 A8010000 		.word	def
 784 0074 D0040000 		.word	prim.5968
 785 0078 4C020000 		.word	_font
 786 007c 48020000 		.word	_hue
 787 0080 20050000 		.word	sec.5969
 788 0084 70050000 		.word	hint.5970
 789 0088 00000000 		.word	theme
 790              		.cfi_endproc
 791              	.LFE34:
 792              		.size	label_init, .-label_init
 793              		.section	.text.img_init,"ax",%progbits
 794              		.align	2
 795              		.thumb
 796              		.thumb_func
 797              		.type	img_init, %function
 798              	img_init:
 799              	.LFB35:
 175:..\..\..\lvgl\version_6.1.2\lvgl\src\lv_themes/lv_theme_material.c **** 
 176:..\..\..\lvgl\version_6.1.2\lvgl\src\lv_themes/lv_theme_material.c **** static void img_init(void)
 177:..\..\..\lvgl\version_6.1.2\lvgl\src\lv_themes/lv_theme_material.c **** {
 800              		.loc 2 177 0
 801              		.cfi_startproc
 802              		@ args = 0, pretend = 0, frame = 0
ARM GAS  C:\Users\tmj32\AppData\Local\Temp\cc8DwYg3.s 			page 27


 803              		@ frame_needed = 1, uses_anonymous_args = 0
 804 0000 98B5     		push	{r3, r4, r7, lr}
 805              		.cfi_def_cfa_offset 16
 806              		.cfi_offset 3, -16
 807              		.cfi_offset 4, -12
 808              		.cfi_offset 7, -8
 809              		.cfi_offset 14, -4
 810 0002 00AF     		add	r7, sp, #0
 811              		.cfi_def_cfa_register 7
 178:..\..\..\lvgl\version_6.1.2\lvgl\src\lv_themes/lv_theme_material.c **** #if LV_USE_IMG != 0
 179:..\..\..\lvgl\version_6.1.2\lvgl\src\lv_themes/lv_theme_material.c ****     static lv_style_t img_light, img_dark;
 180:..\..\..\lvgl\version_6.1.2\lvgl\src\lv_themes/lv_theme_material.c ****     lv_style_copy(&img_light, &def);
 812              		.loc 2 180 0
 813 0004 1449     		ldr	r1, .L20
 814 0006 1548     		ldr	r0, .L20+4
 815 0008 FFF7FEFF 		bl	lv_style_copy
 181:..\..\..\lvgl\version_6.1.2\lvgl\src\lv_themes/lv_theme_material.c ****     img_light.image.color   = lv_color_hsv_to_rgb(_hue, 15, 85);
 816              		.loc 2 181 0
 817 000c 144B     		ldr	r3, .L20+8
 818 000e 1B88     		ldrh	r3, [r3]
 819 0010 124C     		ldr	r4, .L20+4
 820 0012 5522     		movs	r2, #85
 821 0014 0F21     		movs	r1, #15
 822 0016 1846     		mov	r0, r3
 823 0018 FFF7FEFF 		bl	lv_color_hsv_to_rgb
 824 001c 2064     		str	r0, [r4, #64]
 182:..\..\..\lvgl\version_6.1.2\lvgl\src\lv_themes/lv_theme_material.c ****     img_light.image.intense = LV_OPA_80;
 825              		.loc 2 182 0
 826 001e 0F4B     		ldr	r3, .L20+4
 827 0020 CC22     		movs	r2, #204
 828 0022 83F84420 		strb	r2, [r3, #68]
 183:..\..\..\lvgl\version_6.1.2\lvgl\src\lv_themes/lv_theme_material.c **** 
 184:..\..\..\lvgl\version_6.1.2\lvgl\src\lv_themes/lv_theme_material.c ****     lv_style_copy(&img_dark, &def);
 829              		.loc 2 184 0
 830 0026 0C49     		ldr	r1, .L20
 831 0028 0E48     		ldr	r0, .L20+12
 832 002a FFF7FEFF 		bl	lv_style_copy
 185:..\..\..\lvgl\version_6.1.2\lvgl\src\lv_themes/lv_theme_material.c ****     img_light.image.color   = lv_color_hsv_to_rgb(_hue, 85, 65);
 833              		.loc 2 185 0
 834 002e 0C4B     		ldr	r3, .L20+8
 835 0030 1B88     		ldrh	r3, [r3]
 836 0032 0A4C     		ldr	r4, .L20+4
 837 0034 4122     		movs	r2, #65
 838 0036 5521     		movs	r1, #85
 839 0038 1846     		mov	r0, r3
 840 003a FFF7FEFF 		bl	lv_color_hsv_to_rgb
 841 003e 2064     		str	r0, [r4, #64]
 186:..\..\..\lvgl\version_6.1.2\lvgl\src\lv_themes/lv_theme_material.c ****     img_light.image.intense = LV_OPA_80;
 842              		.loc 2 186 0
 843 0040 064B     		ldr	r3, .L20+4
 844 0042 CC22     		movs	r2, #204
 845 0044 83F84420 		strb	r2, [r3, #68]
 187:..\..\..\lvgl\version_6.1.2\lvgl\src\lv_themes/lv_theme_material.c **** 
 188:..\..\..\lvgl\version_6.1.2\lvgl\src\lv_themes/lv_theme_material.c ****     theme.style.img.light = &def;
 846              		.loc 2 188 0
 847 0048 074B     		ldr	r3, .L20+16
 848 004a 034A     		ldr	r2, .L20
ARM GAS  C:\Users\tmj32\AppData\Local\Temp\cc8DwYg3.s 			page 28


 849 004c 5A64     		str	r2, [r3, #68]
 189:..\..\..\lvgl\version_6.1.2\lvgl\src\lv_themes/lv_theme_material.c ****     theme.style.img.dark  = &def;
 850              		.loc 2 189 0
 851 004e 064B     		ldr	r3, .L20+16
 852 0050 014A     		ldr	r2, .L20
 853 0052 9A64     		str	r2, [r3, #72]
 190:..\..\..\lvgl\version_6.1.2\lvgl\src\lv_themes/lv_theme_material.c **** #endif
 191:..\..\..\lvgl\version_6.1.2\lvgl\src\lv_themes/lv_theme_material.c **** }
 854              		.loc 2 191 0
 855 0054 00BF     		nop
 856 0056 98BD     		pop	{r3, r4, r7, pc}
 857              	.L21:
 858              		.align	2
 859              	.L20:
 860 0058 A8010000 		.word	def
 861 005c C0050000 		.word	img_light.5974
 862 0060 48020000 		.word	_hue
 863 0064 10060000 		.word	img_dark.5975
 864 0068 00000000 		.word	theme
 865              		.cfi_endproc
 866              	.LFE35:
 867              		.size	img_init, .-img_init
 868              		.section	.text.line_init,"ax",%progbits
 869              		.align	2
 870              		.thumb
 871              		.thumb_func
 872              		.type	line_init, %function
 873              	line_init:
 874              	.LFB36:
 192:..\..\..\lvgl\version_6.1.2\lvgl\src\lv_themes/lv_theme_material.c **** 
 193:..\..\..\lvgl\version_6.1.2\lvgl\src\lv_themes/lv_theme_material.c **** static void line_init(void)
 194:..\..\..\lvgl\version_6.1.2\lvgl\src\lv_themes/lv_theme_material.c **** {
 875              		.loc 2 194 0
 876              		.cfi_startproc
 877              		@ args = 0, pretend = 0, frame = 0
 878              		@ frame_needed = 1, uses_anonymous_args = 0
 879              		@ link register save eliminated.
 880 0000 80B4     		push	{r7}
 881              		.cfi_def_cfa_offset 4
 882              		.cfi_offset 7, -4
 883 0002 00AF     		add	r7, sp, #0
 884              		.cfi_def_cfa_register 7
 195:..\..\..\lvgl\version_6.1.2\lvgl\src\lv_themes/lv_theme_material.c **** #if LV_USE_LINE != 0
 196:..\..\..\lvgl\version_6.1.2\lvgl\src\lv_themes/lv_theme_material.c **** 
 197:..\..\..\lvgl\version_6.1.2\lvgl\src\lv_themes/lv_theme_material.c ****     theme.style.line.decor = &def;
 885              		.loc 2 197 0
 886 0004 034B     		ldr	r3, .L23
 887 0006 044A     		ldr	r2, .L23+4
 888 0008 DA64     		str	r2, [r3, #76]
 198:..\..\..\lvgl\version_6.1.2\lvgl\src\lv_themes/lv_theme_material.c **** #endif
 199:..\..\..\lvgl\version_6.1.2\lvgl\src\lv_themes/lv_theme_material.c **** }
 889              		.loc 2 199 0
 890 000a 00BF     		nop
 891 000c BD46     		mov	sp, r7
 892              		.cfi_def_cfa_register 13
 893              		@ sp needed
 894 000e 5DF8047B 		ldr	r7, [sp], #4
ARM GAS  C:\Users\tmj32\AppData\Local\Temp\cc8DwYg3.s 			page 29


 895              		.cfi_restore 7
 896              		.cfi_def_cfa_offset 0
 897 0012 7047     		bx	lr
 898              	.L24:
 899              		.align	2
 900              	.L23:
 901 0014 00000000 		.word	theme
 902 0018 A8010000 		.word	def
 903              		.cfi_endproc
 904              	.LFE36:
 905              		.size	line_init, .-line_init
 906              		.section	.text.led_init,"ax",%progbits
 907              		.align	2
 908              		.thumb
 909              		.thumb_func
 910              		.type	led_init, %function
 911              	led_init:
 912              	.LFB37:
 200:..\..\..\lvgl\version_6.1.2\lvgl\src\lv_themes/lv_theme_material.c **** 
 201:..\..\..\lvgl\version_6.1.2\lvgl\src\lv_themes/lv_theme_material.c **** static void led_init(void)
 202:..\..\..\lvgl\version_6.1.2\lvgl\src\lv_themes/lv_theme_material.c **** {
 913              		.loc 2 202 0
 914              		.cfi_startproc
 915              		@ args = 0, pretend = 0, frame = 0
 916              		@ frame_needed = 1, uses_anonymous_args = 0
 917 0000 98B5     		push	{r3, r4, r7, lr}
 918              		.cfi_def_cfa_offset 16
 919              		.cfi_offset 3, -16
 920              		.cfi_offset 4, -12
 921              		.cfi_offset 7, -8
 922              		.cfi_offset 14, -4
 923 0002 00AF     		add	r7, sp, #0
 924              		.cfi_def_cfa_register 7
 203:..\..\..\lvgl\version_6.1.2\lvgl\src\lv_themes/lv_theme_material.c **** #if LV_USE_LED != 0
 204:..\..\..\lvgl\version_6.1.2\lvgl\src\lv_themes/lv_theme_material.c ****     static lv_style_t led;
 205:..\..\..\lvgl\version_6.1.2\lvgl\src\lv_themes/lv_theme_material.c ****     lv_style_copy(&led, &def);
 925              		.loc 2 205 0
 926 0004 1C49     		ldr	r1, .L26
 927 0006 1D48     		ldr	r0, .L26+4
 928 0008 FFF7FEFF 		bl	lv_style_copy
 206:..\..\..\lvgl\version_6.1.2\lvgl\src\lv_themes/lv_theme_material.c ****     led.body.shadow.width = LV_DPI / 10;
 929              		.loc 2 206 0
 930 000c 1B4B     		ldr	r3, .L26+4
 931 000e 0F22     		movs	r2, #15
 932 0010 9A83     		strh	r2, [r3, #28]	@ movhi
 207:..\..\..\lvgl\version_6.1.2\lvgl\src\lv_themes/lv_theme_material.c ****     led.body.radius       = LV_RADIUS_CIRCLE;
 933              		.loc 2 207 0
 934 0012 1A4B     		ldr	r3, .L26+4
 935 0014 47F61842 		movw	r2, #31768
 936 0018 9A81     		strh	r2, [r3, #12]	@ movhi
 208:..\..\..\lvgl\version_6.1.2\lvgl\src\lv_themes/lv_theme_material.c ****     led.body.border.width = LV_DPI / 30;
 937              		.loc 2 208 0
 938 001a 184B     		ldr	r3, .L26+4
 939 001c 0522     		movs	r2, #5
 940 001e 9A82     		strh	r2, [r3, #20]	@ movhi
 209:..\..\..\lvgl\version_6.1.2\lvgl\src\lv_themes/lv_theme_material.c ****     led.body.border.opa   = LV_OPA_30;
 941              		.loc 2 209 0
ARM GAS  C:\Users\tmj32\AppData\Local\Temp\cc8DwYg3.s 			page 30


 942 0020 164B     		ldr	r3, .L26+4
 943 0022 4C22     		movs	r2, #76
 944 0024 DA75     		strb	r2, [r3, #23]
 210:..\..\..\lvgl\version_6.1.2\lvgl\src\lv_themes/lv_theme_material.c ****     led.body.main_color   = lv_color_hsv_to_rgb(_hue, 100, 100);
 945              		.loc 2 210 0
 946 0026 164B     		ldr	r3, .L26+8
 947 0028 1B88     		ldrh	r3, [r3]
 948 002a 144C     		ldr	r4, .L26+4
 949 002c 6422     		movs	r2, #100
 950 002e 6421     		movs	r1, #100
 951 0030 1846     		mov	r0, r3
 952 0032 FFF7FEFF 		bl	lv_color_hsv_to_rgb
 953 0036 6060     		str	r0, [r4, #4]
 211:..\..\..\lvgl\version_6.1.2\lvgl\src\lv_themes/lv_theme_material.c ****     led.body.grad_color   = lv_color_hsv_to_rgb(_hue, 100, 100);
 954              		.loc 2 211 0
 955 0038 114B     		ldr	r3, .L26+8
 956 003a 1B88     		ldrh	r3, [r3]
 957 003c 0F4C     		ldr	r4, .L26+4
 958 003e 6422     		movs	r2, #100
 959 0040 6421     		movs	r1, #100
 960 0042 1846     		mov	r0, r3
 961 0044 FFF7FEFF 		bl	lv_color_hsv_to_rgb
 962 0048 A060     		str	r0, [r4, #8]
 212:..\..\..\lvgl\version_6.1.2\lvgl\src\lv_themes/lv_theme_material.c ****     led.body.border.color = lv_color_hsv_to_rgb(_hue, 60, 60);
 963              		.loc 2 212 0
 964 004a 0D4B     		ldr	r3, .L26+8
 965 004c 1B88     		ldrh	r3, [r3]
 966 004e 0B4C     		ldr	r4, .L26+4
 967 0050 3C22     		movs	r2, #60
 968 0052 3C21     		movs	r1, #60
 969 0054 1846     		mov	r0, r3
 970 0056 FFF7FEFF 		bl	lv_color_hsv_to_rgb
 971 005a 2061     		str	r0, [r4, #16]
 213:..\..\..\lvgl\version_6.1.2\lvgl\src\lv_themes/lv_theme_material.c ****     led.body.shadow.color = lv_color_hsv_to_rgb(_hue, 100, 100);
 972              		.loc 2 213 0
 973 005c 084B     		ldr	r3, .L26+8
 974 005e 1B88     		ldrh	r3, [r3]
 975 0060 064C     		ldr	r4, .L26+4
 976 0062 6422     		movs	r2, #100
 977 0064 6421     		movs	r1, #100
 978 0066 1846     		mov	r0, r3
 979 0068 FFF7FEFF 		bl	lv_color_hsv_to_rgb
 980 006c A061     		str	r0, [r4, #24]
 214:..\..\..\lvgl\version_6.1.2\lvgl\src\lv_themes/lv_theme_material.c **** 
 215:..\..\..\lvgl\version_6.1.2\lvgl\src\lv_themes/lv_theme_material.c ****     theme.style.led = &led;
 981              		.loc 2 215 0
 982 006e 054B     		ldr	r3, .L26+12
 983 0070 024A     		ldr	r2, .L26+4
 984 0072 1A65     		str	r2, [r3, #80]
 216:..\..\..\lvgl\version_6.1.2\lvgl\src\lv_themes/lv_theme_material.c **** #endif
 217:..\..\..\lvgl\version_6.1.2\lvgl\src\lv_themes/lv_theme_material.c **** }
 985              		.loc 2 217 0
 986 0074 00BF     		nop
 987 0076 98BD     		pop	{r3, r4, r7, pc}
 988              	.L27:
 989              		.align	2
 990              	.L26:
ARM GAS  C:\Users\tmj32\AppData\Local\Temp\cc8DwYg3.s 			page 31


 991 0078 A8010000 		.word	def
 992 007c 60060000 		.word	led.5982
 993 0080 48020000 		.word	_hue
 994 0084 00000000 		.word	theme
 995              		.cfi_endproc
 996              	.LFE37:
 997              		.size	led_init, .-led_init
 998              		.section	.text.bar_init,"ax",%progbits
 999              		.align	2
 1000              		.thumb
 1001              		.thumb_func
 1002              		.type	bar_init, %function
 1003              	bar_init:
 1004              	.LFB38:
 218:..\..\..\lvgl\version_6.1.2\lvgl\src\lv_themes/lv_theme_material.c **** 
 219:..\..\..\lvgl\version_6.1.2\lvgl\src\lv_themes/lv_theme_material.c **** static void bar_init(void)
 220:..\..\..\lvgl\version_6.1.2\lvgl\src\lv_themes/lv_theme_material.c **** {
 1005              		.loc 2 220 0
 1006              		.cfi_startproc
 1007              		@ args = 0, pretend = 0, frame = 0
 1008              		@ frame_needed = 1, uses_anonymous_args = 0
 1009 0000 98B5     		push	{r3, r4, r7, lr}
 1010              		.cfi_def_cfa_offset 16
 1011              		.cfi_offset 3, -16
 1012              		.cfi_offset 4, -12
 1013              		.cfi_offset 7, -8
 1014              		.cfi_offset 14, -4
 1015 0002 00AF     		add	r7, sp, #0
 1016              		.cfi_def_cfa_register 7
 221:..\..\..\lvgl\version_6.1.2\lvgl\src\lv_themes/lv_theme_material.c **** #if LV_USE_BAR
 222:..\..\..\lvgl\version_6.1.2\lvgl\src\lv_themes/lv_theme_material.c ****     static lv_style_t bar_bg, bar_indic;
 223:..\..\..\lvgl\version_6.1.2\lvgl\src\lv_themes/lv_theme_material.c **** 
 224:..\..\..\lvgl\version_6.1.2\lvgl\src\lv_themes/lv_theme_material.c ****     lv_style_copy(&bar_bg, &def);
 1017              		.loc 2 224 0
 1018 0004 2349     		ldr	r1, .L29
 1019 0006 2448     		ldr	r0, .L29+4
 1020 0008 FFF7FEFF 		bl	lv_style_copy
 225:..\..\..\lvgl\version_6.1.2\lvgl\src\lv_themes/lv_theme_material.c ****     bar_bg.body.main_color     = lv_color_hsv_to_rgb(_hue, 15, 95);
 1021              		.loc 2 225 0
 1022 000c 234B     		ldr	r3, .L29+8
 1023 000e 1B88     		ldrh	r3, [r3]
 1024 0010 214C     		ldr	r4, .L29+4
 1025 0012 5F22     		movs	r2, #95
 1026 0014 0F21     		movs	r1, #15
 1027 0016 1846     		mov	r0, r3
 1028 0018 FFF7FEFF 		bl	lv_color_hsv_to_rgb
 1029 001c 6060     		str	r0, [r4, #4]
 226:..\..\..\lvgl\version_6.1.2\lvgl\src\lv_themes/lv_theme_material.c ****     bar_bg.body.grad_color     = bar_bg.body.main_color;
 1030              		.loc 2 226 0
 1031 001e 1E4A     		ldr	r2, .L29+4
 1032 0020 1D4B     		ldr	r3, .L29+4
 1033 0022 5B68     		ldr	r3, [r3, #4]
 1034 0024 9360     		str	r3, [r2, #8]
 227:..\..\..\lvgl\version_6.1.2\lvgl\src\lv_themes/lv_theme_material.c ****     bar_bg.body.radius         = 3;
 1035              		.loc 2 227 0
 1036 0026 1C4B     		ldr	r3, .L29+4
 1037 0028 0322     		movs	r2, #3
ARM GAS  C:\Users\tmj32\AppData\Local\Temp\cc8DwYg3.s 			page 32


 1038 002a 9A81     		strh	r2, [r3, #12]	@ movhi
 228:..\..\..\lvgl\version_6.1.2\lvgl\src\lv_themes/lv_theme_material.c ****     bar_bg.body.border.width   = 0;
 1039              		.loc 2 228 0
 1040 002c 1A4B     		ldr	r3, .L29+4
 1041 002e 0022     		movs	r2, #0
 1042 0030 9A82     		strh	r2, [r3, #20]	@ movhi
 229:..\..\..\lvgl\version_6.1.2\lvgl\src\lv_themes/lv_theme_material.c ****     bar_bg.body.padding.left   = LV_DPI / 16;
 1043              		.loc 2 229 0
 1044 0032 194B     		ldr	r3, .L29+4
 1045 0034 0922     		movs	r2, #9
 1046 0036 9A84     		strh	r2, [r3, #36]	@ movhi
 230:..\..\..\lvgl\version_6.1.2\lvgl\src\lv_themes/lv_theme_material.c ****     bar_bg.body.padding.right  = LV_DPI / 16;
 1047              		.loc 2 230 0
 1048 0038 174B     		ldr	r3, .L29+4
 1049 003a 0922     		movs	r2, #9
 1050 003c DA84     		strh	r2, [r3, #38]	@ movhi
 231:..\..\..\lvgl\version_6.1.2\lvgl\src\lv_themes/lv_theme_material.c ****     bar_bg.body.padding.top    = LV_DPI / 16;
 1051              		.loc 2 231 0
 1052 003e 164B     		ldr	r3, .L29+4
 1053 0040 0922     		movs	r2, #9
 1054 0042 1A84     		strh	r2, [r3, #32]	@ movhi
 232:..\..\..\lvgl\version_6.1.2\lvgl\src\lv_themes/lv_theme_material.c ****     bar_bg.body.padding.bottom = LV_DPI / 16;
 1055              		.loc 2 232 0
 1056 0044 144B     		ldr	r3, .L29+4
 1057 0046 0922     		movs	r2, #9
 1058 0048 5A84     		strh	r2, [r3, #34]	@ movhi
 233:..\..\..\lvgl\version_6.1.2\lvgl\src\lv_themes/lv_theme_material.c **** 
 234:..\..\..\lvgl\version_6.1.2\lvgl\src\lv_themes/lv_theme_material.c ****     lv_style_copy(&bar_indic, &bar_bg);
 1059              		.loc 2 234 0
 1060 004a 1349     		ldr	r1, .L29+4
 1061 004c 1448     		ldr	r0, .L29+12
 1062 004e FFF7FEFF 		bl	lv_style_copy
 235:..\..\..\lvgl\version_6.1.2\lvgl\src\lv_themes/lv_theme_material.c ****     bar_indic.body.main_color     = lv_color_hsv_to_rgb(_hue, 85, 70);
 1063              		.loc 2 235 0
 1064 0052 124B     		ldr	r3, .L29+8
 1065 0054 1B88     		ldrh	r3, [r3]
 1066 0056 124C     		ldr	r4, .L29+12
 1067 0058 4622     		movs	r2, #70
 1068 005a 5521     		movs	r1, #85
 1069 005c 1846     		mov	r0, r3
 1070 005e FFF7FEFF 		bl	lv_color_hsv_to_rgb
 1071 0062 6060     		str	r0, [r4, #4]
 236:..\..\..\lvgl\version_6.1.2\lvgl\src\lv_themes/lv_theme_material.c ****     bar_indic.body.grad_color     = bar_indic.body.main_color;
 1072              		.loc 2 236 0
 1073 0064 0E4A     		ldr	r2, .L29+12
 1074 0066 0E4B     		ldr	r3, .L29+12
 1075 0068 5B68     		ldr	r3, [r3, #4]
 1076 006a 9360     		str	r3, [r2, #8]
 237:..\..\..\lvgl\version_6.1.2\lvgl\src\lv_themes/lv_theme_material.c ****     bar_indic.body.padding.left   = 0;
 1077              		.loc 2 237 0
 1078 006c 0C4B     		ldr	r3, .L29+12
 1079 006e 0022     		movs	r2, #0
 1080 0070 9A84     		strh	r2, [r3, #36]	@ movhi
 238:..\..\..\lvgl\version_6.1.2\lvgl\src\lv_themes/lv_theme_material.c ****     bar_indic.body.padding.right  = 0;
 1081              		.loc 2 238 0
 1082 0072 0B4B     		ldr	r3, .L29+12
 1083 0074 0022     		movs	r2, #0
ARM GAS  C:\Users\tmj32\AppData\Local\Temp\cc8DwYg3.s 			page 33


 1084 0076 DA84     		strh	r2, [r3, #38]	@ movhi
 239:..\..\..\lvgl\version_6.1.2\lvgl\src\lv_themes/lv_theme_material.c ****     bar_indic.body.padding.top    = 0;
 1085              		.loc 2 239 0
 1086 0078 094B     		ldr	r3, .L29+12
 1087 007a 0022     		movs	r2, #0
 1088 007c 1A84     		strh	r2, [r3, #32]	@ movhi
 240:..\..\..\lvgl\version_6.1.2\lvgl\src\lv_themes/lv_theme_material.c ****     bar_indic.body.padding.bottom = 0;
 1089              		.loc 2 240 0
 1090 007e 084B     		ldr	r3, .L29+12
 1091 0080 0022     		movs	r2, #0
 1092 0082 5A84     		strh	r2, [r3, #34]	@ movhi
 241:..\..\..\lvgl\version_6.1.2\lvgl\src\lv_themes/lv_theme_material.c **** 
 242:..\..\..\lvgl\version_6.1.2\lvgl\src\lv_themes/lv_theme_material.c ****     theme.style.bar.bg    = &bar_bg;
 1093              		.loc 2 242 0
 1094 0084 074B     		ldr	r3, .L29+16
 1095 0086 044A     		ldr	r2, .L29+4
 1096 0088 5A65     		str	r2, [r3, #84]
 243:..\..\..\lvgl\version_6.1.2\lvgl\src\lv_themes/lv_theme_material.c ****     theme.style.bar.indic = &bar_indic;
 1097              		.loc 2 243 0
 1098 008a 064B     		ldr	r3, .L29+16
 1099 008c 044A     		ldr	r2, .L29+12
 1100 008e 9A65     		str	r2, [r3, #88]
 244:..\..\..\lvgl\version_6.1.2\lvgl\src\lv_themes/lv_theme_material.c **** #endif
 245:..\..\..\lvgl\version_6.1.2\lvgl\src\lv_themes/lv_theme_material.c **** }
 1101              		.loc 2 245 0
 1102 0090 00BF     		nop
 1103 0092 98BD     		pop	{r3, r4, r7, pc}
 1104              	.L30:
 1105              		.align	2
 1106              	.L29:
 1107 0094 A8010000 		.word	def
 1108 0098 B0060000 		.word	bar_bg.5986
 1109 009c 48020000 		.word	_hue
 1110 00a0 00070000 		.word	bar_indic.5987
 1111 00a4 00000000 		.word	theme
 1112              		.cfi_endproc
 1113              	.LFE38:
 1114              		.size	bar_init, .-bar_init
 1115              		.section	.text.slider_init,"ax",%progbits
 1116              		.align	2
 1117              		.thumb
 1118              		.thumb_func
 1119              		.type	slider_init, %function
 1120              	slider_init:
 1121              	.LFB39:
 246:..\..\..\lvgl\version_6.1.2\lvgl\src\lv_themes/lv_theme_material.c **** 
 247:..\..\..\lvgl\version_6.1.2\lvgl\src\lv_themes/lv_theme_material.c **** static void slider_init(void)
 248:..\..\..\lvgl\version_6.1.2\lvgl\src\lv_themes/lv_theme_material.c **** {
 1122              		.loc 2 248 0
 1123              		.cfi_startproc
 1124              		@ args = 0, pretend = 0, frame = 0
 1125              		@ frame_needed = 1, uses_anonymous_args = 0
 1126 0000 80B5     		push	{r7, lr}
 1127              		.cfi_def_cfa_offset 8
 1128              		.cfi_offset 7, -8
 1129              		.cfi_offset 14, -4
 1130 0002 00AF     		add	r7, sp, #0
ARM GAS  C:\Users\tmj32\AppData\Local\Temp\cc8DwYg3.s 			page 34


 1131              		.cfi_def_cfa_register 7
 249:..\..\..\lvgl\version_6.1.2\lvgl\src\lv_themes/lv_theme_material.c **** #if LV_USE_SLIDER != 0
 250:..\..\..\lvgl\version_6.1.2\lvgl\src\lv_themes/lv_theme_material.c ****     static lv_style_t knob;
 251:..\..\..\lvgl\version_6.1.2\lvgl\src\lv_themes/lv_theme_material.c **** 
 252:..\..\..\lvgl\version_6.1.2\lvgl\src\lv_themes/lv_theme_material.c ****     lv_style_copy(&knob, &def);
 1132              		.loc 2 252 0
 1133 0004 1049     		ldr	r1, .L32
 1134 0006 1148     		ldr	r0, .L32+4
 1135 0008 FFF7FEFF 		bl	lv_style_copy
 253:..\..\..\lvgl\version_6.1.2\lvgl\src\lv_themes/lv_theme_material.c ****     knob.body.radius       = LV_RADIUS_CIRCLE;
 1136              		.loc 2 253 0
 1137 000c 0F4B     		ldr	r3, .L32+4
 1138 000e 47F61842 		movw	r2, #31768
 1139 0012 9A81     		strh	r2, [r3, #12]	@ movhi
 254:..\..\..\lvgl\version_6.1.2\lvgl\src\lv_themes/lv_theme_material.c ****     knob.body.border.width = 0;
 1140              		.loc 2 254 0
 1141 0014 0D4B     		ldr	r3, .L32+4
 1142 0016 0022     		movs	r2, #0
 1143 0018 9A82     		strh	r2, [r3, #20]	@ movhi
 255:..\..\..\lvgl\version_6.1.2\lvgl\src\lv_themes/lv_theme_material.c ****     knob.body.main_color   = theme.style.bar.indic->body.main_color;
 1144              		.loc 2 255 0
 1145 001a 0D4B     		ldr	r3, .L32+8
 1146 001c 9B6D     		ldr	r3, [r3, #88]
 1147 001e 0B4A     		ldr	r2, .L32+4
 1148 0020 5B68     		ldr	r3, [r3, #4]
 1149 0022 5360     		str	r3, [r2, #4]
 256:..\..\..\lvgl\version_6.1.2\lvgl\src\lv_themes/lv_theme_material.c ****     knob.body.grad_color   = knob.body.main_color;
 1150              		.loc 2 256 0
 1151 0024 094A     		ldr	r2, .L32+4
 1152 0026 094B     		ldr	r3, .L32+4
 1153 0028 5B68     		ldr	r3, [r3, #4]
 1154 002a 9360     		str	r3, [r2, #8]
 257:..\..\..\lvgl\version_6.1.2\lvgl\src\lv_themes/lv_theme_material.c **** 
 258:..\..\..\lvgl\version_6.1.2\lvgl\src\lv_themes/lv_theme_material.c ****     theme.style.slider.bg    = theme.style.bar.bg;
 1155              		.loc 2 258 0
 1156 002c 084B     		ldr	r3, .L32+8
 1157 002e 5B6D     		ldr	r3, [r3, #84]
 1158 0030 074A     		ldr	r2, .L32+8
 1159 0032 D365     		str	r3, [r2, #92]
 259:..\..\..\lvgl\version_6.1.2\lvgl\src\lv_themes/lv_theme_material.c ****     theme.style.slider.indic = theme.style.bar.indic;
 1160              		.loc 2 259 0
 1161 0034 064B     		ldr	r3, .L32+8
 1162 0036 9B6D     		ldr	r3, [r3, #88]
 1163 0038 054A     		ldr	r2, .L32+8
 1164 003a 1366     		str	r3, [r2, #96]
 260:..\..\..\lvgl\version_6.1.2\lvgl\src\lv_themes/lv_theme_material.c ****     theme.style.slider.knob  = &knob;
 1165              		.loc 2 260 0
 1166 003c 044B     		ldr	r3, .L32+8
 1167 003e 034A     		ldr	r2, .L32+4
 1168 0040 5A66     		str	r2, [r3, #100]
 261:..\..\..\lvgl\version_6.1.2\lvgl\src\lv_themes/lv_theme_material.c **** #endif
 262:..\..\..\lvgl\version_6.1.2\lvgl\src\lv_themes/lv_theme_material.c **** }
 1169              		.loc 2 262 0
 1170 0042 00BF     		nop
 1171 0044 80BD     		pop	{r7, pc}
 1172              	.L33:
 1173 0046 00BF     		.align	2
ARM GAS  C:\Users\tmj32\AppData\Local\Temp\cc8DwYg3.s 			page 35


 1174              	.L32:
 1175 0048 A8010000 		.word	def
 1176 004c 50070000 		.word	knob.5991
 1177 0050 00000000 		.word	theme
 1178              		.cfi_endproc
 1179              	.LFE39:
 1180              		.size	slider_init, .-slider_init
 1181              		.section	.text.sw_init,"ax",%progbits
 1182              		.align	2
 1183              		.thumb
 1184              		.thumb_func
 1185              		.type	sw_init, %function
 1186              	sw_init:
 1187              	.LFB40:
 263:..\..\..\lvgl\version_6.1.2\lvgl\src\lv_themes/lv_theme_material.c **** 
 264:..\..\..\lvgl\version_6.1.2\lvgl\src\lv_themes/lv_theme_material.c **** static void sw_init(void)
 265:..\..\..\lvgl\version_6.1.2\lvgl\src\lv_themes/lv_theme_material.c **** {
 1188              		.loc 2 265 0
 1189              		.cfi_startproc
 1190              		@ args = 0, pretend = 0, frame = 0
 1191              		@ frame_needed = 1, uses_anonymous_args = 0
 1192 0000 98B5     		push	{r3, r4, r7, lr}
 1193              		.cfi_def_cfa_offset 16
 1194              		.cfi_offset 3, -16
 1195              		.cfi_offset 4, -12
 1196              		.cfi_offset 7, -8
 1197              		.cfi_offset 14, -4
 1198 0002 00AF     		add	r7, sp, #0
 1199              		.cfi_def_cfa_register 7
 266:..\..\..\lvgl\version_6.1.2\lvgl\src\lv_themes/lv_theme_material.c **** #if LV_USE_SW != 0
 267:..\..\..\lvgl\version_6.1.2\lvgl\src\lv_themes/lv_theme_material.c ****     static lv_style_t sw_bg, sw_indic, sw_knob_off, sw_knob_on;
 268:..\..\..\lvgl\version_6.1.2\lvgl\src\lv_themes/lv_theme_material.c ****     lv_style_copy(&sw_bg, theme.style.slider.bg);
 1200              		.loc 2 268 0
 1201 0004 274B     		ldr	r3, .L35
 1202 0006 DB6D     		ldr	r3, [r3, #92]
 1203 0008 1946     		mov	r1, r3
 1204 000a 2748     		ldr	r0, .L35+4
 1205 000c FFF7FEFF 		bl	lv_style_copy
 269:..\..\..\lvgl\version_6.1.2\lvgl\src\lv_themes/lv_theme_material.c ****     sw_bg.body.radius = LV_RADIUS_CIRCLE;
 1206              		.loc 2 269 0
 1207 0010 254B     		ldr	r3, .L35+4
 1208 0012 47F61842 		movw	r2, #31768
 1209 0016 9A81     		strh	r2, [r3, #12]	@ movhi
 270:..\..\..\lvgl\version_6.1.2\lvgl\src\lv_themes/lv_theme_material.c **** 
 271:..\..\..\lvgl\version_6.1.2\lvgl\src\lv_themes/lv_theme_material.c ****     lv_style_copy(&sw_indic, theme.style.slider.bg);
 1210              		.loc 2 271 0
 1211 0018 224B     		ldr	r3, .L35
 1212 001a DB6D     		ldr	r3, [r3, #92]
 1213 001c 1946     		mov	r1, r3
 1214 001e 2348     		ldr	r0, .L35+8
 1215 0020 FFF7FEFF 		bl	lv_style_copy
 272:..\..\..\lvgl\version_6.1.2\lvgl\src\lv_themes/lv_theme_material.c ****     sw_indic.body.radius = LV_RADIUS_CIRCLE;
 1216              		.loc 2 272 0
 1217 0024 214B     		ldr	r3, .L35+8
 1218 0026 47F61842 		movw	r2, #31768
 1219 002a 9A81     		strh	r2, [r3, #12]	@ movhi
 273:..\..\..\lvgl\version_6.1.2\lvgl\src\lv_themes/lv_theme_material.c **** 
ARM GAS  C:\Users\tmj32\AppData\Local\Temp\cc8DwYg3.s 			page 36


 274:..\..\..\lvgl\version_6.1.2\lvgl\src\lv_themes/lv_theme_material.c ****     lv_style_copy(&sw_knob_on, theme.style.slider.knob);
 1220              		.loc 2 274 0
 1221 002c 1D4B     		ldr	r3, .L35
 1222 002e 5B6E     		ldr	r3, [r3, #100]
 1223 0030 1946     		mov	r1, r3
 1224 0032 1F48     		ldr	r0, .L35+12
 1225 0034 FFF7FEFF 		bl	lv_style_copy
 275:..\..\..\lvgl\version_6.1.2\lvgl\src\lv_themes/lv_theme_material.c ****     sw_knob_on.body.shadow.width = 3;
 1226              		.loc 2 275 0
 1227 0038 1D4B     		ldr	r3, .L35+12
 1228 003a 0322     		movs	r2, #3
 1229 003c 9A83     		strh	r2, [r3, #28]	@ movhi
 276:..\..\..\lvgl\version_6.1.2\lvgl\src\lv_themes/lv_theme_material.c ****     sw_knob_on.body.shadow.type  = LV_SHADOW_BOTTOM;
 1230              		.loc 2 276 0
 1231 003e 1C4B     		ldr	r3, .L35+12
 1232 0040 0022     		movs	r2, #0
 1233 0042 9A77     		strb	r2, [r3, #30]
 277:..\..\..\lvgl\version_6.1.2\lvgl\src\lv_themes/lv_theme_material.c ****     sw_knob_on.body.shadow.color = DEF_SHADOW_COLOR;
 1234              		.loc 2 277 0
 1235 0044 1A4C     		ldr	r4, .L35+12
 1236 0046 40F6AA20 		movw	r0, #2730
 1237 004a FFF7FEFF 		bl	lv_color_hex3
 1238 004e A061     		str	r0, [r4, #24]
 278:..\..\..\lvgl\version_6.1.2\lvgl\src\lv_themes/lv_theme_material.c **** 
 279:..\..\..\lvgl\version_6.1.2\lvgl\src\lv_themes/lv_theme_material.c ****     lv_style_copy(&sw_knob_off, &sw_knob_on);
 1239              		.loc 2 279 0
 1240 0050 1749     		ldr	r1, .L35+12
 1241 0052 1848     		ldr	r0, .L35+16
 1242 0054 FFF7FEFF 		bl	lv_style_copy
 280:..\..\..\lvgl\version_6.1.2\lvgl\src\lv_themes/lv_theme_material.c ****     sw_knob_off.body.main_color   = lv_color_hex(0xfafafa);
 1243              		.loc 2 280 0
 1244 0058 164C     		ldr	r4, .L35+16
 1245 005a 1748     		ldr	r0, .L35+20
 1246 005c FFF7FEFF 		bl	lv_color_hex
 1247 0060 6060     		str	r0, [r4, #4]
 281:..\..\..\lvgl\version_6.1.2\lvgl\src\lv_themes/lv_theme_material.c ****     sw_knob_off.body.grad_color   = sw_knob_off.body.main_color;
 1248              		.loc 2 281 0
 1249 0062 144A     		ldr	r2, .L35+16
 1250 0064 134B     		ldr	r3, .L35+16
 1251 0066 5B68     		ldr	r3, [r3, #4]
 1252 0068 9360     		str	r3, [r2, #8]
 282:..\..\..\lvgl\version_6.1.2\lvgl\src\lv_themes/lv_theme_material.c ****     sw_knob_off.body.border.width = 1;
 1253              		.loc 2 282 0
 1254 006a 124B     		ldr	r3, .L35+16
 1255 006c 0122     		movs	r2, #1
 1256 006e 9A82     		strh	r2, [r3, #20]	@ movhi
 283:..\..\..\lvgl\version_6.1.2\lvgl\src\lv_themes/lv_theme_material.c ****     sw_knob_off.body.border.color = lv_color_hex3(0x999);
 1257              		.loc 2 283 0
 1258 0070 104C     		ldr	r4, .L35+16
 1259 0072 40F69910 		movw	r0, #2457
 1260 0076 FFF7FEFF 		bl	lv_color_hex3
 1261 007a 2061     		str	r0, [r4, #16]
 284:..\..\..\lvgl\version_6.1.2\lvgl\src\lv_themes/lv_theme_material.c ****     sw_knob_off.body.border.opa   = LV_OPA_COVER;
 1262              		.loc 2 284 0
 1263 007c 0D4B     		ldr	r3, .L35+16
 1264 007e FF22     		movs	r2, #255
 1265 0080 DA75     		strb	r2, [r3, #23]
ARM GAS  C:\Users\tmj32\AppData\Local\Temp\cc8DwYg3.s 			page 37


 285:..\..\..\lvgl\version_6.1.2\lvgl\src\lv_themes/lv_theme_material.c **** 
 286:..\..\..\lvgl\version_6.1.2\lvgl\src\lv_themes/lv_theme_material.c ****     theme.style.sw.bg       = &sw_bg;
 1266              		.loc 2 286 0
 1267 0082 084B     		ldr	r3, .L35
 1268 0084 084A     		ldr	r2, .L35+4
 1269 0086 9A67     		str	r2, [r3, #120]
 287:..\..\..\lvgl\version_6.1.2\lvgl\src\lv_themes/lv_theme_material.c ****     theme.style.sw.indic    = &sw_indic;
 1270              		.loc 2 287 0
 1271 0088 064B     		ldr	r3, .L35
 1272 008a 084A     		ldr	r2, .L35+8
 1273 008c DA67     		str	r2, [r3, #124]
 288:..\..\..\lvgl\version_6.1.2\lvgl\src\lv_themes/lv_theme_material.c ****     theme.style.sw.knob_off = &sw_knob_off;
 1274              		.loc 2 288 0
 1275 008e 054B     		ldr	r3, .L35
 1276 0090 084A     		ldr	r2, .L35+16
 1277 0092 C3F88020 		str	r2, [r3, #128]
 289:..\..\..\lvgl\version_6.1.2\lvgl\src\lv_themes/lv_theme_material.c ****     theme.style.sw.knob_on  = &sw_knob_on;
 1278              		.loc 2 289 0
 1279 0096 034B     		ldr	r3, .L35
 1280 0098 054A     		ldr	r2, .L35+12
 1281 009a C3F88420 		str	r2, [r3, #132]
 290:..\..\..\lvgl\version_6.1.2\lvgl\src\lv_themes/lv_theme_material.c **** #endif
 291:..\..\..\lvgl\version_6.1.2\lvgl\src\lv_themes/lv_theme_material.c **** }
 1282              		.loc 2 291 0
 1283 009e 00BF     		nop
 1284 00a0 98BD     		pop	{r3, r4, r7, pc}
 1285              	.L36:
 1286 00a2 00BF     		.align	2
 1287              	.L35:
 1288 00a4 00000000 		.word	theme
 1289 00a8 A0070000 		.word	sw_bg.5995
 1290 00ac F0070000 		.word	sw_indic.5996
 1291 00b0 40080000 		.word	sw_knob_on.5998
 1292 00b4 90080000 		.word	sw_knob_off.5997
 1293 00b8 FAFAFA00 		.word	16448250
 1294              		.cfi_endproc
 1295              	.LFE40:
 1296              		.size	sw_init, .-sw_init
 1297              		.section	.text.lmeter_init,"ax",%progbits
 1298              		.align	2
 1299              		.thumb
 1300              		.thumb_func
 1301              		.type	lmeter_init, %function
 1302              	lmeter_init:
 1303              	.LFB41:
 292:..\..\..\lvgl\version_6.1.2\lvgl\src\lv_themes/lv_theme_material.c **** 
 293:..\..\..\lvgl\version_6.1.2\lvgl\src\lv_themes/lv_theme_material.c **** static void lmeter_init(void)
 294:..\..\..\lvgl\version_6.1.2\lvgl\src\lv_themes/lv_theme_material.c **** {
 1304              		.loc 2 294 0
 1305              		.cfi_startproc
 1306              		@ args = 0, pretend = 0, frame = 0
 1307              		@ frame_needed = 1, uses_anonymous_args = 0
 1308 0000 98B5     		push	{r3, r4, r7, lr}
 1309              		.cfi_def_cfa_offset 16
 1310              		.cfi_offset 3, -16
 1311              		.cfi_offset 4, -12
 1312              		.cfi_offset 7, -8
ARM GAS  C:\Users\tmj32\AppData\Local\Temp\cc8DwYg3.s 			page 38


 1313              		.cfi_offset 14, -4
 1314 0002 00AF     		add	r7, sp, #0
 1315              		.cfi_def_cfa_register 7
 295:..\..\..\lvgl\version_6.1.2\lvgl\src\lv_themes/lv_theme_material.c **** #if LV_USE_LMETER != 0
 296:..\..\..\lvgl\version_6.1.2\lvgl\src\lv_themes/lv_theme_material.c ****     static lv_style_t lmeter;
 297:..\..\..\lvgl\version_6.1.2\lvgl\src\lv_themes/lv_theme_material.c ****     lv_style_copy(&lmeter, &def);
 1316              		.loc 2 297 0
 1317 0004 1149     		ldr	r1, .L38
 1318 0006 1248     		ldr	r0, .L38+4
 1319 0008 FFF7FEFF 		bl	lv_style_copy
 298:..\..\..\lvgl\version_6.1.2\lvgl\src\lv_themes/lv_theme_material.c ****     lmeter.body.main_color   = lv_color_hsv_to_rgb(_hue, 75, 90);
 1320              		.loc 2 298 0
 1321 000c 114B     		ldr	r3, .L38+8
 1322 000e 1B88     		ldrh	r3, [r3]
 1323 0010 0F4C     		ldr	r4, .L38+4
 1324 0012 5A22     		movs	r2, #90
 1325 0014 4B21     		movs	r1, #75
 1326 0016 1846     		mov	r0, r3
 1327 0018 FFF7FEFF 		bl	lv_color_hsv_to_rgb
 1328 001c 6060     		str	r0, [r4, #4]
 299:..\..\..\lvgl\version_6.1.2\lvgl\src\lv_themes/lv_theme_material.c ****     lmeter.body.grad_color   = lmeter.body.main_color;
 1329              		.loc 2 299 0
 1330 001e 0C4A     		ldr	r2, .L38+4
 1331 0020 0B4B     		ldr	r3, .L38+4
 1332 0022 5B68     		ldr	r3, [r3, #4]
 1333 0024 9360     		str	r3, [r2, #8]
 300:..\..\..\lvgl\version_6.1.2\lvgl\src\lv_themes/lv_theme_material.c ****     lmeter.body.padding.left = LV_DPI / 10; /*Scale line length*/
 1334              		.loc 2 300 0
 1335 0026 0A4B     		ldr	r3, .L38+4
 1336 0028 0F22     		movs	r2, #15
 1337 002a 9A84     		strh	r2, [r3, #36]	@ movhi
 301:..\..\..\lvgl\version_6.1.2\lvgl\src\lv_themes/lv_theme_material.c ****     lmeter.line.color        = lv_color_hex3(0x999);
 1338              		.loc 2 301 0
 1339 002c 084C     		ldr	r4, .L38+4
 1340 002e 40F69910 		movw	r0, #2457
 1341 0032 FFF7FEFF 		bl	lv_color_hex3
 1342 0036 A064     		str	r0, [r4, #72]
 302:..\..\..\lvgl\version_6.1.2\lvgl\src\lv_themes/lv_theme_material.c ****     lmeter.line.width        = 2;
 1343              		.loc 2 302 0
 1344 0038 054B     		ldr	r3, .L38+4
 1345 003a 0222     		movs	r2, #2
 1346 003c A3F84C20 		strh	r2, [r3, #76]	@ movhi
 303:..\..\..\lvgl\version_6.1.2\lvgl\src\lv_themes/lv_theme_material.c **** 
 304:..\..\..\lvgl\version_6.1.2\lvgl\src\lv_themes/lv_theme_material.c ****     theme.style.lmeter = &lmeter;
 1347              		.loc 2 304 0
 1348 0040 054B     		ldr	r3, .L38+12
 1349 0042 034A     		ldr	r2, .L38+4
 1350 0044 9A66     		str	r2, [r3, #104]
 305:..\..\..\lvgl\version_6.1.2\lvgl\src\lv_themes/lv_theme_material.c **** #endif
 306:..\..\..\lvgl\version_6.1.2\lvgl\src\lv_themes/lv_theme_material.c **** }
 1351              		.loc 2 306 0
 1352 0046 00BF     		nop
 1353 0048 98BD     		pop	{r3, r4, r7, pc}
 1354              	.L39:
 1355 004a 00BF     		.align	2
 1356              	.L38:
 1357 004c A8010000 		.word	def
ARM GAS  C:\Users\tmj32\AppData\Local\Temp\cc8DwYg3.s 			page 39


 1358 0050 E0080000 		.word	lmeter.6002
 1359 0054 48020000 		.word	_hue
 1360 0058 00000000 		.word	theme
 1361              		.cfi_endproc
 1362              	.LFE41:
 1363              		.size	lmeter_init, .-lmeter_init
 1364              		.section	.text.gauge_init,"ax",%progbits
 1365              		.align	2
 1366              		.thumb
 1367              		.thumb_func
 1368              		.type	gauge_init, %function
 1369              	gauge_init:
 1370              	.LFB42:
 307:..\..\..\lvgl\version_6.1.2\lvgl\src\lv_themes/lv_theme_material.c **** 
 308:..\..\..\lvgl\version_6.1.2\lvgl\src\lv_themes/lv_theme_material.c **** static void gauge_init(void)
 309:..\..\..\lvgl\version_6.1.2\lvgl\src\lv_themes/lv_theme_material.c **** {
 1371              		.loc 2 309 0
 1372              		.cfi_startproc
 1373              		@ args = 0, pretend = 0, frame = 0
 1374              		@ frame_needed = 1, uses_anonymous_args = 0
 1375 0000 98B5     		push	{r3, r4, r7, lr}
 1376              		.cfi_def_cfa_offset 16
 1377              		.cfi_offset 3, -16
 1378              		.cfi_offset 4, -12
 1379              		.cfi_offset 7, -8
 1380              		.cfi_offset 14, -4
 1381 0002 00AF     		add	r7, sp, #0
 1382              		.cfi_def_cfa_register 7
 310:..\..\..\lvgl\version_6.1.2\lvgl\src\lv_themes/lv_theme_material.c **** #if LV_USE_GAUGE != 0
 311:..\..\..\lvgl\version_6.1.2\lvgl\src\lv_themes/lv_theme_material.c **** 
 312:..\..\..\lvgl\version_6.1.2\lvgl\src\lv_themes/lv_theme_material.c ****     static lv_style_t gauge;
 313:..\..\..\lvgl\version_6.1.2\lvgl\src\lv_themes/lv_theme_material.c ****     lv_style_copy(&gauge, &def);
 1383              		.loc 2 313 0
 1384 0004 1A49     		ldr	r1, .L41
 1385 0006 1B48     		ldr	r0, .L41+4
 1386 0008 FFF7FEFF 		bl	lv_style_copy
 314:..\..\..\lvgl\version_6.1.2\lvgl\src\lv_themes/lv_theme_material.c ****     gauge.body.main_color    = lv_color_hsv_to_rgb(_hue, 10, 60);
 1387              		.loc 2 314 0
 1388 000c 1A4B     		ldr	r3, .L41+8
 1389 000e 1B88     		ldrh	r3, [r3]
 1390 0010 184C     		ldr	r4, .L41+4
 1391 0012 3C22     		movs	r2, #60
 1392 0014 0A21     		movs	r1, #10
 1393 0016 1846     		mov	r0, r3
 1394 0018 FFF7FEFF 		bl	lv_color_hsv_to_rgb
 1395 001c 6060     		str	r0, [r4, #4]
 315:..\..\..\lvgl\version_6.1.2\lvgl\src\lv_themes/lv_theme_material.c ****     gauge.body.grad_color    = gauge.body.main_color;
 1396              		.loc 2 315 0
 1397 001e 154A     		ldr	r2, .L41+4
 1398 0020 144B     		ldr	r3, .L41+4
 1399 0022 5B68     		ldr	r3, [r3, #4]
 1400 0024 9360     		str	r3, [r2, #8]
 316:..\..\..\lvgl\version_6.1.2\lvgl\src\lv_themes/lv_theme_material.c ****     gauge.body.padding.left  = LV_DPI / 16; /*Scale line length*/
 1401              		.loc 2 316 0
 1402 0026 134B     		ldr	r3, .L41+4
 1403 0028 0922     		movs	r2, #9
 1404 002a 9A84     		strh	r2, [r3, #36]	@ movhi
ARM GAS  C:\Users\tmj32\AppData\Local\Temp\cc8DwYg3.s 			page 40


 317:..\..\..\lvgl\version_6.1.2\lvgl\src\lv_themes/lv_theme_material.c ****     gauge.body.padding.inner = LV_DPI / 8;
 1405              		.loc 2 317 0
 1406 002c 114B     		ldr	r3, .L41+4
 1407 002e 1222     		movs	r2, #18
 1408 0030 1A85     		strh	r2, [r3, #40]	@ movhi
 318:..\..\..\lvgl\version_6.1.2\lvgl\src\lv_themes/lv_theme_material.c ****     gauge.body.border.color  = lv_color_hex3(0x999);
 1409              		.loc 2 318 0
 1410 0032 104C     		ldr	r4, .L41+4
 1411 0034 40F69910 		movw	r0, #2457
 1412 0038 FFF7FEFF 		bl	lv_color_hex3
 1413 003c 2061     		str	r0, [r4, #16]
 319:..\..\..\lvgl\version_6.1.2\lvgl\src\lv_themes/lv_theme_material.c ****     gauge.text.color         = lv_color_hex3(0x333);
 1414              		.loc 2 319 0
 1415 003e 0D4C     		ldr	r4, .L41+4
 1416 0040 40F23330 		movw	r0, #819
 1417 0044 FFF7FEFF 		bl	lv_color_hex3
 1418 0048 E062     		str	r0, [r4, #44]
 320:..\..\..\lvgl\version_6.1.2\lvgl\src\lv_themes/lv_theme_material.c ****     gauge.line.width         = 3;
 1419              		.loc 2 320 0
 1420 004a 0A4B     		ldr	r3, .L41+4
 1421 004c 0322     		movs	r2, #3
 1422 004e A3F84C20 		strh	r2, [r3, #76]	@ movhi
 321:..\..\..\lvgl\version_6.1.2\lvgl\src\lv_themes/lv_theme_material.c ****     gauge.line.color         = lv_color_hsv_to_rgb(_hue, 95, 70);
 1423              		.loc 2 321 0
 1424 0052 094B     		ldr	r3, .L41+8
 1425 0054 1B88     		ldrh	r3, [r3]
 1426 0056 074C     		ldr	r4, .L41+4
 1427 0058 4622     		movs	r2, #70
 1428 005a 5F21     		movs	r1, #95
 1429 005c 1846     		mov	r0, r3
 1430 005e FFF7FEFF 		bl	lv_color_hsv_to_rgb
 1431 0062 A064     		str	r0, [r4, #72]
 322:..\..\..\lvgl\version_6.1.2\lvgl\src\lv_themes/lv_theme_material.c **** 
 323:..\..\..\lvgl\version_6.1.2\lvgl\src\lv_themes/lv_theme_material.c ****     theme.style.gauge = &gauge;
 1432              		.loc 2 323 0
 1433 0064 054B     		ldr	r3, .L41+12
 1434 0066 034A     		ldr	r2, .L41+4
 1435 0068 DA66     		str	r2, [r3, #108]
 324:..\..\..\lvgl\version_6.1.2\lvgl\src\lv_themes/lv_theme_material.c **** #endif
 325:..\..\..\lvgl\version_6.1.2\lvgl\src\lv_themes/lv_theme_material.c **** }
 1436              		.loc 2 325 0
 1437 006a 00BF     		nop
 1438 006c 98BD     		pop	{r3, r4, r7, pc}
 1439              	.L42:
 1440 006e 00BF     		.align	2
 1441              	.L41:
 1442 0070 A8010000 		.word	def
 1443 0074 30090000 		.word	gauge.6006
 1444 0078 48020000 		.word	_hue
 1445 007c 00000000 		.word	theme
 1446              		.cfi_endproc
 1447              	.LFE42:
 1448              		.size	gauge_init, .-gauge_init
 1449              		.section	.text.arc_init,"ax",%progbits
 1450              		.align	2
 1451              		.thumb
 1452              		.thumb_func
ARM GAS  C:\Users\tmj32\AppData\Local\Temp\cc8DwYg3.s 			page 41


 1453              		.type	arc_init, %function
 1454              	arc_init:
 1455              	.LFB43:
 326:..\..\..\lvgl\version_6.1.2\lvgl\src\lv_themes/lv_theme_material.c **** 
 327:..\..\..\lvgl\version_6.1.2\lvgl\src\lv_themes/lv_theme_material.c **** static void arc_init(void)
 328:..\..\..\lvgl\version_6.1.2\lvgl\src\lv_themes/lv_theme_material.c **** {
 1456              		.loc 2 328 0
 1457              		.cfi_startproc
 1458              		@ args = 0, pretend = 0, frame = 0
 1459              		@ frame_needed = 1, uses_anonymous_args = 0
 1460 0000 98B5     		push	{r3, r4, r7, lr}
 1461              		.cfi_def_cfa_offset 16
 1462              		.cfi_offset 3, -16
 1463              		.cfi_offset 4, -12
 1464              		.cfi_offset 7, -8
 1465              		.cfi_offset 14, -4
 1466 0002 00AF     		add	r7, sp, #0
 1467              		.cfi_def_cfa_register 7
 329:..\..\..\lvgl\version_6.1.2\lvgl\src\lv_themes/lv_theme_material.c **** #if LV_USE_ARC != 0
 330:..\..\..\lvgl\version_6.1.2\lvgl\src\lv_themes/lv_theme_material.c **** 
 331:..\..\..\lvgl\version_6.1.2\lvgl\src\lv_themes/lv_theme_material.c ****     static lv_style_t arc;
 332:..\..\..\lvgl\version_6.1.2\lvgl\src\lv_themes/lv_theme_material.c ****     lv_style_copy(&arc, &def);
 1468              		.loc 2 332 0
 1469 0004 1649     		ldr	r1, .L44
 1470 0006 1748     		ldr	r0, .L44+4
 1471 0008 FFF7FEFF 		bl	lv_style_copy
 333:..\..\..\lvgl\version_6.1.2\lvgl\src\lv_themes/lv_theme_material.c ****     arc.line.width = 10;
 1472              		.loc 2 333 0
 1473 000c 154B     		ldr	r3, .L44+4
 1474 000e 0A22     		movs	r2, #10
 1475 0010 A3F84C20 		strh	r2, [r3, #76]	@ movhi
 334:..\..\..\lvgl\version_6.1.2\lvgl\src\lv_themes/lv_theme_material.c ****     arc.line.color = lv_color_hsv_to_rgb(_hue, 90, 90);
 1476              		.loc 2 334 0
 1477 0014 144B     		ldr	r3, .L44+8
 1478 0016 1B88     		ldrh	r3, [r3]
 1479 0018 124C     		ldr	r4, .L44+4
 1480 001a 5A22     		movs	r2, #90
 1481 001c 5A21     		movs	r1, #90
 1482 001e 1846     		mov	r0, r3
 1483 0020 FFF7FEFF 		bl	lv_color_hsv_to_rgb
 1484 0024 A064     		str	r0, [r4, #72]
 335:..\..\..\lvgl\version_6.1.2\lvgl\src\lv_themes/lv_theme_material.c **** 
 336:..\..\..\lvgl\version_6.1.2\lvgl\src\lv_themes/lv_theme_material.c ****     /*For prelaoder*/
 337:..\..\..\lvgl\version_6.1.2\lvgl\src\lv_themes/lv_theme_material.c ****     arc.body.border.width   = 10;
 1485              		.loc 2 337 0
 1486 0026 0F4B     		ldr	r3, .L44+4
 1487 0028 0A22     		movs	r2, #10
 1488 002a 9A82     		strh	r2, [r3, #20]	@ movhi
 338:..\..\..\lvgl\version_6.1.2\lvgl\src\lv_themes/lv_theme_material.c ****     arc.body.border.color   = lv_color_hsv_to_rgb(_hue, 30, 90);
 1489              		.loc 2 338 0
 1490 002c 0E4B     		ldr	r3, .L44+8
 1491 002e 1B88     		ldrh	r3, [r3]
 1492 0030 0C4C     		ldr	r4, .L44+4
 1493 0032 5A22     		movs	r2, #90
 1494 0034 1E21     		movs	r1, #30
 1495 0036 1846     		mov	r0, r3
 1496 0038 FFF7FEFF 		bl	lv_color_hsv_to_rgb
ARM GAS  C:\Users\tmj32\AppData\Local\Temp\cc8DwYg3.s 			page 42


 1497 003c 2061     		str	r0, [r4, #16]
 339:..\..\..\lvgl\version_6.1.2\lvgl\src\lv_themes/lv_theme_material.c ****     arc.body.padding.left   = 0;
 1498              		.loc 2 339 0
 1499 003e 094B     		ldr	r3, .L44+4
 1500 0040 0022     		movs	r2, #0
 1501 0042 9A84     		strh	r2, [r3, #36]	@ movhi
 340:..\..\..\lvgl\version_6.1.2\lvgl\src\lv_themes/lv_theme_material.c ****     arc.body.padding.right  = 0;
 1502              		.loc 2 340 0
 1503 0044 074B     		ldr	r3, .L44+4
 1504 0046 0022     		movs	r2, #0
 1505 0048 DA84     		strh	r2, [r3, #38]	@ movhi
 341:..\..\..\lvgl\version_6.1.2\lvgl\src\lv_themes/lv_theme_material.c ****     arc.body.padding.top    = 0;
 1506              		.loc 2 341 0
 1507 004a 064B     		ldr	r3, .L44+4
 1508 004c 0022     		movs	r2, #0
 1509 004e 1A84     		strh	r2, [r3, #32]	@ movhi
 342:..\..\..\lvgl\version_6.1.2\lvgl\src\lv_themes/lv_theme_material.c ****     arc.body.padding.bottom = 0;
 1510              		.loc 2 342 0
 1511 0050 044B     		ldr	r3, .L44+4
 1512 0052 0022     		movs	r2, #0
 1513 0054 5A84     		strh	r2, [r3, #34]	@ movhi
 343:..\..\..\lvgl\version_6.1.2\lvgl\src\lv_themes/lv_theme_material.c **** 
 344:..\..\..\lvgl\version_6.1.2\lvgl\src\lv_themes/lv_theme_material.c ****     theme.style.arc = &arc;
 1514              		.loc 2 344 0
 1515 0056 054B     		ldr	r3, .L44+12
 1516 0058 024A     		ldr	r2, .L44+4
 1517 005a 1A67     		str	r2, [r3, #112]
 345:..\..\..\lvgl\version_6.1.2\lvgl\src\lv_themes/lv_theme_material.c **** #endif
 346:..\..\..\lvgl\version_6.1.2\lvgl\src\lv_themes/lv_theme_material.c **** }
 1518              		.loc 2 346 0
 1519 005c 00BF     		nop
 1520 005e 98BD     		pop	{r3, r4, r7, pc}
 1521              	.L45:
 1522              		.align	2
 1523              	.L44:
 1524 0060 A8010000 		.word	def
 1525 0064 80090000 		.word	arc.6010
 1526 0068 48020000 		.word	_hue
 1527 006c 00000000 		.word	theme
 1528              		.cfi_endproc
 1529              	.LFE43:
 1530              		.size	arc_init, .-arc_init
 1531              		.section	.text.preload_init,"ax",%progbits
 1532              		.align	2
 1533              		.thumb
 1534              		.thumb_func
 1535              		.type	preload_init, %function
 1536              	preload_init:
 1537              	.LFB44:
 347:..\..\..\lvgl\version_6.1.2\lvgl\src\lv_themes/lv_theme_material.c **** 
 348:..\..\..\lvgl\version_6.1.2\lvgl\src\lv_themes/lv_theme_material.c **** static void preload_init(void)
 349:..\..\..\lvgl\version_6.1.2\lvgl\src\lv_themes/lv_theme_material.c **** {
 1538              		.loc 2 349 0
 1539              		.cfi_startproc
 1540              		@ args = 0, pretend = 0, frame = 0
 1541              		@ frame_needed = 1, uses_anonymous_args = 0
 1542              		@ link register save eliminated.
ARM GAS  C:\Users\tmj32\AppData\Local\Temp\cc8DwYg3.s 			page 43


 1543 0000 80B4     		push	{r7}
 1544              		.cfi_def_cfa_offset 4
 1545              		.cfi_offset 7, -4
 1546 0002 00AF     		add	r7, sp, #0
 1547              		.cfi_def_cfa_register 7
 350:..\..\..\lvgl\version_6.1.2\lvgl\src\lv_themes/lv_theme_material.c **** #if LV_USE_PRELOAD != 0
 351:..\..\..\lvgl\version_6.1.2\lvgl\src\lv_themes/lv_theme_material.c **** 
 352:..\..\..\lvgl\version_6.1.2\lvgl\src\lv_themes/lv_theme_material.c ****     theme.style.preload = theme.style.arc;
 1548              		.loc 2 352 0
 1549 0004 044B     		ldr	r3, .L47
 1550 0006 1B6F     		ldr	r3, [r3, #112]
 1551 0008 034A     		ldr	r2, .L47
 1552 000a 5367     		str	r3, [r2, #116]
 353:..\..\..\lvgl\version_6.1.2\lvgl\src\lv_themes/lv_theme_material.c **** #endif
 354:..\..\..\lvgl\version_6.1.2\lvgl\src\lv_themes/lv_theme_material.c **** }
 1553              		.loc 2 354 0
 1554 000c 00BF     		nop
 1555 000e BD46     		mov	sp, r7
 1556              		.cfi_def_cfa_register 13
 1557              		@ sp needed
 1558 0010 5DF8047B 		ldr	r7, [sp], #4
 1559              		.cfi_restore 7
 1560              		.cfi_def_cfa_offset 0
 1561 0014 7047     		bx	lr
 1562              	.L48:
 1563 0016 00BF     		.align	2
 1564              	.L47:
 1565 0018 00000000 		.word	theme
 1566              		.cfi_endproc
 1567              	.LFE44:
 1568              		.size	preload_init, .-preload_init
 1569              		.section	.text.chart_init,"ax",%progbits
 1570              		.align	2
 1571              		.thumb
 1572              		.thumb_func
 1573              		.type	chart_init, %function
 1574              	chart_init:
 1575              	.LFB45:
 355:..\..\..\lvgl\version_6.1.2\lvgl\src\lv_themes/lv_theme_material.c **** 
 356:..\..\..\lvgl\version_6.1.2\lvgl\src\lv_themes/lv_theme_material.c **** static void chart_init(void)
 357:..\..\..\lvgl\version_6.1.2\lvgl\src\lv_themes/lv_theme_material.c **** {
 1576              		.loc 2 357 0
 1577              		.cfi_startproc
 1578              		@ args = 0, pretend = 0, frame = 0
 1579              		@ frame_needed = 1, uses_anonymous_args = 0
 1580              		@ link register save eliminated.
 1581 0000 80B4     		push	{r7}
 1582              		.cfi_def_cfa_offset 4
 1583              		.cfi_offset 7, -4
 1584 0002 00AF     		add	r7, sp, #0
 1585              		.cfi_def_cfa_register 7
 358:..\..\..\lvgl\version_6.1.2\lvgl\src\lv_themes/lv_theme_material.c **** #if LV_USE_CHART
 359:..\..\..\lvgl\version_6.1.2\lvgl\src\lv_themes/lv_theme_material.c ****     theme.style.chart = theme.style.panel;
 1586              		.loc 2 359 0
 1587 0004 044B     		ldr	r3, .L50
 1588 0006 9B68     		ldr	r3, [r3, #8]
 1589 0008 034A     		ldr	r2, .L50
ARM GAS  C:\Users\tmj32\AppData\Local\Temp\cc8DwYg3.s 			page 44


 1590 000a C2F88830 		str	r3, [r2, #136]
 360:..\..\..\lvgl\version_6.1.2\lvgl\src\lv_themes/lv_theme_material.c **** #endif
 361:..\..\..\lvgl\version_6.1.2\lvgl\src\lv_themes/lv_theme_material.c **** }
 1591              		.loc 2 361 0
 1592 000e 00BF     		nop
 1593 0010 BD46     		mov	sp, r7
 1594              		.cfi_def_cfa_register 13
 1595              		@ sp needed
 1596 0012 5DF8047B 		ldr	r7, [sp], #4
 1597              		.cfi_restore 7
 1598              		.cfi_def_cfa_offset 0
 1599 0016 7047     		bx	lr
 1600              	.L51:
 1601              		.align	2
 1602              	.L50:
 1603 0018 00000000 		.word	theme
 1604              		.cfi_endproc
 1605              	.LFE45:
 1606              		.size	chart_init, .-chart_init
 1607              		.section	.text.calendar_init,"ax",%progbits
 1608              		.align	2
 1609              		.thumb
 1610              		.thumb_func
 1611              		.type	calendar_init, %function
 1612              	calendar_init:
 1613              	.LFB46:
 362:..\..\..\lvgl\version_6.1.2\lvgl\src\lv_themes/lv_theme_material.c **** 
 363:..\..\..\lvgl\version_6.1.2\lvgl\src\lv_themes/lv_theme_material.c **** static void calendar_init(void)
 364:..\..\..\lvgl\version_6.1.2\lvgl\src\lv_themes/lv_theme_material.c **** {
 1614              		.loc 2 364 0
 1615              		.cfi_startproc
 1616              		@ args = 0, pretend = 0, frame = 0
 1617              		@ frame_needed = 1, uses_anonymous_args = 0
 1618 0000 98B5     		push	{r3, r4, r7, lr}
 1619              		.cfi_def_cfa_offset 16
 1620              		.cfi_offset 3, -16
 1621              		.cfi_offset 4, -12
 1622              		.cfi_offset 7, -8
 1623              		.cfi_offset 14, -4
 1624 0002 00AF     		add	r7, sp, #0
 1625              		.cfi_def_cfa_register 7
 365:..\..\..\lvgl\version_6.1.2\lvgl\src\lv_themes/lv_theme_material.c **** #if LV_USE_CALENDAR
 366:..\..\..\lvgl\version_6.1.2\lvgl\src\lv_themes/lv_theme_material.c ****     static lv_style_t ina_days;
 367:..\..\..\lvgl\version_6.1.2\lvgl\src\lv_themes/lv_theme_material.c ****     lv_style_copy(&ina_days, &def);
 1626              		.loc 2 367 0
 1627 0004 4949     		ldr	r1, .L53
 1628 0006 4A48     		ldr	r0, .L53+4
 1629 0008 FFF7FEFF 		bl	lv_style_copy
 368:..\..\..\lvgl\version_6.1.2\lvgl\src\lv_themes/lv_theme_material.c ****     ina_days.text.color = lv_color_hsv_to_rgb(_hue, 0, 70);
 1630              		.loc 2 368 0
 1631 000c 494B     		ldr	r3, .L53+8
 1632 000e 1B88     		ldrh	r3, [r3]
 1633 0010 474C     		ldr	r4, .L53+4
 1634 0012 4622     		movs	r2, #70
 1635 0014 0021     		movs	r1, #0
 1636 0016 1846     		mov	r0, r3
 1637 0018 FFF7FEFF 		bl	lv_color_hsv_to_rgb
ARM GAS  C:\Users\tmj32\AppData\Local\Temp\cc8DwYg3.s 			page 45


 1638 001c E062     		str	r0, [r4, #44]
 369:..\..\..\lvgl\version_6.1.2\lvgl\src\lv_themes/lv_theme_material.c **** 
 370:..\..\..\lvgl\version_6.1.2\lvgl\src\lv_themes/lv_theme_material.c ****     static lv_style_t high_days;
 371:..\..\..\lvgl\version_6.1.2\lvgl\src\lv_themes/lv_theme_material.c ****     lv_style_copy(&high_days, &def);
 1639              		.loc 2 371 0
 1640 001e 4349     		ldr	r1, .L53
 1641 0020 4548     		ldr	r0, .L53+12
 1642 0022 FFF7FEFF 		bl	lv_style_copy
 372:..\..\..\lvgl\version_6.1.2\lvgl\src\lv_themes/lv_theme_material.c ****     high_days.text.color = lv_color_hsv_to_rgb(_hue, 80, 90);
 1643              		.loc 2 372 0
 1644 0026 434B     		ldr	r3, .L53+8
 1645 0028 1B88     		ldrh	r3, [r3]
 1646 002a 434C     		ldr	r4, .L53+12
 1647 002c 5A22     		movs	r2, #90
 1648 002e 5021     		movs	r1, #80
 1649 0030 1846     		mov	r0, r3
 1650 0032 FFF7FEFF 		bl	lv_color_hsv_to_rgb
 1651 0036 E062     		str	r0, [r4, #44]
 373:..\..\..\lvgl\version_6.1.2\lvgl\src\lv_themes/lv_theme_material.c **** 
 374:..\..\..\lvgl\version_6.1.2\lvgl\src\lv_themes/lv_theme_material.c ****     static lv_style_t week_box;
 375:..\..\..\lvgl\version_6.1.2\lvgl\src\lv_themes/lv_theme_material.c ****     lv_style_copy(&week_box, &def);
 1652              		.loc 2 375 0
 1653 0038 3C49     		ldr	r1, .L53
 1654 003a 4048     		ldr	r0, .L53+16
 1655 003c FFF7FEFF 		bl	lv_style_copy
 376:..\..\..\lvgl\version_6.1.2\lvgl\src\lv_themes/lv_theme_material.c ****     week_box.body.main_color     = lv_color_hsv_to_rgb(_hue, 40, 100);
 1656              		.loc 2 376 0
 1657 0040 3C4B     		ldr	r3, .L53+8
 1658 0042 1B88     		ldrh	r3, [r3]
 1659 0044 3D4C     		ldr	r4, .L53+16
 1660 0046 6422     		movs	r2, #100
 1661 0048 2821     		movs	r1, #40
 1662 004a 1846     		mov	r0, r3
 1663 004c FFF7FEFF 		bl	lv_color_hsv_to_rgb
 1664 0050 6060     		str	r0, [r4, #4]
 377:..\..\..\lvgl\version_6.1.2\lvgl\src\lv_themes/lv_theme_material.c ****     week_box.body.grad_color     = lv_color_hsv_to_rgb(_hue, 40, 100);
 1665              		.loc 2 377 0
 1666 0052 384B     		ldr	r3, .L53+8
 1667 0054 1B88     		ldrh	r3, [r3]
 1668 0056 394C     		ldr	r4, .L53+16
 1669 0058 6422     		movs	r2, #100
 1670 005a 2821     		movs	r1, #40
 1671 005c 1846     		mov	r0, r3
 1672 005e FFF7FEFF 		bl	lv_color_hsv_to_rgb
 1673 0062 A060     		str	r0, [r4, #8]
 378:..\..\..\lvgl\version_6.1.2\lvgl\src\lv_themes/lv_theme_material.c ****     week_box.body.padding.top    = LV_DPI / 20;
 1674              		.loc 2 378 0
 1675 0064 354B     		ldr	r3, .L53+16
 1676 0066 0722     		movs	r2, #7
 1677 0068 1A84     		strh	r2, [r3, #32]	@ movhi
 379:..\..\..\lvgl\version_6.1.2\lvgl\src\lv_themes/lv_theme_material.c ****     week_box.body.padding.bottom = LV_DPI / 20;
 1678              		.loc 2 379 0
 1679 006a 344B     		ldr	r3, .L53+16
 1680 006c 0722     		movs	r2, #7
 1681 006e 5A84     		strh	r2, [r3, #34]	@ movhi
 380:..\..\..\lvgl\version_6.1.2\lvgl\src\lv_themes/lv_theme_material.c ****     week_box.body.padding.left   = theme.style.panel->body.padding.left;
 1682              		.loc 2 380 0
ARM GAS  C:\Users\tmj32\AppData\Local\Temp\cc8DwYg3.s 			page 46


 1683 0070 334B     		ldr	r3, .L53+20
 1684 0072 9B68     		ldr	r3, [r3, #8]
 1685 0074 B3F92420 		ldrsh	r2, [r3, #36]
 1686 0078 304B     		ldr	r3, .L53+16
 1687 007a 9A84     		strh	r2, [r3, #36]	@ movhi
 381:..\..\..\lvgl\version_6.1.2\lvgl\src\lv_themes/lv_theme_material.c ****     week_box.body.padding.right  = theme.style.panel->body.padding.right;
 1688              		.loc 2 381 0
 1689 007c 304B     		ldr	r3, .L53+20
 1690 007e 9B68     		ldr	r3, [r3, #8]
 1691 0080 B3F92620 		ldrsh	r2, [r3, #38]
 1692 0084 2D4B     		ldr	r3, .L53+16
 1693 0086 DA84     		strh	r2, [r3, #38]	@ movhi
 382:..\..\..\lvgl\version_6.1.2\lvgl\src\lv_themes/lv_theme_material.c ****     week_box.body.border.color   = theme.style.panel->body.border.color;
 1694              		.loc 2 382 0
 1695 0088 2D4B     		ldr	r3, .L53+20
 1696 008a 9B68     		ldr	r3, [r3, #8]
 1697 008c 2B4A     		ldr	r2, .L53+16
 1698 008e 1B69     		ldr	r3, [r3, #16]
 1699 0090 1361     		str	r3, [r2, #16]
 383:..\..\..\lvgl\version_6.1.2\lvgl\src\lv_themes/lv_theme_material.c ****     week_box.body.border.width   = theme.style.panel->body.border.width;
 1700              		.loc 2 383 0
 1701 0092 2B4B     		ldr	r3, .L53+20
 1702 0094 9B68     		ldr	r3, [r3, #8]
 1703 0096 B3F91420 		ldrsh	r2, [r3, #20]
 1704 009a 284B     		ldr	r3, .L53+16
 1705 009c 9A82     		strh	r2, [r3, #20]	@ movhi
 384:..\..\..\lvgl\version_6.1.2\lvgl\src\lv_themes/lv_theme_material.c ****     week_box.body.border.part    = LV_BORDER_LEFT | LV_BORDER_RIGHT;
 1706              		.loc 2 384 0
 1707 009e 274B     		ldr	r3, .L53+16
 1708 00a0 0C22     		movs	r2, #12
 1709 00a2 9A75     		strb	r2, [r3, #22]
 385:..\..\..\lvgl\version_6.1.2\lvgl\src\lv_themes/lv_theme_material.c ****     week_box.body.radius         = 0;
 1710              		.loc 2 385 0
 1711 00a4 254B     		ldr	r3, .L53+16
 1712 00a6 0022     		movs	r2, #0
 1713 00a8 9A81     		strh	r2, [r3, #12]	@ movhi
 386:..\..\..\lvgl\version_6.1.2\lvgl\src\lv_themes/lv_theme_material.c **** 
 387:..\..\..\lvgl\version_6.1.2\lvgl\src\lv_themes/lv_theme_material.c ****     static lv_style_t today_box;
 388:..\..\..\lvgl\version_6.1.2\lvgl\src\lv_themes/lv_theme_material.c ****     lv_style_copy(&today_box, &def);
 1714              		.loc 2 388 0
 1715 00aa 2049     		ldr	r1, .L53
 1716 00ac 2548     		ldr	r0, .L53+24
 1717 00ae FFF7FEFF 		bl	lv_style_copy
 389:..\..\..\lvgl\version_6.1.2\lvgl\src\lv_themes/lv_theme_material.c ****     today_box.body.main_color     = LV_COLOR_WHITE;
 1718              		.loc 2 389 0
 1719 00b2 244B     		ldr	r3, .L53+24
 1720 00b4 FF22     		movs	r2, #255
 1721 00b6 1A71     		strb	r2, [r3, #4]
 1722 00b8 224B     		ldr	r3, .L53+24
 1723 00ba FF22     		movs	r2, #255
 1724 00bc 5A71     		strb	r2, [r3, #5]
 1725 00be 214B     		ldr	r3, .L53+24
 1726 00c0 FF22     		movs	r2, #255
 1727 00c2 9A71     		strb	r2, [r3, #6]
 1728 00c4 1F4B     		ldr	r3, .L53+24
 1729 00c6 FF22     		movs	r2, #255
 1730 00c8 DA71     		strb	r2, [r3, #7]
ARM GAS  C:\Users\tmj32\AppData\Local\Temp\cc8DwYg3.s 			page 47


 390:..\..\..\lvgl\version_6.1.2\lvgl\src\lv_themes/lv_theme_material.c ****     today_box.body.grad_color     = LV_COLOR_WHITE;
 1731              		.loc 2 390 0
 1732 00ca 1E4B     		ldr	r3, .L53+24
 1733 00cc FF22     		movs	r2, #255
 1734 00ce 1A72     		strb	r2, [r3, #8]
 1735 00d0 1C4B     		ldr	r3, .L53+24
 1736 00d2 FF22     		movs	r2, #255
 1737 00d4 5A72     		strb	r2, [r3, #9]
 1738 00d6 1B4B     		ldr	r3, .L53+24
 1739 00d8 FF22     		movs	r2, #255
 1740 00da 9A72     		strb	r2, [r3, #10]
 1741 00dc 194B     		ldr	r3, .L53+24
 1742 00de FF22     		movs	r2, #255
 1743 00e0 DA72     		strb	r2, [r3, #11]
 391:..\..\..\lvgl\version_6.1.2\lvgl\src\lv_themes/lv_theme_material.c ****     today_box.body.padding.top    = LV_DPI / 20;
 1744              		.loc 2 391 0
 1745 00e2 184B     		ldr	r3, .L53+24
 1746 00e4 0722     		movs	r2, #7
 1747 00e6 1A84     		strh	r2, [r3, #32]	@ movhi
 392:..\..\..\lvgl\version_6.1.2\lvgl\src\lv_themes/lv_theme_material.c ****     today_box.body.padding.bottom = LV_DPI / 20;
 1748              		.loc 2 392 0
 1749 00e8 164B     		ldr	r3, .L53+24
 1750 00ea 0722     		movs	r2, #7
 1751 00ec 5A84     		strh	r2, [r3, #34]	@ movhi
 393:..\..\..\lvgl\version_6.1.2\lvgl\src\lv_themes/lv_theme_material.c ****     today_box.body.radius         = 0;
 1752              		.loc 2 393 0
 1753 00ee 154B     		ldr	r3, .L53+24
 1754 00f0 0022     		movs	r2, #0
 1755 00f2 9A81     		strh	r2, [r3, #12]	@ movhi
 394:..\..\..\lvgl\version_6.1.2\lvgl\src\lv_themes/lv_theme_material.c **** 
 395:..\..\..\lvgl\version_6.1.2\lvgl\src\lv_themes/lv_theme_material.c ****     theme.style.calendar.bg               = theme.style.panel;
 1756              		.loc 2 395 0
 1757 00f4 124B     		ldr	r3, .L53+20
 1758 00f6 9B68     		ldr	r3, [r3, #8]
 1759 00f8 114A     		ldr	r2, .L53+20
 1760 00fa C2F88C30 		str	r3, [r2, #140]
 396:..\..\..\lvgl\version_6.1.2\lvgl\src\lv_themes/lv_theme_material.c ****     theme.style.calendar.header           = &lv_style_transp;
 1761              		.loc 2 396 0
 1762 00fe 104B     		ldr	r3, .L53+20
 1763 0100 114A     		ldr	r2, .L53+28
 1764 0102 C3F89020 		str	r2, [r3, #144]
 397:..\..\..\lvgl\version_6.1.2\lvgl\src\lv_themes/lv_theme_material.c ****     theme.style.calendar.inactive_days    = &ina_days;
 1765              		.loc 2 397 0
 1766 0106 0E4B     		ldr	r3, .L53+20
 1767 0108 094A     		ldr	r2, .L53+4
 1768 010a C3F8A020 		str	r2, [r3, #160]
 398:..\..\..\lvgl\version_6.1.2\lvgl\src\lv_themes/lv_theme_material.c ****     theme.style.calendar.highlighted_days = &high_days;
 1769              		.loc 2 398 0
 1770 010e 0C4B     		ldr	r3, .L53+20
 1771 0110 094A     		ldr	r2, .L53+12
 1772 0112 C3F89C20 		str	r2, [r3, #156]
 399:..\..\..\lvgl\version_6.1.2\lvgl\src\lv_themes/lv_theme_material.c ****     theme.style.calendar.week_box         = &week_box;
 1773              		.loc 2 399 0
 1774 0116 0A4B     		ldr	r3, .L53+20
 1775 0118 084A     		ldr	r2, .L53+16
 1776 011a C3F8A420 		str	r2, [r3, #164]
 400:..\..\..\lvgl\version_6.1.2\lvgl\src\lv_themes/lv_theme_material.c ****     theme.style.calendar.today_box        = &today_box;
ARM GAS  C:\Users\tmj32\AppData\Local\Temp\cc8DwYg3.s 			page 48


 1777              		.loc 2 400 0
 1778 011e 084B     		ldr	r3, .L53+20
 1779 0120 084A     		ldr	r2, .L53+24
 1780 0122 C3F8A820 		str	r2, [r3, #168]
 401:..\..\..\lvgl\version_6.1.2\lvgl\src\lv_themes/lv_theme_material.c **** #endif
 402:..\..\..\lvgl\version_6.1.2\lvgl\src\lv_themes/lv_theme_material.c **** }
 1781              		.loc 2 402 0
 1782 0126 00BF     		nop
 1783 0128 98BD     		pop	{r3, r4, r7, pc}
 1784              	.L54:
 1785 012a 00BF     		.align	2
 1786              	.L53:
 1787 012c A8010000 		.word	def
 1788 0130 D0090000 		.word	ina_days.6020
 1789 0134 48020000 		.word	_hue
 1790 0138 200A0000 		.word	high_days.6021
 1791 013c 700A0000 		.word	week_box.6022
 1792 0140 00000000 		.word	theme
 1793 0144 C00A0000 		.word	today_box.6023
 1794 0148 00000000 		.word	lv_style_transp
 1795              		.cfi_endproc
 1796              	.LFE46:
 1797              		.size	calendar_init, .-calendar_init
 1798              		.section	.text.cb_init,"ax",%progbits
 1799              		.align	2
 1800              		.thumb
 1801              		.thumb_func
 1802              		.type	cb_init, %function
 1803              	cb_init:
 1804              	.LFB47:
 403:..\..\..\lvgl\version_6.1.2\lvgl\src\lv_themes/lv_theme_material.c **** 
 404:..\..\..\lvgl\version_6.1.2\lvgl\src\lv_themes/lv_theme_material.c **** static void cb_init(void)
 405:..\..\..\lvgl\version_6.1.2\lvgl\src\lv_themes/lv_theme_material.c **** {
 1805              		.loc 2 405 0
 1806              		.cfi_startproc
 1807              		@ args = 0, pretend = 0, frame = 0
 1808              		@ frame_needed = 1, uses_anonymous_args = 0
 1809 0000 98B5     		push	{r3, r4, r7, lr}
 1810              		.cfi_def_cfa_offset 16
 1811              		.cfi_offset 3, -16
 1812              		.cfi_offset 4, -12
 1813              		.cfi_offset 7, -8
 1814              		.cfi_offset 14, -4
 1815 0002 00AF     		add	r7, sp, #0
 1816              		.cfi_def_cfa_register 7
 406:..\..\..\lvgl\version_6.1.2\lvgl\src\lv_themes/lv_theme_material.c **** #if LV_USE_CB != 0
 407:..\..\..\lvgl\version_6.1.2\lvgl\src\lv_themes/lv_theme_material.c ****     static lv_style_t rel, pr, tgl_rel, tgl_pr, ina;
 408:..\..\..\lvgl\version_6.1.2\lvgl\src\lv_themes/lv_theme_material.c ****     lv_style_copy(&rel, theme.style.panel);
 1817              		.loc 2 408 0
 1818 0004 334B     		ldr	r3, .L56
 1819 0006 9B68     		ldr	r3, [r3, #8]
 1820 0008 1946     		mov	r1, r3
 1821 000a 3348     		ldr	r0, .L56+4
 1822 000c FFF7FEFF 		bl	lv_style_copy
 409:..\..\..\lvgl\version_6.1.2\lvgl\src\lv_themes/lv_theme_material.c ****     rel.body.shadow.type  = LV_SHADOW_BOTTOM;
 1823              		.loc 2 409 0
 1824 0010 314B     		ldr	r3, .L56+4
ARM GAS  C:\Users\tmj32\AppData\Local\Temp\cc8DwYg3.s 			page 49


 1825 0012 0022     		movs	r2, #0
 1826 0014 9A77     		strb	r2, [r3, #30]
 410:..\..\..\lvgl\version_6.1.2\lvgl\src\lv_themes/lv_theme_material.c ****     rel.body.shadow.width = 3;
 1827              		.loc 2 410 0
 1828 0016 304B     		ldr	r3, .L56+4
 1829 0018 0322     		movs	r2, #3
 1830 001a 9A83     		strh	r2, [r3, #28]	@ movhi
 411:..\..\..\lvgl\version_6.1.2\lvgl\src\lv_themes/lv_theme_material.c **** 
 412:..\..\..\lvgl\version_6.1.2\lvgl\src\lv_themes/lv_theme_material.c ****     lv_style_copy(&pr, &rel);
 1831              		.loc 2 412 0
 1832 001c 2E49     		ldr	r1, .L56+4
 1833 001e 2F48     		ldr	r0, .L56+8
 1834 0020 FFF7FEFF 		bl	lv_style_copy
 413:..\..\..\lvgl\version_6.1.2\lvgl\src\lv_themes/lv_theme_material.c ****     pr.body.main_color   = lv_color_hex3(0xccc);
 1835              		.loc 2 413 0
 1836 0024 2D4C     		ldr	r4, .L56+8
 1837 0026 40F6CC40 		movw	r0, #3276
 1838 002a FFF7FEFF 		bl	lv_color_hex3
 1839 002e 6060     		str	r0, [r4, #4]
 414:..\..\..\lvgl\version_6.1.2\lvgl\src\lv_themes/lv_theme_material.c ****     pr.body.grad_color   = pr.body.main_color;
 1840              		.loc 2 414 0
 1841 0030 2A4A     		ldr	r2, .L56+8
 1842 0032 2A4B     		ldr	r3, .L56+8
 1843 0034 5B68     		ldr	r3, [r3, #4]
 1844 0036 9360     		str	r3, [r2, #8]
 415:..\..\..\lvgl\version_6.1.2\lvgl\src\lv_themes/lv_theme_material.c ****     pr.body.shadow.width = 0;
 1845              		.loc 2 415 0
 1846 0038 284B     		ldr	r3, .L56+8
 1847 003a 0022     		movs	r2, #0
 1848 003c 9A83     		strh	r2, [r3, #28]	@ movhi
 416:..\..\..\lvgl\version_6.1.2\lvgl\src\lv_themes/lv_theme_material.c **** 
 417:..\..\..\lvgl\version_6.1.2\lvgl\src\lv_themes/lv_theme_material.c ****     lv_style_copy(&tgl_rel, &rel);
 1849              		.loc 2 417 0
 1850 003e 2649     		ldr	r1, .L56+4
 1851 0040 2748     		ldr	r0, .L56+12
 1852 0042 FFF7FEFF 		bl	lv_style_copy
 418:..\..\..\lvgl\version_6.1.2\lvgl\src\lv_themes/lv_theme_material.c ****     tgl_rel.body.main_color   = lv_color_hsv_to_rgb(_hue, 75, 85);
 1853              		.loc 2 418 0
 1854 0046 274B     		ldr	r3, .L56+16
 1855 0048 1B88     		ldrh	r3, [r3]
 1856 004a 254C     		ldr	r4, .L56+12
 1857 004c 5522     		movs	r2, #85
 1858 004e 4B21     		movs	r1, #75
 1859 0050 1846     		mov	r0, r3
 1860 0052 FFF7FEFF 		bl	lv_color_hsv_to_rgb
 1861 0056 6060     		str	r0, [r4, #4]
 419:..\..\..\lvgl\version_6.1.2\lvgl\src\lv_themes/lv_theme_material.c ****     tgl_rel.body.grad_color   = tgl_rel.body.main_color;
 1862              		.loc 2 419 0
 1863 0058 214A     		ldr	r2, .L56+12
 1864 005a 214B     		ldr	r3, .L56+12
 1865 005c 5B68     		ldr	r3, [r3, #4]
 1866 005e 9360     		str	r3, [r2, #8]
 420:..\..\..\lvgl\version_6.1.2\lvgl\src\lv_themes/lv_theme_material.c ****     tgl_rel.body.shadow.type  = LV_SHADOW_FULL;
 1867              		.loc 2 420 0
 1868 0060 1F4B     		ldr	r3, .L56+12
 1869 0062 0122     		movs	r2, #1
 1870 0064 9A77     		strb	r2, [r3, #30]
ARM GAS  C:\Users\tmj32\AppData\Local\Temp\cc8DwYg3.s 			page 50


 421:..\..\..\lvgl\version_6.1.2\lvgl\src\lv_themes/lv_theme_material.c ****     tgl_rel.body.shadow.width = 0;
 1871              		.loc 2 421 0
 1872 0066 1E4B     		ldr	r3, .L56+12
 1873 0068 0022     		movs	r2, #0
 1874 006a 9A83     		strh	r2, [r3, #28]	@ movhi
 422:..\..\..\lvgl\version_6.1.2\lvgl\src\lv_themes/lv_theme_material.c **** 
 423:..\..\..\lvgl\version_6.1.2\lvgl\src\lv_themes/lv_theme_material.c ****     lv_style_copy(&tgl_pr, &tgl_rel);
 1875              		.loc 2 423 0
 1876 006c 1C49     		ldr	r1, .L56+12
 1877 006e 1E48     		ldr	r0, .L56+20
 1878 0070 FFF7FEFF 		bl	lv_style_copy
 424:..\..\..\lvgl\version_6.1.2\lvgl\src\lv_themes/lv_theme_material.c ****     tgl_pr.body.main_color   = lv_color_hsv_to_rgb(_hue, 75, 65);
 1879              		.loc 2 424 0
 1880 0074 1B4B     		ldr	r3, .L56+16
 1881 0076 1B88     		ldrh	r3, [r3]
 1882 0078 1B4C     		ldr	r4, .L56+20
 1883 007a 4122     		movs	r2, #65
 1884 007c 4B21     		movs	r1, #75
 1885 007e 1846     		mov	r0, r3
 1886 0080 FFF7FEFF 		bl	lv_color_hsv_to_rgb
 1887 0084 6060     		str	r0, [r4, #4]
 425:..\..\..\lvgl\version_6.1.2\lvgl\src\lv_themes/lv_theme_material.c ****     tgl_pr.body.grad_color   = tgl_pr.body.main_color;
 1888              		.loc 2 425 0
 1889 0086 184A     		ldr	r2, .L56+20
 1890 0088 174B     		ldr	r3, .L56+20
 1891 008a 5B68     		ldr	r3, [r3, #4]
 1892 008c 9360     		str	r3, [r2, #8]
 426:..\..\..\lvgl\version_6.1.2\lvgl\src\lv_themes/lv_theme_material.c ****     tgl_pr.body.shadow.width = 0;
 1893              		.loc 2 426 0
 1894 008e 164B     		ldr	r3, .L56+20
 1895 0090 0022     		movs	r2, #0
 1896 0092 9A83     		strh	r2, [r3, #28]	@ movhi
 427:..\..\..\lvgl\version_6.1.2\lvgl\src\lv_themes/lv_theme_material.c **** 
 428:..\..\..\lvgl\version_6.1.2\lvgl\src\lv_themes/lv_theme_material.c ****     lv_style_copy(&ina, theme.style.btn.ina);
 1897              		.loc 2 428 0
 1898 0094 0F4B     		ldr	r3, .L56
 1899 0096 1B6A     		ldr	r3, [r3, #32]
 1900 0098 1946     		mov	r1, r3
 1901 009a 1448     		ldr	r0, .L56+24
 1902 009c FFF7FEFF 		bl	lv_style_copy
 429:..\..\..\lvgl\version_6.1.2\lvgl\src\lv_themes/lv_theme_material.c **** 
 430:..\..\..\lvgl\version_6.1.2\lvgl\src\lv_themes/lv_theme_material.c ****     theme.style.cb.bg          = &lv_style_transp;
 1903              		.loc 2 430 0
 1904 00a0 0C4B     		ldr	r3, .L56
 1905 00a2 134A     		ldr	r2, .L56+28
 1906 00a4 C3F8AC20 		str	r2, [r3, #172]
 431:..\..\..\lvgl\version_6.1.2\lvgl\src\lv_themes/lv_theme_material.c ****     theme.style.cb.box.rel     = &rel;
 1907              		.loc 2 431 0
 1908 00a8 0A4B     		ldr	r3, .L56
 1909 00aa 0B4A     		ldr	r2, .L56+4
 1910 00ac C3F8B020 		str	r2, [r3, #176]
 432:..\..\..\lvgl\version_6.1.2\lvgl\src\lv_themes/lv_theme_material.c ****     theme.style.cb.box.pr      = &pr;
 1911              		.loc 2 432 0
 1912 00b0 084B     		ldr	r3, .L56
 1913 00b2 0A4A     		ldr	r2, .L56+8
 1914 00b4 C3F8B420 		str	r2, [r3, #180]
 433:..\..\..\lvgl\version_6.1.2\lvgl\src\lv_themes/lv_theme_material.c ****     theme.style.cb.box.tgl_rel = &tgl_rel;
ARM GAS  C:\Users\tmj32\AppData\Local\Temp\cc8DwYg3.s 			page 51


 1915              		.loc 2 433 0
 1916 00b8 064B     		ldr	r3, .L56
 1917 00ba 094A     		ldr	r2, .L56+12
 1918 00bc C3F8B820 		str	r2, [r3, #184]
 434:..\..\..\lvgl\version_6.1.2\lvgl\src\lv_themes/lv_theme_material.c ****     theme.style.cb.box.tgl_pr  = &tgl_pr;
 1919              		.loc 2 434 0
 1920 00c0 044B     		ldr	r3, .L56
 1921 00c2 094A     		ldr	r2, .L56+20
 1922 00c4 C3F8BC20 		str	r2, [r3, #188]
 435:..\..\..\lvgl\version_6.1.2\lvgl\src\lv_themes/lv_theme_material.c ****     theme.style.cb.box.ina     = &ina;
 1923              		.loc 2 435 0
 1924 00c8 024B     		ldr	r3, .L56
 1925 00ca 084A     		ldr	r2, .L56+24
 1926 00cc C3F8C020 		str	r2, [r3, #192]
 436:..\..\..\lvgl\version_6.1.2\lvgl\src\lv_themes/lv_theme_material.c **** #endif
 437:..\..\..\lvgl\version_6.1.2\lvgl\src\lv_themes/lv_theme_material.c **** }
 1927              		.loc 2 437 0
 1928 00d0 00BF     		nop
 1929 00d2 98BD     		pop	{r3, r4, r7, pc}
 1930              	.L57:
 1931              		.align	2
 1932              	.L56:
 1933 00d4 00000000 		.word	theme
 1934 00d8 100B0000 		.word	rel.6029
 1935 00dc 600B0000 		.word	pr.6030
 1936 00e0 B00B0000 		.word	tgl_rel.6031
 1937 00e4 48020000 		.word	_hue
 1938 00e8 000C0000 		.word	tgl_pr.6032
 1939 00ec 500C0000 		.word	ina.6033
 1940 00f0 00000000 		.word	lv_style_transp
 1941              		.cfi_endproc
 1942              	.LFE47:
 1943              		.size	cb_init, .-cb_init
 1944              		.section	.text.btnm_init,"ax",%progbits
 1945              		.align	2
 1946              		.thumb
 1947              		.thumb_func
 1948              		.type	btnm_init, %function
 1949              	btnm_init:
 1950              	.LFB48:
 438:..\..\..\lvgl\version_6.1.2\lvgl\src\lv_themes/lv_theme_material.c **** 
 439:..\..\..\lvgl\version_6.1.2\lvgl\src\lv_themes/lv_theme_material.c **** static void btnm_init(void)
 440:..\..\..\lvgl\version_6.1.2\lvgl\src\lv_themes/lv_theme_material.c **** {
 1951              		.loc 2 440 0
 1952              		.cfi_startproc
 1953              		@ args = 0, pretend = 0, frame = 0
 1954              		@ frame_needed = 1, uses_anonymous_args = 0
 1955 0000 98B5     		push	{r3, r4, r7, lr}
 1956              		.cfi_def_cfa_offset 16
 1957              		.cfi_offset 3, -16
 1958              		.cfi_offset 4, -12
 1959              		.cfi_offset 7, -8
 1960              		.cfi_offset 14, -4
 1961 0002 00AF     		add	r7, sp, #0
 1962              		.cfi_def_cfa_register 7
 441:..\..\..\lvgl\version_6.1.2\lvgl\src\lv_themes/lv_theme_material.c **** #if LV_USE_BTNM
 442:..\..\..\lvgl\version_6.1.2\lvgl\src\lv_themes/lv_theme_material.c ****     static lv_style_t bg, rel, pr, tgl_rel, tgl_pr, ina;
ARM GAS  C:\Users\tmj32\AppData\Local\Temp\cc8DwYg3.s 			page 52


 443:..\..\..\lvgl\version_6.1.2\lvgl\src\lv_themes/lv_theme_material.c **** 
 444:..\..\..\lvgl\version_6.1.2\lvgl\src\lv_themes/lv_theme_material.c ****     lv_style_copy(&bg, theme.style.panel);
 1963              		.loc 2 444 0
 1964 0004 504B     		ldr	r3, .L59
 1965 0006 9B68     		ldr	r3, [r3, #8]
 1966 0008 1946     		mov	r1, r3
 1967 000a 5048     		ldr	r0, .L59+4
 1968 000c FFF7FEFF 		bl	lv_style_copy
 445:..\..\..\lvgl\version_6.1.2\lvgl\src\lv_themes/lv_theme_material.c ****     bg.body.padding.left   = 0;
 1969              		.loc 2 445 0
 1970 0010 4E4B     		ldr	r3, .L59+4
 1971 0012 0022     		movs	r2, #0
 1972 0014 9A84     		strh	r2, [r3, #36]	@ movhi
 446:..\..\..\lvgl\version_6.1.2\lvgl\src\lv_themes/lv_theme_material.c ****     bg.body.padding.right  = 0;
 1973              		.loc 2 446 0
 1974 0016 4D4B     		ldr	r3, .L59+4
 1975 0018 0022     		movs	r2, #0
 1976 001a DA84     		strh	r2, [r3, #38]	@ movhi
 447:..\..\..\lvgl\version_6.1.2\lvgl\src\lv_themes/lv_theme_material.c ****     bg.body.padding.top    = 0;
 1977              		.loc 2 447 0
 1978 001c 4B4B     		ldr	r3, .L59+4
 1979 001e 0022     		movs	r2, #0
 1980 0020 1A84     		strh	r2, [r3, #32]	@ movhi
 448:..\..\..\lvgl\version_6.1.2\lvgl\src\lv_themes/lv_theme_material.c ****     bg.body.padding.bottom = 0;
 1981              		.loc 2 448 0
 1982 0022 4A4B     		ldr	r3, .L59+4
 1983 0024 0022     		movs	r2, #0
 1984 0026 5A84     		strh	r2, [r3, #34]	@ movhi
 449:..\..\..\lvgl\version_6.1.2\lvgl\src\lv_themes/lv_theme_material.c ****     bg.body.padding.inner  = 0;
 1985              		.loc 2 449 0
 1986 0028 484B     		ldr	r3, .L59+4
 1987 002a 0022     		movs	r2, #0
 1988 002c 1A85     		strh	r2, [r3, #40]	@ movhi
 450:..\..\..\lvgl\version_6.1.2\lvgl\src\lv_themes/lv_theme_material.c ****     bg.text.color          = lv_color_hex3(0x555);
 1989              		.loc 2 450 0
 1990 002e 474C     		ldr	r4, .L59+4
 1991 0030 40F25550 		movw	r0, #1365
 1992 0034 FFF7FEFF 		bl	lv_color_hex3
 1993 0038 E062     		str	r0, [r4, #44]
 451:..\..\..\lvgl\version_6.1.2\lvgl\src\lv_themes/lv_theme_material.c **** 
 452:..\..\..\lvgl\version_6.1.2\lvgl\src\lv_themes/lv_theme_material.c ****     lv_style_copy(&rel, theme.style.panel);
 1994              		.loc 2 452 0
 1995 003a 434B     		ldr	r3, .L59
 1996 003c 9B68     		ldr	r3, [r3, #8]
 1997 003e 1946     		mov	r1, r3
 1998 0040 4348     		ldr	r0, .L59+8
 1999 0042 FFF7FEFF 		bl	lv_style_copy
 453:..\..\..\lvgl\version_6.1.2\lvgl\src\lv_themes/lv_theme_material.c ****     rel.body.border.part  = LV_BORDER_FULL | LV_BORDER_INTERNAL;
 2000              		.loc 2 453 0
 2001 0046 424B     		ldr	r3, .L59+8
 2002 0048 1F22     		movs	r2, #31
 2003 004a 9A75     		strb	r2, [r3, #22]
 454:..\..\..\lvgl\version_6.1.2\lvgl\src\lv_themes/lv_theme_material.c ****     rel.body.border.width = 1;
 2004              		.loc 2 454 0
 2005 004c 404B     		ldr	r3, .L59+8
 2006 004e 0122     		movs	r2, #1
 2007 0050 9A82     		strh	r2, [r3, #20]	@ movhi
ARM GAS  C:\Users\tmj32\AppData\Local\Temp\cc8DwYg3.s 			page 53


 455:..\..\..\lvgl\version_6.1.2\lvgl\src\lv_themes/lv_theme_material.c ****     rel.body.border.color = lv_color_hex3(0xbbb);
 2008              		.loc 2 455 0
 2009 0052 3F4C     		ldr	r4, .L59+8
 2010 0054 40F6BB30 		movw	r0, #3003
 2011 0058 FFF7FEFF 		bl	lv_color_hex3
 2012 005c 2061     		str	r0, [r4, #16]
 456:..\..\..\lvgl\version_6.1.2\lvgl\src\lv_themes/lv_theme_material.c ****     rel.body.opa          = LV_OPA_TRANSP;
 2013              		.loc 2 456 0
 2014 005e 3C4B     		ldr	r3, .L59+8
 2015 0060 0022     		movs	r2, #0
 2016 0062 9A73     		strb	r2, [r3, #14]
 457:..\..\..\lvgl\version_6.1.2\lvgl\src\lv_themes/lv_theme_material.c ****     rel.body.shadow.width = 0;
 2017              		.loc 2 457 0
 2018 0064 3A4B     		ldr	r3, .L59+8
 2019 0066 0022     		movs	r2, #0
 2020 0068 9A83     		strh	r2, [r3, #28]	@ movhi
 458:..\..\..\lvgl\version_6.1.2\lvgl\src\lv_themes/lv_theme_material.c **** 
 459:..\..\..\lvgl\version_6.1.2\lvgl\src\lv_themes/lv_theme_material.c ****     lv_style_copy(&pr, &rel);
 2021              		.loc 2 459 0
 2022 006a 3949     		ldr	r1, .L59+8
 2023 006c 3948     		ldr	r0, .L59+12
 2024 006e FFF7FEFF 		bl	lv_style_copy
 460:..\..\..\lvgl\version_6.1.2\lvgl\src\lv_themes/lv_theme_material.c ****     pr.glass             = 0;
 2025              		.loc 2 460 0
 2026 0072 384A     		ldr	r2, .L59+12
 2027 0074 1378     		ldrb	r3, [r2]
 2028 0076 6FF30003 		bfc	r3, #0, #1
 2029 007a 1370     		strb	r3, [r2]
 461:..\..\..\lvgl\version_6.1.2\lvgl\src\lv_themes/lv_theme_material.c ****     pr.body.main_color   = lv_color_hex3(0xddd);
 2030              		.loc 2 461 0
 2031 007c 354C     		ldr	r4, .L59+12
 2032 007e 40F6DD50 		movw	r0, #3549
 2033 0082 FFF7FEFF 		bl	lv_color_hex3
 2034 0086 6060     		str	r0, [r4, #4]
 462:..\..\..\lvgl\version_6.1.2\lvgl\src\lv_themes/lv_theme_material.c ****     pr.body.grad_color   = pr.body.main_color;
 2035              		.loc 2 462 0
 2036 0088 324A     		ldr	r2, .L59+12
 2037 008a 324B     		ldr	r3, .L59+12
 2038 008c 5B68     		ldr	r3, [r3, #4]
 2039 008e 9360     		str	r3, [r2, #8]
 463:..\..\..\lvgl\version_6.1.2\lvgl\src\lv_themes/lv_theme_material.c ****     pr.body.border.width = 0;
 2040              		.loc 2 463 0
 2041 0090 304B     		ldr	r3, .L59+12
 2042 0092 0022     		movs	r2, #0
 2043 0094 9A82     		strh	r2, [r3, #20]	@ movhi
 464:..\..\..\lvgl\version_6.1.2\lvgl\src\lv_themes/lv_theme_material.c ****     pr.body.opa          = LV_OPA_COVER;
 2044              		.loc 2 464 0
 2045 0096 2F4B     		ldr	r3, .L59+12
 2046 0098 FF22     		movs	r2, #255
 2047 009a 9A73     		strb	r2, [r3, #14]
 465:..\..\..\lvgl\version_6.1.2\lvgl\src\lv_themes/lv_theme_material.c **** 
 466:..\..\..\lvgl\version_6.1.2\lvgl\src\lv_themes/lv_theme_material.c ****     lv_style_copy(&tgl_rel, &pr);
 2048              		.loc 2 466 0
 2049 009c 2D49     		ldr	r1, .L59+12
 2050 009e 2E48     		ldr	r0, .L59+16
 2051 00a0 FFF7FEFF 		bl	lv_style_copy
 467:..\..\..\lvgl\version_6.1.2\lvgl\src\lv_themes/lv_theme_material.c ****     tgl_rel.body.main_color = lv_color_hsv_to_rgb(_hue, 90, 70);
ARM GAS  C:\Users\tmj32\AppData\Local\Temp\cc8DwYg3.s 			page 54


 2052              		.loc 2 467 0
 2053 00a4 2D4B     		ldr	r3, .L59+20
 2054 00a6 1B88     		ldrh	r3, [r3]
 2055 00a8 2B4C     		ldr	r4, .L59+16
 2056 00aa 4622     		movs	r2, #70
 2057 00ac 5A21     		movs	r1, #90
 2058 00ae 1846     		mov	r0, r3
 2059 00b0 FFF7FEFF 		bl	lv_color_hsv_to_rgb
 2060 00b4 6060     		str	r0, [r4, #4]
 468:..\..\..\lvgl\version_6.1.2\lvgl\src\lv_themes/lv_theme_material.c ****     tgl_rel.body.grad_color = tgl_rel.body.main_color;
 2061              		.loc 2 468 0
 2062 00b6 284A     		ldr	r2, .L59+16
 2063 00b8 274B     		ldr	r3, .L59+16
 2064 00ba 5B68     		ldr	r3, [r3, #4]
 2065 00bc 9360     		str	r3, [r2, #8]
 469:..\..\..\lvgl\version_6.1.2\lvgl\src\lv_themes/lv_theme_material.c ****     tgl_rel.text.color      = lv_color_hsv_to_rgb(_hue, 5, 95);
 2066              		.loc 2 469 0
 2067 00be 274B     		ldr	r3, .L59+20
 2068 00c0 1B88     		ldrh	r3, [r3]
 2069 00c2 254C     		ldr	r4, .L59+16
 2070 00c4 5F22     		movs	r2, #95
 2071 00c6 0521     		movs	r1, #5
 2072 00c8 1846     		mov	r0, r3
 2073 00ca FFF7FEFF 		bl	lv_color_hsv_to_rgb
 2074 00ce E062     		str	r0, [r4, #44]
 470:..\..\..\lvgl\version_6.1.2\lvgl\src\lv_themes/lv_theme_material.c **** 
 471:..\..\..\lvgl\version_6.1.2\lvgl\src\lv_themes/lv_theme_material.c ****     lv_style_copy(&tgl_pr, &tgl_rel);
 2075              		.loc 2 471 0
 2076 00d0 2149     		ldr	r1, .L59+16
 2077 00d2 2348     		ldr	r0, .L59+24
 2078 00d4 FFF7FEFF 		bl	lv_style_copy
 472:..\..\..\lvgl\version_6.1.2\lvgl\src\lv_themes/lv_theme_material.c ****     tgl_pr.body.main_color   = lv_color_hsv_to_rgb(_hue, 95, 65);
 2079              		.loc 2 472 0
 2080 00d8 204B     		ldr	r3, .L59+20
 2081 00da 1B88     		ldrh	r3, [r3]
 2082 00dc 204C     		ldr	r4, .L59+24
 2083 00de 4122     		movs	r2, #65
 2084 00e0 5F21     		movs	r1, #95
 2085 00e2 1846     		mov	r0, r3
 2086 00e4 FFF7FEFF 		bl	lv_color_hsv_to_rgb
 2087 00e8 6060     		str	r0, [r4, #4]
 473:..\..\..\lvgl\version_6.1.2\lvgl\src\lv_themes/lv_theme_material.c ****     tgl_pr.body.grad_color   = tgl_pr.body.main_color;
 2088              		.loc 2 473 0
 2089 00ea 1D4A     		ldr	r2, .L59+24
 2090 00ec 1C4B     		ldr	r3, .L59+24
 2091 00ee 5B68     		ldr	r3, [r3, #4]
 2092 00f0 9360     		str	r3, [r2, #8]
 474:..\..\..\lvgl\version_6.1.2\lvgl\src\lv_themes/lv_theme_material.c ****     tgl_pr.body.border.width = 0;
 2093              		.loc 2 474 0
 2094 00f2 1B4B     		ldr	r3, .L59+24
 2095 00f4 0022     		movs	r2, #0
 2096 00f6 9A82     		strh	r2, [r3, #20]	@ movhi
 475:..\..\..\lvgl\version_6.1.2\lvgl\src\lv_themes/lv_theme_material.c **** 
 476:..\..\..\lvgl\version_6.1.2\lvgl\src\lv_themes/lv_theme_material.c ****     lv_style_copy(&ina, &pr);
 2097              		.loc 2 476 0
 2098 00f8 1649     		ldr	r1, .L59+12
 2099 00fa 1A48     		ldr	r0, .L59+28
ARM GAS  C:\Users\tmj32\AppData\Local\Temp\cc8DwYg3.s 			page 55


 2100 00fc FFF7FEFF 		bl	lv_style_copy
 477:..\..\..\lvgl\version_6.1.2\lvgl\src\lv_themes/lv_theme_material.c ****     ina.body.main_color = lv_color_hex3(0xccc);
 2101              		.loc 2 477 0
 2102 0100 184C     		ldr	r4, .L59+28
 2103 0102 40F6CC40 		movw	r0, #3276
 2104 0106 FFF7FEFF 		bl	lv_color_hex3
 2105 010a 6060     		str	r0, [r4, #4]
 478:..\..\..\lvgl\version_6.1.2\lvgl\src\lv_themes/lv_theme_material.c ****     ina.body.grad_color = ina.body.main_color;
 2106              		.loc 2 478 0
 2107 010c 154A     		ldr	r2, .L59+28
 2108 010e 154B     		ldr	r3, .L59+28
 2109 0110 5B68     		ldr	r3, [r3, #4]
 2110 0112 9360     		str	r3, [r2, #8]
 479:..\..\..\lvgl\version_6.1.2\lvgl\src\lv_themes/lv_theme_material.c **** 
 480:..\..\..\lvgl\version_6.1.2\lvgl\src\lv_themes/lv_theme_material.c ****     theme.style.btnm.bg          = &bg;
 2111              		.loc 2 480 0
 2112 0114 0C4B     		ldr	r3, .L59
 2113 0116 0D4A     		ldr	r2, .L59+4
 2114 0118 C3F8C420 		str	r2, [r3, #196]
 481:..\..\..\lvgl\version_6.1.2\lvgl\src\lv_themes/lv_theme_material.c ****     theme.style.btnm.btn.rel     = &rel;
 2115              		.loc 2 481 0
 2116 011c 0A4B     		ldr	r3, .L59
 2117 011e 0C4A     		ldr	r2, .L59+8
 2118 0120 C3F8C820 		str	r2, [r3, #200]
 482:..\..\..\lvgl\version_6.1.2\lvgl\src\lv_themes/lv_theme_material.c ****     theme.style.btnm.btn.pr      = &pr;
 2119              		.loc 2 482 0
 2120 0124 084B     		ldr	r3, .L59
 2121 0126 0B4A     		ldr	r2, .L59+12
 2122 0128 C3F8CC20 		str	r2, [r3, #204]
 483:..\..\..\lvgl\version_6.1.2\lvgl\src\lv_themes/lv_theme_material.c ****     theme.style.btnm.btn.tgl_rel = &tgl_rel;
 2123              		.loc 2 483 0
 2124 012c 064B     		ldr	r3, .L59
 2125 012e 0A4A     		ldr	r2, .L59+16
 2126 0130 C3F8D020 		str	r2, [r3, #208]
 484:..\..\..\lvgl\version_6.1.2\lvgl\src\lv_themes/lv_theme_material.c ****     theme.style.btnm.btn.tgl_pr  = &tgl_pr;
 2127              		.loc 2 484 0
 2128 0134 044B     		ldr	r3, .L59
 2129 0136 0A4A     		ldr	r2, .L59+24
 2130 0138 C3F8D420 		str	r2, [r3, #212]
 485:..\..\..\lvgl\version_6.1.2\lvgl\src\lv_themes/lv_theme_material.c ****     theme.style.btnm.btn.ina     = &def;
 2131              		.loc 2 485 0
 2132 013c 024B     		ldr	r3, .L59
 2133 013e 0A4A     		ldr	r2, .L59+32
 2134 0140 C3F8D820 		str	r2, [r3, #216]
 486:..\..\..\lvgl\version_6.1.2\lvgl\src\lv_themes/lv_theme_material.c **** #endif
 487:..\..\..\lvgl\version_6.1.2\lvgl\src\lv_themes/lv_theme_material.c **** }
 2135              		.loc 2 487 0
 2136 0144 00BF     		nop
 2137 0146 98BD     		pop	{r3, r4, r7, pc}
 2138              	.L60:
 2139              		.align	2
 2140              	.L59:
 2141 0148 00000000 		.word	theme
 2142 014c A00C0000 		.word	bg.6037
 2143 0150 F00C0000 		.word	rel.6038
 2144 0154 400D0000 		.word	pr.6039
 2145 0158 900D0000 		.word	tgl_rel.6040
ARM GAS  C:\Users\tmj32\AppData\Local\Temp\cc8DwYg3.s 			page 56


 2146 015c 48020000 		.word	_hue
 2147 0160 E00D0000 		.word	tgl_pr.6041
 2148 0164 300E0000 		.word	ina.6042
 2149 0168 A8010000 		.word	def
 2150              		.cfi_endproc
 2151              	.LFE48:
 2152              		.size	btnm_init, .-btnm_init
 2153              		.section	.text.kb_init,"ax",%progbits
 2154              		.align	2
 2155              		.thumb
 2156              		.thumb_func
 2157              		.type	kb_init, %function
 2158              	kb_init:
 2159              	.LFB49:
 488:..\..\..\lvgl\version_6.1.2\lvgl\src\lv_themes/lv_theme_material.c **** 
 489:..\..\..\lvgl\version_6.1.2\lvgl\src\lv_themes/lv_theme_material.c **** static void kb_init(void)
 490:..\..\..\lvgl\version_6.1.2\lvgl\src\lv_themes/lv_theme_material.c **** {
 2160              		.loc 2 490 0
 2161              		.cfi_startproc
 2162              		@ args = 0, pretend = 0, frame = 0
 2163              		@ frame_needed = 1, uses_anonymous_args = 0
 2164 0000 80B5     		push	{r7, lr}
 2165              		.cfi_def_cfa_offset 8
 2166              		.cfi_offset 7, -8
 2167              		.cfi_offset 14, -4
 2168 0002 00AF     		add	r7, sp, #0
 2169              		.cfi_def_cfa_register 7
 491:..\..\..\lvgl\version_6.1.2\lvgl\src\lv_themes/lv_theme_material.c **** #if LV_USE_KB
 492:..\..\..\lvgl\version_6.1.2\lvgl\src\lv_themes/lv_theme_material.c **** 
 493:..\..\..\lvgl\version_6.1.2\lvgl\src\lv_themes/lv_theme_material.c ****     static lv_style_t rel;
 494:..\..\..\lvgl\version_6.1.2\lvgl\src\lv_themes/lv_theme_material.c ****     lv_style_copy(&rel, &lv_style_transp);
 2170              		.loc 2 494 0
 2171 0004 1549     		ldr	r1, .L62
 2172 0006 1648     		ldr	r0, .L62+4
 2173 0008 FFF7FEFF 		bl	lv_style_copy
 495:..\..\..\lvgl\version_6.1.2\lvgl\src\lv_themes/lv_theme_material.c ****     rel.text.font = _font;
 2174              		.loc 2 495 0
 2175 000c 154B     		ldr	r3, .L62+8
 2176 000e 1B68     		ldr	r3, [r3]
 2177 0010 134A     		ldr	r2, .L62+4
 2178 0012 5363     		str	r3, [r2, #52]
 496:..\..\..\lvgl\version_6.1.2\lvgl\src\lv_themes/lv_theme_material.c **** 
 497:..\..\..\lvgl\version_6.1.2\lvgl\src\lv_themes/lv_theme_material.c ****     theme.style.kb.bg          = theme.style.btnm.bg;
 2179              		.loc 2 497 0
 2180 0014 144B     		ldr	r3, .L62+12
 2181 0016 D3F8C430 		ldr	r3, [r3, #196]
 2182 001a 134A     		ldr	r2, .L62+12
 2183 001c C2F8DC30 		str	r3, [r2, #220]
 498:..\..\..\lvgl\version_6.1.2\lvgl\src\lv_themes/lv_theme_material.c ****     theme.style.kb.btn.rel     = &rel;
 2184              		.loc 2 498 0
 2185 0020 114B     		ldr	r3, .L62+12
 2186 0022 0F4A     		ldr	r2, .L62+4
 2187 0024 C3F8E020 		str	r2, [r3, #224]
 499:..\..\..\lvgl\version_6.1.2\lvgl\src\lv_themes/lv_theme_material.c ****     theme.style.kb.btn.pr      = theme.style.btnm.btn.pr;
 2188              		.loc 2 499 0
 2189 0028 0F4B     		ldr	r3, .L62+12
 2190 002a D3F8CC30 		ldr	r3, [r3, #204]
ARM GAS  C:\Users\tmj32\AppData\Local\Temp\cc8DwYg3.s 			page 57


 2191 002e 0E4A     		ldr	r2, .L62+12
 2192 0030 C2F8E430 		str	r3, [r2, #228]
 500:..\..\..\lvgl\version_6.1.2\lvgl\src\lv_themes/lv_theme_material.c ****     theme.style.kb.btn.tgl_rel = theme.style.btnm.btn.tgl_rel;
 2193              		.loc 2 500 0
 2194 0034 0C4B     		ldr	r3, .L62+12
 2195 0036 D3F8D030 		ldr	r3, [r3, #208]
 2196 003a 0B4A     		ldr	r2, .L62+12
 2197 003c C2F8E830 		str	r3, [r2, #232]
 501:..\..\..\lvgl\version_6.1.2\lvgl\src\lv_themes/lv_theme_material.c ****     theme.style.kb.btn.tgl_pr  = theme.style.btnm.btn.tgl_pr;
 2198              		.loc 2 501 0
 2199 0040 094B     		ldr	r3, .L62+12
 2200 0042 D3F8D430 		ldr	r3, [r3, #212]
 2201 0046 084A     		ldr	r2, .L62+12
 2202 0048 C2F8EC30 		str	r3, [r2, #236]
 502:..\..\..\lvgl\version_6.1.2\lvgl\src\lv_themes/lv_theme_material.c ****     theme.style.kb.btn.ina     = theme.style.btnm.btn.ina;
 2203              		.loc 2 502 0
 2204 004c 064B     		ldr	r3, .L62+12
 2205 004e D3F8D830 		ldr	r3, [r3, #216]
 2206 0052 054A     		ldr	r2, .L62+12
 2207 0054 C2F8F030 		str	r3, [r2, #240]
 503:..\..\..\lvgl\version_6.1.2\lvgl\src\lv_themes/lv_theme_material.c **** #endif
 504:..\..\..\lvgl\version_6.1.2\lvgl\src\lv_themes/lv_theme_material.c **** }
 2208              		.loc 2 504 0
 2209 0058 00BF     		nop
 2210 005a 80BD     		pop	{r7, pc}
 2211              	.L63:
 2212              		.align	2
 2213              	.L62:
 2214 005c 00000000 		.word	lv_style_transp
 2215 0060 800E0000 		.word	rel.6046
 2216 0064 4C020000 		.word	_font
 2217 0068 00000000 		.word	theme
 2218              		.cfi_endproc
 2219              	.LFE49:
 2220              		.size	kb_init, .-kb_init
 2221              		.section	.text.mbox_init,"ax",%progbits
 2222              		.align	2
 2223              		.thumb
 2224              		.thumb_func
 2225              		.type	mbox_init, %function
 2226              	mbox_init:
 2227              	.LFB50:
 505:..\..\..\lvgl\version_6.1.2\lvgl\src\lv_themes/lv_theme_material.c **** 
 506:..\..\..\lvgl\version_6.1.2\lvgl\src\lv_themes/lv_theme_material.c **** static void mbox_init(void)
 507:..\..\..\lvgl\version_6.1.2\lvgl\src\lv_themes/lv_theme_material.c **** {
 2228              		.loc 2 507 0
 2229              		.cfi_startproc
 2230              		@ args = 0, pretend = 0, frame = 0
 2231              		@ frame_needed = 1, uses_anonymous_args = 0
 2232 0000 98B5     		push	{r3, r4, r7, lr}
 2233              		.cfi_def_cfa_offset 16
 2234              		.cfi_offset 3, -16
 2235              		.cfi_offset 4, -12
 2236              		.cfi_offset 7, -8
 2237              		.cfi_offset 14, -4
 2238 0002 00AF     		add	r7, sp, #0
 2239              		.cfi_def_cfa_register 7
ARM GAS  C:\Users\tmj32\AppData\Local\Temp\cc8DwYg3.s 			page 58


 508:..\..\..\lvgl\version_6.1.2\lvgl\src\lv_themes/lv_theme_material.c **** #if LV_USE_MBOX
 509:..\..\..\lvgl\version_6.1.2\lvgl\src\lv_themes/lv_theme_material.c ****     static lv_style_t pr, rel;
 510:..\..\..\lvgl\version_6.1.2\lvgl\src\lv_themes/lv_theme_material.c **** 
 511:..\..\..\lvgl\version_6.1.2\lvgl\src\lv_themes/lv_theme_material.c ****     lv_style_copy(&rel, &lv_style_transp);
 2240              		.loc 2 511 0
 2241 0004 1C49     		ldr	r1, .L65
 2242 0006 1D48     		ldr	r0, .L65+4
 2243 0008 FFF7FEFF 		bl	lv_style_copy
 512:..\..\..\lvgl\version_6.1.2\lvgl\src\lv_themes/lv_theme_material.c ****     rel.glass      = 0;
 2244              		.loc 2 512 0
 2245 000c 1B4A     		ldr	r2, .L65+4
 2246 000e 1378     		ldrb	r3, [r2]
 2247 0010 6FF30003 		bfc	r3, #0, #1
 2248 0014 1370     		strb	r3, [r2]
 513:..\..\..\lvgl\version_6.1.2\lvgl\src\lv_themes/lv_theme_material.c ****     rel.text.font  = _font;
 2249              		.loc 2 513 0
 2250 0016 1A4B     		ldr	r3, .L65+8
 2251 0018 1B68     		ldr	r3, [r3]
 2252 001a 184A     		ldr	r2, .L65+4
 2253 001c 5363     		str	r3, [r2, #52]
 514:..\..\..\lvgl\version_6.1.2\lvgl\src\lv_themes/lv_theme_material.c ****     rel.text.color = lv_color_hsv_to_rgb(_hue, 85, 75);
 2254              		.loc 2 514 0
 2255 001e 194B     		ldr	r3, .L65+12
 2256 0020 1B88     		ldrh	r3, [r3]
 2257 0022 164C     		ldr	r4, .L65+4
 2258 0024 4B22     		movs	r2, #75
 2259 0026 5521     		movs	r1, #85
 2260 0028 1846     		mov	r0, r3
 2261 002a FFF7FEFF 		bl	lv_color_hsv_to_rgb
 2262 002e E062     		str	r0, [r4, #44]
 515:..\..\..\lvgl\version_6.1.2\lvgl\src\lv_themes/lv_theme_material.c **** 
 516:..\..\..\lvgl\version_6.1.2\lvgl\src\lv_themes/lv_theme_material.c ****     lv_style_copy(&pr, theme.style.btnm.btn.pr);
 2263              		.loc 2 516 0
 2264 0030 154B     		ldr	r3, .L65+16
 2265 0032 D3F8CC30 		ldr	r3, [r3, #204]
 2266 0036 1946     		mov	r1, r3
 2267 0038 1448     		ldr	r0, .L65+20
 2268 003a FFF7FEFF 		bl	lv_style_copy
 517:..\..\..\lvgl\version_6.1.2\lvgl\src\lv_themes/lv_theme_material.c ****     pr.text.color = lv_color_hsv_to_rgb(_hue, 85, 60);
 2269              		.loc 2 517 0
 2270 003e 114B     		ldr	r3, .L65+12
 2271 0040 1B88     		ldrh	r3, [r3]
 2272 0042 124C     		ldr	r4, .L65+20
 2273 0044 3C22     		movs	r2, #60
 2274 0046 5521     		movs	r1, #85
 2275 0048 1846     		mov	r0, r3
 2276 004a FFF7FEFF 		bl	lv_color_hsv_to_rgb
 2277 004e E062     		str	r0, [r4, #44]
 518:..\..\..\lvgl\version_6.1.2\lvgl\src\lv_themes/lv_theme_material.c **** 
 519:..\..\..\lvgl\version_6.1.2\lvgl\src\lv_themes/lv_theme_material.c ****     theme.style.mbox.bg      = theme.style.panel;
 2278              		.loc 2 519 0
 2279 0050 0D4B     		ldr	r3, .L65+16
 2280 0052 9B68     		ldr	r3, [r3, #8]
 2281 0054 0C4A     		ldr	r2, .L65+16
 2282 0056 C2F8F430 		str	r3, [r2, #244]
 520:..\..\..\lvgl\version_6.1.2\lvgl\src\lv_themes/lv_theme_material.c ****     theme.style.mbox.btn.bg  = &lv_style_transp;
 2283              		.loc 2 520 0
ARM GAS  C:\Users\tmj32\AppData\Local\Temp\cc8DwYg3.s 			page 59


 2284 005a 0B4B     		ldr	r3, .L65+16
 2285 005c 064A     		ldr	r2, .L65
 2286 005e C3F8F820 		str	r2, [r3, #248]
 521:..\..\..\lvgl\version_6.1.2\lvgl\src\lv_themes/lv_theme_material.c ****     theme.style.mbox.btn.rel = &rel;
 2287              		.loc 2 521 0
 2288 0062 094B     		ldr	r3, .L65+16
 2289 0064 054A     		ldr	r2, .L65+4
 2290 0066 C3F8FC20 		str	r2, [r3, #252]
 522:..\..\..\lvgl\version_6.1.2\lvgl\src\lv_themes/lv_theme_material.c ****     theme.style.mbox.btn.pr  = &pr;
 2291              		.loc 2 522 0
 2292 006a 074B     		ldr	r3, .L65+16
 2293 006c 074A     		ldr	r2, .L65+20
 2294 006e C3F80021 		str	r2, [r3, #256]
 523:..\..\..\lvgl\version_6.1.2\lvgl\src\lv_themes/lv_theme_material.c **** #endif
 524:..\..\..\lvgl\version_6.1.2\lvgl\src\lv_themes/lv_theme_material.c **** }
 2295              		.loc 2 524 0
 2296 0072 00BF     		nop
 2297 0074 98BD     		pop	{r3, r4, r7, pc}
 2298              	.L66:
 2299 0076 00BF     		.align	2
 2300              	.L65:
 2301 0078 00000000 		.word	lv_style_transp
 2302 007c D00E0000 		.word	rel.6051
 2303 0080 4C020000 		.word	_font
 2304 0084 48020000 		.word	_hue
 2305 0088 00000000 		.word	theme
 2306 008c 200F0000 		.word	pr.6050
 2307              		.cfi_endproc
 2308              	.LFE50:
 2309              		.size	mbox_init, .-mbox_init
 2310              		.section	.text.page_init,"ax",%progbits
 2311              		.align	2
 2312              		.thumb
 2313              		.thumb_func
 2314              		.type	page_init, %function
 2315              	page_init:
 2316              	.LFB51:
 525:..\..\..\lvgl\version_6.1.2\lvgl\src\lv_themes/lv_theme_material.c **** 
 526:..\..\..\lvgl\version_6.1.2\lvgl\src\lv_themes/lv_theme_material.c **** static void page_init(void)
 527:..\..\..\lvgl\version_6.1.2\lvgl\src\lv_themes/lv_theme_material.c **** {
 2317              		.loc 2 527 0
 2318              		.cfi_startproc
 2319              		@ args = 0, pretend = 0, frame = 0
 2320              		@ frame_needed = 1, uses_anonymous_args = 0
 2321              		@ link register save eliminated.
 2322 0000 80B4     		push	{r7}
 2323              		.cfi_def_cfa_offset 4
 2324              		.cfi_offset 7, -4
 2325 0002 00AF     		add	r7, sp, #0
 2326              		.cfi_def_cfa_register 7
 528:..\..\..\lvgl\version_6.1.2\lvgl\src\lv_themes/lv_theme_material.c **** #if LV_USE_PAGE
 529:..\..\..\lvgl\version_6.1.2\lvgl\src\lv_themes/lv_theme_material.c **** 
 530:..\..\..\lvgl\version_6.1.2\lvgl\src\lv_themes/lv_theme_material.c ****     theme.style.page.bg   = theme.style.panel;
 2327              		.loc 2 530 0
 2328 0004 084B     		ldr	r3, .L68
 2329 0006 9B68     		ldr	r3, [r3, #8]
 2330 0008 074A     		ldr	r2, .L68
ARM GAS  C:\Users\tmj32\AppData\Local\Temp\cc8DwYg3.s 			page 60


 2331 000a C2F80431 		str	r3, [r2, #260]
 531:..\..\..\lvgl\version_6.1.2\lvgl\src\lv_themes/lv_theme_material.c ****     theme.style.page.scrl = &lv_style_transp;
 2332              		.loc 2 531 0
 2333 000e 064B     		ldr	r3, .L68
 2334 0010 064A     		ldr	r2, .L68+4
 2335 0012 C3F80821 		str	r2, [r3, #264]
 532:..\..\..\lvgl\version_6.1.2\lvgl\src\lv_themes/lv_theme_material.c ****     theme.style.page.sb   = &sb;
 2336              		.loc 2 532 0
 2337 0016 044B     		ldr	r3, .L68
 2338 0018 054A     		ldr	r2, .L68+8
 2339 001a C3F80C21 		str	r2, [r3, #268]
 533:..\..\..\lvgl\version_6.1.2\lvgl\src\lv_themes/lv_theme_material.c **** #endif
 534:..\..\..\lvgl\version_6.1.2\lvgl\src\lv_themes/lv_theme_material.c **** }
 2340              		.loc 2 534 0
 2341 001e 00BF     		nop
 2342 0020 BD46     		mov	sp, r7
 2343              		.cfi_def_cfa_register 13
 2344              		@ sp needed
 2345 0022 5DF8047B 		ldr	r7, [sp], #4
 2346              		.cfi_restore 7
 2347              		.cfi_def_cfa_offset 0
 2348 0026 7047     		bx	lr
 2349              	.L69:
 2350              		.align	2
 2351              	.L68:
 2352 0028 00000000 		.word	theme
 2353 002c 00000000 		.word	lv_style_transp
 2354 0030 F8010000 		.word	sb
 2355              		.cfi_endproc
 2356              	.LFE51:
 2357              		.size	page_init, .-page_init
 2358              		.section	.text.ta_init,"ax",%progbits
 2359              		.align	2
 2360              		.thumb
 2361              		.thumb_func
 2362              		.type	ta_init, %function
 2363              	ta_init:
 2364              	.LFB52:
 535:..\..\..\lvgl\version_6.1.2\lvgl\src\lv_themes/lv_theme_material.c **** 
 536:..\..\..\lvgl\version_6.1.2\lvgl\src\lv_themes/lv_theme_material.c **** static void ta_init(void)
 537:..\..\..\lvgl\version_6.1.2\lvgl\src\lv_themes/lv_theme_material.c **** {
 2365              		.loc 2 537 0
 2366              		.cfi_startproc
 2367              		@ args = 0, pretend = 0, frame = 0
 2368              		@ frame_needed = 1, uses_anonymous_args = 0
 2369 0000 98B5     		push	{r3, r4, r7, lr}
 2370              		.cfi_def_cfa_offset 16
 2371              		.cfi_offset 3, -16
 2372              		.cfi_offset 4, -12
 2373              		.cfi_offset 7, -8
 2374              		.cfi_offset 14, -4
 2375 0002 00AF     		add	r7, sp, #0
 2376              		.cfi_def_cfa_register 7
 538:..\..\..\lvgl\version_6.1.2\lvgl\src\lv_themes/lv_theme_material.c **** #if LV_USE_TA
 539:..\..\..\lvgl\version_6.1.2\lvgl\src\lv_themes/lv_theme_material.c ****     static lv_style_t oneline;
 540:..\..\..\lvgl\version_6.1.2\lvgl\src\lv_themes/lv_theme_material.c **** 
 541:..\..\..\lvgl\version_6.1.2\lvgl\src\lv_themes/lv_theme_material.c ****     lv_style_copy(&oneline, &def);
ARM GAS  C:\Users\tmj32\AppData\Local\Temp\cc8DwYg3.s 			page 61


 2377              		.loc 2 541 0
 2378 0004 1849     		ldr	r1, .L71
 2379 0006 1948     		ldr	r0, .L71+4
 2380 0008 FFF7FEFF 		bl	lv_style_copy
 542:..\..\..\lvgl\version_6.1.2\lvgl\src\lv_themes/lv_theme_material.c ****     oneline.body.opa          = LV_OPA_TRANSP;
 2381              		.loc 2 542 0
 2382 000c 174B     		ldr	r3, .L71+4
 2383 000e 0022     		movs	r2, #0
 2384 0010 9A73     		strb	r2, [r3, #14]
 543:..\..\..\lvgl\version_6.1.2\lvgl\src\lv_themes/lv_theme_material.c ****     oneline.body.radius       = 0;
 2385              		.loc 2 543 0
 2386 0012 164B     		ldr	r3, .L71+4
 2387 0014 0022     		movs	r2, #0
 2388 0016 9A81     		strh	r2, [r3, #12]	@ movhi
 544:..\..\..\lvgl\version_6.1.2\lvgl\src\lv_themes/lv_theme_material.c ****     oneline.body.border.part  = LV_BORDER_BOTTOM;
 2389              		.loc 2 544 0
 2390 0018 144B     		ldr	r3, .L71+4
 2391 001a 0122     		movs	r2, #1
 2392 001c 9A75     		strb	r2, [r3, #22]
 545:..\..\..\lvgl\version_6.1.2\lvgl\src\lv_themes/lv_theme_material.c ****     oneline.body.border.width = 3;
 2393              		.loc 2 545 0
 2394 001e 134B     		ldr	r3, .L71+4
 2395 0020 0322     		movs	r2, #3
 2396 0022 9A82     		strh	r2, [r3, #20]	@ movhi
 546:..\..\..\lvgl\version_6.1.2\lvgl\src\lv_themes/lv_theme_material.c ****     oneline.body.border.color = lv_color_hex3(0x333);
 2397              		.loc 2 546 0
 2398 0024 114C     		ldr	r4, .L71+4
 2399 0026 40F23330 		movw	r0, #819
 2400 002a FFF7FEFF 		bl	lv_color_hex3
 2401 002e 2061     		str	r0, [r4, #16]
 547:..\..\..\lvgl\version_6.1.2\lvgl\src\lv_themes/lv_theme_material.c ****     oneline.body.border.opa   = LV_OPA_COVER;
 2402              		.loc 2 547 0
 2403 0030 0E4B     		ldr	r3, .L71+4
 2404 0032 FF22     		movs	r2, #255
 2405 0034 DA75     		strb	r2, [r3, #23]
 548:..\..\..\lvgl\version_6.1.2\lvgl\src\lv_themes/lv_theme_material.c ****     oneline.text.color        = lv_color_hex3(0x333);
 2406              		.loc 2 548 0
 2407 0036 0D4C     		ldr	r4, .L71+4
 2408 0038 40F23330 		movw	r0, #819
 2409 003c FFF7FEFF 		bl	lv_color_hex3
 2410 0040 E062     		str	r0, [r4, #44]
 549:..\..\..\lvgl\version_6.1.2\lvgl\src\lv_themes/lv_theme_material.c **** 
 550:..\..\..\lvgl\version_6.1.2\lvgl\src\lv_themes/lv_theme_material.c ****     theme.style.ta.area    = theme.style.panel;
 2411              		.loc 2 550 0
 2412 0042 0B4B     		ldr	r3, .L71+8
 2413 0044 9B68     		ldr	r3, [r3, #8]
 2414 0046 0A4A     		ldr	r2, .L71+8
 2415 0048 C2F81031 		str	r3, [r2, #272]
 551:..\..\..\lvgl\version_6.1.2\lvgl\src\lv_themes/lv_theme_material.c ****     theme.style.ta.oneline = &oneline;
 2416              		.loc 2 551 0
 2417 004c 084B     		ldr	r3, .L71+8
 2418 004e 074A     		ldr	r2, .L71+4
 2419 0050 C3F81421 		str	r2, [r3, #276]
 552:..\..\..\lvgl\version_6.1.2\lvgl\src\lv_themes/lv_theme_material.c ****     theme.style.ta.cursor  = NULL; /*Let library to calculate the cursor's style*/
 2420              		.loc 2 552 0
 2421 0054 064B     		ldr	r3, .L71+8
 2422 0056 0022     		movs	r2, #0
ARM GAS  C:\Users\tmj32\AppData\Local\Temp\cc8DwYg3.s 			page 62


 2423 0058 C3F81821 		str	r2, [r3, #280]
 553:..\..\..\lvgl\version_6.1.2\lvgl\src\lv_themes/lv_theme_material.c ****     theme.style.ta.sb      = &sb;
 2424              		.loc 2 553 0
 2425 005c 044B     		ldr	r3, .L71+8
 2426 005e 054A     		ldr	r2, .L71+12
 2427 0060 C3F81C21 		str	r2, [r3, #284]
 554:..\..\..\lvgl\version_6.1.2\lvgl\src\lv_themes/lv_theme_material.c **** #endif
 555:..\..\..\lvgl\version_6.1.2\lvgl\src\lv_themes/lv_theme_material.c **** }
 2428              		.loc 2 555 0
 2429 0064 00BF     		nop
 2430 0066 98BD     		pop	{r3, r4, r7, pc}
 2431              	.L72:
 2432              		.align	2
 2433              	.L71:
 2434 0068 A8010000 		.word	def
 2435 006c 700F0000 		.word	oneline.6058
 2436 0070 00000000 		.word	theme
 2437 0074 F8010000 		.word	sb
 2438              		.cfi_endproc
 2439              	.LFE52:
 2440              		.size	ta_init, .-ta_init
 2441              		.section	.text.spinbox_init,"ax",%progbits
 2442              		.align	2
 2443              		.thumb
 2444              		.thumb_func
 2445              		.type	spinbox_init, %function
 2446              	spinbox_init:
 2447              	.LFB53:
 556:..\..\..\lvgl\version_6.1.2\lvgl\src\lv_themes/lv_theme_material.c **** 
 557:..\..\..\lvgl\version_6.1.2\lvgl\src\lv_themes/lv_theme_material.c **** static void spinbox_init(void)
 558:..\..\..\lvgl\version_6.1.2\lvgl\src\lv_themes/lv_theme_material.c **** {
 2448              		.loc 2 558 0
 2449              		.cfi_startproc
 2450              		@ args = 0, pretend = 0, frame = 0
 2451              		@ frame_needed = 1, uses_anonymous_args = 0
 2452              		@ link register save eliminated.
 2453 0000 80B4     		push	{r7}
 2454              		.cfi_def_cfa_offset 4
 2455              		.cfi_offset 7, -4
 2456 0002 00AF     		add	r7, sp, #0
 2457              		.cfi_def_cfa_register 7
 559:..\..\..\lvgl\version_6.1.2\lvgl\src\lv_themes/lv_theme_material.c **** #if LV_USE_SPINBOX
 560:..\..\..\lvgl\version_6.1.2\lvgl\src\lv_themes/lv_theme_material.c ****     theme.style.spinbox.bg     = theme.style.panel;
 2458              		.loc 2 560 0
 2459 0004 0A4B     		ldr	r3, .L74
 2460 0006 9B68     		ldr	r3, [r3, #8]
 2461 0008 094A     		ldr	r2, .L74
 2462 000a C2F82031 		str	r3, [r2, #288]
 561:..\..\..\lvgl\version_6.1.2\lvgl\src\lv_themes/lv_theme_material.c ****     theme.style.spinbox.cursor = theme.style.ta.cursor;
 2463              		.loc 2 561 0
 2464 000e 084B     		ldr	r3, .L74
 2465 0010 D3F81831 		ldr	r3, [r3, #280]
 2466 0014 064A     		ldr	r2, .L74
 2467 0016 C2F82431 		str	r3, [r2, #292]
 562:..\..\..\lvgl\version_6.1.2\lvgl\src\lv_themes/lv_theme_material.c ****     theme.style.spinbox.sb     = theme.style.ta.sb;
 2468              		.loc 2 562 0
 2469 001a 054B     		ldr	r3, .L74
ARM GAS  C:\Users\tmj32\AppData\Local\Temp\cc8DwYg3.s 			page 63


 2470 001c D3F81C31 		ldr	r3, [r3, #284]
 2471 0020 034A     		ldr	r2, .L74
 2472 0022 C2F82831 		str	r3, [r2, #296]
 563:..\..\..\lvgl\version_6.1.2\lvgl\src\lv_themes/lv_theme_material.c **** #endif
 564:..\..\..\lvgl\version_6.1.2\lvgl\src\lv_themes/lv_theme_material.c **** }
 2473              		.loc 2 564 0
 2474 0026 00BF     		nop
 2475 0028 BD46     		mov	sp, r7
 2476              		.cfi_def_cfa_register 13
 2477              		@ sp needed
 2478 002a 5DF8047B 		ldr	r7, [sp], #4
 2479              		.cfi_restore 7
 2480              		.cfi_def_cfa_offset 0
 2481 002e 7047     		bx	lr
 2482              	.L75:
 2483              		.align	2
 2484              	.L74:
 2485 0030 00000000 		.word	theme
 2486              		.cfi_endproc
 2487              	.LFE53:
 2488              		.size	spinbox_init, .-spinbox_init
 2489              		.section	.text.list_init,"ax",%progbits
 2490              		.align	2
 2491              		.thumb
 2492              		.thumb_func
 2493              		.type	list_init, %function
 2494              	list_init:
 2495              	.LFB54:
 565:..\..\..\lvgl\version_6.1.2\lvgl\src\lv_themes/lv_theme_material.c **** 
 566:..\..\..\lvgl\version_6.1.2\lvgl\src\lv_themes/lv_theme_material.c **** static void list_init(void)
 567:..\..\..\lvgl\version_6.1.2\lvgl\src\lv_themes/lv_theme_material.c **** {
 2496              		.loc 2 567 0
 2497              		.cfi_startproc
 2498              		@ args = 0, pretend = 0, frame = 0
 2499              		@ frame_needed = 1, uses_anonymous_args = 0
 2500 0000 98B5     		push	{r3, r4, r7, lr}
 2501              		.cfi_def_cfa_offset 16
 2502              		.cfi_offset 3, -16
 2503              		.cfi_offset 4, -12
 2504              		.cfi_offset 7, -8
 2505              		.cfi_offset 14, -4
 2506 0002 00AF     		add	r7, sp, #0
 2507              		.cfi_def_cfa_register 7
 568:..\..\..\lvgl\version_6.1.2\lvgl\src\lv_themes/lv_theme_material.c **** #if LV_USE_LIST != 0
 569:..\..\..\lvgl\version_6.1.2\lvgl\src\lv_themes/lv_theme_material.c **** 
 570:..\..\..\lvgl\version_6.1.2\lvgl\src\lv_themes/lv_theme_material.c ****     static lv_style_t list_bg, rel, pr, tgl_rel, tgl_pr, ina;
 571:..\..\..\lvgl\version_6.1.2\lvgl\src\lv_themes/lv_theme_material.c **** 
 572:..\..\..\lvgl\version_6.1.2\lvgl\src\lv_themes/lv_theme_material.c ****     lv_style_copy(&list_bg, theme.style.panel);
 2508              		.loc 2 572 0
 2509 0004 584B     		ldr	r3, .L77
 2510 0006 9B68     		ldr	r3, [r3, #8]
 2511 0008 1946     		mov	r1, r3
 2512 000a 5848     		ldr	r0, .L77+4
 2513 000c FFF7FEFF 		bl	lv_style_copy
 573:..\..\..\lvgl\version_6.1.2\lvgl\src\lv_themes/lv_theme_material.c ****     list_bg.body.padding.left   = 0;
 2514              		.loc 2 573 0
 2515 0010 564B     		ldr	r3, .L77+4
ARM GAS  C:\Users\tmj32\AppData\Local\Temp\cc8DwYg3.s 			page 64


 2516 0012 0022     		movs	r2, #0
 2517 0014 9A84     		strh	r2, [r3, #36]	@ movhi
 574:..\..\..\lvgl\version_6.1.2\lvgl\src\lv_themes/lv_theme_material.c ****     list_bg.body.padding.right  = 0;
 2518              		.loc 2 574 0
 2519 0016 554B     		ldr	r3, .L77+4
 2520 0018 0022     		movs	r2, #0
 2521 001a DA84     		strh	r2, [r3, #38]	@ movhi
 575:..\..\..\lvgl\version_6.1.2\lvgl\src\lv_themes/lv_theme_material.c ****     list_bg.body.padding.top    = 0;
 2522              		.loc 2 575 0
 2523 001c 534B     		ldr	r3, .L77+4
 2524 001e 0022     		movs	r2, #0
 2525 0020 1A84     		strh	r2, [r3, #32]	@ movhi
 576:..\..\..\lvgl\version_6.1.2\lvgl\src\lv_themes/lv_theme_material.c ****     list_bg.body.padding.bottom = 0;
 2526              		.loc 2 576 0
 2527 0022 524B     		ldr	r3, .L77+4
 2528 0024 0022     		movs	r2, #0
 2529 0026 5A84     		strh	r2, [r3, #34]	@ movhi
 577:..\..\..\lvgl\version_6.1.2\lvgl\src\lv_themes/lv_theme_material.c ****     list_bg.body.padding.inner  = 0;
 2530              		.loc 2 577 0
 2531 0028 504B     		ldr	r3, .L77+4
 2532 002a 0022     		movs	r2, #0
 2533 002c 1A85     		strh	r2, [r3, #40]	@ movhi
 578:..\..\..\lvgl\version_6.1.2\lvgl\src\lv_themes/lv_theme_material.c **** 
 579:..\..\..\lvgl\version_6.1.2\lvgl\src\lv_themes/lv_theme_material.c ****     lv_style_copy(&rel, &lv_style_transp);
 2534              		.loc 2 579 0
 2535 002e 5049     		ldr	r1, .L77+8
 2536 0030 5048     		ldr	r0, .L77+12
 2537 0032 FFF7FEFF 		bl	lv_style_copy
 580:..\..\..\lvgl\version_6.1.2\lvgl\src\lv_themes/lv_theme_material.c ****     rel.body.padding.left   = LV_DPI / 8;
 2538              		.loc 2 580 0
 2539 0036 4F4B     		ldr	r3, .L77+12
 2540 0038 1222     		movs	r2, #18
 2541 003a 9A84     		strh	r2, [r3, #36]	@ movhi
 581:..\..\..\lvgl\version_6.1.2\lvgl\src\lv_themes/lv_theme_material.c ****     rel.body.padding.right  = LV_DPI / 8;
 2542              		.loc 2 581 0
 2543 003c 4D4B     		ldr	r3, .L77+12
 2544 003e 1222     		movs	r2, #18
 2545 0040 DA84     		strh	r2, [r3, #38]	@ movhi
 582:..\..\..\lvgl\version_6.1.2\lvgl\src\lv_themes/lv_theme_material.c ****     rel.body.padding.top    = LV_DPI / 6;
 2546              		.loc 2 582 0
 2547 0042 4C4B     		ldr	r3, .L77+12
 2548 0044 1922     		movs	r2, #25
 2549 0046 1A84     		strh	r2, [r3, #32]	@ movhi
 583:..\..\..\lvgl\version_6.1.2\lvgl\src\lv_themes/lv_theme_material.c ****     rel.body.padding.bottom = LV_DPI / 6;
 2550              		.loc 2 583 0
 2551 0048 4A4B     		ldr	r3, .L77+12
 2552 004a 1922     		movs	r2, #25
 2553 004c 5A84     		strh	r2, [r3, #34]	@ movhi
 584:..\..\..\lvgl\version_6.1.2\lvgl\src\lv_themes/lv_theme_material.c ****     rel.body.radius         = 10;
 2554              		.loc 2 584 0
 2555 004e 494B     		ldr	r3, .L77+12
 2556 0050 0A22     		movs	r2, #10
 2557 0052 9A81     		strh	r2, [r3, #12]	@ movhi
 585:..\..\..\lvgl\version_6.1.2\lvgl\src\lv_themes/lv_theme_material.c ****     rel.body.border.color   = lv_color_hex3(0xbbb);
 2558              		.loc 2 585 0
 2559 0054 474C     		ldr	r4, .L77+12
 2560 0056 40F6BB30 		movw	r0, #3003
ARM GAS  C:\Users\tmj32\AppData\Local\Temp\cc8DwYg3.s 			page 65


 2561 005a FFF7FEFF 		bl	lv_color_hex3
 2562 005e 2061     		str	r0, [r4, #16]
 586:..\..\..\lvgl\version_6.1.2\lvgl\src\lv_themes/lv_theme_material.c ****     rel.body.border.width   = 1;
 2563              		.loc 2 586 0
 2564 0060 444B     		ldr	r3, .L77+12
 2565 0062 0122     		movs	r2, #1
 2566 0064 9A82     		strh	r2, [r3, #20]	@ movhi
 587:..\..\..\lvgl\version_6.1.2\lvgl\src\lv_themes/lv_theme_material.c ****     rel.body.border.part    = LV_BORDER_BOTTOM;
 2567              		.loc 2 587 0
 2568 0066 434B     		ldr	r3, .L77+12
 2569 0068 0122     		movs	r2, #1
 2570 006a 9A75     		strb	r2, [r3, #22]
 588:..\..\..\lvgl\version_6.1.2\lvgl\src\lv_themes/lv_theme_material.c **** 
 589:..\..\..\lvgl\version_6.1.2\lvgl\src\lv_themes/lv_theme_material.c ****     lv_style_copy(&pr, &rel);
 2571              		.loc 2 589 0
 2572 006c 4149     		ldr	r1, .L77+12
 2573 006e 4248     		ldr	r0, .L77+16
 2574 0070 FFF7FEFF 		bl	lv_style_copy
 590:..\..\..\lvgl\version_6.1.2\lvgl\src\lv_themes/lv_theme_material.c ****     pr.glass             = 0;
 2575              		.loc 2 590 0
 2576 0074 404A     		ldr	r2, .L77+16
 2577 0076 1378     		ldrb	r3, [r2]
 2578 0078 6FF30003 		bfc	r3, #0, #1
 2579 007c 1370     		strb	r3, [r2]
 591:..\..\..\lvgl\version_6.1.2\lvgl\src\lv_themes/lv_theme_material.c ****     pr.body.main_color   = lv_color_hex3(0xddd);
 2580              		.loc 2 591 0
 2581 007e 3E4C     		ldr	r4, .L77+16
 2582 0080 40F6DD50 		movw	r0, #3549
 2583 0084 FFF7FEFF 		bl	lv_color_hex3
 2584 0088 6060     		str	r0, [r4, #4]
 592:..\..\..\lvgl\version_6.1.2\lvgl\src\lv_themes/lv_theme_material.c ****     pr.body.grad_color   = pr.body.main_color;
 2585              		.loc 2 592 0
 2586 008a 3B4A     		ldr	r2, .L77+16
 2587 008c 3A4B     		ldr	r3, .L77+16
 2588 008e 5B68     		ldr	r3, [r3, #4]
 2589 0090 9360     		str	r3, [r2, #8]
 593:..\..\..\lvgl\version_6.1.2\lvgl\src\lv_themes/lv_theme_material.c ****     pr.body.border.width = 0;
 2590              		.loc 2 593 0
 2591 0092 394B     		ldr	r3, .L77+16
 2592 0094 0022     		movs	r2, #0
 2593 0096 9A82     		strh	r2, [r3, #20]	@ movhi
 594:..\..\..\lvgl\version_6.1.2\lvgl\src\lv_themes/lv_theme_material.c ****     pr.body.opa          = LV_OPA_COVER;
 2594              		.loc 2 594 0
 2595 0098 374B     		ldr	r3, .L77+16
 2596 009a FF22     		movs	r2, #255
 2597 009c 9A73     		strb	r2, [r3, #14]
 595:..\..\..\lvgl\version_6.1.2\lvgl\src\lv_themes/lv_theme_material.c ****     pr.body.radius       = DEF_RADIUS;
 2598              		.loc 2 595 0
 2599 009e 364B     		ldr	r3, .L77+16
 2600 00a0 0422     		movs	r2, #4
 2601 00a2 9A81     		strh	r2, [r3, #12]	@ movhi
 596:..\..\..\lvgl\version_6.1.2\lvgl\src\lv_themes/lv_theme_material.c ****     pr.text.font         = _font;
 2602              		.loc 2 596 0
 2603 00a4 354B     		ldr	r3, .L77+20
 2604 00a6 1B68     		ldr	r3, [r3]
 2605 00a8 334A     		ldr	r2, .L77+16
 2606 00aa 5363     		str	r3, [r2, #52]
ARM GAS  C:\Users\tmj32\AppData\Local\Temp\cc8DwYg3.s 			page 66


 597:..\..\..\lvgl\version_6.1.2\lvgl\src\lv_themes/lv_theme_material.c **** 
 598:..\..\..\lvgl\version_6.1.2\lvgl\src\lv_themes/lv_theme_material.c ****     lv_style_copy(&tgl_rel, &pr);
 2607              		.loc 2 598 0
 2608 00ac 3249     		ldr	r1, .L77+16
 2609 00ae 3448     		ldr	r0, .L77+24
 2610 00b0 FFF7FEFF 		bl	lv_style_copy
 599:..\..\..\lvgl\version_6.1.2\lvgl\src\lv_themes/lv_theme_material.c ****     tgl_rel.body.main_color = lv_color_hsv_to_rgb(_hue, 90, 70);
 2611              		.loc 2 599 0
 2612 00b4 334B     		ldr	r3, .L77+28
 2613 00b6 1B88     		ldrh	r3, [r3]
 2614 00b8 314C     		ldr	r4, .L77+24
 2615 00ba 4622     		movs	r2, #70
 2616 00bc 5A21     		movs	r1, #90
 2617 00be 1846     		mov	r0, r3
 2618 00c0 FFF7FEFF 		bl	lv_color_hsv_to_rgb
 2619 00c4 6060     		str	r0, [r4, #4]
 600:..\..\..\lvgl\version_6.1.2\lvgl\src\lv_themes/lv_theme_material.c ****     tgl_rel.body.grad_color = tgl_rel.body.main_color;
 2620              		.loc 2 600 0
 2621 00c6 2E4A     		ldr	r2, .L77+24
 2622 00c8 2D4B     		ldr	r3, .L77+24
 2623 00ca 5B68     		ldr	r3, [r3, #4]
 2624 00cc 9360     		str	r3, [r2, #8]
 601:..\..\..\lvgl\version_6.1.2\lvgl\src\lv_themes/lv_theme_material.c ****     tgl_rel.text.color      = lv_color_hsv_to_rgb(_hue, 5, 95);
 2625              		.loc 2 601 0
 2626 00ce 2D4B     		ldr	r3, .L77+28
 2627 00d0 1B88     		ldrh	r3, [r3]
 2628 00d2 2B4C     		ldr	r4, .L77+24
 2629 00d4 5F22     		movs	r2, #95
 2630 00d6 0521     		movs	r1, #5
 2631 00d8 1846     		mov	r0, r3
 2632 00da FFF7FEFF 		bl	lv_color_hsv_to_rgb
 2633 00de E062     		str	r0, [r4, #44]
 602:..\..\..\lvgl\version_6.1.2\lvgl\src\lv_themes/lv_theme_material.c **** 
 603:..\..\..\lvgl\version_6.1.2\lvgl\src\lv_themes/lv_theme_material.c ****     lv_style_copy(&tgl_pr, &tgl_rel);
 2634              		.loc 2 603 0
 2635 00e0 2749     		ldr	r1, .L77+24
 2636 00e2 2948     		ldr	r0, .L77+32
 2637 00e4 FFF7FEFF 		bl	lv_style_copy
 604:..\..\..\lvgl\version_6.1.2\lvgl\src\lv_themes/lv_theme_material.c ****     tgl_pr.body.main_color   = lv_color_hsv_to_rgb(_hue, 90, 60);
 2638              		.loc 2 604 0
 2639 00e8 264B     		ldr	r3, .L77+28
 2640 00ea 1B88     		ldrh	r3, [r3]
 2641 00ec 264C     		ldr	r4, .L77+32
 2642 00ee 3C22     		movs	r2, #60
 2643 00f0 5A21     		movs	r1, #90
 2644 00f2 1846     		mov	r0, r3
 2645 00f4 FFF7FEFF 		bl	lv_color_hsv_to_rgb
 2646 00f8 6060     		str	r0, [r4, #4]
 605:..\..\..\lvgl\version_6.1.2\lvgl\src\lv_themes/lv_theme_material.c ****     tgl_pr.body.grad_color   = tgl_pr.body.main_color;
 2647              		.loc 2 605 0
 2648 00fa 234A     		ldr	r2, .L77+32
 2649 00fc 224B     		ldr	r3, .L77+32
 2650 00fe 5B68     		ldr	r3, [r3, #4]
 2651 0100 9360     		str	r3, [r2, #8]
 606:..\..\..\lvgl\version_6.1.2\lvgl\src\lv_themes/lv_theme_material.c ****     tgl_pr.body.border.width = 0;
 2652              		.loc 2 606 0
 2653 0102 214B     		ldr	r3, .L77+32
ARM GAS  C:\Users\tmj32\AppData\Local\Temp\cc8DwYg3.s 			page 67


 2654 0104 0022     		movs	r2, #0
 2655 0106 9A82     		strh	r2, [r3, #20]	@ movhi
 607:..\..\..\lvgl\version_6.1.2\lvgl\src\lv_themes/lv_theme_material.c **** 
 608:..\..\..\lvgl\version_6.1.2\lvgl\src\lv_themes/lv_theme_material.c ****     lv_style_copy(&ina, &pr);
 2656              		.loc 2 608 0
 2657 0108 1B49     		ldr	r1, .L77+16
 2658 010a 2048     		ldr	r0, .L77+36
 2659 010c FFF7FEFF 		bl	lv_style_copy
 609:..\..\..\lvgl\version_6.1.2\lvgl\src\lv_themes/lv_theme_material.c ****     ina.body.main_color = lv_color_hex3(0xccc);
 2660              		.loc 2 609 0
 2661 0110 1E4C     		ldr	r4, .L77+36
 2662 0112 40F6CC40 		movw	r0, #3276
 2663 0116 FFF7FEFF 		bl	lv_color_hex3
 2664 011a 6060     		str	r0, [r4, #4]
 610:..\..\..\lvgl\version_6.1.2\lvgl\src\lv_themes/lv_theme_material.c ****     ina.body.grad_color = ina.body.main_color;
 2665              		.loc 2 610 0
 2666 011c 1B4A     		ldr	r2, .L77+36
 2667 011e 1B4B     		ldr	r3, .L77+36
 2668 0120 5B68     		ldr	r3, [r3, #4]
 2669 0122 9360     		str	r3, [r2, #8]
 611:..\..\..\lvgl\version_6.1.2\lvgl\src\lv_themes/lv_theme_material.c **** 
 612:..\..\..\lvgl\version_6.1.2\lvgl\src\lv_themes/lv_theme_material.c ****     theme.style.list.sb          = &sb;
 2670              		.loc 2 612 0
 2671 0124 104B     		ldr	r3, .L77
 2672 0126 1A4A     		ldr	r2, .L77+40
 2673 0128 C3F83421 		str	r2, [r3, #308]
 613:..\..\..\lvgl\version_6.1.2\lvgl\src\lv_themes/lv_theme_material.c ****     theme.style.list.bg          = &list_bg;
 2674              		.loc 2 613 0
 2675 012c 0E4B     		ldr	r3, .L77
 2676 012e 0F4A     		ldr	r2, .L77+4
 2677 0130 C3F82C21 		str	r2, [r3, #300]
 614:..\..\..\lvgl\version_6.1.2\lvgl\src\lv_themes/lv_theme_material.c ****     theme.style.list.scrl        = &lv_style_transp_tight;
 2678              		.loc 2 614 0
 2679 0134 0C4B     		ldr	r3, .L77
 2680 0136 174A     		ldr	r2, .L77+44
 2681 0138 C3F83021 		str	r2, [r3, #304]
 615:..\..\..\lvgl\version_6.1.2\lvgl\src\lv_themes/lv_theme_material.c ****     theme.style.list.btn.rel     = &rel;
 2682              		.loc 2 615 0
 2683 013c 0A4B     		ldr	r3, .L77
 2684 013e 0D4A     		ldr	r2, .L77+12
 2685 0140 C3F83821 		str	r2, [r3, #312]
 616:..\..\..\lvgl\version_6.1.2\lvgl\src\lv_themes/lv_theme_material.c ****     theme.style.list.btn.pr      = &pr;
 2686              		.loc 2 616 0
 2687 0144 084B     		ldr	r3, .L77
 2688 0146 0C4A     		ldr	r2, .L77+16
 2689 0148 C3F83C21 		str	r2, [r3, #316]
 617:..\..\..\lvgl\version_6.1.2\lvgl\src\lv_themes/lv_theme_material.c ****     theme.style.list.btn.tgl_rel = &tgl_rel;
 2690              		.loc 2 617 0
 2691 014c 064B     		ldr	r3, .L77
 2692 014e 0C4A     		ldr	r2, .L77+24
 2693 0150 C3F84021 		str	r2, [r3, #320]
 618:..\..\..\lvgl\version_6.1.2\lvgl\src\lv_themes/lv_theme_material.c ****     theme.style.list.btn.tgl_pr  = &tgl_pr;
 2694              		.loc 2 618 0
 2695 0154 044B     		ldr	r3, .L77
 2696 0156 0C4A     		ldr	r2, .L77+32
 2697 0158 C3F84421 		str	r2, [r3, #324]
 619:..\..\..\lvgl\version_6.1.2\lvgl\src\lv_themes/lv_theme_material.c ****     theme.style.list.btn.ina     = &ina;
ARM GAS  C:\Users\tmj32\AppData\Local\Temp\cc8DwYg3.s 			page 68


 2698              		.loc 2 619 0
 2699 015c 024B     		ldr	r3, .L77
 2700 015e 0B4A     		ldr	r2, .L77+36
 2701 0160 C3F84821 		str	r2, [r3, #328]
 620:..\..\..\lvgl\version_6.1.2\lvgl\src\lv_themes/lv_theme_material.c **** #endif
 621:..\..\..\lvgl\version_6.1.2\lvgl\src\lv_themes/lv_theme_material.c **** }
 2702              		.loc 2 621 0
 2703 0164 00BF     		nop
 2704 0166 98BD     		pop	{r3, r4, r7, pc}
 2705              	.L78:
 2706              		.align	2
 2707              	.L77:
 2708 0168 00000000 		.word	theme
 2709 016c C00F0000 		.word	list_bg.6065
 2710 0170 00000000 		.word	lv_style_transp
 2711 0174 10100000 		.word	rel.6066
 2712 0178 60100000 		.word	pr.6067
 2713 017c 4C020000 		.word	_font
 2714 0180 B0100000 		.word	tgl_rel.6068
 2715 0184 48020000 		.word	_hue
 2716 0188 00110000 		.word	tgl_pr.6069
 2717 018c 50110000 		.word	ina.6070
 2718 0190 F8010000 		.word	sb
 2719 0194 00000000 		.word	lv_style_transp_tight
 2720              		.cfi_endproc
 2721              	.LFE54:
 2722              		.size	list_init, .-list_init
 2723              		.section	.text.ddlist_init,"ax",%progbits
 2724              		.align	2
 2725              		.thumb
 2726              		.thumb_func
 2727              		.type	ddlist_init, %function
 2728              	ddlist_init:
 2729              	.LFB55:
 622:..\..\..\lvgl\version_6.1.2\lvgl\src\lv_themes/lv_theme_material.c **** 
 623:..\..\..\lvgl\version_6.1.2\lvgl\src\lv_themes/lv_theme_material.c **** static void ddlist_init(void)
 624:..\..\..\lvgl\version_6.1.2\lvgl\src\lv_themes/lv_theme_material.c **** {
 2730              		.loc 2 624 0
 2731              		.cfi_startproc
 2732              		@ args = 0, pretend = 0, frame = 0
 2733              		@ frame_needed = 1, uses_anonymous_args = 0
 2734 0000 98B5     		push	{r3, r4, r7, lr}
 2735              		.cfi_def_cfa_offset 16
 2736              		.cfi_offset 3, -16
 2737              		.cfi_offset 4, -12
 2738              		.cfi_offset 7, -8
 2739              		.cfi_offset 14, -4
 2740 0002 00AF     		add	r7, sp, #0
 2741              		.cfi_def_cfa_register 7
 625:..\..\..\lvgl\version_6.1.2\lvgl\src\lv_themes/lv_theme_material.c **** #if LV_USE_DDLIST != 0
 626:..\..\..\lvgl\version_6.1.2\lvgl\src\lv_themes/lv_theme_material.c ****     static lv_style_t bg, sel;
 627:..\..\..\lvgl\version_6.1.2\lvgl\src\lv_themes/lv_theme_material.c ****     lv_style_copy(&bg, theme.style.panel);
 2742              		.loc 2 627 0
 2743 0004 214B     		ldr	r3, .L80
 2744 0006 9B68     		ldr	r3, [r3, #8]
 2745 0008 1946     		mov	r1, r3
 2746 000a 2148     		ldr	r0, .L80+4
ARM GAS  C:\Users\tmj32\AppData\Local\Temp\cc8DwYg3.s 			page 69


 2747 000c FFF7FEFF 		bl	lv_style_copy
 628:..\..\..\lvgl\version_6.1.2\lvgl\src\lv_themes/lv_theme_material.c ****     bg.body.padding.left   = LV_DPI / 6;
 2748              		.loc 2 628 0
 2749 0010 1F4B     		ldr	r3, .L80+4
 2750 0012 1922     		movs	r2, #25
 2751 0014 9A84     		strh	r2, [r3, #36]	@ movhi
 629:..\..\..\lvgl\version_6.1.2\lvgl\src\lv_themes/lv_theme_material.c ****     bg.body.padding.right  = LV_DPI / 6;
 2752              		.loc 2 629 0
 2753 0016 1E4B     		ldr	r3, .L80+4
 2754 0018 1922     		movs	r2, #25
 2755 001a DA84     		strh	r2, [r3, #38]	@ movhi
 630:..\..\..\lvgl\version_6.1.2\lvgl\src\lv_themes/lv_theme_material.c ****     bg.body.padding.top    = LV_DPI / 6;
 2756              		.loc 2 630 0
 2757 001c 1C4B     		ldr	r3, .L80+4
 2758 001e 1922     		movs	r2, #25
 2759 0020 1A84     		strh	r2, [r3, #32]	@ movhi
 631:..\..\..\lvgl\version_6.1.2\lvgl\src\lv_themes/lv_theme_material.c ****     bg.body.padding.bottom = LV_DPI / 6;
 2760              		.loc 2 631 0
 2761 0022 1B4B     		ldr	r3, .L80+4
 2762 0024 1922     		movs	r2, #25
 2763 0026 5A84     		strh	r2, [r3, #34]	@ movhi
 632:..\..\..\lvgl\version_6.1.2\lvgl\src\lv_themes/lv_theme_material.c ****     bg.text.line_space     = LV_DPI / 8;
 2764              		.loc 2 632 0
 2765 0028 194B     		ldr	r3, .L80+4
 2766 002a 1222     		movs	r2, #18
 2767 002c 5A87     		strh	r2, [r3, #58]	@ movhi
 633:..\..\..\lvgl\version_6.1.2\lvgl\src\lv_themes/lv_theme_material.c **** 
 634:..\..\..\lvgl\version_6.1.2\lvgl\src\lv_themes/lv_theme_material.c ****     lv_style_copy(&sel, &bg);
 2768              		.loc 2 634 0
 2769 002e 1849     		ldr	r1, .L80+4
 2770 0030 1848     		ldr	r0, .L80+8
 2771 0032 FFF7FEFF 		bl	lv_style_copy
 635:..\..\..\lvgl\version_6.1.2\lvgl\src\lv_themes/lv_theme_material.c ****     sel.body.main_color   = lv_color_hsv_to_rgb(_hue, 90, 70);
 2772              		.loc 2 635 0
 2773 0036 184B     		ldr	r3, .L80+12
 2774 0038 1B88     		ldrh	r3, [r3]
 2775 003a 164C     		ldr	r4, .L80+8
 2776 003c 4622     		movs	r2, #70
 2777 003e 5A21     		movs	r1, #90
 2778 0040 1846     		mov	r0, r3
 2779 0042 FFF7FEFF 		bl	lv_color_hsv_to_rgb
 2780 0046 6060     		str	r0, [r4, #4]
 636:..\..\..\lvgl\version_6.1.2\lvgl\src\lv_themes/lv_theme_material.c ****     sel.body.grad_color   = sel.body.main_color;
 2781              		.loc 2 636 0
 2782 0048 124A     		ldr	r2, .L80+8
 2783 004a 124B     		ldr	r3, .L80+8
 2784 004c 5B68     		ldr	r3, [r3, #4]
 2785 004e 9360     		str	r3, [r2, #8]
 637:..\..\..\lvgl\version_6.1.2\lvgl\src\lv_themes/lv_theme_material.c ****     sel.body.border.width = 0;
 2786              		.loc 2 637 0
 2787 0050 104B     		ldr	r3, .L80+8
 2788 0052 0022     		movs	r2, #0
 2789 0054 9A82     		strh	r2, [r3, #20]	@ movhi
 638:..\..\..\lvgl\version_6.1.2\lvgl\src\lv_themes/lv_theme_material.c ****     sel.body.shadow.width = 0;
 2790              		.loc 2 638 0
 2791 0056 0F4B     		ldr	r3, .L80+8
 2792 0058 0022     		movs	r2, #0
ARM GAS  C:\Users\tmj32\AppData\Local\Temp\cc8DwYg3.s 			page 70


 2793 005a 9A83     		strh	r2, [r3, #28]	@ movhi
 639:..\..\..\lvgl\version_6.1.2\lvgl\src\lv_themes/lv_theme_material.c ****     sel.text.color        = lv_color_hsv_to_rgb(_hue, 5, 95);
 2794              		.loc 2 639 0
 2795 005c 0E4B     		ldr	r3, .L80+12
 2796 005e 1B88     		ldrh	r3, [r3]
 2797 0060 0C4C     		ldr	r4, .L80+8
 2798 0062 5F22     		movs	r2, #95
 2799 0064 0521     		movs	r1, #5
 2800 0066 1846     		mov	r0, r3
 2801 0068 FFF7FEFF 		bl	lv_color_hsv_to_rgb
 2802 006c E062     		str	r0, [r4, #44]
 640:..\..\..\lvgl\version_6.1.2\lvgl\src\lv_themes/lv_theme_material.c **** 
 641:..\..\..\lvgl\version_6.1.2\lvgl\src\lv_themes/lv_theme_material.c ****     theme.style.ddlist.bg  = &bg;
 2803              		.loc 2 641 0
 2804 006e 074B     		ldr	r3, .L80
 2805 0070 074A     		ldr	r2, .L80+4
 2806 0072 C3F84C21 		str	r2, [r3, #332]
 642:..\..\..\lvgl\version_6.1.2\lvgl\src\lv_themes/lv_theme_material.c ****     theme.style.ddlist.sel = &sel;
 2807              		.loc 2 642 0
 2808 0076 054B     		ldr	r3, .L80
 2809 0078 064A     		ldr	r2, .L80+8
 2810 007a C3F85021 		str	r2, [r3, #336]
 643:..\..\..\lvgl\version_6.1.2\lvgl\src\lv_themes/lv_theme_material.c ****     theme.style.ddlist.sb  = &sb;
 2811              		.loc 2 643 0
 2812 007e 034B     		ldr	r3, .L80
 2813 0080 064A     		ldr	r2, .L80+16
 2814 0082 C3F85421 		str	r2, [r3, #340]
 644:..\..\..\lvgl\version_6.1.2\lvgl\src\lv_themes/lv_theme_material.c **** #endif
 645:..\..\..\lvgl\version_6.1.2\lvgl\src\lv_themes/lv_theme_material.c **** }
 2815              		.loc 2 645 0
 2816 0086 00BF     		nop
 2817 0088 98BD     		pop	{r3, r4, r7, pc}
 2818              	.L81:
 2819 008a 00BF     		.align	2
 2820              	.L80:
 2821 008c 00000000 		.word	theme
 2822 0090 A0110000 		.word	bg.6074
 2823 0094 F0110000 		.word	sel.6075
 2824 0098 48020000 		.word	_hue
 2825 009c F8010000 		.word	sb
 2826              		.cfi_endproc
 2827              	.LFE55:
 2828              		.size	ddlist_init, .-ddlist_init
 2829              		.section	.text.roller_init,"ax",%progbits
 2830              		.align	2
 2831              		.thumb
 2832              		.thumb_func
 2833              		.type	roller_init, %function
 2834              	roller_init:
 2835              	.LFB56:
 646:..\..\..\lvgl\version_6.1.2\lvgl\src\lv_themes/lv_theme_material.c **** 
 647:..\..\..\lvgl\version_6.1.2\lvgl\src\lv_themes/lv_theme_material.c **** static void roller_init(void)
 648:..\..\..\lvgl\version_6.1.2\lvgl\src\lv_themes/lv_theme_material.c **** {
 2836              		.loc 2 648 0
 2837              		.cfi_startproc
 2838              		@ args = 0, pretend = 0, frame = 0
 2839              		@ frame_needed = 1, uses_anonymous_args = 0
ARM GAS  C:\Users\tmj32\AppData\Local\Temp\cc8DwYg3.s 			page 71


 2840 0000 98B5     		push	{r3, r4, r7, lr}
 2841              		.cfi_def_cfa_offset 16
 2842              		.cfi_offset 3, -16
 2843              		.cfi_offset 4, -12
 2844              		.cfi_offset 7, -8
 2845              		.cfi_offset 14, -4
 2846 0002 00AF     		add	r7, sp, #0
 2847              		.cfi_def_cfa_register 7
 649:..\..\..\lvgl\version_6.1.2\lvgl\src\lv_themes/lv_theme_material.c **** #if LV_USE_ROLLER != 0
 650:..\..\..\lvgl\version_6.1.2\lvgl\src\lv_themes/lv_theme_material.c ****     static lv_style_t roller_bg, roller_sel;
 651:..\..\..\lvgl\version_6.1.2\lvgl\src\lv_themes/lv_theme_material.c **** 
 652:..\..\..\lvgl\version_6.1.2\lvgl\src\lv_themes/lv_theme_material.c ****     lv_style_copy(&roller_bg, &lv_style_transp);
 2848              		.loc 2 652 0
 2849 0004 1949     		ldr	r1, .L83
 2850 0006 1A48     		ldr	r0, .L83+4
 2851 0008 FFF7FEFF 		bl	lv_style_copy
 653:..\..\..\lvgl\version_6.1.2\lvgl\src\lv_themes/lv_theme_material.c ****     roller_bg.body.padding.left   = LV_DPI / 6;
 2852              		.loc 2 653 0
 2853 000c 184B     		ldr	r3, .L83+4
 2854 000e 1922     		movs	r2, #25
 2855 0010 9A84     		strh	r2, [r3, #36]	@ movhi
 654:..\..\..\lvgl\version_6.1.2\lvgl\src\lv_themes/lv_theme_material.c ****     roller_bg.body.padding.right  = LV_DPI / 6;
 2856              		.loc 2 654 0
 2857 0012 174B     		ldr	r3, .L83+4
 2858 0014 1922     		movs	r2, #25
 2859 0016 DA84     		strh	r2, [r3, #38]	@ movhi
 655:..\..\..\lvgl\version_6.1.2\lvgl\src\lv_themes/lv_theme_material.c ****     roller_bg.body.padding.top    = LV_DPI / 6;
 2860              		.loc 2 655 0
 2861 0018 154B     		ldr	r3, .L83+4
 2862 001a 1922     		movs	r2, #25
 2863 001c 1A84     		strh	r2, [r3, #32]	@ movhi
 656:..\..\..\lvgl\version_6.1.2\lvgl\src\lv_themes/lv_theme_material.c ****     roller_bg.body.padding.bottom = LV_DPI / 6;
 2864              		.loc 2 656 0
 2865 001e 144B     		ldr	r3, .L83+4
 2866 0020 1922     		movs	r2, #25
 2867 0022 5A84     		strh	r2, [r3, #34]	@ movhi
 657:..\..\..\lvgl\version_6.1.2\lvgl\src\lv_themes/lv_theme_material.c ****     roller_bg.text.line_space     = LV_DPI / 8;
 2868              		.loc 2 657 0
 2869 0024 124B     		ldr	r3, .L83+4
 2870 0026 1222     		movs	r2, #18
 2871 0028 5A87     		strh	r2, [r3, #58]	@ movhi
 658:..\..\..\lvgl\version_6.1.2\lvgl\src\lv_themes/lv_theme_material.c ****     roller_bg.text.font           = _font;
 2872              		.loc 2 658 0
 2873 002a 124B     		ldr	r3, .L83+8
 2874 002c 1B68     		ldr	r3, [r3]
 2875 002e 104A     		ldr	r2, .L83+4
 2876 0030 5363     		str	r3, [r2, #52]
 659:..\..\..\lvgl\version_6.1.2\lvgl\src\lv_themes/lv_theme_material.c ****     roller_bg.glass               = 0;
 2877              		.loc 2 659 0
 2878 0032 0F4A     		ldr	r2, .L83+4
 2879 0034 1378     		ldrb	r3, [r2]
 2880 0036 6FF30003 		bfc	r3, #0, #1
 2881 003a 1370     		strb	r3, [r2]
 660:..\..\..\lvgl\version_6.1.2\lvgl\src\lv_themes/lv_theme_material.c **** 
 661:..\..\..\lvgl\version_6.1.2\lvgl\src\lv_themes/lv_theme_material.c ****     lv_style_copy(&roller_sel, &roller_bg);
 2882              		.loc 2 661 0
 2883 003c 0C49     		ldr	r1, .L83+4
ARM GAS  C:\Users\tmj32\AppData\Local\Temp\cc8DwYg3.s 			page 72


 2884 003e 0E48     		ldr	r0, .L83+12
 2885 0040 FFF7FEFF 		bl	lv_style_copy
 662:..\..\..\lvgl\version_6.1.2\lvgl\src\lv_themes/lv_theme_material.c ****     roller_sel.text.color = lv_color_hsv_to_rgb(_hue, 90, 70);
 2886              		.loc 2 662 0
 2887 0044 0D4B     		ldr	r3, .L83+16
 2888 0046 1B88     		ldrh	r3, [r3]
 2889 0048 0B4C     		ldr	r4, .L83+12
 2890 004a 4622     		movs	r2, #70
 2891 004c 5A21     		movs	r1, #90
 2892 004e 1846     		mov	r0, r3
 2893 0050 FFF7FEFF 		bl	lv_color_hsv_to_rgb
 2894 0054 E062     		str	r0, [r4, #44]
 663:..\..\..\lvgl\version_6.1.2\lvgl\src\lv_themes/lv_theme_material.c **** 
 664:..\..\..\lvgl\version_6.1.2\lvgl\src\lv_themes/lv_theme_material.c ****     theme.style.roller.bg  = &roller_bg;
 2895              		.loc 2 664 0
 2896 0056 0A4B     		ldr	r3, .L83+20
 2897 0058 054A     		ldr	r2, .L83+4
 2898 005a C3F85821 		str	r2, [r3, #344]
 665:..\..\..\lvgl\version_6.1.2\lvgl\src\lv_themes/lv_theme_material.c ****     theme.style.roller.sel = &roller_sel;
 2899              		.loc 2 665 0
 2900 005e 084B     		ldr	r3, .L83+20
 2901 0060 054A     		ldr	r2, .L83+12
 2902 0062 C3F85C21 		str	r2, [r3, #348]
 666:..\..\..\lvgl\version_6.1.2\lvgl\src\lv_themes/lv_theme_material.c **** #endif
 667:..\..\..\lvgl\version_6.1.2\lvgl\src\lv_themes/lv_theme_material.c **** }
 2903              		.loc 2 667 0
 2904 0066 00BF     		nop
 2905 0068 98BD     		pop	{r3, r4, r7, pc}
 2906              	.L84:
 2907 006a 00BF     		.align	2
 2908              	.L83:
 2909 006c 00000000 		.word	lv_style_transp
 2910 0070 40120000 		.word	roller_bg.6079
 2911 0074 4C020000 		.word	_font
 2912 0078 90120000 		.word	roller_sel.6080
 2913 007c 48020000 		.word	_hue
 2914 0080 00000000 		.word	theme
 2915              		.cfi_endproc
 2916              	.LFE56:
 2917              		.size	roller_init, .-roller_init
 2918              		.section	.text.tabview_init,"ax",%progbits
 2919              		.align	2
 2920              		.thumb
 2921              		.thumb_func
 2922              		.type	tabview_init, %function
 2923              	tabview_init:
 2924              	.LFB57:
 668:..\..\..\lvgl\version_6.1.2\lvgl\src\lv_themes/lv_theme_material.c **** 
 669:..\..\..\lvgl\version_6.1.2\lvgl\src\lv_themes/lv_theme_material.c **** static void tabview_init(void)
 670:..\..\..\lvgl\version_6.1.2\lvgl\src\lv_themes/lv_theme_material.c **** {
 2925              		.loc 2 670 0
 2926              		.cfi_startproc
 2927              		@ args = 0, pretend = 0, frame = 0
 2928              		@ frame_needed = 1, uses_anonymous_args = 0
 2929 0000 98B5     		push	{r3, r4, r7, lr}
 2930              		.cfi_def_cfa_offset 16
 2931              		.cfi_offset 3, -16
ARM GAS  C:\Users\tmj32\AppData\Local\Temp\cc8DwYg3.s 			page 73


 2932              		.cfi_offset 4, -12
 2933              		.cfi_offset 7, -8
 2934              		.cfi_offset 14, -4
 2935 0002 00AF     		add	r7, sp, #0
 2936              		.cfi_def_cfa_register 7
 671:..\..\..\lvgl\version_6.1.2\lvgl\src\lv_themes/lv_theme_material.c **** #if LV_USE_TABVIEW != 0
 672:..\..\..\lvgl\version_6.1.2\lvgl\src\lv_themes/lv_theme_material.c ****     static lv_style_t indic, btn_bg, rel, pr, tgl_rel, tgl_pr;
 673:..\..\..\lvgl\version_6.1.2\lvgl\src\lv_themes/lv_theme_material.c **** 
 674:..\..\..\lvgl\version_6.1.2\lvgl\src\lv_themes/lv_theme_material.c ****     lv_style_copy(&indic, &def);
 2937              		.loc 2 674 0
 2938 0004 7649     		ldr	r1, .L86
 2939 0006 7748     		ldr	r0, .L86+4
 2940 0008 FFF7FEFF 		bl	lv_style_copy
 675:..\..\..\lvgl\version_6.1.2\lvgl\src\lv_themes/lv_theme_material.c ****     indic.body.main_color    = lv_color_hsv_to_rgb(_hue, 90, 70);
 2941              		.loc 2 675 0
 2942 000c 764B     		ldr	r3, .L86+8
 2943 000e 1B88     		ldrh	r3, [r3]
 2944 0010 744C     		ldr	r4, .L86+4
 2945 0012 4622     		movs	r2, #70
 2946 0014 5A21     		movs	r1, #90
 2947 0016 1846     		mov	r0, r3
 2948 0018 FFF7FEFF 		bl	lv_color_hsv_to_rgb
 2949 001c 6060     		str	r0, [r4, #4]
 676:..\..\..\lvgl\version_6.1.2\lvgl\src\lv_themes/lv_theme_material.c ****     indic.body.grad_color    = indic.body.main_color;
 2950              		.loc 2 676 0
 2951 001e 714A     		ldr	r2, .L86+4
 2952 0020 704B     		ldr	r3, .L86+4
 2953 0022 5B68     		ldr	r3, [r3, #4]
 2954 0024 9360     		str	r3, [r2, #8]
 677:..\..\..\lvgl\version_6.1.2\lvgl\src\lv_themes/lv_theme_material.c ****     indic.body.radius        = 0;
 2955              		.loc 2 677 0
 2956 0026 6F4B     		ldr	r3, .L86+4
 2957 0028 0022     		movs	r2, #0
 2958 002a 9A81     		strh	r2, [r3, #12]	@ movhi
 678:..\..\..\lvgl\version_6.1.2\lvgl\src\lv_themes/lv_theme_material.c ****     indic.body.border.width  = 0;
 2959              		.loc 2 678 0
 2960 002c 6D4B     		ldr	r3, .L86+4
 2961 002e 0022     		movs	r2, #0
 2962 0030 9A82     		strh	r2, [r3, #20]	@ movhi
 679:..\..\..\lvgl\version_6.1.2\lvgl\src\lv_themes/lv_theme_material.c ****     indic.body.padding.inner = LV_DPI / 20;
 2963              		.loc 2 679 0
 2964 0032 6C4B     		ldr	r3, .L86+4
 2965 0034 0722     		movs	r2, #7
 2966 0036 1A85     		strh	r2, [r3, #40]	@ movhi
 680:..\..\..\lvgl\version_6.1.2\lvgl\src\lv_themes/lv_theme_material.c **** 
 681:..\..\..\lvgl\version_6.1.2\lvgl\src\lv_themes/lv_theme_material.c ****     lv_style_copy(&btn_bg, &def);
 2967              		.loc 2 681 0
 2968 0038 6949     		ldr	r1, .L86
 2969 003a 6C48     		ldr	r0, .L86+12
 2970 003c FFF7FEFF 		bl	lv_style_copy
 682:..\..\..\lvgl\version_6.1.2\lvgl\src\lv_themes/lv_theme_material.c ****     btn_bg.body.main_color     = lv_color_hex3(0xccc);
 2971              		.loc 2 682 0
 2972 0040 6A4C     		ldr	r4, .L86+12
 2973 0042 40F6CC40 		movw	r0, #3276
 2974 0046 FFF7FEFF 		bl	lv_color_hex3
 2975 004a 6060     		str	r0, [r4, #4]
 683:..\..\..\lvgl\version_6.1.2\lvgl\src\lv_themes/lv_theme_material.c ****     btn_bg.body.grad_color     = btn_bg.body.main_color;
ARM GAS  C:\Users\tmj32\AppData\Local\Temp\cc8DwYg3.s 			page 74


 2976              		.loc 2 683 0
 2977 004c 674A     		ldr	r2, .L86+12
 2978 004e 674B     		ldr	r3, .L86+12
 2979 0050 5B68     		ldr	r3, [r3, #4]
 2980 0052 9360     		str	r3, [r2, #8]
 684:..\..\..\lvgl\version_6.1.2\lvgl\src\lv_themes/lv_theme_material.c ****     btn_bg.body.radius         = 0;
 2981              		.loc 2 684 0
 2982 0054 654B     		ldr	r3, .L86+12
 2983 0056 0022     		movs	r2, #0
 2984 0058 9A81     		strh	r2, [r3, #12]	@ movhi
 685:..\..\..\lvgl\version_6.1.2\lvgl\src\lv_themes/lv_theme_material.c ****     btn_bg.body.border.width   = 1;
 2985              		.loc 2 685 0
 2986 005a 644B     		ldr	r3, .L86+12
 2987 005c 0122     		movs	r2, #1
 2988 005e 9A82     		strh	r2, [r3, #20]	@ movhi
