ARM GAS  C:\Users\tmj32\AppData\Local\Temp\ccxLIBac.s 			page 1


   1              		.syntax unified
   2              		.cpu cortex-m4
   3              		.eabi_attribute 27, 1
   4              		.fpu fpv4-sp-d16
   5              		.eabi_attribute 20, 1
   6              		.eabi_attribute 21, 1
   7              		.eabi_attribute 23, 3
   8              		.eabi_attribute 24, 1
   9              		.eabi_attribute 25, 1
  10              		.eabi_attribute 26, 1
  11              		.eabi_attribute 30, 6
  12              		.eabi_attribute 34, 1
  13              		.eabi_attribute 18, 4
  14              		.thumb
  15              		.syntax unified
  16              		.file	"lv_theme.c"
  17              		.text
  18              	.Ltext0:
  19              		.cfi_sections	.debug_frame
  20              		.bss
  21              		.align	2
  22              	current_theme:
  23 0000 00000000 		.space	4
  24              		.section	.text.lv_theme_set_current,"ax",%progbits
  25              		.align	2
  26              		.global	lv_theme_set_current
  27              		.thumb
  28              		.thumb_func
  29              		.type	lv_theme_set_current, %function
  30              	lv_theme_set_current:
  31              	.LFB31:
  32              		.file 1 "..\\..\\..\\lvgl\\version_6.1.2\\lvgl\\src\\lv_themes\\lv_theme.c"
   1:..\..\..\lvgl\version_6.1.2\lvgl\src\lv_themes/lv_theme.c **** /**
   2:..\..\..\lvgl\version_6.1.2\lvgl\src\lv_themes/lv_theme.c ****  * @file lv_theme.c
   3:..\..\..\lvgl\version_6.1.2\lvgl\src\lv_themes/lv_theme.c ****  *
   4:..\..\..\lvgl\version_6.1.2\lvgl\src\lv_themes/lv_theme.c ****  */
   5:..\..\..\lvgl\version_6.1.2\lvgl\src\lv_themes/lv_theme.c **** 
   6:..\..\..\lvgl\version_6.1.2\lvgl\src\lv_themes/lv_theme.c **** /*********************
   7:..\..\..\lvgl\version_6.1.2\lvgl\src\lv_themes/lv_theme.c ****  *      INCLUDES
   8:..\..\..\lvgl\version_6.1.2\lvgl\src\lv_themes/lv_theme.c ****  *********************/
   9:..\..\..\lvgl\version_6.1.2\lvgl\src\lv_themes/lv_theme.c **** #include "lv_theme.h"
  10:..\..\..\lvgl\version_6.1.2\lvgl\src\lv_themes/lv_theme.c **** #include "../lv_core/lv_obj.h"
  11:..\..\..\lvgl\version_6.1.2\lvgl\src\lv_themes/lv_theme.c **** 
  12:..\..\..\lvgl\version_6.1.2\lvgl\src\lv_themes/lv_theme.c **** /*********************
  13:..\..\..\lvgl\version_6.1.2\lvgl\src\lv_themes/lv_theme.c ****  *      DEFINES
  14:..\..\..\lvgl\version_6.1.2\lvgl\src\lv_themes/lv_theme.c ****  *********************/
  15:..\..\..\lvgl\version_6.1.2\lvgl\src\lv_themes/lv_theme.c **** 
  16:..\..\..\lvgl\version_6.1.2\lvgl\src\lv_themes/lv_theme.c **** /**********************
  17:..\..\..\lvgl\version_6.1.2\lvgl\src\lv_themes/lv_theme.c ****  *      TYPEDEFS
  18:..\..\..\lvgl\version_6.1.2\lvgl\src\lv_themes/lv_theme.c ****  **********************/
  19:..\..\..\lvgl\version_6.1.2\lvgl\src\lv_themes/lv_theme.c **** 
  20:..\..\..\lvgl\version_6.1.2\lvgl\src\lv_themes/lv_theme.c **** /**********************
  21:..\..\..\lvgl\version_6.1.2\lvgl\src\lv_themes/lv_theme.c ****  *  STATIC PROTOTYPES
  22:..\..\..\lvgl\version_6.1.2\lvgl\src\lv_themes/lv_theme.c ****  **********************/
  23:..\..\..\lvgl\version_6.1.2\lvgl\src\lv_themes/lv_theme.c **** 
  24:..\..\..\lvgl\version_6.1.2\lvgl\src\lv_themes/lv_theme.c **** /**********************
  25:..\..\..\lvgl\version_6.1.2\lvgl\src\lv_themes/lv_theme.c ****  *  STATIC VARIABLES
ARM GAS  C:\Users\tmj32\AppData\Local\Temp\ccxLIBac.s 			page 2


  26:..\..\..\lvgl\version_6.1.2\lvgl\src\lv_themes/lv_theme.c ****  **********************/
  27:..\..\..\lvgl\version_6.1.2\lvgl\src\lv_themes/lv_theme.c **** 
  28:..\..\..\lvgl\version_6.1.2\lvgl\src\lv_themes/lv_theme.c **** #if LV_THEME_LIVE_UPDATE == 0
  29:..\..\..\lvgl\version_6.1.2\lvgl\src\lv_themes/lv_theme.c **** static lv_theme_t * current_theme;
  30:..\..\..\lvgl\version_6.1.2\lvgl\src\lv_themes/lv_theme.c **** #else
  31:..\..\..\lvgl\version_6.1.2\lvgl\src\lv_themes/lv_theme.c **** /* If live update is used then a big `lv_style_t` array is used to store the real styles of the
  32:..\..\..\lvgl\version_6.1.2\lvgl\src\lv_themes/lv_theme.c ****  * theme not only pointers. On `lv_theme_set_current` the styles of the theme are copied to this
  33:..\..\..\lvgl\version_6.1.2\lvgl\src\lv_themes/lv_theme.c ****  * array. The pointers in `current_theme` are initialized to point to the styles in the array. This
  34:..\..\..\lvgl\version_6.1.2\lvgl\src\lv_themes/lv_theme.c ****  * way the theme styles will always point to the same memory address even after theme is change.
  35:..\..\..\lvgl\version_6.1.2\lvgl\src\lv_themes/lv_theme.c ****  * (The pointers in the theme points to the styles declared by the theme itself) */
  36:..\..\..\lvgl\version_6.1.2\lvgl\src\lv_themes/lv_theme.c **** 
  37:..\..\..\lvgl\version_6.1.2\lvgl\src\lv_themes/lv_theme.c **** /* Store the styles in this array. */
  38:..\..\..\lvgl\version_6.1.2\lvgl\src\lv_themes/lv_theme.c **** static lv_style_t th_styles[LV_THEME_STYLE_COUNT];
  39:..\..\..\lvgl\version_6.1.2\lvgl\src\lv_themes/lv_theme.c **** static bool inited = false;
  40:..\..\..\lvgl\version_6.1.2\lvgl\src\lv_themes/lv_theme.c **** static lv_theme_t current_theme;
  41:..\..\..\lvgl\version_6.1.2\lvgl\src\lv_themes/lv_theme.c **** #endif
  42:..\..\..\lvgl\version_6.1.2\lvgl\src\lv_themes/lv_theme.c **** 
  43:..\..\..\lvgl\version_6.1.2\lvgl\src\lv_themes/lv_theme.c **** /**********************
  44:..\..\..\lvgl\version_6.1.2\lvgl\src\lv_themes/lv_theme.c ****  *      MACROS
  45:..\..\..\lvgl\version_6.1.2\lvgl\src\lv_themes/lv_theme.c ****  **********************/
  46:..\..\..\lvgl\version_6.1.2\lvgl\src\lv_themes/lv_theme.c **** 
  47:..\..\..\lvgl\version_6.1.2\lvgl\src\lv_themes/lv_theme.c **** /**********************
  48:..\..\..\lvgl\version_6.1.2\lvgl\src\lv_themes/lv_theme.c ****  *   GLOBAL FUNCTIONS
  49:..\..\..\lvgl\version_6.1.2\lvgl\src\lv_themes/lv_theme.c ****  **********************/
  50:..\..\..\lvgl\version_6.1.2\lvgl\src\lv_themes/lv_theme.c **** 
  51:..\..\..\lvgl\version_6.1.2\lvgl\src\lv_themes/lv_theme.c **** /**
  52:..\..\..\lvgl\version_6.1.2\lvgl\src\lv_themes/lv_theme.c ****  * Set a theme for the system.
  53:..\..\..\lvgl\version_6.1.2\lvgl\src\lv_themes/lv_theme.c ****  * From now, all the created objects will use styles from this theme by default
  54:..\..\..\lvgl\version_6.1.2\lvgl\src\lv_themes/lv_theme.c ****  * @param th pointer to theme (return value of: 'lv_theme_init_xxx()')
  55:..\..\..\lvgl\version_6.1.2\lvgl\src\lv_themes/lv_theme.c ****  */
  56:..\..\..\lvgl\version_6.1.2\lvgl\src\lv_themes/lv_theme.c **** void lv_theme_set_current(lv_theme_t * th)
  57:..\..\..\lvgl\version_6.1.2\lvgl\src\lv_themes/lv_theme.c **** {
  33              		.loc 1 57 0
  34              		.cfi_startproc
  35              		@ args = 0, pretend = 0, frame = 8
  36              		@ frame_needed = 1, uses_anonymous_args = 0
  37 0000 80B5     		push	{r7, lr}
  38              		.cfi_def_cfa_offset 8
  39              		.cfi_offset 7, -8
  40              		.cfi_offset 14, -4
  41 0002 82B0     		sub	sp, sp, #8
  42              		.cfi_def_cfa_offset 16
  43 0004 00AF     		add	r7, sp, #0
  44              		.cfi_def_cfa_register 7
  45 0006 7860     		str	r0, [r7, #4]
  58:..\..\..\lvgl\version_6.1.2\lvgl\src\lv_themes/lv_theme.c **** #if LV_THEME_LIVE_UPDATE == 0
  59:..\..\..\lvgl\version_6.1.2\lvgl\src\lv_themes/lv_theme.c ****     current_theme = th;
  46              		.loc 1 59 0
  47 0008 044A     		ldr	r2, .L2
  48 000a 7B68     		ldr	r3, [r7, #4]
  49 000c 1360     		str	r3, [r2]
  60:..\..\..\lvgl\version_6.1.2\lvgl\src\lv_themes/lv_theme.c **** 
  61:..\..\..\lvgl\version_6.1.2\lvgl\src\lv_themes/lv_theme.c **** #if LV_USE_GROUP
  62:..\..\..\lvgl\version_6.1.2\lvgl\src\lv_themes/lv_theme.c ****     /*Copy group style modification callback functions*/
  63:..\..\..\lvgl\version_6.1.2\lvgl\src\lv_themes/lv_theme.c ****     memcpy(&current_theme->group, &th->group, sizeof(th->group));
  64:..\..\..\lvgl\version_6.1.2\lvgl\src\lv_themes/lv_theme.c **** #endif
  65:..\..\..\lvgl\version_6.1.2\lvgl\src\lv_themes/lv_theme.c **** 
ARM GAS  C:\Users\tmj32\AppData\Local\Temp\ccxLIBac.s 			page 3


  66:..\..\..\lvgl\version_6.1.2\lvgl\src\lv_themes/lv_theme.c ****     /*Let the object know their style might change*/
  67:..\..\..\lvgl\version_6.1.2\lvgl\src\lv_themes/lv_theme.c ****     lv_obj_report_style_mod(NULL);
  50              		.loc 1 67 0
  51 000e 0020     		movs	r0, #0
  52 0010 FFF7FEFF 		bl	lv_obj_report_style_mod
  68:..\..\..\lvgl\version_6.1.2\lvgl\src\lv_themes/lv_theme.c **** 
  69:..\..\..\lvgl\version_6.1.2\lvgl\src\lv_themes/lv_theme.c **** #else
  70:..\..\..\lvgl\version_6.1.2\lvgl\src\lv_themes/lv_theme.c ****     uint32_t style_num = sizeof(th->style) / sizeof(lv_style_t *); /*Number of styles in a theme*/
  71:..\..\..\lvgl\version_6.1.2\lvgl\src\lv_themes/lv_theme.c **** 
  72:..\..\..\lvgl\version_6.1.2\lvgl\src\lv_themes/lv_theme.c ****     if(!inited) {
  73:..\..\..\lvgl\version_6.1.2\lvgl\src\lv_themes/lv_theme.c ****         /*Initialize the style pointers `current_theme` to point to the `th_styles` style array */
  74:..\..\..\lvgl\version_6.1.2\lvgl\src\lv_themes/lv_theme.c ****         uint16_t i;
  75:..\..\..\lvgl\version_6.1.2\lvgl\src\lv_themes/lv_theme.c ****         lv_style_t ** cur_th_style_p = (lv_style_t **)&current_theme.style;
  76:..\..\..\lvgl\version_6.1.2\lvgl\src\lv_themes/lv_theme.c ****         for(i = 0; i < style_num; i++) {
  77:..\..\..\lvgl\version_6.1.2\lvgl\src\lv_themes/lv_theme.c ****             uintptr_t adr = (uintptr_t)&th_styles[i];
  78:..\..\..\lvgl\version_6.1.2\lvgl\src\lv_themes/lv_theme.c ****             memcpy(&cur_th_style_p[i], &adr, sizeof(lv_style_t *));
  79:..\..\..\lvgl\version_6.1.2\lvgl\src\lv_themes/lv_theme.c ****         }
  80:..\..\..\lvgl\version_6.1.2\lvgl\src\lv_themes/lv_theme.c ****         inited = true;
  81:..\..\..\lvgl\version_6.1.2\lvgl\src\lv_themes/lv_theme.c ****     }
  82:..\..\..\lvgl\version_6.1.2\lvgl\src\lv_themes/lv_theme.c **** 
  83:..\..\..\lvgl\version_6.1.2\lvgl\src\lv_themes/lv_theme.c ****     /*Copy the styles pointed by the new theme to the `th_styles` style array*/
  84:..\..\..\lvgl\version_6.1.2\lvgl\src\lv_themes/lv_theme.c ****     uint16_t i;
  85:..\..\..\lvgl\version_6.1.2\lvgl\src\lv_themes/lv_theme.c ****     lv_style_t ** th_style = (lv_style_t **)&th->style;
  86:..\..\..\lvgl\version_6.1.2\lvgl\src\lv_themes/lv_theme.c ****     for(i = 0; i < style_num; i++) {
  87:..\..\..\lvgl\version_6.1.2\lvgl\src\lv_themes/lv_theme.c ****         uintptr_t s = (uintptr_t)th_style[i];
  88:..\..\..\lvgl\version_6.1.2\lvgl\src\lv_themes/lv_theme.c ****         if(s) memcpy(&th_styles[i], (void *)s, sizeof(lv_style_t));
  89:..\..\..\lvgl\version_6.1.2\lvgl\src\lv_themes/lv_theme.c ****     }
  90:..\..\..\lvgl\version_6.1.2\lvgl\src\lv_themes/lv_theme.c **** 
  91:..\..\..\lvgl\version_6.1.2\lvgl\src\lv_themes/lv_theme.c **** #if LV_USE_GROUP
  92:..\..\..\lvgl\version_6.1.2\lvgl\src\lv_themes/lv_theme.c ****     /*Copy group style modification callback functions*/
  93:..\..\..\lvgl\version_6.1.2\lvgl\src\lv_themes/lv_theme.c ****     memcpy(&current_theme.group, &th->group, sizeof(th->group));
  94:..\..\..\lvgl\version_6.1.2\lvgl\src\lv_themes/lv_theme.c **** #endif
  95:..\..\..\lvgl\version_6.1.2\lvgl\src\lv_themes/lv_theme.c **** 
  96:..\..\..\lvgl\version_6.1.2\lvgl\src\lv_themes/lv_theme.c ****     /*Let the object know their style might change*/
  97:..\..\..\lvgl\version_6.1.2\lvgl\src\lv_themes/lv_theme.c ****     lv_obj_report_style_mod(NULL);
  98:..\..\..\lvgl\version_6.1.2\lvgl\src\lv_themes/lv_theme.c **** 
  99:..\..\..\lvgl\version_6.1.2\lvgl\src\lv_themes/lv_theme.c **** #endif
 100:..\..\..\lvgl\version_6.1.2\lvgl\src\lv_themes/lv_theme.c **** 
 101:..\..\..\lvgl\version_6.1.2\lvgl\src\lv_themes/lv_theme.c **** #if LV_USE_GROUP
 102:..\..\..\lvgl\version_6.1.2\lvgl\src\lv_themes/lv_theme.c ****     lv_group_report_style_mod(NULL);
 103:..\..\..\lvgl\version_6.1.2\lvgl\src\lv_themes/lv_theme.c **** #endif
 104:..\..\..\lvgl\version_6.1.2\lvgl\src\lv_themes/lv_theme.c **** }
  53              		.loc 1 104 0
  54 0014 00BF     		nop
  55 0016 0837     		adds	r7, r7, #8
  56              		.cfi_def_cfa_offset 8
  57 0018 BD46     		mov	sp, r7
  58              		.cfi_def_cfa_register 13
  59              		@ sp needed
  60 001a 80BD     		pop	{r7, pc}
  61              	.L3:
  62              		.align	2
  63              	.L2:
  64 001c 00000000 		.word	current_theme
  65              		.cfi_endproc
  66              	.LFE31:
  67              		.size	lv_theme_set_current, .-lv_theme_set_current
ARM GAS  C:\Users\tmj32\AppData\Local\Temp\ccxLIBac.s 			page 4


  68              		.section	.text.lv_theme_get_current,"ax",%progbits
  69              		.align	2
  70              		.global	lv_theme_get_current
  71              		.thumb
  72              		.thumb_func
  73              		.type	lv_theme_get_current, %function
  74              	lv_theme_get_current:
  75              	.LFB32:
 105:..\..\..\lvgl\version_6.1.2\lvgl\src\lv_themes/lv_theme.c **** 
 106:..\..\..\lvgl\version_6.1.2\lvgl\src\lv_themes/lv_theme.c **** /**
 107:..\..\..\lvgl\version_6.1.2\lvgl\src\lv_themes/lv_theme.c ****  * Get the current system theme.
 108:..\..\..\lvgl\version_6.1.2\lvgl\src\lv_themes/lv_theme.c ****  * @return pointer to the current system theme. NULL if not set.
 109:..\..\..\lvgl\version_6.1.2\lvgl\src\lv_themes/lv_theme.c ****  */
 110:..\..\..\lvgl\version_6.1.2\lvgl\src\lv_themes/lv_theme.c **** lv_theme_t * lv_theme_get_current(void)
 111:..\..\..\lvgl\version_6.1.2\lvgl\src\lv_themes/lv_theme.c **** {
  76              		.loc 1 111 0
  77              		.cfi_startproc
  78              		@ args = 0, pretend = 0, frame = 0
  79              		@ frame_needed = 1, uses_anonymous_args = 0
  80              		@ link register save eliminated.
  81 0000 80B4     		push	{r7}
  82              		.cfi_def_cfa_offset 4
  83              		.cfi_offset 7, -4
  84 0002 00AF     		add	r7, sp, #0
  85              		.cfi_def_cfa_register 7
 112:..\..\..\lvgl\version_6.1.2\lvgl\src\lv_themes/lv_theme.c **** #if LV_THEME_LIVE_UPDATE == 0
 113:..\..\..\lvgl\version_6.1.2\lvgl\src\lv_themes/lv_theme.c ****     return current_theme;
  86              		.loc 1 113 0
  87 0004 034B     		ldr	r3, .L6
  88 0006 1B68     		ldr	r3, [r3]
 114:..\..\..\lvgl\version_6.1.2\lvgl\src\lv_themes/lv_theme.c **** #else
 115:..\..\..\lvgl\version_6.1.2\lvgl\src\lv_themes/lv_theme.c ****     if(!inited)
 116:..\..\..\lvgl\version_6.1.2\lvgl\src\lv_themes/lv_theme.c ****         return NULL;
 117:..\..\..\lvgl\version_6.1.2\lvgl\src\lv_themes/lv_theme.c ****     else
 118:..\..\..\lvgl\version_6.1.2\lvgl\src\lv_themes/lv_theme.c ****         return &current_theme;
 119:..\..\..\lvgl\version_6.1.2\lvgl\src\lv_themes/lv_theme.c **** #endif
 120:..\..\..\lvgl\version_6.1.2\lvgl\src\lv_themes/lv_theme.c **** }
  89              		.loc 1 120 0
  90 0008 1846     		mov	r0, r3
  91 000a BD46     		mov	sp, r7
  92              		.cfi_def_cfa_register 13
  93              		@ sp needed
  94 000c 5DF8047B 		ldr	r7, [sp], #4
  95              		.cfi_restore 7
  96              		.cfi_def_cfa_offset 0
  97 0010 7047     		bx	lr
  98              	.L7:
  99 0012 00BF     		.align	2
 100              	.L6:
 101 0014 00000000 		.word	current_theme
 102              		.cfi_endproc
 103              	.LFE32:
 104              		.size	lv_theme_get_current, .-lv_theme_get_current
 105              		.text
 106              	.Letext0:
 107              		.file 2 "c:\\program files (x86)\\cypress\\psoc creator\\4.3\\psoc creator\\import\\gnu\\arm\\5.4.
 108              		.file 3 "c:\\program files (x86)\\cypress\\psoc creator\\4.3\\psoc creator\\import\\gnu\\arm\\5.4.
ARM GAS  C:\Users\tmj32\AppData\Local\Temp\ccxLIBac.s 			page 5


 109              		.file 4 "..\\..\\..\\lvgl\\version_6.1.2\\lvgl\\src\\lv_themes\\../../../lv_conf.h"
 110              		.file 5 "..\\..\\..\\lvgl\\version_6.1.2\\lvgl\\src\\lv_themes\\../lv_core/../lv_font/lv_font.h"
 111              		.file 6 "..\\..\\..\\lvgl\\version_6.1.2\\lvgl\\src\\lv_themes\\../lv_core/../lv_misc/lv_color.h"
 112              		.file 7 "..\\..\\..\\lvgl\\version_6.1.2\\lvgl\\src\\lv_themes\\../lv_core/lv_style.h"
 113              		.file 8 "..\\..\\..\\lvgl\\version_6.1.2\\lvgl\\src\\lv_themes\\lv_theme.h"