ARM GAS  C:\Users\tmj32\AppData\Local\Temp\cctNeIsL.s 			page 1


   1              		.syntax unified
   2              		.cpu cortex-m4
   3              		.eabi_attribute 27, 1
   4              		.fpu fpv4-sp-d16
   5              		.eabi_attribute 20, 1
   6              		.eabi_attribute 21, 1
   7              		.eabi_attribute 23, 3
   8              		.eabi_attribute 24, 1
   9              		.eabi_attribute 25, 1
  10              		.eabi_attribute 26, 1
  11              		.eabi_attribute 30, 6
  12              		.eabi_attribute 34, 1
  13              		.eabi_attribute 18, 4
  14              		.thumb
  15              		.syntax unified
  16              		.file	"lv_tileview.c"
  17              		.text
  18              	.Ltext0:
  19              		.cfi_sections	.debug_frame
  20              		.section	.text.lv_cont_set_fit,"ax",%progbits
  21              		.align	2
  22              		.thumb
  23              		.thumb_func
  24              		.type	lv_cont_set_fit, %function
  25              	lv_cont_set_fit:
  26              	.LFB32:
  27              		.file 1 "..\\..\\..\\lvgl\\version_6.1.2\\lvgl\\src\\lv_objx\\../lv_objx/lv_cont.h"
   1:..\..\..\lvgl\version_6.1.2\lvgl\src\lv_objx\../lv_objx/lv_cont.h **** /**
   2:..\..\..\lvgl\version_6.1.2\lvgl\src\lv_objx\../lv_objx/lv_cont.h ****  * @file lv_cont.h
   3:..\..\..\lvgl\version_6.1.2\lvgl\src\lv_objx\../lv_objx/lv_cont.h ****  *
   4:..\..\..\lvgl\version_6.1.2\lvgl\src\lv_objx\../lv_objx/lv_cont.h ****  */
   5:..\..\..\lvgl\version_6.1.2\lvgl\src\lv_objx\../lv_objx/lv_cont.h **** 
   6:..\..\..\lvgl\version_6.1.2\lvgl\src\lv_objx\../lv_objx/lv_cont.h **** #ifndef LV_CONT_H
   7:..\..\..\lvgl\version_6.1.2\lvgl\src\lv_objx\../lv_objx/lv_cont.h **** #define LV_CONT_H
   8:..\..\..\lvgl\version_6.1.2\lvgl\src\lv_objx\../lv_objx/lv_cont.h **** 
   9:..\..\..\lvgl\version_6.1.2\lvgl\src\lv_objx\../lv_objx/lv_cont.h **** #ifdef __cplusplus
  10:..\..\..\lvgl\version_6.1.2\lvgl\src\lv_objx\../lv_objx/lv_cont.h **** extern "C" {
  11:..\..\..\lvgl\version_6.1.2\lvgl\src\lv_objx\../lv_objx/lv_cont.h **** #endif
  12:..\..\..\lvgl\version_6.1.2\lvgl\src\lv_objx\../lv_objx/lv_cont.h **** 
  13:..\..\..\lvgl\version_6.1.2\lvgl\src\lv_objx\../lv_objx/lv_cont.h **** /*********************
  14:..\..\..\lvgl\version_6.1.2\lvgl\src\lv_objx\../lv_objx/lv_cont.h ****  *      INCLUDES
  15:..\..\..\lvgl\version_6.1.2\lvgl\src\lv_objx\../lv_objx/lv_cont.h ****  *********************/
  16:..\..\..\lvgl\version_6.1.2\lvgl\src\lv_objx\../lv_objx/lv_cont.h **** #ifdef LV_CONF_INCLUDE_SIMPLE
  17:..\..\..\lvgl\version_6.1.2\lvgl\src\lv_objx\../lv_objx/lv_cont.h **** #include "lv_conf.h"
  18:..\..\..\lvgl\version_6.1.2\lvgl\src\lv_objx\../lv_objx/lv_cont.h **** #else
  19:..\..\..\lvgl\version_6.1.2\lvgl\src\lv_objx\../lv_objx/lv_cont.h **** #include "../../../lv_conf.h"
  20:..\..\..\lvgl\version_6.1.2\lvgl\src\lv_objx\../lv_objx/lv_cont.h **** #endif
  21:..\..\..\lvgl\version_6.1.2\lvgl\src\lv_objx\../lv_objx/lv_cont.h **** 
  22:..\..\..\lvgl\version_6.1.2\lvgl\src\lv_objx\../lv_objx/lv_cont.h **** #if LV_USE_CONT != 0
  23:..\..\..\lvgl\version_6.1.2\lvgl\src\lv_objx\../lv_objx/lv_cont.h **** 
  24:..\..\..\lvgl\version_6.1.2\lvgl\src\lv_objx\../lv_objx/lv_cont.h **** #include "../lv_core/lv_obj.h"
  25:..\..\..\lvgl\version_6.1.2\lvgl\src\lv_objx\../lv_objx/lv_cont.h **** 
  26:..\..\..\lvgl\version_6.1.2\lvgl\src\lv_objx\../lv_objx/lv_cont.h **** /*********************
  27:..\..\..\lvgl\version_6.1.2\lvgl\src\lv_objx\../lv_objx/lv_cont.h ****  *      DEFINES
  28:..\..\..\lvgl\version_6.1.2\lvgl\src\lv_objx\../lv_objx/lv_cont.h ****  *********************/
  29:..\..\..\lvgl\version_6.1.2\lvgl\src\lv_objx\../lv_objx/lv_cont.h **** 
  30:..\..\..\lvgl\version_6.1.2\lvgl\src\lv_objx\../lv_objx/lv_cont.h **** /**********************
ARM GAS  C:\Users\tmj32\AppData\Local\Temp\cctNeIsL.s 			page 2


  31:..\..\..\lvgl\version_6.1.2\lvgl\src\lv_objx\../lv_objx/lv_cont.h ****  *      TYPEDEFS
  32:..\..\..\lvgl\version_6.1.2\lvgl\src\lv_objx\../lv_objx/lv_cont.h ****  **********************/
  33:..\..\..\lvgl\version_6.1.2\lvgl\src\lv_objx\../lv_objx/lv_cont.h **** 
  34:..\..\..\lvgl\version_6.1.2\lvgl\src\lv_objx\../lv_objx/lv_cont.h **** /** Container layout options*/
  35:..\..\..\lvgl\version_6.1.2\lvgl\src\lv_objx\../lv_objx/lv_cont.h **** enum {
  36:..\..\..\lvgl\version_6.1.2\lvgl\src\lv_objx\../lv_objx/lv_cont.h ****     LV_LAYOUT_OFF = 0, /**< No layout */
  37:..\..\..\lvgl\version_6.1.2\lvgl\src\lv_objx\../lv_objx/lv_cont.h ****     LV_LAYOUT_CENTER, /**< Center objects */
  38:..\..\..\lvgl\version_6.1.2\lvgl\src\lv_objx\../lv_objx/lv_cont.h ****     LV_LAYOUT_COL_L,  /**< Column left align*/
  39:..\..\..\lvgl\version_6.1.2\lvgl\src\lv_objx\../lv_objx/lv_cont.h ****     LV_LAYOUT_COL_M,  /**< Column middle align*/
  40:..\..\..\lvgl\version_6.1.2\lvgl\src\lv_objx\../lv_objx/lv_cont.h ****     LV_LAYOUT_COL_R,  /**< Column right align*/
  41:..\..\..\lvgl\version_6.1.2\lvgl\src\lv_objx\../lv_objx/lv_cont.h ****     LV_LAYOUT_ROW_T,  /**< Row top align*/
  42:..\..\..\lvgl\version_6.1.2\lvgl\src\lv_objx\../lv_objx/lv_cont.h ****     LV_LAYOUT_ROW_M,  /**< Row middle align*/
  43:..\..\..\lvgl\version_6.1.2\lvgl\src\lv_objx\../lv_objx/lv_cont.h ****     LV_LAYOUT_ROW_B,  /**< Row bottom align*/
  44:..\..\..\lvgl\version_6.1.2\lvgl\src\lv_objx\../lv_objx/lv_cont.h ****     LV_LAYOUT_PRETTY, /**< Put as many object as possible in row and begin a new row*/
  45:..\..\..\lvgl\version_6.1.2\lvgl\src\lv_objx\../lv_objx/lv_cont.h ****     LV_LAYOUT_GRID,   /**< Align same-sized object into a grid*/
  46:..\..\..\lvgl\version_6.1.2\lvgl\src\lv_objx\../lv_objx/lv_cont.h ****     _LV_LAYOUT_NUM
  47:..\..\..\lvgl\version_6.1.2\lvgl\src\lv_objx\../lv_objx/lv_cont.h **** };
  48:..\..\..\lvgl\version_6.1.2\lvgl\src\lv_objx\../lv_objx/lv_cont.h **** typedef uint8_t lv_layout_t;
  49:..\..\..\lvgl\version_6.1.2\lvgl\src\lv_objx\../lv_objx/lv_cont.h **** 
  50:..\..\..\lvgl\version_6.1.2\lvgl\src\lv_objx\../lv_objx/lv_cont.h **** /**
  51:..\..\..\lvgl\version_6.1.2\lvgl\src\lv_objx\../lv_objx/lv_cont.h ****  * How to resize the container around the children.
  52:..\..\..\lvgl\version_6.1.2\lvgl\src\lv_objx\../lv_objx/lv_cont.h ****  */
  53:..\..\..\lvgl\version_6.1.2\lvgl\src\lv_objx\../lv_objx/lv_cont.h **** enum {
  54:..\..\..\lvgl\version_6.1.2\lvgl\src\lv_objx\../lv_objx/lv_cont.h ****     LV_FIT_NONE,  /**< Do not change the size automatically*/
  55:..\..\..\lvgl\version_6.1.2\lvgl\src\lv_objx\../lv_objx/lv_cont.h ****     LV_FIT_TIGHT, /**< Shrink wrap around the children */
  56:..\..\..\lvgl\version_6.1.2\lvgl\src\lv_objx\../lv_objx/lv_cont.h ****     LV_FIT_FLOOD, /**< Align the size to the parent's edge*/
  57:..\..\..\lvgl\version_6.1.2\lvgl\src\lv_objx\../lv_objx/lv_cont.h ****     LV_FIT_FILL,  /**< Align the size to the parent's edge first but if there is an object out of i
  58:..\..\..\lvgl\version_6.1.2\lvgl\src\lv_objx\../lv_objx/lv_cont.h ****                      then get larger */
  59:..\..\..\lvgl\version_6.1.2\lvgl\src\lv_objx\../lv_objx/lv_cont.h ****     _LV_FIT_NUM
  60:..\..\..\lvgl\version_6.1.2\lvgl\src\lv_objx\../lv_objx/lv_cont.h **** };
  61:..\..\..\lvgl\version_6.1.2\lvgl\src\lv_objx\../lv_objx/lv_cont.h **** typedef uint8_t lv_fit_t;
  62:..\..\..\lvgl\version_6.1.2\lvgl\src\lv_objx\../lv_objx/lv_cont.h **** 
  63:..\..\..\lvgl\version_6.1.2\lvgl\src\lv_objx\../lv_objx/lv_cont.h **** typedef struct
  64:..\..\..\lvgl\version_6.1.2\lvgl\src\lv_objx\../lv_objx/lv_cont.h **** {
  65:..\..\..\lvgl\version_6.1.2\lvgl\src\lv_objx\../lv_objx/lv_cont.h ****     /*Inherited from 'base_obj' so no inherited ext. */ /*Ext. of ancestor*/
  66:..\..\..\lvgl\version_6.1.2\lvgl\src\lv_objx\../lv_objx/lv_cont.h ****     /*New data for this type */
  67:..\..\..\lvgl\version_6.1.2\lvgl\src\lv_objx\../lv_objx/lv_cont.h ****     uint8_t layout : 4;     /*A layout from 'lv_layout_t' enum*/
  68:..\..\..\lvgl\version_6.1.2\lvgl\src\lv_objx\../lv_objx/lv_cont.h ****     uint8_t fit_left : 2;   /*A fit type from `lv_fit_t` enum */
  69:..\..\..\lvgl\version_6.1.2\lvgl\src\lv_objx\../lv_objx/lv_cont.h ****     uint8_t fit_right : 2;  /*A fit type from `lv_fit_t` enum */
  70:..\..\..\lvgl\version_6.1.2\lvgl\src\lv_objx\../lv_objx/lv_cont.h ****     uint8_t fit_top : 2;    /*A fit type from `lv_fit_t` enum */
  71:..\..\..\lvgl\version_6.1.2\lvgl\src\lv_objx\../lv_objx/lv_cont.h ****     uint8_t fit_bottom : 2; /*A fit type from `lv_fit_t` enum */
  72:..\..\..\lvgl\version_6.1.2\lvgl\src\lv_objx\../lv_objx/lv_cont.h **** } lv_cont_ext_t;
  73:..\..\..\lvgl\version_6.1.2\lvgl\src\lv_objx\../lv_objx/lv_cont.h **** 
  74:..\..\..\lvgl\version_6.1.2\lvgl\src\lv_objx\../lv_objx/lv_cont.h **** /*Styles*/
  75:..\..\..\lvgl\version_6.1.2\lvgl\src\lv_objx\../lv_objx/lv_cont.h **** enum {
  76:..\..\..\lvgl\version_6.1.2\lvgl\src\lv_objx\../lv_objx/lv_cont.h ****     LV_CONT_STYLE_MAIN,
  77:..\..\..\lvgl\version_6.1.2\lvgl\src\lv_objx\../lv_objx/lv_cont.h **** };
  78:..\..\..\lvgl\version_6.1.2\lvgl\src\lv_objx\../lv_objx/lv_cont.h **** typedef uint8_t lv_cont_style_t;
  79:..\..\..\lvgl\version_6.1.2\lvgl\src\lv_objx\../lv_objx/lv_cont.h **** 
  80:..\..\..\lvgl\version_6.1.2\lvgl\src\lv_objx\../lv_objx/lv_cont.h **** /**********************
  81:..\..\..\lvgl\version_6.1.2\lvgl\src\lv_objx\../lv_objx/lv_cont.h ****  * GLOBAL PROTOTYPES
  82:..\..\..\lvgl\version_6.1.2\lvgl\src\lv_objx\../lv_objx/lv_cont.h ****  **********************/
  83:..\..\..\lvgl\version_6.1.2\lvgl\src\lv_objx\../lv_objx/lv_cont.h **** 
  84:..\..\..\lvgl\version_6.1.2\lvgl\src\lv_objx\../lv_objx/lv_cont.h **** /**
  85:..\..\..\lvgl\version_6.1.2\lvgl\src\lv_objx\../lv_objx/lv_cont.h ****  * Create a container objects
  86:..\..\..\lvgl\version_6.1.2\lvgl\src\lv_objx\../lv_objx/lv_cont.h ****  * @param par pointer to an object, it will be the parent of the new container
  87:..\..\..\lvgl\version_6.1.2\lvgl\src\lv_objx\../lv_objx/lv_cont.h ****  * @param copy pointer to a container object, if not NULL then the new object will be copied from i
ARM GAS  C:\Users\tmj32\AppData\Local\Temp\cctNeIsL.s 			page 3


  88:..\..\..\lvgl\version_6.1.2\lvgl\src\lv_objx\../lv_objx/lv_cont.h ****  * @return pointer to the created container
  89:..\..\..\lvgl\version_6.1.2\lvgl\src\lv_objx\../lv_objx/lv_cont.h ****  */
  90:..\..\..\lvgl\version_6.1.2\lvgl\src\lv_objx\../lv_objx/lv_cont.h **** lv_obj_t * lv_cont_create(lv_obj_t * par, const lv_obj_t * copy);
  91:..\..\..\lvgl\version_6.1.2\lvgl\src\lv_objx\../lv_objx/lv_cont.h **** 
  92:..\..\..\lvgl\version_6.1.2\lvgl\src\lv_objx\../lv_objx/lv_cont.h **** /*=====================
  93:..\..\..\lvgl\version_6.1.2\lvgl\src\lv_objx\../lv_objx/lv_cont.h ****  * Setter functions
  94:..\..\..\lvgl\version_6.1.2\lvgl\src\lv_objx\../lv_objx/lv_cont.h ****  *====================*/
  95:..\..\..\lvgl\version_6.1.2\lvgl\src\lv_objx\../lv_objx/lv_cont.h **** 
  96:..\..\..\lvgl\version_6.1.2\lvgl\src\lv_objx\../lv_objx/lv_cont.h **** /**
  97:..\..\..\lvgl\version_6.1.2\lvgl\src\lv_objx\../lv_objx/lv_cont.h ****  * Set a layout on a container
  98:..\..\..\lvgl\version_6.1.2\lvgl\src\lv_objx\../lv_objx/lv_cont.h ****  * @param cont pointer to a container object
  99:..\..\..\lvgl\version_6.1.2\lvgl\src\lv_objx\../lv_objx/lv_cont.h ****  * @param layout a layout from 'lv_cont_layout_t'
 100:..\..\..\lvgl\version_6.1.2\lvgl\src\lv_objx\../lv_objx/lv_cont.h ****  */
 101:..\..\..\lvgl\version_6.1.2\lvgl\src\lv_objx\../lv_objx/lv_cont.h **** void lv_cont_set_layout(lv_obj_t * cont, lv_layout_t layout);
 102:..\..\..\lvgl\version_6.1.2\lvgl\src\lv_objx\../lv_objx/lv_cont.h **** 
 103:..\..\..\lvgl\version_6.1.2\lvgl\src\lv_objx\../lv_objx/lv_cont.h **** /**
 104:..\..\..\lvgl\version_6.1.2\lvgl\src\lv_objx\../lv_objx/lv_cont.h ****  * Set the fit policy in all 4 directions separately.
 105:..\..\..\lvgl\version_6.1.2\lvgl\src\lv_objx\../lv_objx/lv_cont.h ****  * It tell how to change the container's size automatically.
 106:..\..\..\lvgl\version_6.1.2\lvgl\src\lv_objx\../lv_objx/lv_cont.h ****  * @param cont pointer to a container object
 107:..\..\..\lvgl\version_6.1.2\lvgl\src\lv_objx\../lv_objx/lv_cont.h ****  * @param left left fit policy from `lv_fit_t`
 108:..\..\..\lvgl\version_6.1.2\lvgl\src\lv_objx\../lv_objx/lv_cont.h ****  * @param right right fit policy from `lv_fit_t`
 109:..\..\..\lvgl\version_6.1.2\lvgl\src\lv_objx\../lv_objx/lv_cont.h ****  * @param top top fit policy from `lv_fit_t`
 110:..\..\..\lvgl\version_6.1.2\lvgl\src\lv_objx\../lv_objx/lv_cont.h ****  * @param bottom bottom fit policy from `lv_fit_t`
 111:..\..\..\lvgl\version_6.1.2\lvgl\src\lv_objx\../lv_objx/lv_cont.h ****  */
 112:..\..\..\lvgl\version_6.1.2\lvgl\src\lv_objx\../lv_objx/lv_cont.h **** void lv_cont_set_fit4(lv_obj_t * cont, lv_fit_t left, lv_fit_t right, lv_fit_t top, lv_fit_t bottom
 113:..\..\..\lvgl\version_6.1.2\lvgl\src\lv_objx\../lv_objx/lv_cont.h **** 
 114:..\..\..\lvgl\version_6.1.2\lvgl\src\lv_objx\../lv_objx/lv_cont.h **** /**
 115:..\..\..\lvgl\version_6.1.2\lvgl\src\lv_objx\../lv_objx/lv_cont.h ****  * Set the fit policy horizontally and vertically separately.
 116:..\..\..\lvgl\version_6.1.2\lvgl\src\lv_objx\../lv_objx/lv_cont.h ****  * It tells how to change the container's size automatically.
 117:..\..\..\lvgl\version_6.1.2\lvgl\src\lv_objx\../lv_objx/lv_cont.h ****  * @param cont pointer to a container object
 118:..\..\..\lvgl\version_6.1.2\lvgl\src\lv_objx\../lv_objx/lv_cont.h ****  * @param hor horizontal fit policy from `lv_fit_t`
 119:..\..\..\lvgl\version_6.1.2\lvgl\src\lv_objx\../lv_objx/lv_cont.h ****  * @param ver vertical fit policy from `lv_fit_t`
 120:..\..\..\lvgl\version_6.1.2\lvgl\src\lv_objx\../lv_objx/lv_cont.h ****  */
 121:..\..\..\lvgl\version_6.1.2\lvgl\src\lv_objx\../lv_objx/lv_cont.h **** static inline void lv_cont_set_fit2(lv_obj_t * cont, lv_fit_t hor, lv_fit_t ver)
 122:..\..\..\lvgl\version_6.1.2\lvgl\src\lv_objx\../lv_objx/lv_cont.h **** {
 123:..\..\..\lvgl\version_6.1.2\lvgl\src\lv_objx\../lv_objx/lv_cont.h ****     lv_cont_set_fit4(cont, hor, hor, ver, ver);
 124:..\..\..\lvgl\version_6.1.2\lvgl\src\lv_objx\../lv_objx/lv_cont.h **** }
 125:..\..\..\lvgl\version_6.1.2\lvgl\src\lv_objx\../lv_objx/lv_cont.h **** 
 126:..\..\..\lvgl\version_6.1.2\lvgl\src\lv_objx\../lv_objx/lv_cont.h **** /**
 127:..\..\..\lvgl\version_6.1.2\lvgl\src\lv_objx\../lv_objx/lv_cont.h ****  * Set the fit policy in all 4 direction at once.
 128:..\..\..\lvgl\version_6.1.2\lvgl\src\lv_objx\../lv_objx/lv_cont.h ****  * It tells how to change the container's size automatically.
 129:..\..\..\lvgl\version_6.1.2\lvgl\src\lv_objx\../lv_objx/lv_cont.h ****  * @param cont pointer to a container object
 130:..\..\..\lvgl\version_6.1.2\lvgl\src\lv_objx\../lv_objx/lv_cont.h ****  * @param fit fit policy from `lv_fit_t`
 131:..\..\..\lvgl\version_6.1.2\lvgl\src\lv_objx\../lv_objx/lv_cont.h ****  */
 132:..\..\..\lvgl\version_6.1.2\lvgl\src\lv_objx\../lv_objx/lv_cont.h **** static inline void lv_cont_set_fit(lv_obj_t * cont, lv_fit_t fit)
 133:..\..\..\lvgl\version_6.1.2\lvgl\src\lv_objx\../lv_objx/lv_cont.h **** {
  28              		.loc 1 133 0
  29              		.cfi_startproc
  30              		@ args = 0, pretend = 0, frame = 8
  31              		@ frame_needed = 1, uses_anonymous_args = 0
  32 0000 80B5     		push	{r7, lr}
  33              		.cfi_def_cfa_offset 8
  34              		.cfi_offset 7, -8
  35              		.cfi_offset 14, -4
  36 0002 84B0     		sub	sp, sp, #16
  37              		.cfi_def_cfa_offset 24
  38 0004 02AF     		add	r7, sp, #8
ARM GAS  C:\Users\tmj32\AppData\Local\Temp\cctNeIsL.s 			page 4


  39              		.cfi_def_cfa 7, 16
  40 0006 7860     		str	r0, [r7, #4]
  41 0008 0B46     		mov	r3, r1
  42 000a FB70     		strb	r3, [r7, #3]
 134:..\..\..\lvgl\version_6.1.2\lvgl\src\lv_objx\../lv_objx/lv_cont.h ****     lv_cont_set_fit4(cont, fit, fit, fit, fit);
  43              		.loc 1 134 0
  44 000c F878     		ldrb	r0, [r7, #3]	@ zero_extendqisi2
  45 000e FA78     		ldrb	r2, [r7, #3]	@ zero_extendqisi2
  46 0010 F978     		ldrb	r1, [r7, #3]	@ zero_extendqisi2
  47 0012 FB78     		ldrb	r3, [r7, #3]	@ zero_extendqisi2
  48 0014 0093     		str	r3, [sp]
  49 0016 0346     		mov	r3, r0
  50 0018 7868     		ldr	r0, [r7, #4]
  51 001a FFF7FEFF 		bl	lv_cont_set_fit4
 135:..\..\..\lvgl\version_6.1.2\lvgl\src\lv_objx\../lv_objx/lv_cont.h **** }
  52              		.loc 1 135 0
  53 001e 00BF     		nop
  54 0020 0837     		adds	r7, r7, #8
  55              		.cfi_def_cfa_offset 8
  56 0022 BD46     		mov	sp, r7
  57              		.cfi_def_cfa_register 13
  58              		@ sp needed
  59 0024 80BD     		pop	{r7, pc}
  60              		.cfi_endproc
  61              	.LFE32:
  62              		.size	lv_cont_set_fit, .-lv_cont_set_fit
  63 0026 00BF     		.section	.text.lv_page_set_scrl_fit,"ax",%progbits
  64              		.align	2
  65              		.thumb
  66              		.thumb_func
  67              		.type	lv_page_set_scrl_fit, %function
  68              	lv_page_set_scrl_fit:
  69              	.LFB37:
  70              		.file 2 "..\\..\\..\\lvgl\\version_6.1.2\\lvgl\\src\\lv_objx\\../lv_objx/lv_page.h"
   1:..\..\..\lvgl\version_6.1.2\lvgl\src\lv_objx\../lv_objx/lv_page.h **** /**
   2:..\..\..\lvgl\version_6.1.2\lvgl\src\lv_objx\../lv_objx/lv_page.h ****  * @file lv_page.h
   3:..\..\..\lvgl\version_6.1.2\lvgl\src\lv_objx\../lv_objx/lv_page.h ****  *
   4:..\..\..\lvgl\version_6.1.2\lvgl\src\lv_objx\../lv_objx/lv_page.h ****  */
   5:..\..\..\lvgl\version_6.1.2\lvgl\src\lv_objx\../lv_objx/lv_page.h **** 
   6:..\..\..\lvgl\version_6.1.2\lvgl\src\lv_objx\../lv_objx/lv_page.h **** #ifndef LV_PAGE_H
   7:..\..\..\lvgl\version_6.1.2\lvgl\src\lv_objx\../lv_objx/lv_page.h **** #define LV_PAGE_H
   8:..\..\..\lvgl\version_6.1.2\lvgl\src\lv_objx\../lv_objx/lv_page.h **** 
   9:..\..\..\lvgl\version_6.1.2\lvgl\src\lv_objx\../lv_objx/lv_page.h **** #ifdef __cplusplus
  10:..\..\..\lvgl\version_6.1.2\lvgl\src\lv_objx\../lv_objx/lv_page.h **** extern "C" {
  11:..\..\..\lvgl\version_6.1.2\lvgl\src\lv_objx\../lv_objx/lv_page.h **** #endif
  12:..\..\..\lvgl\version_6.1.2\lvgl\src\lv_objx\../lv_objx/lv_page.h **** 
  13:..\..\..\lvgl\version_6.1.2\lvgl\src\lv_objx\../lv_objx/lv_page.h **** /*********************
  14:..\..\..\lvgl\version_6.1.2\lvgl\src\lv_objx\../lv_objx/lv_page.h ****  *      INCLUDES
  15:..\..\..\lvgl\version_6.1.2\lvgl\src\lv_objx\../lv_objx/lv_page.h ****  *********************/
  16:..\..\..\lvgl\version_6.1.2\lvgl\src\lv_objx\../lv_objx/lv_page.h **** #ifdef LV_CONF_INCLUDE_SIMPLE
  17:..\..\..\lvgl\version_6.1.2\lvgl\src\lv_objx\../lv_objx/lv_page.h **** #include "lv_conf.h"
  18:..\..\..\lvgl\version_6.1.2\lvgl\src\lv_objx\../lv_objx/lv_page.h **** #else
  19:..\..\..\lvgl\version_6.1.2\lvgl\src\lv_objx\../lv_objx/lv_page.h **** #include "../../../lv_conf.h"
  20:..\..\..\lvgl\version_6.1.2\lvgl\src\lv_objx\../lv_objx/lv_page.h **** #endif
  21:..\..\..\lvgl\version_6.1.2\lvgl\src\lv_objx\../lv_objx/lv_page.h **** 
  22:..\..\..\lvgl\version_6.1.2\lvgl\src\lv_objx\../lv_objx/lv_page.h **** #if LV_USE_PAGE != 0
  23:..\..\..\lvgl\version_6.1.2\lvgl\src\lv_objx\../lv_objx/lv_page.h **** 
ARM GAS  C:\Users\tmj32\AppData\Local\Temp\cctNeIsL.s 			page 5


  24:..\..\..\lvgl\version_6.1.2\lvgl\src\lv_objx\../lv_objx/lv_page.h **** /*Testing of dependencies*/
  25:..\..\..\lvgl\version_6.1.2\lvgl\src\lv_objx\../lv_objx/lv_page.h **** #if LV_USE_CONT == 0
  26:..\..\..\lvgl\version_6.1.2\lvgl\src\lv_objx\../lv_objx/lv_page.h **** #error "lv_page: lv_cont is required. Enable it in lv_conf.h (LV_USE_CONT  1) "
  27:..\..\..\lvgl\version_6.1.2\lvgl\src\lv_objx\../lv_objx/lv_page.h **** #endif
  28:..\..\..\lvgl\version_6.1.2\lvgl\src\lv_objx\../lv_objx/lv_page.h **** 
  29:..\..\..\lvgl\version_6.1.2\lvgl\src\lv_objx\../lv_objx/lv_page.h **** #include "lv_cont.h"
  30:..\..\..\lvgl\version_6.1.2\lvgl\src\lv_objx\../lv_objx/lv_page.h **** #include "../lv_core/lv_indev.h"
  31:..\..\..\lvgl\version_6.1.2\lvgl\src\lv_objx\../lv_objx/lv_page.h **** #include "../lv_misc/lv_anim.h"
  32:..\..\..\lvgl\version_6.1.2\lvgl\src\lv_objx\../lv_objx/lv_page.h **** 
  33:..\..\..\lvgl\version_6.1.2\lvgl\src\lv_objx\../lv_objx/lv_page.h **** /*********************
  34:..\..\..\lvgl\version_6.1.2\lvgl\src\lv_objx\../lv_objx/lv_page.h ****  *      DEFINES
  35:..\..\..\lvgl\version_6.1.2\lvgl\src\lv_objx\../lv_objx/lv_page.h ****  *********************/
  36:..\..\..\lvgl\version_6.1.2\lvgl\src\lv_objx\../lv_objx/lv_page.h **** 
  37:..\..\..\lvgl\version_6.1.2\lvgl\src\lv_objx\../lv_objx/lv_page.h **** /**********************
  38:..\..\..\lvgl\version_6.1.2\lvgl\src\lv_objx\../lv_objx/lv_page.h ****  *      TYPEDEFS
  39:..\..\..\lvgl\version_6.1.2\lvgl\src\lv_objx\../lv_objx/lv_page.h ****  **********************/
  40:..\..\..\lvgl\version_6.1.2\lvgl\src\lv_objx\../lv_objx/lv_page.h **** 
  41:..\..\..\lvgl\version_6.1.2\lvgl\src\lv_objx\../lv_objx/lv_page.h **** /** Scrollbar modes: shows when should the scrollbars be visible*/
  42:..\..\..\lvgl\version_6.1.2\lvgl\src\lv_objx\../lv_objx/lv_page.h **** enum {
  43:..\..\..\lvgl\version_6.1.2\lvgl\src\lv_objx\../lv_objx/lv_page.h ****     LV_SB_MODE_OFF    = 0x0, /**< Never show scrollbars*/
  44:..\..\..\lvgl\version_6.1.2\lvgl\src\lv_objx\../lv_objx/lv_page.h ****     LV_SB_MODE_ON     = 0x1, /**< Always show scrollbars*/
  45:..\..\..\lvgl\version_6.1.2\lvgl\src\lv_objx\../lv_objx/lv_page.h ****     LV_SB_MODE_DRAG   = 0x2, /**< Show scrollbars when page is being dragged*/
  46:..\..\..\lvgl\version_6.1.2\lvgl\src\lv_objx\../lv_objx/lv_page.h ****     LV_SB_MODE_AUTO   = 0x3, /**< Show scrollbars when the scrollable container is large enough to 
  47:..\..\..\lvgl\version_6.1.2\lvgl\src\lv_objx\../lv_objx/lv_page.h ****     LV_SB_MODE_HIDE   = 0x4, /**< Hide the scroll bar temporally*/
  48:..\..\..\lvgl\version_6.1.2\lvgl\src\lv_objx\../lv_objx/lv_page.h ****     LV_SB_MODE_UNHIDE = 0x5, /**< Unhide the previously hidden scrollbar. Recover it's type too*/
  49:..\..\..\lvgl\version_6.1.2\lvgl\src\lv_objx\../lv_objx/lv_page.h **** };
  50:..\..\..\lvgl\version_6.1.2\lvgl\src\lv_objx\../lv_objx/lv_page.h **** typedef uint8_t lv_sb_mode_t;
  51:..\..\..\lvgl\version_6.1.2\lvgl\src\lv_objx\../lv_objx/lv_page.h **** 
  52:..\..\..\lvgl\version_6.1.2\lvgl\src\lv_objx\../lv_objx/lv_page.h **** /** Edges: describes the four edges of the page*/
  53:..\..\..\lvgl\version_6.1.2\lvgl\src\lv_objx\../lv_objx/lv_page.h **** enum { LV_PAGE_EDGE_LEFT = 0x1, LV_PAGE_EDGE_TOP = 0x2, LV_PAGE_EDGE_RIGHT = 0x4, LV_PAGE_EDGE_BOTT
  54:..\..\..\lvgl\version_6.1.2\lvgl\src\lv_objx\../lv_objx/lv_page.h **** typedef uint8_t lv_page_edge_t;
  55:..\..\..\lvgl\version_6.1.2\lvgl\src\lv_objx\../lv_objx/lv_page.h **** 
  56:..\..\..\lvgl\version_6.1.2\lvgl\src\lv_objx\../lv_objx/lv_page.h **** /*Data of page*/
  57:..\..\..\lvgl\version_6.1.2\lvgl\src\lv_objx\../lv_objx/lv_page.h **** typedef struct
  58:..\..\..\lvgl\version_6.1.2\lvgl\src\lv_objx\../lv_objx/lv_page.h **** {
  59:..\..\..\lvgl\version_6.1.2\lvgl\src\lv_objx\../lv_objx/lv_page.h ****     lv_cont_ext_t bg; /*Ext. of ancestor*/
  60:..\..\..\lvgl\version_6.1.2\lvgl\src\lv_objx\../lv_objx/lv_page.h ****     /*New data for this type */
  61:..\..\..\lvgl\version_6.1.2\lvgl\src\lv_objx\../lv_objx/lv_page.h ****     lv_obj_t * scrl; /*The scrollable object on the background*/
  62:..\..\..\lvgl\version_6.1.2\lvgl\src\lv_objx\../lv_objx/lv_page.h ****     struct
  63:..\..\..\lvgl\version_6.1.2\lvgl\src\lv_objx\../lv_objx/lv_page.h ****     {
  64:..\..\..\lvgl\version_6.1.2\lvgl\src\lv_objx\../lv_objx/lv_page.h ****         const lv_style_t * style; /*Style of scrollbars*/
  65:..\..\..\lvgl\version_6.1.2\lvgl\src\lv_objx\../lv_objx/lv_page.h ****         lv_area_t hor_area;       /*Horizontal scrollbar area relative to the page. (Handled by the
  66:..\..\..\lvgl\version_6.1.2\lvgl\src\lv_objx\../lv_objx/lv_page.h ****         lv_area_t ver_area;       /*Vertical scrollbar area relative to the page (Handled by the li
  67:..\..\..\lvgl\version_6.1.2\lvgl\src\lv_objx\../lv_objx/lv_page.h ****         uint8_t hor_draw : 1;     /*1: horizontal scrollbar is visible now (Handled by the library)
  68:..\..\..\lvgl\version_6.1.2\lvgl\src\lv_objx\../lv_objx/lv_page.h ****         uint8_t ver_draw : 1;     /*1: vertical scrollbar is visible now (Handled by the library)*/
  69:..\..\..\lvgl\version_6.1.2\lvgl\src\lv_objx\../lv_objx/lv_page.h ****         lv_sb_mode_t mode : 3;    /*Scrollbar visibility from 'lv_page_sb_mode_t'*/
  70:..\..\..\lvgl\version_6.1.2\lvgl\src\lv_objx\../lv_objx/lv_page.h ****     } sb;
  71:..\..\..\lvgl\version_6.1.2\lvgl\src\lv_objx\../lv_objx/lv_page.h **** #if LV_USE_ANIMATION
  72:..\..\..\lvgl\version_6.1.2\lvgl\src\lv_objx\../lv_objx/lv_page.h ****     struct
  73:..\..\..\lvgl\version_6.1.2\lvgl\src\lv_objx\../lv_objx/lv_page.h ****     {
  74:..\..\..\lvgl\version_6.1.2\lvgl\src\lv_objx\../lv_objx/lv_page.h ****         lv_anim_value_t state;    /*Store the current size of the edge flash effect*/
  75:..\..\..\lvgl\version_6.1.2\lvgl\src\lv_objx\../lv_objx/lv_page.h ****         const lv_style_t * style; /*Style of edge flash effect (usually homogeneous circle)*/
  76:..\..\..\lvgl\version_6.1.2\lvgl\src\lv_objx\../lv_objx/lv_page.h ****         uint8_t enabled : 1;      /*1: Show a flash animation on the edge*/
  77:..\..\..\lvgl\version_6.1.2\lvgl\src\lv_objx\../lv_objx/lv_page.h ****         uint8_t top_ip : 1;       /*Used internally to show that top most position is reached (flas
  78:..\..\..\lvgl\version_6.1.2\lvgl\src\lv_objx\../lv_objx/lv_page.h ****                                      Progress)*/
  79:..\..\..\lvgl\version_6.1.2\lvgl\src\lv_objx\../lv_objx/lv_page.h ****         uint8_t bottom_ip : 1;    /*Used internally to show that bottom most position is reached (f
  80:..\..\..\lvgl\version_6.1.2\lvgl\src\lv_objx\../lv_objx/lv_page.h ****                                      is In Progress)*/
ARM GAS  C:\Users\tmj32\AppData\Local\Temp\cctNeIsL.s 			page 6


  81:..\..\..\lvgl\version_6.1.2\lvgl\src\lv_objx\../lv_objx/lv_page.h ****         uint8_t right_ip : 1;     /*Used internally to show that right most position is reached (fl
  82:..\..\..\lvgl\version_6.1.2\lvgl\src\lv_objx\../lv_objx/lv_page.h ****                                      is In Progress)*/
  83:..\..\..\lvgl\version_6.1.2\lvgl\src\lv_objx\../lv_objx/lv_page.h ****         uint8_t left_ip : 1;      /*Used internally to show that left most position is reached (fla
  84:..\..\..\lvgl\version_6.1.2\lvgl\src\lv_objx\../lv_objx/lv_page.h ****                                      In Progress)*/
  85:..\..\..\lvgl\version_6.1.2\lvgl\src\lv_objx\../lv_objx/lv_page.h ****     } edge_flash;
  86:..\..\..\lvgl\version_6.1.2\lvgl\src\lv_objx\../lv_objx/lv_page.h **** 
  87:..\..\..\lvgl\version_6.1.2\lvgl\src\lv_objx\../lv_objx/lv_page.h ****     uint16_t anim_time; /*Scroll animation time*/
  88:..\..\..\lvgl\version_6.1.2\lvgl\src\lv_objx\../lv_objx/lv_page.h **** #endif
  89:..\..\..\lvgl\version_6.1.2\lvgl\src\lv_objx\../lv_objx/lv_page.h **** 
  90:..\..\..\lvgl\version_6.1.2\lvgl\src\lv_objx\../lv_objx/lv_page.h ****     uint8_t scroll_prop : 1;    /*1: Propagate the scrolling the the parent if the edge is reached*
  91:..\..\..\lvgl\version_6.1.2\lvgl\src\lv_objx\../lv_objx/lv_page.h ****     uint8_t scroll_prop_ip : 1; /*1: Scroll propagation is in progress (used by the library)*/
  92:..\..\..\lvgl\version_6.1.2\lvgl\src\lv_objx\../lv_objx/lv_page.h **** } lv_page_ext_t;
  93:..\..\..\lvgl\version_6.1.2\lvgl\src\lv_objx\../lv_objx/lv_page.h **** 
  94:..\..\..\lvgl\version_6.1.2\lvgl\src\lv_objx\../lv_objx/lv_page.h **** enum {
  95:..\..\..\lvgl\version_6.1.2\lvgl\src\lv_objx\../lv_objx/lv_page.h ****     LV_PAGE_STYLE_BG,
  96:..\..\..\lvgl\version_6.1.2\lvgl\src\lv_objx\../lv_objx/lv_page.h ****     LV_PAGE_STYLE_SCRL,
  97:..\..\..\lvgl\version_6.1.2\lvgl\src\lv_objx\../lv_objx/lv_page.h ****     LV_PAGE_STYLE_SB,
  98:..\..\..\lvgl\version_6.1.2\lvgl\src\lv_objx\../lv_objx/lv_page.h ****     LV_PAGE_STYLE_EDGE_FLASH,
  99:..\..\..\lvgl\version_6.1.2\lvgl\src\lv_objx\../lv_objx/lv_page.h **** };
 100:..\..\..\lvgl\version_6.1.2\lvgl\src\lv_objx\../lv_objx/lv_page.h **** typedef uint8_t lv_page_style_t;
 101:..\..\..\lvgl\version_6.1.2\lvgl\src\lv_objx\../lv_objx/lv_page.h **** 
 102:..\..\..\lvgl\version_6.1.2\lvgl\src\lv_objx\../lv_objx/lv_page.h **** /**********************
 103:..\..\..\lvgl\version_6.1.2\lvgl\src\lv_objx\../lv_objx/lv_page.h ****  * GLOBAL PROTOTYPES
 104:..\..\..\lvgl\version_6.1.2\lvgl\src\lv_objx\../lv_objx/lv_page.h ****  **********************/
 105:..\..\..\lvgl\version_6.1.2\lvgl\src\lv_objx\../lv_objx/lv_page.h **** 
 106:..\..\..\lvgl\version_6.1.2\lvgl\src\lv_objx\../lv_objx/lv_page.h **** /**
 107:..\..\..\lvgl\version_6.1.2\lvgl\src\lv_objx\../lv_objx/lv_page.h ****  * Create a page objects
 108:..\..\..\lvgl\version_6.1.2\lvgl\src\lv_objx\../lv_objx/lv_page.h ****  * @param par pointer to an object, it will be the parent of the new page
 109:..\..\..\lvgl\version_6.1.2\lvgl\src\lv_objx\../lv_objx/lv_page.h ****  * @param copy pointer to a page object, if not NULL then the new object will be copied from it
 110:..\..\..\lvgl\version_6.1.2\lvgl\src\lv_objx\../lv_objx/lv_page.h ****  * @return pointer to the created page
 111:..\..\..\lvgl\version_6.1.2\lvgl\src\lv_objx\../lv_objx/lv_page.h ****  */
 112:..\..\..\lvgl\version_6.1.2\lvgl\src\lv_objx\../lv_objx/lv_page.h **** lv_obj_t * lv_page_create(lv_obj_t * par, const lv_obj_t * copy);
 113:..\..\..\lvgl\version_6.1.2\lvgl\src\lv_objx\../lv_objx/lv_page.h **** 
 114:..\..\..\lvgl\version_6.1.2\lvgl\src\lv_objx\../lv_objx/lv_page.h **** /**
 115:..\..\..\lvgl\version_6.1.2\lvgl\src\lv_objx\../lv_objx/lv_page.h ****  * Delete all children of the scrl object, without deleting scrl child.
 116:..\..\..\lvgl\version_6.1.2\lvgl\src\lv_objx\../lv_objx/lv_page.h ****  * @param page pointer to an object
 117:..\..\..\lvgl\version_6.1.2\lvgl\src\lv_objx\../lv_objx/lv_page.h ****  */
 118:..\..\..\lvgl\version_6.1.2\lvgl\src\lv_objx\../lv_objx/lv_page.h **** void lv_page_clean(lv_obj_t * page);
 119:..\..\..\lvgl\version_6.1.2\lvgl\src\lv_objx\../lv_objx/lv_page.h **** 
 120:..\..\..\lvgl\version_6.1.2\lvgl\src\lv_objx\../lv_objx/lv_page.h **** /**
 121:..\..\..\lvgl\version_6.1.2\lvgl\src\lv_objx\../lv_objx/lv_page.h ****  * Get the scrollable object of a page
 122:..\..\..\lvgl\version_6.1.2\lvgl\src\lv_objx\../lv_objx/lv_page.h ****  * @param page pointer to a page object
 123:..\..\..\lvgl\version_6.1.2\lvgl\src\lv_objx\../lv_objx/lv_page.h ****  * @return pointer to a container which is the scrollable part of the page
 124:..\..\..\lvgl\version_6.1.2\lvgl\src\lv_objx\../lv_objx/lv_page.h ****  */
 125:..\..\..\lvgl\version_6.1.2\lvgl\src\lv_objx\../lv_objx/lv_page.h **** lv_obj_t * lv_page_get_scrl(const lv_obj_t * page);
 126:..\..\..\lvgl\version_6.1.2\lvgl\src\lv_objx\../lv_objx/lv_page.h **** 
 127:..\..\..\lvgl\version_6.1.2\lvgl\src\lv_objx\../lv_objx/lv_page.h **** /**
 128:..\..\..\lvgl\version_6.1.2\lvgl\src\lv_objx\../lv_objx/lv_page.h ****  * Get the animation time
 129:..\..\..\lvgl\version_6.1.2\lvgl\src\lv_objx\../lv_objx/lv_page.h ****  * @param page pointer to a page object
 130:..\..\..\lvgl\version_6.1.2\lvgl\src\lv_objx\../lv_objx/lv_page.h ****  * @return the animation time in milliseconds
 131:..\..\..\lvgl\version_6.1.2\lvgl\src\lv_objx\../lv_objx/lv_page.h ****  */
 132:..\..\..\lvgl\version_6.1.2\lvgl\src\lv_objx\../lv_objx/lv_page.h **** uint16_t lv_page_get_anim_time(const lv_obj_t * page);
 133:..\..\..\lvgl\version_6.1.2\lvgl\src\lv_objx\../lv_objx/lv_page.h **** 
 134:..\..\..\lvgl\version_6.1.2\lvgl\src\lv_objx\../lv_objx/lv_page.h **** /*=====================
 135:..\..\..\lvgl\version_6.1.2\lvgl\src\lv_objx\../lv_objx/lv_page.h ****  * Setter functions
 136:..\..\..\lvgl\version_6.1.2\lvgl\src\lv_objx\../lv_objx/lv_page.h ****  *====================*/
 137:..\..\..\lvgl\version_6.1.2\lvgl\src\lv_objx\../lv_objx/lv_page.h **** 
ARM GAS  C:\Users\tmj32\AppData\Local\Temp\cctNeIsL.s 			page 7


 138:..\..\..\lvgl\version_6.1.2\lvgl\src\lv_objx\../lv_objx/lv_page.h **** /**
 139:..\..\..\lvgl\version_6.1.2\lvgl\src\lv_objx\../lv_objx/lv_page.h ****  * Set the scroll bar mode on a page
 140:..\..\..\lvgl\version_6.1.2\lvgl\src\lv_objx\../lv_objx/lv_page.h ****  * @param page pointer to a page object
 141:..\..\..\lvgl\version_6.1.2\lvgl\src\lv_objx\../lv_objx/lv_page.h ****  * @param sb_mode the new mode from 'lv_page_sb.mode_t' enum
 142:..\..\..\lvgl\version_6.1.2\lvgl\src\lv_objx\../lv_objx/lv_page.h ****  */
 143:..\..\..\lvgl\version_6.1.2\lvgl\src\lv_objx\../lv_objx/lv_page.h **** void lv_page_set_sb_mode(lv_obj_t * page, lv_sb_mode_t sb_mode);
 144:..\..\..\lvgl\version_6.1.2\lvgl\src\lv_objx\../lv_objx/lv_page.h **** 
 145:..\..\..\lvgl\version_6.1.2\lvgl\src\lv_objx\../lv_objx/lv_page.h **** /**
 146:..\..\..\lvgl\version_6.1.2\lvgl\src\lv_objx\../lv_objx/lv_page.h ****  * Set the animation time for the page
 147:..\..\..\lvgl\version_6.1.2\lvgl\src\lv_objx\../lv_objx/lv_page.h ****  * @param page pointer to a page object
 148:..\..\..\lvgl\version_6.1.2\lvgl\src\lv_objx\../lv_objx/lv_page.h ****  * @param anim_time animation time in milliseconds
 149:..\..\..\lvgl\version_6.1.2\lvgl\src\lv_objx\../lv_objx/lv_page.h ****  */
 150:..\..\..\lvgl\version_6.1.2\lvgl\src\lv_objx\../lv_objx/lv_page.h **** void lv_page_set_anim_time(lv_obj_t * page, uint16_t anim_time);
 151:..\..\..\lvgl\version_6.1.2\lvgl\src\lv_objx\../lv_objx/lv_page.h **** 
 152:..\..\..\lvgl\version_6.1.2\lvgl\src\lv_objx\../lv_objx/lv_page.h **** /**
 153:..\..\..\lvgl\version_6.1.2\lvgl\src\lv_objx\../lv_objx/lv_page.h ****  * Enable the scroll propagation feature. If enabled then the page will move its parent if there is
 154:..\..\..\lvgl\version_6.1.2\lvgl\src\lv_objx\../lv_objx/lv_page.h ****  * no more space to scroll.
 155:..\..\..\lvgl\version_6.1.2\lvgl\src\lv_objx\../lv_objx/lv_page.h ****  * @param page pointer to a Page
 156:..\..\..\lvgl\version_6.1.2\lvgl\src\lv_objx\../lv_objx/lv_page.h ****  * @param en true or false to enable/disable scroll propagation
 157:..\..\..\lvgl\version_6.1.2\lvgl\src\lv_objx\../lv_objx/lv_page.h ****  */
 158:..\..\..\lvgl\version_6.1.2\lvgl\src\lv_objx\../lv_objx/lv_page.h **** void lv_page_set_scroll_propagation(lv_obj_t * page, bool en);
 159:..\..\..\lvgl\version_6.1.2\lvgl\src\lv_objx\../lv_objx/lv_page.h **** 
 160:..\..\..\lvgl\version_6.1.2\lvgl\src\lv_objx\../lv_objx/lv_page.h **** /**
 161:..\..\..\lvgl\version_6.1.2\lvgl\src\lv_objx\../lv_objx/lv_page.h ****  * Enable the edge flash effect. (Show an arc when the an edge is reached)
 162:..\..\..\lvgl\version_6.1.2\lvgl\src\lv_objx\../lv_objx/lv_page.h ****  * @param page pointer to a Page
 163:..\..\..\lvgl\version_6.1.2\lvgl\src\lv_objx\../lv_objx/lv_page.h ****  * @param en true or false to enable/disable end flash
 164:..\..\..\lvgl\version_6.1.2\lvgl\src\lv_objx\../lv_objx/lv_page.h ****  */
 165:..\..\..\lvgl\version_6.1.2\lvgl\src\lv_objx\../lv_objx/lv_page.h **** void lv_page_set_edge_flash(lv_obj_t * page, bool en);
 166:..\..\..\lvgl\version_6.1.2\lvgl\src\lv_objx\../lv_objx/lv_page.h **** 
 167:..\..\..\lvgl\version_6.1.2\lvgl\src\lv_objx\../lv_objx/lv_page.h **** /**
 168:..\..\..\lvgl\version_6.1.2\lvgl\src\lv_objx\../lv_objx/lv_page.h ****  * Set the fit policy in all 4 directions separately.
 169:..\..\..\lvgl\version_6.1.2\lvgl\src\lv_objx\../lv_objx/lv_page.h ****  * It tell how to change the page size automatically.
 170:..\..\..\lvgl\version_6.1.2\lvgl\src\lv_objx\../lv_objx/lv_page.h ****  * @param page pointer to a page object
 171:..\..\..\lvgl\version_6.1.2\lvgl\src\lv_objx\../lv_objx/lv_page.h ****  * @param left left fit policy from `lv_fit_t`
 172:..\..\..\lvgl\version_6.1.2\lvgl\src\lv_objx\../lv_objx/lv_page.h ****  * @param right right fit policy from `lv_fit_t`
 173:..\..\..\lvgl\version_6.1.2\lvgl\src\lv_objx\../lv_objx/lv_page.h ****  * @param top bottom fit policy from `lv_fit_t`
 174:..\..\..\lvgl\version_6.1.2\lvgl\src\lv_objx\../lv_objx/lv_page.h ****  * @param bottom bottom fit policy from `lv_fit_t`
 175:..\..\..\lvgl\version_6.1.2\lvgl\src\lv_objx\../lv_objx/lv_page.h ****  */
 176:..\..\..\lvgl\version_6.1.2\lvgl\src\lv_objx\../lv_objx/lv_page.h **** static inline void lv_page_set_scrl_fit4(lv_obj_t * page, lv_fit_t left, lv_fit_t right, lv_fit_t t
 177:..\..\..\lvgl\version_6.1.2\lvgl\src\lv_objx\../lv_objx/lv_page.h **** {
 178:..\..\..\lvgl\version_6.1.2\lvgl\src\lv_objx\../lv_objx/lv_page.h ****     lv_cont_set_fit4(lv_page_get_scrl(page), left, right, top, bottom);
 179:..\..\..\lvgl\version_6.1.2\lvgl\src\lv_objx\../lv_objx/lv_page.h **** }
 180:..\..\..\lvgl\version_6.1.2\lvgl\src\lv_objx\../lv_objx/lv_page.h **** 
 181:..\..\..\lvgl\version_6.1.2\lvgl\src\lv_objx\../lv_objx/lv_page.h **** /**
 182:..\..\..\lvgl\version_6.1.2\lvgl\src\lv_objx\../lv_objx/lv_page.h ****  * Set the fit policy horizontally and vertically separately.
 183:..\..\..\lvgl\version_6.1.2\lvgl\src\lv_objx\../lv_objx/lv_page.h ****  * It tell how to change the page size automatically.
 184:..\..\..\lvgl\version_6.1.2\lvgl\src\lv_objx\../lv_objx/lv_page.h ****  * @param page pointer to a page object
 185:..\..\..\lvgl\version_6.1.2\lvgl\src\lv_objx\../lv_objx/lv_page.h ****  * @param hot horizontal fit policy from `lv_fit_t`
 186:..\..\..\lvgl\version_6.1.2\lvgl\src\lv_objx\../lv_objx/lv_page.h ****  * @param ver vertical fit policy from `lv_fit_t`
 187:..\..\..\lvgl\version_6.1.2\lvgl\src\lv_objx\../lv_objx/lv_page.h ****  */
 188:..\..\..\lvgl\version_6.1.2\lvgl\src\lv_objx\../lv_objx/lv_page.h **** static inline void lv_page_set_scrl_fit2(lv_obj_t * page, lv_fit_t hor, lv_fit_t ver)
 189:..\..\..\lvgl\version_6.1.2\lvgl\src\lv_objx\../lv_objx/lv_page.h **** {
 190:..\..\..\lvgl\version_6.1.2\lvgl\src\lv_objx\../lv_objx/lv_page.h ****     lv_cont_set_fit2(lv_page_get_scrl(page), hor, ver);
 191:..\..\..\lvgl\version_6.1.2\lvgl\src\lv_objx\../lv_objx/lv_page.h **** }
 192:..\..\..\lvgl\version_6.1.2\lvgl\src\lv_objx\../lv_objx/lv_page.h **** 
 193:..\..\..\lvgl\version_6.1.2\lvgl\src\lv_objx\../lv_objx/lv_page.h **** /**
 194:..\..\..\lvgl\version_6.1.2\lvgl\src\lv_objx\../lv_objx/lv_page.h ****  * Set the fit policyin all 4 direction at once.
ARM GAS  C:\Users\tmj32\AppData\Local\Temp\cctNeIsL.s 			page 8


 195:..\..\..\lvgl\version_6.1.2\lvgl\src\lv_objx\../lv_objx/lv_page.h ****  * It tell how to change the page size automatically.
 196:..\..\..\lvgl\version_6.1.2\lvgl\src\lv_objx\../lv_objx/lv_page.h ****  * @param page pointer to a button object
 197:..\..\..\lvgl\version_6.1.2\lvgl\src\lv_objx\../lv_objx/lv_page.h ****  * @param fit fit policy from `lv_fit_t`
 198:..\..\..\lvgl\version_6.1.2\lvgl\src\lv_objx\../lv_objx/lv_page.h ****  */
 199:..\..\..\lvgl\version_6.1.2\lvgl\src\lv_objx\../lv_objx/lv_page.h **** static inline void lv_page_set_scrl_fit(lv_obj_t * page, lv_fit_t fit)
 200:..\..\..\lvgl\version_6.1.2\lvgl\src\lv_objx\../lv_objx/lv_page.h **** {
  71              		.loc 2 200 0
  72              		.cfi_startproc
  73              		@ args = 0, pretend = 0, frame = 8
  74              		@ frame_needed = 1, uses_anonymous_args = 0
  75 0000 80B5     		push	{r7, lr}
  76              		.cfi_def_cfa_offset 8
  77              		.cfi_offset 7, -8
  78              		.cfi_offset 14, -4
  79 0002 82B0     		sub	sp, sp, #8
  80              		.cfi_def_cfa_offset 16
  81 0004 00AF     		add	r7, sp, #0
  82              		.cfi_def_cfa_register 7
  83 0006 7860     		str	r0, [r7, #4]
  84 0008 0B46     		mov	r3, r1
  85 000a FB70     		strb	r3, [r7, #3]
 201:..\..\..\lvgl\version_6.1.2\lvgl\src\lv_objx\../lv_objx/lv_page.h ****     lv_cont_set_fit(lv_page_get_scrl(page), fit);
  86              		.loc 2 201 0
  87 000c 7868     		ldr	r0, [r7, #4]
  88 000e FFF7FEFF 		bl	lv_page_get_scrl
  89 0012 0246     		mov	r2, r0
  90 0014 FB78     		ldrb	r3, [r7, #3]	@ zero_extendqisi2
  91 0016 1946     		mov	r1, r3
  92 0018 1046     		mov	r0, r2
  93 001a FFF7FEFF 		bl	lv_cont_set_fit
 202:..\..\..\lvgl\version_6.1.2\lvgl\src\lv_objx\../lv_objx/lv_page.h **** }
  94              		.loc 2 202 0
  95 001e 00BF     		nop
  96 0020 0837     		adds	r7, r7, #8
  97              		.cfi_def_cfa_offset 8
  98 0022 BD46     		mov	sp, r7
  99              		.cfi_def_cfa_register 13
 100              		@ sp needed
 101 0024 80BD     		pop	{r7, pc}
 102              		.cfi_endproc
 103              	.LFE37:
 104              		.size	lv_page_set_scrl_fit, .-lv_page_set_scrl_fit
 105 0026 00BF     		.bss
 106              		.align	2
 107              	ancestor_signal:
 108 0000 00000000 		.space	4
 109              		.align	2
 110              	ancestor_scrl_signal:
 111 0004 00000000 		.space	4
 112              		.align	2
 113              	ancestor_design:
 114 0008 00000000 		.space	4
 115              		.section	.text.lv_tileview_create,"ax",%progbits
 116              		.align	2
 117              		.global	lv_tileview_create
 118              		.thumb
 119              		.thumb_func
ARM GAS  C:\Users\tmj32\AppData\Local\Temp\cctNeIsL.s 			page 9


 120              		.type	lv_tileview_create, %function
 121              	lv_tileview_create:
 122              	.LFB52:
 123              		.file 3 "..\\..\\..\\lvgl\\version_6.1.2\\lvgl\\src\\lv_objx\\lv_tileview.c"
   1:..\..\..\lvgl\version_6.1.2\lvgl\src\lv_objx/lv_tileview.c **** /**
   2:..\..\..\lvgl\version_6.1.2\lvgl\src\lv_objx/lv_tileview.c ****  * @file lv_tileview.c
   3:..\..\..\lvgl\version_6.1.2\lvgl\src\lv_objx/lv_tileview.c ****  *
   4:..\..\..\lvgl\version_6.1.2\lvgl\src\lv_objx/lv_tileview.c ****  */
   5:..\..\..\lvgl\version_6.1.2\lvgl\src\lv_objx/lv_tileview.c **** 
   6:..\..\..\lvgl\version_6.1.2\lvgl\src\lv_objx/lv_tileview.c **** /*********************
   7:..\..\..\lvgl\version_6.1.2\lvgl\src\lv_objx/lv_tileview.c ****  *      INCLUDES
   8:..\..\..\lvgl\version_6.1.2\lvgl\src\lv_objx/lv_tileview.c ****  *********************/
   9:..\..\..\lvgl\version_6.1.2\lvgl\src\lv_objx/lv_tileview.c **** #include "lv_tileview.h"
  10:..\..\..\lvgl\version_6.1.2\lvgl\src\lv_objx/lv_tileview.c **** #if LV_USE_TILEVIEW != 0
  11:..\..\..\lvgl\version_6.1.2\lvgl\src\lv_objx/lv_tileview.c **** 
  12:..\..\..\lvgl\version_6.1.2\lvgl\src\lv_objx/lv_tileview.c **** #include <stdbool.h>
  13:..\..\..\lvgl\version_6.1.2\lvgl\src\lv_objx/lv_tileview.c **** #include "lv_cont.h"
  14:..\..\..\lvgl\version_6.1.2\lvgl\src\lv_objx/lv_tileview.c **** #include "../lv_core/lv_debug.h"
  15:..\..\..\lvgl\version_6.1.2\lvgl\src\lv_objx/lv_tileview.c **** #include "../lv_themes/lv_theme.h"
  16:..\..\..\lvgl\version_6.1.2\lvgl\src\lv_objx/lv_tileview.c **** 
  17:..\..\..\lvgl\version_6.1.2\lvgl\src\lv_objx/lv_tileview.c **** /*********************
  18:..\..\..\lvgl\version_6.1.2\lvgl\src\lv_objx/lv_tileview.c ****  *      DEFINES
  19:..\..\..\lvgl\version_6.1.2\lvgl\src\lv_objx/lv_tileview.c ****  *********************/
  20:..\..\..\lvgl\version_6.1.2\lvgl\src\lv_objx/lv_tileview.c **** #define LV_OBJX_NAME "lv_tileview"
  21:..\..\..\lvgl\version_6.1.2\lvgl\src\lv_objx/lv_tileview.c **** 
  22:..\..\..\lvgl\version_6.1.2\lvgl\src\lv_objx/lv_tileview.c **** #if LV_USE_ANIMATION
  23:..\..\..\lvgl\version_6.1.2\lvgl\src\lv_objx/lv_tileview.c **** #ifndef LV_TILEVIEW_DEF_ANIM_TIME
  24:..\..\..\lvgl\version_6.1.2\lvgl\src\lv_objx/lv_tileview.c **** #define LV_TILEVIEW_DEF_ANIM_TIME 300 /*Animation time loading a tile [ms] (0: no animation)  */
  25:..\..\..\lvgl\version_6.1.2\lvgl\src\lv_objx/lv_tileview.c **** #endif
  26:..\..\..\lvgl\version_6.1.2\lvgl\src\lv_objx/lv_tileview.c **** #else
  27:..\..\..\lvgl\version_6.1.2\lvgl\src\lv_objx/lv_tileview.c **** #undef LV_TILEVIEW_DEF_ANIM_TIME
  28:..\..\..\lvgl\version_6.1.2\lvgl\src\lv_objx/lv_tileview.c **** #define LV_TILEVIEW_DEF_ANIM_TIME 0 /*No animations*/
  29:..\..\..\lvgl\version_6.1.2\lvgl\src\lv_objx/lv_tileview.c **** #endif
  30:..\..\..\lvgl\version_6.1.2\lvgl\src\lv_objx/lv_tileview.c **** 
  31:..\..\..\lvgl\version_6.1.2\lvgl\src\lv_objx/lv_tileview.c **** /**********************
  32:..\..\..\lvgl\version_6.1.2\lvgl\src\lv_objx/lv_tileview.c ****  *      TYPEDEFS
  33:..\..\..\lvgl\version_6.1.2\lvgl\src\lv_objx/lv_tileview.c ****  **********************/
  34:..\..\..\lvgl\version_6.1.2\lvgl\src\lv_objx/lv_tileview.c **** 
  35:..\..\..\lvgl\version_6.1.2\lvgl\src\lv_objx/lv_tileview.c **** /**********************
  36:..\..\..\lvgl\version_6.1.2\lvgl\src\lv_objx/lv_tileview.c ****  *  STATIC PROTOTYPES
  37:..\..\..\lvgl\version_6.1.2\lvgl\src\lv_objx/lv_tileview.c ****  **********************/
  38:..\..\..\lvgl\version_6.1.2\lvgl\src\lv_objx/lv_tileview.c **** static lv_res_t lv_tileview_signal(lv_obj_t * tileview, lv_signal_t sign, void * param);
  39:..\..\..\lvgl\version_6.1.2\lvgl\src\lv_objx/lv_tileview.c **** static lv_res_t lv_tileview_scrl_signal(lv_obj_t * scrl, lv_signal_t sign, void * param);
  40:..\..\..\lvgl\version_6.1.2\lvgl\src\lv_objx/lv_tileview.c **** static void tileview_scrl_event_cb(lv_obj_t * scrl, lv_event_t event);
  41:..\..\..\lvgl\version_6.1.2\lvgl\src\lv_objx/lv_tileview.c **** static void drag_end_handler(lv_obj_t * tileview);
  42:..\..\..\lvgl\version_6.1.2\lvgl\src\lv_objx/lv_tileview.c **** static bool set_valid_drag_dirs(lv_obj_t * tileview);
  43:..\..\..\lvgl\version_6.1.2\lvgl\src\lv_objx/lv_tileview.c **** 
  44:..\..\..\lvgl\version_6.1.2\lvgl\src\lv_objx/lv_tileview.c **** /**********************
  45:..\..\..\lvgl\version_6.1.2\lvgl\src\lv_objx/lv_tileview.c ****  *  STATIC VARIABLES
  46:..\..\..\lvgl\version_6.1.2\lvgl\src\lv_objx/lv_tileview.c ****  **********************/
  47:..\..\..\lvgl\version_6.1.2\lvgl\src\lv_objx/lv_tileview.c **** static lv_signal_cb_t ancestor_signal;
  48:..\..\..\lvgl\version_6.1.2\lvgl\src\lv_objx/lv_tileview.c **** static lv_signal_cb_t ancestor_scrl_signal;
  49:..\..\..\lvgl\version_6.1.2\lvgl\src\lv_objx/lv_tileview.c **** static lv_design_cb_t ancestor_design;
  50:..\..\..\lvgl\version_6.1.2\lvgl\src\lv_objx/lv_tileview.c **** 
  51:..\..\..\lvgl\version_6.1.2\lvgl\src\lv_objx/lv_tileview.c **** /**********************
  52:..\..\..\lvgl\version_6.1.2\lvgl\src\lv_objx/lv_tileview.c ****  *      MACROS
  53:..\..\..\lvgl\version_6.1.2\lvgl\src\lv_objx/lv_tileview.c ****  **********************/
ARM GAS  C:\Users\tmj32\AppData\Local\Temp\cctNeIsL.s 			page 10


  54:..\..\..\lvgl\version_6.1.2\lvgl\src\lv_objx/lv_tileview.c **** 
  55:..\..\..\lvgl\version_6.1.2\lvgl\src\lv_objx/lv_tileview.c **** /**********************
  56:..\..\..\lvgl\version_6.1.2\lvgl\src\lv_objx/lv_tileview.c ****  *   GLOBAL FUNCTIONS
  57:..\..\..\lvgl\version_6.1.2\lvgl\src\lv_objx/lv_tileview.c ****  **********************/
  58:..\..\..\lvgl\version_6.1.2\lvgl\src\lv_objx/lv_tileview.c **** 
  59:..\..\..\lvgl\version_6.1.2\lvgl\src\lv_objx/lv_tileview.c **** /**
  60:..\..\..\lvgl\version_6.1.2\lvgl\src\lv_objx/lv_tileview.c ****  * Create a tileview object
  61:..\..\..\lvgl\version_6.1.2\lvgl\src\lv_objx/lv_tileview.c ****  * @param par pointer to an object, it will be the parent of the new tileview
  62:..\..\..\lvgl\version_6.1.2\lvgl\src\lv_objx/lv_tileview.c ****  * @param copy pointer to a tileview object, if not NULL then the new object will be copied from it
  63:..\..\..\lvgl\version_6.1.2\lvgl\src\lv_objx/lv_tileview.c ****  * @return pointer to the created tileview
  64:..\..\..\lvgl\version_6.1.2\lvgl\src\lv_objx/lv_tileview.c ****  */
  65:..\..\..\lvgl\version_6.1.2\lvgl\src\lv_objx/lv_tileview.c **** lv_obj_t * lv_tileview_create(lv_obj_t * par, const lv_obj_t * copy)
  66:..\..\..\lvgl\version_6.1.2\lvgl\src\lv_objx/lv_tileview.c **** {
 124              		.loc 3 66 0
 125              		.cfi_startproc
 126              		@ args = 0, pretend = 0, frame = 32
 127              		@ frame_needed = 1, uses_anonymous_args = 0
 128 0000 80B5     		push	{r7, lr}
 129              		.cfi_def_cfa_offset 8
 130              		.cfi_offset 7, -8
 131              		.cfi_offset 14, -4
 132 0002 88B0     		sub	sp, sp, #32
 133              		.cfi_def_cfa_offset 40
 134 0004 00AF     		add	r7, sp, #0
 135              		.cfi_def_cfa_register 7
 136 0006 7860     		str	r0, [r7, #4]
 137 0008 3960     		str	r1, [r7]
  67:..\..\..\lvgl\version_6.1.2\lvgl\src\lv_objx/lv_tileview.c ****     LV_LOG_TRACE("tileview create started");
  68:..\..\..\lvgl\version_6.1.2\lvgl\src\lv_objx/lv_tileview.c **** 
  69:..\..\..\lvgl\version_6.1.2\lvgl\src\lv_objx/lv_tileview.c ****     /*Create the ancestor of tileview*/
  70:..\..\..\lvgl\version_6.1.2\lvgl\src\lv_objx/lv_tileview.c ****     lv_obj_t * new_tileview = lv_page_create(par, copy);
 138              		.loc 3 70 0
 139 000a 3968     		ldr	r1, [r7]
 140 000c 7868     		ldr	r0, [r7, #4]
 141 000e FFF7FEFF 		bl	lv_page_create
 142 0012 B861     		str	r0, [r7, #24]
  71:..\..\..\lvgl\version_6.1.2\lvgl\src\lv_objx/lv_tileview.c ****     LV_ASSERT_MEM(new_tileview);
  72:..\..\..\lvgl\version_6.1.2\lvgl\src\lv_objx/lv_tileview.c ****     if(new_tileview == NULL) return NULL;
 143              		.loc 3 72 0
 144 0014 BB69     		ldr	r3, [r7, #24]
 145 0016 002B     		cmp	r3, #0
 146 0018 01D1     		bne	.L4
 147              		.loc 3 72 0 is_stmt 0 discriminator 1
 148 001a 0023     		movs	r3, #0
 149 001c CCE0     		b	.L5
 150              	.L4:
  73:..\..\..\lvgl\version_6.1.2\lvgl\src\lv_objx/lv_tileview.c **** 
  74:..\..\..\lvgl\version_6.1.2\lvgl\src\lv_objx/lv_tileview.c ****     /*Allocate the tileview type specific extended data*/
  75:..\..\..\lvgl\version_6.1.2\lvgl\src\lv_objx/lv_tileview.c ****     lv_tileview_ext_t * ext = lv_obj_allocate_ext_attr(new_tileview, sizeof(lv_tileview_ext_t));
 151              		.loc 3 75 0 is_stmt 1
 152 001e 4021     		movs	r1, #64
 153 0020 B869     		ldr	r0, [r7, #24]
 154 0022 FFF7FEFF 		bl	lv_obj_allocate_ext_attr
 155 0026 7861     		str	r0, [r7, #20]
  76:..\..\..\lvgl\version_6.1.2\lvgl\src\lv_objx/lv_tileview.c ****     LV_ASSERT_MEM(ext);
  77:..\..\..\lvgl\version_6.1.2\lvgl\src\lv_objx/lv_tileview.c ****     if(ext == NULL) return NULL;
 156              		.loc 3 77 0
ARM GAS  C:\Users\tmj32\AppData\Local\Temp\cctNeIsL.s 			page 11


 157 0028 7B69     		ldr	r3, [r7, #20]
 158 002a 002B     		cmp	r3, #0
 159 002c 01D1     		bne	.L6
 160              		.loc 3 77 0 is_stmt 0 discriminator 1
 161 002e 0023     		movs	r3, #0
 162 0030 C2E0     		b	.L5
 163              	.L6:
  78:..\..\..\lvgl\version_6.1.2\lvgl\src\lv_objx/lv_tileview.c ****     if(ancestor_signal == NULL) ancestor_signal = lv_obj_get_signal_cb(new_tileview);
 164              		.loc 3 78 0 is_stmt 1
 165 0032 634B     		ldr	r3, .L16
 166 0034 1B68     		ldr	r3, [r3]
 167 0036 002B     		cmp	r3, #0
 168 0038 05D1     		bne	.L7
 169              		.loc 3 78 0 is_stmt 0 discriminator 1
 170 003a B869     		ldr	r0, [r7, #24]
 171 003c FFF7FEFF 		bl	lv_obj_get_signal_cb
 172 0040 0246     		mov	r2, r0
 173 0042 5F4B     		ldr	r3, .L16
 174 0044 1A60     		str	r2, [r3]
 175              	.L7:
  79:..\..\..\lvgl\version_6.1.2\lvgl\src\lv_objx/lv_tileview.c ****     if(ancestor_scrl_signal == NULL) ancestor_scrl_signal = lv_obj_get_signal_cb(lv_page_get_scrl(n
 176              		.loc 3 79 0 is_stmt 1
 177 0046 5F4B     		ldr	r3, .L16+4
 178 0048 1B68     		ldr	r3, [r3]
 179 004a 002B     		cmp	r3, #0
 180 004c 09D1     		bne	.L8
 181              		.loc 3 79 0 is_stmt 0 discriminator 1
 182 004e B869     		ldr	r0, [r7, #24]
 183 0050 FFF7FEFF 		bl	lv_page_get_scrl
 184 0054 0346     		mov	r3, r0
 185 0056 1846     		mov	r0, r3
 186 0058 FFF7FEFF 		bl	lv_obj_get_signal_cb
 187 005c 0246     		mov	r2, r0
 188 005e 594B     		ldr	r3, .L16+4
 189 0060 1A60     		str	r2, [r3]
 190              	.L8:
  80:..\..\..\lvgl\version_6.1.2\lvgl\src\lv_objx/lv_tileview.c ****     if(ancestor_design == NULL) ancestor_design = lv_obj_get_design_cb(new_tileview);
 191              		.loc 3 80 0 is_stmt 1
 192 0062 594B     		ldr	r3, .L16+8
 193 0064 1B68     		ldr	r3, [r3]
 194 0066 002B     		cmp	r3, #0
 195 0068 05D1     		bne	.L9
 196              		.loc 3 80 0 is_stmt 0 discriminator 1
 197 006a B869     		ldr	r0, [r7, #24]
 198 006c FFF7FEFF 		bl	lv_obj_get_design_cb
 199 0070 0246     		mov	r2, r0
 200 0072 554B     		ldr	r3, .L16+8
 201 0074 1A60     		str	r2, [r3]
 202              	.L9:
  81:..\..\..\lvgl\version_6.1.2\lvgl\src\lv_objx/lv_tileview.c **** 
  82:..\..\..\lvgl\version_6.1.2\lvgl\src\lv_objx/lv_tileview.c ****         /*Initialize the allocated 'ext' */
  83:..\..\..\lvgl\version_6.1.2\lvgl\src\lv_objx/lv_tileview.c **** #if LV_USE_ANIMATION
  84:..\..\..\lvgl\version_6.1.2\lvgl\src\lv_objx/lv_tileview.c ****     ext->anim_time = LV_TILEVIEW_DEF_ANIM_TIME;
 203              		.loc 3 84 0 is_stmt 1
 204 0076 7B69     		ldr	r3, [r7, #20]
 205 0078 4FF49672 		mov	r2, #300
 206 007c DA86     		strh	r2, [r3, #54]	@ movhi
ARM GAS  C:\Users\tmj32\AppData\Local\Temp\cctNeIsL.s 			page 12


  85:..\..\..\lvgl\version_6.1.2\lvgl\src\lv_objx/lv_tileview.c **** #endif
  86:..\..\..\lvgl\version_6.1.2\lvgl\src\lv_objx/lv_tileview.c ****     ext->act_id.x      = 0;
 207              		.loc 3 86 0
 208 007e 7B69     		ldr	r3, [r7, #20]
 209 0080 0022     		movs	r2, #0
 210 0082 1A87     		strh	r2, [r3, #56]	@ movhi
  87:..\..\..\lvgl\version_6.1.2\lvgl\src\lv_objx/lv_tileview.c ****     ext->act_id.y      = 0;
 211              		.loc 3 87 0
 212 0084 7B69     		ldr	r3, [r7, #20]
 213 0086 0022     		movs	r2, #0
 214 0088 5A87     		strh	r2, [r3, #58]	@ movhi
  88:..\..\..\lvgl\version_6.1.2\lvgl\src\lv_objx/lv_tileview.c ****     ext->valid_pos     = NULL;
 215              		.loc 3 88 0
 216 008a 7B69     		ldr	r3, [r7, #20]
 217 008c 0022     		movs	r2, #0
 218 008e 1A63     		str	r2, [r3, #48]
  89:..\..\..\lvgl\version_6.1.2\lvgl\src\lv_objx/lv_tileview.c ****     ext->valid_pos_cnt = 0;
 219              		.loc 3 89 0
 220 0090 7B69     		ldr	r3, [r7, #20]
 221 0092 0022     		movs	r2, #0
 222 0094 9A86     		strh	r2, [r3, #52]	@ movhi
  90:..\..\..\lvgl\version_6.1.2\lvgl\src\lv_objx/lv_tileview.c **** 
  91:..\..\..\lvgl\version_6.1.2\lvgl\src\lv_objx/lv_tileview.c ****     /*The signal and design functions are not copied so set them here*/
  92:..\..\..\lvgl\version_6.1.2\lvgl\src\lv_objx/lv_tileview.c ****     lv_obj_set_signal_cb(new_tileview, lv_tileview_signal);
 223              		.loc 3 92 0
 224 0096 4D49     		ldr	r1, .L16+12
 225 0098 B869     		ldr	r0, [r7, #24]
 226 009a FFF7FEFF 		bl	lv_obj_set_signal_cb
  93:..\..\..\lvgl\version_6.1.2\lvgl\src\lv_objx/lv_tileview.c ****     lv_obj_set_signal_cb(lv_page_get_scrl(new_tileview), lv_tileview_scrl_signal);
 227              		.loc 3 93 0
 228 009e B869     		ldr	r0, [r7, #24]
 229 00a0 FFF7FEFF 		bl	lv_page_get_scrl
 230 00a4 0346     		mov	r3, r0
 231 00a6 4A49     		ldr	r1, .L16+16
 232 00a8 1846     		mov	r0, r3
 233 00aa FFF7FEFF 		bl	lv_obj_set_signal_cb
  94:..\..\..\lvgl\version_6.1.2\lvgl\src\lv_objx/lv_tileview.c **** 
  95:..\..\..\lvgl\version_6.1.2\lvgl\src\lv_objx/lv_tileview.c ****     /*Init the new tileview*/
  96:..\..\..\lvgl\version_6.1.2\lvgl\src\lv_objx/lv_tileview.c ****     if(copy == NULL) {
 234              		.loc 3 96 0
 235 00ae 3B68     		ldr	r3, [r7]
 236 00b0 002B     		cmp	r3, #0
 237 00b2 63D1     		bne	.L10
 238              	.LBB2:
  97:..\..\..\lvgl\version_6.1.2\lvgl\src\lv_objx/lv_tileview.c ****         /* Set a size which fits into the parent.
  98:..\..\..\lvgl\version_6.1.2\lvgl\src\lv_objx/lv_tileview.c ****          * Don't use `par` directly because if the tileview is created on a page it is moved to the
  99:..\..\..\lvgl\version_6.1.2\lvgl\src\lv_objx/lv_tileview.c ****          * scrollable so the parent has changed */
 100:..\..\..\lvgl\version_6.1.2\lvgl\src\lv_objx/lv_tileview.c ****         lv_coord_t w;
 101:..\..\..\lvgl\version_6.1.2\lvgl\src\lv_objx/lv_tileview.c ****         lv_coord_t h;
 102:..\..\..\lvgl\version_6.1.2\lvgl\src\lv_objx/lv_tileview.c ****         if(par) {
 239              		.loc 3 102 0
 240 00b4 7B68     		ldr	r3, [r7, #4]
 241 00b6 002B     		cmp	r3, #0
 242 00b8 12D0     		beq	.L11
 103:..\..\..\lvgl\version_6.1.2\lvgl\src\lv_objx/lv_tileview.c ****             w = lv_obj_get_width_fit(lv_obj_get_parent(new_tileview));
 243              		.loc 3 103 0
 244 00ba B869     		ldr	r0, [r7, #24]
ARM GAS  C:\Users\tmj32\AppData\Local\Temp\cctNeIsL.s 			page 13


 245 00bc FFF7FEFF 		bl	lv_obj_get_parent
 246 00c0 0346     		mov	r3, r0
 247 00c2 1846     		mov	r0, r3
 248 00c4 FFF7FEFF 		bl	lv_obj_get_width_fit
 249 00c8 0346     		mov	r3, r0
 250 00ca FB83     		strh	r3, [r7, #30]	@ movhi
 104:..\..\..\lvgl\version_6.1.2\lvgl\src\lv_objx/lv_tileview.c ****             h = lv_obj_get_height_fit(lv_obj_get_parent(new_tileview));
 251              		.loc 3 104 0
 252 00cc B869     		ldr	r0, [r7, #24]
 253 00ce FFF7FEFF 		bl	lv_obj_get_parent
 254 00d2 0346     		mov	r3, r0
 255 00d4 1846     		mov	r0, r3
 256 00d6 FFF7FEFF 		bl	lv_obj_get_height_fit
 257 00da 0346     		mov	r3, r0
 258 00dc BB83     		strh	r3, [r7, #28]	@ movhi
 259 00de 09E0     		b	.L12
 260              	.L11:
 105:..\..\..\lvgl\version_6.1.2\lvgl\src\lv_objx/lv_tileview.c ****         } else {
 106:..\..\..\lvgl\version_6.1.2\lvgl\src\lv_objx/lv_tileview.c ****             w = lv_disp_get_hor_res(NULL);
 261              		.loc 3 106 0
 262 00e0 0020     		movs	r0, #0
 263 00e2 FFF7FEFF 		bl	lv_disp_get_hor_res
 264 00e6 0346     		mov	r3, r0
 265 00e8 FB83     		strh	r3, [r7, #30]	@ movhi
 107:..\..\..\lvgl\version_6.1.2\lvgl\src\lv_objx/lv_tileview.c ****             h = lv_disp_get_ver_res(NULL);
 266              		.loc 3 107 0
 267 00ea 0020     		movs	r0, #0
 268 00ec FFF7FEFF 		bl	lv_disp_get_ver_res
 269 00f0 0346     		mov	r3, r0
 270 00f2 BB83     		strh	r3, [r7, #28]	@ movhi
 271              	.L12:
 108:..\..\..\lvgl\version_6.1.2\lvgl\src\lv_objx/lv_tileview.c ****         }
 109:..\..\..\lvgl\version_6.1.2\lvgl\src\lv_objx/lv_tileview.c **** 
 110:..\..\..\lvgl\version_6.1.2\lvgl\src\lv_objx/lv_tileview.c ****         lv_obj_set_size(new_tileview, w, h);
 272              		.loc 3 110 0
 273 00f4 B7F91C20 		ldrsh	r2, [r7, #28]
 274 00f8 B7F91E30 		ldrsh	r3, [r7, #30]
 275 00fc 1946     		mov	r1, r3
 276 00fe B869     		ldr	r0, [r7, #24]
 277 0100 FFF7FEFF 		bl	lv_obj_set_size
 111:..\..\..\lvgl\version_6.1.2\lvgl\src\lv_objx/lv_tileview.c **** 
 112:..\..\..\lvgl\version_6.1.2\lvgl\src\lv_objx/lv_tileview.c ****         lv_obj_set_drag_throw(lv_page_get_scrl(new_tileview), false);
 278              		.loc 3 112 0
 279 0104 B869     		ldr	r0, [r7, #24]
 280 0106 FFF7FEFF 		bl	lv_page_get_scrl
 281 010a 0346     		mov	r3, r0
 282 010c 0021     		movs	r1, #0
 283 010e 1846     		mov	r0, r3
 284 0110 FFF7FEFF 		bl	lv_obj_set_drag_throw
 113:..\..\..\lvgl\version_6.1.2\lvgl\src\lv_objx/lv_tileview.c ****         lv_page_set_scrl_fit(new_tileview, LV_FIT_TIGHT);
 285              		.loc 3 113 0
 286 0114 0121     		movs	r1, #1
 287 0116 B869     		ldr	r0, [r7, #24]
 288 0118 FFF7FEFF 		bl	lv_page_set_scrl_fit
 114:..\..\..\lvgl\version_6.1.2\lvgl\src\lv_objx/lv_tileview.c ****         lv_obj_set_event_cb(ext->page.scrl, tileview_scrl_event_cb);
 289              		.loc 3 114 0
 290 011c 7B69     		ldr	r3, [r7, #20]
ARM GAS  C:\Users\tmj32\AppData\Local\Temp\cctNeIsL.s 			page 14


 291 011e 5B68     		ldr	r3, [r3, #4]
 292 0120 2C49     		ldr	r1, .L16+20
 293 0122 1846     		mov	r0, r3
 294 0124 FFF7FEFF 		bl	lv_obj_set_event_cb
 115:..\..\..\lvgl\version_6.1.2\lvgl\src\lv_objx/lv_tileview.c ****         /*Set the default styles*/
 116:..\..\..\lvgl\version_6.1.2\lvgl\src\lv_objx/lv_tileview.c ****         lv_theme_t * th = lv_theme_get_current();
 295              		.loc 3 116 0
 296 0128 FFF7FEFF 		bl	lv_theme_get_current
 297 012c 3861     		str	r0, [r7, #16]
 117:..\..\..\lvgl\version_6.1.2\lvgl\src\lv_objx/lv_tileview.c ****         if(th) {
 298              		.loc 3 117 0
 299 012e 3B69     		ldr	r3, [r7, #16]
 300 0130 002B     		cmp	r3, #0
 301 0132 18D0     		beq	.L13
 118:..\..\..\lvgl\version_6.1.2\lvgl\src\lv_objx/lv_tileview.c ****             lv_page_set_style(new_tileview, LV_PAGE_STYLE_BG, th->style.tileview.bg);
 302              		.loc 3 118 0
 303 0134 3B69     		ldr	r3, [r7, #16]
 304 0136 D3F87C31 		ldr	r3, [r3, #380]
 305 013a 1A46     		mov	r2, r3
 306 013c 0021     		movs	r1, #0
 307 013e B869     		ldr	r0, [r7, #24]
 308 0140 FFF7FEFF 		bl	lv_page_set_style
 119:..\..\..\lvgl\version_6.1.2\lvgl\src\lv_objx/lv_tileview.c ****             lv_page_set_style(new_tileview, LV_PAGE_STYLE_SCRL, th->style.tileview.scrl);
 309              		.loc 3 119 0
 310 0144 3B69     		ldr	r3, [r7, #16]
 311 0146 D3F88031 		ldr	r3, [r3, #384]
 312 014a 1A46     		mov	r2, r3
 313 014c 0121     		movs	r1, #1
 314 014e B869     		ldr	r0, [r7, #24]
 315 0150 FFF7FEFF 		bl	lv_page_set_style
 120:..\..\..\lvgl\version_6.1.2\lvgl\src\lv_objx/lv_tileview.c ****             lv_page_set_style(new_tileview, LV_PAGE_STYLE_SB, th->style.tileview.sb);
 316              		.loc 3 120 0
 317 0154 3B69     		ldr	r3, [r7, #16]
 318 0156 D3F88431 		ldr	r3, [r3, #388]
 319 015a 1A46     		mov	r2, r3
 320 015c 0221     		movs	r1, #2
 321 015e B869     		ldr	r0, [r7, #24]
 322 0160 FFF7FEFF 		bl	lv_page_set_style
 323 0164 27E0     		b	.L15
 324              	.L13:
 121:..\..\..\lvgl\version_6.1.2\lvgl\src\lv_objx/lv_tileview.c ****         } else {
 122:..\..\..\lvgl\version_6.1.2\lvgl\src\lv_objx/lv_tileview.c ****             lv_page_set_style(new_tileview, LV_PAGE_STYLE_BG, &lv_style_transp_tight);
 325              		.loc 3 122 0
 326 0166 1C4A     		ldr	r2, .L16+24
 327 0168 0021     		movs	r1, #0
 328 016a B869     		ldr	r0, [r7, #24]
 329 016c FFF7FEFF 		bl	lv_page_set_style
 123:..\..\..\lvgl\version_6.1.2\lvgl\src\lv_objx/lv_tileview.c ****             lv_page_set_style(new_tileview, LV_PAGE_STYLE_SCRL, &lv_style_transp_tight);
 330              		.loc 3 123 0
 331 0170 194A     		ldr	r2, .L16+24
 332 0172 0121     		movs	r1, #1
 333 0174 B869     		ldr	r0, [r7, #24]
 334 0176 FFF7FEFF 		bl	lv_page_set_style
 335 017a 1CE0     		b	.L15
 336              	.L10:
 337              	.LBE2:
 338              	.LBB3:
ARM GAS  C:\Users\tmj32\AppData\Local\Temp\cctNeIsL.s 			page 15


 124:..\..\..\lvgl\version_6.1.2\lvgl\src\lv_objx/lv_tileview.c ****         }
 125:..\..\..\lvgl\version_6.1.2\lvgl\src\lv_objx/lv_tileview.c ****     }
 126:..\..\..\lvgl\version_6.1.2\lvgl\src\lv_objx/lv_tileview.c ****     /*Copy an existing tileview*/
 127:..\..\..\lvgl\version_6.1.2\lvgl\src\lv_objx/lv_tileview.c ****     else {
 128:..\..\..\lvgl\version_6.1.2\lvgl\src\lv_objx/lv_tileview.c ****         lv_tileview_ext_t * copy_ext = lv_obj_get_ext_attr(copy);
 339              		.loc 3 128 0
 340 017c 3868     		ldr	r0, [r7]
 341 017e FFF7FEFF 		bl	lv_obj_get_ext_attr
 342 0182 F860     		str	r0, [r7, #12]
 129:..\..\..\lvgl\version_6.1.2\lvgl\src\lv_objx/lv_tileview.c ****         ext->act_id.x                = copy_ext->act_id.x;
 343              		.loc 3 129 0
 344 0184 FB68     		ldr	r3, [r7, #12]
 345 0186 B3F93820 		ldrsh	r2, [r3, #56]
 346 018a 7B69     		ldr	r3, [r7, #20]
 347 018c 1A87     		strh	r2, [r3, #56]	@ movhi
 130:..\..\..\lvgl\version_6.1.2\lvgl\src\lv_objx/lv_tileview.c ****         ext->act_id.y                = copy_ext->act_id.y;
 348              		.loc 3 130 0
 349 018e FB68     		ldr	r3, [r7, #12]
 350 0190 B3F93A20 		ldrsh	r2, [r3, #58]
 351 0194 7B69     		ldr	r3, [r7, #20]
 352 0196 5A87     		strh	r2, [r3, #58]	@ movhi
 131:..\..\..\lvgl\version_6.1.2\lvgl\src\lv_objx/lv_tileview.c ****         ext->valid_pos               = copy_ext->valid_pos;
 353              		.loc 3 131 0
 354 0198 FB68     		ldr	r3, [r7, #12]
 355 019a 1A6B     		ldr	r2, [r3, #48]
 356 019c 7B69     		ldr	r3, [r7, #20]
 357 019e 1A63     		str	r2, [r3, #48]
 132:..\..\..\lvgl\version_6.1.2\lvgl\src\lv_objx/lv_tileview.c ****         ext->valid_pos_cnt           = copy_ext->valid_pos_cnt;
 358              		.loc 3 132 0
 359 01a0 FB68     		ldr	r3, [r7, #12]
 360 01a2 9A8E     		ldrh	r2, [r3, #52]
 361 01a4 7B69     		ldr	r3, [r7, #20]
 362 01a6 9A86     		strh	r2, [r3, #52]	@ movhi
 133:..\..\..\lvgl\version_6.1.2\lvgl\src\lv_objx/lv_tileview.c **** #if LV_USE_ANIMATION
 134:..\..\..\lvgl\version_6.1.2\lvgl\src\lv_objx/lv_tileview.c ****         ext->anim_time = copy_ext->anim_time;
 363              		.loc 3 134 0
 364 01a8 FB68     		ldr	r3, [r7, #12]
 365 01aa DA8E     		ldrh	r2, [r3, #54]
 366 01ac 7B69     		ldr	r3, [r7, #20]
 367 01ae DA86     		strh	r2, [r3, #54]	@ movhi
 135:..\..\..\lvgl\version_6.1.2\lvgl\src\lv_objx/lv_tileview.c **** #endif
 136:..\..\..\lvgl\version_6.1.2\lvgl\src\lv_objx/lv_tileview.c **** 
 137:..\..\..\lvgl\version_6.1.2\lvgl\src\lv_objx/lv_tileview.c ****         /*Refresh the style with new signal function*/
 138:..\..\..\lvgl\version_6.1.2\lvgl\src\lv_objx/lv_tileview.c ****         lv_obj_refresh_style(new_tileview);
 368              		.loc 3 138 0
 369 01b0 B869     		ldr	r0, [r7, #24]
 370 01b2 FFF7FEFF 		bl	lv_obj_refresh_style
 371              	.L15:
 372              	.LBE3:
 139:..\..\..\lvgl\version_6.1.2\lvgl\src\lv_objx/lv_tileview.c ****     }
 140:..\..\..\lvgl\version_6.1.2\lvgl\src\lv_objx/lv_tileview.c **** 
 141:..\..\..\lvgl\version_6.1.2\lvgl\src\lv_objx/lv_tileview.c ****     LV_LOG_INFO("tileview created");
 142:..\..\..\lvgl\version_6.1.2\lvgl\src\lv_objx/lv_tileview.c **** 
 143:..\..\..\lvgl\version_6.1.2\lvgl\src\lv_objx/lv_tileview.c ****     return new_tileview;
 373              		.loc 3 143 0
 374 01b6 BB69     		ldr	r3, [r7, #24]
 375              	.L5:
ARM GAS  C:\Users\tmj32\AppData\Local\Temp\cctNeIsL.s 			page 16


 144:..\..\..\lvgl\version_6.1.2\lvgl\src\lv_objx/lv_tileview.c **** }
 376              		.loc 3 144 0
 377 01b8 1846     		mov	r0, r3
 378 01ba 2037     		adds	r7, r7, #32
 379              		.cfi_def_cfa_offset 8
 380 01bc BD46     		mov	sp, r7
 381              		.cfi_def_cfa_register 13
 382              		@ sp needed
 383 01be 80BD     		pop	{r7, pc}
 384              	.L17:
 385              		.align	2
 386              	.L16:
 387 01c0 00000000 		.word	ancestor_signal
 388 01c4 04000000 		.word	ancestor_scrl_signal
 389 01c8 08000000 		.word	ancestor_design
 390 01cc 00000000 		.word	lv_tileview_signal
 391 01d0 00000000 		.word	lv_tileview_scrl_signal
 392 01d4 00000000 		.word	tileview_scrl_event_cb
 393 01d8 00000000 		.word	lv_style_transp_tight
 394              		.cfi_endproc
 395              	.LFE52:
 396              		.size	lv_tileview_create, .-lv_tileview_create
 397              		.section	.text.lv_tileview_add_element,"ax",%progbits
 398              		.align	2
 399              		.global	lv_tileview_add_element
 400              		.thumb
 401              		.thumb_func
 402              		.type	lv_tileview_add_element, %function
 403              	lv_tileview_add_element:
 404              	.LFB53:
 145:..\..\..\lvgl\version_6.1.2\lvgl\src\lv_objx/lv_tileview.c **** 
 146:..\..\..\lvgl\version_6.1.2\lvgl\src\lv_objx/lv_tileview.c **** /*======================
 147:..\..\..\lvgl\version_6.1.2\lvgl\src\lv_objx/lv_tileview.c ****  * Add/remove functions
 148:..\..\..\lvgl\version_6.1.2\lvgl\src\lv_objx/lv_tileview.c ****  *=====================*/
 149:..\..\..\lvgl\version_6.1.2\lvgl\src\lv_objx/lv_tileview.c **** 
 150:..\..\..\lvgl\version_6.1.2\lvgl\src\lv_objx/lv_tileview.c **** /**
 151:..\..\..\lvgl\version_6.1.2\lvgl\src\lv_objx/lv_tileview.c ****  * Register an object on the tileview. The register object will able to slide the tileview
 152:..\..\..\lvgl\version_6.1.2\lvgl\src\lv_objx/lv_tileview.c ****  * @param tileview pointer to a Tileview object
 153:..\..\..\lvgl\version_6.1.2\lvgl\src\lv_objx/lv_tileview.c ****  * @param element pointer to an object
 154:..\..\..\lvgl\version_6.1.2\lvgl\src\lv_objx/lv_tileview.c ****  */
 155:..\..\..\lvgl\version_6.1.2\lvgl\src\lv_objx/lv_tileview.c **** void lv_tileview_add_element(lv_obj_t * tileview, lv_obj_t * element)
 156:..\..\..\lvgl\version_6.1.2\lvgl\src\lv_objx/lv_tileview.c **** {
 405              		.loc 3 156 0
 406              		.cfi_startproc
 407              		@ args = 0, pretend = 0, frame = 16
 408              		@ frame_needed = 1, uses_anonymous_args = 0
 409 0000 80B5     		push	{r7, lr}
 410              		.cfi_def_cfa_offset 8
 411              		.cfi_offset 7, -8
 412              		.cfi_offset 14, -4
 413 0002 84B0     		sub	sp, sp, #16
 414              		.cfi_def_cfa_offset 24
 415 0004 00AF     		add	r7, sp, #0
 416              		.cfi_def_cfa_register 7
 417 0006 7860     		str	r0, [r7, #4]
 418 0008 3960     		str	r1, [r7]
 157:..\..\..\lvgl\version_6.1.2\lvgl\src\lv_objx/lv_tileview.c ****     LV_ASSERT_OBJ(tileview, LV_OBJX_NAME);
ARM GAS  C:\Users\tmj32\AppData\Local\Temp\cctNeIsL.s 			page 17


 158:..\..\..\lvgl\version_6.1.2\lvgl\src\lv_objx/lv_tileview.c ****     LV_ASSERT_NULL(tileview);
 159:..\..\..\lvgl\version_6.1.2\lvgl\src\lv_objx/lv_tileview.c **** 
 160:..\..\..\lvgl\version_6.1.2\lvgl\src\lv_objx/lv_tileview.c ****     /* Let the objects event to propagate to the scrollable part of the tileview.
 161:..\..\..\lvgl\version_6.1.2\lvgl\src\lv_objx/lv_tileview.c ****      * It is required the handle dargging of the tileview with the element.*/
 162:..\..\..\lvgl\version_6.1.2\lvgl\src\lv_objx/lv_tileview.c ****     element->parent_event = 1;
 419              		.loc 3 162 0
 420 000a 3A68     		ldr	r2, [r7]
 421 000c 92F82C30 		ldrb	r3, [r2, #44]
 422 0010 43F08003 		orr	r3, r3, #128
 423 0014 82F82C30 		strb	r3, [r2, #44]
 163:..\..\..\lvgl\version_6.1.2\lvgl\src\lv_objx/lv_tileview.c ****     lv_obj_set_drag_parent(element, true);
 424              		.loc 3 163 0
 425 0018 0121     		movs	r1, #1
 426 001a 3868     		ldr	r0, [r7]
 427 001c FFF7FEFF 		bl	lv_obj_set_drag_parent
 164:..\..\..\lvgl\version_6.1.2\lvgl\src\lv_objx/lv_tileview.c **** 
 165:..\..\..\lvgl\version_6.1.2\lvgl\src\lv_objx/lv_tileview.c ****     /* When adding a new element the coordinates may shift.
 166:..\..\..\lvgl\version_6.1.2\lvgl\src\lv_objx/lv_tileview.c ****      * For example y=1 can become y=1 if an element is added to the top.
 167:..\..\..\lvgl\version_6.1.2\lvgl\src\lv_objx/lv_tileview.c ****      * So be sure the current tile is correctly shown*/
 168:..\..\..\lvgl\version_6.1.2\lvgl\src\lv_objx/lv_tileview.c ****     lv_tileview_ext_t * ext = lv_obj_get_ext_attr(tileview);
 428              		.loc 3 168 0
 429 0020 7868     		ldr	r0, [r7, #4]
 430 0022 FFF7FEFF 		bl	lv_obj_get_ext_attr
 431 0026 F860     		str	r0, [r7, #12]
 169:..\..\..\lvgl\version_6.1.2\lvgl\src\lv_objx/lv_tileview.c ****     lv_tileview_set_tile_act(tileview, ext->act_id.x, ext->act_id.y, false);
 432              		.loc 3 169 0
 433 0028 FB68     		ldr	r3, [r7, #12]
 434 002a B3F93810 		ldrsh	r1, [r3, #56]
 435 002e FB68     		ldr	r3, [r7, #12]
 436 0030 B3F93A20 		ldrsh	r2, [r3, #58]
 437 0034 0023     		movs	r3, #0
 438 0036 7868     		ldr	r0, [r7, #4]
 439 0038 FFF7FEFF 		bl	lv_tileview_set_tile_act
 170:..\..\..\lvgl\version_6.1.2\lvgl\src\lv_objx/lv_tileview.c **** }
 440              		.loc 3 170 0
 441 003c 00BF     		nop
 442 003e 1037     		adds	r7, r7, #16
 443              		.cfi_def_cfa_offset 8
 444 0040 BD46     		mov	sp, r7
 445              		.cfi_def_cfa_register 13
 446              		@ sp needed
 447 0042 80BD     		pop	{r7, pc}
 448              		.cfi_endproc
 449              	.LFE53:
 450              		.size	lv_tileview_add_element, .-lv_tileview_add_element
 451              		.section	.text.lv_tileview_set_valid_positions,"ax",%progbits
 452              		.align	2
 453              		.global	lv_tileview_set_valid_positions
 454              		.thumb
 455              		.thumb_func
 456              		.type	lv_tileview_set_valid_positions, %function
 457              	lv_tileview_set_valid_positions:
 458              	.LFB54:
 171:..\..\..\lvgl\version_6.1.2\lvgl\src\lv_objx/lv_tileview.c **** 
 172:..\..\..\lvgl\version_6.1.2\lvgl\src\lv_objx/lv_tileview.c **** /*=====================
 173:..\..\..\lvgl\version_6.1.2\lvgl\src\lv_objx/lv_tileview.c ****  * Setter functions
 174:..\..\..\lvgl\version_6.1.2\lvgl\src\lv_objx/lv_tileview.c ****  *====================*/
ARM GAS  C:\Users\tmj32\AppData\Local\Temp\cctNeIsL.s 			page 18


 175:..\..\..\lvgl\version_6.1.2\lvgl\src\lv_objx/lv_tileview.c **** 
 176:..\..\..\lvgl\version_6.1.2\lvgl\src\lv_objx/lv_tileview.c **** /**
 177:..\..\..\lvgl\version_6.1.2\lvgl\src\lv_objx/lv_tileview.c ****  * Set the valid position's indices. The scrolling will be possible only to these positions.
 178:..\..\..\lvgl\version_6.1.2\lvgl\src\lv_objx/lv_tileview.c ****  * @param tileview pointer to a Tileview object
 179:..\..\..\lvgl\version_6.1.2\lvgl\src\lv_objx/lv_tileview.c ****  * @param valid_pos array width the indices. E.g. `lv_point_t p[] = {{0,0}, {1,0}, {1,1}`.
 180:..\..\..\lvgl\version_6.1.2\lvgl\src\lv_objx/lv_tileview.c ****  * Only the pointer is saved so can't be a local variable.
 181:..\..\..\lvgl\version_6.1.2\lvgl\src\lv_objx/lv_tileview.c ****  * @param valid_pos_cnt numner of elements in `valid_pos` array
 182:..\..\..\lvgl\version_6.1.2\lvgl\src\lv_objx/lv_tileview.c ****  */
 183:..\..\..\lvgl\version_6.1.2\lvgl\src\lv_objx/lv_tileview.c **** void lv_tileview_set_valid_positions(lv_obj_t * tileview, const lv_point_t valid_pos[], uint16_t va
 184:..\..\..\lvgl\version_6.1.2\lvgl\src\lv_objx/lv_tileview.c **** {
 459              		.loc 3 184 0
 460              		.cfi_startproc
 461              		@ args = 0, pretend = 0, frame = 24
 462              		@ frame_needed = 1, uses_anonymous_args = 0
 463 0000 80B5     		push	{r7, lr}
 464              		.cfi_def_cfa_offset 8
 465              		.cfi_offset 7, -8
 466              		.cfi_offset 14, -4
 467 0002 86B0     		sub	sp, sp, #24
 468              		.cfi_def_cfa_offset 32
 469 0004 00AF     		add	r7, sp, #0
 470              		.cfi_def_cfa_register 7
 471 0006 F860     		str	r0, [r7, #12]
 472 0008 B960     		str	r1, [r7, #8]
 473 000a 1346     		mov	r3, r2
 474 000c FB80     		strh	r3, [r7, #6]	@ movhi
 185:..\..\..\lvgl\version_6.1.2\lvgl\src\lv_objx/lv_tileview.c ****     LV_ASSERT_OBJ(tileview, LV_OBJX_NAME);
 186:..\..\..\lvgl\version_6.1.2\lvgl\src\lv_objx/lv_tileview.c ****     LV_ASSERT_NULL(valid_pos);
 187:..\..\..\lvgl\version_6.1.2\lvgl\src\lv_objx/lv_tileview.c **** 
 188:..\..\..\lvgl\version_6.1.2\lvgl\src\lv_objx/lv_tileview.c ****     lv_tileview_ext_t * ext = lv_obj_get_ext_attr(tileview);
 475              		.loc 3 188 0
 476 000e F868     		ldr	r0, [r7, #12]
 477 0010 FFF7FEFF 		bl	lv_obj_get_ext_attr
 478 0014 3861     		str	r0, [r7, #16]
 189:..\..\..\lvgl\version_6.1.2\lvgl\src\lv_objx/lv_tileview.c ****     ext->valid_pos          = valid_pos;
 479              		.loc 3 189 0
 480 0016 3B69     		ldr	r3, [r7, #16]
 481 0018 BA68     		ldr	r2, [r7, #8]
 482 001a 1A63     		str	r2, [r3, #48]
 190:..\..\..\lvgl\version_6.1.2\lvgl\src\lv_objx/lv_tileview.c ****     ext->valid_pos_cnt      = valid_pos_cnt;
 483              		.loc 3 190 0
 484 001c 3B69     		ldr	r3, [r7, #16]
 485 001e FA88     		ldrh	r2, [r7, #6]	@ movhi
 486 0020 9A86     		strh	r2, [r3, #52]	@ movhi
 191:..\..\..\lvgl\version_6.1.2\lvgl\src\lv_objx/lv_tileview.c **** 
 192:..\..\..\lvgl\version_6.1.2\lvgl\src\lv_objx/lv_tileview.c ****     /*If valid pos. is selected do nothing*/
 193:..\..\..\lvgl\version_6.1.2\lvgl\src\lv_objx/lv_tileview.c ****     uint16_t i;
 194:..\..\..\lvgl\version_6.1.2\lvgl\src\lv_objx/lv_tileview.c ****     for(i = 0; i < valid_pos_cnt; i++) {
 487              		.loc 3 194 0
 488 0022 0023     		movs	r3, #0
 489 0024 FB82     		strh	r3, [r7, #22]	@ movhi
 490 0026 18E0     		b	.L20
 491              	.L23:
 195:..\..\..\lvgl\version_6.1.2\lvgl\src\lv_objx/lv_tileview.c ****         if(valid_pos[i].x == ext->act_id.x && valid_pos[i].y == ext->act_id.y) {
 492              		.loc 3 195 0
 493 0028 FB8A     		ldrh	r3, [r7, #22]
 494 002a 9B00     		lsls	r3, r3, #2
ARM GAS  C:\Users\tmj32\AppData\Local\Temp\cctNeIsL.s 			page 19


 495 002c BA68     		ldr	r2, [r7, #8]
 496 002e 1344     		add	r3, r3, r2
 497 0030 B3F90020 		ldrsh	r2, [r3]
 498 0034 3B69     		ldr	r3, [r7, #16]
 499 0036 B3F93830 		ldrsh	r3, [r3, #56]
 500 003a 9A42     		cmp	r2, r3
 501 003c 0AD1     		bne	.L21
 502              		.loc 3 195 0 is_stmt 0 discriminator 1
 503 003e FB8A     		ldrh	r3, [r7, #22]
 504 0040 9B00     		lsls	r3, r3, #2
 505 0042 BA68     		ldr	r2, [r7, #8]
 506 0044 1344     		add	r3, r3, r2
 507 0046 B3F90220 		ldrsh	r2, [r3, #2]
 508 004a 3B69     		ldr	r3, [r7, #16]
 509 004c B3F93A30 		ldrsh	r3, [r3, #58]
 510 0050 9A42     		cmp	r2, r3
 511 0052 14D0     		beq	.L24
 512              	.L21:
 194:..\..\..\lvgl\version_6.1.2\lvgl\src\lv_objx/lv_tileview.c ****         if(valid_pos[i].x == ext->act_id.x && valid_pos[i].y == ext->act_id.y) {
 513              		.loc 3 194 0 is_stmt 1 discriminator 2
 514 0054 FB8A     		ldrh	r3, [r7, #22]
 515 0056 0133     		adds	r3, r3, #1
 516 0058 FB82     		strh	r3, [r7, #22]	@ movhi
 517              	.L20:
 194:..\..\..\lvgl\version_6.1.2\lvgl\src\lv_objx/lv_tileview.c ****         if(valid_pos[i].x == ext->act_id.x && valid_pos[i].y == ext->act_id.y) {
 518              		.loc 3 194 0 is_stmt 0 discriminator 1
 519 005a FA8A     		ldrh	r2, [r7, #22]
 520 005c FB88     		ldrh	r3, [r7, #6]
 521 005e 9A42     		cmp	r2, r3
 522 0060 E2D3     		bcc	.L23
 196:..\..\..\lvgl\version_6.1.2\lvgl\src\lv_objx/lv_tileview.c ****             return;
 197:..\..\..\lvgl\version_6.1.2\lvgl\src\lv_objx/lv_tileview.c ****         }
 198:..\..\..\lvgl\version_6.1.2\lvgl\src\lv_objx/lv_tileview.c ****     }
 199:..\..\..\lvgl\version_6.1.2\lvgl\src\lv_objx/lv_tileview.c **** 
 200:..\..\..\lvgl\version_6.1.2\lvgl\src\lv_objx/lv_tileview.c ****     /*Set a valid position if now an invalid is selected*/
 201:..\..\..\lvgl\version_6.1.2\lvgl\src\lv_objx/lv_tileview.c ****     if(valid_pos_cnt > 0) {
 523              		.loc 3 201 0 is_stmt 1
 524 0062 FB88     		ldrh	r3, [r7, #6]
 525 0064 002B     		cmp	r3, #0
 526 0066 0BD0     		beq	.L19
 202:..\..\..\lvgl\version_6.1.2\lvgl\src\lv_objx/lv_tileview.c ****         lv_tileview_set_tile_act(tileview, valid_pos[0].x, valid_pos[0].y, LV_ANIM_OFF);
 527              		.loc 3 202 0
 528 0068 BB68     		ldr	r3, [r7, #8]
 529 006a B3F90010 		ldrsh	r1, [r3]
 530 006e BB68     		ldr	r3, [r7, #8]
 531 0070 B3F90220 		ldrsh	r2, [r3, #2]
 532 0074 0023     		movs	r3, #0
 533 0076 F868     		ldr	r0, [r7, #12]
 534 0078 FFF7FEFF 		bl	lv_tileview_set_tile_act
 535 007c 00E0     		b	.L19
 536              	.L24:
 196:..\..\..\lvgl\version_6.1.2\lvgl\src\lv_objx/lv_tileview.c ****             return;
 537              		.loc 3 196 0
 538 007e 00BF     		nop
 539              	.L19:
 203:..\..\..\lvgl\version_6.1.2\lvgl\src\lv_objx/lv_tileview.c ****     }
 204:..\..\..\lvgl\version_6.1.2\lvgl\src\lv_objx/lv_tileview.c **** }
ARM GAS  C:\Users\tmj32\AppData\Local\Temp\cctNeIsL.s 			page 20


 540              		.loc 3 204 0
 541 0080 1837     		adds	r7, r7, #24
 542              		.cfi_def_cfa_offset 8
 543 0082 BD46     		mov	sp, r7
 544              		.cfi_def_cfa_register 13
 545              		@ sp needed
 546 0084 80BD     		pop	{r7, pc}
 547              		.cfi_endproc
 548              	.LFE54:
 549              		.size	lv_tileview_set_valid_positions, .-lv_tileview_set_valid_positions
 550 0086 00BF     		.section	.text.lv_tileview_set_tile_act,"ax",%progbits
 551              		.align	2
 552              		.global	lv_tileview_set_tile_act
 553              		.thumb
 554              		.thumb_func
 555              		.type	lv_tileview_set_tile_act, %function
 556              	lv_tileview_set_tile_act:
 557              	.LFB55:
 205:..\..\..\lvgl\version_6.1.2\lvgl\src\lv_objx/lv_tileview.c **** 
 206:..\..\..\lvgl\version_6.1.2\lvgl\src\lv_objx/lv_tileview.c **** /**
 207:..\..\..\lvgl\version_6.1.2\lvgl\src\lv_objx/lv_tileview.c ****  * Set the tile to be shown
 208:..\..\..\lvgl\version_6.1.2\lvgl\src\lv_objx/lv_tileview.c ****  * @param tileview pointer to a tileview object
 209:..\..\..\lvgl\version_6.1.2\lvgl\src\lv_objx/lv_tileview.c ****  * @param x column id (0, 1, 2...)
 210:..\..\..\lvgl\version_6.1.2\lvgl\src\lv_objx/lv_tileview.c ****  * @param y line id (0, 1, 2...)
 211:..\..\..\lvgl\version_6.1.2\lvgl\src\lv_objx/lv_tileview.c ****  * @param anim LV_ANIM_ON: set the value with an animation; LV_ANIM_OFF: change the value immediate
 212:..\..\..\lvgl\version_6.1.2\lvgl\src\lv_objx/lv_tileview.c ****  */
 213:..\..\..\lvgl\version_6.1.2\lvgl\src\lv_objx/lv_tileview.c **** void lv_tileview_set_tile_act(lv_obj_t * tileview, lv_coord_t x, lv_coord_t y, lv_anim_enable_t ani
 214:..\..\..\lvgl\version_6.1.2\lvgl\src\lv_objx/lv_tileview.c **** {
 558              		.loc 3 214 0
 559              		.cfi_startproc
 560              		@ args = 0, pretend = 0, frame = 80
 561              		@ frame_needed = 1, uses_anonymous_args = 0
 562 0000 90B5     		push	{r4, r7, lr}
 563              		.cfi_def_cfa_offset 12
 564              		.cfi_offset 4, -12
 565              		.cfi_offset 7, -8
 566              		.cfi_offset 14, -4
 567 0002 95B0     		sub	sp, sp, #84
 568              		.cfi_def_cfa_offset 96
 569 0004 00AF     		add	r7, sp, #0
 570              		.cfi_def_cfa_register 7
 571 0006 F860     		str	r0, [r7, #12]
 572 0008 0846     		mov	r0, r1
 573 000a 1146     		mov	r1, r2
 574 000c 1A46     		mov	r2, r3
 575 000e 0346     		mov	r3, r0	@ movhi
 576 0010 7B81     		strh	r3, [r7, #10]	@ movhi
 577 0012 0B46     		mov	r3, r1	@ movhi
 578 0014 3B81     		strh	r3, [r7, #8]	@ movhi
 579 0016 1346     		mov	r3, r2
 580 0018 FB71     		strb	r3, [r7, #7]
 215:..\..\..\lvgl\version_6.1.2\lvgl\src\lv_objx/lv_tileview.c ****     LV_ASSERT_OBJ(tileview, LV_OBJX_NAME);
 216:..\..\..\lvgl\version_6.1.2\lvgl\src\lv_objx/lv_tileview.c **** 
 217:..\..\..\lvgl\version_6.1.2\lvgl\src\lv_objx/lv_tileview.c **** #if LV_USE_ANIMATION == 0
 218:..\..\..\lvgl\version_6.1.2\lvgl\src\lv_objx/lv_tileview.c ****     anim = LV_ANIM_OFF;
 219:..\..\..\lvgl\version_6.1.2\lvgl\src\lv_objx/lv_tileview.c **** #endif
 220:..\..\..\lvgl\version_6.1.2\lvgl\src\lv_objx/lv_tileview.c **** 
ARM GAS  C:\Users\tmj32\AppData\Local\Temp\cctNeIsL.s 			page 21


 221:..\..\..\lvgl\version_6.1.2\lvgl\src\lv_objx/lv_tileview.c ****     lv_tileview_ext_t * ext = lv_obj_get_ext_attr(tileview);
 581              		.loc 3 221 0
 582 001a F868     		ldr	r0, [r7, #12]
 583 001c FFF7FEFF 		bl	lv_obj_get_ext_attr
 584 0020 B864     		str	r0, [r7, #72]
 222:..\..\..\lvgl\version_6.1.2\lvgl\src\lv_objx/lv_tileview.c **** 
 223:..\..\..\lvgl\version_6.1.2\lvgl\src\lv_objx/lv_tileview.c ****     uint32_t tile_id;
 224:..\..\..\lvgl\version_6.1.2\lvgl\src\lv_objx/lv_tileview.c ****     bool valid = false;
 585              		.loc 3 224 0
 586 0022 0023     		movs	r3, #0
 587 0024 87F84F30 		strb	r3, [r7, #79]
 225:..\..\..\lvgl\version_6.1.2\lvgl\src\lv_objx/lv_tileview.c ****     for(tile_id = 0; tile_id < ext->valid_pos_cnt; tile_id++) {
 588              		.loc 3 225 0
 589 0028 0023     		movs	r3, #0
 590 002a 7B63     		str	r3, [r7, #52]
 591 002c 1CE0     		b	.L26
 592              	.L29:
 226:..\..\..\lvgl\version_6.1.2\lvgl\src\lv_objx/lv_tileview.c ****         if(ext->valid_pos[tile_id].x == x && ext->valid_pos[tile_id].y == y) {
 593              		.loc 3 226 0
 594 002e BB6C     		ldr	r3, [r7, #72]
 595 0030 1A6B     		ldr	r2, [r3, #48]
 596 0032 7B6B     		ldr	r3, [r7, #52]
 597 0034 9B00     		lsls	r3, r3, #2
 598 0036 1344     		add	r3, r3, r2
 599 0038 B3F90030 		ldrsh	r3, [r3]
 600 003c B7F90A20 		ldrsh	r2, [r7, #10]
 601 0040 9A42     		cmp	r2, r3
 602 0042 0ED1     		bne	.L27
 603              		.loc 3 226 0 is_stmt 0 discriminator 1
 604 0044 BB6C     		ldr	r3, [r7, #72]
 605 0046 1A6B     		ldr	r2, [r3, #48]
 606 0048 7B6B     		ldr	r3, [r7, #52]
 607 004a 9B00     		lsls	r3, r3, #2
 608 004c 1344     		add	r3, r3, r2
 609 004e B3F90230 		ldrsh	r3, [r3, #2]
 610 0052 B7F90820 		ldrsh	r2, [r7, #8]
 611 0056 9A42     		cmp	r2, r3
 612 0058 03D1     		bne	.L27
 227:..\..\..\lvgl\version_6.1.2\lvgl\src\lv_objx/lv_tileview.c ****             valid = true;
 613              		.loc 3 227 0 is_stmt 1
 614 005a 0123     		movs	r3, #1
 615 005c 87F84F30 		strb	r3, [r7, #79]
 228:..\..\..\lvgl\version_6.1.2\lvgl\src\lv_objx/lv_tileview.c ****             break;
 616              		.loc 3 228 0
 617 0060 08E0     		b	.L28
 618              	.L27:
 225:..\..\..\lvgl\version_6.1.2\lvgl\src\lv_objx/lv_tileview.c ****         if(ext->valid_pos[tile_id].x == x && ext->valid_pos[tile_id].y == y) {
 619              		.loc 3 225 0 discriminator 2
 620 0062 7B6B     		ldr	r3, [r7, #52]
 621 0064 0133     		adds	r3, r3, #1
 622 0066 7B63     		str	r3, [r7, #52]
 623              	.L26:
 225:..\..\..\lvgl\version_6.1.2\lvgl\src\lv_objx/lv_tileview.c ****         if(ext->valid_pos[tile_id].x == x && ext->valid_pos[tile_id].y == y) {
 624              		.loc 3 225 0 is_stmt 0 discriminator 1
 625 0068 BB6C     		ldr	r3, [r7, #72]
 626 006a 9B8E     		ldrh	r3, [r3, #52]
 627 006c 1A46     		mov	r2, r3
ARM GAS  C:\Users\tmj32\AppData\Local\Temp\cctNeIsL.s 			page 22


 628 006e 7B6B     		ldr	r3, [r7, #52]
 629 0070 9A42     		cmp	r2, r3
 630 0072 DCD8     		bhi	.L29
 631              	.L28:
 229:..\..\..\lvgl\version_6.1.2\lvgl\src\lv_objx/lv_tileview.c ****         }
 230:..\..\..\lvgl\version_6.1.2\lvgl\src\lv_objx/lv_tileview.c ****     }
 231:..\..\..\lvgl\version_6.1.2\lvgl\src\lv_objx/lv_tileview.c **** 
 232:..\..\..\lvgl\version_6.1.2\lvgl\src\lv_objx/lv_tileview.c ****     if(valid == false) return; /*Don't load not valid tiles*/
 632              		.loc 3 232 0 is_stmt 1
 633 0074 97F84F30 		ldrb	r3, [r7, #79]
 634 0078 83F00103 		eor	r3, r3, #1
 635 007c DBB2     		uxtb	r3, r3
 636 007e 002B     		cmp	r3, #0
 637 0080 40F08E80 		bne	.L38
 233:..\..\..\lvgl\version_6.1.2\lvgl\src\lv_objx/lv_tileview.c **** 
 234:..\..\..\lvgl\version_6.1.2\lvgl\src\lv_objx/lv_tileview.c ****     ext->act_id.x = x;
 638              		.loc 3 234 0
 639 0084 BB6C     		ldr	r3, [r7, #72]
 640 0086 7A89     		ldrh	r2, [r7, #10]	@ movhi
 641 0088 1A87     		strh	r2, [r3, #56]	@ movhi
 235:..\..\..\lvgl\version_6.1.2\lvgl\src\lv_objx/lv_tileview.c ****     ext->act_id.y = y;
 642              		.loc 3 235 0
 643 008a BB6C     		ldr	r3, [r7, #72]
 644 008c 3A89     		ldrh	r2, [r7, #8]	@ movhi
 645 008e 5A87     		strh	r2, [r3, #58]	@ movhi
 236:..\..\..\lvgl\version_6.1.2\lvgl\src\lv_objx/lv_tileview.c **** 
 237:..\..\..\lvgl\version_6.1.2\lvgl\src\lv_objx/lv_tileview.c ****     lv_coord_t x_coord = -x * lv_obj_get_width(tileview);
 646              		.loc 3 237 0
 647 0090 B7F90A30 		ldrsh	r3, [r7, #10]
 648 0094 5B42     		negs	r3, r3
 649 0096 9CB2     		uxth	r4, r3
 650 0098 F868     		ldr	r0, [r7, #12]
 651 009a FFF7FEFF 		bl	lv_obj_get_width
 652 009e 0346     		mov	r3, r0
 653 00a0 9BB2     		uxth	r3, r3
 654 00a2 14FB03F3 		smulbb	r3, r4, r3
 655 00a6 9BB2     		uxth	r3, r3
 656 00a8 A7F84630 		strh	r3, [r7, #70]	@ movhi
 238:..\..\..\lvgl\version_6.1.2\lvgl\src\lv_objx/lv_tileview.c ****     lv_coord_t y_coord = -y * lv_obj_get_height(tileview);
 657              		.loc 3 238 0
 658 00ac B7F90830 		ldrsh	r3, [r7, #8]
 659 00b0 5B42     		negs	r3, r3
 660 00b2 9CB2     		uxth	r4, r3
 661 00b4 F868     		ldr	r0, [r7, #12]
 662 00b6 FFF7FEFF 		bl	lv_obj_get_height
 663 00ba 0346     		mov	r3, r0
 664 00bc 9BB2     		uxth	r3, r3
 665 00be 14FB03F3 		smulbb	r3, r4, r3
 666 00c2 9BB2     		uxth	r3, r3
 667 00c4 A7F84430 		strh	r3, [r7, #68]	@ movhi
 239:..\..\..\lvgl\version_6.1.2\lvgl\src\lv_objx/lv_tileview.c ****     lv_obj_t * scrl    = lv_page_get_scrl(tileview);
 668              		.loc 3 239 0
 669 00c8 F868     		ldr	r0, [r7, #12]
 670 00ca FFF7FEFF 		bl	lv_page_get_scrl
 671 00ce 3864     		str	r0, [r7, #64]
 240:..\..\..\lvgl\version_6.1.2\lvgl\src\lv_objx/lv_tileview.c ****     if(anim) {
 672              		.loc 3 240 0
ARM GAS  C:\Users\tmj32\AppData\Local\Temp\cctNeIsL.s 			page 23


 673 00d0 FB79     		ldrb	r3, [r7, #7]	@ zero_extendqisi2
 674 00d2 002B     		cmp	r3, #0
 675 00d4 4BD0     		beq	.L32
 676              	.LBB4:
 241:..\..\..\lvgl\version_6.1.2\lvgl\src\lv_objx/lv_tileview.c **** #if LV_USE_ANIMATION
 242:..\..\..\lvgl\version_6.1.2\lvgl\src\lv_objx/lv_tileview.c ****         lv_coord_t x_act = lv_obj_get_x(scrl);
 677              		.loc 3 242 0
 678 00d6 386C     		ldr	r0, [r7, #64]
 679 00d8 FFF7FEFF 		bl	lv_obj_get_x
 680 00dc 0346     		mov	r3, r0
 681 00de FB87     		strh	r3, [r7, #62]	@ movhi
 243:..\..\..\lvgl\version_6.1.2\lvgl\src\lv_objx/lv_tileview.c ****         lv_coord_t y_act = lv_obj_get_y(scrl);
 682              		.loc 3 243 0
 683 00e0 386C     		ldr	r0, [r7, #64]
 684 00e2 FFF7FEFF 		bl	lv_obj_get_y
 685 00e6 0346     		mov	r3, r0
 686 00e8 BB87     		strh	r3, [r7, #60]	@ movhi
 244:..\..\..\lvgl\version_6.1.2\lvgl\src\lv_objx/lv_tileview.c **** 
 245:..\..\..\lvgl\version_6.1.2\lvgl\src\lv_objx/lv_tileview.c ****         lv_anim_t a;
 246:..\..\..\lvgl\version_6.1.2\lvgl\src\lv_objx/lv_tileview.c ****         a.var            = scrl;
 687              		.loc 3 246 0
 688 00ea 3B6C     		ldr	r3, [r7, #64]
 689 00ec 3B61     		str	r3, [r7, #16]
 247:..\..\..\lvgl\version_6.1.2\lvgl\src\lv_objx/lv_tileview.c ****         a.exec_cb        = (lv_anim_exec_xcb_t)lv_obj_set_x;
 690              		.loc 3 247 0
 691 00ee 2E4B     		ldr	r3, .L39
 692 00f0 7B61     		str	r3, [r7, #20]
 248:..\..\..\lvgl\version_6.1.2\lvgl\src\lv_objx/lv_tileview.c ****         a.path_cb        = lv_anim_path_linear;
 693              		.loc 3 248 0
 694 00f2 2E4B     		ldr	r3, .L39+4
 695 00f4 BB61     		str	r3, [r7, #24]
 249:..\..\..\lvgl\version_6.1.2\lvgl\src\lv_objx/lv_tileview.c ****         a.ready_cb       = NULL;
 696              		.loc 3 249 0
 697 00f6 0023     		movs	r3, #0
 698 00f8 FB61     		str	r3, [r7, #28]
 250:..\..\..\lvgl\version_6.1.2\lvgl\src\lv_objx/lv_tileview.c ****         a.act_time       = 0;
 699              		.loc 3 250 0
 700 00fa 0023     		movs	r3, #0
 701 00fc 7B85     		strh	r3, [r7, #42]	@ movhi
 251:..\..\..\lvgl\version_6.1.2\lvgl\src\lv_objx/lv_tileview.c ****         a.time           = ext->anim_time;
 702              		.loc 3 251 0
 703 00fe BB6C     		ldr	r3, [r7, #72]
 704 0100 DB8E     		ldrh	r3, [r3, #54]
 705 0102 3B85     		strh	r3, [r7, #40]	@ movhi
 252:..\..\..\lvgl\version_6.1.2\lvgl\src\lv_objx/lv_tileview.c ****         a.playback       = 0;
 706              		.loc 3 252 0
 707 0104 97F83030 		ldrb	r3, [r7, #48]
 708 0108 6FF30003 		bfc	r3, #0, #1
 709 010c 87F83030 		strb	r3, [r7, #48]
 253:..\..\..\lvgl\version_6.1.2\lvgl\src\lv_objx/lv_tileview.c ****         a.playback_pause = 0;
 710              		.loc 3 253 0
 711 0110 0023     		movs	r3, #0
 712 0112 BB85     		strh	r3, [r7, #44]	@ movhi
 254:..\..\..\lvgl\version_6.1.2\lvgl\src\lv_objx/lv_tileview.c ****         a.repeat         = 0;
 713              		.loc 3 254 0
 714 0114 97F83030 		ldrb	r3, [r7, #48]
 715 0118 6FF34103 		bfc	r3, #1, #1
ARM GAS  C:\Users\tmj32\AppData\Local\Temp\cctNeIsL.s 			page 24


 716 011c 87F83030 		strb	r3, [r7, #48]
 255:..\..\..\lvgl\version_6.1.2\lvgl\src\lv_objx/lv_tileview.c ****         a.repeat_pause   = 0;
 717              		.loc 3 255 0
 718 0120 0023     		movs	r3, #0
 719 0122 FB85     		strh	r3, [r7, #46]	@ movhi
 256:..\..\..\lvgl\version_6.1.2\lvgl\src\lv_objx/lv_tileview.c **** 
 257:..\..\..\lvgl\version_6.1.2\lvgl\src\lv_objx/lv_tileview.c ****         if(x_coord != x_act) {
 720              		.loc 3 257 0
 721 0124 B7F94620 		ldrsh	r2, [r7, #70]
 722 0128 B7F93E30 		ldrsh	r3, [r7, #62]
 723 012c 9A42     		cmp	r2, r3
 724 012e 0AD0     		beq	.L33
 258:..\..\..\lvgl\version_6.1.2\lvgl\src\lv_objx/lv_tileview.c ****             a.start = x_act;
 725              		.loc 3 258 0
 726 0130 B7F93E30 		ldrsh	r3, [r7, #62]
 727 0134 3B62     		str	r3, [r7, #32]
 259:..\..\..\lvgl\version_6.1.2\lvgl\src\lv_objx/lv_tileview.c ****             a.end   = x_coord;
 728              		.loc 3 259 0
 729 0136 B7F94630 		ldrsh	r3, [r7, #70]
 730 013a 7B62     		str	r3, [r7, #36]
 260:..\..\..\lvgl\version_6.1.2\lvgl\src\lv_objx/lv_tileview.c ****             lv_anim_create(&a);
 731              		.loc 3 260 0
 732 013c 07F11003 		add	r3, r7, #16
 733 0140 1846     		mov	r0, r3
 734 0142 FFF7FEFF 		bl	lv_anim_create
 735              	.L33:
 261:..\..\..\lvgl\version_6.1.2\lvgl\src\lv_objx/lv_tileview.c ****         }
 262:..\..\..\lvgl\version_6.1.2\lvgl\src\lv_objx/lv_tileview.c **** 
 263:..\..\..\lvgl\version_6.1.2\lvgl\src\lv_objx/lv_tileview.c ****         if(y_coord != y_act) {
 736              		.loc 3 263 0
 737 0146 B7F94420 		ldrsh	r2, [r7, #68]
 738 014a B7F93C30 		ldrsh	r3, [r7, #60]
 739 014e 9A42     		cmp	r2, r3
 740 0150 15D0     		beq	.L35
 264:..\..\..\lvgl\version_6.1.2\lvgl\src\lv_objx/lv_tileview.c ****             a.start   = y_act;
 741              		.loc 3 264 0
 742 0152 B7F93C30 		ldrsh	r3, [r7, #60]
 743 0156 3B62     		str	r3, [r7, #32]
 265:..\..\..\lvgl\version_6.1.2\lvgl\src\lv_objx/lv_tileview.c ****             a.end     = y_coord;
 744              		.loc 3 265 0
 745 0158 B7F94430 		ldrsh	r3, [r7, #68]
 746 015c 7B62     		str	r3, [r7, #36]
 266:..\..\..\lvgl\version_6.1.2\lvgl\src\lv_objx/lv_tileview.c ****             a.exec_cb = (lv_anim_exec_xcb_t)lv_obj_set_y;
 747              		.loc 3 266 0
 748 015e 144B     		ldr	r3, .L39+8
 749 0160 7B61     		str	r3, [r7, #20]
 267:..\..\..\lvgl\version_6.1.2\lvgl\src\lv_objx/lv_tileview.c ****             lv_anim_create(&a);
 750              		.loc 3 267 0
 751 0162 07F11003 		add	r3, r7, #16
 752 0166 1846     		mov	r0, r3
 753 0168 FFF7FEFF 		bl	lv_anim_create
 754 016c 07E0     		b	.L35
 755              	.L32:
 756              	.LBE4:
 268:..\..\..\lvgl\version_6.1.2\lvgl\src\lv_objx/lv_tileview.c ****         }
 269:..\..\..\lvgl\version_6.1.2\lvgl\src\lv_objx/lv_tileview.c **** #endif
 270:..\..\..\lvgl\version_6.1.2\lvgl\src\lv_objx/lv_tileview.c ****     } else {
ARM GAS  C:\Users\tmj32\AppData\Local\Temp\cctNeIsL.s 			page 25


 271:..\..\..\lvgl\version_6.1.2\lvgl\src\lv_objx/lv_tileview.c ****         lv_obj_set_pos(scrl, x_coord, y_coord);
 757              		.loc 3 271 0
 758 016e B7F94420 		ldrsh	r2, [r7, #68]
 759 0172 B7F94630 		ldrsh	r3, [r7, #70]
 760 0176 1946     		mov	r1, r3
 761 0178 386C     		ldr	r0, [r7, #64]
 762 017a FFF7FEFF 		bl	lv_obj_set_pos
 763              	.L35:
 272:..\..\..\lvgl\version_6.1.2\lvgl\src\lv_objx/lv_tileview.c ****     }
 273:..\..\..\lvgl\version_6.1.2\lvgl\src\lv_objx/lv_tileview.c **** 
 274:..\..\..\lvgl\version_6.1.2\lvgl\src\lv_objx/lv_tileview.c ****     lv_res_t res = LV_RES_OK;
 764              		.loc 3 274 0
 765 017e 0123     		movs	r3, #1
 766 0180 87F83B30 		strb	r3, [r7, #59]
 275:..\..\..\lvgl\version_6.1.2\lvgl\src\lv_objx/lv_tileview.c ****     res          = lv_event_send(tileview, LV_EVENT_VALUE_CHANGED, &tile_id);
 767              		.loc 3 275 0
 768 0184 07F13403 		add	r3, r7, #52
 769 0188 1A46     		mov	r2, r3
 770 018a 0E21     		movs	r1, #14
 771 018c F868     		ldr	r0, [r7, #12]
 772 018e FFF7FEFF 		bl	lv_event_send
 773 0192 0346     		mov	r3, r0
 774 0194 87F83B30 		strb	r3, [r7, #59]
 276:..\..\..\lvgl\version_6.1.2\lvgl\src\lv_objx/lv_tileview.c ****     if(res != LV_RES_OK) return; /*Prevent the tile loading*/
 775              		.loc 3 276 0
 776 0198 97F83B30 		ldrb	r3, [r7, #59]	@ zero_extendqisi2
 777 019c 012B     		cmp	r3, #1
 778 019e 00E0     		b	.L25
 779              	.L38:
 232:..\..\..\lvgl\version_6.1.2\lvgl\src\lv_objx/lv_tileview.c **** 
 780              		.loc 3 232 0
 781 01a0 00BF     		nop
 782              	.L25:
 277:..\..\..\lvgl\version_6.1.2\lvgl\src\lv_objx/lv_tileview.c **** }
 783              		.loc 3 277 0
 784 01a2 5437     		adds	r7, r7, #84
 785              		.cfi_def_cfa_offset 12
 786 01a4 BD46     		mov	sp, r7
 787              		.cfi_def_cfa_register 13
 788              		@ sp needed
 789 01a6 90BD     		pop	{r4, r7, pc}
 790              	.L40:
 791              		.align	2
 792              	.L39:
 793 01a8 00000000 		.word	lv_obj_set_x
 794 01ac 00000000 		.word	lv_anim_path_linear
 795 01b0 00000000 		.word	lv_obj_set_y
 796              		.cfi_endproc
 797              	.LFE55:
 798              		.size	lv_tileview_set_tile_act, .-lv_tileview_set_tile_act
 799              		.section	.text.lv_tileview_set_style,"ax",%progbits
 800              		.align	2
 801              		.global	lv_tileview_set_style
 802              		.thumb
 803              		.thumb_func
 804              		.type	lv_tileview_set_style, %function
 805              	lv_tileview_set_style:
ARM GAS  C:\Users\tmj32\AppData\Local\Temp\cctNeIsL.s 			page 26


 806              	.LFB56:
 278:..\..\..\lvgl\version_6.1.2\lvgl\src\lv_objx/lv_tileview.c **** 
 279:..\..\..\lvgl\version_6.1.2\lvgl\src\lv_objx/lv_tileview.c **** /**
 280:..\..\..\lvgl\version_6.1.2\lvgl\src\lv_objx/lv_tileview.c ****  * Set a style of a tileview.
 281:..\..\..\lvgl\version_6.1.2\lvgl\src\lv_objx/lv_tileview.c ****  * @param tileview pointer to tileview object
 282:..\..\..\lvgl\version_6.1.2\lvgl\src\lv_objx/lv_tileview.c ****  * @param type which style should be set
 283:..\..\..\lvgl\version_6.1.2\lvgl\src\lv_objx/lv_tileview.c ****  * @param style pointer to a style
 284:..\..\..\lvgl\version_6.1.2\lvgl\src\lv_objx/lv_tileview.c ****  */
 285:..\..\..\lvgl\version_6.1.2\lvgl\src\lv_objx/lv_tileview.c **** void lv_tileview_set_style(lv_obj_t * tileview, lv_tileview_style_t type, const lv_style_t * style)
 286:..\..\..\lvgl\version_6.1.2\lvgl\src\lv_objx/lv_tileview.c **** {
 807              		.loc 3 286 0
 808              		.cfi_startproc
 809              		@ args = 0, pretend = 0, frame = 16
 810              		@ frame_needed = 1, uses_anonymous_args = 0
 811 0000 80B5     		push	{r7, lr}
 812              		.cfi_def_cfa_offset 8
 813              		.cfi_offset 7, -8
 814              		.cfi_offset 14, -4
 815 0002 84B0     		sub	sp, sp, #16
 816              		.cfi_def_cfa_offset 24
 817 0004 00AF     		add	r7, sp, #0
 818              		.cfi_def_cfa_register 7
 819 0006 F860     		str	r0, [r7, #12]
 820 0008 0B46     		mov	r3, r1
 821 000a 7A60     		str	r2, [r7, #4]
 822 000c FB72     		strb	r3, [r7, #11]
 287:..\..\..\lvgl\version_6.1.2\lvgl\src\lv_objx/lv_tileview.c ****     LV_ASSERT_OBJ(tileview, LV_OBJX_NAME);
 288:..\..\..\lvgl\version_6.1.2\lvgl\src\lv_objx/lv_tileview.c **** 
 289:..\..\..\lvgl\version_6.1.2\lvgl\src\lv_objx/lv_tileview.c ****     switch(type) {
 823              		.loc 3 289 0
 824 000e FB7A     		ldrb	r3, [r7, #11]	@ zero_extendqisi2
 825 0010 002B     		cmp	r3, #0
 826 0012 00D0     		beq	.L43
 290:..\..\..\lvgl\version_6.1.2\lvgl\src\lv_objx/lv_tileview.c ****         case LV_TILEVIEW_STYLE_MAIN: lv_obj_set_style(tileview, style); break;
 291:..\..\..\lvgl\version_6.1.2\lvgl\src\lv_objx/lv_tileview.c ****     }
 292:..\..\..\lvgl\version_6.1.2\lvgl\src\lv_objx/lv_tileview.c **** }
 827              		.loc 3 292 0
 828 0014 04E0     		b	.L44
 829              	.L43:
 290:..\..\..\lvgl\version_6.1.2\lvgl\src\lv_objx/lv_tileview.c ****         case LV_TILEVIEW_STYLE_MAIN: lv_obj_set_style(tileview, style); break;
 830              		.loc 3 290 0
 831 0016 7968     		ldr	r1, [r7, #4]
 832 0018 F868     		ldr	r0, [r7, #12]
 833 001a FFF7FEFF 		bl	lv_obj_set_style
 834 001e 00BF     		nop
 835              	.L44:
 836              		.loc 3 292 0
 837 0020 00BF     		nop
 838 0022 1037     		adds	r7, r7, #16
 839              		.cfi_def_cfa_offset 8
 840 0024 BD46     		mov	sp, r7
 841              		.cfi_def_cfa_register 13
 842              		@ sp needed
 843 0026 80BD     		pop	{r7, pc}
 844              		.cfi_endproc
 845              	.LFE56:
 846              		.size	lv_tileview_set_style, .-lv_tileview_set_style
ARM GAS  C:\Users\tmj32\AppData\Local\Temp\cctNeIsL.s 			page 27


 847              		.section	.text.lv_tileview_get_style,"ax",%progbits
 848              		.align	2
 849              		.global	lv_tileview_get_style
 850              		.thumb
 851              		.thumb_func
 852              		.type	lv_tileview_get_style, %function
 853              	lv_tileview_get_style:
 854              	.LFB57:
 293:..\..\..\lvgl\version_6.1.2\lvgl\src\lv_objx/lv_tileview.c **** 
 294:..\..\..\lvgl\version_6.1.2\lvgl\src\lv_objx/lv_tileview.c **** /*=====================
 295:..\..\..\lvgl\version_6.1.2\lvgl\src\lv_objx/lv_tileview.c ****  * Getter functions
 296:..\..\..\lvgl\version_6.1.2\lvgl\src\lv_objx/lv_tileview.c ****  *====================*/
 297:..\..\..\lvgl\version_6.1.2\lvgl\src\lv_objx/lv_tileview.c **** 
 298:..\..\..\lvgl\version_6.1.2\lvgl\src\lv_objx/lv_tileview.c **** /*
 299:..\..\..\lvgl\version_6.1.2\lvgl\src\lv_objx/lv_tileview.c ****  * New object specific "get" functions come here
 300:..\..\..\lvgl\version_6.1.2\lvgl\src\lv_objx/lv_tileview.c ****  */
 301:..\..\..\lvgl\version_6.1.2\lvgl\src\lv_objx/lv_tileview.c **** 
 302:..\..\..\lvgl\version_6.1.2\lvgl\src\lv_objx/lv_tileview.c **** /**
 303:..\..\..\lvgl\version_6.1.2\lvgl\src\lv_objx/lv_tileview.c ****  * Get style of a tileview.
 304:..\..\..\lvgl\version_6.1.2\lvgl\src\lv_objx/lv_tileview.c ****  * @param tileview pointer to tileview object
 305:..\..\..\lvgl\version_6.1.2\lvgl\src\lv_objx/lv_tileview.c ****  * @param type which style should be get
 306:..\..\..\lvgl\version_6.1.2\lvgl\src\lv_objx/lv_tileview.c ****  * @return style pointer to the style
 307:..\..\..\lvgl\version_6.1.2\lvgl\src\lv_objx/lv_tileview.c ****  */
 308:..\..\..\lvgl\version_6.1.2\lvgl\src\lv_objx/lv_tileview.c **** const lv_style_t * lv_tileview_get_style(const lv_obj_t * tileview, lv_tileview_style_t type)
 309:..\..\..\lvgl\version_6.1.2\lvgl\src\lv_objx/lv_tileview.c **** {
 855              		.loc 3 309 0
 856              		.cfi_startproc
 857              		@ args = 0, pretend = 0, frame = 16
 858              		@ frame_needed = 1, uses_anonymous_args = 0
 859 0000 80B5     		push	{r7, lr}
 860              		.cfi_def_cfa_offset 8
 861              		.cfi_offset 7, -8
 862              		.cfi_offset 14, -4
 863 0002 84B0     		sub	sp, sp, #16
 864              		.cfi_def_cfa_offset 24
 865 0004 00AF     		add	r7, sp, #0
 866              		.cfi_def_cfa_register 7
 867 0006 7860     		str	r0, [r7, #4]
 868 0008 0B46     		mov	r3, r1
 869 000a FB70     		strb	r3, [r7, #3]
 310:..\..\..\lvgl\version_6.1.2\lvgl\src\lv_objx/lv_tileview.c ****     LV_ASSERT_OBJ(tileview, LV_OBJX_NAME);
 311:..\..\..\lvgl\version_6.1.2\lvgl\src\lv_objx/lv_tileview.c **** 
 312:..\..\..\lvgl\version_6.1.2\lvgl\src\lv_objx/lv_tileview.c ****     const lv_style_t * style = NULL;
 870              		.loc 3 312 0
 871 000c 0023     		movs	r3, #0
 872 000e FB60     		str	r3, [r7, #12]
 313:..\..\..\lvgl\version_6.1.2\lvgl\src\lv_objx/lv_tileview.c ****     switch(type) {
 873              		.loc 3 313 0
 874 0010 FB78     		ldrb	r3, [r7, #3]	@ zero_extendqisi2
 875 0012 002B     		cmp	r3, #0
 876 0014 04D1     		bne	.L50
 314:..\..\..\lvgl\version_6.1.2\lvgl\src\lv_objx/lv_tileview.c ****         case LV_TILEVIEW_STYLE_MAIN: style = lv_obj_get_style(tileview); break;
 877              		.loc 3 314 0
 878 0016 7868     		ldr	r0, [r7, #4]
 879 0018 FFF7FEFF 		bl	lv_obj_get_style
 880 001c F860     		str	r0, [r7, #12]
 881 001e 01E0     		b	.L48
ARM GAS  C:\Users\tmj32\AppData\Local\Temp\cctNeIsL.s 			page 28


 882              	.L50:
 315:..\..\..\lvgl\version_6.1.2\lvgl\src\lv_objx/lv_tileview.c ****         default: style = NULL;
 883              		.loc 3 315 0
 884 0020 0023     		movs	r3, #0
 885 0022 FB60     		str	r3, [r7, #12]
 886              	.L48:
 316:..\..\..\lvgl\version_6.1.2\lvgl\src\lv_objx/lv_tileview.c ****     }
 317:..\..\..\lvgl\version_6.1.2\lvgl\src\lv_objx/lv_tileview.c **** 
 318:..\..\..\lvgl\version_6.1.2\lvgl\src\lv_objx/lv_tileview.c ****     return style;
 887              		.loc 3 318 0
 888 0024 FB68     		ldr	r3, [r7, #12]
 319:..\..\..\lvgl\version_6.1.2\lvgl\src\lv_objx/lv_tileview.c **** }
 889              		.loc 3 319 0
 890 0026 1846     		mov	r0, r3
 891 0028 1037     		adds	r7, r7, #16
 892              		.cfi_def_cfa_offset 8
 893 002a BD46     		mov	sp, r7
 894              		.cfi_def_cfa_register 13
 895              		@ sp needed
 896 002c 80BD     		pop	{r7, pc}
 897              		.cfi_endproc
 898              	.LFE57:
 899              		.size	lv_tileview_get_style, .-lv_tileview_get_style
 900 002e 00BF     		.section	.rodata
 901              		.align	2
 902              	.LC0:
 903 0000 6C765F74 		.ascii	"lv_tileview\000"
 903      696C6576 
 903      69657700 
 904              		.section	.text.lv_tileview_signal,"ax",%progbits
 905              		.align	2
 906              		.thumb
 907              		.thumb_func
 908              		.type	lv_tileview_signal, %function
 909              	lv_tileview_signal:
 910              	.LFB58:
 320:..\..\..\lvgl\version_6.1.2\lvgl\src\lv_objx/lv_tileview.c **** 
 321:..\..\..\lvgl\version_6.1.2\lvgl\src\lv_objx/lv_tileview.c **** /*=====================
 322:..\..\..\lvgl\version_6.1.2\lvgl\src\lv_objx/lv_tileview.c ****  * Other functions
 323:..\..\..\lvgl\version_6.1.2\lvgl\src\lv_objx/lv_tileview.c ****  *====================*/
 324:..\..\..\lvgl\version_6.1.2\lvgl\src\lv_objx/lv_tileview.c **** 
 325:..\..\..\lvgl\version_6.1.2\lvgl\src\lv_objx/lv_tileview.c **** /*
 326:..\..\..\lvgl\version_6.1.2\lvgl\src\lv_objx/lv_tileview.c ****  * New object specific "other" functions come here
 327:..\..\..\lvgl\version_6.1.2\lvgl\src\lv_objx/lv_tileview.c ****  */
 328:..\..\..\lvgl\version_6.1.2\lvgl\src\lv_objx/lv_tileview.c **** 
 329:..\..\..\lvgl\version_6.1.2\lvgl\src\lv_objx/lv_tileview.c **** /**********************
 330:..\..\..\lvgl\version_6.1.2\lvgl\src\lv_objx/lv_tileview.c ****  *   STATIC FUNCTIONS
 331:..\..\..\lvgl\version_6.1.2\lvgl\src\lv_objx/lv_tileview.c ****  **********************/
 332:..\..\..\lvgl\version_6.1.2\lvgl\src\lv_objx/lv_tileview.c **** 
 333:..\..\..\lvgl\version_6.1.2\lvgl\src\lv_objx/lv_tileview.c **** /**
 334:..\..\..\lvgl\version_6.1.2\lvgl\src\lv_objx/lv_tileview.c ****  * Signal function of the tileview
 335:..\..\..\lvgl\version_6.1.2\lvgl\src\lv_objx/lv_tileview.c ****  * @param tileview pointer to a tileview object
 336:..\..\..\lvgl\version_6.1.2\lvgl\src\lv_objx/lv_tileview.c ****  * @param sign a signal type from lv_signal_t enum
 337:..\..\..\lvgl\version_6.1.2\lvgl\src\lv_objx/lv_tileview.c ****  * @param param pointer to a signal specific variable
 338:..\..\..\lvgl\version_6.1.2\lvgl\src\lv_objx/lv_tileview.c ****  * @return LV_RES_OK: the object is not deleted in the function; LV_RES_INV: the object is deleted
 339:..\..\..\lvgl\version_6.1.2\lvgl\src\lv_objx/lv_tileview.c ****  */
 340:..\..\..\lvgl\version_6.1.2\lvgl\src\lv_objx/lv_tileview.c **** static lv_res_t lv_tileview_signal(lv_obj_t * tileview, lv_signal_t sign, void * param)
ARM GAS  C:\Users\tmj32\AppData\Local\Temp\cctNeIsL.s 			page 29


 341:..\..\..\lvgl\version_6.1.2\lvgl\src\lv_objx/lv_tileview.c **** {
 911              		.loc 3 341 0
 912              		.cfi_startproc
 913              		@ args = 0, pretend = 0, frame = 24
 914              		@ frame_needed = 1, uses_anonymous_args = 0
 915 0000 80B5     		push	{r7, lr}
 916              		.cfi_def_cfa_offset 8
 917              		.cfi_offset 7, -8
 918              		.cfi_offset 14, -4
 919 0002 86B0     		sub	sp, sp, #24
 920              		.cfi_def_cfa_offset 32
 921 0004 00AF     		add	r7, sp, #0
 922              		.cfi_def_cfa_register 7
 923 0006 F860     		str	r0, [r7, #12]
 924 0008 0B46     		mov	r3, r1
 925 000a 7A60     		str	r2, [r7, #4]
 926 000c FB72     		strb	r3, [r7, #11]
 342:..\..\..\lvgl\version_6.1.2\lvgl\src\lv_objx/lv_tileview.c ****     lv_res_t res;
 343:..\..\..\lvgl\version_6.1.2\lvgl\src\lv_objx/lv_tileview.c **** 
 344:..\..\..\lvgl\version_6.1.2\lvgl\src\lv_objx/lv_tileview.c ****     /* Include the ancient signal function */
 345:..\..\..\lvgl\version_6.1.2\lvgl\src\lv_objx/lv_tileview.c ****     res = ancestor_signal(tileview, sign, param);
 927              		.loc 3 345 0
 928 000e 0D4B     		ldr	r3, .L55
 929 0010 1B68     		ldr	r3, [r3]
 930 0012 F97A     		ldrb	r1, [r7, #11]	@ zero_extendqisi2
 931 0014 7A68     		ldr	r2, [r7, #4]
 932 0016 F868     		ldr	r0, [r7, #12]
 933 0018 9847     		blx	r3
 934 001a 0346     		mov	r3, r0
 935 001c FB75     		strb	r3, [r7, #23]
 346:..\..\..\lvgl\version_6.1.2\lvgl\src\lv_objx/lv_tileview.c ****     if(res != LV_RES_OK) return res;
 936              		.loc 3 346 0
 937 001e FB7D     		ldrb	r3, [r7, #23]	@ zero_extendqisi2
 938 0020 012B     		cmp	r3, #1
 939 0022 01D0     		beq	.L52
 940              		.loc 3 346 0 is_stmt 0 discriminator 1
 941 0024 FB7D     		ldrb	r3, [r7, #23]	@ zero_extendqisi2
 942 0026 09E0     		b	.L53
 943              	.L52:
 347:..\..\..\lvgl\version_6.1.2\lvgl\src\lv_objx/lv_tileview.c ****     if(sign == LV_SIGNAL_GET_TYPE) return lv_obj_handle_get_type_signal(param, LV_OBJX_NAME);
 944              		.loc 3 347 0 is_stmt 1
 945 0028 FB7A     		ldrb	r3, [r7, #11]	@ zero_extendqisi2
 946 002a 072B     		cmp	r3, #7
 947 002c 05D1     		bne	.L54
 948              		.loc 3 347 0 is_stmt 0 discriminator 1
 949 002e 0649     		ldr	r1, .L55+4
 950 0030 7868     		ldr	r0, [r7, #4]
 951 0032 FFF7FEFF 		bl	lv_obj_handle_get_type_signal
 952 0036 0346     		mov	r3, r0
 953 0038 00E0     		b	.L53
 954              	.L54:
 348:..\..\..\lvgl\version_6.1.2\lvgl\src\lv_objx/lv_tileview.c **** 
 349:..\..\..\lvgl\version_6.1.2\lvgl\src\lv_objx/lv_tileview.c ****     if(sign == LV_SIGNAL_CLEANUP) {
 350:..\..\..\lvgl\version_6.1.2\lvgl\src\lv_objx/lv_tileview.c ****         /*Nothing to cleanup. (No dynamically allocated memory in 'ext')*/
 351:..\..\..\lvgl\version_6.1.2\lvgl\src\lv_objx/lv_tileview.c ****     }
 352:..\..\..\lvgl\version_6.1.2\lvgl\src\lv_objx/lv_tileview.c **** 
 353:..\..\..\lvgl\version_6.1.2\lvgl\src\lv_objx/lv_tileview.c ****     return res;
ARM GAS  C:\Users\tmj32\AppData\Local\Temp\cctNeIsL.s 			page 30


 955              		.loc 3 353 0 is_stmt 1
 956 003a FB7D     		ldrb	r3, [r7, #23]	@ zero_extendqisi2
 957              	.L53:
 354:..\..\..\lvgl\version_6.1.2\lvgl\src\lv_objx/lv_tileview.c **** }
 958              		.loc 3 354 0
 959 003c 1846     		mov	r0, r3
 960 003e 1837     		adds	r7, r7, #24
 961              		.cfi_def_cfa_offset 8
 962 0040 BD46     		mov	sp, r7
 963              		.cfi_def_cfa_register 13
 964              		@ sp needed
 965 0042 80BD     		pop	{r7, pc}
 966              	.L56:
 967              		.align	2
 968              	.L55:
 969 0044 00000000 		.word	ancestor_signal
 970 0048 00000000 		.word	.LC0
 971              		.cfi_endproc
 972              	.LFE58:
 973              		.size	lv_tileview_signal, .-lv_tileview_signal
 974              		.section	.rodata
 975              		.align	2
 976              	.LC1:
 977 000c 00       		.ascii	"\000"
 978              		.section	.text.lv_tileview_scrl_signal,"ax",%progbits
 979              		.align	2
 980              		.thumb
 981              		.thumb_func
 982              		.type	lv_tileview_scrl_signal, %function
 983              	lv_tileview_scrl_signal:
 984              	.LFB59:
 355:..\..\..\lvgl\version_6.1.2\lvgl\src\lv_objx/lv_tileview.c **** 
 356:..\..\..\lvgl\version_6.1.2\lvgl\src\lv_objx/lv_tileview.c **** /**
 357:..\..\..\lvgl\version_6.1.2\lvgl\src\lv_objx/lv_tileview.c ****  * Signal function of the tileview scrollable
 358:..\..\..\lvgl\version_6.1.2\lvgl\src\lv_objx/lv_tileview.c ****  * @param tileview pointer to the scrollable part of the tileview object
 359:..\..\..\lvgl\version_6.1.2\lvgl\src\lv_objx/lv_tileview.c ****  * @param sign a signal type from lv_signal_t enum
 360:..\..\..\lvgl\version_6.1.2\lvgl\src\lv_objx/lv_tileview.c ****  * @param param pointer to a signal specific variable
 361:..\..\..\lvgl\version_6.1.2\lvgl\src\lv_objx/lv_tileview.c ****  * @return LV_RES_OK: the object is not deleted in the function; LV_RES_INV: the object is deleted
 362:..\..\..\lvgl\version_6.1.2\lvgl\src\lv_objx/lv_tileview.c ****  */
 363:..\..\..\lvgl\version_6.1.2\lvgl\src\lv_objx/lv_tileview.c **** static lv_res_t lv_tileview_scrl_signal(lv_obj_t * scrl, lv_signal_t sign, void * param)
 364:..\..\..\lvgl\version_6.1.2\lvgl\src\lv_objx/lv_tileview.c **** {
 985              		.loc 3 364 0
 986              		.cfi_startproc
 987              		@ args = 0, pretend = 0, frame = 48
 988              		@ frame_needed = 1, uses_anonymous_args = 0
 989 0000 90B5     		push	{r4, r7, lr}
 990              		.cfi_def_cfa_offset 12
 991              		.cfi_offset 4, -12
 992              		.cfi_offset 7, -8
 993              		.cfi_offset 14, -4
 994 0002 8DB0     		sub	sp, sp, #52
 995              		.cfi_def_cfa_offset 64
 996 0004 00AF     		add	r7, sp, #0
 997              		.cfi_def_cfa_register 7
 998 0006 F860     		str	r0, [r7, #12]
 999 0008 0B46     		mov	r3, r1
 1000 000a 7A60     		str	r2, [r7, #4]
ARM GAS  C:\Users\tmj32\AppData\Local\Temp\cctNeIsL.s 			page 31


 1001 000c FB72     		strb	r3, [r7, #11]
 365:..\..\..\lvgl\version_6.1.2\lvgl\src\lv_objx/lv_tileview.c **** 
 366:..\..\..\lvgl\version_6.1.2\lvgl\src\lv_objx/lv_tileview.c ****     lv_res_t res;
 367:..\..\..\lvgl\version_6.1.2\lvgl\src\lv_objx/lv_tileview.c **** 
 368:..\..\..\lvgl\version_6.1.2\lvgl\src\lv_objx/lv_tileview.c ****     /* Include the ancient signal function */
 369:..\..\..\lvgl\version_6.1.2\lvgl\src\lv_objx/lv_tileview.c ****     res = ancestor_scrl_signal(scrl, sign, param);
 1002              		.loc 3 369 0
 1003 000e 0C4B     		ldr	r3, .L79
 1004 0010 1B68     		ldr	r3, [r3]
 1005 0012 F97A     		ldrb	r1, [r7, #11]	@ zero_extendqisi2
 1006 0014 7A68     		ldr	r2, [r7, #4]
 1007 0016 F868     		ldr	r0, [r7, #12]
 1008 0018 9847     		blx	r3
 1009 001a 0346     		mov	r3, r0
 1010 001c 87F82F30 		strb	r3, [r7, #47]
 370:..\..\..\lvgl\version_6.1.2\lvgl\src\lv_objx/lv_tileview.c ****     if(res != LV_RES_OK) return res;
 1011              		.loc 3 370 0
 1012 0020 97F82F30 		ldrb	r3, [r7, #47]	@ zero_extendqisi2
 1013 0024 012B     		cmp	r3, #1
 1014 0026 02D0     		beq	.L58
 1015              		.loc 3 370 0 is_stmt 0 discriminator 1
 1016 0028 97F82F30 		ldrb	r3, [r7, #47]	@ zero_extendqisi2
 1017 002c 9AE2     		b	.L59
 1018              	.L58:
 371:..\..\..\lvgl\version_6.1.2\lvgl\src\lv_objx/lv_tileview.c ****     if(sign == LV_SIGNAL_GET_TYPE) return lv_obj_handle_get_type_signal(param, "");
 1019              		.loc 3 371 0 is_stmt 1
 1020 002e FB7A     		ldrb	r3, [r7, #11]	@ zero_extendqisi2
 1021 0030 072B     		cmp	r3, #7
 1022 0032 09D1     		bne	.L60
 1023              		.loc 3 371 0 is_stmt 0 discriminator 1
 1024 0034 0349     		ldr	r1, .L79+4
 1025 0036 7868     		ldr	r0, [r7, #4]
 1026 0038 FFF7FEFF 		bl	lv_obj_handle_get_type_signal
 1027 003c 0346     		mov	r3, r0
 1028 003e 91E2     		b	.L59
 1029              	.L80:
 1030              		.align	2
 1031              	.L79:
 1032 0040 04000000 		.word	ancestor_scrl_signal
 1033 0044 0C000000 		.word	.LC1
 1034              	.L60:
 372:..\..\..\lvgl\version_6.1.2\lvgl\src\lv_objx/lv_tileview.c **** 
 373:..\..\..\lvgl\version_6.1.2\lvgl\src\lv_objx/lv_tileview.c ****     lv_obj_t * tileview         = lv_obj_get_parent(scrl);
 1035              		.loc 3 373 0 is_stmt 1
 1036 0048 F868     		ldr	r0, [r7, #12]
 1037 004a FFF7FEFF 		bl	lv_obj_get_parent
 1038 004e B862     		str	r0, [r7, #40]
 374:..\..\..\lvgl\version_6.1.2\lvgl\src\lv_objx/lv_tileview.c ****     const lv_style_t * style_bg = lv_tileview_get_style(tileview, LV_TILEVIEW_STYLE_MAIN);
 1039              		.loc 3 374 0
 1040 0050 0021     		movs	r1, #0
 1041 0052 B86A     		ldr	r0, [r7, #40]
 1042 0054 FFF7FEFF 		bl	lv_tileview_get_style
 1043 0058 7862     		str	r0, [r7, #36]
 375:..\..\..\lvgl\version_6.1.2\lvgl\src\lv_objx/lv_tileview.c **** 
 376:..\..\..\lvgl\version_6.1.2\lvgl\src\lv_objx/lv_tileview.c ****     /*Apply constraint on moving of the tileview*/
 377:..\..\..\lvgl\version_6.1.2\lvgl\src\lv_objx/lv_tileview.c ****     if(sign == LV_SIGNAL_CORD_CHG) {
 1044              		.loc 3 377 0
ARM GAS  C:\Users\tmj32\AppData\Local\Temp\cctNeIsL.s 			page 32


 1045 005a FB7A     		ldrb	r3, [r7, #11]	@ zero_extendqisi2
 1046 005c 022B     		cmp	r3, #2
 1047 005e 40F07F82 		bne	.L61
 1048              	.LBB5:
 378:..\..\..\lvgl\version_6.1.2\lvgl\src\lv_objx/lv_tileview.c ****         lv_indev_t * indev = lv_indev_get_act();
 1049              		.loc 3 378 0
 1050 0062 FFF7FEFF 		bl	lv_indev_get_act
 1051 0066 3862     		str	r0, [r7, #32]
 379:..\..\..\lvgl\version_6.1.2\lvgl\src\lv_objx/lv_tileview.c ****         if(indev) {
 1052              		.loc 3 379 0
 1053 0068 3B6A     		ldr	r3, [r7, #32]
 1054 006a 002B     		cmp	r3, #0
 1055 006c 00F07882 		beq	.L61
 1056              	.LBB6:
 380:..\..\..\lvgl\version_6.1.2\lvgl\src\lv_objx/lv_tileview.c ****             lv_tileview_ext_t * ext = lv_obj_get_ext_attr(tileview);
 1057              		.loc 3 380 0
 1058 0070 B86A     		ldr	r0, [r7, #40]
 1059 0072 FFF7FEFF 		bl	lv_obj_get_ext_attr
 1060 0076 F861     		str	r0, [r7, #28]
 381:..\..\..\lvgl\version_6.1.2\lvgl\src\lv_objx/lv_tileview.c **** 
 382:..\..\..\lvgl\version_6.1.2\lvgl\src\lv_objx/lv_tileview.c ****             /*Set horizontal drag constraint if no vertical constraint an dragged to valid x
 383:..\..\..\lvgl\version_6.1.2\lvgl\src\lv_objx/lv_tileview.c ****              * direction */
 384:..\..\..\lvgl\version_6.1.2\lvgl\src\lv_objx/lv_tileview.c ****             if(ext->drag_ver == 0 &&
 1061              		.loc 3 384 0
 1062 0078 FB69     		ldr	r3, [r7, #28]
 1063 007a 93F83C30 		ldrb	r3, [r3, #60]	@ zero_extendqisi2
 1064 007e 03F02003 		and	r3, r3, #32
 1065 0082 DBB2     		uxtb	r3, r3
 1066 0084 002B     		cmp	r3, #0
 1067 0086 21D1     		bne	.L62
 385:..\..\..\lvgl\version_6.1.2\lvgl\src\lv_objx/lv_tileview.c ****                ((ext->drag_right_en && indev->proc.types.pointer.drag_sum.x <= -LV_INDEV_DEF_DRAG_L
 1068              		.loc 3 385 0 discriminator 1
 1069 0088 FB69     		ldr	r3, [r7, #28]
 1070 008a 93F83C30 		ldrb	r3, [r3, #60]	@ zero_extendqisi2
 1071 008e 03F00803 		and	r3, r3, #8
 1072 0092 DBB2     		uxtb	r3, r3
 384:..\..\..\lvgl\version_6.1.2\lvgl\src\lv_objx/lv_tileview.c ****                ((ext->drag_right_en && indev->proc.types.pointer.drag_sum.x <= -LV_INDEV_DEF_DRAG_L
 1073              		.loc 3 384 0 discriminator 1
 1074 0094 002B     		cmp	r3, #0
 1075 0096 05D0     		beq	.L63
 1076              		.loc 3 385 0
 1077 0098 3B6A     		ldr	r3, [r7, #32]
 1078 009a B3F92C30 		ldrsh	r3, [r3, #44]
 1079 009e 13F1090F 		cmn	r3, #9
 1080 00a2 0CDB     		blt	.L64
 1081              	.L63:
 386:..\..\..\lvgl\version_6.1.2\lvgl\src\lv_objx/lv_tileview.c ****                 (ext->drag_left_en && indev->proc.types.pointer.drag_sum.x >= LV_INDEV_DEF_DRAG_LIM
 1082              		.loc 3 386 0 discriminator 1
 1083 00a4 FB69     		ldr	r3, [r7, #28]
 1084 00a6 93F83C30 		ldrb	r3, [r3, #60]	@ zero_extendqisi2
 1085 00aa 03F00403 		and	r3, r3, #4
 1086 00ae DBB2     		uxtb	r3, r3
 385:..\..\..\lvgl\version_6.1.2\lvgl\src\lv_objx/lv_tileview.c ****                ((ext->drag_right_en && indev->proc.types.pointer.drag_sum.x <= -LV_INDEV_DEF_DRAG_L
 1087              		.loc 3 385 0 discriminator 1
 1088 00b0 002B     		cmp	r3, #0
 1089 00b2 0BD0     		beq	.L62
 1090              		.loc 3 386 0
ARM GAS  C:\Users\tmj32\AppData\Local\Temp\cctNeIsL.s 			page 33


 1091 00b4 3B6A     		ldr	r3, [r7, #32]
 1092 00b6 B3F92C30 		ldrsh	r3, [r3, #44]
 1093 00ba 092B     		cmp	r3, #9
 1094 00bc 06DD     		ble	.L62
 1095              	.L64:
 387:..\..\..\lvgl\version_6.1.2\lvgl\src\lv_objx/lv_tileview.c ****                 ext->drag_hor = 1;
 1096              		.loc 3 387 0
 1097 00be FA69     		ldr	r2, [r7, #28]
 1098 00c0 92F83C30 		ldrb	r3, [r2, #60]
 1099 00c4 43F01003 		orr	r3, r3, #16
 1100 00c8 82F83C30 		strb	r3, [r2, #60]
 1101              	.L62:
 388:..\..\..\lvgl\version_6.1.2\lvgl\src\lv_objx/lv_tileview.c ****             }
 389:..\..\..\lvgl\version_6.1.2\lvgl\src\lv_objx/lv_tileview.c ****             /*Set vertical drag constraint if no horizontal constraint an dragged to valid y
 390:..\..\..\lvgl\version_6.1.2\lvgl\src\lv_objx/lv_tileview.c ****              * direction */
 391:..\..\..\lvgl\version_6.1.2\lvgl\src\lv_objx/lv_tileview.c ****             if(ext->drag_hor == 0 &&
 1102              		.loc 3 391 0
 1103 00cc FB69     		ldr	r3, [r7, #28]
 1104 00ce 93F83C30 		ldrb	r3, [r3, #60]	@ zero_extendqisi2
 1105 00d2 03F01003 		and	r3, r3, #16
 1106 00d6 DBB2     		uxtb	r3, r3
 1107 00d8 002B     		cmp	r3, #0
 1108 00da 21D1     		bne	.L65
 392:..\..\..\lvgl\version_6.1.2\lvgl\src\lv_objx/lv_tileview.c ****                ((ext->drag_bottom_en && indev->proc.types.pointer.drag_sum.y <= -LV_INDEV_DEF_DRAG_
 1109              		.loc 3 392 0 discriminator 1
 1110 00dc FB69     		ldr	r3, [r7, #28]
 1111 00de 93F83C30 		ldrb	r3, [r3, #60]	@ zero_extendqisi2
 1112 00e2 03F00203 		and	r3, r3, #2
 1113 00e6 DBB2     		uxtb	r3, r3
 391:..\..\..\lvgl\version_6.1.2\lvgl\src\lv_objx/lv_tileview.c ****                ((ext->drag_bottom_en && indev->proc.types.pointer.drag_sum.y <= -LV_INDEV_DEF_DRAG_
 1114              		.loc 3 391 0 discriminator 1
 1115 00e8 002B     		cmp	r3, #0
 1116 00ea 05D0     		beq	.L66
 1117              		.loc 3 392 0
 1118 00ec 3B6A     		ldr	r3, [r7, #32]
 1119 00ee B3F92E30 		ldrsh	r3, [r3, #46]
 1120 00f2 13F1090F 		cmn	r3, #9
 1121 00f6 0CDB     		blt	.L67
 1122              	.L66:
 393:..\..\..\lvgl\version_6.1.2\lvgl\src\lv_objx/lv_tileview.c ****                 (ext->drag_top_en && indev->proc.types.pointer.drag_sum.y >= LV_INDEV_DEF_DRAG_LIMI
 1123              		.loc 3 393 0 discriminator 1
 1124 00f8 FB69     		ldr	r3, [r7, #28]
 1125 00fa 93F83C30 		ldrb	r3, [r3, #60]	@ zero_extendqisi2
 1126 00fe 03F00103 		and	r3, r3, #1
 1127 0102 DBB2     		uxtb	r3, r3
 392:..\..\..\lvgl\version_6.1.2\lvgl\src\lv_objx/lv_tileview.c ****                ((ext->drag_bottom_en && indev->proc.types.pointer.drag_sum.y <= -LV_INDEV_DEF_DRAG_
 1128              		.loc 3 392 0 discriminator 1
 1129 0104 002B     		cmp	r3, #0
 1130 0106 0BD0     		beq	.L65
 1131              		.loc 3 393 0
 1132 0108 3B6A     		ldr	r3, [r7, #32]
 1133 010a B3F92E30 		ldrsh	r3, [r3, #46]
 1134 010e 092B     		cmp	r3, #9
 1135 0110 06DD     		ble	.L65
 1136              	.L67:
 394:..\..\..\lvgl\version_6.1.2\lvgl\src\lv_objx/lv_tileview.c ****                 ext->drag_ver = 1;
 1137              		.loc 3 394 0
ARM GAS  C:\Users\tmj32\AppData\Local\Temp\cctNeIsL.s 			page 34


 1138 0112 FA69     		ldr	r2, [r7, #28]
 1139 0114 92F83C30 		ldrb	r3, [r2, #60]
 1140 0118 43F02003 		orr	r3, r3, #32
 1141 011c 82F83C30 		strb	r3, [r2, #60]
 1142              	.L65:
 395:..\..\..\lvgl\version_6.1.2\lvgl\src\lv_objx/lv_tileview.c ****             }
 396:..\..\..\lvgl\version_6.1.2\lvgl\src\lv_objx/lv_tileview.c **** 
 397:..\..\..\lvgl\version_6.1.2\lvgl\src\lv_objx/lv_tileview.c **** #if LV_USE_ANIMATION
 398:..\..\..\lvgl\version_6.1.2\lvgl\src\lv_objx/lv_tileview.c ****             if(ext->drag_hor) {
 1143              		.loc 3 398 0
 1144 0120 FB69     		ldr	r3, [r7, #28]
 1145 0122 93F83C30 		ldrb	r3, [r3, #60]	@ zero_extendqisi2
 1146 0126 03F01003 		and	r3, r3, #16
 1147 012a DBB2     		uxtb	r3, r3
 1148 012c 002B     		cmp	r3, #0
 1149 012e 0DD0     		beq	.L68
 399:..\..\..\lvgl\version_6.1.2\lvgl\src\lv_objx/lv_tileview.c ****                 ext->page.edge_flash.top_ip    = 0;
 1150              		.loc 3 399 0
 1151 0130 FA69     		ldr	r2, [r7, #28]
 1152 0132 92F82830 		ldrb	r3, [r2, #40]
 1153 0136 6FF34103 		bfc	r3, #1, #1
 1154 013a 82F82830 		strb	r3, [r2, #40]
 400:..\..\..\lvgl\version_6.1.2\lvgl\src\lv_objx/lv_tileview.c ****                 ext->page.edge_flash.bottom_ip = 0;
 1155              		.loc 3 400 0
 1156 013e FA69     		ldr	r2, [r7, #28]
 1157 0140 92F82830 		ldrb	r3, [r2, #40]
 1158 0144 6FF38203 		bfc	r3, #2, #1
 1159 0148 82F82830 		strb	r3, [r2, #40]
 1160              	.L68:
 401:..\..\..\lvgl\version_6.1.2\lvgl\src\lv_objx/lv_tileview.c ****             }
 402:..\..\..\lvgl\version_6.1.2\lvgl\src\lv_objx/lv_tileview.c **** 
 403:..\..\..\lvgl\version_6.1.2\lvgl\src\lv_objx/lv_tileview.c ****             if(ext->drag_ver) {
 1161              		.loc 3 403 0
 1162 014c FB69     		ldr	r3, [r7, #28]
 1163 014e 93F83C30 		ldrb	r3, [r3, #60]	@ zero_extendqisi2
 1164 0152 03F02003 		and	r3, r3, #32
 1165 0156 DBB2     		uxtb	r3, r3
 1166 0158 002B     		cmp	r3, #0
 1167 015a 0DD0     		beq	.L69
 404:..\..\..\lvgl\version_6.1.2\lvgl\src\lv_objx/lv_tileview.c ****                 ext->page.edge_flash.right_ip = 0;
 1168              		.loc 3 404 0
 1169 015c FA69     		ldr	r2, [r7, #28]
 1170 015e 92F82830 		ldrb	r3, [r2, #40]
 1171 0162 6FF3C303 		bfc	r3, #3, #1
 1172 0166 82F82830 		strb	r3, [r2, #40]
 405:..\..\..\lvgl\version_6.1.2\lvgl\src\lv_objx/lv_tileview.c ****                 ext->page.edge_flash.left_ip  = 0;
 1173              		.loc 3 405 0
 1174 016a FA69     		ldr	r2, [r7, #28]
 1175 016c 92F82830 		ldrb	r3, [r2, #40]
 1176 0170 6FF30413 		bfc	r3, #4, #1
 1177 0174 82F82830 		strb	r3, [r2, #40]
 1178              	.L69:
 406:..\..\..\lvgl\version_6.1.2\lvgl\src\lv_objx/lv_tileview.c ****             }
 407:..\..\..\lvgl\version_6.1.2\lvgl\src\lv_objx/lv_tileview.c **** #endif
 408:..\..\..\lvgl\version_6.1.2\lvgl\src\lv_objx/lv_tileview.c **** 
 409:..\..\..\lvgl\version_6.1.2\lvgl\src\lv_objx/lv_tileview.c ****             lv_coord_t x = lv_obj_get_x(scrl);
 1179              		.loc 3 409 0
ARM GAS  C:\Users\tmj32\AppData\Local\Temp\cctNeIsL.s 			page 35


 1180 0178 F868     		ldr	r0, [r7, #12]
 1181 017a FFF7FEFF 		bl	lv_obj_get_x
 1182 017e 0346     		mov	r3, r0
 1183 0180 7B83     		strh	r3, [r7, #26]	@ movhi
 410:..\..\..\lvgl\version_6.1.2\lvgl\src\lv_objx/lv_tileview.c ****             lv_coord_t y = lv_obj_get_y(scrl);
 1184              		.loc 3 410 0
 1185 0182 F868     		ldr	r0, [r7, #12]
 1186 0184 FFF7FEFF 		bl	lv_obj_get_y
 1187 0188 0346     		mov	r3, r0
 1188 018a 3B83     		strh	r3, [r7, #24]	@ movhi
 411:..\..\..\lvgl\version_6.1.2\lvgl\src\lv_objx/lv_tileview.c ****             lv_coord_t h = lv_obj_get_height(tileview);
 1189              		.loc 3 411 0
 1190 018c B86A     		ldr	r0, [r7, #40]
 1191 018e FFF7FEFF 		bl	lv_obj_get_height
 1192 0192 0346     		mov	r3, r0
 1193 0194 FB82     		strh	r3, [r7, #22]	@ movhi
 412:..\..\..\lvgl\version_6.1.2\lvgl\src\lv_objx/lv_tileview.c ****             lv_coord_t w = lv_obj_get_width(tileview);
 1194              		.loc 3 412 0
 1195 0196 B86A     		ldr	r0, [r7, #40]
 1196 0198 FFF7FEFF 		bl	lv_obj_get_width
 1197 019c 0346     		mov	r3, r0
 1198 019e BB82     		strh	r3, [r7, #20]	@ movhi
 413:..\..\..\lvgl\version_6.1.2\lvgl\src\lv_objx/lv_tileview.c ****             if(ext->drag_top_en == 0) {
 1199              		.loc 3 413 0
 1200 01a0 FB69     		ldr	r3, [r7, #28]
 1201 01a2 93F83C30 		ldrb	r3, [r3, #60]	@ zero_extendqisi2
 1202 01a6 03F00103 		and	r3, r3, #1
 1203 01aa DBB2     		uxtb	r3, r3
 1204 01ac 002B     		cmp	r3, #0
 1205 01ae 5FD1     		bne	.L70
 414:..\..\..\lvgl\version_6.1.2\lvgl\src\lv_objx/lv_tileview.c ****                 if(y > -(ext->act_id.y * h) && indev->proc.types.pointer.vect.y > 0 && ext->drag_ho
 1206              		.loc 3 414 0
 1207 01b0 B7F91820 		ldrsh	r2, [r7, #24]
 1208 01b4 FB69     		ldr	r3, [r7, #28]
 1209 01b6 B3F93A30 		ldrsh	r3, [r3, #58]
 1210 01ba 1946     		mov	r1, r3
 1211 01bc B7F91630 		ldrsh	r3, [r7, #22]
 1212 01c0 03FB01F3 		mul	r3, r3, r1
 1213 01c4 5B42     		negs	r3, r3
 1214 01c6 9A42     		cmp	r2, r3
 1215 01c8 52DD     		ble	.L70
 1216              		.loc 3 414 0 is_stmt 0 discriminator 1
 1217 01ca 3B6A     		ldr	r3, [r7, #32]
 1218 01cc B3F92A30 		ldrsh	r3, [r3, #42]
 1219 01d0 002B     		cmp	r3, #0
 1220 01d2 4DDD     		ble	.L70
 1221              		.loc 3 414 0 discriminator 2
 1222 01d4 FB69     		ldr	r3, [r7, #28]
 1223 01d6 93F83C30 		ldrb	r3, [r3, #60]	@ zero_extendqisi2
 1224 01da 03F01003 		and	r3, r3, #16
 1225 01de DBB2     		uxtb	r3, r3
 1226 01e0 002B     		cmp	r3, #0
 1227 01e2 45D1     		bne	.L70
 415:..\..\..\lvgl\version_6.1.2\lvgl\src\lv_objx/lv_tileview.c **** #if LV_USE_ANIMATION
 416:..\..\..\lvgl\version_6.1.2\lvgl\src\lv_objx/lv_tileview.c ****                     if(ext->page.edge_flash.enabled && ext->page.edge_flash.left_ip == 0 &&
 1228              		.loc 3 416 0 is_stmt 1
 1229 01e4 FB69     		ldr	r3, [r7, #28]
ARM GAS  C:\Users\tmj32\AppData\Local\Temp\cctNeIsL.s 			page 36


 1230 01e6 93F82830 		ldrb	r3, [r3, #40]	@ zero_extendqisi2
 1231 01ea 03F00103 		and	r3, r3, #1
 1232 01ee DBB2     		uxtb	r3, r3
 1233 01f0 002B     		cmp	r3, #0
 1234 01f2 29D0     		beq	.L71
 1235              		.loc 3 416 0 is_stmt 0 discriminator 1
 1236 01f4 FB69     		ldr	r3, [r7, #28]
 1237 01f6 93F82830 		ldrb	r3, [r3, #40]	@ zero_extendqisi2
 1238 01fa 03F01003 		and	r3, r3, #16
 1239 01fe DBB2     		uxtb	r3, r3
 1240 0200 002B     		cmp	r3, #0
 1241 0202 21D1     		bne	.L71
 417:..\..\..\lvgl\version_6.1.2\lvgl\src\lv_objx/lv_tileview.c ****                        ext->page.edge_flash.right_ip == 0 && ext->page.edge_flash.top_ip == 0 &&
 1242              		.loc 3 417 0 is_stmt 1 discriminator 2
 1243 0204 FB69     		ldr	r3, [r7, #28]
 1244 0206 93F82830 		ldrb	r3, [r3, #40]	@ zero_extendqisi2
 1245 020a 03F00803 		and	r3, r3, #8
 1246 020e DBB2     		uxtb	r3, r3
 416:..\..\..\lvgl\version_6.1.2\lvgl\src\lv_objx/lv_tileview.c ****                        ext->page.edge_flash.right_ip == 0 && ext->page.edge_flash.top_ip == 0 &&
 1247              		.loc 3 416 0 discriminator 2
 1248 0210 002B     		cmp	r3, #0
 1249 0212 19D1     		bne	.L71
 1250              		.loc 3 417 0
 1251 0214 FB69     		ldr	r3, [r7, #28]
 1252 0216 93F82830 		ldrb	r3, [r3, #40]	@ zero_extendqisi2
 1253 021a 03F00203 		and	r3, r3, #2
 1254 021e DBB2     		uxtb	r3, r3
 1255 0220 002B     		cmp	r3, #0
 1256 0222 11D1     		bne	.L71
 418:..\..\..\lvgl\version_6.1.2\lvgl\src\lv_objx/lv_tileview.c ****                        ext->page.edge_flash.bottom_ip == 0) {
 1257              		.loc 3 418 0 discriminator 1
 1258 0224 FB69     		ldr	r3, [r7, #28]
 1259 0226 93F82830 		ldrb	r3, [r3, #40]	@ zero_extendqisi2
 1260 022a 03F00403 		and	r3, r3, #4
 1261 022e DBB2     		uxtb	r3, r3
 417:..\..\..\lvgl\version_6.1.2\lvgl\src\lv_objx/lv_tileview.c ****                        ext->page.edge_flash.right_ip == 0 && ext->page.edge_flash.top_ip == 0 &&
 1262              		.loc 3 417 0 discriminator 1
 1263 0230 002B     		cmp	r3, #0
 1264 0232 09D1     		bne	.L71
 419:..\..\..\lvgl\version_6.1.2\lvgl\src\lv_objx/lv_tileview.c ****                         ext->page.edge_flash.top_ip = 1;
 1265              		.loc 3 419 0
 1266 0234 FA69     		ldr	r2, [r7, #28]
 1267 0236 92F82830 		ldrb	r3, [r2, #40]
 1268 023a 43F00203 		orr	r3, r3, #2
 1269 023e 82F82830 		strb	r3, [r2, #40]
 420:..\..\..\lvgl\version_6.1.2\lvgl\src\lv_objx/lv_tileview.c ****                         lv_page_start_edge_flash(tileview);
 1270              		.loc 3 420 0
 1271 0242 B86A     		ldr	r0, [r7, #40]
 1272 0244 FFF7FEFF 		bl	lv_page_start_edge_flash
 1273              	.L71:
 421:..\..\..\lvgl\version_6.1.2\lvgl\src\lv_objx/lv_tileview.c ****                     }
 422:..\..\..\lvgl\version_6.1.2\lvgl\src\lv_objx/lv_tileview.c **** #endif
 423:..\..\..\lvgl\version_6.1.2\lvgl\src\lv_objx/lv_tileview.c **** 
 424:..\..\..\lvgl\version_6.1.2\lvgl\src\lv_objx/lv_tileview.c ****                     lv_obj_set_y(scrl, -ext->act_id.y * h + style_bg->body.padding.top);
 1274              		.loc 3 424 0
 1275 0248 FB69     		ldr	r3, [r7, #28]
 1276 024a B3F93A30 		ldrsh	r3, [r3, #58]
ARM GAS  C:\Users\tmj32\AppData\Local\Temp\cctNeIsL.s 			page 37


 1277 024e 5B42     		negs	r3, r3
 1278 0250 9AB2     		uxth	r2, r3
 1279 0252 FB8A     		ldrh	r3, [r7, #22]
 1280 0254 12FB03F3 		smulbb	r3, r2, r3
 1281 0258 9AB2     		uxth	r2, r3
 1282 025a 7B6A     		ldr	r3, [r7, #36]
 1283 025c B3F92030 		ldrsh	r3, [r3, #32]
 1284 0260 9BB2     		uxth	r3, r3
 1285 0262 1344     		add	r3, r3, r2
 1286 0264 9BB2     		uxth	r3, r3
 1287 0266 1BB2     		sxth	r3, r3
 1288 0268 1946     		mov	r1, r3
 1289 026a F868     		ldr	r0, [r7, #12]
 1290 026c FFF7FEFF 		bl	lv_obj_set_y
 1291              	.L70:
 425:..\..\..\lvgl\version_6.1.2\lvgl\src\lv_objx/lv_tileview.c ****                 }
 426:..\..\..\lvgl\version_6.1.2\lvgl\src\lv_objx/lv_tileview.c ****             }
 427:..\..\..\lvgl\version_6.1.2\lvgl\src\lv_objx/lv_tileview.c ****             if(ext->drag_bottom_en == 0 && indev->proc.types.pointer.vect.y < 0 && ext->drag_hor ==
 1292              		.loc 3 427 0
 1293 0270 FB69     		ldr	r3, [r7, #28]
 1294 0272 93F83C30 		ldrb	r3, [r3, #60]	@ zero_extendqisi2
 1295 0276 03F00203 		and	r3, r3, #2
 1296 027a DBB2     		uxtb	r3, r3
 1297 027c 002B     		cmp	r3, #0
 1298 027e 5FD1     		bne	.L72
 1299              		.loc 3 427 0 is_stmt 0 discriminator 1
 1300 0280 3B6A     		ldr	r3, [r7, #32]
 1301 0282 B3F92A30 		ldrsh	r3, [r3, #42]
 1302 0286 002B     		cmp	r3, #0
 1303 0288 5ADA     		bge	.L72
 1304              		.loc 3 427 0 discriminator 2
 1305 028a FB69     		ldr	r3, [r7, #28]
 1306 028c 93F83C30 		ldrb	r3, [r3, #60]	@ zero_extendqisi2
 1307 0290 03F01003 		and	r3, r3, #16
 1308 0294 DBB2     		uxtb	r3, r3
 1309 0296 002B     		cmp	r3, #0
 1310 0298 52D1     		bne	.L72
 428:..\..\..\lvgl\version_6.1.2\lvgl\src\lv_objx/lv_tileview.c ****                 if(y < -(ext->act_id.y * h)) {
 1311              		.loc 3 428 0 is_stmt 1
 1312 029a B7F91820 		ldrsh	r2, [r7, #24]
 1313 029e FB69     		ldr	r3, [r7, #28]
 1314 02a0 B3F93A30 		ldrsh	r3, [r3, #58]
 1315 02a4 1946     		mov	r1, r3
 1316 02a6 B7F91630 		ldrsh	r3, [r7, #22]
 1317 02aa 03FB01F3 		mul	r3, r3, r1
 1318 02ae 5B42     		negs	r3, r3
 1319 02b0 9A42     		cmp	r2, r3
 1320 02b2 31DA     		bge	.L73
 429:..\..\..\lvgl\version_6.1.2\lvgl\src\lv_objx/lv_tileview.c **** #if LV_USE_ANIMATION
 430:..\..\..\lvgl\version_6.1.2\lvgl\src\lv_objx/lv_tileview.c ****                     if(ext->page.edge_flash.enabled && ext->page.edge_flash.left_ip == 0 &&
 1321              		.loc 3 430 0
 1322 02b4 FB69     		ldr	r3, [r7, #28]
 1323 02b6 93F82830 		ldrb	r3, [r3, #40]	@ zero_extendqisi2
 1324 02ba 03F00103 		and	r3, r3, #1
 1325 02be DBB2     		uxtb	r3, r3
 1326 02c0 002B     		cmp	r3, #0
 1327 02c2 29D0     		beq	.L73
ARM GAS  C:\Users\tmj32\AppData\Local\Temp\cctNeIsL.s 			page 38


 1328              		.loc 3 430 0 is_stmt 0 discriminator 1
 1329 02c4 FB69     		ldr	r3, [r7, #28]
 1330 02c6 93F82830 		ldrb	r3, [r3, #40]	@ zero_extendqisi2
 1331 02ca 03F01003 		and	r3, r3, #16
 1332 02ce DBB2     		uxtb	r3, r3
 1333 02d0 002B     		cmp	r3, #0
 1334 02d2 21D1     		bne	.L73
 431:..\..\..\lvgl\version_6.1.2\lvgl\src\lv_objx/lv_tileview.c ****                        ext->page.edge_flash.right_ip == 0 && ext->page.edge_flash.top_ip == 0 &&
 1335              		.loc 3 431 0 is_stmt 1 discriminator 2
 1336 02d4 FB69     		ldr	r3, [r7, #28]
 1337 02d6 93F82830 		ldrb	r3, [r3, #40]	@ zero_extendqisi2
 1338 02da 03F00803 		and	r3, r3, #8
 1339 02de DBB2     		uxtb	r3, r3
 430:..\..\..\lvgl\version_6.1.2\lvgl\src\lv_objx/lv_tileview.c ****                        ext->page.edge_flash.right_ip == 0 && ext->page.edge_flash.top_ip == 0 &&
 1340              		.loc 3 430 0 discriminator 2
 1341 02e0 002B     		cmp	r3, #0
 1342 02e2 19D1     		bne	.L73
 1343              		.loc 3 431 0
 1344 02e4 FB69     		ldr	r3, [r7, #28]
 1345 02e6 93F82830 		ldrb	r3, [r3, #40]	@ zero_extendqisi2
 1346 02ea 03F00203 		and	r3, r3, #2
 1347 02ee DBB2     		uxtb	r3, r3
 1348 02f0 002B     		cmp	r3, #0
 1349 02f2 11D1     		bne	.L73
 432:..\..\..\lvgl\version_6.1.2\lvgl\src\lv_objx/lv_tileview.c ****                        ext->page.edge_flash.bottom_ip == 0) {
 1350              		.loc 3 432 0 discriminator 1
 1351 02f4 FB69     		ldr	r3, [r7, #28]
 1352 02f6 93F82830 		ldrb	r3, [r3, #40]	@ zero_extendqisi2
 1353 02fa 03F00403 		and	r3, r3, #4
 1354 02fe DBB2     		uxtb	r3, r3
 431:..\..\..\lvgl\version_6.1.2\lvgl\src\lv_objx/lv_tileview.c ****                        ext->page.edge_flash.right_ip == 0 && ext->page.edge_flash.top_ip == 0 &&
 1355              		.loc 3 431 0 discriminator 1
 1356 0300 002B     		cmp	r3, #0
 1357 0302 09D1     		bne	.L73
 433:..\..\..\lvgl\version_6.1.2\lvgl\src\lv_objx/lv_tileview.c ****                         ext->page.edge_flash.bottom_ip = 1;
 1358              		.loc 3 433 0
 1359 0304 FA69     		ldr	r2, [r7, #28]
 1360 0306 92F82830 		ldrb	r3, [r2, #40]
 1361 030a 43F00403 		orr	r3, r3, #4
 1362 030e 82F82830 		strb	r3, [r2, #40]
 434:..\..\..\lvgl\version_6.1.2\lvgl\src\lv_objx/lv_tileview.c ****                         lv_page_start_edge_flash(tileview);
 1363              		.loc 3 434 0
 1364 0312 B86A     		ldr	r0, [r7, #40]
 1365 0314 FFF7FEFF 		bl	lv_page_start_edge_flash
 1366              	.L73:
 435:..\..\..\lvgl\version_6.1.2\lvgl\src\lv_objx/lv_tileview.c ****                     }
 436:..\..\..\lvgl\version_6.1.2\lvgl\src\lv_objx/lv_tileview.c **** #endif
 437:..\..\..\lvgl\version_6.1.2\lvgl\src\lv_objx/lv_tileview.c ****                 }
 438:..\..\..\lvgl\version_6.1.2\lvgl\src\lv_objx/lv_tileview.c **** 
 439:..\..\..\lvgl\version_6.1.2\lvgl\src\lv_objx/lv_tileview.c ****                 lv_obj_set_y(scrl, -ext->act_id.y * h + style_bg->body.padding.top);
 1367              		.loc 3 439 0
 1368 0318 FB69     		ldr	r3, [r7, #28]
 1369 031a B3F93A30 		ldrsh	r3, [r3, #58]
 1370 031e 5B42     		negs	r3, r3
 1371 0320 9AB2     		uxth	r2, r3
 1372 0322 FB8A     		ldrh	r3, [r7, #22]
 1373 0324 12FB03F3 		smulbb	r3, r2, r3
ARM GAS  C:\Users\tmj32\AppData\Local\Temp\cctNeIsL.s 			page 39


 1374 0328 9AB2     		uxth	r2, r3
 1375 032a 7B6A     		ldr	r3, [r7, #36]
 1376 032c B3F92030 		ldrsh	r3, [r3, #32]
 1377 0330 9BB2     		uxth	r3, r3
 1378 0332 1344     		add	r3, r3, r2
 1379 0334 9BB2     		uxth	r3, r3
 1380 0336 1BB2     		sxth	r3, r3
 1381 0338 1946     		mov	r1, r3
 1382 033a F868     		ldr	r0, [r7, #12]
 1383 033c FFF7FEFF 		bl	lv_obj_set_y
 1384              	.L72:
 440:..\..\..\lvgl\version_6.1.2\lvgl\src\lv_objx/lv_tileview.c ****             }
 441:..\..\..\lvgl\version_6.1.2\lvgl\src\lv_objx/lv_tileview.c ****             if(ext->drag_left_en == 0) {
 1385              		.loc 3 441 0
 1386 0340 FB69     		ldr	r3, [r7, #28]
 1387 0342 93F83C30 		ldrb	r3, [r3, #60]	@ zero_extendqisi2
 1388 0346 03F00403 		and	r3, r3, #4
 1389 034a DBB2     		uxtb	r3, r3
 1390 034c 002B     		cmp	r3, #0
 1391 034e 5FD1     		bne	.L74
 442:..\..\..\lvgl\version_6.1.2\lvgl\src\lv_objx/lv_tileview.c ****                 if(x > -(ext->act_id.x * w) && indev->proc.types.pointer.vect.x > 0 && ext->drag_ve
 1392              		.loc 3 442 0
 1393 0350 B7F91A20 		ldrsh	r2, [r7, #26]
 1394 0354 FB69     		ldr	r3, [r7, #28]
 1395 0356 B3F93830 		ldrsh	r3, [r3, #56]
 1396 035a 1946     		mov	r1, r3
 1397 035c B7F91430 		ldrsh	r3, [r7, #20]
 1398 0360 03FB01F3 		mul	r3, r3, r1
 1399 0364 5B42     		negs	r3, r3
 1400 0366 9A42     		cmp	r2, r3
 1401 0368 52DD     		ble	.L74
 1402              		.loc 3 442 0 is_stmt 0 discriminator 1
 1403 036a 3B6A     		ldr	r3, [r7, #32]
 1404 036c B3F92830 		ldrsh	r3, [r3, #40]
 1405 0370 002B     		cmp	r3, #0
 1406 0372 4DDD     		ble	.L74
 1407              		.loc 3 442 0 discriminator 2
 1408 0374 FB69     		ldr	r3, [r7, #28]
 1409 0376 93F83C30 		ldrb	r3, [r3, #60]	@ zero_extendqisi2
 1410 037a 03F02003 		and	r3, r3, #32
 1411 037e DBB2     		uxtb	r3, r3
 1412 0380 002B     		cmp	r3, #0
 1413 0382 45D1     		bne	.L74
 443:..\..\..\lvgl\version_6.1.2\lvgl\src\lv_objx/lv_tileview.c **** #if LV_USE_ANIMATION
 444:..\..\..\lvgl\version_6.1.2\lvgl\src\lv_objx/lv_tileview.c ****                     if(ext->page.edge_flash.enabled && ext->page.edge_flash.left_ip == 0 &&
 1414              		.loc 3 444 0 is_stmt 1
 1415 0384 FB69     		ldr	r3, [r7, #28]
 1416 0386 93F82830 		ldrb	r3, [r3, #40]	@ zero_extendqisi2
 1417 038a 03F00103 		and	r3, r3, #1
 1418 038e DBB2     		uxtb	r3, r3
 1419 0390 002B     		cmp	r3, #0
 1420 0392 29D0     		beq	.L75
 1421              		.loc 3 444 0 is_stmt 0 discriminator 1
 1422 0394 FB69     		ldr	r3, [r7, #28]
 1423 0396 93F82830 		ldrb	r3, [r3, #40]	@ zero_extendqisi2
 1424 039a 03F01003 		and	r3, r3, #16
 1425 039e DBB2     		uxtb	r3, r3
ARM GAS  C:\Users\tmj32\AppData\Local\Temp\cctNeIsL.s 			page 40


 1426 03a0 002B     		cmp	r3, #0
 1427 03a2 21D1     		bne	.L75
 445:..\..\..\lvgl\version_6.1.2\lvgl\src\lv_objx/lv_tileview.c ****                        ext->page.edge_flash.right_ip == 0 && ext->page.edge_flash.top_ip == 0 &&
 1428              		.loc 3 445 0 is_stmt 1 discriminator 2
 1429 03a4 FB69     		ldr	r3, [r7, #28]
 1430 03a6 93F82830 		ldrb	r3, [r3, #40]	@ zero_extendqisi2
 1431 03aa 03F00803 		and	r3, r3, #8
 1432 03ae DBB2     		uxtb	r3, r3
 444:..\..\..\lvgl\version_6.1.2\lvgl\src\lv_objx/lv_tileview.c ****                        ext->page.edge_flash.right_ip == 0 && ext->page.edge_flash.top_ip == 0 &&
 1433              		.loc 3 444 0 discriminator 2
 1434 03b0 002B     		cmp	r3, #0
 1435 03b2 19D1     		bne	.L75
 1436              		.loc 3 445 0
 1437 03b4 FB69     		ldr	r3, [r7, #28]
 1438 03b6 93F82830 		ldrb	r3, [r3, #40]	@ zero_extendqisi2
 1439 03ba 03F00203 		and	r3, r3, #2
 1440 03be DBB2     		uxtb	r3, r3
 1441 03c0 002B     		cmp	r3, #0
 1442 03c2 11D1     		bne	.L75
 446:..\..\..\lvgl\version_6.1.2\lvgl\src\lv_objx/lv_tileview.c ****                        ext->page.edge_flash.bottom_ip == 0) {
 1443              		.loc 3 446 0 discriminator 1
 1444 03c4 FB69     		ldr	r3, [r7, #28]
 1445 03c6 93F82830 		ldrb	r3, [r3, #40]	@ zero_extendqisi2
 1446 03ca 03F00403 		and	r3, r3, #4
 1447 03ce DBB2     		uxtb	r3, r3
 445:..\..\..\lvgl\version_6.1.2\lvgl\src\lv_objx/lv_tileview.c ****                        ext->page.edge_flash.right_ip == 0 && ext->page.edge_flash.top_ip == 0 &&
 1448              		.loc 3 445 0 discriminator 1
 1449 03d0 002B     		cmp	r3, #0
 1450 03d2 09D1     		bne	.L75
 447:..\..\..\lvgl\version_6.1.2\lvgl\src\lv_objx/lv_tileview.c ****                         ext->page.edge_flash.left_ip = 1;
 1451              		.loc 3 447 0
 1452 03d4 FA69     		ldr	r2, [r7, #28]
 1453 03d6 92F82830 		ldrb	r3, [r2, #40]
 1454 03da 43F01003 		orr	r3, r3, #16
 1455 03de 82F82830 		strb	r3, [r2, #40]
 448:..\..\..\lvgl\version_6.1.2\lvgl\src\lv_objx/lv_tileview.c ****                         lv_page_start_edge_flash(tileview);
 1456              		.loc 3 448 0
 1457 03e2 B86A     		ldr	r0, [r7, #40]
 1458 03e4 FFF7FEFF 		bl	lv_page_start_edge_flash
 1459              	.L75:
 449:..\..\..\lvgl\version_6.1.2\lvgl\src\lv_objx/lv_tileview.c ****                     }
 450:..\..\..\lvgl\version_6.1.2\lvgl\src\lv_objx/lv_tileview.c **** #endif
 451:..\..\..\lvgl\version_6.1.2\lvgl\src\lv_objx/lv_tileview.c **** 
 452:..\..\..\lvgl\version_6.1.2\lvgl\src\lv_objx/lv_tileview.c ****                     lv_obj_set_x(scrl, -ext->act_id.x * w + style_bg->body.padding.left);
 1460              		.loc 3 452 0
 1461 03e8 FB69     		ldr	r3, [r7, #28]
 1462 03ea B3F93830 		ldrsh	r3, [r3, #56]
 1463 03ee 5B42     		negs	r3, r3
 1464 03f0 9AB2     		uxth	r2, r3
 1465 03f2 BB8A     		ldrh	r3, [r7, #20]
 1466 03f4 12FB03F3 		smulbb	r3, r2, r3
 1467 03f8 9AB2     		uxth	r2, r3
 1468 03fa 7B6A     		ldr	r3, [r7, #36]
 1469 03fc B3F92430 		ldrsh	r3, [r3, #36]
 1470 0400 9BB2     		uxth	r3, r3
 1471 0402 1344     		add	r3, r3, r2
 1472 0404 9BB2     		uxth	r3, r3
ARM GAS  C:\Users\tmj32\AppData\Local\Temp\cctNeIsL.s 			page 41


 1473 0406 1BB2     		sxth	r3, r3
 1474 0408 1946     		mov	r1, r3
 1475 040a F868     		ldr	r0, [r7, #12]
 1476 040c FFF7FEFF 		bl	lv_obj_set_x
 1477              	.L74:
 453:..\..\..\lvgl\version_6.1.2\lvgl\src\lv_objx/lv_tileview.c ****                 }
 454:..\..\..\lvgl\version_6.1.2\lvgl\src\lv_objx/lv_tileview.c ****             }
 455:..\..\..\lvgl\version_6.1.2\lvgl\src\lv_objx/lv_tileview.c ****             if(ext->drag_right_en == 0 && indev->proc.types.pointer.vect.x < 0 && ext->drag_ver == 
 1478              		.loc 3 455 0
 1479 0410 FB69     		ldr	r3, [r7, #28]
 1480 0412 93F83C30 		ldrb	r3, [r3, #60]	@ zero_extendqisi2
 1481 0416 03F00803 		and	r3, r3, #8
 1482 041a DBB2     		uxtb	r3, r3
 1483 041c 002B     		cmp	r3, #0
 1484 041e 5FD1     		bne	.L76
 1485              		.loc 3 455 0 is_stmt 0 discriminator 1
 1486 0420 3B6A     		ldr	r3, [r7, #32]
 1487 0422 B3F92830 		ldrsh	r3, [r3, #40]
 1488 0426 002B     		cmp	r3, #0
 1489 0428 5ADA     		bge	.L76
 1490              		.loc 3 455 0 discriminator 2
 1491 042a FB69     		ldr	r3, [r7, #28]
 1492 042c 93F83C30 		ldrb	r3, [r3, #60]	@ zero_extendqisi2
 1493 0430 03F02003 		and	r3, r3, #32
 1494 0434 DBB2     		uxtb	r3, r3
 1495 0436 002B     		cmp	r3, #0
 1496 0438 52D1     		bne	.L76
 456:..\..\..\lvgl\version_6.1.2\lvgl\src\lv_objx/lv_tileview.c ****                 if(x < -(ext->act_id.x * w)) {
 1497              		.loc 3 456 0 is_stmt 1
 1498 043a B7F91A20 		ldrsh	r2, [r7, #26]
 1499 043e FB69     		ldr	r3, [r7, #28]
 1500 0440 B3F93830 		ldrsh	r3, [r3, #56]
 1501 0444 1946     		mov	r1, r3
 1502 0446 B7F91430 		ldrsh	r3, [r7, #20]
 1503 044a 03FB01F3 		mul	r3, r3, r1
 1504 044e 5B42     		negs	r3, r3
 1505 0450 9A42     		cmp	r2, r3
 1506 0452 31DA     		bge	.L77
 457:..\..\..\lvgl\version_6.1.2\lvgl\src\lv_objx/lv_tileview.c **** #if LV_USE_ANIMATION
 458:..\..\..\lvgl\version_6.1.2\lvgl\src\lv_objx/lv_tileview.c ****                     if(ext->page.edge_flash.enabled && ext->page.edge_flash.left_ip == 0 &&
 1507              		.loc 3 458 0
 1508 0454 FB69     		ldr	r3, [r7, #28]
 1509 0456 93F82830 		ldrb	r3, [r3, #40]	@ zero_extendqisi2
 1510 045a 03F00103 		and	r3, r3, #1
 1511 045e DBB2     		uxtb	r3, r3
 1512 0460 002B     		cmp	r3, #0
 1513 0462 29D0     		beq	.L77
 1514              		.loc 3 458 0 is_stmt 0 discriminator 1
 1515 0464 FB69     		ldr	r3, [r7, #28]
 1516 0466 93F82830 		ldrb	r3, [r3, #40]	@ zero_extendqisi2
 1517 046a 03F01003 		and	r3, r3, #16
 1518 046e DBB2     		uxtb	r3, r3
 1519 0470 002B     		cmp	r3, #0
 1520 0472 21D1     		bne	.L77
 459:..\..\..\lvgl\version_6.1.2\lvgl\src\lv_objx/lv_tileview.c ****                        ext->page.edge_flash.right_ip == 0 && ext->page.edge_flash.top_ip == 0 &&
 1521              		.loc 3 459 0 is_stmt 1 discriminator 2
 1522 0474 FB69     		ldr	r3, [r7, #28]
ARM GAS  C:\Users\tmj32\AppData\Local\Temp\cctNeIsL.s 			page 42


 1523 0476 93F82830 		ldrb	r3, [r3, #40]	@ zero_extendqisi2
 1524 047a 03F00803 		and	r3, r3, #8
 1525 047e DBB2     		uxtb	r3, r3
 458:..\..\..\lvgl\version_6.1.2\lvgl\src\lv_objx/lv_tileview.c ****                        ext->page.edge_flash.right_ip == 0 && ext->page.edge_flash.top_ip == 0 &&
 1526              		.loc 3 458 0 discriminator 2
 1527 0480 002B     		cmp	r3, #0
 1528 0482 19D1     		bne	.L77
 1529              		.loc 3 459 0
 1530 0484 FB69     		ldr	r3, [r7, #28]
 1531 0486 93F82830 		ldrb	r3, [r3, #40]	@ zero_extendqisi2
 1532 048a 03F00203 		and	r3, r3, #2
 1533 048e DBB2     		uxtb	r3, r3
 1534 0490 002B     		cmp	r3, #0
 1535 0492 11D1     		bne	.L77
 460:..\..\..\lvgl\version_6.1.2\lvgl\src\lv_objx/lv_tileview.c ****                        ext->page.edge_flash.bottom_ip == 0) {
 1536              		.loc 3 460 0 discriminator 1
 1537 0494 FB69     		ldr	r3, [r7, #28]
 1538 0496 93F82830 		ldrb	r3, [r3, #40]	@ zero_extendqisi2
 1539 049a 03F00403 		and	r3, r3, #4
 1540 049e DBB2     		uxtb	r3, r3
 459:..\..\..\lvgl\version_6.1.2\lvgl\src\lv_objx/lv_tileview.c ****                        ext->page.edge_flash.right_ip == 0 && ext->page.edge_flash.top_ip == 0 &&
 1541              		.loc 3 459 0 discriminator 1
 1542 04a0 002B     		cmp	r3, #0
 1543 04a2 09D1     		bne	.L77
 461:..\..\..\lvgl\version_6.1.2\lvgl\src\lv_objx/lv_tileview.c ****                         ext->page.edge_flash.right_ip = 1;
 1544              		.loc 3 461 0
 1545 04a4 FA69     		ldr	r2, [r7, #28]
 1546 04a6 92F82830 		ldrb	r3, [r2, #40]
 1547 04aa 43F00803 		orr	r3, r3, #8
 1548 04ae 82F82830 		strb	r3, [r2, #40]
 462:..\..\..\lvgl\version_6.1.2\lvgl\src\lv_objx/lv_tileview.c ****                         lv_page_start_edge_flash(tileview);
 1549              		.loc 3 462 0
 1550 04b2 B86A     		ldr	r0, [r7, #40]
 1551 04b4 FFF7FEFF 		bl	lv_page_start_edge_flash
 1552              	.L77:
 463:..\..\..\lvgl\version_6.1.2\lvgl\src\lv_objx/lv_tileview.c ****                     }
 464:..\..\..\lvgl\version_6.1.2\lvgl\src\lv_objx/lv_tileview.c **** #endif
 465:..\..\..\lvgl\version_6.1.2\lvgl\src\lv_objx/lv_tileview.c ****                 }
 466:..\..\..\lvgl\version_6.1.2\lvgl\src\lv_objx/lv_tileview.c **** 
 467:..\..\..\lvgl\version_6.1.2\lvgl\src\lv_objx/lv_tileview.c ****                 lv_obj_set_x(scrl, -ext->act_id.x * w + style_bg->body.padding.top);
 1553              		.loc 3 467 0
 1554 04b8 FB69     		ldr	r3, [r7, #28]
 1555 04ba B3F93830 		ldrsh	r3, [r3, #56]
 1556 04be 5B42     		negs	r3, r3
 1557 04c0 9AB2     		uxth	r2, r3
 1558 04c2 BB8A     		ldrh	r3, [r7, #20]
 1559 04c4 12FB03F3 		smulbb	r3, r2, r3
 1560 04c8 9AB2     		uxth	r2, r3
 1561 04ca 7B6A     		ldr	r3, [r7, #36]
 1562 04cc B3F92030 		ldrsh	r3, [r3, #32]
 1563 04d0 9BB2     		uxth	r3, r3
 1564 04d2 1344     		add	r3, r3, r2
 1565 04d4 9BB2     		uxth	r3, r3
 1566 04d6 1BB2     		sxth	r3, r3
 1567 04d8 1946     		mov	r1, r3
 1568 04da F868     		ldr	r0, [r7, #12]
 1569 04dc FFF7FEFF 		bl	lv_obj_set_x
ARM GAS  C:\Users\tmj32\AppData\Local\Temp\cctNeIsL.s 			page 43


 1570              	.L76:
 468:..\..\..\lvgl\version_6.1.2\lvgl\src\lv_objx/lv_tileview.c ****             }
 469:..\..\..\lvgl\version_6.1.2\lvgl\src\lv_objx/lv_tileview.c **** 
 470:..\..\..\lvgl\version_6.1.2\lvgl\src\lv_objx/lv_tileview.c ****             /*Apply the drag constraints*/
 471:..\..\..\lvgl\version_6.1.2\lvgl\src\lv_objx/lv_tileview.c ****             if(ext->drag_ver == 0)
 1571              		.loc 3 471 0
 1572 04e0 FB69     		ldr	r3, [r7, #28]
 1573 04e2 93F83C30 		ldrb	r3, [r3, #60]	@ zero_extendqisi2
 1574 04e6 03F02003 		and	r3, r3, #32
 1575 04ea DBB2     		uxtb	r3, r3
 1576 04ec 002B     		cmp	r3, #0
 1577 04ee 17D1     		bne	.L78
 472:..\..\..\lvgl\version_6.1.2\lvgl\src\lv_objx/lv_tileview.c ****                 lv_obj_set_y(scrl, -ext->act_id.y * lv_obj_get_height(tileview) + style_bg->body.pa
 1578              		.loc 3 472 0
 1579 04f0 FB69     		ldr	r3, [r7, #28]
 1580 04f2 B3F93A30 		ldrsh	r3, [r3, #58]
 1581 04f6 5B42     		negs	r3, r3
 1582 04f8 9CB2     		uxth	r4, r3
 1583 04fa B86A     		ldr	r0, [r7, #40]
 1584 04fc FFF7FEFF 		bl	lv_obj_get_height
 1585 0500 0346     		mov	r3, r0
 1586 0502 9BB2     		uxth	r3, r3
 1587 0504 14FB03F3 		smulbb	r3, r4, r3
 1588 0508 9AB2     		uxth	r2, r3
 1589 050a 7B6A     		ldr	r3, [r7, #36]
 1590 050c B3F92030 		ldrsh	r3, [r3, #32]
 1591 0510 9BB2     		uxth	r3, r3
 1592 0512 1344     		add	r3, r3, r2
 1593 0514 9BB2     		uxth	r3, r3
 1594 0516 1BB2     		sxth	r3, r3
 1595 0518 1946     		mov	r1, r3
 1596 051a F868     		ldr	r0, [r7, #12]
 1597 051c FFF7FEFF 		bl	lv_obj_set_y
 1598              	.L78:
 473:..\..\..\lvgl\version_6.1.2\lvgl\src\lv_objx/lv_tileview.c ****             if(ext->drag_hor == 0)
 1599              		.loc 3 473 0
 1600 0520 FB69     		ldr	r3, [r7, #28]
 1601 0522 93F83C30 		ldrb	r3, [r3, #60]	@ zero_extendqisi2
 1602 0526 03F01003 		and	r3, r3, #16
 1603 052a DBB2     		uxtb	r3, r3
 1604 052c 002B     		cmp	r3, #0
 1605 052e 17D1     		bne	.L61
 474:..\..\..\lvgl\version_6.1.2\lvgl\src\lv_objx/lv_tileview.c ****                 lv_obj_set_x(scrl, -ext->act_id.x * lv_obj_get_width(tileview) + style_bg->body.pad
 1606              		.loc 3 474 0
 1607 0530 FB69     		ldr	r3, [r7, #28]
 1608 0532 B3F93830 		ldrsh	r3, [r3, #56]
 1609 0536 5B42     		negs	r3, r3
 1610 0538 9CB2     		uxth	r4, r3
 1611 053a B86A     		ldr	r0, [r7, #40]
 1612 053c FFF7FEFF 		bl	lv_obj_get_width
 1613 0540 0346     		mov	r3, r0
 1614 0542 9BB2     		uxth	r3, r3
 1615 0544 14FB03F3 		smulbb	r3, r4, r3
 1616 0548 9AB2     		uxth	r2, r3
 1617 054a 7B6A     		ldr	r3, [r7, #36]
 1618 054c B3F92430 		ldrsh	r3, [r3, #36]
 1619 0550 9BB2     		uxth	r3, r3
ARM GAS  C:\Users\tmj32\AppData\Local\Temp\cctNeIsL.s 			page 44


 1620 0552 1344     		add	r3, r3, r2
 1621 0554 9BB2     		uxth	r3, r3
 1622 0556 1BB2     		sxth	r3, r3
 1623 0558 1946     		mov	r1, r3
 1624 055a F868     		ldr	r0, [r7, #12]
 1625 055c FFF7FEFF 		bl	lv_obj_set_x
 1626              	.L61:
 1627              	.LBE6:
 1628              	.LBE5:
 475:..\..\..\lvgl\version_6.1.2\lvgl\src\lv_objx/lv_tileview.c ****         }
 476:..\..\..\lvgl\version_6.1.2\lvgl\src\lv_objx/lv_tileview.c ****     }
 477:..\..\..\lvgl\version_6.1.2\lvgl\src\lv_objx/lv_tileview.c ****     return res;
 1629              		.loc 3 477 0
 1630 0560 97F82F30 		ldrb	r3, [r7, #47]	@ zero_extendqisi2
 1631              	.L59:
 478:..\..\..\lvgl\version_6.1.2\lvgl\src\lv_objx/lv_tileview.c **** }
 1632              		.loc 3 478 0
 1633 0564 1846     		mov	r0, r3
 1634 0566 3437     		adds	r7, r7, #52
 1635              		.cfi_def_cfa_offset 12
 1636 0568 BD46     		mov	sp, r7
 1637              		.cfi_def_cfa_register 13
 1638              		@ sp needed
 1639 056a 90BD     		pop	{r4, r7, pc}
 1640              		.cfi_endproc
 1641              	.LFE59:
 1642              		.size	lv_tileview_scrl_signal, .-lv_tileview_scrl_signal
 1643              		.section	.text.tileview_scrl_event_cb,"ax",%progbits
 1644              		.align	2
 1645              		.thumb
 1646              		.thumb_func
 1647              		.type	tileview_scrl_event_cb, %function
 1648              	tileview_scrl_event_cb:
 1649              	.LFB60:
 479:..\..\..\lvgl\version_6.1.2\lvgl\src\lv_objx/lv_tileview.c **** 
 480:..\..\..\lvgl\version_6.1.2\lvgl\src\lv_objx/lv_tileview.c **** static void tileview_scrl_event_cb(lv_obj_t * scrl, lv_event_t event)
 481:..\..\..\lvgl\version_6.1.2\lvgl\src\lv_objx/lv_tileview.c **** {
 1650              		.loc 3 481 0
 1651              		.cfi_startproc
 1652              		@ args = 0, pretend = 0, frame = 24
 1653              		@ frame_needed = 1, uses_anonymous_args = 0
 1654 0000 80B5     		push	{r7, lr}
 1655              		.cfi_def_cfa_offset 8
 1656              		.cfi_offset 7, -8
 1657              		.cfi_offset 14, -4
 1658 0002 86B0     		sub	sp, sp, #24
 1659              		.cfi_def_cfa_offset 32
 1660 0004 00AF     		add	r7, sp, #0
 1661              		.cfi_def_cfa_register 7
 1662 0006 7860     		str	r0, [r7, #4]
 1663 0008 0B46     		mov	r3, r1
 1664 000a FB70     		strb	r3, [r7, #3]
 482:..\..\..\lvgl\version_6.1.2\lvgl\src\lv_objx/lv_tileview.c ****     lv_obj_t * tileview = lv_obj_get_parent(scrl);
 1665              		.loc 3 482 0
 1666 000c 7868     		ldr	r0, [r7, #4]
 1667 000e FFF7FEFF 		bl	lv_obj_get_parent
 1668 0012 7861     		str	r0, [r7, #20]
ARM GAS  C:\Users\tmj32\AppData\Local\Temp\cctNeIsL.s 			page 45


 483:..\..\..\lvgl\version_6.1.2\lvgl\src\lv_objx/lv_tileview.c **** 
 484:..\..\..\lvgl\version_6.1.2\lvgl\src\lv_objx/lv_tileview.c ****     /*Initialize some variables on PRESS*/
 485:..\..\..\lvgl\version_6.1.2\lvgl\src\lv_objx/lv_tileview.c ****     if(event == LV_EVENT_PRESSED) {
 1669              		.loc 3 485 0
 1670 0014 FB78     		ldrb	r3, [r7, #3]	@ zero_extendqisi2
 1671 0016 002B     		cmp	r3, #0
 1672 0018 15D1     		bne	.L82
 1673              	.LBB7:
 486:..\..\..\lvgl\version_6.1.2\lvgl\src\lv_objx/lv_tileview.c ****         lv_tileview_ext_t * ext = lv_obj_get_ext_attr(tileview);
 1674              		.loc 3 486 0
 1675 001a 7869     		ldr	r0, [r7, #20]
 1676 001c FFF7FEFF 		bl	lv_obj_get_ext_attr
 1677 0020 3861     		str	r0, [r7, #16]
 487:..\..\..\lvgl\version_6.1.2\lvgl\src\lv_objx/lv_tileview.c ****         ext->drag_hor           = 0;
 1678              		.loc 3 487 0
 1679 0022 3A69     		ldr	r2, [r7, #16]
 1680 0024 92F83C30 		ldrb	r3, [r2, #60]
 1681 0028 6FF30413 		bfc	r3, #4, #1
 1682 002c 82F83C30 		strb	r3, [r2, #60]
 488:..\..\..\lvgl\version_6.1.2\lvgl\src\lv_objx/lv_tileview.c ****         ext->drag_ver           = 0;
 1683              		.loc 3 488 0
 1684 0030 3A69     		ldr	r2, [r7, #16]
 1685 0032 92F83C30 		ldrb	r3, [r2, #60]
 1686 0036 6FF34513 		bfc	r3, #5, #1
 1687 003a 82F83C30 		strb	r3, [r2, #60]
 489:..\..\..\lvgl\version_6.1.2\lvgl\src\lv_objx/lv_tileview.c ****         set_valid_drag_dirs(tileview);
 1688              		.loc 3 489 0
 1689 003e 7869     		ldr	r0, [r7, #20]
 1690 0040 FFF7FEFF 		bl	set_valid_drag_dirs
 1691              	.LBE7:
 490:..\..\..\lvgl\version_6.1.2\lvgl\src\lv_objx/lv_tileview.c ****     }
 491:..\..\..\lvgl\version_6.1.2\lvgl\src\lv_objx/lv_tileview.c ****     /*Animate the tabview to the correct location on RELEASE*/
 492:..\..\..\lvgl\version_6.1.2\lvgl\src\lv_objx/lv_tileview.c ****     else if(event == LV_EVENT_PRESS_LOST || event == LV_EVENT_RELEASED) {
 493:..\..\..\lvgl\version_6.1.2\lvgl\src\lv_objx/lv_tileview.c ****         /* If the element was dragged and it moved the tileview finish the drag manually to
 494:..\..\..\lvgl\version_6.1.2\lvgl\src\lv_objx/lv_tileview.c ****          * let the tileview to finish the move.*/
 495:..\..\..\lvgl\version_6.1.2\lvgl\src\lv_objx/lv_tileview.c ****         lv_indev_t * indev      = lv_indev_get_act();
 496:..\..\..\lvgl\version_6.1.2\lvgl\src\lv_objx/lv_tileview.c ****         lv_tileview_ext_t * ext = lv_obj_get_ext_attr(tileview);
 497:..\..\..\lvgl\version_6.1.2\lvgl\src\lv_objx/lv_tileview.c ****         if(lv_indev_is_dragging(indev) && (ext->drag_hor || ext->drag_ver)) {
 498:..\..\..\lvgl\version_6.1.2\lvgl\src\lv_objx/lv_tileview.c ****             indev->proc.types.pointer.drag_in_prog = 0;
 499:..\..\..\lvgl\version_6.1.2\lvgl\src\lv_objx/lv_tileview.c ****             drag_end_handler(tileview);
 500:..\..\..\lvgl\version_6.1.2\lvgl\src\lv_objx/lv_tileview.c ****         }
 501:..\..\..\lvgl\version_6.1.2\lvgl\src\lv_objx/lv_tileview.c **** 
 502:..\..\..\lvgl\version_6.1.2\lvgl\src\lv_objx/lv_tileview.c ****     }
 503:..\..\..\lvgl\version_6.1.2\lvgl\src\lv_objx/lv_tileview.c **** }
 1692              		.loc 3 503 0
 1693 0044 2CE0     		b	.L86
 1694              	.L82:
 492:..\..\..\lvgl\version_6.1.2\lvgl\src\lv_objx/lv_tileview.c ****         /* If the element was dragged and it moved the tileview finish the drag manually to
 1695              		.loc 3 492 0
 1696 0046 FB78     		ldrb	r3, [r7, #3]	@ zero_extendqisi2
 1697 0048 022B     		cmp	r3, #2
 1698 004a 02D0     		beq	.L84
 492:..\..\..\lvgl\version_6.1.2\lvgl\src\lv_objx/lv_tileview.c ****         /* If the element was dragged and it moved the tileview finish the drag manually to
 1699              		.loc 3 492 0 is_stmt 0 discriminator 1
 1700 004c FB78     		ldrb	r3, [r7, #3]	@ zero_extendqisi2
 1701 004e 072B     		cmp	r3, #7
 1702 0050 26D1     		bne	.L86
ARM GAS  C:\Users\tmj32\AppData\Local\Temp\cctNeIsL.s 			page 46


 1703              	.L84:
 1704              	.LBB8:
 495:..\..\..\lvgl\version_6.1.2\lvgl\src\lv_objx/lv_tileview.c ****         lv_tileview_ext_t * ext = lv_obj_get_ext_attr(tileview);
 1705              		.loc 3 495 0 is_stmt 1
 1706 0052 FFF7FEFF 		bl	lv_indev_get_act
 1707 0056 F860     		str	r0, [r7, #12]
 496:..\..\..\lvgl\version_6.1.2\lvgl\src\lv_objx/lv_tileview.c ****         if(lv_indev_is_dragging(indev) && (ext->drag_hor || ext->drag_ver)) {
 1708              		.loc 3 496 0
 1709 0058 7869     		ldr	r0, [r7, #20]
 1710 005a FFF7FEFF 		bl	lv_obj_get_ext_attr
 1711 005e B860     		str	r0, [r7, #8]
 497:..\..\..\lvgl\version_6.1.2\lvgl\src\lv_objx/lv_tileview.c ****             indev->proc.types.pointer.drag_in_prog = 0;
 1712              		.loc 3 497 0
 1713 0060 F868     		ldr	r0, [r7, #12]
 1714 0062 FFF7FEFF 		bl	lv_indev_is_dragging
 1715 0066 0346     		mov	r3, r0
 1716 0068 002B     		cmp	r3, #0
 1717 006a 19D0     		beq	.L86
 497:..\..\..\lvgl\version_6.1.2\lvgl\src\lv_objx/lv_tileview.c ****             indev->proc.types.pointer.drag_in_prog = 0;
 1718              		.loc 3 497 0 is_stmt 0 discriminator 1
 1719 006c BB68     		ldr	r3, [r7, #8]
 1720 006e 93F83C30 		ldrb	r3, [r3, #60]	@ zero_extendqisi2
 1721 0072 03F01003 		and	r3, r3, #16
 1722 0076 DBB2     		uxtb	r3, r3
 1723 0078 002B     		cmp	r3, #0
 1724 007a 07D1     		bne	.L85
 497:..\..\..\lvgl\version_6.1.2\lvgl\src\lv_objx/lv_tileview.c ****             indev->proc.types.pointer.drag_in_prog = 0;
 1725              		.loc 3 497 0 discriminator 2
 1726 007c BB68     		ldr	r3, [r7, #8]
 1727 007e 93F83C30 		ldrb	r3, [r3, #60]	@ zero_extendqisi2
 1728 0082 03F02003 		and	r3, r3, #32
 1729 0086 DBB2     		uxtb	r3, r3
 1730 0088 002B     		cmp	r3, #0
 1731 008a 09D0     		beq	.L86
 1732              	.L85:
 498:..\..\..\lvgl\version_6.1.2\lvgl\src\lv_objx/lv_tileview.c ****             drag_end_handler(tileview);
 1733              		.loc 3 498 0 is_stmt 1
 1734 008c FA68     		ldr	r2, [r7, #12]
 1735 008e 92F84030 		ldrb	r3, [r2, #64]
 1736 0092 6FF34103 		bfc	r3, #1, #1
 1737 0096 82F84030 		strb	r3, [r2, #64]
 499:..\..\..\lvgl\version_6.1.2\lvgl\src\lv_objx/lv_tileview.c ****         }
 1738              		.loc 3 499 0
 1739 009a 7869     		ldr	r0, [r7, #20]
 1740 009c FFF7FEFF 		bl	drag_end_handler
 1741              	.L86:
 1742              	.LBE8:
 1743              		.loc 3 503 0
 1744 00a0 00BF     		nop
 1745 00a2 1837     		adds	r7, r7, #24
 1746              		.cfi_def_cfa_offset 8
 1747 00a4 BD46     		mov	sp, r7
 1748              		.cfi_def_cfa_register 13
 1749              		@ sp needed
 1750 00a6 80BD     		pop	{r7, pc}
 1751              		.cfi_endproc
 1752              	.LFE60:
ARM GAS  C:\Users\tmj32\AppData\Local\Temp\cctNeIsL.s 			page 47


 1753              		.size	tileview_scrl_event_cb, .-tileview_scrl_event_cb
 1754              		.section	.text.drag_end_handler,"ax",%progbits
 1755              		.align	2
 1756              		.thumb
 1757              		.thumb_func
 1758              		.type	drag_end_handler, %function
 1759              	drag_end_handler:
 1760              	.LFB61:
 504:..\..\..\lvgl\version_6.1.2\lvgl\src\lv_objx/lv_tileview.c **** 
 505:..\..\..\lvgl\version_6.1.2\lvgl\src\lv_objx/lv_tileview.c **** /**
 506:..\..\..\lvgl\version_6.1.2\lvgl\src\lv_objx/lv_tileview.c ****  * Called when the user releases an element of the tileview after dragging it.
 507:..\..\..\lvgl\version_6.1.2\lvgl\src\lv_objx/lv_tileview.c ****  * @param tileview pointer to a tileview object
 508:..\..\..\lvgl\version_6.1.2\lvgl\src\lv_objx/lv_tileview.c ****  */
 509:..\..\..\lvgl\version_6.1.2\lvgl\src\lv_objx/lv_tileview.c **** static void drag_end_handler(lv_obj_t * tileview)
 510:..\..\..\lvgl\version_6.1.2\lvgl\src\lv_objx/lv_tileview.c **** {
 1761              		.loc 3 510 0
 1762              		.cfi_startproc
 1763              		@ args = 0, pretend = 0, frame = 48
 1764              		@ frame_needed = 1, uses_anonymous_args = 0
 1765 0000 90B5     		push	{r4, r7, lr}
 1766              		.cfi_def_cfa_offset 12
 1767              		.cfi_offset 4, -12
 1768              		.cfi_offset 7, -8
 1769              		.cfi_offset 14, -4
 1770 0002 8DB0     		sub	sp, sp, #52
 1771              		.cfi_def_cfa_offset 64
 1772 0004 00AF     		add	r7, sp, #0
 1773              		.cfi_def_cfa_register 7
 1774 0006 7860     		str	r0, [r7, #4]
 511:..\..\..\lvgl\version_6.1.2\lvgl\src\lv_objx/lv_tileview.c ****     lv_tileview_ext_t * ext = lv_obj_get_ext_attr(tileview);
 1775              		.loc 3 511 0
 1776 0008 7868     		ldr	r0, [r7, #4]
 1777 000a FFF7FEFF 		bl	lv_obj_get_ext_attr
 1778 000e 7862     		str	r0, [r7, #36]
 512:..\..\..\lvgl\version_6.1.2\lvgl\src\lv_objx/lv_tileview.c ****     lv_indev_t * indev      = lv_indev_get_act();
 1779              		.loc 3 512 0
 1780 0010 FFF7FEFF 		bl	lv_indev_get_act
 1781 0014 3862     		str	r0, [r7, #32]
 513:..\..\..\lvgl\version_6.1.2\lvgl\src\lv_objx/lv_tileview.c ****     lv_point_t point_act;
 514:..\..\..\lvgl\version_6.1.2\lvgl\src\lv_objx/lv_tileview.c ****     lv_indev_get_point(indev, &point_act);
 1782              		.loc 3 514 0
 1783 0016 07F11803 		add	r3, r7, #24
 1784 001a 1946     		mov	r1, r3
 1785 001c 386A     		ldr	r0, [r7, #32]
 1786 001e FFF7FEFF 		bl	lv_indev_get_point
 515:..\..\..\lvgl\version_6.1.2\lvgl\src\lv_objx/lv_tileview.c ****     lv_obj_t * scrl = lv_page_get_scrl(tileview);
 1787              		.loc 3 515 0
 1788 0022 7868     		ldr	r0, [r7, #4]
 1789 0024 FFF7FEFF 		bl	lv_page_get_scrl
 1790 0028 F861     		str	r0, [r7, #28]
 516:..\..\..\lvgl\version_6.1.2\lvgl\src\lv_objx/lv_tileview.c ****     lv_point_t p;
 517:..\..\..\lvgl\version_6.1.2\lvgl\src\lv_objx/lv_tileview.c **** 
 518:..\..\..\lvgl\version_6.1.2\lvgl\src\lv_objx/lv_tileview.c ****     p.x = -(scrl->coords.x1 - lv_obj_get_width(tileview) / 2);
 1791              		.loc 3 518 0
 1792 002a 7868     		ldr	r0, [r7, #4]
 1793 002c FFF7FEFF 		bl	lv_obj_get_width
 1794 0030 0346     		mov	r3, r0
ARM GAS  C:\Users\tmj32\AppData\Local\Temp\cctNeIsL.s 			page 48


 1795 0032 DA0F     		lsrs	r2, r3, #31
 1796 0034 1344     		add	r3, r3, r2
 1797 0036 5B10     		asrs	r3, r3, #1
 1798 0038 1BB2     		sxth	r3, r3
 1799 003a 9AB2     		uxth	r2, r3
 1800 003c FB69     		ldr	r3, [r7, #28]
 1801 003e B3F91030 		ldrsh	r3, [r3, #16]
 1802 0042 9BB2     		uxth	r3, r3
 1803 0044 D31A     		subs	r3, r2, r3
 1804 0046 9BB2     		uxth	r3, r3
 1805 0048 1BB2     		sxth	r3, r3
 1806 004a BB82     		strh	r3, [r7, #20]	@ movhi
 519:..\..\..\lvgl\version_6.1.2\lvgl\src\lv_objx/lv_tileview.c ****     p.y = -(scrl->coords.y1 - lv_obj_get_height(tileview) / 2);
 1807              		.loc 3 519 0
 1808 004c 7868     		ldr	r0, [r7, #4]
 1809 004e FFF7FEFF 		bl	lv_obj_get_height
 1810 0052 0346     		mov	r3, r0
 1811 0054 DA0F     		lsrs	r2, r3, #31
 1812 0056 1344     		add	r3, r3, r2
 1813 0058 5B10     		asrs	r3, r3, #1
 1814 005a 1BB2     		sxth	r3, r3
 1815 005c 9AB2     		uxth	r2, r3
 1816 005e FB69     		ldr	r3, [r7, #28]
 1817 0060 B3F91230 		ldrsh	r3, [r3, #18]
 1818 0064 9BB2     		uxth	r3, r3
 1819 0066 D31A     		subs	r3, r2, r3
 1820 0068 9BB2     		uxth	r3, r3
 1821 006a 1BB2     		sxth	r3, r3
 1822 006c FB82     		strh	r3, [r7, #22]	@ movhi
 520:..\..\..\lvgl\version_6.1.2\lvgl\src\lv_objx/lv_tileview.c **** 
 521:..\..\..\lvgl\version_6.1.2\lvgl\src\lv_objx/lv_tileview.c ****     /*From the drag vector (drag throw) predict the end position*/
 522:..\..\..\lvgl\version_6.1.2\lvgl\src\lv_objx/lv_tileview.c ****     if(ext->drag_hor) {
 1823              		.loc 3 522 0
 1824 006e 7B6A     		ldr	r3, [r7, #36]
 1825 0070 93F83C30 		ldrb	r3, [r3, #60]	@ zero_extendqisi2
 1826 0074 03F01003 		and	r3, r3, #16
 1827 0078 DBB2     		uxtb	r3, r3
 1828 007a 002B     		cmp	r3, #0
 1829 007c 2BD0     		beq	.L88
 1830              	.LBB9:
 523:..\..\..\lvgl\version_6.1.2\lvgl\src\lv_objx/lv_tileview.c ****         lv_point_t vect;
 524:..\..\..\lvgl\version_6.1.2\lvgl\src\lv_objx/lv_tileview.c ****         lv_indev_get_vect(indev, &vect);
 1831              		.loc 3 524 0
 1832 007e 07F11003 		add	r3, r7, #16
 1833 0082 1946     		mov	r1, r3
 1834 0084 386A     		ldr	r0, [r7, #32]
 1835 0086 FFF7FEFF 		bl	lv_indev_get_vect
 525:..\..\..\lvgl\version_6.1.2\lvgl\src\lv_objx/lv_tileview.c ****         lv_coord_t predict = 0;
 1836              		.loc 3 525 0
 1837 008a 0023     		movs	r3, #0
 1838 008c FB85     		strh	r3, [r7, #46]	@ movhi
 526:..\..\..\lvgl\version_6.1.2\lvgl\src\lv_objx/lv_tileview.c **** 
 527:..\..\..\lvgl\version_6.1.2\lvgl\src\lv_objx/lv_tileview.c ****         while(vect.x != 0) {
 1839              		.loc 3 527 0
 1840 008e 15E0     		b	.L89
 1841              	.L90:
 528:..\..\..\lvgl\version_6.1.2\lvgl\src\lv_objx/lv_tileview.c ****             predict += vect.x;
ARM GAS  C:\Users\tmj32\AppData\Local\Temp\cctNeIsL.s 			page 49


 1842              		.loc 3 528 0
 1843 0090 B7F91030 		ldrsh	r3, [r7, #16]
 1844 0094 9AB2     		uxth	r2, r3
 1845 0096 FB8D     		ldrh	r3, [r7, #46]
 1846 0098 1344     		add	r3, r3, r2
 1847 009a 9BB2     		uxth	r3, r3
 1848 009c FB85     		strh	r3, [r7, #46]	@ movhi
 529:..\..\..\lvgl\version_6.1.2\lvgl\src\lv_objx/lv_tileview.c ****             vect.x = vect.x * (100 - LV_INDEV_DEF_DRAG_THROW) / 100;
 1849              		.loc 3 529 0
 1850 009e B7F91030 		ldrsh	r3, [r7, #16]
 1851 00a2 1A46     		mov	r2, r3
 1852 00a4 1346     		mov	r3, r2
 1853 00a6 9B00     		lsls	r3, r3, #2
 1854 00a8 1344     		add	r3, r3, r2
 1855 00aa 1B01     		lsls	r3, r3, #4
 1856 00ac 524A     		ldr	r2, .L98
 1857 00ae 82FB0312 		smull	r1, r2, r2, r3
 1858 00b2 5211     		asrs	r2, r2, #5
 1859 00b4 DB17     		asrs	r3, r3, #31
 1860 00b6 D31A     		subs	r3, r2, r3
 1861 00b8 1BB2     		sxth	r3, r3
 1862 00ba 3B82     		strh	r3, [r7, #16]	@ movhi
 1863              	.L89:
 527:..\..\..\lvgl\version_6.1.2\lvgl\src\lv_objx/lv_tileview.c ****             predict += vect.x;
 1864              		.loc 3 527 0
 1865 00bc B7F91030 		ldrsh	r3, [r7, #16]
 1866 00c0 002B     		cmp	r3, #0
 1867 00c2 E5D1     		bne	.L90
 530:..\..\..\lvgl\version_6.1.2\lvgl\src\lv_objx/lv_tileview.c ****         }
 531:..\..\..\lvgl\version_6.1.2\lvgl\src\lv_objx/lv_tileview.c **** 
 532:..\..\..\lvgl\version_6.1.2\lvgl\src\lv_objx/lv_tileview.c ****         p.x -= predict;
 1868              		.loc 3 532 0
 1869 00c4 B7F91430 		ldrsh	r3, [r7, #20]
 1870 00c8 9AB2     		uxth	r2, r3
 1871 00ca FB8D     		ldrh	r3, [r7, #46]
 1872 00cc D31A     		subs	r3, r2, r3
 1873 00ce 9BB2     		uxth	r3, r3
 1874 00d0 1BB2     		sxth	r3, r3
 1875 00d2 BB82     		strh	r3, [r7, #20]	@ movhi
 1876              	.LBE9:
 1877 00d4 32E0     		b	.L91
 1878              	.L88:
 533:..\..\..\lvgl\version_6.1.2\lvgl\src\lv_objx/lv_tileview.c ****     } else if(ext->drag_ver) {
 1879              		.loc 3 533 0
 1880 00d6 7B6A     		ldr	r3, [r7, #36]
 1881 00d8 93F83C30 		ldrb	r3, [r3, #60]	@ zero_extendqisi2
 1882 00dc 03F02003 		and	r3, r3, #32
 1883 00e0 DBB2     		uxtb	r3, r3
 1884 00e2 002B     		cmp	r3, #0
 1885 00e4 2AD0     		beq	.L91
 1886              	.LBB10:
 534:..\..\..\lvgl\version_6.1.2\lvgl\src\lv_objx/lv_tileview.c ****         lv_point_t vect;
 535:..\..\..\lvgl\version_6.1.2\lvgl\src\lv_objx/lv_tileview.c ****         lv_indev_get_vect(indev, &vect);
 1887              		.loc 3 535 0
 1888 00e6 07F10C03 		add	r3, r7, #12
 1889 00ea 1946     		mov	r1, r3
 1890 00ec 386A     		ldr	r0, [r7, #32]
ARM GAS  C:\Users\tmj32\AppData\Local\Temp\cctNeIsL.s 			page 50


 1891 00ee FFF7FEFF 		bl	lv_indev_get_vect
 536:..\..\..\lvgl\version_6.1.2\lvgl\src\lv_objx/lv_tileview.c ****         lv_coord_t predict = 0;
 1892              		.loc 3 536 0
 1893 00f2 0023     		movs	r3, #0
 1894 00f4 BB85     		strh	r3, [r7, #44]	@ movhi
 537:..\..\..\lvgl\version_6.1.2\lvgl\src\lv_objx/lv_tileview.c **** 
 538:..\..\..\lvgl\version_6.1.2\lvgl\src\lv_objx/lv_tileview.c ****         while(vect.y != 0) {
 1895              		.loc 3 538 0
 1896 00f6 15E0     		b	.L92
 1897              	.L93:
 539:..\..\..\lvgl\version_6.1.2\lvgl\src\lv_objx/lv_tileview.c ****             predict += vect.y;
 1898              		.loc 3 539 0
 1899 00f8 B7F90E30 		ldrsh	r3, [r7, #14]
 1900 00fc 9AB2     		uxth	r2, r3
 1901 00fe BB8D     		ldrh	r3, [r7, #44]
 1902 0100 1344     		add	r3, r3, r2
 1903 0102 9BB2     		uxth	r3, r3
 1904 0104 BB85     		strh	r3, [r7, #44]	@ movhi
 540:..\..\..\lvgl\version_6.1.2\lvgl\src\lv_objx/lv_tileview.c ****             vect.y = vect.y * (100 - LV_INDEV_DEF_DRAG_THROW) / 100;
 1905              		.loc 3 540 0
 1906 0106 B7F90E30 		ldrsh	r3, [r7, #14]
 1907 010a 1A46     		mov	r2, r3
 1908 010c 1346     		mov	r3, r2
 1909 010e 9B00     		lsls	r3, r3, #2
 1910 0110 1344     		add	r3, r3, r2
 1911 0112 1B01     		lsls	r3, r3, #4
 1912 0114 384A     		ldr	r2, .L98
 1913 0116 82FB0312 		smull	r1, r2, r2, r3
 1914 011a 5211     		asrs	r2, r2, #5
 1915 011c DB17     		asrs	r3, r3, #31
 1916 011e D31A     		subs	r3, r2, r3
 1917 0120 1BB2     		sxth	r3, r3
 1918 0122 FB81     		strh	r3, [r7, #14]	@ movhi
 1919              	.L92:
 538:..\..\..\lvgl\version_6.1.2\lvgl\src\lv_objx/lv_tileview.c ****             predict += vect.y;
 1920              		.loc 3 538 0
 1921 0124 B7F90E30 		ldrsh	r3, [r7, #14]
 1922 0128 002B     		cmp	r3, #0
 1923 012a E5D1     		bne	.L93
 541:..\..\..\lvgl\version_6.1.2\lvgl\src\lv_objx/lv_tileview.c ****         }
 542:..\..\..\lvgl\version_6.1.2\lvgl\src\lv_objx/lv_tileview.c **** 
 543:..\..\..\lvgl\version_6.1.2\lvgl\src\lv_objx/lv_tileview.c ****         p.y -= predict;
 1924              		.loc 3 543 0
 1925 012c B7F91630 		ldrsh	r3, [r7, #22]
 1926 0130 9AB2     		uxth	r2, r3
 1927 0132 BB8D     		ldrh	r3, [r7, #44]
 1928 0134 D31A     		subs	r3, r2, r3
 1929 0136 9BB2     		uxth	r3, r3
 1930 0138 1BB2     		sxth	r3, r3
 1931 013a FB82     		strh	r3, [r7, #22]	@ movhi
 1932              	.L91:
 1933              	.LBE10:
 544:..\..\..\lvgl\version_6.1.2\lvgl\src\lv_objx/lv_tileview.c ****     }
 545:..\..\..\lvgl\version_6.1.2\lvgl\src\lv_objx/lv_tileview.c **** 
 546:..\..\..\lvgl\version_6.1.2\lvgl\src\lv_objx/lv_tileview.c ****     /*Get the index of the tile*/
 547:..\..\..\lvgl\version_6.1.2\lvgl\src\lv_objx/lv_tileview.c ****     p.x = p.x / lv_obj_get_width(tileview);
 1934              		.loc 3 547 0
ARM GAS  C:\Users\tmj32\AppData\Local\Temp\cctNeIsL.s 			page 51


 1935 013c B7F91430 		ldrsh	r3, [r7, #20]
 1936 0140 1C46     		mov	r4, r3
 1937 0142 7868     		ldr	r0, [r7, #4]
 1938 0144 FFF7FEFF 		bl	lv_obj_get_width
 1939 0148 0346     		mov	r3, r0
 1940 014a 94FBF3F3 		sdiv	r3, r4, r3
 1941 014e 1BB2     		sxth	r3, r3
 1942 0150 BB82     		strh	r3, [r7, #20]	@ movhi
 548:..\..\..\lvgl\version_6.1.2\lvgl\src\lv_objx/lv_tileview.c ****     p.y = p.y / lv_obj_get_height(tileview);
 1943              		.loc 3 548 0
 1944 0152 B7F91630 		ldrsh	r3, [r7, #22]
 1945 0156 1C46     		mov	r4, r3
 1946 0158 7868     		ldr	r0, [r7, #4]
 1947 015a FFF7FEFF 		bl	lv_obj_get_height
 1948 015e 0346     		mov	r3, r0
 1949 0160 94FBF3F3 		sdiv	r3, r4, r3
 1950 0164 1BB2     		sxth	r3, r3
 1951 0166 FB82     		strh	r3, [r7, #22]	@ movhi
 549:..\..\..\lvgl\version_6.1.2\lvgl\src\lv_objx/lv_tileview.c **** 
 550:..\..\..\lvgl\version_6.1.2\lvgl\src\lv_objx/lv_tileview.c ****     /*Max +- move*/
 551:..\..\..\lvgl\version_6.1.2\lvgl\src\lv_objx/lv_tileview.c ****     lv_coord_t x_move = p.x - ext->act_id.x;
 1952              		.loc 3 551 0
 1953 0168 B7F91430 		ldrsh	r3, [r7, #20]
 1954 016c 9AB2     		uxth	r2, r3
 1955 016e 7B6A     		ldr	r3, [r7, #36]
 1956 0170 B3F93830 		ldrsh	r3, [r3, #56]
 1957 0174 9BB2     		uxth	r3, r3
 1958 0176 D31A     		subs	r3, r2, r3
 1959 0178 9BB2     		uxth	r3, r3
 1960 017a 7B85     		strh	r3, [r7, #42]	@ movhi
 552:..\..\..\lvgl\version_6.1.2\lvgl\src\lv_objx/lv_tileview.c ****     lv_coord_t y_move = p.y - ext->act_id.y;
 1961              		.loc 3 552 0
 1962 017c B7F91630 		ldrsh	r3, [r7, #22]
 1963 0180 9AB2     		uxth	r2, r3
 1964 0182 7B6A     		ldr	r3, [r7, #36]
 1965 0184 B3F93A30 		ldrsh	r3, [r3, #58]
 1966 0188 9BB2     		uxth	r3, r3
 1967 018a D31A     		subs	r3, r2, r3
 1968 018c 9BB2     		uxth	r3, r3
 1969 018e 3B85     		strh	r3, [r7, #40]	@ movhi
 553:..\..\..\lvgl\version_6.1.2\lvgl\src\lv_objx/lv_tileview.c ****     if(x_move < -1) x_move = -1;
 1970              		.loc 3 553 0
 1971 0190 B7F92A30 		ldrsh	r3, [r7, #42]
 1972 0194 B3F1FF3F 		cmp	r3, #-1
 1973 0198 02DA     		bge	.L94
 1974              		.loc 3 553 0 is_stmt 0 discriminator 1
 1975 019a 4FF6FF73 		movw	r3, #65535
 1976 019e 7B85     		strh	r3, [r7, #42]	@ movhi
 1977              	.L94:
 554:..\..\..\lvgl\version_6.1.2\lvgl\src\lv_objx/lv_tileview.c ****     if(x_move > 1) x_move = 1;
 1978              		.loc 3 554 0 is_stmt 1
 1979 01a0 B7F92A30 		ldrsh	r3, [r7, #42]
 1980 01a4 012B     		cmp	r3, #1
 1981 01a6 01DD     		ble	.L95
 1982              		.loc 3 554 0 is_stmt 0 discriminator 1
 1983 01a8 0123     		movs	r3, #1
 1984 01aa 7B85     		strh	r3, [r7, #42]	@ movhi
ARM GAS  C:\Users\tmj32\AppData\Local\Temp\cctNeIsL.s 			page 52


 1985              	.L95:
 555:..\..\..\lvgl\version_6.1.2\lvgl\src\lv_objx/lv_tileview.c ****     if(y_move < -1) y_move = -1;
 1986              		.loc 3 555 0 is_stmt 1
 1987 01ac B7F92830 		ldrsh	r3, [r7, #40]
 1988 01b0 B3F1FF3F 		cmp	r3, #-1
 1989 01b4 02DA     		bge	.L96
 1990              		.loc 3 555 0 is_stmt 0 discriminator 1
 1991 01b6 4FF6FF73 		movw	r3, #65535
 1992 01ba 3B85     		strh	r3, [r7, #40]	@ movhi
 1993              	.L96:
 556:..\..\..\lvgl\version_6.1.2\lvgl\src\lv_objx/lv_tileview.c ****     if(y_move > 1) y_move = 1;
 1994              		.loc 3 556 0 is_stmt 1
 1995 01bc B7F92830 		ldrsh	r3, [r7, #40]
 1996 01c0 012B     		cmp	r3, #1
 1997 01c2 01DD     		ble	.L97
 1998              		.loc 3 556 0 is_stmt 0 discriminator 1
 1999 01c4 0123     		movs	r3, #1
 2000 01c6 3B85     		strh	r3, [r7, #40]	@ movhi
 2001              	.L97:
 557:..\..\..\lvgl\version_6.1.2\lvgl\src\lv_objx/lv_tileview.c **** 
 558:..\..\..\lvgl\version_6.1.2\lvgl\src\lv_objx/lv_tileview.c ****     /*Set the new tile*/
 559:..\..\..\lvgl\version_6.1.2\lvgl\src\lv_objx/lv_tileview.c ****     lv_tileview_set_tile_act(tileview, ext->act_id.x + x_move, ext->act_id.y + y_move, true);
 2002              		.loc 3 559 0 is_stmt 1
 2003 01c8 7B6A     		ldr	r3, [r7, #36]
 2004 01ca B3F93830 		ldrsh	r3, [r3, #56]
 2005 01ce 9AB2     		uxth	r2, r3
 2006 01d0 7B8D     		ldrh	r3, [r7, #42]
 2007 01d2 1344     		add	r3, r3, r2
 2008 01d4 9BB2     		uxth	r3, r3
 2009 01d6 19B2     		sxth	r1, r3
 2010 01d8 7B6A     		ldr	r3, [r7, #36]
 2011 01da B3F93A30 		ldrsh	r3, [r3, #58]
 2012 01de 9AB2     		uxth	r2, r3
 2013 01e0 3B8D     		ldrh	r3, [r7, #40]
 2014 01e2 1344     		add	r3, r3, r2
 2015 01e4 9BB2     		uxth	r3, r3
 2016 01e6 1AB2     		sxth	r2, r3
 2017 01e8 0123     		movs	r3, #1
 2018 01ea 7868     		ldr	r0, [r7, #4]
 2019 01ec FFF7FEFF 		bl	lv_tileview_set_tile_act
 560:..\..\..\lvgl\version_6.1.2\lvgl\src\lv_objx/lv_tileview.c **** }
 2020              		.loc 3 560 0
 2021 01f0 00BF     		nop
 2022 01f2 3437     		adds	r7, r7, #52
 2023              		.cfi_def_cfa_offset 12
 2024 01f4 BD46     		mov	sp, r7
 2025              		.cfi_def_cfa_register 13
 2026              		@ sp needed
 2027 01f6 90BD     		pop	{r4, r7, pc}
 2028              	.L99:
 2029              		.align	2
 2030              	.L98:
 2031 01f8 1F85EB51 		.word	1374389535
 2032              		.cfi_endproc
 2033              	.LFE61:
 2034              		.size	drag_end_handler, .-drag_end_handler
 2035              		.section	.text.set_valid_drag_dirs,"ax",%progbits
ARM GAS  C:\Users\tmj32\AppData\Local\Temp\cctNeIsL.s 			page 53


 2036              		.align	2
 2037              		.thumb
 2038              		.thumb_func
 2039              		.type	set_valid_drag_dirs, %function
 2040              	set_valid_drag_dirs:
 2041              	.LFB62:
 561:..\..\..\lvgl\version_6.1.2\lvgl\src\lv_objx/lv_tileview.c **** 
 562:..\..\..\lvgl\version_6.1.2\lvgl\src\lv_objx/lv_tileview.c **** static bool set_valid_drag_dirs(lv_obj_t * tileview)
 563:..\..\..\lvgl\version_6.1.2\lvgl\src\lv_objx/lv_tileview.c **** {
 2042              		.loc 3 563 0
 2043              		.cfi_startproc
 2044              		@ args = 0, pretend = 0, frame = 16
 2045              		@ frame_needed = 1, uses_anonymous_args = 0
 2046 0000 80B5     		push	{r7, lr}
 2047              		.cfi_def_cfa_offset 8
 2048              		.cfi_offset 7, -8
 2049              		.cfi_offset 14, -4
 2050 0002 84B0     		sub	sp, sp, #16
 2051              		.cfi_def_cfa_offset 24
 2052 0004 00AF     		add	r7, sp, #0
 2053              		.cfi_def_cfa_register 7
 2054 0006 7860     		str	r0, [r7, #4]
 564:..\..\..\lvgl\version_6.1.2\lvgl\src\lv_objx/lv_tileview.c **** 
 565:..\..\..\lvgl\version_6.1.2\lvgl\src\lv_objx/lv_tileview.c ****     lv_tileview_ext_t * ext = lv_obj_get_ext_attr(tileview);
 2055              		.loc 3 565 0
 2056 0008 7868     		ldr	r0, [r7, #4]
 2057 000a FFF7FEFF 		bl	lv_obj_get_ext_attr
 2058 000e B860     		str	r0, [r7, #8]
 566:..\..\..\lvgl\version_6.1.2\lvgl\src\lv_objx/lv_tileview.c ****     if(ext->valid_pos == NULL) return false;
 2059              		.loc 3 566 0
 2060 0010 BB68     		ldr	r3, [r7, #8]
 2061 0012 1B6B     		ldr	r3, [r3, #48]
 2062 0014 002B     		cmp	r3, #0
 2063 0016 01D1     		bne	.L101
 2064              		.loc 3 566 0 is_stmt 0 discriminator 1
 2065 0018 0023     		movs	r3, #0
 2066 001a ACE0     		b	.L102
 2067              	.L101:
 567:..\..\..\lvgl\version_6.1.2\lvgl\src\lv_objx/lv_tileview.c **** 
 568:..\..\..\lvgl\version_6.1.2\lvgl\src\lv_objx/lv_tileview.c ****     ext->drag_bottom_en = 0;
 2068              		.loc 3 568 0 is_stmt 1
 2069 001c BA68     		ldr	r2, [r7, #8]
 2070 001e 92F83C30 		ldrb	r3, [r2, #60]
 2071 0022 6FF34103 		bfc	r3, #1, #1
 2072 0026 82F83C30 		strb	r3, [r2, #60]
 569:..\..\..\lvgl\version_6.1.2\lvgl\src\lv_objx/lv_tileview.c ****     ext->drag_top_en    = 0;
 2073              		.loc 3 569 0
 2074 002a BA68     		ldr	r2, [r7, #8]
 2075 002c 92F83C30 		ldrb	r3, [r2, #60]
 2076 0030 6FF30003 		bfc	r3, #0, #1
 2077 0034 82F83C30 		strb	r3, [r2, #60]
 570:..\..\..\lvgl\version_6.1.2\lvgl\src\lv_objx/lv_tileview.c ****     ext->drag_left_en   = 0;
 2078              		.loc 3 570 0
 2079 0038 BA68     		ldr	r2, [r7, #8]
 2080 003a 92F83C30 		ldrb	r3, [r2, #60]
 2081 003e 6FF38203 		bfc	r3, #2, #1
 2082 0042 82F83C30 		strb	r3, [r2, #60]
ARM GAS  C:\Users\tmj32\AppData\Local\Temp\cctNeIsL.s 			page 54


 571:..\..\..\lvgl\version_6.1.2\lvgl\src\lv_objx/lv_tileview.c ****     ext->drag_right_en  = 0;
 2083              		.loc 3 571 0
 2084 0046 BA68     		ldr	r2, [r7, #8]
 2085 0048 92F83C30 		ldrb	r3, [r2, #60]
 2086 004c 6FF3C303 		bfc	r3, #3, #1
 2087 0050 82F83C30 		strb	r3, [r2, #60]
 572:..\..\..\lvgl\version_6.1.2\lvgl\src\lv_objx/lv_tileview.c **** 
 573:..\..\..\lvgl\version_6.1.2\lvgl\src\lv_objx/lv_tileview.c ****     uint16_t i;
 574:..\..\..\lvgl\version_6.1.2\lvgl\src\lv_objx/lv_tileview.c ****     for(i = 0; i < ext->valid_pos_cnt; i++) {
 2088              		.loc 3 574 0
 2089 0054 0023     		movs	r3, #0
 2090 0056 FB81     		strh	r3, [r7, #14]	@ movhi
 2091 0058 86E0     		b	.L103
 2092              	.L108:
 575:..\..\..\lvgl\version_6.1.2\lvgl\src\lv_objx/lv_tileview.c ****         if(ext->valid_pos[i].x == ext->act_id.x && ext->valid_pos[i].y == ext->act_id.y - 1) ext->d
 2093              		.loc 3 575 0
 2094 005a BB68     		ldr	r3, [r7, #8]
 2095 005c 1A6B     		ldr	r2, [r3, #48]
 2096 005e FB89     		ldrh	r3, [r7, #14]
 2097 0060 9B00     		lsls	r3, r3, #2
 2098 0062 1344     		add	r3, r3, r2
 2099 0064 B3F90020 		ldrsh	r2, [r3]
 2100 0068 BB68     		ldr	r3, [r7, #8]
 2101 006a B3F93830 		ldrsh	r3, [r3, #56]
 2102 006e 9A42     		cmp	r2, r3
 2103 0070 14D1     		bne	.L104
 2104              		.loc 3 575 0 is_stmt 0 discriminator 1
 2105 0072 BB68     		ldr	r3, [r7, #8]
 2106 0074 1A6B     		ldr	r2, [r3, #48]
 2107 0076 FB89     		ldrh	r3, [r7, #14]
 2108 0078 9B00     		lsls	r3, r3, #2
 2109 007a 1344     		add	r3, r3, r2
 2110 007c B3F90230 		ldrsh	r3, [r3, #2]
 2111 0080 1A46     		mov	r2, r3
 2112 0082 BB68     		ldr	r3, [r7, #8]
 2113 0084 B3F93A30 		ldrsh	r3, [r3, #58]
 2114 0088 013B     		subs	r3, r3, #1
 2115 008a 9A42     		cmp	r2, r3
 2116 008c 06D1     		bne	.L104
 2117              		.loc 3 575 0 discriminator 2
 2118 008e BA68     		ldr	r2, [r7, #8]
 2119 0090 92F83C30 		ldrb	r3, [r2, #60]
 2120 0094 43F00103 		orr	r3, r3, #1
 2121 0098 82F83C30 		strb	r3, [r2, #60]
 2122              	.L104:
 576:..\..\..\lvgl\version_6.1.2\lvgl\src\lv_objx/lv_tileview.c ****         if(ext->valid_pos[i].x == ext->act_id.x && ext->valid_pos[i].y == ext->act_id.y + 1) ext->d
 2123              		.loc 3 576 0 is_stmt 1
 2124 009c BB68     		ldr	r3, [r7, #8]
 2125 009e 1A6B     		ldr	r2, [r3, #48]
 2126 00a0 FB89     		ldrh	r3, [r7, #14]
 2127 00a2 9B00     		lsls	r3, r3, #2
 2128 00a4 1344     		add	r3, r3, r2
 2129 00a6 B3F90020 		ldrsh	r2, [r3]
 2130 00aa BB68     		ldr	r3, [r7, #8]
 2131 00ac B3F93830 		ldrsh	r3, [r3, #56]
 2132 00b0 9A42     		cmp	r2, r3
 2133 00b2 14D1     		bne	.L105
ARM GAS  C:\Users\tmj32\AppData\Local\Temp\cctNeIsL.s 			page 55


 2134              		.loc 3 576 0 is_stmt 0 discriminator 1
 2135 00b4 BB68     		ldr	r3, [r7, #8]
 2136 00b6 1A6B     		ldr	r2, [r3, #48]
 2137 00b8 FB89     		ldrh	r3, [r7, #14]
 2138 00ba 9B00     		lsls	r3, r3, #2
 2139 00bc 1344     		add	r3, r3, r2
 2140 00be B3F90230 		ldrsh	r3, [r3, #2]
 2141 00c2 1A46     		mov	r2, r3
 2142 00c4 BB68     		ldr	r3, [r7, #8]
 2143 00c6 B3F93A30 		ldrsh	r3, [r3, #58]
 2144 00ca 0133     		adds	r3, r3, #1
 2145 00cc 9A42     		cmp	r2, r3
 2146 00ce 06D1     		bne	.L105
 2147              		.loc 3 576 0 discriminator 2
 2148 00d0 BA68     		ldr	r2, [r7, #8]
 2149 00d2 92F83C30 		ldrb	r3, [r2, #60]
 2150 00d6 43F00203 		orr	r3, r3, #2
 2151 00da 82F83C30 		strb	r3, [r2, #60]
 2152              	.L105:
 577:..\..\..\lvgl\version_6.1.2\lvgl\src\lv_objx/lv_tileview.c ****         if(ext->valid_pos[i].x == ext->act_id.x - 1 && ext->valid_pos[i].y == ext->act_id.y) ext->d
 2153              		.loc 3 577 0 is_stmt 1
 2154 00de BB68     		ldr	r3, [r7, #8]
 2155 00e0 1A6B     		ldr	r2, [r3, #48]
 2156 00e2 FB89     		ldrh	r3, [r7, #14]
 2157 00e4 9B00     		lsls	r3, r3, #2
 2158 00e6 1344     		add	r3, r3, r2
 2159 00e8 B3F90030 		ldrsh	r3, [r3]
 2160 00ec 1A46     		mov	r2, r3
 2161 00ee BB68     		ldr	r3, [r7, #8]
 2162 00f0 B3F93830 		ldrsh	r3, [r3, #56]
 2163 00f4 013B     		subs	r3, r3, #1
 2164 00f6 9A42     		cmp	r2, r3
 2165 00f8 12D1     		bne	.L106
 2166              		.loc 3 577 0 is_stmt 0 discriminator 1
 2167 00fa BB68     		ldr	r3, [r7, #8]
 2168 00fc 1A6B     		ldr	r2, [r3, #48]
 2169 00fe FB89     		ldrh	r3, [r7, #14]
 2170 0100 9B00     		lsls	r3, r3, #2
 2171 0102 1344     		add	r3, r3, r2
 2172 0104 B3F90220 		ldrsh	r2, [r3, #2]
 2173 0108 BB68     		ldr	r3, [r7, #8]
 2174 010a B3F93A30 		ldrsh	r3, [r3, #58]
 2175 010e 9A42     		cmp	r2, r3
 2176 0110 06D1     		bne	.L106
 2177              		.loc 3 577 0 discriminator 2
 2178 0112 BA68     		ldr	r2, [r7, #8]
 2179 0114 92F83C30 		ldrb	r3, [r2, #60]
 2180 0118 43F00403 		orr	r3, r3, #4
 2181 011c 82F83C30 		strb	r3, [r2, #60]
 2182              	.L106:
 578:..\..\..\lvgl\version_6.1.2\lvgl\src\lv_objx/lv_tileview.c ****         if(ext->valid_pos[i].x == ext->act_id.x + 1 && ext->valid_pos[i].y == ext->act_id.y) ext->d
 2183              		.loc 3 578 0 is_stmt 1
 2184 0120 BB68     		ldr	r3, [r7, #8]
 2185 0122 1A6B     		ldr	r2, [r3, #48]
 2186 0124 FB89     		ldrh	r3, [r7, #14]
 2187 0126 9B00     		lsls	r3, r3, #2
 2188 0128 1344     		add	r3, r3, r2
ARM GAS  C:\Users\tmj32\AppData\Local\Temp\cctNeIsL.s 			page 56


 2189 012a B3F90030 		ldrsh	r3, [r3]
 2190 012e 1A46     		mov	r2, r3
 2191 0130 BB68     		ldr	r3, [r7, #8]
 2192 0132 B3F93830 		ldrsh	r3, [r3, #56]
 2193 0136 0133     		adds	r3, r3, #1
 2194 0138 9A42     		cmp	r2, r3
 2195 013a 12D1     		bne	.L107
 2196              		.loc 3 578 0 is_stmt 0 discriminator 1
 2197 013c BB68     		ldr	r3, [r7, #8]
 2198 013e 1A6B     		ldr	r2, [r3, #48]
 2199 0140 FB89     		ldrh	r3, [r7, #14]
 2200 0142 9B00     		lsls	r3, r3, #2
 2201 0144 1344     		add	r3, r3, r2
 2202 0146 B3F90220 		ldrsh	r2, [r3, #2]
 2203 014a BB68     		ldr	r3, [r7, #8]
 2204 014c B3F93A30 		ldrsh	r3, [r3, #58]
 2205 0150 9A42     		cmp	r2, r3
 2206 0152 06D1     		bne	.L107
 2207              		.loc 3 578 0 discriminator 2
 2208 0154 BA68     		ldr	r2, [r7, #8]
 2209 0156 92F83C30 		ldrb	r3, [r2, #60]
 2210 015a 43F00803 		orr	r3, r3, #8
 2211 015e 82F83C30 		strb	r3, [r2, #60]
 2212              	.L107:
 574:..\..\..\lvgl\version_6.1.2\lvgl\src\lv_objx/lv_tileview.c ****         if(ext->valid_pos[i].x == ext->act_id.x && ext->valid_pos[i].y == ext->act_id.y - 1) ext->d
 2213              		.loc 3 574 0 is_stmt 1 discriminator 2
 2214 0162 FB89     		ldrh	r3, [r7, #14]
 2215 0164 0133     		adds	r3, r3, #1
 2216 0166 FB81     		strh	r3, [r7, #14]	@ movhi
 2217              	.L103:
 574:..\..\..\lvgl\version_6.1.2\lvgl\src\lv_objx/lv_tileview.c ****         if(ext->valid_pos[i].x == ext->act_id.x && ext->valid_pos[i].y == ext->act_id.y - 1) ext->d
 2218              		.loc 3 574 0 is_stmt 0 discriminator 1
 2219 0168 BB68     		ldr	r3, [r7, #8]
 2220 016a 9B8E     		ldrh	r3, [r3, #52]
 2221 016c FA89     		ldrh	r2, [r7, #14]
 2222 016e 9A42     		cmp	r2, r3
 2223 0170 FFF473AF 		bcc	.L108
 579:..\..\..\lvgl\version_6.1.2\lvgl\src\lv_objx/lv_tileview.c ****     }
 580:..\..\..\lvgl\version_6.1.2\lvgl\src\lv_objx/lv_tileview.c **** 
 581:..\..\..\lvgl\version_6.1.2\lvgl\src\lv_objx/lv_tileview.c ****     return true;
 2224              		.loc 3 581 0 is_stmt 1
 2225 0174 0123     		movs	r3, #1
 2226              	.L102:
 582:..\..\..\lvgl\version_6.1.2\lvgl\src\lv_objx/lv_tileview.c **** }
 2227              		.loc 3 582 0
 2228 0176 1846     		mov	r0, r3
 2229 0178 1037     		adds	r7, r7, #16
 2230              		.cfi_def_cfa_offset 8
 2231 017a BD46     		mov	sp, r7
 2232              		.cfi_def_cfa_register 13
 2233              		@ sp needed
 2234 017c 80BD     		pop	{r7, pc}
 2235              		.cfi_endproc
 2236              	.LFE62:
 2237              		.size	set_valid_drag_dirs, .-set_valid_drag_dirs
 2238 017e 00BF     		.text
 2239              	.Letext0:
ARM GAS  C:\Users\tmj32\AppData\Local\Temp\cctNeIsL.s 			page 57


 2240              		.file 4 "c:\\program files (x86)\\cypress\\psoc creator\\4.3\\psoc creator\\import\\gnu\\arm\\5.4.
 2241              		.file 5 "c:\\program files (x86)\\cypress\\psoc creator\\4.3\\psoc creator\\import\\gnu\\arm\\5.4.
 2242              		.file 6 "..\\..\\..\\lvgl\\version_6.1.2\\lvgl\\src\\lv_objx\\../../../lv_conf.h"
 2243              		.file 7 "..\\..\\..\\lvgl\\version_6.1.2\\lvgl\\src\\lv_objx\\../lv_objx/../lv_core/../lv_font/lv_
 2244              		.file 8 "..\\..\\..\\lvgl\\version_6.1.2\\lvgl\\src\\lv_objx\\../lv_objx/../lv_core/../lv_misc/lv_
 2245              		.file 9 "..\\..\\..\\lvgl\\version_6.1.2\\lvgl\\src\\lv_objx\\../lv_objx/../lv_core/../lv_misc/lv_
 2246              		.file 10 "..\\..\\..\\lvgl\\version_6.1.2\\lvgl\\src\\lv_objx\\../lv_objx/../lv_core/../lv_misc/lv
 2247              		.file 11 "..\\..\\..\\lvgl\\version_6.1.2\\lvgl\\src\\lv_objx\\../lv_objx/../lv_core/lv_style.h"
 2248              		.file 12 "..\\..\\..\\lvgl\\version_6.1.2\\lvgl\\src\\lv_objx\\../lv_objx/../lv_core/../lv_misc/lv
 2249              		.file 13 "..\\..\\..\\lvgl\\version_6.1.2\\lvgl\\src\\lv_objx\\../lv_objx/../lv_core/../lv_misc/lv
 2250              		.file 14 "..\\..\\..\\lvgl\\version_6.1.2\\lvgl\\src\\lv_objx\\../lv_objx/../lv_core/../lv_misc/lv
 2251              		.file 15 "..\\..\\..\\lvgl\\version_6.1.2\\lvgl\\src\\lv_objx\\../lv_objx/../lv_core/../lv_hal/../
 2252              		.file 16 "..\\..\\..\\lvgl\\version_6.1.2\\lvgl\\src\\lv_objx\\../lv_objx/../lv_core/../lv_hal/lv_
 2253              		.file 17 "..\\..\\..\\lvgl\\version_6.1.2\\lvgl\\src\\lv_objx\\../lv_objx/../lv_core/lv_obj.h"
 2254              		.file 18 "..\\..\\..\\lvgl\\version_6.1.2\\lvgl\\src\\lv_objx\\../lv_objx/../lv_core/../lv_hal/lv_
 2255              		.file 19 "..\\..\\..\\lvgl\\version_6.1.2\\lvgl\\src\\lv_objx\\lv_tileview.h"
 2256              		.file 20 "..\\..\\..\\lvgl\\version_6.1.2\\lvgl\\src\\lv_objx\\../lv_themes/lv_theme.h"