ARM GAS  C:\Users\tmj32\AppData\Local\Temp\ccIZw7Ef.s 			page 1


   1              		.syntax unified
   2              		.cpu cortex-m4
   3              		.eabi_attribute 27, 1
   4              		.fpu fpv4-sp-d16
   5              		.eabi_attribute 20, 1
   6              		.eabi_attribute 21, 1
   7              		.eabi_attribute 23, 3
   8              		.eabi_attribute 24, 1
   9              		.eabi_attribute 25, 1
  10              		.eabi_attribute 26, 1
  11              		.eabi_attribute 30, 6
  12              		.eabi_attribute 34, 1
  13              		.eabi_attribute 18, 4
  14              		.thumb
  15              		.syntax unified
  16              		.file	"lv_table.c"
  17              		.text
  18              	.Ltext0:
  19              		.cfi_sections	.debug_frame
  20              		.section	.text.lv_font_get_line_height,"ax",%progbits
  21              		.align	2
  22              		.thumb
  23              		.thumb_func
  24              		.type	lv_font_get_line_height, %function
  25              	lv_font_get_line_height:
  26              	.LFB0:
  27              		.file 1 "..\\..\\..\\lvgl\\version_6.1.2\\lvgl\\src\\lv_objx\\../lv_core/../lv_font/lv_font.h"
   1:..\..\..\lvgl\version_6.1.2\lvgl\src\lv_objx\../lv_core/../lv_font/lv_font.h **** /**
   2:..\..\..\lvgl\version_6.1.2\lvgl\src\lv_objx\../lv_core/../lv_font/lv_font.h ****  * @file lv_font.h
   3:..\..\..\lvgl\version_6.1.2\lvgl\src\lv_objx\../lv_core/../lv_font/lv_font.h ****  *
   4:..\..\..\lvgl\version_6.1.2\lvgl\src\lv_objx\../lv_core/../lv_font/lv_font.h ****  */
   5:..\..\..\lvgl\version_6.1.2\lvgl\src\lv_objx\../lv_core/../lv_font/lv_font.h **** 
   6:..\..\..\lvgl\version_6.1.2\lvgl\src\lv_objx\../lv_core/../lv_font/lv_font.h **** #ifndef LV_FONT_H
   7:..\..\..\lvgl\version_6.1.2\lvgl\src\lv_objx\../lv_core/../lv_font/lv_font.h **** #define LV_FONT_H
   8:..\..\..\lvgl\version_6.1.2\lvgl\src\lv_objx\../lv_core/../lv_font/lv_font.h **** 
   9:..\..\..\lvgl\version_6.1.2\lvgl\src\lv_objx\../lv_core/../lv_font/lv_font.h **** #ifdef __cplusplus
  10:..\..\..\lvgl\version_6.1.2\lvgl\src\lv_objx\../lv_core/../lv_font/lv_font.h **** extern "C" {
  11:..\..\..\lvgl\version_6.1.2\lvgl\src\lv_objx\../lv_core/../lv_font/lv_font.h **** #endif
  12:..\..\..\lvgl\version_6.1.2\lvgl\src\lv_objx\../lv_core/../lv_font/lv_font.h **** 
  13:..\..\..\lvgl\version_6.1.2\lvgl\src\lv_objx\../lv_core/../lv_font/lv_font.h **** /*********************
  14:..\..\..\lvgl\version_6.1.2\lvgl\src\lv_objx\../lv_core/../lv_font/lv_font.h ****  *      INCLUDES
  15:..\..\..\lvgl\version_6.1.2\lvgl\src\lv_objx\../lv_core/../lv_font/lv_font.h ****  *********************/
  16:..\..\..\lvgl\version_6.1.2\lvgl\src\lv_objx\../lv_core/../lv_font/lv_font.h **** #ifdef LV_CONF_INCLUDE_SIMPLE
  17:..\..\..\lvgl\version_6.1.2\lvgl\src\lv_objx\../lv_core/../lv_font/lv_font.h **** #include "lv_conf.h"
  18:..\..\..\lvgl\version_6.1.2\lvgl\src\lv_objx\../lv_core/../lv_font/lv_font.h **** #else
  19:..\..\..\lvgl\version_6.1.2\lvgl\src\lv_objx\../lv_core/../lv_font/lv_font.h **** #include "../../../lv_conf.h"
  20:..\..\..\lvgl\version_6.1.2\lvgl\src\lv_objx\../lv_core/../lv_font/lv_font.h **** #endif
  21:..\..\..\lvgl\version_6.1.2\lvgl\src\lv_objx\../lv_core/../lv_font/lv_font.h **** 
  22:..\..\..\lvgl\version_6.1.2\lvgl\src\lv_objx\../lv_core/../lv_font/lv_font.h **** #include <stdint.h>
  23:..\..\..\lvgl\version_6.1.2\lvgl\src\lv_objx\../lv_core/../lv_font/lv_font.h **** #include <stddef.h>
  24:..\..\..\lvgl\version_6.1.2\lvgl\src\lv_objx\../lv_core/../lv_font/lv_font.h **** #include <stdbool.h>
  25:..\..\..\lvgl\version_6.1.2\lvgl\src\lv_objx\../lv_core/../lv_font/lv_font.h **** 
  26:..\..\..\lvgl\version_6.1.2\lvgl\src\lv_objx\../lv_core/../lv_font/lv_font.h **** #include "lv_symbol_def.h"
  27:..\..\..\lvgl\version_6.1.2\lvgl\src\lv_objx\../lv_core/../lv_font/lv_font.h **** 
  28:..\..\..\lvgl\version_6.1.2\lvgl\src\lv_objx\../lv_core/../lv_font/lv_font.h **** /*********************
  29:..\..\..\lvgl\version_6.1.2\lvgl\src\lv_objx\../lv_core/../lv_font/lv_font.h ****  *      DEFINES
  30:..\..\..\lvgl\version_6.1.2\lvgl\src\lv_objx\../lv_core/../lv_font/lv_font.h ****  *********************/
ARM GAS  C:\Users\tmj32\AppData\Local\Temp\ccIZw7Ef.s 			page 2


  31:..\..\..\lvgl\version_6.1.2\lvgl\src\lv_objx\../lv_core/../lv_font/lv_font.h **** /*Number of fractional digits in the advanced width (`adv_w`) field of `lv_font_glyph_dsc_t`*/
  32:..\..\..\lvgl\version_6.1.2\lvgl\src\lv_objx\../lv_core/../lv_font/lv_font.h **** #define LV_FONT_WIDTH_FRACT_DIGIT       4
  33:..\..\..\lvgl\version_6.1.2\lvgl\src\lv_objx\../lv_core/../lv_font/lv_font.h **** 
  34:..\..\..\lvgl\version_6.1.2\lvgl\src\lv_objx\../lv_core/../lv_font/lv_font.h **** #define LV_FONT_KERN_POSITIVE        0
  35:..\..\..\lvgl\version_6.1.2\lvgl\src\lv_objx\../lv_core/../lv_font/lv_font.h **** #define LV_FONT_KERN_NEGATIVE        1
  36:..\..\..\lvgl\version_6.1.2\lvgl\src\lv_objx\../lv_core/../lv_font/lv_font.h **** 
  37:..\..\..\lvgl\version_6.1.2\lvgl\src\lv_objx\../lv_core/../lv_font/lv_font.h **** /**********************
  38:..\..\..\lvgl\version_6.1.2\lvgl\src\lv_objx\../lv_core/../lv_font/lv_font.h ****  *      TYPEDEFS
  39:..\..\..\lvgl\version_6.1.2\lvgl\src\lv_objx\../lv_core/../lv_font/lv_font.h ****  **********************/
  40:..\..\..\lvgl\version_6.1.2\lvgl\src\lv_objx\../lv_core/../lv_font/lv_font.h **** 
  41:..\..\..\lvgl\version_6.1.2\lvgl\src\lv_objx\../lv_core/../lv_font/lv_font.h **** /*------------------
  42:..\..\..\lvgl\version_6.1.2\lvgl\src\lv_objx\../lv_core/../lv_font/lv_font.h ****  * General types
  43:..\..\..\lvgl\version_6.1.2\lvgl\src\lv_objx\../lv_core/../lv_font/lv_font.h ****  *-----------------*/
  44:..\..\..\lvgl\version_6.1.2\lvgl\src\lv_objx\../lv_core/../lv_font/lv_font.h **** 
  45:..\..\..\lvgl\version_6.1.2\lvgl\src\lv_objx\../lv_core/../lv_font/lv_font.h **** /** Describes the properties of a glyph. */
  46:..\..\..\lvgl\version_6.1.2\lvgl\src\lv_objx\../lv_core/../lv_font/lv_font.h **** typedef struct
  47:..\..\..\lvgl\version_6.1.2\lvgl\src\lv_objx\../lv_core/../lv_font/lv_font.h **** {
  48:..\..\..\lvgl\version_6.1.2\lvgl\src\lv_objx\../lv_core/../lv_font/lv_font.h ****     uint16_t adv_w; /**< The glyph needs this space. Draw the next glyph after this width. 8 bit in
  49:..\..\..\lvgl\version_6.1.2\lvgl\src\lv_objx\../lv_core/../lv_font/lv_font.h ****     uint8_t box_w;  /**< Width of the glyph's bounding box*/
  50:..\..\..\lvgl\version_6.1.2\lvgl\src\lv_objx\../lv_core/../lv_font/lv_font.h ****     uint8_t box_h;  /**< Height of the glyph's bounding box*/
  51:..\..\..\lvgl\version_6.1.2\lvgl\src\lv_objx\../lv_core/../lv_font/lv_font.h ****     int8_t ofs_x;   /**< x offset of the bounding box*/
  52:..\..\..\lvgl\version_6.1.2\lvgl\src\lv_objx\../lv_core/../lv_font/lv_font.h ****     int8_t ofs_y;  /**< y offset of the bounding box*/
  53:..\..\..\lvgl\version_6.1.2\lvgl\src\lv_objx\../lv_core/../lv_font/lv_font.h ****     uint8_t bpp;   /**< Bit-per-pixel: 1, 2, 4, 8*/
  54:..\..\..\lvgl\version_6.1.2\lvgl\src\lv_objx\../lv_core/../lv_font/lv_font.h **** }lv_font_glyph_dsc_t;
  55:..\..\..\lvgl\version_6.1.2\lvgl\src\lv_objx\../lv_core/../lv_font/lv_font.h **** 
  56:..\..\..\lvgl\version_6.1.2\lvgl\src\lv_objx\../lv_core/../lv_font/lv_font.h **** 
  57:..\..\..\lvgl\version_6.1.2\lvgl\src\lv_objx\../lv_core/../lv_font/lv_font.h **** /** The bitmaps might be upscaled by 3 to achieve subpixel rendering. */
  58:..\..\..\lvgl\version_6.1.2\lvgl\src\lv_objx\../lv_core/../lv_font/lv_font.h **** enum {
  59:..\..\..\lvgl\version_6.1.2\lvgl\src\lv_objx\../lv_core/../lv_font/lv_font.h ****     LV_FONT_SUBPX_NONE,
  60:..\..\..\lvgl\version_6.1.2\lvgl\src\lv_objx\../lv_core/../lv_font/lv_font.h ****     LV_FONT_SUBPX_HOR,
  61:..\..\..\lvgl\version_6.1.2\lvgl\src\lv_objx\../lv_core/../lv_font/lv_font.h ****     LV_FONT_SUBPX_VER,
  62:..\..\..\lvgl\version_6.1.2\lvgl\src\lv_objx\../lv_core/../lv_font/lv_font.h ****     LV_FONT_SUBPX_BOTH,
  63:..\..\..\lvgl\version_6.1.2\lvgl\src\lv_objx\../lv_core/../lv_font/lv_font.h **** };
  64:..\..\..\lvgl\version_6.1.2\lvgl\src\lv_objx\../lv_core/../lv_font/lv_font.h **** 
  65:..\..\..\lvgl\version_6.1.2\lvgl\src\lv_objx\../lv_core/../lv_font/lv_font.h **** typedef uint8_t lv_font_subpx_t;
  66:..\..\..\lvgl\version_6.1.2\lvgl\src\lv_objx\../lv_core/../lv_font/lv_font.h **** 
  67:..\..\..\lvgl\version_6.1.2\lvgl\src\lv_objx\../lv_core/../lv_font/lv_font.h **** /** Describe the properties of a font*/
  68:..\..\..\lvgl\version_6.1.2\lvgl\src\lv_objx\../lv_core/../lv_font/lv_font.h **** typedef struct _lv_font_struct
  69:..\..\..\lvgl\version_6.1.2\lvgl\src\lv_objx\../lv_core/../lv_font/lv_font.h **** {
  70:..\..\..\lvgl\version_6.1.2\lvgl\src\lv_objx\../lv_core/../lv_font/lv_font.h ****     /** Get a glyph's  descriptor from a font*/
  71:..\..\..\lvgl\version_6.1.2\lvgl\src\lv_objx\../lv_core/../lv_font/lv_font.h ****     bool (*get_glyph_dsc)(const struct _lv_font_struct *, lv_font_glyph_dsc_t *, uint32_t letter, u
  72:..\..\..\lvgl\version_6.1.2\lvgl\src\lv_objx\../lv_core/../lv_font/lv_font.h **** 
  73:..\..\..\lvgl\version_6.1.2\lvgl\src\lv_objx\../lv_core/../lv_font/lv_font.h ****     /** Get a glyph's bitmap from a font*/
  74:..\..\..\lvgl\version_6.1.2\lvgl\src\lv_objx\../lv_core/../lv_font/lv_font.h ****     const uint8_t * (*get_glyph_bitmap)(const struct _lv_font_struct *, uint32_t);
  75:..\..\..\lvgl\version_6.1.2\lvgl\src\lv_objx\../lv_core/../lv_font/lv_font.h **** 
  76:..\..\..\lvgl\version_6.1.2\lvgl\src\lv_objx\../lv_core/../lv_font/lv_font.h ****     /*Pointer to the font in a font pack (must have the same line height)*/
  77:..\..\..\lvgl\version_6.1.2\lvgl\src\lv_objx\../lv_core/../lv_font/lv_font.h ****     uint8_t line_height;      /**< The real line height where any text fits*/
  78:..\..\..\lvgl\version_6.1.2\lvgl\src\lv_objx\../lv_core/../lv_font/lv_font.h ****     int8_t base_line;        /**< Base line measured from the top of the line_height*/
  79:..\..\..\lvgl\version_6.1.2\lvgl\src\lv_objx\../lv_core/../lv_font/lv_font.h ****     uint8_t subpx  :2;        /**< An element of `lv_font_subpx_t`*/
  80:..\..\..\lvgl\version_6.1.2\lvgl\src\lv_objx\../lv_core/../lv_font/lv_font.h ****     void * dsc;               /**< Store implementation specific or run_time data or caching here*/
  81:..\..\..\lvgl\version_6.1.2\lvgl\src\lv_objx\../lv_core/../lv_font/lv_font.h **** #if LV_USE_USER_DATA
  82:..\..\..\lvgl\version_6.1.2\lvgl\src\lv_objx\../lv_core/../lv_font/lv_font.h ****     lv_font_user_data_t user_data; /**< Custom user data for font. */
  83:..\..\..\lvgl\version_6.1.2\lvgl\src\lv_objx\../lv_core/../lv_font/lv_font.h **** #endif
  84:..\..\..\lvgl\version_6.1.2\lvgl\src\lv_objx\../lv_core/../lv_font/lv_font.h **** 
  85:..\..\..\lvgl\version_6.1.2\lvgl\src\lv_objx\../lv_core/../lv_font/lv_font.h **** 
  86:..\..\..\lvgl\version_6.1.2\lvgl\src\lv_objx\../lv_core/../lv_font/lv_font.h **** } lv_font_t;
  87:..\..\..\lvgl\version_6.1.2\lvgl\src\lv_objx\../lv_core/../lv_font/lv_font.h **** 
ARM GAS  C:\Users\tmj32\AppData\Local\Temp\ccIZw7Ef.s 			page 3


  88:..\..\..\lvgl\version_6.1.2\lvgl\src\lv_objx\../lv_core/../lv_font/lv_font.h **** /**********************
  89:..\..\..\lvgl\version_6.1.2\lvgl\src\lv_objx\../lv_core/../lv_font/lv_font.h ****  * GLOBAL PROTOTYPES
  90:..\..\..\lvgl\version_6.1.2\lvgl\src\lv_objx\../lv_core/../lv_font/lv_font.h ****  **********************/
  91:..\..\..\lvgl\version_6.1.2\lvgl\src\lv_objx\../lv_core/../lv_font/lv_font.h **** 
  92:..\..\..\lvgl\version_6.1.2\lvgl\src\lv_objx\../lv_core/../lv_font/lv_font.h **** /**
  93:..\..\..\lvgl\version_6.1.2\lvgl\src\lv_objx\../lv_core/../lv_font/lv_font.h ****  * Return with the bitmap of a font.
  94:..\..\..\lvgl\version_6.1.2\lvgl\src\lv_objx\../lv_core/../lv_font/lv_font.h ****  * @param font_p pointer to a font
  95:..\..\..\lvgl\version_6.1.2\lvgl\src\lv_objx\../lv_core/../lv_font/lv_font.h ****  * @param letter an UNICODE character code
  96:..\..\..\lvgl\version_6.1.2\lvgl\src\lv_objx\../lv_core/../lv_font/lv_font.h ****  * @return  pointer to the bitmap of the letter
  97:..\..\..\lvgl\version_6.1.2\lvgl\src\lv_objx\../lv_core/../lv_font/lv_font.h ****  */
  98:..\..\..\lvgl\version_6.1.2\lvgl\src\lv_objx\../lv_core/../lv_font/lv_font.h **** const uint8_t * lv_font_get_glyph_bitmap(const lv_font_t * font_p, uint32_t letter);
  99:..\..\..\lvgl\version_6.1.2\lvgl\src\lv_objx\../lv_core/../lv_font/lv_font.h **** 
 100:..\..\..\lvgl\version_6.1.2\lvgl\src\lv_objx\../lv_core/../lv_font/lv_font.h **** /**
 101:..\..\..\lvgl\version_6.1.2\lvgl\src\lv_objx\../lv_core/../lv_font/lv_font.h ****  * Get the descriptor of a glyph
 102:..\..\..\lvgl\version_6.1.2\lvgl\src\lv_objx\../lv_core/../lv_font/lv_font.h ****  * @param font_p pointer to font
 103:..\..\..\lvgl\version_6.1.2\lvgl\src\lv_objx\../lv_core/../lv_font/lv_font.h ****  * @param dsc_out store the result descriptor here
 104:..\..\..\lvgl\version_6.1.2\lvgl\src\lv_objx\../lv_core/../lv_font/lv_font.h ****  * @param letter an UNICODE letter code
 105:..\..\..\lvgl\version_6.1.2\lvgl\src\lv_objx\../lv_core/../lv_font/lv_font.h ****  * @return true: descriptor is successfully loaded into `dsc_out`.
 106:..\..\..\lvgl\version_6.1.2\lvgl\src\lv_objx\../lv_core/../lv_font/lv_font.h ****  *         false: the letter was not found, no data is loaded to `dsc_out`
 107:..\..\..\lvgl\version_6.1.2\lvgl\src\lv_objx\../lv_core/../lv_font/lv_font.h ****  */
 108:..\..\..\lvgl\version_6.1.2\lvgl\src\lv_objx\../lv_core/../lv_font/lv_font.h **** bool lv_font_get_glyph_dsc(const lv_font_t * font_p, lv_font_glyph_dsc_t * dsc_out, uint32_t letter
 109:..\..\..\lvgl\version_6.1.2\lvgl\src\lv_objx\../lv_core/../lv_font/lv_font.h **** 
 110:..\..\..\lvgl\version_6.1.2\lvgl\src\lv_objx\../lv_core/../lv_font/lv_font.h **** /**
 111:..\..\..\lvgl\version_6.1.2\lvgl\src\lv_objx\../lv_core/../lv_font/lv_font.h ****  * Get the width of a glyph with kerning
 112:..\..\..\lvgl\version_6.1.2\lvgl\src\lv_objx\../lv_core/../lv_font/lv_font.h ****  * @param font pointer to a font
 113:..\..\..\lvgl\version_6.1.2\lvgl\src\lv_objx\../lv_core/../lv_font/lv_font.h ****  * @param letter an UNICODE letter
 114:..\..\..\lvgl\version_6.1.2\lvgl\src\lv_objx\../lv_core/../lv_font/lv_font.h ****  * @param letter_next the next letter after `letter`. Used for kerning
 115:..\..\..\lvgl\version_6.1.2\lvgl\src\lv_objx\../lv_core/../lv_font/lv_font.h ****  * @return the width of the glyph
 116:..\..\..\lvgl\version_6.1.2\lvgl\src\lv_objx\../lv_core/../lv_font/lv_font.h ****  */
 117:..\..\..\lvgl\version_6.1.2\lvgl\src\lv_objx\../lv_core/../lv_font/lv_font.h **** uint16_t lv_font_get_glyph_width(const lv_font_t * font, uint32_t letter, uint32_t letter_next);
 118:..\..\..\lvgl\version_6.1.2\lvgl\src\lv_objx\../lv_core/../lv_font/lv_font.h **** 
 119:..\..\..\lvgl\version_6.1.2\lvgl\src\lv_objx\../lv_core/../lv_font/lv_font.h **** /**
 120:..\..\..\lvgl\version_6.1.2\lvgl\src\lv_objx\../lv_core/../lv_font/lv_font.h ****  * Get the line height of a font. All characters fit into this height
 121:..\..\..\lvgl\version_6.1.2\lvgl\src\lv_objx\../lv_core/../lv_font/lv_font.h ****  * @param font_p pointer to a font
 122:..\..\..\lvgl\version_6.1.2\lvgl\src\lv_objx\../lv_core/../lv_font/lv_font.h ****  * @return the height of a font
 123:..\..\..\lvgl\version_6.1.2\lvgl\src\lv_objx\../lv_core/../lv_font/lv_font.h ****  */
 124:..\..\..\lvgl\version_6.1.2\lvgl\src\lv_objx\../lv_core/../lv_font/lv_font.h **** static inline uint8_t lv_font_get_line_height(const lv_font_t * font_p)
 125:..\..\..\lvgl\version_6.1.2\lvgl\src\lv_objx\../lv_core/../lv_font/lv_font.h **** {
  28              		.loc 1 125 0
  29              		.cfi_startproc
  30              		@ args = 0, pretend = 0, frame = 8
  31              		@ frame_needed = 1, uses_anonymous_args = 0
  32              		@ link register save eliminated.
  33 0000 80B4     		push	{r7}
  34              		.cfi_def_cfa_offset 4
  35              		.cfi_offset 7, -4
  36 0002 83B0     		sub	sp, sp, #12
  37              		.cfi_def_cfa_offset 16
  38 0004 00AF     		add	r7, sp, #0
  39              		.cfi_def_cfa_register 7
  40 0006 7860     		str	r0, [r7, #4]
 126:..\..\..\lvgl\version_6.1.2\lvgl\src\lv_objx\../lv_core/../lv_font/lv_font.h ****     return font_p->line_height;
  41              		.loc 1 126 0
  42 0008 7B68     		ldr	r3, [r7, #4]
  43 000a 1B7A     		ldrb	r3, [r3, #8]	@ zero_extendqisi2
 127:..\..\..\lvgl\version_6.1.2\lvgl\src\lv_objx\../lv_core/../lv_font/lv_font.h **** }
  44              		.loc 1 127 0
ARM GAS  C:\Users\tmj32\AppData\Local\Temp\ccIZw7Ef.s 			page 4


  45 000c 1846     		mov	r0, r3
  46 000e 0C37     		adds	r7, r7, #12
  47              		.cfi_def_cfa_offset 4
  48 0010 BD46     		mov	sp, r7
  49              		.cfi_def_cfa_register 13
  50              		@ sp needed
  51 0012 5DF8047B 		ldr	r7, [sp], #4
  52              		.cfi_restore 7
  53              		.cfi_def_cfa_offset 0
  54 0016 7047     		bx	lr
  55              		.cfi_endproc
  56              	.LFE0:
  57              		.size	lv_font_get_line_height, .-lv_font_get_line_height
  58              		.section	.text.lv_area_get_width,"ax",%progbits
  59              		.align	2
  60              		.thumb
  61              		.thumb_func
  62              		.type	lv_area_get_width, %function
  63              	lv_area_get_width:
  64              	.LFB11:
  65              		.file 2 "..\\..\\..\\lvgl\\version_6.1.2\\lvgl\\src\\lv_objx\\../lv_core/../lv_misc/lv_area.h"
   1:..\..\..\lvgl\version_6.1.2\lvgl\src\lv_objx\../lv_core/../lv_misc/lv_area.h **** /**
   2:..\..\..\lvgl\version_6.1.2\lvgl\src\lv_objx\../lv_core/../lv_misc/lv_area.h ****  * @file lv_area.h
   3:..\..\..\lvgl\version_6.1.2\lvgl\src\lv_objx\../lv_core/../lv_misc/lv_area.h ****  *
   4:..\..\..\lvgl\version_6.1.2\lvgl\src\lv_objx\../lv_core/../lv_misc/lv_area.h ****  */
   5:..\..\..\lvgl\version_6.1.2\lvgl\src\lv_objx\../lv_core/../lv_misc/lv_area.h **** 
   6:..\..\..\lvgl\version_6.1.2\lvgl\src\lv_objx\../lv_core/../lv_misc/lv_area.h **** #ifndef LV_AREA_H
   7:..\..\..\lvgl\version_6.1.2\lvgl\src\lv_objx\../lv_core/../lv_misc/lv_area.h **** #define LV_AREA_H
   8:..\..\..\lvgl\version_6.1.2\lvgl\src\lv_objx\../lv_core/../lv_misc/lv_area.h **** 
   9:..\..\..\lvgl\version_6.1.2\lvgl\src\lv_objx\../lv_core/../lv_misc/lv_area.h **** #ifdef __cplusplus
  10:..\..\..\lvgl\version_6.1.2\lvgl\src\lv_objx\../lv_core/../lv_misc/lv_area.h **** extern "C" {
  11:..\..\..\lvgl\version_6.1.2\lvgl\src\lv_objx\../lv_core/../lv_misc/lv_area.h **** #endif
  12:..\..\..\lvgl\version_6.1.2\lvgl\src\lv_objx\../lv_core/../lv_misc/lv_area.h **** 
  13:..\..\..\lvgl\version_6.1.2\lvgl\src\lv_objx\../lv_core/../lv_misc/lv_area.h **** /*********************
  14:..\..\..\lvgl\version_6.1.2\lvgl\src\lv_objx\../lv_core/../lv_misc/lv_area.h ****  *      INCLUDES
  15:..\..\..\lvgl\version_6.1.2\lvgl\src\lv_objx\../lv_core/../lv_misc/lv_area.h ****  *********************/
  16:..\..\..\lvgl\version_6.1.2\lvgl\src\lv_objx\../lv_core/../lv_misc/lv_area.h **** #include <string.h>
  17:..\..\..\lvgl\version_6.1.2\lvgl\src\lv_objx\../lv_core/../lv_misc/lv_area.h **** #include <stdbool.h>
  18:..\..\..\lvgl\version_6.1.2\lvgl\src\lv_objx\../lv_core/../lv_misc/lv_area.h **** #include <stdint.h>
  19:..\..\..\lvgl\version_6.1.2\lvgl\src\lv_objx\../lv_core/../lv_misc/lv_area.h **** #ifdef LV_CONF_INCLUDE_SIMPLE
  20:..\..\..\lvgl\version_6.1.2\lvgl\src\lv_objx\../lv_core/../lv_misc/lv_area.h **** #include "lv_conf.h"
  21:..\..\..\lvgl\version_6.1.2\lvgl\src\lv_objx\../lv_core/../lv_misc/lv_area.h **** #else
  22:..\..\..\lvgl\version_6.1.2\lvgl\src\lv_objx\../lv_core/../lv_misc/lv_area.h **** #include "../../../lv_conf.h"
  23:..\..\..\lvgl\version_6.1.2\lvgl\src\lv_objx\../lv_core/../lv_misc/lv_area.h **** #endif
  24:..\..\..\lvgl\version_6.1.2\lvgl\src\lv_objx\../lv_core/../lv_misc/lv_area.h **** 
  25:..\..\..\lvgl\version_6.1.2\lvgl\src\lv_objx\../lv_core/../lv_misc/lv_area.h **** /*********************
  26:..\..\..\lvgl\version_6.1.2\lvgl\src\lv_objx\../lv_core/../lv_misc/lv_area.h ****  *      DEFINES
  27:..\..\..\lvgl\version_6.1.2\lvgl\src\lv_objx\../lv_core/../lv_misc/lv_area.h ****  *********************/
  28:..\..\..\lvgl\version_6.1.2\lvgl\src\lv_objx\../lv_core/../lv_misc/lv_area.h **** /*To avoid overflow don't let the max ranges (reduce with 1000) */
  29:..\..\..\lvgl\version_6.1.2\lvgl\src\lv_objx\../lv_core/../lv_misc/lv_area.h **** #define LV_COORD_MAX ((lv_coord_t)((uint32_t)((uint32_t)1 << (8 * sizeof(lv_coord_t) - 1)) - 1000))
  30:..\..\..\lvgl\version_6.1.2\lvgl\src\lv_objx\../lv_core/../lv_misc/lv_area.h **** #define LV_COORD_MIN (-LV_COORD_MAX)
  31:..\..\..\lvgl\version_6.1.2\lvgl\src\lv_objx\../lv_core/../lv_misc/lv_area.h **** 
  32:..\..\..\lvgl\version_6.1.2\lvgl\src\lv_objx\../lv_core/../lv_misc/lv_area.h **** LV_EXPORT_CONST_INT(LV_COORD_MAX);
  33:..\..\..\lvgl\version_6.1.2\lvgl\src\lv_objx\../lv_core/../lv_misc/lv_area.h **** LV_EXPORT_CONST_INT(LV_COORD_MIN);
  34:..\..\..\lvgl\version_6.1.2\lvgl\src\lv_objx\../lv_core/../lv_misc/lv_area.h **** 
  35:..\..\..\lvgl\version_6.1.2\lvgl\src\lv_objx\../lv_core/../lv_misc/lv_area.h **** /**********************
  36:..\..\..\lvgl\version_6.1.2\lvgl\src\lv_objx\../lv_core/../lv_misc/lv_area.h ****  *      TYPEDEFS
ARM GAS  C:\Users\tmj32\AppData\Local\Temp\ccIZw7Ef.s 			page 5


  37:..\..\..\lvgl\version_6.1.2\lvgl\src\lv_objx\../lv_core/../lv_misc/lv_area.h ****  **********************/
  38:..\..\..\lvgl\version_6.1.2\lvgl\src\lv_objx\../lv_core/../lv_misc/lv_area.h **** 
  39:..\..\..\lvgl\version_6.1.2\lvgl\src\lv_objx\../lv_core/../lv_misc/lv_area.h **** /**
  40:..\..\..\lvgl\version_6.1.2\lvgl\src\lv_objx\../lv_core/../lv_misc/lv_area.h ****  * Represents a point on the screen.
  41:..\..\..\lvgl\version_6.1.2\lvgl\src\lv_objx\../lv_core/../lv_misc/lv_area.h ****  */
  42:..\..\..\lvgl\version_6.1.2\lvgl\src\lv_objx\../lv_core/../lv_misc/lv_area.h **** typedef struct
  43:..\..\..\lvgl\version_6.1.2\lvgl\src\lv_objx\../lv_core/../lv_misc/lv_area.h **** {
  44:..\..\..\lvgl\version_6.1.2\lvgl\src\lv_objx\../lv_core/../lv_misc/lv_area.h ****     lv_coord_t x;
  45:..\..\..\lvgl\version_6.1.2\lvgl\src\lv_objx\../lv_core/../lv_misc/lv_area.h ****     lv_coord_t y;
  46:..\..\..\lvgl\version_6.1.2\lvgl\src\lv_objx\../lv_core/../lv_misc/lv_area.h **** } lv_point_t;
  47:..\..\..\lvgl\version_6.1.2\lvgl\src\lv_objx\../lv_core/../lv_misc/lv_area.h **** 
  48:..\..\..\lvgl\version_6.1.2\lvgl\src\lv_objx\../lv_core/../lv_misc/lv_area.h **** /** Represents an area of the screen. */
  49:..\..\..\lvgl\version_6.1.2\lvgl\src\lv_objx\../lv_core/../lv_misc/lv_area.h **** typedef struct
  50:..\..\..\lvgl\version_6.1.2\lvgl\src\lv_objx\../lv_core/../lv_misc/lv_area.h **** {
  51:..\..\..\lvgl\version_6.1.2\lvgl\src\lv_objx\../lv_core/../lv_misc/lv_area.h ****     lv_coord_t x1;
  52:..\..\..\lvgl\version_6.1.2\lvgl\src\lv_objx\../lv_core/../lv_misc/lv_area.h ****     lv_coord_t y1;
  53:..\..\..\lvgl\version_6.1.2\lvgl\src\lv_objx\../lv_core/../lv_misc/lv_area.h ****     lv_coord_t x2;
  54:..\..\..\lvgl\version_6.1.2\lvgl\src\lv_objx\../lv_core/../lv_misc/lv_area.h ****     lv_coord_t y2;
  55:..\..\..\lvgl\version_6.1.2\lvgl\src\lv_objx\../lv_core/../lv_misc/lv_area.h **** } lv_area_t;
  56:..\..\..\lvgl\version_6.1.2\lvgl\src\lv_objx\../lv_core/../lv_misc/lv_area.h **** 
  57:..\..\..\lvgl\version_6.1.2\lvgl\src\lv_objx\../lv_core/../lv_misc/lv_area.h **** /**********************
  58:..\..\..\lvgl\version_6.1.2\lvgl\src\lv_objx\../lv_core/../lv_misc/lv_area.h ****  * GLOBAL PROTOTYPES
  59:..\..\..\lvgl\version_6.1.2\lvgl\src\lv_objx\../lv_core/../lv_misc/lv_area.h ****  **********************/
  60:..\..\..\lvgl\version_6.1.2\lvgl\src\lv_objx\../lv_core/../lv_misc/lv_area.h **** 
  61:..\..\..\lvgl\version_6.1.2\lvgl\src\lv_objx\../lv_core/../lv_misc/lv_area.h **** /**
  62:..\..\..\lvgl\version_6.1.2\lvgl\src\lv_objx\../lv_core/../lv_misc/lv_area.h ****  * Initialize an area
  63:..\..\..\lvgl\version_6.1.2\lvgl\src\lv_objx\../lv_core/../lv_misc/lv_area.h ****  * @param area_p pointer to an area
  64:..\..\..\lvgl\version_6.1.2\lvgl\src\lv_objx\../lv_core/../lv_misc/lv_area.h ****  * @param x1 left coordinate of the area
  65:..\..\..\lvgl\version_6.1.2\lvgl\src\lv_objx\../lv_core/../lv_misc/lv_area.h ****  * @param y1 top coordinate of the area
  66:..\..\..\lvgl\version_6.1.2\lvgl\src\lv_objx\../lv_core/../lv_misc/lv_area.h ****  * @param x2 right coordinate of the area
  67:..\..\..\lvgl\version_6.1.2\lvgl\src\lv_objx\../lv_core/../lv_misc/lv_area.h ****  * @param y2 bottom coordinate of the area
  68:..\..\..\lvgl\version_6.1.2\lvgl\src\lv_objx\../lv_core/../lv_misc/lv_area.h ****  */
  69:..\..\..\lvgl\version_6.1.2\lvgl\src\lv_objx\../lv_core/../lv_misc/lv_area.h **** void lv_area_set(lv_area_t * area_p, lv_coord_t x1, lv_coord_t y1, lv_coord_t x2, lv_coord_t y2);
  70:..\..\..\lvgl\version_6.1.2\lvgl\src\lv_objx\../lv_core/../lv_misc/lv_area.h **** 
  71:..\..\..\lvgl\version_6.1.2\lvgl\src\lv_objx\../lv_core/../lv_misc/lv_area.h **** /**
  72:..\..\..\lvgl\version_6.1.2\lvgl\src\lv_objx\../lv_core/../lv_misc/lv_area.h ****  * Copy an area
  73:..\..\..\lvgl\version_6.1.2\lvgl\src\lv_objx\../lv_core/../lv_misc/lv_area.h ****  * @param dest pointer to the destination area
  74:..\..\..\lvgl\version_6.1.2\lvgl\src\lv_objx\../lv_core/../lv_misc/lv_area.h ****  * @param src pointer to the source area
  75:..\..\..\lvgl\version_6.1.2\lvgl\src\lv_objx\../lv_core/../lv_misc/lv_area.h ****  */
  76:..\..\..\lvgl\version_6.1.2\lvgl\src\lv_objx\../lv_core/../lv_misc/lv_area.h **** inline static void lv_area_copy(lv_area_t * dest, const lv_area_t * src)
  77:..\..\..\lvgl\version_6.1.2\lvgl\src\lv_objx\../lv_core/../lv_misc/lv_area.h **** {
  78:..\..\..\lvgl\version_6.1.2\lvgl\src\lv_objx\../lv_core/../lv_misc/lv_area.h ****     memcpy(dest, src, sizeof(lv_area_t));
  79:..\..\..\lvgl\version_6.1.2\lvgl\src\lv_objx\../lv_core/../lv_misc/lv_area.h **** }
  80:..\..\..\lvgl\version_6.1.2\lvgl\src\lv_objx\../lv_core/../lv_misc/lv_area.h **** 
  81:..\..\..\lvgl\version_6.1.2\lvgl\src\lv_objx\../lv_core/../lv_misc/lv_area.h **** /**
  82:..\..\..\lvgl\version_6.1.2\lvgl\src\lv_objx\../lv_core/../lv_misc/lv_area.h ****  * Get the width of an area
  83:..\..\..\lvgl\version_6.1.2\lvgl\src\lv_objx\../lv_core/../lv_misc/lv_area.h ****  * @param area_p pointer to an area
  84:..\..\..\lvgl\version_6.1.2\lvgl\src\lv_objx\../lv_core/../lv_misc/lv_area.h ****  * @return the width of the area (if x1 == x2 -> width = 1)
  85:..\..\..\lvgl\version_6.1.2\lvgl\src\lv_objx\../lv_core/../lv_misc/lv_area.h ****  */
  86:..\..\..\lvgl\version_6.1.2\lvgl\src\lv_objx\../lv_core/../lv_misc/lv_area.h **** static inline lv_coord_t lv_area_get_width(const lv_area_t * area_p)
  87:..\..\..\lvgl\version_6.1.2\lvgl\src\lv_objx\../lv_core/../lv_misc/lv_area.h **** {
  66              		.loc 2 87 0
  67              		.cfi_startproc
  68              		@ args = 0, pretend = 0, frame = 8
  69              		@ frame_needed = 1, uses_anonymous_args = 0
  70              		@ link register save eliminated.
  71 0000 80B4     		push	{r7}
ARM GAS  C:\Users\tmj32\AppData\Local\Temp\ccIZw7Ef.s 			page 6


  72              		.cfi_def_cfa_offset 4
  73              		.cfi_offset 7, -4
  74 0002 83B0     		sub	sp, sp, #12
  75              		.cfi_def_cfa_offset 16
  76 0004 00AF     		add	r7, sp, #0
  77              		.cfi_def_cfa_register 7
  78 0006 7860     		str	r0, [r7, #4]
  88:..\..\..\lvgl\version_6.1.2\lvgl\src\lv_objx\../lv_core/../lv_misc/lv_area.h ****     return (lv_coord_t)(area_p->x2 - area_p->x1 + 1);
  79              		.loc 2 88 0
  80 0008 7B68     		ldr	r3, [r7, #4]
  81 000a B3F90430 		ldrsh	r3, [r3, #4]
  82 000e 9AB2     		uxth	r2, r3
  83 0010 7B68     		ldr	r3, [r7, #4]
  84 0012 B3F90030 		ldrsh	r3, [r3]
  85 0016 9BB2     		uxth	r3, r3
  86 0018 D31A     		subs	r3, r2, r3
  87 001a 9BB2     		uxth	r3, r3
  88 001c 0133     		adds	r3, r3, #1
  89 001e 9BB2     		uxth	r3, r3
  90 0020 1BB2     		sxth	r3, r3
  89:..\..\..\lvgl\version_6.1.2\lvgl\src\lv_objx\../lv_core/../lv_misc/lv_area.h **** }
  91              		.loc 2 89 0
  92 0022 1846     		mov	r0, r3
  93 0024 0C37     		adds	r7, r7, #12
  94              		.cfi_def_cfa_offset 4
  95 0026 BD46     		mov	sp, r7
  96              		.cfi_def_cfa_register 13
  97              		@ sp needed
  98 0028 5DF8047B 		ldr	r7, [sp], #4
  99              		.cfi_restore 7
 100              		.cfi_def_cfa_offset 0
 101 002c 7047     		bx	lr
 102              		.cfi_endproc
 103              	.LFE11:
 104              		.size	lv_area_get_width, .-lv_area_get_width
 105 002e 00BF     		.bss
 106              		.align	2
 107              	ancestor_signal:
 108 0000 00000000 		.space	4
 109              		.align	2
 110              	ancestor_scrl_design:
 111 0004 00000000 		.space	4
 112              		.section	.text.lv_table_create,"ax",%progbits
 113              		.align	2
 114              		.global	lv_table_create
 115              		.thumb
 116              		.thumb_func
 117              		.type	lv_table_create, %function
 118              	lv_table_create:
 119              	.LFB33:
 120              		.file 3 "..\\..\\..\\lvgl\\version_6.1.2\\lvgl\\src\\lv_objx\\lv_table.c"
   1:..\..\..\lvgl\version_6.1.2\lvgl\src\lv_objx/lv_table.c **** /**
   2:..\..\..\lvgl\version_6.1.2\lvgl\src\lv_objx/lv_table.c ****  * @file lv_table.c
   3:..\..\..\lvgl\version_6.1.2\lvgl\src\lv_objx/lv_table.c ****  *
   4:..\..\..\lvgl\version_6.1.2\lvgl\src\lv_objx/lv_table.c ****  */
   5:..\..\..\lvgl\version_6.1.2\lvgl\src\lv_objx/lv_table.c **** 
   6:..\..\..\lvgl\version_6.1.2\lvgl\src\lv_objx/lv_table.c **** /*********************
ARM GAS  C:\Users\tmj32\AppData\Local\Temp\ccIZw7Ef.s 			page 7


   7:..\..\..\lvgl\version_6.1.2\lvgl\src\lv_objx/lv_table.c ****  *      INCLUDES
   8:..\..\..\lvgl\version_6.1.2\lvgl\src\lv_objx/lv_table.c ****  *********************/
   9:..\..\..\lvgl\version_6.1.2\lvgl\src\lv_objx/lv_table.c **** #include "lv_table.h"
  10:..\..\..\lvgl\version_6.1.2\lvgl\src\lv_objx/lv_table.c **** #if LV_USE_TABLE != 0
  11:..\..\..\lvgl\version_6.1.2\lvgl\src\lv_objx/lv_table.c **** 
  12:..\..\..\lvgl\version_6.1.2\lvgl\src\lv_objx/lv_table.c **** #include "../lv_core/lv_debug.h"
  13:..\..\..\lvgl\version_6.1.2\lvgl\src\lv_objx/lv_table.c **** #include "../lv_misc/lv_txt.h"
  14:..\..\..\lvgl\version_6.1.2\lvgl\src\lv_objx/lv_table.c **** #include "../lv_misc/lv_math.h"
  15:..\..\..\lvgl\version_6.1.2\lvgl\src\lv_objx/lv_table.c **** #include "../lv_draw/lv_draw_label.h"
  16:..\..\..\lvgl\version_6.1.2\lvgl\src\lv_objx/lv_table.c **** #include "../lv_themes/lv_theme.h"
  17:..\..\..\lvgl\version_6.1.2\lvgl\src\lv_objx/lv_table.c **** 
  18:..\..\..\lvgl\version_6.1.2\lvgl\src\lv_objx/lv_table.c **** /*********************
  19:..\..\..\lvgl\version_6.1.2\lvgl\src\lv_objx/lv_table.c ****  *      DEFINES
  20:..\..\..\lvgl\version_6.1.2\lvgl\src\lv_objx/lv_table.c ****  *********************/
  21:..\..\..\lvgl\version_6.1.2\lvgl\src\lv_objx/lv_table.c **** #define LV_OBJX_NAME "lv_table"
  22:..\..\..\lvgl\version_6.1.2\lvgl\src\lv_objx/lv_table.c **** 
  23:..\..\..\lvgl\version_6.1.2\lvgl\src\lv_objx/lv_table.c **** /**********************
  24:..\..\..\lvgl\version_6.1.2\lvgl\src\lv_objx/lv_table.c ****  *      TYPEDEFS
  25:..\..\..\lvgl\version_6.1.2\lvgl\src\lv_objx/lv_table.c ****  **********************/
  26:..\..\..\lvgl\version_6.1.2\lvgl\src\lv_objx/lv_table.c **** 
  27:..\..\..\lvgl\version_6.1.2\lvgl\src\lv_objx/lv_table.c **** /**********************
  28:..\..\..\lvgl\version_6.1.2\lvgl\src\lv_objx/lv_table.c ****  *  STATIC PROTOTYPES
  29:..\..\..\lvgl\version_6.1.2\lvgl\src\lv_objx/lv_table.c ****  **********************/
  30:..\..\..\lvgl\version_6.1.2\lvgl\src\lv_objx/lv_table.c **** static bool lv_table_design(lv_obj_t * table, const lv_area_t * mask, lv_design_mode_t mode);
  31:..\..\..\lvgl\version_6.1.2\lvgl\src\lv_objx/lv_table.c **** static lv_res_t lv_table_signal(lv_obj_t * table, lv_signal_t sign, void * param);
  32:..\..\..\lvgl\version_6.1.2\lvgl\src\lv_objx/lv_table.c **** static lv_coord_t get_row_height(lv_obj_t * table, uint16_t row_id);
  33:..\..\..\lvgl\version_6.1.2\lvgl\src\lv_objx/lv_table.c **** static void refr_size(lv_obj_t * table);
  34:..\..\..\lvgl\version_6.1.2\lvgl\src\lv_objx/lv_table.c **** 
  35:..\..\..\lvgl\version_6.1.2\lvgl\src\lv_objx/lv_table.c **** /**********************
  36:..\..\..\lvgl\version_6.1.2\lvgl\src\lv_objx/lv_table.c ****  *  STATIC VARIABLES
  37:..\..\..\lvgl\version_6.1.2\lvgl\src\lv_objx/lv_table.c ****  **********************/
  38:..\..\..\lvgl\version_6.1.2\lvgl\src\lv_objx/lv_table.c **** static lv_signal_cb_t ancestor_signal;
  39:..\..\..\lvgl\version_6.1.2\lvgl\src\lv_objx/lv_table.c **** static lv_design_cb_t ancestor_scrl_design;
  40:..\..\..\lvgl\version_6.1.2\lvgl\src\lv_objx/lv_table.c **** 
  41:..\..\..\lvgl\version_6.1.2\lvgl\src\lv_objx/lv_table.c **** /**********************
  42:..\..\..\lvgl\version_6.1.2\lvgl\src\lv_objx/lv_table.c ****  *      MACROS
  43:..\..\..\lvgl\version_6.1.2\lvgl\src\lv_objx/lv_table.c ****  **********************/
  44:..\..\..\lvgl\version_6.1.2\lvgl\src\lv_objx/lv_table.c **** 
  45:..\..\..\lvgl\version_6.1.2\lvgl\src\lv_objx/lv_table.c **** /**********************
  46:..\..\..\lvgl\version_6.1.2\lvgl\src\lv_objx/lv_table.c ****  *   GLOBAL FUNCTIONS
  47:..\..\..\lvgl\version_6.1.2\lvgl\src\lv_objx/lv_table.c ****  **********************/
  48:..\..\..\lvgl\version_6.1.2\lvgl\src\lv_objx/lv_table.c **** 
  49:..\..\..\lvgl\version_6.1.2\lvgl\src\lv_objx/lv_table.c **** /**
  50:..\..\..\lvgl\version_6.1.2\lvgl\src\lv_objx/lv_table.c ****  * Create a table object
  51:..\..\..\lvgl\version_6.1.2\lvgl\src\lv_objx/lv_table.c ****  * @param par pointer to an object, it will be the parent of the new table
  52:..\..\..\lvgl\version_6.1.2\lvgl\src\lv_objx/lv_table.c ****  * @param copy pointer to a table object, if not NULL then the new object will be copied from it
  53:..\..\..\lvgl\version_6.1.2\lvgl\src\lv_objx/lv_table.c ****  * @return pointer to the created table
  54:..\..\..\lvgl\version_6.1.2\lvgl\src\lv_objx/lv_table.c ****  */
  55:..\..\..\lvgl\version_6.1.2\lvgl\src\lv_objx/lv_table.c **** lv_obj_t * lv_table_create(lv_obj_t * par, const lv_obj_t * copy)
  56:..\..\..\lvgl\version_6.1.2\lvgl\src\lv_objx/lv_table.c **** {
 121              		.loc 3 56 0
 122              		.cfi_startproc
 123              		@ args = 0, pretend = 0, frame = 32
 124              		@ frame_needed = 1, uses_anonymous_args = 0
 125 0000 80B5     		push	{r7, lr}
 126              		.cfi_def_cfa_offset 8
 127              		.cfi_offset 7, -8
ARM GAS  C:\Users\tmj32\AppData\Local\Temp\ccIZw7Ef.s 			page 8


 128              		.cfi_offset 14, -4
 129 0002 88B0     		sub	sp, sp, #32
 130              		.cfi_def_cfa_offset 40
 131 0004 00AF     		add	r7, sp, #0
 132              		.cfi_def_cfa_register 7
 133 0006 7860     		str	r0, [r7, #4]
 134 0008 3960     		str	r1, [r7]
  57:..\..\..\lvgl\version_6.1.2\lvgl\src\lv_objx/lv_table.c ****     LV_LOG_TRACE("table create started");
  58:..\..\..\lvgl\version_6.1.2\lvgl\src\lv_objx/lv_table.c **** 
  59:..\..\..\lvgl\version_6.1.2\lvgl\src\lv_objx/lv_table.c ****     /*Create the ancestor of table*/
  60:..\..\..\lvgl\version_6.1.2\lvgl\src\lv_objx/lv_table.c ****     lv_obj_t * new_table = lv_obj_create(par, copy);
 135              		.loc 3 60 0
 136 000a 3968     		ldr	r1, [r7]
 137 000c 7868     		ldr	r0, [r7, #4]
 138 000e FFF7FEFF 		bl	lv_obj_create
 139 0012 B861     		str	r0, [r7, #24]
  61:..\..\..\lvgl\version_6.1.2\lvgl\src\lv_objx/lv_table.c ****     LV_ASSERT_MEM(new_table);
  62:..\..\..\lvgl\version_6.1.2\lvgl\src\lv_objx/lv_table.c ****     if(new_table == NULL) return NULL;
 140              		.loc 3 62 0
 141 0014 BB69     		ldr	r3, [r7, #24]
 142 0016 002B     		cmp	r3, #0
 143 0018 01D1     		bne	.L6
 144              		.loc 3 62 0 is_stmt 0 discriminator 1
 145 001a 0023     		movs	r3, #0
 146 001c A9E0     		b	.L7
 147              	.L6:
  63:..\..\..\lvgl\version_6.1.2\lvgl\src\lv_objx/lv_table.c **** 
  64:..\..\..\lvgl\version_6.1.2\lvgl\src\lv_objx/lv_table.c ****     /*Allocate the table type specific extended data*/
  65:..\..\..\lvgl\version_6.1.2\lvgl\src\lv_objx/lv_table.c ****     lv_table_ext_t * ext = lv_obj_allocate_ext_attr(new_table, sizeof(lv_table_ext_t));
 148              		.loc 3 65 0 is_stmt 1
 149 001e 3021     		movs	r1, #48
 150 0020 B869     		ldr	r0, [r7, #24]
 151 0022 FFF7FEFF 		bl	lv_obj_allocate_ext_attr
 152 0026 7861     		str	r0, [r7, #20]
  66:..\..\..\lvgl\version_6.1.2\lvgl\src\lv_objx/lv_table.c ****     LV_ASSERT_MEM(ext);
  67:..\..\..\lvgl\version_6.1.2\lvgl\src\lv_objx/lv_table.c ****     if(ext == NULL) return NULL;
 153              		.loc 3 67 0
 154 0028 7B69     		ldr	r3, [r7, #20]
 155 002a 002B     		cmp	r3, #0
 156 002c 01D1     		bne	.L8
 157              		.loc 3 67 0 is_stmt 0 discriminator 1
 158 002e 0023     		movs	r3, #0
 159 0030 9FE0     		b	.L7
 160              	.L8:
  68:..\..\..\lvgl\version_6.1.2\lvgl\src\lv_objx/lv_table.c ****     if(ancestor_signal == NULL) ancestor_signal = lv_obj_get_signal_cb(new_table);
 161              		.loc 3 68 0 is_stmt 1
 162 0032 524B     		ldr	r3, .L17
 163 0034 1B68     		ldr	r3, [r3]
 164 0036 002B     		cmp	r3, #0
 165 0038 05D1     		bne	.L9
 166              		.loc 3 68 0 is_stmt 0 discriminator 1
 167 003a B869     		ldr	r0, [r7, #24]
 168 003c FFF7FEFF 		bl	lv_obj_get_signal_cb
 169 0040 0246     		mov	r2, r0
 170 0042 4E4B     		ldr	r3, .L17
 171 0044 1A60     		str	r2, [r3]
 172              	.L9:
ARM GAS  C:\Users\tmj32\AppData\Local\Temp\ccIZw7Ef.s 			page 9


  69:..\..\..\lvgl\version_6.1.2\lvgl\src\lv_objx/lv_table.c ****     if(ancestor_scrl_design == NULL) ancestor_scrl_design = lv_obj_get_design_cb(new_table);
 173              		.loc 3 69 0 is_stmt 1
 174 0046 4E4B     		ldr	r3, .L17+4
 175 0048 1B68     		ldr	r3, [r3]
 176 004a 002B     		cmp	r3, #0
 177 004c 05D1     		bne	.L10
 178              		.loc 3 69 0 is_stmt 0 discriminator 1
 179 004e B869     		ldr	r0, [r7, #24]
 180 0050 FFF7FEFF 		bl	lv_obj_get_design_cb
 181 0054 0246     		mov	r2, r0
 182 0056 4A4B     		ldr	r3, .L17+4
 183 0058 1A60     		str	r2, [r3]
 184              	.L10:
  70:..\..\..\lvgl\version_6.1.2\lvgl\src\lv_objx/lv_table.c **** 
  71:..\..\..\lvgl\version_6.1.2\lvgl\src\lv_objx/lv_table.c ****     /*Initialize the allocated 'ext' */
  72:..\..\..\lvgl\version_6.1.2\lvgl\src\lv_objx/lv_table.c ****     ext->cell_data     = NULL;
 185              		.loc 3 72 0 is_stmt 1
 186 005a 7B69     		ldr	r3, [r7, #20]
 187 005c 0022     		movs	r2, #0
 188 005e 5A60     		str	r2, [r3, #4]
  73:..\..\..\lvgl\version_6.1.2\lvgl\src\lv_objx/lv_table.c ****     ext->cell_style[0] = &lv_style_plain;
 189              		.loc 3 73 0
 190 0060 7B69     		ldr	r3, [r7, #20]
 191 0062 484A     		ldr	r2, .L17+8
 192 0064 9A60     		str	r2, [r3, #8]
  74:..\..\..\lvgl\version_6.1.2\lvgl\src\lv_objx/lv_table.c ****     ext->cell_style[1] = &lv_style_plain;
 193              		.loc 3 74 0
 194 0066 7B69     		ldr	r3, [r7, #20]
 195 0068 464A     		ldr	r2, .L17+8
 196 006a DA60     		str	r2, [r3, #12]
  75:..\..\..\lvgl\version_6.1.2\lvgl\src\lv_objx/lv_table.c ****     ext->cell_style[2] = &lv_style_plain;
 197              		.loc 3 75 0
 198 006c 7B69     		ldr	r3, [r7, #20]
 199 006e 454A     		ldr	r2, .L17+8
 200 0070 1A61     		str	r2, [r3, #16]
  76:..\..\..\lvgl\version_6.1.2\lvgl\src\lv_objx/lv_table.c ****     ext->cell_style[3] = &lv_style_plain;
 201              		.loc 3 76 0
 202 0072 7B69     		ldr	r3, [r7, #20]
 203 0074 434A     		ldr	r2, .L17+8
 204 0076 5A61     		str	r2, [r3, #20]
  77:..\..\..\lvgl\version_6.1.2\lvgl\src\lv_objx/lv_table.c ****     ext->col_cnt       = 0;
 205              		.loc 3 77 0
 206 0078 7B69     		ldr	r3, [r7, #20]
 207 007a 0022     		movs	r2, #0
 208 007c 1A80     		strh	r2, [r3]	@ movhi
  78:..\..\..\lvgl\version_6.1.2\lvgl\src\lv_objx/lv_table.c ****     ext->row_cnt       = 0;
 209              		.loc 3 78 0
 210 007e 7B69     		ldr	r3, [r7, #20]
 211 0080 0022     		movs	r2, #0
 212 0082 5A80     		strh	r2, [r3, #2]	@ movhi
  79:..\..\..\lvgl\version_6.1.2\lvgl\src\lv_objx/lv_table.c **** 
  80:..\..\..\lvgl\version_6.1.2\lvgl\src\lv_objx/lv_table.c ****     uint16_t i;
  81:..\..\..\lvgl\version_6.1.2\lvgl\src\lv_objx/lv_table.c ****     for(i = 0; i < LV_TABLE_COL_MAX; i++) {
 213              		.loc 3 81 0
 214 0084 0023     		movs	r3, #0
 215 0086 FB83     		strh	r3, [r7, #30]	@ movhi
 216 0088 08E0     		b	.L11
ARM GAS  C:\Users\tmj32\AppData\Local\Temp\ccIZw7Ef.s 			page 10


 217              	.L12:
  82:..\..\..\lvgl\version_6.1.2\lvgl\src\lv_objx/lv_table.c ****         ext->col_w[i] = LV_DPI;
 218              		.loc 3 82 0 discriminator 3
 219 008a FA8B     		ldrh	r2, [r7, #30]
 220 008c 7B69     		ldr	r3, [r7, #20]
 221 008e 0C32     		adds	r2, r2, #12
 222 0090 9621     		movs	r1, #150
 223 0092 23F81210 		strh	r1, [r3, r2, lsl #1]	@ movhi
  81:..\..\..\lvgl\version_6.1.2\lvgl\src\lv_objx/lv_table.c ****         ext->col_w[i] = LV_DPI;
 224              		.loc 3 81 0 discriminator 3
 225 0096 FB8B     		ldrh	r3, [r7, #30]
 226 0098 0133     		adds	r3, r3, #1
 227 009a FB83     		strh	r3, [r7, #30]	@ movhi
 228              	.L11:
  81:..\..\..\lvgl\version_6.1.2\lvgl\src\lv_objx/lv_table.c ****         ext->col_w[i] = LV_DPI;
 229              		.loc 3 81 0 is_stmt 0 discriminator 1
 230 009c FB8B     		ldrh	r3, [r7, #30]
 231 009e 0B2B     		cmp	r3, #11
 232 00a0 F3D9     		bls	.L12
  83:..\..\..\lvgl\version_6.1.2\lvgl\src\lv_objx/lv_table.c ****     }
  84:..\..\..\lvgl\version_6.1.2\lvgl\src\lv_objx/lv_table.c **** 
  85:..\..\..\lvgl\version_6.1.2\lvgl\src\lv_objx/lv_table.c ****     /*The signal and design functions are not copied so set them here*/
  86:..\..\..\lvgl\version_6.1.2\lvgl\src\lv_objx/lv_table.c ****     lv_obj_set_signal_cb(new_table, lv_table_signal);
 233              		.loc 3 86 0 is_stmt 1
 234 00a2 3949     		ldr	r1, .L17+12
 235 00a4 B869     		ldr	r0, [r7, #24]
 236 00a6 FFF7FEFF 		bl	lv_obj_set_signal_cb
  87:..\..\..\lvgl\version_6.1.2\lvgl\src\lv_objx/lv_table.c ****     lv_obj_set_design_cb(new_table, lv_table_design);
 237              		.loc 3 87 0
 238 00aa 3849     		ldr	r1, .L17+16
 239 00ac B869     		ldr	r0, [r7, #24]
 240 00ae FFF7FEFF 		bl	lv_obj_set_design_cb
  88:..\..\..\lvgl\version_6.1.2\lvgl\src\lv_objx/lv_table.c **** 
  89:..\..\..\lvgl\version_6.1.2\lvgl\src\lv_objx/lv_table.c ****     /*Init the new table table*/
  90:..\..\..\lvgl\version_6.1.2\lvgl\src\lv_objx/lv_table.c ****     if(copy == NULL) {
 241              		.loc 3 90 0
 242 00b2 3B68     		ldr	r3, [r7]
 243 00b4 002B     		cmp	r3, #0
 244 00b6 38D1     		bne	.L13
 245              	.LBB2:
  91:..\..\..\lvgl\version_6.1.2\lvgl\src\lv_objx/lv_table.c ****         /*Set the default styles*/
  92:..\..\..\lvgl\version_6.1.2\lvgl\src\lv_objx/lv_table.c ****         lv_theme_t * th = lv_theme_get_current();
 246              		.loc 3 92 0
 247 00b8 FFF7FEFF 		bl	lv_theme_get_current
 248 00bc 3861     		str	r0, [r7, #16]
  93:..\..\..\lvgl\version_6.1.2\lvgl\src\lv_objx/lv_table.c ****         if(th) {
 249              		.loc 3 93 0
 250 00be 3B69     		ldr	r3, [r7, #16]
 251 00c0 002B     		cmp	r3, #0
 252 00c2 28D0     		beq	.L14
  94:..\..\..\lvgl\version_6.1.2\lvgl\src\lv_objx/lv_table.c ****             lv_table_set_style(new_table, LV_TABLE_STYLE_BG, th->style.table.bg);
 253              		.loc 3 94 0
 254 00c4 3B69     		ldr	r3, [r7, #16]
 255 00c6 D3F88831 		ldr	r3, [r3, #392]
 256 00ca 1A46     		mov	r2, r3
 257 00cc 0021     		movs	r1, #0
 258 00ce B869     		ldr	r0, [r7, #24]
ARM GAS  C:\Users\tmj32\AppData\Local\Temp\ccIZw7Ef.s 			page 11


 259 00d0 FFF7FEFF 		bl	lv_table_set_style
  95:..\..\..\lvgl\version_6.1.2\lvgl\src\lv_objx/lv_table.c ****             lv_table_set_style(new_table, LV_TABLE_STYLE_CELL1, th->style.table.cell);
 260              		.loc 3 95 0
 261 00d4 3B69     		ldr	r3, [r7, #16]
 262 00d6 D3F88C31 		ldr	r3, [r3, #396]
 263 00da 1A46     		mov	r2, r3
 264 00dc 0121     		movs	r1, #1
 265 00de B869     		ldr	r0, [r7, #24]
 266 00e0 FFF7FEFF 		bl	lv_table_set_style
  96:..\..\..\lvgl\version_6.1.2\lvgl\src\lv_objx/lv_table.c ****             lv_table_set_style(new_table, LV_TABLE_STYLE_CELL2, th->style.table.cell);
 267              		.loc 3 96 0
 268 00e4 3B69     		ldr	r3, [r7, #16]
 269 00e6 D3F88C31 		ldr	r3, [r3, #396]
 270 00ea 1A46     		mov	r2, r3
 271 00ec 0221     		movs	r1, #2
 272 00ee B869     		ldr	r0, [r7, #24]
 273 00f0 FFF7FEFF 		bl	lv_table_set_style
  97:..\..\..\lvgl\version_6.1.2\lvgl\src\lv_objx/lv_table.c ****             lv_table_set_style(new_table, LV_TABLE_STYLE_CELL3, th->style.table.cell);
 274              		.loc 3 97 0
 275 00f4 3B69     		ldr	r3, [r7, #16]
 276 00f6 D3F88C31 		ldr	r3, [r3, #396]
 277 00fa 1A46     		mov	r2, r3
 278 00fc 0321     		movs	r1, #3
 279 00fe B869     		ldr	r0, [r7, #24]
 280 0100 FFF7FEFF 		bl	lv_table_set_style
  98:..\..\..\lvgl\version_6.1.2\lvgl\src\lv_objx/lv_table.c ****             lv_table_set_style(new_table, LV_TABLE_STYLE_CELL4, th->style.table.cell);
 281              		.loc 3 98 0
 282 0104 3B69     		ldr	r3, [r7, #16]
 283 0106 D3F88C31 		ldr	r3, [r3, #396]
 284 010a 1A46     		mov	r2, r3
 285 010c 0421     		movs	r1, #4
 286 010e B869     		ldr	r0, [r7, #24]
 287 0110 FFF7FEFF 		bl	lv_table_set_style
 288 0114 04E0     		b	.L15
 289              	.L14:
  99:..\..\..\lvgl\version_6.1.2\lvgl\src\lv_objx/lv_table.c ****         } else {
 100:..\..\..\lvgl\version_6.1.2\lvgl\src\lv_objx/lv_table.c ****             lv_table_set_style(new_table, LV_TABLE_STYLE_BG, &lv_style_plain_color);
 290              		.loc 3 100 0
 291 0116 1E4A     		ldr	r2, .L17+20
 292 0118 0021     		movs	r1, #0
 293 011a B869     		ldr	r0, [r7, #24]
 294 011c FFF7FEFF 		bl	lv_table_set_style
 295              	.L15:
 101:..\..\..\lvgl\version_6.1.2\lvgl\src\lv_objx/lv_table.c ****         }
 102:..\..\..\lvgl\version_6.1.2\lvgl\src\lv_objx/lv_table.c ****         lv_obj_set_click(new_table, false); /*Can be removed if click support is added*/
 296              		.loc 3 102 0
 297 0120 0021     		movs	r1, #0
 298 0122 B869     		ldr	r0, [r7, #24]
 299 0124 FFF7FEFF 		bl	lv_obj_set_click
 300              	.LBE2:
 301 0128 22E0     		b	.L16
 302              	.L13:
 303              	.LBB3:
 103:..\..\..\lvgl\version_6.1.2\lvgl\src\lv_objx/lv_table.c ****     }
 104:..\..\..\lvgl\version_6.1.2\lvgl\src\lv_objx/lv_table.c ****     /*Copy an existing table*/
 105:..\..\..\lvgl\version_6.1.2\lvgl\src\lv_objx/lv_table.c ****     else {
 106:..\..\..\lvgl\version_6.1.2\lvgl\src\lv_objx/lv_table.c ****         lv_table_ext_t * copy_ext = lv_obj_get_ext_attr(copy);
ARM GAS  C:\Users\tmj32\AppData\Local\Temp\ccIZw7Ef.s 			page 12


 304              		.loc 3 106 0
 305 012a 3868     		ldr	r0, [r7]
 306 012c FFF7FEFF 		bl	lv_obj_get_ext_attr
 307 0130 F860     		str	r0, [r7, #12]
 107:..\..\..\lvgl\version_6.1.2\lvgl\src\lv_objx/lv_table.c ****         ext->cell_style[0]        = copy_ext->cell_style[0];
 308              		.loc 3 107 0
 309 0132 FB68     		ldr	r3, [r7, #12]
 310 0134 9A68     		ldr	r2, [r3, #8]
 311 0136 7B69     		ldr	r3, [r7, #20]
 312 0138 9A60     		str	r2, [r3, #8]
 108:..\..\..\lvgl\version_6.1.2\lvgl\src\lv_objx/lv_table.c ****         ext->cell_style[1]        = copy_ext->cell_style[1];
 313              		.loc 3 108 0
 314 013a FB68     		ldr	r3, [r7, #12]
 315 013c DA68     		ldr	r2, [r3, #12]
 316 013e 7B69     		ldr	r3, [r7, #20]
 317 0140 DA60     		str	r2, [r3, #12]
 109:..\..\..\lvgl\version_6.1.2\lvgl\src\lv_objx/lv_table.c ****         ext->cell_style[2]        = copy_ext->cell_style[2];
 318              		.loc 3 109 0
 319 0142 FB68     		ldr	r3, [r7, #12]
 320 0144 1A69     		ldr	r2, [r3, #16]
 321 0146 7B69     		ldr	r3, [r7, #20]
 322 0148 1A61     		str	r2, [r3, #16]
 110:..\..\..\lvgl\version_6.1.2\lvgl\src\lv_objx/lv_table.c ****         ext->cell_style[3]        = copy_ext->cell_style[3];
 323              		.loc 3 110 0
 324 014a FB68     		ldr	r3, [r7, #12]
 325 014c 5A69     		ldr	r2, [r3, #20]
 326 014e 7B69     		ldr	r3, [r7, #20]
 327 0150 5A61     		str	r2, [r3, #20]
 111:..\..\..\lvgl\version_6.1.2\lvgl\src\lv_objx/lv_table.c ****         lv_table_set_row_cnt(new_table, copy_ext->row_cnt);
 328              		.loc 3 111 0
 329 0152 FB68     		ldr	r3, [r7, #12]
 330 0154 5B88     		ldrh	r3, [r3, #2]
 331 0156 1946     		mov	r1, r3
 332 0158 B869     		ldr	r0, [r7, #24]
 333 015a FFF7FEFF 		bl	lv_table_set_row_cnt
 112:..\..\..\lvgl\version_6.1.2\lvgl\src\lv_objx/lv_table.c ****         lv_table_set_col_cnt(new_table, copy_ext->col_cnt);
 334              		.loc 3 112 0
 335 015e FB68     		ldr	r3, [r7, #12]
 336 0160 1B88     		ldrh	r3, [r3]
 337 0162 1946     		mov	r1, r3
 338 0164 B869     		ldr	r0, [r7, #24]
 339 0166 FFF7FEFF 		bl	lv_table_set_col_cnt
 113:..\..\..\lvgl\version_6.1.2\lvgl\src\lv_objx/lv_table.c **** 
 114:..\..\..\lvgl\version_6.1.2\lvgl\src\lv_objx/lv_table.c ****         /*Refresh the style with new signal function*/
 115:..\..\..\lvgl\version_6.1.2\lvgl\src\lv_objx/lv_table.c ****         lv_obj_refresh_style(new_table);
 340              		.loc 3 115 0
 341 016a B869     		ldr	r0, [r7, #24]
 342 016c FFF7FEFF 		bl	lv_obj_refresh_style
 343              	.L16:
 344              	.LBE3:
 116:..\..\..\lvgl\version_6.1.2\lvgl\src\lv_objx/lv_table.c ****     }
 117:..\..\..\lvgl\version_6.1.2\lvgl\src\lv_objx/lv_table.c **** 
 118:..\..\..\lvgl\version_6.1.2\lvgl\src\lv_objx/lv_table.c ****     LV_LOG_INFO("table created");
 119:..\..\..\lvgl\version_6.1.2\lvgl\src\lv_objx/lv_table.c **** 
 120:..\..\..\lvgl\version_6.1.2\lvgl\src\lv_objx/lv_table.c ****     return new_table;
 345              		.loc 3 120 0
 346 0170 BB69     		ldr	r3, [r7, #24]
ARM GAS  C:\Users\tmj32\AppData\Local\Temp\ccIZw7Ef.s 			page 13


 347              	.L7:
 121:..\..\..\lvgl\version_6.1.2\lvgl\src\lv_objx/lv_table.c **** }
 348              		.loc 3 121 0
 349 0172 1846     		mov	r0, r3
 350 0174 2037     		adds	r7, r7, #32
 351              		.cfi_def_cfa_offset 8
 352 0176 BD46     		mov	sp, r7
 353              		.cfi_def_cfa_register 13
 354              		@ sp needed
 355 0178 80BD     		pop	{r7, pc}
 356              	.L18:
 357 017a 00BF     		.align	2
 358              	.L17:
 359 017c 00000000 		.word	ancestor_signal
 360 0180 04000000 		.word	ancestor_scrl_design
 361 0184 00000000 		.word	lv_style_plain
 362 0188 00000000 		.word	lv_table_signal
 363 018c 00000000 		.word	lv_table_design
 364 0190 00000000 		.word	lv_style_plain_color
 365              		.cfi_endproc
 366              	.LFE33:
 367              		.size	lv_table_create, .-lv_table_create
 368              		.section	.text.lv_table_set_cell_value,"ax",%progbits
 369              		.align	2
 370              		.global	lv_table_set_cell_value
 371              		.thumb
 372              		.thumb_func
 373              		.type	lv_table_set_cell_value, %function
 374              	lv_table_set_cell_value:
 375              	.LFB34:
 122:..\..\..\lvgl\version_6.1.2\lvgl\src\lv_objx/lv_table.c **** 
 123:..\..\..\lvgl\version_6.1.2\lvgl\src\lv_objx/lv_table.c **** /*=====================
 124:..\..\..\lvgl\version_6.1.2\lvgl\src\lv_objx/lv_table.c ****  * Setter functions
 125:..\..\..\lvgl\version_6.1.2\lvgl\src\lv_objx/lv_table.c ****  *====================*/
 126:..\..\..\lvgl\version_6.1.2\lvgl\src\lv_objx/lv_table.c **** 
 127:..\..\..\lvgl\version_6.1.2\lvgl\src\lv_objx/lv_table.c **** /**
 128:..\..\..\lvgl\version_6.1.2\lvgl\src\lv_objx/lv_table.c ****  * Set the value of a cell.
 129:..\..\..\lvgl\version_6.1.2\lvgl\src\lv_objx/lv_table.c ****  * @param table pointer to a Table object
 130:..\..\..\lvgl\version_6.1.2\lvgl\src\lv_objx/lv_table.c ****  * @param row id of the row [0 .. row_cnt -1]
 131:..\..\..\lvgl\version_6.1.2\lvgl\src\lv_objx/lv_table.c ****  * @param col id of the column [0 .. col_cnt -1]
 132:..\..\..\lvgl\version_6.1.2\lvgl\src\lv_objx/lv_table.c ****  * @param txt text to display in the cell. It will be copied and saved so this variable is not
 133:..\..\..\lvgl\version_6.1.2\lvgl\src\lv_objx/lv_table.c ****  * required after this function call.
 134:..\..\..\lvgl\version_6.1.2\lvgl\src\lv_objx/lv_table.c ****  */
 135:..\..\..\lvgl\version_6.1.2\lvgl\src\lv_objx/lv_table.c **** void lv_table_set_cell_value(lv_obj_t * table, uint16_t row, uint16_t col, const char * txt)
 136:..\..\..\lvgl\version_6.1.2\lvgl\src\lv_objx/lv_table.c **** {
 376              		.loc 3 136 0
 377              		.cfi_startproc
 378              		@ args = 0, pretend = 0, frame = 32
 379              		@ frame_needed = 1, uses_anonymous_args = 0
 380 0000 B0B5     		push	{r4, r5, r7, lr}
 381              		.cfi_def_cfa_offset 16
 382              		.cfi_offset 4, -16
 383              		.cfi_offset 5, -12
 384              		.cfi_offset 7, -8
 385              		.cfi_offset 14, -4
 386 0002 88B0     		sub	sp, sp, #32
 387              		.cfi_def_cfa_offset 48
ARM GAS  C:\Users\tmj32\AppData\Local\Temp\ccIZw7Ef.s 			page 14


 388 0004 00AF     		add	r7, sp, #0
 389              		.cfi_def_cfa_register 7
 390 0006 F860     		str	r0, [r7, #12]
 391 0008 7B60     		str	r3, [r7, #4]
 392 000a 0B46     		mov	r3, r1	@ movhi
 393 000c 7B81     		strh	r3, [r7, #10]	@ movhi
 394 000e 1346     		mov	r3, r2	@ movhi
 395 0010 3B81     		strh	r3, [r7, #8]	@ movhi
 137:..\..\..\lvgl\version_6.1.2\lvgl\src\lv_objx/lv_table.c ****     LV_ASSERT_OBJ(table, LV_OBJX_NAME);
 138:..\..\..\lvgl\version_6.1.2\lvgl\src\lv_objx/lv_table.c ****     LV_ASSERT_NULL(txt);
 139:..\..\..\lvgl\version_6.1.2\lvgl\src\lv_objx/lv_table.c **** 
 140:..\..\..\lvgl\version_6.1.2\lvgl\src\lv_objx/lv_table.c ****     lv_table_ext_t * ext = lv_obj_get_ext_attr(table);
 396              		.loc 3 140 0
 397 0012 F868     		ldr	r0, [r7, #12]
 398 0014 FFF7FEFF 		bl	lv_obj_get_ext_attr
 399 0018 F861     		str	r0, [r7, #28]
 141:..\..\..\lvgl\version_6.1.2\lvgl\src\lv_objx/lv_table.c ****     if(row >= ext->row_cnt || col >= ext->col_cnt) {
 400              		.loc 3 141 0
 401 001a FB69     		ldr	r3, [r7, #28]
 402 001c 5B88     		ldrh	r3, [r3, #2]
 403 001e 7A89     		ldrh	r2, [r7, #10]
 404 0020 9A42     		cmp	r2, r3
 405 0022 5AD2     		bcs	.L25
 406              		.loc 3 141 0 is_stmt 0 discriminator 1
 407 0024 FB69     		ldr	r3, [r7, #28]
 408 0026 1B88     		ldrh	r3, [r3]
 409 0028 3A89     		ldrh	r2, [r7, #8]
 410 002a 9A42     		cmp	r2, r3
 411 002c 55D2     		bcs	.L25
 142:..\..\..\lvgl\version_6.1.2\lvgl\src\lv_objx/lv_table.c ****         LV_LOG_WARN("lv_table_set_cell_value: invalid row or column");
 143:..\..\..\lvgl\version_6.1.2\lvgl\src\lv_objx/lv_table.c ****         return;
 144:..\..\..\lvgl\version_6.1.2\lvgl\src\lv_objx/lv_table.c ****     }
 145:..\..\..\lvgl\version_6.1.2\lvgl\src\lv_objx/lv_table.c ****     uint32_t cell = row * ext->col_cnt + col;
 412              		.loc 3 145 0 is_stmt 1
 413 002e 7B89     		ldrh	r3, [r7, #10]
 414 0030 FA69     		ldr	r2, [r7, #28]
 415 0032 1288     		ldrh	r2, [r2]
 416 0034 02FB03F2 		mul	r2, r2, r3
 417 0038 3B89     		ldrh	r3, [r7, #8]
 418 003a 1344     		add	r3, r3, r2
 419 003c BB61     		str	r3, [r7, #24]
 146:..\..\..\lvgl\version_6.1.2\lvgl\src\lv_objx/lv_table.c ****     lv_table_cell_format_t format;
 147:..\..\..\lvgl\version_6.1.2\lvgl\src\lv_objx/lv_table.c **** 
 148:..\..\..\lvgl\version_6.1.2\lvgl\src\lv_objx/lv_table.c ****     /*Save the format byte*/
 149:..\..\..\lvgl\version_6.1.2\lvgl\src\lv_objx/lv_table.c ****     if(ext->cell_data[cell]) {
 420              		.loc 3 149 0
 421 003e FB69     		ldr	r3, [r7, #28]
 422 0040 5A68     		ldr	r2, [r3, #4]
 423 0042 BB69     		ldr	r3, [r7, #24]
 424 0044 9B00     		lsls	r3, r3, #2
 425 0046 1344     		add	r3, r3, r2
 426 0048 1B68     		ldr	r3, [r3]
 427 004a 002B     		cmp	r3, #0
 428 004c 08D0     		beq	.L23
 150:..\..\..\lvgl\version_6.1.2\lvgl\src\lv_objx/lv_table.c ****         format.format_byte = ext->cell_data[cell][0];
 429              		.loc 3 150 0
 430 004e FB69     		ldr	r3, [r7, #28]
ARM GAS  C:\Users\tmj32\AppData\Local\Temp\ccIZw7Ef.s 			page 15


 431 0050 5A68     		ldr	r2, [r3, #4]
 432 0052 BB69     		ldr	r3, [r7, #24]
 433 0054 9B00     		lsls	r3, r3, #2
 434 0056 1344     		add	r3, r3, r2
 435 0058 1B68     		ldr	r3, [r3]
 436 005a 1B78     		ldrb	r3, [r3]	@ zero_extendqisi2
 437 005c 3B75     		strb	r3, [r7, #20]
 438 005e 0FE0     		b	.L24
 439              	.L23:
 151:..\..\..\lvgl\version_6.1.2\lvgl\src\lv_objx/lv_table.c ****     }
 152:..\..\..\lvgl\version_6.1.2\lvgl\src\lv_objx/lv_table.c ****     /*Initialize the format byte*/
 153:..\..\..\lvgl\version_6.1.2\lvgl\src\lv_objx/lv_table.c ****     else {
 154:..\..\..\lvgl\version_6.1.2\lvgl\src\lv_objx/lv_table.c **** #if LV_USE_BIDI
 155:..\..\..\lvgl\version_6.1.2\lvgl\src\lv_objx/lv_table.c ****         lv_bidi_dir_t base_dir = lv_obj_get_base_dir(table);
 156:..\..\..\lvgl\version_6.1.2\lvgl\src\lv_objx/lv_table.c ****         if(base_dir == LV_BIDI_DIR_LTR) format.s.align = LV_LABEL_ALIGN_LEFT;
 157:..\..\..\lvgl\version_6.1.2\lvgl\src\lv_objx/lv_table.c ****         else if(base_dir == LV_BIDI_DIR_RTL) format.s.align = LV_LABEL_ALIGN_RIGHT;
 158:..\..\..\lvgl\version_6.1.2\lvgl\src\lv_objx/lv_table.c ****         else if(base_dir == LV_BIDI_DIR_AUTO) format.s.align = lv_bidi_detect_base_dir(txt);
 159:..\..\..\lvgl\version_6.1.2\lvgl\src\lv_objx/lv_table.c **** #else
 160:..\..\..\lvgl\version_6.1.2\lvgl\src\lv_objx/lv_table.c ****         format.s.align = LV_LABEL_ALIGN_LEFT;
 440              		.loc 3 160 0
 441 0060 3B7D     		ldrb	r3, [r7, #20]
 442 0062 6FF30103 		bfc	r3, #0, #2
 443 0066 3B75     		strb	r3, [r7, #20]
 161:..\..\..\lvgl\version_6.1.2\lvgl\src\lv_objx/lv_table.c **** #endif
 162:..\..\..\lvgl\version_6.1.2\lvgl\src\lv_objx/lv_table.c **** 
 163:..\..\..\lvgl\version_6.1.2\lvgl\src\lv_objx/lv_table.c ****         format.s.right_merge = 0;
 444              		.loc 3 163 0
 445 0068 3B7D     		ldrb	r3, [r7, #20]
 446 006a 6FF38203 		bfc	r3, #2, #1
 447 006e 3B75     		strb	r3, [r7, #20]
 164:..\..\..\lvgl\version_6.1.2\lvgl\src\lv_objx/lv_table.c ****         format.s.type        = 0;
 448              		.loc 3 164 0
 449 0070 3B7D     		ldrb	r3, [r7, #20]
 450 0072 6FF3C403 		bfc	r3, #3, #2
 451 0076 3B75     		strb	r3, [r7, #20]
 165:..\..\..\lvgl\version_6.1.2\lvgl\src\lv_objx/lv_table.c ****         format.s.crop        = 0;
 452              		.loc 3 165 0
 453 0078 3B7D     		ldrb	r3, [r7, #20]
 454 007a 6FF34513 		bfc	r3, #5, #1
 455 007e 3B75     		strb	r3, [r7, #20]
 456              	.L24:
 166:..\..\..\lvgl\version_6.1.2\lvgl\src\lv_objx/lv_table.c ****     }
 167:..\..\..\lvgl\version_6.1.2\lvgl\src\lv_objx/lv_table.c **** 
 168:..\..\..\lvgl\version_6.1.2\lvgl\src\lv_objx/lv_table.c ****     ext->cell_data[cell] = lv_mem_realloc(ext->cell_data[cell], strlen(txt) + 2); /*+1: trailing '\
 457              		.loc 3 168 0
 458 0080 FB69     		ldr	r3, [r7, #28]
 459 0082 5A68     		ldr	r2, [r3, #4]
 460 0084 BB69     		ldr	r3, [r7, #24]
 461 0086 9B00     		lsls	r3, r3, #2
 462 0088 D418     		adds	r4, r2, r3
 463 008a FB69     		ldr	r3, [r7, #28]
 464 008c 5A68     		ldr	r2, [r3, #4]
 465 008e BB69     		ldr	r3, [r7, #24]
 466 0090 9B00     		lsls	r3, r3, #2
 467 0092 1344     		add	r3, r3, r2
 468 0094 1D68     		ldr	r5, [r3]
 469 0096 7868     		ldr	r0, [r7, #4]
ARM GAS  C:\Users\tmj32\AppData\Local\Temp\ccIZw7Ef.s 			page 16


 470 0098 FFF7FEFF 		bl	strlen
 471 009c 0346     		mov	r3, r0
 472 009e 0233     		adds	r3, r3, #2
 473 00a0 1946     		mov	r1, r3
 474 00a2 2846     		mov	r0, r5
 475 00a4 FFF7FEFF 		bl	lv_mem_realloc
 476 00a8 0346     		mov	r3, r0
 477 00aa 2360     		str	r3, [r4]
 169:..\..\..\lvgl\version_6.1.2\lvgl\src\lv_objx/lv_table.c ****     strcpy(ext->cell_data[cell] + 1, txt);  /*+1 to skip the format byte*/
 478              		.loc 3 169 0
 479 00ac FB69     		ldr	r3, [r7, #28]
 480 00ae 5A68     		ldr	r2, [r3, #4]
 481 00b0 BB69     		ldr	r3, [r7, #24]
 482 00b2 9B00     		lsls	r3, r3, #2
 483 00b4 1344     		add	r3, r3, r2
 484 00b6 1B68     		ldr	r3, [r3]
 485 00b8 0133     		adds	r3, r3, #1
 486 00ba 7968     		ldr	r1, [r7, #4]
 487 00bc 1846     		mov	r0, r3
 488 00be FFF7FEFF 		bl	strcpy
 170:..\..\..\lvgl\version_6.1.2\lvgl\src\lv_objx/lv_table.c **** 
 171:..\..\..\lvgl\version_6.1.2\lvgl\src\lv_objx/lv_table.c ****     ext->cell_data[cell][0] = format.format_byte;
 489              		.loc 3 171 0
 490 00c2 FB69     		ldr	r3, [r7, #28]
 491 00c4 5A68     		ldr	r2, [r3, #4]
 492 00c6 BB69     		ldr	r3, [r7, #24]
 493 00c8 9B00     		lsls	r3, r3, #2
 494 00ca 1344     		add	r3, r3, r2
 495 00cc 1B68     		ldr	r3, [r3]
 496 00ce 3A7D     		ldrb	r2, [r7, #20]	@ zero_extendqisi2
 497 00d0 1A70     		strb	r2, [r3]
 172:..\..\..\lvgl\version_6.1.2\lvgl\src\lv_objx/lv_table.c ****     refr_size(table);
 498              		.loc 3 172 0
 499 00d2 F868     		ldr	r0, [r7, #12]
 500 00d4 FFF7FEFF 		bl	refr_size
 501 00d8 00E0     		b	.L19
 502              	.L25:
 143:..\..\..\lvgl\version_6.1.2\lvgl\src\lv_objx/lv_table.c ****     }
 503              		.loc 3 143 0
 504 00da 00BF     		nop
 505              	.L19:
 173:..\..\..\lvgl\version_6.1.2\lvgl\src\lv_objx/lv_table.c **** }
 506              		.loc 3 173 0
 507 00dc 2037     		adds	r7, r7, #32
 508              		.cfi_def_cfa_offset 16
 509 00de BD46     		mov	sp, r7
 510              		.cfi_def_cfa_register 13
 511              		@ sp needed
 512 00e0 B0BD     		pop	{r4, r5, r7, pc}
 513              		.cfi_endproc
 514              	.LFE34:
 515              		.size	lv_table_set_cell_value, .-lv_table_set_cell_value
 516 00e2 00BF     		.section	.text.lv_table_set_row_cnt,"ax",%progbits
 517              		.align	2
 518              		.global	lv_table_set_row_cnt
 519              		.thumb
 520              		.thumb_func
ARM GAS  C:\Users\tmj32\AppData\Local\Temp\ccIZw7Ef.s 			page 17


 521              		.type	lv_table_set_row_cnt, %function
 522              	lv_table_set_row_cnt:
 523              	.LFB35:
 174:..\..\..\lvgl\version_6.1.2\lvgl\src\lv_objx/lv_table.c **** 
 175:..\..\..\lvgl\version_6.1.2\lvgl\src\lv_objx/lv_table.c **** /**
 176:..\..\..\lvgl\version_6.1.2\lvgl\src\lv_objx/lv_table.c ****  * Set the number of rows
 177:..\..\..\lvgl\version_6.1.2\lvgl\src\lv_objx/lv_table.c ****  * @param table table pointer to a Table object
 178:..\..\..\lvgl\version_6.1.2\lvgl\src\lv_objx/lv_table.c ****  * @param row_cnt number of rows
 179:..\..\..\lvgl\version_6.1.2\lvgl\src\lv_objx/lv_table.c ****  */
 180:..\..\..\lvgl\version_6.1.2\lvgl\src\lv_objx/lv_table.c **** void lv_table_set_row_cnt(lv_obj_t * table, uint16_t row_cnt)
 181:..\..\..\lvgl\version_6.1.2\lvgl\src\lv_objx/lv_table.c **** {
 524              		.loc 3 181 0
 525              		.cfi_startproc
 526              		@ args = 0, pretend = 0, frame = 24
 527              		@ frame_needed = 1, uses_anonymous_args = 0
 528 0000 80B5     		push	{r7, lr}
 529              		.cfi_def_cfa_offset 8
 530              		.cfi_offset 7, -8
 531              		.cfi_offset 14, -4
 532 0002 86B0     		sub	sp, sp, #24
 533              		.cfi_def_cfa_offset 32
 534 0004 00AF     		add	r7, sp, #0
 535              		.cfi_def_cfa_register 7
 536 0006 7860     		str	r0, [r7, #4]
 537 0008 0B46     		mov	r3, r1
 538 000a 7B80     		strh	r3, [r7, #2]	@ movhi
 182:..\..\..\lvgl\version_6.1.2\lvgl\src\lv_objx/lv_table.c ****     LV_ASSERT_OBJ(table, LV_OBJX_NAME);
 183:..\..\..\lvgl\version_6.1.2\lvgl\src\lv_objx/lv_table.c **** 
 184:..\..\..\lvgl\version_6.1.2\lvgl\src\lv_objx/lv_table.c ****     lv_table_ext_t * ext = lv_obj_get_ext_attr(table);
 539              		.loc 3 184 0
 540 000c 7868     		ldr	r0, [r7, #4]
 541 000e FFF7FEFF 		bl	lv_obj_get_ext_attr
 542 0012 7861     		str	r0, [r7, #20]
 185:..\..\..\lvgl\version_6.1.2\lvgl\src\lv_objx/lv_table.c ****     uint16_t old_row_cnt = ext->row_cnt;
 543              		.loc 3 185 0
 544 0014 7B69     		ldr	r3, [r7, #20]
 545 0016 5B88     		ldrh	r3, [r3, #2]	@ movhi
 546 0018 7B82     		strh	r3, [r7, #18]	@ movhi
 186:..\..\..\lvgl\version_6.1.2\lvgl\src\lv_objx/lv_table.c ****     ext->row_cnt         = row_cnt;
 547              		.loc 3 186 0
 548 001a 7B69     		ldr	r3, [r7, #20]
 549 001c 7A88     		ldrh	r2, [r7, #2]	@ movhi
 550 001e 5A80     		strh	r2, [r3, #2]	@ movhi
 187:..\..\..\lvgl\version_6.1.2\lvgl\src\lv_objx/lv_table.c **** 
 188:..\..\..\lvgl\version_6.1.2\lvgl\src\lv_objx/lv_table.c ****     if(ext->row_cnt > 0 && ext->col_cnt > 0) {
 551              		.loc 3 188 0
 552 0020 7B69     		ldr	r3, [r7, #20]
 553 0022 5B88     		ldrh	r3, [r3, #2]
 554 0024 002B     		cmp	r3, #0
 555 0026 34D0     		beq	.L27
 556              		.loc 3 188 0 is_stmt 0 discriminator 1
 557 0028 7B69     		ldr	r3, [r7, #20]
 558 002a 1B88     		ldrh	r3, [r3]
 559 002c 002B     		cmp	r3, #0
 560 002e 30D0     		beq	.L27
 189:..\..\..\lvgl\version_6.1.2\lvgl\src\lv_objx/lv_table.c ****         ext->cell_data = lv_mem_realloc(ext->cell_data, ext->row_cnt * ext->col_cnt * sizeof(char *
 561              		.loc 3 189 0 is_stmt 1
ARM GAS  C:\Users\tmj32\AppData\Local\Temp\ccIZw7Ef.s 			page 18


 562 0030 7B69     		ldr	r3, [r7, #20]
 563 0032 5A68     		ldr	r2, [r3, #4]
 564 0034 7B69     		ldr	r3, [r7, #20]
 565 0036 5B88     		ldrh	r3, [r3, #2]
 566 0038 1946     		mov	r1, r3
 567 003a 7B69     		ldr	r3, [r7, #20]
 568 003c 1B88     		ldrh	r3, [r3]
 569 003e 03FB01F3 		mul	r3, r3, r1
 570 0042 9B00     		lsls	r3, r3, #2
 571 0044 1946     		mov	r1, r3
 572 0046 1046     		mov	r0, r2
 573 0048 FFF7FEFF 		bl	lv_mem_realloc
 574 004c 0246     		mov	r2, r0
 575 004e 7B69     		ldr	r3, [r7, #20]
 576 0050 5A60     		str	r2, [r3, #4]
 190:..\..\..\lvgl\version_6.1.2\lvgl\src\lv_objx/lv_table.c **** 
 191:..\..\..\lvgl\version_6.1.2\lvgl\src\lv_objx/lv_table.c ****         /*Initilize the new fields*/
 192:..\..\..\lvgl\version_6.1.2\lvgl\src\lv_objx/lv_table.c ****         if(old_row_cnt < row_cnt) {
 577              		.loc 3 192 0
 578 0052 7A8A     		ldrh	r2, [r7, #18]
 579 0054 7B88     		ldrh	r3, [r7, #2]
 580 0056 9A42     		cmp	r2, r3
 581 0058 23D2     		bcs	.L29
 582              	.LBB4:
 193:..\..\..\lvgl\version_6.1.2\lvgl\src\lv_objx/lv_table.c ****             uint16_t old_cell_cnt = old_row_cnt * ext->col_cnt;
 583              		.loc 3 193 0
 584 005a 7B69     		ldr	r3, [r7, #20]
 585 005c 1B88     		ldrh	r3, [r3]
 586 005e 7A8A     		ldrh	r2, [r7, #18]	@ movhi
 587 0060 12FB03F3 		smulbb	r3, r2, r3
 588 0064 3B82     		strh	r3, [r7, #16]	@ movhi
 194:..\..\..\lvgl\version_6.1.2\lvgl\src\lv_objx/lv_table.c ****             uint32_t new_cell_cnt = ext->col_cnt * ext->row_cnt;
 589              		.loc 3 194 0
 590 0066 7B69     		ldr	r3, [r7, #20]
 591 0068 1B88     		ldrh	r3, [r3]
 592 006a 1A46     		mov	r2, r3
 593 006c 7B69     		ldr	r3, [r7, #20]
 594 006e 5B88     		ldrh	r3, [r3, #2]
 595 0070 03FB02F3 		mul	r3, r3, r2
 596 0074 FB60     		str	r3, [r7, #12]
 195:..\..\..\lvgl\version_6.1.2\lvgl\src\lv_objx/lv_table.c ****             memset(&ext->cell_data[old_cell_cnt], 0, (new_cell_cnt - old_cell_cnt) * sizeof(ext->ce
 597              		.loc 3 195 0
 598 0076 7B69     		ldr	r3, [r7, #20]
 599 0078 5A68     		ldr	r2, [r3, #4]
 600 007a 3B8A     		ldrh	r3, [r7, #16]
 601 007c 9B00     		lsls	r3, r3, #2
 602 007e D018     		adds	r0, r2, r3
 603 0080 3B8A     		ldrh	r3, [r7, #16]
 604 0082 FA68     		ldr	r2, [r7, #12]
 605 0084 D31A     		subs	r3, r2, r3
 606 0086 9B00     		lsls	r3, r3, #2
 607 0088 1A46     		mov	r2, r3
 608 008a 0021     		movs	r1, #0
 609 008c FFF7FEFF 		bl	memset
 610              	.LBE4:
 192:..\..\..\lvgl\version_6.1.2\lvgl\src\lv_objx/lv_table.c ****             uint16_t old_cell_cnt = old_row_cnt * ext->col_cnt;
 611              		.loc 3 192 0
ARM GAS  C:\Users\tmj32\AppData\Local\Temp\ccIZw7Ef.s 			page 19


 612 0090 07E0     		b	.L29
 613              	.L27:
 196:..\..\..\lvgl\version_6.1.2\lvgl\src\lv_objx/lv_table.c ****         }
 197:..\..\..\lvgl\version_6.1.2\lvgl\src\lv_objx/lv_table.c ****     } else {
 198:..\..\..\lvgl\version_6.1.2\lvgl\src\lv_objx/lv_table.c ****         lv_mem_free(ext->cell_data);
 614              		.loc 3 198 0
 615 0092 7B69     		ldr	r3, [r7, #20]
 616 0094 5B68     		ldr	r3, [r3, #4]
 617 0096 1846     		mov	r0, r3
 618 0098 FFF7FEFF 		bl	lv_mem_free
 199:..\..\..\lvgl\version_6.1.2\lvgl\src\lv_objx/lv_table.c ****         ext->cell_data = NULL;
 619              		.loc 3 199 0
 620 009c 7B69     		ldr	r3, [r7, #20]
 621 009e 0022     		movs	r2, #0
 622 00a0 5A60     		str	r2, [r3, #4]
 623              	.L29:
 200:..\..\..\lvgl\version_6.1.2\lvgl\src\lv_objx/lv_table.c ****     }
 201:..\..\..\lvgl\version_6.1.2\lvgl\src\lv_objx/lv_table.c **** 
 202:..\..\..\lvgl\version_6.1.2\lvgl\src\lv_objx/lv_table.c ****     refr_size(table);
 624              		.loc 3 202 0
 625 00a2 7868     		ldr	r0, [r7, #4]
 626 00a4 FFF7FEFF 		bl	refr_size
 203:..\..\..\lvgl\version_6.1.2\lvgl\src\lv_objx/lv_table.c **** }
 627              		.loc 3 203 0
 628 00a8 00BF     		nop
 629 00aa 1837     		adds	r7, r7, #24
 630              		.cfi_def_cfa_offset 8
 631 00ac BD46     		mov	sp, r7
 632              		.cfi_def_cfa_register 13
 633              		@ sp needed
 634 00ae 80BD     		pop	{r7, pc}
 635              		.cfi_endproc
 636              	.LFE35:
 637              		.size	lv_table_set_row_cnt, .-lv_table_set_row_cnt
 638              		.section	.text.lv_table_set_col_cnt,"ax",%progbits
 639              		.align	2
 640              		.global	lv_table_set_col_cnt
 641              		.thumb
 642              		.thumb_func
 643              		.type	lv_table_set_col_cnt, %function
 644              	lv_table_set_col_cnt:
 645              	.LFB36:
 204:..\..\..\lvgl\version_6.1.2\lvgl\src\lv_objx/lv_table.c **** 
 205:..\..\..\lvgl\version_6.1.2\lvgl\src\lv_objx/lv_table.c **** /**
 206:..\..\..\lvgl\version_6.1.2\lvgl\src\lv_objx/lv_table.c ****  * Set the number of columns
 207:..\..\..\lvgl\version_6.1.2\lvgl\src\lv_objx/lv_table.c ****  * @param table table pointer to a Table object
 208:..\..\..\lvgl\version_6.1.2\lvgl\src\lv_objx/lv_table.c ****  * @param col_cnt number of columns. Must be < LV_TABLE_COL_MAX
 209:..\..\..\lvgl\version_6.1.2\lvgl\src\lv_objx/lv_table.c ****  */
 210:..\..\..\lvgl\version_6.1.2\lvgl\src\lv_objx/lv_table.c **** void lv_table_set_col_cnt(lv_obj_t * table, uint16_t col_cnt)
 211:..\..\..\lvgl\version_6.1.2\lvgl\src\lv_objx/lv_table.c **** {
 646              		.loc 3 211 0
 647              		.cfi_startproc
 648              		@ args = 0, pretend = 0, frame = 24
 649              		@ frame_needed = 1, uses_anonymous_args = 0
 650 0000 80B5     		push	{r7, lr}
 651              		.cfi_def_cfa_offset 8
 652              		.cfi_offset 7, -8
ARM GAS  C:\Users\tmj32\AppData\Local\Temp\ccIZw7Ef.s 			page 20


 653              		.cfi_offset 14, -4
 654 0002 86B0     		sub	sp, sp, #24
 655              		.cfi_def_cfa_offset 32
 656 0004 00AF     		add	r7, sp, #0
 657              		.cfi_def_cfa_register 7
 658 0006 7860     		str	r0, [r7, #4]
 659 0008 0B46     		mov	r3, r1
 660 000a 7B80     		strh	r3, [r7, #2]	@ movhi
 212:..\..\..\lvgl\version_6.1.2\lvgl\src\lv_objx/lv_table.c ****     LV_ASSERT_OBJ(table, LV_OBJX_NAME);
 213:..\..\..\lvgl\version_6.1.2\lvgl\src\lv_objx/lv_table.c **** 
 214:..\..\..\lvgl\version_6.1.2\lvgl\src\lv_objx/lv_table.c ****     if(col_cnt >= LV_TABLE_COL_MAX) {
 661              		.loc 3 214 0
 662 000c 7B88     		ldrh	r3, [r7, #2]
 663 000e 0B2B     		cmp	r3, #11
 664 0010 4ED8     		bhi	.L36
 215:..\..\..\lvgl\version_6.1.2\lvgl\src\lv_objx/lv_table.c ****         LV_LOG_WARN("lv_table_set_col_cnt: too many columns. Must be < LV_TABLE_COL_MAX.");
 216:..\..\..\lvgl\version_6.1.2\lvgl\src\lv_objx/lv_table.c ****         return;
 217:..\..\..\lvgl\version_6.1.2\lvgl\src\lv_objx/lv_table.c ****     }
 218:..\..\..\lvgl\version_6.1.2\lvgl\src\lv_objx/lv_table.c **** 
 219:..\..\..\lvgl\version_6.1.2\lvgl\src\lv_objx/lv_table.c ****     lv_table_ext_t * ext = lv_obj_get_ext_attr(table);
 665              		.loc 3 219 0
 666 0012 7868     		ldr	r0, [r7, #4]
 667 0014 FFF7FEFF 		bl	lv_obj_get_ext_attr
 668 0018 7861     		str	r0, [r7, #20]
 220:..\..\..\lvgl\version_6.1.2\lvgl\src\lv_objx/lv_table.c ****     uint16_t old_col_cnt = ext->col_cnt;
 669              		.loc 3 220 0
 670 001a 7B69     		ldr	r3, [r7, #20]
 671 001c 1B88     		ldrh	r3, [r3]	@ movhi
 672 001e 7B82     		strh	r3, [r7, #18]	@ movhi
 221:..\..\..\lvgl\version_6.1.2\lvgl\src\lv_objx/lv_table.c ****     ext->col_cnt         = col_cnt;
 673              		.loc 3 221 0
 674 0020 7B69     		ldr	r3, [r7, #20]
 675 0022 7A88     		ldrh	r2, [r7, #2]	@ movhi
 676 0024 1A80     		strh	r2, [r3]	@ movhi
 222:..\..\..\lvgl\version_6.1.2\lvgl\src\lv_objx/lv_table.c **** 
 223:..\..\..\lvgl\version_6.1.2\lvgl\src\lv_objx/lv_table.c ****     if(ext->row_cnt > 0 && ext->col_cnt > 0) {
 677              		.loc 3 223 0
 678 0026 7B69     		ldr	r3, [r7, #20]
 679 0028 5B88     		ldrh	r3, [r3, #2]
 680 002a 002B     		cmp	r3, #0
 681 002c 34D0     		beq	.L33
 682              		.loc 3 223 0 is_stmt 0 discriminator 1
 683 002e 7B69     		ldr	r3, [r7, #20]
 684 0030 1B88     		ldrh	r3, [r3]
 685 0032 002B     		cmp	r3, #0
 686 0034 30D0     		beq	.L33
 224:..\..\..\lvgl\version_6.1.2\lvgl\src\lv_objx/lv_table.c ****         ext->cell_data = lv_mem_realloc(ext->cell_data, ext->row_cnt * ext->col_cnt * sizeof(char *
 687              		.loc 3 224 0 is_stmt 1
 688 0036 7B69     		ldr	r3, [r7, #20]
 689 0038 5A68     		ldr	r2, [r3, #4]
 690 003a 7B69     		ldr	r3, [r7, #20]
 691 003c 5B88     		ldrh	r3, [r3, #2]
 692 003e 1946     		mov	r1, r3
 693 0040 7B69     		ldr	r3, [r7, #20]
 694 0042 1B88     		ldrh	r3, [r3]
 695 0044 03FB01F3 		mul	r3, r3, r1
 696 0048 9B00     		lsls	r3, r3, #2
ARM GAS  C:\Users\tmj32\AppData\Local\Temp\ccIZw7Ef.s 			page 21


 697 004a 1946     		mov	r1, r3
 698 004c 1046     		mov	r0, r2
 699 004e FFF7FEFF 		bl	lv_mem_realloc
 700 0052 0246     		mov	r2, r0
 701 0054 7B69     		ldr	r3, [r7, #20]
 702 0056 5A60     		str	r2, [r3, #4]
 225:..\..\..\lvgl\version_6.1.2\lvgl\src\lv_objx/lv_table.c ****         /*Initilize the new fields*/
 226:..\..\..\lvgl\version_6.1.2\lvgl\src\lv_objx/lv_table.c ****         if(old_col_cnt < col_cnt) {
 703              		.loc 3 226 0
 704 0058 7A8A     		ldrh	r2, [r7, #18]
 705 005a 7B88     		ldrh	r3, [r7, #2]
 706 005c 9A42     		cmp	r2, r3
 707 005e 23D2     		bcs	.L35
 708              	.LBB5:
 227:..\..\..\lvgl\version_6.1.2\lvgl\src\lv_objx/lv_table.c ****             uint16_t old_cell_cnt = old_col_cnt * ext->row_cnt;
 709              		.loc 3 227 0
 710 0060 7B69     		ldr	r3, [r7, #20]
 711 0062 5B88     		ldrh	r3, [r3, #2]
 712 0064 7A8A     		ldrh	r2, [r7, #18]	@ movhi
 713 0066 12FB03F3 		smulbb	r3, r2, r3
 714 006a 3B82     		strh	r3, [r7, #16]	@ movhi
 228:..\..\..\lvgl\version_6.1.2\lvgl\src\lv_objx/lv_table.c ****             uint32_t new_cell_cnt = ext->col_cnt * ext->row_cnt;
 715              		.loc 3 228 0
 716 006c 7B69     		ldr	r3, [r7, #20]
 717 006e 1B88     		ldrh	r3, [r3]
 718 0070 1A46     		mov	r2, r3
 719 0072 7B69     		ldr	r3, [r7, #20]
 720 0074 5B88     		ldrh	r3, [r3, #2]
 721 0076 03FB02F3 		mul	r3, r3, r2
 722 007a FB60     		str	r3, [r7, #12]
 229:..\..\..\lvgl\version_6.1.2\lvgl\src\lv_objx/lv_table.c ****             memset(&ext->cell_data[old_cell_cnt], 0, (new_cell_cnt - old_cell_cnt) * sizeof(ext->ce
 723              		.loc 3 229 0
 724 007c 7B69     		ldr	r3, [r7, #20]
 725 007e 5A68     		ldr	r2, [r3, #4]
 726 0080 3B8A     		ldrh	r3, [r7, #16]
 727 0082 9B00     		lsls	r3, r3, #2
 728 0084 D018     		adds	r0, r2, r3
 729 0086 3B8A     		ldrh	r3, [r7, #16]
 730 0088 FA68     		ldr	r2, [r7, #12]
 731 008a D31A     		subs	r3, r2, r3
 732 008c 9B00     		lsls	r3, r3, #2
 733 008e 1A46     		mov	r2, r3
 734 0090 0021     		movs	r1, #0
 735 0092 FFF7FEFF 		bl	memset
 736              	.LBE5:
 226:..\..\..\lvgl\version_6.1.2\lvgl\src\lv_objx/lv_table.c ****             uint16_t old_cell_cnt = old_col_cnt * ext->row_cnt;
 737              		.loc 3 226 0
 738 0096 07E0     		b	.L35
 739              	.L33:
 230:..\..\..\lvgl\version_6.1.2\lvgl\src\lv_objx/lv_table.c ****         }
 231:..\..\..\lvgl\version_6.1.2\lvgl\src\lv_objx/lv_table.c **** 
 232:..\..\..\lvgl\version_6.1.2\lvgl\src\lv_objx/lv_table.c ****     } else {
 233:..\..\..\lvgl\version_6.1.2\lvgl\src\lv_objx/lv_table.c ****         lv_mem_free(ext->cell_data);
 740              		.loc 3 233 0
 741 0098 7B69     		ldr	r3, [r7, #20]
 742 009a 5B68     		ldr	r3, [r3, #4]
 743 009c 1846     		mov	r0, r3
ARM GAS  C:\Users\tmj32\AppData\Local\Temp\ccIZw7Ef.s 			page 22


 744 009e FFF7FEFF 		bl	lv_mem_free
 234:..\..\..\lvgl\version_6.1.2\lvgl\src\lv_objx/lv_table.c ****         ext->cell_data = NULL;
 745              		.loc 3 234 0
 746 00a2 7B69     		ldr	r3, [r7, #20]
 747 00a4 0022     		movs	r2, #0
 748 00a6 5A60     		str	r2, [r3, #4]
 749              	.L35:
 235:..\..\..\lvgl\version_6.1.2\lvgl\src\lv_objx/lv_table.c ****     }
 236:..\..\..\lvgl\version_6.1.2\lvgl\src\lv_objx/lv_table.c ****     refr_size(table);
 750              		.loc 3 236 0
 751 00a8 7868     		ldr	r0, [r7, #4]
 752 00aa FFF7FEFF 		bl	refr_size
 753 00ae 00E0     		b	.L30
 754              	.L36:
 216:..\..\..\lvgl\version_6.1.2\lvgl\src\lv_objx/lv_table.c ****     }
 755              		.loc 3 216 0
 756 00b0 00BF     		nop
 757              	.L30:
 237:..\..\..\lvgl\version_6.1.2\lvgl\src\lv_objx/lv_table.c **** }
 758              		.loc 3 237 0
 759 00b2 1837     		adds	r7, r7, #24
 760              		.cfi_def_cfa_offset 8
 761 00b4 BD46     		mov	sp, r7
 762              		.cfi_def_cfa_register 13
 763              		@ sp needed
 764 00b6 80BD     		pop	{r7, pc}
 765              		.cfi_endproc
 766              	.LFE36:
 767              		.size	lv_table_set_col_cnt, .-lv_table_set_col_cnt
 768              		.section	.text.lv_table_set_col_width,"ax",%progbits
 769              		.align	2
 770              		.global	lv_table_set_col_width
 771              		.thumb
 772              		.thumb_func
 773              		.type	lv_table_set_col_width, %function
 774              	lv_table_set_col_width:
 775              	.LFB37:
 238:..\..\..\lvgl\version_6.1.2\lvgl\src\lv_objx/lv_table.c **** 
 239:..\..\..\lvgl\version_6.1.2\lvgl\src\lv_objx/lv_table.c **** /**
 240:..\..\..\lvgl\version_6.1.2\lvgl\src\lv_objx/lv_table.c ****  * Set the width of a column
 241:..\..\..\lvgl\version_6.1.2\lvgl\src\lv_objx/lv_table.c ****  * @param table table pointer to a Table object
 242:..\..\..\lvgl\version_6.1.2\lvgl\src\lv_objx/lv_table.c ****  * @param col_id id of the column [0 .. LV_TABLE_COL_MAX -1]
 243:..\..\..\lvgl\version_6.1.2\lvgl\src\lv_objx/lv_table.c ****  * @param w width of the column
 244:..\..\..\lvgl\version_6.1.2\lvgl\src\lv_objx/lv_table.c ****  */
 245:..\..\..\lvgl\version_6.1.2\lvgl\src\lv_objx/lv_table.c **** void lv_table_set_col_width(lv_obj_t * table, uint16_t col_id, lv_coord_t w)
 246:..\..\..\lvgl\version_6.1.2\lvgl\src\lv_objx/lv_table.c **** {
 776              		.loc 3 246 0
 777              		.cfi_startproc
 778              		@ args = 0, pretend = 0, frame = 16
 779              		@ frame_needed = 1, uses_anonymous_args = 0
 780 0000 80B5     		push	{r7, lr}
 781              		.cfi_def_cfa_offset 8
 782              		.cfi_offset 7, -8
 783              		.cfi_offset 14, -4
 784 0002 84B0     		sub	sp, sp, #16
 785              		.cfi_def_cfa_offset 24
 786 0004 00AF     		add	r7, sp, #0
ARM GAS  C:\Users\tmj32\AppData\Local\Temp\ccIZw7Ef.s 			page 23


 787              		.cfi_def_cfa_register 7
 788 0006 7860     		str	r0, [r7, #4]
 789 0008 0B46     		mov	r3, r1
 790 000a 7B80     		strh	r3, [r7, #2]	@ movhi
 791 000c 1346     		mov	r3, r2	@ movhi
 792 000e 3B80     		strh	r3, [r7]	@ movhi
 247:..\..\..\lvgl\version_6.1.2\lvgl\src\lv_objx/lv_table.c ****     LV_ASSERT_OBJ(table, LV_OBJX_NAME);
 248:..\..\..\lvgl\version_6.1.2\lvgl\src\lv_objx/lv_table.c **** 
 249:..\..\..\lvgl\version_6.1.2\lvgl\src\lv_objx/lv_table.c ****     if(col_id >= LV_TABLE_COL_MAX) {
 793              		.loc 3 249 0
 794 0010 7B88     		ldrh	r3, [r7, #2]
 795 0012 0B2B     		cmp	r3, #11
 796 0014 0DD8     		bhi	.L40
 250:..\..\..\lvgl\version_6.1.2\lvgl\src\lv_objx/lv_table.c ****         LV_LOG_WARN("lv_table_set_col_width: too big 'col_id'. Must be < LV_TABLE_COL_MAX.");
 251:..\..\..\lvgl\version_6.1.2\lvgl\src\lv_objx/lv_table.c ****         return;
 252:..\..\..\lvgl\version_6.1.2\lvgl\src\lv_objx/lv_table.c ****     }
 253:..\..\..\lvgl\version_6.1.2\lvgl\src\lv_objx/lv_table.c **** 
 254:..\..\..\lvgl\version_6.1.2\lvgl\src\lv_objx/lv_table.c ****     lv_table_ext_t * ext = lv_obj_get_ext_attr(table);
 797              		.loc 3 254 0
 798 0016 7868     		ldr	r0, [r7, #4]
 799 0018 FFF7FEFF 		bl	lv_obj_get_ext_attr
 800 001c F860     		str	r0, [r7, #12]
 255:..\..\..\lvgl\version_6.1.2\lvgl\src\lv_objx/lv_table.c ****     ext->col_w[col_id]   = w;
 801              		.loc 3 255 0
 802 001e 7A88     		ldrh	r2, [r7, #2]
 803 0020 FB68     		ldr	r3, [r7, #12]
 804 0022 0C32     		adds	r2, r2, #12
 805 0024 3988     		ldrh	r1, [r7]	@ movhi
 806 0026 23F81210 		strh	r1, [r3, r2, lsl #1]	@ movhi
 256:..\..\..\lvgl\version_6.1.2\lvgl\src\lv_objx/lv_table.c ****     refr_size(table);
 807              		.loc 3 256 0
 808 002a 7868     		ldr	r0, [r7, #4]
 809 002c FFF7FEFF 		bl	refr_size
 810 0030 00E0     		b	.L37
 811              	.L40:
 251:..\..\..\lvgl\version_6.1.2\lvgl\src\lv_objx/lv_table.c ****     }
 812              		.loc 3 251 0
 813 0032 00BF     		nop
 814              	.L37:
 257:..\..\..\lvgl\version_6.1.2\lvgl\src\lv_objx/lv_table.c **** }
 815              		.loc 3 257 0
 816 0034 1037     		adds	r7, r7, #16
 817              		.cfi_def_cfa_offset 8
 818 0036 BD46     		mov	sp, r7
 819              		.cfi_def_cfa_register 13
 820              		@ sp needed
 821 0038 80BD     		pop	{r7, pc}
 822              		.cfi_endproc
 823              	.LFE37:
 824              		.size	lv_table_set_col_width, .-lv_table_set_col_width
 825 003a 00BF     		.section	.text.lv_table_set_cell_align,"ax",%progbits
 826              		.align	2
 827              		.global	lv_table_set_cell_align
 828              		.thumb
 829              		.thumb_func
 830              		.type	lv_table_set_cell_align, %function
 831              	lv_table_set_cell_align:
ARM GAS  C:\Users\tmj32\AppData\Local\Temp\ccIZw7Ef.s 			page 24


 832              	.LFB38:
 258:..\..\..\lvgl\version_6.1.2\lvgl\src\lv_objx/lv_table.c **** 
 259:..\..\..\lvgl\version_6.1.2\lvgl\src\lv_objx/lv_table.c **** /**
 260:..\..\..\lvgl\version_6.1.2\lvgl\src\lv_objx/lv_table.c ****  * Set the text align in a cell
 261:..\..\..\lvgl\version_6.1.2\lvgl\src\lv_objx/lv_table.c ****  * @param table pointer to a Table object
 262:..\..\..\lvgl\version_6.1.2\lvgl\src\lv_objx/lv_table.c ****  * @param row id of the row [0 .. row_cnt -1]
 263:..\..\..\lvgl\version_6.1.2\lvgl\src\lv_objx/lv_table.c ****  * @param col id of the column [0 .. col_cnt -1]
 264:..\..\..\lvgl\version_6.1.2\lvgl\src\lv_objx/lv_table.c ****  * @param align LV_LABEL_ALIGN_LEFT or LV_LABEL_ALIGN_CENTER or LV_LABEL_ALIGN_RIGHT
 265:..\..\..\lvgl\version_6.1.2\lvgl\src\lv_objx/lv_table.c ****  */
 266:..\..\..\lvgl\version_6.1.2\lvgl\src\lv_objx/lv_table.c **** void lv_table_set_cell_align(lv_obj_t * table, uint16_t row, uint16_t col, lv_label_align_t align)
 267:..\..\..\lvgl\version_6.1.2\lvgl\src\lv_objx/lv_table.c **** {
 833              		.loc 3 267 0
 834              		.cfi_startproc
 835              		@ args = 0, pretend = 0, frame = 32
 836              		@ frame_needed = 1, uses_anonymous_args = 0
 837 0000 90B5     		push	{r4, r7, lr}
 838              		.cfi_def_cfa_offset 12
 839              		.cfi_offset 4, -12
 840              		.cfi_offset 7, -8
 841              		.cfi_offset 14, -4
 842 0002 89B0     		sub	sp, sp, #36
 843              		.cfi_def_cfa_offset 48
 844 0004 00AF     		add	r7, sp, #0
 845              		.cfi_def_cfa_register 7
 846 0006 F860     		str	r0, [r7, #12]
 847 0008 0846     		mov	r0, r1
 848 000a 1146     		mov	r1, r2
 849 000c 1A46     		mov	r2, r3
 850 000e 0346     		mov	r3, r0	@ movhi
 851 0010 7B81     		strh	r3, [r7, #10]	@ movhi
 852 0012 0B46     		mov	r3, r1	@ movhi
 853 0014 3B81     		strh	r3, [r7, #8]	@ movhi
 854 0016 1346     		mov	r3, r2
 855 0018 FB71     		strb	r3, [r7, #7]
 268:..\..\..\lvgl\version_6.1.2\lvgl\src\lv_objx/lv_table.c ****     LV_ASSERT_OBJ(table, LV_OBJX_NAME);
 269:..\..\..\lvgl\version_6.1.2\lvgl\src\lv_objx/lv_table.c **** 
 270:..\..\..\lvgl\version_6.1.2\lvgl\src\lv_objx/lv_table.c ****     lv_table_ext_t * ext = lv_obj_get_ext_attr(table);
 856              		.loc 3 270 0
 857 001a F868     		ldr	r0, [r7, #12]
 858 001c FFF7FEFF 		bl	lv_obj_get_ext_attr
 859 0020 F861     		str	r0, [r7, #28]
 271:..\..\..\lvgl\version_6.1.2\lvgl\src\lv_objx/lv_table.c ****     if(row >= ext->row_cnt || col >= ext->col_cnt) {
 860              		.loc 3 271 0
 861 0022 FB69     		ldr	r3, [r7, #28]
 862 0024 5B88     		ldrh	r3, [r3, #2]
 863 0026 7A89     		ldrh	r2, [r7, #10]
 864 0028 9A42     		cmp	r2, r3
 865 002a 48D2     		bcs	.L46
 866              		.loc 3 271 0 is_stmt 0 discriminator 1
 867 002c FB69     		ldr	r3, [r7, #28]
 868 002e 1B88     		ldrh	r3, [r3]
 869 0030 3A89     		ldrh	r2, [r7, #8]
 870 0032 9A42     		cmp	r2, r3
 871 0034 43D2     		bcs	.L46
 272:..\..\..\lvgl\version_6.1.2\lvgl\src\lv_objx/lv_table.c ****         LV_LOG_WARN("lv_table_set_cell_align: invalid row or column");
 273:..\..\..\lvgl\version_6.1.2\lvgl\src\lv_objx/lv_table.c ****         return;
 274:..\..\..\lvgl\version_6.1.2\lvgl\src\lv_objx/lv_table.c ****     }
ARM GAS  C:\Users\tmj32\AppData\Local\Temp\ccIZw7Ef.s 			page 25


 275:..\..\..\lvgl\version_6.1.2\lvgl\src\lv_objx/lv_table.c ****     uint32_t cell = row * ext->col_cnt + col;
 872              		.loc 3 275 0 is_stmt 1
 873 0036 7B89     		ldrh	r3, [r7, #10]
 874 0038 FA69     		ldr	r2, [r7, #28]
 875 003a 1288     		ldrh	r2, [r2]
 876 003c 02FB03F2 		mul	r2, r2, r3
 877 0040 3B89     		ldrh	r3, [r7, #8]
 878 0042 1344     		add	r3, r3, r2
 879 0044 BB61     		str	r3, [r7, #24]
 276:..\..\..\lvgl\version_6.1.2\lvgl\src\lv_objx/lv_table.c **** 
 277:..\..\..\lvgl\version_6.1.2\lvgl\src\lv_objx/lv_table.c ****     if(ext->cell_data[cell] == NULL) {
 880              		.loc 3 277 0
 881 0046 FB69     		ldr	r3, [r7, #28]
 882 0048 5A68     		ldr	r2, [r3, #4]
 883 004a BB69     		ldr	r3, [r7, #24]
 884 004c 9B00     		lsls	r3, r3, #2
 885 004e 1344     		add	r3, r3, r2
 886 0050 1B68     		ldr	r3, [r3]
 887 0052 002B     		cmp	r3, #0
 888 0054 1AD1     		bne	.L45
 278:..\..\..\lvgl\version_6.1.2\lvgl\src\lv_objx/lv_table.c ****         ext->cell_data[cell]    = lv_mem_alloc(2); /*+1: trailing '\0; +1: format byte*/
 889              		.loc 3 278 0
 890 0056 FB69     		ldr	r3, [r7, #28]
 891 0058 5A68     		ldr	r2, [r3, #4]
 892 005a BB69     		ldr	r3, [r7, #24]
 893 005c 9B00     		lsls	r3, r3, #2
 894 005e D418     		adds	r4, r2, r3
 895 0060 0220     		movs	r0, #2
 896 0062 FFF7FEFF 		bl	lv_mem_alloc
 897 0066 0346     		mov	r3, r0
 898 0068 2360     		str	r3, [r4]
 279:..\..\..\lvgl\version_6.1.2\lvgl\src\lv_objx/lv_table.c ****         ext->cell_data[cell][0] = 0;
 899              		.loc 3 279 0
 900 006a FB69     		ldr	r3, [r7, #28]
 901 006c 5A68     		ldr	r2, [r3, #4]
 902 006e BB69     		ldr	r3, [r7, #24]
 903 0070 9B00     		lsls	r3, r3, #2
 904 0072 1344     		add	r3, r3, r2
 905 0074 1B68     		ldr	r3, [r3]
 906 0076 0022     		movs	r2, #0
 907 0078 1A70     		strb	r2, [r3]
 280:..\..\..\lvgl\version_6.1.2\lvgl\src\lv_objx/lv_table.c ****         ext->cell_data[cell][1] = '\0';
 908              		.loc 3 280 0
 909 007a FB69     		ldr	r3, [r7, #28]
 910 007c 5A68     		ldr	r2, [r3, #4]
 911 007e BB69     		ldr	r3, [r7, #24]
 912 0080 9B00     		lsls	r3, r3, #2
 913 0082 1344     		add	r3, r3, r2
 914 0084 1B68     		ldr	r3, [r3]
 915 0086 0133     		adds	r3, r3, #1
 916 0088 0022     		movs	r2, #0
 917 008a 1A70     		strb	r2, [r3]
 918              	.L45:
 281:..\..\..\lvgl\version_6.1.2\lvgl\src\lv_objx/lv_table.c ****     }
 282:..\..\..\lvgl\version_6.1.2\lvgl\src\lv_objx/lv_table.c **** 
 283:..\..\..\lvgl\version_6.1.2\lvgl\src\lv_objx/lv_table.c ****     lv_table_cell_format_t format;
 284:..\..\..\lvgl\version_6.1.2\lvgl\src\lv_objx/lv_table.c ****     format.format_byte      = ext->cell_data[cell][0];
ARM GAS  C:\Users\tmj32\AppData\Local\Temp\ccIZw7Ef.s 			page 26


 919              		.loc 3 284 0
 920 008c FB69     		ldr	r3, [r7, #28]
 921 008e 5A68     		ldr	r2, [r3, #4]
 922 0090 BB69     		ldr	r3, [r7, #24]
 923 0092 9B00     		lsls	r3, r3, #2
 924 0094 1344     		add	r3, r3, r2
 925 0096 1B68     		ldr	r3, [r3]
 926 0098 1B78     		ldrb	r3, [r3]	@ zero_extendqisi2
 927 009a 3B75     		strb	r3, [r7, #20]
 285:..\..\..\lvgl\version_6.1.2\lvgl\src\lv_objx/lv_table.c ****     format.s.align          = align;
 928              		.loc 3 285 0
 929 009c FB79     		ldrb	r3, [r7, #7]
 930 009e 03F00303 		and	r3, r3, #3
 931 00a2 DAB2     		uxtb	r2, r3
 932 00a4 3B7D     		ldrb	r3, [r7, #20]
 933 00a6 62F30103 		bfi	r3, r2, #0, #2
 934 00aa 3B75     		strb	r3, [r7, #20]
 286:..\..\..\lvgl\version_6.1.2\lvgl\src\lv_objx/lv_table.c ****     ext->cell_data[cell][0] = format.format_byte;
 935              		.loc 3 286 0
 936 00ac FB69     		ldr	r3, [r7, #28]
 937 00ae 5A68     		ldr	r2, [r3, #4]
 938 00b0 BB69     		ldr	r3, [r7, #24]
 939 00b2 9B00     		lsls	r3, r3, #2
 940 00b4 1344     		add	r3, r3, r2
 941 00b6 1B68     		ldr	r3, [r3]
 942 00b8 3A7D     		ldrb	r2, [r7, #20]	@ zero_extendqisi2
 943 00ba 1A70     		strb	r2, [r3]
 944 00bc 00E0     		b	.L41
 945              	.L46:
 273:..\..\..\lvgl\version_6.1.2\lvgl\src\lv_objx/lv_table.c ****     }
 946              		.loc 3 273 0
 947 00be 00BF     		nop
 948              	.L41:
 287:..\..\..\lvgl\version_6.1.2\lvgl\src\lv_objx/lv_table.c **** }
 949              		.loc 3 287 0
 950 00c0 2437     		adds	r7, r7, #36
 951              		.cfi_def_cfa_offset 12
 952 00c2 BD46     		mov	sp, r7
 953              		.cfi_def_cfa_register 13
 954              		@ sp needed
 955 00c4 90BD     		pop	{r4, r7, pc}
 956              		.cfi_endproc
 957              	.LFE38:
 958              		.size	lv_table_set_cell_align, .-lv_table_set_cell_align
 959 00c6 00BF     		.section	.text.lv_table_set_cell_type,"ax",%progbits
 960              		.align	2
 961              		.global	lv_table_set_cell_type
 962              		.thumb
 963              		.thumb_func
 964              		.type	lv_table_set_cell_type, %function
 965              	lv_table_set_cell_type:
 966              	.LFB39:
 288:..\..\..\lvgl\version_6.1.2\lvgl\src\lv_objx/lv_table.c **** 
 289:..\..\..\lvgl\version_6.1.2\lvgl\src\lv_objx/lv_table.c **** /**
 290:..\..\..\lvgl\version_6.1.2\lvgl\src\lv_objx/lv_table.c ****  * Set the type of a cell.
 291:..\..\..\lvgl\version_6.1.2\lvgl\src\lv_objx/lv_table.c ****  * @param table pointer to a Table object
 292:..\..\..\lvgl\version_6.1.2\lvgl\src\lv_objx/lv_table.c ****  * @param row id of the row [0 .. row_cnt -1]
ARM GAS  C:\Users\tmj32\AppData\Local\Temp\ccIZw7Ef.s 			page 27


 293:..\..\..\lvgl\version_6.1.2\lvgl\src\lv_objx/lv_table.c ****  * @param col id of the column [0 .. col_cnt -1]
 294:..\..\..\lvgl\version_6.1.2\lvgl\src\lv_objx/lv_table.c ****  * @param type 1,2,3 or 4. The cell style will be chosen accordingly.
 295:..\..\..\lvgl\version_6.1.2\lvgl\src\lv_objx/lv_table.c ****  */
 296:..\..\..\lvgl\version_6.1.2\lvgl\src\lv_objx/lv_table.c **** void lv_table_set_cell_type(lv_obj_t * table, uint16_t row, uint16_t col, uint8_t type)
 297:..\..\..\lvgl\version_6.1.2\lvgl\src\lv_objx/lv_table.c **** {
 967              		.loc 3 297 0
 968              		.cfi_startproc
 969              		@ args = 0, pretend = 0, frame = 32
 970              		@ frame_needed = 1, uses_anonymous_args = 0
 971 0000 90B5     		push	{r4, r7, lr}
 972              		.cfi_def_cfa_offset 12
 973              		.cfi_offset 4, -12
 974              		.cfi_offset 7, -8
 975              		.cfi_offset 14, -4
 976 0002 89B0     		sub	sp, sp, #36
 977              		.cfi_def_cfa_offset 48
 978 0004 00AF     		add	r7, sp, #0
 979              		.cfi_def_cfa_register 7
 980 0006 F860     		str	r0, [r7, #12]
 981 0008 0846     		mov	r0, r1
 982 000a 1146     		mov	r1, r2
 983 000c 1A46     		mov	r2, r3
 984 000e 0346     		mov	r3, r0	@ movhi
 985 0010 7B81     		strh	r3, [r7, #10]	@ movhi
 986 0012 0B46     		mov	r3, r1	@ movhi
 987 0014 3B81     		strh	r3, [r7, #8]	@ movhi
 988 0016 1346     		mov	r3, r2
 989 0018 FB71     		strb	r3, [r7, #7]
 298:..\..\..\lvgl\version_6.1.2\lvgl\src\lv_objx/lv_table.c ****     LV_ASSERT_OBJ(table, LV_OBJX_NAME);
 299:..\..\..\lvgl\version_6.1.2\lvgl\src\lv_objx/lv_table.c **** 
 300:..\..\..\lvgl\version_6.1.2\lvgl\src\lv_objx/lv_table.c ****     lv_table_ext_t * ext = lv_obj_get_ext_attr(table);
 990              		.loc 3 300 0
 991 001a F868     		ldr	r0, [r7, #12]
 992 001c FFF7FEFF 		bl	lv_obj_get_ext_attr
 993 0020 F861     		str	r0, [r7, #28]
 301:..\..\..\lvgl\version_6.1.2\lvgl\src\lv_objx/lv_table.c ****     if(row >= ext->row_cnt || col >= ext->col_cnt) {
 994              		.loc 3 301 0
 995 0022 FB69     		ldr	r3, [r7, #28]
 996 0024 5B88     		ldrh	r3, [r3, #2]
 997 0026 7A89     		ldrh	r2, [r7, #10]
 998 0028 9A42     		cmp	r2, r3
 999 002a 53D2     		bcs	.L54
 1000              		.loc 3 301 0 is_stmt 0 discriminator 1
 1001 002c FB69     		ldr	r3, [r7, #28]
 1002 002e 1B88     		ldrh	r3, [r3]
 1003 0030 3A89     		ldrh	r2, [r7, #8]
 1004 0032 9A42     		cmp	r2, r3
 1005 0034 4ED2     		bcs	.L54
 302:..\..\..\lvgl\version_6.1.2\lvgl\src\lv_objx/lv_table.c ****         LV_LOG_WARN("lv_table_set_cell_type: invalid row or column");
 303:..\..\..\lvgl\version_6.1.2\lvgl\src\lv_objx/lv_table.c ****         return;
 304:..\..\..\lvgl\version_6.1.2\lvgl\src\lv_objx/lv_table.c ****     }
 305:..\..\..\lvgl\version_6.1.2\lvgl\src\lv_objx/lv_table.c ****     uint32_t cell = row * ext->col_cnt + col;
 1006              		.loc 3 305 0 is_stmt 1
 1007 0036 7B89     		ldrh	r3, [r7, #10]
 1008 0038 FA69     		ldr	r2, [r7, #28]
 1009 003a 1288     		ldrh	r2, [r2]
 1010 003c 02FB03F2 		mul	r2, r2, r3
ARM GAS  C:\Users\tmj32\AppData\Local\Temp\ccIZw7Ef.s 			page 28


 1011 0040 3B89     		ldrh	r3, [r7, #8]
 1012 0042 1344     		add	r3, r3, r2
 1013 0044 BB61     		str	r3, [r7, #24]
 306:..\..\..\lvgl\version_6.1.2\lvgl\src\lv_objx/lv_table.c **** 
 307:..\..\..\lvgl\version_6.1.2\lvgl\src\lv_objx/lv_table.c ****     if(ext->cell_data[cell] == NULL) {
 1014              		.loc 3 307 0
 1015 0046 FB69     		ldr	r3, [r7, #28]
 1016 0048 5A68     		ldr	r2, [r3, #4]
 1017 004a BB69     		ldr	r3, [r7, #24]
 1018 004c 9B00     		lsls	r3, r3, #2
 1019 004e 1344     		add	r3, r3, r2
 1020 0050 1B68     		ldr	r3, [r3]
 1021 0052 002B     		cmp	r3, #0
 1022 0054 1AD1     		bne	.L51
 308:..\..\..\lvgl\version_6.1.2\lvgl\src\lv_objx/lv_table.c ****         ext->cell_data[cell]    = lv_mem_alloc(2); /*+1: trailing '\0; +1: format byte*/
 1023              		.loc 3 308 0
 1024 0056 FB69     		ldr	r3, [r7, #28]
 1025 0058 5A68     		ldr	r2, [r3, #4]
 1026 005a BB69     		ldr	r3, [r7, #24]
 1027 005c 9B00     		lsls	r3, r3, #2
 1028 005e D418     		adds	r4, r2, r3
 1029 0060 0220     		movs	r0, #2
 1030 0062 FFF7FEFF 		bl	lv_mem_alloc
 1031 0066 0346     		mov	r3, r0
 1032 0068 2360     		str	r3, [r4]
 309:..\..\..\lvgl\version_6.1.2\lvgl\src\lv_objx/lv_table.c ****         ext->cell_data[cell][0] = 0;
 1033              		.loc 3 309 0
 1034 006a FB69     		ldr	r3, [r7, #28]
 1035 006c 5A68     		ldr	r2, [r3, #4]
 1036 006e BB69     		ldr	r3, [r7, #24]
 1037 0070 9B00     		lsls	r3, r3, #2
 1038 0072 1344     		add	r3, r3, r2
 1039 0074 1B68     		ldr	r3, [r3]
 1040 0076 0022     		movs	r2, #0
 1041 0078 1A70     		strb	r2, [r3]
 310:..\..\..\lvgl\version_6.1.2\lvgl\src\lv_objx/lv_table.c ****         ext->cell_data[cell][1] = '\0';
 1042              		.loc 3 310 0
 1043 007a FB69     		ldr	r3, [r7, #28]
 1044 007c 5A68     		ldr	r2, [r3, #4]
 1045 007e BB69     		ldr	r3, [r7, #24]
 1046 0080 9B00     		lsls	r3, r3, #2
 1047 0082 1344     		add	r3, r3, r2
 1048 0084 1B68     		ldr	r3, [r3]
 1049 0086 0133     		adds	r3, r3, #1
 1050 0088 0022     		movs	r2, #0
 1051 008a 1A70     		strb	r2, [r3]
 1052              	.L51:
 311:..\..\..\lvgl\version_6.1.2\lvgl\src\lv_objx/lv_table.c ****     }
 312:..\..\..\lvgl\version_6.1.2\lvgl\src\lv_objx/lv_table.c **** 
 313:..\..\..\lvgl\version_6.1.2\lvgl\src\lv_objx/lv_table.c ****     if(type > 0) type--; /*User gives 1,2,3,4 but easier to handle 0, 1, 2, 3*/
 1053              		.loc 3 313 0
 1054 008c FB79     		ldrb	r3, [r7, #7]	@ zero_extendqisi2
 1055 008e 002B     		cmp	r3, #0
 1056 0090 02D0     		beq	.L52
 1057              		.loc 3 313 0 is_stmt 0 discriminator 1
 1058 0092 FB79     		ldrb	r3, [r7, #7]	@ zero_extendqisi2
 1059 0094 013B     		subs	r3, r3, #1
ARM GAS  C:\Users\tmj32\AppData\Local\Temp\ccIZw7Ef.s 			page 29


 1060 0096 FB71     		strb	r3, [r7, #7]
 1061              	.L52:
 314:..\..\..\lvgl\version_6.1.2\lvgl\src\lv_objx/lv_table.c ****     if(type >= LV_TABLE_CELL_STYLE_CNT) type = LV_TABLE_CELL_STYLE_CNT - 1;
 1062              		.loc 3 314 0 is_stmt 1
 1063 0098 FB79     		ldrb	r3, [r7, #7]	@ zero_extendqisi2
 1064 009a 032B     		cmp	r3, #3
 1065 009c 01D9     		bls	.L53
 1066              		.loc 3 314 0 is_stmt 0 discriminator 1
 1067 009e 0323     		movs	r3, #3
 1068 00a0 FB71     		strb	r3, [r7, #7]
 1069              	.L53:
 315:..\..\..\lvgl\version_6.1.2\lvgl\src\lv_objx/lv_table.c **** 
 316:..\..\..\lvgl\version_6.1.2\lvgl\src\lv_objx/lv_table.c ****     lv_table_cell_format_t format;
 317:..\..\..\lvgl\version_6.1.2\lvgl\src\lv_objx/lv_table.c ****     format.format_byte      = ext->cell_data[cell][0];
 1070              		.loc 3 317 0 is_stmt 1
 1071 00a2 FB69     		ldr	r3, [r7, #28]
 1072 00a4 5A68     		ldr	r2, [r3, #4]
 1073 00a6 BB69     		ldr	r3, [r7, #24]
 1074 00a8 9B00     		lsls	r3, r3, #2
 1075 00aa 1344     		add	r3, r3, r2
 1076 00ac 1B68     		ldr	r3, [r3]
 1077 00ae 1B78     		ldrb	r3, [r3]	@ zero_extendqisi2
 1078 00b0 3B75     		strb	r3, [r7, #20]
 318:..\..\..\lvgl\version_6.1.2\lvgl\src\lv_objx/lv_table.c ****     format.s.type           = type;
 1079              		.loc 3 318 0
 1080 00b2 FB79     		ldrb	r3, [r7, #7]
 1081 00b4 03F00303 		and	r3, r3, #3
 1082 00b8 DAB2     		uxtb	r2, r3
 1083 00ba 3B7D     		ldrb	r3, [r7, #20]
 1084 00bc 62F3C403 		bfi	r3, r2, #3, #2
 1085 00c0 3B75     		strb	r3, [r7, #20]
 319:..\..\..\lvgl\version_6.1.2\lvgl\src\lv_objx/lv_table.c ****     ext->cell_data[cell][0] = format.format_byte;
 1086              		.loc 3 319 0
 1087 00c2 FB69     		ldr	r3, [r7, #28]
 1088 00c4 5A68     		ldr	r2, [r3, #4]
 1089 00c6 BB69     		ldr	r3, [r7, #24]
 1090 00c8 9B00     		lsls	r3, r3, #2
 1091 00ca 1344     		add	r3, r3, r2
 1092 00cc 1B68     		ldr	r3, [r3]
 1093 00ce 3A7D     		ldrb	r2, [r7, #20]	@ zero_extendqisi2
 1094 00d0 1A70     		strb	r2, [r3]
 1095 00d2 00E0     		b	.L47
 1096              	.L54:
 303:..\..\..\lvgl\version_6.1.2\lvgl\src\lv_objx/lv_table.c ****     }
 1097              		.loc 3 303 0
 1098 00d4 00BF     		nop
 1099              	.L47:
 320:..\..\..\lvgl\version_6.1.2\lvgl\src\lv_objx/lv_table.c **** }
 1100              		.loc 3 320 0
 1101 00d6 2437     		adds	r7, r7, #36
 1102              		.cfi_def_cfa_offset 12
 1103 00d8 BD46     		mov	sp, r7
 1104              		.cfi_def_cfa_register 13
 1105              		@ sp needed
 1106 00da 90BD     		pop	{r4, r7, pc}
 1107              		.cfi_endproc
 1108              	.LFE39:
ARM GAS  C:\Users\tmj32\AppData\Local\Temp\ccIZw7Ef.s 			page 30


 1109              		.size	lv_table_set_cell_type, .-lv_table_set_cell_type
 1110              		.section	.text.lv_table_set_cell_crop,"ax",%progbits
 1111              		.align	2
 1112              		.global	lv_table_set_cell_crop
 1113              		.thumb
 1114              		.thumb_func
 1115              		.type	lv_table_set_cell_crop, %function
 1116              	lv_table_set_cell_crop:
 1117              	.LFB40:
 321:..\..\..\lvgl\version_6.1.2\lvgl\src\lv_objx/lv_table.c **** 
 322:..\..\..\lvgl\version_6.1.2\lvgl\src\lv_objx/lv_table.c **** /**
 323:..\..\..\lvgl\version_6.1.2\lvgl\src\lv_objx/lv_table.c ****  * Set the cell crop. (Don't adjust the height of the cell according to its content)
 324:..\..\..\lvgl\version_6.1.2\lvgl\src\lv_objx/lv_table.c ****  * @param table pointer to a Table object
 325:..\..\..\lvgl\version_6.1.2\lvgl\src\lv_objx/lv_table.c ****  * @param row id of the row [0 .. row_cnt -1]
 326:..\..\..\lvgl\version_6.1.2\lvgl\src\lv_objx/lv_table.c ****  * @param col id of the column [0 .. col_cnt -1]
 327:..\..\..\lvgl\version_6.1.2\lvgl\src\lv_objx/lv_table.c ****  * @param crop true: crop the cell content; false: set the cell height to the content.
 328:..\..\..\lvgl\version_6.1.2\lvgl\src\lv_objx/lv_table.c ****  */
 329:..\..\..\lvgl\version_6.1.2\lvgl\src\lv_objx/lv_table.c **** void lv_table_set_cell_crop(lv_obj_t * table, uint16_t row, uint16_t col, bool crop)
 330:..\..\..\lvgl\version_6.1.2\lvgl\src\lv_objx/lv_table.c **** {
 1118              		.loc 3 330 0
 1119              		.cfi_startproc
 1120              		@ args = 0, pretend = 0, frame = 32
 1121              		@ frame_needed = 1, uses_anonymous_args = 0
 1122 0000 90B5     		push	{r4, r7, lr}
 1123              		.cfi_def_cfa_offset 12
 1124              		.cfi_offset 4, -12
 1125              		.cfi_offset 7, -8
 1126              		.cfi_offset 14, -4
 1127 0002 89B0     		sub	sp, sp, #36
 1128              		.cfi_def_cfa_offset 48
 1129 0004 00AF     		add	r7, sp, #0
 1130              		.cfi_def_cfa_register 7
 1131 0006 F860     		str	r0, [r7, #12]
 1132 0008 0846     		mov	r0, r1
 1133 000a 1146     		mov	r1, r2
 1134 000c 1A46     		mov	r2, r3
 1135 000e 0346     		mov	r3, r0	@ movhi
 1136 0010 7B81     		strh	r3, [r7, #10]	@ movhi
 1137 0012 0B46     		mov	r3, r1	@ movhi
 1138 0014 3B81     		strh	r3, [r7, #8]	@ movhi
 1139 0016 1346     		mov	r3, r2
 1140 0018 FB71     		strb	r3, [r7, #7]
 331:..\..\..\lvgl\version_6.1.2\lvgl\src\lv_objx/lv_table.c ****     LV_ASSERT_OBJ(table, LV_OBJX_NAME);
 332:..\..\..\lvgl\version_6.1.2\lvgl\src\lv_objx/lv_table.c **** 
 333:..\..\..\lvgl\version_6.1.2\lvgl\src\lv_objx/lv_table.c ****     lv_table_ext_t * ext = lv_obj_get_ext_attr(table);
 1141              		.loc 3 333 0
 1142 001a F868     		ldr	r0, [r7, #12]
 1143 001c FFF7FEFF 		bl	lv_obj_get_ext_attr
 1144 0020 F861     		str	r0, [r7, #28]
 334:..\..\..\lvgl\version_6.1.2\lvgl\src\lv_objx/lv_table.c ****     if(row >= ext->row_cnt || col >= ext->col_cnt) {
 1145              		.loc 3 334 0
 1146 0022 FB69     		ldr	r3, [r7, #28]
 1147 0024 5B88     		ldrh	r3, [r3, #2]
 1148 0026 7A89     		ldrh	r2, [r7, #10]
 1149 0028 9A42     		cmp	r2, r3
 1150 002a 45D2     		bcs	.L60
 1151              		.loc 3 334 0 is_stmt 0 discriminator 1
ARM GAS  C:\Users\tmj32\AppData\Local\Temp\ccIZw7Ef.s 			page 31


 1152 002c FB69     		ldr	r3, [r7, #28]
 1153 002e 1B88     		ldrh	r3, [r3]
 1154 0030 3A89     		ldrh	r2, [r7, #8]
 1155 0032 9A42     		cmp	r2, r3
 1156 0034 40D2     		bcs	.L60
 335:..\..\..\lvgl\version_6.1.2\lvgl\src\lv_objx/lv_table.c ****         LV_LOG_WARN("lv_table_set_cell_crop: invalid row or column");
 336:..\..\..\lvgl\version_6.1.2\lvgl\src\lv_objx/lv_table.c ****         return;
 337:..\..\..\lvgl\version_6.1.2\lvgl\src\lv_objx/lv_table.c ****     }
 338:..\..\..\lvgl\version_6.1.2\lvgl\src\lv_objx/lv_table.c ****     uint32_t cell = row * ext->col_cnt + col;
 1157              		.loc 3 338 0 is_stmt 1
 1158 0036 7B89     		ldrh	r3, [r7, #10]
 1159 0038 FA69     		ldr	r2, [r7, #28]
 1160 003a 1288     		ldrh	r2, [r2]
 1161 003c 02FB03F2 		mul	r2, r2, r3
 1162 0040 3B89     		ldrh	r3, [r7, #8]
 1163 0042 1344     		add	r3, r3, r2
 1164 0044 BB61     		str	r3, [r7, #24]
 339:..\..\..\lvgl\version_6.1.2\lvgl\src\lv_objx/lv_table.c **** 
 340:..\..\..\lvgl\version_6.1.2\lvgl\src\lv_objx/lv_table.c ****     if(ext->cell_data[cell] == NULL) {
 1165              		.loc 3 340 0
 1166 0046 FB69     		ldr	r3, [r7, #28]
 1167 0048 5A68     		ldr	r2, [r3, #4]
 1168 004a BB69     		ldr	r3, [r7, #24]
 1169 004c 9B00     		lsls	r3, r3, #2
 1170 004e 1344     		add	r3, r3, r2
 1171 0050 1B68     		ldr	r3, [r3]
 1172 0052 002B     		cmp	r3, #0
 1173 0054 1AD1     		bne	.L59
 341:..\..\..\lvgl\version_6.1.2\lvgl\src\lv_objx/lv_table.c ****         ext->cell_data[cell]    = lv_mem_alloc(2); /*+1: trailing '\0; +1: format byte*/
 1174              		.loc 3 341 0
 1175 0056 FB69     		ldr	r3, [r7, #28]
 1176 0058 5A68     		ldr	r2, [r3, #4]
 1177 005a BB69     		ldr	r3, [r7, #24]
 1178 005c 9B00     		lsls	r3, r3, #2
 1179 005e D418     		adds	r4, r2, r3
 1180 0060 0220     		movs	r0, #2
 1181 0062 FFF7FEFF 		bl	lv_mem_alloc
 1182 0066 0346     		mov	r3, r0
 1183 0068 2360     		str	r3, [r4]
 342:..\..\..\lvgl\version_6.1.2\lvgl\src\lv_objx/lv_table.c ****         ext->cell_data[cell][0] = 0;
 1184              		.loc 3 342 0
 1185 006a FB69     		ldr	r3, [r7, #28]
 1186 006c 5A68     		ldr	r2, [r3, #4]
 1187 006e BB69     		ldr	r3, [r7, #24]
 1188 0070 9B00     		lsls	r3, r3, #2
 1189 0072 1344     		add	r3, r3, r2
 1190 0074 1B68     		ldr	r3, [r3]
 1191 0076 0022     		movs	r2, #0
 1192 0078 1A70     		strb	r2, [r3]
 343:..\..\..\lvgl\version_6.1.2\lvgl\src\lv_objx/lv_table.c ****         ext->cell_data[cell][1] = '\0';
 1193              		.loc 3 343 0
 1194 007a FB69     		ldr	r3, [r7, #28]
 1195 007c 5A68     		ldr	r2, [r3, #4]
 1196 007e BB69     		ldr	r3, [r7, #24]
 1197 0080 9B00     		lsls	r3, r3, #2
 1198 0082 1344     		add	r3, r3, r2
 1199 0084 1B68     		ldr	r3, [r3]
ARM GAS  C:\Users\tmj32\AppData\Local\Temp\ccIZw7Ef.s 			page 32


 1200 0086 0133     		adds	r3, r3, #1
 1201 0088 0022     		movs	r2, #0
 1202 008a 1A70     		strb	r2, [r3]
 1203              	.L59:
 344:..\..\..\lvgl\version_6.1.2\lvgl\src\lv_objx/lv_table.c ****     }
 345:..\..\..\lvgl\version_6.1.2\lvgl\src\lv_objx/lv_table.c **** 
 346:..\..\..\lvgl\version_6.1.2\lvgl\src\lv_objx/lv_table.c ****     lv_table_cell_format_t format;
 347:..\..\..\lvgl\version_6.1.2\lvgl\src\lv_objx/lv_table.c ****     format.format_byte      = ext->cell_data[cell][0];
 1204              		.loc 3 347 0
 1205 008c FB69     		ldr	r3, [r7, #28]
 1206 008e 5A68     		ldr	r2, [r3, #4]
 1207 0090 BB69     		ldr	r3, [r7, #24]
 1208 0092 9B00     		lsls	r3, r3, #2
 1209 0094 1344     		add	r3, r3, r2
 1210 0096 1B68     		ldr	r3, [r3]
 1211 0098 1B78     		ldrb	r3, [r3]	@ zero_extendqisi2
 1212 009a 3B75     		strb	r3, [r7, #20]
 348:..\..\..\lvgl\version_6.1.2\lvgl\src\lv_objx/lv_table.c ****     format.s.crop           = crop;
 1213              		.loc 3 348 0
 1214 009c 3B7D     		ldrb	r3, [r7, #20]
 1215 009e FA79     		ldrb	r2, [r7, #7]
 1216 00a0 62F34513 		bfi	r3, r2, #5, #1
 1217 00a4 3B75     		strb	r3, [r7, #20]
 349:..\..\..\lvgl\version_6.1.2\lvgl\src\lv_objx/lv_table.c ****     ext->cell_data[cell][0] = format.format_byte;
 1218              		.loc 3 349 0
 1219 00a6 FB69     		ldr	r3, [r7, #28]
 1220 00a8 5A68     		ldr	r2, [r3, #4]
 1221 00aa BB69     		ldr	r3, [r7, #24]
 1222 00ac 9B00     		lsls	r3, r3, #2
 1223 00ae 1344     		add	r3, r3, r2
 1224 00b0 1B68     		ldr	r3, [r3]
 1225 00b2 3A7D     		ldrb	r2, [r7, #20]	@ zero_extendqisi2
 1226 00b4 1A70     		strb	r2, [r3]
 1227 00b6 00E0     		b	.L55
 1228              	.L60:
 336:..\..\..\lvgl\version_6.1.2\lvgl\src\lv_objx/lv_table.c ****     }
 1229              		.loc 3 336 0
 1230 00b8 00BF     		nop
 1231              	.L55:
 350:..\..\..\lvgl\version_6.1.2\lvgl\src\lv_objx/lv_table.c **** }
 1232              		.loc 3 350 0
 1233 00ba 2437     		adds	r7, r7, #36
 1234              		.cfi_def_cfa_offset 12
 1235 00bc BD46     		mov	sp, r7
 1236              		.cfi_def_cfa_register 13
 1237              		@ sp needed
 1238 00be 90BD     		pop	{r4, r7, pc}
 1239              		.cfi_endproc
 1240              	.LFE40:
 1241              		.size	lv_table_set_cell_crop, .-lv_table_set_cell_crop
 1242              		.section	.text.lv_table_set_cell_merge_right,"ax",%progbits
 1243              		.align	2
 1244              		.global	lv_table_set_cell_merge_right
 1245              		.thumb
 1246              		.thumb_func
 1247              		.type	lv_table_set_cell_merge_right, %function
 1248              	lv_table_set_cell_merge_right:
ARM GAS  C:\Users\tmj32\AppData\Local\Temp\ccIZw7Ef.s 			page 33


 1249              	.LFB41:
 351:..\..\..\lvgl\version_6.1.2\lvgl\src\lv_objx/lv_table.c **** 
 352:..\..\..\lvgl\version_6.1.2\lvgl\src\lv_objx/lv_table.c **** /**
 353:..\..\..\lvgl\version_6.1.2\lvgl\src\lv_objx/lv_table.c ****  * Merge a cell with the right neighbor. The value of the cell to the right won't be displayed.
 354:..\..\..\lvgl\version_6.1.2\lvgl\src\lv_objx/lv_table.c ****  * @param table table pointer to a Table object
 355:..\..\..\lvgl\version_6.1.2\lvgl\src\lv_objx/lv_table.c ****  * @param row id of the row [0 .. row_cnt -1]
 356:..\..\..\lvgl\version_6.1.2\lvgl\src\lv_objx/lv_table.c ****  * @param col id of the column [0 .. col_cnt -1]
 357:..\..\..\lvgl\version_6.1.2\lvgl\src\lv_objx/lv_table.c ****  * @param en true: merge right; false: don't merge right
 358:..\..\..\lvgl\version_6.1.2\lvgl\src\lv_objx/lv_table.c ****  */
 359:..\..\..\lvgl\version_6.1.2\lvgl\src\lv_objx/lv_table.c **** void lv_table_set_cell_merge_right(lv_obj_t * table, uint16_t row, uint16_t col, bool en)
 360:..\..\..\lvgl\version_6.1.2\lvgl\src\lv_objx/lv_table.c **** {
 1250              		.loc 3 360 0
 1251              		.cfi_startproc
 1252              		@ args = 0, pretend = 0, frame = 32
 1253              		@ frame_needed = 1, uses_anonymous_args = 0
 1254 0000 90B5     		push	{r4, r7, lr}
 1255              		.cfi_def_cfa_offset 12
 1256              		.cfi_offset 4, -12
 1257              		.cfi_offset 7, -8
 1258              		.cfi_offset 14, -4
 1259 0002 89B0     		sub	sp, sp, #36
 1260              		.cfi_def_cfa_offset 48
 1261 0004 00AF     		add	r7, sp, #0
 1262              		.cfi_def_cfa_register 7
 1263 0006 F860     		str	r0, [r7, #12]
 1264 0008 0846     		mov	r0, r1
 1265 000a 1146     		mov	r1, r2
 1266 000c 1A46     		mov	r2, r3
 1267 000e 0346     		mov	r3, r0	@ movhi
 1268 0010 7B81     		strh	r3, [r7, #10]	@ movhi
 1269 0012 0B46     		mov	r3, r1	@ movhi
 1270 0014 3B81     		strh	r3, [r7, #8]	@ movhi
 1271 0016 1346     		mov	r3, r2
 1272 0018 FB71     		strb	r3, [r7, #7]
 361:..\..\..\lvgl\version_6.1.2\lvgl\src\lv_objx/lv_table.c ****     LV_ASSERT_OBJ(table, LV_OBJX_NAME);
 362:..\..\..\lvgl\version_6.1.2\lvgl\src\lv_objx/lv_table.c **** 
 363:..\..\..\lvgl\version_6.1.2\lvgl\src\lv_objx/lv_table.c ****     lv_table_ext_t * ext = lv_obj_get_ext_attr(table);
 1273              		.loc 3 363 0
 1274 001a F868     		ldr	r0, [r7, #12]
 1275 001c FFF7FEFF 		bl	lv_obj_get_ext_attr
 1276 0020 F861     		str	r0, [r7, #28]
 364:..\..\..\lvgl\version_6.1.2\lvgl\src\lv_objx/lv_table.c ****     if(row >= ext->row_cnt || col >= ext->col_cnt) {
 1277              		.loc 3 364 0
 1278 0022 FB69     		ldr	r3, [r7, #28]
 1279 0024 5B88     		ldrh	r3, [r3, #2]
 1280 0026 7A89     		ldrh	r2, [r7, #10]
 1281 0028 9A42     		cmp	r2, r3
 1282 002a 4BD2     		bcs	.L66
 1283              		.loc 3 364 0 is_stmt 0 discriminator 1
 1284 002c FB69     		ldr	r3, [r7, #28]
 1285 002e 1B88     		ldrh	r3, [r3]
 1286 0030 3A89     		ldrh	r2, [r7, #8]
 1287 0032 9A42     		cmp	r2, r3
 1288 0034 46D2     		bcs	.L66
 365:..\..\..\lvgl\version_6.1.2\lvgl\src\lv_objx/lv_table.c ****         LV_LOG_WARN("lv_table_set_cell_merge_right: invalid row or column");
 366:..\..\..\lvgl\version_6.1.2\lvgl\src\lv_objx/lv_table.c ****         return;
 367:..\..\..\lvgl\version_6.1.2\lvgl\src\lv_objx/lv_table.c ****     }
ARM GAS  C:\Users\tmj32\AppData\Local\Temp\ccIZw7Ef.s 			page 34


 368:..\..\..\lvgl\version_6.1.2\lvgl\src\lv_objx/lv_table.c **** 
 369:..\..\..\lvgl\version_6.1.2\lvgl\src\lv_objx/lv_table.c ****     uint32_t cell = row * ext->col_cnt + col;
 1289              		.loc 3 369 0 is_stmt 1
 1290 0036 7B89     		ldrh	r3, [r7, #10]
 1291 0038 FA69     		ldr	r2, [r7, #28]
 1292 003a 1288     		ldrh	r2, [r2]
 1293 003c 02FB03F2 		mul	r2, r2, r3
 1294 0040 3B89     		ldrh	r3, [r7, #8]
 1295 0042 1344     		add	r3, r3, r2
 1296 0044 BB61     		str	r3, [r7, #24]
 370:..\..\..\lvgl\version_6.1.2\lvgl\src\lv_objx/lv_table.c **** 
 371:..\..\..\lvgl\version_6.1.2\lvgl\src\lv_objx/lv_table.c ****     if(ext->cell_data[cell] == NULL) {
 1297              		.loc 3 371 0
 1298 0046 FB69     		ldr	r3, [r7, #28]
 1299 0048 5A68     		ldr	r2, [r3, #4]
 1300 004a BB69     		ldr	r3, [r7, #24]
 1301 004c 9B00     		lsls	r3, r3, #2
 1302 004e 1344     		add	r3, r3, r2
 1303 0050 1B68     		ldr	r3, [r3]
 1304 0052 002B     		cmp	r3, #0
 1305 0054 1AD1     		bne	.L65
 372:..\..\..\lvgl\version_6.1.2\lvgl\src\lv_objx/lv_table.c ****         ext->cell_data[cell]    = lv_mem_alloc(2); /*+1: trailing '\0; +1: format byte*/
 1306              		.loc 3 372 0
 1307 0056 FB69     		ldr	r3, [r7, #28]
 1308 0058 5A68     		ldr	r2, [r3, #4]
 1309 005a BB69     		ldr	r3, [r7, #24]
 1310 005c 9B00     		lsls	r3, r3, #2
 1311 005e D418     		adds	r4, r2, r3
 1312 0060 0220     		movs	r0, #2
 1313 0062 FFF7FEFF 		bl	lv_mem_alloc
 1314 0066 0346     		mov	r3, r0
 1315 0068 2360     		str	r3, [r4]
 373:..\..\..\lvgl\version_6.1.2\lvgl\src\lv_objx/lv_table.c ****         ext->cell_data[cell][0] = 0;
 1316              		.loc 3 373 0
 1317 006a FB69     		ldr	r3, [r7, #28]
 1318 006c 5A68     		ldr	r2, [r3, #4]
 1319 006e BB69     		ldr	r3, [r7, #24]
 1320 0070 9B00     		lsls	r3, r3, #2
 1321 0072 1344     		add	r3, r3, r2
 1322 0074 1B68     		ldr	r3, [r3]
 1323 0076 0022     		movs	r2, #0
 1324 0078 1A70     		strb	r2, [r3]
 374:..\..\..\lvgl\version_6.1.2\lvgl\src\lv_objx/lv_table.c ****         ext->cell_data[cell][1] = '\0';
 1325              		.loc 3 374 0
 1326 007a FB69     		ldr	r3, [r7, #28]
 1327 007c 5A68     		ldr	r2, [r3, #4]
 1328 007e BB69     		ldr	r3, [r7, #24]
 1329 0080 9B00     		lsls	r3, r3, #2
 1330 0082 1344     		add	r3, r3, r2
 1331 0084 1B68     		ldr	r3, [r3]
 1332 0086 0133     		adds	r3, r3, #1
 1333 0088 0022     		movs	r2, #0
 1334 008a 1A70     		strb	r2, [r3]
 1335              	.L65:
 375:..\..\..\lvgl\version_6.1.2\lvgl\src\lv_objx/lv_table.c ****     }
 376:..\..\..\lvgl\version_6.1.2\lvgl\src\lv_objx/lv_table.c **** 
 377:..\..\..\lvgl\version_6.1.2\lvgl\src\lv_objx/lv_table.c ****     lv_table_cell_format_t format;
ARM GAS  C:\Users\tmj32\AppData\Local\Temp\ccIZw7Ef.s 			page 35


 378:..\..\..\lvgl\version_6.1.2\lvgl\src\lv_objx/lv_table.c ****     format.format_byte      = ext->cell_data[cell][0];
 1336              		.loc 3 378 0
 1337 008c FB69     		ldr	r3, [r7, #28]
 1338 008e 5A68     		ldr	r2, [r3, #4]
 1339 0090 BB69     		ldr	r3, [r7, #24]
 1340 0092 9B00     		lsls	r3, r3, #2
 1341 0094 1344     		add	r3, r3, r2
 1342 0096 1B68     		ldr	r3, [r3]
 1343 0098 1B78     		ldrb	r3, [r3]	@ zero_extendqisi2
 1344 009a 3B75     		strb	r3, [r7, #20]
 379:..\..\..\lvgl\version_6.1.2\lvgl\src\lv_objx/lv_table.c ****     format.s.right_merge    = en ? 1 : 0;
 1345              		.loc 3 379 0
 1346 009c FB79     		ldrb	r3, [r7, #7]	@ zero_extendqisi2
 1347 009e 03F00103 		and	r3, r3, #1
 1348 00a2 DAB2     		uxtb	r2, r3
 1349 00a4 3B7D     		ldrb	r3, [r7, #20]
 1350 00a6 62F38203 		bfi	r3, r2, #2, #1
 1351 00aa 3B75     		strb	r3, [r7, #20]
 380:..\..\..\lvgl\version_6.1.2\lvgl\src\lv_objx/lv_table.c ****     ext->cell_data[cell][0] = format.format_byte;
 1352              		.loc 3 380 0
 1353 00ac FB69     		ldr	r3, [r7, #28]
 1354 00ae 5A68     		ldr	r2, [r3, #4]
 1355 00b0 BB69     		ldr	r3, [r7, #24]
 1356 00b2 9B00     		lsls	r3, r3, #2
 1357 00b4 1344     		add	r3, r3, r2
 1358 00b6 1B68     		ldr	r3, [r3]
 1359 00b8 3A7D     		ldrb	r2, [r7, #20]	@ zero_extendqisi2
 1360 00ba 1A70     		strb	r2, [r3]
 381:..\..\..\lvgl\version_6.1.2\lvgl\src\lv_objx/lv_table.c ****     refr_size(table);
 1361              		.loc 3 381 0
 1362 00bc F868     		ldr	r0, [r7, #12]
 1363 00be FFF7FEFF 		bl	refr_size
 1364 00c2 00E0     		b	.L61
 1365              	.L66:
 366:..\..\..\lvgl\version_6.1.2\lvgl\src\lv_objx/lv_table.c ****     }
 1366              		.loc 3 366 0
 1367 00c4 00BF     		nop
 1368              	.L61:
 382:..\..\..\lvgl\version_6.1.2\lvgl\src\lv_objx/lv_table.c **** }
 1369              		.loc 3 382 0
 1370 00c6 2437     		adds	r7, r7, #36
 1371              		.cfi_def_cfa_offset 12
 1372 00c8 BD46     		mov	sp, r7
 1373              		.cfi_def_cfa_register 13
 1374              		@ sp needed
 1375 00ca 90BD     		pop	{r4, r7, pc}
 1376              		.cfi_endproc
 1377              	.LFE41:
 1378              		.size	lv_table_set_cell_merge_right, .-lv_table_set_cell_merge_right
 1379              		.section	.text.lv_table_set_style,"ax",%progbits
 1380              		.align	2
 1381              		.global	lv_table_set_style
 1382              		.thumb
 1383              		.thumb_func
 1384              		.type	lv_table_set_style, %function
 1385              	lv_table_set_style:
 1386              	.LFB42:
ARM GAS  C:\Users\tmj32\AppData\Local\Temp\ccIZw7Ef.s 			page 36


 383:..\..\..\lvgl\version_6.1.2\lvgl\src\lv_objx/lv_table.c **** 
 384:..\..\..\lvgl\version_6.1.2\lvgl\src\lv_objx/lv_table.c **** /**
 385:..\..\..\lvgl\version_6.1.2\lvgl\src\lv_objx/lv_table.c ****  * Set a style of a table.
 386:..\..\..\lvgl\version_6.1.2\lvgl\src\lv_objx/lv_table.c ****  * @param table pointer to table object
 387:..\..\..\lvgl\version_6.1.2\lvgl\src\lv_objx/lv_table.c ****  * @param type which style should be set
 388:..\..\..\lvgl\version_6.1.2\lvgl\src\lv_objx/lv_table.c ****  * @param style pointer to a style
 389:..\..\..\lvgl\version_6.1.2\lvgl\src\lv_objx/lv_table.c ****  */
 390:..\..\..\lvgl\version_6.1.2\lvgl\src\lv_objx/lv_table.c **** void lv_table_set_style(lv_obj_t * table, lv_table_style_t type, const lv_style_t * style)
 391:..\..\..\lvgl\version_6.1.2\lvgl\src\lv_objx/lv_table.c **** {
 1387              		.loc 3 391 0
 1388              		.cfi_startproc
 1389              		@ args = 0, pretend = 0, frame = 24
 1390              		@ frame_needed = 1, uses_anonymous_args = 0
 1391 0000 80B5     		push	{r7, lr}
 1392              		.cfi_def_cfa_offset 8
 1393              		.cfi_offset 7, -8
 1394              		.cfi_offset 14, -4
 1395 0002 86B0     		sub	sp, sp, #24
 1396              		.cfi_def_cfa_offset 32
 1397 0004 00AF     		add	r7, sp, #0
 1398              		.cfi_def_cfa_register 7
 1399 0006 F860     		str	r0, [r7, #12]
 1400 0008 0B46     		mov	r3, r1
 1401 000a 7A60     		str	r2, [r7, #4]
 1402 000c FB72     		strb	r3, [r7, #11]
 392:..\..\..\lvgl\version_6.1.2\lvgl\src\lv_objx/lv_table.c ****     LV_ASSERT_OBJ(table, LV_OBJX_NAME);
 393:..\..\..\lvgl\version_6.1.2\lvgl\src\lv_objx/lv_table.c **** 
 394:..\..\..\lvgl\version_6.1.2\lvgl\src\lv_objx/lv_table.c ****     lv_table_ext_t * ext = lv_obj_get_ext_attr(table);
 1403              		.loc 3 394 0
 1404 000e F868     		ldr	r0, [r7, #12]
 1405 0010 FFF7FEFF 		bl	lv_obj_get_ext_attr
 1406 0014 7861     		str	r0, [r7, #20]
 395:..\..\..\lvgl\version_6.1.2\lvgl\src\lv_objx/lv_table.c **** 
 396:..\..\..\lvgl\version_6.1.2\lvgl\src\lv_objx/lv_table.c ****     switch(type) {
 1407              		.loc 3 396 0
 1408 0016 FB7A     		ldrb	r3, [r7, #11]	@ zero_extendqisi2
 1409 0018 042B     		cmp	r3, #4
 1410 001a 31D8     		bhi	.L75
 1411 001c 01A2     		adr	r2, .L70
 1412 001e 52F823F0 		ldr	pc, [r2, r3, lsl #2]
 1413 0022 00BF     		.p2align 2
 1414              	.L70:
 1415 0024 39000000 		.word	.L69+1
 1416 0028 49000000 		.word	.L71+1
 1417 002c 57000000 		.word	.L72+1
 1418 0030 65000000 		.word	.L73+1
 1419 0034 73000000 		.word	.L74+1
 1420              		.p2align 1
 1421              	.L69:
 397:..\..\..\lvgl\version_6.1.2\lvgl\src\lv_objx/lv_table.c ****         case LV_TABLE_STYLE_BG:
 398:..\..\..\lvgl\version_6.1.2\lvgl\src\lv_objx/lv_table.c ****             lv_obj_set_style(table, style);
 1422              		.loc 3 398 0
 1423 0038 7968     		ldr	r1, [r7, #4]
 1424 003a F868     		ldr	r0, [r7, #12]
 1425 003c FFF7FEFF 		bl	lv_obj_set_style
 399:..\..\..\lvgl\version_6.1.2\lvgl\src\lv_objx/lv_table.c ****             refr_size(table);
 1426              		.loc 3 399 0
ARM GAS  C:\Users\tmj32\AppData\Local\Temp\ccIZw7Ef.s 			page 37


 1427 0040 F868     		ldr	r0, [r7, #12]
 1428 0042 FFF7FEFF 		bl	refr_size
 400:..\..\..\lvgl\version_6.1.2\lvgl\src\lv_objx/lv_table.c ****             break;
 1429              		.loc 3 400 0
 1430 0046 1BE0     		b	.L68
 1431              	.L71:
 401:..\..\..\lvgl\version_6.1.2\lvgl\src\lv_objx/lv_table.c ****         case LV_TABLE_STYLE_CELL1:
 402:..\..\..\lvgl\version_6.1.2\lvgl\src\lv_objx/lv_table.c ****             ext->cell_style[0] = style;
 1432              		.loc 3 402 0
 1433 0048 7B69     		ldr	r3, [r7, #20]
 1434 004a 7A68     		ldr	r2, [r7, #4]
 1435 004c 9A60     		str	r2, [r3, #8]
 403:..\..\..\lvgl\version_6.1.2\lvgl\src\lv_objx/lv_table.c ****             refr_size(table);
 1436              		.loc 3 403 0
 1437 004e F868     		ldr	r0, [r7, #12]
 1438 0050 FFF7FEFF 		bl	refr_size
 404:..\..\..\lvgl\version_6.1.2\lvgl\src\lv_objx/lv_table.c ****             break;
 1439              		.loc 3 404 0
 1440 0054 14E0     		b	.L68
 1441              	.L72:
 405:..\..\..\lvgl\version_6.1.2\lvgl\src\lv_objx/lv_table.c ****         case LV_TABLE_STYLE_CELL2:
 406:..\..\..\lvgl\version_6.1.2\lvgl\src\lv_objx/lv_table.c ****             ext->cell_style[1] = style;
 1442              		.loc 3 406 0
 1443 0056 7B69     		ldr	r3, [r7, #20]
 1444 0058 7A68     		ldr	r2, [r7, #4]
 1445 005a DA60     		str	r2, [r3, #12]
 407:..\..\..\lvgl\version_6.1.2\lvgl\src\lv_objx/lv_table.c ****             refr_size(table);
 1446              		.loc 3 407 0
 1447 005c F868     		ldr	r0, [r7, #12]
 1448 005e FFF7FEFF 		bl	refr_size
 408:..\..\..\lvgl\version_6.1.2\lvgl\src\lv_objx/lv_table.c ****             break;
 1449              		.loc 3 408 0
 1450 0062 0DE0     		b	.L68
 1451              	.L73:
 409:..\..\..\lvgl\version_6.1.2\lvgl\src\lv_objx/lv_table.c ****         case LV_TABLE_STYLE_CELL3:
 410:..\..\..\lvgl\version_6.1.2\lvgl\src\lv_objx/lv_table.c ****             ext->cell_style[2] = style;
 1452              		.loc 3 410 0
 1453 0064 7B69     		ldr	r3, [r7, #20]
 1454 0066 7A68     		ldr	r2, [r7, #4]
 1455 0068 1A61     		str	r2, [r3, #16]
 411:..\..\..\lvgl\version_6.1.2\lvgl\src\lv_objx/lv_table.c ****             refr_size(table);
 1456              		.loc 3 411 0
 1457 006a F868     		ldr	r0, [r7, #12]
 1458 006c FFF7FEFF 		bl	refr_size
 412:..\..\..\lvgl\version_6.1.2\lvgl\src\lv_objx/lv_table.c ****             break;
 1459              		.loc 3 412 0
 1460 0070 06E0     		b	.L68
 1461              	.L74:
 413:..\..\..\lvgl\version_6.1.2\lvgl\src\lv_objx/lv_table.c ****         case LV_TABLE_STYLE_CELL4:
 414:..\..\..\lvgl\version_6.1.2\lvgl\src\lv_objx/lv_table.c ****             ext->cell_style[3] = style;
 1462              		.loc 3 414 0
 1463 0072 7B69     		ldr	r3, [r7, #20]
 1464 0074 7A68     		ldr	r2, [r7, #4]
 1465 0076 5A61     		str	r2, [r3, #20]
 415:..\..\..\lvgl\version_6.1.2\lvgl\src\lv_objx/lv_table.c ****             refr_size(table);
 1466              		.loc 3 415 0
 1467 0078 F868     		ldr	r0, [r7, #12]
ARM GAS  C:\Users\tmj32\AppData\Local\Temp\ccIZw7Ef.s 			page 38


 1468 007a FFF7FEFF 		bl	refr_size
 416:..\..\..\lvgl\version_6.1.2\lvgl\src\lv_objx/lv_table.c ****             break;
 1469              		.loc 3 416 0
 1470 007e 00BF     		nop
 1471              	.L68:
 1472              	.L75:
 417:..\..\..\lvgl\version_6.1.2\lvgl\src\lv_objx/lv_table.c ****     }
 418:..\..\..\lvgl\version_6.1.2\lvgl\src\lv_objx/lv_table.c **** }
 1473              		.loc 3 418 0
 1474 0080 00BF     		nop
 1475 0082 1837     		adds	r7, r7, #24
 1476              		.cfi_def_cfa_offset 8
 1477 0084 BD46     		mov	sp, r7
 1478              		.cfi_def_cfa_register 13
 1479              		@ sp needed
 1480 0086 80BD     		pop	{r7, pc}
 1481              		.cfi_endproc
 1482              	.LFE42:
 1483              		.size	lv_table_set_style, .-lv_table_set_style
 1484              		.section	.rodata
 1485              		.align	2
 1486              	.LC0:
 1487 0000 00       		.ascii	"\000"
 1488              		.section	.text.lv_table_get_cell_value,"ax",%progbits
 1489              		.align	2
 1490              		.global	lv_table_get_cell_value
 1491              		.thumb
 1492              		.thumb_func
 1493              		.type	lv_table_get_cell_value, %function
 1494              	lv_table_get_cell_value:
 1495              	.LFB43:
 419:..\..\..\lvgl\version_6.1.2\lvgl\src\lv_objx/lv_table.c **** 
 420:..\..\..\lvgl\version_6.1.2\lvgl\src\lv_objx/lv_table.c **** /*=====================
 421:..\..\..\lvgl\version_6.1.2\lvgl\src\lv_objx/lv_table.c ****  * Getter functions
 422:..\..\..\lvgl\version_6.1.2\lvgl\src\lv_objx/lv_table.c ****  *====================*/
 423:..\..\..\lvgl\version_6.1.2\lvgl\src\lv_objx/lv_table.c **** 
 424:..\..\..\lvgl\version_6.1.2\lvgl\src\lv_objx/lv_table.c **** /**
 425:..\..\..\lvgl\version_6.1.2\lvgl\src\lv_objx/lv_table.c ****  * Get the value of a cell.
 426:..\..\..\lvgl\version_6.1.2\lvgl\src\lv_objx/lv_table.c ****  * @param table pointer to a Table object
 427:..\..\..\lvgl\version_6.1.2\lvgl\src\lv_objx/lv_table.c ****  * @param row id of the row [0 .. row_cnt -1]
 428:..\..\..\lvgl\version_6.1.2\lvgl\src\lv_objx/lv_table.c ****  * @param col id of the column [0 .. col_cnt -1]
 429:..\..\..\lvgl\version_6.1.2\lvgl\src\lv_objx/lv_table.c ****  * @return text in the cell
 430:..\..\..\lvgl\version_6.1.2\lvgl\src\lv_objx/lv_table.c ****  */
 431:..\..\..\lvgl\version_6.1.2\lvgl\src\lv_objx/lv_table.c **** const char * lv_table_get_cell_value(lv_obj_t * table, uint16_t row, uint16_t col)
 432:..\..\..\lvgl\version_6.1.2\lvgl\src\lv_objx/lv_table.c **** {
 1496              		.loc 3 432 0
 1497              		.cfi_startproc
 1498              		@ args = 0, pretend = 0, frame = 16
 1499              		@ frame_needed = 1, uses_anonymous_args = 0
 1500 0000 80B5     		push	{r7, lr}
 1501              		.cfi_def_cfa_offset 8
 1502              		.cfi_offset 7, -8
 1503              		.cfi_offset 14, -4
 1504 0002 84B0     		sub	sp, sp, #16
 1505              		.cfi_def_cfa_offset 24
 1506 0004 00AF     		add	r7, sp, #0
 1507              		.cfi_def_cfa_register 7
ARM GAS  C:\Users\tmj32\AppData\Local\Temp\ccIZw7Ef.s 			page 39


 1508 0006 7860     		str	r0, [r7, #4]
 1509 0008 0B46     		mov	r3, r1
 1510 000a 7B80     		strh	r3, [r7, #2]	@ movhi
 1511 000c 1346     		mov	r3, r2	@ movhi
 1512 000e 3B80     		strh	r3, [r7]	@ movhi
 433:..\..\..\lvgl\version_6.1.2\lvgl\src\lv_objx/lv_table.c ****     LV_ASSERT_OBJ(table, LV_OBJX_NAME);
 434:..\..\..\lvgl\version_6.1.2\lvgl\src\lv_objx/lv_table.c **** 
 435:..\..\..\lvgl\version_6.1.2\lvgl\src\lv_objx/lv_table.c ****     lv_table_ext_t * ext = lv_obj_get_ext_attr(table);
 1513              		.loc 3 435 0
 1514 0010 7868     		ldr	r0, [r7, #4]
 1515 0012 FFF7FEFF 		bl	lv_obj_get_ext_attr
 1516 0016 F860     		str	r0, [r7, #12]
 436:..\..\..\lvgl\version_6.1.2\lvgl\src\lv_objx/lv_table.c ****     if(row >= ext->row_cnt || col >= ext->col_cnt) {
 1517              		.loc 3 436 0
 1518 0018 FB68     		ldr	r3, [r7, #12]
 1519 001a 5B88     		ldrh	r3, [r3, #2]
 1520 001c 7A88     		ldrh	r2, [r7, #2]
 1521 001e 9A42     		cmp	r2, r3
 1522 0020 04D2     		bcs	.L77
 1523              		.loc 3 436 0 is_stmt 0 discriminator 1
 1524 0022 FB68     		ldr	r3, [r7, #12]
 1525 0024 1B88     		ldrh	r3, [r3]
 1526 0026 3A88     		ldrh	r2, [r7]
 1527 0028 9A42     		cmp	r2, r3
 1528 002a 01D3     		bcc	.L78
 1529              	.L77:
 437:..\..\..\lvgl\version_6.1.2\lvgl\src\lv_objx/lv_table.c ****         LV_LOG_WARN("lv_table_set_cell_value: invalid row or column");
 438:..\..\..\lvgl\version_6.1.2\lvgl\src\lv_objx/lv_table.c ****         return "";
 1530              		.loc 3 438 0 is_stmt 1
 1531 002c 0F4B     		ldr	r3, .L81
 1532 002e 18E0     		b	.L79
 1533              	.L78:
 439:..\..\..\lvgl\version_6.1.2\lvgl\src\lv_objx/lv_table.c ****     }
 440:..\..\..\lvgl\version_6.1.2\lvgl\src\lv_objx/lv_table.c ****     uint32_t cell = row * ext->col_cnt + col;
 1534              		.loc 3 440 0
 1535 0030 7B88     		ldrh	r3, [r7, #2]
 1536 0032 FA68     		ldr	r2, [r7, #12]
 1537 0034 1288     		ldrh	r2, [r2]
 1538 0036 02FB03F2 		mul	r2, r2, r3
 1539 003a 3B88     		ldrh	r3, [r7]
 1540 003c 1344     		add	r3, r3, r2
 1541 003e BB60     		str	r3, [r7, #8]
 441:..\..\..\lvgl\version_6.1.2\lvgl\src\lv_objx/lv_table.c **** 
 442:..\..\..\lvgl\version_6.1.2\lvgl\src\lv_objx/lv_table.c ****     if(ext->cell_data[cell] == NULL) return "";
 1542              		.loc 3 442 0
 1543 0040 FB68     		ldr	r3, [r7, #12]
 1544 0042 5A68     		ldr	r2, [r3, #4]
 1545 0044 BB68     		ldr	r3, [r7, #8]
 1546 0046 9B00     		lsls	r3, r3, #2
 1547 0048 1344     		add	r3, r3, r2
 1548 004a 1B68     		ldr	r3, [r3]
 1549 004c 002B     		cmp	r3, #0
 1550 004e 01D1     		bne	.L80
 1551              		.loc 3 442 0 is_stmt 0 discriminator 1
 1552 0050 064B     		ldr	r3, .L81
 1553 0052 06E0     		b	.L79
 1554              	.L80:
ARM GAS  C:\Users\tmj32\AppData\Local\Temp\ccIZw7Ef.s 			page 40


 443:..\..\..\lvgl\version_6.1.2\lvgl\src\lv_objx/lv_table.c **** 
 444:..\..\..\lvgl\version_6.1.2\lvgl\src\lv_objx/lv_table.c ****     return &ext->cell_data[cell][1]; /*Skip the format byte*/
 1555              		.loc 3 444 0 is_stmt 1
 1556 0054 FB68     		ldr	r3, [r7, #12]
 1557 0056 5A68     		ldr	r2, [r3, #4]
 1558 0058 BB68     		ldr	r3, [r7, #8]
 1559 005a 9B00     		lsls	r3, r3, #2
 1560 005c 1344     		add	r3, r3, r2
 1561 005e 1B68     		ldr	r3, [r3]
 1562 0060 0133     		adds	r3, r3, #1
 1563              	.L79:
 445:..\..\..\lvgl\version_6.1.2\lvgl\src\lv_objx/lv_table.c **** }
 1564              		.loc 3 445 0
 1565 0062 1846     		mov	r0, r3
 1566 0064 1037     		adds	r7, r7, #16
 1567              		.cfi_def_cfa_offset 8
 1568 0066 BD46     		mov	sp, r7
 1569              		.cfi_def_cfa_register 13
 1570              		@ sp needed
 1571 0068 80BD     		pop	{r7, pc}
 1572              	.L82:
 1573 006a 00BF     		.align	2
 1574              	.L81:
 1575 006c 00000000 		.word	.LC0
 1576              		.cfi_endproc
 1577              	.LFE43:
 1578              		.size	lv_table_get_cell_value, .-lv_table_get_cell_value
 1579              		.section	.text.lv_table_get_row_cnt,"ax",%progbits
 1580              		.align	2
 1581              		.global	lv_table_get_row_cnt
 1582              		.thumb
 1583              		.thumb_func
 1584              		.type	lv_table_get_row_cnt, %function
 1585              	lv_table_get_row_cnt:
 1586              	.LFB44:
 446:..\..\..\lvgl\version_6.1.2\lvgl\src\lv_objx/lv_table.c **** 
 447:..\..\..\lvgl\version_6.1.2\lvgl\src\lv_objx/lv_table.c **** /**
 448:..\..\..\lvgl\version_6.1.2\lvgl\src\lv_objx/lv_table.c ****  * Get the number of rows.
 449:..\..\..\lvgl\version_6.1.2\lvgl\src\lv_objx/lv_table.c ****  * @param table table pointer to a Table object
 450:..\..\..\lvgl\version_6.1.2\lvgl\src\lv_objx/lv_table.c ****  * @return number of rows.
 451:..\..\..\lvgl\version_6.1.2\lvgl\src\lv_objx/lv_table.c ****  */
 452:..\..\..\lvgl\version_6.1.2\lvgl\src\lv_objx/lv_table.c **** uint16_t lv_table_get_row_cnt(lv_obj_t * table)
 453:..\..\..\lvgl\version_6.1.2\lvgl\src\lv_objx/lv_table.c **** {
 1587              		.loc 3 453 0
 1588              		.cfi_startproc
 1589              		@ args = 0, pretend = 0, frame = 16
 1590              		@ frame_needed = 1, uses_anonymous_args = 0
 1591 0000 80B5     		push	{r7, lr}
 1592              		.cfi_def_cfa_offset 8
 1593              		.cfi_offset 7, -8
 1594              		.cfi_offset 14, -4
 1595 0002 84B0     		sub	sp, sp, #16
 1596              		.cfi_def_cfa_offset 24
 1597 0004 00AF     		add	r7, sp, #0
 1598              		.cfi_def_cfa_register 7
 1599 0006 7860     		str	r0, [r7, #4]
 454:..\..\..\lvgl\version_6.1.2\lvgl\src\lv_objx/lv_table.c ****     LV_ASSERT_OBJ(table, LV_OBJX_NAME);
ARM GAS  C:\Users\tmj32\AppData\Local\Temp\ccIZw7Ef.s 			page 41


 455:..\..\..\lvgl\version_6.1.2\lvgl\src\lv_objx/lv_table.c **** 
 456:..\..\..\lvgl\version_6.1.2\lvgl\src\lv_objx/lv_table.c ****     lv_table_ext_t * ext = lv_obj_get_ext_attr(table);
 1600              		.loc 3 456 0
 1601 0008 7868     		ldr	r0, [r7, #4]
 1602 000a FFF7FEFF 		bl	lv_obj_get_ext_attr
 1603 000e F860     		str	r0, [r7, #12]
 457:..\..\..\lvgl\version_6.1.2\lvgl\src\lv_objx/lv_table.c ****     return ext->row_cnt;
 1604              		.loc 3 457 0
 1605 0010 FB68     		ldr	r3, [r7, #12]
 1606 0012 5B88     		ldrh	r3, [r3, #2]
 458:..\..\..\lvgl\version_6.1.2\lvgl\src\lv_objx/lv_table.c **** }
 1607              		.loc 3 458 0
 1608 0014 1846     		mov	r0, r3
 1609 0016 1037     		adds	r7, r7, #16
 1610              		.cfi_def_cfa_offset 8
 1611 0018 BD46     		mov	sp, r7
 1612              		.cfi_def_cfa_register 13
 1613              		@ sp needed
 1614 001a 80BD     		pop	{r7, pc}
 1615              		.cfi_endproc
 1616              	.LFE44:
 1617              		.size	lv_table_get_row_cnt, .-lv_table_get_row_cnt
 1618              		.section	.text.lv_table_get_col_cnt,"ax",%progbits
 1619              		.align	2
 1620              		.global	lv_table_get_col_cnt
 1621              		.thumb
 1622              		.thumb_func
 1623              		.type	lv_table_get_col_cnt, %function
 1624              	lv_table_get_col_cnt:
 1625              	.LFB45:
 459:..\..\..\lvgl\version_6.1.2\lvgl\src\lv_objx/lv_table.c **** 
 460:..\..\..\lvgl\version_6.1.2\lvgl\src\lv_objx/lv_table.c **** /**
 461:..\..\..\lvgl\version_6.1.2\lvgl\src\lv_objx/lv_table.c ****  * Get the number of columns.
 462:..\..\..\lvgl\version_6.1.2\lvgl\src\lv_objx/lv_table.c ****  * @param table table pointer to a Table object
 463:..\..\..\lvgl\version_6.1.2\lvgl\src\lv_objx/lv_table.c ****  * @return number of columns.
 464:..\..\..\lvgl\version_6.1.2\lvgl\src\lv_objx/lv_table.c ****  */
 465:..\..\..\lvgl\version_6.1.2\lvgl\src\lv_objx/lv_table.c **** uint16_t lv_table_get_col_cnt(lv_obj_t * table)
 466:..\..\..\lvgl\version_6.1.2\lvgl\src\lv_objx/lv_table.c **** {
 1626              		.loc 3 466 0
 1627              		.cfi_startproc
 1628              		@ args = 0, pretend = 0, frame = 16
 1629              		@ frame_needed = 1, uses_anonymous_args = 0
 1630 0000 80B5     		push	{r7, lr}
 1631              		.cfi_def_cfa_offset 8
 1632              		.cfi_offset 7, -8
 1633              		.cfi_offset 14, -4
 1634 0002 84B0     		sub	sp, sp, #16
 1635              		.cfi_def_cfa_offset 24
 1636 0004 00AF     		add	r7, sp, #0
 1637              		.cfi_def_cfa_register 7
 1638 0006 7860     		str	r0, [r7, #4]
 467:..\..\..\lvgl\version_6.1.2\lvgl\src\lv_objx/lv_table.c ****     LV_ASSERT_OBJ(table, LV_OBJX_NAME);
 468:..\..\..\lvgl\version_6.1.2\lvgl\src\lv_objx/lv_table.c **** 
 469:..\..\..\lvgl\version_6.1.2\lvgl\src\lv_objx/lv_table.c ****     lv_table_ext_t * ext = lv_obj_get_ext_attr(table);
 1639              		.loc 3 469 0
 1640 0008 7868     		ldr	r0, [r7, #4]
 1641 000a FFF7FEFF 		bl	lv_obj_get_ext_attr
ARM GAS  C:\Users\tmj32\AppData\Local\Temp\ccIZw7Ef.s 			page 42


 1642 000e F860     		str	r0, [r7, #12]
 470:..\..\..\lvgl\version_6.1.2\lvgl\src\lv_objx/lv_table.c ****     return ext->col_cnt;
 1643              		.loc 3 470 0
 1644 0010 FB68     		ldr	r3, [r7, #12]
 1645 0012 1B88     		ldrh	r3, [r3]
 471:..\..\..\lvgl\version_6.1.2\lvgl\src\lv_objx/lv_table.c **** }
 1646              		.loc 3 471 0
 1647 0014 1846     		mov	r0, r3
 1648 0016 1037     		adds	r7, r7, #16
 1649              		.cfi_def_cfa_offset 8
 1650 0018 BD46     		mov	sp, r7
 1651              		.cfi_def_cfa_register 13
 1652              		@ sp needed
 1653 001a 80BD     		pop	{r7, pc}
 1654              		.cfi_endproc
 1655              	.LFE45:
 1656              		.size	lv_table_get_col_cnt, .-lv_table_get_col_cnt
 1657              		.section	.text.lv_table_get_col_width,"ax",%progbits
 1658              		.align	2
 1659              		.global	lv_table_get_col_width
 1660              		.thumb
 1661              		.thumb_func
 1662              		.type	lv_table_get_col_width, %function
 1663              	lv_table_get_col_width:
 1664              	.LFB46:
 472:..\..\..\lvgl\version_6.1.2\lvgl\src\lv_objx/lv_table.c **** 
 473:..\..\..\lvgl\version_6.1.2\lvgl\src\lv_objx/lv_table.c **** /**
 474:..\..\..\lvgl\version_6.1.2\lvgl\src\lv_objx/lv_table.c ****  * Get the width of a column
 475:..\..\..\lvgl\version_6.1.2\lvgl\src\lv_objx/lv_table.c ****  * @param table table pointer to a Table object
 476:..\..\..\lvgl\version_6.1.2\lvgl\src\lv_objx/lv_table.c ****  * @param col_id id of the column [0 .. LV_TABLE_COL_MAX -1]
 477:..\..\..\lvgl\version_6.1.2\lvgl\src\lv_objx/lv_table.c ****  * @return width of the column
 478:..\..\..\lvgl\version_6.1.2\lvgl\src\lv_objx/lv_table.c ****  */
 479:..\..\..\lvgl\version_6.1.2\lvgl\src\lv_objx/lv_table.c **** lv_coord_t lv_table_get_col_width(lv_obj_t * table, uint16_t col_id)
 480:..\..\..\lvgl\version_6.1.2\lvgl\src\lv_objx/lv_table.c **** {
 1665              		.loc 3 480 0
 1666              		.cfi_startproc
 1667              		@ args = 0, pretend = 0, frame = 16
 1668              		@ frame_needed = 1, uses_anonymous_args = 0
 1669 0000 80B5     		push	{r7, lr}
 1670              		.cfi_def_cfa_offset 8
 1671              		.cfi_offset 7, -8
 1672              		.cfi_offset 14, -4
 1673 0002 84B0     		sub	sp, sp, #16
 1674              		.cfi_def_cfa_offset 24
 1675 0004 00AF     		add	r7, sp, #0
 1676              		.cfi_def_cfa_register 7
 1677 0006 7860     		str	r0, [r7, #4]
 1678 0008 0B46     		mov	r3, r1
 1679 000a 7B80     		strh	r3, [r7, #2]	@ movhi
 481:..\..\..\lvgl\version_6.1.2\lvgl\src\lv_objx/lv_table.c ****     LV_ASSERT_OBJ(table, LV_OBJX_NAME);
 482:..\..\..\lvgl\version_6.1.2\lvgl\src\lv_objx/lv_table.c **** 
 483:..\..\..\lvgl\version_6.1.2\lvgl\src\lv_objx/lv_table.c ****     if(col_id >= LV_TABLE_COL_MAX) {
 1680              		.loc 3 483 0
 1681 000c 7B88     		ldrh	r3, [r7, #2]
 1682 000e 0B2B     		cmp	r3, #11
 1683 0010 01D9     		bls	.L88
 484:..\..\..\lvgl\version_6.1.2\lvgl\src\lv_objx/lv_table.c ****         LV_LOG_WARN("lv_table_set_col_width: too big 'col_id'. Must be < LV_TABLE_COL_MAX.");
ARM GAS  C:\Users\tmj32\AppData\Local\Temp\ccIZw7Ef.s 			page 43


 485:..\..\..\lvgl\version_6.1.2\lvgl\src\lv_objx/lv_table.c ****         return 0;
 1684              		.loc 3 485 0
 1685 0012 0023     		movs	r3, #0
 1686 0014 08E0     		b	.L89
 1687              	.L88:
 486:..\..\..\lvgl\version_6.1.2\lvgl\src\lv_objx/lv_table.c ****     }
 487:..\..\..\lvgl\version_6.1.2\lvgl\src\lv_objx/lv_table.c **** 
 488:..\..\..\lvgl\version_6.1.2\lvgl\src\lv_objx/lv_table.c ****     lv_table_ext_t * ext = lv_obj_get_ext_attr(table);
 1688              		.loc 3 488 0
 1689 0016 7868     		ldr	r0, [r7, #4]
 1690 0018 FFF7FEFF 		bl	lv_obj_get_ext_attr
 1691 001c F860     		str	r0, [r7, #12]
 489:..\..\..\lvgl\version_6.1.2\lvgl\src\lv_objx/lv_table.c ****     return ext->col_w[col_id];
 1692              		.loc 3 489 0
 1693 001e 7A88     		ldrh	r2, [r7, #2]
 1694 0020 FB68     		ldr	r3, [r7, #12]
 1695 0022 0C32     		adds	r2, r2, #12
 1696 0024 33F91230 		ldrsh	r3, [r3, r2, lsl #1]
 1697              	.L89:
 490:..\..\..\lvgl\version_6.1.2\lvgl\src\lv_objx/lv_table.c **** }
 1698              		.loc 3 490 0
 1699 0028 1846     		mov	r0, r3
 1700 002a 1037     		adds	r7, r7, #16
 1701              		.cfi_def_cfa_offset 8
 1702 002c BD46     		mov	sp, r7
 1703              		.cfi_def_cfa_register 13
 1704              		@ sp needed
 1705 002e 80BD     		pop	{r7, pc}
 1706              		.cfi_endproc
 1707              	.LFE46:
 1708              		.size	lv_table_get_col_width, .-lv_table_get_col_width
 1709              		.section	.text.lv_table_get_cell_align,"ax",%progbits
 1710              		.align	2
 1711              		.global	lv_table_get_cell_align
 1712              		.thumb
 1713              		.thumb_func
 1714              		.type	lv_table_get_cell_align, %function
 1715              	lv_table_get_cell_align:
 1716              	.LFB47:
 491:..\..\..\lvgl\version_6.1.2\lvgl\src\lv_objx/lv_table.c **** 
 492:..\..\..\lvgl\version_6.1.2\lvgl\src\lv_objx/lv_table.c **** /**
 493:..\..\..\lvgl\version_6.1.2\lvgl\src\lv_objx/lv_table.c ****  * Get the text align of a cell
 494:..\..\..\lvgl\version_6.1.2\lvgl\src\lv_objx/lv_table.c ****  * @param table pointer to a Table object
 495:..\..\..\lvgl\version_6.1.2\lvgl\src\lv_objx/lv_table.c ****  * @param row id of the row [0 .. row_cnt -1]
 496:..\..\..\lvgl\version_6.1.2\lvgl\src\lv_objx/lv_table.c ****  * @param col id of the column [0 .. col_cnt -1]
 497:..\..\..\lvgl\version_6.1.2\lvgl\src\lv_objx/lv_table.c ****  * @return LV_LABEL_ALIGN_LEFT (default in case of error) or LV_LABEL_ALIGN_CENTER or
 498:..\..\..\lvgl\version_6.1.2\lvgl\src\lv_objx/lv_table.c ****  * LV_LABEL_ALIGN_RIGHT
 499:..\..\..\lvgl\version_6.1.2\lvgl\src\lv_objx/lv_table.c ****  */
 500:..\..\..\lvgl\version_6.1.2\lvgl\src\lv_objx/lv_table.c **** lv_label_align_t lv_table_get_cell_align(lv_obj_t * table, uint16_t row, uint16_t col)
 501:..\..\..\lvgl\version_6.1.2\lvgl\src\lv_objx/lv_table.c **** {
 1717              		.loc 3 501 0
 1718              		.cfi_startproc
 1719              		@ args = 0, pretend = 0, frame = 24
 1720              		@ frame_needed = 1, uses_anonymous_args = 0
 1721 0000 80B5     		push	{r7, lr}
 1722              		.cfi_def_cfa_offset 8
 1723              		.cfi_offset 7, -8
ARM GAS  C:\Users\tmj32\AppData\Local\Temp\ccIZw7Ef.s 			page 44


 1724              		.cfi_offset 14, -4
 1725 0002 86B0     		sub	sp, sp, #24
 1726              		.cfi_def_cfa_offset 32
 1727 0004 00AF     		add	r7, sp, #0
 1728              		.cfi_def_cfa_register 7
 1729 0006 7860     		str	r0, [r7, #4]
 1730 0008 0B46     		mov	r3, r1
 1731 000a 7B80     		strh	r3, [r7, #2]	@ movhi
 1732 000c 1346     		mov	r3, r2	@ movhi
 1733 000e 3B80     		strh	r3, [r7]	@ movhi
 502:..\..\..\lvgl\version_6.1.2\lvgl\src\lv_objx/lv_table.c ****     LV_ASSERT_OBJ(table, LV_OBJX_NAME);
 503:..\..\..\lvgl\version_6.1.2\lvgl\src\lv_objx/lv_table.c **** 
 504:..\..\..\lvgl\version_6.1.2\lvgl\src\lv_objx/lv_table.c ****     lv_table_ext_t * ext = lv_obj_get_ext_attr(table);
 1734              		.loc 3 504 0
 1735 0010 7868     		ldr	r0, [r7, #4]
 1736 0012 FFF7FEFF 		bl	lv_obj_get_ext_attr
 1737 0016 7861     		str	r0, [r7, #20]
 505:..\..\..\lvgl\version_6.1.2\lvgl\src\lv_objx/lv_table.c ****     if(row >= ext->row_cnt || col >= ext->col_cnt) {
 1738              		.loc 3 505 0
 1739 0018 7B69     		ldr	r3, [r7, #20]
 1740 001a 5B88     		ldrh	r3, [r3, #2]
 1741 001c 7A88     		ldrh	r2, [r7, #2]
 1742 001e 9A42     		cmp	r2, r3
 1743 0020 04D2     		bcs	.L91
 1744              		.loc 3 505 0 is_stmt 0 discriminator 1
 1745 0022 7B69     		ldr	r3, [r7, #20]
 1746 0024 1B88     		ldrh	r3, [r3]
 1747 0026 3A88     		ldrh	r2, [r7]
 1748 0028 9A42     		cmp	r2, r3
 1749 002a 01D3     		bcc	.L92
 1750              	.L91:
 506:..\..\..\lvgl\version_6.1.2\lvgl\src\lv_objx/lv_table.c ****         LV_LOG_WARN("lv_table_set_cell_align: invalid row or column");
 507:..\..\..\lvgl\version_6.1.2\lvgl\src\lv_objx/lv_table.c ****         return LV_LABEL_ALIGN_LEFT; /*Just return with something*/
 1751              		.loc 3 507 0 is_stmt 1
 1752 002c 0023     		movs	r3, #0
 1753 002e 1DE0     		b	.L93
 1754              	.L92:
 508:..\..\..\lvgl\version_6.1.2\lvgl\src\lv_objx/lv_table.c ****     }
 509:..\..\..\lvgl\version_6.1.2\lvgl\src\lv_objx/lv_table.c ****     uint32_t cell = row * ext->col_cnt + col;
 1755              		.loc 3 509 0
 1756 0030 7B88     		ldrh	r3, [r7, #2]
 1757 0032 7A69     		ldr	r2, [r7, #20]
 1758 0034 1288     		ldrh	r2, [r2]
 1759 0036 02FB03F2 		mul	r2, r2, r3
 1760 003a 3B88     		ldrh	r3, [r7]
 1761 003c 1344     		add	r3, r3, r2
 1762 003e 3B61     		str	r3, [r7, #16]
 510:..\..\..\lvgl\version_6.1.2\lvgl\src\lv_objx/lv_table.c **** 
 511:..\..\..\lvgl\version_6.1.2\lvgl\src\lv_objx/lv_table.c ****     if(ext->cell_data[cell] == NULL)
 1763              		.loc 3 511 0
 1764 0040 7B69     		ldr	r3, [r7, #20]
 1765 0042 5A68     		ldr	r2, [r3, #4]
 1766 0044 3B69     		ldr	r3, [r7, #16]
 1767 0046 9B00     		lsls	r3, r3, #2
 1768 0048 1344     		add	r3, r3, r2
 1769 004a 1B68     		ldr	r3, [r3]
 1770 004c 002B     		cmp	r3, #0
ARM GAS  C:\Users\tmj32\AppData\Local\Temp\ccIZw7Ef.s 			page 45


 1771 004e 01D1     		bne	.L94
 512:..\..\..\lvgl\version_6.1.2\lvgl\src\lv_objx/lv_table.c ****         return LV_LABEL_ALIGN_LEFT; /*Just return with something*/
 1772              		.loc 3 512 0
 1773 0050 0023     		movs	r3, #0
 1774 0052 0BE0     		b	.L93
 1775              	.L94:
 1776              	.LBB6:
 513:..\..\..\lvgl\version_6.1.2\lvgl\src\lv_objx/lv_table.c ****     else {
 514:..\..\..\lvgl\version_6.1.2\lvgl\src\lv_objx/lv_table.c ****         lv_table_cell_format_t format;
 515:..\..\..\lvgl\version_6.1.2\lvgl\src\lv_objx/lv_table.c ****         format.format_byte = ext->cell_data[cell][0];
 1777              		.loc 3 515 0
 1778 0054 7B69     		ldr	r3, [r7, #20]
 1779 0056 5A68     		ldr	r2, [r3, #4]
 1780 0058 3B69     		ldr	r3, [r7, #16]
 1781 005a 9B00     		lsls	r3, r3, #2
 1782 005c 1344     		add	r3, r3, r2
 1783 005e 1B68     		ldr	r3, [r3]
 1784 0060 1B78     		ldrb	r3, [r3]	@ zero_extendqisi2
 1785 0062 3B73     		strb	r3, [r7, #12]
 516:..\..\..\lvgl\version_6.1.2\lvgl\src\lv_objx/lv_table.c ****         return format.s.align;
 1786              		.loc 3 516 0
 1787 0064 3B7B     		ldrb	r3, [r7, #12]
 1788 0066 C3F30103 		ubfx	r3, r3, #0, #2
 1789 006a DBB2     		uxtb	r3, r3
 1790              	.L93:
 1791              	.LBE6:
 517:..\..\..\lvgl\version_6.1.2\lvgl\src\lv_objx/lv_table.c ****     }
 518:..\..\..\lvgl\version_6.1.2\lvgl\src\lv_objx/lv_table.c **** }
 1792              		.loc 3 518 0 discriminator 1
 1793 006c 1846     		mov	r0, r3
 1794 006e 1837     		adds	r7, r7, #24
 1795              		.cfi_def_cfa_offset 8
 1796 0070 BD46     		mov	sp, r7
 1797              		.cfi_def_cfa_register 13
 1798              		@ sp needed
 1799 0072 80BD     		pop	{r7, pc}
 1800              		.cfi_endproc
 1801              	.LFE47:
 1802              		.size	lv_table_get_cell_align, .-lv_table_get_cell_align
 1803              		.section	.text.lv_table_get_cell_type,"ax",%progbits
 1804              		.align	2
 1805              		.global	lv_table_get_cell_type
 1806              		.thumb
 1807              		.thumb_func
 1808              		.type	lv_table_get_cell_type, %function
 1809              	lv_table_get_cell_type:
 1810              	.LFB48:
 519:..\..\..\lvgl\version_6.1.2\lvgl\src\lv_objx/lv_table.c **** 
 520:..\..\..\lvgl\version_6.1.2\lvgl\src\lv_objx/lv_table.c **** /**
 521:..\..\..\lvgl\version_6.1.2\lvgl\src\lv_objx/lv_table.c ****  * Get the type of a cell
 522:..\..\..\lvgl\version_6.1.2\lvgl\src\lv_objx/lv_table.c ****  * @param table pointer to a Table object
 523:..\..\..\lvgl\version_6.1.2\lvgl\src\lv_objx/lv_table.c ****  * @param row id of the row [0 .. row_cnt -1]
 524:..\..\..\lvgl\version_6.1.2\lvgl\src\lv_objx/lv_table.c ****  * @param col id of the column [0 .. col_cnt -1]
 525:..\..\..\lvgl\version_6.1.2\lvgl\src\lv_objx/lv_table.c ****  * @return 1,2,3 or 4
 526:..\..\..\lvgl\version_6.1.2\lvgl\src\lv_objx/lv_table.c ****  */
 527:..\..\..\lvgl\version_6.1.2\lvgl\src\lv_objx/lv_table.c **** lv_label_align_t lv_table_get_cell_type(lv_obj_t * table, uint16_t row, uint16_t col)
 528:..\..\..\lvgl\version_6.1.2\lvgl\src\lv_objx/lv_table.c **** {
ARM GAS  C:\Users\tmj32\AppData\Local\Temp\ccIZw7Ef.s 			page 46


 1811              		.loc 3 528 0
 1812              		.cfi_startproc
 1813              		@ args = 0, pretend = 0, frame = 24
 1814              		@ frame_needed = 1, uses_anonymous_args = 0
 1815 0000 80B5     		push	{r7, lr}
 1816              		.cfi_def_cfa_offset 8
 1817              		.cfi_offset 7, -8
 1818              		.cfi_offset 14, -4
 1819 0002 86B0     		sub	sp, sp, #24
 1820              		.cfi_def_cfa_offset 32
 1821 0004 00AF     		add	r7, sp, #0
 1822              		.cfi_def_cfa_register 7
 1823 0006 7860     		str	r0, [r7, #4]
 1824 0008 0B46     		mov	r3, r1
 1825 000a 7B80     		strh	r3, [r7, #2]	@ movhi
 1826 000c 1346     		mov	r3, r2	@ movhi
 1827 000e 3B80     		strh	r3, [r7]	@ movhi
 529:..\..\..\lvgl\version_6.1.2\lvgl\src\lv_objx/lv_table.c ****     LV_ASSERT_OBJ(table, LV_OBJX_NAME);
 530:..\..\..\lvgl\version_6.1.2\lvgl\src\lv_objx/lv_table.c **** 
 531:..\..\..\lvgl\version_6.1.2\lvgl\src\lv_objx/lv_table.c ****     lv_table_ext_t * ext = lv_obj_get_ext_attr(table);
 1828              		.loc 3 531 0
 1829 0010 7868     		ldr	r0, [r7, #4]
 1830 0012 FFF7FEFF 		bl	lv_obj_get_ext_attr
 1831 0016 7861     		str	r0, [r7, #20]
 532:..\..\..\lvgl\version_6.1.2\lvgl\src\lv_objx/lv_table.c ****     if(row >= ext->row_cnt || col >= ext->col_cnt) {
 1832              		.loc 3 532 0
 1833 0018 7B69     		ldr	r3, [r7, #20]
 1834 001a 5B88     		ldrh	r3, [r3, #2]
 1835 001c 7A88     		ldrh	r2, [r7, #2]
 1836 001e 9A42     		cmp	r2, r3
 1837 0020 04D2     		bcs	.L96
 1838              		.loc 3 532 0 is_stmt 0 discriminator 1
 1839 0022 7B69     		ldr	r3, [r7, #20]
 1840 0024 1B88     		ldrh	r3, [r3]
 1841 0026 3A88     		ldrh	r2, [r7]
 1842 0028 9A42     		cmp	r2, r3
 1843 002a 01D3     		bcc	.L97
 1844              	.L96:
 533:..\..\..\lvgl\version_6.1.2\lvgl\src\lv_objx/lv_table.c ****         LV_LOG_WARN("lv_table_get_cell_type: invalid row or column");
 534:..\..\..\lvgl\version_6.1.2\lvgl\src\lv_objx/lv_table.c ****         return 1; /*Just return with something*/
 1845              		.loc 3 534 0 is_stmt 1
 1846 002c 0123     		movs	r3, #1
 1847 002e 1FE0     		b	.L98
 1848              	.L97:
 535:..\..\..\lvgl\version_6.1.2\lvgl\src\lv_objx/lv_table.c ****     }
 536:..\..\..\lvgl\version_6.1.2\lvgl\src\lv_objx/lv_table.c ****     uint32_t cell = row * ext->col_cnt + col;
 1849              		.loc 3 536 0
 1850 0030 7B88     		ldrh	r3, [r7, #2]
 1851 0032 7A69     		ldr	r2, [r7, #20]
 1852 0034 1288     		ldrh	r2, [r2]
 1853 0036 02FB03F2 		mul	r2, r2, r3
 1854 003a 3B88     		ldrh	r3, [r7]
 1855 003c 1344     		add	r3, r3, r2
 1856 003e 3B61     		str	r3, [r7, #16]
 537:..\..\..\lvgl\version_6.1.2\lvgl\src\lv_objx/lv_table.c **** 
 538:..\..\..\lvgl\version_6.1.2\lvgl\src\lv_objx/lv_table.c ****     if(ext->cell_data[cell] == NULL)
 1857              		.loc 3 538 0
ARM GAS  C:\Users\tmj32\AppData\Local\Temp\ccIZw7Ef.s 			page 47


 1858 0040 7B69     		ldr	r3, [r7, #20]
 1859 0042 5A68     		ldr	r2, [r3, #4]
 1860 0044 3B69     		ldr	r3, [r7, #16]
 1861 0046 9B00     		lsls	r3, r3, #2
 1862 0048 1344     		add	r3, r3, r2
 1863 004a 1B68     		ldr	r3, [r3]
 1864 004c 002B     		cmp	r3, #0
 1865 004e 01D1     		bne	.L99
 539:..\..\..\lvgl\version_6.1.2\lvgl\src\lv_objx/lv_table.c ****         return 1; /*Just return with something*/
 1866              		.loc 3 539 0
 1867 0050 0123     		movs	r3, #1
 1868 0052 0DE0     		b	.L98
 1869              	.L99:
 1870              	.LBB7:
 540:..\..\..\lvgl\version_6.1.2\lvgl\src\lv_objx/lv_table.c ****     else {
 541:..\..\..\lvgl\version_6.1.2\lvgl\src\lv_objx/lv_table.c ****         lv_table_cell_format_t format;
 542:..\..\..\lvgl\version_6.1.2\lvgl\src\lv_objx/lv_table.c ****         format.format_byte = ext->cell_data[cell][0];
 1871              		.loc 3 542 0
 1872 0054 7B69     		ldr	r3, [r7, #20]
 1873 0056 5A68     		ldr	r2, [r3, #4]
 1874 0058 3B69     		ldr	r3, [r7, #16]
 1875 005a 9B00     		lsls	r3, r3, #2
 1876 005c 1344     		add	r3, r3, r2
 1877 005e 1B68     		ldr	r3, [r3]
 1878 0060 1B78     		ldrb	r3, [r3]	@ zero_extendqisi2
 1879 0062 3B73     		strb	r3, [r7, #12]
 543:..\..\..\lvgl\version_6.1.2\lvgl\src\lv_objx/lv_table.c ****         return format.s.type + 1; /*0,1,2,3 is stored but user sees 1,2,3,4*/
 1880              		.loc 3 543 0
 1881 0064 3B7B     		ldrb	r3, [r7, #12]
 1882 0066 C3F3C103 		ubfx	r3, r3, #3, #2
 1883 006a DBB2     		uxtb	r3, r3
 1884 006c 0133     		adds	r3, r3, #1
 1885 006e DBB2     		uxtb	r3, r3
 1886              	.L98:
 1887              	.LBE7:
 544:..\..\..\lvgl\version_6.1.2\lvgl\src\lv_objx/lv_table.c ****     }
 545:..\..\..\lvgl\version_6.1.2\lvgl\src\lv_objx/lv_table.c **** }
 1888              		.loc 3 545 0 discriminator 1
 1889 0070 1846     		mov	r0, r3
 1890 0072 1837     		adds	r7, r7, #24
 1891              		.cfi_def_cfa_offset 8
 1892 0074 BD46     		mov	sp, r7
 1893              		.cfi_def_cfa_register 13
 1894              		@ sp needed
 1895 0076 80BD     		pop	{r7, pc}
 1896              		.cfi_endproc
 1897              	.LFE48:
 1898              		.size	lv_table_get_cell_type, .-lv_table_get_cell_type
 1899              		.section	.text.lv_table_get_cell_crop,"ax",%progbits
 1900              		.align	2
 1901              		.global	lv_table_get_cell_crop
 1902              		.thumb
 1903              		.thumb_func
 1904              		.type	lv_table_get_cell_crop, %function
 1905              	lv_table_get_cell_crop:
 1906              	.LFB49:
 546:..\..\..\lvgl\version_6.1.2\lvgl\src\lv_objx/lv_table.c **** 
ARM GAS  C:\Users\tmj32\AppData\Local\Temp\ccIZw7Ef.s 			page 48


 547:..\..\..\lvgl\version_6.1.2\lvgl\src\lv_objx/lv_table.c **** /**
 548:..\..\..\lvgl\version_6.1.2\lvgl\src\lv_objx/lv_table.c ****  * Get the crop property of a cell
 549:..\..\..\lvgl\version_6.1.2\lvgl\src\lv_objx/lv_table.c ****  * @param table pointer to a Table object
 550:..\..\..\lvgl\version_6.1.2\lvgl\src\lv_objx/lv_table.c ****  * @param row id of the row [0 .. row_cnt -1]
 551:..\..\..\lvgl\version_6.1.2\lvgl\src\lv_objx/lv_table.c ****  * @param col id of the column [0 .. col_cnt -1]
 552:..\..\..\lvgl\version_6.1.2\lvgl\src\lv_objx/lv_table.c ****  * @return true: text crop enabled; false: disabled
 553:..\..\..\lvgl\version_6.1.2\lvgl\src\lv_objx/lv_table.c ****  */
 554:..\..\..\lvgl\version_6.1.2\lvgl\src\lv_objx/lv_table.c **** lv_label_align_t lv_table_get_cell_crop(lv_obj_t * table, uint16_t row, uint16_t col)
 555:..\..\..\lvgl\version_6.1.2\lvgl\src\lv_objx/lv_table.c **** {
 1907              		.loc 3 555 0
 1908              		.cfi_startproc
 1909              		@ args = 0, pretend = 0, frame = 24
 1910              		@ frame_needed = 1, uses_anonymous_args = 0
 1911 0000 80B5     		push	{r7, lr}
 1912              		.cfi_def_cfa_offset 8
 1913              		.cfi_offset 7, -8
 1914              		.cfi_offset 14, -4
 1915 0002 86B0     		sub	sp, sp, #24
 1916              		.cfi_def_cfa_offset 32
 1917 0004 00AF     		add	r7, sp, #0
 1918              		.cfi_def_cfa_register 7
 1919 0006 7860     		str	r0, [r7, #4]
 1920 0008 0B46     		mov	r3, r1
 1921 000a 7B80     		strh	r3, [r7, #2]	@ movhi
 1922 000c 1346     		mov	r3, r2	@ movhi
 1923 000e 3B80     		strh	r3, [r7]	@ movhi
 556:..\..\..\lvgl\version_6.1.2\lvgl\src\lv_objx/lv_table.c ****     LV_ASSERT_OBJ(table, LV_OBJX_NAME);
 557:..\..\..\lvgl\version_6.1.2\lvgl\src\lv_objx/lv_table.c **** 
 558:..\..\..\lvgl\version_6.1.2\lvgl\src\lv_objx/lv_table.c ****     lv_table_ext_t * ext = lv_obj_get_ext_attr(table);
 1924              		.loc 3 558 0
 1925 0010 7868     		ldr	r0, [r7, #4]
 1926 0012 FFF7FEFF 		bl	lv_obj_get_ext_attr
 1927 0016 7861     		str	r0, [r7, #20]
 559:..\..\..\lvgl\version_6.1.2\lvgl\src\lv_objx/lv_table.c ****     if(row >= ext->row_cnt || col >= ext->col_cnt) {
 1928              		.loc 3 559 0
 1929 0018 7B69     		ldr	r3, [r7, #20]
 1930 001a 5B88     		ldrh	r3, [r3, #2]
 1931 001c 7A88     		ldrh	r2, [r7, #2]
 1932 001e 9A42     		cmp	r2, r3
 1933 0020 04D2     		bcs	.L101
 1934              		.loc 3 559 0 is_stmt 0 discriminator 1
 1935 0022 7B69     		ldr	r3, [r7, #20]
 1936 0024 1B88     		ldrh	r3, [r3]
 1937 0026 3A88     		ldrh	r2, [r7]
 1938 0028 9A42     		cmp	r2, r3
 1939 002a 01D3     		bcc	.L102
 1940              	.L101:
 560:..\..\..\lvgl\version_6.1.2\lvgl\src\lv_objx/lv_table.c ****         LV_LOG_WARN("lv_table_get_cell_crop: invalid row or column");
 561:..\..\..\lvgl\version_6.1.2\lvgl\src\lv_objx/lv_table.c ****         return false; /*Just return with something*/
 1941              		.loc 3 561 0 is_stmt 1
 1942 002c 0023     		movs	r3, #0
 1943 002e 1DE0     		b	.L103
 1944              	.L102:
 562:..\..\..\lvgl\version_6.1.2\lvgl\src\lv_objx/lv_table.c ****     }
 563:..\..\..\lvgl\version_6.1.2\lvgl\src\lv_objx/lv_table.c ****     uint32_t cell = row * ext->col_cnt + col;
 1945              		.loc 3 563 0
 1946 0030 7B88     		ldrh	r3, [r7, #2]
ARM GAS  C:\Users\tmj32\AppData\Local\Temp\ccIZw7Ef.s 			page 49


 1947 0032 7A69     		ldr	r2, [r7, #20]
 1948 0034 1288     		ldrh	r2, [r2]
 1949 0036 02FB03F2 		mul	r2, r2, r3
 1950 003a 3B88     		ldrh	r3, [r7]
 1951 003c 1344     		add	r3, r3, r2
 1952 003e 3B61     		str	r3, [r7, #16]
 564:..\..\..\lvgl\version_6.1.2\lvgl\src\lv_objx/lv_table.c **** 
 565:..\..\..\lvgl\version_6.1.2\lvgl\src\lv_objx/lv_table.c ****     if(ext->cell_data[cell] == NULL)
 1953              		.loc 3 565 0
 1954 0040 7B69     		ldr	r3, [r7, #20]
 1955 0042 5A68     		ldr	r2, [r3, #4]
 1956 0044 3B69     		ldr	r3, [r7, #16]
 1957 0046 9B00     		lsls	r3, r3, #2
 1958 0048 1344     		add	r3, r3, r2
 1959 004a 1B68     		ldr	r3, [r3]
 1960 004c 002B     		cmp	r3, #0
 1961 004e 01D1     		bne	.L104
 566:..\..\..\lvgl\version_6.1.2\lvgl\src\lv_objx/lv_table.c ****         return false; /*Just return with something*/
 1962              		.loc 3 566 0
 1963 0050 0023     		movs	r3, #0
 1964 0052 0BE0     		b	.L103
 1965              	.L104:
 1966              	.LBB8:
 567:..\..\..\lvgl\version_6.1.2\lvgl\src\lv_objx/lv_table.c ****     else {
 568:..\..\..\lvgl\version_6.1.2\lvgl\src\lv_objx/lv_table.c ****         lv_table_cell_format_t format;
 569:..\..\..\lvgl\version_6.1.2\lvgl\src\lv_objx/lv_table.c ****         format.format_byte = ext->cell_data[cell][0];
 1967              		.loc 3 569 0
 1968 0054 7B69     		ldr	r3, [r7, #20]
 1969 0056 5A68     		ldr	r2, [r3, #4]
 1970 0058 3B69     		ldr	r3, [r7, #16]
 1971 005a 9B00     		lsls	r3, r3, #2
 1972 005c 1344     		add	r3, r3, r2
 1973 005e 1B68     		ldr	r3, [r3]
 1974 0060 1B78     		ldrb	r3, [r3]	@ zero_extendqisi2
 1975 0062 3B73     		strb	r3, [r7, #12]
 570:..\..\..\lvgl\version_6.1.2\lvgl\src\lv_objx/lv_table.c ****         return format.s.crop;
 1976              		.loc 3 570 0
 1977 0064 3B7B     		ldrb	r3, [r7, #12]
 1978 0066 C3F34013 		ubfx	r3, r3, #5, #1
 1979 006a DBB2     		uxtb	r3, r3
 1980              	.L103:
 1981              	.LBE8:
 571:..\..\..\lvgl\version_6.1.2\lvgl\src\lv_objx/lv_table.c ****     }
 572:..\..\..\lvgl\version_6.1.2\lvgl\src\lv_objx/lv_table.c **** }
 1982              		.loc 3 572 0 discriminator 1
 1983 006c 1846     		mov	r0, r3
 1984 006e 1837     		adds	r7, r7, #24
 1985              		.cfi_def_cfa_offset 8
 1986 0070 BD46     		mov	sp, r7
 1987              		.cfi_def_cfa_register 13
 1988              		@ sp needed
 1989 0072 80BD     		pop	{r7, pc}
 1990              		.cfi_endproc
 1991              	.LFE49:
 1992              		.size	lv_table_get_cell_crop, .-lv_table_get_cell_crop
 1993              		.section	.text.lv_table_get_cell_merge_right,"ax",%progbits
 1994              		.align	2
ARM GAS  C:\Users\tmj32\AppData\Local\Temp\ccIZw7Ef.s 			page 50


 1995              		.global	lv_table_get_cell_merge_right
 1996              		.thumb
 1997              		.thumb_func
 1998              		.type	lv_table_get_cell_merge_right, %function
 1999              	lv_table_get_cell_merge_right:
 2000              	.LFB50:
 573:..\..\..\lvgl\version_6.1.2\lvgl\src\lv_objx/lv_table.c **** 
 574:..\..\..\lvgl\version_6.1.2\lvgl\src\lv_objx/lv_table.c **** /**
 575:..\..\..\lvgl\version_6.1.2\lvgl\src\lv_objx/lv_table.c ****  * Get the cell merge attribute.
 576:..\..\..\lvgl\version_6.1.2\lvgl\src\lv_objx/lv_table.c ****  * @param table table pointer to a Table object
 577:..\..\..\lvgl\version_6.1.2\lvgl\src\lv_objx/lv_table.c ****  * @param row id of the row [0 .. row_cnt -1]
 578:..\..\..\lvgl\version_6.1.2\lvgl\src\lv_objx/lv_table.c ****  * @param col id of the column [0 .. col_cnt -1]
 579:..\..\..\lvgl\version_6.1.2\lvgl\src\lv_objx/lv_table.c ****  * @return true: merge right; false: don't merge right
 580:..\..\..\lvgl\version_6.1.2\lvgl\src\lv_objx/lv_table.c ****  */
 581:..\..\..\lvgl\version_6.1.2\lvgl\src\lv_objx/lv_table.c **** bool lv_table_get_cell_merge_right(lv_obj_t * table, uint16_t row, uint16_t col)
 582:..\..\..\lvgl\version_6.1.2\lvgl\src\lv_objx/lv_table.c **** {
 2001              		.loc 3 582 0
 2002              		.cfi_startproc
 2003              		@ args = 0, pretend = 0, frame = 24
 2004              		@ frame_needed = 1, uses_anonymous_args = 0
 2005 0000 80B5     		push	{r7, lr}
 2006              		.cfi_def_cfa_offset 8
 2007              		.cfi_offset 7, -8
 2008              		.cfi_offset 14, -4
 2009 0002 86B0     		sub	sp, sp, #24
 2010              		.cfi_def_cfa_offset 32
 2011 0004 00AF     		add	r7, sp, #0
 2012              		.cfi_def_cfa_register 7
 2013 0006 7860     		str	r0, [r7, #4]
 2014 0008 0B46     		mov	r3, r1
 2015 000a 7B80     		strh	r3, [r7, #2]	@ movhi
 2016 000c 1346     		mov	r3, r2	@ movhi
 2017 000e 3B80     		strh	r3, [r7]	@ movhi
 583:..\..\..\lvgl\version_6.1.2\lvgl\src\lv_objx/lv_table.c ****     LV_ASSERT_OBJ(table, LV_OBJX_NAME);
 584:..\..\..\lvgl\version_6.1.2\lvgl\src\lv_objx/lv_table.c **** 
 585:..\..\..\lvgl\version_6.1.2\lvgl\src\lv_objx/lv_table.c ****     lv_table_ext_t * ext = lv_obj_get_ext_attr(table);
 2018              		.loc 3 585 0
 2019 0010 7868     		ldr	r0, [r7, #4]
 2020 0012 FFF7FEFF 		bl	lv_obj_get_ext_attr
 2021 0016 7861     		str	r0, [r7, #20]
 586:..\..\..\lvgl\version_6.1.2\lvgl\src\lv_objx/lv_table.c ****     if(row >= ext->row_cnt || col >= ext->col_cnt) {
 2022              		.loc 3 586 0
 2023 0018 7B69     		ldr	r3, [r7, #20]
 2024 001a 5B88     		ldrh	r3, [r3, #2]
 2025 001c 7A88     		ldrh	r2, [r7, #2]
 2026 001e 9A42     		cmp	r2, r3
 2027 0020 04D2     		bcs	.L106
 2028              		.loc 3 586 0 is_stmt 0 discriminator 1
 2029 0022 7B69     		ldr	r3, [r7, #20]
 2030 0024 1B88     		ldrh	r3, [r3]
 2031 0026 3A88     		ldrh	r2, [r7]
 2032 0028 9A42     		cmp	r2, r3
 2033 002a 01D3     		bcc	.L107
 2034              	.L106:
 587:..\..\..\lvgl\version_6.1.2\lvgl\src\lv_objx/lv_table.c ****         LV_LOG_WARN("lv_table_get_cell_merge_right: invalid row or column");
 588:..\..\..\lvgl\version_6.1.2\lvgl\src\lv_objx/lv_table.c ****         return false;
 2035              		.loc 3 588 0 is_stmt 1
ARM GAS  C:\Users\tmj32\AppData\Local\Temp\ccIZw7Ef.s 			page 51


 2036 002c 0023     		movs	r3, #0
 2037 002e 22E0     		b	.L108
 2038              	.L107:
 589:..\..\..\lvgl\version_6.1.2\lvgl\src\lv_objx/lv_table.c ****     }
 590:..\..\..\lvgl\version_6.1.2\lvgl\src\lv_objx/lv_table.c **** 
 591:..\..\..\lvgl\version_6.1.2\lvgl\src\lv_objx/lv_table.c ****     uint32_t cell = row * ext->col_cnt + col;
 2039              		.loc 3 591 0
 2040 0030 7B88     		ldrh	r3, [r7, #2]
 2041 0032 7A69     		ldr	r2, [r7, #20]
 2042 0034 1288     		ldrh	r2, [r2]
 2043 0036 02FB03F2 		mul	r2, r2, r3
 2044 003a 3B88     		ldrh	r3, [r7]
 2045 003c 1344     		add	r3, r3, r2
 2046 003e 3B61     		str	r3, [r7, #16]
 592:..\..\..\lvgl\version_6.1.2\lvgl\src\lv_objx/lv_table.c **** 
 593:..\..\..\lvgl\version_6.1.2\lvgl\src\lv_objx/lv_table.c ****     if(ext->cell_data[cell] == NULL)
 2047              		.loc 3 593 0
 2048 0040 7B69     		ldr	r3, [r7, #20]
 2049 0042 5A68     		ldr	r2, [r3, #4]
 2050 0044 3B69     		ldr	r3, [r7, #16]
 2051 0046 9B00     		lsls	r3, r3, #2
 2052 0048 1344     		add	r3, r3, r2
 2053 004a 1B68     		ldr	r3, [r3]
 2054 004c 002B     		cmp	r3, #0
 2055 004e 01D1     		bne	.L109
 594:..\..\..\lvgl\version_6.1.2\lvgl\src\lv_objx/lv_table.c ****         return false;
 2056              		.loc 3 594 0
 2057 0050 0023     		movs	r3, #0
 2058 0052 10E0     		b	.L108
 2059              	.L109:
 2060              	.LBB9:
 595:..\..\..\lvgl\version_6.1.2\lvgl\src\lv_objx/lv_table.c ****     else {
 596:..\..\..\lvgl\version_6.1.2\lvgl\src\lv_objx/lv_table.c ****         lv_table_cell_format_t format;
 597:..\..\..\lvgl\version_6.1.2\lvgl\src\lv_objx/lv_table.c ****         format.format_byte = ext->cell_data[cell][0];
 2061              		.loc 3 597 0
 2062 0054 7B69     		ldr	r3, [r7, #20]
 2063 0056 5A68     		ldr	r2, [r3, #4]
 2064 0058 3B69     		ldr	r3, [r7, #16]
 2065 005a 9B00     		lsls	r3, r3, #2
 2066 005c 1344     		add	r3, r3, r2
 2067 005e 1B68     		ldr	r3, [r3]
 2068 0060 1B78     		ldrb	r3, [r3]	@ zero_extendqisi2
 2069 0062 3B73     		strb	r3, [r7, #12]
 598:..\..\..\lvgl\version_6.1.2\lvgl\src\lv_objx/lv_table.c ****         return format.s.right_merge ? true : false;
 2070              		.loc 3 598 0
 2071 0064 3B7B     		ldrb	r3, [r7, #12]	@ zero_extendqisi2
 2072 0066 03F00403 		and	r3, r3, #4
 2073 006a DBB2     		uxtb	r3, r3
 2074 006c 002B     		cmp	r3, #0
 2075 006e 14BF     		ite	ne
 2076 0070 0123     		movne	r3, #1
 2077 0072 0023     		moveq	r3, #0
 2078 0074 DBB2     		uxtb	r3, r3
 2079              	.L108:
 2080              	.LBE9:
 599:..\..\..\lvgl\version_6.1.2\lvgl\src\lv_objx/lv_table.c ****     }
 600:..\..\..\lvgl\version_6.1.2\lvgl\src\lv_objx/lv_table.c **** }
ARM GAS  C:\Users\tmj32\AppData\Local\Temp\ccIZw7Ef.s 			page 52


 2081              		.loc 3 600 0 discriminator 1
 2082 0076 1846     		mov	r0, r3
 2083 0078 1837     		adds	r7, r7, #24
 2084              		.cfi_def_cfa_offset 8
 2085 007a BD46     		mov	sp, r7
 2086              		.cfi_def_cfa_register 13
 2087              		@ sp needed
 2088 007c 80BD     		pop	{r7, pc}
 2089              		.cfi_endproc
 2090              	.LFE50:
 2091              		.size	lv_table_get_cell_merge_right, .-lv_table_get_cell_merge_right
 2092 007e 00BF     		.section	.text.lv_table_get_style,"ax",%progbits
 2093              		.align	2
 2094              		.global	lv_table_get_style
 2095              		.thumb
 2096              		.thumb_func
 2097              		.type	lv_table_get_style, %function
 2098              	lv_table_get_style:
 2099              	.LFB51:
 601:..\..\..\lvgl\version_6.1.2\lvgl\src\lv_objx/lv_table.c **** 
 602:..\..\..\lvgl\version_6.1.2\lvgl\src\lv_objx/lv_table.c **** /**
 603:..\..\..\lvgl\version_6.1.2\lvgl\src\lv_objx/lv_table.c ****  * Get style of a table.
 604:..\..\..\lvgl\version_6.1.2\lvgl\src\lv_objx/lv_table.c ****  * @param table pointer to table object
 605:..\..\..\lvgl\version_6.1.2\lvgl\src\lv_objx/lv_table.c ****  * @param type which style should be get
 606:..\..\..\lvgl\version_6.1.2\lvgl\src\lv_objx/lv_table.c ****  * @return style pointer to the style
 607:..\..\..\lvgl\version_6.1.2\lvgl\src\lv_objx/lv_table.c ****  */
 608:..\..\..\lvgl\version_6.1.2\lvgl\src\lv_objx/lv_table.c **** const lv_style_t * lv_table_get_style(const lv_obj_t * table, lv_table_style_t type)
 609:..\..\..\lvgl\version_6.1.2\lvgl\src\lv_objx/lv_table.c **** {
 2100              		.loc 3 609 0
 2101              		.cfi_startproc
 2102              		@ args = 0, pretend = 0, frame = 16
 2103              		@ frame_needed = 1, uses_anonymous_args = 0
 2104 0000 80B5     		push	{r7, lr}
 2105              		.cfi_def_cfa_offset 8
 2106              		.cfi_offset 7, -8
 2107              		.cfi_offset 14, -4
 2108 0002 84B0     		sub	sp, sp, #16
 2109              		.cfi_def_cfa_offset 24
 2110 0004 00AF     		add	r7, sp, #0
 2111              		.cfi_def_cfa_register 7
 2112 0006 7860     		str	r0, [r7, #4]
 2113 0008 0B46     		mov	r3, r1
 2114 000a FB70     		strb	r3, [r7, #3]
 610:..\..\..\lvgl\version_6.1.2\lvgl\src\lv_objx/lv_table.c ****     LV_ASSERT_OBJ(table, LV_OBJX_NAME);
 611:..\..\..\lvgl\version_6.1.2\lvgl\src\lv_objx/lv_table.c **** 
 612:..\..\..\lvgl\version_6.1.2\lvgl\src\lv_objx/lv_table.c ****     lv_table_ext_t * ext     = lv_obj_get_ext_attr(table);
 2115              		.loc 3 612 0
 2116 000c 7868     		ldr	r0, [r7, #4]
 2117 000e FFF7FEFF 		bl	lv_obj_get_ext_attr
 2118 0012 B860     		str	r0, [r7, #8]
 613:..\..\..\lvgl\version_6.1.2\lvgl\src\lv_objx/lv_table.c ****     const lv_style_t * style = NULL;
 2119              		.loc 3 613 0
 2120 0014 0023     		movs	r3, #0
 2121 0016 FB60     		str	r3, [r7, #12]
 614:..\..\..\lvgl\version_6.1.2\lvgl\src\lv_objx/lv_table.c **** 
 615:..\..\..\lvgl\version_6.1.2\lvgl\src\lv_objx/lv_table.c ****     switch(type) {
 2122              		.loc 3 615 0
ARM GAS  C:\Users\tmj32\AppData\Local\Temp\ccIZw7Ef.s 			page 53


 2123 0018 FB78     		ldrb	r3, [r7, #3]	@ zero_extendqisi2
 2124 001a 042B     		cmp	r3, #4
 2125 001c 21D8     		bhi	.L111
 2126 001e 01A2     		adr	r2, .L113
 2127 0020 52F823F0 		ldr	pc, [r2, r3, lsl #2]
 2128              		.p2align 2
 2129              	.L113:
 2130 0024 39000000 		.word	.L112+1
 2131 0028 43000000 		.word	.L114+1
 2132 002c 4B000000 		.word	.L115+1
 2133 0030 53000000 		.word	.L116+1
 2134 0034 5B000000 		.word	.L117+1
 2135              		.p2align 1
 2136              	.L112:
 616:..\..\..\lvgl\version_6.1.2\lvgl\src\lv_objx/lv_table.c ****         case LV_TABLE_STYLE_BG: style = lv_obj_get_style(table); break;
 2137              		.loc 3 616 0
 2138 0038 7868     		ldr	r0, [r7, #4]
 2139 003a FFF7FEFF 		bl	lv_obj_get_style
 2140 003e F860     		str	r0, [r7, #12]
 2141 0040 11E0     		b	.L118
 2142              	.L114:
 617:..\..\..\lvgl\version_6.1.2\lvgl\src\lv_objx/lv_table.c ****         case LV_TABLE_STYLE_CELL1: style = ext->cell_style[0]; break;
 2143              		.loc 3 617 0
 2144 0042 BB68     		ldr	r3, [r7, #8]
 2145 0044 9B68     		ldr	r3, [r3, #8]
 2146 0046 FB60     		str	r3, [r7, #12]
 2147 0048 0DE0     		b	.L118
 2148              	.L115:
 618:..\..\..\lvgl\version_6.1.2\lvgl\src\lv_objx/lv_table.c ****         case LV_TABLE_STYLE_CELL2: style = ext->cell_style[1]; break;
 2149              		.loc 3 618 0
 2150 004a BB68     		ldr	r3, [r7, #8]
 2151 004c DB68     		ldr	r3, [r3, #12]
 2152 004e FB60     		str	r3, [r7, #12]
 2153 0050 09E0     		b	.L118
 2154              	.L116:
 619:..\..\..\lvgl\version_6.1.2\lvgl\src\lv_objx/lv_table.c ****         case LV_TABLE_STYLE_CELL3: style = ext->cell_style[2]; break;
 2155              		.loc 3 619 0
 2156 0052 BB68     		ldr	r3, [r7, #8]
 2157 0054 1B69     		ldr	r3, [r3, #16]
 2158 0056 FB60     		str	r3, [r7, #12]
 2159 0058 05E0     		b	.L118
 2160              	.L117:
 620:..\..\..\lvgl\version_6.1.2\lvgl\src\lv_objx/lv_table.c ****         case LV_TABLE_STYLE_CELL4: style = ext->cell_style[3]; break;
 2161              		.loc 3 620 0
 2162 005a BB68     		ldr	r3, [r7, #8]
 2163 005c 5B69     		ldr	r3, [r3, #20]
 2164 005e FB60     		str	r3, [r7, #12]
 2165 0060 01E0     		b	.L118
 2166              	.L111:
 621:..\..\..\lvgl\version_6.1.2\lvgl\src\lv_objx/lv_table.c ****         default: return NULL;
 2167              		.loc 3 621 0
 2168 0062 0023     		movs	r3, #0
 2169 0064 00E0     		b	.L119
 2170              	.L118:
 622:..\..\..\lvgl\version_6.1.2\lvgl\src\lv_objx/lv_table.c ****     }
 623:..\..\..\lvgl\version_6.1.2\lvgl\src\lv_objx/lv_table.c **** 
 624:..\..\..\lvgl\version_6.1.2\lvgl\src\lv_objx/lv_table.c ****     return style;
ARM GAS  C:\Users\tmj32\AppData\Local\Temp\ccIZw7Ef.s 			page 54


 2171              		.loc 3 624 0
 2172 0066 FB68     		ldr	r3, [r7, #12]
 2173              	.L119:
 625:..\..\..\lvgl\version_6.1.2\lvgl\src\lv_objx/lv_table.c **** }
 2174              		.loc 3 625 0
 2175 0068 1846     		mov	r0, r3
 2176 006a 1037     		adds	r7, r7, #16
 2177              		.cfi_def_cfa_offset 8
 2178 006c BD46     		mov	sp, r7
 2179              		.cfi_def_cfa_register 13
 2180              		@ sp needed
 2181 006e 80BD     		pop	{r7, pc}
 2182              		.cfi_endproc
 2183              	.LFE51:
 2184              		.size	lv_table_get_style, .-lv_table_get_style
 2185              		.section	.text.lv_table_design,"ax",%progbits
 2186              		.align	2
 2187              		.thumb
 2188              		.thumb_func
 2189              		.type	lv_table_design, %function
 2190              	lv_table_design:
 2191              	.LFB52:
 626:..\..\..\lvgl\version_6.1.2\lvgl\src\lv_objx/lv_table.c **** 
 627:..\..\..\lvgl\version_6.1.2\lvgl\src\lv_objx/lv_table.c **** /**********************
 628:..\..\..\lvgl\version_6.1.2\lvgl\src\lv_objx/lv_table.c ****  *   STATIC FUNCTIONS
 629:..\..\..\lvgl\version_6.1.2\lvgl\src\lv_objx/lv_table.c ****  **********************/
 630:..\..\..\lvgl\version_6.1.2\lvgl\src\lv_objx/lv_table.c **** 
 631:..\..\..\lvgl\version_6.1.2\lvgl\src\lv_objx/lv_table.c **** /**
 632:..\..\..\lvgl\version_6.1.2\lvgl\src\lv_objx/lv_table.c ****  * Handle the drawing related tasks of the tables
 633:..\..\..\lvgl\version_6.1.2\lvgl\src\lv_objx/lv_table.c ****  * @param table pointer to an object
 634:..\..\..\lvgl\version_6.1.2\lvgl\src\lv_objx/lv_table.c ****  * @param mask the object will be drawn only in this area
 635:..\..\..\lvgl\version_6.1.2\lvgl\src\lv_objx/lv_table.c ****  * @param mode LV_DESIGN_COVER_CHK: only check if the object fully covers the 'mask_p' area
 636:..\..\..\lvgl\version_6.1.2\lvgl\src\lv_objx/lv_table.c ****  *                                  (return 'true' if yes)
 637:..\..\..\lvgl\version_6.1.2\lvgl\src\lv_objx/lv_table.c ****  *             LV_DESIGN_DRAW: draw the object (always return 'true')
 638:..\..\..\lvgl\version_6.1.2\lvgl\src\lv_objx/lv_table.c ****  *             LV_DESIGN_DRAW_POST: drawing after every children are drawn
 639:..\..\..\lvgl\version_6.1.2\lvgl\src\lv_objx/lv_table.c ****  * @param return true/false, depends on 'mode'
 640:..\..\..\lvgl\version_6.1.2\lvgl\src\lv_objx/lv_table.c ****  */
 641:..\..\..\lvgl\version_6.1.2\lvgl\src\lv_objx/lv_table.c **** static bool lv_table_design(lv_obj_t * table, const lv_area_t * mask, lv_design_mode_t mode)
 642:..\..\..\lvgl\version_6.1.2\lvgl\src\lv_objx/lv_table.c **** {
 2192              		.loc 3 642 0
 2193              		.cfi_startproc
 2194              		@ args = 0, pretend = 0, frame = 168
 2195              		@ frame_needed = 1, uses_anonymous_args = 0
 2196 0000 2DE9F041 		push	{r4, r5, r6, r7, r8, lr}
 2197              		.cfi_def_cfa_offset 24
 2198              		.cfi_offset 4, -24
 2199              		.cfi_offset 5, -20
 2200              		.cfi_offset 6, -16
 2201              		.cfi_offset 7, -12
 2202              		.cfi_offset 8, -8
 2203              		.cfi_offset 14, -4
 2204 0004 B0B0     		sub	sp, sp, #192
 2205              		.cfi_def_cfa_offset 216
 2206 0006 06AF     		add	r7, sp, #24
 2207              		.cfi_def_cfa 7, 192
 2208 0008 F860     		str	r0, [r7, #12]
 2209 000a B960     		str	r1, [r7, #8]
ARM GAS  C:\Users\tmj32\AppData\Local\Temp\ccIZw7Ef.s 			page 55


 2210 000c 1346     		mov	r3, r2
 2211 000e FB71     		strb	r3, [r7, #7]
 643:..\..\..\lvgl\version_6.1.2\lvgl\src\lv_objx/lv_table.c ****     /*Return false if the object is not covers the mask_p area*/
 644:..\..\..\lvgl\version_6.1.2\lvgl\src\lv_objx/lv_table.c ****     if(mode == LV_DESIGN_COVER_CHK) {
 2212              		.loc 3 644 0
 2213 0010 FB79     		ldrb	r3, [r7, #7]	@ zero_extendqisi2
 2214 0012 022B     		cmp	r3, #2
 2215 0014 01D1     		bne	.L121
 645:..\..\..\lvgl\version_6.1.2\lvgl\src\lv_objx/lv_table.c ****         return false;
 2216              		.loc 3 645 0
 2217 0016 0023     		movs	r3, #0
 2218 0018 C2E2     		b	.L122
 2219              	.L121:
 646:..\..\..\lvgl\version_6.1.2\lvgl\src\lv_objx/lv_table.c ****     }
 647:..\..\..\lvgl\version_6.1.2\lvgl\src\lv_objx/lv_table.c ****     /*Draw the object*/
 648:..\..\..\lvgl\version_6.1.2\lvgl\src\lv_objx/lv_table.c ****     else if(mode == LV_DESIGN_DRAW_MAIN) {
 2220              		.loc 3 648 0
 2221 001a FB79     		ldrb	r3, [r7, #7]	@ zero_extendqisi2
 2222 001c 002B     		cmp	r3, #0
 2223 001e 40F0BE82 		bne	.L123
 2224              	.LBB10:
 649:..\..\..\lvgl\version_6.1.2\lvgl\src\lv_objx/lv_table.c ****         ancestor_scrl_design(table, mask, mode);
 2225              		.loc 3 649 0
 2226 0022 A74B     		ldr	r3, .L150
 2227 0024 1B68     		ldr	r3, [r3]
 2228 0026 FA79     		ldrb	r2, [r7, #7]	@ zero_extendqisi2
 2229 0028 B968     		ldr	r1, [r7, #8]
 2230 002a F868     		ldr	r0, [r7, #12]
 2231 002c 9847     		blx	r3
 650:..\..\..\lvgl\version_6.1.2\lvgl\src\lv_objx/lv_table.c **** 
 651:..\..\..\lvgl\version_6.1.2\lvgl\src\lv_objx/lv_table.c ****         lv_table_ext_t * ext        = lv_obj_get_ext_attr(table);
 2232              		.loc 3 651 0
 2233 002e F868     		ldr	r0, [r7, #12]
 2234 0030 FFF7FEFF 		bl	lv_obj_get_ext_attr
 2235 0034 C7F89800 		str	r0, [r7, #152]
 652:..\..\..\lvgl\version_6.1.2\lvgl\src\lv_objx/lv_table.c ****         const lv_style_t * bg_style = lv_obj_get_style(table);
 2236              		.loc 3 652 0
 2237 0038 F868     		ldr	r0, [r7, #12]
 2238 003a FFF7FEFF 		bl	lv_obj_get_style
 2239 003e C7F89400 		str	r0, [r7, #148]
 653:..\..\..\lvgl\version_6.1.2\lvgl\src\lv_objx/lv_table.c ****         lv_coord_t h_row;
 654:..\..\..\lvgl\version_6.1.2\lvgl\src\lv_objx/lv_table.c ****         lv_point_t txt_size;
 655:..\..\..\lvgl\version_6.1.2\lvgl\src\lv_objx/lv_table.c ****         lv_area_t cell_area;
 656:..\..\..\lvgl\version_6.1.2\lvgl\src\lv_objx/lv_table.c ****         lv_area_t txt_area;
 657:..\..\..\lvgl\version_6.1.2\lvgl\src\lv_objx/lv_table.c ****         lv_txt_flag_t txt_flags;
 658:..\..\..\lvgl\version_6.1.2\lvgl\src\lv_objx/lv_table.c ****         lv_opa_t opa_scale = lv_obj_get_opa_scale(table);
 2240              		.loc 3 658 0
 2241 0042 F868     		ldr	r0, [r7, #12]
 2242 0044 FFF7FEFF 		bl	lv_obj_get_opa_scale
 2243 0048 0346     		mov	r3, r0
 2244 004a 87F89330 		strb	r3, [r7, #147]
 659:..\..\..\lvgl\version_6.1.2\lvgl\src\lv_objx/lv_table.c **** 
 660:..\..\..\lvgl\version_6.1.2\lvgl\src\lv_objx/lv_table.c ****         uint16_t col;
 661:..\..\..\lvgl\version_6.1.2\lvgl\src\lv_objx/lv_table.c ****         uint16_t row;
 662:..\..\..\lvgl\version_6.1.2\lvgl\src\lv_objx/lv_table.c ****         uint16_t cell = 0;
 2245              		.loc 3 662 0
 2246 004e 0023     		movs	r3, #0
ARM GAS  C:\Users\tmj32\AppData\Local\Temp\ccIZw7Ef.s 			page 56


 2247 0050 A7F8A030 		strh	r3, [r7, #160]	@ movhi
 663:..\..\..\lvgl\version_6.1.2\lvgl\src\lv_objx/lv_table.c **** 
 664:..\..\..\lvgl\version_6.1.2\lvgl\src\lv_objx/lv_table.c ****         cell_area.y2 = table->coords.y1 + bg_style->body.padding.top;
 2248              		.loc 3 664 0
 2249 0054 FB68     		ldr	r3, [r7, #12]
 2250 0056 B3F91230 		ldrsh	r3, [r3, #18]
 2251 005a 9AB2     		uxth	r2, r3
 2252 005c D7F89430 		ldr	r3, [r7, #148]
 2253 0060 B3F92030 		ldrsh	r3, [r3, #32]
 2254 0064 9BB2     		uxth	r3, r3
 2255 0066 1344     		add	r3, r3, r2
 2256 0068 9BB2     		uxth	r3, r3
 2257 006a 1BB2     		sxth	r3, r3
 2258 006c A7F88630 		strh	r3, [r7, #134]	@ movhi
 665:..\..\..\lvgl\version_6.1.2\lvgl\src\lv_objx/lv_table.c ****         for(row = 0; row < ext->row_cnt; row++) {
 2259              		.loc 3 665 0
 2260 0070 0023     		movs	r3, #0
 2261 0072 A7F8A230 		strh	r3, [r7, #162]	@ movhi
 2262 0076 8AE2     		b	.L124
 2263              	.L147:
 666:..\..\..\lvgl\version_6.1.2\lvgl\src\lv_objx/lv_table.c ****             h_row = get_row_height(table, row);
 2264              		.loc 3 666 0
 2265 0078 B7F8A230 		ldrh	r3, [r7, #162]
 2266 007c 1946     		mov	r1, r3
 2267 007e F868     		ldr	r0, [r7, #12]
 2268 0080 FFF7FEFF 		bl	get_row_height
 2269 0084 0346     		mov	r3, r0
 2270 0086 A7F89030 		strh	r3, [r7, #144]	@ movhi
 667:..\..\..\lvgl\version_6.1.2\lvgl\src\lv_objx/lv_table.c **** 
 668:..\..\..\lvgl\version_6.1.2\lvgl\src\lv_objx/lv_table.c ****             cell_area.y1 = cell_area.y2 + 1;
 2271              		.loc 3 668 0
 2272 008a B7F98630 		ldrsh	r3, [r7, #134]
 2273 008e 9BB2     		uxth	r3, r3
 2274 0090 0133     		adds	r3, r3, #1
 2275 0092 9BB2     		uxth	r3, r3
 2276 0094 1BB2     		sxth	r3, r3
 2277 0096 A7F88230 		strh	r3, [r7, #130]	@ movhi
 669:..\..\..\lvgl\version_6.1.2\lvgl\src\lv_objx/lv_table.c ****             cell_area.y2 = cell_area.y1 + h_row - 1;
 2278              		.loc 3 669 0
 2279 009a B7F98230 		ldrsh	r3, [r7, #130]
 2280 009e 9AB2     		uxth	r2, r3
 2281 00a0 B7F89030 		ldrh	r3, [r7, #144]
 2282 00a4 1344     		add	r3, r3, r2
 2283 00a6 9BB2     		uxth	r3, r3
 2284 00a8 013B     		subs	r3, r3, #1
 2285 00aa 9BB2     		uxth	r3, r3
 2286 00ac 1BB2     		sxth	r3, r3
 2287 00ae A7F88630 		strh	r3, [r7, #134]	@ movhi
 670:..\..\..\lvgl\version_6.1.2\lvgl\src\lv_objx/lv_table.c **** 
 671:..\..\..\lvgl\version_6.1.2\lvgl\src\lv_objx/lv_table.c ****             cell_area.x2 = table->coords.x1 + bg_style->body.padding.left;
 2288              		.loc 3 671 0
 2289 00b2 FB68     		ldr	r3, [r7, #12]
 2290 00b4 B3F91030 		ldrsh	r3, [r3, #16]
 2291 00b8 9AB2     		uxth	r2, r3
 2292 00ba D7F89430 		ldr	r3, [r7, #148]
 2293 00be B3F92430 		ldrsh	r3, [r3, #36]
 2294 00c2 9BB2     		uxth	r3, r3
ARM GAS  C:\Users\tmj32\AppData\Local\Temp\ccIZw7Ef.s 			page 57


 2295 00c4 1344     		add	r3, r3, r2
 2296 00c6 9BB2     		uxth	r3, r3
 2297 00c8 1BB2     		sxth	r3, r3
 2298 00ca A7F88430 		strh	r3, [r7, #132]	@ movhi
 672:..\..\..\lvgl\version_6.1.2\lvgl\src\lv_objx/lv_table.c **** 
 673:..\..\..\lvgl\version_6.1.2\lvgl\src\lv_objx/lv_table.c ****             for(col = 0; col < ext->col_cnt; col++) {
 2299              		.loc 3 673 0
 2300 00ce 0023     		movs	r3, #0
 2301 00d0 A7F8A430 		strh	r3, [r7, #164]	@ movhi
 2302 00d4 4EE2     		b	.L125
 2303              	.L146:
 2304              	.LBB11:
 674:..\..\..\lvgl\version_6.1.2\lvgl\src\lv_objx/lv_table.c **** 
 675:..\..\..\lvgl\version_6.1.2\lvgl\src\lv_objx/lv_table.c ****                 lv_table_cell_format_t format;
 676:..\..\..\lvgl\version_6.1.2\lvgl\src\lv_objx/lv_table.c ****                 if(ext->cell_data[cell]) {
 2305              		.loc 3 676 0
 2306 00d6 D7F89830 		ldr	r3, [r7, #152]
 2307 00da 5A68     		ldr	r2, [r3, #4]
 2308 00dc B7F8A030 		ldrh	r3, [r7, #160]
 2309 00e0 9B00     		lsls	r3, r3, #2
 2310 00e2 1344     		add	r3, r3, r2
 2311 00e4 1B68     		ldr	r3, [r3]
 2312 00e6 002B     		cmp	r3, #0
 2313 00e8 0BD0     		beq	.L126
 677:..\..\..\lvgl\version_6.1.2\lvgl\src\lv_objx/lv_table.c ****                     format.format_byte = ext->cell_data[cell][0];
 2314              		.loc 3 677 0
 2315 00ea D7F89830 		ldr	r3, [r7, #152]
 2316 00ee 5A68     		ldr	r2, [r3, #4]
 2317 00f0 B7F8A030 		ldrh	r3, [r7, #160]
 2318 00f4 9B00     		lsls	r3, r3, #2
 2319 00f6 1344     		add	r3, r3, r2
 2320 00f8 1B68     		ldr	r3, [r3]
 2321 00fa 1B78     		ldrb	r3, [r3]	@ zero_extendqisi2
 2322 00fc 87F87430 		strb	r3, [r7, #116]
 2323 0100 17E0     		b	.L127
 2324              	.L126:
 678:..\..\..\lvgl\version_6.1.2\lvgl\src\lv_objx/lv_table.c ****                 } else {
 679:..\..\..\lvgl\version_6.1.2\lvgl\src\lv_objx/lv_table.c ****                     format.s.right_merge = 0;
 2325              		.loc 3 679 0
 2326 0102 97F87430 		ldrb	r3, [r7, #116]
 2327 0106 6FF38203 		bfc	r3, #2, #1
 2328 010a 87F87430 		strb	r3, [r7, #116]
 680:..\..\..\lvgl\version_6.1.2\lvgl\src\lv_objx/lv_table.c ****                     format.s.align       = LV_LABEL_ALIGN_LEFT;
 2329              		.loc 3 680 0
 2330 010e 97F87430 		ldrb	r3, [r7, #116]
 2331 0112 6FF30103 		bfc	r3, #0, #2
 2332 0116 87F87430 		strb	r3, [r7, #116]
 681:..\..\..\lvgl\version_6.1.2\lvgl\src\lv_objx/lv_table.c ****                     format.s.type        = 0;
 2333              		.loc 3 681 0
 2334 011a 97F87430 		ldrb	r3, [r7, #116]
 2335 011e 6FF3C403 		bfc	r3, #3, #2
 2336 0122 87F87430 		strb	r3, [r7, #116]
 682:..\..\..\lvgl\version_6.1.2\lvgl\src\lv_objx/lv_table.c ****                     format.s.crop        = 1;
 2337              		.loc 3 682 0
 2338 0126 97F87430 		ldrb	r3, [r7, #116]
 2339 012a 43F02003 		orr	r3, r3, #32
 2340 012e 87F87430 		strb	r3, [r7, #116]
ARM GAS  C:\Users\tmj32\AppData\Local\Temp\ccIZw7Ef.s 			page 58


 2341              	.L127:
 683:..\..\..\lvgl\version_6.1.2\lvgl\src\lv_objx/lv_table.c ****                 }
 684:..\..\..\lvgl\version_6.1.2\lvgl\src\lv_objx/lv_table.c **** 
 685:..\..\..\lvgl\version_6.1.2\lvgl\src\lv_objx/lv_table.c **** 
 686:..\..\..\lvgl\version_6.1.2\lvgl\src\lv_objx/lv_table.c ****                 lv_style_t cell_style;
 687:..\..\..\lvgl\version_6.1.2\lvgl\src\lv_objx/lv_table.c ****                 lv_style_copy(&cell_style, ext->cell_style[format.s.type]);
 2342              		.loc 3 687 0
 2343 0132 97F87430 		ldrb	r3, [r7, #116]
 2344 0136 C3F3C103 		ubfx	r3, r3, #3, #2
 2345 013a DBB2     		uxtb	r3, r3
 2346 013c 1A46     		mov	r2, r3
 2347 013e D7F89830 		ldr	r3, [r7, #152]
 2348 0142 0232     		adds	r2, r2, #2
 2349 0144 53F82220 		ldr	r2, [r3, r2, lsl #2]
 2350 0148 07F11403 		add	r3, r7, #20
 2351 014c 1146     		mov	r1, r2
 2352 014e 1846     		mov	r0, r3
 2353 0150 FFF7FEFF 		bl	lv_style_copy
 688:..\..\..\lvgl\version_6.1.2\lvgl\src\lv_objx/lv_table.c ****                 cell_area.x1 = cell_area.x2 + 1;
 2354              		.loc 3 688 0
 2355 0154 B7F98430 		ldrsh	r3, [r7, #132]
 2356 0158 9BB2     		uxth	r3, r3
 2357 015a 0133     		adds	r3, r3, #1
 2358 015c 9BB2     		uxth	r3, r3
 2359 015e 1BB2     		sxth	r3, r3
 2360 0160 A7F88030 		strh	r3, [r7, #128]	@ movhi
 689:..\..\..\lvgl\version_6.1.2\lvgl\src\lv_objx/lv_table.c ****                 cell_area.x2 = cell_area.x1 + ext->col_w[col] - 1;
 2361              		.loc 3 689 0
 2362 0164 B7F98030 		ldrsh	r3, [r7, #128]
 2363 0168 9AB2     		uxth	r2, r3
 2364 016a B7F8A410 		ldrh	r1, [r7, #164]
 2365 016e D7F89830 		ldr	r3, [r7, #152]
 2366 0172 0C31     		adds	r1, r1, #12
 2367 0174 33F91130 		ldrsh	r3, [r3, r1, lsl #1]
 2368 0178 9BB2     		uxth	r3, r3
 2369 017a 1344     		add	r3, r3, r2
 2370 017c 9BB2     		uxth	r3, r3
 2371 017e 013B     		subs	r3, r3, #1
 2372 0180 9BB2     		uxth	r3, r3
 2373 0182 1BB2     		sxth	r3, r3
 2374 0184 A7F88430 		strh	r3, [r7, #132]	@ movhi
 690:..\..\..\lvgl\version_6.1.2\lvgl\src\lv_objx/lv_table.c **** 
 691:..\..\..\lvgl\version_6.1.2\lvgl\src\lv_objx/lv_table.c ****                 uint16_t col_merge = 0;
 2375              		.loc 3 691 0
 2376 0188 0023     		movs	r3, #0
 2377 018a A7F89E30 		strh	r3, [r7, #158]	@ movhi
 692:..\..\..\lvgl\version_6.1.2\lvgl\src\lv_objx/lv_table.c ****                 for(col_merge = 0; col_merge + col < ext->col_cnt - 1; col_merge++) {
 2378              		.loc 3 692 0
 2379 018e 0023     		movs	r3, #0
 2380 0190 A7F89E30 		strh	r3, [r7, #158]	@ movhi
 2381 0194 3AE0     		b	.L128
 2382              	.L133:
 693:..\..\..\lvgl\version_6.1.2\lvgl\src\lv_objx/lv_table.c **** 
 694:..\..\..\lvgl\version_6.1.2\lvgl\src\lv_objx/lv_table.c ****                     if(ext->cell_data[cell + col_merge] != NULL) {
 2383              		.loc 3 694 0
 2384 0196 D7F89830 		ldr	r3, [r7, #152]
 2385 019a 5A68     		ldr	r2, [r3, #4]
ARM GAS  C:\Users\tmj32\AppData\Local\Temp\ccIZw7Ef.s 			page 59


 2386 019c B7F8A010 		ldrh	r1, [r7, #160]
 2387 01a0 B7F89E30 		ldrh	r3, [r7, #158]
 2388 01a4 0B44     		add	r3, r3, r1
 2389 01a6 9B00     		lsls	r3, r3, #2
 2390 01a8 1344     		add	r3, r3, r2
 2391 01aa 1B68     		ldr	r3, [r3]
 2392 01ac 002B     		cmp	r3, #0
 2393 01ae 39D0     		beq	.L148
 695:..\..\..\lvgl\version_6.1.2\lvgl\src\lv_objx/lv_table.c ****                         format.format_byte = ext->cell_data[cell + col_merge][0];
 2394              		.loc 3 695 0
 2395 01b0 D7F89830 		ldr	r3, [r7, #152]
 2396 01b4 5A68     		ldr	r2, [r3, #4]
 2397 01b6 B7F8A010 		ldrh	r1, [r7, #160]
 2398 01ba B7F89E30 		ldrh	r3, [r7, #158]
 2399 01be 0B44     		add	r3, r3, r1
 2400 01c0 9B00     		lsls	r3, r3, #2
 2401 01c2 1344     		add	r3, r3, r2
 2402 01c4 1B68     		ldr	r3, [r3]
 2403 01c6 1B78     		ldrb	r3, [r3]	@ zero_extendqisi2
 2404 01c8 87F87430 		strb	r3, [r7, #116]
 696:..\..\..\lvgl\version_6.1.2\lvgl\src\lv_objx/lv_table.c ****                         if(format.s.right_merge)
 2405              		.loc 3 696 0
 2406 01cc 97F87430 		ldrb	r3, [r7, #116]	@ zero_extendqisi2
 2407 01d0 03F00403 		and	r3, r3, #4
 2408 01d4 DBB2     		uxtb	r3, r3
 2409 01d6 002B     		cmp	r3, #0
 2410 01d8 26D0     		beq	.L149
 697:..\..\..\lvgl\version_6.1.2\lvgl\src\lv_objx/lv_table.c ****                             cell_area.x2 += ext->col_w[col + col_merge + 1];
 2411              		.loc 3 697 0
 2412 01da B7F98430 		ldrsh	r3, [r7, #132]
 2413 01de 9AB2     		uxth	r2, r3
 2414 01e0 B7F8A410 		ldrh	r1, [r7, #164]
 2415 01e4 B7F89E30 		ldrh	r3, [r7, #158]
 2416 01e8 0B44     		add	r3, r3, r1
 2417 01ea 591C     		adds	r1, r3, #1
 2418 01ec D7F89830 		ldr	r3, [r7, #152]
 2419 01f0 0C31     		adds	r1, r1, #12
 2420 01f2 33F91130 		ldrsh	r3, [r3, r1, lsl #1]
 2421 01f6 9BB2     		uxth	r3, r3
 2422 01f8 1344     		add	r3, r3, r2
 2423 01fa 9BB2     		uxth	r3, r3
 2424 01fc 1BB2     		sxth	r3, r3
 2425 01fe A7F88430 		strh	r3, [r7, #132]	@ movhi
 692:..\..\..\lvgl\version_6.1.2\lvgl\src\lv_objx/lv_table.c **** 
 2426              		.loc 3 692 0
 2427 0202 B7F89E30 		ldrh	r3, [r7, #158]
 2428 0206 0133     		adds	r3, r3, #1
 2429 0208 A7F89E30 		strh	r3, [r7, #158]	@ movhi
 2430              	.L128:
 692:..\..\..\lvgl\version_6.1.2\lvgl\src\lv_objx/lv_table.c **** 
 2431              		.loc 3 692 0 is_stmt 0 discriminator 1
 2432 020c B7F89E20 		ldrh	r2, [r7, #158]
 2433 0210 B7F8A430 		ldrh	r3, [r7, #164]
 2434 0214 1A44     		add	r2, r2, r3
 2435 0216 D7F89830 		ldr	r3, [r7, #152]
 2436 021a 1B88     		ldrh	r3, [r3]
 2437 021c 013B     		subs	r3, r3, #1
ARM GAS  C:\Users\tmj32\AppData\Local\Temp\ccIZw7Ef.s 			page 60


 2438 021e 9A42     		cmp	r2, r3
 2439 0220 B9DB     		blt	.L133
 2440 0222 02E0     		b	.L132
 2441              	.L148:
 698:..\..\..\lvgl\version_6.1.2\lvgl\src\lv_objx/lv_table.c ****                         else
 699:..\..\..\lvgl\version_6.1.2\lvgl\src\lv_objx/lv_table.c ****                             break;
 700:..\..\..\lvgl\version_6.1.2\lvgl\src\lv_objx/lv_table.c ****                     } else {
 701:..\..\..\lvgl\version_6.1.2\lvgl\src\lv_objx/lv_table.c ****                         break;
 2442              		.loc 3 701 0 is_stmt 1
 2443 0224 00BF     		nop
 2444 0226 00E0     		b	.L132
 2445              	.L149:
 699:..\..\..\lvgl\version_6.1.2\lvgl\src\lv_objx/lv_table.c ****                     } else {
 2446              		.loc 3 699 0
 2447 0228 00BF     		nop
 2448              	.L132:
 702:..\..\..\lvgl\version_6.1.2\lvgl\src\lv_objx/lv_table.c ****                     }
 703:..\..\..\lvgl\version_6.1.2\lvgl\src\lv_objx/lv_table.c ****                 }
 704:..\..\..\lvgl\version_6.1.2\lvgl\src\lv_objx/lv_table.c **** 
 705:..\..\..\lvgl\version_6.1.2\lvgl\src\lv_objx/lv_table.c ****                 lv_draw_rect(&cell_area, mask, &cell_style, opa_scale);
 2449              		.loc 3 705 0
 2450 022a 97F89330 		ldrb	r3, [r7, #147]	@ zero_extendqisi2
 2451 022e 07F11402 		add	r2, r7, #20
 2452 0232 07F18000 		add	r0, r7, #128
 2453 0236 B968     		ldr	r1, [r7, #8]
 2454 0238 FFF7FEFF 		bl	lv_draw_rect
 706:..\..\..\lvgl\version_6.1.2\lvgl\src\lv_objx/lv_table.c **** 
 707:..\..\..\lvgl\version_6.1.2\lvgl\src\lv_objx/lv_table.c ****                 if(ext->cell_data[cell]) {
 2455              		.loc 3 707 0
 2456 023c D7F89830 		ldr	r3, [r7, #152]
 2457 0240 5A68     		ldr	r2, [r3, #4]
 2458 0242 B7F8A030 		ldrh	r3, [r7, #160]
 2459 0246 9B00     		lsls	r3, r3, #2
 2460 0248 1344     		add	r3, r3, r2
 2461 024a 1B68     		ldr	r3, [r3]
 2462 024c 002B     		cmp	r3, #0
 2463 024e 00F07C81 		beq	.L134
 2464              	.LBB12:
 708:..\..\..\lvgl\version_6.1.2\lvgl\src\lv_objx/lv_table.c **** 
 709:..\..\..\lvgl\version_6.1.2\lvgl\src\lv_objx/lv_table.c ****                     txt_area.x1 = cell_area.x1 + cell_style.body.padding.left;
 2465              		.loc 3 709 0
 2466 0252 B7F98030 		ldrsh	r3, [r7, #128]
 2467 0256 9AB2     		uxth	r2, r3
 2468 0258 B7F93830 		ldrsh	r3, [r7, #56]
 2469 025c 9BB2     		uxth	r3, r3
 2470 025e 1344     		add	r3, r3, r2
 2471 0260 9BB2     		uxth	r3, r3
 2472 0262 1BB2     		sxth	r3, r3
 2473 0264 A7F87830 		strh	r3, [r7, #120]	@ movhi
 710:..\..\..\lvgl\version_6.1.2\lvgl\src\lv_objx/lv_table.c ****                     txt_area.x2 = cell_area.x2 - cell_style.body.padding.right;
 2474              		.loc 3 710 0
 2475 0268 B7F98430 		ldrsh	r3, [r7, #132]
 2476 026c 9AB2     		uxth	r2, r3
 2477 026e B7F93A30 		ldrsh	r3, [r7, #58]
 2478 0272 9BB2     		uxth	r3, r3
 2479 0274 D31A     		subs	r3, r2, r3
 2480 0276 9BB2     		uxth	r3, r3
ARM GAS  C:\Users\tmj32\AppData\Local\Temp\ccIZw7Ef.s 			page 61


 2481 0278 1BB2     		sxth	r3, r3
 2482 027a A7F87C30 		strh	r3, [r7, #124]	@ movhi
 711:..\..\..\lvgl\version_6.1.2\lvgl\src\lv_objx/lv_table.c ****                     txt_area.y1 = cell_area.y1 + cell_style.body.padding.top;
 2483              		.loc 3 711 0
 2484 027e B7F98230 		ldrsh	r3, [r7, #130]
 2485 0282 9AB2     		uxth	r2, r3
 2486 0284 B7F93430 		ldrsh	r3, [r7, #52]
 2487 0288 9BB2     		uxth	r3, r3
 2488 028a 1344     		add	r3, r3, r2
 2489 028c 9BB2     		uxth	r3, r3
 2490 028e 1BB2     		sxth	r3, r3
 2491 0290 A7F87A30 		strh	r3, [r7, #122]	@ movhi
 712:..\..\..\lvgl\version_6.1.2\lvgl\src\lv_objx/lv_table.c ****                     txt_area.y2 = cell_area.y2 - cell_style.body.padding.bottom;
 2492              		.loc 3 712 0
 2493 0294 B7F98630 		ldrsh	r3, [r7, #134]
 2494 0298 9AB2     		uxth	r2, r3
 2495 029a B7F93630 		ldrsh	r3, [r7, #54]
 2496 029e 9BB2     		uxth	r3, r3
 2497 02a0 D31A     		subs	r3, r2, r3
 2498 02a2 9BB2     		uxth	r3, r3
 2499 02a4 1BB2     		sxth	r3, r3
 2500 02a6 A7F87E30 		strh	r3, [r7, #126]	@ movhi
 713:..\..\..\lvgl\version_6.1.2\lvgl\src\lv_objx/lv_table.c ****                     /*Align the content to the middle if not cropped*/
 714:..\..\..\lvgl\version_6.1.2\lvgl\src\lv_objx/lv_table.c ****                     if(format.s.crop == 0) {
 2501              		.loc 3 714 0
 2502 02aa 97F87430 		ldrb	r3, [r7, #116]	@ zero_extendqisi2
 2503 02ae 03F02003 		and	r3, r3, #32
 2504 02b2 DBB2     		uxtb	r3, r3
 2505 02b4 002B     		cmp	r3, #0
 2506 02b6 05D1     		bne	.L135
 715:..\..\..\lvgl\version_6.1.2\lvgl\src\lv_objx/lv_table.c ****                         txt_flags = LV_TXT_FLAG_NONE;
 2507              		.loc 3 715 0
 2508 02b8 0023     		movs	r3, #0
 2509 02ba 87F8A730 		strb	r3, [r7, #167]
 2510 02be 04E0     		b	.L136
 2511              	.L151:
 2512              		.align	2
 2513              	.L150:
 2514 02c0 04000000 		.word	ancestor_scrl_design
 2515              	.L135:
 716:..\..\..\lvgl\version_6.1.2\lvgl\src\lv_objx/lv_table.c ****                     } else {
 717:..\..\..\lvgl\version_6.1.2\lvgl\src\lv_objx/lv_table.c ****                         txt_flags = LV_TXT_FLAG_EXPAND;
 2516              		.loc 3 717 0
 2517 02c4 0223     		movs	r3, #2
 2518 02c6 87F8A730 		strb	r3, [r7, #167]
 2519              	.L136:
 718:..\..\..\lvgl\version_6.1.2\lvgl\src\lv_objx/lv_table.c ****                     }
 719:..\..\..\lvgl\version_6.1.2\lvgl\src\lv_objx/lv_table.c **** 
 720:..\..\..\lvgl\version_6.1.2\lvgl\src\lv_objx/lv_table.c ****                     lv_txt_get_size(&txt_size, ext->cell_data[cell] + 1, cell_style.text.font,
 2520              		.loc 3 720 0
 2521 02ca D7F89830 		ldr	r3, [r7, #152]
 2522 02ce 5A68     		ldr	r2, [r3, #4]
 2523 02d0 B7F8A030 		ldrh	r3, [r7, #160]
 2524 02d4 9B00     		lsls	r3, r3, #2
 2525 02d6 1344     		add	r3, r3, r2
 2526 02d8 1B68     		ldr	r3, [r3]
 2527 02da 5D1C     		adds	r5, r3, #1
ARM GAS  C:\Users\tmj32\AppData\Local\Temp\ccIZw7Ef.s 			page 62


 2528 02dc BE6C     		ldr	r6, [r7, #72]
 2529 02de B7F94C80 		ldrsh	r8, [r7, #76]
 2530 02e2 B7F94E40 		ldrsh	r4, [r7, #78]
 2531 02e6 07F17803 		add	r3, r7, #120
 2532 02ea 1846     		mov	r0, r3
 2533 02ec FFF7FEFF 		bl	lv_area_get_width
 2534 02f0 0346     		mov	r3, r0
 2535 02f2 1A46     		mov	r2, r3
 2536 02f4 07F18800 		add	r0, r7, #136
 2537 02f8 97F8A730 		ldrb	r3, [r7, #167]	@ zero_extendqisi2
 2538 02fc 0293     		str	r3, [sp, #8]
 2539 02fe 0192     		str	r2, [sp, #4]
 2540 0300 0094     		str	r4, [sp]
 2541 0302 4346     		mov	r3, r8
 2542 0304 3246     		mov	r2, r6
 2543 0306 2946     		mov	r1, r5
 2544 0308 FFF7FEFF 		bl	lv_txt_get_size
 721:..\..\..\lvgl\version_6.1.2\lvgl\src\lv_objx/lv_table.c ****                                     cell_style.text.letter_space, cell_style.text.line_space,
 722:..\..\..\lvgl\version_6.1.2\lvgl\src\lv_objx/lv_table.c ****                                     lv_area_get_width(&txt_area), txt_flags);
 723:..\..\..\lvgl\version_6.1.2\lvgl\src\lv_objx/lv_table.c **** 
 724:..\..\..\lvgl\version_6.1.2\lvgl\src\lv_objx/lv_table.c ****                     /*Align the content to the middle if not cropped*/
 725:..\..\..\lvgl\version_6.1.2\lvgl\src\lv_objx/lv_table.c ****                     if(format.s.crop == 0) {
 2545              		.loc 3 725 0
 2546 030c 97F87430 		ldrb	r3, [r7, #116]	@ zero_extendqisi2
 2547 0310 03F02003 		and	r3, r3, #32
 2548 0314 DBB2     		uxtb	r3, r3
 2549 0316 002B     		cmp	r3, #0
 2550 0318 2FD1     		bne	.L137
 726:..\..\..\lvgl\version_6.1.2\lvgl\src\lv_objx/lv_table.c ****                         txt_area.y1 = cell_area.y1 + h_row / 2 - txt_size.y / 2;
 2551              		.loc 3 726 0
 2552 031a B7F98230 		ldrsh	r3, [r7, #130]
 2553 031e 9AB2     		uxth	r2, r3
 2554 0320 B7F99030 		ldrsh	r3, [r7, #144]
 2555 0324 D90F     		lsrs	r1, r3, #31
 2556 0326 0B44     		add	r3, r3, r1
 2557 0328 5B10     		asrs	r3, r3, #1
 2558 032a 1BB2     		sxth	r3, r3
 2559 032c 9BB2     		uxth	r3, r3
 2560 032e 1344     		add	r3, r3, r2
 2561 0330 9AB2     		uxth	r2, r3
 2562 0332 B7F98A30 		ldrsh	r3, [r7, #138]
 2563 0336 D90F     		lsrs	r1, r3, #31
 2564 0338 0B44     		add	r3, r3, r1
 2565 033a 5B10     		asrs	r3, r3, #1
 2566 033c 1BB2     		sxth	r3, r3
 2567 033e 9BB2     		uxth	r3, r3
 2568 0340 D31A     		subs	r3, r2, r3
 2569 0342 9BB2     		uxth	r3, r3
 2570 0344 1BB2     		sxth	r3, r3
 2571 0346 A7F87A30 		strh	r3, [r7, #122]	@ movhi
 727:..\..\..\lvgl\version_6.1.2\lvgl\src\lv_objx/lv_table.c ****                         txt_area.y2 = cell_area.y1 + h_row / 2 + txt_size.y / 2;
 2572              		.loc 3 727 0
 2573 034a B7F98230 		ldrsh	r3, [r7, #130]
 2574 034e 9AB2     		uxth	r2, r3
 2575 0350 B7F99030 		ldrsh	r3, [r7, #144]
 2576 0354 D90F     		lsrs	r1, r3, #31
 2577 0356 0B44     		add	r3, r3, r1
ARM GAS  C:\Users\tmj32\AppData\Local\Temp\ccIZw7Ef.s 			page 63


 2578 0358 5B10     		asrs	r3, r3, #1
 2579 035a 1BB2     		sxth	r3, r3
 2580 035c 9BB2     		uxth	r3, r3
 2581 035e 1344     		add	r3, r3, r2
 2582 0360 9AB2     		uxth	r2, r3
 2583 0362 B7F98A30 		ldrsh	r3, [r7, #138]
 2584 0366 D90F     		lsrs	r1, r3, #31
 2585 0368 0B44     		add	r3, r3, r1
 2586 036a 5B10     		asrs	r3, r3, #1
 2587 036c 1BB2     		sxth	r3, r3
 2588 036e 9BB2     		uxth	r3, r3
 2589 0370 1344     		add	r3, r3, r2
 2590 0372 9BB2     		uxth	r3, r3
 2591 0374 1BB2     		sxth	r3, r3
 2592 0376 A7F87E30 		strh	r3, [r7, #126]	@ movhi
 2593              	.L137:
 728:..\..\..\lvgl\version_6.1.2\lvgl\src\lv_objx/lv_table.c ****                     }
 729:..\..\..\lvgl\version_6.1.2\lvgl\src\lv_objx/lv_table.c **** 
 730:..\..\..\lvgl\version_6.1.2\lvgl\src\lv_objx/lv_table.c ****                     switch(format.s.align) {
 2594              		.loc 3 730 0
 2595 037a 97F87430 		ldrb	r3, [r7, #116]
 2596 037e C3F30103 		ubfx	r3, r3, #0, #2
 2597 0382 DBB2     		uxtb	r3, r3
 2598 0384 012B     		cmp	r3, #1
 2599 0386 09D0     		beq	.L139
 2600 0388 022B     		cmp	r3, #2
 2601 038a 00D0     		beq	.L140
 731:..\..\..\lvgl\version_6.1.2\lvgl\src\lv_objx/lv_table.c ****                         default:
 732:..\..\..\lvgl\version_6.1.2\lvgl\src\lv_objx/lv_table.c ****                         case LV_LABEL_ALIGN_LEFT: txt_flags |= LV_TXT_FLAG_NONE; break;
 2602              		.loc 3 732 0
 2603 038c 0DE0     		b	.L141
 2604              	.L140:
 733:..\..\..\lvgl\version_6.1.2\lvgl\src\lv_objx/lv_table.c ****                         case LV_LABEL_ALIGN_RIGHT: txt_flags |= LV_TXT_FLAG_RIGHT; break;
 2605              		.loc 3 733 0
 2606 038e 97F8A730 		ldrb	r3, [r7, #167]
 2607 0392 43F00803 		orr	r3, r3, #8
 2608 0396 87F8A730 		strb	r3, [r7, #167]
 2609 039a 06E0     		b	.L141
 2610              	.L139:
 734:..\..\..\lvgl\version_6.1.2\lvgl\src\lv_objx/lv_table.c ****                         case LV_LABEL_ALIGN_CENTER: txt_flags |= LV_TXT_FLAG_CENTER; break;
 2611              		.loc 3 734 0
 2612 039c 97F8A730 		ldrb	r3, [r7, #167]
 2613 03a0 43F00403 		orr	r3, r3, #4
 2614 03a4 87F8A730 		strb	r3, [r7, #167]
 2615 03a8 00BF     		nop
 2616              	.L141:
 735:..\..\..\lvgl\version_6.1.2\lvgl\src\lv_objx/lv_table.c ****                     }
 736:..\..\..\lvgl\version_6.1.2\lvgl\src\lv_objx/lv_table.c **** 
 737:..\..\..\lvgl\version_6.1.2\lvgl\src\lv_objx/lv_table.c ****                     lv_area_t label_mask;
 738:..\..\..\lvgl\version_6.1.2\lvgl\src\lv_objx/lv_table.c ****                     bool label_mask_ok;
 739:..\..\..\lvgl\version_6.1.2\lvgl\src\lv_objx/lv_table.c ****                     label_mask_ok = lv_area_intersect(&label_mask, mask, &cell_area);
 2617              		.loc 3 739 0
 2618 03aa 07F18002 		add	r2, r7, #128
 2619 03ae 07F16C03 		add	r3, r7, #108
 2620 03b2 B968     		ldr	r1, [r7, #8]
 2621 03b4 1846     		mov	r0, r3
 2622 03b6 FFF7FEFF 		bl	lv_area_intersect
ARM GAS  C:\Users\tmj32\AppData\Local\Temp\ccIZw7Ef.s 			page 64


 2623 03ba 0346     		mov	r3, r0
 2624 03bc 87F88F30 		strb	r3, [r7, #143]
 740:..\..\..\lvgl\version_6.1.2\lvgl\src\lv_objx/lv_table.c ****                     if(label_mask_ok) {
 2625              		.loc 3 740 0
 2626 03c0 97F88F30 		ldrb	r3, [r7, #143]	@ zero_extendqisi2
 2627 03c4 002B     		cmp	r3, #0
 2628 03c6 22D0     		beq	.L142
 741:..\..\..\lvgl\version_6.1.2\lvgl\src\lv_objx/lv_table.c ****                         lv_draw_label(&txt_area, &label_mask, &cell_style, opa_scale, ext->cell_dat
 2629              		.loc 3 741 0
 2630 03c8 D7F89830 		ldr	r3, [r7, #152]
 2631 03cc 5A68     		ldr	r2, [r3, #4]
 2632 03ce B7F8A030 		ldrh	r3, [r7, #160]
 2633 03d2 9B00     		lsls	r3, r3, #2
 2634 03d4 1344     		add	r3, r3, r2
 2635 03d6 1B68     		ldr	r3, [r3]
 2636 03d8 5C1C     		adds	r4, r3, #1
 2637 03da F868     		ldr	r0, [r7, #12]
 2638 03dc FFF7FEFF 		bl	lv_obj_get_base_dir
 2639 03e0 0346     		mov	r3, r0
 2640 03e2 97F89350 		ldrb	r5, [r7, #147]	@ zero_extendqisi2
 2641 03e6 07F11402 		add	r2, r7, #20
 2642 03ea 07F16C01 		add	r1, r7, #108
 2643 03ee 07F17800 		add	r0, r7, #120
 2644 03f2 0593     		str	r3, [sp, #20]
 2645 03f4 0023     		movs	r3, #0
 2646 03f6 0493     		str	r3, [sp, #16]
 2647 03f8 0023     		movs	r3, #0
 2648 03fa 0393     		str	r3, [sp, #12]
 2649 03fc 0023     		movs	r3, #0
 2650 03fe 0293     		str	r3, [sp, #8]
 2651 0400 97F8A730 		ldrb	r3, [r7, #167]	@ zero_extendqisi2
 2652 0404 0193     		str	r3, [sp, #4]
 2653 0406 0094     		str	r4, [sp]
 2654 0408 2B46     		mov	r3, r5
 2655 040a FFF7FEFF 		bl	lv_draw_label
 2656              	.L142:
 742:..\..\..\lvgl\version_6.1.2\lvgl\src\lv_objx/lv_table.c ****                                       txt_flags, NULL, NULL, NULL, lv_obj_get_base_dir(table));
 743:..\..\..\lvgl\version_6.1.2\lvgl\src\lv_objx/lv_table.c ****                     }
 744:..\..\..\lvgl\version_6.1.2\lvgl\src\lv_objx/lv_table.c ****                     /*Draw lines after '\n's*/
 745:..\..\..\lvgl\version_6.1.2\lvgl\src\lv_objx/lv_table.c ****                     lv_point_t p1;
 746:..\..\..\lvgl\version_6.1.2\lvgl\src\lv_objx/lv_table.c ****                     lv_point_t p2;
 747:..\..\..\lvgl\version_6.1.2\lvgl\src\lv_objx/lv_table.c ****                     p1.x = cell_area.x1;
 2657              		.loc 3 747 0
 2658 040e B7F98030 		ldrsh	r3, [r7, #128]
 2659 0412 A7F86830 		strh	r3, [r7, #104]	@ movhi
 748:..\..\..\lvgl\version_6.1.2\lvgl\src\lv_objx/lv_table.c ****                     p2.x = cell_area.x2;
 2660              		.loc 3 748 0
 2661 0416 B7F98430 		ldrsh	r3, [r7, #132]
 2662 041a A7F86430 		strh	r3, [r7, #100]	@ movhi
 749:..\..\..\lvgl\version_6.1.2\lvgl\src\lv_objx/lv_table.c ****                     uint16_t i;
 750:..\..\..\lvgl\version_6.1.2\lvgl\src\lv_objx/lv_table.c ****                     for(i = 1; ext->cell_data[cell][i] != '\0'; i++) {
 2663              		.loc 3 750 0
 2664 041e 0123     		movs	r3, #1
 2665 0420 A7F89C30 		strh	r3, [r7, #156]	@ movhi
 2666 0424 82E0     		b	.L143
 2667              	.L145:
 751:..\..\..\lvgl\version_6.1.2\lvgl\src\lv_objx/lv_table.c ****                         if(ext->cell_data[cell][i] == '\n') {
ARM GAS  C:\Users\tmj32\AppData\Local\Temp\ccIZw7Ef.s 			page 65


 2668              		.loc 3 751 0
 2669 0426 D7F89830 		ldr	r3, [r7, #152]
 2670 042a 5A68     		ldr	r2, [r3, #4]
 2671 042c B7F8A030 		ldrh	r3, [r7, #160]
 2672 0430 9B00     		lsls	r3, r3, #2
 2673 0432 1344     		add	r3, r3, r2
 2674 0434 1A68     		ldr	r2, [r3]
 2675 0436 B7F89C30 		ldrh	r3, [r7, #156]
 2676 043a 1344     		add	r3, r3, r2
 2677 043c 1B78     		ldrb	r3, [r3]	@ zero_extendqisi2
 2678 043e 0A2B     		cmp	r3, #10
 2679 0440 6FD1     		bne	.L144
 752:..\..\..\lvgl\version_6.1.2\lvgl\src\lv_objx/lv_table.c ****                             ext->cell_data[cell][i] = '\0';
 2680              		.loc 3 752 0
 2681 0442 D7F89830 		ldr	r3, [r7, #152]
 2682 0446 5A68     		ldr	r2, [r3, #4]
 2683 0448 B7F8A030 		ldrh	r3, [r7, #160]
 2684 044c 9B00     		lsls	r3, r3, #2
 2685 044e 1344     		add	r3, r3, r2
 2686 0450 1A68     		ldr	r2, [r3]
 2687 0452 B7F89C30 		ldrh	r3, [r7, #156]
 2688 0456 1344     		add	r3, r3, r2
 2689 0458 0022     		movs	r2, #0
 2690 045a 1A70     		strb	r2, [r3]
 753:..\..\..\lvgl\version_6.1.2\lvgl\src\lv_objx/lv_table.c ****                             lv_txt_get_size(&txt_size, ext->cell_data[cell] + 1, cell_style.text.fo
 2691              		.loc 3 753 0
 2692 045c D7F89830 		ldr	r3, [r7, #152]
 2693 0460 5A68     		ldr	r2, [r3, #4]
 2694 0462 B7F8A030 		ldrh	r3, [r7, #160]
 2695 0466 9B00     		lsls	r3, r3, #2
 2696 0468 1344     		add	r3, r3, r2
 2697 046a 1B68     		ldr	r3, [r3]
 2698 046c 5D1C     		adds	r5, r3, #1
 2699 046e BE6C     		ldr	r6, [r7, #72]
 2700 0470 B7F94C80 		ldrsh	r8, [r7, #76]
 2701 0474 B7F94E40 		ldrsh	r4, [r7, #78]
 2702 0478 07F17803 		add	r3, r7, #120
 2703 047c 1846     		mov	r0, r3
 2704 047e FFF7FEFF 		bl	lv_area_get_width
 2705 0482 0346     		mov	r3, r0
 2706 0484 1A46     		mov	r2, r3
 2707 0486 07F18800 		add	r0, r7, #136
 2708 048a 97F8A730 		ldrb	r3, [r7, #167]	@ zero_extendqisi2
 2709 048e 0293     		str	r3, [sp, #8]
 2710 0490 0192     		str	r2, [sp, #4]
 2711 0492 0094     		str	r4, [sp]
 2712 0494 4346     		mov	r3, r8
 2713 0496 3246     		mov	r2, r6
 2714 0498 2946     		mov	r1, r5
 2715 049a FFF7FEFF 		bl	lv_txt_get_size
 754:..\..\..\lvgl\version_6.1.2\lvgl\src\lv_objx/lv_table.c ****                                             cell_style.text.letter_space, cell_style.text.line_spac
 755:..\..\..\lvgl\version_6.1.2\lvgl\src\lv_objx/lv_table.c ****                                             lv_area_get_width(&txt_area), txt_flags);
 756:..\..\..\lvgl\version_6.1.2\lvgl\src\lv_objx/lv_table.c **** 
 757:..\..\..\lvgl\version_6.1.2\lvgl\src\lv_objx/lv_table.c ****                             p1.y = txt_area.y1 + txt_size.y + cell_style.text.line_space / 2;
 2716              		.loc 3 757 0
 2717 049e B7F97A30 		ldrsh	r3, [r7, #122]
 2718 04a2 9AB2     		uxth	r2, r3
ARM GAS  C:\Users\tmj32\AppData\Local\Temp\ccIZw7Ef.s 			page 66


 2719 04a4 B7F98A30 		ldrsh	r3, [r7, #138]
 2720 04a8 9BB2     		uxth	r3, r3
 2721 04aa 1344     		add	r3, r3, r2
 2722 04ac 9AB2     		uxth	r2, r3
 2723 04ae B7F94E30 		ldrsh	r3, [r7, #78]
 2724 04b2 D90F     		lsrs	r1, r3, #31
 2725 04b4 0B44     		add	r3, r3, r1
 2726 04b6 5B10     		asrs	r3, r3, #1
 2727 04b8 1BB2     		sxth	r3, r3
 2728 04ba 9BB2     		uxth	r3, r3
 2729 04bc 1344     		add	r3, r3, r2
 2730 04be 9BB2     		uxth	r3, r3
 2731 04c0 1BB2     		sxth	r3, r3
 2732 04c2 A7F86A30 		strh	r3, [r7, #106]	@ movhi
 758:..\..\..\lvgl\version_6.1.2\lvgl\src\lv_objx/lv_table.c ****                             p2.y = txt_area.y1 + txt_size.y + cell_style.text.line_space / 2;
 2733              		.loc 3 758 0
 2734 04c6 B7F97A30 		ldrsh	r3, [r7, #122]
 2735 04ca 9AB2     		uxth	r2, r3
 2736 04cc B7F98A30 		ldrsh	r3, [r7, #138]
 2737 04d0 9BB2     		uxth	r3, r3
 2738 04d2 1344     		add	r3, r3, r2
 2739 04d4 9AB2     		uxth	r2, r3
 2740 04d6 B7F94E30 		ldrsh	r3, [r7, #78]
 2741 04da D90F     		lsrs	r1, r3, #31
 2742 04dc 0B44     		add	r3, r3, r1
 2743 04de 5B10     		asrs	r3, r3, #1
 2744 04e0 1BB2     		sxth	r3, r3
 2745 04e2 9BB2     		uxth	r3, r3
 2746 04e4 1344     		add	r3, r3, r2
 2747 04e6 9BB2     		uxth	r3, r3
 2748 04e8 1BB2     		sxth	r3, r3
 2749 04ea A7F86630 		strh	r3, [r7, #102]	@ movhi
 759:..\..\..\lvgl\version_6.1.2\lvgl\src\lv_objx/lv_table.c ****                             lv_draw_line(&p1, &p2, mask, &cell_style, opa_scale);
 2750              		.loc 3 759 0
 2751 04ee 07F11402 		add	r2, r7, #20
 2752 04f2 07F16401 		add	r1, r7, #100
 2753 04f6 07F16800 		add	r0, r7, #104
 2754 04fa 97F89330 		ldrb	r3, [r7, #147]	@ zero_extendqisi2
 2755 04fe 0093     		str	r3, [sp]
 2756 0500 1346     		mov	r3, r2
 2757 0502 BA68     		ldr	r2, [r7, #8]
 2758 0504 FFF7FEFF 		bl	lv_draw_line
 760:..\..\..\lvgl\version_6.1.2\lvgl\src\lv_objx/lv_table.c **** 
 761:..\..\..\lvgl\version_6.1.2\lvgl\src\lv_objx/lv_table.c ****                             ext->cell_data[cell][i] = '\n';
 2759              		.loc 3 761 0
 2760 0508 D7F89830 		ldr	r3, [r7, #152]
 2761 050c 5A68     		ldr	r2, [r3, #4]
 2762 050e B7F8A030 		ldrh	r3, [r7, #160]
 2763 0512 9B00     		lsls	r3, r3, #2
 2764 0514 1344     		add	r3, r3, r2
 2765 0516 1A68     		ldr	r2, [r3]
 2766 0518 B7F89C30 		ldrh	r3, [r7, #156]
 2767 051c 1344     		add	r3, r3, r2
 2768 051e 0A22     		movs	r2, #10
 2769 0520 1A70     		strb	r2, [r3]
 2770              	.L144:
 750:..\..\..\lvgl\version_6.1.2\lvgl\src\lv_objx/lv_table.c ****                         if(ext->cell_data[cell][i] == '\n') {
ARM GAS  C:\Users\tmj32\AppData\Local\Temp\ccIZw7Ef.s 			page 67


 2771              		.loc 3 750 0 discriminator 2
 2772 0522 B7F89C30 		ldrh	r3, [r7, #156]
 2773 0526 0133     		adds	r3, r3, #1
 2774 0528 A7F89C30 		strh	r3, [r7, #156]	@ movhi
 2775              	.L143:
 750:..\..\..\lvgl\version_6.1.2\lvgl\src\lv_objx/lv_table.c ****                         if(ext->cell_data[cell][i] == '\n') {
 2776              		.loc 3 750 0 is_stmt 0 discriminator 1
 2777 052c D7F89830 		ldr	r3, [r7, #152]
 2778 0530 5A68     		ldr	r2, [r3, #4]
 2779 0532 B7F8A030 		ldrh	r3, [r7, #160]
 2780 0536 9B00     		lsls	r3, r3, #2
 2781 0538 1344     		add	r3, r3, r2
 2782 053a 1A68     		ldr	r2, [r3]
 2783 053c B7F89C30 		ldrh	r3, [r7, #156]
 2784 0540 1344     		add	r3, r3, r2
 2785 0542 1B78     		ldrb	r3, [r3]	@ zero_extendqisi2
 2786 0544 002B     		cmp	r3, #0
 2787 0546 7FF46EAF 		bne	.L145
 2788              	.L134:
 2789              	.LBE12:
 762:..\..\..\lvgl\version_6.1.2\lvgl\src\lv_objx/lv_table.c ****                         }
 763:..\..\..\lvgl\version_6.1.2\lvgl\src\lv_objx/lv_table.c ****                     }
 764:..\..\..\lvgl\version_6.1.2\lvgl\src\lv_objx/lv_table.c ****                 }
 765:..\..\..\lvgl\version_6.1.2\lvgl\src\lv_objx/lv_table.c **** 
 766:..\..\..\lvgl\version_6.1.2\lvgl\src\lv_objx/lv_table.c ****                 cell += col_merge + 1;
 2790              		.loc 3 766 0 is_stmt 1 discriminator 2
 2791 054a B7F89E20 		ldrh	r2, [r7, #158]	@ movhi
 2792 054e B7F8A030 		ldrh	r3, [r7, #160]	@ movhi
 2793 0552 1344     		add	r3, r3, r2
 2794 0554 9BB2     		uxth	r3, r3
 2795 0556 0133     		adds	r3, r3, #1
 2796 0558 A7F8A030 		strh	r3, [r7, #160]	@ movhi
 767:..\..\..\lvgl\version_6.1.2\lvgl\src\lv_objx/lv_table.c ****                 col += col_merge;
 2797              		.loc 3 767 0 discriminator 2
 2798 055c B7F8A420 		ldrh	r2, [r7, #164]	@ movhi
 2799 0560 B7F89E30 		ldrh	r3, [r7, #158]	@ movhi
 2800 0564 1344     		add	r3, r3, r2
 2801 0566 A7F8A430 		strh	r3, [r7, #164]	@ movhi
 2802              	.LBE11:
 673:..\..\..\lvgl\version_6.1.2\lvgl\src\lv_objx/lv_table.c **** 
 2803              		.loc 3 673 0 discriminator 2
 2804 056a B7F8A430 		ldrh	r3, [r7, #164]
 2805 056e 0133     		adds	r3, r3, #1
 2806 0570 A7F8A430 		strh	r3, [r7, #164]	@ movhi
 2807              	.L125:
 673:..\..\..\lvgl\version_6.1.2\lvgl\src\lv_objx/lv_table.c **** 
 2808              		.loc 3 673 0 is_stmt 0 discriminator 1
 2809 0574 D7F89830 		ldr	r3, [r7, #152]
 2810 0578 1B88     		ldrh	r3, [r3]
 2811 057a B7F8A420 		ldrh	r2, [r7, #164]
 2812 057e 9A42     		cmp	r2, r3
 2813 0580 FFF4A9AD 		bcc	.L146
 665:..\..\..\lvgl\version_6.1.2\lvgl\src\lv_objx/lv_table.c ****             h_row = get_row_height(table, row);
 2814              		.loc 3 665 0 is_stmt 1 discriminator 2
 2815 0584 B7F8A230 		ldrh	r3, [r7, #162]
 2816 0588 0133     		adds	r3, r3, #1
 2817 058a A7F8A230 		strh	r3, [r7, #162]	@ movhi
ARM GAS  C:\Users\tmj32\AppData\Local\Temp\ccIZw7Ef.s 			page 68


 2818              	.L124:
 665:..\..\..\lvgl\version_6.1.2\lvgl\src\lv_objx/lv_table.c ****             h_row = get_row_height(table, row);
 2819              		.loc 3 665 0 is_stmt 0 discriminator 1
 2820 058e D7F89830 		ldr	r3, [r7, #152]
 2821 0592 5B88     		ldrh	r3, [r3, #2]
 2822 0594 B7F8A220 		ldrh	r2, [r7, #162]
 2823 0598 9A42     		cmp	r2, r3
 2824 059a FFF46DAD 		bcc	.L147
 2825              	.L123:
 2826              	.LBE10:
 768:..\..\..\lvgl\version_6.1.2\lvgl\src\lv_objx/lv_table.c ****             }
 769:..\..\..\lvgl\version_6.1.2\lvgl\src\lv_objx/lv_table.c ****         }
 770:..\..\..\lvgl\version_6.1.2\lvgl\src\lv_objx/lv_table.c ****     }
 771:..\..\..\lvgl\version_6.1.2\lvgl\src\lv_objx/lv_table.c ****     /*Post draw when the children are drawn*/
 772:..\..\..\lvgl\version_6.1.2\lvgl\src\lv_objx/lv_table.c ****     else if(mode == LV_DESIGN_DRAW_POST) {
 773:..\..\..\lvgl\version_6.1.2\lvgl\src\lv_objx/lv_table.c ****     }
 774:..\..\..\lvgl\version_6.1.2\lvgl\src\lv_objx/lv_table.c **** 
 775:..\..\..\lvgl\version_6.1.2\lvgl\src\lv_objx/lv_table.c ****     return true;
 2827              		.loc 3 775 0 is_stmt 1
 2828 059e 0123     		movs	r3, #1
 2829              	.L122:
 776:..\..\..\lvgl\version_6.1.2\lvgl\src\lv_objx/lv_table.c **** }
 2830              		.loc 3 776 0
 2831 05a0 1846     		mov	r0, r3
 2832 05a2 A837     		adds	r7, r7, #168
 2833              		.cfi_def_cfa_offset 24
 2834 05a4 BD46     		mov	sp, r7
 2835              		.cfi_def_cfa_register 13
 2836              		@ sp needed
 2837 05a6 BDE8F081 		pop	{r4, r5, r6, r7, r8, pc}
 2838              		.cfi_endproc
 2839              	.LFE52:
 2840              		.size	lv_table_design, .-lv_table_design
 2841 05aa 00BF     		.section	.rodata
 2842 0001 000000   		.align	2
 2843              	.LC1:
 2844 0004 6C765F74 		.ascii	"lv_table\000"
 2844      61626C65 
 2844      00
 2845              		.section	.text.lv_table_signal,"ax",%progbits
 2846              		.align	2
 2847              		.thumb
 2848              		.thumb_func
 2849              		.type	lv_table_signal, %function
 2850              	lv_table_signal:
 2851              	.LFB53:
 777:..\..\..\lvgl\version_6.1.2\lvgl\src\lv_objx/lv_table.c **** 
 778:..\..\..\lvgl\version_6.1.2\lvgl\src\lv_objx/lv_table.c **** /**
 779:..\..\..\lvgl\version_6.1.2\lvgl\src\lv_objx/lv_table.c ****  * Signal function of the table
 780:..\..\..\lvgl\version_6.1.2\lvgl\src\lv_objx/lv_table.c ****  * @param table pointer to a table object
 781:..\..\..\lvgl\version_6.1.2\lvgl\src\lv_objx/lv_table.c ****  * @param sign a signal type from lv_signal_t enum
 782:..\..\..\lvgl\version_6.1.2\lvgl\src\lv_objx/lv_table.c ****  * @param param pointer to a signal specific variable
 783:..\..\..\lvgl\version_6.1.2\lvgl\src\lv_objx/lv_table.c ****  * @return LV_RES_OK: the object is not deleted in the function; LV_RES_INV: the object is deleted
 784:..\..\..\lvgl\version_6.1.2\lvgl\src\lv_objx/lv_table.c ****  */
 785:..\..\..\lvgl\version_6.1.2\lvgl\src\lv_objx/lv_table.c **** static lv_res_t lv_table_signal(lv_obj_t * table, lv_signal_t sign, void * param)
 786:..\..\..\lvgl\version_6.1.2\lvgl\src\lv_objx/lv_table.c **** {
 2852              		.loc 3 786 0
ARM GAS  C:\Users\tmj32\AppData\Local\Temp\ccIZw7Ef.s 			page 69


 2853              		.cfi_startproc
 2854              		@ args = 0, pretend = 0, frame = 24
 2855              		@ frame_needed = 1, uses_anonymous_args = 0
 2856 0000 80B5     		push	{r7, lr}
 2857              		.cfi_def_cfa_offset 8
 2858              		.cfi_offset 7, -8
 2859              		.cfi_offset 14, -4
 2860 0002 86B0     		sub	sp, sp, #24
 2861              		.cfi_def_cfa_offset 32
 2862 0004 00AF     		add	r7, sp, #0
 2863              		.cfi_def_cfa_register 7
 2864 0006 F860     		str	r0, [r7, #12]
 2865 0008 0B46     		mov	r3, r1
 2866 000a 7A60     		str	r2, [r7, #4]
 2867 000c FB72     		strb	r3, [r7, #11]
 787:..\..\..\lvgl\version_6.1.2\lvgl\src\lv_objx/lv_table.c ****     lv_res_t res;
 788:..\..\..\lvgl\version_6.1.2\lvgl\src\lv_objx/lv_table.c **** 
 789:..\..\..\lvgl\version_6.1.2\lvgl\src\lv_objx/lv_table.c ****     /* Include the ancient signal function */
 790:..\..\..\lvgl\version_6.1.2\lvgl\src\lv_objx/lv_table.c ****     res = ancestor_signal(table, sign, param);
 2868              		.loc 3 790 0
 2869 000e 294B     		ldr	r3, .L160
 2870 0010 1B68     		ldr	r3, [r3]
 2871 0012 F97A     		ldrb	r1, [r7, #11]	@ zero_extendqisi2
 2872 0014 7A68     		ldr	r2, [r7, #4]
 2873 0016 F868     		ldr	r0, [r7, #12]
 2874 0018 9847     		blx	r3
 2875 001a 0346     		mov	r3, r0
 2876 001c 7B75     		strb	r3, [r7, #21]
 791:..\..\..\lvgl\version_6.1.2\lvgl\src\lv_objx/lv_table.c ****     if(res != LV_RES_OK) return res;
 2877              		.loc 3 791 0
 2878 001e 7B7D     		ldrb	r3, [r7, #21]	@ zero_extendqisi2
 2879 0020 012B     		cmp	r3, #1
 2880 0022 01D0     		beq	.L153
 2881              		.loc 3 791 0 is_stmt 0 discriminator 1
 2882 0024 7B7D     		ldrb	r3, [r7, #21]	@ zero_extendqisi2
 2883 0026 41E0     		b	.L154
 2884              	.L153:
 792:..\..\..\lvgl\version_6.1.2\lvgl\src\lv_objx/lv_table.c ****     if(sign == LV_SIGNAL_GET_TYPE) return lv_obj_handle_get_type_signal(param, LV_OBJX_NAME);
 2885              		.loc 3 792 0 is_stmt 1
 2886 0028 FB7A     		ldrb	r3, [r7, #11]	@ zero_extendqisi2
 2887 002a 072B     		cmp	r3, #7
 2888 002c 05D1     		bne	.L155
 2889              		.loc 3 792 0 is_stmt 0 discriminator 1
 2890 002e 2249     		ldr	r1, .L160+4
 2891 0030 7868     		ldr	r0, [r7, #4]
 2892 0032 FFF7FEFF 		bl	lv_obj_handle_get_type_signal
 2893 0036 0346     		mov	r3, r0
 2894 0038 38E0     		b	.L154
 2895              	.L155:
 793:..\..\..\lvgl\version_6.1.2\lvgl\src\lv_objx/lv_table.c **** 
 794:..\..\..\lvgl\version_6.1.2\lvgl\src\lv_objx/lv_table.c ****     if(sign == LV_SIGNAL_CLEANUP) {
 2896              		.loc 3 794 0 is_stmt 1
 2897 003a FB7A     		ldrb	r3, [r7, #11]	@ zero_extendqisi2
 2898 003c 002B     		cmp	r3, #0
 2899 003e 34D1     		bne	.L156
 2900              	.LBB13:
 795:..\..\..\lvgl\version_6.1.2\lvgl\src\lv_objx/lv_table.c ****         /*Free the cell texts*/
ARM GAS  C:\Users\tmj32\AppData\Local\Temp\ccIZw7Ef.s 			page 70


 796:..\..\..\lvgl\version_6.1.2\lvgl\src\lv_objx/lv_table.c ****         lv_table_ext_t * ext = lv_obj_get_ext_attr(table);
 2901              		.loc 3 796 0
 2902 0040 F868     		ldr	r0, [r7, #12]
 2903 0042 FFF7FEFF 		bl	lv_obj_get_ext_attr
 2904 0046 3861     		str	r0, [r7, #16]
 797:..\..\..\lvgl\version_6.1.2\lvgl\src\lv_objx/lv_table.c ****         uint16_t cell;
 798:..\..\..\lvgl\version_6.1.2\lvgl\src\lv_objx/lv_table.c ****         for(cell = 0; cell < ext->col_cnt * ext->row_cnt; cell++) {
 2905              		.loc 3 798 0
 2906 0048 0023     		movs	r3, #0
 2907 004a FB82     		strh	r3, [r7, #22]	@ movhi
 2908 004c 1AE0     		b	.L157
 2909              	.L159:
 799:..\..\..\lvgl\version_6.1.2\lvgl\src\lv_objx/lv_table.c ****             if(ext->cell_data[cell]) {
 2910              		.loc 3 799 0
 2911 004e 3B69     		ldr	r3, [r7, #16]
 2912 0050 5A68     		ldr	r2, [r3, #4]
 2913 0052 FB8A     		ldrh	r3, [r7, #22]
 2914 0054 9B00     		lsls	r3, r3, #2
 2915 0056 1344     		add	r3, r3, r2
 2916 0058 1B68     		ldr	r3, [r3]
 2917 005a 002B     		cmp	r3, #0
 2918 005c 0FD0     		beq	.L158
 800:..\..\..\lvgl\version_6.1.2\lvgl\src\lv_objx/lv_table.c ****                 lv_mem_free(ext->cell_data[cell]);
 2919              		.loc 3 800 0
 2920 005e 3B69     		ldr	r3, [r7, #16]
 2921 0060 5A68     		ldr	r2, [r3, #4]
 2922 0062 FB8A     		ldrh	r3, [r7, #22]
 2923 0064 9B00     		lsls	r3, r3, #2
 2924 0066 1344     		add	r3, r3, r2
 2925 0068 1B68     		ldr	r3, [r3]
 2926 006a 1846     		mov	r0, r3
 2927 006c FFF7FEFF 		bl	lv_mem_free
 801:..\..\..\lvgl\version_6.1.2\lvgl\src\lv_objx/lv_table.c ****                 ext->cell_data[cell] = NULL;
 2928              		.loc 3 801 0
 2929 0070 3B69     		ldr	r3, [r7, #16]
 2930 0072 5A68     		ldr	r2, [r3, #4]
 2931 0074 FB8A     		ldrh	r3, [r7, #22]
 2932 0076 9B00     		lsls	r3, r3, #2
 2933 0078 1344     		add	r3, r3, r2
 2934 007a 0022     		movs	r2, #0
 2935 007c 1A60     		str	r2, [r3]
 2936              	.L158:
 798:..\..\..\lvgl\version_6.1.2\lvgl\src\lv_objx/lv_table.c ****             if(ext->cell_data[cell]) {
 2937              		.loc 3 798 0 discriminator 2
 2938 007e FB8A     		ldrh	r3, [r7, #22]
 2939 0080 0133     		adds	r3, r3, #1
 2940 0082 FB82     		strh	r3, [r7, #22]	@ movhi
 2941              	.L157:
 798:..\..\..\lvgl\version_6.1.2\lvgl\src\lv_objx/lv_table.c ****             if(ext->cell_data[cell]) {
 2942              		.loc 3 798 0 is_stmt 0 discriminator 1
 2943 0084 FA8A     		ldrh	r2, [r7, #22]
 2944 0086 3B69     		ldr	r3, [r7, #16]
 2945 0088 1B88     		ldrh	r3, [r3]
 2946 008a 1946     		mov	r1, r3
 2947 008c 3B69     		ldr	r3, [r7, #16]
 2948 008e 5B88     		ldrh	r3, [r3, #2]
 2949 0090 03FB01F3 		mul	r3, r3, r1
ARM GAS  C:\Users\tmj32\AppData\Local\Temp\ccIZw7Ef.s 			page 71


 2950 0094 9A42     		cmp	r2, r3
 2951 0096 DADB     		blt	.L159
 802:..\..\..\lvgl\version_6.1.2\lvgl\src\lv_objx/lv_table.c ****             }
 803:..\..\..\lvgl\version_6.1.2\lvgl\src\lv_objx/lv_table.c ****         }
 804:..\..\..\lvgl\version_6.1.2\lvgl\src\lv_objx/lv_table.c ****         if(ext->cell_data != NULL)
 2952              		.loc 3 804 0 is_stmt 1
 2953 0098 3B69     		ldr	r3, [r7, #16]
 2954 009a 5B68     		ldr	r3, [r3, #4]
 2955 009c 002B     		cmp	r3, #0
 2956 009e 04D0     		beq	.L156
 805:..\..\..\lvgl\version_6.1.2\lvgl\src\lv_objx/lv_table.c ****             lv_mem_free(ext->cell_data);
 2957              		.loc 3 805 0
 2958 00a0 3B69     		ldr	r3, [r7, #16]
 2959 00a2 5B68     		ldr	r3, [r3, #4]
 2960 00a4 1846     		mov	r0, r3
 2961 00a6 FFF7FEFF 		bl	lv_mem_free
 2962              	.L156:
 2963              	.LBE13:
 806:..\..\..\lvgl\version_6.1.2\lvgl\src\lv_objx/lv_table.c ****     }
 807:..\..\..\lvgl\version_6.1.2\lvgl\src\lv_objx/lv_table.c **** 
 808:..\..\..\lvgl\version_6.1.2\lvgl\src\lv_objx/lv_table.c ****     return res;
 2964              		.loc 3 808 0
 2965 00aa 7B7D     		ldrb	r3, [r7, #21]	@ zero_extendqisi2
 2966              	.L154:
 809:..\..\..\lvgl\version_6.1.2\lvgl\src\lv_objx/lv_table.c **** }
 2967              		.loc 3 809 0
 2968 00ac 1846     		mov	r0, r3
 2969 00ae 1837     		adds	r7, r7, #24
 2970              		.cfi_def_cfa_offset 8
 2971 00b0 BD46     		mov	sp, r7
 2972              		.cfi_def_cfa_register 13
 2973              		@ sp needed
 2974 00b2 80BD     		pop	{r7, pc}
 2975              	.L161:
 2976              		.align	2
 2977              	.L160:
 2978 00b4 00000000 		.word	ancestor_signal
 2979 00b8 04000000 		.word	.LC1
 2980              		.cfi_endproc
 2981              	.LFE53:
 2982              		.size	lv_table_signal, .-lv_table_signal
 2983              		.section	.text.refr_size,"ax",%progbits
 2984              		.align	2
 2985              		.thumb
 2986              		.thumb_func
 2987              		.type	refr_size, %function
 2988              	refr_size:
 2989              	.LFB54:
 810:..\..\..\lvgl\version_6.1.2\lvgl\src\lv_objx/lv_table.c **** 
 811:..\..\..\lvgl\version_6.1.2\lvgl\src\lv_objx/lv_table.c **** static void refr_size(lv_obj_t * table)
 812:..\..\..\lvgl\version_6.1.2\lvgl\src\lv_objx/lv_table.c **** {
 2990              		.loc 3 812 0
 2991              		.cfi_startproc
 2992              		@ args = 0, pretend = 0, frame = 24
 2993              		@ frame_needed = 1, uses_anonymous_args = 0
 2994 0000 80B5     		push	{r7, lr}
 2995              		.cfi_def_cfa_offset 8
ARM GAS  C:\Users\tmj32\AppData\Local\Temp\ccIZw7Ef.s 			page 72


 2996              		.cfi_offset 7, -8
 2997              		.cfi_offset 14, -4
 2998 0002 86B0     		sub	sp, sp, #24
 2999              		.cfi_def_cfa_offset 32
 3000 0004 00AF     		add	r7, sp, #0
 3001              		.cfi_def_cfa_register 7
 3002 0006 7860     		str	r0, [r7, #4]
 813:..\..\..\lvgl\version_6.1.2\lvgl\src\lv_objx/lv_table.c ****     lv_coord_t h = 0;
 3003              		.loc 3 813 0
 3004 0008 0023     		movs	r3, #0
 3005 000a FB82     		strh	r3, [r7, #22]	@ movhi
 814:..\..\..\lvgl\version_6.1.2\lvgl\src\lv_objx/lv_table.c ****     lv_coord_t w = 0;
 3006              		.loc 3 814 0
 3007 000c 0023     		movs	r3, #0
 3008 000e BB82     		strh	r3, [r7, #20]	@ movhi
 815:..\..\..\lvgl\version_6.1.2\lvgl\src\lv_objx/lv_table.c **** 
 816:..\..\..\lvgl\version_6.1.2\lvgl\src\lv_objx/lv_table.c ****     lv_table_ext_t * ext = lv_obj_get_ext_attr(table);
 3009              		.loc 3 816 0
 3010 0010 7868     		ldr	r0, [r7, #4]
 3011 0012 FFF7FEFF 		bl	lv_obj_get_ext_attr
 3012 0016 F860     		str	r0, [r7, #12]
 817:..\..\..\lvgl\version_6.1.2\lvgl\src\lv_objx/lv_table.c **** 
 818:..\..\..\lvgl\version_6.1.2\lvgl\src\lv_objx/lv_table.c ****     uint16_t i;
 819:..\..\..\lvgl\version_6.1.2\lvgl\src\lv_objx/lv_table.c ****     for(i = 0; i < ext->col_cnt; i++) {
 3013              		.loc 3 819 0
 3014 0018 0023     		movs	r3, #0
 3015 001a 7B82     		strh	r3, [r7, #18]	@ movhi
 3016 001c 0CE0     		b	.L163
 3017              	.L164:
 820:..\..\..\lvgl\version_6.1.2\lvgl\src\lv_objx/lv_table.c ****         w += ext->col_w[i];
 3018              		.loc 3 820 0 discriminator 3
 3019 001e 7A8A     		ldrh	r2, [r7, #18]
 3020 0020 FB68     		ldr	r3, [r7, #12]
 3021 0022 0C32     		adds	r2, r2, #12
 3022 0024 33F91230 		ldrsh	r3, [r3, r2, lsl #1]
 3023 0028 9AB2     		uxth	r2, r3
 3024 002a BB8A     		ldrh	r3, [r7, #20]
 3025 002c 1344     		add	r3, r3, r2
 3026 002e 9BB2     		uxth	r3, r3
 3027 0030 BB82     		strh	r3, [r7, #20]	@ movhi
 819:..\..\..\lvgl\version_6.1.2\lvgl\src\lv_objx/lv_table.c ****         w += ext->col_w[i];
 3028              		.loc 3 819 0 discriminator 3
 3029 0032 7B8A     		ldrh	r3, [r7, #18]
 3030 0034 0133     		adds	r3, r3, #1
 3031 0036 7B82     		strh	r3, [r7, #18]	@ movhi
 3032              	.L163:
 819:..\..\..\lvgl\version_6.1.2\lvgl\src\lv_objx/lv_table.c ****         w += ext->col_w[i];
 3033              		.loc 3 819 0 is_stmt 0 discriminator 1
 3034 0038 FB68     		ldr	r3, [r7, #12]
 3035 003a 1B88     		ldrh	r3, [r3]
 3036 003c 7A8A     		ldrh	r2, [r7, #18]
 3037 003e 9A42     		cmp	r2, r3
 3038 0040 EDD3     		bcc	.L164
 821:..\..\..\lvgl\version_6.1.2\lvgl\src\lv_objx/lv_table.c ****     }
 822:..\..\..\lvgl\version_6.1.2\lvgl\src\lv_objx/lv_table.c ****     for(i = 0; i < ext->row_cnt; i++) {
 3039              		.loc 3 822 0 is_stmt 1
 3040 0042 0023     		movs	r3, #0
ARM GAS  C:\Users\tmj32\AppData\Local\Temp\ccIZw7Ef.s 			page 73


 3041 0044 7B82     		strh	r3, [r7, #18]	@ movhi
 3042 0046 0DE0     		b	.L165
 3043              	.L166:
 823:..\..\..\lvgl\version_6.1.2\lvgl\src\lv_objx/lv_table.c ****         h += get_row_height(table, i);
 3044              		.loc 3 823 0 discriminator 3
 3045 0048 7B8A     		ldrh	r3, [r7, #18]
 3046 004a 1946     		mov	r1, r3
 3047 004c 7868     		ldr	r0, [r7, #4]
 3048 004e FFF7FEFF 		bl	get_row_height
 3049 0052 0346     		mov	r3, r0
 3050 0054 9AB2     		uxth	r2, r3
 3051 0056 FB8A     		ldrh	r3, [r7, #22]
 3052 0058 1344     		add	r3, r3, r2
 3053 005a 9BB2     		uxth	r3, r3
 3054 005c FB82     		strh	r3, [r7, #22]	@ movhi
 822:..\..\..\lvgl\version_6.1.2\lvgl\src\lv_objx/lv_table.c ****         h += get_row_height(table, i);
 3055              		.loc 3 822 0 discriminator 3
 3056 005e 7B8A     		ldrh	r3, [r7, #18]
 3057 0060 0133     		adds	r3, r3, #1
 3058 0062 7B82     		strh	r3, [r7, #18]	@ movhi
 3059              	.L165:
 822:..\..\..\lvgl\version_6.1.2\lvgl\src\lv_objx/lv_table.c ****         h += get_row_height(table, i);
 3060              		.loc 3 822 0 is_stmt 0 discriminator 1
 3061 0064 FB68     		ldr	r3, [r7, #12]
 3062 0066 5B88     		ldrh	r3, [r3, #2]
 3063 0068 7A8A     		ldrh	r2, [r7, #18]
 3064 006a 9A42     		cmp	r2, r3
 3065 006c ECD3     		bcc	.L166
 824:..\..\..\lvgl\version_6.1.2\lvgl\src\lv_objx/lv_table.c ****     }
 825:..\..\..\lvgl\version_6.1.2\lvgl\src\lv_objx/lv_table.c **** 
 826:..\..\..\lvgl\version_6.1.2\lvgl\src\lv_objx/lv_table.c ****     const lv_style_t * bg_style = lv_obj_get_style(table);
 3066              		.loc 3 826 0 is_stmt 1
 3067 006e 7868     		ldr	r0, [r7, #4]
 3068 0070 FFF7FEFF 		bl	lv_obj_get_style
 3069 0074 B860     		str	r0, [r7, #8]
 827:..\..\..\lvgl\version_6.1.2\lvgl\src\lv_objx/lv_table.c **** 
 828:..\..\..\lvgl\version_6.1.2\lvgl\src\lv_objx/lv_table.c ****     w += bg_style->body.padding.left + bg_style->body.padding.right;
 3070              		.loc 3 828 0
 3071 0076 BB68     		ldr	r3, [r7, #8]
 3072 0078 B3F92430 		ldrsh	r3, [r3, #36]
 3073 007c 9AB2     		uxth	r2, r3
 3074 007e BB68     		ldr	r3, [r7, #8]
 3075 0080 B3F92630 		ldrsh	r3, [r3, #38]
 3076 0084 9BB2     		uxth	r3, r3
 3077 0086 1344     		add	r3, r3, r2
 3078 0088 9AB2     		uxth	r2, r3
 3079 008a BB8A     		ldrh	r3, [r7, #20]
 3080 008c 1344     		add	r3, r3, r2
 3081 008e 9BB2     		uxth	r3, r3
 3082 0090 BB82     		strh	r3, [r7, #20]	@ movhi
 829:..\..\..\lvgl\version_6.1.2\lvgl\src\lv_objx/lv_table.c ****     h += bg_style->body.padding.top + bg_style->body.padding.bottom;
 3083              		.loc 3 829 0
 3084 0092 BB68     		ldr	r3, [r7, #8]
 3085 0094 B3F92030 		ldrsh	r3, [r3, #32]
 3086 0098 9AB2     		uxth	r2, r3
 3087 009a BB68     		ldr	r3, [r7, #8]
 3088 009c B3F92230 		ldrsh	r3, [r3, #34]
ARM GAS  C:\Users\tmj32\AppData\Local\Temp\ccIZw7Ef.s 			page 74


 3089 00a0 9BB2     		uxth	r3, r3
 3090 00a2 1344     		add	r3, r3, r2
 3091 00a4 9AB2     		uxth	r2, r3
 3092 00a6 FB8A     		ldrh	r3, [r7, #22]
 3093 00a8 1344     		add	r3, r3, r2
 3094 00aa 9BB2     		uxth	r3, r3
 3095 00ac FB82     		strh	r3, [r7, #22]	@ movhi
 830:..\..\..\lvgl\version_6.1.2\lvgl\src\lv_objx/lv_table.c **** 
 831:..\..\..\lvgl\version_6.1.2\lvgl\src\lv_objx/lv_table.c ****     lv_obj_set_size(table, w + 1, h + 1);
 3096              		.loc 3 831 0
 3097 00ae BB8A     		ldrh	r3, [r7, #20]
 3098 00b0 0133     		adds	r3, r3, #1
 3099 00b2 9BB2     		uxth	r3, r3
 3100 00b4 19B2     		sxth	r1, r3
 3101 00b6 FB8A     		ldrh	r3, [r7, #22]
 3102 00b8 0133     		adds	r3, r3, #1
 3103 00ba 9BB2     		uxth	r3, r3
 3104 00bc 1BB2     		sxth	r3, r3
 3105 00be 1A46     		mov	r2, r3
 3106 00c0 7868     		ldr	r0, [r7, #4]
 3107 00c2 FFF7FEFF 		bl	lv_obj_set_size
 832:..\..\..\lvgl\version_6.1.2\lvgl\src\lv_objx/lv_table.c ****     lv_obj_invalidate(table);
 3108              		.loc 3 832 0
 3109 00c6 7868     		ldr	r0, [r7, #4]
 3110 00c8 FFF7FEFF 		bl	lv_obj_invalidate
 833:..\..\..\lvgl\version_6.1.2\lvgl\src\lv_objx/lv_table.c **** }
 3111              		.loc 3 833 0
 3112 00cc 00BF     		nop
 3113 00ce 1837     		adds	r7, r7, #24
 3114              		.cfi_def_cfa_offset 8
 3115 00d0 BD46     		mov	sp, r7
 3116              		.cfi_def_cfa_register 13
 3117              		@ sp needed
 3118 00d2 80BD     		pop	{r7, pc}
 3119              		.cfi_endproc
 3120              	.LFE54:
 3121              		.size	refr_size, .-refr_size
 3122              		.section	.text.get_row_height,"ax",%progbits
 3123              		.align	2
 3124              		.thumb
 3125              		.thumb_func
 3126              		.type	get_row_height, %function
 3127              	get_row_height:
 3128              	.LFB55:
 834:..\..\..\lvgl\version_6.1.2\lvgl\src\lv_objx/lv_table.c **** 
 835:..\..\..\lvgl\version_6.1.2\lvgl\src\lv_objx/lv_table.c **** static lv_coord_t get_row_height(lv_obj_t * table, uint16_t row_id)
 836:..\..\..\lvgl\version_6.1.2\lvgl\src\lv_objx/lv_table.c **** {
 3129              		.loc 3 836 0
 3130              		.cfi_startproc
 3131              		@ args = 0, pretend = 0, frame = 48
 3132              		@ frame_needed = 1, uses_anonymous_args = 0
 3133 0000 B0B5     		push	{r4, r5, r7, lr}
 3134              		.cfi_def_cfa_offset 16
 3135              		.cfi_offset 4, -16
 3136              		.cfi_offset 5, -12
 3137              		.cfi_offset 7, -8
 3138              		.cfi_offset 14, -4
ARM GAS  C:\Users\tmj32\AppData\Local\Temp\ccIZw7Ef.s 			page 75


 3139 0002 90B0     		sub	sp, sp, #64
 3140              		.cfi_def_cfa_offset 80
 3141 0004 04AF     		add	r7, sp, #16
 3142              		.cfi_def_cfa 7, 64
 3143 0006 7860     		str	r0, [r7, #4]
 3144 0008 0B46     		mov	r3, r1
 3145 000a 7B80     		strh	r3, [r7, #2]	@ movhi
 837:..\..\..\lvgl\version_6.1.2\lvgl\src\lv_objx/lv_table.c ****     lv_table_ext_t * ext = lv_obj_get_ext_attr(table);
 3146              		.loc 3 837 0
 3147 000c 7868     		ldr	r0, [r7, #4]
 3148 000e FFF7FEFF 		bl	lv_obj_get_ext_attr
 3149 0012 3862     		str	r0, [r7, #32]
 838:..\..\..\lvgl\version_6.1.2\lvgl\src\lv_objx/lv_table.c ****     lv_point_t txt_size;
 839:..\..\..\lvgl\version_6.1.2\lvgl\src\lv_objx/lv_table.c ****     lv_coord_t txt_w;
 840:..\..\..\lvgl\version_6.1.2\lvgl\src\lv_objx/lv_table.c ****     const lv_style_t * cell_style;
 841:..\..\..\lvgl\version_6.1.2\lvgl\src\lv_objx/lv_table.c **** 
 842:..\..\..\lvgl\version_6.1.2\lvgl\src\lv_objx/lv_table.c ****     uint16_t row_start = row_id * ext->col_cnt;
 3150              		.loc 3 842 0
 3151 0014 3B6A     		ldr	r3, [r7, #32]
 3152 0016 1B88     		ldrh	r3, [r3]
 3153 0018 7A88     		ldrh	r2, [r7, #2]	@ movhi
 3154 001a 12FB03F3 		smulbb	r3, r2, r3
 3155 001e FB83     		strh	r3, [r7, #30]	@ movhi
 843:..\..\..\lvgl\version_6.1.2\lvgl\src\lv_objx/lv_table.c ****     uint16_t cell;
 844:..\..\..\lvgl\version_6.1.2\lvgl\src\lv_objx/lv_table.c ****     uint16_t col;
 845:..\..\..\lvgl\version_6.1.2\lvgl\src\lv_objx/lv_table.c ****     lv_coord_t h_max = lv_font_get_line_height(ext->cell_style[0]->text.font) + ext->cell_style[0]-
 3156              		.loc 3 845 0
 3157 0020 3B6A     		ldr	r3, [r7, #32]
 3158 0022 9B68     		ldr	r3, [r3, #8]
 3159 0024 5B6B     		ldr	r3, [r3, #52]
 3160 0026 1846     		mov	r0, r3
 3161 0028 FFF7FEFF 		bl	lv_font_get_line_height
 3162 002c 0346     		mov	r3, r0
 3163 002e 9AB2     		uxth	r2, r3
 3164 0030 3B6A     		ldr	r3, [r7, #32]
 3165 0032 9B68     		ldr	r3, [r3, #8]
 3166 0034 B3F92030 		ldrsh	r3, [r3, #32]
 3167 0038 9BB2     		uxth	r3, r3
 3168 003a 1344     		add	r3, r3, r2
 3169 003c 9AB2     		uxth	r2, r3
 846:..\..\..\lvgl\version_6.1.2\lvgl\src\lv_objx/lv_table.c ****                        ext->cell_style[0]->body.padding.bottom;
 3170              		.loc 3 846 0
 3171 003e 3B6A     		ldr	r3, [r7, #32]
 3172 0040 9B68     		ldr	r3, [r3, #8]
 3173 0042 B3F92230 		ldrsh	r3, [r3, #34]
 845:..\..\..\lvgl\version_6.1.2\lvgl\src\lv_objx/lv_table.c ****                        ext->cell_style[0]->body.padding.bottom;
 3174              		.loc 3 845 0
 3175 0046 9BB2     		uxth	r3, r3
 3176 0048 1344     		add	r3, r3, r2
 3177 004a 9BB2     		uxth	r3, r3
 3178 004c 3B85     		strh	r3, [r7, #40]	@ movhi
 847:..\..\..\lvgl\version_6.1.2\lvgl\src\lv_objx/lv_table.c **** 
 848:..\..\..\lvgl\version_6.1.2\lvgl\src\lv_objx/lv_table.c ****     for(cell = row_start, col = 0; cell < row_start + ext->col_cnt; cell++, col++) {
 3179              		.loc 3 848 0
 3180 004e FB8B     		ldrh	r3, [r7, #30]	@ movhi
 3181 0050 BB85     		strh	r3, [r7, #44]	@ movhi
 3182 0052 0023     		movs	r3, #0
ARM GAS  C:\Users\tmj32\AppData\Local\Temp\ccIZw7Ef.s 			page 76


 3183 0054 7B85     		strh	r3, [r7, #42]	@ movhi
 3184 0056 D5E0     		b	.L168
 3185              	.L180:
 849:..\..\..\lvgl\version_6.1.2\lvgl\src\lv_objx/lv_table.c ****         if(ext->cell_data[cell] != NULL) {
 3186              		.loc 3 849 0
 3187 0058 3B6A     		ldr	r3, [r7, #32]
 3188 005a 5A68     		ldr	r2, [r3, #4]
 3189 005c BB8D     		ldrh	r3, [r7, #44]
 3190 005e 9B00     		lsls	r3, r3, #2
 3191 0060 1344     		add	r3, r3, r2
 3192 0062 1B68     		ldr	r3, [r3]
 3193 0064 002B     		cmp	r3, #0
 3194 0066 00F0C780 		beq	.L169
 3195              	.LBB14:
 850:..\..\..\lvgl\version_6.1.2\lvgl\src\lv_objx/lv_table.c **** 
 851:..\..\..\lvgl\version_6.1.2\lvgl\src\lv_objx/lv_table.c ****             txt_w              = ext->col_w[col];
 3196              		.loc 3 851 0
 3197 006a 7A8D     		ldrh	r2, [r7, #42]
 3198 006c 3B6A     		ldr	r3, [r7, #32]
 3199 006e 0C32     		adds	r2, r2, #12
 3200 0070 33F81230 		ldrh	r3, [r3, r2, lsl #1]	@ movhi
 3201 0074 FB85     		strh	r3, [r7, #46]	@ movhi
 852:..\..\..\lvgl\version_6.1.2\lvgl\src\lv_objx/lv_table.c ****             uint16_t col_merge = 0;
 3202              		.loc 3 852 0
 3203 0076 0023     		movs	r3, #0
 3204 0078 FB84     		strh	r3, [r7, #38]	@ movhi
 853:..\..\..\lvgl\version_6.1.2\lvgl\src\lv_objx/lv_table.c ****             for(col_merge = 0; col_merge + col < ext->col_cnt - 1; col_merge++) {
 3205              		.loc 3 853 0
 3206 007a 0023     		movs	r3, #0
 3207 007c FB84     		strh	r3, [r7, #38]	@ movhi
 3208 007e 29E0     		b	.L170
 3209              	.L175:
 854:..\..\..\lvgl\version_6.1.2\lvgl\src\lv_objx/lv_table.c **** 
 855:..\..\..\lvgl\version_6.1.2\lvgl\src\lv_objx/lv_table.c ****                 if(ext->cell_data[cell + col_merge] != NULL) {
 3210              		.loc 3 855 0
 3211 0080 3B6A     		ldr	r3, [r7, #32]
 3212 0082 5A68     		ldr	r2, [r3, #4]
 3213 0084 B98D     		ldrh	r1, [r7, #44]
 3214 0086 FB8C     		ldrh	r3, [r7, #38]
 3215 0088 0B44     		add	r3, r3, r1
 3216 008a 9B00     		lsls	r3, r3, #2
 3217 008c 1344     		add	r3, r3, r2
 3218 008e 1B68     		ldr	r3, [r3]
 3219 0090 002B     		cmp	r3, #0
 3220 0092 28D0     		beq	.L182
 3221              	.LBB15:
 856:..\..\..\lvgl\version_6.1.2\lvgl\src\lv_objx/lv_table.c ****                     lv_table_cell_format_t format;
 857:..\..\..\lvgl\version_6.1.2\lvgl\src\lv_objx/lv_table.c ****                     format.format_byte = ext->cell_data[cell + col_merge][0];
 3222              		.loc 3 857 0
 3223 0094 3B6A     		ldr	r3, [r7, #32]
 3224 0096 5A68     		ldr	r2, [r3, #4]
 3225 0098 B98D     		ldrh	r1, [r7, #44]
 3226 009a FB8C     		ldrh	r3, [r7, #38]
 3227 009c 0B44     		add	r3, r3, r1
 3228 009e 9B00     		lsls	r3, r3, #2
 3229 00a0 1344     		add	r3, r3, r2
 3230 00a2 1B68     		ldr	r3, [r3]
ARM GAS  C:\Users\tmj32\AppData\Local\Temp\ccIZw7Ef.s 			page 77


 3231 00a4 1B78     		ldrb	r3, [r3]	@ zero_extendqisi2
 3232 00a6 3B73     		strb	r3, [r7, #12]
 858:..\..\..\lvgl\version_6.1.2\lvgl\src\lv_objx/lv_table.c ****                     if(format.s.right_merge)
 3233              		.loc 3 858 0
 3234 00a8 3B7B     		ldrb	r3, [r7, #12]	@ zero_extendqisi2
 3235 00aa 03F00403 		and	r3, r3, #4
 3236 00ae DBB2     		uxtb	r3, r3
 3237 00b0 002B     		cmp	r3, #0
 3238 00b2 1AD0     		beq	.L183
 859:..\..\..\lvgl\version_6.1.2\lvgl\src\lv_objx/lv_table.c ****                         txt_w += ext->col_w[col + col_merge + 1];
 3239              		.loc 3 859 0
 3240 00b4 7A8D     		ldrh	r2, [r7, #42]
 3241 00b6 FB8C     		ldrh	r3, [r7, #38]
 3242 00b8 1344     		add	r3, r3, r2
 3243 00ba 5A1C     		adds	r2, r3, #1
 3244 00bc 3B6A     		ldr	r3, [r7, #32]
 3245 00be 0C32     		adds	r2, r2, #12
 3246 00c0 33F91230 		ldrsh	r3, [r3, r2, lsl #1]
 3247 00c4 9AB2     		uxth	r2, r3
 3248 00c6 FB8D     		ldrh	r3, [r7, #46]
 3249 00c8 1344     		add	r3, r3, r2
 3250 00ca 9BB2     		uxth	r3, r3
 3251 00cc FB85     		strh	r3, [r7, #46]	@ movhi
 3252              	.LBE15:
 853:..\..\..\lvgl\version_6.1.2\lvgl\src\lv_objx/lv_table.c **** 
 3253              		.loc 3 853 0
 3254 00ce FB8C     		ldrh	r3, [r7, #38]
 3255 00d0 0133     		adds	r3, r3, #1
 3256 00d2 FB84     		strh	r3, [r7, #38]	@ movhi
 3257              	.L170:
 853:..\..\..\lvgl\version_6.1.2\lvgl\src\lv_objx/lv_table.c **** 
 3258              		.loc 3 853 0 is_stmt 0 discriminator 1
 3259 00d4 FA8C     		ldrh	r2, [r7, #38]
 3260 00d6 7B8D     		ldrh	r3, [r7, #42]
 3261 00d8 1A44     		add	r2, r2, r3
 3262 00da 3B6A     		ldr	r3, [r7, #32]
 3263 00dc 1B88     		ldrh	r3, [r3]
 3264 00de 013B     		subs	r3, r3, #1
 3265 00e0 9A42     		cmp	r2, r3
 3266 00e2 CDDB     		blt	.L175
 3267 00e4 02E0     		b	.L174
 3268              	.L182:
 860:..\..\..\lvgl\version_6.1.2\lvgl\src\lv_objx/lv_table.c ****                     else
 861:..\..\..\lvgl\version_6.1.2\lvgl\src\lv_objx/lv_table.c ****                         break;
 862:..\..\..\lvgl\version_6.1.2\lvgl\src\lv_objx/lv_table.c ****                 } else {
 863:..\..\..\lvgl\version_6.1.2\lvgl\src\lv_objx/lv_table.c ****                     break;
 3269              		.loc 3 863 0 is_stmt 1
 3270 00e6 00BF     		nop
 3271 00e8 00E0     		b	.L174
 3272              	.L183:
 3273              	.LBB16:
 861:..\..\..\lvgl\version_6.1.2\lvgl\src\lv_objx/lv_table.c ****                 } else {
 3274              		.loc 3 861 0
 3275 00ea 00BF     		nop
 3276              	.L174:
 3277              	.LBE16:
 864:..\..\..\lvgl\version_6.1.2\lvgl\src\lv_objx/lv_table.c ****                 }
ARM GAS  C:\Users\tmj32\AppData\Local\Temp\ccIZw7Ef.s 			page 78


 865:..\..\..\lvgl\version_6.1.2\lvgl\src\lv_objx/lv_table.c ****             }
 866:..\..\..\lvgl\version_6.1.2\lvgl\src\lv_objx/lv_table.c **** 
 867:..\..\..\lvgl\version_6.1.2\lvgl\src\lv_objx/lv_table.c ****             lv_table_cell_format_t format;
 868:..\..\..\lvgl\version_6.1.2\lvgl\src\lv_objx/lv_table.c ****             format.format_byte = ext->cell_data[cell][0];
 3278              		.loc 3 868 0
 3279 00ec 3B6A     		ldr	r3, [r7, #32]
 3280 00ee 5A68     		ldr	r2, [r3, #4]
 3281 00f0 BB8D     		ldrh	r3, [r7, #44]
 3282 00f2 9B00     		lsls	r3, r3, #2
 3283 00f4 1344     		add	r3, r3, r2
 3284 00f6 1B68     		ldr	r3, [r3]
 3285 00f8 1B78     		ldrb	r3, [r3]	@ zero_extendqisi2
 3286 00fa 3B74     		strb	r3, [r7, #16]
 869:..\..\..\lvgl\version_6.1.2\lvgl\src\lv_objx/lv_table.c ****             cell_style         = ext->cell_style[format.s.type];
 3287              		.loc 3 869 0
 3288 00fc 3B7C     		ldrb	r3, [r7, #16]
 3289 00fe C3F3C103 		ubfx	r3, r3, #3, #2
 3290 0102 DBB2     		uxtb	r3, r3
 3291 0104 1A46     		mov	r2, r3
 3292 0106 3B6A     		ldr	r3, [r7, #32]
 3293 0108 0232     		adds	r2, r2, #2
 3294 010a 53F82230 		ldr	r3, [r3, r2, lsl #2]
 3295 010e BB61     		str	r3, [r7, #24]
 870:..\..\..\lvgl\version_6.1.2\lvgl\src\lv_objx/lv_table.c **** 
 871:..\..\..\lvgl\version_6.1.2\lvgl\src\lv_objx/lv_table.c ****             /*With text crop assume 1 line*/
 872:..\..\..\lvgl\version_6.1.2\lvgl\src\lv_objx/lv_table.c ****             if(format.s.crop) {
 3296              		.loc 3 872 0
 3297 0110 3B7C     		ldrb	r3, [r7, #16]	@ zero_extendqisi2
 3298 0112 03F02003 		and	r3, r3, #32
 3299 0116 DBB2     		uxtb	r3, r3
 3300 0118 002B     		cmp	r3, #0
 3301 011a 2BD0     		beq	.L176
 873:..\..\..\lvgl\version_6.1.2\lvgl\src\lv_objx/lv_table.c ****                 h_max = LV_MATH_MAX(lv_font_get_line_height(cell_style->text.font) + cell_style->bo
 3302              		.loc 3 873 0
 3303 011c BB69     		ldr	r3, [r7, #24]
 3304 011e 5B6B     		ldr	r3, [r3, #52]
 3305 0120 1846     		mov	r0, r3
 3306 0122 FFF7FEFF 		bl	lv_font_get_line_height
 3307 0126 0346     		mov	r3, r0
 3308 0128 1A46     		mov	r2, r3
 3309 012a BB69     		ldr	r3, [r7, #24]
 3310 012c B3F92030 		ldrsh	r3, [r3, #32]
 3311 0130 1344     		add	r3, r3, r2
 3312 0132 BA69     		ldr	r2, [r7, #24]
 3313 0134 B2F92220 		ldrsh	r2, [r2, #34]
 3314 0138 1A44     		add	r2, r2, r3
 3315 013a B7F92830 		ldrsh	r3, [r7, #40]
 3316 013e 9A42     		cmp	r2, r3
 3317 0140 14DD     		ble	.L177
 3318              		.loc 3 873 0 is_stmt 0 discriminator 1
 3319 0142 BB69     		ldr	r3, [r7, #24]
 3320 0144 5B6B     		ldr	r3, [r3, #52]
 3321 0146 1846     		mov	r0, r3
 3322 0148 FFF7FEFF 		bl	lv_font_get_line_height
 3323 014c 0346     		mov	r3, r0
 3324 014e 9AB2     		uxth	r2, r3
 3325 0150 BB69     		ldr	r3, [r7, #24]
ARM GAS  C:\Users\tmj32\AppData\Local\Temp\ccIZw7Ef.s 			page 79


 3326 0152 B3F92030 		ldrsh	r3, [r3, #32]
 3327 0156 9BB2     		uxth	r3, r3
 3328 0158 1344     		add	r3, r3, r2
 3329 015a 9AB2     		uxth	r2, r3
 3330 015c BB69     		ldr	r3, [r7, #24]
 3331 015e B3F92230 		ldrsh	r3, [r3, #34]
 3332 0162 9BB2     		uxth	r3, r3
 3333 0164 1344     		add	r3, r3, r2
 3334 0166 9BB2     		uxth	r3, r3
 3335 0168 1BB2     		sxth	r3, r3
 3336 016a 01E0     		b	.L178
 3337              	.L177:
 3338              		.loc 3 873 0 discriminator 2
 3339 016c B7F92830 		ldrsh	r3, [r7, #40]
 3340              	.L178:
 3341              		.loc 3 873 0 discriminator 4
 3342 0170 3B85     		strh	r3, [r7, #40]	@ movhi
 3343 0172 41E0     		b	.L169
 3344              	.L176:
 874:..\..\..\lvgl\version_6.1.2\lvgl\src\lv_objx/lv_table.c ****                                         cell_style->body.padding.bottom,
 875:..\..\..\lvgl\version_6.1.2\lvgl\src\lv_objx/lv_table.c ****                                     h_max);
 876:..\..\..\lvgl\version_6.1.2\lvgl\src\lv_objx/lv_table.c ****             }
 877:..\..\..\lvgl\version_6.1.2\lvgl\src\lv_objx/lv_table.c ****             /*Without text crop calculate the height of the text in the cell*/
 878:..\..\..\lvgl\version_6.1.2\lvgl\src\lv_objx/lv_table.c ****             else {
 879:..\..\..\lvgl\version_6.1.2\lvgl\src\lv_objx/lv_table.c ****                 txt_w -= cell_style->body.padding.left + cell_style->body.padding.right;
 3345              		.loc 3 879 0 is_stmt 1
 3346 0174 FA8D     		ldrh	r2, [r7, #46]
 3347 0176 BB69     		ldr	r3, [r7, #24]
 3348 0178 B3F92430 		ldrsh	r3, [r3, #36]
 3349 017c 99B2     		uxth	r1, r3
 3350 017e BB69     		ldr	r3, [r7, #24]
 3351 0180 B3F92630 		ldrsh	r3, [r3, #38]
 3352 0184 9BB2     		uxth	r3, r3
 3353 0186 0B44     		add	r3, r3, r1
 3354 0188 9BB2     		uxth	r3, r3
 3355 018a D31A     		subs	r3, r2, r3
 3356 018c 9BB2     		uxth	r3, r3
 3357 018e FB85     		strh	r3, [r7, #46]	@ movhi
 880:..\..\..\lvgl\version_6.1.2\lvgl\src\lv_objx/lv_table.c **** 
 881:..\..\..\lvgl\version_6.1.2\lvgl\src\lv_objx/lv_table.c ****                 lv_txt_get_size(&txt_size, ext->cell_data[cell] + 1, cell_style->text.font,
 3358              		.loc 3 881 0
 3359 0190 3B6A     		ldr	r3, [r7, #32]
 3360 0192 5A68     		ldr	r2, [r3, #4]
 3361 0194 BB8D     		ldrh	r3, [r7, #44]
 3362 0196 9B00     		lsls	r3, r3, #2
 3363 0198 1344     		add	r3, r3, r2
 3364 019a 1B68     		ldr	r3, [r3]
 3365 019c 591C     		adds	r1, r3, #1
 3366 019e BB69     		ldr	r3, [r7, #24]
 3367 01a0 5C6B     		ldr	r4, [r3, #52]
 3368 01a2 BB69     		ldr	r3, [r7, #24]
 3369 01a4 B3F93850 		ldrsh	r5, [r3, #56]
 3370 01a8 BB69     		ldr	r3, [r7, #24]
 3371 01aa B3F93A30 		ldrsh	r3, [r3, #58]
 3372 01ae 07F11400 		add	r0, r7, #20
 3373 01b2 0022     		movs	r2, #0
 3374 01b4 0292     		str	r2, [sp, #8]
ARM GAS  C:\Users\tmj32\AppData\Local\Temp\ccIZw7Ef.s 			page 80


