ARM GAS  C:\Users\tmj32\AppData\Local\Temp\ccIZw7Ef.s 			page 1


   1              		.syntax unified
   2              		.cpu cortex-m4
   3              		.eabi_attribute 27, 1
   4              		.fpu fpv4-sp-d16
   5              		.eabi_attribute 20, 1
   6              		.eabi_attribute 21, 1
   7              		.eabi_attribute 23, 3
   8              		.eabi_attribute 24, 1
   9              		.eabi_attribute 25, 1
  10              		.eabi_attribute 26, 1
  11              		.eabi_attribute 30, 6
  12              		.eabi_attribute 34, 1
  13              		.eabi_attribute 18, 4
  14              		.thumb
  15              		.syntax unified
  16              		.file	"lv_table.c"
  17              		.text
  18              	.Ltext0:
  19              		.cfi_sections	.debug_frame
  20              		.section	.text.lv_font_get_line_height,"ax",%progbits
  21              		.align	2
  22              		.thumb
  23              		.thumb_func
  24              		.type	lv_font_get_line_height, %function
  25              	lv_font_get_line_height:
  26              	.LFB0:
  27              		.file 1 "..\\..\\..\\lvgl\\version_6.1.2\\lvgl\\src\\lv_objx\\../lv_core/../lv_font/lv_font.h"
   1:..\..\..\lvgl\version_6.1.2\lvgl\src\lv_objx\../lv_core/../lv_font/lv_font.h **** /**
   2:..\..\..\lvgl\version_6.1.2\lvgl\src\lv_objx\../lv_core/../lv_font/lv_font.h ****  * @file lv_font.h
   3:..\..\..\lvgl\version_6.1.2\lvgl\src\lv_objx\../lv_core/../lv_font/lv_font.h ****  *
   4:..\..\..\lvgl\version_6.1.2\lvgl\src\lv_objx\../lv_core/../lv_font/lv_font.h ****  */
   5:..\..\..\lvgl\version_6.1.2\lvgl\src\lv_objx\../lv_core/../lv_font/lv_font.h **** 
   6:..\..\..\lvgl\version_6.1.2\lvgl\src\lv_objx\../lv_core/../lv_font/lv_font.h **** #ifndef LV_FONT_H
   7:..\..\..\lvgl\version_6.1.2\lvgl\src\lv_objx\../lv_core/../lv_font/lv_font.h **** #define LV_FONT_H
   8:..\..\..\lvgl\version_6.1.2\lvgl\src\lv_objx\../lv_core/../lv_font/lv_font.h **** 
   9:..\..\..\lvgl\version_6.1.2\lvgl\src\lv_objx\../lv_core/../lv_font/lv_font.h **** #ifdef __cplusplus
  10:..\..\..\lvgl\version_6.1.2\lvgl\src\lv_objx\../lv_core/../lv_font/lv_font.h **** extern "C" {
  11:..\..\..\lvgl\version_6.1.2\lvgl\src\lv_objx\../lv_core/../lv_font/lv_font.h **** #endif
  12:..\..\..\lvgl\version_6.1.2\lvgl\src\lv_objx\../lv_core/../lv_font/lv_font.h **** 
  13:..\..\..\lvgl\version_6.1.2\lvgl\src\lv_objx\../lv_core/../lv_font/lv_font.h **** /*********************
  14:..\..\..\lvgl\version_6.1.2\lvgl\src\lv_objx\../lv_core/../lv_font/lv_font.h ****  *      INCLUDES
  15:..\..\..\lvgl\version_6.1.2\lvgl\src\lv_objx\../lv_core/../lv_font/lv_font.h ****  *********************/
  16:..\..\..\lvgl\version_6.1.2\lvgl\src\lv_objx\../lv_core/../lv_font/lv_font.h **** #ifdef LV_CONF_INCLUDE_SIMPLE
  17:..\..\..\lvgl\version_6.1.2\lvgl\src\lv_objx\../lv_core/../lv_font/lv_font.h **** #include "lv_conf.h"
  18:..\..\..\lvgl\version_6.1.2\lvgl\src\lv_objx\../lv_core/../lv_font/lv_font.h **** #else
  19:..\..\..\lvgl\version_6.1.2\lvgl\src\lv_objx\../lv_core/../lv_font/lv_font.h **** #include "../../../lv_conf.h"
  20:..\..\..\lvgl\version_6.1.2\lvgl\src\lv_objx\../lv_core/../lv_font/lv_font.h **** #endif
  21:..\..\..\lvgl\version_6.1.2\lvgl\src\lv_objx\../lv_core/../lv_font/lv_font.h **** 
  22:..\..\..\lvgl\version_6.1.2\lvgl\src\lv_objx\../lv_core/../lv_font/lv_font.h **** #include <stdint.h>
  23:..\..\..\lvgl\version_6.1.2\lvgl\src\lv_objx\../lv_core/../lv_font/lv_font.h **** #include <stddef.h>
  24:..\..\..\lvgl\version_6.1.2\lvgl\src\lv_objx\../lv_core/../lv_font/lv_font.h **** #include <stdbool.h>
  25:..\..\..\lvgl\version_6.1.2\lvgl\src\lv_objx\../lv_core/../lv_font/lv_font.h **** 
  26:..\..\..\lvgl\version_6.1.2\lvgl\src\lv_objx\../lv_core/../lv_font/lv_font.h **** #include "lv_symbol_def.h"
  27:..\..\..\lvgl\version_6.1.2\lvgl\src\lv_objx\../lv_core/../lv_font/lv_font.h **** 
  28:..\..\..\lvgl\version_6.1.2\lvgl\src\lv_objx\../lv_core/../lv_font/lv_font.h **** /*********************
  29:..\..\..\lvgl\version_6.1.2\lvgl\src\lv_objx\../lv_core/../lv_font/lv_font.h ****  *      DEFINES
  30:..\..\..\lvgl\version_6.1.2\lvgl\src\lv_objx\../lv_core/../lv_font/lv_font.h ****  *********************/
ARM GAS  C:\Users\tmj32\AppData\Local\Temp\ccIZw7Ef.s 			page 2


  31:..\..\..\lvgl\version_6.1.2\lvgl\src\lv_objx\../lv_core/../lv_font/lv_font.h **** /*Number of fractional digits in the advanced width (`adv_w`) field of `lv_font_glyph_dsc_t`*/
  32:..\..\..\lvgl\version_6.1.2\lvgl\src\lv_objx\../lv_core/../lv_font/lv_font.h **** #define LV_FONT_WIDTH_FRACT_DIGIT       4
  33:..\..\..\lvgl\version_6.1.2\lvgl\src\lv_objx\../lv_core/../lv_font/lv_font.h **** 
  34:..\..\..\lvgl\version_6.1.2\lvgl\src\lv_objx\../lv_core/../lv_font/lv_font.h **** #define LV_FONT_KERN_POSITIVE        0
  35:..\..\..\lvgl\version_6.1.2\lvgl\src\lv_objx\../lv_core/../lv_font/lv_font.h **** #define LV_FONT_KERN_NEGATIVE        1
  36:..\..\..\lvgl\version_6.1.2\lvgl\src\lv_objx\../lv_core/../lv_font/lv_font.h **** 
  37:..\..\..\lvgl\version_6.1.2\lvgl\src\lv_objx\../lv_core/../lv_font/lv_font.h **** /**********************
  38:..\..\..\lvgl\version_6.1.2\lvgl\src\lv_objx\../lv_core/../lv_font/lv_font.h ****  *      TYPEDEFS
  39:..\..\..\lvgl\version_6.1.2\lvgl\src\lv_objx\../lv_core/../lv_font/lv_font.h ****  **********************/
  40:..\..\..\lvgl\version_6.1.2\lvgl\src\lv_objx\../lv_core/../lv_font/lv_font.h **** 
  41:..\..\..\lvgl\version_6.1.2\lvgl\src\lv_objx\../lv_core/../lv_font/lv_font.h **** /*------------------
  42:..\..\..\lvgl\version_6.1.2\lvgl\src\lv_objx\../lv_core/../lv_font/lv_font.h ****  * General types
  43:..\..\..\lvgl\version_6.1.2\lvgl\src\lv_objx\../lv_core/../lv_font/lv_font.h ****  *-----------------*/
  44:..\..\..\lvgl\version_6.1.2\lvgl\src\lv_objx\../lv_core/../lv_font/lv_font.h **** 
  45:..\..\..\lvgl\version_6.1.2\lvgl\src\lv_objx\../lv_core/../lv_font/lv_font.h **** /** Describes the properties of a glyph. */
  46:..\..\..\lvgl\version_6.1.2\lvgl\src\lv_objx\../lv_core/../lv_font/lv_font.h **** typedef struct
  47:..\..\..\lvgl\version_6.1.2\lvgl\src\lv_objx\../lv_core/../lv_font/lv_font.h **** {
  48:..\..\..\lvgl\version_6.1.2\lvgl\src\lv_objx\../lv_core/../lv_font/lv_font.h ****     uint16_t adv_w; /**< The glyph needs this space. Draw the next glyph after this width. 8 bit in
  49:..\..\..\lvgl\version_6.1.2\lvgl\src\lv_objx\../lv_core/../lv_font/lv_font.h ****     uint8_t box_w;  /**< Width of the glyph's bounding box*/
  50:..\..\..\lvgl\version_6.1.2\lvgl\src\lv_objx\../lv_core/../lv_font/lv_font.h ****     uint8_t box_h;  /**< Height of the glyph's bounding box*/
  51:..\..\..\lvgl\version_6.1.2\lvgl\src\lv_objx\../lv_core/../lv_font/lv_font.h ****     int8_t ofs_x;   /**< x offset of the bounding box*/
  52:..\..\..\lvgl\version_6.1.2\lvgl\src\lv_objx\../lv_core/../lv_font/lv_font.h ****     int8_t ofs_y;  /**< y offset of the bounding box*/
  53:..\..\..\lvgl\version_6.1.2\lvgl\src\lv_objx\../lv_core/../lv_font/lv_font.h ****     uint8_t bpp;   /**< Bit-per-pixel: 1, 2, 4, 8*/
  54:..\..\..\lvgl\version_6.1.2\lvgl\src\lv_objx\../lv_core/../lv_font/lv_font.h **** }lv_font_glyph_dsc_t;
  55:..\..\..\lvgl\version_6.1.2\lvgl\src\lv_objx\../lv_core/../lv_font/lv_font.h **** 
  56:..\..\..\lvgl\version_6.1.2\lvgl\src\lv_objx\../lv_core/../lv_font/lv_font.h **** 
  57:..\..\..\lvgl\version_6.1.2\lvgl\src\lv_objx\../lv_core/../lv_font/lv_font.h **** /** The bitmaps might be upscaled by 3 to achieve subpixel rendering. */
  58:..\..\..\lvgl\version_6.1.2\lvgl\src\lv_objx\../lv_core/../lv_font/lv_font.h **** enum {
  59:..\..\..\lvgl\version_6.1.2\lvgl\src\lv_objx\../lv_core/../lv_font/lv_font.h ****     LV_FONT_SUBPX_NONE,
  60:..\..\..\lvgl\version_6.1.2\lvgl\src\lv_objx\../lv_core/../lv_font/lv_font.h ****     LV_FONT_SUBPX_HOR,
  61:..\..\..\lvgl\version_6.1.2\lvgl\src\lv_objx\../lv_core/../lv_font/lv_font.h ****     LV_FONT_SUBPX_VER,
  62:..\..\..\lvgl\version_6.1.2\lvgl\src\lv_objx\../lv_core/../lv_font/lv_font.h ****     LV_FONT_SUBPX_BOTH,
  63:..\..\..\lvgl\version_6.1.2\lvgl\src\lv_objx\../lv_core/../lv_font/lv_font.h **** };
  64:..\..\..\lvgl\version_6.1.2\lvgl\src\lv_objx\../lv_core/../lv_font/lv_font.h **** 
  65:..\..\..\lvgl\version_6.1.2\lvgl\src\lv_objx\../lv_core/../lv_font/lv_font.h **** typedef uint8_t lv_font_subpx_t;
  66:..\..\..\lvgl\version_6.1.2\lvgl\src\lv_objx\../lv_core/../lv_font/lv_font.h **** 
  67:..\..\..\lvgl\version_6.1.2\lvgl\src\lv_objx\../lv_core/../lv_font/lv_font.h **** /** Describe the properties of a font*/
  68:..\..\..\lvgl\version_6.1.2\lvgl\src\lv_objx\../lv_core/../lv_font/lv_font.h **** typedef struct _lv_font_struct
  69:..\..\..\lvgl\version_6.1.2\lvgl\src\lv_objx\../lv_core/../lv_font/lv_font.h **** {
  70:..\..\..\lvgl\version_6.1.2\lvgl\src\lv_objx\../lv_core/../lv_font/lv_font.h ****     /** Get a glyph's  descriptor from a font*/
  71:..\..\..\lvgl\version_6.1.2\lvgl\src\lv_objx\../lv_core/../lv_font/lv_font.h ****     bool (*get_glyph_dsc)(const struct _lv_font_struct *, lv_font_glyph_dsc_t *, uint32_t letter, u
  72:..\..\..\lvgl\version_6.1.2\lvgl\src\lv_objx\../lv_core/../lv_font/lv_font.h **** 
  73:..\..\..\lvgl\version_6.1.2\lvgl\src\lv_objx\../lv_core/../lv_font/lv_font.h ****     /** Get a glyph's bitmap from a font*/
  74:..\..\..\lvgl\version_6.1.2\lvgl\src\lv_objx\../lv_core/../lv_font/lv_font.h ****     const uint8_t * (*get_glyph_bitmap)(const struct _lv_font_struct *, uint32_t);
  75:..\..\..\lvgl\version_6.1.2\lvgl\src\lv_objx\../lv_core/../lv_font/lv_font.h **** 
  76:..\..\..\lvgl\version_6.1.2\lvgl\src\lv_objx\../lv_core/../lv_font/lv_font.h ****     /*Pointer to the font in a font pack (must have the same line height)*/
  77:..\..\..\lvgl\version_6.1.2\lvgl\src\lv_objx\../lv_core/../lv_font/lv_font.h ****     uint8_t line_height;      /**< The real line height where any text fits*/
  78:..\..\..\lvgl\version_6.1.2\lvgl\src\lv_objx\../lv_core/../lv_font/lv_font.h ****     int8_t base_line;        /**< Base line measured from the top of the line_height*/
  79:..\..\..\lvgl\version_6.1.2\lvgl\src\lv_objx\../lv_core/../lv_font/lv_font.h ****     uint8_t subpx  :2;        /**< An element of `lv_font_subpx_t`*/
  80:..\..\..\lvgl\version_6.1.2\lvgl\src\lv_objx\../lv_core/../lv_font/lv_font.h ****     void * dsc;               /**< Store implementation specific or run_time data or caching here*/
  81:..\..\..\lvgl\version_6.1.2\lvgl\src\lv_objx\../lv_core/../lv_font/lv_font.h **** #if LV_USE_USER_DATA
  82:..\..\..\lvgl\version_6.1.2\lvgl\src\lv_objx\../lv_core/../lv_font/lv_font.h ****     lv_font_user_data_t user_data; /**< Custom user data for font. */
  83:..\..\..\lvgl\version_6.1.2\lvgl\src\lv_objx\../lv_core/../lv_font/lv_font.h **** #endif
  84:..\..\..\lvgl\version_6.1.2\lvgl\src\lv_objx\../lv_core/../lv_font/lv_font.h **** 
  85:..\..\..\lvgl\version_6.1.2\lvgl\src\lv_objx\../lv_core/../lv_font/lv_font.h **** 
  86:..\..\..\lvgl\version_6.1.2\lvgl\src\lv_objx\../lv_core/../lv_font/lv_font.h **** } lv_font_t;
  87:..\..\..\lvgl\version_6.1.2\lvgl\src\lv_objx\../lv_core/../lv_font/lv_font.h **** 
ARM GAS  C:\Users\tmj32\AppData\Local\Temp\ccIZw7Ef.s 			page 3


  88:..\..\..\lvgl\version_6.1.2\lvgl\src\lv_objx\../lv_core/../lv_font/lv_font.h **** /**********************
  89:..\..\..\lvgl\version_6.1.2\lvgl\src\lv_objx\../lv_core/../lv_font/lv_font.h ****  * GLOBAL PROTOTYPES
  90:..\..\..\lvgl\version_6.1.2\lvgl\src\lv_objx\../lv_core/../lv_font/lv_font.h ****  **********************/
  91:..\..\..\lvgl\version_6.1.2\lvgl\src\lv_objx\../lv_core/../lv_font/lv_font.h **** 
  92:..\..\..\lvgl\version_6.1.2\lvgl\src\lv_objx\../lv_core/../lv_font/lv_font.h **** /**
  93:..\..\..\lvgl\version_6.1.2\lvgl\src\lv_objx\../lv_core/../lv_font/lv_font.h ****  * Return with the bitmap of a font.
  94:..\..\..\lvgl\version_6.1.2\lvgl\src\lv_objx\../lv_core/../lv_font/lv_font.h ****  * @param font_p pointer to a font
  95:..\..\..\lvgl\version_6.1.2\lvgl\src\lv_objx\../lv_core/../lv_font/lv_font.h ****  * @param letter an UNICODE character code
  96:..\..\..\lvgl\version_6.1.2\lvgl\src\lv_objx\../lv_core/../lv_font/lv_font.h ****  * @return  pointer to the bitmap of the letter
  97:..\..\..\lvgl\version_6.1.2\lvgl\src\lv_objx\../lv_core/../lv_font/lv_font.h ****  */
  98:..\..\..\lvgl\version_6.1.2\lvgl\src\lv_objx\../lv_core/../lv_font/lv_font.h **** const uint8_t * lv_font_get_glyph_bitmap(const lv_font_t * font_p, uint32_t letter);
  99:..\..\..\lvgl\version_6.1.2\lvgl\src\lv_objx\../lv_core/../lv_font/lv_font.h **** 
 100:..\..\..\lvgl\version_6.1.2\lvgl\src\lv_objx\../lv_core/../lv_font/lv_font.h **** /**
 101:..\..\..\lvgl\version_6.1.2\lvgl\src\lv_objx\../lv_core/../lv_font/lv_font.h ****  * Get the descriptor of a glyph
 102:..\..\..\lvgl\version_6.1.2\lvgl\src\lv_objx\../lv_core/../lv_font/lv_font.h ****  * @param font_p pointer to font
 103:..\..\..\lvgl\version_6.1.2\lvgl\src\lv_objx\../lv_core/../lv_font/lv_font.h ****  * @param dsc_out store the result descriptor here
 104:..\..\..\lvgl\version_6.1.2\lvgl\src\lv_objx\../lv_core/../lv_font/lv_font.h ****  * @param letter an UNICODE letter code
 105:..\..\..\lvgl\version_6.1.2\lvgl\src\lv_objx\../lv_core/../lv_font/lv_font.h ****  * @return true: descriptor is successfully loaded into `dsc_out`.
 106:..\..\..\lvgl\version_6.1.2\lvgl\src\lv_objx\../lv_core/../lv_font/lv_font.h ****  *         false: the letter was not found, no data is loaded to `dsc_out`
 107:..\..\..\lvgl\version_6.1.2\lvgl\src\lv_objx\../lv_core/../lv_font/lv_font.h ****  */
 108:..\..\..\lvgl\version_6.1.2\lvgl\src\lv_objx\../lv_core/../lv_font/lv_font.h **** bool lv_font_get_glyph_dsc(const lv_font_t * font_p, lv_font_glyph_dsc_t * dsc_out, uint32_t letter
 109:..\..\..\lvgl\version_6.1.2\lvgl\src\lv_objx\../lv_core/../lv_font/lv_font.h **** 
 110:..\..\..\lvgl\version_6.1.2\lvgl\src\lv_objx\../lv_core/../lv_font/lv_font.h **** /**
 111:..\..\..\lvgl\version_6.1.2\lvgl\src\lv_objx\../lv_core/../lv_font/lv_font.h ****  * Get the width of a glyph with kerning
 112:..\..\..\lvgl\version_6.1.2\lvgl\src\lv_objx\../lv_core/../lv_font/lv_font.h ****  * @param font pointer to a font
 113:..\..\..\lvgl\version_6.1.2\lvgl\src\lv_objx\../lv_core/../lv_font/lv_font.h ****  * @param letter an UNICODE letter
 114:..\..\..\lvgl\version_6.1.2\lvgl\src\lv_objx\../lv_core/../lv_font/lv_font.h ****  * @param letter_next the next letter after `letter`. Used for kerning
 115:..\..\..\lvgl\version_6.1.2\lvgl\src\lv_objx\../lv_core/../lv_font/lv_font.h ****  * @return the width of the glyph
 116:..\..\..\lvgl\version_6.1.2\lvgl\src\lv_objx\../lv_core/../lv_font/lv_font.h ****  */
 117:..\..\..\lvgl\version_6.1.2\lvgl\src\lv_objx\../lv_core/../lv_font/lv_font.h **** uint16_t lv_font_get_glyph_width(const lv_font_t * font, uint32_t letter, uint32_t letter_next);
 118:..\..\..\lvgl\version_6.1.2\lvgl\src\lv_objx\../lv_core/../lv_font/lv_font.h **** 
 119:..\..\..\lvgl\version_6.1.2\lvgl\src\lv_objx\../lv_core/../lv_font/lv_font.h **** /**
 120:..\..\..\lvgl\version_6.1.2\lvgl\src\lv_objx\../lv_core/../lv_font/lv_font.h ****  * Get the line height of a font. All characters fit into this height
 121:..\..\..\lvgl\version_6.1.2\lvgl\src\lv_objx\../lv_core/../lv_font/lv_font.h ****  * @param font_p pointer to a font
 122:..\..\..\lvgl\version_6.1.2\lvgl\src\lv_objx\../lv_core/../lv_font/lv_font.h ****  * @return the height of a font
 123:..\..\..\lvgl\version_6.1.2\lvgl\src\lv_objx\../lv_core/../lv_font/lv_font.h ****  */
 124:..\..\..\lvgl\version_6.1.2\lvgl\src\lv_objx\../lv_core/../lv_font/lv_font.h **** static inline uint8_t lv_font_get_line_height(const lv_font_t * font_p)
 125:..\..\..\lvgl\version_6.1.2\lvgl\src\lv_objx\../lv_core/../lv_font/lv_font.h **** {
  28              		.loc 1 125 0
  29              		.cfi_startproc
  30              		@ args = 0, pretend = 0, frame = 8
  31              		@ frame_needed = 1, uses_anonymous_args = 0
  32              		@ link register save eliminated.
  33 0000 80B4     		push	{r7}
  34              		.cfi_def_cfa_offset 4
  35              		.cfi_offset 7, -4
  36 0002 83B0     		sub	sp, sp, #12
  37              		.cfi_def_cfa_offset 16
  38 0004 00AF     		add	r7, sp, #0
  39              		.cfi_def_cfa_register 7
  40 0006 7860     		str	r0, [r7, #4]
 126:..\..\..\lvgl\version_6.1.2\lvgl\src\lv_objx\../lv_core/../lv_font/lv_font.h ****     return font_p->line_height;
  41              		.loc 1 126 0
  42 0008 7B68     		ldr	r3, [r7, #4]
  43 000a 1B7A     		ldrb	r3, [r3, #8]	@ zero_extendqisi2
 127:..\..\..\lvgl\version_6.1.2\lvgl\src\lv_objx\../lv_core/../lv_font/lv_font.h **** }
  44              		.loc 1 127 0
ARM GAS  C:\Users\tmj32\AppData\Local\Temp\ccIZw7Ef.s 			page 4


  45 000c 1846     		mov	r0, r3
  46 000e 0C37     		adds	r7, r7, #12
  47              		.cfi_def_cfa_offset 4
  48 0010 BD46     		mov	sp, r7
  49              		.cfi_def_cfa_register 13
  50              		@ sp needed
  51 0012 5DF8047B 		ldr	r7, [sp], #4
  52              		.cfi_restore 7
  53              		.cfi_def_cfa_offset 0
  54 0016 7047     		bx	lr
  55              		.cfi_endproc
  56              	.LFE0:
  57              		.size	lv_font_get_line_height, .-lv_font_get_line_height
  58              		.section	.text.lv_area_get_width,"ax",%progbits
  59              		.align	2
  60              		.thumb
  61              		.thumb_func
  62              		.type	lv_area_get_width, %function
  63              	lv_area_get_width:
  64              	.LFB11:
  65              		.file 2 "..\\..\\..\\lvgl\\version_6.1.2\\lvgl\\src\\lv_objx\\../lv_core/../lv_misc/lv_area.h"
   1:..\..\..\lvgl\version_6.1.2\lvgl\src\lv_objx\../lv_core/../lv_misc/lv_area.h **** /**
   2:..\..\..\lvgl\version_6.1.2\lvgl\src\lv_objx\../lv_core/../lv_misc/lv_area.h ****  * @file lv_area.h
   3:..\..\..\lvgl\version_6.1.2\lvgl\src\lv_objx\../lv_core/../lv_misc/lv_area.h ****  *
   4:..\..\..\lvgl\version_6.1.2\lvgl\src\lv_objx\../lv_core/../lv_misc/lv_area.h ****  */
   5:..\..\..\lvgl\version_6.1.2\lvgl\src\lv_objx\../lv_core/../lv_misc/lv_area.h **** 
   6:..\..\..\lvgl\version_6.1.2\lvgl\src\lv_objx\../lv_core/../lv_misc/lv_area.h **** #ifndef LV_AREA_H
   7:..\..\..\lvgl\version_6.1.2\lvgl\src\lv_objx\../lv_core/../lv_misc/lv_area.h **** #define LV_AREA_H
   8:..\..\..\lvgl\version_6.1.2\lvgl\src\lv_objx\../lv_core/../lv_misc/lv_area.h **** 
   9:..\..\..\lvgl\version_6.1.2\lvgl\src\lv_objx\../lv_core/../lv_misc/lv_area.h **** #ifdef __cplusplus
  10:..\..\..\lvgl\version_6.1.2\lvgl\src\lv_objx\../lv_core/../lv_misc/lv_area.h **** extern "C" {
  11:..\..\..\lvgl\version_6.1.2\lvgl\src\lv_objx\../lv_core/../lv_misc/lv_area.h **** #endif
  12:..\..\..\lvgl\version_6.1.2\lvgl\src\lv_objx\../lv_core/../lv_misc/lv_area.h **** 
  13:..\..\..\lvgl\version_6.1.2\lvgl\src\lv_objx\../lv_core/../lv_misc/lv_area.h **** /*********************
  14:..\..\..\lvgl\version_6.1.2\lvgl\src\lv_objx\../lv_core/../lv_misc/lv_area.h ****  *      INCLUDES
  15:..\..\..\lvgl\version_6.1.2\lvgl\src\lv_objx\../lv_core/../lv_misc/lv_area.h ****  *********************/
  16:..\..\..\lvgl\version_6.1.2\lvgl\src\lv_objx\../lv_core/../lv_misc/lv_area.h **** #include <string.h>
  17:..\..\..\lvgl\version_6.1.2\lvgl\src\lv_objx\../lv_core/../lv_misc/lv_area.h **** #include <stdbool.h>
  18:..\..\..\lvgl\version_6.1.2\lvgl\src\lv_objx\../lv_core/../lv_misc/lv_area.h **** #include <stdint.h>
  19:..\..\..\lvgl\version_6.1.2\lvgl\src\lv_objx\../lv_core/../lv_misc/lv_area.h **** #ifdef LV_CONF_INCLUDE_SIMPLE
  20:..\..\..\lvgl\version_6.1.2\lvgl\src\lv_objx\../lv_core/../lv_misc/lv_area.h **** #include "lv_conf.h"
  21:..\..\..\lvgl\version_6.1.2\lvgl\src\lv_objx\../lv_core/../lv_misc/lv_area.h **** #else
  22:..\..\..\lvgl\version_6.1.2\lvgl\src\lv_objx\../lv_core/../lv_misc/lv_area.h **** #include "../../../lv_conf.h"
  23:..\..\..\lvgl\version_6.1.2\lvgl\src\lv_objx\../lv_core/../lv_misc/lv_area.h **** #endif
  24:..\..\..\lvgl\version_6.1.2\lvgl\src\lv_objx\../lv_core/../lv_misc/lv_area.h **** 
  25:..\..\..\lvgl\version_6.1.2\lvgl\src\lv_objx\../lv_core/../lv_misc/lv_area.h **** /*********************
  26:..\..\..\lvgl\version_6.1.2\lvgl\src\lv_objx\../lv_core/../lv_misc/lv_area.h ****  *      DEFINES
  27:..\..\..\lvgl\version_6.1.2\lvgl\src\lv_objx\../lv_core/../lv_misc/lv_area.h ****  *********************/
  28:..\..\..\lvgl\version_6.1.2\lvgl\src\lv_objx\../lv_core/../lv_misc/lv_area.h **** /*To avoid overflow don't let the max ranges (reduce with 1000) */
  29:..\..\..\lvgl\version_6.1.2\lvgl\src\lv_objx\../lv_core/../lv_misc/lv_area.h **** #define LV_COORD_MAX ((lv_coord_t)((uint32_t)((uint32_t)1 << (8 * sizeof(lv_coord_t) - 1)) - 1000))
  30:..\..\..\lvgl\version_6.1.2\lvgl\src\lv_objx\../lv_core/../lv_misc/lv_area.h **** #define LV_COORD_MIN (-LV_COORD_MAX)
  31:..\..\..\lvgl\version_6.1.2\lvgl\src\lv_objx\../lv_core/../lv_misc/lv_area.h **** 
  32:..\..\..\lvgl\version_6.1.2\lvgl\src\lv_objx\../lv_core/../lv_misc/lv_area.h **** LV_EXPORT_CONST_INT(LV_COORD_MAX);
  33:..\..\..\lvgl\version_6.1.2\lvgl\src\lv_objx\../lv_core/../lv_misc/lv_area.h **** LV_EXPORT_CONST_INT(LV_COORD_MIN);
  34:..\..\..\lvgl\version_6.1.2\lvgl\src\lv_objx\../lv_core/../lv_misc/lv_area.h **** 
  35:..\..\..\lvgl\version_6.1.2\lvgl\src\lv_objx\../lv_core/../lv_misc/lv_area.h **** /**********************
  36:..\..\..\lvgl\version_6.1.2\lvgl\src\lv_objx\../lv_core/../lv_misc/lv_area.h ****  *      TYPEDEFS
ARM GAS  C:\Users\tmj32\AppData\Local\Temp\ccIZw7Ef.s 			page 5


  37:..\..\..\lvgl\version_6.1.2\lvgl\src\lv_objx\../lv_core/../lv_misc/lv_area.h ****  **********************/
  38:..\..\..\lvgl\version_6.1.2\lvgl\src\lv_objx\../lv_core/../lv_misc/lv_area.h **** 
  39:..\..\..\lvgl\version_6.1.2\lvgl\src\lv_objx\../lv_core/../lv_misc/lv_area.h **** /**
  40:..\..\..\lvgl\version_6.1.2\lvgl\src\lv_objx\../lv_core/../lv_misc/lv_area.h ****  * Represents a point on the screen.
  41:..\..\..\lvgl\version_6.1.2\lvgl\src\lv_objx\../lv_core/../lv_misc/lv_area.h ****  */
  42:..\..\..\lvgl\version_6.1.2\lvgl\src\lv_objx\../lv_core/../lv_misc/lv_area.h **** typedef struct
  43:..\..\..\lvgl\version_6.1.2\lvgl\src\lv_objx\../lv_core/../lv_misc/lv_area.h **** {
  44:..\..\..\lvgl\version_6.1.2\lvgl\src\lv_objx\../lv_core/../lv_misc/lv_area.h ****     lv_coord_t x;
  45:..\..\..\lvgl\version_6.1.2\lvgl\src\lv_objx\../lv_core/../lv_misc/lv_area.h ****     lv_coord_t y;
  46:..\..\..\lvgl\version_6.1.2\lvgl\src\lv_objx\../lv_core/../lv_misc/lv_area.h **** } lv_point_t;
  47:..\..\..\lvgl\version_6.1.2\lvgl\src\lv_objx\../lv_core/../lv_misc/lv_area.h **** 
  48:..\..\..\lvgl\version_6.1.2\lvgl\src\lv_objx\../lv_core/../lv_misc/lv_area.h **** /** Represents an area of the screen. */
  49:..\..\..\lvgl\version_6.1.2\lvgl\src\lv_objx\../lv_core/../lv_misc/lv_area.h **** typedef struct
  50:..\..\..\lvgl\version_6.1.2\lvgl\src\lv_objx\../lv_core/../lv_misc/lv_area.h **** {
  51:..\..\..\lvgl\version_6.1.2\lvgl\src\lv_objx\../lv_core/../lv_misc/lv_area.h ****     lv_coord_t x1;
  52:..\..\..\lvgl\version_6.1.2\lvgl\src\lv_objx\../lv_core/../lv_misc/lv_area.h ****     lv_coord_t y1;
  53:..\..\..\lvgl\version_6.1.2\lvgl\src\lv_objx\../lv_core/../lv_misc/lv_area.h ****     lv_coord_t x2;
  54:..\..\..\lvgl\version_6.1.2\lvgl\src\lv_objx\../lv_core/../lv_misc/lv_area.h ****     lv_coord_t y2;
  55:..\..\..\lvgl\version_6.1.2\lvgl\src\lv_objx\../lv_core/../lv_misc/lv_area.h **** } lv_area_t;
  56:..\..\..\lvgl\version_6.1.2\lvgl\src\lv_objx\../lv_core/../lv_misc/lv_area.h **** 
  57:..\..\..\lvgl\version_6.1.2\lvgl\src\lv_objx\../lv_core/../lv_misc/lv_area.h **** /**********************
  58:..\..\..\lvgl\version_6.1.2\lvgl\src\lv_objx\../lv_core/../lv_misc/lv_area.h ****  * GLOBAL PROTOTYPES
  59:..\..\..\lvgl\version_6.1.2\lvgl\src\lv_objx\../lv_core/../lv_misc/lv_area.h ****  **********************/
  60:..\..\..\lvgl\version_6.1.2\lvgl\src\lv_objx\../lv_core/../lv_misc/lv_area.h **** 
  61:..\..\..\lvgl\version_6.1.2\lvgl\src\lv_objx\../lv_core/../lv_misc/lv_area.h **** /**
  62:..\..\..\lvgl\version_6.1.2\lvgl\src\lv_objx\../lv_core/../lv_misc/lv_area.h ****  * Initialize an area
  63:..\..\..\lvgl\version_6.1.2\lvgl\src\lv_objx\../lv_core/../lv_misc/lv_area.h ****  * @param area_p pointer to an area
  64:..\..\..\lvgl\version_6.1.2\lvgl\src\lv_objx\../lv_core/../lv_misc/lv_area.h ****  * @param x1 left coordinate of the area
  65:..\..\..\lvgl\version_6.1.2\lvgl\src\lv_objx\../lv_core/../lv_misc/lv_area.h ****  * @param y1 top coordinate of the area
  66:..\..\..\lvgl\version_6.1.2\lvgl\src\lv_objx\../lv_core/../lv_misc/lv_area.h ****  * @param x2 right coordinate of the area
  67:..\..\..\lvgl\version_6.1.2\lvgl\src\lv_objx\../lv_core/../lv_misc/lv_area.h ****  * @param y2 bottom coordinate of the area
  68:..\..\..\lvgl\version_6.1.2\lvgl\src\lv_objx\../lv_core/../lv_misc/lv_area.h ****  */
  69:..\..\..\lvgl\version_6.1.2\lvgl\src\lv_objx\../lv_core/../lv_misc/lv_area.h **** void lv_area_set(lv_area_t * area_p, lv_coord_t x1, lv_coord_t y1, lv_coord_t x2, lv_coord_t y2);
  70:..\..\..\lvgl\version_6.1.2\lvgl\src\lv_objx\../lv_core/../lv_misc/lv_area.h **** 
  71:..\..\..\lvgl\version_6.1.2\lvgl\src\lv_objx\../lv_core/../lv_misc/lv_area.h **** /**
  72:..\..\..\lvgl\version_6.1.2\lvgl\src\lv_objx\../lv_core/../lv_misc/lv_area.h ****  * Copy an area
  73:..\..\..\lvgl\version_6.1.2\lvgl\src\lv_objx\../lv_core/../lv_misc/lv_area.h ****  * @param dest pointer to the destination area
  74:..\..\..\lvgl\version_6.1.2\lvgl\src\lv_objx\../lv_core/../lv_misc/lv_area.h ****  * @param src pointer to the source area
  75:..\..\..\lvgl\version_6.1.2\lvgl\src\lv_objx\../lv_core/../lv_misc/lv_area.h ****  */
  76:..\..\..\lvgl\version_6.1.2\lvgl\src\lv_objx\../lv_core/../lv_misc/lv_area.h **** inline static void lv_area_copy(lv_area_t * dest, const lv_area_t * src)
  77:..\..\..\lvgl\version_6.1.2\lvgl\src\lv_objx\../lv_core/../lv_misc/lv_area.h **** {
  78:..\..\..\lvgl\version_6.1.2\lvgl\src\lv_objx\../lv_core/../lv_misc/lv_area.h ****     memcpy(dest, src, sizeof(lv_area_t));
  79:..\..\..\lvgl\version_6.1.2\lvgl\src\lv_objx\../lv_core/../lv_misc/lv_area.h **** }
  80:..\..\..\lvgl\version_6.1.2\lvgl\src\lv_objx\../lv_core/../lv_misc/lv_area.h **** 
  81:..\..\..\lvgl\version_6.1.2\lvgl\src\lv_objx\../lv_core/../lv_misc/lv_area.h **** /**
  82:..\..\..\lvgl\version_6.1.2\lvgl\src\lv_objx\../lv_core/../lv_misc/lv_area.h ****  * Get the width of an area
  83:..\..\..\lvgl\version_6.1.2\lvgl\src\lv_objx\../lv_core/../lv_misc/lv_area.h ****  * @param area_p pointer to an area
  84:..\..\..\lvgl\version_6.1.2\lvgl\src\lv_objx\../lv_core/../lv_misc/lv_area.h ****  * @return the width of the area (if x1 == x2 -> width = 1)
  85:..\..\..\lvgl\version_6.1.2\lvgl\src\lv_objx\../lv_core/../lv_misc/lv_area.h ****  */
  86:..\..\..\lvgl\version_6.1.2\lvgl\src\lv_objx\../lv_core/../lv_misc/lv_area.h **** static inline lv_coord_t lv_area_get_width(const lv_area_t * area_p)
  87:..\..\..\lvgl\version_6.1.2\lvgl\src\lv_objx\../lv_core/../lv_misc/lv_area.h **** {
  66              		.loc 2 87 0
  67              		.cfi_startproc
  68              		@ args = 0, pretend = 0, frame = 8
  69              		@ frame_needed = 1, uses_anonymous_args = 0
  70              		@ link register save eliminated.
  71 0000 80B4     		push	{r7}
ARM GAS  C:\Users\tmj32\AppData\Local\Temp\ccIZw7Ef.s 			page 6


  72              		.cfi_def_cfa_offset 4
  73              		.cfi_offset 7, -4
  74 0002 83B0     		sub	sp, sp, #12
  75              		.cfi_def_cfa_offset 16
  76 0004 00AF     		add	r7, sp, #0
  77              		.cfi_def_cfa_register 7
  78 0006 7860     		str	r0, [r7, #4]
  88:..\..\..\lvgl\version_6.1.2\lvgl\src\lv_objx\../lv_core/../lv_misc/lv_area.h ****     return (lv_coord_t)(area_p->x2 - area_p->x1 + 1);
  79              		.loc 2 88 0
  80 0008 7B68     		ldr	r3, [r7, #4]
  81 000a B3F90430 		ldrsh	r3, [r3, #4]
  82 000e 9AB2     		uxth	r2, r3
  83 0010 7B68     		ldr	r3, [r7, #4]
  84 0012 B3F90030 		ldrsh	r3, [r3]
  85 0016 9BB2     		uxth	r3, r3
  86 0018 D31A     		subs	r3, r2, r3
  87 001a 9BB2     		uxth	r3, r3
  88 001c 0133     		adds	r3, r3, #1
  89 001e 9BB2     		uxth	r3, r3
  90 0020 1BB2     		sxth	r3, r3
  89:..\..\..\lvgl\version_6.1.2\lvgl\src\lv_objx\../lv_core/../lv_misc/lv_area.h **** }
  91              		.loc 2 89 0
  92 0022 1846     		mov	r0, r3
  93 0024 0C37     		adds	r7, r7, #12
  94              		.cfi_def_cfa_offset 4
  95 0026 BD46     		mov	sp, r7
  96              		.cfi_def_cfa_register 13
  97              		@ sp needed
  98 0028 5DF8047B 		ldr	r7, [sp], #4
  99              		.cfi_restore 7
 100              		.cfi_def_cfa_offset 0
 101 002c 7047     		bx	lr
 102              		.cfi_endproc
 103              	.LFE11:
 104              		.size	lv_area_get_width, .-lv_area_get_width
 105 002e 00BF     		.bss
 106              		.align	2
 107              	ancestor_signal:
 108 0000 00000000 		.space	4
 109              		.align	2
 110              	ancestor_scrl_design:
 111 0004 00000000 		.space	4
 112              		.section	.text.lv_table_create,"ax",%progbits
 113              		.align	2
 114              		.global	lv_table_create
 115              		.thumb
 116              		.thumb_func
 117              		.type	lv_table_create, %function
 118              	lv_table_create:
 119              	.LFB33:
 120              		.file 3 "..\\..\\..\\lvgl\\version_6.1.2\\lvgl\\src\\lv_objx\\lv_table.c"
   1:..\..\..\lvgl\version_6.1.2\lvgl\src\lv_objx/lv_table.c **** /**
   2:..\..\..\lvgl\version_6.1.2\lvgl\src\lv_objx/lv_table.c ****  * @file lv_table.c
   3:..\..\..\lvgl\version_6.1.2\lvgl\src\lv_objx/lv_table.c ****  *
   4:..\..\..\lvgl\version_6.1.2\lvgl\src\lv_objx/lv_table.c ****  */
   5:..\..\..\lvgl\version_6.1.2\lvgl\src\lv_objx/lv_table.c **** 
   6:..\..\..\lvgl\version_6.1.2\lvgl\src\lv_objx/lv_table.c **** /*********************
ARM GAS  C:\Users\tmj32\AppData\Local\Temp\ccIZw7Ef.s 			page 7


   7:..\..\..\lvgl\version_6.1.2\lvgl\src\lv_objx/lv_table.c ****  *      INCLUDES
   8:..\..\..\lvgl\version_6.1.2\lvgl\src\lv_objx/lv_table.c ****  *********************/
   9:..\..\..\lvgl\version_6.1.2\lvgl\src\lv_objx/lv_table.c **** #include "lv_table.h"
  10:..\..\..\lvgl\version_6.1.2\lvgl\src\lv_objx/lv_table.c **** #if LV_USE_TABLE != 0
  11:..\..\..\lvgl\version_6.1.2\lvgl\src\lv_objx/lv_table.c **** 
  12:..\..\..\lvgl\version_6.1.2\lvgl\src\lv_objx/lv_table.c **** #include "../lv_core/lv_debug.h"
  13:..\..\..\lvgl\version_6.1.2\lvgl\src\lv_objx/lv_table.c **** #include "../lv_misc/lv_txt.h"
  14:..\..\..\lvgl\version_6.1.2\lvgl\src\lv_objx/lv_table.c **** #include "../lv_misc/lv_math.h"
  15:..\..\..\lvgl\version_6.1.2\lvgl\src\lv_objx/lv_table.c **** #include "../lv_draw/lv_draw_label.h"
  16:..\..\..\lvgl\version_6.1.2\lvgl\src\lv_objx/lv_table.c **** #include "../lv_themes/lv_theme.h"
  17:..\..\..\lvgl\version_6.1.2\lvgl\src\lv_objx/lv_table.c **** 
  18:..\..\..\lvgl\version_6.1.2\lvgl\src\lv_objx/lv_table.c **** /*********************
  19:..\..\..\lvgl\version_6.1.2\lvgl\src\lv_objx/lv_table.c ****  *      DEFINES
  20:..\..\..\lvgl\version_6.1.2\lvgl\src\lv_objx/lv_table.c ****  *********************/
  21:..\..\..\lvgl\version_6.1.2\lvgl\src\lv_objx/lv_table.c **** #define LV_OBJX_NAME "lv_table"
  22:..\..\..\lvgl\version_6.1.2\lvgl\src\lv_objx/lv_table.c **** 
  23:..\..\..\lvgl\version_6.1.2\lvgl\src\lv_objx/lv_table.c **** /**********************
  24:..\..\..\lvgl\version_6.1.2\lvgl\src\lv_objx/lv_table.c ****  *      TYPEDEFS
  25:..\..\..\lvgl\version_6.1.2\lvgl\src\lv_objx/lv_table.c ****  **********************/
  26:..\..\..\lvgl\version_6.1.2\lvgl\src\lv_objx/lv_table.c **** 
  27:..\..\..\lvgl\version_6.1.2\lvgl\src\lv_objx/lv_table.c **** /**********************
  28:..\..\..\lvgl\version_6.1.2\lvgl\src\lv_objx/lv_table.c ****  *  STATIC PROTOTYPES
  29:..\..\..\lvgl\version_6.1.2\lvgl\src\lv_objx/lv_table.c ****  **********************/
  30:..\..\..\lvgl\version_6.1.2\lvgl\src\lv_objx/lv_table.c **** static bool lv_table_design(lv_obj_t * table, const lv_area_t * mask, lv_design_mode_t mode);
  31:..\..\..\lvgl\version_6.1.2\lvgl\src\lv_objx/lv_table.c **** static lv_res_t lv_table_signal(lv_obj_t * table, lv_signal_t sign, void * param);
  32:..\..\..\lvgl\version_6.1.2\lvgl\src\lv_objx/lv_table.c **** static lv_coord_t get_row_height(lv_obj_t * table, uint16_t row_id);
  33:..\..\..\lvgl\version_6.1.2\lvgl\src\lv_objx/lv_table.c **** static void refr_size(lv_obj_t * table);
  34:..\..\..\lvgl\version_6.1.2\lvgl\src\lv_objx/lv_table.c **** 
  35:..\..\..\lvgl\version_6.1.2\lvgl\src\lv_objx/lv_table.c **** /**********************
  36:..\..\..\lvgl\version_6.1.2\lvgl\src\lv_objx/lv_table.c ****  *  STATIC VARIABLES
  37:..\..\..\lvgl\version_6.1.2\lvgl\src\lv_objx/lv_table.c ****  **********************/
  38:..\..\..\lvgl\version_6.1.2\lvgl\src\lv_objx/lv_table.c **** static lv_signal_cb_t ancestor_signal;
  39:..\..\..\lvgl\version_6.1.2\lvgl\src\lv_objx/lv_table.c **** static lv_design_cb_t ancestor_scrl_design;
  40:..\..\..\lvgl\version_6.1.2\lvgl\src\lv_objx/lv_table.c **** 
  41:..\..\..\lvgl\version_6.1.2\lvgl\src\lv_objx/lv_table.c **** /**********************
  42:..\..\..\lvgl\version_6.1.2\lvgl\src\lv_objx/lv_table.c ****  *      MACROS
  43:..\..\..\lvgl\version_6.1.2\lvgl\src\lv_objx/lv_table.c ****  **********************/
  44:..\..\..\lvgl\version_6.1.2\lvgl\src\lv_objx/lv_table.c **** 
  45:..\..\..\lvgl\version_6.1.2\lvgl\src\lv_objx/lv_table.c **** /**********************
  46:..\..\..\lvgl\version_6.1.2\lvgl\src\lv_objx/lv_table.c ****  *   GLOBAL FUNCTIONS
  47:..\..\..\lvgl\version_6.1.2\lvgl\src\lv_objx/lv_table.c ****  **********************/
  48:..\..\..\lvgl\version_6.1.2\lvgl\src\lv_objx/lv_table.c **** 
  49:..\..\..\lvgl\version_6.1.2\lvgl\src\lv_objx/lv_table.c **** /**
  50:..\..\..\lvgl\version_6.1.2\lvgl\src\lv_objx/lv_table.c ****  * Create a table object
  51:..\..\..\lvgl\version_6.1.2\lvgl\src\lv_objx/lv_table.c ****  * @param par pointer to an object, it will be the parent of the new table
  52:..\..\..\lvgl\version_6.1.2\lvgl\src\lv_objx/lv_table.c ****  * @param copy pointer to a table object, if not NULL then the new object will be copied from it
  53:..\..\..\lvgl\version_6.1.2\lvgl\src\lv_objx/lv_table.c ****  * @return pointer to the created table
  54:..\..\..\lvgl\version_6.1.2\lvgl\src\lv_objx/lv_table.c ****  */
  55:..\..\..\lvgl\version_6.1.2\lvgl\src\lv_objx/lv_table.c **** lv_obj_t * lv_table_create(lv_obj_t * par, const lv_obj_t * copy)
  56:..\..\..\lvgl\version_6.1.2\lvgl\src\lv_objx/lv_table.c **** {
 121              		.loc 3 56 0
 122              		.cfi_startproc
 123              		@ args = 0, pretend = 0, frame = 32
 124              		@ frame_needed = 1, uses_anonymous_args = 0
 125 0000 80B5     		push	{r7, lr}
 126              		.cfi_def_cfa_offset 8
 127              		.cfi_offset 7, -8
ARM GAS  C:\Users\tmj32\AppData\Local\Temp\ccIZw7Ef.s 			page 8


 128              		.cfi_offset 14, -4
 129 0002 88B0     		sub	sp, sp, #32
 130              		.cfi_def_cfa_offset 40
 131 0004 00AF     		add	r7, sp, #0
 132              		.cfi_def_cfa_register 7
 133 0006 7860     		str	r0, [r7, #4]
 134 0008 3960     		str	r1, [r7]
  57:..\..\..\lvgl\version_6.1.2\lvgl\src\lv_objx/lv_table.c ****     LV_LOG_TRACE("table create started");
  58:..\..\..\lvgl\version_6.1.2\lvgl\src\lv_objx/lv_table.c **** 
  59:..\..\..\lvgl\version_6.1.2\lvgl\src\lv_objx/lv_table.c ****     /*Create the ancestor of table*/
  60:..\..\..\lvgl\version_6.1.2\lvgl\src\lv_objx/lv_table.c ****     lv_obj_t * new_table = lv_obj_create(par, copy);
 135              		.loc 3 60 0
 136 000a 3968     		ldr	r1, [r7]
 137 000c 7868     		ldr	r0, [r7, #4]
 138 000e FFF7FEFF 		bl	lv_obj_create
 139 0012 B861     		str	r0, [r7, #24]
  61:..\..\..\lvgl\version_6.1.2\lvgl\src\lv_objx/lv_table.c ****     LV_ASSERT_MEM(new_table);
  62:..\..\..\lvgl\version_6.1.2\lvgl\src\lv_objx/lv_table.c ****     if(new_table == NULL) return NULL;
 140              		.loc 3 62 0
 141 0014 BB69     		ldr	r3, [r7, #24]
 142 0016 002B     		cmp	r3, #0
 143 0018 01D1     		bne	.L6
 144              		.loc 3 62 0 is_stmt 0 discriminator 1
 145 001a 0023     		movs	r3, #0
 146 001c A9E0     		b	.L7
 147              	.L6:
  63:..\..\..\lvgl\version_6.1.2\lvgl\src\lv_objx/lv_table.c **** 
  64:..\..\..\lvgl\version_6.1.2\lvgl\src\lv_objx/lv_table.c ****     /*Allocate the table type specific extended data*/
  65:..\..\..\lvgl\version_6.1.2\lvgl\src\lv_objx/lv_table.c ****     lv_table_ext_t * ext = lv_obj_allocate_ext_attr(new_table, sizeof(lv_table_ext_t));
 148              		.loc 3 65 0 is_stmt 1
 149 001e 3021     		movs	r1, #48
 150 0020 B869     		ldr	r0, [r7, #24]
 151 0022 FFF7FEFF 		bl	lv_obj_allocate_ext_attr
 152 0026 7861     		str	r0, [r7, #20]
  66:..\..\..\lvgl\version_6.1.2\lvgl\src\lv_objx/lv_table.c ****     LV_ASSERT_MEM(ext);
  67:..\..\..\lvgl\version_6.1.2\lvgl\src\lv_objx/lv_table.c ****     if(ext == NULL) return NULL;
 153              		.loc 3 67 0
 154 0028 7B69     		ldr	r3, [r7, #20]
 155 002a 002B     		cmp	r3, #0
 156 002c 01D1     		bne	.L8
 157              		.loc 3 67 0 is_stmt 0 discriminator 1
 158 002e 0023     		movs	r3, #0
 159 0030 9FE0     		b	.L7
 160              	.L8:
  68:..\..\..\lvgl\version_6.1.2\lvgl\src\lv_objx/lv_table.c ****     if(ancestor_signal == NULL) ancestor_signal = lv_obj_get_signal_cb(new_table);
 161              		.loc 3 68 0 is_stmt 1
 162 0032 524B     		ldr	r3, .L17
 163 0034 1B68     		ldr	r3, [r3]
 164 0036 002B     		cmp	r3, #0
 165 0038 05D1     		bne	.L9
 166              		.loc 3 68 0 is_stmt 0 discriminator 1
 167 003a B869     		ldr	r0, [r7, #24]
 168 003c FFF7FEFF 		bl	lv_obj_get_signal_cb
 169 0040 0246     		mov	r2, r0
 170 0042 4E4B     		ldr	r3, .L17
 171 0044 1A60     		str	r2, [r3]
 172              	.L9:
ARM GAS  C:\Users\tmj32\AppData\Local\Temp\ccIZw7Ef.s 			page 9


  69:..\..\..\lvgl\version_6.1.2\lvgl\src\lv_objx/lv_table.c ****     if(ancestor_scrl_design == NULL) ancestor_scrl_design = lv_obj_get_design_cb(new_table);
 173              		.loc 3 69 0 is_stmt 1
 174 0046 4E4B     		ldr	r3, .L17+4
 175 0048 1B68     		ldr	r3, [r3]
 176 004a 002B     		cmp	r3, #0
 177 004c 05D1     		bne	.L10
 178              		.loc 3 69 0 is_stmt 0 discriminator 1
 179 004e B869     		ldr	r0, [r7, #24]
 180 0050 FFF7FEFF 		bl	lv_obj_get_design_cb
 181 0054 0246     		mov	r2, r0
 182 0056 4A4B     		ldr	r3, .L17+4
 183 0058 1A60     		str	r2, [r3]
 184              	.L10:
  70:..\..\..\lvgl\version_6.1.2\lvgl\src\lv_objx/lv_table.c **** 
  71:..\..\..\lvgl\version_6.1.2\lvgl\src\lv_objx/lv_table.c ****     /*Initialize the allocated 'ext' */
  72:..\..\..\lvgl\version_6.1.2\lvgl\src\lv_objx/lv_table.c ****     ext->cell_data     = NULL;
 185              		.loc 3 72 0 is_stmt 1
 186 005a 7B69     		ldr	r3, [r7, #20]
 187 005c 0022     		movs	r2, #0
 188 005e 5A60     		str	r2, [r3, #4]
  73:..\..\..\lvgl\version_6.1.2\lvgl\src\lv_objx/lv_table.c ****     ext->cell_style[0] = &lv_style_plain;
 189              		.loc 3 73 0
 190 0060 7B69     		ldr	r3, [r7, #20]
 191 0062 484A     		ldr	r2, .L17+8
 192 0064 9A60     		str	r2, [r3, #8]
  74:..\..\..\lvgl\version_6.1.2\lvgl\src\lv_objx/lv_table.c ****     ext->cell_style[1] = &lv_style_plain;
 193              		.loc 3 74 0
 194 0066 7B69     		ldr	r3, [r7, #20]
 195 0068 464A     		ldr	r2, .L17+8
 196 006a DA60     		str	r2, [r3, #12]
  75:..\..\..\lvgl\version_6.1.2\lvgl\src\lv_objx/lv_table.c ****     ext->cell_style[2] = &lv_style_plain;
 197              		.loc 3 75 0
 198 006c 7B69     		ldr	r3, [r7, #20]
 199 006e 454A     		ldr	r2, .L17+8
 200 0070 1A61     		str	r2, [r3, #16]
  76:..\..\..\lvgl\version_6.1.2\lvgl\src\lv_objx/lv_table.c ****     ext->cell_style[3] = &lv_style_plain;
 201              		.loc 3 76 0
 202 0072 7B69     		ldr	r3, [r7, #20]
 203 0074 434A     		ldr	r2, .L17+8
 204 0076 5A61     		str	r2, [r3, #20]
  77:..\..\..\lvgl\version_6.1.2\lvgl\src\lv_objx/lv_table.c ****     ext->col_cnt       = 0;
 205              		.loc 3 77 0
 206 0078 7B69     		ldr	r3, [r7, #20]
 207 007a 0022     		movs	r2, #0
 208 007c 1A80     		strh	r2, [r3]	@ movhi
  78:..\..\..\lvgl\version_6.1.2\lvgl\src\lv_objx/lv_table.c ****     ext->row_cnt       = 0;
 209              		.loc 3 78 0
 210 007e 7B69     		ldr	r3, [r7, #20]
 211 0080 0022     		movs	r2, #0
 212 0082 5A80     		strh	r2, [r3, #2]	@ movhi
  79:..\..\..\lvgl\version_6.1.2\lvgl\src\lv_objx/lv_table.c **** 
  80:..\..\..\lvgl\version_6.1.2\lvgl\src\lv_objx/lv_table.c ****     uint16_t i;
  81:..\..\..\lvgl\version_6.1.2\lvgl\src\lv_objx/lv_table.c ****     for(i = 0; i < LV_TABLE_COL_MAX; i++) {
 213              		.loc 3 81 0
 214 0084 0023     		movs	r3, #0
 215 0086 FB83     		strh	r3, [r7, #30]	@ movhi
 216 0088 08E0     		b	.L11
ARM GAS  C:\Users\tmj32\AppData\Local\Temp\ccIZw7Ef.s 			page 10


 217              	.L12:
  82:..\..\..\lvgl\version_6.1.2\lvgl\src\lv_objx/lv_table.c ****         ext->col_w[i] = LV_DPI;
 218              		.loc 3 82 0 discriminator 3
 219 008a FA8B     		ldrh	r2, [r7, #30]
 220 008c 7B69     		ldr	r3, [r7, #20]
 221 008e 0C32     		adds	r2, r2, #12
 222 0090 9621     		movs	r1, #150
 223 0092 23F81210 		strh	r1, [r3, r2, lsl #1]	@ movhi
  81:..\..\..\lvgl\version_6.1.2\lvgl\src\lv_objx/lv_table.c ****         ext->col_w[i] = LV_DPI;
 224              		.loc 3 81 0 discriminator 3
 225 0096 FB8B     		ldrh	r3, [r7, #30]
 226 0098 0133     		adds	r3, r3, #1
 227 009a FB83     		strh	r3, [r7, #30]	@ movhi
 228              	.L11:
  81:..\..\..\lvgl\version_6.1.2\lvgl\src\lv_objx/lv_table.c ****         ext->col_w[i] = LV_DPI;
 229              		.loc 3 81 0 is_stmt 0 discriminator 1
 230 009c FB8B     		ldrh	r3, [r7, #30]
 231 009e 0B2B     		cmp	r3, #11
 232 00a0 F3D9     		bls	.L12
  83:..\..\..\lvgl\version_6.1.2\lvgl\src\lv_objx/lv_table.c ****     }
  84:..\..\..\lvgl\version_6.1.2\lvgl\src\lv_objx/lv_table.c **** 
  85:..\..\..\lvgl\version_6.1.2\lvgl\src\lv_objx/lv_table.c ****     /*The signal and design functions are not copied so set them here*/
  86:..\..\..\lvgl\version_6.1.2\lvgl\src\lv_objx/lv_table.c ****     lv_obj_set_signal_cb(new_table, lv_table_signal);
 233              		.loc 3 86 0 is_stmt 1
 234 00a2 3949     		ldr	r1, .L17+12
 235 00a4 B869     		ldr	r0, [r7, #24]
 236 00a6 FFF7FEFF 		bl	lv_obj_set_signal_cb
  87:..\..\..\lvgl\version_6.1.2\lvgl\src\lv_objx/lv_table.c ****     lv_obj_set_design_cb(new_table, lv_table_design);
 237              		.loc 3 87 0
 238 00aa 3849     		ldr	r1, .L17+16
 239 00ac B869     		ldr	r0, [r7, #24]
 240 00ae FFF7FEFF 		bl	lv_obj_set_design_cb
  88:..\..\..\lvgl\version_6.1.2\lvgl\src\lv_objx/lv_table.c **** 
  89:..\..\..\lvgl\version_6.1.2\lvgl\src\lv_objx/lv_table.c ****     /*Init the new table table*/
  90:..\..\..\lvgl\version_6.1.2\lvgl\src\lv_objx/lv_table.c ****     if(copy == NULL) {
 241              		.loc 3 90 0
 242 00b2 3B68     		ldr	r3, [r7]
 243 00b4 002B     		cmp	r3, #0
 244 00b6 38D1     		bne	.L13
 245              	.LBB2:
  91:..\..\..\lvgl\version_6.1.2\lvgl\src\lv_objx/lv_table.c ****         /*Set the default styles*/
  92:..\..\..\lvgl\version_6.1.2\lvgl\src\lv_objx/lv_table.c ****         lv_theme_t * th = lv_theme_get_current();
 246              		.loc 3 92 0
 247 00b8 FFF7FEFF 		bl	lv_theme_get_current
 248 00bc 3861     		str	r0, [r7, #16]
  93:..\..\..\lvgl\version_6.1.2\lvgl\src\lv_objx/lv_table.c ****         if(th) {
 249              		.loc 3 93 0
 250 00be 3B69     		ldr	r3, [r7, #16]
 251 00c0 002B     		cmp	r3, #0
 252 00c2 28D0     		beq	.L14
  94:..\..\..\lvgl\version_6.1.2\lvgl\src\lv_objx/lv_table.c ****             lv_table_set_style(new_table, LV_TABLE_STYLE_BG, th->style.table.bg);
 253              		.loc 3 94 0
 254 00c4 3B69     		ldr	r3, [r7, #16]
 255 00c6 D3F88831 		ldr	r3, [r3, #392]
 256 00ca 1A46     		mov	r2, r3
 257 00cc 0021     		movs	r1, #0
 258 00ce B869     		ldr	r0, [r7, #24]
ARM GAS  C:\Users\tmj32\AppData\Local\Temp\ccIZw7Ef.s 			page 11


 259 00d0 FFF7FEFF 		bl	lv_table_set_style
  95:..\..\..\lvgl\version_6.1.2\lvgl\src\lv_objx/lv_table.c ****             lv_table_set_style(new_table, LV_TABLE_STYLE_CELL1, th->style.table.cell);
 260              		.loc 3 95 0
 261 00d4 3B69     		ldr	r3, [r7, #16]
 262 00d6 D3F88C31 		ldr	r3, [r3, #396]
 263 00da 1A46     		mov	r2, r3
 264 00dc 0121     		movs	r1, #1
 265 00de B869     		ldr	r0, [r7, #24]
 266 00e0 FFF7FEFF 		bl	lv_table_set_style
  96:..\..\..\lvgl\version_6.1.2\lvgl\src\lv_objx/lv_table.c ****             lv_table_set_style(new_table, LV_TABLE_STYLE_CELL2, th->style.table.cell);
 267              		.loc 3 96 0
 268 00e4 3B69     		ldr	r3, [r7, #16]
 269 00e6 D3F88C31 		ldr	r3, [r3, #396]
 270 00ea 1A46     		mov	r2, r3
 271 00ec 0221     		movs	r1, #2
 272 00ee B869     		ldr	r0, [r7, #24]
 273 00f0 FFF7FEFF 		bl	lv_table_set_style
  97:..\..\..\lvgl\version_6.1.2\lvgl\src\lv_objx/lv_table.c ****             lv_table_set_style(new_table, LV_TABLE_STYLE_CELL3, th->style.table.cell);
 274              		.loc 3 97 0
 275 00f4 3B69     		ldr	r3, [r7, #16]
 276 00f6 D3F88C31 		ldr	r3, [r3, #396]
 277 00fa 1A46     		mov	r2, r3
 278 00fc 0321     		movs	r1, #3
 279 00fe B869     		ldr	r0, [r7, #24]
 280 0100 FFF7FEFF 		bl	lv_table_set_style
  98:..\..\..\lvgl\version_6.1.2\lvgl\src\lv_objx/lv_table.c ****             lv_table_set_style(new_table, LV_TABLE_STYLE_CELL4, th->style.table.cell);
 281              		.loc 3 98 0
 282 0104 3B69     		ldr	r3, [r7, #16]
 283 0106 D3F88C31 		ldr	r3, [r3, #396]
 284 010a 1A46     		mov	r2, r3
 285 010c 0421     		movs	r1, #4
 286 010e B869     		ldr	r0, [r7, #24]
 287 0110 FFF7FEFF 		bl	lv_table_set_style
 288 0114 04E0     		b	.L15
 289              	.L14:
  99:..\..\..\lvgl\version_6.1.2\lvgl\src\lv_objx/lv_table.c ****         } else {
 100:..\..\..\lvgl\version_6.1.2\lvgl\src\lv_objx/lv_table.c ****             lv_table_set_style(new_table, LV_TABLE_STYLE_BG, &lv_style_plain_color);
 290              		.loc 3 100 0
 291 0116 1E4A     		ldr	r2, .L17+20
 292 0118 0021     		movs	r1, #0
 293 011a B869     		ldr	r0, [r7, #24]
 294 011c FFF7FEFF 		bl	lv_table_set_style
 295              	.L15:
 101:..\..\..\lvgl\version_6.1.2\lvgl\src\lv_objx/lv_table.c ****         }
 102:..\..\..\lvgl\version_6.1.2\lvgl\src\lv_objx/lv_table.c ****         lv_obj_set_click(new_table, false); /*Can be removed if click support is added*/
 296              		.loc 3 102 0
 297 0120 0021     		movs	r1, #0
 298 0122 B869     		ldr	r0, [r7, #24]
 299 0124 FFF7FEFF 		bl	lv_obj_set_click
 300              	.LBE2:
 301 0128 22E0     		b	.L16
 302              	.L13:
 303              	.LBB3:
 103:..\..\..\lvgl\version_6.1.2\lvgl\src\lv_objx/lv_table.c ****     }
 104:..\..\..\lvgl\version_6.1.2\lvgl\src\lv_objx/lv_table.c ****     /*Copy an existing table*/
 105:..\..\..\lvgl\version_6.1.2\lvgl\src\lv_objx/lv_table.c ****     else {
 106:..\..\..\lvgl\version_6.1.2\lvgl\src\lv_objx/lv_table.c ****         lv_table_ext_t * copy_ext = lv_obj_get_ext_attr(copy);
ARM GAS  C:\Users\tmj32\AppData\Local\Temp\ccIZw7Ef.s 			page 12


 304              		.loc 3 106 0
 305 012a 3868     		ldr	r0, [r7]
 306 012c FFF7FEFF 		bl	lv_obj_get_ext_attr
 307 0130 F860     		str	r0, [r7, #12]
 107:..\..\..\lvgl\version_6.1.2\lvgl\src\lv_objx/lv_table.c ****         ext->cell_style[0]        = copy_ext->cell_style[0];
 308              		.loc 3 107 0
 309 0132 FB68     		ldr	r3, [r7, #12]
 310 0134 9A68     		ldr	r2, [r3, #8]
 311 0136 7B69     		ldr	r3, [r7, #20]
 312 0138 9A60     		str	r2, [r3, #8]
 108:..\..\..\lvgl\version_6.1.2\lvgl\src\lv_objx/lv_table.c ****         ext->cell_style[1]        = copy_ext->cell_style[1];
 313              		.loc 3 108 0
 314 013a FB68     		ldr	r3, [r7, #12]
 315 013c DA68     		ldr	r2, [r3, #12]
 316 013e 7B69     		ldr	r3, [r7, #20]
 317 0140 DA60     		str	r2, [r3, #12]
 109:..\..\..\lvgl\version_6.1.2\lvgl\src\lv_objx/lv_table.c ****         ext->cell_style[2]        = copy_ext->cell_style[2];
 318              		.loc 3 109 0
 319 0142 FB68     		ldr	r3, [r7, #12]
 320 0144 1A69     		ldr	r2, [r3, #16]
 321 0146 7B69     		ldr	r3, [r7, #20]
 322 0148 1A61     		str	r2, [r3, #16]
 110:..\..\..\lvgl\version_6.1.2\lvgl\src\lv_objx/lv_table.c ****         ext->cell_style[3]        = copy_ext->cell_style[3];
 323              		.loc 3 110 0
 324 014a FB68     		ldr	r3, [r7, #12]
 325 014c 5A69     		ldr	r2, [r3, #20]
 326 014e 7B69     		ldr	r3, [r7, #20]
 327 0150 5A61     		str	r2, [r3, #20]
 111:..\..\..\lvgl\version_6.1.2\lvgl\src\lv_objx/lv_table.c ****         lv_table_set_row_cnt(new_table, copy_ext->row_cnt);
 328              		.loc 3 111 0
 329 0152 FB68     		ldr	r3, [r7, #12]
 330 0154 5B88     		ldrh	r3, [r3, #2]
 331 0156 1946     		mov	r1, r3
 332 0158 B869     		ldr	r0, [r7, #24]
 333 015a FFF7FEFF 		bl	lv_table_set_row_cnt
 112:..\..\..\lvgl\version_6.1.2\lvgl\src\lv_objx/lv_table.c ****         lv_table_set_col_cnt(new_table, copy_ext->col_cnt);
 334              		.loc 3 112 0
 335 015e FB68     		ldr	r3, [r7, #12]
 336 0160 1B88     		ldrh	r3, [r3]
 337 0162 1946     		mov	r1, r3
 338 0164 B869     		ldr	r0, [r7, #24]
 339 0166 FFF7FEFF 		bl	lv_table_set_col_cnt
 113:..\..\..\lvgl\version_6.1.2\lvgl\src\lv_objx/lv_table.c **** 
 114:..\..\..\lvgl\version_6.1.2\lvgl\src\lv_objx/lv_table.c ****         /*Refresh the style with new signal function*/
 115:..\..\..\lvgl\version_6.1.2\lvgl\src\lv_objx/lv_table.c ****         lv_obj_refresh_style(new_table);
 340              		.loc 3 115 0
 341 016a B869     		ldr	r0, [r7, #24]
 342 016c FFF7FEFF 		bl	lv_obj_refresh_style
 343              	.L16:
 344              	.LBE3:
 116:..\..\..\lvgl\version_6.1.2\lvgl\src\lv_objx/lv_table.c ****     }
 117:..\..\..\lvgl\version_6.1.2\lvgl\src\lv_objx/lv_table.c **** 
 118:..\..\..\lvgl\version_6.1.2\lvgl\src\lv_objx/lv_table.c ****     LV_LOG_INFO("table created");
 119:..\..\..\lvgl\version_6.1.2\lvgl\src\lv_objx/lv_table.c **** 
 120:..\..\..\lvgl\version_6.1.2\lvgl\src\lv_objx/lv_table.c ****     return new_table;
 345              		.loc 3 120 0
 346 0170 BB69     		ldr	r3, [r7, #24]
ARM GAS  C:\Users\tmj32\AppData\Local\Temp\ccIZw7Ef.s 			page 13


 347              	.L7:
 121:..\..\..\lvgl\version_6.1.2\lvgl\src\lv_objx/lv_table.c **** }
 348              		.loc 3 121 0
 349 0172 1846     		mov	r0, r3
 350 0174 2037     		adds	r7, r7, #32
 351              		.cfi_def_cfa_offset 8
 352 0176 BD46     		mov	sp, r7
 353              		.cfi_def_cfa_register 13
 354              		@ sp needed
 355 0178 80BD     		pop	{r7, pc}
 356              	.L18:
 357 017a 00BF     		.align	2
 358              	.L17:
 359 017c 00000000 		.word	ancestor_signal
 360 0180 04000000 		.word	ancestor_scrl_design
 361 0184 00000000 		.word	lv_style_plain
 362 0188 00000000 		.word	lv_table_signal
 363 018c 00000000 		.word	lv_table_design
 364 0190 00000000 		.word	lv_style_plain_color
 365              		.cfi_endproc
 366              	.LFE33:
 367              		.size	lv_table_create, .-lv_table_create
 368              		.section	.text.lv_table_set_cell_value,"ax",%progbits
 369              		.align	2
 370              		.global	lv_table_set_cell_value
 371              		.thumb
 372              		.thumb_func
 373              		.type	lv_table_set_cell_value, %function
 374              	lv_table_set_cell_value:
 375              	.LFB34:
 122:..\..\..\lvgl\version_6.1.2\lvgl\src\lv_objx/lv_table.c **** 
 123:..\..\..\lvgl\version_6.1.2\lvgl\src\lv_objx/lv_table.c **** /*=====================
 124:..\..\..\lvgl\version_6.1.2\lvgl\src\lv_objx/lv_table.c ****  * Setter functions
 125:..\..\..\lvgl\version_6.1.2\lvgl\src\lv_objx/lv_table.c ****  *====================*/
 126:..\..\..\lvgl\version_6.1.2\lvgl\src\lv_objx/lv_table.c **** 
 127:..\..\..\lvgl\version_6.1.2\lvgl\src\lv_objx/lv_table.c **** /**
 128:..\..\..\lvgl\version_6.1.2\lvgl\src\lv_objx/lv_table.c ****  * Set the value of a cell.
 129:..\..\..\lvgl\version_6.1.2\lvgl\src\lv_objx/lv_table.c ****  * @param table pointer to a Table object
 130:..\..\..\lvgl\version_6.1.2\lvgl\src\lv_objx/lv_table.c ****  * @param row id of the row [0 .. row_cnt -1]
 131:..\..\..\lvgl\version_6.1.2\lvgl\src\lv_objx/lv_table.c ****  * @param col id of the column [0 .. col_cnt -1]
 132:..\..\..\lvgl\version_6.1.2\lvgl\src\lv_objx/lv_table.c ****  * @param txt text to display in the cell. It will be copied and saved so this variable is not
 133:..\..\..\lvgl\version_6.1.2\lvgl\src\lv_objx/lv_table.c ****  * required after this function call.
 134:..\..\..\lvgl\version_6.1.2\lvgl\src\lv_objx/lv_table.c ****  */
 135:..\..\..\lvgl\version_6.1.2\lvgl\src\lv_objx/lv_table.c **** void lv_table_set_cell_value(lv_obj_t * table, uint16_t row, uint16_t col, const char * txt)
 136:..\..\..\lvgl\version_6.1.2\lvgl\src\lv_objx/lv_table.c **** {
 376              		.loc 3 136 0
 377              		.cfi_startproc
 378              		@ args = 0, pretend = 0, frame = 32
 379              		@ frame_needed = 1, uses_anonymous_args = 0
 380 0000 B0B5     		push	{r4, r5, r7, lr}
 381              		.cfi_def_cfa_offset 16
 382              		.cfi_offset 4, -16
 383              		.cfi_offset 5, -12
 384              		.cfi_offset 7, -8
 385              		.cfi_offset 14, -4
 386 0002 88B0     		sub	sp, sp, #32
 387              		.cfi_def_cfa_offset 48
ARM GAS  C:\Users\tmj32\AppData\Local\Temp\ccIZw7Ef.s 			page 14


 388 0004 00AF     		add	r7, sp, #0
 389              		.cfi_def_cfa_register 7
 390 0006 F860     		str	r0, [r7, #12]
 391 0008 7B60     		str	r3, [r7, #4]
 392 000a 0B46     		mov	r3, r1	@ movhi
 393 000c 7B81     		strh	r3, [r7, #10]	@ movhi
 394 000e 1346     		mov	r3, r2	@ movhi
 395 0010 3B81     		strh	r3, [r7, #8]	@ movhi
 137:..\..\..\lvgl\version_6.1.2\lvgl\src\lv_objx/lv_table.c ****     LV_ASSERT_OBJ(table, LV_OBJX_NAME);
 138:..\..\..\lvgl\version_6.1.2\lvgl\src\lv_objx/lv_table.c ****     LV_ASSERT_NULL(txt);
 139:..\..\..\lvgl\version_6.1.2\lvgl\src\lv_objx/lv_table.c **** 
 140:..\..\..\lvgl\version_6.1.2\lvgl\src\lv_objx/lv_table.c ****     lv_table_ext_t * ext = lv_obj_get_ext_attr(table);
 396              		.loc 3 140 0
 397 0012 F868     		ldr	r0, [r7, #12]
 398 0014 FFF7FEFF 		bl	lv_obj_get_ext_attr
 399 0018 F861     		str	r0, [r7, #28]
 141:..\..\..\lvgl\version_6.1.2\lvgl\src\lv_objx/lv_table.c ****     if(row >= ext->row_cnt || col >= ext->col_cnt) {
 400              		.loc 3 141 0
 401 001a FB69     		ldr	r3, [r7, #28]
 402 001c 5B88     		ldrh	r3, [r3, #2]
 403 001e 7A89     		ldrh	r2, [r7, #10]
 404 0020 9A42     		cmp	r2, r3
 405 0022 5AD2     		bcs	.L25
 406              		.loc 3 141 0 is_stmt 0 discriminator 1
 407 0024 FB69     		ldr	r3, [r7, #28]
 408 0026 1B88     		ldrh	r3, [r3]
 409 0028 3A89     		ldrh	r2, [r7, #8]
 410 002a 9A42     		cmp	r2, r3
 411 002c 55D2     		bcs	.L25
 142:..\..\..\lvgl\version_6.1.2\lvgl\src\lv_objx/lv_table.c ****         LV_LOG_WARN("lv_table_set_cell_value: invalid row or column");
 143:..\..\..\lvgl\version_6.1.2\lvgl\src\lv_objx/lv_table.c ****         return;
 144:..\..\..\lvgl\version_6.1.2\lvgl\src\lv_objx/lv_table.c ****     }
 145:..\..\..\lvgl\version_6.1.2\lvgl\src\lv_objx/lv_table.c ****     uint32_t cell = row * ext->col_cnt + col;
 412              		.loc 3 145 0 is_stmt 1
 413 002e 7B89     		ldrh	r3, [r7, #10]
 414 0030 FA69     		ldr	r2, [r7, #28]
 415 0032 1288     		ldrh	r2, [r2]
 416 0034 02FB03F2 		mul	r2, r2, r3
 417 0038 3B89     		ldrh	r3, [r7, #8]
 418 003a 1344     		add	r3, r3, r2
 419 003c BB61     		str	r3, [r7, #24]
 146:..\..\..\lvgl\version_6.1.2\lvgl\src\lv_objx/lv_table.c ****     lv_table_cell_format_t format;
 147:..\..\..\lvgl\version_6.1.2\lvgl\src\lv_objx/lv_table.c **** 
 148:..\..\..\lvgl\version_6.1.2\lvgl\src\lv_objx/lv_table.c ****     /*Save the format byte*/
 149:..\..\..\lvgl\version_6.1.2\lvgl\src\lv_objx/lv_table.c ****     if(ext->cell_data[cell]) {
 420              		.loc 3 149 0
 421 003e FB69     		ldr	r3, [r7, #28]
 422 0040 5A68     		ldr	r2, [r3, #4]
 423 0042 BB69     		ldr	r3, [r7, #24]
 424 0044 9B00     		lsls	r3, r3, #2
 425 0046 1344     		add	r3, r3, r2
 426 0048 1B68     		ldr	r3, [r3]
 427 004a 002B     		cmp	r3, #0
 428 004c 08D0     		beq	.L23
 150:..\..\..\lvgl\version_6.1.2\lvgl\src\lv_objx/lv_table.c ****         format.format_byte = ext->cell_data[cell][0];
 429              		.loc 3 150 0
 430 004e FB69     		ldr	r3, [r7, #28]
ARM GAS  C:\Users\tmj32\AppData\Local\Temp\ccIZw7Ef.s 			page 15


 431 0050 5A68     		ldr	r2, [r3, #4]
 432 0052 BB69     		ldr	r3, [r7, #24]
 433 0054 9B00     		lsls	r3, r3, #2
 434 0056 1344     		add	r3, r3, r2
 435 0058 1B68     		ldr	r3, [r3]
 436 005a 1B78     		ldrb	r3, [r3]	@ zero_extendqisi2
 437 005c 3B75     		strb	r3, [r7, #20]
 438 005e 0FE0     		b	.L24
 439              	.L23:
 151:..\..\..\lvgl\version_6.1.2\lvgl\src\lv_objx/lv_table.c ****     }
 152:..\..\..\lvgl\version_6.1.2\lvgl\src\lv_objx/lv_table.c ****     /*Initialize the format byte*/
 153:..\..\..\lvgl\version_6.1.2\lvgl\src\lv_objx/lv_table.c ****     else {
 154:..\..\..\lvgl\version_6.1.2\lvgl\src\lv_objx/lv_table.c **** #if LV_USE_BIDI
 155:..\..\..\lvgl\version_6.1.2\lvgl\src\lv_objx/lv_table.c ****         lv_bidi_dir_t base_dir = lv_obj_get_base_dir(table);
 156:..\..\..\lvgl\version_6.1.2\lvgl\src\lv_objx/lv_table.c ****         if(base_dir == LV_BIDI_DIR_LTR) format.s.align = LV_LABEL_ALIGN_LEFT;
 157:..\..\..\lvgl\version_6.1.2\lvgl\src\lv_objx/lv_table.c ****         else if(base_dir == LV_BIDI_DIR_RTL) format.s.align = LV_LABEL_ALIGN_RIGHT;
 158:..\..\..\lvgl\version_6.1.2\lvgl\src\lv_objx/lv_table.c ****         else if(base_dir == LV_BIDI_DIR_AUTO) format.s.align = lv_bidi_detect_base_dir(txt);
 159:..\..\..\lvgl\version_6.1.2\lvgl\src\lv_objx/lv_table.c **** #else
 160:..\..\..\lvgl\version_6.1.2\lvgl\src\lv_objx/lv_table.c ****         format.s.align = LV_LABEL_ALIGN_LEFT;
 440              		.loc 3 160 0
 441 0060 3B7D     		ldrb	r3, [r7, #20]
 442 0062 6FF30103 		bfc	r3, #0, #2
 443 0066 3B75     		strb	r3, [r7, #20]
 161:..\..\..\lvgl\version_6.1.2\lvgl\src\lv_objx/lv_table.c **** #endif
 162:..\..\..\lvgl\version_6.1.2\lvgl\src\lv_objx/lv_table.c **** 
 163:..\..\..\lvgl\version_6.1.2\lvgl\src\lv_objx/lv_table.c ****         format.s.right_merge = 0;
 444              		.loc 3 163 0
 445 0068 3B7D     		ldrb	r3, [r7, #20]
 446 006a 6FF38203 		bfc	r3, #2, #1
 447 006e 3B75     		strb	r3, [r7, #20]
 164:..\..\..\lvgl\version_6.1.2\lvgl\src\lv_objx/lv_table.c ****         format.s.type        = 0;
 448              		.loc 3 164 0
 449 0070 3B7D     		ldrb	r3, [r7, #20]
 450 0072 6FF3C403 		bfc	r3, #3, #2
 451 0076 3B75     		strb	r3, [r7, #20]
 165:..\..\..\lvgl\version_6.1.2\lvgl\src\lv_objx/lv_table.c ****         format.s.crop        = 0;
 452              		.loc 3 165 0
 453 0078 3B7D     		ldrb	r3, [r7, #20]
 454 007a 6FF34513 		bfc	r3, #5, #1
 455 007e 3B75     		strb	r3, [r7, #20]
 456              	.L24:
 166:..\..\..\lvgl\version_6.1.2\lvgl\src\lv_objx/lv_table.c ****     }
 167:..\..\..\lvgl\version_6.1.2\lvgl\src\lv_objx/lv_table.c **** 
 168:..\..\..\lvgl\version_6.1.2\lvgl\src\lv_objx/lv_table.c ****     ext->cell_data[cell] = lv_mem_realloc(ext->cell_data[cell], strlen(txt) + 2); /*+1: trailing '\
 457              		.loc 3 168 0
 458 0080 FB69     		ldr	r3, [r7, #28]
 459 0082 5A68     		ldr	r2, [r3, #4]
 460 0084 BB69     		ldr	r3, [r7, #24]
 461 0086 9B00     		lsls	r3, r3, #2
 462 0088 D418     		adds	r4, r2, r3
 463 008a FB69     		ldr	r3, [r7, #28]
 464 008c 5A68     		ldr	r2, [r3, #4]
 465 008e BB69     		ldr	r3, [r7, #24]
 466 0090 9B00     		lsls	r3, r3, #2
 467 0092 1344     		add	r3, r3, r2
 468 0094 1D68     		ldr	r5, [r3]
 469 0096 7868     		ldr	r0, [r7, #4]
ARM GAS  C:\Users\tmj32\AppData\Local\Temp\ccIZw7Ef.s 			page 16


 470 0098 FFF7FEFF 		bl	strlen
 471 009c 0346     		mov	r3, r0
 472 009e 0233     		adds	r3, r3, #2
 473 00a0 1946     		mov	r1, r3
 474 00a2 2846     		mov	r0, r5
 475 00a4 FFF7FEFF 		bl	lv_mem_realloc
 476 00a8 0346     		mov	r3, r0
 477 00aa 2360     		str	r3, [r4]
 169:..\..\..\lvgl\version_6.1.2\lvgl\src\lv_objx/lv_table.c ****     strcpy(ext->cell_data[cell] + 1, txt);  /*+1 to skip the format byte*/
 478              		.loc 3 169 0
 479 00ac FB69     		ldr	r3, [r7, #28]
 480 00ae 5A68     		ldr	r2, [r3, #4]
 481 00b0 BB69     		ldr	r3, [r7, #24]
 482 00b2 9B00     		lsls	r3, r3, #2
 483 00b4 1344     		add	r3, r3, r2
 484 00b6 1B68     		ldr	r3, [r3]
 485 00b8 0133     		adds	r3, r3, #1
 486 00ba 7968     		ldr	r1, [r7, #4]
 487 00bc 1846     		mov	r0, r3
 488 00be FFF7FEFF 		bl	strcpy
 170:..\..\..\lvgl\version_6.1.2\lvgl\src\lv_objx/lv_table.c **** 
 171:..\..\..\lvgl\version_6.1.2\lvgl\src\lv_objx/lv_table.c ****     ext->cell_data[cell][0] = format.format_byte;
 489              		.loc 3 171 0
 490 00c2 FB69     		ldr	r3, [r7, #28]
 491 00c4 5A68     		ldr	r2, [r3, #4]
 492 00c6 BB69     		ldr	r3, [r7, #24]
 493 00c8 9B00     		lsls	r3, r3, #2
 494 00ca 1344     		add	r3, r3, r2
 495 00cc 1B68     		ldr	r3, [r3]
 496 00ce 3A7D     		ldrb	r2, [r7, #20]	@ zero_extendqisi2
 497 00d0 1A70     		strb	r2, [r3]
 172:..\..\..\lvgl\version_6.1.2\lvgl\src\lv_objx/lv_table.c ****     refr_size(table);
 498              		.loc 3 172 0
 499 00d2 F868     		ldr	r0, [r7, #12]
 500 00d4 FFF7FEFF 		bl	refr_size
 501 00d8 00E0     		b	.L19
 502              	.L25:
 143:..\..\..\lvgl\version_6.1.2\lvgl\src\lv_objx/lv_table.c ****     }
 503              		.loc 3 143 0
 504 00da 00BF     		nop
 505              	.L19:
 173:..\..\..\lvgl\version_6.1.2\lvgl\src\lv_objx/lv_table.c **** }
 506              		.loc 3 173 0
 507 00dc 2037     		adds	r7, r7, #32
 508              		.cfi_def_cfa_offset 16
 509 00de BD46     		mov	sp, r7
 510              		.cfi_def_cfa_register 13
 511              		@ sp needed
 512 00e0 B0BD     		pop	{r4, r5, r7, pc}
 513              		.cfi_endproc
 514              	.LFE34:
 515              		.size	lv_table_set_cell_value, .-lv_table_set_cell_value
 516 00e2 00BF     		.section	.text.lv_table_set_row_cnt,"ax",%progbits
 517              		.align	2
 518              		.global	lv_table_set_row_cnt
 519              		.thumb
 520              		.thumb_func
ARM GAS  C:\Users\tmj32\AppData\Local\Temp\ccIZw7Ef.s 			page 17


 521              		.type	lv_table_set_row_cnt, %function
 522              	lv_table_set_row_cnt:
 523              	.LFB35:
 174:..\..\..\lvgl\version_6.1.2\lvgl\src\lv_objx/lv_table.c **** 
 175:..\..\..\lvgl\version_6.1.2\lvgl\src\lv_objx/lv_table.c **** /**
 176:..\..\..\lvgl\version_6.1.2\lvgl\src\lv_objx/lv_table.c ****  * Set the number of rows
 177:..\..\..\lvgl\version_6.1.2\lvgl\src\lv_objx/lv_table.c ****  * @param table table pointer to a Table object
 178:..\..\..\lvgl\version_6.1.2\lvgl\src\lv_objx/lv_table.c ****  * @param row_cnt number of rows
 179:..\..\..\lvgl\version_6.1.2\lvgl\src\lv_objx/lv_table.c ****  */
 180:..\..\..\lvgl\version_6.1.2\lvgl\src\lv_objx/lv_table.c **** void lv_table_set_row_cnt(lv_obj_t * table, uint16_t row_cnt)
 181:..\..\..\lvgl\version_6.1.2\lvgl\src\lv_objx/lv_table.c **** {
 524              		.loc 3 181 0
 525              		.cfi_startproc
 526              		@ args = 0, pretend = 0, frame = 24
 527              		@ frame_needed = 1, uses_anonymous_args = 0
 528 0000 80B5     		push	{r7, lr}
 529              		.cfi_def_cfa_offset 8
 530              		.cfi_offset 7, -8
 531              		.cfi_offset 14, -4
 532 0002 86B0     		sub	sp, sp, #24
 533              		.cfi_def_cfa_offset 32
 534 0004 00AF     		add	r7, sp, #0
 535              		.cfi_def_cfa_register 7
 536 0006 7860     		str	r0, [r7, #4]
 537 0008 0B46     		mov	r3, r1
 538 000a 7B80     		strh	r3, [r7, #2]	@ movhi
 182:..\..\..\lvgl\version_6.1.2\lvgl\src\lv_objx/lv_table.c ****     LV_ASSERT_OBJ(table, LV_OBJX_NAME);
 183:..\..\..\lvgl\version_6.1.2\lvgl\src\lv_objx/lv_table.c **** 
 184:..\..\..\lvgl\version_6.1.2\lvgl\src\lv_objx/lv_table.c ****     lv_table_ext_t * ext = lv_obj_get_ext_attr(table);
 539              		.loc 3 184 0
 540 000c 7868     		ldr	r0, [r7, #4]
 541 000e FFF7FEFF 		bl	lv_obj_get_ext_attr
 542 0012 7861     		str	r0, [r7, #20]
 185:..\..\..\lvgl\version_6.1.2\lvgl\src\lv_objx/lv_table.c ****     uint16_t old_row_cnt = ext->row_cnt;
 543              		.loc 3 185 0
 544 0014 7B69     		ldr	r3, [r7, #20]
 545 0016 5B88     		ldrh	r3, [r3, #2]	@ movhi
 546 0018 7B82     		strh	r3, [r7, #18]	@ movhi
 186:..\..\..\lvgl\version_6.1.2\lvgl\src\lv_objx/lv_table.c ****     ext->row_cnt         = row_cnt;
 547              		.loc 3 186 0
 548 001a 7B69     		ldr	r3, [r7, #20]
 549 001c 7A88     		ldrh	r2, [r7, #2]	@ movhi
 550 001e 5A80     		strh	r2, [r3, #2]	@ movhi
 187:..\..\..\lvgl\version_6.1.2\lvgl\src\lv_objx/lv_table.c **** 
 188:..\..\..\lvgl\version_6.1.2\lvgl\src\lv_objx/lv_table.c ****     if(ext->row_cnt > 0 && ext->col_cnt > 0) {
 551              		.loc 3 188 0
 552 0020 7B69     		ldr	r3, [r7, #20]
 553 0022 5B88     		ldrh	r3, [r3, #2]
 554 0024 002B     		cmp	r3, #0
 555 0026 34D0     		beq	.L27
 556              		.loc 3 188 0 is_stmt 0 discriminator 1
 557 0028 7B69     		ldr	r3, [r7, #20]
 558 002a 1B88     		ldrh	r3, [r3]
 559 002c 002B     		cmp	r3, #0
 560 002e 30D0     		beq	.L27
 189:..\..\..\lvgl\version_6.1.2\lvgl\src\lv_objx/lv_table.c ****         ext->cell_data = lv_mem_realloc(ext->cell_data, ext->row_cnt * ext->col_cnt * sizeof(char *
 561              		.loc 3 189 0 is_stmt 1
ARM GAS  C:\Users\tmj32\AppData\Local\Temp\ccIZw7Ef.s 			page 18


 562 0030 7B69     		ldr	r3, [r7, #20]
 563 0032 5A68     		ldr	r2, [r3, #4]
 564 0034 7B69     		ldr	r3, [r7, #20]
 565 0036 5B88     		ldrh	r3, [r3, #2]
 566 0038 1946     		mov	r1, r3
 567 003a 7B69     		ldr	r3, [r7, #20]
 568 003c 1B88     		ldrh	r3, [r3]
 569 003e 03FB01F3 		mul	r3, r3, r1
 570 0042 9B00     		lsls	r3, r3, #2
 571 0044 1946     		mov	r1, r3
 572 0046 1046     		mov	r0, r2
 573 0048 FFF7FEFF 		bl	lv_mem_realloc
 574 004c 0246     		mov	r2, r0
 575 004e 7B69     		ldr	r3, [r7, #20]
 576 0050 5A60     		str	r2, [r3, #4]
 190:..\..\..\lvgl\version_6.1.2\lvgl\src\lv_objx/lv_table.c **** 
 191:..\..\..\lvgl\version_6.1.2\lvgl\src\lv_objx/lv_table.c ****         /*Initilize the new fields*/
 192:..\..\..\lvgl\version_6.1.2\lvgl\src\lv_objx/lv_table.c ****         if(old_row_cnt < row_cnt) {
 577              		.loc 3 192 0
 578 0052 7A8A     		ldrh	r2, [r7, #18]
 579 0054 7B88     		ldrh	r3, [r7, #2]
 580 0056 9A42     		cmp	r2, r3
 581 0058 23D2     		bcs	.L29
 582              	.LBB4:
 193:..\..\..\lvgl\version_6.1.2\lvgl\src\lv_objx/lv_table.c ****             uint16_t old_cell_cnt = old_row_cnt * ext->col_cnt;
 583              		.loc 3 193 0
 584 005a 7B69     		ldr	r3, [r7, #20]
 585 005c 1B88     		ldrh	r3, [r3]
 586 005e 7A8A     		ldrh	r2, [r7, #18]	@ movhi
 587 0060 12FB03F3 		smulbb	r3, r2, r3
 588 0064 3B82     		strh	r3, [r7, #16]	@ movhi
 194:..\..\..\lvgl\version_6.1.2\lvgl\src\lv_objx/lv_table.c ****             uint32_t new_cell_cnt = ext->col_cnt * ext->row_cnt;
 589              		.loc 3 194 0
 590 0066 7B69     		ldr	r3, [r7, #20]
 591 0068 1B88     		ldrh	r3, [r3]
 592 006a 1A46     		mov	r2, r3
 593 006c 7B69     		ldr	r3, [r7, #20]
 594 006e 5B88     		ldrh	r3, [r3, #2]
 595 0070 03FB02F3 		mul	r3, r3, r2
 596 0074 FB60     		str	r3, [r7, #12]
 195:..\..\..\lvgl\version_6.1.2\lvgl\src\lv_objx/lv_table.c ****             memset(&ext->cell_data[old_cell_cnt], 0, (new_cell_cnt - old_cell_cnt) * sizeof(ext->ce
 597              		.loc 3 195 0
 598 0076 7B69     		ldr	r3, [r7, #20]
 599 0078 5A68     		ldr	r2, [r3, #4]
 600 007a 3B8A     		ldrh	r3, [r7, #16]
 601 007c 9B00     		lsls	r3, r3, #2
 602 007e D018     		adds	r0, r2, r3
 603 0080 3B8A     		ldrh	r3, [r7, #16]
 604 0082 FA68     		ldr	r2, [r7, #12]
 605 0084 D31A     		subs	r3, r2, r3
 606 0086 9B00     		lsls	r3, r3, #2
 607 0088 1A46     		mov	r2, r3
 608 008a 0021     		movs	r1, #0
 609 008c FFF7FEFF 		bl	memset
 610              	.LBE4:
 192:..\..\..\lvgl\version_6.1.2\lvgl\src\lv_objx/lv_table.c ****             uint16_t old_cell_cnt = old_row_cnt * ext->col_cnt;
 611              		.loc 3 192 0
ARM GAS  C:\Users\tmj32\AppData\Local\Temp\ccIZw7Ef.s 			page 19


 612 0090 07E0     		b	.L29
 613              	.L27:
 196:..\..\..\lvgl\version_6.1.2\lvgl\src\lv_objx/lv_table.c ****         }
 197:..\..\..\lvgl\version_6.1.2\lvgl\src\lv_objx/lv_table.c ****     } else {
 198:..\..\..\lvgl\version_6.1.2\lvgl\src\lv_objx/lv_table.c ****         lv_mem_free(ext->cell_data);
 614              		.loc 3 198 0
 615 0092 7B69     		ldr	r3, [r7, #20]
 616 0094 5B68     		ldr	r3, [r3, #4]
 617 0096 1846     		mov	r0, r3
 618 0098 FFF7FEFF 		bl	lv_mem_free
 199:..\..\..\lvgl\version_6.1.2\lvgl\src\lv_objx/lv_table.c ****         ext->cell_data = NULL;
 619              		.loc 3 199 0
 620 009c 7B69     		ldr	r3, [r7, #20]
 621 009e 0022     		movs	r2, #0
 622 00a0 5A60     		str	r2, [r3, #4]
 623              	.L29:
 200:..\..\..\lvgl\version_6.1.2\lvgl\src\lv_objx/lv_table.c ****     }
 201:..\..\..\lvgl\version_6.1.2\lvgl\src\lv_objx/lv_table.c **** 
 202:..\..\..\lvgl\version_6.1.2\lvgl\src\lv_objx/lv_table.c ****     refr_size(table);
 624              		.loc 3 202 0
 625 00a2 7868     		ldr	r0, [r7, #4]
 626 00a4 FFF7FEFF 		bl	refr_size
 203:..\..\..\lvgl\version_6.1.2\lvgl\src\lv_objx/lv_table.c **** }
 627              		.loc 3 203 0
 628 00a8 00BF     		nop
 629 00aa 1837     		adds	r7, r7, #24
 630              		.cfi_def_cfa_offset 8
 631 00ac BD46     		mov	sp, r7
 632              		.cfi_def_cfa_register 13
 633              		@ sp needed
 634 00ae 80BD     		pop	{r7, pc}
 635              		.cfi_endproc
 636              	.LFE35:
 637              		.size	lv_table_set_row_cnt, .-lv_table_set_row_cnt
 638              		.section	.text.lv_table_set_col_cnt,"ax",%progbits
 639              		.align	2
 640              		.global	lv_table_set_col_cnt
 641              		.thumb
 642              		.thumb_func
 643              		.type	lv_table_set_col_cnt, %function
 644              	lv_table_set_col_cnt:
 645              	.LFB36:
 204:..\..\..\lvgl\version_6.1.2\lvgl\src\lv_objx/lv_table.c **** 
 205:..\..\..\lvgl\version_6.1.2\lvgl\src\lv_objx/lv_table.c **** /**
 206:..\..\..\lvgl\version_6.1.2\lvgl\src\lv_objx/lv_table.c ****  * Set the number of columns
 207:..\..\..\lvgl\version_6.1.2\lvgl\src\lv_objx/lv_table.c ****  * @param table table pointer to a Table object
 208:..\..\..\lvgl\version_6.1.2\lvgl\src\lv_objx/lv_table.c ****  * @param col_cnt number of columns. Must be < LV_TABLE_COL_MAX
 209:..\..\..\lvgl\version_6.1.2\lvgl\src\lv_objx/lv_table.c ****  */
 210:..\..\..\lvgl\version_6.1.2\lvgl\src\lv_objx/lv_table.c **** void lv_table_set_col_cnt(lv_obj_t * table, uint16_t col_cnt)
 211:..\..\..\lvgl\version_6.1.2\lvgl\src\lv_objx/lv_table.c **** {
 646              		.loc 3 211 0
 647              		.cfi_startproc
 648              		@ args = 0, pretend = 0, frame = 24
 649              		@ frame_needed = 1, uses_anonymous_args = 0
 650 0000 80B5     		push	{r7, lr}
 651              		.cfi_def_cfa_offset 8
 652              		.cfi_offset 7, -8
ARM GAS  C:\Users\tmj32\AppData\Local\Temp\ccIZw7Ef.s 			page 20


 653              		.cfi_offset 14, -4
 654 0002 86B0     		sub	sp, sp, #24
 655              		.cfi_def_cfa_offset 32
 656 0004 00AF     		add	r7, sp, #0
 657              		.cfi_def_cfa_register 7
 658 0006 7860     		str	r0, [r7, #4]
 659 0008 0B46     		mov	r3, r1
 660 000a 7B80     		strh	r3, [r7, #2]	@ movhi
 212:..\..\..\lvgl\version_6.1.2\lvgl\src\lv_objx/lv_table.c ****     LV_ASSERT_OBJ(table, LV_OBJX_NAME);
 213:..\..\..\lvgl\version_6.1.2\lvgl\src\lv_objx/lv_table.c **** 
 214:..\..\..\lvgl\version_6.1.2\lvgl\src\lv_objx/lv_table.c ****     if(col_cnt >= LV_TABLE_COL_MAX) {
 661              		.loc 3 214 0
 662 000c 7B88     		ldrh	r3, [r7, #2]
 663 000e 0B2B     		cmp	r3, #11
 664 0010 4ED8     		bhi	.L36
 215:..\..\..\lvgl\version_6.1.2\lvgl\src\lv_objx/lv_table.c ****         LV_LOG_WARN("lv_table_set_col_cnt: too many columns. Must be < LV_TABLE_COL_MAX.");
 216:..\..\..\lvgl\version_6.1.2\lvgl\src\lv_objx/lv_table.c ****         return;
 217:..\..\..\lvgl\version_6.1.2\lvgl\src\lv_objx/lv_table.c ****     }
 218:..\..\..\lvgl\version_6.1.2\lvgl\src\lv_objx/lv_table.c **** 
 219:..\..\..\lvgl\version_6.1.2\lvgl\src\lv_objx/lv_table.c ****     lv_table_ext_t * ext = lv_obj_get_ext_attr(table);
 665              		.loc 3 219 0
 666 0012 7868     		ldr	r0, [r7, #4]
 667 0014 FFF7FEFF 		bl	lv_obj_get_ext_attr
 668 0018 7861     		str	r0, [r7, #20]
 220:..\..\..\lvgl\version_6.1.2\lvgl\src\lv_objx/lv_table.c ****     uint16_t old_col_cnt = ext->col_cnt;
 669              		.loc 3 220 0
 670 001a 7B69     		ldr	r3, [r7, #20]
 671 001c 1B88     		ldrh	r3, [r3]	@ movhi
 672 001e 7B82     		strh	r3, [r7, #18]	@ movhi
 221:..\..\..\lvgl\version_6.1.2\lvgl\src\lv_objx/lv_table.c ****     ext->col_cnt         = col_cnt;
 673              		.loc 3 221 0
 674 0020 7B69     		ldr	r3, [r7, #20]
 675 0022 7A88     		ldrh	r2, [r7, #2]	@ movhi
 676 0024 1A80     		strh	r2, [r3]	@ movhi
 222:..\..\..\lvgl\version_6.1.2\lvgl\src\lv_objx/lv_table.c **** 
 223:..\..\..\lvgl\version_6.1.2\lvgl\src\lv_objx/lv_table.c ****     if(ext->row_cnt > 0 && ext->col_cnt > 0) {
 677              		.loc 3 223 0
 678 0026 7B69     		ldr	r3, [r7, #20]
 679 0028 5B88     		ldrh	r3, [r3, #2]
 680 002a 002B     		cmp	r3, #0
 681 002c 34D0     		beq	.L33
 682              		.loc 3 223 0 is_stmt 0 discriminator 1
 683 002e 7B69     		ldr	r3, [r7, #20]
 684 0030 1B88     		ldrh	r3, [r3]
 685 0032 002B     		cmp	r3, #0
 686 0034 30D0     		beq	.L33
 224:..\..\..\lvgl\version_6.1.2\lvgl\src\lv_objx/lv_table.c ****         ext->cell_data = lv_mem_realloc(ext->cell_data, ext->row_cnt * ext->col_cnt * sizeof(char *
 687              		.loc 3 224 0 is_stmt 1
 688 0036 7B69     		ldr	r3, [r7, #20]
 689 0038 5A68     		ldr	r2, [r3, #4]
 690 003a 7B69     		ldr	r3, [r7, #20]
 691 003c 5B88     		ldrh	r3, [r3, #2]
 692 003e 1946     		mov	r1, r3
 693 0040 7B69     		ldr	r3, [r7, #20]
 694 0042 1B88     		ldrh	r3, [r3]
 695 0044 03FB01F3 		mul	r3, r3, r1
 696 0048 9B00     		lsls	r3, r3, #2
ARM GAS  C:\Users\tmj32\AppData\Local\Temp\ccIZw7Ef.s 			page 21


 697 004a 1946     		mov	r1, r3
 698 004c 1046     		mov	r0, r2
 699 004e FFF7FEFF 		bl	lv_mem_realloc
 700 0052 0246     		mov	r2, r0
 701 0054 7B69     		ldr	r3, [r7, #20]
 702 0056 5A60     		str	r2, [r3, #4]
 225:..\..\..\lvgl\version_6.1.2\lvgl\src\lv_objx/lv_table.c ****         /*Initilize the new fields*/
 226:..\..\..\lvgl\version_6.1.2\lvgl\src\lv_objx/lv_table.c ****         if(old_col_cnt < col_cnt) {
 703              		.loc 3 226 0
 704 0058 7A8A     		ldrh	r2, [r7, #18]
 705 005a 7B88     		ldrh	r3, [r7, #2]
 706 005c 9A42     		cmp	r2, r3
 707 005e 23D2     		bcs	.L35
 708              	.LBB5:
 227:..\..\..\lvgl\version_6.1.2\lvgl\src\lv_objx/lv_table.c ****             uint16_t old_cell_cnt = old_col_cnt * ext->row_cnt;
 709              		.loc 3 227 0
 710 0060 7B69     		ldr	r3, [r7, #20]
 711 0062 5B88     		ldrh	r3, [r3, #2]
 712 0064 7A8A     		ldrh	r2, [r7, #18]	@ movhi
 713 0066 12FB03F3 		smulbb	r3, r2, r3
 714 006a 3B82     		strh	r3, [r7, #16]	@ movhi
 228:..\..\..\lvgl\version_6.1.2\lvgl\src\lv_objx/lv_table.c ****             uint32_t new_cell_cnt = ext->col_cnt * ext->row_cnt;
 715              		.loc 3 228 0
 716 006c 7B69     		ldr	r3, [r7, #20]
 717 006e 1B88     		ldrh	r3, [r3]
 718 0070 1A46     		mov	r2, r3
 719 0072 7B69     		ldr	r3, [r7, #20]
 720 0074 5B88     		ldrh	r3, [r3, #2]
 721 0076 03FB02F3 		mul	r3, r3, r2
 722 007a FB60     		str	r3, [r7, #12]
 229:..\..\..\lvgl\version_6.1.2\lvgl\src\lv_objx/lv_table.c ****             memset(&ext->cell_data[old_cell_cnt], 0, (new_cell_cnt - old_cell_cnt) * sizeof(ext->ce
 723              		.loc 3 229 0
 724 007c 7B69     		ldr	r3, [r7, #20]
 725 007e 5A68     		ldr	r2, [r3, #4]
 726 0080 3B8A     		ldrh	r3, [r7, #16]
 727 0082 9B00     		lsls	r3, r3, #2
 728 0084 D018     		adds	r0, r2, r3
 729 0086 3B8A     		ldrh	r3, [r7, #16]
 730 0088 FA68     		ldr	r2, [r7, #12]
 731 008a D31A     		subs	r3, r2, r3
 732 008c 9B00     		lsls	r3, r3, #2
 733 008e 1A46     		mov	r2, r3
 734 0090 0021     		movs	r1, #0
 735 0092 FFF7FEFF 		bl	memset
 736              	.LBE5:
 226:..\..\..\lvgl\version_6.1.2\lvgl\src\lv_objx/lv_table.c ****             uint16_t old_cell_cnt = old_col_cnt * ext->row_cnt;
 737              		.loc 3 226 0
 738 0096 07E0     		b	.L35
 739              	.L33:
 230:..\..\..\lvgl\version_6.1.2\lvgl\src\lv_objx/lv_table.c ****         }
 231:..\..\..\lvgl\version_6.1.2\lvgl\src\lv_objx/lv_table.c **** 
 232:..\..\..\lvgl\version_6.1.2\lvgl\src\lv_objx/lv_table.c ****     } else {
 233:..\..\..\lvgl\version_6.1.2\lvgl\src\lv_objx/lv_table.c ****         lv_mem_free(ext->cell_data);
 740              		.loc 3 233 0
 741 0098 7B69     		ldr	r3, [r7, #20]
 742 009a 5B68     		ldr	r3, [r3, #4]
 743 009c 1846     		mov	r0, r3
ARM GAS  C:\Users\tmj32\AppData\Local\Temp\ccIZw7Ef.s 			page 22


 744 009e FFF7FEFF 		bl	lv_mem_free
 234:..\..\..\lvgl\version_6.1.2\lvgl\src\lv_objx/lv_table.c ****         ext->cell_data = NULL;
 745              		.loc 3 234 0
 746 00a2 7B69     		ldr	r3, [r7, #20]
 747 00a4 0022     		movs	r2, #0
 748 00a6 5A60     		str	r2, [r3, #4]
 749              	.L35:
 235:..\..\..\lvgl\version_6.1.2\lvgl\src\lv_objx/lv_table.c ****     }
 236:..\..\..\lvgl\version_6.1.2\lvgl\src\lv_objx/lv_table.c ****     refr_size(table);
 750              		.loc 3 236 0
 751 00a8 7868     		ldr	r0, [r7, #4]
 752 00aa FFF7FEFF 		bl	refr_size
 753 00ae 00E0     		b	.L30
 754              	.L36:
 216:..\..\..\lvgl\version_6.1.2\lvgl\src\lv_objx/lv_table.c ****     }
 755              		.loc 3 216 0
 756 00b0 00BF     		nop
 757              	.L30:
 237:..\..\..\lvgl\version_6.1.2\lvgl\src\lv_objx/lv_table.c **** }
 758              		.loc 3 237 0
 759 00b2 1837     		adds	r7, r7, #24
 760              		.cfi_def_cfa_offset 8
 761 00b4 BD46     		mov	sp, r7
 762              		.cfi_def_cfa_register 13
 763              		@ sp needed
 764 00b6 80BD     		pop	{r7, pc}
 765              		.cfi_endproc
 766              	.LFE36:
 767              		.size	lv_table_set_col_cnt, .-lv_table_set_col_cnt
 768              		.section	.text.lv_table_set_col_width,"ax",%progbits
 769              		.align	2
 770              		.global	lv_table_set_col_width
 771              		.thumb
 772              		.thumb_func
 773              		.type	lv_table_set_col_width, %function
 774              	lv_table_set_col_width:
 775              	.LFB37:
 238:..\..\..\lvgl\version_6.1.2\lvgl\src\lv_objx/lv_table.c **** 
 239:..\..\..\lvgl\version_6.1.2\lvgl\src\lv_objx/lv_table.c **** /**
 240:..\..\..\lvgl\version_6.1.2\lvgl\src\lv_objx/lv_table.c ****  * Set the width of a column
 241:..\..\..\lvgl\version_6.1.2\lvgl\src\lv_objx/lv_table.c ****  * @param table table pointer to a Table object
 242:..\..\..\lvgl\version_6.1.2\lvgl\src\lv_objx/lv_table.c ****  * @param col_id id of the column [0 .. LV_TABLE_COL_MAX -1]
 243:..\..\..\lvgl\version_6.1.2\lvgl\src\lv_objx/lv_table.c ****  * @param w width of the column
 244:..\..\..\lvgl\version_6.1.2\lvgl\src\lv_objx/lv_table.c ****  */
 245:..\..\..\lvgl\version_6.1.2\lvgl\src\lv_objx/lv_table.c **** void lv_table_set_col_width(lv_obj_t * table, uint16_t col_id, lv_coord_t w)
 246:..\..\..\lvgl\version_6.1.2\lvgl\src\lv_objx/lv_table.c **** {
 776              		.loc 3 246 0
 777              		.cfi_startproc
 778              		@ args = 0, pretend = 0, frame = 16
 779              		@ frame_needed = 1, uses_anonymous_args = 0
 780 0000 80B5     		push	{r7, lr}
 781              		.cfi_def_cfa_offset 8
 782              		.cfi_offset 7, -8
 783              		.cfi_offset 14, -4
 784 0002 84B0     		sub	sp, sp, #16
 785              		.cfi_def_cfa_offset 24
 786 0004 00AF     		add	r7, sp, #0
ARM GAS  C:\Users\tmj32\AppData\Local\Temp\ccIZw7Ef.s 			page 23


 787              		.cfi_def_cfa_register 7
 788 0006 7860     		str	r0, [r7, #4]
 789 0008 0B46     		mov	r3, r1
 790 000a 7B80     		strh	r3, [r7, #2]	@ movhi
 791 000c 1346     		mov	r3, r2	@ movhi
 792 000e 3B80     		strh	r3, [r7]	@ movhi
 247:..\..\..\lvgl\version_6.1.2\lvgl\src\lv_objx/lv_table.c ****     LV_ASSERT_OBJ(table, LV_OBJX_NAME);
 248:..\..\..\lvgl\version_6.1.2\lvgl\src\lv_objx/lv_table.c **** 
 249:..\..\..\lvgl\version_6.1.2\lvgl\src\lv_objx/lv_table.c ****     if(col_id >= LV_TABLE_COL_MAX) {
 793              		.loc 3 249 0
 794 0010 7B88     		ldrh	r3, [r7, #2]
 795 0012 0B2B     		cmp	r3, #11
 796 0014 0DD8     		bhi	.L40
 250:..\..\..\lvgl\version_6.1.2\lvgl\src\lv_objx/lv_table.c ****         LV_LOG_WARN("lv_table_set_col_width: too big 'col_id'. Must be < LV_TABLE_COL_MAX.");
 251:..\..\..\lvgl\version_6.1.2\lvgl\src\lv_objx/lv_table.c ****         return;
 252:..\..\..\lvgl\version_6.1.2\lvgl\src\lv_objx/lv_table.c ****     }
 253:..\..\..\lvgl\version_6.1.2\lvgl\src\lv_objx/lv_table.c **** 
 254:..\..\..\lvgl\version_6.1.2\lvgl\src\lv_objx/lv_table.c ****     lv_table_ext_t * ext = lv_obj_get_ext_attr(table);
 797              		.loc 3 254 0
 798 0016 7868     		ldr	r0, [r7, #4]
 799 0018 FFF7FEFF 		bl	lv_obj_get_ext_attr
 800 001c F860     		str	r0, [r7, #12]
 255:..\..\..\lvgl\version_6.1.2\lvgl\src\lv_objx/lv_table.c ****     ext->col_w[col_id]   = w;
 801              		.loc 3 255 0
 802 001e 7A88     		ldrh	r2, [r7, #2]
 803 0020 FB68     		ldr	r3, [r7, #12]
 804 0022 0C32     		adds	r2, r2, #12
 805 0024 3988     		ldrh	r1, [r7]	@ movhi
 806 0026 23F81210 		strh	r1, [r3, r2, lsl #1]	@ movhi
 256:..\..\..\lvgl\version_6.1.2\lvgl\src\lv_objx/lv_table.c ****     refr_size(table);
 807              		.loc 3 256 0
 808 002a 7868     		ldr	r0, [r7, #4]
 809 002c FFF7FEFF 		bl	refr_size
 810 0030 00E0     		b	.L37
 811              	.L40:
 251:..\..\..\lvgl\version_6.1.2\lvgl\src\lv_objx/lv_table.c ****     }
 812              		.loc 3 251 0
 813 0032 00BF     		nop
 814              	.L37:
 257:..\..\..\lvgl\version_6.1.2\lvgl\src\lv_objx/lv_table.c **** }
 815              		.loc 3 257 0
 816 0034 1037     		adds	r7, r7, #16
 817              		.cfi_def_cfa_offset 8
 818 0036 BD46     		mov	sp, r7
 819              		.cfi_def_cfa_register 13
 820              		@ sp needed
 821 0038 80BD     		pop	{r7, pc}
 822              		.cfi_endproc
 823              	.LFE37:
 824              		.size	lv_table_set_col_width, .-lv_table_set_col_width
 825 003a 00BF     		.section	.text.lv_table_set_cell_align,"ax",%progbits
 826              		.align	2
 827              		.global	lv_table_set_cell_align
 828              		.thumb
 829              		.thumb_func
 830              		.type	lv_table_set_cell_align, %function
 831              	lv_table_set_cell_align:
ARM GAS  C:\Users\tmj32\AppData\Local\Temp\ccIZw7Ef.s 			page 24


 832              	.LFB38:
 258:..\..\..\lvgl\version_6.1.2\lvgl\src\lv_objx/lv_table.c **** 
 259:..\..\..\lvgl\version_6.1.2\lvgl\src\lv_objx/lv_table.c **** /**
 260:..\..\..\lvgl\version_6.1.2\lvgl\src\lv_objx/lv_table.c ****  * Set the text align in a cell
 261:..\..\..\lvgl\version_6.1.2\lvgl\src\lv_objx/lv_table.c ****  * @param table pointer to a Table object
 262:..\..\..\lvgl\version_6.1.2\lvgl\src\lv_objx/lv_table.c ****  * @param row id of the row [0 .. row_cnt -1]
 263:..\..\..\lvgl\version_6.1.2\lvgl\src\lv_objx/lv_table.c ****  * @param col id of the column [0 .. col_cnt -1]
 264:..\..\..\lvgl\version_6.1.2\lvgl\src\lv_objx/lv_table.c ****  * @param align LV_LABEL_ALIGN_LEFT or LV_LABEL_ALIGN_CENTER or LV_LABEL_ALIGN_RIGHT
 265:..\..\..\lvgl\version_6.1.2\lvgl\src\lv_objx/lv_table.c ****  */
 266:..\..\..\lvgl\version_6.1.2\lvgl\src\lv_objx/lv_table.c **** void lv_table_set_cell_align(lv_obj_t * table, uint16_t row, uint16_t col, lv_label_align_t align)
 267:..\..\..\lvgl\version_6.1.2\lvgl\src\lv_objx/lv_table.c **** {
 833              		.loc 3 267 0
 834              		.cfi_startproc
 835              		@ args = 0, pretend = 0, frame = 32
 836              		@ frame_needed = 1, uses_anonymous_args = 0
 837 0000 90B5     		push	{r4, r7, lr}
 838              		.cfi_def_cfa_offset 12
 839              		.cfi_offset 4, -12
 840              		.cfi_offset 7, -8
 841              		.cfi_offset 14, -4
 842 0002 89B0     		sub	sp, sp, #36
 843              		.cfi_def_cfa_offset 48
 844 0004 00AF     		add	r7, sp, #0
 845              		.cfi_def_cfa_register 7
 846 0006 F860     		str	r0, [r7, #12]
 847 0008 0846     		mov	r0, r1
 848 000a 1146     		mov	r1, r2
 849 000c 1A46     		mov	r2, r3
 850 000e 0346     		mov	r3, r0	@ movhi
 851 0010 7B81     		strh	r3, [r7, #10]	@ movhi
 852 0012 0B46     		mov	r3, r1	@ movhi
 853 0014 3B81     		strh	r3, [r7, #8]	@ movhi
 854 0016 1346     		mov	r3, r2
 855 0018 FB71     		strb	r3, [r7, #7]
 268:..\..\..\lvgl\version_6.1.2\lvgl\src\lv_objx/lv_table.c ****     LV_ASSERT_OBJ(table, LV_OBJX_NAME);
 269:..\..\..\lvgl\version_6.1.2\lvgl\src\lv_objx/lv_table.c **** 
 270:..\..\..\lvgl\version_6.1.2\lvgl\src\lv_objx/lv_table.c ****     lv_table_ext_t * ext = lv_obj_get_ext_attr(table);
 856              		.loc 3 270 0
 857 001a F868     		ldr	r0, [r7, #12]
 858 001c FFF7FEFF 		bl	lv_obj_get_ext_attr
 859 0020 F861     		str	r0, [r7, #28]
 271:..\..\..\lvgl\version_6.1.2\lvgl\src\lv_objx/lv_table.c ****     if(row >= ext->row_cnt || col >= ext->col_cnt) {
 860              		.loc 3 271 0
 861 0022 FB69     		ldr	r3, [r7, #28]
 862 0024 5B88     		ldrh	r3, [r3, #2]
 863 0026 7A89     		ldrh	r2, [r7, #10]
 864 0028 9A42     		cmp	r2, r3
 865 002a 48D2     		bcs	.L46
 866              		.loc 3 271 0 is_stmt 0 discriminator 1
 867 002c FB69     		ldr	r3, [r7, #28]
 868 002e 1B88     		ldrh	r3, [r3]
 869 0030 3A89     		ldrh	r2, [r7, #8]
 870 0032 9A42     		cmp	r2, r3
 871 0034 43D2     		bcs	.L46
 272:..\..\..\lvgl\version_6.1.2\lvgl\src\lv_objx/lv_table.c ****         LV_LOG_WARN("lv_table_set_cell_align: invalid row or column");
 273:..\..\..\lvgl\version_6.1.2\lvgl\src\lv_objx/lv_table.c ****         return;
 274:..\..\..\lvgl\version_6.1.2\lvgl\src\lv_objx/lv_table.c ****     }
ARM GAS  C:\Users\tmj32\AppData\Local\Temp\ccIZw7Ef.s 			page 25


 275:..\..\..\lvgl\version_6.1.2\lvgl\src\lv_objx/lv_table.c ****     uint32_t cell = row * ext->col_cnt + col;
 872              		.loc 3 275 0 is_stmt 1
 873 0036 7B89     		ldrh	r3, [r7, #10]
 874 0038 FA69     		ldr	r2, [r7, #28]
 875 003a 1288     		ldrh	r2, [r2]
 876 003c 02FB03F2 		mul	r2, r2, r3
 877 0040 3B89     		ldrh	r3, [r7, #8]
 878 0042 1344     		add	r3, r3, r2
 879 0044 BB61     		str	r3, [r7, #24]
 276:..\..\..\lvgl\version_6.1.2\lvgl\src\lv_objx/lv_table.c **** 
 277:..\..\..\lvgl\version_6.1.2\lvgl\src\lv_objx/lv_table.c ****     if(ext->cell_data[cell] == NULL) {
 880              		.loc 3 277 0
 881 0046 FB69     		ldr	r3, [r7, #28]
 882 0048 5A68     		ldr	r2, [r3, #4]
 883 004a BB69     		ldr	r3, [r7, #24]
 884 004c 9B00     		lsls	r3, r3, #2
 885 004e 1344     		add	r3, r3, r2
 886 0050 1B68     		ldr	r3, [r3]
 887 0052 002B     		cmp	r3, #0
 888 0054 1AD1     		bne	.L45
 278:..\..\..\lvgl\version_6.1.2\lvgl\src\lv_objx/lv_table.c ****         ext->cell_data[cell]    = lv_mem_alloc(2); /*+1: trailing '\0; +1: format byte*/
 889              		.loc 3 278 0
 890 0056 FB69     		ldr	r3, [r7, #28]
 891 0058 5A68     		ldr	r2, [r3, #4]
 892 005a BB69     		ldr	r3, [r7, #24]
 893 005c 9B00     		lsls	r3, r3, #2
 894 005e D418     		adds	r4, r2, r3
 895 0060 0220     		movs	r0, #2
 896 0062 FFF7FEFF 		bl	lv_mem_alloc
 897 0066 0346     		mov	r3, r0
 898 0068 2360     		str	r3, [r4]
 279:..\..\..\lvgl\version_6.1.2\lvgl\src\lv_objx/lv_table.c ****         ext->cell_data[cell][0] = 0;
 899              		.loc 3 279 0
 900 006a FB69     		ldr	r3, [r7, #28]
 901 006c 5A68     		ldr	r2, [r3, #4]
 902 006e BB69     		ldr	r3, [r7, #24]
 903 0070 9B00     		lsls	r3, r3, #2
 904 0072 1344     		add	r3, r3, r2
 905 0074 1B68     		ldr	r3, [r3]
 906 0076 0022     		movs	r2, #0
 907 0078 1A70     		strb	r2, [r3]
 280:..\..\..\lvgl\version_6.1.2\lvgl\src\lv_objx/lv_table.c ****         ext->cell_data[cell][1] = '\0';
 908              		.loc 3 280 0
 909 007a FB69     		ldr	r3, [r7, #28]
 910 007c 5A68     		ldr	r2, [r3, #4]
 911 007e BB69     		ldr	r3, [r7, #24]
 912 0080 9B00     		lsls	r3, r3, #2
 913 0082 1344     		add	r3, r3, r2
 914 0084 1B68     		ldr	r3, [r3]
 915 0086 0133     		adds	r3, r3, #1
 916 0088 0022     		movs	r2, #0
 917 008a 1A70     		strb	r2, [r3]
 918              	.L45:
 281:..\..\..\lvgl\version_6.1.2\lvgl\src\lv_objx/lv_table.c ****     }
 282:..\..\..\lvgl\version_6.1.2\lvgl\src\lv_objx/lv_table.c **** 
 283:..\..\..\lvgl\version_6.1.2\lvgl\src\lv_objx/lv_table.c ****     lv_table_cell_format_t format;
 284:..\..\..\lvgl\version_6.1.2\lvgl\src\lv_objx/lv_table.c ****     format.format_byte      = ext->cell_data[cell][0];
ARM GAS  C:\Users\tmj32\AppData\Local\Temp\ccIZw7Ef.s 			page 26


 919              		.loc 3 284 0
 920 008c FB69     		ldr	r3, [r7, #28]
 921 008e 5A68     		ldr	r2, [r3, #4]
 922 0090 BB69     		ldr	r3, [r7, #24]
 923 0092 9B00     		lsls	r3, r3, #2
 924 0094 1344     		add	r3, r3, r2
 925 0096 1B68     		ldr	r3, [r3]
 926 0098 1B78     		ldrb	r3, [r3]	@ zero_extendqisi2
 927 009a 3B75     		strb	r3, [r7, #20]
 285:..\..\..\lvgl\version_6.1.2\lvgl\src\lv_objx/lv_table.c ****     format.s.align          = align;
 928              		.loc 3 285 0
 929 009c FB79     		ldrb	r3, [r7, #7]
 930 009e 03F00303 		and	r3, r3, #3
 931 00a2 DAB2     		uxtb	r2, r3
 932 00a4 3B7D     		ldrb	r3, [r7, #20]
 933 00a6 62F30103 		bfi	r3, r2, #0, #2
 934 00aa 3B75     		strb	r3, [r7, #20]
 286:..\..\..\lvgl\version_6.1.2\lvgl\src\lv_objx/lv_table.c ****     ext->cell_data[cell][0] = format.format_byte;
 935              		.loc 3 286 0
 936 00ac FB69     		ldr	r3, [r7, #28]
 937 00ae 5A68     		ldr	r2, [r3, #4]
 938 00b0 BB69     		ldr	r3, [r7, #24]
 939 00b2 9B00     		lsls	r3, r3, #2
 940 00b4 1344     		add	r3, r3, r2
 941 00b6 1B68     		ldr	r3, [r3]
 942 00b8 3A7D     		ldrb	r2, [r7, #20]	@ zero_extendqisi2
 943 00ba 1A70     		strb	r2, [r3]
 944 00bc 00E0     		b	.L41
 945              	.L46:
 273:..\..\..\lvgl\version_6.1.2\lvgl\src\lv_objx/lv_table.c ****     }
 946              		.loc 3 273 0
 947 00be 00BF     		nop
 948              	.L41:
 287:..\..\..\lvgl\version_6.1.2\lvgl\src\lv_objx/lv_table.c **** }
 949              		.loc 3 287 0
 950 00c0 2437     		adds	r7, r7, #36
 951              		.cfi_def_cfa_offset 12
 952 00c2 BD46     		mov	sp, r7
 953              		.cfi_def_cfa_register 13
 954              		@ sp needed
 955 00c4 90BD     		pop	{r4, r7, pc}
 956              		.cfi_endproc
 957              	.LFE38:
 958              		.size	lv_table_set_cell_align, .-lv_table_set_cell_align
 959 00c6 00BF     		.section	.text.lv_table_set_cell_type,"ax",%progbits
 960              		.align	2
 961              		.global	lv_table_set_cell_type
 962              		.thumb
 963              		.thumb_func
 964              		.type	lv_table_set_cell_type, %function
 965              	lv_table_set_cell_type:
 966              	.LFB39:
 288:..\..\..\lvgl\version_6.1.2\lvgl\src\lv_objx/lv_table.c **** 
 289:..\..\..\lvgl\version_6.1.2\lvgl\src\lv_objx/lv_table.c **** /**
 290:..\..\..\lvgl\version_6.1.2\lvgl\src\lv_objx/lv_table.c ****  * Set the type of a cell.
 291:..\..\..\lvgl\version_6.1.2\lvgl\src\lv_objx/lv_table.c ****  * @param table pointer to a Table object
 292:..\..\..\lvgl\version_6.1.2\lvgl\src\lv_objx/lv_table.c ****  * @param row id of the row [0 .. row_cnt -1]
ARM GAS  C:\Users\tmj32\AppData\Local\Temp\ccIZw7Ef.s 			page 27


 293:..\..\..\lvgl\version_6.1.2\lvgl\src\lv_objx/lv_table.c ****  * @param col id of the column [0 .. col_cnt -1]
 294:..\..\..\lvgl\version_6.1.2\lvgl\src\lv_objx/lv_table.c ****  * @param type 1,2,3 or 4. The cell style will be chosen accordingly.
 295:..\..\..\lvgl\version_6.1.2\lvgl\src\lv_objx/lv_table.c ****  */
 296:..\..\..\lvgl\version_6.1.2\lvgl\src\lv_objx/lv_table.c **** void lv_table_set_cell_type(lv_obj_t * table, uint16_t row, uint16_t col, uint8_t type)
 297:..\..\..\lvgl\version_6.1.2\lvgl\src\lv_objx/lv_table.c **** {
 967              		.loc 3 297 0
 968              		.cfi_startproc
 969              		@ args = 0, pretend = 0, frame = 32
 970              		@ frame_needed = 1, uses_anonymous_args = 0
 971 0000 90B5     		push	{r4, r7, lr}
 972              		.cfi_def_cfa_offset 12
 973              		.cfi_offset 4, -12
 974              		.cfi_offset 7, -8
 975              		.cfi_offset 14, -4
 976 0002 89B0     		sub	sp, sp, #36
 977              		.cfi_def_cfa_offset 48
 978 0004 00AF     		add	r7, sp, #0
 979              		.cfi_def_cfa_register 7
 980 0006 F860     		str	r0, [r7, #12]
 981 0008 0846     		mov	r0, r1
 982 000a 1146     		mov	r1, r2
 983 000c 1A46     		mov	r2, r3
 984 000e 0346     		mov	r3, r0	@ movhi
 985 0010 7B81     		strh	r3, [r7, #10]	@ movhi
 986 0012 0B46     		mov	r3, r1	@ movhi
 987 0014 3B81     		strh	r3, [r7, #8]	@ movhi
 988 0016 1346     		mov	r3, r2
 989 0018 FB71     		strb	r3, [r7, #7]
 298:..\..\..\lvgl\version_6.1.2\lvgl\src\lv_objx/lv_table.c ****     LV_ASSERT_OBJ(table, LV_OBJX_NAME);
 299:..\..\..\lvgl\version_6.1.2\lvgl\src\lv_objx/lv_table.c **** 
 300:..\..\..\lvgl\version_6.1.2\lvgl\src\lv_objx/lv_table.c ****     lv_table_ext_t * ext = lv_obj_get_ext_attr(table);
 990              		.loc 3 300 0
 991 001a F868     		ldr	r0, [r7, #12]
 992 001c FFF7FEFF 		bl	lv_obj_get_ext_attr
 993 0020 F861     		str	r0, [r7, #28]
 301:..\..\..\lvgl\version_6.1.2\lvgl\src\lv_objx/lv_table.c ****     if(row >= ext->row_cnt || col >= ext->col_cnt) {
 994              		.loc 3 301 0
 995 0022 FB69     		ldr	r3, [r7, #28]
 996 0024 5B88     		ldrh	r3, [r3, #2]
 997 0026 7A89     		ldrh	r2, [r7, #10]
 998 0028 9A42     		cmp	r2, r3
 999 002a 53D2     		bcs	.L54
 1000              		.loc 3 301 0 is_stmt 0 discriminator 1
 1001 002c FB69     		ldr	r3, [r7, #28]
 1002 002e 1B88     		ldrh	r3, [r3]
 1003 0030 3A89     		ldrh	r2, [r7, #8]
 1004 0032 9A42     		cmp	r2, r3
 1005 0034 4ED2     		bcs	.L54
 302:..\..\..\lvgl\version_6.1.2\lvgl\src\lv_objx/lv_table.c ****         LV_LOG_WARN("lv_table_set_cell_type: invalid row or column");
 303:..\..\..\lvgl\version_6.1.2\lvgl\src\lv_objx/lv_table.c ****         return;
 304:..\..\..\lvgl\version_6.1.2\lvgl\src\lv_objx/lv_table.c ****     }
 305:..\..\..\lvgl\version_6.1.2\lvgl\src\lv_objx/lv_table.c ****     uint32_t cell = row * ext->col_cnt + col;
 1006              		.loc 3 305 0 is_stmt 1
 1007 0036 7B89     		ldrh	r3, [r7, #10]
 1008 0038 FA69     		ldr	r2, [r7, #28]
 1009 003a 1288     		ldrh	r2, [r2]
 1010 003c 02FB03F2 		mul	r2, r2, r3
ARM GAS  C:\Users\tmj32\AppData\Local\Temp\ccIZw7Ef.s 			page 28


 1011 0040 3B89     		ldrh	r3, [r7, #8]
 1012 0042 1344     		add	r3, r3, r2
 1013 0044 BB61     		str	r3, [r7, #24]
 306:..\..\..\lvgl\version_6.1.2\lvgl\src\lv_objx/lv_table.c **** 
 307:..\..\..\lvgl\version_6.1.2\lvgl\src\lv_objx/lv_table.c ****     if(ext->cell_data[cell] == NULL) {
 1014              		.loc 3 307 0
 1015 0046 FB69     		ldr	r3, [r7, #28]
 1016 0048 5A68     		ldr	r2, [r3, #4]
 1017 004a BB69     		ldr	r3, [r7, #24]
 1018 004c 9B00     		lsls	r3, r3, #2
 1019 004e 1344     		add	r3, r3, r2
 1020 0050 1B68     		ldr	r3, [r3]
 1021 0052 002B     		cmp	r3, #0
 1022 0054 1AD1     		bne	.L51
 308:..\..\..\lvgl\version_6.1.2\lvgl\src\lv_objx/lv_table.c ****         ext->cell_data[cell]    = lv_mem_alloc(2); /*+1: trailing '\0; +1: format byte*/
 1023              		.loc 3 308 0
 1024 0056 FB69     		ldr	r3, [r7, #28]
 1025 0058 5A68     		ldr	r2, [r3, #4]
 1026 005a BB69     		ldr	r3, [r7, #24]
 1027 005c 9B00     		lsls	r3, r3, #2
 1028 005e D418     		adds	r4, r2, r3
 1029 0060 0220     		movs	r0, #2
 1030 0062 FFF7FEFF 		bl	lv_mem_alloc
 1031 0066 0346     		mov	r3, r0
 1032 0068 2360     		str	r3, [r4]
 309:..\..\..\lvgl\version_6.1.2\lvgl\src\lv_objx/lv_table.c ****         ext->cell_data[cell][0] = 0;
 1033              		.loc 3 309 0
 1034 006a FB69     		ldr	r3, [r7, #28]
 1035 006c 5A68     		ldr	r2, [r3, #4]
 1036 006e BB69     		ldr	r3, [r7, #24]
 1037 0070 9B00     		lsls	r3, r3, #2
 1038 0072 1344     		add	r3, r3, r2
 1039 0074 1B68     		ldr	r3, [r3]
 1040 0076 0022     		movs	r2, #0
 1041 0078 1A70     		strb	r2, [r3]
 310:..\..\..\lvgl\version_6.1.2\lvgl\src\lv_objx/lv_table.c ****         ext->cell_data[cell][1] = '\0';
 1042              		.loc 3 310 0
 1043 007a FB69     		ldr	r3, [r7, #28]
 1044 007c 5A68     		ldr	r2, [r3, #4]
 1045 007e BB69     		ldr	r3, [r7, #24]
 1046 0080 9B00     		lsls	r3, r3, #2
 1047 0082 1344     		add	r3, r3, r2
 1048 0084 1B68     		ldr	r3, [r3]
 1049 0086 0133     		adds	r3, r3, #1
 1050 0088 0022     		movs	r2, #0
 1051 008a 1A70     		strb	r2, [r3]
 1052              	.L51:
 311:..\..\..\lvgl\version_6.1.2\lvgl\src\lv_objx/lv_table.c ****     }
 312:..\..\..\lvgl\version_6.1.2\lvgl\src\lv_objx/lv_table.c **** 
 313:..\..\..\lvgl\version_6.1.2\lvgl\src\lv_objx/lv_table.c ****     if(type > 0) type--; /*User gives 1,2,3,4 but easier to handle 0, 1, 2, 3*/
 1053              		.loc 3 313 0
 1054 008c FB79     		ldrb	r3, [r7, #7]	@ zero_extendqisi2
 1055 008e 002B     		cmp	r3, #0
 1056 0090 02D0     		beq	.L52
 1057              		.loc 3 313 0 is_stmt 0 discriminator 1
 1058 0092 FB79     		ldrb	r3, [r7, #7]	@ zero_extendqisi2
 1059 0094 013B     		subs	r3, r3, #1
ARM GAS  C:\Users\tmj32\AppData\Local\Temp\ccIZw7Ef.s 			page 29


 1060 0096 FB71     		strb	r3, [r7, #7]
 1061              	.L52:
 314:..\..\..\lvgl\version_6.1.2\lvgl\src\lv_objx/lv_table.c ****     if(type >= LV_TABLE_CELL_STYLE_CNT) type = LV_TABLE_CELL_STYLE_CNT - 1;
 1062              		.loc 3 314 0 is_stmt 1
 1063 0098 FB79     		ldrb	r3, [r7, #7]	@ zero_extendqisi2
 1064 009a 032B     		cmp	r3, #3
 1065 009c 01D9     		bls	.L53
 1066              		.loc 3 314 0 is_stmt 0 discriminator 1
 1067 009e 0323     		movs	r3, #3
 1068 00a0 FB71     		strb	r3, [r7, #7]
 1069              	.L53:
 315:..\..\..\lvgl\version_6.1.2\lvgl\src\lv_objx/lv_table.c **** 
 316:..\..\..\lvgl\version_6.1.2\lvgl\src\lv_objx/lv_table.c ****     lv_table_cell_format_t format;
 317:..\..\..\lvgl\version_6.1.2\lvgl\src\lv_objx/lv_table.c ****     format.format_byte      = ext->cell_data[cell][0];
 1070              		.loc 3 317 0 is_stmt 1
 1071 00a2 FB69     		ldr	r3, [r7, #28]
 1072 00a4 5A68     		ldr	r2, [r3, #4]
 1073 00a6 BB69     		ldr	r3, [r7, #24]
 1074 00a8 9B00     		lsls	r3, r3, #2
 1075 00aa 1344     		add	r3, r3, r2
 1076 00ac 1B68     		ldr	r3, [r3]
 1077 00ae 1B78     		ldrb	r3, [r3]	@ zero_extendqisi2
 1078 00b0 3B75     		strb	r3, [r7, #20]
 318:..\..\..\lvgl\version_6.1.2\lvgl\src\lv_objx/lv_table.c ****     format.s.type           = type;
 1079              		.loc 3 318 0
 1080 00b2 FB79     		ldrb	r3, [r7, #7]
 1081 00b4 03F00303 		and	r3, r3, #3
 1082 00b8 DAB2     		uxtb	r2, r3
 1083 00ba 3B7D     		ldrb	r3, [r7, #20]
 1084 00bc 62F3C403 		bfi	r3, r2, #3, #2
 1085 00c0 3B75     		strb	r3, [r7, #20]
 319:..\..\..\lvgl\version_6.1.2\lvgl\src\lv_objx/lv_table.c ****     ext->cell_data[cell][0] = format.format_byte;
 1086              		.loc 3 319 0
 1087 00c2 FB69     		ldr	r3, [r7, #28]
 1088 00c4 5A68     		ldr	r2, [r3, #4]
 1089 00c6 BB69     		ldr	r3, [r7, #24]
 1090 00c8 9B00     		lsls	r3, r3, #2
 1091 00ca 1344     		add	r3, r3, r2
 1092 00cc 1B68     		ldr	r3, [r3]
 1093 00ce 3A7D     		ldrb	r2, [r7, #20]	@ zero_extendqisi2
 1094 00d0 1A70     		strb	r2, [r3]
 1095 00d2 00E0     		b	.L47
 1096              	.L54:
 303:..\..\..\lvgl\version_6.1.2\lvgl\src\lv_objx/lv_table.c ****     }
 1097              		.loc 3 303 0
 1098 00d4 00BF     		nop
 1099              	.L47:
 320:..\..\..\lvgl\version_6.1.2\lvgl\src\lv_objx/lv_table.c **** }
 1100              		.loc 3 320 0
 1101 00d6 2437     		adds	r7, r7, #36
 1102              		.cfi_def_cfa_offset 12
 1103 00d8 BD46     		mov	sp, r7
 1104              		.cfi_def_cfa_register 13
 1105              		@ sp needed
 1106 00da 90BD     		pop	{r4, r7, pc}
 1107              		.cfi_endproc
 1108              	.LFE39:
ARM GAS  C:\Users\tmj32\AppData\Local\Temp\ccIZw7Ef.s 			page 30


 1109              		.size	lv_table_set_cell_type, .-lv_table_set_cell_type
 1110              		.section	.text.lv_table_set_cell_crop,"ax",%progbits
 1111              		.align	2
 1112              		.global	lv_table_set_cell_crop
 1113              		.thumb
 1114              		.thumb_func
 1115              		.type	lv_table_set_cell_crop, %function
 1116              	lv_table_set_cell_crop:
 1117              	.LFB40:
 321:..\..\..\lvgl\version_6.1.2\lvgl\src\lv_objx/lv_table.c **** 
 322:..\..\..\lvgl\version_6.1.2\lvgl\src\lv_objx/lv_table.c **** /**
 323:..\..\..\lvgl\version_6.1.2\lvgl\src\lv_objx/lv_table.c ****  * Set the cell crop. (Don't adjust the height of the cell according to its content)
 324:..\..\..\lvgl\version_6.1.2\lvgl\src\lv_objx/lv_table.c ****  * @param table pointer to a Table object
 325:..\..\..\lvgl\version_6.1.2\lvgl\src\lv_objx/lv_table.c ****  * @param row id of the row [0 .. row_cnt -1]
 326:..\..\..\lvgl\version_6.1.2\lvgl\src\lv_objx/lv_table.c ****  * @param col id of the column [0 .. col_cnt -1]
 327:..\..\..\lvgl\version_6.1.2\lvgl\src\lv_objx/lv_table.c ****  * @param crop true: crop the cell content; false: set the cell height to the content.
 328:..\..\..\lvgl\version_6.1.2\lvgl\src\lv_objx/lv_table.c ****  */
 329:..\..\..\lvgl\version_6.1.2\lvgl\src\lv_objx/lv_table.c **** void lv_table_set_cell_crop(lv_obj_t * table, uint16_t row, uint16_t col, bool crop)
 330:..\..\..\lvgl\version_6.1.2\lvgl\src\lv_objx/lv_table.c **** {
 1118              		.loc 3 330 0
 1119              		.cfi_startproc
 1120              		@ args = 0, pretend = 0, frame = 32
 1121              		@ frame_needed = 1, uses_anonymous_args = 0
 1122 0000 90B5     		push	{r4, r7, lr}
 1123              		.cfi_def_cfa_offset 12
 1124              		.cfi_offset 4, -12
 1125              		.cfi_offset 7, -8
 1126              		.cfi_offset 14, -4
 1127 0002 89B0     		sub	sp, sp, #36
 1128              		.cfi_def_cfa_offset 48
 1129 0004 00AF     		add	r7, sp, #0
 1130              		.cfi_def_cfa_register 7
 1131 0006 F860     		str	r0, [r7, #12]
 1132 0008 0846     		mov	r0, r1
 1133 000a 1146     		mov	r1, r2
 1134 000c 1A46     		mov	r2, r3
 1135 000e 0346     		mov	r3, r0	@ movhi
 1136 0010 7B81     		strh	r3, [r7, #10]	@ movhi
 1137 0012 0B46     		mov	r3, r1	@ movhi
 1138 0014 3B81     		strh	r3, [r7, #8]	@ movhi
 1139 0016 1346     		mov	r3, r2
 1140 0018 FB71     		strb	r3, [r7, #7]
 331:..\..\..\lvgl\version_6.1.2\lvgl\src\lv_objx/lv_table.c ****     LV_ASSERT_OBJ(table, LV_OBJX_NAME);
 332:..\..\..\lvgl\version_6.1.2\lvgl\src\lv_objx/lv_table.c **** 
 333:..\..\..\lvgl\version_6.1.2\lvgl\src\lv_objx/lv_table.c ****     lv_table_ext_t * ext = lv_obj_get_ext_attr(table);
 1141              		.loc 3 333 0
 1142 001a F868     		ldr	r0, [r7, #12]
 1143 001c FFF7FEFF 		bl	lv_obj_get_ext_attr
 1144 0020 F861     		str	r0, [r7, #28]
 334:..\..\..\lvgl\version_6.1.2\lvgl\src\lv_objx/lv_table.c ****     if(row >= ext->row_cnt || col >= ext->col_cnt) {
 1145              		.loc 3 334 0
 1146 0022 FB69     		ldr	r3, [r7, #28]
 1147 0024 5B88     		ldrh	r3, [r3, #2]
 1148 0026 7A89     		ldrh	r2, [r7, #10]
 1149 0028 9A42     		cmp	r2, r3
 1150 002a 45D2     		bcs	.L60
 1151              		.loc 3 334 0 is_stmt 0 discriminator 1
ARM GAS  C:\Users\tmj32\AppData\Local\Temp\ccIZw7Ef.s 			page 31


 1152 002c FB69     		ldr	r3, [r7, #28]
 1153 002e 1B88     		ldrh	r3, [r3]
 1154 0030 3A89     		ldrh	r2, [r7, #8]
 1155 0032 9A42     		cmp	r2, r3
 1156 0034 40D2     		bcs	.L60
 335:..\..\..\lvgl\version_6.1.2\lvgl\src\lv_objx/lv_table.c ****         LV_LOG_WARN("lv_table_set_cell_crop: invalid row or column");
 336:..\..\..\lvgl\version_6.1.2\lvgl\src\lv_objx/lv_table.c ****         return;
 337:..\..\..\lvgl\version_6.1.2\lvgl\src\lv_objx/lv_table.c ****     }
 338:..\..\..\lvgl\version_6.1.2\lvgl\src\lv_objx/lv_table.c ****     uint32_t cell = row * ext->col_cnt + col;
 1157              		.loc 3 338 0 is_stmt 1
 1158 0036 7B89     		ldrh	r3, [r7, #10]
 1159 0038 FA69     		ldr	r2, [r7, #28]
 1160 003a 1288     		ldrh	r2, [r2]
 1161 003c 02FB03F2 		mul	r2, r2, r3
 1162 0040 3B89     		ldrh	r3, [r7, #8]
 1163 0042 1344     		add	r3, r3, r2
 1164 0044 BB61     		str	r3, [r7, #24]
 339:..\..\..\lvgl\version_6.1.2\lvgl\src\lv_objx/lv_table.c **** 
 340:..\..\..\lvgl\version_6.1.2\lvgl\src\lv_objx/lv_table.c ****     if(ext->cell_data[cell] == NULL) {
 1165              		.loc 3 340 0
 1166 0046 FB69     		ldr	r3, [r7, #28]
 1167 0048 5A68     		ldr	r2, [r3, #4]
 1168 004a BB69     		ldr	r3, [r7, #24]
 1169 004c 9B00     		lsls	r3, r3, #2
 1170 004e 1344     		add	r3, r3, r2
 1171 0050 1B68     		ldr	r3, [r3]
 1172 0052 002B     		cmp	r3, #0
 1173 0054 1AD1     		bne	.L59
 341:..\..\..\lvgl\version_6.1.2\lvgl\src\lv_objx/lv_table.c ****         ext->cell_data[cell]    = lv_mem_alloc(2); /*+1: trailing '\0; +1: format byte*/
 1174              		.loc 3 341 0
 1175 0056 FB69     		ldr	r3, [r7, #28]
 1176 0058 5A68     		ldr	r2, [r3, #4]
 1177 005a BB69     		ldr	r3, [r7, #24]
 1178 005c 9B00     		lsls	r3, r3, #2
 1179 005e D418     		adds	r4, r2, r3
 1180 0060 0220     		movs	r0, #2
 1181 0062 FFF7FEFF 		bl	lv_mem_alloc
 1182 0066 0346     		mov	r3, r0
 1183 0068 2360     		str	r3, [r4]
 342:..\..\..\lvgl\version_6.1.2\lvgl\src\lv_objx/lv_table.c ****         ext->cell_data[cell][0] = 0;
 1184              		.loc 3 342 0
 1185 006a FB69     		ldr	r3, [r7, #28]
 1186 006c 5A68     		ldr	r2, [r3, #4]
 1187 006e BB69     		ldr	r3, [r7, #24]
 1188 0070 9B00     		lsls	r3, r3, #2
 1189 0072 1344     		add	r3, r3, r2
 1190 0074 1B68     		ldr	r3, [r3]
 1191 0076 0022     		movs	r2, #0
 1192 0078 1A70     		strb	r2, [r3]
 343:..\..\..\lvgl\version_6.1.2\lvgl\src\lv_objx/lv_table.c ****         ext->cell_data[cell][1] = '\0';
 1193              		.loc 3 343 0
 1194 007a FB69     		ldr	r3, [r7, #28]
 1195 007c 5A68     		ldr	r2, [r3, #4]
 1196 007e BB69     		ldr	r3, [r7, #24]
 1197 0080 9B00     		lsls	r3, r3, #2
 1198 0082 1344     		add	r3, r3, r2
 1199 0084 1B68     		ldr	r3, [r3]
ARM GAS  C:\Users\tmj32\AppData\Local\Temp\ccIZw7Ef.s 			page 32


 1200 0086 0133     		adds	r3, r3, #1
 1201 0088 0022     		movs	r2, #0
 1202 008a 1A70     		strb	r2, [r3]
 1203              	.L59:
 344:..\..\..\lvgl\version_6.1.2\lvgl\src\lv_objx/lv_table.c ****     }
 345:..\..\..\lvgl\version_6.1.2\lvgl\src\lv_objx/lv_table.c **** 
 346:..\..\..\lvgl\version_6.1.2\lvgl\src\lv_objx/lv_table.c ****     lv_table_cell_format_t format;
 347:..\..\..\lvgl\version_6.1.2\lvgl\src\lv_objx/lv_table.c ****     format.format_byte      = ext->cell_data[cell][0];
 1204              		.loc 3 347 0
 1205 008c FB69     		ldr	r3, [r7, #28]
 1206 008e 5A68     		ldr	r2, [r3, #4]
 1207 0090 BB69     		ldr	r3, [r7, #24]
 1208 0092 9B00     		lsls	r3, r3, #2
 1209 0094 1344     		add	r3, r3, r2
 1210 0096 1B68     		ldr	r3, [r3]
 1211 0098 1B78     		ldrb	r3, [r3]	@ zero_extendqisi2
 1212 009a 3B75     		strb	r3, [r7, #20]
 348:..\..\..\lvgl\version_6.1.2\lvgl\src\lv_objx/lv_table.c ****     format.s.crop           = crop;
 1213              		.loc 3 348 0
 1214 009c 3B7D     		ldrb	r3, [r7, #20]
 1215 009e FA79     		ldrb	r2, [r7, #7]
 1216 00a0 62F34513 		bfi	r3, r2, #5, #1
 1217 00a4 3B75     		strb	r3, [r7, #20]
 349:..\..\..\lvgl\version_6.1.2\lvgl\src\lv_objx/lv_table.c ****     ext->cell_data[cell][0] = format.format_byte;
 1218              		.loc 3 349 0
 1219 00a6 FB69     		ldr	r3, [r7, #28]
 1220 00a8 5A68     		ldr	r2, [r3, #4]
 1221 00aa BB69     		ldr	r3, [r7, #24]
 1222 00ac 9B00     		lsls	r3, r3, #2
 1223 00ae 1344     		add	r3, r3, r2
 1224 00b0 1B68     		ldr	r3, [r3]
 1225 00b2 3A7D     		ldrb	r2, [r7, #20]	@ zero_extendqisi2
 1226 00b4 1A70     		strb	r2, [r3]
 1227 00b6 00E0     		b	.L55
 1228              	.L60:
 336:..\..\..\lvgl\version_6.1.2\lvgl\src\lv_objx/lv_table.c ****     }
 1229              		.loc 3 336 0
 1230 00b8 00BF     		nop
 1231              	.L55:
 350:..\..\..\lvgl\version_6.1.2\lvgl\src\lv_objx/lv_table.c **** }
 1232              		.loc 3 350 0
 1233 00ba 2437     		adds	r7, r7, #36
 1234              		.cfi_def_cfa_offset 12
 1235 00bc BD46     		mov	sp, r7
 1236              		.cfi_def_cfa_register 13
 1237              		@ sp needed
 1238 00be 90BD     		pop	{r4, r7, pc}
 1239              		.cfi_endproc
 1240              	.LFE40:
 1241              		.size	lv_table_set_cell_crop, .-lv_table_set_cell_crop
 1242              		.section	.text.lv_table_set_cell_merge_right,"ax",%progbits
 1243              		.align	2
 1244              		.global	lv_table_set_cell_merge_right
 1245              		.thumb
 1246              		.thumb_func
 1247              		.type	lv_table_set_cell_merge_right, %function
 1248              	lv_table_set_cell_merge_right:
ARM GAS  C:\Users\tmj32\AppData\Local\Temp\ccIZw7Ef.s 			page 33


 1249              	.LFB41:
 351:..\..\..\lvgl\version_6.1.2\lvgl\src\lv_objx/lv_table.c **** 
 352:..\..\..\lvgl\version_6.1.2\lvgl\src\lv_objx/lv_table.c **** /**
 353:..\..\..\lvgl\version_6.1.2\lvgl\src\lv_objx/lv_table.c ****  * Merge a cell with the right neighbor. The value of the cell to the right won't be displayed.
 354:..\..\..\lvgl\version_6.1.2\lvgl\src\lv_objx/lv_table.c ****  * @param table table pointer to a Table object
 355:..\..\..\lvgl\version_6.1.2\lvgl\src\lv_objx/lv_table.c ****  * @param row id of the row [0 .. row_cnt -1]
 356:..\..\..\lvgl\version_6.1.2\lvgl\src\lv_objx/lv_table.c ****  * @param col id of the column [0 .. col_cnt -1]
 357:..\..\..\lvgl\version_6.1.2\lvgl\src\lv_objx/lv_table.c ****  * @param en true: merge right; false: don't merge right
 358:..\..\..\lvgl\version_6.1.2\lvgl\src\lv_objx/lv_table.c ****  */
 359:..\..\..\lvgl\version_6.1.2\lvgl\src\lv_objx/lv_table.c **** void lv_table_set_cell_merge_right(lv_obj_t * table, uint16_t row, uint16_t col, bool en)
 360:..\..\..\lvgl\version_6.1.2\lvgl\src\lv_objx/lv_table.c **** {
 1250              		.loc 3 360 0
 1251              		.cfi_startproc
 1252              		@ args = 0, pretend = 0, frame = 32
 1253              		@ frame_needed = 1, uses_anonymous_args = 0
 1254 0000 90B5     		push	{r4, r7, lr}
 1255              		.cfi_def_cfa_offset 12
 1256              		.cfi_offset 4, -12
 1257              		.cfi_offset 7, -8
 1258              		.cfi_offset 14, -4
 1259 0002 89B0     		sub	sp, sp, #36
 1260              		.cfi_def_cfa_offset 48
 1261 0004 00AF     		add	r7, sp, #0
 1262              		.cfi_def_cfa_register 7
 1263 0006 F860     		str	r0, [r7, #12]
 1264 0008 0846     		mov	r0, r1
 1265 000a 1146     		mov	r1, r2
 1266 000c 1A46     		mov	r2, r3
 1267 000e 0346     		mov	r3, r0	@ movhi
 1268 0010 7B81     		strh	r3, [r7, #10]	@ movhi
 1269 0012 0B46     		mov	r3, r1	@ movhi
 1270 0014 3B81     		strh	r3, [r7, #8]	@ movhi
 1271 0016 1346     		mov	r3, r2
 1272 0018 FB71     		strb	r3, [r7, #7]
 361:..\..\..\lvgl\version_6.1.2\lvgl\src\lv_objx/lv_table.c ****     LV_ASSERT_OBJ(table, LV_OBJX_NAME);
 362:..\..\..\lvgl\version_6.1.2\lvgl\src\lv_objx/lv_table.c **** 
 363:..\..\..\lvgl\version_6.1.2\lvgl\src\lv_objx/lv_table.c ****     lv_table_ext_t * ext = lv_obj_get_ext_attr(table);
 1273              		.loc 3 363 0
 1274 001a F868     		ldr	r0, [r7, #12]
 1275 001c FFF7FEFF 		bl	lv_obj_get_ext_attr
 1276 0020 F861     		str	r0, [r7, #28]
 364:..\..\..\lvgl\version_6.1.2\lvgl\src\lv_objx/lv_table.c ****     if(row >= ext->row_cnt || col >= ext->col_cnt) {
 1277              		.loc 3 364 0
 1278 0022 FB69     		ldr	r3, [r7, #28]
 1279 0024 5B88     		ldrh	r3, [r3, #2]
 1280 0026 7A89     		ldrh	r2, [r7, #10]
 1281 0028 9A42     		cmp	r2, r3
 1282 002a 4BD2     		bcs	.L66
 1283              		.loc 3 364 0 is_stmt 0 discriminator 1
 1284 002c FB69     		ldr	r3, [r7, #28]
 1285 002e 1B88     		ldrh	r3, [r3]
 1286 0030 3A89     		ldrh	r2, [r7, #8]
 1287 0032 9A42     		cmp	r2, r3
 1288 0034 46D2     		bcs	.L66
 365:..\..\..\lvgl\version_6.1.2\lvgl\src\lv_objx/lv_table.c ****         LV_LOG_WARN("lv_table_set_cell_merge_right: invalid row or column");
 366:..\..\..\lvgl\version_6.1.2\lvgl\src\lv_objx/lv_table.c ****         return;
 367:..\..\..\lvgl\version_6.1.2\lvgl\src\lv_objx/lv_table.c ****     }
ARM GAS  C:\Users\tmj32\AppData\Local\Temp\ccIZw7Ef.s 			page 34


 368:..\..\..\lvgl\version_6.1.2\lvgl\src\lv_objx/lv_table.c **** 
 369:..\..\..\lvgl\version_6.1.2\lvgl\src\lv_objx/lv_table.c ****     uint32_t cell = row * ext->col_cnt + col;
 1289              		.loc 3 369 0 is_stmt 1
 1290 0036 7B89     		ldrh	r3, [r7, #10]
 1291 0038 FA69     		ldr	r2, [r7, #28]
 1292 003a 1288     		ldrh	r2, [r2]
 1293 003c 02FB03F2 		mul	r2, r2, r3
 1294 0040 3B89     		ldrh	r3, [r7, #8]
 1295 0042 1344     		add	r3, r3, r2
 1296 0044 BB61     		str	r3, [r7, #24]
 370:..\..\..\lvgl\version_6.1.2\lvgl\src\lv_objx/lv_table.c **** 
 371:..\..\..\lvgl\version_6.1.2\lvgl\src\lv_objx/lv_table.c ****     if(ext->cell_data[cell] == NULL) {
 1297              		.loc 3 371 0
 1298 0046 FB69     		ldr	r3, [r7, #28]
 1299 0048 5A68     		ldr	r2, [r3, #4]
 1300 004a BB69     		ldr	r3, [r7, #24]
 1301 004c 9B00     		lsls	r3, r3, #2
 1302 004e 1344     		add	r3, r3, r2
 1303 0050 1B68     		ldr	r3, [r3]
 1304 0052 002B     		cmp	r3, #0
 1305 0054 1AD1     		bne	.L65
 372:..\..\..\lvgl\version_6.1.2\lvgl\src\lv_objx/lv_table.c ****         ext->cell_data[cell]    = lv_mem_alloc(2); /*+1: trailing '\0; +1: format byte*/
 1306              		.loc 3 372 0
 1307 0056 FB69     		ldr	r3, [r7, #28]
 1308 0058 5A68     		ldr	r2, [r3, #4]
 1309 005a BB69     		ldr	r3, [r7, #24]
 1310 005c 9B00     		lsls	r3, r3, #2
 1311 005e D418     		adds	r4, r2, r3
 1312 0060 0220     		movs	r0, #2
 1313 0062 FFF7FEFF 		bl	lv_mem_alloc
 1314 0066 0346     		mov	r3, r0
 1315 0068 2360     		str	r3, [r4]
 373:..\..\..\lvgl\version_6.1.2\lvgl\src\lv_objx/lv_table.c ****         ext->cell_data[cell][0] = 0;
 1316              		.loc 3 373 0
 1317 006a FB69     		ldr	r3, [r7, #28]
 1318 006c 5A68     		ldr	r2, [r3, #4]
 1319 006e BB69     		ldr	r3, [r7, #24]
 1320 0070 9B00     		lsls	r3, r3, #2
 1321 0072 1344     		add	r3, r3, r2
 1322 0074 1B68     		ldr	r3, [r3]
 1323 0076 0022     		movs	r2, #0
 1324 0078 1A70     		strb	r2, [r3]
 374:..\..\..\lvgl\version_6.1.2\lvgl\src\lv_objx/lv_table.c ****         ext->cell_data[cell][1] = '\0';
 1325              		.loc 3 374 0
 1326 007a FB69     		ldr	r3, [r7, #28]
 1327 007c 5A68     		ldr	r2, [r3, #4]
 1328 007e BB69     		ldr	r3, [r7, #24]
 1329 0080 9B00     		lsls	r3, r3, #2
 1330 0082 1344     		add	r3, r3, r2
 1331 0084 1B68     		ldr	r3, [r3]
 1332 0086 0133     		adds	r3, r3, #1
 1333 0088 0022     		movs	r2, #0
 1334 008a 1A70     		strb	r2, [r3]
 1335              	.L65:
 375:..\..\..\lvgl\version_6.1.2\lvgl\src\lv_objx/lv_table.c ****     }
 376:..\..\..\lvgl\version_6.1.2\lvgl\src\lv_objx/lv_table.c **** 
 377:..\..\..\lvgl\version_6.1.2\lvgl\src\lv_objx/lv_table.c ****     lv_table_cell_format_t format;
ARM GAS  C:\Users\tmj32\AppData\Local\Temp\ccIZw7Ef.s 			page 35


 378:..\..\..\lvgl\version_6.1.2\lvgl\src\lv_objx/lv_table.c ****     format.format_byte      = ext->cell_data[cell][0];
 1336              		.loc 3 378 0
 1337 008c FB69     		ldr	r3, [r7, #28]
 1338 008e 5A68     		ldr	r2, [r3, #4]
 1339 0090 BB69     		ldr	r3, [r7, #24]
 1340 0092 9B00     		lsls	r3, r3, #2
 1341 0094 1344     		add	r3, r3, r2
 1342 0096 1B68     		ldr	r3, [r3]
 1343 0098 1B78     		ldrb	r3, [r3]	@ zero_extendqisi2
 1344 009a 3B75     		strb	r3, [r7, #20]
 379:..\..\..\lvgl\version_6.1.2\lvgl\src\lv_objx/lv_table.c ****     format.s.right_merge    = en ? 1 : 0;
 1345              		.loc 3 379 0
 1346 009c FB79     		ldrb	r3, [r7, #7]	@ zero_extendqisi2
 1347 009e 03F00103 		and	r3, r3, #1
 1348 00a2 DAB2     		uxtb	r2, r3
 1349 00a4 3B7D     		ldrb	r3, [r7, #20]
 1350 00a6 62F38203 		bfi	r3, r2, #2, #1
 1351 00aa 3B75     		strb	r3, [r7, #20]
 380:..\..\..\lvgl\version_6.1.2\lvgl\src\lv_objx/lv_table.c ****     ext->cell_data[cell][0] = format.format_byte;
 1352              		.loc 3 380 0
 1353 00ac FB69     		ldr	r3, [r7, #28]
 1354 00ae 5A68     		ldr	r2, [r3, #4]
 1355 00b0 BB69     		ldr	r3, [r7, #24]
 1356 00b2 9B00     		lsls	r3, r3, #2
 1357 00b4 1344     		add	r3, r3, r2
 1358 00b6 1B68     		ldr	r3, [r3]
 1359 00b8 3A7D     		ldrb	r2, [r7, #20]	@ zero_extendqisi2
 1360 00ba 1A70     		strb	r2, [r3]
 381:..\..\..\lvgl\version_6.1.2\lvgl\src\lv_objx/lv_table.c ****     refr_size(table);
 1361              		.loc 3 381 0
 1362 00bc F868     		ldr	r0, [r7, #12]
 1363 00be FFF7FEFF 		bl	refr_size
 1364 00c2 00E0     		b	.L61
 1365              	.L66:
 366:..\..\..\lvgl\version_6.1.2\lvgl\src\lv_objx/lv_table.c ****     }
 1366              		.loc 3 366 0
 1367 00c4 00BF     		nop
 1368              	.L61:
 382:..\..\..\lvgl\version_6.1.2\lvgl\src\lv_objx/lv_table.c **** }
 1369              		.loc 3 382 0
 1370 00c6 2437     		adds	r7, r7, #36
 1371              		.cfi_def_cfa_offset 12
 1372 00c8 BD46     		mov	sp, r7
 1373              		.cfi_def_cfa_register 13
 1374              		@ sp needed
 1375 00ca 90BD     		pop	{r4, r7, pc}
 1376              		.cfi_endproc
 1377              	.LFE41:
 1378              		.size	lv_table_set_cell_merge_right, .-lv_table_set_cell_merge_right
 1379              		.section	.text.lv_table_set_style,"ax",%progbits
 1380              		.align	2
 1381              		.global	lv_table_set_style
 1382              		.thumb
 1383              		.thumb_func
 1384              		.type	lv_table_set_style, %function
 1385              	lv_table_set_style:
 1386              	.LFB42:
ARM GAS  C:\Users\tmj32\AppData\Local\Temp\ccIZw7Ef.s 			page 36


 383:..\..\..\lvgl\version_6.1.2\lvgl\src\lv_objx/lv_table.c **** 
 384:..\..\..\lvgl\version_6.1.2\lvgl\src\lv_objx/lv_table.c **** /**
 385:..\..\..\lvgl\version_6.1.2\lvgl\src\lv_objx/lv_table.c ****  * Set a style of a table.
 386:..\..\..\lvgl\version_6.1.2\lvgl\src\lv_objx/lv_table.c ****  * @param table pointer to table object
 387:..\..\..\lvgl\version_6.1.2\lvgl\src\lv_objx/lv_table.c ****  * @param type which style should be set
 388:..\..\..\lvgl\version_6.1.2\lvgl\src\lv_objx/lv_table.c ****  * @param style pointer to a style
 389:..\..\..\lvgl\version_6.1.2\lvgl\src\lv_objx/lv_table.c ****  */
 390:..\..\..\lvgl\version_6.1.2\lvgl\src\lv_objx/lv_table.c **** void lv_table_set_style(lv_obj_t * table, lv_table_style_t type, const lv_style_t * style)
 391:..\..\..\lvgl\version_6.1.2\lvgl\src\lv_objx/lv_table.c **** {
 1387              		.loc 3 391 0
 1388              		.cfi_startproc
 1389              		@ args = 0, pretend = 0, frame = 24
 1390              		@ frame_needed = 1, uses_anonymous_args = 0
 1391 0000 80B5     		push	{r7, lr}
 1392              		.cfi_def_cfa_offset 8
 1393              		.cfi_offset 7, -8
 1394              		.cfi_offset 14, -4
 1395 0002 86B0     		sub	sp, sp, #24
 1396              		.cfi_def_cfa_offset 32
 1397 0004 00AF     		add	r7, sp, #0
 1398              		.cfi_def_cfa_register 7
 1399 0006 F860     		str	r0, [r7, #12]
 1400 0008 0B46     		mov	r3, r1
 1401 000a 7A60     		str	r2, [r7, #4]
 1402 000c FB72     		strb	r3, [r7, #11]
 392:..\..\..\lvgl\version_6.1.2\lvgl\src\lv_objx/lv_table.c ****     LV_ASSERT_OBJ(table, LV_OBJX_NAME);
 393:..\..\..\lvgl\version_6.1.2\lvgl\src\lv_objx/lv_table.c **** 
 394:..\..\..\lvgl\version_6.1.2\lvgl\src\lv_objx/lv_table.c ****     lv_table_ext_t * ext = lv_obj_get_ext_attr(table);
 1403              		.loc 3 394 0
 1404 000e F868     		ldr	r0, [r7, #12]
 1405 0010 FFF7FEFF 		bl	lv_obj_get_ext_attr
 1406 0014 7861     		str	r0, [r7, #20]
 395:..\..\..\lvgl\version_6.1.2\lvgl\src\lv_objx/lv_table.c **** 
 396:..\..\..\lvgl\version_6.1.2\lvgl\src\lv_objx/lv_table.c ****     switch(type) {
 1407              		.loc 3 396 0
 1408 0016 FB7A     		ldrb	r3, [r7, #11]	@ zero_extendqisi2
 1409 0018 042B     		cmp	r3, #4
 1410 001a 31D8     		bhi	.L75
 1411 001c 01A2     		adr	r2, .L70
 1412 001e 52F823F0 		ldr	pc, [r2, r3, lsl #2]
 1413 0022 00BF     		.p2align 2
 1414              	.L70:
 1415 0024 39000000 		.word	.L69+1
 1416 0028 49000000 		.word	.L71+1
 1417 002c 57000000 		.word	.L72+1
 1418 0030 65000000 		.word	.L73+1
 1419 0034 73000000 		.word	.L74+1
 1420              		.p2align 1
 1421              	.L69:
 397:..\..\..\lvgl\version_6.1.2\lvgl\src\lv_objx/lv_table.c ****         case LV_TABLE_STYLE_BG:
 398:..\..\..\lvgl\version_6.1.2\lvgl\src\lv_objx/lv_table.c ****             lv_obj_set_style(table, style);
 1422              		.loc 3 398 0
 1423 0038 7968     		ldr	r1, [r7, #4]
 1424 003a F868     		ldr	r0, [r7, #12]
 1425 003c FFF7FEFF 		bl	lv_obj_set_style
 399:..\..\..\lvgl\version_6.1.2\lvgl\src\lv_objx/lv_table.c ****             refr_size(table);
 1426              		.loc 3 399 0
ARM GAS  C:\Users\tmj32\AppData\Local\Temp\ccIZw7Ef.s 			page 37


 1427 0040 F868     		ldr	r0, [r7, #12]
 1428 0042 FFF7FEFF 		bl	refr_size
 400:..\..\..\lvgl\version_6.1.2\lvgl\src\lv_objx/lv_table.c ****             break;
 1429              		.loc 3 400 0
 1430 0046 1BE0     		b	.L68
 1431              	.L71:
 401:..\..\..\lvgl\version_6.1.2\lvgl\src\lv_objx/lv_table.c ****         case LV_TABLE_STYLE_CELL1:
 402:..\..\..\lvgl\version_6.1.2\lvgl\src\lv_objx/lv_table.c ****             ext->cell_style[0] = style;
 1432              		.loc 3 402 0
 1433 0048 7B69     		ldr	r3, [r7, #20]
 1434 004a 7A68     		ldr	r2, [r7, #4]
 1435 004c 9A60     		str	r2, [r3, #8]
 403:..\..\..\lvgl\version_6.1.2\lvgl\src\lv_objx/lv_table.c ****             refr_size(table);
 1436              		.loc 3 403 0
 1437 004e F868     		ldr	r0, [r7, #12]
 1438 0050 FFF7FEFF 		bl	refr_size
 404:..\..\..\lvgl\version_6.1.2\lvgl\src\lv_objx/lv_table.c ****             break;
 1439              		.loc 3 404 0
 1440 0054 14E0     		b	.L68
 1441              	.L72:
 405:..\..\..\lvgl\version_6.1.2\lvgl\src\lv_objx/lv_table.c ****         case LV_TABLE_STYLE_CELL2:
 406:..\..\..\lvgl\version_6.1.2\lvgl\src\lv_objx/lv_table.c ****             ext->cell_style[1] = style;
 1442              		.loc 3 406 0
 1443 0056 7B69     		ldr	r3, [r7, #20]
 1444 0058 7A68     		ldr	r2, [r7, #4]
 1445 005a DA60     		str	r2, [r3, #12]
 407:..\..\..\lvgl\version_6.1.2\lvgl\src\lv_objx/lv_table.c ****             refr_size(table);
 1446              		.loc 3 407 0
 1447 005c F868     		ldr	r0, [r7, #12]
 1448 005e FFF7FEFF 		bl	refr_size
 408:..\..\..\lvgl\version_6.1.2\lvgl\src\lv_objx/lv_table.c ****             break;
 1449              		.loc 3 408 0
 1450 0062 0DE0     		b	.L68
 1451              	.L73:
 409:..\..\..\lvgl\version_6.1.2\lvgl\src\lv_objx/lv_table.c ****         case LV_TABLE_STYLE_CELL3:
 410:..\..\..\lvgl\version_6.1.2\lvgl\src\lv_objx/lv_table.c ****             ext->cell_style[2] = style;
 1452              		.loc 3 410 0
 1453 0064 7B69     		ldr	r3, [r7, #20]
 1454 0066 7A68     		ldr	r2, [r7, #4]
 1455 0068 1A61     		str	r2, [r3, #16]
 411:..\..\..\lvgl\version_6.1.2\lvgl\src\lv_objx/lv_table.c ****             refr_size(table);
 1456              		.loc 3 411 0
 1457 006a F868     		ldr	r0, [r7, #12]
 1458 006c FFF7FEFF 		bl	refr_size
 412:..\..\..\lvgl\version_6.1.2\lvgl\src\lv_objx/lv_table.c ****             break;
 1459              		.loc 3 412 0
 1460 0070 06E0     		b	.L68
 1461              	.L74:
 413:..\..\..\lvgl\version_6.1.2\lvgl\src\lv_objx/lv_table.c ****         case LV_TABLE_STYLE_CELL4:
 414:..\..\..\lvgl\version_6.1.2\lvgl\src\lv_objx/lv_table.c ****             ext->cell_style[3] = style;
 1462              		.loc 3 414 0
 1463 0072 7B69     		ldr	r3, [r7, #20]
 1464 0074 7A68     		ldr	r2, [r7, #4]
 1465 0076 5A61     		str	r2, [r3, #20]
 415:..\..\..\lvgl\version_6.1.2\lvgl\src\lv_objx/lv_table.c ****             refr_size(table);
 1466              		.loc 3 415 0
 1467 0078 F868     		ldr	r0, [r7, #12]
ARM GAS  C:\Users\tmj32\AppData\Local\Temp\ccIZw7Ef.s 			page 38


 1468 007a FFF7FEFF 		bl	refr_size
 416:..\..\..\lvgl\version_6.1.2\lvgl\src\lv_objx/lv_table.c ****             break;
 1469              		.loc 3 416 0
 1470 007e 00BF     		nop
 1471              	.L68:
 1472              	.L75:
 417:..\..\..\lvgl\version_6.1.2\lvgl\src\lv_objx/lv_table.c ****     }
 418:..\..\..\lvgl\version_6.1.2\lvgl\src\lv_objx/lv_table.c **** }
 1473              		.loc 3 418 0
 1474 0080 00BF     		nop
 1475 0082 1837     		adds	r7, r7, #24
 1476              		.cfi_def_cfa_offset 8
 1477 0084 BD46     		mov	sp, r7
 1478              		.cfi_def_cfa_register 13
 1479              		@ sp needed
 1480 0086 80BD     		pop	{r7, pc}
 1481              		.cfi_endproc
 1482              	.LFE42:
 1483              		.size	lv_table_set_style, .-lv_table_set_style
 1484              		.section	.rodata
 1485              		.align	2
 1486              	.LC0:
 1487 0000 00       		.ascii	"\000"
 1488              		.section	.text.lv_table_get_cell_value,"ax",%progbits
 1489              		.align	2
 1490              		.global	lv_table_get_cell_value
 1491              		.thumb
 1492              		.thumb_func
 1493              		.type	lv_table_get_cell_value, %function
 1494              	lv_table_get_cell_value:
 1495              	.LFB43:
 419:..\..\..\lvgl\version_6.1.2\lvgl\src\lv_objx/lv_table.c **** 
 420:..\..\..\lvgl\version_6.1.2\lvgl\src\lv_objx/lv_table.c **** /*=====================
 421:..\..\..\lvgl\version_6.1.2\lvgl\src\lv_objx/lv_table.c ****  * Getter functions
 422:..\..\..\lvgl\version_6.1.2\lvgl\src\lv_objx/lv_table.c ****  *====================*/
 423:..\..\..\lvgl\version_6.1.2\lvgl\src\lv_objx/lv_table.c **** 
 424:..\..\..\lvgl\version_6.1.2\lvgl\src\lv_objx/lv_table.c **** /**
 425:..\..\..\lvgl\version_6.1.2\lvgl\src\lv_objx/lv_table.c ****  * Get the value of a cell.
 426:..\..\..\lvgl\version_6.1.2\lvgl\src\lv_objx/lv_table.c ****  * @param table pointer to a Table object
 427:..\..\..\lvgl\version_6.1.2\lvgl\src\lv_objx/lv_table.c ****  * @param row id of the row [0 .. row_cnt -1]
 428:..\..\..\lvgl\version_6.1.2\lvgl\src\lv_objx/lv_table.c ****  * @param col id of the column [0 .. col_cnt -1]
 429:..\..\..\lvgl\version_6.1.2\lvgl\src\lv_objx/lv_table.c ****  * @return text in the cell
 430:..\..\..\lvgl\version_6.1.2\lvgl\src\lv_objx/lv_table.c ****  */
 431:..\..\..\lvgl\version_6.1.2\lvgl\src\lv_objx/lv_table.c **** const char * lv_table_get_cell_value(lv_obj_t * table, uint16_t row, uint16_t col)
 432:..\..\..\lvgl\version_6.1.2\lvgl\src\lv_objx/lv_table.c **** {
 1496              		.loc 3 432 0
 1497              		.cfi_startproc
 1498              		@ args = 0, pretend = 0, frame = 16
 1499              		@ frame_needed = 1, uses_anonymous_args = 0
 1500 0000 80B5     		push	{r7, lr}
 1501              		.cfi_def_cfa_offset 8
 1502              		.cfi_offset 7, -8
 1503              		.cfi_offset 14, -4
 1504 0002 84B0     		sub	sp, sp, #16
 1505              		.cfi_def_cfa_offset 24
 1506 0004 00AF     		add	r7, sp, #0
 1507              		.cfi_def_cfa_register 7
ARM GAS  C:\Users\tmj32\AppData\Local\Temp\ccIZw7Ef.s 			page 39


 1508 0006 7860     		str	r0, [r7, #4]
 1509 0008 0B46     		mov	r3, r1
 1510 000a 7B80     		strh	r3, [r7, #2]	@ movhi
 1511 000c 1346     		mov	r3, r2	@ movhi
 1512 000e 3B80     		strh	r3, [r7]	@ movhi
 433:..\..\..\lvgl\version_6.1.2\lvgl\src\lv_objx/lv_table.c ****     LV_ASSERT_OBJ(table, LV_OBJX_NAME);
 434:..\..\..\lvgl\version_6.1.2\lvgl\src\lv_objx/lv_table.c **** 
 435:..\..\..\lvgl\version_6.1.2\lvgl\src\lv_objx/lv_table.c ****     lv_table_ext_t * ext = lv_obj_get_ext_attr(table);
 1513              		.loc 3 435 0
 1514 0010 7868     		ldr	r0, [r7, #4]
 1515 0012 FFF7FEFF 		bl	lv_obj_get_ext_attr
 1516 0016 F860     		str	r0, [r7, #12]
 436:..\..\..\lvgl\version_6.1.2\lvgl\src\lv_objx/lv_table.c ****     if(row >= ext->row_cnt || col >= ext->col_cnt) {
 1517              		.loc 3 436 0
 1518 0018 FB68     		ldr	r3, [r7, #12]
 1519 001a 5B88     		ldrh	r3, [r3, #2]
 1520 001c 7A88     		ldrh	r2, [r7, #2]
 1521 001e 9A42     		cmp	r2, r3
 1522 0020 04D2     		bcs	.L77
 1523              		.loc 3 436 0 is_stmt 0 discriminator 1
 1524 0022 FB68     		ldr	r3, [r7, #12]
 1525 0024 1B88     		ldrh	r3, [r3]
 1526 0026 3A88     		ldrh	r2, [r7]
 1527 0028 9A42     		cmp	r2, r3
 1528 002a 01D3     		bcc	.L78
 1529              	.L77:
 437:..\..\..\lvgl\version_6.1.2\lvgl\src\lv_objx/lv_table.c ****         LV_LOG_WARN("lv_table_set_cell_value: invalid row or column");
 438:..\..\..\lvgl\version_6.1.2\lvgl\src\lv_objx/lv_table.c ****         return "";
 1530              		.loc 3 438 0 is_stmt 1
 1531 002c 0F4B     		ldr	r3, .L81
 1532 002e 18E0     		b	.L79
 1533              	.L78:
 439:..\..\..\lvgl\version_6.1.2\lvgl\src\lv_objx/lv_table.c ****     }
 440:..\..\..\lvgl\version_6.1.2\lvgl\src\lv_objx/lv_table.c ****     uint32_t cell = row * ext->col_cnt + col;
 1534              		.loc 3 440 0
 1535 0030 7B88     		ldrh	r3, [r7, #2]
 1536 0032 FA68     		ldr	r2, [r7, #12]
 1537 0034 1288     		ldrh	r2, [r2]
 1538 0036 02FB03F2 		mul	r2, r2, r3
 1539 003a 3B88     		ldrh	r3, [r7]
 1540 003c 1344     		add	r3, r3, r2
 1541 003e BB60     		str	r3, [r7, #8]
 441:..\..\..\lvgl\version_6.1.2\lvgl\src\lv_objx/lv_table.c **** 
 442:..\..\..\lvgl\version_6.1.2\lvgl\src\lv_objx/lv_table.c ****     if(ext->cell_data[cell] == NULL) return "";
 1542              		.loc 3 442 0
 1543 0040 FB68     		ldr	r3, [r7, #12]
 1544 0042 5A68     		ldr	r2, [r3, #4]
 1545 0044 BB68     		ldr	r3, [r7, #8]
 1546 0046 9B00     		lsls	r3, r3, #2
 1547 0048 1344     		add	r3, r3, r2
 1548 004a 1B68     		ldr	r3, [r3]
 1549 004c 002B     		cmp	r3, #0
 1550 004e 01D1     		bne	.L80
 1551              		.loc 3 442 0 is_stmt 0 discriminator 1
 1552 0050 064B     		ldr	r3, .L81
 1553 0052 06E0     		b	.L79
 1554              	.L80:
ARM GAS  C:\Users\tmj32\AppData\Local\Temp\ccIZw7Ef.s 			page 40


 443:..\..\..\lvgl\version_6.1.2\lvgl\src\lv_objx/lv_table.c **** 
 444:..\..\..\lvgl\version_6.1.2\lvgl\src\lv_objx/lv_table.c ****     return &ext->cell_data[cell][1]; /*Skip the format byte*/
 1555              		.loc 3 444 0 is_stmt 1
 1556 0054 FB68     		ldr	r3, [r7, #12]
 1557 0056 5A68     		ldr	r2, [r3, #4]
 1558 0058 BB68     		ldr	r3, [r7, #8]
 1559 005a 9B00     		lsls	r3, r3, #2
 1560 005c 1344     		add	r3, r3, r2
 1561 005e 1B68     		ldr	r3, [r3]
 1562 0060 0133     		adds	r3, r3, #1
 1563              	.L79:
 445:..\..\..\lvgl\version_6.1.2\lvgl\src\lv_objx/lv_table.c **** }
 1564              		.loc 3 445 0
 1565 0062 1846     		mov	r0, r3
 1566 0064 1037     		adds	r7, r7, #16
 1567              		.cfi_def_cfa_offset 8
 1568 0066 BD46     		mov	sp, r7
 1569              		.cfi_def_cfa_register 13
 1570              		@ sp needed
 1571 0068 80BD     		pop	{r7, pc}
 1572              	.L82:
 1573 006a 00BF     		.align	2
 1574              	.L81:
 1575 006c 00000000 		.word	.LC0
 1576              		.cfi_endproc
 1577              	.LFE43:
 1578              		.size	lv_table_get_cell_value, .-lv_table_get_cell_value
 1579              		.section	.text.lv_table_get_row_cnt,"ax",%progbits
 1580              		.align	2
 1581              		.global	lv_table_get_row_cnt
 1582              		.thumb
 1583              		.thumb_func
 1584              		.type	lv_table_get_row_cnt, %function
 1585              	lv_table_get_row_cnt:
 1586              	.LFB44:
 446:..\..\..\lvgl\version_6.1.2\lvgl\src\lv_objx/lv_table.c **** 
 447:..\..\..\lvgl\version_6.1.2\lvgl\src\lv_objx/lv_table.c **** /**
 448:..\..\..\lvgl\version_6.1.2\lvgl\src\lv_objx/lv_table.c ****  * Get the number of rows.
 449:..\..\..\lvgl\version_6.1.2\lvgl\src\lv_objx/lv_table.c ****  * @param table table pointer to a Table object
 450:..\..\..\lvgl\version_6.1.2\lvgl\src\lv_objx/lv_table.c ****  * @return number of rows.
 451:..\..\..\lvgl\version_6.1.2\lvgl\src\lv_objx/lv_table.c ****  */
 452:..\..\..\lvgl\version_6.1.2\lvgl\src\lv_objx/lv_table.c **** uint16_t lv_table_get_row_cnt(lv_obj_t * table)
 453:..\..\..\lvgl\version_6.1.2\lvgl\src\lv_objx/lv_table.c **** {
 1587              		.loc 3 453 0
 1588              		.cfi_startproc
 1589              		@ args = 0, pretend = 0, frame = 16
 1590              		@ frame_needed = 1, uses_anonymous_args = 0
 1591 0000 80B5     		push	{r7, lr}
 1592              		.cfi_def_cfa_offset 8
 1593              		.cfi_offset 7, -8
 1594              		.cfi_offset 14, -4
 1595 0002 84B0     		sub	sp, sp, #16
 1596              		.cfi_def_cfa_offset 24
 1597 0004 00AF     		add	r7, sp, #0
 1598              		.cfi_def_cfa_register 7
 1599 0006 7860     		str	r0, [r7, #4]
 454:..\..\..\lvgl\version_6.1.2\lvgl\src\lv_objx/lv_table.c ****     LV_ASSERT_OBJ(table, LV_OBJX_NAME);
ARM GAS  C:\Users\tmj32\AppData\Local\Temp\ccIZw7Ef.s 			page 41


 455:..\..\..\lvgl\version_6.1.2\lvgl\src\lv_objx/lv_table.c **** 
 456:..\..\..\lvgl\version_6.1.2\lvgl\src\lv_objx/lv_table.c ****     lv_table_ext_t * ext = lv_obj_get_ext_attr(table);
 1600              		.loc 3 456 0
 1601 0008 7868     		ldr	r0, [r7, #4]
 1602 000a FFF7FEFF 		bl	lv_obj_get_ext_attr
 1603 000e F860     		str	r0, [r7, #12]
 457:..\..\..\lvgl\version_6.1.2\lvgl\src\lv_objx/lv_table.c ****     return ext->row_cnt;
 1604              		.loc 3 457 0
 1605 0010 FB68     		ldr	r3, [r7, #12]
 1606 0012 5B88     		ldrh	r3, [r3, #2]
 458:..\..\..\lvgl\version_6.1.2\lvgl\src\lv_objx/lv_table.c **** }
 1607              		.loc 3 458 0
 1608 0014 1846     		mov	r0, r3
 1609 0016 1037     		adds	r7, r7, #16
 1610              		.cfi_def_cfa_offset 8
 1611 0018 BD46     		mov	sp, r7
 1612              		.cfi_def_cfa_register 13
 1613              		@ sp needed
 1614 001a 80BD     		pop	{r7, pc}
 1615              		.cfi_endproc
 1616              	.LFE44:
 1617              		.size	lv_table_get_row_cnt, .-lv_table_get_row_cnt
 1618              		.section	.text.lv_table_get_col_cnt,"ax",%progbits
 1619              		.align	2
 1620              		.global	lv_table_get_col_cnt
 1621              		.thumb
 1622              		.thumb_func
 1623              		.type	lv_table_get_col_cnt, %function
 1624              	lv_table_get_col_cnt:
 1625              	.LFB45:
 459:..\..\..\lvgl\version_6.1.2\lvgl\src\lv_objx/lv_table.c **** 
 460:..\..\..\lvgl\version_6.1.2\lvgl\src\lv_objx/lv_table.c **** /**
 461:..\..\..\lvgl\version_6.1.2\lvgl\src\lv_objx/lv_table.c ****  * Get the number of columns.
 462:..\..\..\lvgl\version_6.1.2\lvgl\src\lv_objx/lv_table.c ****  * @param table table pointer to a Table object
 463:..\..\..\lvgl\version_6.1.2\lvgl\src\lv_objx/lv_table.c ****  * @return number of columns.
 464:..\..\..\lvgl\version_6.1.2\lvgl\src\lv_objx/lv_table.c ****  */
 465:..\..\..\lvgl\version_6.1.2\lvgl\src\lv_objx/lv_table.c **** uint16_t lv_table_get_col_cnt(lv_obj_t * table)
 466:..\..\..\lvgl\version_6.1.2\lvgl\src\lv_objx/lv_table.c **** {
 1626              		.loc 3 466 0
 1627              		.cfi_startproc
 1628              		@ args = 0, pretend = 0, frame = 16
 1629              		@ frame_needed = 1, uses_anonymous_args = 0
 1630 0000 80B5     		push	{r7, lr}
 1631              		.cfi_def_cfa_offset 8
 1632              		.cfi_offset 7, -8
 1633              		.cfi_offset 14, -4
 1634 0002 84B0     		sub	sp, sp, #16
 1635              		.cfi_def_cfa_offset 24
 1636 0004 00AF     		add	r7, sp, #0
 1637              		.cfi_def_cfa_register 7
 1638 0006 7860     		str	r0, [r7, #4]
 467:..\..\..\lvgl\version_6.1.2\lvgl\src\lv_objx/lv_table.c ****     LV_ASSERT_OBJ(table, LV_OBJX_NAME);
 468:..\..\..\lvgl\version_6.1.2\lvgl\src\lv_objx/lv_table.c **** 
 469:..\..\..\lvgl\version_6.1.2\lvgl\src\lv_objx/lv_table.c ****     lv_table_ext_t * ext = lv_obj_get_ext_attr(table);
 1639              		.loc 3 469 0
 1640 0008 7868     		ldr	r0, [r7, #4]
 1641 000a FFF7FEFF 		bl	lv_obj_get_ext_attr
ARM GAS  C:\Users\tmj32\AppData\Local\Temp\ccIZw7Ef.s 			page 42


 1642 000e F860     		str	r0, [r7, #12]
 470:..\..\..\lvgl\version_6.1.2\lvgl\src\lv_objx/lv_table.c ****     return ext->col_cnt;
 1643              		.loc 3 470 0
 1644 0010 FB68     		ldr	r3, [r7, #12]
 1645 0012 1B88     		ldrh	r3, [r3]
 471:..\..\..\lvgl\version_6.1.2\lvgl\src\lv_objx/lv_table.c **** }
 1646              		.loc 3 471 0
 1647 0014 1846     		mov	r0, r3
 1648 0016 1037     		adds	r7, r7, #16
 1649              		.cfi_def_cfa_offset 8
 1650 0018 BD46     		mov	sp, r7
 1651              		.cfi_def_cfa_register 13
 1652              		@ sp needed
 1653 001a 80BD     		pop	{r7, pc}
 1654              		.cfi_endproc
 1655              	.LFE45:
 1656              		.size	lv_table_get_col_cnt, .-lv_table_get_col_cnt
 1657              		.section	.text.lv_table_get_col_width,"ax",%progbits
 1658              		.align	2
 1659              		.global	lv_table_get_col_width
 1660              		.thumb
 1661              		.thumb_func
 1662              		.type	lv_table_get_col_width, %function
 1663              	lv_table_get_col_width:
 1664              	.LFB46:
 472:..\..\..\lvgl\version_6.1.2\lvgl\src\lv_objx/lv_table.c **** 
 473:..\..\..\lvgl\version_6.1.2\lvgl\src\lv_objx/lv_table.c **** /**
 474:..\..\..\lvgl\version_6.1.2\lvgl\src\lv_objx/lv_table.c ****  * Get the width of a column
 475:..\..\..\lvgl\version_6.1.2\lvgl\src\lv_objx/lv_table.c ****  * @param table table pointer to a Table object
 476:..\..\..\lvgl\version_6.1.2\lvgl\src\lv_objx/lv_table.c ****  * @param col_id id of the column [0 .. LV_TABLE_COL_MAX -1]
 477:..\..\..\lvgl\version_6.1.2\lvgl\src\lv_objx/lv_table.c ****  * @return width of the column
 478:..\..\..\lvgl\version_6.1.2\lvgl\src\lv_objx/lv_table.c ****  */
 479:..\..\..\lvgl\version_6.1.2\lvgl\src\lv_objx/lv_table.c **** lv_coord_t lv_table_get_col_width(lv_obj_t * table, uint16_t col_id)
 480:..\..\..\lvgl\version_6.1.2\lvgl\src\lv_objx/lv_table.c **** {
 1665              		.loc 3 480 0
 1666              		.cfi_startproc
 1667              		@ args = 0, pretend = 0, frame = 16
 1668              		@ frame_needed = 1, uses_anonymous_args = 0
 1669 0000 80B5     		push	{r7, lr}
 1670              		.cfi_def_cfa_offset 8
 1671              		.cfi_offset 7, -8
 1672              		.cfi_offset 14, -4
 1673 0002 84B0     		sub	sp, sp, #16
 1674              		.cfi_def_cfa_offset 24
 1675 0004 00AF     		add	r7, sp, #0
 1676              		.cfi_def_cfa_register 7
 1677 0006 7860     		str	r0, [r7, #4]
 1678 0008 0B46     		mov	r3, r1
 1679 000a 7B80     		strh	r3, [r7, #2]	@ movhi
 481:..\..\..\lvgl\version_6.1.2\lvgl\src\lv_objx/lv_table.c ****     LV_ASSERT_OBJ(table, LV_OBJX_NAME);
 482:..\..\..\lvgl\version_6.1.2\lvgl\src\lv_objx/lv_table.c **** 
 483:..\..\..\lvgl\version_6.1.2\lvgl\src\lv_objx/lv_table.c ****     if(col_id >= LV_TABLE_COL_MAX) {
 1680              		.loc 3 483 0
 1681 000c 7B88     		ldrh	r3, [r7, #2]
 1682 000e 0B2B     		cmp	r3, #11
 1683 0010 01D9     		bls	.L88
 484:..\..\..\lvgl\version_6.1.2\lvgl\src\lv_objx/lv_table.c ****         LV_LOG_WARN("lv_table_set_col_width: too big 'col_id'. Must be < LV_TABLE_COL_MAX.");
ARM GAS  C:\Users\tmj32\AppData\Local\Temp\ccIZw7Ef.s 			page 43


 485:..\..\..\lvgl\version_6.1.2\lvgl\src\lv_objx/lv_table.c ****         return 0;
 1684              		.loc 3 485 0
 1685 0012 0023     		movs	r3, #0
 1686 0014 08E0     		b	.L89
 1687              	.L88:
 486:..\..\..\lvgl\version_6.1.2\lvgl\src\lv_objx/lv_table.c ****     }
 487:..\..\..\lvgl\version_6.1.2\lvgl\src\lv_objx/lv_table.c **** 
 488:..\..\..\lvgl\version_6.1.2\lvgl\src\lv_objx/lv_table.c ****     lv_table_ext_t * ext = lv_obj_get_ext_attr(table);
 1688              		.loc 3 488 0
 1689 0016 7868     		ldr	r0, [r7, #4]
 1690 0018 FFF7FEFF 		bl	lv_obj_get_ext_attr
 1691 001c F860     		str	r0, [r7, #12]
 489:..\..\..\lvgl\version_6.1.2\lvgl\src\lv_objx/lv_table.c ****     return ext->col_w[col_id];
 1692              		.loc 3 489 0
 1693 001e 7A88     		ldrh	r2, [r7, #2]
 1694 0020 FB68     		ldr	r3, [r7, #12]
 1695 0022 0C32     		adds	r2, r2, #12
 1696 0024 33F91230 		ldrsh	r3, [r3, r2, lsl #1]
 1697              	.L89:
 490:..\..\..\lvgl\version_6.1.2\lvgl\src\lv_objx/lv_table.c **** }
 1698              		.loc 3 490 0
 1699 0028 1846     		mov	r0, r3
 1700 002a 1037     		adds	r7, r7, #16
 1701              		.cfi_def_cfa_offset 8
 1702 002c BD46     		mov	sp, r7
 1703              		.cfi_def_cfa_register 13
 1704              		@ sp needed
 1705 002e 80BD     		pop	{r7, pc}
 1706              		.cfi_endproc
 1707              	.LFE46:
 1708              		.size	lv_table_get_col_width, .-lv_table_get_col_width
 1709              		.section	.text.lv_table_get_cell_align,"ax",%progbits
 1710              		.align	2
 1711              		.global	lv_table_get_cell_align
 1712              		.thumb
 1713              		.thumb_func
 1714              		.type	lv_table_get_cell_align, %function
 1715              	lv_table_get_cell_align:
 1716              	.LFB47:
 491:..\..\..\lvgl\version_6.1.2\lvgl\src\lv_objx/lv_table.c **** 
 492:..\..\..\lvgl\version_6.1.2\lvgl\src\lv_objx/lv_table.c **** /**
 493:..\..\..\lvgl\version_6.1.2\lvgl\src\lv_objx/lv_table.c ****  * Get the text align of a cell
 494:..\..\..\lvgl\version_6.1.2\lvgl\src\lv_objx/lv_table.c ****  * @param table pointer to a Table object
 495:..\..\..\lvgl\version_6.1.2\lvgl\src\lv_objx/lv_table.c ****  * @param row id of the row [0 .. row_cnt -1]
 496:..\..\..\lvgl\version_6.1.2\lvgl\src\lv_objx/lv_table.c ****  * @param col id of the column [0 .. col_cnt -1]
 497:..\..\..\lvgl\version_6.1.2\lvgl\src\lv_objx/lv_table.c ****  * @return LV_LABEL_ALIGN_LEFT (default in case of error) or LV_LABEL_ALIGN_CENTER or
 498:..\..\..\lvgl\version_6.1.2\lvgl\src\lv_objx/lv_table.c ****  * LV_LABEL_ALIGN_RIGHT
 499:..\..\..\lvgl\version_6.1.2\lvgl\src\lv_objx/lv_table.c ****  */
 500:..\..\..\lvgl\version_6.1.2\lvgl\src\lv_objx/lv_table.c **** lv_label_align_t lv_table_get_cell_align(lv_obj_t * table, uint16_t row, uint16_t col)
 501:..\..\..\lvgl\version_6.1.2\lvgl\src\lv_objx/lv_table.c **** {
 1717              		.loc 3 501 0
 1718              		.cfi_startproc
 1719              		@ args = 0, pretend = 0, frame = 24
 1720              		@ frame_needed = 1, uses_anonymous_args = 0
 1721 0000 80B5     		push	{r7, lr}
 1722              		.cfi_def_cfa_offset 8
 1723              		.cfi_offset 7, -8
ARM GAS  C:\Users\tmj32\AppData\Local\Temp\ccIZw7Ef.s 			page 44


 1724              		.cfi_offset 14, -4
 1725 0002 86B0     		sub	sp, sp, #24
 1726              		.cfi_def_cfa_offset 32
 1727 0004 00AF     		add	r7, sp, #0
 1728              		.cfi_def_cfa_register 7
 1729 0006 7860     		str	r0, [r7, #4]
 1730 0008 0B46     		mov	r3, r1
 1731 000a 7B80     		strh	r3, [r7, #2]	@ movhi
 1732 000c 1346     		mov	r3, r2	@ movhi
 1733 000e 3B80     		strh	r3, [r7]	@ movhi
 502:..\..\..\lvgl\version_6.1.2\lvgl\src\lv_objx/lv_table.c ****     LV_ASSERT_OBJ(table, LV_OBJX_NAME);
 503:..\..\..\lvgl\version_6.1.2\lvgl\src\lv_objx/lv_table.c **** 
 504:..\..\..\lvgl\version_6.1.2\lvgl\src\lv_objx/lv_table.c ****     lv_table_ext_t * ext = lv_obj_get_ext_attr(table);
 1734              		.loc 3 504 0
 1735 0010 7868     		ldr	r0, [r7, #4]
 1736 0012 FFF7FEFF 		bl	lv_obj_get_ext_attr
 1737 0016 7861     		str	r0, [r7, #20]
 505:..\..\..\lvgl\version_6.1.2\lvgl\src\lv_objx/lv_table.c ****     if(row >= ext->row_cnt || col >= ext->col_cnt) {
 1738              		.loc 3 505 0
 1739 0018 7B69     		ldr	r3, [r7, #20]
 1740 001a 5B88     		ldrh	r3, [r3, #2]
 1741 001c 7A88     		ldrh	r2, [r7, #2]
 1742 001e 9A42     		cmp	r2, r3
 1743 0020 04D2     		bcs	.L91
 1744              		.loc 3 505 0 is_stmt 0 discriminator 1
 1745 0022 7B69     		ldr	r3, [r7, #20]
 1746 0024 1B88     		ldrh	r3, [r3]
 1747 0026 3A88     		ldrh	r2, [r7]
 1748 0028 9A42     		cmp	r2, r3
 1749 002a 01D3     		bcc	.L92
 1750              	.L91:
 506:..\..\..\lvgl\version_6.1.2\lvgl\src\lv_objx/lv_table.c ****         LV_LOG_WARN("lv_table_set_cell_align: invalid row or column");
 507:..\..\..\lvgl\version_6.1.2\lvgl\src\lv_objx/lv_table.c ****         return LV_LABEL_ALIGN_LEFT; /*Just return with something*/
 1751              		.loc 3 507 0 is_stmt 1
 1752 002c 0023     		movs	r3, #0
 1753 002e 1DE0     		b	.L93
 1754              	.L92:
 508:..\..\..\lvgl\version_6.1.2\lvgl\src\lv_objx/lv_table.c ****     }
 509:..\..\..\lvgl\version_6.1.2\lvgl\src\lv_objx/lv_table.c ****     uint32_t cell = row * ext->col_cnt + col;
 1755              		.loc 3 509 0
 1756 0030 7B88     		ldrh	r3, [r7, #2]
 1757 0032 7A69     		ldr	r2, [r7, #20]
 1758 0034 1288     		ldrh	r2, [r2]
 1759 0036 02FB03F2 		mul	r2, r2, r3
 1760 003a 3B88     		ldrh	r3, [r7]
 1761 003c 1344     		add	r3, r3, r2
 1762 003e 3B61     		str	r3, [r7, #16]
 510:..\..\..\lvgl\version_6.1.2\lvgl\src\lv_objx/lv_table.c **** 
 511:..\..\..\lvgl\version_6.1.2\lvgl\src\lv_objx/lv_table.c ****     if(ext->cell_data[cell] == NULL)
 1763              		.loc 3 511 0
 1764 0040 7B69     		ldr	r3, [r7, #20]
 1765 0042 5A68     		ldr	r2, [r3, #4]
 1766 0044 3B69     		ldr	r3, [r7, #16]
 1767 0046 9B00     		lsls	r3, r3, #2
 1768 0048 1344     		add	r3, r3, r2
 1769 004a 1B68     		ldr	r3, [r3]
 1770 004c 002B     		cmp	r3, #0
ARM GAS  C:\Users\tmj32\AppData\Local\Temp\ccIZw7Ef.s 			page 45


 1771 004e 01D1     		bne	.L94
 512:..\..\..\lvgl\version_6.1.2\lvgl\src\lv_objx/lv_table.c ****         return LV_LABEL_ALIGN_LEFT; /*Just return with something*/
 1772              		.loc 3 512 0
 1773 0050 0023     		movs	r3, #0
 1774 0052 0BE0     		b	.L93
 1775              	.L94:
 1776              	.LBB6:
 513:..\..\..\lvgl\version_6.1.2\lvgl\src\lv_objx/lv_table.c ****     else {
 514:..\..\..\lvgl\version_6.1.2\lvgl\src\lv_objx/lv_table.c ****         lv_table_cell_format_t format;
 515:..\..\..\lvgl\version_6.1.2\lvgl\src\lv_objx/lv_table.c ****         format.format_byte = ext->cell_data[cell][0];
 1777              		.loc 3 515 0
 1778 0054 7B69     		ldr	r3, [r7, #20]
 1779 0056 5A68     		ldr	r2, [r3, #4]
 1780 0058 3B69     		ldr	r3, [r7, #16]
 1781 005a 9B00     		lsls	r3, r3, #2
 1782 005c 1344     		add	r3, r3, r2
 1783 005e 1B68     		ldr	r3, [r3]
 1784 0060 1B78     		ldrb	r3, [r3]	@ zero_extendqisi2
 1785 0062 3B73     		strb	r3, [r7, #12]
 516:..\..\..\lvgl\version_6.1.2\lvgl\src\lv_objx/lv_table.c ****         return format.s.align;
 1786              		.loc 3 516 0
 1787 0064 3B7B     		ldrb	r3, [r7, #12]
 1788 0066 C3F30103 		ubfx	r3, r3, #0, #2
 1789 006a DBB2     		uxtb	r3, r3
 1790              	.L93:
 1791              	.LBE6:
 517:..\..\..\lvgl\version_6.1.2\lvgl\src\lv_objx/lv_table.c ****     }
 518:..\..\..\lvgl\version_6.1.2\lvgl\src\lv_objx/lv_table.c **** }
 1792              		.loc 3 518 0 discriminator 1
 1793 006c 1846     		mov	r0, r3
 1794 006e 1837     		adds	r7, r7, #24
 1795              		.cfi_def_cfa_offset 8
 1796 0070 BD46     		mov	sp, r7
 1797              		.cfi_def_cfa_register 13
 1798              		@ sp needed
 1799 0072 80BD     		pop	{r7, pc}
 1800              		.cfi_endproc
 1801              	.LFE47:
 1802              		.size	lv_table_get_cell_align, .-lv_table_get_cell_align
 1803              		.section	.text.lv_table_get_cell_type,"ax",%progbits
 1804              		.align	2
 1805              		.global	lv_table_get_cell_type
 1806              		.thumb
 1807              		.thumb_func
 1808              		.type	lv_table_get_cell_type, %function
 1809              	lv_table_get_cell_type:
 1810              	.LFB48:
 519:..\..\..\lvgl\version_6.1.2\lvgl\src\lv_objx/lv_table.c **** 
 520:..\..\..\lvgl\version_6.1.2\lvgl\src\lv_objx/lv_table.c **** /**
 521:..\..\..\lvgl\version_6.1.2\lvgl\src\lv_objx/lv_table.c ****  * Get the type of a cell
 522:..\..\..\lvgl\version_6.1.2\lvgl\src\lv_objx/lv_table.c ****  * @param table pointer to a Table object
 523:..\..\..\lvgl\version_6.1.2\lvgl\src\lv_objx/lv_table.c ****  * @param row id of the row [0 .. row_cnt -1]
 524:..\..\..\lvgl\version_6.1.2\lvgl\src\lv_objx/lv_table.c ****  * @param col id of the column [0 .. col_cnt -1]
 525:..\..\..\lvgl\version_6.1.2\lvgl\src\lv_objx/lv_table.c ****  * @return 1,2,3 or 4
 526:..\..\..\lvgl\version_6.1.2\lvgl\src\lv_objx/lv_table.c ****  */
 527:..\..\..\lvgl\version_6.1.2\lvgl\src\lv_objx/lv_table.c **** lv_label_align_t lv_table_get_cell_type(lv_obj_t * table, uint16_t row, uint16_t col)
 528:..\..\..\lvgl\version_6.1.2\lvgl\src\lv_objx/lv_table.c **** {
ARM GAS  C:\Users\tmj32\AppData\Local\Temp\ccIZw7Ef.s 			page 46


 1811              		.loc 3 528 0
 1812              		.cfi_startproc
 1813              		@ args = 0, pretend = 0, frame = 24
 1814              		@ frame_needed = 1, uses_anonymous_args = 0
 1815 0000 80B5     		push	{r7, lr}
 1816              		.cfi_def_cfa_offset 8
 1817              		.cfi_offset 7, -8
 1818              		.cfi_offset 14, -4
 1819 0002 86B0     		sub	sp, sp, #24
 1820              		.cfi_def_cfa_offset 32
 1821 0004 00AF     		add	r7, sp, #0
 1822              		.cfi_def_cfa_register 7
 1823 0006 7860     		str	r0, [r7, #4]
 1824 0008 0B46     		mov	r3, r1
 1825 000a 7B80     		strh	r3, [r7, #2]	@ movhi
 1826 000c 1346     		mov	r3, r2	@ movhi
 1827 000e 3B80     		strh	r3, [r7]	@ movhi
 529:..\..\..\lvgl\version_6.1.2\lvgl\src\lv_objx/lv_table.c ****     LV_ASSERT_OBJ(table, LV_OBJX_NAME);
 530:..\..\..\lvgl\version_6.1.2\lvgl\src\lv_objx/lv_table.c **** 
 531:..\..\..\lvgl\version_6.1.2\lvgl\src\lv_objx/lv_table.c ****     lv_table_ext_t * ext = lv_obj_get_ext_attr(table);
 1828              		.loc 3 531 0
 1829 0010 7868     		ldr	r0, [r7, #4]
 1830 0012 FFF7FEFF 		bl	lv_obj_get_ext_attr
 1831 0016 7861     		str	r0, [r7, #20]
 532:..\..\..\lvgl\version_6.1.2\lvgl\src\lv_objx/lv_table.c ****     if(row >= ext->row_cnt || col >= ext->col_cnt) {
 1832              		.loc 3 532 0
 1833 0018 7B69     		ldr	r3, [r7, #20]
 1834 001a 5B88     		ldrh	r3, [r3, #2]
 1835 001c 7A88     		ldrh	r2, [r7, #2]
 1836 001e 9A42     		cmp	r2, r3
 1837 0020 04D2     		bcs	.L96
 1838              		.loc 3 532 0 is_stmt 0 discriminator 1
 1839 0022 7B69     		ldr	r3, [r7, #20]
 1840 0024 1B88     		ldrh	r3, [r3]
 1841 0026 3A88     		ldrh	r2, [r7]
 1842 0028 9A42     		cmp	r2, r3
 1843 002a 01D3     		bcc	.L97
 1844              	.L96:
 533:..\..\..\lvgl\version_6.1.2\lvgl\src\lv_objx/lv_table.c ****         LV_LOG_WARN("lv_table_get_cell_type: invalid row or column");
 534:..\..\..\lvgl\version_6.1.2\lvgl\src\lv_objx/lv_table.c ****         return 1; /*Just return with something*/
 1845              		.loc 3 534 0 is_stmt 1
 1846 002c 0123     		movs	r3, #1
 1847 002e 1FE0     		b	.L98
 1848              	.L97:
 535:..\..\..\lvgl\version_6.1.2\lvgl\src\lv_objx/lv_table.c ****     }
 536:..\..\..\lvgl\version_6.1.2\lvgl\src\lv_objx/lv_table.c ****     uint32_t cell = row * ext->col_cnt + col;
 1849              		.loc 3 536 0
 1850 0030 7B88     		ldrh	r3, [r7, #2]
 1851 0032 7A69     		ldr	r2, [r7, #20]
 1852 0034 1288     		ldrh	r2, [r2]
 1853 0036 02FB03F2 		mul	r2, r2, r3
 1854 003a 3B88     		ldrh	r3, [r7]
 1855 003c 1344     		add	r3, r3, r2
 1856 003e 3B61     		str	r3, [r7, #16]
 537:..\..\..\lvgl\version_6.1.2\lvgl\src\lv_objx/lv_table.c **** 
 538:..\..\..\lvgl\version_6.1.2\lvgl\src\lv_objx/lv_table.c ****     if(ext->cell_data[cell] == NULL)
 1857              		.loc 3 538 0
ARM GAS  C:\Users\tmj32\AppData\Local\Temp\ccIZw7Ef.s 			page 47


 1858 0040 7B69     		ldr	r3, [r7, #20]
 1859 0042 5A68     		ldr	r2, [r3, #4]
 1860 0044 3B69     		ldr	r3, [r7, #16]
 1861 0046 9B00     		lsls	r3, r3, #2
 1862 0048 1344     		add	r3, r3, r2
 1863 004a 1B68     		ldr	r3, [r3]
 1864 004c 002B     		cmp	r3, #0
 1865 004e 01D1     		bne	.L99
 539:..\..\..\lvgl\version_6.1.2\lvgl\src\lv_objx/lv_table.c ****         return 1; /*Just return with something*/
 1866              		.loc 3 539 0
 1867 0050 0123     		movs	r3, #1
 1868 0052 0DE0     		b	.L98
 1869              	.L99:
 1870              	.LBB7:
 540:..\..\..\lvgl\version_6.1.2\lvgl\src\lv_objx/lv_table.c ****     else {
 541:..\..\..\lvgl\version_6.1.2\lvgl\src\lv_objx/lv_table.c ****         lv_table_cell_format_t format;
 542:..\..\..\lvgl\version_6.1.2\lvgl\src\lv_objx/lv_table.c ****         format.format_byte = ext->cell_data[cell][0];
 1871              		.loc 3 542 0
 1872 0054 7B69     		ldr	r3, [r7, #20]
 1873 0056 5A68     		ldr	r2, [r3, #4]
 1874 0058 3B69     		ldr	r3, [r7, #16]
 1875 005a 9B00     		lsls	r3, r3, #2
 1876 005c 1344     		add	r3, r3, r2
 1877 005e 1B68     		ldr	r3, [r3]
 1878 0060 1B78     		ldrb	r3, [r3]	@ zero_extendqisi2
 1879 0062 3B73     		strb	r3, [r7, #12]
 543:..\..\..\lvgl\version_6.1.2\lvgl\src\lv_objx/lv_table.c ****         return format.s.type + 1; /*0,1,2,3 is stored but user sees 1,2,3,4*/
 1880              		.loc 3 543 0
 1881 0064 3B7B     		ldrb	r3, [r7, #12]
 1882 0066 C3F3C103 		ubfx	r3, r3, #3, #2
 1883 006a DBB2     		uxtb	r3, r3
 1884 006c 0133     		adds	r3, r3, #1
 1885 006e DBB2     		uxtb	r3, r3
 1886              	.L98:
 1887              	.LBE7:
 544:..\..\..\lvgl\version_6.1.2\lvgl\src\lv_objx/lv_table.c ****     }
 545:..\..\..\lvgl\version_6.1.2\lvgl\src\lv_objx/lv_table.c **** }
 1888              		.loc 3 545 0 discriminator 1
 1889 0070 1846     		mov	r0, r3
 1890 0072 1837     		adds	r7, r7, #24
 1891              		.cfi_def_cfa_offset 8
 1892 0074 BD46     		mov	sp, r7
 1893              		.cfi_def_cfa_register 13
 1894              		@ sp needed
 1895 0076 80BD     		pop	{r7, pc}
 1896              		.cfi_endproc
 1897              	.LFE48:
 1898              		.size	lv_table_get_cell_type, .-lv_table_get_cell_type
 1899              		.section	.text.lv_table_get_cell_crop,"ax",%progbits
 1900              		.align	2
 1901              		.global	lv_table_get_cell_crop
 1902              		.thumb
 1903              		.thumb_func
 1904              		.type	lv_table_get_cell_crop, %function
 1905              	lv_table_get_cell_crop:
 1906              	.LFB49:
 546:..\..\..\lvgl\version_6.1.2\lvgl\src\lv_objx/lv_table.c **** 
ARM GAS  C:\Users\tmj32\AppData\Local\Temp\ccIZw7Ef.s 			page 48


 547:..\..\..\lvgl\version_6.1.2\lvgl\src\lv_objx/lv_table.c **** /**
 548:..\..\..\lvgl\version_6.1.2\lvgl\src\lv_objx/lv_table.c ****  * Get the crop property of a cell
 549:..\..\..\lvgl\version_6.1.2\lvgl\src\lv_objx/lv_table.c ****  * @param table pointer to a Table object
 550:..\..\..\lvgl\version_6.1.2\lvgl\src\lv_objx/lv_table.c ****  * @param row id of the row [0 .. row_cnt -1]
 551:..\..\..\lvgl\version_6.1.2\lvgl\src\lv_objx/lv_table.c ****  * @param col id of the column [0 .. col_cnt -1]
 552:..\..\..\lvgl\version_6.1.2\lvgl\src\lv_objx/lv_table.c ****  * @return true: text crop enabled; false: disabled
 553:..\..\..\lvgl\version_6.1.2\lvgl\src\lv_objx/lv_table.c ****  */
 554:..\..\..\lvgl\version_6.1.2\lvgl\src\lv_objx/lv_table.c **** lv_label_align_t lv_table_get_cell_crop(lv_obj_t * table, uint16_t row, uint16_t col)
 555:..\..\..\lvgl\version_6.1.2\lvgl\src\lv_objx/lv_table.c **** {
 1907              		.loc 3 555 0
 1908              		.cfi_startproc
 1909              		@ args = 0, pretend = 0, frame = 24
 1910              		@ frame_needed = 1, uses_anonymous_args = 0
 1911 0000 80B5     		push	{r7, lr}
 1912              		.cfi_def_cfa_offset 8
 1913              		.cfi_offset 7, -8
 1914              		.cfi_offset 14, -4
 1915 0002 86B0     		sub	sp, sp, #24
 1916              		.cfi_def_cfa_offset 32
 1917 0004 00AF     		add	r7, sp, #0
 1918              		.cfi_def_cfa_register 7
 1919 0006 7860     		str	r0, [r7, #4]
 1920 0008 0B46     		mov	r3, r1
 1921 000a 7B80     		strh	r3, [r7, #2]	@ movhi
 1922 000c 1346     		mov	r3, r2	@ movhi
 1923 000e 3B80     		strh	r3, [r7]	@ movhi
 556:..\..\..\lvgl\version_6.1.2\lvgl\src\lv_objx/lv_table.c ****     LV_ASSERT_OBJ(table, LV_OBJX_NAME);
 557:..\..\..\lvgl\version_6.1.2\lvgl\src\lv_objx/lv_table.c **** 
 558:..\..\..\lvgl\version_6.1.2\lvgl\src\lv_objx/lv_table.c ****     lv_table_ext_t * ext = lv_obj_get_ext_attr(table);
 1924              		.loc 3 558 0
 1925 0010 7868     		ldr	r0, [r7, #4]
 1926 0012 FFF7FEFF 		bl	lv_obj_get_ext_attr
 1927 0016 7861     		str	r0, [r7, #20]
 559:..\..\..\lvgl\version_6.1.2\lvgl\src\lv_objx/lv_table.c ****     if(row >= ext->row_cnt || col >= ext->col_cnt) {
 1928              		.loc 3 559 0
 1929 0018 7B69     		ldr	r3, [r7, #20]
 1930 001a 5B88     		ldrh	r3, [r3, #2]
 1931 001c 7A88     		ldrh	r2, [r7, #2]
 1932 001e 9A42     		cmp	r2, r3
 1933 0020 04D2     		bcs	.L101
 1934              		.loc 3 559 0 is_stmt 0 discriminator 1
 1935 0022 7B69     		ldr	r3, [r7, #20]
 1936 0024 1B88     		ldrh	r3, [r3]
 1937 0026 3A88     		ldrh	r2, [r7]
 1938 0028 9A42     		cmp	r2, r3
 1939 002a 01D3     		bcc	.L102
 1940              	.L101:
 560:..\..\..\lvgl\version_6.1.2\lvgl\src\lv_objx/lv_table.c ****         LV_LOG_WARN("lv_table_get_cell_crop: invalid row or column");
 561:..\..\..\lvgl\version_6.1.2\lvgl\src\lv_objx/lv_table.c ****         return false; /*Just return with something*/
 1941              		.loc 3 561 0 is_stmt 1
 1942 002c 0023     		movs	r3, #0
 1943 002e 1DE0     		b	.L103
 1944              	.L102:
 562:..\..\..\lvgl\version_6.1.2\lvgl\src\lv_objx/lv_table.c ****     }
 563:..\..\..\lvgl\version_6.1.2\lvgl\src\lv_objx/lv_table.c ****     uint32_t cell = row * ext->col_cnt + col;
 1945              		.loc 3 563 0
 1946 0030 7B88     		ldrh	r3, [r7, #2]
ARM GAS  C:\Users\tmj32\AppData\Local\Temp\ccIZw7Ef.s 			page 49


 1947 0032 7A69     		ldr	r2, [r7, #20]
 1948 0034 1288     		ldrh	r2, [r2]
 1949 0036 02FB03F2 		mul	r2, r2, r3
 1950 003a 3B88     		ldrh	r3, [r7]
 1951 003c 1344     		add	r3, r3, r2
 1952 003e 3B61     		str	r3, [r7, #16]
 564:..\..\..\lvgl\version_6.1.2\lvgl\src\lv_objx/lv_table.c **** 
 565:..\..\..\lvgl\version_6.1.2\lvgl\src\lv_objx/lv_table.c ****     if(ext->cell_data[cell] == NULL)
 1953              		.loc 3 565 0
 1954 0040 7B69     		ldr	r3, [r7, #20]
 1955 0042 5A68     		ldr	r2, [r3, #4]
 1956 0044 3B69     		ldr	r3, [r7, #16]
 1957 0046 9B00     		lsls	r3, r3, #2
 1958 0048 1344     		add	r3, r3, r2
 1959 004a 1B68     		ldr	r3, [r3]
 1960 004c 002B     		cmp	r3, #0
 1961 004e 01D1     		bne	.L104
 566:..\..\..\lvgl\version_6.1.2\lvgl\src\lv_objx/lv_table.c ****         return false; /*Just return with something*/
 1962              		.loc 3 566 0
 1963 0050 0023     		movs	r3, #0
 1964 0052 0BE0     		b	.L103
 1965              	.L104:
 1966              	.LBB8:
 567:..\..\..\lvgl\version_6.1.2\lvgl\src\lv_objx/lv_table.c ****     else {
 568:..\..\..\lvgl\version_6.1.2\lvgl\src\lv_objx/lv_table.c ****         lv_table_cell_format_t format;
 569:..\..\..\lvgl\version_6.1.2\lvgl\src\lv_objx/lv_table.c ****         format.format_byte = ext->cell_data[cell][0];
 1967              		.loc 3 569 0
 1968 0054 7B69     		ldr	r3, [r7, #20]
 1969 0056 5A68     		ldr	r2, [r3, #4]
 1970 0058 3B69     		ldr	r3, [r7, #16]
 1971 005a 9B00     		lsls	r3, r3, #2
 1972 005c 1344     		add	r3, r3, r2
 1973 005e 1B68     		ldr	r3, [r3]
 1974 0060 1B78     		ldrb	r3, [r3]	@ zero_extendqisi2
 1975 0062 3B73     		strb	r3, [r7, #12]
 570:..\..\..\lvgl\version_6.1.2\lvgl\src\lv_objx/lv_table.c ****         return format.s.crop;
 1976              		.loc 3 570 0
 1977 0064 3B7B     		ldrb	r3, [r7, #12]
 1978 0066 C3F34013 		ubfx	r3, r3, #5, #1
 1979 006a DBB2     		uxtb	r3, r3
 1980              	.L103:
 1981              	.LBE8:
 571:..\..\..\lvgl\version_6.1.2\lvgl\src\lv_objx/lv_table.c ****     }
 572:..\..\..\lvgl\version_6.1.2\lvgl\src\lv_objx/lv_table.c **** }
 1982              		.loc 3 572 0 discriminator 1
 1983 006c 1846     		mov	r0, r3
 1984 006e 1837     		adds	r7, r7, #24
 1985              		.cfi_def_cfa_offset 8
 1986 0070 BD46     		mov	sp, r7
 1987              		.cfi_def_cfa_register 13
 1988              		@ sp needed
 1989 0072 80BD     		pop	{r7, pc}
 1990              		.cfi_endproc
 1991              	.LFE49:
 1992              		.size	lv_table_get_cell_crop, .-lv_table_get_cell_crop
 1993              		.section	.text.lv_table_get_cell_merge_right,"ax",%progbits
 1994              		.align	2
ARM GAS  C:\Users\tmj32\AppData\Local\Temp\ccIZw7Ef.s 			page 50


 1995              		.global	lv_table_get_cell_merge_right
 1996              		.thumb
 1997              		.thumb_func
 1998              		.type	lv_table_get_cell_merge_right, %function
 1999              	lv_table_get_cell_merge_right:
 2000              	.LFB50:
 573:..\..\..\lvgl\version_6.1.2\lvgl\src\lv_objx/lv_table.c **** 
 574:..\..\..\lvgl\version_6.1.2\lvgl\src\lv_objx/lv_table.c **** /**
 575:..\..\..\lvgl\version_6.1.2\lvgl\src\lv_objx/lv_table.c ****  * Get the cell merge attribute.
 576:..\..\..\lvgl\version_6.1.2\lvgl\src\lv_objx/lv_table.c ****  * @param table table pointer to a Table object
 577:..\..\..\lvgl\version_6.1.2\lvgl\src\lv_objx/lv_table.c ****  * @param row id of the row [0 .. row_cnt -1]
 578:..\..\..\lvgl\version_6.1.2\lvgl\src\lv_objx/lv_table.c ****  * @param col id of the column [0 .. col_cnt -1]
 579:..\..\..\lvgl\version_6.1.2\lvgl\src\lv_objx/lv_table.c ****  * @return true: merge right; false: don't merge right
 580:..\..\..\lvgl\version_6.1.2\lvgl\src\lv_objx/lv_table.c ****  */
 581:..\..\..\lvgl\version_6.1.2\lvgl\src\lv_objx/lv_table.c **** bool lv_table_get_cell_merge_right(lv_obj_t * table, uint16_t row, uint16_t col)
 582:..\..\..\lvgl\version_6.1.2\lvgl\src\lv_objx/lv_table.c **** {
 2001              		.loc 3 582 0
 2002              		.cfi_startproc
 2003              		@ args = 0, pretend = 0, frame = 24
 2004              		@ frame_needed = 1, uses_anonymous_args = 0
 2005 0000 80B5     		push	{r7, lr}
 2006              		.cfi_def_cfa_offset 8
 2007              		.cfi_offset 7, -8
 2008              		.cfi_offset 14, -4
 2009 0002 86B0     		sub	sp, sp, #24
 2010              		.cfi_def_cfa_offset 32
 2011 0004 00AF     		add	r7, sp, #0
 2012              		.cfi_def_cfa_register 7
 2013 0006 7860     		str	r0, [r7, #4]
 2014 0008 0B46     		mov	r3, r1
 2015 000a 7B80     		strh	r3, [r7, #2]	@ movhi
 2016 000c 1346     		mov	r3, r2	@ movhi
 2017 000e 3B80     		strh	r3, [r7]	@ movhi
 583:..\..\..\lvgl\version_6.1.2\lvgl\src\lv_objx/lv_table.c ****     LV_ASSERT_OBJ(table, LV_OBJX_NAME);
 584:..\..\..\lvgl\version_6.1.2\lvgl\src\lv_objx/lv_table.c **** 
 585:..\..\..\lvgl\version_6.1.2\lvgl\src\lv_objx/lv_table.c ****     lv_table_ext_t * ext = lv_obj_get_ext_attr(table);
 2018              		.loc 3 585 0
 2019 0010 7868     		ldr	r0, [r7, #4]
 2020 0012 FFF7FEFF 		bl	lv_obj_get_ext_attr
 2021 0016 7861     		str	r0, [r7, #20]
 586:..\..\..\lvgl\version_6.1.2\lvgl\src\lv_objx/lv_table.c ****     if(row >= ext->row_cnt || col >= ext->col_cnt) {
 2022              		.loc 3 586 0
 2023 0018 7B69     		ldr	r3, [r7, #20]
 2024 001a 5B88     		ldrh	r3, [r3, #2]
 2025 001c 7A88     		ldrh	r2, [r7, #2]
 2026 001e 9A42     		cmp	r2, r3
 2027 0020 04D2     		bcs	.L106
 2028              		.loc 3 586 0 is_stmt 0 discriminator 1
 2029 0022 7B69     		ldr	r3, [r7, #20]
 2030 0024 1B88     		ldrh	r3, [r3]
 2031 0026 3A88     		ldrh	r2, [r7]
 2032 0028 9A42     		cmp	r2, r3
 2033 002a 01D3     		bcc	.L107
 2034              	.L106:
 587:..\..\..\lvgl\version_6.1.2\lvgl\src\lv_objx/lv_table.c ****         LV_LOG_WARN("lv_table_get_cell_merge_right: invalid row or column");
 588:..\..\..\lvgl\version_6.1.2\lvgl\src\lv_objx/lv_table.c ****         return false;
 2035              		.loc 3 588 0 is_stmt 1
ARM GAS  C:\Users\tmj32\AppData\Local\Temp\ccIZw7Ef.s 			page 51


 2036 002c 0023     		movs	r3, #0
 2037 002e 22E0     		b	.L108
 2038              	.L107:
 589:..\..\..\lvgl\version_6.1.2\lvgl\src\lv_objx/lv_table.c ****     }
 590:..\..\..\lvgl\version_6.1.2\lvgl\src\lv_objx/lv_table.c **** 
 591:..\..\..\lvgl\version_6.1.2\lvgl\src\lv_objx/lv_table.c ****     uint32_t cell = row * ext->col_cnt + col;
 2039              		.loc 3 591 0
 2040 0030 7B88     		ldrh	r3, [r7, #2]
 2041 0032 7A69     		ldr	r2, [r7, #20]
 2042 0034 1288     		ldrh	r2, [r2]
 2043 0036 02FB03F2 		mul	r2, r2, r3
 2044 003a 3B88     		ldrh	r3, [r7]
 2045 003c 1344     		add	r3, r3, r2
 2046 003e 3B61     		str	r3, [r7, #16]
 592:..\..\..\lvgl\version_6.1.2\lvgl\src\lv_objx/lv_table.c **** 
 593:..\..\..\lvgl\version_6.1.2\lvgl\src\lv_objx/lv_table.c ****     if(ext->cell_data[cell] == NULL)
 2047              		.loc 3 593 0
 2048 0040 7B69     		ldr	r3, [r7, #20]
 2049 0042 5A68     		ldr	r2, [r3, #4]
 2050 0044 3B69     		ldr	r3, [r7, #16]
 2051 0046 9B00     		lsls	r3, r3, #2
 2052 0048 1344     		add	r3, r3, r2
 2053 004a 1B68     		ldr	r3, [r3]
 2054 004c 002B     		cmp	r3, #0
 2055 004e 01D1     		bne	.L109
 594:..\..\..\lvgl\version_6.1.2\lvgl\src\lv_objx/lv_table.c ****         return false;
 2056              		.loc 3 594 0
 2057 0050 0023     		movs	r3, #0
 2058 0052 10E0     		b	.L108
 2059              	.L109:
 2060              	.LBB9:
 595:..\..\..\lvgl\version_6.1.2\lvgl\src\lv_objx/lv_table.c ****     else {
 596:..\..\..\lvgl\version_6.1.2\lvgl\src\lv_objx/lv_table.c ****         lv_table_cell_format_t format;
 597:..\..\..\lvgl\version_6.1.2\lvgl\src\lv_objx/lv_table.c ****         format.format_byte = ext->cell_data[cell][0];
 2061              		.loc 3 597 0
 2062 0054 7B69     		ldr	r3, [r7, #20]
 2063 0056 5A68     		ldr	r2, [r3, #4]
 2064 0058 3B69     		ldr	r3, [r7, #16]
 2065 005a 9B00     		lsls	r3, r3, #2
 2066 005c 1344     		add	r3, r3, r2
 2067 005e 1B68     		ldr	r3, [r3]
 2068 0060 1B78     		ldrb	r3, [r3]	@ zero_extendqisi2
 2069 0062 3B73     		strb	r3, [r7, #12]
 598:..\..\..\lvgl\version_6.1.2\lvgl\src\lv_objx/lv_table.c ****         return format.s.right_merge ? true : false;
 2070              		.loc 3 598 0
 2071 0064 3B7B     		ldrb	r3, [r7, #12]	@ zero_extendqisi2
 2072 0066 03F00403 		and	r3, r3, #4
 2073 006a DBB2     		uxtb	r3, r3
 2074 006c 002B     		cmp	r3, #0
 2075 006e 14BF     		ite	ne
 2076 0070 0123     		movne	r3, #1
 2077 0072 0023     		moveq	r3, #0
 2078 0074 DBB2     		uxtb	r3, r3
 2079              	.L108:
 2080              	.LBE9:
 599:..\..\..\lvgl\version_6.1.2\lvgl\src\lv_objx/lv_table.c ****     }
 600:..\..\..\lvgl\version_6.1.2\lvgl\src\lv_objx/lv_table.c **** }
ARM GAS  C:\Users\tmj32\AppData\Local\Temp\ccIZw7Ef.s 			page 52


 2081              		.loc 3 600 0 discriminator 1
 2082 0076 1846     		mov	r0, r3
 2083 0078 1837     		adds	r7, r7, #24
 2084              		.cfi_def_cfa_offset 8
 2085 007a BD46     		mov	sp, r7
 2086              		.cfi_def_cfa_register 13
 2087              		@ sp needed
 2088 007c 80BD     		pop	{r7, pc}
 2089              		.cfi_endproc
 2090              	.LFE50:
 2091              		.size	lv_table_get_cell_merge_right, .-lv_table_get_cell_merge_right
 2092 007e 00BF     		.section	.text.lv_table_get_style,"ax",%progbits
 2093              		.align	2
 2094              		.global	lv_table_get_style
 2095              		.thumb
 2096              		.thumb_func
 2097              		.type	lv_table_get_style, %function
 2098              	lv_table_get_style:
 2099              	.LFB51:
 601:..\..\..\lvgl\version_6.1.2\lvgl\src\lv_objx/lv_table.c **** 
 602:..\..\..\lvgl\version_6.1.2\lvgl\src\lv_objx/lv_table.c **** /**
 603:..\..\..\lvgl\version_6.1.2\lvgl\src\lv_objx/lv_table.c ****  * Get style of a table.
 604:..\..\..\lvgl\version_6.1.2\lvgl\src\lv_objx/lv_table.c ****  * @param table pointer to table object
 605:..\..\..\lvgl\version_6.1.2\lvgl\src\lv_objx/lv_table.c ****  * @param type which style should be get
 606:..\..\..\lvgl\version_6.1.2\lvgl\src\lv_objx/lv_table.c ****  * @return style pointer to the style
 607:..\..\..\lvgl\version_6.1.2\lvgl\src\lv_objx/lv_table.c ****  */
 608:..\..\..\lvgl\version_6.1.2\lvgl\src\lv_objx/lv_table.c **** const lv_style_t * lv_table_get_style(const lv_obj_t * table, lv_table_style_t type)
 609:..\..\..\lvgl\version_6.1.2\lvgl\src\lv_objx/lv_table.c **** {
 2100              		.loc 3 609 0
 2101              		.cfi_startproc
 2102              		@ args = 0, pretend = 0, frame = 16
 2103              		@ frame_needed = 1, uses_anonymous_args = 0
 2104 0000 80B5     		push	{r7, lr}
 2105              		.cfi_def_cfa_offset 8
 2106              		.cfi_offset 7, -8
 2107              		.cfi_offset 14, -4
 2108 0002 84B0     		sub	sp, sp, #16
 2109              		.cfi_def_cfa_offset 24
 2110 0004 00AF     		add	r7, sp, #0
 2111              		.cfi_def_cfa_register 7
 2112 0006 7860     		str	r0, [r7, #4]
 2113 0008 0B46     		mov	r3, r1
 2114 000a FB70     		strb	r3, [r7, #3]
 610:..\..\..\lvgl\version_6.1.2\lvgl\src\lv_objx/lv_table.c ****     LV_ASSERT_OBJ(table, LV_OBJX_NAME);
 611:..\..\..\lvgl\version_6.1.2\lvgl\src\lv_objx/lv_table.c **** 
 612:..\..\..\lvgl\version_6.1.2\lvgl\src\lv_objx/lv_table.c ****     lv_table_ext_t * ext     = lv_obj_get_ext_attr(table);
 2115              		.loc 3 612 0
 2116 000c 7868     		ldr	r0, [r7, #4]
 2117 000e FFF7FEFF 		bl	lv_obj_get_ext_attr
 2118 0012 B860     		str	r0, [r7, #8]
 613:..\..\..\lvgl\version_6.1.2\lvgl\src\lv_objx/lv_table.c ****     const lv_style_t * style = NULL;
 2119              		.loc 3 613 0
 2120 0014 0023     		movs	r3, #0
 2121 0016 FB60     		str	r3, [r7, #12]
 614:..\..\..\lvgl\version_6.1.2\lvgl\src\lv_objx/lv_table.c **** 
 615:..\..\..\lvgl\version_6.1.2\lvgl\src\lv_objx/lv_table.c ****     switch(type) {
 2122              		.loc 3 615 0
ARM GAS  C:\Users\tmj32\AppData\Local\Temp\ccIZw7Ef.s 			page 53


 2123 0018 FB78     		ldrb	r3, [r7, #3]	@ zero_extendqisi2
 2124 001a 042B     		cmp	r3, #4
 2125 001c 21D8     		bhi	.L111
 2126 001e 01A2     		adr	r2, .L113
 2127 0020 52F823F0 		ldr	pc, [r2, r3, lsl #2]
 2128              		.p2align 2
 2129              	.L113:
 2130 0024 39000000 		.word	.L112+1
 2131 0028 43000000 		.word	.L114+1
 2132 002c 4B000000 		.word	.L115+1
 2133 0030 53000000 		.word	.L116+1
 2134 0034 5B000000 		.word	.L117+1
 2135              		.p2align 1
 2136              	.L112:
 616:..\..\..\lvgl\version_6.1.2\lvgl\src\lv_objx/lv_table.c ****         case LV_TABLE_STYLE_BG: style = lv_obj_get_style(table); break;
 2137              		.loc 3 616 0
 2138 0038 7868     		ldr	r0, [r7, #4]
 2139 003a FFF7FEFF 		bl	lv_obj_get_style
 2140 003e F860     		str	r0, [r7, #12]
 2141 0040 11E0     		b	.L118
 2142              	.L114:
 617:..\..\..\lvgl\version_6.1.2\lvgl\src\lv_objx/lv_table.c ****         case LV_TABLE_STYLE_CELL1: style = ext->cell_style[0]; break;
 2143              		.loc 3 617 0
 2144 0042 BB68     		ldr	r3, [r7, #8]
 2145 0044 9B68     		ldr	r3, [r3, #8]
 2146 0046 FB60     		str	r3, [r7, #12]
 2147 0048 0DE0     		b	.L118
 2148              	.L115:
 618:..\..\..\lvgl\version_6.1.2\lvgl\src\lv_objx/lv_table.c ****         case LV_TABLE_STYLE_CELL2: style = ext->cell_style[1]; break;
 2149              		.loc 3 618 0
 2150 004a BB68     		ldr	r3, [r7, #8]
 2151 004c DB68     		ldr	r3, [r3, #12]
 2152 004e FB60     		str	r3, [r7, #12]
 2153 0050 09E0     		b	.L118
 2154              	.L116:
 619:..\..\..\lvgl\version_6.1.2\lvgl\src\lv_objx/lv_table.c ****         case LV_TABLE_STYLE_CELL3: style = ext->cell_style[2]; break;
 2155              		.loc 3 619 0
 2156 0052 BB68     		ldr	r3, [r7, #8]
 2157 0054 1B69     		ldr	r3, [r3, #16]
 2158 0056 FB60     		str	r3, [r7, #12]
 2159 0058 05E0     		b	.L118
 2160              	.L117:
 620:..\..\..\lvgl\version_6.1.2\lvgl\src\lv_objx/lv_table.c ****         case LV_TABLE_STYLE_CELL4: style = ext->cell_style[3]; break;
 2161              		.loc 3 620 0
 2162 005a BB68     		ldr	r3, [r7, #8]
 2163 005c 5B69     		ldr	r3, [r3, #20]
 2164 005e FB60     		str	r3, [r7, #12]
 2165 0060 01E0     		b	.L118
 2166              	.L111:
 621:..\..\..\lvgl\version_6.1.2\lvgl\src\lv_objx/lv_table.c ****         default: return NULL;
 2167              		.loc 3 621 0
 2168 0062 0023     		movs	r3, #0
 2169 0064 00E0     		b	.L119
 2170              	.L118:
 622:..\..\..\lvgl\version_6.1.2\lvgl\src\lv_objx/lv_table.c ****     }
 623:..\..\..\lvgl\version_6.1.2\lvgl\src\lv_objx/lv_table.c **** 
 624:..\..\..\lvgl\version_6.1.2\lvgl\src\lv_objx/lv_table.c ****     return style;
ARM GAS  C:\Users\tmj32\AppData\Local\Temp\ccIZw7Ef.s 			page 54


 2171              		.loc 3 624 0
 2172 0066 FB68     		ldr	r3, [r7, #12]
 2173              	.L119:
 625:..\..\..\lvgl\version_6.1.2\lvgl\src\lv_objx/lv_table.c **** }
 2174              		.loc 3 625 0
 2175 0068 1846     		mov	r0, r3
 2176 006a 1037     		adds	r7, r7, #16
 2177              		.cfi_def_cfa_offset 8
 2178 006c BD46     		mov	sp, r7
 2179              		.cfi_def_cfa_register 13
 2180              		@ sp needed
 2181 006e 80BD     		pop	{r7, pc}
 2182              		.cfi_endproc
 2183              	.LFE51:
 2184              		.size	lv_table_get_style, .-lv_table_get_style
 2185              		.section	.text.lv_table_design,"ax",%progbits
 2186              		.align	2
 2187              		.thumb
 2188              		.thumb_func
 2189              		.type	lv_table_design, %function
 2190              	lv_table_design:
 2191              	.LFB52:
 626:..\..\..\lvgl\version_6.1.2\lvgl\src\lv_objx/lv_table.c **** 
 627:..\..\..\lvgl\version_6.1.2\lvgl\src\lv_objx/lv_table.c **** /**********************
 628:..\..\..\lvgl\version_6.1.2\lvgl\src\lv_objx/lv_table.c ****  *   STATIC FUNCTIONS
 629:..\..\..\lvgl\version_6.1.2\lvgl\src\lv_objx/lv_table.c ****  **********************/
 630:..\..\..\lvgl\version_6.1.2\lvgl\src\lv_objx/lv_table.c **** 
 631:..\..\..\lvgl\version_6.1.2\lvgl\src\lv_objx/lv_table.c **** /**
 632:..\..\..\lvgl\version_6.1.2\lvgl\src\lv_objx/lv_table.c ****  * Handle the drawing related tasks of the tables
 633:..\..\..\lvgl\version_6.1.2\lvgl\src\lv_objx/lv_table.c ****  * @param table pointer to an object
 634:..\..\..\lvgl\version_6.1.2\lvgl\src\lv_objx/lv_table.c ****  * @param mask the object will be drawn only in this area
 635:..\..\..\lvgl\version_6.1.2\lvgl\src\lv_objx/lv_table.c ****  * @param mode LV_DESIGN_COVER_CHK: only check if the object fully covers the 'mask_p' area
 636:..\..\..\lvgl\version_6.1.2\lvgl\src\lv_objx/lv_table.c ****  *                                  (return 'true' if yes)
 637:..\..\..\lvgl\version_6.1.2\lvgl\src\lv_objx/lv_table.c ****  *             LV_DESIGN_DRAW: draw the object (always return 'true')
 638:..\..\..\lvgl\version_6.1.2\lvgl\src\lv_objx/lv_table.c ****  *             LV_DESIGN_DRAW_POST: drawing after every children are drawn
 639:..\..\..\lvgl\version_6.1.2\lvgl\src\lv_objx/lv_table.c ****  * @param return true/false, depends on 'mode'
 640:..\..\..\lvgl\version_6.1.2\lvgl\src\lv_objx/lv_table.c ****  */
 641:..\..\..\lvgl\version_6.1.2\lvgl\src\lv_objx/lv_table.c **** static bool lv_table_design(lv_obj_t * table, const lv_area_t * mask, lv_design_mode_t mode)
 642:..\..\..\lvgl\version_6.1.2\lvgl\src\lv_objx/lv_table.c **** {
 2192              		.loc 3 642 0
 2193              		.cfi_startproc
 2194              		@ args = 0, pretend = 0, frame = 168
 2195              		@ frame_needed = 1, uses_anonymous_args = 0
 2196 0000 2DE9F041 		push	{r4, r5, r6, r7, r8, lr}
 2197              		.cfi_def_cfa_offset 24
 2198              		.cfi_offset 4, -24
 2199              		.cfi_offset 5, -20
 2200              		.cfi_offset 6, -16
 2201              		.cfi_offset 7, -12
 2202              		.cfi_offset 8, -8
 2203              		.cfi_offset 14, -4
 2204 0004 B0B0     		sub	sp, sp, #192
 2205              		.cfi_def_cfa_offset 216
 2206 0006 06AF     		add	r7, sp, #24
 2207              		.cfi_def_cfa 7, 192
 2208 0008 F860     		str	r0, [r7, #12]
 2209 000a B960     		str	r1, [r7, #8]
ARM GAS  C:\Users\tmj32\AppData\Local\Temp\ccIZw7Ef.s 			page 55


 2210 000c 1346     		mov	r3, r2
 2211 000e FB71     		strb	r3, [r7, #7]
 643:..\..\..\lvgl\version_6.1.2\lvgl\src\lv_objx/lv_table.c ****     /*Return false if the object is not covers the mask_p area*/
 644:..\..\..\lvgl\version_6.1.2\lvgl\src\lv_objx/lv_table.c ****     if(mode == LV_DESIGN_COVER_CHK) {
 2212              		.loc 3 644 0
 2213 0010 FB79     		ldrb	r3, [r7, #7]	@ zero_extendqisi2
 2214 0012 022B     		cmp	r3, #2
 2215 0014 01D1     		bne	.L121
 645:..\..\..\lvgl\version_6.1.2\lvgl\src\lv_objx/lv_table.c ****         return false;
 2216              		.loc 3 645 0
 2217 0016 0023     		movs	r3, #0
 2218 0018 C2E2     		b	.L122
 2219              	.L121:
 646:..\..\..\lvgl\version_6.1.2\lvgl\src\lv_objx/lv_table.c ****     }
 647:..\..\..\lvgl\version_6.1.2\lvgl\src\lv_objx/lv_table.c ****     /*Draw the object*/
 648:..\..\..\lvgl\version_6.1.2\lvgl\src\lv_objx/lv_table.c ****     else if(mode == LV_DESIGN_DRAW_MAIN) {
 2220              		.loc 3 648 0
 2221 001a FB79     		ldrb	r3, [r7, #7]	@ zero_extendqisi2
 2222 001c 002B     		cmp	r3, #0
 2223 001e 40F0BE82 		bne	.L123
 2224              	.LBB10:
 649:..\..\..\lvgl\version_6.1.2\lvgl\src\lv_objx/lv_table.c ****         ancestor_scrl_design(table, mask, mode);
 2225              		.loc 3 649 0
 2226 0022 A74B     		ldr	r3, .L150
 2227 0024 1B68     		ldr	r3, [r3]
 2228 0026 FA79     		ldrb	r2, [r7, #7]	@ zero_extendqisi2
 2229 0028 B968     		ldr	r1, [r7, #8]
 2230 002a F868     		ldr	r0, [r7, #12]
 2231 002c 9847     		blx	r3
 650:..\..\..\lvgl\version_6.1.2\lvgl\src\lv_objx/lv_table.c **** 
 651:..\..\..\lvgl\version_6.1.2\lvgl\src\lv_objx/lv_table.c ****         lv_table_ext_t * ext        = lv_obj_get_ext_attr(table);
 2232              		.loc 3 651 0
 2233 002e F868     		ldr	r0, [r7, #12]
 2234 0030 FFF7FEFF 		bl	lv_obj_get_ext_attr
 2235 0034 C7F89800 		str	r0, [r7, #152]
 652:..\..\..\lvgl\version_6.1.2\lvgl\src\lv_objx/lv_table.c ****         const lv_style_t * bg_style = lv_obj_get_style(table);
 2236              		.loc 3 652 0
 2237 0038 F868     		ldr	r0, [r7, #12]
 2238 003a FFF7FEFF 		bl	lv_obj_get_style
 2239 003e C7F89400 		str	r0, [r7, #148]
 653:..\..\..\lvgl\version_6.1.2\lvgl\src\lv_objx/lv_table.c ****         lv_coord_t h_row;
 654:..\..\..\lvgl\version_6.1.2\lvgl\src\lv_objx/lv_table.c ****         lv_point_t txt_size;
 655:..\..\..\lvgl\version_6.1.2\lvgl\src\lv_objx/lv_table.c ****         lv_area_t cell_area;
 656:..\..\..\lvgl\version_6.1.2\lvgl\src\lv_objx/lv_table.c ****         lv_area_t txt_area;
 657:..\..\..\lvgl\version_6.1.2\lvgl\src\lv_objx/lv_table.c ****         lv_txt_flag_t txt_flags;
 658:..\..\..\lvgl\version_6.1.2\lvgl\src\lv_objx/lv_table.c ****         lv_opa_t opa_scale = lv_obj_get_opa_scale(table);
 2240              		.loc 3 658 0
 2241 0042 F868     		ldr	r0, [r7, #12]
 2242 0044 FFF7FEFF 		bl	lv_obj_get_opa_scale
 2243 0048 0346     		mov	r3, r0
 2244 004a 87F89330 		strb	r3, [r7, #147]
 659:..\..\..\lvgl\version_6.1.2\lvgl\src\lv_objx/lv_table.c **** 
 660:..\..\..\lvgl\version_6.1.2\lvgl\src\lv_objx/lv_table.c ****         uint16_t col;
 661:..\..\..\lvgl\version_6.1.2\lvgl\src\lv_objx/lv_table.c ****         uint16_t row;
 662:..\..\..\lvgl\version_6.1.2\lvgl\src\lv_objx/lv_table.c ****         uint16_t cell = 0;
 2245              		.loc 3 662 0
 2246 004e 0023     		movs	r3, #0
ARM GAS  C:\Users\tmj32\AppData\Local\Temp\ccIZw7Ef.s 			page 56


 2247 0050 A7F8A030 		strh	r3, [r7, #160]	@ movhi
 663:..\..\..\lvgl\version_6.1.2\lvgl\src\lv_objx/lv_table.c **** 
 664:..\..\..\lvgl\version_6.1.2\lvgl\src\lv_objx/lv_table.c ****         cell_area.y2 = table->coords.y1 + bg_style->body.padding.top;
 2248              		.loc 3 664 0
 2249 0054 FB68     		ldr	r3, [r7, #12]
 2250 0056 B3F91230 		ldrsh	r3, [r3, #18]
 2251 005a 9AB2     		uxth	r2, r3
 2252 005c D7F89430 		ldr	r3, [r7, #148]
 2253 0060 B3F92030 		ldrsh	r3, [r3, #32]
 2254 0064 9BB2     		uxth	r3, r3
 2255 0066 1344     		add	r3, r3, r2
 2256 0068 9BB2     		uxth	r3, r3
 2257 006a 1BB2     		sxth	r3, r3
 2258 006c A7F88630 		strh	r3, [r7, #134]	@ movhi
 665:..\..\..\lvgl\version_6.1.2\lvgl\src\lv_objx/lv_table.c ****         for(row = 0; row < ext->row_cnt; row++) {
 2259              		.loc 3 665 0
 2260 0070 0023     		movs	r3, #0
 2261 0072 A7F8A230 		strh	r3, [r7, #162]	@ movhi
 2262 0076 8AE2     		b	.L124
 2263              	.L147:
 666:..\..\..\lvgl\version_6.1.2\lvgl\src\lv_objx/lv_table.c ****             h_row = get_row_height(table, row);
 2264              		.loc 3 666 0
 2265 0078 B7F8A230 		ldrh	r3, [r7, #162]
 2266 007c 1946     		mov	r1, r3
 2267 007e F868     		ldr	r0, [r7, #12]
 2268 0080 FFF7FEFF 		bl	get_row_height
 2269 0084 0346     		mov	r3, r0
 2270 0086 A7F89030 		strh	r3, [r7, #144]	@ movhi
 667:..\..\..\lvgl\version_6.1.2\lvgl\src\lv_objx/lv_table.c **** 
 668:..\..\..\lvgl\version_6.1.2\lvgl\src\lv_objx/lv_table.c ****             cell_area.y1 = cell_area.y2 + 1;
 2271              		.loc 3 668 0
 2272 008a B7F98630 		ldrsh	r3, [r7, #134]
 2273 008e 9BB2     		uxth	r3, r3
 2274 0090 0133     		adds	r3, r3, #1
 2275 0092 9BB2     		uxth	r3, r3
 2276 0094 1BB2     		sxth	r3, r3
 2277 0096 A7F88230 		strh	r3, [r7, #130]	@ movhi
 669:..\..\..\lvgl\version_6.1.2\lvgl\src\lv_objx/lv_table.c ****             cell_area.y2 = cell_area.y1 + h_row - 1;
 2278              		.loc 3 669 0
 2279 009a B7F98230 		ldrsh	r3, [r7, #130]
 2280 009e 9AB2     		uxth	r2, r3
 2281 00a0 B7F89030 		ldrh	r3, [r7, #144]
 2282 00a4 1344     		add	r3, r3, r2
 2283 00a6 9BB2     		uxth	r3, r3
 2284 00a8 013B     		subs	r3, r3, #1
 2285 00aa 9BB2     		uxth	r3, r3
 2286 00ac 1BB2     		sxth	r3, r3
 2287 00ae A7F88630 		strh	r3, [r7, #134]	@ movhi
 670:..\..\..\lvgl\version_6.1.2\lvgl\src\lv_objx/lv_table.c **** 
 671:..\..\..\lvgl\version_6.1.2\lvgl\src\lv_objx/lv_table.c ****             cell_area.x2 = table->coords.x1 + bg_style->body.padding.left;
 2288              		.loc 3 671 0
 2289 00b2 FB68     		ldr	r3, [r7, #12]
 2290 00b4 B3F91030 		ldrsh	r3, [r3, #16]
 2291 00b8 9AB2     		uxth	r2, r3
 2292 00ba D7F89430 		ldr	r3, [r7, #148]
 2293 00be B3F92430 		ldrsh	r3, [r3, #36]
 2294 00c2 9BB2     		uxth	r3, r3
ARM GAS  C:\Users\tmj32\AppData\Local\Temp\ccIZw7Ef.s 			page 57


 2295 00c4 1344     		add	r3, r3, r2
 2296 00c6 9BB2     		uxth	r3, r3
 2297 00c8 1BB2     		sxth	r3, r3
 2298 00ca A7F88430 		strh	r3, [r7, #132]	@ movhi
 672:..\..\..\lvgl\version_6.1.2\lvgl\src\lv_objx/lv_table.c **** 
 673:..\..\..\lvgl\version_6.1.2\lvgl\src\lv_objx/lv_table.c ****             for(col = 0; col < ext->col_cnt; col++) {
 2299              		.loc 3 673 0
 2300 00ce 0023     		movs	r3, #0
 2301 00d0 A7F8A430 		strh	r3, [r7, #164]	@ movhi
 2302 00d4 4EE2     		b	.L125
 2303              	.L146:
 2304              	.LBB11:
 674:..\..\..\lvgl\version_6.1.2\lvgl\src\lv_objx/lv_table.c **** 
 675:..\..\..\lvgl\version_6.1.2\lvgl\src\lv_objx/lv_table.c ****                 lv_table_cell_format_t format;
 676:..\..\..\lvgl\version_6.1.2\lvgl\src\lv_objx/lv_table.c ****                 if(ext->cell_data[cell]) {
 2305              		.loc 3 676 0
 2306 00d6 D7F89830 		ldr	r3, [r7, #152]
 2307 00da 5A68     		ldr	r2, [r3, #4]
 2308 00dc B7F8A030 		ldrh	r3, [r7, #160]
 2309 00e0 9B00     		lsls	r3, r3, #2
 2310 00e2 1344     		add	r3, r3, r2
 2311 00e4 1B68     		ldr	r3, [r3]
 2312 00e6 002B     		cmp	r3, #0
 2313 00e8 0BD0     		beq	.L126
 677:..\..\..\lvgl\version_6.1.2\lvgl\src\lv_objx/lv_table.c ****                     format.format_byte = ext->cell_data[cell][0];
 2314              		.loc 3 677 0
 2315 00ea D7F89830 		ldr	r3, [r7, #152]
 2316 00ee 5A68     		ldr	r2, [r3, #4]
 2317 00f0 B7F8A030 		ldrh	r3, [r7, #160]
 2318 00f4 9B00     		lsls	r3, r3, #2
 2319 00f6 1344     		add	r3, r3, r2
 2320 00f8 1B68     		ldr	r3, [r3]
 2321 00fa 1B78     		ldrb	r3, [r3]	@ zero_extendqisi2
 2322 00fc 87F87430 		strb	r3, [r7, #116]
 2323 0100 17E0     		b	.L127
 2324              	.L126:
 678:..\..\..\lvgl\version_6.1.2\lvgl\src\lv_objx/lv_table.c ****                 } else {
 679:..\..\..\lvgl\version_6.1.2\lvgl\src\lv_objx/lv_table.c ****                     format.s.right_merge = 0;
 2325              		.loc 3 679 0
 2326 0102 97F87430 		ldrb	r3, [r7, #116]
 2327 0106 6FF38203 		bfc	r3, #2, #1
 2328 010a 87F87430 		strb	r3, [r7, #116]
 680:..\..\..\lvgl\version_6.1.2\lvgl\src\lv_objx/lv_table.c ****                     format.s.align       = LV_LABEL_ALIGN_LEFT;
 2329              		.loc 3 680 0
 2330 010e 97F87430 		ldrb	r3, [r7, #116]
 2331 0112 6FF30103 		bfc	r3, #0, #2
 2332 0116 87F87430 		strb	r3, [r7, #116]
 681:..\..\..\lvgl\version_6.1.2\lvgl\src\lv_objx/lv_table.c ****                     format.s.type        = 0;
 2333              		.loc 3 681 0
 2334 011a 97F87430 		ldrb	r3, [r7, #116]
 2335 011e 6FF3C403 		bfc	r3, #3, #2
 2336 0122 87F87430 		strb	r3, [r7, #116]
 682:..\..\..\lvgl\version_6.1.2\lvgl\src\lv_objx/lv_table.c ****                     format.s.crop        = 1;
 2337              		.loc 3 682 0
 2338 0126 97F87430 		ldrb	r3, [r7, #116]
 2339 012a 43F02003 		orr	r3, r3, #32
 2340 012e 87F87430 		strb	r3, [r7, #116]
ARM GAS  C:\Users\tmj32\AppData\Local\Temp\ccIZw7Ef.s 			page 58


 2341              	.L127:
 683:..\..\..\lvgl\version_6.1.2\lvgl\src\lv_objx/lv_table.c ****                 }
 684:..\..\..\lvgl\version_6.1.2\lvgl\src\lv_objx/lv_table.c **** 
 685:..\..\..\lvgl\version_6.1.2\lvgl\src\lv_objx/lv_table.c **** 
 686:..\..\..\lvgl\version_6.1.2\lvgl\src\lv_objx/lv_table.c ****                 lv_style_t cell_style;
 687:..\..\..\lvgl\version_6.1.2\lvgl\src\lv_objx/lv_table.c ****                 lv_style_copy(&cell_style, ext->cell_style[format.s.type]);
 2342              		.loc 3 687 0
 2343 0132 97F87430 		ldrb	r3, [r7, #116]
 2344 0136 C3F3C103 		ubfx	r3, r3, #3, #2
 2345 013a DBB2     		uxtb	r3, r3
 2346 013c 1A46     		mov	r2, r3
 2347 013e D7F89830 		ldr	r3, [r7, #152]
 2348 0142 0232     		adds	r2, r2, #2
 2349 0144 53F82220 		ldr	r2, [r3, r2, lsl #2]
 2350 0148 07F11403 		add	r3, r7, #20
 2351 014c 1146     		mov	r1, r2
 2352 014e 1846     		mov	r0, r3
 2353 0150 FFF7FEFF 		bl	lv_style_copy
 688:..\..\..\lvgl\version_6.1.2\lvgl\src\lv_objx/lv_table.c ****                 cell_area.x1 = cell_area.x2 + 1;
 2354              		.loc 3 688 0
 2355 0154 B7F98430 		ldrsh	r3, [r7, #132]
 2356 0158 9BB2     		uxth	r3, r3
 2357 015a 0133     		adds	r3, r3, #1
 2358 015c 9BB2     		uxth	r3, r3
 2359 015e 1BB2     		sxth	r3, r3
 2360 0160 A7F88030 		strh	r3, [r7, #128]	@ movhi
 689:..\..\..\lvgl\version_6.1.2\lvgl\src\lv_objx/lv_table.c ****                 cell_area.x2 = cell_area.x1 + ext->col_w[col] - 1;
 2361              		.loc 3 689 0
 2362 0164 B7F98030 		ldrsh	r3, [r7, #128]
 2363 0168 9AB2     		uxth	r2, r3
 2364 016a B7F8A410 		ldrh	r1, [r7, #164]
 2365 016e D7F89830 		ldr	r3, [r7, #152]
 2366 0172 0C31     		adds	r1, r1, #12
 2367 0174 33F91130 		ldrsh	r3, [r3, r1, lsl #1]
 2368 0178 9BB2     		uxth	r3, r3
 2369 017a 1344     		add	r3, r3, r2
 2370 017c 9BB2     		uxth	r3, r3
 2371 017e 013B     		subs	r3, r3, #1
 2372 0180 9BB2     		uxth	r3, r3
 2373 0182 1BB2     		sxth	r3, r3
 2374 0184 A7F88430 		strh	r3, [r7, #132]	@ movhi
 690:..\..\..\lvgl\version_6.1.2\lvgl\src\lv_objx/lv_table.c **** 
 691:..\..\..\lvgl\version_6.1.2\lvgl\src\lv_objx/lv_table.c ****                 uint16_t col_merge = 0;
 2375              		.loc 3 691 0
 2376 0188 0023     		movs	r3, #0
 2377 018a A7F89E30 		strh	r3, [r7, #158]	@ movhi
 692:..\..\..\lvgl\version_6.1.2\lvgl\src\lv_objx/lv_table.c ****                 for(col_merge = 0; col_merge + col < ext->col_cnt - 1; col_merge++) {
 2378              		.loc 3 692 0
 2379 018e 0023     		movs	r3, #0
 2380 0190 A7F89E30 		strh	r3, [r7, #158]	@ movhi
 2381 0194 3AE0     		b	.L128
 2382              	.L133:
 693:..\..\..\lvgl\version_6.1.2\lvgl\src\lv_objx/lv_table.c **** 
 694:..\..\..\lvgl\version_6.1.2\lvgl\src\lv_objx/lv_table.c ****                     if(ext->cell_data[cell + col_merge] != NULL) {
 2383              		.loc 3 694 0
 2384 0196 D7F89830 		ldr	r3, [r7, #152]
 2385 019a 5A68     		ldr	r2, [r3, #4]
ARM GAS  C:\Users\tmj32\AppData\Local\Temp\ccIZw7Ef.s 			page 59


 2386 019c B7F8A010 		ldrh	r1, [r7, #160]
 2387 01a0 B7F89E30 		ldrh	r3, [r7, #158]
 2388 01a4 0B44     		add	r3, r3, r1
 2389 01a6 9B00     		lsls	r3, r3, #2
 2390 01a8 1344     		add	r3, r3, r2
 2391 01aa 1B68     		ldr	r3, [r3]
 2392 01ac 002B     		cmp	r3, #0
 2393 01ae 39D0     		beq	.L148
 695:..\..\..\lvgl\version_6.1.2\lvgl\src\lv_objx/lv_table.c ****                         format.format_byte = ext->cell_data[cell + col_merge][0];
 2394              		.loc 3 695 0
 2395 01b0 D7F89830 		ldr	r3, [r7, #152]
 2396 01b4 5A68     		ldr	r2, [r3, #4]
 2397 01b6 B7F8A010 		ldrh	r1, [r7, #160]
 2398 01ba B7F89E30 		ldrh	r3, [r7, #158]
 2399 01be 0B44     		add	r3, r3, r1
 2400 01c0 9B00     		lsls	r3, r3, #2
 2401 01c2 1344     		add	r3, r3, r2
 2402 01c4 1B68     		ldr	r3, [r3]
 2403 01c6 1B78     		ldrb	r3, [r3]	@ zero_extendqisi2
 2404 01c8 87F87430 		strb	r3, [r7, #116]
 696:..\..\..\lvgl\version_6.1.2\lvgl\src\lv_objx/lv_table.c ****                         if(format.s.right_merge)
 2405              		.loc 3 696 0
 2406 01cc 97F87430 		ldrb	r3, [r7, #116]	@ zero_extendqisi2
 2407 01d0 03F00403 		and	r3, r3, #4
 2408 01d4 DBB2     		uxtb	r3, r3
 2409 01d6 002B     		cmp	r3, #0
 2410 01d8 26D0     		beq	.L149
 697:..\..\..\lvgl\version_6.1.2\lvgl\src\lv_objx/lv_table.c ****                             cell_area.x2 += ext->col_w[col + col_merge + 1];
 2411              		.loc 3 697 0
 2412 01da B7F98430 		ldrsh	r3, [r7, #132]
 2413 01de 9AB2     		uxth	r2, r3
 2414 01e0 B7F8A410 		ldrh	r1, [r7, #164]
 2415 01e4 B7F89E30 		ldrh	r3, [r7, #158]
 2416 01e8 0B44     		add	r3, r3, r1
 2417 01ea 591C     		adds	r1, r3, #1
 2418 01ec D7F89830 		ldr	r3, [r7, #152]
 2419 01f0 0C31     		adds	r1, r1, #12
 2420 01f2 33F91130 		ldrsh	r3, [r3, r1, lsl #1]
 2421 01f6 9BB2     		uxth	r3, r3
 2422 01f8 1344     		add	r3, r3, r2
 2423 01fa 9BB2     		uxth	r3, r3
 2424 01fc 1BB2     		sxth	r3, r3
 2425 01fe A7F88430 		strh	r3, [r7, #132]	@ movhi
 692:..\..\..\lvgl\version_6.1.2\lvgl\src\lv_objx/lv_table.c **** 
 2426              		.loc 3 692 0
 2427 0202 B7F89E30 		ldrh	r3, [r7, #158]
 2428 0206 0133     		adds	r3, r3, #1
 2429 0208 A7F89E30 		strh	r3, [r7, #158]	@ movhi
 2430              	.L128:
 692:..\..\..\lvgl\version_6.1.2\lvgl\src\lv_objx/lv_table.c **** 
 2431              		.loc 3 692 0 is_stmt 0 discriminator 1
 2432 020c B7F89E20 		ldrh	r2, [r7, #158]
 2433 0210 B7F8A430 		ldrh	r3, [r7, #164]
 2434 0214 1A44     		add	r2, r2, r3
 2435 0216 D7F89830 		ldr	r3, [r7, #152]
 2436 021a 1B88     		ldrh	r3, [r3]
 2437 021c 013B     		subs	r3, r3, #1
ARM GAS  C:\Users\tmj32\AppData\Local\Temp\ccIZw7Ef.s 			page 60


 2438 021e 9A42     		cmp	r2, r3
 2439 0220 B9DB     		blt	.L133
 2440 0222 02E0     		b	.L132
 2441              	.L148:
 698:..\..\..\lvgl\version_6.1.2\lvgl\src\lv_objx/lv_table.c ****                         else
 699:..\..\..\lvgl\version_6.1.2\lvgl\src\lv_objx/lv_table.c ****                             break;
 700:..\..\..\lvgl\version_6.1.2\lvgl\src\lv_objx/lv_table.c ****                     } else {
 701:..\..\..\lvgl\version_6.1.2\lvgl\src\lv_objx/lv_table.c ****                         break;
 2442              		.loc 3 701 0 is_stmt 1
 2443 0224 00BF     		nop
 2444 0226 00E0     		b	.L132
 2445              	.L149:
 699:..\..\..\lvgl\version_6.1.2\lvgl\src\lv_objx/lv_table.c ****                     } else {
 2446              		.loc 3 699 0
 2447 0228 00BF     		nop
 2448              	.L132:
 702:..\..\..\lvgl\version_6.1.2\lvgl\src\lv_objx/lv_table.c ****                     }
 703:..\..\..\lvgl\version_6.1.2\lvgl\src\lv_objx/lv_table.c ****                 }
 704:..\..\..\lvgl\version_6.1.2\lvgl\src\lv_objx/lv_table.c **** 
 705:..\..\..\lvgl\version_6.1.2\lvgl\src\lv_objx/lv_table.c ****                 lv_draw_rect(&cell_area, mask, &cell_style, opa_scale);
 2449              		.loc 3 705 0
 2450 022a 97F89330 		ldrb	r3, [r7, #147]	@ zero_extendqisi2
 2451 022e 07F11402 		add	r2, r7, #20
 2452 0232 07F18000 		add	r0, r7, #128
 2453 0236 B968     		ldr	r1, [r7, #8]
 2454 0238 FFF7FEFF 		bl	lv_draw_rect
 706:..\..\..\lvgl\version_6.1.2\lvgl\src\lv_objx/lv_table.c **** 
 707:..\..\..\lvgl\version_6.1.2\lvgl\src\lv_objx/lv_table.c ****                 if(ext->cell_data[cell]) {
 2455              		.loc 3 707 0
 2456 023c D7F89830 		ldr	r3, [r7, #152]
 2457 0240 5A68     		ldr	r2, [r3, #4]
 2458 0242 B7F8A030 		ldrh	r3, [r7, #160]
 2459 0246 9B00     		lsls	r3, r3, #2
 2460 0248 1344     		add	r3, r3, r2
 2461 024a 1B68     		ldr	r3, [r3]
 2462 024c 002B     		cmp	r3, #0
 2463 024e 00F07C81 		beq	.L134
 2464              	.LBB12:
 708:..\..\..\lvgl\version_6.1.2\lvgl\src\lv_objx/lv_table.c **** 
 709:..\..\..\lvgl\version_6.1.2\lvgl\src\lv_objx/lv_table.c ****                     txt_area.x1 = cell_area.x1 + cell_style.body.padding.left;
 2465              		.loc 3 709 0
 2466 0252 B7F98030 		ldrsh	r3, [r7, #128]
 2467 0256 9AB2     		uxth	r2, r3
 2468 0258 B7F93830 		ldrsh	r3, [r7, #56]
 2469 025c 9BB2     		uxth	r3, r3
 2470 025e 1344     		add	r3, r3, r2
 2471 0260 9BB2     		uxth	r3, r3
 2472 0262 1BB2     		sxth	r3, r3
 2473 0264 A7F87830 		strh	r3, [r7, #120]	@ movhi
 710:..\..\..\lvgl\version_6.1.2\lvgl\src\lv_objx/lv_table.c ****                     txt_area.x2 = cell_area.x2 - cell_style.body.padding.right;
 2474              		.loc 3 710 0
 2475 0268 B7F98430 		ldrsh	r3, [r7, #132]
 2476 026c 9AB2     		uxth	r2, r3
 2477 026e B7F93A30 		ldrsh	r3, [r7, #58]
 2478 0272 9BB2     		uxth	r3, r3
 2479 0274 D31A     		subs	r3, r2, r3
 2480 0276 9BB2     		uxth	r3, r3
ARM GAS  C:\Users\tmj32\AppData\Local\Temp\ccIZw7Ef.s 			page 61


 2481 0278 1BB2     		sxth	r3, r3
 2482 027a A7F87C30 		strh	r3, [r7, #124]	@ movhi
 711:..\..\..\lvgl\version_6.1.2\lvgl\src\lv_objx/lv_table.c ****                     txt_area.y1 = cell_area.y1 + cell_style.body.padding.top;
 2483              		.loc 3 711 0
 2484 027e B7F98230 		ldrsh	r3, [r7, #130]
 2485 0282 9AB2     		uxth	r2, r3
 2486 0284 B7F93430 		ldrsh	r3, [r7, #52]
 2487 0288 9BB2     		uxth	r3, r3
 2488 028a 1344     		add	r3, r3, r2
 2489 028c 9BB2     		uxth	r3, r3
 2490 028e 1BB2     		sxth	r3, r3
 2491 0290 A7F87A30 		strh	r3, [r7, #122]	@ movhi
 712:..\..\..\lvgl\version_6.1.2\lvgl\src\lv_objx/lv_table.c ****                     txt_area.y2 = cell_area.y2 - cell_style.body.padding.bottom;
 2492              		.loc 3 712 0
 2493 0294 B7F98630 		ldrsh	r3, [r7, #134]
 2494 0298 9AB2     		uxth	r2, r3
 2495 029a B7F93630 		ldrsh	r3, [r7, #54]
 2496 029e 9BB2     		uxth	r3, r3
 2497 02a0 D31A     		subs	r3, r2, r3
 2498 02a2 9BB2     		uxth	r3, r3
 2499 02a4 1BB2     		sxth	r3, r3
 2500 02a6 A7F87E30 		strh	r3, [r7, #126]	@ movhi
 713:..\..\..\lvgl\version_6.1.2\lvgl\src\lv_objx/lv_table.c ****                     /*Align the content to the middle if not cropped*/
 714:..\..\..\lvgl\version_6.1.2\lvgl\src\lv_objx/lv_table.c ****                     if(format.s.crop == 0) {
 2501              		.loc 3 714 0
 2502 02aa 97F87430 		ldrb	r3, [r7, #116]	@ zero_extendqisi2
 2503 02ae 03F02003 		and	r3, r3, #32
 2504 02b2 DBB2     		uxtb	r3, r3
 2505 02b4 002B     		cmp	r3, #0
 2506 02b6 05D1     		bne	.L135
 715:..\..\..\lvgl\version_6.1.2\lvgl\src\lv_objx/lv_table.c ****                         txt_flags = LV_TXT_FLAG_NONE;
 2507              		.loc 3 715 0
 2508 02b8 0023     		movs	r3, #0
 2509 02ba 87F8A730 		strb	r3, [r7, #167]
 2510 02be 04E0     		b	.L136
 2511              	.L151:
 2512              		.align	2
 2513              	.L150:
 2514 02c0 04000000 		.word	ancestor_scrl_design
 2515              	.L135:
 716:..\..\..\lvgl\version_6.1.2\lvgl\src\lv_objx/lv_table.c ****                     } else {
 717:..\..\..\lvgl\version_6.1.2\lvgl\src\lv_objx/lv_table.c ****                         txt_flags = LV_TXT_FLAG_EXPAND;
 2516              		.loc 3 717 0
 2517 02c4 0223     		movs	r3, #2
 2518 02c6 87F8A730 		strb	r3, [r7, #167]
 2519              	.L136:
 718:..\..\..\lvgl\version_6.1.2\lvgl\src\lv_objx/lv_table.c ****                     }
 719:..\..\..\lvgl\version_6.1.2\lvgl\src\lv_objx/lv_table.c **** 
 720:..\..\..\lvgl\version_6.1.2\lvgl\src\lv_objx/lv_table.c ****                     lv_txt_get_size(&txt_size, ext->cell_data[cell] + 1, cell_style.text.font,
 2520              		.loc 3 720 0
 2521 02ca D7F89830 		ldr	r3, [r7, #152]
 2522 02ce 5A68     		ldr	r2, [r3, #4]
 2523 02d0 B7F8A030 		ldrh	r3, [r7, #160]
 2524 02d4 9B00     		lsls	r3, r3, #2
 2525 02d6 1344     		add	r3, r3, r2
 2526 02d8 1B68     		ldr	r3, [r3]
 2527 02da 5D1C     		adds	r5, r3, #1
ARM GAS  C:\Users\tmj32\AppData\Local\Temp\ccIZw7Ef.s 			page 62


 2528 02dc BE6C     		ldr	r6, [r7, #72]
 2529 02de B7F94C80 		ldrsh	r8, [r7, #76]
 2530 02e2 B7F94E40 		ldrsh	r4, [r7, #78]
 2531 02e6 07F17803 		add	r3, r7, #120
 2532 02ea 1846     		mov	r0, r3
 2533 02ec FFF7FEFF 		bl	lv_area_get_width
 2534 02f0 0346     		mov	r3, r0
 2535 02f2 1A46     		mov	r2, r3
 2536 02f4 07F18800 		add	r0, r7, #136
 2537 02f8 97F8A730 		ldrb	r3, [r7, #167]	@ zero_extendqisi2
 2538 02fc 0293     		str	r3, [sp, #8]
 2539 02fe 0192     		str	r2, [sp, #4]
 2540 0300 0094     		str	r4, [sp]
 2541 0302 4346     		mov	r3, r8
 2542 0304 3246     		mov	r2, r6
 2543 0306 2946     		mov	r1, r5
 2544 0308 FFF7FEFF 		bl	lv_txt_get_size
 721:..\..\..\lvgl\version_6.1.2\lvgl\src\lv_objx/lv_table.c ****                                     cell_style.text.letter_space, cell_style.text.line_space,
 722:..\..\..\lvgl\version_6.1.2\lvgl\src\lv_objx/lv_table.c ****                                     lv_area_get_width(&txt_area), txt_flags);
 723:..\..\..\lvgl\version_6.1.2\lvgl\src\lv_objx/lv_table.c **** 
 724:..\..\..\lvgl\version_6.1.2\lvgl\src\lv_objx/lv_table.c ****                     /*Align the content to the middle if not cropped*/
 725:..\..\..\lvgl\version_6.1.2\lvgl\src\lv_objx/lv_table.c ****                     if(format.s.crop == 0) {
 2545              		.loc 3 725 0
 2546 030c 97F87430 		ldrb	r3, [r7, #116]	@ zero_extendqisi2
 2547 0310 03F02003 		and	r3, r3, #32
 2548 0314 DBB2     		uxtb	r3, r3
 2549 0316 002B     		cmp	r3, #0
 2550 0318 2FD1     		bne	.L137
 726:..\..\..\lvgl\version_6.1.2\lvgl\src\lv_objx/lv_table.c ****                         txt_area.y1 = cell_area.y1 + h_row / 2 - txt_size.y / 2;
 2551              		.loc 3 726 0
 2552 031a B7F98230 		ldrsh	r3, [r7, #130]
 2553 031e 9AB2     		uxth	r2, r3
 2554 0320 B7F99030 		ldrsh	r3, [r7, #144]
 2555 0324 D90F     		lsrs	r1, r3, #31
 2556 0326 0B44     		add	r3, r3, r1
 2557 0328 5B10     		asrs	r3, r3, #1
 2558 032a 1BB2     		sxth	r3, r3
 2559 032c 9BB2     		uxth	r3, r3
 2560 032e 1344     		add	r3, r3, r2
 2561 0330 9AB2     		uxth	r2, r3
 2562 0332 B7F98A30 		ldrsh	r3, [r7, #138]
 2563 0336 D90F     		lsrs	r1, r3, #31
 2564 0338 0B44     		add	r3, r3, r1
 2565 033a 5B10     		asrs	r3, r3, #1
 2566 033c 1BB2     		sxth	r3, r3
 2567 033e 9BB2     		uxth	r3, r3
 2568 0340 D31A     		subs	r3, r2, r3
 2569 0342 9BB2     		uxth	r3, r3
 2570 0344 1BB2     		sxth	r3, r3
 2571 0346 A7F87A30 		strh	r3, [r7, #122]	@ movhi
 727:..\..\..\lvgl\version_6.1.2\lvgl\src\lv_objx/lv_table.c ****                         txt_area.y2 = cell_area.y1 + h_row / 2 + txt_size.y / 2;
 2572              		.loc 3 727 0
 2573 034a B7F98230 		ldrsh	r3, [r7, #130]
 2574 034e 9AB2     		uxth	r2, r3
 2575 0350 B7F99030 		ldrsh	r3, [r7, #144]
 2576 0354 D90F     		lsrs	r1, r3, #31
 2577 0356 0B44     		add	r3, r3, r1
ARM GAS  C:\Users\tmj32\AppData\Local\Temp\ccIZw7Ef.s 			page 63


 2578 0358 5B10     		asrs	r3, r3, #1
 2579 035a 1BB2     		sxth	r3, r3
 2580 035c 9BB2     		uxth	r3, r3
 2581 035e 1344     		add	r3, r3, r2
 2582 0360 9AB2     		uxth	r2, r3
 2583 0362 B7F98A30 		ldrsh	r3, [r7, #138]
 2584 0366 D90F     		lsrs	r1, r3, #31
 2585 0368 0B44     		add	r3, r3, r1
 2586 036a 5B10     		asrs	r3, r3, #1
 2587 036c 1BB2     		sxth	r3, r3
 2588 036e 9BB2     		uxth	r3, r3
 2589 0370 1344     		add	r3, r3, r2
 2590 0372 9BB2     		uxth	r3, r3
 2591 0374 1BB2     		sxth	r3, r3
 2592 0376 A7F87E30 		strh	r3, [r7, #126]	@ movhi
 2593              	.L137:
 728:..\..\..\lvgl\version_6.1.2\lvgl\src\lv_objx/lv_table.c ****                     }
 729:..\..\..\lvgl\version_6.1.2\lvgl\src\lv_objx/lv_table.c **** 
 730:..\..\..\lvgl\version_6.1.2\lvgl\src\lv_objx/lv_table.c ****                     switch(format.s.align) {
 2594              		.loc 3 730 0
 2595 037a 97F87430 		ldrb	r3, [r7, #116]
 2596 037e C3F30103 		ubfx	r3, r3, #0, #2
 2597 0382 DBB2     		uxtb	r3, r3
 2598 0384 012B     		cmp	r3, #1
 2599 0386 09D0     		beq	.L139
 2600 0388 022B     		cmp	r3, #2
 2601 038a 00D0     		beq	.L140
 731:..\..\..\lvgl\version_6.1.2\lvgl\src\lv_objx/lv_table.c ****                         default:
 732:..\..\..\lvgl\version_6.1.2\lvgl\src\lv_objx/lv_table.c ****                         case LV_LABEL_ALIGN_LEFT: txt_flags |= LV_TXT_FLAG_NONE; break;
 2602              		.loc 3 732 0
 2603 038c 0DE0     		b	.L141
 2604              	.L140:
 733:..\..\..\lvgl\version_6.1.2\lvgl\src\lv_objx/lv_table.c ****                         case LV_LABEL_ALIGN_RIGHT: txt_flags |= LV_TXT_FLAG_RIGHT; break;
 2605              		.loc 3 733 0
 2606 038e 97F8A730 		ldrb	r3, [r7, #167]
 2607 0392 43F00803 		orr	r3, r3, #8
 2608 0396 87F8A730 		strb	r3, [r7, #167]
 2609 039a 06E0     		b	.L141
 2610              	.L139:
 734:..\..\..\lvgl\version_6.1.2\lvgl\src\lv_objx/lv_table.c ****                         case LV_LABEL_ALIGN_CENTER: txt_flags |= LV_TXT_FLAG_CENTER; break;
 2611              		.loc 3 734 0
 2612 039c 97F8A730 		ldrb	r3, [r7, #167]
 2613 03a0 43F00403 		orr	r3, r3, #4
 2614 03a4 87F8A730 		strb	r3, [r7, #167]
 2615 03a8 00BF     		nop
 2616              	.L141:
 735:..\..\..\lvgl\version_6.1.2\lvgl\src\lv_objx/lv_table.c ****                     }
 736:..\..\..\lvgl\version_6.1.2\lvgl\src\lv_objx/lv_table.c **** 
 737:..\..\..\lvgl\version_6.1.2\lvgl\src\lv_objx/lv_table.c ****                     lv_area_t label_mask;
 738:..\..\..\lvgl\version_6.1.2\lvgl\src\lv_objx/lv_table.c ****                     bool label_mask_ok;
 739:..\..\..\lvgl\version_6.1.2\lvgl\src\lv_objx/lv_table.c ****                     label_mask_ok = lv_area_intersect(&label_mask, mask, &cell_area);
 2617              		.loc 3 739 0
 2618 03aa 07F18002 		add	r2, r7, #128
 2619 03ae 07F16C03 		add	r3, r7, #108
 2620 03b2 B968     		ldr	r1, [r7, #8]
 2621 03b4 1846     		mov	r0, r3
 2622 03b6 FFF7FEFF 		bl	lv_area_intersect
ARM GAS  C:\Users\tmj32\AppData\Local\Temp\ccIZw7Ef.s 			page 64


 2623 03ba 0346     		mov	r3, r0
 2624 03bc 87F88F30 		strb	r3, [r7, #143]
 740:..\..\..\lvgl\version_6.1.2\lvgl\src\lv_objx/lv_table.c ****                     if(label_mask_ok) {
 2625              		.loc 3 740 0
 2626 03c0 97F88F30 		ldrb	r3, [r7, #143]	@ zero_extendqisi2
 2627 03c4 002B     		cmp	r3, #0
 2628 03c6 22D0     		beq	.L142
 741:..\..\..\lvgl\version_6.1.2\lvgl\src\lv_objx/lv_table.c ****                         lv_draw_label(&txt_area, &label_mask, &cell_style, opa_scale, ext->cell_dat
 2629              		.loc 3 741 0
 2630 03c8 D7F89830 		ldr	r3, [r7, #152]
 2631 03cc 5A68     		ldr	r2, [r3, #4]
 2632 03ce B7F8A030 		ldrh	r3, [r7, #160]
 2633 03d2 9B00     		lsls	r3, r3, #2
 2634 03d4 1344     		add	r3, r3, r2
 2635 03d6 1B68     		ldr	r3, [r3]
 2636 03d8 5C1C     		adds	r4, r3, #1
 2637 03da F868     		ldr	r0, [r7, #12]
 2638 03dc FFF7FEFF 		bl	lv_obj_get_base_dir
 2639 03e0 0346     		mov	r3, r0
 2640 03e2 97F89350 		ldrb	r5, [r7, #147]	@ zero_extendqisi2
 2641 03e6 07F11402 		add	r2, r7, #20
 2642 03ea 07F16C01 		add	r1, r7, #108
 2643 03ee 07F17800 		add	r0, r7, #120
 2644 03f2 0593     		str	r3, [sp, #20]
 2645 03f4 0023     		movs	r3, #0
 2646 03f6 0493     		str	r3, [sp, #16]
 2647 03f8 0023     		movs	r3, #0
 2648 03fa 0393     		str	r3, [sp, #12]
 2649 03fc 0023     		movs	r3, #0
 2650 03fe 0293     		str	r3, [sp, #8]
 2651 0400 97F8A730 		ldrb	r3, [r7, #167]	@ zero_extendqisi2
 2652 0404 0193     		str	r3, [sp, #4]
 2653 0406 0094     		str	r4, [sp]
 2654 0408 2B46     		mov	r3, r5
 2655 040a FFF7FEFF 		bl	lv_draw_label
 2656              	.L142:
 742:..\..\..\lvgl\version_6.1.2\lvgl\src\lv_objx/lv_table.c ****                                       txt_flags, NULL, NULL, NULL, lv_obj_get_base_dir(table));
 743:..\..\..\lvgl\version_6.1.2\lvgl\src\lv_objx/lv_table.c ****                     }
 744:..\..\..\lvgl\version_6.1.2\lvgl\src\lv_objx/lv_table.c ****                     /*Draw lines after '\n's*/
 745:..\..\..\lvgl\version_6.1.2\lvgl\src\lv_objx/lv_table.c ****                     lv_point_t p1;
 746:..\..\..\lvgl\version_6.1.2\lvgl\src\lv_objx/lv_table.c ****                     lv_point_t p2;
 747:..\..\..\lvgl\version_6.1.2\lvgl\src\lv_objx/lv_table.c ****                     p1.x = cell_area.x1;
 2657              		.loc 3 747 0
 2658 040e B7F98030 		ldrsh	r3, [r7, #128]
 2659 0412 A7F86830 		strh	r3, [r7, #104]	@ movhi
 748:..\..\..\lvgl\version_6.1.2\lvgl\src\lv_objx/lv_table.c ****                     p2.x = cell_area.x2;
 2660              		.loc 3 748 0
 2661 0416 B7F98430 		ldrsh	r3, [r7, #132]
 2662 041a A7F86430 		strh	r3, [r7, #100]	@ movhi
 749:..\..\..\lvgl\version_6.1.2\lvgl\src\lv_objx/lv_table.c ****                     uint16_t i;
 750:..\..\..\lvgl\version_6.1.2\lvgl\src\lv_objx/lv_table.c ****                     for(i = 1; ext->cell_data[cell][i] != '\0'; i++) {
 2663              		.loc 3 750 0
 2664 041e 0123     		movs	r3, #1
 2665 0420 A7F89C30 		strh	r3, [r7, #156]	@ movhi
 2666 0424 82E0     		b	.L143
 2667              	.L145:
 751:..\..\..\lvgl\version_6.1.2\lvgl\src\lv_objx/lv_table.c ****                         if(ext->cell_data[cell][i] == '\n') {
ARM GAS  C:\Users\tmj32\AppData\Local\Temp\ccIZw7Ef.s 			page 65


 2668              		.loc 3 751 0
 2669 0426 D7F89830 		ldr	r3, [r7, #152]
 2670 042a 5A68     		ldr	r2, [r3, #4]
 2671 042c B7F8A030 		ldrh	r3, [r7, #160]
 2672 0430 9B00     		lsls	r3, r3, #2
 2673 0432 1344     		add	r3, r3, r2
 2674 0434 1A68     		ldr	r2, [r3]
 2675 0436 B7F89C30 		ldrh	r3, [r7, #156]
 2676 043a 1344     		add	r3, r3, r2
 2677 043c 1B78     		ldrb	r3, [r3]	@ zero_extendqisi2
 2678 043e 0A2B     		cmp	r3, #10
 2679 0440 6FD1     		bne	.L144
 752:..\..\..\lvgl\version_6.1.2\lvgl\src\lv_objx/lv_table.c ****                             ext->cell_data[cell][i] = '\0';
 2680              		.loc 3 752 0
 2681 0442 D7F89830 		ldr	r3, [r7, #152]
 2682 0446 5A68     		ldr	r2, [r3, #4]
 2683 0448 B7F8A030 		ldrh	r3, [r7, #160]
 2684 044c 9B00     		lsls	r3, r3, #2
 2685 044e 1344     		add	r3, r3, r2
 2686 0450 1A68     		ldr	r2, [r3]
 2687 0452 B7F89C30 		ldrh	r3, [r7, #156]
 2688 0456 1344     		add	r3, r3, r2
 2689 0458 0022     		movs	r2, #0
 2690 045a 1A70     		strb	r2, [r3]
 753:..\..\..\lvgl\version_6.1.2\lvgl\src\lv_objx/lv_table.c ****                             lv_txt_get_size(&txt_size, ext->cell_data[cell] + 1, cell_style.text.fo
 2691              		.loc 3 753 0
 2692 045c D7F89830 		ldr	r3, [r7, #152]
 2693 0460 5A68     		ldr	r2, [r3, #4]
 2694 0462 B7F8A030 		ldrh	r3, [r7, #160]
 2695 0466 9B00     		lsls	r3, r3, #2
 2696 0468 1344     		add	r3, r3, r2
 2697 046a 1B68     		ldr	r3, [r3]
 2698 046c 5D1C     		adds	r5, r3, #1
 2699 046e BE6C     		ldr	r6, [r7, #72]
 2700 0470 B7F94C80 		ldrsh	r8, [r7, #76]
 2701 0474 B7F94E40 		ldrsh	r4, [r7, #78]
 2702 0478 07F17803 		add	r3, r7, #120
 2703 047c 1846     		mov	r0, r3
 2704 047e FFF7FEFF 		bl	lv_area_get_width
 2705 0482 0346     		mov	r3, r0
 2706 0484 1A46     		mov	r2, r3
 2707 0486 07F18800 		add	r0, r7, #136
 2708 048a 97F8A730 		ldrb	r3, [r7, #167]	@ zero_extendqisi2
 2709 048e 0293     		str	r3, [sp, #8]
 2710 0490 0192     		str	r2, [sp, #4]
 2711 0492 0094     		str	r4, [sp]
 2712 0494 4346     		mov	r3, r8
 2713 0496 3246     		mov	r2, r6
 2714 0498 2946     		mov	r1, r5
 2715 049a FFF7FEFF 		bl	lv_txt_get_size
 754:..\..\..\lvgl\version_6.1.2\lvgl\src\lv_objx/lv_table.c ****                                             cell_style.text.letter_space, cell_style.text.line_spac
 755:..\..\..\lvgl\version_6.1.2\lvgl\src\lv_objx/lv_table.c ****                                             lv_area_get_width(&txt_area), txt_flags);
 756:..\..\..\lvgl\version_6.1.2\lvgl\src\lv_objx/lv_table.c **** 
 757:..\..\..\lvgl\version_6.1.2\lvgl\src\lv_objx/lv_table.c ****                             p1.y = txt_area.y1 + txt_size.y + cell_style.text.line_space / 2;
 2716              		.loc 3 757 0
 2717 049e B7F97A30 		ldrsh	r3, [r7, #122]
 2718 04a2 9AB2     		uxth	r2, r3
ARM GAS  C:\Users\tmj32\AppData\Local\Temp\ccIZw7Ef.s 			page 66


 2719 04a4 B7F98A30 		ldrsh	r3, [r7, #138]
 2720 04a8 9BB2     		uxth	r3, r3
 2721 04aa 1344     		add	r3, r3, r2
 2722 04ac 9AB2     		uxth	r2, r3
 2723 04ae B7F94E30 		ldrsh	r3, [r7, #78]
 2724 04b2 D90F     		lsrs	r1, r3, #31
 2725 04b4 0B44     		add	r3, r3, r1
 2726 04b6 5B10     		asrs	r3, r3, #1
 2727 04b8 1BB2     		sxth	r3, r3
 2728 04ba 9BB2     		uxth	r3, r3
 2729 04bc 1344     		add	r3, r3, r2
 2730 04be 9BB2     		uxth	r3, r3
 2731 04c0 1BB2     		sxth	r3, r3
 2732 04c2 A7F86A30 		strh	r3, [r7, #106]	@ movhi
 758:..\..\..\lvgl\version_6.1.2\lvgl\src\lv_objx/lv_table.c ****                             p2.y = txt_area.y1 + txt_size.y + cell_style.text.line_space / 2;
 2733              		.loc 3 758 0
 2734 04c6 B7F97A30 		ldrsh	r3, [r7, #122]
 2735 04ca 9AB2     		uxth	r2, r3
 2736 04cc B7F98A30 		ldrsh	r3, [r7, #138]
 2737 04d0 9BB2     		uxth	r3, r3
 2738 04d2 1344     		add	r3, r3, r2
 2739 04d4 9AB2     		uxth	r2, r3
 2740 04d6 B7F94E30 		ldrsh	r3, [r7, #78]
 2741 04da D90F     		lsrs	r1, r3, #31
 2742 04dc 0B44     		add	r3, r3, r1
 2743 04de 5B10     		asrs	r3, r3, #1
 2744 04e0 1BB2     		sxth	r3, r3
 2745 04e2 9BB2     		uxth	r3, r3
 2746 04e4 1344     		add	r3, r3, r2
 2747 04e6 9BB2     		uxth	r3, r3
 2748 04e8 1BB2     		sxth	r3, r3
 2749 04ea A7F86630 		strh	r3, [r7, #102]	@ movhi
 759:..\..\..\lvgl\version_6.1.2\lvgl\src\lv_objx/lv_table.c ****                             lv_draw_line(&p1, &p2, mask, &cell_style, opa_scale);
 2750              		.loc 3 759 0
 2751 04ee 07F11402 		add	r2, r7, #20
 2752 04f2 07F16401 		add	r1, r7, #100
 2753 04f6 07F16800 		add	r0, r7, #104
 2754 04fa 97F89330 		ldrb	r3, [r7, #147]	@ zero_extendqisi2
 2755 04fe 0093     		str	r3, [sp]
 2756 0500 1346     		mov	r3, r2
 2757 0502 BA68     		ldr	r2, [r7, #8]
 2758 0504 FFF7FEFF 		bl	lv_draw_line
 760:..\..\..\lvgl\version_6.1.2\lvgl\src\lv_objx/lv_table.c **** 
 761:..\..\..\lvgl\version_6.1.2\lvgl\src\lv_objx/lv_table.c ****                             ext->cell_data[cell][i] = '\n';
 2759              		.loc 3 761 0
 2760 0508 D7F89830 		ldr	r3, [r7, #152]
 2761 050c 5A68     		ldr	r2, [r3, #4]
 2762 050e B7F8A030 		ldrh	r3, [r7, #160]
 2763 0512 9B00     		lsls	r3, r3, #2
 2764 0514 1344     		add	r3, r3, r2
 2765 0516 1A68     		ldr	r2, [r3]
 2766 0518 B7F89C30 		ldrh	r3, [r7, #156]
 2767 051c 1344     		add	r3, r3, r2
 2768 051e 0A22     		movs	r2, #10
 2769 0520 1A70     		strb	r2, [r3]
 2770              	.L144:
 750:..\..\..\lvgl\version_6.1.2\lvgl\src\lv_objx/lv_table.c ****                         if(ext->cell_data[cell][i] == '\n') {
ARM GAS  C:\Users\tmj32\AppData\Local\Temp\ccIZw7Ef.s 			page 67


 2771              		.loc 3 750 0 discriminator 2
 2772 0522 B7F89C30 		ldrh	r3, [r7, #156]
 2773 0526 0133     		adds	r3, r3, #1
 2774 0528 A7F89C30 		strh	r3, [r7, #156]	@ movhi
 2775              	.L143:
 750:..\..\..\lvgl\version_6.1.2\lvgl\src\lv_objx/lv_table.c ****                         if(ext->cell_data[cell][i] == '\n') {
 2776              		.loc 3 750 0 is_stmt 0 discriminator 1
 2777 052c D7F89830 		ldr	r3, [r7, #152]
 2778 0530 5A68     		ldr	r2, [r3, #4]
 2779 0532 B7F8A030 		ldrh	r3, [r7, #160]
 2780 0536 9B00     		lsls	r3, r3, #2
 2781 0538 1344     		add	r3, r3, r2
 2782 053a 1A68     		ldr	r2, [r3]
 2783 053c B7F89C30 		ldrh	r3, [r7, #156]
 2784 0540 1344     		add	r3, r3, r2
 2785 0542 1B78     		ldrb	r3, [r3]	@ zero_extendqisi2
 2786 0544 002B     		cmp	r3, #0
 2787 0546 7FF46EAF 		bne	.L145
 2788              	.L134:
 2789              	.LBE12:
 762:..\..\..\lvgl\version_6.1.2\lvgl\src\lv_objx/lv_table.c ****                         }
 763:..\..\..\lvgl\version_6.1.2\lvgl\src\lv_objx/lv_table.c ****                     }
 764:..\..\..\lvgl\version_6.1.2\lvgl\src\lv_objx/lv_table.c ****                 }
 765:..\..\..\lvgl\version_6.1.2\lvgl\src\lv_objx/lv_table.c **** 
 766:..\..\..\lvgl\version_6.1.2\lvgl\src\lv_objx/lv_table.c ****                 cell += col_merge + 1;
 2790              		.loc 3 766 0 is_stmt 1 discriminator 2
 2791 054a B7F89E20 		ldrh	r2, [r7, #158]	@ movhi
 2792 054e B7F8A030 		ldrh	r3, [r7, #160]	@ movhi
 2793 0552 1344     		add	r3, r3, r2
 2794 0554 9BB2     		uxth	r3, r3
 2795 0556 0133     		adds	r3, r3, #1
 2796 0558 A7F8A030 		strh	r3, [r7, #160]	@ movhi
 767:..\..\..\lvgl\version_6.1.2\lvgl\src\lv_objx/lv_table.c ****                 col += col_merge;
 2797              		.loc 3 767 0 discriminator 2
 2798 055c B7F8A420 		ldrh	r2, [r7, #164]	@ movhi
 2799 0560 B7F89E30 		ldrh	r3, [r7, #158]	@ movhi
 2800 0564 1344     		add	r3, r3, r2
 2801 0566 A7F8A430 		strh	r3, [r7, #164]	@ movhi
 2802              	.LBE11:
 673:..\..\..\lvgl\version_6.1.2\lvgl\src\lv_objx/lv_table.c **** 
 2803              		.loc 3 673 0 discriminator 2
 2804 056a B7F8A430 		ldrh	r3, [r7, #164]
 2805 056e 0133     		adds	r3, r3, #1
 2806 0570 A7F8A430 		strh	r3, [r7, #164]	@ movhi
 2807              	.L125:
 673:..\..\..\lvgl\version_6.1.2\lvgl\src\lv_objx/lv_table.c **** 
 2808              		.loc 3 673 0 is_stmt 0 discriminator 1
 2809 0574 D7F89830 		ldr	r3, [r7, #152]
 2810 0578 1B88     		ldrh	r3, [r3]
 2811 057a B7F8A420 		ldrh	r2, [r7, #164]
 2812 057e 9A42     		cmp	r2, r3
 2813 0580 FFF4A9AD 		bcc	.L146
 665:..\..\..\lvgl\version_6.1.2\lvgl\src\lv_objx/lv_table.c ****             h_row = get_row_height(table, row);
 2814              		.loc 3 665 0 is_stmt 1 discriminator 2
 2815 0584 B7F8A230 		ldrh	r3, [r7, #162]
 2816 0588 0133     		adds	r3, r3, #1
 2817 058a A7F8A230 		strh	r3, [r7, #162]	@ movhi
ARM GAS  C:\Users\tmj32\AppData\Local\Temp\ccIZw7Ef.s 			page 68


 2818              	.L124:
 665:..\..\..\lvgl\version_6.1.2\lvgl\src\lv_objx/lv_table.c ****             h_row = get_row_height(table, row);
 2819              		.loc 3 665 0 is_stmt 0 discriminator 1
 2820 058e D7F89830 		ldr	r3, [r7, #152]
 2821 0592 5B88     		ldrh	r3, [r3, #2]
 2822 0594 B7F8A220 		ldrh	r2, [r7, #162]
 2823 0598 9A42     		cmp	r2, r3
 2824 059a FFF46DAD 		bcc	.L147
 2825              	.L123:
 2826              	.LBE10:
 768:..\..\..\lvgl\version_6.1.2\lvgl\src\lv_objx/lv_table.c ****             }
 769:..\..\..\lvgl\version_6.1.2\lvgl\src\lv_objx/lv_table.c ****         }
 770:..\..\..\lvgl\version_6.1.2\lvgl\src\lv_objx/lv_table.c ****     }
 771:..\..\..\lvgl\version_6.1.2\lvgl\src\lv_objx/lv_table.c ****     /*Post draw when the children are drawn*/
 772:..\..\..\lvgl\version_6.1.2\lvgl\src\lv_objx/lv_table.c ****     else if(mode == LV_DESIGN_DRAW_POST) {
 773:..\..\..\lvgl\version_6.1.2\lvgl\src\lv_objx/lv_table.c ****     }
 774:..\..\..\lvgl\version_6.1.2\lvgl\src\lv_objx/lv_table.c **** 
 775:..\..\..\lvgl\version_6.1.2\lvgl\src\lv_objx/lv_table.c ****     return true;
 2827              		.loc 3 775 0 is_stmt 1
 2828 059e 0123     		movs	r3, #1
 2829              	.L122:
 776:..\..\..\lvgl\version_6.1.2\lvgl\src\lv_objx/lv_table.c **** }
 2830              		.loc 3 776 0
 2831 05a0 1846     		mov	r0, r3
 2832 05a2 A837     		adds	r7, r7, #168
 2833              		.cfi_def_cfa_offset 24
 2834 05a4 BD46     		mov	sp, r7
 2835              		.cfi_def_cfa_register 13
 2836              		@ sp needed
 2837 05a6 BDE8F081 		pop	{r4, r5, r6, r7, r8, pc}
 2838              		.cfi_endproc
 2839              	.LFE52:
 2840              		.size	lv_table_design, .-lv_table_design
 2841 05aa 00BF     		.section	.rodata
 2842 0001 000000   		.align	2
 2843              	.LC1:
 2844 0004 6C765F74 		.ascii	"lv_table\000"
 2844      61626C65 
 2844      00
 2845              		.section	.text.lv_table_signal,"ax",%progbits
 2846              		.align	2
 2847              		.thumb
 2848              		.thumb_func
 2849              		.type	lv_table_signal, %function
 2850              	lv_table_signal:
 2851              	.LFB53:
 777:..\..\..\lvgl\version_6.1.2\lvgl\src\lv_objx/lv_table.c **** 
 778:..\..\..\lvgl\version_6.1.2\lvgl\src\lv_objx/lv_table.c **** /**
 779:..\..\..\lvgl\version_6.1.2\lvgl\src\lv_objx/lv_table.c ****  * Signal function of the table
 780:..\..\..\lvgl\version_6.1.2\lvgl\src\lv_objx/lv_table.c ****  * @param table pointer to a table object
 781:..\..\..\lvgl\version_6.1.2\lvgl\src\lv_objx/lv_table.c ****  * @param sign a signal type from lv_signal_t enum
 782:..\..\..\lvgl\version_6.1.2\lvgl\src\lv_objx/lv_table.c ****  * @param param pointer to a signal specific variable
 783:..\..\..\lvgl\version_6.1.2\lvgl\src\lv_objx/lv_table.c ****  * @return LV_RES_OK: the object is not deleted in the function; LV_RES_INV: the object is deleted
 784:..\..\..\lvgl\version_6.1.2\lvgl\src\lv_objx/lv_table.c ****  */
 785:..\..\..\lvgl\version_6.1.2\lvgl\src\lv_objx/lv_table.c **** static lv_res_t lv_table_signal(lv_obj_t * table, lv_signal_t sign, void * param)
 786:..\..\..\lvgl\version_6.1.2\lvgl\src\lv_objx/lv_table.c **** {
 2852              		.loc 3 786 0
ARM GAS  C:\Users\tmj32\AppData\Local\Temp\ccIZw7Ef.s 			page 69


 2853              		.cfi_startproc
 2854              		@ args = 0, pretend = 0, frame = 24
 2855              		@ frame_needed = 1, uses_anonymous_args = 0
 2856 0000 80B5     		push	{r7, lr}
 2857              		.cfi_def_cfa_offset 8
 2858              		.cfi_offset 7, -8
 2859              		.cfi_offset 14, -4
 2860 0002 86B0     		sub	sp, sp, #24
 2861              		.cfi_def_cfa_offset 32
 2862 0004 00AF     		add	r7, sp, #0
 2863              		.cfi_def_cfa_register 7
 2864 0006 F860     		str	r0, [r7, #12]
 2865 0008 0B46     		mov	r3, r1
 2866 000a 7A60     		str	r2, [r7, #4]
 2867 000c FB72     		strb	r3, [r7, #11]
 787:..\..\..\lvgl\version_6.1.2\lvgl\src\lv_objx/lv_table.c ****     lv_res_t res;
 788:..\..\..\lvgl\version_6.1.2\lvgl\src\lv_objx/lv_table.c **** 
 789:..\..\..\lvgl\version_6.1.2\lvgl\src\lv_objx/lv_table.c ****     /* Include the ancient signal function */
 790:..\..\..\lvgl\version_6.1.2\lvgl\src\lv_objx/lv_table.c ****     res = ancestor_signal(table, sign, param);
 2868              		.loc 3 790 0
 2869 000e 294B     		ldr	r3, .L160
 2870 0010 1B68     		ldr	r3, [r3]
 2871 0012 F97A     		ldrb	r1, [r7, #11]	@ zero_extendqisi2
 2872 0014 7A68     		ldr	r2, [r7, #4]
 2873 0016 F868     		ldr	r0, [r7, #12]
 2874 0018 9847     		blx	r3
 2875 001a 0346     		mov	r3, r0
 2876 001c 7B75     		strb	r3, [r7, #21]
 791:..\..\..\lvgl\version_6.1.2\lvgl\src\lv_objx/lv_table.c ****     if(res != LV_RES_OK) return res;
 2877              		.loc 3 791 0
 2878 001e 7B7D     		ldrb	r3, [r7, #21]	@ zero_extendqisi2
 2879 0020 012B     		cmp	r3, #1
 2880 0022 01D0     		beq	.L153
 2881              		.loc 3 791 0 is_stmt 0 discriminator 1
 2882 0024 7B7D     		ldrb	r3, [r7, #21]	@ zero_extendqisi2
 2883 0026 41E0     		b	.L154
 2884              	.L153:
 792:..\..\..\lvgl\version_6.1.2\lvgl\src\lv_objx/lv_table.c ****     if(sign == LV_SIGNAL_GET_TYPE) return lv_obj_handle_get_type_signal(param, LV_OBJX_NAME);
 2885              		.loc 3 792 0 is_stmt 1
 2886 0028 FB7A     		ldrb	r3, [r7, #11]	@ zero_extendqisi2
 2887 002a 072B     		cmp	r3, #7
 2888 002c 05D1     		bne	.L155
 2889              		.loc 3 792 0 is_stmt 0 discriminator 1
 2890 002e 2249     		ldr	r1, .L160+4
 2891 0030 7868     		ldr	r0, [r7, #4]
 2892 0032 FFF7FEFF 		bl	lv_obj_handle_get_type_signal
 2893 0036 0346     		mov	r3, r0
 2894 0038 38E0     		b	.L154
 2895              	.L155:
 793:..\..\..\lvgl\version_6.1.2\lvgl\src\lv_objx/lv_table.c **** 
 794:..\..\..\lvgl\version_6.1.2\lvgl\src\lv_objx/lv_table.c ****     if(sign == LV_SIGNAL_CLEANUP) {
 2896              		.loc 3 794 0 is_stmt 1
 2897 003a FB7A     		ldrb	r3, [r7, #11]	@ zero_extendqisi2
 2898 003c 002B     		cmp	r3, #0
 2899 003e 34D1     		bne	.L156
 2900              	.LBB13:
 795:..\..\..\lvgl\version_6.1.2\lvgl\src\lv_objx/lv_table.c ****         /*Free the cell texts*/
ARM GAS  C:\Users\tmj32\AppData\Local\Temp\ccIZw7Ef.s 			page 70


 796:..\..\..\lvgl\version_6.1.2\lvgl\src\lv_objx/lv_table.c ****         lv_table_ext_t * ext = lv_obj_get_ext_attr(table);
 2901              		.loc 3 796 0
 2902 0040 F868     		ldr	r0, [r7, #12]
 2903 0042 FFF7FEFF 		bl	lv_obj_get_ext_attr
 2904 0046 3861     		str	r0, [r7, #16]
 797:..\..\..\lvgl\version_6.1.2\lvgl\src\lv_objx/lv_table.c ****         uint16_t cell;
 798:..\..\..\lvgl\version_6.1.2\lvgl\src\lv_objx/lv_table.c ****         for(cell = 0; cell < ext->col_cnt * ext->row_cnt; cell++) {
 2905              		.loc 3 798 0
 2906 0048 0023     		movs	r3, #0
 2907 004a FB82     		strh	r3, [r7, #22]	@ movhi
 2908 004c 1AE0     		b	.L157
 2909              	.L159:
 799:..\..\..\lvgl\version_6.1.2\lvgl\src\lv_objx/lv_table.c ****             if(ext->cell_data[cell]) {
 2910              		.loc 3 799 0
 2911 004e 3B69     		ldr	r3, [r7, #16]
 2912 0050 5A68     		ldr	r2, [r3, #4]
 2913 0052 FB8A     		ldrh	r3, [r7, #22]
 2914 0054 9B00     		lsls	r3, r3, #2
 2915 0056 1344     		add	r3, r3, r2
 2916 0058 1B68     		ldr	r3, [r3]
 2917 005a 002B     		cmp	r3, #0
 2918 005c 0FD0     		beq	.L158
 800:..\..\..\lvgl\version_6.1.2\lvgl\src\lv_objx/lv_table.c ****                 lv_mem_free(ext->cell_data[cell]);
 2919              		.loc 3 800 0
 2920 005e 3B69     		ldr	r3, [r7, #16]
 2921 0060 5A68     		ldr	r2, [r3, #4]
 2922 0062 FB8A     		ldrh	r3, [r7, #22]
 2923 0064 9B00     		lsls	r3, r3, #2
 2924 0066 1344     		add	r3, r3, r2
 2925 0068 1B68     		ldr	r3, [r3]
 2926 006a 1846     		mov	r0, r3
 2927 006c FFF7FEFF 		bl	lv_mem_free
 801:..\..\..\lvgl\version_6.1.2\lvgl\src\lv_objx/lv_table.c ****                 ext->cell_data[cell] = NULL;
 2928              		.loc 3 801 0
 2929 0070 3B69     		ldr	r3, [r7, #16]
 2930 0072 5A68     		ldr	r2, [r3, #4]
 2931 0074 FB8A     		ldrh	r3, [r7, #22]
 2932 0076 9B00     		lsls	r3, r3, #2
 2933 0078 1344     		add	r3, r3, r2
 2934 007a 0022     		movs	r2, #0
 2935 007c 1A60     		str	r2, [r3]
 2936              	.L158:
 798:..\..\..\lvgl\version_6.1.2\lvgl\src\lv_objx/lv_table.c ****             if(ext->cell_data[cell]) {
 2937              		.loc 3 798 0 discriminator 2
 2938 007e FB8A     		ldrh	r3, [r7, #22]
 2939 0080 0133     		adds	r3, r3, #1
 2940 0082 FB82     		strh	r3, [r7, #22]	@ movhi
 2941              	.L157:
 798:..\..\..\lvgl\version_6.1.2\lvgl\src\lv_objx/lv_table.c ****             if(ext->cell_data[cell]) {
 2942              		.loc 3 798 0 is_stmt 0 discriminator 1
 2943 0084 FA8A     		ldrh	r2, [r7, #22]
 2944 0086 3B69     		ldr	r3, [r7, #16]
 2945 0088 1B88     		ldrh	r3, [r3]
 2946 008a 1946     		mov	r1, r3
 2947 008c 3B69     		ldr	r3, [r7, #16]
 2948 008e 5B88     		ldrh	r3, [r3, #2]
 2949 0090 03FB01F3 		mul	r3, r3, r1
ARM GAS  C:\Users\tmj32\AppData\Local\Temp\ccIZw7Ef.s 			page 71


 2950 0094 9A42     		cmp	r2, r3
 2951 0096 DADB     		blt	.L159
 802:..\..\..\lvgl\version_6.1.2\lvgl\src\lv_objx/lv_table.c ****             }
 803:..\..\..\lvgl\version_6.1.2\lvgl\src\lv_objx/lv_table.c ****         }
 804:..\..\..\lvgl\version_6.1.2\lvgl\src\lv_objx/lv_table.c ****         if(ext->cell_data != NULL)
 2952              		.loc 3 804 0 is_stmt 1
 2953 0098 3B69     		ldr	r3, [r7, #16]
 2954 009a 5B68     		ldr	r3, [r3, #4]
 2955 009c 002B     		cmp	r3, #0
 2956 009e 04D0     		beq	.L156
 805:..\..\..\lvgl\version_6.1.2\lvgl\src\lv_objx/lv_table.c ****             lv_mem_free(ext->cell_data);
 2957              		.loc 3 805 0
 2958 00a0 3B69     		ldr	r3, [r7, #16]
 2959 00a2 5B68     		ldr	r3, [r3, #4]
 2960 00a4 1846     		mov	r0, r3
 2961 00a6 FFF7FEFF 		bl	lv_mem_free
 2962              	.L156:
 2963              	.LBE13:
 806:..\..\..\lvgl\version_6.1.2\lvgl\src\lv_objx/lv_table.c ****     }
 807:..\..\..\lvgl\version_6.1.2\lvgl\src\lv_objx/lv_table.c **** 
 808:..\..\..\lvgl\version_6.1.2\lvgl\src\lv_objx/lv_table.c ****     return res;
 2964              		.loc 3 808 0
 2965 00aa 7B7D     		ldrb	r3, [r7, #21]	@ zero_extendqisi2
 2966              	.L154:
 809:..\..\..\lvgl\version_6.1.2\lvgl\src\lv_objx/lv_table.c **** }
 2967              		.loc 3 809 0
 2968 00ac 1846     		mov	r0, r3
 2969 00ae 1837     		adds	r7, r7, #24
 2970              		.cfi_def_cfa_offset 8
 2971 00b0 BD46     		mov	sp, r7
 2972              		.cfi_def_cfa_register 13
 2973              		@ sp needed
 2974 00b2 80BD     		pop	{r7, pc}
 2975              	.L161:
 2976              		.align	2
 2977              	.L160:
 2978 00b4 00000000 		.word	ancestor_signal
 2979 00b8 04000000 		.word	.LC1
 2980              		.cfi_endproc
 2981              	.LFE53:
 2982              		.size	lv_table_signal, .-lv_table_signal
 2983              		.section	.text.refr_size,"ax",%progbits
 2984              		.align	2
 2985              		.thumb
 2986              		.thumb_func
 2987              		.type	refr_size, %function
 2988              	refr_size:
 2989              	.LFB54:
 810:..\..\..\lvgl\version_6.1.2\lvgl\src\lv_objx/lv_table.c **** 
 811:..\..\..\lvgl\version_6.1.2\lvgl\src\lv_objx/lv_table.c **** static void refr_size(lv_obj_t * table)
 812:..\..\..\lvgl\version_6.1.2\lvgl\src\lv_objx/lv_table.c **** {
 2990              		.loc 3 812 0
 2991              		.cfi_startproc
 2992              		@ args = 0, pretend = 0, frame = 24
 2993              		@ frame_needed = 1, uses_anonymous_args = 0
 2994 0000 80B5     		push	{r7, lr}
 2995              		.cfi_def_cfa_offset 8
ARM GAS  C:\Users\tmj32\AppData\Local\Temp\ccIZw7Ef.s 			page 72


 2996              		.cfi_offset 7, -8
 2997              		.cfi_offset 14, -4
 2998 0002 86B0     		sub	sp, sp, #24
 2999              		.cfi_def_cfa_offset 32
 3000 0004 00AF     		add	r7, sp, #0
 3001              		.cfi_def_cfa_register 7
 3002 0006 7860     		str	r0, [r7, #4]
 813:..\..\..\lvgl\version_6.1.2\lvgl\src\lv_objx/lv_table.c ****     lv_coord_t h = 0;
 3003              		.loc 3 813 0
 3004 0008 0023     		movs	r3, #0
 3005 000a FB82     		strh	r3, [r7, #22]	@ movhi
 814:..\..\..\lvgl\version_6.1.2\lvgl\src\lv_objx/lv_table.c ****     lv_coord_t w = 0;
 3006              		.loc 3 814 0
 3007 000c 0023     		movs	r3, #0
 3008 000e BB82     		strh	r3, [r7, #20]	@ movhi
 815:..\..\..\lvgl\version_6.1.2\lvgl\src\lv_objx/lv_table.c **** 
 816:..\..\..\lvgl\version_6.1.2\lvgl\src\lv_objx/lv_table.c ****     lv_table_ext_t * ext = lv_obj_get_ext_attr(table);
 3009              		.loc 3 816 0
 3010 0010 7868     		ldr	r0, [r7, #4]
 3011 0012 FFF7FEFF 		bl	lv_obj_get_ext_attr
 3012 0016 F860     		str	r0, [r7, #12]
 817:..\..\..\lvgl\version_6.1.2\lvgl\src\lv_objx/lv_table.c **** 
 818:..\..\..\lvgl\version_6.1.2\lvgl\src\lv_objx/lv_table.c ****     uint16_t i;
 819:..\..\..\lvgl\version_6.1.2\lvgl\src\lv_objx/lv_table.c ****     for(i = 0; i < ext->col_cnt; i++) {
 3013              		.loc 3 819 0
 3014 0018 0023     		movs	r3, #0
 3015 001a 7B82     		strh	r3, [r7, #18]	@ movhi
 3016 001c 0CE0     		b	.L163
 3017              	.L164:
 820:..\..\..\lvgl\version_6.1.2\lvgl\src\lv_objx/lv_table.c ****         w += ext->col_w[i];
 3018              		.loc 3 820 0 discriminator 3
 3019 001e 7A8A     		ldrh	r2, [r7, #18]
 3020 0020 FB68     		ldr	r3, [r7, #12]
 3021 0022 0C32     		adds	r2, r2, #12
 3022 0024 33F91230 		ldrsh	r3, [r3, r2, lsl #1]
 3023 0028 9AB2     		uxth	r2, r3
 3024 002a BB8A     		ldrh	r3, [r7, #20]
 3025 002c 1344     		add	r3, r3, r2
 3026 002e 9BB2     		uxth	r3, r3
 3027 0030 BB82     		strh	r3, [r7, #20]	@ movhi
 819:..\..\..\lvgl\version_6.1.2\lvgl\src\lv_objx/lv_table.c ****         w += ext->col_w[i];
 3028              		.loc 3 819 0 discriminator 3
 3029 0032 7B8A     		ldrh	r3, [r7, #18]
 3030 0034 0133     		adds	r3, r3, #1
 3031 0036 7B82     		strh	r3, [r7, #18]	@ movhi
 3032              	.L163:
 819:..\..\..\lvgl\version_6.1.2\lvgl\src\lv_objx/lv_table.c ****         w += ext->col_w[i];
 3033              		.loc 3 819 0 is_stmt 0 discriminator 1
 3034 0038 FB68     		ldr	r3, [r7, #12]
 3035 003a 1B88     		ldrh	r3, [r3]
 3036 003c 7A8A     		ldrh	r2, [r7, #18]
 3037 003e 9A42     		cmp	r2, r3
 3038 0040 EDD3     		bcc	.L164
 821:..\..\..\lvgl\version_6.1.2\lvgl\src\lv_objx/lv_table.c ****     }
 822:..\..\..\lvgl\version_6.1.2\lvgl\src\lv_objx/lv_table.c ****     for(i = 0; i < ext->row_cnt; i++) {
 3039              		.loc 3 822 0 is_stmt 1
 3040 0042 0023     		movs	r3, #0
ARM GAS  C:\Users\tmj32\AppData\Local\Temp\ccIZw7Ef.s 			page 73


 3041 0044 7B82     		strh	r3, [r7, #18]	@ movhi
 3042 0046 0DE0     		b	.L165
 3043              	.L166:
 823:..\..\..\lvgl\version_6.1.2\lvgl\src\lv_objx/lv_table.c ****         h += get_row_height(table, i);
 3044              		.loc 3 823 0 discriminator 3
 3045 0048 7B8A     		ldrh	r3, [r7, #18]
 3046 004a 1946     		mov	r1, r3
 3047 004c 7868     		ldr	r0, [r7, #4]
 3048 004e FFF7FEFF 		bl	get_row_height
 3049 0052 0346     		mov	r3, r0
 3050 0054 9AB2     		uxth	r2, r3
 3051 0056 FB8A     		ldrh	r3, [r7, #22]
 3052 0058 1344     		add	r3, r3, r2
 3053 005a 9BB2     		uxth	r3, r3
 3054 005c FB82     		strh	r3, [r7, #22]	@ movhi
 822:..\..\..\lvgl\version_6.1.2\lvgl\src\lv_objx/lv_table.c ****         h += get_row_height(table, i);
 3055              		.loc 3 822 0 discriminator 3
 3056 005e 7B8A     		ldrh	r3, [r7, #18]
 3057 0060 0133     		adds	r3, r3, #1
 3058 0062 7B82     		strh	r3, [r7, #18]	@ movhi
 3059              	.L165:
 822:..\..\..\lvgl\version_6.1.2\lvgl\src\lv_objx/lv_table.c ****         h += get_row_height(table, i);
 3060              		.loc 3 822 0 is_stmt 0 discriminator 1
 3061 0064 FB68     		ldr	r3, [r7, #12]
 3062 0066 5B88     		ldrh	r3, [r3, #2]
 3063 0068 7A8A     		ldrh	r2, [r7, #18]
 3064 006a 9A42     		cmp	r2, r3
 3065 006c ECD3     		bcc	.L166
 824:..\..\..\lvgl\version_6.1.2\lvgl\src\lv_objx/lv_table.c ****     }
 825:..\..\..\lvgl\version_6.1.2\lvgl\src\lv_objx/lv_table.c **** 
 826:..\..\..\lvgl\version_6.1.2\lvgl\src\lv_objx/lv_table.c ****     const lv_style_t * bg_style = lv_obj_get_style(table);
 3066              		.loc 3 826 0 is_stmt 1
 3067 006e 7868     		ldr	r0, [r7, #4]
 3068 0070 FFF7FEFF 		bl	lv_obj_get_style
 3069 0074 B860     		str	r0, [r7, #8]
 827:..\..\..\lvgl\version_6.1.2\lvgl\src\lv_objx/lv_table.c **** 
 828:..\..\..\lvgl\version_6.1.2\lvgl\src\lv_objx/lv_table.c ****     w += bg_style->body.padding.left + bg_style->body.padding.right;
 3070              		.loc 3 828 0
 3071 0076 BB68     		ldr	r3, [r7, #8]
 3072 0078 B3F92430 		ldrsh	r3, [r3, #36]
 3073 007c 9AB2     		uxth	r2, r3
 3074 007e BB68     		ldr	r3, [r7, #8]
 3075 0080 B3F92630 		ldrsh	r3, [r3, #38]
 3076 0084 9BB2     		uxth	r3, r3
 3077 0086 1344     		add	r3, r3, r2
 3078 0088 9AB2     		uxth	r2, r3
 3079 008a BB8A     		ldrh	r3, [r7, #20]
 3080 008c 1344     		add	r3, r3, r2
 3081 008e 9BB2     		uxth	r3, r3
 3082 0090 BB82     		strh	r3, [r7, #20]	@ movhi
 829:..\..\..\lvgl\version_6.1.2\lvgl\src\lv_objx/lv_table.c ****     h += bg_style->body.padding.top + bg_style->body.padding.bottom;
 3083              		.loc 3 829 0
 3084 0092 BB68     		ldr	r3, [r7, #8]
 3085 0094 B3F92030 		ldrsh	r3, [r3, #32]
 3086 0098 9AB2     		uxth	r2, r3
 3087 009a BB68     		ldr	r3, [r7, #8]
 3088 009c B3F92230 		ldrsh	r3, [r3, #34]
ARM GAS  C:\Users\tmj32\AppData\Local\Temp\ccIZw7Ef.s 			page 74


 3089 00a0 9BB2     		uxth	r3, r3
 3090 00a2 1344     		add	r3, r3, r2
 3091 00a4 9AB2     		uxth	r2, r3
 3092 00a6 FB8A     		ldrh	r3, [r7, #22]
 3093 00a8 1344     		add	r3, r3, r2
 3094 00aa 9BB2     		uxth	r3, r3
 3095 00ac FB82     		strh	r3, [r7, #22]	@ movhi
 830:..\..\..\lvgl\version_6.1.2\lvgl\src\lv_objx/lv_table.c **** 
 831:..\..\..\lvgl\version_6.1.2\lvgl\src\lv_objx/lv_table.c ****     lv_obj_set_size(table, w + 1, h + 1);
 3096              		.loc 3 831 0
 3097 00ae BB8A     		ldrh	r3, [r7, #20]
 3098 00b0 0133     		adds	r3, r3, #1
 3099 00b2 9BB2     		uxth	r3, r3
 3100 00b4 19B2     		sxth	r1, r3
 3101 00b6 FB8A     		ldrh	r3, [r7, #22]
 3102 00b8 0133     		adds	r3, r3, #1
 3103 00ba 9BB2     		uxth	r3, r3
 3104 00bc 1BB2     		sxth	r3, r3
 3105 00be 1A46     		mov	r2, r3
 3106 00c0 7868     		ldr	r0, [r7, #4]
 3107 00c2 FFF7FEFF 		bl	lv_obj_set_size
 832:..\..\..\lvgl\version_6.1.2\lvgl\src\lv_objx/lv_table.c ****     lv_obj_invalidate(table);
 3108              		.loc 3 832 0
 3109 00c6 7868     		ldr	r0, [r7, #4]
 3110 00c8 FFF7FEFF 		bl	lv_obj_invalidate
 833:..\..\..\lvgl\version_6.1.2\lvgl\src\lv_objx/lv_table.c **** }
 3111              		.loc 3 833 0
 3112 00cc 00BF     		nop
 3113 00ce 1837     		adds	r7, r7, #24
 3114              		.cfi_def_cfa_offset 8
 3115 00d0 BD46     		mov	sp, r7
 3116              		.cfi_def_cfa_register 13
 3117              		@ sp needed
 3118 00d2 80BD     		pop	{r7, pc}
 3119              		.cfi_endproc
 3120              	.LFE54:
 3121              		.size	refr_size, .-refr_size
 3122              		.section	.text.get_row_height,"ax",%progbits
 3123              		.align	2
 3124              		.thumb
 3125              		.thumb_func
 3126              		.type	get_row_height, %function
 3127              	get_row_height:
 3128              	.LFB55:
 834:..\..\..\lvgl\version_6.1.2\lvgl\src\lv_objx/lv_table.c **** 
 835:..\..\..\lvgl\version_6.1.2\lvgl\src\lv_objx/lv_table.c **** static lv_coord_t get_row_height(lv_obj_t * table, uint16_t row_id)
 836:..\..\..\lvgl\version_6.1.2\lvgl\src\lv_objx/lv_table.c **** {
 3129              		.loc 3 836 0
 3130              		.cfi_startproc
 3131              		@ args = 0, pretend = 0, frame = 48
 3132              		@ frame_needed = 1, uses_anonymous_args = 0
 3133 0000 B0B5     		push	{r4, r5, r7, lr}
 3134              		.cfi_def_cfa_offset 16
 3135              		.cfi_offset 4, -16
 3136              		.cfi_offset 5, -12
 3137              		.cfi_offset 7, -8
 3138              		.cfi_offset 14, -4
ARM GAS  C:\Users\tmj32\AppData\Local\Temp\ccIZw7Ef.s 			page 75


 3139 0002 90B0     		sub	sp, sp, #64
 3140              		.cfi_def_cfa_offset 80
 3141 0004 04AF     		add	r7, sp, #16
 3142              		.cfi_def_cfa 7, 64
 3143 0006 7860     		str	r0, [r7, #4]
 3144 0008 0B46     		mov	r3, r1
 3145 000a 7B80     		strh	r3, [r7, #2]	@ movhi
 837:..\..\..\lvgl\version_6.1.2\lvgl\src\lv_objx/lv_table.c ****     lv_table_ext_t * ext = lv_obj_get_ext_attr(table);
 3146              		.loc 3 837 0
 3147 000c 7868     		ldr	r0, [r7, #4]
 3148 000e FFF7FEFF 		bl	lv_obj_get_ext_attr
 3149 0012 3862     		str	r0, [r7, #32]
 838:..\..\..\lvgl\version_6.1.2\lvgl\src\lv_objx/lv_table.c ****     lv_point_t txt_size;
 839:..\..\..\lvgl\version_6.1.2\lvgl\src\lv_objx/lv_table.c ****     lv_coord_t txt_w;
 840:..\..\..\lvgl\version_6.1.2\lvgl\src\lv_objx/lv_table.c ****     const lv_style_t * cell_style;
 841:..\..\..\lvgl\version_6.1.2\lvgl\src\lv_objx/lv_table.c **** 
 842:..\..\..\lvgl\version_6.1.2\lvgl\src\lv_objx/lv_table.c ****     uint16_t row_start = row_id * ext->col_cnt;
 3150              		.loc 3 842 0
 3151 0014 3B6A     		ldr	r3, [r7, #32]
 3152 0016 1B88     		ldrh	r3, [r3]
 3153 0018 7A88     		ldrh	r2, [r7, #2]	@ movhi
 3154 001a 12FB03F3 		smulbb	r3, r2, r3
 3155 001e FB83     		strh	r3, [r7, #30]	@ movhi
 843:..\..\..\lvgl\version_6.1.2\lvgl\src\lv_objx/lv_table.c ****     uint16_t cell;
 844:..\..\..\lvgl\version_6.1.2\lvgl\src\lv_objx/lv_table.c ****     uint16_t col;
 845:..\..\..\lvgl\version_6.1.2\lvgl\src\lv_objx/lv_table.c ****     lv_coord_t h_max = lv_font_get_line_height(ext->cell_style[0]->text.font) + ext->cell_style[0]-
 3156              		.loc 3 845 0
 3157 0020 3B6A     		ldr	r3, [r7, #32]
 3158 0022 9B68     		ldr	r3, [r3, #8]
 3159 0024 5B6B     		ldr	r3, [r3, #52]
 3160 0026 1846     		mov	r0, r3
 3161 0028 FFF7FEFF 		bl	lv_font_get_line_height
 3162 002c 0346     		mov	r3, r0
 3163 002e 9AB2     		uxth	r2, r3
 3164 0030 3B6A     		ldr	r3, [r7, #32]
 3165 0032 9B68     		ldr	r3, [r3, #8]
 3166 0034 B3F92030 		ldrsh	r3, [r3, #32]
 3167 0038 9BB2     		uxth	r3, r3
 3168 003a 1344     		add	r3, r3, r2
 3169 003c 9AB2     		uxth	r2, r3
 846:..\..\..\lvgl\version_6.1.2\lvgl\src\lv_objx/lv_table.c ****                        ext->cell_style[0]->body.padding.bottom;
 3170              		.loc 3 846 0
 3171 003e 3B6A     		ldr	r3, [r7, #32]
 3172 0040 9B68     		ldr	r3, [r3, #8]
 3173 0042 B3F92230 		ldrsh	r3, [r3, #34]
 845:..\..\..\lvgl\version_6.1.2\lvgl\src\lv_objx/lv_table.c ****                        ext->cell_style[0]->body.padding.bottom;
 3174              		.loc 3 845 0
 3175 0046 9BB2     		uxth	r3, r3
 3176 0048 1344     		add	r3, r3, r2
 3177 004a 9BB2     		uxth	r3, r3
 3178 004c 3B85     		strh	r3, [r7, #40]	@ movhi
 847:..\..\..\lvgl\version_6.1.2\lvgl\src\lv_objx/lv_table.c **** 
 848:..\..\..\lvgl\version_6.1.2\lvgl\src\lv_objx/lv_table.c ****     for(cell = row_start, col = 0; cell < row_start + ext->col_cnt; cell++, col++) {
 3179              		.loc 3 848 0
 3180 004e FB8B     		ldrh	r3, [r7, #30]	@ movhi
 3181 0050 BB85     		strh	r3, [r7, #44]	@ movhi
 3182 0052 0023     		movs	r3, #0
ARM GAS  C:\Users\tmj32\AppData\Local\Temp\ccIZw7Ef.s 			page 76


 3183 0054 7B85     		strh	r3, [r7, #42]	@ movhi
 3184 0056 D5E0     		b	.L168
 3185              	.L180:
 849:..\..\..\lvgl\version_6.1.2\lvgl\src\lv_objx/lv_table.c ****         if(ext->cell_data[cell] != NULL) {
 3186              		.loc 3 849 0
 3187 0058 3B6A     		ldr	r3, [r7, #32]
 3188 005a 5A68     		ldr	r2, [r3, #4]
 3189 005c BB8D     		ldrh	r3, [r7, #44]
 3190 005e 9B00     		lsls	r3, r3, #2
 3191 0060 1344     		add	r3, r3, r2
 3192 0062 1B68     		ldr	r3, [r3]
 3193 0064 002B     		cmp	r3, #0
 3194 0066 00F0C780 		beq	.L169
 3195              	.LBB14:
 850:..\..\..\lvgl\version_6.1.2\lvgl\src\lv_objx/lv_table.c **** 
 851:..\..\..\lvgl\version_6.1.2\lvgl\src\lv_objx/lv_table.c ****             txt_w              = ext->col_w[col];
 3196              		.loc 3 851 0
 3197 006a 7A8D     		ldrh	r2, [r7, #42]
 3198 006c 3B6A     		ldr	r3, [r7, #32]
 3199 006e 0C32     		adds	r2, r2, #12
 3200 0070 33F81230 		ldrh	r3, [r3, r2, lsl #1]	@ movhi
 3201 0074 FB85     		strh	r3, [r7, #46]	@ movhi
 852:..\..\..\lvgl\version_6.1.2\lvgl\src\lv_objx/lv_table.c ****             uint16_t col_merge = 0;
 3202              		.loc 3 852 0
 3203 0076 0023     		movs	r3, #0
 3204 0078 FB84     		strh	r3, [r7, #38]	@ movhi
 853:..\..\..\lvgl\version_6.1.2\lvgl\src\lv_objx/lv_table.c ****             for(col_merge = 0; col_merge + col < ext->col_cnt - 1; col_merge++) {
 3205              		.loc 3 853 0
 3206 007a 0023     		movs	r3, #0
 3207 007c FB84     		strh	r3, [r7, #38]	@ movhi
 3208 007e 29E0     		b	.L170
 3209              	.L175:
 854:..\..\..\lvgl\version_6.1.2\lvgl\src\lv_objx/lv_table.c **** 
 855:..\..\..\lvgl\version_6.1.2\lvgl\src\lv_objx/lv_table.c ****                 if(ext->cell_data[cell + col_merge] != NULL) {
 3210              		.loc 3 855 0
 3211 0080 3B6A     		ldr	r3, [r7, #32]
 3212 0082 5A68     		ldr	r2, [r3, #4]
 3213 0084 B98D     		ldrh	r1, [r7, #44]
 3214 0086 FB8C     		ldrh	r3, [r7, #38]
 3215 0088 0B44     		add	r3, r3, r1
 3216 008a 9B00     		lsls	r3, r3, #2
 3217 008c 1344     		add	r3, r3, r2
 3218 008e 1B68     		ldr	r3, [r3]
 3219 0090 002B     		cmp	r3, #0
 3220 0092 28D0     		beq	.L182
 3221              	.LBB15:
 856:..\..\..\lvgl\version_6.1.2\lvgl\src\lv_objx/lv_table.c ****                     lv_table_cell_format_t format;
 857:..\..\..\lvgl\version_6.1.2\lvgl\src\lv_objx/lv_table.c ****                     format.format_byte = ext->cell_data[cell + col_merge][0];
 3222              		.loc 3 857 0
 3223 0094 3B6A     		ldr	r3, [r7, #32]
 3224 0096 5A68     		ldr	r2, [r3, #4]
 3225 0098 B98D     		ldrh	r1, [r7, #44]
 3226 009a FB8C     		ldrh	r3, [r7, #38]
 3227 009c 0B44     		add	r3, r3, r1
 3228 009e 9B00     		lsls	r3, r3, #2
 3229 00a0 1344     		add	r3, r3, r2
 3230 00a2 1B68     		ldr	r3, [r3]
ARM GAS  C:\Users\tmj32\AppData\Local\Temp\ccIZw7Ef.s 			page 77


 3231 00a4 1B78     		ldrb	r3, [r3]	@ zero_extendqisi2
 3232 00a6 3B73     		strb	r3, [r7, #12]
 858:..\..\..\lvgl\version_6.1.2\lvgl\src\lv_objx/lv_table.c ****                     if(format.s.right_merge)
 3233              		.loc 3 858 0
 3234 00a8 3B7B     		ldrb	r3, [r7, #12]	@ zero_extendqisi2
 3235 00aa 03F00403 		and	r3, r3, #4
 3236 00ae DBB2     		uxtb	r3, r3
 3237 00b0 002B     		cmp	r3, #0
 3238 00b2 1AD0     		beq	.L183
 859:..\..\..\lvgl\version_6.1.2\lvgl\src\lv_objx/lv_table.c ****                         txt_w += ext->col_w[col + col_merge + 1];
 3239              		.loc 3 859 0
 3240 00b4 7A8D     		ldrh	r2, [r7, #42]
 3241 00b6 FB8C     		ldrh	r3, [r7, #38]
 3242 00b8 1344     		add	r3, r3, r2
 3243 00ba 5A1C     		adds	r2, r3, #1
 3244 00bc 3B6A     		ldr	r3, [r7, #32]
 3245 00be 0C32     		adds	r2, r2, #12
 3246 00c0 33F91230 		ldrsh	r3, [r3, r2, lsl #1]
 3247 00c4 9AB2     		uxth	r2, r3
 3248 00c6 FB8D     		ldrh	r3, [r7, #46]
 3249 00c8 1344     		add	r3, r3, r2
 3250 00ca 9BB2     		uxth	r3, r3
 3251 00cc FB85     		strh	r3, [r7, #46]	@ movhi
 3252              	.LBE15:
 853:..\..\..\lvgl\version_6.1.2\lvgl\src\lv_objx/lv_table.c **** 
 3253              		.loc 3 853 0
 3254 00ce FB8C     		ldrh	r3, [r7, #38]
 3255 00d0 0133     		adds	r3, r3, #1
 3256 00d2 FB84     		strh	r3, [r7, #38]	@ movhi
 3257              	.L170:
 853:..\..\..\lvgl\version_6.1.2\lvgl\src\lv_objx/lv_table.c **** 
 3258              		.loc 3 853 0 is_stmt 0 discriminator 1
 3259 00d4 FA8C     		ldrh	r2, [r7, #38]
 3260 00d6 7B8D     		ldrh	r3, [r7, #42]
 3261 00d8 1A44     		add	r2, r2, r3
 3262 00da 3B6A     		ldr	r3, [r7, #32]
 3263 00dc 1B88     		ldrh	r3, [r3]
 3264 00de 013B     		subs	r3, r3, #1
 3265 00e0 9A42     		cmp	r2, r3
 3266 00e2 CDDB     		blt	.L175
 3267 00e4 02E0     		b	.L174
 3268              	.L182:
 860:..\..\..\lvgl\version_6.1.2\lvgl\src\lv_objx/lv_table.c ****                     else
 861:..\..\..\lvgl\version_6.1.2\lvgl\src\lv_objx/lv_table.c ****                         break;
 862:..\..\..\lvgl\version_6.1.2\lvgl\src\lv_objx/lv_table.c ****                 } else {
 863:..\..\..\lvgl\version_6.1.2\lvgl\src\lv_objx/lv_table.c ****                     break;
 3269              		.loc 3 863 0 is_stmt 1
 3270 00e6 00BF     		nop
 3271 00e8 00E0     		b	.L174
 3272              	.L183:
 3273              	.LBB16:
 861:..\..\..\lvgl\version_6.1.2\lvgl\src\lv_objx/lv_table.c ****                 } else {
 3274              		.loc 3 861 0
 3275 00ea 00BF     		nop
 3276              	.L174:
 3277              	.LBE16:
 864:..\..\..\lvgl\version_6.1.2\lvgl\src\lv_objx/lv_table.c ****                 }
ARM GAS  C:\Users\tmj32\AppData\Local\Temp\ccIZw7Ef.s 			page 78


 865:..\..\..\lvgl\version_6.1.2\lvgl\src\lv_objx/lv_table.c ****             }
 866:..\..\..\lvgl\version_6.1.2\lvgl\src\lv_objx/lv_table.c **** 
 867:..\..\..\lvgl\version_6.1.2\lvgl\src\lv_objx/lv_table.c ****             lv_table_cell_format_t format;
 868:..\..\..\lvgl\version_6.1.2\lvgl\src\lv_objx/lv_table.c ****             format.format_byte = ext->cell_data[cell][0];
 3278              		.loc 3 868 0
 3279 00ec 3B6A     		ldr	r3, [r7, #32]
 3280 00ee 5A68     		ldr	r2, [r3, #4]
 3281 00f0 BB8D     		ldrh	r3, [r7, #44]
 3282 00f2 9B00     		lsls	r3, r3, #2
 3283 00f4 1344     		add	r3, r3, r2
 3284 00f6 1B68     		ldr	r3, [r3]
 3285 00f8 1B78     		ldrb	r3, [r3]	@ zero_extendqisi2
 3286 00fa 3B74     		strb	r3, [r7, #16]
 869:..\..\..\lvgl\version_6.1.2\lvgl\src\lv_objx/lv_table.c ****             cell_style         = ext->cell_style[format.s.type];
 3287              		.loc 3 869 0
 3288 00fc 3B7C     		ldrb	r3, [r7, #16]
 3289 00fe C3F3C103 		ubfx	r3, r3, #3, #2
 3290 0102 DBB2     		uxtb	r3, r3
 3291 0104 1A46     		mov	r2, r3
 3292 0106 3B6A     		ldr	r3, [r7, #32]
 3293 0108 0232     		adds	r2, r2, #2
 3294 010a 53F82230 		ldr	r3, [r3, r2, lsl #2]
 3295 010e BB61     		str	r3, [r7, #24]
 870:..\..\..\lvgl\version_6.1.2\lvgl\src\lv_objx/lv_table.c **** 
 871:..\..\..\lvgl\version_6.1.2\lvgl\src\lv_objx/lv_table.c ****             /*With text crop assume 1 line*/
 872:..\..\..\lvgl\version_6.1.2\lvgl\src\lv_objx/lv_table.c ****             if(format.s.crop) {
 3296              		.loc 3 872 0
 3297 0110 3B7C     		ldrb	r3, [r7, #16]	@ zero_extendqisi2
 3298 0112 03F02003 		and	r3, r3, #32
 3299 0116 DBB2     		uxtb	r3, r3
 3300 0118 002B     		cmp	r3, #0
 3301 011a 2BD0     		beq	.L176
 873:..\..\..\lvgl\version_6.1.2\lvgl\src\lv_objx/lv_table.c ****                 h_max = LV_MATH_MAX(lv_font_get_line_height(cell_style->text.font) + cell_style->bo
 3302              		.loc 3 873 0
 3303 011c BB69     		ldr	r3, [r7, #24]
 3304 011e 5B6B     		ldr	r3, [r3, #52]
 3305 0120 1846     		mov	r0, r3
 3306 0122 FFF7FEFF 		bl	lv_font_get_line_height
 3307 0126 0346     		mov	r3, r0
 3308 0128 1A46     		mov	r2, r3
 3309 012a BB69     		ldr	r3, [r7, #24]
 3310 012c B3F92030 		ldrsh	r3, [r3, #32]
 3311 0130 1344     		add	r3, r3, r2
 3312 0132 BA69     		ldr	r2, [r7, #24]
 3313 0134 B2F92220 		ldrsh	r2, [r2, #34]
 3314 0138 1A44     		add	r2, r2, r3
 3315 013a B7F92830 		ldrsh	r3, [r7, #40]
 3316 013e 9A42     		cmp	r2, r3
 3317 0140 14DD     		ble	.L177
 3318              		.loc 3 873 0 is_stmt 0 discriminator 1
 3319 0142 BB69     		ldr	r3, [r7, #24]
 3320 0144 5B6B     		ldr	r3, [r3, #52]
 3321 0146 1846     		mov	r0, r3
 3322 0148 FFF7FEFF 		bl	lv_font_get_line_height
 3323 014c 0346     		mov	r3, r0
 3324 014e 9AB2     		uxth	r2, r3
 3325 0150 BB69     		ldr	r3, [r7, #24]
ARM GAS  C:\Users\tmj32\AppData\Local\Temp\ccIZw7Ef.s 			page 79


 3326 0152 B3F92030 		ldrsh	r3, [r3, #32]
 3327 0156 9BB2     		uxth	r3, r3
 3328 0158 1344     		add	r3, r3, r2
 3329 015a 9AB2     		uxth	r2, r3
 3330 015c BB69     		ldr	r3, [r7, #24]
 3331 015e B3F92230 		ldrsh	r3, [r3, #34]
 3332 0162 9BB2     		uxth	r3, r3
 3333 0164 1344     		add	r3, r3, r2
 3334 0166 9BB2     		uxth	r3, r3
 3335 0168 1BB2     		sxth	r3, r3
 3336 016a 01E0     		b	.L178
 3337              	.L177:
 3338              		.loc 3 873 0 discriminator 2
 3339 016c B7F92830 		ldrsh	r3, [r7, #40]
 3340              	.L178:
 3341              		.loc 3 873 0 discriminator 4
 3342 0170 3B85     		strh	r3, [r7, #40]	@ movhi
 3343 0172 41E0     		b	.L169
 3344              	.L176:
 874:..\..\..\lvgl\version_6.1.2\lvgl\src\lv_objx/lv_table.c ****                                         cell_style->body.padding.bottom,
 875:..\..\..\lvgl\version_6.1.2\lvgl\src\lv_objx/lv_table.c ****                                     h_max);
 876:..\..\..\lvgl\version_6.1.2\lvgl\src\lv_objx/lv_table.c ****             }
 877:..\..\..\lvgl\version_6.1.2\lvgl\src\lv_objx/lv_table.c ****             /*Without text crop calculate the height of the text in the cell*/
 878:..\..\..\lvgl\version_6.1.2\lvgl\src\lv_objx/lv_table.c ****             else {
 879:..\..\..\lvgl\version_6.1.2\lvgl\src\lv_objx/lv_table.c ****                 txt_w -= cell_style->body.padding.left + cell_style->body.padding.right;
 3345              		.loc 3 879 0 is_stmt 1
 3346 0174 FA8D     		ldrh	r2, [r7, #46]
 3347 0176 BB69     		ldr	r3, [r7, #24]
 3348 0178 B3F92430 		ldrsh	r3, [r3, #36]
 3349 017c 99B2     		uxth	r1, r3
 3350 017e BB69     		ldr	r3, [r7, #24]
 3351 0180 B3F92630 		ldrsh	r3, [r3, #38]
 3352 0184 9BB2     		uxth	r3, r3
 3353 0186 0B44     		add	r3, r3, r1
 3354 0188 9BB2     		uxth	r3, r3
 3355 018a D31A     		subs	r3, r2, r3
 3356 018c 9BB2     		uxth	r3, r3
 3357 018e FB85     		strh	r3, [r7, #46]	@ movhi
 880:..\..\..\lvgl\version_6.1.2\lvgl\src\lv_objx/lv_table.c **** 
 881:..\..\..\lvgl\version_6.1.2\lvgl\src\lv_objx/lv_table.c ****                 lv_txt_get_size(&txt_size, ext->cell_data[cell] + 1, cell_style->text.font,
 3358              		.loc 3 881 0
 3359 0190 3B6A     		ldr	r3, [r7, #32]
 3360 0192 5A68     		ldr	r2, [r3, #4]
 3361 0194 BB8D     		ldrh	r3, [r7, #44]
 3362 0196 9B00     		lsls	r3, r3, #2
 3363 0198 1344     		add	r3, r3, r2
 3364 019a 1B68     		ldr	r3, [r3]
 3365 019c 591C     		adds	r1, r3, #1
 3366 019e BB69     		ldr	r3, [r7, #24]
 3367 01a0 5C6B     		ldr	r4, [r3, #52]
 3368 01a2 BB69     		ldr	r3, [r7, #24]
 3369 01a4 B3F93850 		ldrsh	r5, [r3, #56]
 3370 01a8 BB69     		ldr	r3, [r7, #24]
 3371 01aa B3F93A30 		ldrsh	r3, [r3, #58]
 3372 01ae 07F11400 		add	r0, r7, #20
 3373 01b2 0022     		movs	r2, #0
 3374 01b4 0292     		str	r2, [sp, #8]
ARM GAS  C:\Users\tmj32\AppData\Local\Temp\ccIZw7Ef.s 			page 80


 3375 01b6 B7F92E20 		ldrsh	r2, [r7, #46]
 3376 01ba 0192     		str	r2, [sp, #4]
 3377 01bc 0093     		str	r3, [sp]
 3378 01be 2B46     		mov	r3, r5
 3379 01c0 2246     		mov	r2, r4
 3380 01c2 FFF7FEFF 		bl	lv_txt_get_size
 882:..\..\..\lvgl\version_6.1.2\lvgl\src\lv_objx/lv_table.c ****                                 cell_style->text.letter_space, cell_style->text.line_space, txt_w, 
 883:..\..\..\lvgl\version_6.1.2\lvgl\src\lv_objx/lv_table.c **** 
 884:..\..\..\lvgl\version_6.1.2\lvgl\src\lv_objx/lv_table.c ****                 h_max = LV_MATH_MAX(txt_size.y + cell_style->body.padding.top + cell_style->body.pa
 3381              		.loc 3 884 0
 3382 01c6 B7F92820 		ldrsh	r2, [r7, #40]
 3383 01ca B7F91630 		ldrsh	r3, [r7, #22]
 3384 01ce 1946     		mov	r1, r3
 3385 01d0 BB69     		ldr	r3, [r7, #24]
 3386 01d2 B3F92030 		ldrsh	r3, [r3, #32]
 3387 01d6 0B44     		add	r3, r3, r1
 3388 01d8 B969     		ldr	r1, [r7, #24]
 3389 01da B1F92210 		ldrsh	r1, [r1, #34]
 3390 01de 0B44     		add	r3, r3, r1
 3391 01e0 9342     		cmp	r3, r2
 3392 01e2 B8BF     		it	lt
 3393 01e4 1346     		movlt	r3, r2
 3394 01e6 3B85     		strh	r3, [r7, #40]	@ movhi
 885:..\..\..\lvgl\version_6.1.2\lvgl\src\lv_objx/lv_table.c ****                 cell += col_merge;
 3395              		.loc 3 885 0
 3396 01e8 BA8D     		ldrh	r2, [r7, #44]	@ movhi
 3397 01ea FB8C     		ldrh	r3, [r7, #38]	@ movhi
 3398 01ec 1344     		add	r3, r3, r2
 3399 01ee BB85     		strh	r3, [r7, #44]	@ movhi
 886:..\..\..\lvgl\version_6.1.2\lvgl\src\lv_objx/lv_table.c ****                 col += col_merge;
 3400              		.loc 3 886 0
 3401 01f0 7A8D     		ldrh	r2, [r7, #42]	@ movhi
 3402 01f2 FB8C     		ldrh	r3, [r7, #38]	@ movhi
 3403 01f4 1344     		add	r3, r3, r2
 3404 01f6 7B85     		strh	r3, [r7, #42]	@ movhi
 3405              	.L169:
 3406              	.LBE14:
 848:..\..\..\lvgl\version_6.1.2\lvgl\src\lv_objx/lv_table.c ****         if(ext->cell_data[cell] != NULL) {
 3407              		.loc 3 848 0 discriminator 2
 3408 01f8 BB8D     		ldrh	r3, [r7, #44]
 3409 01fa 0133     		adds	r3, r3, #1
 3410 01fc BB85     		strh	r3, [r7, #44]	@ movhi
 3411 01fe 7B8D     		ldrh	r3, [r7, #42]
 3412 0200 0133     		adds	r3, r3, #1
 3413 0202 7B85     		strh	r3, [r7, #42]	@ movhi
 3414              	.L168:
 848:..\..\..\lvgl\version_6.1.2\lvgl\src\lv_objx/lv_table.c ****         if(ext->cell_data[cell] != NULL) {
 3415              		.loc 3 848 0 is_stmt 0 discriminator 1
 3416 0204 BA8D     		ldrh	r2, [r7, #44]
 3417 0206 FB8B     		ldrh	r3, [r7, #30]
 3418 0208 396A     		ldr	r1, [r7, #32]
 3419 020a 0988     		ldrh	r1, [r1]
 3420 020c 0B44     		add	r3, r3, r1
 3421 020e 9A42     		cmp	r2, r3
 3422 0210 FFF622AF 		blt	.L180
 887:..\..\..\lvgl\version_6.1.2\lvgl\src\lv_objx/lv_table.c ****             }
 888:..\..\..\lvgl\version_6.1.2\lvgl\src\lv_objx/lv_table.c ****         }
ARM GAS  C:\Users\tmj32\AppData\Local\Temp\ccIZw7Ef.s 			page 81


 889:..\..\..\lvgl\version_6.1.2\lvgl\src\lv_objx/lv_table.c ****     }
 890:..\..\..\lvgl\version_6.1.2\lvgl\src\lv_objx/lv_table.c **** 
 891:..\..\..\lvgl\version_6.1.2\lvgl\src\lv_objx/lv_table.c ****     return h_max;
 3423              		.loc 3 891 0 is_stmt 1
 3424 0214 B7F92830 		ldrsh	r3, [r7, #40]
 892:..\..\..\lvgl\version_6.1.2\lvgl\src\lv_objx/lv_table.c **** }
 3425              		.loc 3 892 0
 3426 0218 1846     		mov	r0, r3
 3427 021a 3037     		adds	r7, r7, #48
 3428              		.cfi_def_cfa_offset 16
 3429 021c BD46     		mov	sp, r7
 3430              		.cfi_def_cfa_register 13
 3431              		@ sp needed
 3432 021e B0BD     		pop	{r4, r5, r7, pc}
 3433              		.cfi_endproc
 3434              	.LFE55:
 3435              		.size	get_row_height, .-get_row_height
 3436              		.text
 3437              	.Letext0:
 3438              		.file 4 "c:\\program files (x86)\\cypress\\psoc creator\\4.3\\psoc creator\\import\\gnu\\arm\\5.4.
 3439              		.file 5 "c:\\program files (x86)\\cypress\\psoc creator\\4.3\\psoc creator\\import\\gnu\\arm\\5.4.
 3440              		.file 6 "..\\..\\..\\lvgl\\version_6.1.2\\lvgl\\src\\lv_objx\\../../../lv_conf.h"
 3441              		.file 7 "..\\..\\..\\lvgl\\version_6.1.2\\lvgl\\src\\lv_objx\\../lv_core/../lv_misc/lv_color.h"
 3442              		.file 8 "..\\..\\..\\lvgl\\version_6.1.2\\lvgl\\src\\lv_objx\\../lv_core/lv_style.h"
 3443              		.file 9 "..\\..\\..\\lvgl\\version_6.1.2\\lvgl\\src\\lv_objx\\../lv_core/../lv_misc/lv_types.h"
 3444              		.file 10 "..\\..\\..\\lvgl\\version_6.1.2\\lvgl\\src\\lv_objx\\../lv_core/../lv_misc/lv_ll.h"
 3445              		.file 11 "..\\..\\..\\lvgl\\version_6.1.2\\lvgl\\src\\lv_objx\\../lv_core/../lv_misc/lv_bidi.h"
 3446              		.file 12 "..\\..\\..\\lvgl\\version_6.1.2\\lvgl\\src\\lv_objx\\../lv_core/lv_obj.h"
 3447              		.file 13 "..\\..\\..\\lvgl\\version_6.1.2\\lvgl\\src\\lv_objx\\../lv_misc/lv_txt.h"
 3448              		.file 14 "..\\..\\..\\lvgl\\version_6.1.2\\lvgl\\src\\lv_objx\\lv_label.h"
 3449              		.file 15 "..\\..\\..\\lvgl\\version_6.1.2\\lvgl\\src\\lv_objx\\lv_table.h"
 3450              		.file 16 "..\\..\\..\\lvgl\\version_6.1.2\\lvgl\\src\\lv_objx\\../lv_themes/lv_theme.h"
 3451              		.section	.debug_info,"",%progbits
 3452              	.Ldebug_info0:
 3453 0000 181E0000 		.4byte	0x1e18
 3454 0004 0400     		.2byte	0x4
 3455 0006 00000000 		.4byte	.Ldebug_abbrev0
 3456 000a 04       		.byte	0x4
 3457 000b 01       		.uleb128 0x1
 3458 000c 2D0A0000 		.4byte	.LASF273
 3459 0010 0C       		.byte	0xc
 3460 0011 180B0000 		.4byte	.LASF274
 3461 0015 AD060000 		.4byte	.LASF275
 3462 0019 18000000 		.4byte	.Ldebug_ranges0+0x18
 3463 001d 00000000 		.4byte	0
 3464 0021 00000000 		.4byte	.Ldebug_line0
 3465 0025 02       		.uleb128 0x2
 3466 0026 9C090000 		.4byte	.LASF0
 3467 002a 04       		.byte	0x4
 3468 002b 1B       		.byte	0x1b
 3469 002c 30000000 		.4byte	0x30
 3470 0030 03       		.uleb128 0x3
 3471 0031 01       		.byte	0x1
 3472 0032 06       		.byte	0x6
 3473 0033 88020000 		.4byte	.LASF2
 3474 0037 02       		.uleb128 0x2
 3475 0038 C8010000 		.4byte	.LASF1
ARM GAS  C:\Users\tmj32\AppData\Local\Temp\ccIZw7Ef.s 			page 82


 3476 003c 04       		.byte	0x4
 3477 003d 1D       		.byte	0x1d
 3478 003e 42000000 		.4byte	0x42
 3479 0042 03       		.uleb128 0x3
 3480 0043 01       		.byte	0x1
 3481 0044 08       		.byte	0x8
 3482 0045 30030000 		.4byte	.LASF3
 3483 0049 02       		.uleb128 0x2
 3484 004a F20A0000 		.4byte	.LASF4
 3485 004e 04       		.byte	0x4
 3486 004f 29       		.byte	0x29
 3487 0050 54000000 		.4byte	0x54
 3488 0054 03       		.uleb128 0x3
 3489 0055 02       		.byte	0x2
 3490 0056 05       		.byte	0x5
 3491 0057 B30B0000 		.4byte	.LASF5
 3492 005b 02       		.uleb128 0x2
 3493 005c 18040000 		.4byte	.LASF6
 3494 0060 04       		.byte	0x4
 3495 0061 2B       		.byte	0x2b
 3496 0062 66000000 		.4byte	0x66
 3497 0066 03       		.uleb128 0x3
 3498 0067 02       		.byte	0x2
 3499 0068 07       		.byte	0x7
 3500 0069 190D0000 		.4byte	.LASF7
 3501 006d 03       		.uleb128 0x3
 3502 006e 04       		.byte	0x4
 3503 006f 05       		.byte	0x5
 3504 0070 DF010000 		.4byte	.LASF8
 3505 0074 02       		.uleb128 0x2
 3506 0075 7D060000 		.4byte	.LASF9
 3507 0079 04       		.byte	0x4
 3508 007a 41       		.byte	0x41
 3509 007b 7F000000 		.4byte	0x7f
 3510 007f 03       		.uleb128 0x3
 3511 0080 04       		.byte	0x4
 3512 0081 07       		.byte	0x7
 3513 0082 84050000 		.4byte	.LASF10
 3514 0086 03       		.uleb128 0x3
 3515 0087 08       		.byte	0x8
 3516 0088 05       		.byte	0x5
 3517 0089 9F060000 		.4byte	.LASF11
 3518 008d 03       		.uleb128 0x3
 3519 008e 08       		.byte	0x8
 3520 008f 07       		.byte	0x7
 3521 0090 B1090000 		.4byte	.LASF12
 3522 0094 04       		.uleb128 0x4
 3523 0095 04       		.byte	0x4
 3524 0096 05       		.byte	0x5
 3525 0097 696E7400 		.ascii	"int\000"
 3526 009b 03       		.uleb128 0x3
 3527 009c 04       		.byte	0x4
 3528 009d 07       		.byte	0x7
 3529 009e F0070000 		.4byte	.LASF13
 3530 00a2 02       		.uleb128 0x2
 3531 00a3 00000000 		.4byte	.LASF14
 3532 00a7 05       		.byte	0x5
ARM GAS  C:\Users\tmj32\AppData\Local\Temp\ccIZw7Ef.s 			page 83


 3533 00a8 14       		.byte	0x14
 3534 00a9 25000000 		.4byte	0x25
 3535 00ad 02       		.uleb128 0x2
 3536 00ae A4020000 		.4byte	.LASF15
 3537 00b2 05       		.byte	0x5
 3538 00b3 18       		.byte	0x18
 3539 00b4 37000000 		.4byte	0x37
 3540 00b8 02       		.uleb128 0x2
 3541 00b9 FE0B0000 		.4byte	.LASF16
 3542 00bd 05       		.byte	0x5
 3543 00be 20       		.byte	0x20
 3544 00bf 49000000 		.4byte	0x49
 3545 00c3 02       		.uleb128 0x2
 3546 00c4 C8090000 		.4byte	.LASF17
 3547 00c8 05       		.byte	0x5
 3548 00c9 24       		.byte	0x24
 3549 00ca 5B000000 		.4byte	0x5b
 3550 00ce 02       		.uleb128 0x2
 3551 00cf CB0C0000 		.4byte	.LASF18
 3552 00d3 05       		.byte	0x5
 3553 00d4 30       		.byte	0x30
 3554 00d5 74000000 		.4byte	0x74
 3555 00d9 02       		.uleb128 0x2
 3556 00da 380D0000 		.4byte	.LASF19
 3557 00de 06       		.byte	0x6
 3558 00df 3C       		.byte	0x3c
 3559 00e0 B8000000 		.4byte	0xb8
 3560 00e4 05       		.uleb128 0x5
 3561 00e5 04       		.byte	0x4
 3562 00e6 03       		.uleb128 0x3
 3563 00e7 08       		.byte	0x8
 3564 00e8 04       		.byte	0x4
 3565 00e9 DE080000 		.4byte	.LASF20
 3566 00ed 06       		.uleb128 0x6
 3567 00ee 08       		.byte	0x8
 3568 00ef 01       		.byte	0x1
 3569 00f0 2E       		.byte	0x2e
 3570 00f1 3E010000 		.4byte	0x13e
 3571 00f5 07       		.uleb128 0x7
 3572 00f6 14000000 		.4byte	.LASF21
 3573 00fa 01       		.byte	0x1
 3574 00fb 30       		.byte	0x30
 3575 00fc C3000000 		.4byte	0xc3
 3576 0100 00       		.byte	0
 3577 0101 07       		.uleb128 0x7
 3578 0102 AD0B0000 		.4byte	.LASF22
 3579 0106 01       		.byte	0x1
 3580 0107 31       		.byte	0x31
 3581 0108 AD000000 		.4byte	0xad
 3582 010c 02       		.byte	0x2
 3583 010d 07       		.uleb128 0x7
 3584 010e A20B0000 		.4byte	.LASF23
 3585 0112 01       		.byte	0x1
 3586 0113 32       		.byte	0x32
 3587 0114 AD000000 		.4byte	0xad
 3588 0118 03       		.byte	0x3
 3589 0119 07       		.uleb128 0x7
ARM GAS  C:\Users\tmj32\AppData\Local\Temp\ccIZw7Ef.s 			page 84


 3590 011a 90030000 		.4byte	.LASF24
 3591 011e 01       		.byte	0x1
 3592 011f 33       		.byte	0x33
 3593 0120 A2000000 		.4byte	0xa2
 3594 0124 04       		.byte	0x4
 3595 0125 07       		.uleb128 0x7
 3596 0126 96030000 		.4byte	.LASF25
 3597 012a 01       		.byte	0x1
 3598 012b 34       		.byte	0x34
 3599 012c A2000000 		.4byte	0xa2
 3600 0130 05       		.byte	0x5
 3601 0131 08       		.uleb128 0x8
 3602 0132 62707000 		.ascii	"bpp\000"
 3603 0136 01       		.byte	0x1
 3604 0137 35       		.byte	0x35
 3605 0138 AD000000 		.4byte	0xad
 3606 013c 06       		.byte	0x6
 3607 013d 00       		.byte	0
 3608 013e 02       		.uleb128 0x2
 3609 013f 6A080000 		.4byte	.LASF26
 3610 0143 01       		.byte	0x1
 3611 0144 36       		.byte	0x36
 3612 0145 ED000000 		.4byte	0xed
 3613 0149 09       		.uleb128 0x9
 3614 014a CE0D0000 		.4byte	.LASF82
 3615 014e 10       		.byte	0x10
 3616 014f 01       		.byte	0x1
 3617 0150 44       		.byte	0x44
 3618 0151 A1010000 		.4byte	0x1a1
 3619 0155 07       		.uleb128 0x7
 3620 0156 770D0000 		.4byte	.LASF27
 3621 015a 01       		.byte	0x1
 3622 015b 47       		.byte	0x47
 3623 015c D7010000 		.4byte	0x1d7
 3624 0160 00       		.byte	0
 3625 0161 07       		.uleb128 0x7
 3626 0162 BD020000 		.4byte	.LASF28
 3627 0166 01       		.byte	0x1
 3628 0167 4A       		.byte	0x4a
 3629 0168 FC010000 		.4byte	0x1fc
 3630 016c 04       		.byte	0x4
 3631 016d 07       		.uleb128 0x7
 3632 016e DC000000 		.4byte	.LASF29
 3633 0172 01       		.byte	0x1
 3634 0173 4D       		.byte	0x4d
 3635 0174 AD000000 		.4byte	0xad
 3636 0178 08       		.byte	0x8
 3637 0179 07       		.uleb128 0x7
 3638 017a BD0B0000 		.4byte	.LASF30
 3639 017e 01       		.byte	0x1
 3640 017f 4E       		.byte	0x4e
 3641 0180 A2000000 		.4byte	0xa2
 3642 0184 09       		.byte	0x9
 3643 0185 0A       		.uleb128 0xa
 3644 0186 25090000 		.4byte	.LASF65
 3645 018a 01       		.byte	0x1
 3646 018b 4F       		.byte	0x4f
ARM GAS  C:\Users\tmj32\AppData\Local\Temp\ccIZw7Ef.s 			page 85


 3647 018c AD000000 		.4byte	0xad
 3648 0190 01       		.byte	0x1
 3649 0191 02       		.byte	0x2
 3650 0192 06       		.byte	0x6
 3651 0193 0A       		.byte	0xa
 3652 0194 08       		.uleb128 0x8
 3653 0195 64736300 		.ascii	"dsc\000"
 3654 0199 01       		.byte	0x1
 3655 019a 50       		.byte	0x50
 3656 019b E4000000 		.4byte	0xe4
 3657 019f 0C       		.byte	0xc
 3658 01a0 00       		.byte	0
 3659 01a1 0B       		.uleb128 0xb
 3660 01a2 BF010000 		.4byte	0x1bf
 3661 01a6 BF010000 		.4byte	0x1bf
 3662 01aa 0C       		.uleb128 0xc
 3663 01ab C6010000 		.4byte	0x1c6
 3664 01af 0C       		.uleb128 0xc
 3665 01b0 D1010000 		.4byte	0x1d1
 3666 01b4 0C       		.uleb128 0xc
 3667 01b5 CE000000 		.4byte	0xce
 3668 01b9 0C       		.uleb128 0xc
 3669 01ba CE000000 		.4byte	0xce
 3670 01be 00       		.byte	0
 3671 01bf 03       		.uleb128 0x3
 3672 01c0 01       		.byte	0x1
 3673 01c1 02       		.byte	0x2
 3674 01c2 A3030000 		.4byte	.LASF31
 3675 01c6 0D       		.uleb128 0xd
 3676 01c7 04       		.byte	0x4
 3677 01c8 CC010000 		.4byte	0x1cc
 3678 01cc 0E       		.uleb128 0xe
 3679 01cd 49010000 		.4byte	0x149
 3680 01d1 0D       		.uleb128 0xd
 3681 01d2 04       		.byte	0x4
 3682 01d3 3E010000 		.4byte	0x13e
 3683 01d7 0D       		.uleb128 0xd
 3684 01d8 04       		.byte	0x4
 3685 01d9 A1010000 		.4byte	0x1a1
 3686 01dd 0B       		.uleb128 0xb
 3687 01de F1010000 		.4byte	0x1f1
 3688 01e2 F1010000 		.4byte	0x1f1
 3689 01e6 0C       		.uleb128 0xc
 3690 01e7 C6010000 		.4byte	0x1c6
 3691 01eb 0C       		.uleb128 0xc
 3692 01ec CE000000 		.4byte	0xce
 3693 01f0 00       		.byte	0
 3694 01f1 0D       		.uleb128 0xd
 3695 01f2 04       		.byte	0x4
 3696 01f3 F7010000 		.4byte	0x1f7
 3697 01f7 0E       		.uleb128 0xe
 3698 01f8 AD000000 		.4byte	0xad
 3699 01fc 0D       		.uleb128 0xd
 3700 01fd 04       		.byte	0x4
 3701 01fe DD010000 		.4byte	0x1dd
 3702 0202 02       		.uleb128 0x2
 3703 0203 F20C0000 		.4byte	.LASF32
ARM GAS  C:\Users\tmj32\AppData\Local\Temp\ccIZw7Ef.s 			page 86


 3704 0207 01       		.byte	0x1
 3705 0208 56       		.byte	0x56
 3706 0209 49010000 		.4byte	0x149
 3707 020d 06       		.uleb128 0x6
 3708 020e 04       		.byte	0x4
 3709 020f 07       		.byte	0x7
 3710 0210 F3       		.byte	0xf3
 3711 0211 46020000 		.4byte	0x246
 3712 0215 07       		.uleb128 0x7
 3713 0216 D3020000 		.4byte	.LASF33
 3714 021a 07       		.byte	0x7
 3715 021b F5       		.byte	0xf5
 3716 021c AD000000 		.4byte	0xad
 3717 0220 00       		.byte	0
 3718 0221 07       		.uleb128 0x7
 3719 0222 EC0C0000 		.4byte	.LASF34
 3720 0226 07       		.byte	0x7
 3721 0227 F6       		.byte	0xf6
 3722 0228 AD000000 		.4byte	0xad
 3723 022c 01       		.byte	0x1
 3724 022d 08       		.uleb128 0x8
 3725 022e 72656400 		.ascii	"red\000"
 3726 0232 07       		.byte	0x7
 3727 0233 F7       		.byte	0xf7
 3728 0234 AD000000 		.4byte	0xad
 3729 0238 02       		.byte	0x2
 3730 0239 07       		.uleb128 0x7
 3731 023a D2010000 		.4byte	.LASF35
 3732 023e 07       		.byte	0x7
 3733 023f F8       		.byte	0xf8
 3734 0240 AD000000 		.4byte	0xad
 3735 0244 03       		.byte	0x3
 3736 0245 00       		.byte	0
 3737 0246 0F       		.uleb128 0xf
 3738 0247 04       		.byte	0x4
 3739 0248 07       		.byte	0x7
 3740 0249 F1       		.byte	0xf1
 3741 024a 64020000 		.4byte	0x264
 3742 024e 10       		.uleb128 0x10
 3743 024f 636800   		.ascii	"ch\000"
 3744 0252 07       		.byte	0x7
 3745 0253 F9       		.byte	0xf9
 3746 0254 0D020000 		.4byte	0x20d
 3747 0258 11       		.uleb128 0x11
 3748 0259 020B0000 		.4byte	.LASF36
 3749 025d 07       		.byte	0x7
 3750 025e FA       		.byte	0xfa
 3751 025f CE000000 		.4byte	0xce
 3752 0263 00       		.byte	0
 3753 0264 02       		.uleb128 0x2
 3754 0265 2D000000 		.4byte	.LASF37
 3755 0269 07       		.byte	0x7
 3756 026a FB       		.byte	0xfb
 3757 026b 46020000 		.4byte	0x246
 3758 026f 12       		.uleb128 0x12
 3759 0270 DB090000 		.4byte	.LASF38
 3760 0274 07       		.byte	0x7
ARM GAS  C:\Users\tmj32\AppData\Local\Temp\ccIZw7Ef.s 			page 87


 3761 0275 0801     		.2byte	0x108
 3762 0277 64020000 		.4byte	0x264
 3763 027b 12       		.uleb128 0x12
 3764 027c 70000000 		.4byte	.LASF39
 3765 0280 07       		.byte	0x7
 3766 0281 0D01     		.2byte	0x10d
 3767 0283 AD000000 		.4byte	0xad
 3768 0287 03       		.uleb128 0x3
 3769 0288 04       		.byte	0x4
 3770 0289 07       		.byte	0x7
 3771 028a 24000000 		.4byte	.LASF40
 3772 028e 0D       		.uleb128 0xd
 3773 028f 04       		.byte	0x4
 3774 0290 94020000 		.4byte	0x294
 3775 0294 03       		.uleb128 0x3
 3776 0295 01       		.byte	0x1
 3777 0296 08       		.byte	0x8
 3778 0297 CE030000 		.4byte	.LASF41
 3779 029b 0D       		.uleb128 0xd
 3780 029c 04       		.byte	0x4
 3781 029d A1020000 		.4byte	0x2a1
 3782 02a1 0E       		.uleb128 0xe
 3783 02a2 94020000 		.4byte	0x294
 3784 02a6 06       		.uleb128 0x6
 3785 02a7 04       		.byte	0x4
 3786 02a8 02       		.byte	0x2
 3787 02a9 2A       		.byte	0x2a
 3788 02aa C3020000 		.4byte	0x2c3
 3789 02ae 08       		.uleb128 0x8
 3790 02af 7800     		.ascii	"x\000"
 3791 02b1 02       		.byte	0x2
 3792 02b2 2C       		.byte	0x2c
 3793 02b3 D9000000 		.4byte	0xd9
 3794 02b7 00       		.byte	0
 3795 02b8 08       		.uleb128 0x8
 3796 02b9 7900     		.ascii	"y\000"
 3797 02bb 02       		.byte	0x2
 3798 02bc 2D       		.byte	0x2d
 3799 02bd D9000000 		.4byte	0xd9
 3800 02c1 02       		.byte	0x2
 3801 02c2 00       		.byte	0
 3802 02c3 02       		.uleb128 0x2
 3803 02c4 8D000000 		.4byte	.LASF42
 3804 02c8 02       		.byte	0x2
 3805 02c9 2E       		.byte	0x2e
 3806 02ca A6020000 		.4byte	0x2a6
 3807 02ce 06       		.uleb128 0x6
 3808 02cf 08       		.byte	0x8
 3809 02d0 02       		.byte	0x2
 3810 02d1 31       		.byte	0x31
 3811 02d2 03030000 		.4byte	0x303
 3812 02d6 08       		.uleb128 0x8
 3813 02d7 783100   		.ascii	"x1\000"
 3814 02da 02       		.byte	0x2
 3815 02db 33       		.byte	0x33
 3816 02dc D9000000 		.4byte	0xd9
 3817 02e0 00       		.byte	0
ARM GAS  C:\Users\tmj32\AppData\Local\Temp\ccIZw7Ef.s 			page 88


 3818 02e1 08       		.uleb128 0x8
 3819 02e2 793100   		.ascii	"y1\000"
 3820 02e5 02       		.byte	0x2
 3821 02e6 34       		.byte	0x34
 3822 02e7 D9000000 		.4byte	0xd9
 3823 02eb 02       		.byte	0x2
 3824 02ec 08       		.uleb128 0x8
 3825 02ed 783200   		.ascii	"x2\000"
 3826 02f0 02       		.byte	0x2
 3827 02f1 35       		.byte	0x35
 3828 02f2 D9000000 		.4byte	0xd9
 3829 02f6 04       		.byte	0x4
 3830 02f7 08       		.uleb128 0x8
 3831 02f8 793200   		.ascii	"y2\000"
 3832 02fb 02       		.byte	0x2
 3833 02fc 36       		.byte	0x36
 3834 02fd D9000000 		.4byte	0xd9
 3835 0301 06       		.byte	0x6
 3836 0302 00       		.byte	0
 3837 0303 02       		.uleb128 0x2
 3838 0304 11050000 		.4byte	.LASF43
 3839 0308 02       		.byte	0x2
 3840 0309 37       		.byte	0x37
 3841 030a CE020000 		.4byte	0x2ce
 3842 030e 02       		.uleb128 0x2
 3843 030f 8C0D0000 		.4byte	.LASF44
 3844 0313 08       		.byte	0x8
 3845 0314 2C       		.byte	0x2c
 3846 0315 AD000000 		.4byte	0xad
 3847 0319 02       		.uleb128 0x2
 3848 031a 5E0B0000 		.4byte	.LASF45
 3849 031e 08       		.byte	0x8
 3850 031f 33       		.byte	0x33
 3851 0320 AD000000 		.4byte	0xad
 3852 0324 06       		.uleb128 0x6
 3853 0325 08       		.byte	0x8
 3854 0326 08       		.byte	0x8
 3855 0327 48       		.byte	0x48
 3856 0328 5D030000 		.4byte	0x35d
 3857 032c 07       		.uleb128 0x7
 3858 032d 070B0000 		.4byte	.LASF46
 3859 0331 08       		.byte	0x8
 3860 0332 4A       		.byte	0x4a
 3861 0333 6F020000 		.4byte	0x26f
 3862 0337 00       		.byte	0
 3863 0338 07       		.uleb128 0x7
 3864 0339 61070000 		.4byte	.LASF47
 3865 033d 08       		.byte	0x8
 3866 033e 4B       		.byte	0x4b
 3867 033f D9000000 		.4byte	0xd9
 3868 0343 04       		.byte	0x4
 3869 0344 07       		.uleb128 0x7
 3870 0345 DE0D0000 		.4byte	.LASF48
 3871 0349 08       		.byte	0x8
 3872 034a 4C       		.byte	0x4c
 3873 034b 0E030000 		.4byte	0x30e
 3874 034f 06       		.byte	0x6
ARM GAS  C:\Users\tmj32\AppData\Local\Temp\ccIZw7Ef.s 			page 89


 3875 0350 08       		.uleb128 0x8
 3876 0351 6F706100 		.ascii	"opa\000"
 3877 0355 08       		.byte	0x8
 3878 0356 4D       		.byte	0x4d
 3879 0357 7B020000 		.4byte	0x27b
 3880 035b 07       		.byte	0x7
 3881 035c 00       		.byte	0
 3882 035d 06       		.uleb128 0x6
 3883 035e 08       		.byte	0x8
 3884 035f 08       		.byte	0x8
 3885 0360 51       		.byte	0x51
 3886 0361 8A030000 		.4byte	0x38a
 3887 0365 07       		.uleb128 0x7
 3888 0366 070B0000 		.4byte	.LASF46
 3889 036a 08       		.byte	0x8
 3890 036b 53       		.byte	0x53
 3891 036c 6F020000 		.4byte	0x26f
 3892 0370 00       		.byte	0
 3893 0371 07       		.uleb128 0x7
 3894 0372 61070000 		.4byte	.LASF47
 3895 0376 08       		.byte	0x8
 3896 0377 54       		.byte	0x54
 3897 0378 D9000000 		.4byte	0xd9
 3898 037c 04       		.byte	0x4
 3899 037d 07       		.uleb128 0x7
 3900 037e 64010000 		.4byte	.LASF49
 3901 0382 08       		.byte	0x8
 3902 0383 55       		.byte	0x55
 3903 0384 19030000 		.4byte	0x319
 3904 0388 06       		.byte	0x6
 3905 0389 00       		.byte	0
 3906 038a 06       		.uleb128 0x6
 3907 038b 0A       		.byte	0xa
 3908 038c 08       		.byte	0x8
 3909 038d 58       		.byte	0x58
 3910 038e CF030000 		.4byte	0x3cf
 3911 0392 08       		.uleb128 0x8
 3912 0393 746F7000 		.ascii	"top\000"
 3913 0397 08       		.byte	0x8
 3914 0398 5A       		.byte	0x5a
 3915 0399 D9000000 		.4byte	0xd9
 3916 039d 00       		.byte	0
 3917 039e 07       		.uleb128 0x7
 3918 039f 79070000 		.4byte	.LASF50
 3919 03a3 08       		.byte	0x8
 3920 03a4 5B       		.byte	0x5b
 3921 03a5 D9000000 		.4byte	0xd9
 3922 03a9 02       		.byte	0x2
 3923 03aa 07       		.uleb128 0x7
 3924 03ab 43050000 		.4byte	.LASF51
 3925 03af 08       		.byte	0x8
 3926 03b0 5C       		.byte	0x5c
 3927 03b1 D9000000 		.4byte	0xd9
 3928 03b5 04       		.byte	0x4
 3929 03b6 07       		.uleb128 0x7
 3930 03b7 91060000 		.4byte	.LASF52
 3931 03bb 08       		.byte	0x8
ARM GAS  C:\Users\tmj32\AppData\Local\Temp\ccIZw7Ef.s 			page 90


 3932 03bc 5D       		.byte	0x5d
 3933 03bd D9000000 		.4byte	0xd9
 3934 03c1 06       		.byte	0x6
 3935 03c2 07       		.uleb128 0x7
 3936 03c3 7E050000 		.4byte	.LASF53
 3937 03c7 08       		.byte	0x8
 3938 03c8 5E       		.byte	0x5e
 3939 03c9 D9000000 		.4byte	0xd9
 3940 03cd 08       		.byte	0x8
 3941 03ce 00       		.byte	0
 3942 03cf 06       		.uleb128 0x6
 3943 03d0 28       		.byte	0x28
 3944 03d1 08       		.byte	0x8
 3945 03d2 41       		.byte	0x41
 3946 03d3 2C040000 		.4byte	0x42c
 3947 03d7 07       		.uleb128 0x7
 3948 03d8 91090000 		.4byte	.LASF54
 3949 03dc 08       		.byte	0x8
 3950 03dd 43       		.byte	0x43
 3951 03de 6F020000 		.4byte	0x26f
 3952 03e2 00       		.byte	0
 3953 03e3 07       		.uleb128 0x7
 3954 03e4 83080000 		.4byte	.LASF55
 3955 03e8 08       		.byte	0x8
 3956 03e9 44       		.byte	0x44
 3957 03ea 6F020000 		.4byte	0x26f
 3958 03ee 04       		.byte	0x4
 3959 03ef 07       		.uleb128 0x7
 3960 03f0 C8000000 		.4byte	.LASF56
 3961 03f4 08       		.byte	0x8
 3962 03f5 45       		.byte	0x45
 3963 03f6 D9000000 		.4byte	0xd9
 3964 03fa 08       		.byte	0x8
 3965 03fb 08       		.uleb128 0x8
 3966 03fc 6F706100 		.ascii	"opa\000"
 3967 0400 08       		.byte	0x8
 3968 0401 46       		.byte	0x46
 3969 0402 7B020000 		.4byte	0x27b
 3970 0406 0A       		.byte	0xa
 3971 0407 07       		.uleb128 0x7
 3972 0408 4C0D0000 		.4byte	.LASF57
 3973 040c 08       		.byte	0x8
 3974 040d 4E       		.byte	0x4e
 3975 040e 24030000 		.4byte	0x324
 3976 0412 0C       		.byte	0xc
 3977 0413 07       		.uleb128 0x7
 3978 0414 650C0000 		.4byte	.LASF58
 3979 0418 08       		.byte	0x8
 3980 0419 56       		.byte	0x56
 3981 041a 5D030000 		.4byte	0x35d
 3982 041e 14       		.byte	0x14
 3983 041f 07       		.uleb128 0x7
 3984 0420 B90C0000 		.4byte	.LASF59
 3985 0424 08       		.byte	0x8
 3986 0425 5F       		.byte	0x5f
 3987 0426 8A030000 		.4byte	0x38a
 3988 042a 1C       		.byte	0x1c
ARM GAS  C:\Users\tmj32\AppData\Local\Temp\ccIZw7Ef.s 			page 91


 3989 042b 00       		.byte	0
 3990 042c 06       		.uleb128 0x6
 3991 042d 14       		.byte	0x14
 3992 042e 08       		.byte	0x8
 3993 042f 63       		.byte	0x63
 3994 0430 7D040000 		.4byte	0x47d
 3995 0434 07       		.uleb128 0x7
 3996 0435 070B0000 		.4byte	.LASF46
 3997 0439 08       		.byte	0x8
 3998 043a 65       		.byte	0x65
 3999 043b 6F020000 		.4byte	0x26f
 4000 043f 00       		.byte	0
 4001 0440 07       		.uleb128 0x7
 4002 0441 C40D0000 		.4byte	.LASF60
 4003 0445 08       		.byte	0x8
 4004 0446 66       		.byte	0x66
 4005 0447 6F020000 		.4byte	0x26f
 4006 044b 04       		.byte	0x4
 4007 044c 07       		.uleb128 0x7
 4008 044d 7E0B0000 		.4byte	.LASF61
 4009 0451 08       		.byte	0x8
 4010 0452 67       		.byte	0x67
 4011 0453 7D040000 		.4byte	0x47d
 4012 0457 08       		.byte	0x8
 4013 0458 07       		.uleb128 0x7
 4014 0459 830B0000 		.4byte	.LASF62
 4015 045d 08       		.byte	0x8
 4016 045e 68       		.byte	0x68
 4017 045f D9000000 		.4byte	0xd9
 4018 0463 0C       		.byte	0xc
 4019 0464 07       		.uleb128 0x7
 4020 0465 0D0B0000 		.4byte	.LASF63
 4021 0469 08       		.byte	0x8
 4022 046a 69       		.byte	0x69
 4023 046b D9000000 		.4byte	0xd9
 4024 046f 0E       		.byte	0xe
 4025 0470 08       		.uleb128 0x8
 4026 0471 6F706100 		.ascii	"opa\000"
 4027 0475 08       		.byte	0x8
 4028 0476 6A       		.byte	0x6a
 4029 0477 7B020000 		.4byte	0x27b
 4030 047b 10       		.byte	0x10
 4031 047c 00       		.byte	0
 4032 047d 0D       		.uleb128 0xd
 4033 047e 04       		.byte	0x4
 4034 047f 83040000 		.4byte	0x483
 4035 0483 0E       		.uleb128 0xe
 4036 0484 02020000 		.4byte	0x202
 4037 0488 06       		.uleb128 0x6
 4038 0489 08       		.byte	0x8
 4039 048a 08       		.byte	0x8
 4040 048b 6E       		.byte	0x6e
 4041 048c B5040000 		.4byte	0x4b5
 4042 0490 07       		.uleb128 0x7
 4043 0491 070B0000 		.4byte	.LASF46
 4044 0495 08       		.byte	0x8
 4045 0496 70       		.byte	0x70
ARM GAS  C:\Users\tmj32\AppData\Local\Temp\ccIZw7Ef.s 			page 92


 4046 0497 6F020000 		.4byte	0x26f
 4047 049b 00       		.byte	0
 4048 049c 07       		.uleb128 0x7
 4049 049d 85000000 		.4byte	.LASF64
 4050 04a1 08       		.byte	0x8
 4051 04a2 71       		.byte	0x71
 4052 04a3 7B020000 		.4byte	0x27b
 4053 04a7 04       		.byte	0x4
 4054 04a8 08       		.uleb128 0x8
 4055 04a9 6F706100 		.ascii	"opa\000"
 4056 04ad 08       		.byte	0x8
 4057 04ae 72       		.byte	0x72
 4058 04af 7B020000 		.4byte	0x27b
 4059 04b3 05       		.byte	0x5
 4060 04b4 00       		.byte	0
 4061 04b5 06       		.uleb128 0x6
 4062 04b6 08       		.byte	0x8
 4063 04b7 08       		.byte	0x8
 4064 04b8 76       		.byte	0x76
 4065 04b9 F1040000 		.4byte	0x4f1
 4066 04bd 07       		.uleb128 0x7
 4067 04be 070B0000 		.4byte	.LASF46
 4068 04c2 08       		.byte	0x8
 4069 04c3 78       		.byte	0x78
 4070 04c4 6F020000 		.4byte	0x26f
 4071 04c8 00       		.byte	0
 4072 04c9 07       		.uleb128 0x7
 4073 04ca 61070000 		.4byte	.LASF47
 4074 04ce 08       		.byte	0x8
 4075 04cf 79       		.byte	0x79
 4076 04d0 D9000000 		.4byte	0xd9
 4077 04d4 04       		.byte	0x4
 4078 04d5 08       		.uleb128 0x8
 4079 04d6 6F706100 		.ascii	"opa\000"
 4080 04da 08       		.byte	0x8
 4081 04db 7A       		.byte	0x7a
 4082 04dc 7B020000 		.4byte	0x27b
 4083 04e0 06       		.byte	0x6
 4084 04e1 0A       		.uleb128 0xa
 4085 04e2 B3040000 		.4byte	.LASF66
 4086 04e6 08       		.byte	0x8
 4087 04e7 7B       		.byte	0x7b
 4088 04e8 AD000000 		.4byte	0xad
 4089 04ec 01       		.byte	0x1
 4090 04ed 01       		.byte	0x1
 4091 04ee 07       		.byte	0x7
 4092 04ef 07       		.byte	0x7
 4093 04f0 00       		.byte	0
 4094 04f1 06       		.uleb128 0x6
 4095 04f2 50       		.byte	0x50
 4096 04f3 08       		.byte	0x8
 4097 04f4 3C       		.byte	0x3c
 4098 04f5 39050000 		.4byte	0x539
 4099 04f9 0A       		.uleb128 0xa
 4100 04fa D5070000 		.4byte	.LASF67
 4101 04fe 08       		.byte	0x8
 4102 04ff 3E       		.byte	0x3e
ARM GAS  C:\Users\tmj32\AppData\Local\Temp\ccIZw7Ef.s 			page 93


 4103 0500 AD000000 		.4byte	0xad
 4104 0504 01       		.byte	0x1
 4105 0505 01       		.byte	0x1
 4106 0506 07       		.byte	0x7
 4107 0507 00       		.byte	0
 4108 0508 07       		.uleb128 0x7
 4109 0509 0E040000 		.4byte	.LASF68
 4110 050d 08       		.byte	0x8
 4111 050e 60       		.byte	0x60
 4112 050f CF030000 		.4byte	0x3cf
 4113 0513 04       		.byte	0x4
 4114 0514 07       		.uleb128 0x7
 4115 0515 A8040000 		.4byte	.LASF69
 4116 0519 08       		.byte	0x8
 4117 051a 6B       		.byte	0x6b
 4118 051b 2C040000 		.4byte	0x42c
 4119 051f 2C       		.byte	0x2c
 4120 0520 07       		.uleb128 0x7
 4121 0521 AD040000 		.4byte	.LASF70
 4122 0525 08       		.byte	0x8
 4123 0526 73       		.byte	0x73
 4124 0527 88040000 		.4byte	0x488
 4125 052b 40       		.byte	0x40
 4126 052c 07       		.uleb128 0x7
 4127 052d A8050000 		.4byte	.LASF71
 4128 0531 08       		.byte	0x8
 4129 0532 7C       		.byte	0x7c
 4130 0533 B5040000 		.4byte	0x4b5
 4131 0537 48       		.byte	0x48
 4132 0538 00       		.byte	0
 4133 0539 02       		.uleb128 0x2
 4134 053a 73050000 		.4byte	.LASF72
 4135 053e 08       		.byte	0x8
 4136 053f 84       		.byte	0x84
 4137 0540 F1040000 		.4byte	0x4f1
 4138 0544 0D       		.uleb128 0xd
 4139 0545 04       		.byte	0x4
 4140 0546 39050000 		.4byte	0x539
 4141 054a 13       		.uleb128 0x13
 4142 054b 01       		.byte	0x1
 4143 054c 42000000 		.4byte	0x42
 4144 0550 09       		.byte	0x9
 4145 0551 27       		.byte	0x27
 4146 0552 63050000 		.4byte	0x563
 4147 0556 14       		.uleb128 0x14
 4148 0557 41010000 		.4byte	.LASF73
 4149 055b 00       		.byte	0
 4150 055c 14       		.uleb128 0x14
 4151 055d D1090000 		.4byte	.LASF74
 4152 0561 01       		.byte	0x1
 4153 0562 00       		.byte	0
 4154 0563 02       		.uleb128 0x2
 4155 0564 D5080000 		.4byte	.LASF75
 4156 0568 09       		.byte	0x9
 4157 0569 2C       		.byte	0x2c
 4158 056a AD000000 		.4byte	0xad
 4159 056e 02       		.uleb128 0x2
ARM GAS  C:\Users\tmj32\AppData\Local\Temp\ccIZw7Ef.s 			page 94


 4160 056f 07000000 		.4byte	.LASF76
 4161 0573 0A       		.byte	0xa
 4162 0574 1E       		.byte	0x1e
 4163 0575 AD000000 		.4byte	0xad
 4164 0579 06       		.uleb128 0x6
 4165 057a 0C       		.byte	0xc
 4166 057b 0A       		.byte	0xa
 4167 057c 21       		.byte	0x21
 4168 057d A6050000 		.4byte	0x5a6
 4169 0581 07       		.uleb128 0x7
 4170 0582 E30D0000 		.4byte	.LASF77
 4171 0586 0A       		.byte	0xa
 4172 0587 23       		.byte	0x23
 4173 0588 CE000000 		.4byte	0xce
 4174 058c 00       		.byte	0
 4175 058d 07       		.uleb128 0x7
 4176 058e 2D020000 		.4byte	.LASF78
 4177 0592 0A       		.byte	0xa
 4178 0593 24       		.byte	0x24
 4179 0594 A6050000 		.4byte	0x5a6
 4180 0598 04       		.byte	0x4
 4181 0599 07       		.uleb128 0x7
 4182 059a 3F000000 		.4byte	.LASF79
 4183 059e 0A       		.byte	0xa
 4184 059f 25       		.byte	0x25
 4185 05a0 A6050000 		.4byte	0x5a6
 4186 05a4 08       		.byte	0x8
 4187 05a5 00       		.byte	0
 4188 05a6 0D       		.uleb128 0xd
 4189 05a7 04       		.byte	0x4
 4190 05a8 6E050000 		.4byte	0x56e
 4191 05ac 02       		.uleb128 0x2
 4192 05ad C70B0000 		.4byte	.LASF80
 4193 05b1 0A       		.byte	0xa
 4194 05b2 26       		.byte	0x26
 4195 05b3 79050000 		.4byte	0x579
 4196 05b7 02       		.uleb128 0x2
 4197 05b8 F6040000 		.4byte	.LASF81
 4198 05bc 0B       		.byte	0xb
 4199 05bd 30       		.byte	0x30
 4200 05be AD000000 		.4byte	0xad
 4201 05c2 0D       		.uleb128 0xd
 4202 05c3 04       		.byte	0x4
 4203 05c4 C8050000 		.4byte	0x5c8
 4204 05c8 0E       		.uleb128 0xe
 4205 05c9 03030000 		.4byte	0x303
 4206 05cd 09       		.uleb128 0x9
 4207 05ce 740B0000 		.4byte	.LASF83
 4208 05d2 40       		.byte	0x40
 4209 05d3 0C       		.byte	0xc
 4210 05d4 BB       		.byte	0xbb
 4211 05d5 0F070000 		.4byte	0x70f
 4212 05d9 08       		.uleb128 0x8
 4213 05da 70617200 		.ascii	"par\000"
 4214 05de 0C       		.byte	0xc
 4215 05df BD       		.byte	0xbd
 4216 05e0 0F070000 		.4byte	0x70f
ARM GAS  C:\Users\tmj32\AppData\Local\Temp\ccIZw7Ef.s 			page 95


 4217 05e4 00       		.byte	0
 4218 05e5 07       		.uleb128 0x7
 4219 05e6 80070000 		.4byte	.LASF84
 4220 05ea 0C       		.byte	0xc
 4221 05eb BE       		.byte	0xbe
 4222 05ec AC050000 		.4byte	0x5ac
 4223 05f0 04       		.byte	0x4
 4224 05f1 07       		.uleb128 0x7
 4225 05f2 280C0000 		.4byte	.LASF85
 4226 05f6 0C       		.byte	0xc
 4227 05f7 C0       		.byte	0xc0
 4228 05f8 03030000 		.4byte	0x303
 4229 05fc 10       		.byte	0x10
 4230 05fd 07       		.uleb128 0x7
 4231 05fe 88060000 		.4byte	.LASF86
 4232 0602 0C       		.byte	0xc
 4233 0603 C2       		.byte	0xc2
 4234 0604 74070000 		.4byte	0x774
 4235 0608 18       		.byte	0x18
 4236 0609 07       		.uleb128 0x7
 4237 060a C10C0000 		.4byte	.LASF87
 4238 060e 0C       		.byte	0xc
 4239 060f C3       		.byte	0xc3
 4240 0610 25080000 		.4byte	0x825
 4241 0614 1C       		.byte	0x1c
 4242 0615 07       		.uleb128 0x7
 4243 0616 40040000 		.4byte	.LASF88
 4244 061a 0C       		.byte	0xc
 4245 061b C4       		.byte	0xc4
 4246 061c 3F070000 		.4byte	0x73f
 4247 0620 20       		.byte	0x20
 4248 0621 07       		.uleb128 0x7
 4249 0622 05090000 		.4byte	.LASF89
 4250 0626 0C       		.byte	0xc
 4251 0627 C6       		.byte	0xc6
 4252 0628 E4000000 		.4byte	0xe4
 4253 062c 24       		.byte	0x24
 4254 062d 07       		.uleb128 0x7
 4255 062e 97060000 		.4byte	.LASF90
 4256 0632 0C       		.byte	0xc
 4257 0633 C7       		.byte	0xc7
 4258 0634 D2080000 		.4byte	0x8d2
 4259 0638 28       		.byte	0x28
 4260 0639 0A       		.uleb128 0xa
 4261 063a E8000000 		.4byte	.LASF91
 4262 063e 0C       		.byte	0xc
 4263 063f D7       		.byte	0xd7
 4264 0640 AD000000 		.4byte	0xad
 4265 0644 01       		.byte	0x1
 4266 0645 01       		.byte	0x1
 4267 0646 07       		.byte	0x7
 4268 0647 2C       		.byte	0x2c
 4269 0648 0A       		.uleb128 0xa
 4270 0649 6F0B0000 		.4byte	.LASF92
 4271 064d 0C       		.byte	0xc
 4272 064e D8       		.byte	0xd8
 4273 064f AD000000 		.4byte	0xad
ARM GAS  C:\Users\tmj32\AppData\Local\Temp\ccIZw7Ef.s 			page 96


 4274 0653 01       		.byte	0x1
 4275 0654 01       		.byte	0x1
 4276 0655 06       		.byte	0x6
 4277 0656 2C       		.byte	0x2c
 4278 0657 0A       		.uleb128 0xa
 4279 0658 BB040000 		.4byte	.LASF93
 4280 065c 0C       		.byte	0xc
 4281 065d D9       		.byte	0xd9
 4282 065e AD000000 		.4byte	0xad
 4283 0662 01       		.byte	0x1
 4284 0663 01       		.byte	0x1
 4285 0664 05       		.byte	0x5
 4286 0665 2C       		.byte	0x2c
 4287 0666 0A       		.uleb128 0xa
 4288 0667 7E0C0000 		.4byte	.LASF94
 4289 066b 0C       		.byte	0xc
 4290 066c DA       		.byte	0xda
 4291 066d AD000000 		.4byte	0xad
 4292 0671 01       		.byte	0x1
 4293 0672 01       		.byte	0x1
 4294 0673 04       		.byte	0x4
 4295 0674 2C       		.byte	0x2c
 4296 0675 0A       		.uleb128 0xa
 4297 0676 D8010000 		.4byte	.LASF95
 4298 067a 0C       		.byte	0xc
 4299 067b DB       		.byte	0xdb
 4300 067c AD000000 		.4byte	0xad
 4301 0680 01       		.byte	0x1
 4302 0681 01       		.byte	0x1
 4303 0682 03       		.byte	0x3
 4304 0683 2C       		.byte	0x2c
 4305 0684 15       		.uleb128 0x15
 4306 0685 746F7000 		.ascii	"top\000"
 4307 0689 0C       		.byte	0xc
 4308 068a DC       		.byte	0xdc
 4309 068b AD000000 		.4byte	0xad
 4310 068f 01       		.byte	0x1
 4311 0690 01       		.byte	0x1
 4312 0691 02       		.byte	0x2
 4313 0692 2C       		.byte	0x2c
 4314 0693 0A       		.uleb128 0xa
 4315 0694 4E0C0000 		.4byte	.LASF96
 4316 0698 0C       		.byte	0xc
 4317 0699 DD       		.byte	0xdd
 4318 069a AD000000 		.4byte	0xad
 4319 069e 01       		.byte	0x1
 4320 069f 01       		.byte	0x1
 4321 06a0 01       		.byte	0x1
 4322 06a1 2C       		.byte	0x2c
 4323 06a2 0A       		.uleb128 0xa
 4324 06a3 B0070000 		.4byte	.LASF97
 4325 06a7 0C       		.byte	0xc
 4326 06a8 DE       		.byte	0xde
 4327 06a9 AD000000 		.4byte	0xad
 4328 06ad 01       		.byte	0x1
 4329 06ae 01       		.byte	0x1
 4330 06af 00       		.byte	0
ARM GAS  C:\Users\tmj32\AppData\Local\Temp\ccIZw7Ef.s 			page 97


 4331 06b0 2C       		.byte	0x2c
 4332 06b1 0A       		.uleb128 0xa
 4333 06b2 6F030000 		.4byte	.LASF98
 4334 06b6 0C       		.byte	0xc
 4335 06b7 DF       		.byte	0xdf
 4336 06b8 C7080000 		.4byte	0x8c7
 4337 06bc 01       		.byte	0x1
 4338 06bd 02       		.byte	0x2
 4339 06be 06       		.byte	0x6
 4340 06bf 2D       		.byte	0x2d
 4341 06c0 0A       		.uleb128 0xa
 4342 06c1 990B0000 		.4byte	.LASF99
 4343 06c5 0C       		.byte	0xc
 4344 06c6 E0       		.byte	0xe0
 4345 06c7 B7050000 		.4byte	0x5b7
 4346 06cb 01       		.byte	0x1
 4347 06cc 02       		.byte	0x2
 4348 06cd 04       		.byte	0x4
 4349 06ce 2D       		.byte	0x2d
 4350 06cf 0A       		.uleb128 0xa
 4351 06d0 FC0C0000 		.4byte	.LASF100
 4352 06d4 0C       		.byte	0xc
 4353 06d5 E1       		.byte	0xe1
 4354 06d6 AD000000 		.4byte	0xad
 4355 06da 01       		.byte	0x1
 4356 06db 03       		.byte	0x3
 4357 06dc 01       		.byte	0x1
 4358 06dd 2D       		.byte	0x2d
 4359 06de 07       		.uleb128 0x7
 4360 06df 8F070000 		.4byte	.LASF101
 4361 06e3 0C       		.byte	0xc
 4362 06e4 E2       		.byte	0xe2
 4363 06e5 AD000000 		.4byte	0xad
 4364 06e9 2E       		.byte	0x2e
 4365 06ea 07       		.uleb128 0x7
 4366 06eb 2A0E0000 		.4byte	.LASF102
 4367 06ef 0C       		.byte	0xc
 4368 06f0 E4       		.byte	0xe4
 4369 06f1 7B020000 		.4byte	0x27b
 4370 06f5 2F       		.byte	0x2f
 4371 06f6 07       		.uleb128 0x7
 4372 06f7 04050000 		.4byte	.LASF103
 4373 06fb 0C       		.byte	0xc
 4374 06fc E6       		.byte	0xe6
 4375 06fd D9000000 		.4byte	0xd9
 4376 0701 30       		.byte	0x30
 4377 0702 07       		.uleb128 0x7
 4378 0703 53050000 		.4byte	.LASF104
 4379 0707 0C       		.byte	0xc
 4380 0708 E9       		.byte	0xe9
 4381 0709 BC080000 		.4byte	0x8bc
 4382 070d 34       		.byte	0x34
 4383 070e 00       		.byte	0
 4384 070f 0D       		.uleb128 0xd
 4385 0710 04       		.byte	0x4
 4386 0711 CD050000 		.4byte	0x5cd
 4387 0715 13       		.uleb128 0x13
ARM GAS  C:\Users\tmj32\AppData\Local\Temp\ccIZw7Ef.s 			page 98


 4388 0716 01       		.byte	0x1
 4389 0717 42000000 		.4byte	0x42
 4390 071b 0C       		.byte	0xc
 4391 071c 3D       		.byte	0x3d
 4392 071d 34070000 		.4byte	0x734
 4393 0721 14       		.uleb128 0x14
 4394 0722 56080000 		.4byte	.LASF105
 4395 0726 00       		.byte	0
 4396 0727 14       		.uleb128 0x14
 4397 0728 FA030000 		.4byte	.LASF106
 4398 072c 01       		.byte	0x1
 4399 072d 14       		.uleb128 0x14
 4400 072e 2C040000 		.4byte	.LASF107
 4401 0732 02       		.byte	0x2
 4402 0733 00       		.byte	0
 4403 0734 02       		.uleb128 0x2
 4404 0735 14090000 		.4byte	.LASF108
 4405 0739 0C       		.byte	0xc
 4406 073a 42       		.byte	0x42
 4407 073b AD000000 		.4byte	0xad
 4408 073f 02       		.uleb128 0x2
 4409 0740 060E0000 		.4byte	.LASF109
 4410 0744 0C       		.byte	0xc
 4411 0745 48       		.byte	0x48
 4412 0746 4A070000 		.4byte	0x74a
 4413 074a 0D       		.uleb128 0xd
 4414 074b 04       		.byte	0x4
 4415 074c 50070000 		.4byte	0x750
 4416 0750 0B       		.uleb128 0xb
 4417 0751 BF010000 		.4byte	0x1bf
 4418 0755 69070000 		.4byte	0x769
 4419 0759 0C       		.uleb128 0xc
 4420 075a 0F070000 		.4byte	0x70f
 4421 075e 0C       		.uleb128 0xc
 4422 075f C2050000 		.4byte	0x5c2
 4423 0763 0C       		.uleb128 0xc
 4424 0764 34070000 		.4byte	0x734
 4425 0768 00       		.byte	0
 4426 0769 02       		.uleb128 0x2
 4427 076a 36010000 		.4byte	.LASF110
 4428 076e 0C       		.byte	0xc
 4429 076f 61       		.byte	0x61
 4430 0770 AD000000 		.4byte	0xad
 4431 0774 02       		.uleb128 0x2
 4432 0775 9D0D0000 		.4byte	.LASF111
 4433 0779 0C       		.byte	0xc
 4434 077a 68       		.byte	0x68
 4435 077b 7F070000 		.4byte	0x77f
 4436 077f 0D       		.uleb128 0xd
 4437 0780 04       		.byte	0x4
 4438 0781 85070000 		.4byte	0x785
 4439 0785 16       		.uleb128 0x16
 4440 0786 95070000 		.4byte	0x795
 4441 078a 0C       		.uleb128 0xc
 4442 078b 0F070000 		.4byte	0x70f
 4443 078f 0C       		.uleb128 0xc
 4444 0790 69070000 		.4byte	0x769
ARM GAS  C:\Users\tmj32\AppData\Local\Temp\ccIZw7Ef.s 			page 99


 4445 0794 00       		.byte	0
 4446 0795 13       		.uleb128 0x13
 4447 0796 01       		.byte	0x1
 4448 0797 42000000 		.4byte	0x42
 4449 079b 0C       		.byte	0xc
 4450 079c 6D       		.byte	0x6d
 4451 079d 1A080000 		.4byte	0x81a
 4452 07a1 14       		.uleb128 0x14
 4453 07a2 BD070000 		.4byte	.LASF112
 4454 07a6 00       		.byte	0
 4455 07a7 14       		.uleb128 0x14
 4456 07a8 FD070000 		.4byte	.LASF113
 4457 07ac 01       		.byte	0x1
 4458 07ad 14       		.uleb128 0x14
 4459 07ae 150C0000 		.4byte	.LASF114
 4460 07b2 02       		.byte	0x2
 4461 07b3 14       		.uleb128 0x14
 4462 07b4 64090000 		.4byte	.LASF115
 4463 07b8 03       		.byte	0x3
 4464 07b9 14       		.uleb128 0x14
 4465 07ba 5C000000 		.4byte	.LASF116
 4466 07be 04       		.byte	0x4
 4467 07bf 14       		.uleb128 0x14
 4468 07c0 8A0C0000 		.4byte	.LASF117
 4469 07c4 05       		.byte	0x5
 4470 07c5 14       		.uleb128 0x14
 4471 07c6 53030000 		.4byte	.LASF118
 4472 07ca 06       		.byte	0x6
 4473 07cb 14       		.uleb128 0x14
 4474 07cc 5B050000 		.4byte	.LASF119
 4475 07d0 07       		.byte	0x7
 4476 07d1 14       		.uleb128 0x14
 4477 07d2 52010000 		.4byte	.LASF120
 4478 07d6 08       		.byte	0x8
 4479 07d7 14       		.uleb128 0x14
 4480 07d8 C2080000 		.4byte	.LASF121
 4481 07dc 09       		.byte	0x9
 4482 07dd 14       		.uleb128 0x14
 4483 07de 2B090000 		.4byte	.LASF122
 4484 07e2 0A       		.byte	0xa
 4485 07e3 14       		.uleb128 0x14
 4486 07e4 7E090000 		.4byte	.LASF123
 4487 07e8 0B       		.byte	0xb
 4488 07e9 14       		.uleb128 0x14
 4489 07ea B3000000 		.4byte	.LASF124
 4490 07ee 0C       		.byte	0xc
 4491 07ef 14       		.uleb128 0x14
 4492 07f0 D8020000 		.4byte	.LASF125
 4493 07f4 0D       		.byte	0xd
 4494 07f5 14       		.uleb128 0x14
 4495 07f6 F9000000 		.4byte	.LASF126
 4496 07fa 0E       		.byte	0xe
 4497 07fb 14       		.uleb128 0x14
 4498 07fc 40090000 		.4byte	.LASF127
 4499 0800 0F       		.byte	0xf
 4500 0801 14       		.uleb128 0x14
 4501 0802 AD050000 		.4byte	.LASF128
ARM GAS  C:\Users\tmj32\AppData\Local\Temp\ccIZw7Ef.s 			page 100


 4502 0806 10       		.byte	0x10
 4503 0807 14       		.uleb128 0x14
 4504 0808 8F040000 		.4byte	.LASF129
 4505 080c 11       		.byte	0x11
 4506 080d 14       		.uleb128 0x14
 4507 080e 67070000 		.4byte	.LASF130
 4508 0812 12       		.byte	0x12
 4509 0813 14       		.uleb128 0x14
 4510 0814 12060000 		.4byte	.LASF131
 4511 0818 13       		.byte	0x13
 4512 0819 00       		.byte	0
 4513 081a 02       		.uleb128 0x2
 4514 081b A5090000 		.4byte	.LASF132
 4515 081f 0C       		.byte	0xc
 4516 0820 88       		.byte	0x88
 4517 0821 AD000000 		.4byte	0xad
 4518 0825 02       		.uleb128 0x2
 4519 0826 A9030000 		.4byte	.LASF133
 4520 082a 0C       		.byte	0xc
 4521 082b 8A       		.byte	0x8a
 4522 082c 30080000 		.4byte	0x830
 4523 0830 0D       		.uleb128 0xd
 4524 0831 04       		.byte	0x4
 4525 0832 36080000 		.4byte	0x836
 4526 0836 0B       		.uleb128 0xb
 4527 0837 63050000 		.4byte	0x563
 4528 083b 4F080000 		.4byte	0x84f
 4529 083f 0C       		.uleb128 0xc
 4530 0840 0F070000 		.4byte	0x70f
 4531 0844 0C       		.uleb128 0xc
 4532 0845 1A080000 		.4byte	0x81a
 4533 0849 0C       		.uleb128 0xc
 4534 084a E4000000 		.4byte	0xe4
 4535 084e 00       		.byte	0
 4536 084f 02       		.uleb128 0x2
 4537 0850 EE000000 		.4byte	.LASF134
 4538 0854 0C       		.byte	0xc
 4539 0855 A4       		.byte	0xa4
 4540 0856 AD000000 		.4byte	0xad
 4541 085a 06       		.uleb128 0x6
 4542 085b 0C       		.byte	0xc
 4543 085c 0C       		.byte	0xc
 4544 085d A7       		.byte	0xa7
 4545 085e B1080000 		.4byte	0x8b1
 4546 0862 07       		.uleb128 0x7
 4547 0863 A80B0000 		.4byte	.LASF135
 4548 0867 0C       		.byte	0xc
 4549 0868 A9       		.byte	0xa9
 4550 0869 B1080000 		.4byte	0x8b1
 4551 086d 00       		.byte	0
 4552 086e 07       		.uleb128 0x7
 4553 086f 500B0000 		.4byte	.LASF136
 4554 0873 0C       		.byte	0xc
 4555 0874 AA       		.byte	0xaa
 4556 0875 D9000000 		.4byte	0xd9
 4557 0879 04       		.byte	0x4
 4558 087a 07       		.uleb128 0x7
ARM GAS  C:\Users\tmj32\AppData\Local\Temp\ccIZw7Ef.s 			page 101


 4559 087b 13040000 		.4byte	.LASF137
 4560 087f 0C       		.byte	0xc
 4561 0880 AB       		.byte	0xab
 4562 0881 D9000000 		.4byte	0xd9
 4563 0885 06       		.byte	0x6
 4564 0886 07       		.uleb128 0x7
 4565 0887 CF070000 		.4byte	.LASF138
 4566 088b 0C       		.byte	0xc
 4567 088c AC       		.byte	0xac
 4568 088d 4F080000 		.4byte	0x84f
 4569 0891 08       		.byte	0x8
 4570 0892 0A       		.uleb128 0xa
 4571 0893 3A080000 		.4byte	.LASF139
 4572 0897 0C       		.byte	0xc
 4573 0898 AD       		.byte	0xad
 4574 0899 AD000000 		.4byte	0xad
 4575 089d 01       		.byte	0x1
 4576 089e 01       		.byte	0x1
 4577 089f 07       		.byte	0x7
 4578 08a0 09       		.byte	0x9
 4579 08a1 0A       		.uleb128 0xa
 4580 08a2 B30D0000 		.4byte	.LASF140
 4581 08a6 0C       		.byte	0xc
 4582 08a7 AE       		.byte	0xae
 4583 08a8 AD000000 		.4byte	0xad
 4584 08ac 01       		.byte	0x1
 4585 08ad 01       		.byte	0x1
 4586 08ae 06       		.byte	0x6
 4587 08af 09       		.byte	0x9
 4588 08b0 00       		.byte	0
 4589 08b1 0D       		.uleb128 0xd
 4590 08b2 04       		.byte	0x4
 4591 08b3 B7080000 		.4byte	0x8b7
 4592 08b7 0E       		.uleb128 0xe
 4593 08b8 CD050000 		.4byte	0x5cd
 4594 08bc 02       		.uleb128 0x2
 4595 08bd CF000000 		.4byte	.LASF141
 4596 08c1 0C       		.byte	0xc
 4597 08c2 B0       		.byte	0xb0
 4598 08c3 5A080000 		.4byte	0x85a
 4599 08c7 02       		.uleb128 0x2
 4600 08c8 EA080000 		.4byte	.LASF142
 4601 08cc 0C       		.byte	0xc
 4602 08cd B9       		.byte	0xb9
 4603 08ce AD000000 		.4byte	0xad
 4604 08d2 0D       		.uleb128 0xd
 4605 08d3 04       		.byte	0x4
 4606 08d4 D8080000 		.4byte	0x8d8
 4607 08d8 0E       		.uleb128 0xe
 4608 08d9 39050000 		.4byte	0x539
 4609 08dd 02       		.uleb128 0x2
 4610 08de 550B0000 		.4byte	.LASF143
 4611 08e2 0C       		.byte	0xc
 4612 08e3 F0       		.byte	0xf0
 4613 08e4 CD050000 		.4byte	0x5cd
 4614 08e8 13       		.uleb128 0x13
 4615 08e9 01       		.byte	0x1
ARM GAS  C:\Users\tmj32\AppData\Local\Temp\ccIZw7Ef.s 			page 102


 4616 08ea 42000000 		.4byte	0x42
 4617 08ee 0D       		.byte	0xd
 4618 08ef 2B       		.byte	0x2b
 4619 08f0 13090000 		.4byte	0x913
 4620 08f4 14       		.uleb128 0x14
 4621 08f5 59040000 		.4byte	.LASF144
 4622 08f9 00       		.byte	0
 4623 08fa 14       		.uleb128 0x14
 4624 08fb 74020000 		.4byte	.LASF145
 4625 08ff 01       		.byte	0x1
 4626 0900 14       		.uleb128 0x14
 4627 0901 BD050000 		.4byte	.LASF146
 4628 0905 02       		.byte	0x2
 4629 0906 14       		.uleb128 0x14
 4630 0907 30050000 		.4byte	.LASF147
 4631 090b 04       		.byte	0x4
 4632 090c 14       		.uleb128 0x14
 4633 090d 14020000 		.4byte	.LASF148
 4634 0911 08       		.byte	0x8
 4635 0912 00       		.byte	0
 4636 0913 02       		.uleb128 0x2
 4637 0914 11080000 		.4byte	.LASF149
 4638 0918 0D       		.byte	0xd
 4639 0919 32       		.byte	0x32
 4640 091a AD000000 		.4byte	0xad
 4641 091e 13       		.uleb128 0x13
 4642 091f 01       		.byte	0x1
 4643 0920 42000000 		.4byte	0x42
 4644 0924 0E       		.byte	0xe
 4645 0925 3B       		.byte	0x3b
 4646 0926 43090000 		.4byte	0x943
 4647 092a 14       		.uleb128 0x14
 4648 092b 050D0000 		.4byte	.LASF150
 4649 092f 00       		.byte	0
 4650 0930 14       		.uleb128 0x14
 4651 0931 AC010000 		.4byte	.LASF151
 4652 0935 01       		.byte	0x1
 4653 0936 14       		.uleb128 0x14
 4654 0937 3E030000 		.4byte	.LASF152
 4655 093b 02       		.byte	0x2
 4656 093c 14       		.uleb128 0x14
 4657 093d 9F000000 		.4byte	.LASF153
 4658 0941 03       		.byte	0x3
 4659 0942 00       		.byte	0
 4660 0943 02       		.uleb128 0x2
 4661 0944 53090000 		.4byte	.LASF154
 4662 0948 0E       		.byte	0xe
 4663 0949 41       		.byte	0x41
 4664 094a AD000000 		.4byte	0xad
 4665 094e 06       		.uleb128 0x6
 4666 094f 01       		.byte	0x1
 4667 0950 0F       		.byte	0xf
 4668 0951 33       		.byte	0x33
 4669 0952 93090000 		.4byte	0x993
 4670 0956 0A       		.uleb128 0xa
 4671 0957 CF070000 		.4byte	.LASF138
 4672 095b 0F       		.byte	0xf
ARM GAS  C:\Users\tmj32\AppData\Local\Temp\ccIZw7Ef.s 			page 103


 4673 095c 35       		.byte	0x35
 4674 095d AD000000 		.4byte	0xad
 4675 0961 01       		.byte	0x1
 4676 0962 02       		.byte	0x2
 4677 0963 06       		.byte	0x6
 4678 0964 00       		.byte	0
 4679 0965 0A       		.uleb128 0xa
 4680 0966 79000000 		.4byte	.LASF155
 4681 096a 0F       		.byte	0xf
 4682 096b 36       		.byte	0x36
 4683 096c AD000000 		.4byte	0xad
 4684 0970 01       		.byte	0x1
 4685 0971 01       		.byte	0x1
 4686 0972 05       		.byte	0x5
 4687 0973 00       		.byte	0
 4688 0974 0A       		.uleb128 0xa
 4689 0975 64010000 		.4byte	.LASF49
 4690 0979 0F       		.byte	0xf
 4691 097a 37       		.byte	0x37
 4692 097b AD000000 		.4byte	0xad
 4693 097f 01       		.byte	0x1
 4694 0980 02       		.byte	0x2
 4695 0981 03       		.byte	0x3
 4696 0982 00       		.byte	0
 4697 0983 0A       		.uleb128 0xa
 4698 0984 E00A0000 		.4byte	.LASF156
 4699 0988 0F       		.byte	0xf
 4700 0989 38       		.byte	0x38
 4701 098a AD000000 		.4byte	0xad
 4702 098e 01       		.byte	0x1
 4703 098f 01       		.byte	0x1
 4704 0990 02       		.byte	0x2
 4705 0991 00       		.byte	0
 4706 0992 00       		.byte	0
 4707 0993 0F       		.uleb128 0xf
 4708 0994 01       		.byte	0x1
 4709 0995 0F       		.byte	0xf
 4710 0996 31       		.byte	0x31
 4711 0997 B0090000 		.4byte	0x9b0
 4712 099b 10       		.uleb128 0x10
 4713 099c 7300     		.ascii	"s\000"
 4714 099e 0F       		.byte	0xf
 4715 099f 39       		.byte	0x39
 4716 09a0 4E090000 		.4byte	0x94e
 4717 09a4 11       		.uleb128 0x11
 4718 09a5 2C0D0000 		.4byte	.LASF157
 4719 09a9 0F       		.byte	0xf
 4720 09aa 3A       		.byte	0x3a
 4721 09ab AD000000 		.4byte	0xad
 4722 09af 00       		.byte	0
 4723 09b0 02       		.uleb128 0x2
 4724 09b1 AB080000 		.4byte	.LASF158
 4725 09b5 0F       		.byte	0xf
 4726 09b6 3B       		.byte	0x3b
 4727 09b7 93090000 		.4byte	0x993
 4728 09bb 06       		.uleb128 0x6
 4729 09bc 30       		.byte	0x30
ARM GAS  C:\Users\tmj32\AppData\Local\Temp\ccIZw7Ef.s 			page 104


 4730 09bd 0F       		.byte	0xf
 4731 09be 3E       		.byte	0x3e
 4732 09bf 000A0000 		.4byte	0xa00
 4733 09c3 07       		.uleb128 0x7
 4734 09c4 49020000 		.4byte	.LASF159
 4735 09c8 0F       		.byte	0xf
 4736 09c9 41       		.byte	0x41
 4737 09ca C3000000 		.4byte	0xc3
 4738 09ce 00       		.byte	0
 4739 09cf 07       		.uleb128 0x7
 4740 09d0 E8070000 		.4byte	.LASF160
 4741 09d4 0F       		.byte	0xf
 4742 09d5 42       		.byte	0x42
 4743 09d6 C3000000 		.4byte	0xc3
 4744 09da 02       		.byte	0x2
 4745 09db 07       		.uleb128 0x7
 4746 09dc 230A0000 		.4byte	.LASF161
 4747 09e0 0F       		.byte	0xf
 4748 09e1 43       		.byte	0x43
 4749 09e2 000A0000 		.4byte	0xa00
 4750 09e6 04       		.byte	0x4
 4751 09e7 07       		.uleb128 0x7
 4752 09e8 26010000 		.4byte	.LASF162
 4753 09ec 0F       		.byte	0xf
 4754 09ed 44       		.byte	0x44
 4755 09ee 060A0000 		.4byte	0xa06
 4756 09f2 08       		.byte	0x8
 4757 09f3 07       		.uleb128 0x7
 4758 09f4 82030000 		.4byte	.LASF163
 4759 09f8 0F       		.byte	0xf
 4760 09f9 45       		.byte	0x45
 4761 09fa 160A0000 		.4byte	0xa16
 4762 09fe 18       		.byte	0x18
 4763 09ff 00       		.byte	0
 4764 0a00 0D       		.uleb128 0xd
 4765 0a01 04       		.byte	0x4
 4766 0a02 8E020000 		.4byte	0x28e
 4767 0a06 17       		.uleb128 0x17
 4768 0a07 D2080000 		.4byte	0x8d2
 4769 0a0b 160A0000 		.4byte	0xa16
 4770 0a0f 18       		.uleb128 0x18
 4771 0a10 87020000 		.4byte	0x287
 4772 0a14 03       		.byte	0x3
 4773 0a15 00       		.byte	0
 4774 0a16 17       		.uleb128 0x17
 4775 0a17 D9000000 		.4byte	0xd9
 4776 0a1b 260A0000 		.4byte	0xa26
 4777 0a1f 18       		.uleb128 0x18
 4778 0a20 87020000 		.4byte	0x287
 4779 0a24 0B       		.byte	0xb
 4780 0a25 00       		.byte	0
 4781 0a26 02       		.uleb128 0x2
 4782 0a27 060C0000 		.4byte	.LASF164
 4783 0a2b 0F       		.byte	0xf
 4784 0a2c 46       		.byte	0x46
 4785 0a2d BB090000 		.4byte	0x9bb
 4786 0a31 13       		.uleb128 0x13
ARM GAS  C:\Users\tmj32\AppData\Local\Temp\ccIZw7Ef.s 			page 105


 4787 0a32 01       		.byte	0x1
 4788 0a33 42000000 		.4byte	0x42
 4789 0a37 0F       		.byte	0xf
 4790 0a38 49       		.byte	0x49
 4791 0a39 5C0A0000 		.4byte	0xa5c
 4792 0a3d 14       		.uleb128 0x14
 4793 0a3e D3030000 		.4byte	.LASF165
 4794 0a42 00       		.byte	0
 4795 0a43 14       		.uleb128 0x14
 4796 0a44 E5030000 		.4byte	.LASF166
 4797 0a48 01       		.byte	0x1
 4798 0a49 14       		.uleb128 0x14
 4799 0a4a F1020000 		.4byte	.LASF167
 4800 0a4e 02       		.byte	0x2
 4801 0a4f 14       		.uleb128 0x14
 4802 0a50 06030000 		.4byte	.LASF168
 4803 0a54 03       		.byte	0x3
 4804 0a55 14       		.uleb128 0x14
 4805 0a56 1B030000 		.4byte	.LASF169
 4806 0a5a 04       		.byte	0x4
 4807 0a5b 00       		.byte	0
 4808 0a5c 02       		.uleb128 0x2
 4809 0a5d 01060000 		.4byte	.LASF170
 4810 0a61 0F       		.byte	0xf
 4811 0a62 50       		.byte	0x50
 4812 0a63 AD000000 		.4byte	0xad
 4813 0a67 06       		.uleb128 0x6
 4814 0a68 14       		.byte	0x14
 4815 0a69 10       		.byte	0x10
 4816 0a6a 34       		.byte	0x34
 4817 0a6b AB0A0000 		.4byte	0xaab
 4818 0a6f 08       		.uleb128 0x8
 4819 0a70 72656C00 		.ascii	"rel\000"
 4820 0a74 10       		.byte	0x10
 4821 0a75 36       		.byte	0x36
 4822 0a76 44050000 		.4byte	0x544
 4823 0a7a 00       		.byte	0
 4824 0a7b 08       		.uleb128 0x8
 4825 0a7c 707200   		.ascii	"pr\000"
 4826 0a7f 10       		.byte	0x10
 4827 0a80 37       		.byte	0x37
 4828 0a81 44050000 		.4byte	0x544
 4829 0a85 04       		.byte	0x4
 4830 0a86 07       		.uleb128 0x7
 4831 0a87 24080000 		.4byte	.LASF171
 4832 0a8b 10       		.byte	0x10
 4833 0a8c 38       		.byte	0x38
 4834 0a8d 44050000 		.4byte	0x544
 4835 0a91 08       		.byte	0x8
 4836 0a92 07       		.uleb128 0x7
 4837 0a93 B6020000 		.4byte	.LASF172
 4838 0a97 10       		.byte	0x10
 4839 0a98 39       		.byte	0x39
 4840 0a99 44050000 		.4byte	0x544
 4841 0a9d 0C       		.byte	0xc
 4842 0a9e 08       		.uleb128 0x8
 4843 0a9f 696E6100 		.ascii	"ina\000"
ARM GAS  C:\Users\tmj32\AppData\Local\Temp\ccIZw7Ef.s 			page 106


 4844 0aa3 10       		.byte	0x10
 4845 0aa4 3A       		.byte	0x3a
 4846 0aa5 44050000 		.4byte	0x544
 4847 0aa9 10       		.byte	0x10
 4848 0aaa 00       		.byte	0
 4849 0aab 06       		.uleb128 0x6
 4850 0aac 14       		.byte	0x14
 4851 0aad 10       		.byte	0x10
 4852 0aae 3F       		.byte	0x3f
 4853 0aaf EF0A0000 		.4byte	0xaef
 4854 0ab3 08       		.uleb128 0x8
 4855 0ab4 72656C00 		.ascii	"rel\000"
 4856 0ab8 10       		.byte	0x10
 4857 0ab9 41       		.byte	0x41
 4858 0aba 44050000 		.4byte	0x544
 4859 0abe 00       		.byte	0
 4860 0abf 08       		.uleb128 0x8
 4861 0ac0 707200   		.ascii	"pr\000"
 4862 0ac3 10       		.byte	0x10
 4863 0ac4 42       		.byte	0x42
 4864 0ac5 44050000 		.4byte	0x544
 4865 0ac9 04       		.byte	0x4
 4866 0aca 07       		.uleb128 0x7
 4867 0acb 24080000 		.4byte	.LASF171
 4868 0acf 10       		.byte	0x10
 4869 0ad0 43       		.byte	0x43
 4870 0ad1 44050000 		.4byte	0x544
 4871 0ad5 08       		.byte	0x8
 4872 0ad6 07       		.uleb128 0x7
 4873 0ad7 B6020000 		.4byte	.LASF172
 4874 0adb 10       		.byte	0x10
 4875 0adc 44       		.byte	0x44
 4876 0add 44050000 		.4byte	0x544
 4877 0ae1 0C       		.byte	0xc
 4878 0ae2 08       		.uleb128 0x8
 4879 0ae3 696E6100 		.ascii	"ina\000"
 4880 0ae7 10       		.byte	0x10
 4881 0ae8 45       		.byte	0x45
 4882 0ae9 44050000 		.4byte	0x544
 4883 0aed 10       		.byte	0x10
 4884 0aee 00       		.byte	0
 4885 0aef 06       		.uleb128 0x6
 4886 0af0 0C       		.byte	0xc
 4887 0af1 10       		.byte	0x10
 4888 0af2 4A       		.byte	0x4a
 4889 0af3 1C0B0000 		.4byte	0xb1c
 4890 0af7 07       		.uleb128 0x7
 4891 0af8 A1010000 		.4byte	.LASF173
 4892 0afc 10       		.byte	0x10
 4893 0afd 4C       		.byte	0x4c
 4894 0afe 44050000 		.4byte	0x544
 4895 0b02 00       		.byte	0
 4896 0b03 08       		.uleb128 0x8
 4897 0b04 73656300 		.ascii	"sec\000"
 4898 0b08 10       		.byte	0x10
 4899 0b09 4D       		.byte	0x4d
 4900 0b0a 44050000 		.4byte	0x544
ARM GAS  C:\Users\tmj32\AppData\Local\Temp\ccIZw7Ef.s 			page 107


 4901 0b0e 04       		.byte	0x4
 4902 0b0f 07       		.uleb128 0x7
 4903 0b10 9D050000 		.4byte	.LASF174
 4904 0b14 10       		.byte	0x10
 4905 0b15 4E       		.byte	0x4e
 4906 0b16 44050000 		.4byte	0x544
 4907 0b1a 08       		.byte	0x8
 4908 0b1b 00       		.byte	0
 4909 0b1c 06       		.uleb128 0x6
 4910 0b1d 08       		.byte	0x8
 4911 0b1e 10       		.byte	0x10
 4912 0b1f 53       		.byte	0x53
 4913 0b20 3D0B0000 		.4byte	0xb3d
 4914 0b24 07       		.uleb128 0x7
 4915 0b25 96010000 		.4byte	.LASF175
 4916 0b29 10       		.byte	0x10
 4917 0b2a 55       		.byte	0x55
 4918 0b2b 44050000 		.4byte	0x544
 4919 0b2f 00       		.byte	0
 4920 0b30 07       		.uleb128 0x7
 4921 0b31 E70C0000 		.4byte	.LASF176
 4922 0b35 10       		.byte	0x10
 4923 0b36 56       		.byte	0x56
 4924 0b37 44050000 		.4byte	0x544
 4925 0b3b 04       		.byte	0x4
 4926 0b3c 00       		.byte	0
 4927 0b3d 06       		.uleb128 0x6
 4928 0b3e 04       		.byte	0x4
 4929 0b3f 10       		.byte	0x10
 4930 0b40 5B       		.byte	0x5b
 4931 0b41 520B0000 		.4byte	0xb52
 4932 0b45 07       		.uleb128 0x7
 4933 0b46 E50A0000 		.4byte	.LASF177
 4934 0b4a 10       		.byte	0x10
 4935 0b4b 5D       		.byte	0x5d
 4936 0b4c 44050000 		.4byte	0x544
 4937 0b50 00       		.byte	0
 4938 0b51 00       		.byte	0
 4939 0b52 06       		.uleb128 0x6
 4940 0b53 08       		.byte	0x8
 4941 0b54 10       		.byte	0x10
 4942 0b55 66       		.byte	0x66
 4943 0b56 720B0000 		.4byte	0xb72
 4944 0b5a 08       		.uleb128 0x8
 4945 0b5b 626700   		.ascii	"bg\000"
 4946 0b5e 10       		.byte	0x10
 4947 0b5f 68       		.byte	0x68
 4948 0b60 44050000 		.4byte	0x544
 4949 0b64 00       		.byte	0
 4950 0b65 07       		.uleb128 0x7
 4951 0b66 89070000 		.4byte	.LASF178
 4952 0b6a 10       		.byte	0x10
 4953 0b6b 69       		.byte	0x69
 4954 0b6c 44050000 		.4byte	0x544
 4955 0b70 04       		.byte	0x4
 4956 0b71 00       		.byte	0
 4957 0b72 06       		.uleb128 0x6
ARM GAS  C:\Users\tmj32\AppData\Local\Temp\ccIZw7Ef.s 			page 108


 4958 0b73 0C       		.byte	0xc
 4959 0b74 10       		.byte	0x10
 4960 0b75 6E       		.byte	0x6e
 4961 0b76 9E0B0000 		.4byte	0xb9e
 4962 0b7a 08       		.uleb128 0x8
 4963 0b7b 626700   		.ascii	"bg\000"
 4964 0b7e 10       		.byte	0x10
 4965 0b7f 70       		.byte	0x70
 4966 0b80 44050000 		.4byte	0x544
 4967 0b84 00       		.byte	0
 4968 0b85 07       		.uleb128 0x7
 4969 0b86 89070000 		.4byte	.LASF178
 4970 0b8a 10       		.byte	0x10
 4971 0b8b 71       		.byte	0x71
 4972 0b8c 44050000 		.4byte	0x544
 4973 0b90 04       		.byte	0x4
 4974 0b91 07       		.uleb128 0x7
 4975 0b92 BF0D0000 		.4byte	.LASF179
 4976 0b96 10       		.byte	0x10
 4977 0b97 72       		.byte	0x72
 4978 0b98 44050000 		.4byte	0x544
 4979 0b9c 08       		.byte	0x8
 4980 0b9d 00       		.byte	0
 4981 0b9e 06       		.uleb128 0x6
 4982 0b9f 10       		.byte	0x10
 4983 0ba0 10       		.byte	0x10
 4984 0ba1 87       		.byte	0x87
 4985 0ba2 D60B0000 		.4byte	0xbd6
 4986 0ba6 08       		.uleb128 0x8
 4987 0ba7 626700   		.ascii	"bg\000"
 4988 0baa 10       		.byte	0x10
 4989 0bab 89       		.byte	0x89
 4990 0bac 44050000 		.4byte	0x544
 4991 0bb0 00       		.byte	0
 4992 0bb1 07       		.uleb128 0x7
 4993 0bb2 89070000 		.4byte	.LASF178
 4994 0bb6 10       		.byte	0x10
 4995 0bb7 8A       		.byte	0x8a
 4996 0bb8 44050000 		.4byte	0x544
 4997 0bbc 04       		.byte	0x4
 4998 0bbd 07       		.uleb128 0x7
 4999 0bbe 9C080000 		.4byte	.LASF180
 5000 0bc2 10       		.byte	0x10
 5001 0bc3 8B       		.byte	0x8b
 5002 0bc4 44050000 		.4byte	0x544
 5003 0bc8 08       		.byte	0x8
 5004 0bc9 07       		.uleb128 0x7
 5005 0bca 88030000 		.4byte	.LASF181
 5006 0bce 10       		.byte	0x10
 5007 0bcf 8C       		.byte	0x8c
 5008 0bd0 44050000 		.4byte	0x544
 5009 0bd4 0C       		.byte	0xc
 5010 0bd5 00       		.byte	0
 5011 0bd6 06       		.uleb128 0x6
 5012 0bd7 20       		.byte	0x20
 5013 0bd8 10       		.byte	0x10
 5014 0bd9 95       		.byte	0x95
ARM GAS  C:\Users\tmj32\AppData\Local\Temp\ccIZw7Ef.s 			page 109


 5015 0bda 3E0C0000 		.4byte	0xc3e
 5016 0bde 08       		.uleb128 0x8
 5017 0bdf 626700   		.ascii	"bg\000"
 5018 0be2 10       		.byte	0x10
 5019 0be3 97       		.byte	0x97
 5020 0be4 44050000 		.4byte	0x544
 5021 0be8 00       		.byte	0
 5022 0be9 07       		.uleb128 0x7
 5023 0bea 9C030000 		.4byte	.LASF182
 5024 0bee 10       		.byte	0x10
 5025 0bef 98       		.byte	0x98
 5026 0bf0 44050000 		.4byte	0x544
 5027 0bf4 04       		.byte	0x4
 5028 0bf5 07       		.uleb128 0x7
 5029 0bf6 1A000000 		.4byte	.LASF183
 5030 0bfa 10       		.byte	0x10
 5031 0bfb 99       		.byte	0x99
 5032 0bfc 44050000 		.4byte	0x544
 5033 0c00 08       		.byte	0x8
 5034 0c01 07       		.uleb128 0x7
 5035 0c02 5B0C0000 		.4byte	.LASF184
 5036 0c06 10       		.byte	0x10
 5037 0c07 9A       		.byte	0x9a
 5038 0c08 44050000 		.4byte	0x544
 5039 0c0c 0C       		.byte	0xc
 5040 0c0d 07       		.uleb128 0x7
 5041 0c0e 15010000 		.4byte	.LASF185
 5042 0c12 10       		.byte	0x10
 5043 0c13 9B       		.byte	0x9b
 5044 0c14 44050000 		.4byte	0x544
 5045 0c18 10       		.byte	0x10
 5046 0c19 07       		.uleb128 0x7
 5047 0c1a D0040000 		.4byte	.LASF186
 5048 0c1e 10       		.byte	0x10
 5049 0c1f 9C       		.byte	0x9c
 5050 0c20 44050000 		.4byte	0x544
 5051 0c24 14       		.byte	0x14
 5052 0c25 07       		.uleb128 0x7
 5053 0c26 23040000 		.4byte	.LASF187
 5054 0c2a 10       		.byte	0x10
 5055 0c2b 9D       		.byte	0x9d
 5056 0c2c 44050000 		.4byte	0x544
 5057 0c30 18       		.byte	0x18
 5058 0c31 07       		.uleb128 0x7
 5059 0c32 AC020000 		.4byte	.LASF188
 5060 0c36 10       		.byte	0x10
 5061 0c37 9E       		.byte	0x9e
 5062 0c38 44050000 		.4byte	0x544
 5063 0c3c 1C       		.byte	0x1c
 5064 0c3d 00       		.byte	0
 5065 0c3e 06       		.uleb128 0x6
 5066 0c3f 14       		.byte	0x14
 5067 0c40 10       		.byte	0x10
 5068 0c41 A6       		.byte	0xa6
 5069 0c42 820C0000 		.4byte	0xc82
 5070 0c46 08       		.uleb128 0x8
 5071 0c47 72656C00 		.ascii	"rel\000"
ARM GAS  C:\Users\tmj32\AppData\Local\Temp\ccIZw7Ef.s 			page 110


 5072 0c4b 10       		.byte	0x10
 5073 0c4c A8       		.byte	0xa8
 5074 0c4d 44050000 		.4byte	0x544
 5075 0c51 00       		.byte	0
 5076 0c52 08       		.uleb128 0x8
 5077 0c53 707200   		.ascii	"pr\000"
 5078 0c56 10       		.byte	0x10
 5079 0c57 A9       		.byte	0xa9
 5080 0c58 44050000 		.4byte	0x544
 5081 0c5c 04       		.byte	0x4
 5082 0c5d 07       		.uleb128 0x7
 5083 0c5e 24080000 		.4byte	.LASF171
 5084 0c62 10       		.byte	0x10
 5085 0c63 AA       		.byte	0xaa
 5086 0c64 44050000 		.4byte	0x544
 5087 0c68 08       		.byte	0x8
 5088 0c69 07       		.uleb128 0x7
 5089 0c6a B6020000 		.4byte	.LASF172
 5090 0c6e 10       		.byte	0x10
 5091 0c6f AB       		.byte	0xab
 5092 0c70 44050000 		.4byte	0x544
 5093 0c74 0C       		.byte	0xc
 5094 0c75 08       		.uleb128 0x8
 5095 0c76 696E6100 		.ascii	"ina\000"
 5096 0c7a 10       		.byte	0x10
 5097 0c7b AC       		.byte	0xac
 5098 0c7c 44050000 		.4byte	0x544
 5099 0c80 10       		.byte	0x10
 5100 0c81 00       		.byte	0
 5101 0c82 06       		.uleb128 0x6
 5102 0c83 18       		.byte	0x18
 5103 0c84 10       		.byte	0x10
 5104 0c85 A3       		.byte	0xa3
 5105 0c86 A20C0000 		.4byte	0xca2
 5106 0c8a 08       		.uleb128 0x8
 5107 0c8b 626700   		.ascii	"bg\000"
 5108 0c8e 10       		.byte	0x10
 5109 0c8f A5       		.byte	0xa5
 5110 0c90 44050000 		.4byte	0x544
 5111 0c94 00       		.byte	0
 5112 0c95 08       		.uleb128 0x8
 5113 0c96 626F7800 		.ascii	"box\000"
 5114 0c9a 10       		.byte	0x10
 5115 0c9b AD       		.byte	0xad
 5116 0c9c 3E0C0000 		.4byte	0xc3e
 5117 0ca0 04       		.byte	0x4
 5118 0ca1 00       		.byte	0
 5119 0ca2 06       		.uleb128 0x6
 5120 0ca3 14       		.byte	0x14
 5121 0ca4 10       		.byte	0x10
 5122 0ca5 B5       		.byte	0xb5
 5123 0ca6 E60C0000 		.4byte	0xce6
 5124 0caa 08       		.uleb128 0x8
 5125 0cab 72656C00 		.ascii	"rel\000"
 5126 0caf 10       		.byte	0x10
 5127 0cb0 B7       		.byte	0xb7
 5128 0cb1 44050000 		.4byte	0x544
ARM GAS  C:\Users\tmj32\AppData\Local\Temp\ccIZw7Ef.s 			page 111


 5129 0cb5 00       		.byte	0
 5130 0cb6 08       		.uleb128 0x8
 5131 0cb7 707200   		.ascii	"pr\000"
 5132 0cba 10       		.byte	0x10
 5133 0cbb B8       		.byte	0xb8
 5134 0cbc 44050000 		.4byte	0x544
 5135 0cc0 04       		.byte	0x4
 5136 0cc1 07       		.uleb128 0x7
 5137 0cc2 24080000 		.4byte	.LASF171
 5138 0cc6 10       		.byte	0x10
 5139 0cc7 B9       		.byte	0xb9
 5140 0cc8 44050000 		.4byte	0x544
 5141 0ccc 08       		.byte	0x8
 5142 0ccd 07       		.uleb128 0x7
 5143 0cce B6020000 		.4byte	.LASF172
 5144 0cd2 10       		.byte	0x10
 5145 0cd3 BA       		.byte	0xba
 5146 0cd4 44050000 		.4byte	0x544
 5147 0cd8 0C       		.byte	0xc
 5148 0cd9 08       		.uleb128 0x8
 5149 0cda 696E6100 		.ascii	"ina\000"
 5150 0cde 10       		.byte	0x10
 5151 0cdf BB       		.byte	0xbb
 5152 0ce0 44050000 		.4byte	0x544
 5153 0ce4 10       		.byte	0x10
 5154 0ce5 00       		.byte	0
 5155 0ce6 06       		.uleb128 0x6
 5156 0ce7 18       		.byte	0x18
 5157 0ce8 10       		.byte	0x10
 5158 0ce9 B2       		.byte	0xb2
 5159 0cea 060D0000 		.4byte	0xd06
 5160 0cee 08       		.uleb128 0x8
 5161 0cef 626700   		.ascii	"bg\000"
 5162 0cf2 10       		.byte	0x10
 5163 0cf3 B4       		.byte	0xb4
 5164 0cf4 44050000 		.4byte	0x544
 5165 0cf8 00       		.byte	0
 5166 0cf9 08       		.uleb128 0x8
 5167 0cfa 62746E00 		.ascii	"btn\000"
 5168 0cfe 10       		.byte	0x10
 5169 0cff BC       		.byte	0xbc
 5170 0d00 A20C0000 		.4byte	0xca2
 5171 0d04 04       		.byte	0x4
 5172 0d05 00       		.byte	0
 5173 0d06 06       		.uleb128 0x6
 5174 0d07 14       		.byte	0x14
 5175 0d08 10       		.byte	0x10
 5176 0d09 C4       		.byte	0xc4
 5177 0d0a 4A0D0000 		.4byte	0xd4a
 5178 0d0e 08       		.uleb128 0x8
 5179 0d0f 72656C00 		.ascii	"rel\000"
 5180 0d13 10       		.byte	0x10
 5181 0d14 C6       		.byte	0xc6
 5182 0d15 44050000 		.4byte	0x544
 5183 0d19 00       		.byte	0
 5184 0d1a 08       		.uleb128 0x8
 5185 0d1b 707200   		.ascii	"pr\000"
ARM GAS  C:\Users\tmj32\AppData\Local\Temp\ccIZw7Ef.s 			page 112


 5186 0d1e 10       		.byte	0x10
 5187 0d1f C7       		.byte	0xc7
 5188 0d20 44050000 		.4byte	0x544
 5189 0d24 04       		.byte	0x4
 5190 0d25 07       		.uleb128 0x7
 5191 0d26 24080000 		.4byte	.LASF171
 5192 0d2a 10       		.byte	0x10
 5193 0d2b C8       		.byte	0xc8
 5194 0d2c 44050000 		.4byte	0x544
 5195 0d30 08       		.byte	0x8
 5196 0d31 07       		.uleb128 0x7
 5197 0d32 B6020000 		.4byte	.LASF172
 5198 0d36 10       		.byte	0x10
 5199 0d37 C9       		.byte	0xc9
 5200 0d38 44050000 		.4byte	0x544
 5201 0d3c 0C       		.byte	0xc
 5202 0d3d 08       		.uleb128 0x8
 5203 0d3e 696E6100 		.ascii	"ina\000"
 5204 0d42 10       		.byte	0x10
 5205 0d43 CA       		.byte	0xca
 5206 0d44 44050000 		.4byte	0x544
 5207 0d48 10       		.byte	0x10
 5208 0d49 00       		.byte	0
 5209 0d4a 06       		.uleb128 0x6
 5210 0d4b 18       		.byte	0x18
 5211 0d4c 10       		.byte	0x10
 5212 0d4d C1       		.byte	0xc1
 5213 0d4e 6A0D0000 		.4byte	0xd6a
 5214 0d52 08       		.uleb128 0x8
 5215 0d53 626700   		.ascii	"bg\000"
 5216 0d56 10       		.byte	0x10
 5217 0d57 C3       		.byte	0xc3
 5218 0d58 44050000 		.4byte	0x544
 5219 0d5c 00       		.byte	0
 5220 0d5d 08       		.uleb128 0x8
 5221 0d5e 62746E00 		.ascii	"btn\000"
 5222 0d62 10       		.byte	0x10
 5223 0d63 CB       		.byte	0xcb
 5224 0d64 060D0000 		.4byte	0xd06
 5225 0d68 04       		.byte	0x4
 5226 0d69 00       		.byte	0
 5227 0d6a 06       		.uleb128 0x6
 5228 0d6b 0C       		.byte	0xc
 5229 0d6c 10       		.byte	0x10
 5230 0d6d D3       		.byte	0xd3
 5231 0d6e 950D0000 		.4byte	0xd95
 5232 0d72 08       		.uleb128 0x8
 5233 0d73 626700   		.ascii	"bg\000"
 5234 0d76 10       		.byte	0x10
 5235 0d77 D5       		.byte	0xd5
 5236 0d78 44050000 		.4byte	0x544
 5237 0d7c 00       		.byte	0
 5238 0d7d 08       		.uleb128 0x8
 5239 0d7e 72656C00 		.ascii	"rel\000"
 5240 0d82 10       		.byte	0x10
 5241 0d83 D6       		.byte	0xd6
 5242 0d84 44050000 		.4byte	0x544
ARM GAS  C:\Users\tmj32\AppData\Local\Temp\ccIZw7Ef.s 			page 113


 5243 0d88 04       		.byte	0x4
 5244 0d89 08       		.uleb128 0x8
 5245 0d8a 707200   		.ascii	"pr\000"
 5246 0d8d 10       		.byte	0x10
 5247 0d8e D7       		.byte	0xd7
 5248 0d8f 44050000 		.4byte	0x544
 5249 0d93 08       		.byte	0x8
 5250 0d94 00       		.byte	0
 5251 0d95 06       		.uleb128 0x6
 5252 0d96 10       		.byte	0x10
 5253 0d97 10       		.byte	0x10
 5254 0d98 D0       		.byte	0xd0
 5255 0d99 B50D0000 		.4byte	0xdb5
 5256 0d9d 08       		.uleb128 0x8
 5257 0d9e 626700   		.ascii	"bg\000"
 5258 0da1 10       		.byte	0x10
 5259 0da2 D2       		.byte	0xd2
 5260 0da3 44050000 		.4byte	0x544
 5261 0da7 00       		.byte	0
 5262 0da8 08       		.uleb128 0x8
 5263 0da9 62746E00 		.ascii	"btn\000"
 5264 0dad 10       		.byte	0x10
 5265 0dae D8       		.byte	0xd8
 5266 0daf 6A0D0000 		.4byte	0xd6a
 5267 0db3 04       		.byte	0x4
 5268 0db4 00       		.byte	0
 5269 0db5 06       		.uleb128 0x6
 5270 0db6 0C       		.byte	0xc
 5271 0db7 10       		.byte	0x10
 5272 0db8 DD       		.byte	0xdd
 5273 0db9 E00D0000 		.4byte	0xde0
 5274 0dbd 08       		.uleb128 0x8
 5275 0dbe 626700   		.ascii	"bg\000"
 5276 0dc1 10       		.byte	0x10
 5277 0dc2 DF       		.byte	0xdf
 5278 0dc3 44050000 		.4byte	0x544
 5279 0dc7 00       		.byte	0
 5280 0dc8 07       		.uleb128 0x7
 5281 0dc9 CE020000 		.4byte	.LASF189
 5282 0dcd 10       		.byte	0x10
 5283 0dce E0       		.byte	0xe0
 5284 0dcf 44050000 		.4byte	0x544
 5285 0dd3 04       		.byte	0x4
 5286 0dd4 08       		.uleb128 0x8
 5287 0dd5 736200   		.ascii	"sb\000"
 5288 0dd8 10       		.byte	0x10
 5289 0dd9 E1       		.byte	0xe1
 5290 0dda 44050000 		.4byte	0x544
 5291 0dde 08       		.byte	0x8
 5292 0ddf 00       		.byte	0
 5293 0de0 06       		.uleb128 0x6
 5294 0de1 10       		.byte	0x10
 5295 0de2 10       		.byte	0x10
 5296 0de3 E6       		.byte	0xe6
 5297 0de4 180E0000 		.4byte	0xe18
 5298 0de8 07       		.uleb128 0x7
 5299 0de9 6E050000 		.4byte	.LASF190
ARM GAS  C:\Users\tmj32\AppData\Local\Temp\ccIZw7Ef.s 			page 114


 5300 0ded 10       		.byte	0x10
 5301 0dee E8       		.byte	0xe8
 5302 0def 44050000 		.4byte	0x544
 5303 0df3 00       		.byte	0
 5304 0df4 07       		.uleb128 0x7
 5305 0df5 3C060000 		.4byte	.LASF191
 5306 0df9 10       		.byte	0x10
 5307 0dfa E9       		.byte	0xe9
 5308 0dfb 44050000 		.4byte	0x544
 5309 0dff 04       		.byte	0x4
 5310 0e00 07       		.uleb128 0x7
 5311 0e01 EA0D0000 		.4byte	.LASF192
 5312 0e05 10       		.byte	0x10
 5313 0e06 EA       		.byte	0xea
 5314 0e07 44050000 		.4byte	0x544
 5315 0e0b 08       		.byte	0x8
 5316 0e0c 08       		.uleb128 0x8
 5317 0e0d 736200   		.ascii	"sb\000"
 5318 0e10 10       		.byte	0x10
 5319 0e11 EB       		.byte	0xeb
 5320 0e12 44050000 		.4byte	0x544
 5321 0e16 0C       		.byte	0xc
 5322 0e17 00       		.byte	0
 5323 0e18 06       		.uleb128 0x6
 5324 0e19 0C       		.byte	0xc
 5325 0e1a 10       		.byte	0x10
 5326 0e1b F0       		.byte	0xf0
 5327 0e1c 430E0000 		.4byte	0xe43
 5328 0e20 08       		.uleb128 0x8
 5329 0e21 626700   		.ascii	"bg\000"
 5330 0e24 10       		.byte	0x10
 5331 0e25 F2       		.byte	0xf2
 5332 0e26 44050000 		.4byte	0x544
 5333 0e2a 00       		.byte	0
 5334 0e2b 07       		.uleb128 0x7
 5335 0e2c EA0D0000 		.4byte	.LASF192
 5336 0e30 10       		.byte	0x10
 5337 0e31 F3       		.byte	0xf3
 5338 0e32 44050000 		.4byte	0x544
 5339 0e36 04       		.byte	0x4
 5340 0e37 08       		.uleb128 0x8
 5341 0e38 736200   		.ascii	"sb\000"
 5342 0e3b 10       		.byte	0x10
 5343 0e3c F4       		.byte	0xf4
 5344 0e3d 44050000 		.4byte	0x544
 5345 0e41 08       		.byte	0x8
 5346 0e42 00       		.byte	0
 5347 0e43 06       		.uleb128 0x6
 5348 0e44 14       		.byte	0x14
 5349 0e45 10       		.byte	0x10
 5350 0e46 FE       		.byte	0xfe
 5351 0e47 8C0E0000 		.4byte	0xe8c
 5352 0e4b 19       		.uleb128 0x19
 5353 0e4c 72656C00 		.ascii	"rel\000"
 5354 0e50 10       		.byte	0x10
 5355 0e51 0001     		.2byte	0x100
 5356 0e53 44050000 		.4byte	0x544
ARM GAS  C:\Users\tmj32\AppData\Local\Temp\ccIZw7Ef.s 			page 115


 5357 0e57 00       		.byte	0
 5358 0e58 19       		.uleb128 0x19
 5359 0e59 707200   		.ascii	"pr\000"
 5360 0e5c 10       		.byte	0x10
 5361 0e5d 0101     		.2byte	0x101
 5362 0e5f 44050000 		.4byte	0x544
 5363 0e63 04       		.byte	0x4
 5364 0e64 1A       		.uleb128 0x1a
 5365 0e65 24080000 		.4byte	.LASF171
 5366 0e69 10       		.byte	0x10
 5367 0e6a 0201     		.2byte	0x102
 5368 0e6c 44050000 		.4byte	0x544
 5369 0e70 08       		.byte	0x8
 5370 0e71 1A       		.uleb128 0x1a
 5371 0e72 B6020000 		.4byte	.LASF172
 5372 0e76 10       		.byte	0x10
 5373 0e77 0301     		.2byte	0x103
 5374 0e79 44050000 		.4byte	0x544
 5375 0e7d 0C       		.byte	0xc
 5376 0e7e 19       		.uleb128 0x19
 5377 0e7f 696E6100 		.ascii	"ina\000"
 5378 0e83 10       		.byte	0x10
 5379 0e84 0401     		.2byte	0x104
 5380 0e86 44050000 		.4byte	0x544
 5381 0e8a 10       		.byte	0x10
 5382 0e8b 00       		.byte	0
 5383 0e8c 06       		.uleb128 0x6
 5384 0e8d 20       		.byte	0x20
 5385 0e8e 10       		.byte	0x10
 5386 0e8f F9       		.byte	0xf9
 5387 0e90 C40E0000 		.4byte	0xec4
 5388 0e94 08       		.uleb128 0x8
 5389 0e95 626700   		.ascii	"bg\000"
 5390 0e98 10       		.byte	0x10
 5391 0e99 FB       		.byte	0xfb
 5392 0e9a 44050000 		.4byte	0x544
 5393 0e9e 00       		.byte	0
 5394 0e9f 07       		.uleb128 0x7
 5395 0ea0 CE020000 		.4byte	.LASF189
 5396 0ea4 10       		.byte	0x10
 5397 0ea5 FC       		.byte	0xfc
 5398 0ea6 44050000 		.4byte	0x544
 5399 0eaa 04       		.byte	0x4
 5400 0eab 08       		.uleb128 0x8
 5401 0eac 736200   		.ascii	"sb\000"
 5402 0eaf 10       		.byte	0x10
 5403 0eb0 FD       		.byte	0xfd
 5404 0eb1 44050000 		.4byte	0x544
 5405 0eb5 08       		.byte	0x8
 5406 0eb6 19       		.uleb128 0x19
 5407 0eb7 62746E00 		.ascii	"btn\000"
 5408 0ebb 10       		.byte	0x10
 5409 0ebc 0501     		.2byte	0x105
 5410 0ebe 430E0000 		.4byte	0xe43
 5411 0ec2 0C       		.byte	0xc
 5412 0ec3 00       		.byte	0
 5413 0ec4 1B       		.uleb128 0x1b
ARM GAS  C:\Users\tmj32\AppData\Local\Temp\ccIZw7Ef.s 			page 116


 5414 0ec5 0C       		.byte	0xc
 5415 0ec6 10       		.byte	0x10
 5416 0ec7 0A01     		.2byte	0x10a
 5417 0ec9 F30E0000 		.4byte	0xef3
 5418 0ecd 19       		.uleb128 0x19
 5419 0ece 626700   		.ascii	"bg\000"
 5420 0ed1 10       		.byte	0x10
 5421 0ed2 0C01     		.2byte	0x10c
 5422 0ed4 44050000 		.4byte	0x544
 5423 0ed8 00       		.byte	0
 5424 0ed9 19       		.uleb128 0x19
 5425 0eda 73656C00 		.ascii	"sel\000"
 5426 0ede 10       		.byte	0x10
 5427 0edf 0D01     		.2byte	0x10d
 5428 0ee1 44050000 		.4byte	0x544
 5429 0ee5 04       		.byte	0x4
 5430 0ee6 19       		.uleb128 0x19
 5431 0ee7 736200   		.ascii	"sb\000"
 5432 0eea 10       		.byte	0x10
 5433 0eeb 0E01     		.2byte	0x10e
 5434 0eed 44050000 		.4byte	0x544
 5435 0ef1 08       		.byte	0x8
 5436 0ef2 00       		.byte	0
 5437 0ef3 1B       		.uleb128 0x1b
 5438 0ef4 08       		.byte	0x8
 5439 0ef5 10       		.byte	0x10
 5440 0ef6 1301     		.2byte	0x113
 5441 0ef8 160F0000 		.4byte	0xf16
 5442 0efc 19       		.uleb128 0x19
 5443 0efd 626700   		.ascii	"bg\000"
 5444 0f00 10       		.byte	0x10
 5445 0f01 1501     		.2byte	0x115
 5446 0f03 44050000 		.4byte	0x544
 5447 0f07 00       		.byte	0
 5448 0f08 19       		.uleb128 0x19
 5449 0f09 73656C00 		.ascii	"sel\000"
 5450 0f0d 10       		.byte	0x10
 5451 0f0e 1601     		.2byte	0x116
 5452 0f10 44050000 		.4byte	0x544
 5453 0f14 04       		.byte	0x4
 5454 0f15 00       		.byte	0
 5455 0f16 1B       		.uleb128 0x1b
 5456 0f17 14       		.byte	0x14
 5457 0f18 10       		.byte	0x10
 5458 0f19 1F01     		.2byte	0x11f
 5459 0f1b 5F0F0000 		.4byte	0xf5f
 5460 0f1f 19       		.uleb128 0x19
 5461 0f20 626700   		.ascii	"bg\000"
 5462 0f23 10       		.byte	0x10
 5463 0f24 2101     		.2byte	0x121
 5464 0f26 44050000 		.4byte	0x544
 5465 0f2a 00       		.byte	0
 5466 0f2b 19       		.uleb128 0x19
 5467 0f2c 72656C00 		.ascii	"rel\000"
 5468 0f30 10       		.byte	0x10
 5469 0f31 2201     		.2byte	0x122
 5470 0f33 44050000 		.4byte	0x544
ARM GAS  C:\Users\tmj32\AppData\Local\Temp\ccIZw7Ef.s 			page 117


 5471 0f37 04       		.byte	0x4
 5472 0f38 19       		.uleb128 0x19
 5473 0f39 707200   		.ascii	"pr\000"
 5474 0f3c 10       		.byte	0x10
 5475 0f3d 2301     		.2byte	0x123
 5476 0f3f 44050000 		.4byte	0x544
 5477 0f43 08       		.byte	0x8
 5478 0f44 1A       		.uleb128 0x1a
 5479 0f45 24080000 		.4byte	.LASF171
 5480 0f49 10       		.byte	0x10
 5481 0f4a 2401     		.2byte	0x124
 5482 0f4c 44050000 		.4byte	0x544
 5483 0f50 0C       		.byte	0xc
 5484 0f51 1A       		.uleb128 0x1a
 5485 0f52 B6020000 		.4byte	.LASF172
 5486 0f56 10       		.byte	0x10
 5487 0f57 2501     		.2byte	0x125
 5488 0f59 44050000 		.4byte	0x544
 5489 0f5d 10       		.byte	0x10
 5490 0f5e 00       		.byte	0
 5491 0f5f 1B       		.uleb128 0x1b
 5492 0f60 1C       		.byte	0x1c
 5493 0f61 10       		.byte	0x10
 5494 0f62 1B01     		.2byte	0x11b
 5495 0f64 8F0F0000 		.4byte	0xf8f
 5496 0f68 19       		.uleb128 0x19
 5497 0f69 626700   		.ascii	"bg\000"
 5498 0f6c 10       		.byte	0x10
 5499 0f6d 1D01     		.2byte	0x11d
 5500 0f6f 44050000 		.4byte	0x544
 5501 0f73 00       		.byte	0
 5502 0f74 1A       		.uleb128 0x1a
 5503 0f75 89070000 		.4byte	.LASF178
 5504 0f79 10       		.byte	0x10
 5505 0f7a 1E01     		.2byte	0x11e
 5506 0f7c 44050000 		.4byte	0x544
 5507 0f80 04       		.byte	0x4
 5508 0f81 19       		.uleb128 0x19
 5509 0f82 62746E00 		.ascii	"btn\000"
 5510 0f86 10       		.byte	0x10
 5511 0f87 2601     		.2byte	0x126
 5512 0f89 160F0000 		.4byte	0xf16
 5513 0f8d 08       		.byte	0x8
 5514 0f8e 00       		.byte	0
 5515 0f8f 1B       		.uleb128 0x1b
 5516 0f90 0C       		.byte	0xc
 5517 0f91 10       		.byte	0x10
 5518 0f92 2B01     		.2byte	0x12b
 5519 0f94 BE0F0000 		.4byte	0xfbe
 5520 0f98 19       		.uleb128 0x19
 5521 0f99 626700   		.ascii	"bg\000"
 5522 0f9c 10       		.byte	0x10
 5523 0f9d 2D01     		.2byte	0x12d
 5524 0f9f 44050000 		.4byte	0x544
 5525 0fa3 00       		.byte	0
 5526 0fa4 1A       		.uleb128 0x1a
 5527 0fa5 CE020000 		.4byte	.LASF189
ARM GAS  C:\Users\tmj32\AppData\Local\Temp\ccIZw7Ef.s 			page 118


 5528 0fa9 10       		.byte	0x10
 5529 0faa 2E01     		.2byte	0x12e
 5530 0fac 44050000 		.4byte	0x544
 5531 0fb0 04       		.byte	0x4
 5532 0fb1 19       		.uleb128 0x19
 5533 0fb2 736200   		.ascii	"sb\000"
 5534 0fb5 10       		.byte	0x10
 5535 0fb6 2F01     		.2byte	0x12f
 5536 0fb8 44050000 		.4byte	0x544
 5537 0fbc 08       		.byte	0x8
 5538 0fbd 00       		.byte	0
 5539 0fbe 1B       		.uleb128 0x1b
 5540 0fbf 08       		.byte	0x8
 5541 0fc0 10       		.byte	0x10
 5542 0fc1 3401     		.2byte	0x134
 5543 0fc3 E10F0000 		.4byte	0xfe1
 5544 0fc7 19       		.uleb128 0x19
 5545 0fc8 626700   		.ascii	"bg\000"
 5546 0fcb 10       		.byte	0x10
 5547 0fcc 3601     		.2byte	0x136
 5548 0fce 44050000 		.4byte	0x544
 5549 0fd2 00       		.byte	0
 5550 0fd3 1A       		.uleb128 0x1a
 5551 0fd4 3A000000 		.4byte	.LASF193
 5552 0fd8 10       		.byte	0x10
 5553 0fd9 3701     		.2byte	0x137
 5554 0fdb 44050000 		.4byte	0x544
 5555 0fdf 04       		.byte	0x4
 5556 0fe0 00       		.byte	0
 5557 0fe1 1B       		.uleb128 0x1b
 5558 0fe2 08       		.byte	0x8
 5559 0fe3 10       		.byte	0x10
 5560 0fe4 4201     		.2byte	0x142
 5561 0fe6 04100000 		.4byte	0x1004
 5562 0fea 19       		.uleb128 0x19
 5563 0feb 72656C00 		.ascii	"rel\000"
 5564 0fef 10       		.byte	0x10
 5565 0ff0 4401     		.2byte	0x144
 5566 0ff2 44050000 		.4byte	0x544
 5567 0ff6 00       		.byte	0
 5568 0ff7 19       		.uleb128 0x19
 5569 0ff8 707200   		.ascii	"pr\000"
 5570 0ffb 10       		.byte	0x10
 5571 0ffc 4501     		.2byte	0x145
 5572 0ffe 44050000 		.4byte	0x544
 5573 1002 04       		.byte	0x4
 5574 1003 00       		.byte	0
 5575 1004 1B       		.uleb128 0x1b
 5576 1005 18       		.byte	0x18
 5577 1006 10       		.byte	0x10
 5578 1007 3C01     		.2byte	0x13c
 5579 1009 4D100000 		.4byte	0x104d
 5580 100d 19       		.uleb128 0x19
 5581 100e 626700   		.ascii	"bg\000"
 5582 1011 10       		.byte	0x10
 5583 1012 3E01     		.2byte	0x13e
 5584 1014 44050000 		.4byte	0x544
ARM GAS  C:\Users\tmj32\AppData\Local\Temp\ccIZw7Ef.s 			page 119


 5585 1018 00       		.byte	0
 5586 1019 19       		.uleb128 0x19
 5587 101a 736200   		.ascii	"sb\000"
 5588 101d 10       		.byte	0x10
 5589 101e 3F01     		.2byte	0x13f
 5590 1020 44050000 		.4byte	0x544
 5591 1024 04       		.byte	0x4
 5592 1025 1A       		.uleb128 0x1a
 5593 1026 9C030000 		.4byte	.LASF182
 5594 102a 10       		.byte	0x10
 5595 102b 4001     		.2byte	0x140
 5596 102d 44050000 		.4byte	0x544
 5597 1031 08       		.byte	0x8
 5598 1032 1A       		.uleb128 0x1a
 5599 1033 B10C0000 		.4byte	.LASF194
 5600 1037 10       		.byte	0x10
 5601 1038 4101     		.2byte	0x141
 5602 103a 44050000 		.4byte	0x544
 5603 103e 0C       		.byte	0xc
 5604 103f 19       		.uleb128 0x19
 5605 1040 62746E00 		.ascii	"btn\000"
 5606 1044 10       		.byte	0x10
 5607 1045 4601     		.2byte	0x146
 5608 1047 E10F0000 		.4byte	0xfe1
 5609 104b 10       		.byte	0x10
 5610 104c 00       		.byte	0
 5611 104d 1C       		.uleb128 0x1c
 5612 104e A801     		.2byte	0x1a8
 5613 1050 10       		.byte	0x10
 5614 1051 29       		.byte	0x29
 5615 1052 EF110000 		.4byte	0x11ef
 5616 1056 08       		.uleb128 0x8
 5617 1057 73637200 		.ascii	"scr\000"
 5618 105b 10       		.byte	0x10
 5619 105c 2B       		.byte	0x2b
 5620 105d 44050000 		.4byte	0x544
 5621 1061 00       		.byte	0
 5622 1062 08       		.uleb128 0x8
 5623 1063 626700   		.ascii	"bg\000"
 5624 1066 10       		.byte	0x10
 5625 1067 2C       		.byte	0x2c
 5626 1068 44050000 		.4byte	0x544
 5627 106c 04       		.byte	0x4
 5628 106d 07       		.uleb128 0x7
 5629 106e FC0A0000 		.4byte	.LASF195
 5630 1072 10       		.byte	0x10
 5631 1073 2D       		.byte	0x2d
 5632 1074 44050000 		.4byte	0x544
 5633 1078 08       		.byte	0x8
 5634 1079 07       		.uleb128 0x7
 5635 107a 9C010000 		.4byte	.LASF196
 5636 107e 10       		.byte	0x10
 5637 107f 30       		.byte	0x30
 5638 1080 44050000 		.4byte	0x544
 5639 1084 0C       		.byte	0xc
 5640 1085 08       		.uleb128 0x8
 5641 1086 62746E00 		.ascii	"btn\000"
ARM GAS  C:\Users\tmj32\AppData\Local\Temp\ccIZw7Ef.s 			page 120


 5642 108a 10       		.byte	0x10
 5643 108b 3B       		.byte	0x3b
 5644 108c 670A0000 		.4byte	0xa67
 5645 1090 10       		.byte	0x10
 5646 1091 07       		.uleb128 0x7
 5647 1092 EB0A0000 		.4byte	.LASF197
 5648 1096 10       		.byte	0x10
 5649 1097 46       		.byte	0x46
 5650 1098 AB0A0000 		.4byte	0xaab
 5651 109c 24       		.byte	0x24
 5652 109d 07       		.uleb128 0x7
 5653 109e 710D0000 		.4byte	.LASF198
 5654 10a2 10       		.byte	0x10
 5655 10a3 4F       		.byte	0x4f
 5656 10a4 EF0A0000 		.4byte	0xaef
 5657 10a8 38       		.byte	0x38
 5658 10a9 08       		.uleb128 0x8
 5659 10aa 696D6700 		.ascii	"img\000"
 5660 10ae 10       		.byte	0x10
 5661 10af 57       		.byte	0x57
 5662 10b0 1C0B0000 		.4byte	0xb1c
 5663 10b4 44       		.byte	0x44
 5664 10b5 07       		.uleb128 0x7
 5665 10b6 A8050000 		.4byte	.LASF71
 5666 10ba 10       		.byte	0x10
 5667 10bb 5E       		.byte	0x5e
 5668 10bc 3D0B0000 		.4byte	0xb3d
 5669 10c0 4C       		.byte	0x4c
 5670 10c1 08       		.uleb128 0x8
 5671 10c2 6C656400 		.ascii	"led\000"
 5672 10c6 10       		.byte	0x10
 5673 10c7 62       		.byte	0x62
 5674 10c8 44050000 		.4byte	0x544
 5675 10cc 50       		.byte	0x50
 5676 10cd 08       		.uleb128 0x8
 5677 10ce 62617200 		.ascii	"bar\000"
 5678 10d2 10       		.byte	0x10
 5679 10d3 6A       		.byte	0x6a
 5680 10d4 520B0000 		.4byte	0xb52
 5681 10d8 54       		.byte	0x54
 5682 10d9 07       		.uleb128 0x7
 5683 10da 850D0000 		.4byte	.LASF199
 5684 10de 10       		.byte	0x10
 5685 10df 73       		.byte	0x73
 5686 10e0 720B0000 		.4byte	0xb72
 5687 10e4 5C       		.byte	0x5c
 5688 10e5 07       		.uleb128 0x7
 5689 10e6 98000000 		.4byte	.LASF200
 5690 10ea 10       		.byte	0x10
 5691 10eb 77       		.byte	0x77
 5692 10ec 44050000 		.4byte	0x544
 5693 10f0 68       		.byte	0x68
 5694 10f1 07       		.uleb128 0x7
 5695 10f2 A5080000 		.4byte	.LASF201
 5696 10f6 10       		.byte	0x10
 5697 10f7 7B       		.byte	0x7b
 5698 10f8 44050000 		.4byte	0x544
ARM GAS  C:\Users\tmj32\AppData\Local\Temp\ccIZw7Ef.s 			page 121


 5699 10fc 6C       		.byte	0x6c
 5700 10fd 08       		.uleb128 0x8
 5701 10fe 61726300 		.ascii	"arc\000"
 5702 1102 10       		.byte	0x10
 5703 1103 7F       		.byte	0x7f
 5704 1104 44050000 		.4byte	0x544
 5705 1108 70       		.byte	0x70
 5706 1109 07       		.uleb128 0x7
 5707 110a AB0D0000 		.4byte	.LASF202
 5708 110e 10       		.byte	0x10
 5709 110f 83       		.byte	0x83
 5710 1110 44050000 		.4byte	0x544
 5711 1114 74       		.byte	0x74
 5712 1115 08       		.uleb128 0x8
 5713 1116 737700   		.ascii	"sw\000"
 5714 1119 10       		.byte	0x10
 5715 111a 8D       		.byte	0x8d
 5716 111b 9E0B0000 		.4byte	0xb9e
 5717 111f 78       		.byte	0x78
 5718 1120 07       		.uleb128 0x7
 5719 1121 A6010000 		.4byte	.LASF203
 5720 1125 10       		.byte	0x10
 5721 1126 91       		.byte	0x91
 5722 1127 44050000 		.4byte	0x544
 5723 112b 88       		.byte	0x88
 5724 112c 07       		.uleb128 0x7
 5725 112d 900B0000 		.4byte	.LASF204
 5726 1131 10       		.byte	0x10
 5727 1132 9F       		.byte	0x9f
 5728 1133 D60B0000 		.4byte	0xbd6
 5729 1137 8C       		.byte	0x8c
 5730 1138 08       		.uleb128 0x8
 5731 1139 636200   		.ascii	"cb\000"
 5732 113c 10       		.byte	0x10
 5733 113d AE       		.byte	0xae
 5734 113e 820C0000 		.4byte	0xc82
 5735 1142 AC       		.byte	0xac
 5736 1143 07       		.uleb128 0x7
 5737 1144 6F020000 		.4byte	.LASF205
 5738 1148 10       		.byte	0x10
 5739 1149 BD       		.byte	0xbd
 5740 114a E60C0000 		.4byte	0xce6
 5741 114e C4       		.byte	0xc4
 5742 114f 08       		.uleb128 0x8
 5743 1150 6B6200   		.ascii	"kb\000"
 5744 1153 10       		.byte	0x10
 5745 1154 CC       		.byte	0xcc
 5746 1155 4A0D0000 		.4byte	0xd4a
 5747 1159 DC       		.byte	0xdc
 5748 115a 07       		.uleb128 0x7
 5749 115b 1F080000 		.4byte	.LASF206
 5750 115f 10       		.byte	0x10
 5751 1160 D9       		.byte	0xd9
 5752 1161 950D0000 		.4byte	0xd95
 5753 1165 F4       		.byte	0xf4
 5754 1166 1D       		.uleb128 0x1d
 5755 1167 97080000 		.4byte	.LASF207
ARM GAS  C:\Users\tmj32\AppData\Local\Temp\ccIZw7Ef.s 			page 122


 5756 116b 10       		.byte	0x10
 5757 116c E2       		.byte	0xe2
 5758 116d B50D0000 		.4byte	0xdb5
 5759 1171 0401     		.2byte	0x104
 5760 1173 1E       		.uleb128 0x1e
 5761 1174 746100   		.ascii	"ta\000"
 5762 1177 10       		.byte	0x10
 5763 1178 EC       		.byte	0xec
 5764 1179 E00D0000 		.4byte	0xde0
 5765 117d 1001     		.2byte	0x110
 5766 117f 1D       		.uleb128 0x1d
 5767 1180 2F0C0000 		.4byte	.LASF208
 5768 1184 10       		.byte	0x10
 5769 1185 F5       		.byte	0xf5
 5770 1186 180E0000 		.4byte	0xe18
 5771 118a 2001     		.2byte	0x120
 5772 118c 1F       		.uleb128 0x1f
 5773 118d 7E080000 		.4byte	.LASF209
 5774 1191 10       		.byte	0x10
 5775 1192 0601     		.2byte	0x106
 5776 1194 8C0E0000 		.4byte	0xe8c
 5777 1198 2C01     		.2byte	0x12c
 5778 119a 1F       		.uleb128 0x1f
 5779 119b A1040000 		.4byte	.LASF210
 5780 119f 10       		.byte	0x10
 5781 11a0 0F01     		.2byte	0x10f
 5782 11a2 C40E0000 		.4byte	0xec4
 5783 11a6 4C01     		.2byte	0x14c
 5784 11a8 1F       		.uleb128 0x1f
 5785 11a9 340E0000 		.4byte	.LASF211
 5786 11ad 10       		.byte	0x10
 5787 11ae 1701     		.2byte	0x117
 5788 11b0 F30E0000 		.4byte	0xef3
 5789 11b4 5801     		.2byte	0x158
 5790 11b6 1F       		.uleb128 0x1f
 5791 11b7 A8070000 		.4byte	.LASF212
 5792 11bb 10       		.byte	0x10
 5793 11bc 2701     		.2byte	0x127
 5794 11be 5F0F0000 		.4byte	0xf5f
 5795 11c2 6001     		.2byte	0x160
 5796 11c4 1F       		.uleb128 0x1f
 5797 11c5 0B020000 		.4byte	.LASF213
 5798 11c9 10       		.byte	0x10
 5799 11ca 3001     		.2byte	0x130
 5800 11cc 8F0F0000 		.4byte	0xf8f
 5801 11d0 7C01     		.2byte	0x17c
 5802 11d2 1F       		.uleb128 0x1f
 5803 11d3 B8030000 		.4byte	.LASF214
 5804 11d7 10       		.byte	0x10
 5805 11d8 3801     		.2byte	0x138
 5806 11da BE0F0000 		.4byte	0xfbe
 5807 11de 8801     		.2byte	0x188
 5808 11e0 20       		.uleb128 0x20
 5809 11e1 77696E00 		.ascii	"win\000"
 5810 11e5 10       		.byte	0x10
 5811 11e6 4701     		.2byte	0x147
 5812 11e8 04100000 		.4byte	0x1004
ARM GAS  C:\Users\tmj32\AppData\Local\Temp\ccIZw7Ef.s 			page 123


 5813 11ec 9001     		.2byte	0x190
 5814 11ee 00       		.byte	0
 5815 11ef 1C       		.uleb128 0x1c
 5816 11f0 A801     		.2byte	0x1a8
 5817 11f2 10       		.byte	0x10
 5818 11f3 27       		.byte	0x27
 5819 11f4 06120000 		.4byte	0x1206
 5820 11f8 1A       		.uleb128 0x1a
 5821 11f9 F8080000 		.4byte	.LASF215
 5822 11fd 10       		.byte	0x10
 5823 11fe 4901     		.2byte	0x149
 5824 1200 4D100000 		.4byte	0x104d
 5825 1204 00       		.byte	0
 5826 1205 00       		.byte	0
 5827 1206 12       		.uleb128 0x12
 5828 1207 48050000 		.4byte	.LASF216
 5829 120b 10       		.byte	0x10
 5830 120c 5401     		.2byte	0x154
 5831 120e EF110000 		.4byte	0x11ef
 5832 1212 21       		.uleb128 0x21
 5833 1213 44000000 		.4byte	.LASF217
 5834 1217 01       		.byte	0x1
 5835 1218 7C       		.byte	0x7c
 5836 1219 AD000000 		.4byte	0xad
 5837 121d 00000000 		.4byte	.LFB0
 5838 1221 18000000 		.4byte	.LFE0-.LFB0
 5839 1225 01       		.uleb128 0x1
 5840 1226 9C       		.byte	0x9c
 5841 1227 3A120000 		.4byte	0x123a
 5842 122b 22       		.uleb128 0x22
 5843 122c A10C0000 		.4byte	.LASF219
 5844 1230 01       		.byte	0x1
 5845 1231 7C       		.byte	0x7c
 5846 1232 7D040000 		.4byte	0x47d
 5847 1236 02       		.uleb128 0x2
 5848 1237 91       		.byte	0x91
 5849 1238 74       		.sleb128 -12
 5850 1239 00       		.byte	0
 5851 123a 21       		.uleb128 0x21
 5852 123b 6C0C0000 		.4byte	.LASF218
 5853 123f 02       		.byte	0x2
 5854 1240 56       		.byte	0x56
 5855 1241 D9000000 		.4byte	0xd9
 5856 1245 00000000 		.4byte	.LFB11
 5857 1249 2E000000 		.4byte	.LFE11-.LFB11
 5858 124d 01       		.uleb128 0x1
 5859 124e 9C       		.byte	0x9c
 5860 124f 62120000 		.4byte	0x1262
 5861 1253 22       		.uleb128 0x22
 5862 1254 26020000 		.4byte	.LASF220
 5863 1258 02       		.byte	0x2
 5864 1259 56       		.byte	0x56
 5865 125a C2050000 		.4byte	0x5c2
 5866 125e 02       		.uleb128 0x2
 5867 125f 91       		.byte	0x91
 5868 1260 74       		.sleb128 -12
 5869 1261 00       		.byte	0
ARM GAS  C:\Users\tmj32\AppData\Local\Temp\ccIZw7Ef.s 			page 124


 5870 1262 23       		.uleb128 0x23
 5871 1263 6A040000 		.4byte	.LASF239
 5872 1267 03       		.byte	0x3
 5873 1268 37       		.byte	0x37
 5874 1269 F3120000 		.4byte	0x12f3
 5875 126d 00000000 		.4byte	.LFB33
 5876 1271 94010000 		.4byte	.LFE33-.LFB33
 5877 1275 01       		.uleb128 0x1
 5878 1276 9C       		.byte	0x9c
 5879 1277 F3120000 		.4byte	0x12f3
 5880 127b 24       		.uleb128 0x24
 5881 127c 70617200 		.ascii	"par\000"
 5882 1280 03       		.byte	0x3
 5883 1281 37       		.byte	0x37
 5884 1282 F3120000 		.4byte	0x12f3
 5885 1286 02       		.uleb128 0x2
 5886 1287 91       		.byte	0x91
 5887 1288 5C       		.sleb128 -36
 5888 1289 22       		.uleb128 0x22
 5889 128a FC050000 		.4byte	.LASF221
 5890 128e 03       		.byte	0x3
 5891 128f 37       		.byte	0x37
 5892 1290 F9120000 		.4byte	0x12f9
 5893 1294 02       		.uleb128 0x2
 5894 1295 91       		.byte	0x91
 5895 1296 58       		.sleb128 -40
 5896 1297 25       		.uleb128 0x25
 5897 1298 DD0C0000 		.4byte	.LASF222
 5898 129c 03       		.byte	0x3
 5899 129d 3C       		.byte	0x3c
 5900 129e F3120000 		.4byte	0x12f3
 5901 12a2 02       		.uleb128 0x2
 5902 12a3 91       		.byte	0x91
 5903 12a4 70       		.sleb128 -16
 5904 12a5 26       		.uleb128 0x26
 5905 12a6 65787400 		.ascii	"ext\000"
 5906 12aa 03       		.byte	0x3
 5907 12ab 41       		.byte	0x41
 5908 12ac 04130000 		.4byte	0x1304
 5909 12b0 02       		.uleb128 0x2
 5910 12b1 91       		.byte	0x91
 5911 12b2 6C       		.sleb128 -20
 5912 12b3 26       		.uleb128 0x26
 5913 12b4 6900     		.ascii	"i\000"
 5914 12b6 03       		.byte	0x3
 5915 12b7 50       		.byte	0x50
 5916 12b8 C3000000 		.4byte	0xc3
 5917 12bc 02       		.uleb128 0x2
 5918 12bd 91       		.byte	0x91
 5919 12be 76       		.sleb128 -10
 5920 12bf 27       		.uleb128 0x27
 5921 12c0 B8000000 		.4byte	.LBB2
 5922 12c4 70000000 		.4byte	.LBE2-.LBB2
 5923 12c8 DA120000 		.4byte	0x12da
 5924 12cc 26       		.uleb128 0x26
 5925 12cd 746800   		.ascii	"th\000"
 5926 12d0 03       		.byte	0x3
ARM GAS  C:\Users\tmj32\AppData\Local\Temp\ccIZw7Ef.s 			page 125


 5927 12d1 5C       		.byte	0x5c
 5928 12d2 0A130000 		.4byte	0x130a
 5929 12d6 02       		.uleb128 0x2
 5930 12d7 91       		.byte	0x91
 5931 12d8 68       		.sleb128 -24
 5932 12d9 00       		.byte	0
 5933 12da 28       		.uleb128 0x28
 5934 12db 2A010000 		.4byte	.LBB3
 5935 12df 46000000 		.4byte	.LBE3-.LBB3
 5936 12e3 25       		.uleb128 0x25
 5937 12e4 A80C0000 		.4byte	.LASF223
 5938 12e8 03       		.byte	0x3
 5939 12e9 6A       		.byte	0x6a
 5940 12ea 04130000 		.4byte	0x1304
 5941 12ee 02       		.uleb128 0x2
 5942 12ef 91       		.byte	0x91
 5943 12f0 64       		.sleb128 -28
 5944 12f1 00       		.byte	0
 5945 12f2 00       		.byte	0
 5946 12f3 0D       		.uleb128 0xd
 5947 12f4 04       		.byte	0x4
 5948 12f5 DD080000 		.4byte	0x8dd
 5949 12f9 0D       		.uleb128 0xd
 5950 12fa 04       		.byte	0x4
 5951 12fb FF120000 		.4byte	0x12ff
 5952 12ff 0E       		.uleb128 0xe
 5953 1300 DD080000 		.4byte	0x8dd
 5954 1304 0D       		.uleb128 0xd
 5955 1305 04       		.byte	0x4
 5956 1306 260A0000 		.4byte	0xa26
 5957 130a 0D       		.uleb128 0xd
 5958 130b 04       		.byte	0x4
 5959 130c 06120000 		.4byte	0x1206
 5960 1310 29       		.uleb128 0x29
 5961 1311 DE040000 		.4byte	.LASF225
 5962 1315 03       		.byte	0x3
 5963 1316 87       		.byte	0x87
 5964 1317 00000000 		.4byte	.LFB34
 5965 131b E2000000 		.4byte	.LFE34-.LFB34
 5966 131f 01       		.uleb128 0x1
 5967 1320 9C       		.byte	0x9c
 5968 1321 88130000 		.4byte	0x1388
 5969 1325 22       		.uleb128 0x22
 5970 1326 B8030000 		.4byte	.LASF214
 5971 132a 03       		.byte	0x3
 5972 132b 87       		.byte	0x87
 5973 132c F3120000 		.4byte	0x12f3
 5974 1330 02       		.uleb128 0x2
 5975 1331 91       		.byte	0x91
 5976 1332 5C       		.sleb128 -36
 5977 1333 24       		.uleb128 0x24
 5978 1334 726F7700 		.ascii	"row\000"
 5979 1338 03       		.byte	0x3
 5980 1339 87       		.byte	0x87
 5981 133a C3000000 		.4byte	0xc3
 5982 133e 02       		.uleb128 0x2
 5983 133f 91       		.byte	0x91
ARM GAS  C:\Users\tmj32\AppData\Local\Temp\ccIZw7Ef.s 			page 126


 5984 1340 5A       		.sleb128 -38
 5985 1341 24       		.uleb128 0x24
 5986 1342 636F6C00 		.ascii	"col\000"
 5987 1346 03       		.byte	0x3
 5988 1347 87       		.byte	0x87
 5989 1348 C3000000 		.4byte	0xc3
 5990 134c 02       		.uleb128 0x2
 5991 134d 91       		.byte	0x91
 5992 134e 58       		.sleb128 -40
 5993 134f 24       		.uleb128 0x24
 5994 1350 74787400 		.ascii	"txt\000"
 5995 1354 03       		.byte	0x3
 5996 1355 87       		.byte	0x87
 5997 1356 9B020000 		.4byte	0x29b
 5998 135a 02       		.uleb128 0x2
 5999 135b 91       		.byte	0x91
 6000 135c 54       		.sleb128 -44
 6001 135d 26       		.uleb128 0x26
 6002 135e 65787400 		.ascii	"ext\000"
 6003 1362 03       		.byte	0x3
 6004 1363 8C       		.byte	0x8c
 6005 1364 04130000 		.4byte	0x1304
 6006 1368 02       		.uleb128 0x2
 6007 1369 91       		.byte	0x91
 6008 136a 6C       		.sleb128 -20
 6009 136b 25       		.uleb128 0x25
 6010 136c 3A000000 		.4byte	.LASF193
 6011 1370 03       		.byte	0x3
 6012 1371 91       		.byte	0x91
 6013 1372 CE000000 		.4byte	0xce
 6014 1376 02       		.uleb128 0x2
 6015 1377 91       		.byte	0x91
 6016 1378 68       		.sleb128 -24
 6017 1379 25       		.uleb128 0x25
 6018 137a 96050000 		.4byte	.LASF224
 6019 137e 03       		.byte	0x3
 6020 137f 92       		.byte	0x92
 6021 1380 B0090000 		.4byte	0x9b0
 6022 1384 02       		.uleb128 0x2
 6023 1385 91       		.byte	0x91
 6024 1386 64       		.sleb128 -28
 6025 1387 00       		.byte	0
 6026 1388 29       		.uleb128 0x29
 6027 1389 69010000 		.4byte	.LASF226
 6028 138d 03       		.byte	0x3
 6029 138e B4       		.byte	0xb4
 6030 138f 00000000 		.4byte	.LFB35
 6031 1393 B0000000 		.4byte	.LFE35-.LFB35
 6032 1397 01       		.uleb128 0x1
 6033 1398 9C       		.byte	0x9c
 6034 1399 FC130000 		.4byte	0x13fc
 6035 139d 22       		.uleb128 0x22
 6036 139e B8030000 		.4byte	.LASF214
 6037 13a2 03       		.byte	0x3
 6038 13a3 B4       		.byte	0xb4
 6039 13a4 F3120000 		.4byte	0x12f3
 6040 13a8 02       		.uleb128 0x2
ARM GAS  C:\Users\tmj32\AppData\Local\Temp\ccIZw7Ef.s 			page 127


 6041 13a9 91       		.byte	0x91
 6042 13aa 64       		.sleb128 -28
 6043 13ab 22       		.uleb128 0x22
 6044 13ac E8070000 		.4byte	.LASF160
 6045 13b0 03       		.byte	0x3
 6046 13b1 B4       		.byte	0xb4
 6047 13b2 C3000000 		.4byte	0xc3
 6048 13b6 02       		.uleb128 0x2
 6049 13b7 91       		.byte	0x91
 6050 13b8 62       		.sleb128 -30
 6051 13b9 26       		.uleb128 0x26
 6052 13ba 65787400 		.ascii	"ext\000"
 6053 13be 03       		.byte	0x3
 6054 13bf B8       		.byte	0xb8
 6055 13c0 04130000 		.4byte	0x1304
 6056 13c4 02       		.uleb128 0x2
 6057 13c5 91       		.byte	0x91
 6058 13c6 74       		.sleb128 -12
 6059 13c7 25       		.uleb128 0x25
 6060 13c8 97070000 		.4byte	.LASF227
 6061 13cc 03       		.byte	0x3
 6062 13cd B9       		.byte	0xb9
 6063 13ce C3000000 		.4byte	0xc3
 6064 13d2 02       		.uleb128 0x2
 6065 13d3 91       		.byte	0x91
 6066 13d4 72       		.sleb128 -14
 6067 13d5 28       		.uleb128 0x28
 6068 13d6 5A000000 		.4byte	.LBB4
 6069 13da 36000000 		.4byte	.LBE4-.LBB4
 6070 13de 25       		.uleb128 0x25
 6071 13df FE010000 		.4byte	.LASF228
 6072 13e3 03       		.byte	0x3
 6073 13e4 C1       		.byte	0xc1
 6074 13e5 C3000000 		.4byte	0xc3
 6075 13e9 02       		.uleb128 0x2
 6076 13ea 91       		.byte	0x91
 6077 13eb 70       		.sleb128 -16
 6078 13ec 25       		.uleb128 0x25
 6079 13ed DB070000 		.4byte	.LASF229
 6080 13f1 03       		.byte	0x3
 6081 13f2 C2       		.byte	0xc2
 6082 13f3 CE000000 		.4byte	0xce
 6083 13f7 02       		.uleb128 0x2
 6084 13f8 91       		.byte	0x91
 6085 13f9 6C       		.sleb128 -20
 6086 13fa 00       		.byte	0
 6087 13fb 00       		.byte	0
 6088 13fc 29       		.uleb128 0x29
 6089 13fd F6090000 		.4byte	.LASF230
 6090 1401 03       		.byte	0x3
 6091 1402 D2       		.byte	0xd2
 6092 1403 00000000 		.4byte	.LFB36
 6093 1407 B8000000 		.4byte	.LFE36-.LFB36
 6094 140b 01       		.uleb128 0x1
 6095 140c 9C       		.byte	0x9c
 6096 140d 70140000 		.4byte	0x1470
 6097 1411 22       		.uleb128 0x22
ARM GAS  C:\Users\tmj32\AppData\Local\Temp\ccIZw7Ef.s 			page 128


 6098 1412 B8030000 		.4byte	.LASF214
 6099 1416 03       		.byte	0x3
 6100 1417 D2       		.byte	0xd2
 6101 1418 F3120000 		.4byte	0x12f3
 6102 141c 02       		.uleb128 0x2
 6103 141d 91       		.byte	0x91
 6104 141e 64       		.sleb128 -28
 6105 141f 22       		.uleb128 0x22
 6106 1420 49020000 		.4byte	.LASF159
 6107 1424 03       		.byte	0x3
 6108 1425 D2       		.byte	0xd2
 6109 1426 C3000000 		.4byte	0xc3
 6110 142a 02       		.uleb128 0x2
 6111 142b 91       		.byte	0x91
 6112 142c 62       		.sleb128 -30
 6113 142d 26       		.uleb128 0x26
 6114 142e 65787400 		.ascii	"ext\000"
 6115 1432 03       		.byte	0x3
 6116 1433 DB       		.byte	0xdb
 6117 1434 04130000 		.4byte	0x1304
 6118 1438 02       		.uleb128 0x2
 6119 1439 91       		.byte	0x91
 6120 143a 74       		.sleb128 -12
 6121 143b 25       		.uleb128 0x25
 6122 143c E8010000 		.4byte	.LASF231
 6123 1440 03       		.byte	0x3
 6124 1441 DC       		.byte	0xdc
 6125 1442 C3000000 		.4byte	0xc3
 6126 1446 02       		.uleb128 0x2
 6127 1447 91       		.byte	0x91
 6128 1448 72       		.sleb128 -14
 6129 1449 28       		.uleb128 0x28
 6130 144a 60000000 		.4byte	.LBB5
 6131 144e 36000000 		.4byte	.LBE5-.LBB5
 6132 1452 25       		.uleb128 0x25
 6133 1453 FE010000 		.4byte	.LASF228
 6134 1457 03       		.byte	0x3
 6135 1458 E3       		.byte	0xe3
 6136 1459 C3000000 		.4byte	0xc3
 6137 145d 02       		.uleb128 0x2
 6138 145e 91       		.byte	0x91
 6139 145f 70       		.sleb128 -16
 6140 1460 25       		.uleb128 0x25
 6141 1461 DB070000 		.4byte	.LASF229
 6142 1465 03       		.byte	0x3
 6143 1466 E4       		.byte	0xe4
 6144 1467 CE000000 		.4byte	0xce
 6145 146b 02       		.uleb128 0x2
 6146 146c 91       		.byte	0x91
 6147 146d 6C       		.sleb128 -20
 6148 146e 00       		.byte	0
 6149 146f 00       		.byte	0
 6150 1470 29       		.uleb128 0x29
 6151 1471 4A070000 		.4byte	.LASF232
 6152 1475 03       		.byte	0x3
 6153 1476 F5       		.byte	0xf5
 6154 1477 00000000 		.4byte	.LFB37
ARM GAS  C:\Users\tmj32\AppData\Local\Temp\ccIZw7Ef.s 			page 129


 6155 147b 3A000000 		.4byte	.LFE37-.LFB37
 6156 147f 01       		.uleb128 0x1
 6157 1480 9C       		.byte	0x9c
 6158 1481 BC140000 		.4byte	0x14bc
 6159 1485 22       		.uleb128 0x22
 6160 1486 B8030000 		.4byte	.LASF214
 6161 148a 03       		.byte	0x3
 6162 148b F5       		.byte	0xf5
 6163 148c F3120000 		.4byte	0x12f3
 6164 1490 02       		.uleb128 0x2
 6165 1491 91       		.byte	0x91
 6166 1492 6C       		.sleb128 -20
 6167 1493 22       		.uleb128 0x22
 6168 1494 FE080000 		.4byte	.LASF233
 6169 1498 03       		.byte	0x3
 6170 1499 F5       		.byte	0xf5
 6171 149a C3000000 		.4byte	0xc3
 6172 149e 02       		.uleb128 0x2
 6173 149f 91       		.byte	0x91
 6174 14a0 6A       		.sleb128 -22
 6175 14a1 24       		.uleb128 0x24
 6176 14a2 7700     		.ascii	"w\000"
 6177 14a4 03       		.byte	0x3
 6178 14a5 F5       		.byte	0xf5
 6179 14a6 D9000000 		.4byte	0xd9
 6180 14aa 02       		.uleb128 0x2
 6181 14ab 91       		.byte	0x91
 6182 14ac 68       		.sleb128 -24
 6183 14ad 26       		.uleb128 0x26
 6184 14ae 65787400 		.ascii	"ext\000"
 6185 14b2 03       		.byte	0x3
 6186 14b3 FE       		.byte	0xfe
 6187 14b4 04130000 		.4byte	0x1304
 6188 14b8 02       		.uleb128 0x2
 6189 14b9 91       		.byte	0x91
 6190 14ba 74       		.sleb128 -12
 6191 14bb 00       		.byte	0
 6192 14bc 2A       		.uleb128 0x2a
 6193 14bd 7E010000 		.4byte	.LASF234
 6194 14c1 03       		.byte	0x3
 6195 14c2 0A01     		.2byte	0x10a
 6196 14c4 00000000 		.4byte	.LFB38
 6197 14c8 C6000000 		.4byte	.LFE38-.LFB38
 6198 14cc 01       		.uleb128 0x1
 6199 14cd 9C       		.byte	0x9c
 6200 14ce 3C150000 		.4byte	0x153c
 6201 14d2 2B       		.uleb128 0x2b
 6202 14d3 B8030000 		.4byte	.LASF214
 6203 14d7 03       		.byte	0x3
 6204 14d8 0A01     		.2byte	0x10a
 6205 14da F3120000 		.4byte	0x12f3
 6206 14de 02       		.uleb128 0x2
 6207 14df 91       		.byte	0x91
 6208 14e0 5C       		.sleb128 -36
 6209 14e1 2C       		.uleb128 0x2c
 6210 14e2 726F7700 		.ascii	"row\000"
 6211 14e6 03       		.byte	0x3
ARM GAS  C:\Users\tmj32\AppData\Local\Temp\ccIZw7Ef.s 			page 130


 6212 14e7 0A01     		.2byte	0x10a
 6213 14e9 C3000000 		.4byte	0xc3
 6214 14ed 02       		.uleb128 0x2
 6215 14ee 91       		.byte	0x91
 6216 14ef 5A       		.sleb128 -38
 6217 14f0 2C       		.uleb128 0x2c
 6218 14f1 636F6C00 		.ascii	"col\000"
 6219 14f5 03       		.byte	0x3
 6220 14f6 0A01     		.2byte	0x10a
 6221 14f8 C3000000 		.4byte	0xc3
 6222 14fc 02       		.uleb128 0x2
 6223 14fd 91       		.byte	0x91
 6224 14fe 58       		.sleb128 -40
 6225 14ff 2B       		.uleb128 0x2b
 6226 1500 CF070000 		.4byte	.LASF138
 6227 1504 03       		.byte	0x3
 6228 1505 0A01     		.2byte	0x10a
 6229 1507 43090000 		.4byte	0x943
 6230 150b 02       		.uleb128 0x2
 6231 150c 91       		.byte	0x91
 6232 150d 57       		.sleb128 -41
 6233 150e 2D       		.uleb128 0x2d
 6234 150f 65787400 		.ascii	"ext\000"
 6235 1513 03       		.byte	0x3
 6236 1514 0E01     		.2byte	0x10e
 6237 1516 04130000 		.4byte	0x1304
 6238 151a 02       		.uleb128 0x2
 6239 151b 91       		.byte	0x91
 6240 151c 6C       		.sleb128 -20
 6241 151d 2E       		.uleb128 0x2e
 6242 151e 3A000000 		.4byte	.LASF193
 6243 1522 03       		.byte	0x3
 6244 1523 1301     		.2byte	0x113
 6245 1525 CE000000 		.4byte	0xce
 6246 1529 02       		.uleb128 0x2
 6247 152a 91       		.byte	0x91
 6248 152b 68       		.sleb128 -24
 6249 152c 2E       		.uleb128 0x2e
 6250 152d 96050000 		.4byte	.LASF224
 6251 1531 03       		.byte	0x3
 6252 1532 1B01     		.2byte	0x11b
 6253 1534 B0090000 		.4byte	0x9b0
 6254 1538 02       		.uleb128 0x2
 6255 1539 91       		.byte	0x91
 6256 153a 64       		.sleb128 -28
 6257 153b 00       		.byte	0
 6258 153c 2A       		.uleb128 0x2a
 6259 153d 66060000 		.4byte	.LASF235
 6260 1541 03       		.byte	0x3
 6261 1542 2801     		.2byte	0x128
 6262 1544 00000000 		.4byte	.LFB39
 6263 1548 DC000000 		.4byte	.LFE39-.LFB39
 6264 154c 01       		.uleb128 0x1
 6265 154d 9C       		.byte	0x9c
 6266 154e BC150000 		.4byte	0x15bc
 6267 1552 2B       		.uleb128 0x2b
 6268 1553 B8030000 		.4byte	.LASF214
ARM GAS  C:\Users\tmj32\AppData\Local\Temp\ccIZw7Ef.s 			page 131


 6269 1557 03       		.byte	0x3
 6270 1558 2801     		.2byte	0x128
 6271 155a F3120000 		.4byte	0x12f3
 6272 155e 02       		.uleb128 0x2
 6273 155f 91       		.byte	0x91
 6274 1560 5C       		.sleb128 -36
 6275 1561 2C       		.uleb128 0x2c
 6276 1562 726F7700 		.ascii	"row\000"
 6277 1566 03       		.byte	0x3
 6278 1567 2801     		.2byte	0x128
 6279 1569 C3000000 		.4byte	0xc3
 6280 156d 02       		.uleb128 0x2
 6281 156e 91       		.byte	0x91
 6282 156f 5A       		.sleb128 -38
 6283 1570 2C       		.uleb128 0x2c
 6284 1571 636F6C00 		.ascii	"col\000"
 6285 1575 03       		.byte	0x3
 6286 1576 2801     		.2byte	0x128
 6287 1578 C3000000 		.4byte	0xc3
 6288 157c 02       		.uleb128 0x2
 6289 157d 91       		.byte	0x91
 6290 157e 58       		.sleb128 -40
 6291 157f 2B       		.uleb128 0x2b
 6292 1580 64010000 		.4byte	.LASF49
 6293 1584 03       		.byte	0x3
 6294 1585 2801     		.2byte	0x128
 6295 1587 AD000000 		.4byte	0xad
 6296 158b 02       		.uleb128 0x2
 6297 158c 91       		.byte	0x91
 6298 158d 57       		.sleb128 -41
 6299 158e 2D       		.uleb128 0x2d
 6300 158f 65787400 		.ascii	"ext\000"
 6301 1593 03       		.byte	0x3
 6302 1594 2C01     		.2byte	0x12c
 6303 1596 04130000 		.4byte	0x1304
 6304 159a 02       		.uleb128 0x2
 6305 159b 91       		.byte	0x91
 6306 159c 6C       		.sleb128 -20
 6307 159d 2E       		.uleb128 0x2e
 6308 159e 3A000000 		.4byte	.LASF193
 6309 15a2 03       		.byte	0x3
 6310 15a3 3101     		.2byte	0x131
 6311 15a5 CE000000 		.4byte	0xce
 6312 15a9 02       		.uleb128 0x2
 6313 15aa 91       		.byte	0x91
 6314 15ab 68       		.sleb128 -24
 6315 15ac 2E       		.uleb128 0x2e
 6316 15ad 96050000 		.4byte	.LASF224
 6317 15b1 03       		.byte	0x3
 6318 15b2 3C01     		.2byte	0x13c
 6319 15b4 B0090000 		.4byte	0x9b0
 6320 15b8 02       		.uleb128 0x2
 6321 15b9 91       		.byte	0x91
 6322 15ba 64       		.sleb128 -28
 6323 15bb 00       		.byte	0
 6324 15bc 2A       		.uleb128 0x2a
 6325 15bd DB050000 		.4byte	.LASF236
ARM GAS  C:\Users\tmj32\AppData\Local\Temp\ccIZw7Ef.s 			page 132


 6326 15c1 03       		.byte	0x3
 6327 15c2 4901     		.2byte	0x149
 6328 15c4 00000000 		.4byte	.LFB40
 6329 15c8 C0000000 		.4byte	.LFE40-.LFB40
 6330 15cc 01       		.uleb128 0x1
 6331 15cd 9C       		.byte	0x9c
 6332 15ce 3C160000 		.4byte	0x163c
 6333 15d2 2B       		.uleb128 0x2b
 6334 15d3 B8030000 		.4byte	.LASF214
 6335 15d7 03       		.byte	0x3
 6336 15d8 4901     		.2byte	0x149
 6337 15da F3120000 		.4byte	0x12f3
 6338 15de 02       		.uleb128 0x2
 6339 15df 91       		.byte	0x91
 6340 15e0 5C       		.sleb128 -36
 6341 15e1 2C       		.uleb128 0x2c
 6342 15e2 726F7700 		.ascii	"row\000"
 6343 15e6 03       		.byte	0x3
 6344 15e7 4901     		.2byte	0x149
 6345 15e9 C3000000 		.4byte	0xc3
 6346 15ed 02       		.uleb128 0x2
 6347 15ee 91       		.byte	0x91
 6348 15ef 5A       		.sleb128 -38
 6349 15f0 2C       		.uleb128 0x2c
 6350 15f1 636F6C00 		.ascii	"col\000"
 6351 15f5 03       		.byte	0x3
 6352 15f6 4901     		.2byte	0x149
 6353 15f8 C3000000 		.4byte	0xc3
 6354 15fc 02       		.uleb128 0x2
 6355 15fd 91       		.byte	0x91
 6356 15fe 58       		.sleb128 -40
 6357 15ff 2B       		.uleb128 0x2b
 6358 1600 E00A0000 		.4byte	.LASF156
 6359 1604 03       		.byte	0x3
 6360 1605 4901     		.2byte	0x149
 6361 1607 BF010000 		.4byte	0x1bf
 6362 160b 02       		.uleb128 0x2
 6363 160c 91       		.byte	0x91
 6364 160d 57       		.sleb128 -41
 6365 160e 2D       		.uleb128 0x2d
 6366 160f 65787400 		.ascii	"ext\000"
 6367 1613 03       		.byte	0x3
 6368 1614 4D01     		.2byte	0x14d
 6369 1616 04130000 		.4byte	0x1304
 6370 161a 02       		.uleb128 0x2
 6371 161b 91       		.byte	0x91
 6372 161c 6C       		.sleb128 -20
 6373 161d 2E       		.uleb128 0x2e
 6374 161e 3A000000 		.4byte	.LASF193
 6375 1622 03       		.byte	0x3
 6376 1623 5201     		.2byte	0x152
 6377 1625 CE000000 		.4byte	0xce
 6378 1629 02       		.uleb128 0x2
 6379 162a 91       		.byte	0x91
 6380 162b 68       		.sleb128 -24
 6381 162c 2E       		.uleb128 0x2e
 6382 162d 96050000 		.4byte	.LASF224
ARM GAS  C:\Users\tmj32\AppData\Local\Temp\ccIZw7Ef.s 			page 133


 6383 1631 03       		.byte	0x3
 6384 1632 5A01     		.2byte	0x15a
 6385 1634 B0090000 		.4byte	0x9b0
 6386 1638 02       		.uleb128 0x2
 6387 1639 91       		.byte	0x91
 6388 163a 64       		.sleb128 -28
 6389 163b 00       		.byte	0
 6390 163c 2A       		.uleb128 0x2a
 6391 163d 51020000 		.4byte	.LASF237
 6392 1641 03       		.byte	0x3
 6393 1642 6701     		.2byte	0x167
 6394 1644 00000000 		.4byte	.LFB41
 6395 1648 CC000000 		.4byte	.LFE41-.LFB41
 6396 164c 01       		.uleb128 0x1
 6397 164d 9C       		.byte	0x9c
 6398 164e BB160000 		.4byte	0x16bb
 6399 1652 2B       		.uleb128 0x2b
 6400 1653 B8030000 		.4byte	.LASF214
 6401 1657 03       		.byte	0x3
 6402 1658 6701     		.2byte	0x167
 6403 165a F3120000 		.4byte	0x12f3
 6404 165e 02       		.uleb128 0x2
 6405 165f 91       		.byte	0x91
 6406 1660 5C       		.sleb128 -36
 6407 1661 2C       		.uleb128 0x2c
 6408 1662 726F7700 		.ascii	"row\000"
 6409 1666 03       		.byte	0x3
 6410 1667 6701     		.2byte	0x167
 6411 1669 C3000000 		.4byte	0xc3
 6412 166d 02       		.uleb128 0x2
 6413 166e 91       		.byte	0x91
 6414 166f 5A       		.sleb128 -38
 6415 1670 2C       		.uleb128 0x2c
 6416 1671 636F6C00 		.ascii	"col\000"
 6417 1675 03       		.byte	0x3
 6418 1676 6701     		.2byte	0x167
 6419 1678 C3000000 		.4byte	0xc3
 6420 167c 02       		.uleb128 0x2
 6421 167d 91       		.byte	0x91
 6422 167e 58       		.sleb128 -40
 6423 167f 2C       		.uleb128 0x2c
 6424 1680 656E00   		.ascii	"en\000"
 6425 1683 03       		.byte	0x3
 6426 1684 6701     		.2byte	0x167
 6427 1686 BF010000 		.4byte	0x1bf
 6428 168a 02       		.uleb128 0x2
 6429 168b 91       		.byte	0x91
 6430 168c 57       		.sleb128 -41
 6431 168d 2D       		.uleb128 0x2d
 6432 168e 65787400 		.ascii	"ext\000"
 6433 1692 03       		.byte	0x3
 6434 1693 6B01     		.2byte	0x16b
 6435 1695 04130000 		.4byte	0x1304
 6436 1699 02       		.uleb128 0x2
 6437 169a 91       		.byte	0x91
 6438 169b 6C       		.sleb128 -20
 6439 169c 2E       		.uleb128 0x2e
ARM GAS  C:\Users\tmj32\AppData\Local\Temp\ccIZw7Ef.s 			page 134


 6440 169d 3A000000 		.4byte	.LASF193
 6441 16a1 03       		.byte	0x3
 6442 16a2 7101     		.2byte	0x171
 6443 16a4 CE000000 		.4byte	0xce
 6444 16a8 02       		.uleb128 0x2
 6445 16a9 91       		.byte	0x91
 6446 16aa 68       		.sleb128 -24
 6447 16ab 2E       		.uleb128 0x2e
 6448 16ac 96050000 		.4byte	.LASF224
 6449 16b0 03       		.byte	0x3
 6450 16b1 7901     		.2byte	0x179
 6451 16b3 B0090000 		.4byte	0x9b0
 6452 16b7 02       		.uleb128 0x2
 6453 16b8 91       		.byte	0x91
 6454 16b9 64       		.sleb128 -28
 6455 16ba 00       		.byte	0
 6456 16bb 2A       		.uleb128 0x2a
 6457 16bc 29060000 		.4byte	.LASF238
 6458 16c0 03       		.byte	0x3
 6459 16c1 8601     		.2byte	0x186
 6460 16c3 00000000 		.4byte	.LFB42
 6461 16c7 88000000 		.4byte	.LFE42-.LFB42
 6462 16cb 01       		.uleb128 0x1
 6463 16cc 9C       		.byte	0x9c
 6464 16cd 0E170000 		.4byte	0x170e
 6465 16d1 2B       		.uleb128 0x2b
 6466 16d2 B8030000 		.4byte	.LASF214
 6467 16d6 03       		.byte	0x3
 6468 16d7 8601     		.2byte	0x186
 6469 16d9 F3120000 		.4byte	0x12f3
 6470 16dd 02       		.uleb128 0x2
 6471 16de 91       		.byte	0x91
 6472 16df 6C       		.sleb128 -20
 6473 16e0 2B       		.uleb128 0x2b
 6474 16e1 64010000 		.4byte	.LASF49
 6475 16e5 03       		.byte	0x3
 6476 16e6 8601     		.2byte	0x186
 6477 16e8 5C0A0000 		.4byte	0xa5c
 6478 16ec 02       		.uleb128 0x2
 6479 16ed 91       		.byte	0x91
 6480 16ee 6B       		.sleb128 -21
 6481 16ef 2B       		.uleb128 0x2b
 6482 16f0 F8080000 		.4byte	.LASF215
 6483 16f4 03       		.byte	0x3
 6484 16f5 8601     		.2byte	0x186
 6485 16f7 D2080000 		.4byte	0x8d2
 6486 16fb 02       		.uleb128 0x2
 6487 16fc 91       		.byte	0x91
 6488 16fd 64       		.sleb128 -28
 6489 16fe 2D       		.uleb128 0x2d
 6490 16ff 65787400 		.ascii	"ext\000"
 6491 1703 03       		.byte	0x3
 6492 1704 8A01     		.2byte	0x18a
 6493 1706 04130000 		.4byte	0x1304
 6494 170a 02       		.uleb128 0x2
 6495 170b 91       		.byte	0x91
 6496 170c 74       		.sleb128 -12
ARM GAS  C:\Users\tmj32\AppData\Local\Temp\ccIZw7Ef.s 			page 135


 6497 170d 00       		.byte	0
 6498 170e 2F       		.uleb128 0x2f
 6499 170f 0B0A0000 		.4byte	.LASF240
 6500 1713 03       		.byte	0x3
 6501 1714 AF01     		.2byte	0x1af
 6502 1716 9B020000 		.4byte	0x29b
 6503 171a 00000000 		.4byte	.LFB43
 6504 171e 70000000 		.4byte	.LFE43-.LFB43
 6505 1722 01       		.uleb128 0x1
 6506 1723 9C       		.byte	0x9c
 6507 1724 74170000 		.4byte	0x1774
 6508 1728 2B       		.uleb128 0x2b
 6509 1729 B8030000 		.4byte	.LASF214
 6510 172d 03       		.byte	0x3
 6511 172e AF01     		.2byte	0x1af
 6512 1730 F3120000 		.4byte	0x12f3
 6513 1734 02       		.uleb128 0x2
 6514 1735 91       		.byte	0x91
 6515 1736 6C       		.sleb128 -20
 6516 1737 2C       		.uleb128 0x2c
 6517 1738 726F7700 		.ascii	"row\000"
 6518 173c 03       		.byte	0x3
 6519 173d AF01     		.2byte	0x1af
 6520 173f C3000000 		.4byte	0xc3
 6521 1743 02       		.uleb128 0x2
 6522 1744 91       		.byte	0x91
 6523 1745 6A       		.sleb128 -22
 6524 1746 2C       		.uleb128 0x2c
 6525 1747 636F6C00 		.ascii	"col\000"
 6526 174b 03       		.byte	0x3
 6527 174c AF01     		.2byte	0x1af
 6528 174e C3000000 		.4byte	0xc3
 6529 1752 02       		.uleb128 0x2
 6530 1753 91       		.byte	0x91
 6531 1754 68       		.sleb128 -24
 6532 1755 2D       		.uleb128 0x2d
 6533 1756 65787400 		.ascii	"ext\000"
 6534 175a 03       		.byte	0x3
 6535 175b B301     		.2byte	0x1b3
 6536 175d 04130000 		.4byte	0x1304
 6537 1761 02       		.uleb128 0x2
 6538 1762 91       		.byte	0x91
 6539 1763 74       		.sleb128 -12
 6540 1764 2E       		.uleb128 0x2e
 6541 1765 3A000000 		.4byte	.LASF193
 6542 1769 03       		.byte	0x3
 6543 176a B801     		.2byte	0x1b8
 6544 176c CE000000 		.4byte	0xce
 6545 1770 02       		.uleb128 0x2
 6546 1771 91       		.byte	0x91
 6547 1772 70       		.sleb128 -16
 6548 1773 00       		.byte	0
 6549 1774 2F       		.uleb128 0x2f
 6550 1775 1B050000 		.4byte	.LASF241
 6551 1779 03       		.byte	0x3
 6552 177a C401     		.2byte	0x1c4
 6553 177c C3000000 		.4byte	0xc3
ARM GAS  C:\Users\tmj32\AppData\Local\Temp\ccIZw7Ef.s 			page 136


 6554 1780 00000000 		.4byte	.LFB44
 6555 1784 1C000000 		.4byte	.LFE44-.LFB44
 6556 1788 01       		.uleb128 0x1
 6557 1789 9C       		.byte	0x9c
 6558 178a AD170000 		.4byte	0x17ad
 6559 178e 2B       		.uleb128 0x2b
 6560 178f B8030000 		.4byte	.LASF214
 6561 1793 03       		.byte	0x3
 6562 1794 C401     		.2byte	0x1c4
 6563 1796 F3120000 		.4byte	0x12f3
 6564 179a 02       		.uleb128 0x2
 6565 179b 91       		.byte	0x91
 6566 179c 6C       		.sleb128 -20
 6567 179d 2D       		.uleb128 0x2d
 6568 179e 65787400 		.ascii	"ext\000"
 6569 17a2 03       		.byte	0x3
 6570 17a3 C801     		.2byte	0x1c8
 6571 17a5 04130000 		.4byte	0x1304
 6572 17a9 02       		.uleb128 0x2
 6573 17aa 91       		.byte	0x91
 6574 17ab 74       		.sleb128 -12
 6575 17ac 00       		.byte	0
 6576 17ad 2F       		.uleb128 0x2f
 6577 17ae 150E0000 		.4byte	.LASF242
 6578 17b2 03       		.byte	0x3
 6579 17b3 D101     		.2byte	0x1d1
 6580 17b5 C3000000 		.4byte	0xc3
 6581 17b9 00000000 		.4byte	.LFB45
 6582 17bd 1C000000 		.4byte	.LFE45-.LFB45
 6583 17c1 01       		.uleb128 0x1
 6584 17c2 9C       		.byte	0x9c
 6585 17c3 E6170000 		.4byte	0x17e6
 6586 17c7 2B       		.uleb128 0x2b
 6587 17c8 B8030000 		.4byte	.LASF214
 6588 17cc 03       		.byte	0x3
 6589 17cd D101     		.2byte	0x1d1
 6590 17cf F3120000 		.4byte	0x12f3
 6591 17d3 02       		.uleb128 0x2
 6592 17d4 91       		.byte	0x91
 6593 17d5 6C       		.sleb128 -20
 6594 17d6 2D       		.uleb128 0x2d
 6595 17d7 65787400 		.ascii	"ext\000"
 6596 17db 03       		.byte	0x3
 6597 17dc D501     		.2byte	0x1d5
 6598 17de 04130000 		.4byte	0x1304
 6599 17e2 02       		.uleb128 0x2
 6600 17e3 91       		.byte	0x91
 6601 17e4 74       		.sleb128 -12
 6602 17e5 00       		.byte	0
 6603 17e6 2F       		.uleb128 0x2f
 6604 17e7 32020000 		.4byte	.LASF243
 6605 17eb 03       		.byte	0x3
 6606 17ec DF01     		.2byte	0x1df
 6607 17ee D9000000 		.4byte	0xd9
 6608 17f2 00000000 		.4byte	.LFB46
 6609 17f6 30000000 		.4byte	.LFE46-.LFB46
 6610 17fa 01       		.uleb128 0x1
ARM GAS  C:\Users\tmj32\AppData\Local\Temp\ccIZw7Ef.s 			page 137


 6611 17fb 9C       		.byte	0x9c
 6612 17fc 2E180000 		.4byte	0x182e
 6613 1800 2B       		.uleb128 0x2b
 6614 1801 B8030000 		.4byte	.LASF214
 6615 1805 03       		.byte	0x3
 6616 1806 DF01     		.2byte	0x1df
 6617 1808 F3120000 		.4byte	0x12f3
 6618 180c 02       		.uleb128 0x2
 6619 180d 91       		.byte	0x91
 6620 180e 6C       		.sleb128 -20
 6621 180f 2B       		.uleb128 0x2b
 6622 1810 FE080000 		.4byte	.LASF233
 6623 1814 03       		.byte	0x3
 6624 1815 DF01     		.2byte	0x1df
 6625 1817 C3000000 		.4byte	0xc3
 6626 181b 02       		.uleb128 0x2
 6627 181c 91       		.byte	0x91
 6628 181d 6A       		.sleb128 -22
 6629 181e 2D       		.uleb128 0x2d
 6630 181f 65787400 		.ascii	"ext\000"
 6631 1823 03       		.byte	0x3
 6632 1824 E801     		.2byte	0x1e8
 6633 1826 04130000 		.4byte	0x1304
 6634 182a 02       		.uleb128 0x2
 6635 182b 91       		.byte	0x91
 6636 182c 74       		.sleb128 -12
 6637 182d 00       		.byte	0
 6638 182e 2F       		.uleb128 0x2f
 6639 182f 4E060000 		.4byte	.LASF244
 6640 1833 03       		.byte	0x3
 6641 1834 F401     		.2byte	0x1f4
 6642 1836 43090000 		.4byte	0x943
 6643 183a 00000000 		.4byte	.LFB47
 6644 183e 74000000 		.4byte	.LFE47-.LFB47
 6645 1842 01       		.uleb128 0x1
 6646 1843 9C       		.byte	0x9c
 6647 1844 AD180000 		.4byte	0x18ad
 6648 1848 2B       		.uleb128 0x2b
 6649 1849 B8030000 		.4byte	.LASF214
 6650 184d 03       		.byte	0x3
 6651 184e F401     		.2byte	0x1f4
 6652 1850 F3120000 		.4byte	0x12f3
 6653 1854 02       		.uleb128 0x2
 6654 1855 91       		.byte	0x91
 6655 1856 64       		.sleb128 -28
 6656 1857 2C       		.uleb128 0x2c
 6657 1858 726F7700 		.ascii	"row\000"
 6658 185c 03       		.byte	0x3
 6659 185d F401     		.2byte	0x1f4
 6660 185f C3000000 		.4byte	0xc3
 6661 1863 02       		.uleb128 0x2
 6662 1864 91       		.byte	0x91
 6663 1865 62       		.sleb128 -30
 6664 1866 2C       		.uleb128 0x2c
 6665 1867 636F6C00 		.ascii	"col\000"
 6666 186b 03       		.byte	0x3
 6667 186c F401     		.2byte	0x1f4
ARM GAS  C:\Users\tmj32\AppData\Local\Temp\ccIZw7Ef.s 			page 138


 6668 186e C3000000 		.4byte	0xc3
 6669 1872 02       		.uleb128 0x2
 6670 1873 91       		.byte	0x91
 6671 1874 60       		.sleb128 -32
 6672 1875 2D       		.uleb128 0x2d
 6673 1876 65787400 		.ascii	"ext\000"
 6674 187a 03       		.byte	0x3
 6675 187b F801     		.2byte	0x1f8
 6676 187d 04130000 		.4byte	0x1304
 6677 1881 02       		.uleb128 0x2
 6678 1882 91       		.byte	0x91
 6679 1883 74       		.sleb128 -12
 6680 1884 2E       		.uleb128 0x2e
 6681 1885 3A000000 		.4byte	.LASF193
 6682 1889 03       		.byte	0x3
 6683 188a FD01     		.2byte	0x1fd
 6684 188c CE000000 		.4byte	0xce
 6685 1890 02       		.uleb128 0x2
 6686 1891 91       		.byte	0x91
 6687 1892 70       		.sleb128 -16
 6688 1893 28       		.uleb128 0x28
 6689 1894 54000000 		.4byte	.LBB6
 6690 1898 18000000 		.4byte	.LBE6-.LBB6
 6691 189c 2E       		.uleb128 0x2e
 6692 189d 96050000 		.4byte	.LASF224
 6693 18a1 03       		.byte	0x3
 6694 18a2 0202     		.2byte	0x202
 6695 18a4 B0090000 		.4byte	0x9b0
 6696 18a8 02       		.uleb128 0x2
 6697 18a9 91       		.byte	0x91
 6698 18aa 6C       		.sleb128 -20
 6699 18ab 00       		.byte	0
 6700 18ac 00       		.byte	0
 6701 18ad 2F       		.uleb128 0x2f
 6702 18ae 370C0000 		.4byte	.LASF245
 6703 18b2 03       		.byte	0x3
 6704 18b3 0F02     		.2byte	0x20f
 6705 18b5 43090000 		.4byte	0x943
 6706 18b9 00000000 		.4byte	.LFB48
 6707 18bd 78000000 		.4byte	.LFE48-.LFB48
 6708 18c1 01       		.uleb128 0x1
 6709 18c2 9C       		.byte	0x9c
 6710 18c3 2C190000 		.4byte	0x192c
 6711 18c7 2B       		.uleb128 0x2b
 6712 18c8 B8030000 		.4byte	.LASF214
 6713 18cc 03       		.byte	0x3
 6714 18cd 0F02     		.2byte	0x20f
 6715 18cf F3120000 		.4byte	0x12f3
 6716 18d3 02       		.uleb128 0x2
 6717 18d4 91       		.byte	0x91
 6718 18d5 64       		.sleb128 -28
 6719 18d6 2C       		.uleb128 0x2c
 6720 18d7 726F7700 		.ascii	"row\000"
 6721 18db 03       		.byte	0x3
 6722 18dc 0F02     		.2byte	0x20f
 6723 18de C3000000 		.4byte	0xc3
 6724 18e2 02       		.uleb128 0x2
ARM GAS  C:\Users\tmj32\AppData\Local\Temp\ccIZw7Ef.s 			page 139


 6725 18e3 91       		.byte	0x91
 6726 18e4 62       		.sleb128 -30
 6727 18e5 2C       		.uleb128 0x2c
 6728 18e6 636F6C00 		.ascii	"col\000"
 6729 18ea 03       		.byte	0x3
 6730 18eb 0F02     		.2byte	0x20f
 6731 18ed C3000000 		.4byte	0xc3
 6732 18f1 02       		.uleb128 0x2
 6733 18f2 91       		.byte	0x91
 6734 18f3 60       		.sleb128 -32
 6735 18f4 2D       		.uleb128 0x2d
 6736 18f5 65787400 		.ascii	"ext\000"
 6737 18f9 03       		.byte	0x3
 6738 18fa 1302     		.2byte	0x213
 6739 18fc 04130000 		.4byte	0x1304
 6740 1900 02       		.uleb128 0x2
 6741 1901 91       		.byte	0x91
 6742 1902 74       		.sleb128 -12
 6743 1903 2E       		.uleb128 0x2e
 6744 1904 3A000000 		.4byte	.LASF193
 6745 1908 03       		.byte	0x3
 6746 1909 1802     		.2byte	0x218
 6747 190b CE000000 		.4byte	0xce
 6748 190f 02       		.uleb128 0x2
 6749 1910 91       		.byte	0x91
 6750 1911 70       		.sleb128 -16
 6751 1912 28       		.uleb128 0x28
 6752 1913 54000000 		.4byte	.LBB7
 6753 1917 1C000000 		.4byte	.LBE7-.LBB7
 6754 191b 2E       		.uleb128 0x2e
 6755 191c 96050000 		.4byte	.LASF224
 6756 1920 03       		.byte	0x3
 6757 1921 1D02     		.2byte	0x21d
 6758 1923 B0090000 		.4byte	0x9b0
 6759 1927 02       		.uleb128 0x2
 6760 1928 91       		.byte	0x91
 6761 1929 6C       		.sleb128 -20
 6762 192a 00       		.byte	0
 6763 192b 00       		.byte	0
 6764 192c 2F       		.uleb128 0x2f
 6765 192d E70B0000 		.4byte	.LASF246
 6766 1931 03       		.byte	0x3
 6767 1932 2A02     		.2byte	0x22a
 6768 1934 43090000 		.4byte	0x943
 6769 1938 00000000 		.4byte	.LFB49
 6770 193c 74000000 		.4byte	.LFE49-.LFB49
 6771 1940 01       		.uleb128 0x1
 6772 1941 9C       		.byte	0x9c
 6773 1942 AB190000 		.4byte	0x19ab
 6774 1946 2B       		.uleb128 0x2b
 6775 1947 B8030000 		.4byte	.LASF214
 6776 194b 03       		.byte	0x3
 6777 194c 2A02     		.2byte	0x22a
 6778 194e F3120000 		.4byte	0x12f3
 6779 1952 02       		.uleb128 0x2
 6780 1953 91       		.byte	0x91
 6781 1954 64       		.sleb128 -28
ARM GAS  C:\Users\tmj32\AppData\Local\Temp\ccIZw7Ef.s 			page 140


 6782 1955 2C       		.uleb128 0x2c
 6783 1956 726F7700 		.ascii	"row\000"
 6784 195a 03       		.byte	0x3
 6785 195b 2A02     		.2byte	0x22a
 6786 195d C3000000 		.4byte	0xc3
 6787 1961 02       		.uleb128 0x2
 6788 1962 91       		.byte	0x91
 6789 1963 62       		.sleb128 -30
 6790 1964 2C       		.uleb128 0x2c
 6791 1965 636F6C00 		.ascii	"col\000"
 6792 1969 03       		.byte	0x3
 6793 196a 2A02     		.2byte	0x22a
 6794 196c C3000000 		.4byte	0xc3
 6795 1970 02       		.uleb128 0x2
 6796 1971 91       		.byte	0x91
 6797 1972 60       		.sleb128 -32
 6798 1973 2D       		.uleb128 0x2d
 6799 1974 65787400 		.ascii	"ext\000"
 6800 1978 03       		.byte	0x3
 6801 1979 2E02     		.2byte	0x22e
 6802 197b 04130000 		.4byte	0x1304
 6803 197f 02       		.uleb128 0x2
 6804 1980 91       		.byte	0x91
 6805 1981 74       		.sleb128 -12
 6806 1982 2E       		.uleb128 0x2e
 6807 1983 3A000000 		.4byte	.LASF193
 6808 1987 03       		.byte	0x3
 6809 1988 3302     		.2byte	0x233
 6810 198a CE000000 		.4byte	0xce
 6811 198e 02       		.uleb128 0x2
 6812 198f 91       		.byte	0x91
 6813 1990 70       		.sleb128 -16
 6814 1991 28       		.uleb128 0x28
 6815 1992 54000000 		.4byte	.LBB8
 6816 1996 18000000 		.4byte	.LBE8-.LBB8
 6817 199a 2E       		.uleb128 0x2e
 6818 199b 96050000 		.4byte	.LASF224
 6819 199f 03       		.byte	0x3
 6820 19a0 3802     		.2byte	0x238
 6821 19a2 B0090000 		.4byte	0x9b0
 6822 19a6 02       		.uleb128 0x2
 6823 19a7 91       		.byte	0x91
 6824 19a8 6C       		.sleb128 -20
 6825 19a9 00       		.byte	0
 6826 19aa 00       		.byte	0
 6827 19ab 2F       		.uleb128 0x2f
 6828 19ac 530D0000 		.4byte	.LASF247
 6829 19b0 03       		.byte	0x3
 6830 19b1 4502     		.2byte	0x245
 6831 19b3 BF010000 		.4byte	0x1bf
 6832 19b7 00000000 		.4byte	.LFB50
 6833 19bb 7E000000 		.4byte	.LFE50-.LFB50
 6834 19bf 01       		.uleb128 0x1
 6835 19c0 9C       		.byte	0x9c
 6836 19c1 2A1A0000 		.4byte	0x1a2a
 6837 19c5 2B       		.uleb128 0x2b
 6838 19c6 B8030000 		.4byte	.LASF214
ARM GAS  C:\Users\tmj32\AppData\Local\Temp\ccIZw7Ef.s 			page 141


 6839 19ca 03       		.byte	0x3
 6840 19cb 4502     		.2byte	0x245
 6841 19cd F3120000 		.4byte	0x12f3
 6842 19d1 02       		.uleb128 0x2
 6843 19d2 91       		.byte	0x91
 6844 19d3 64       		.sleb128 -28
 6845 19d4 2C       		.uleb128 0x2c
 6846 19d5 726F7700 		.ascii	"row\000"
 6847 19d9 03       		.byte	0x3
 6848 19da 4502     		.2byte	0x245
 6849 19dc C3000000 		.4byte	0xc3
 6850 19e0 02       		.uleb128 0x2
 6851 19e1 91       		.byte	0x91
 6852 19e2 62       		.sleb128 -30
 6853 19e3 2C       		.uleb128 0x2c
 6854 19e4 636F6C00 		.ascii	"col\000"
 6855 19e8 03       		.byte	0x3
 6856 19e9 4502     		.2byte	0x245
 6857 19eb C3000000 		.4byte	0xc3
 6858 19ef 02       		.uleb128 0x2
 6859 19f0 91       		.byte	0x91
 6860 19f1 60       		.sleb128 -32
 6861 19f2 2D       		.uleb128 0x2d
 6862 19f3 65787400 		.ascii	"ext\000"
 6863 19f7 03       		.byte	0x3
 6864 19f8 4902     		.2byte	0x249
 6865 19fa 04130000 		.4byte	0x1304
 6866 19fe 02       		.uleb128 0x2
 6867 19ff 91       		.byte	0x91
 6868 1a00 74       		.sleb128 -12
 6869 1a01 2E       		.uleb128 0x2e
 6870 1a02 3A000000 		.4byte	.LASF193
 6871 1a06 03       		.byte	0x3
 6872 1a07 4F02     		.2byte	0x24f
 6873 1a09 CE000000 		.4byte	0xce
 6874 1a0d 02       		.uleb128 0x2
 6875 1a0e 91       		.byte	0x91
 6876 1a0f 70       		.sleb128 -16
 6877 1a10 28       		.uleb128 0x28
 6878 1a11 54000000 		.4byte	.LBB9
 6879 1a15 22000000 		.4byte	.LBE9-.LBB9
 6880 1a19 2E       		.uleb128 0x2e
 6881 1a1a 96050000 		.4byte	.LASF224
 6882 1a1e 03       		.byte	0x3
 6883 1a1f 5402     		.2byte	0x254
 6884 1a21 B0090000 		.4byte	0x9b0
 6885 1a25 02       		.uleb128 0x2
 6886 1a26 91       		.byte	0x91
 6887 1a27 6C       		.sleb128 -20
 6888 1a28 00       		.byte	0
 6889 1a29 00       		.byte	0
 6890 1a2a 2F       		.uleb128 0x2f
 6891 1a2b CF0B0000 		.4byte	.LASF248
 6892 1a2f 03       		.byte	0x3
 6893 1a30 6002     		.2byte	0x260
 6894 1a32 D2080000 		.4byte	0x8d2
 6895 1a36 00000000 		.4byte	.LFB51
ARM GAS  C:\Users\tmj32\AppData\Local\Temp\ccIZw7Ef.s 			page 142


 6896 1a3a 70000000 		.4byte	.LFE51-.LFB51
 6897 1a3e 01       		.uleb128 0x1
 6898 1a3f 9C       		.byte	0x9c
 6899 1a40 811A0000 		.4byte	0x1a81
 6900 1a44 2B       		.uleb128 0x2b
 6901 1a45 B8030000 		.4byte	.LASF214
 6902 1a49 03       		.byte	0x3
 6903 1a4a 6002     		.2byte	0x260
 6904 1a4c F9120000 		.4byte	0x12f9
 6905 1a50 02       		.uleb128 0x2
 6906 1a51 91       		.byte	0x91
 6907 1a52 6C       		.sleb128 -20
 6908 1a53 2B       		.uleb128 0x2b
 6909 1a54 64010000 		.4byte	.LASF49
 6910 1a58 03       		.byte	0x3
 6911 1a59 6002     		.2byte	0x260
 6912 1a5b 5C0A0000 		.4byte	0xa5c
 6913 1a5f 02       		.uleb128 0x2
 6914 1a60 91       		.byte	0x91
 6915 1a61 6B       		.sleb128 -21
 6916 1a62 2D       		.uleb128 0x2d
 6917 1a63 65787400 		.ascii	"ext\000"
 6918 1a67 03       		.byte	0x3
 6919 1a68 6402     		.2byte	0x264
 6920 1a6a 04130000 		.4byte	0x1304
 6921 1a6e 02       		.uleb128 0x2
 6922 1a6f 91       		.byte	0x91
 6923 1a70 70       		.sleb128 -16
 6924 1a71 2E       		.uleb128 0x2e
 6925 1a72 F8080000 		.4byte	.LASF215
 6926 1a76 03       		.byte	0x3
 6927 1a77 6502     		.2byte	0x265
 6928 1a79 D2080000 		.4byte	0x8d2
 6929 1a7d 02       		.uleb128 0x2
 6930 1a7e 91       		.byte	0x91
 6931 1a7f 74       		.sleb128 -12
 6932 1a80 00       		.byte	0
 6933 1a81 30       		.uleb128 0x30
 6934 1a82 94020000 		.4byte	.LASF249
 6935 1a86 03       		.byte	0x3
 6936 1a87 8102     		.2byte	0x281
 6937 1a89 BF010000 		.4byte	0x1bf
 6938 1a8d 00000000 		.4byte	.LFB52
 6939 1a91 AA050000 		.4byte	.LFE52-.LFB52
 6940 1a95 01       		.uleb128 0x1
 6941 1a96 9C       		.byte	0x9c
 6942 1a97 091C0000 		.4byte	0x1c09
 6943 1a9b 2B       		.uleb128 0x2b
 6944 1a9c B8030000 		.4byte	.LASF214
 6945 1aa0 03       		.byte	0x3
 6946 1aa1 8102     		.2byte	0x281
 6947 1aa3 F3120000 		.4byte	0x12f3
 6948 1aa7 03       		.uleb128 0x3
 6949 1aa8 91       		.byte	0x91
 6950 1aa9 CC7E     		.sleb128 -180
 6951 1aab 2B       		.uleb128 0x2b
 6952 1aac A3070000 		.4byte	.LASF250
ARM GAS  C:\Users\tmj32\AppData\Local\Temp\ccIZw7Ef.s 			page 143


 6953 1ab0 03       		.byte	0x3
 6954 1ab1 8102     		.2byte	0x281
 6955 1ab3 C2050000 		.4byte	0x5c2
 6956 1ab7 03       		.uleb128 0x3
 6957 1ab8 91       		.byte	0x91
 6958 1ab9 C87E     		.sleb128 -184
 6959 1abb 2B       		.uleb128 0x2b
 6960 1abc E20B0000 		.4byte	.LASF251
 6961 1ac0 03       		.byte	0x3
 6962 1ac1 8102     		.2byte	0x281
 6963 1ac3 34070000 		.4byte	0x734
 6964 1ac7 03       		.uleb128 0x3
 6965 1ac8 91       		.byte	0x91
 6966 1ac9 C77E     		.sleb128 -185
 6967 1acb 28       		.uleb128 0x28
 6968 1acc 22000000 		.4byte	.LBB10
 6969 1ad0 7C050000 		.4byte	.LBE10-.LBB10
 6970 1ad4 2D       		.uleb128 0x2d
 6971 1ad5 65787400 		.ascii	"ext\000"
 6972 1ad9 03       		.byte	0x3
 6973 1ada 8B02     		.2byte	0x28b
 6974 1adc 04130000 		.4byte	0x1304
 6975 1ae0 02       		.uleb128 0x2
 6976 1ae1 91       		.byte	0x91
 6977 1ae2 58       		.sleb128 -40
 6978 1ae3 2E       		.uleb128 0x2e
 6979 1ae4 8E080000 		.4byte	.LASF252
 6980 1ae8 03       		.byte	0x3
 6981 1ae9 8C02     		.2byte	0x28c
 6982 1aeb D2080000 		.4byte	0x8d2
 6983 1aef 02       		.uleb128 0x2
 6984 1af0 91       		.byte	0x91
 6985 1af1 54       		.sleb128 -44
 6986 1af2 2E       		.uleb128 0x2e
 6987 1af3 C2010000 		.4byte	.LASF253
 6988 1af7 03       		.byte	0x3
 6989 1af8 8D02     		.2byte	0x28d
 6990 1afa D9000000 		.4byte	0xd9
 6991 1afe 02       		.uleb128 0x2
 6992 1aff 91       		.byte	0x91
 6993 1b00 50       		.sleb128 -48
 6994 1b01 2E       		.uleb128 0x2e
 6995 1b02 D40C0000 		.4byte	.LASF254
 6996 1b06 03       		.byte	0x3
 6997 1b07 8E02     		.2byte	0x28e
 6998 1b09 C3020000 		.4byte	0x2c3
 6999 1b0d 02       		.uleb128 0x2
 7000 1b0e 91       		.byte	0x91
 7001 1b0f 48       		.sleb128 -56
 7002 1b10 2E       		.uleb128 0x2e
 7003 1b11 F4010000 		.4byte	.LASF255
 7004 1b15 03       		.byte	0x3
 7005 1b16 8F02     		.2byte	0x28f
 7006 1b18 03030000 		.4byte	0x303
 7007 1b1c 02       		.uleb128 0x2
 7008 1b1d 91       		.byte	0x91
 7009 1b1e 40       		.sleb128 -64
ARM GAS  C:\Users\tmj32\AppData\Local\Temp\ccIZw7Ef.s 			page 144


 7010 1b1f 2E       		.uleb128 0x2e
 7011 1b20 430D0000 		.4byte	.LASF256
 7012 1b24 03       		.byte	0x3
 7013 1b25 9002     		.2byte	0x290
 7014 1b27 03030000 		.4byte	0x303
 7015 1b2b 03       		.uleb128 0x3
 7016 1b2c 91       		.byte	0x91
 7017 1b2d B87F     		.sleb128 -72
 7018 1b2f 2E       		.uleb128 0x2e
 7019 1b30 C6040000 		.4byte	.LASF257
 7020 1b34 03       		.byte	0x3
 7021 1b35 9102     		.2byte	0x291
 7022 1b37 13090000 		.4byte	0x913
 7023 1b3b 02       		.uleb128 0x2
 7024 1b3c 91       		.byte	0x91
 7025 1b3d 67       		.sleb128 -25
 7026 1b3e 2E       		.uleb128 0x2e
 7027 1b3f 2A0E0000 		.4byte	.LASF102
 7028 1b43 03       		.byte	0x3
 7029 1b44 9202     		.2byte	0x292
 7030 1b46 7B020000 		.4byte	0x27b
 7031 1b4a 02       		.uleb128 0x2
 7032 1b4b 91       		.byte	0x91
 7033 1b4c 53       		.sleb128 -45
 7034 1b4d 2D       		.uleb128 0x2d
 7035 1b4e 636F6C00 		.ascii	"col\000"
 7036 1b52 03       		.byte	0x3
 7037 1b53 9402     		.2byte	0x294
 7038 1b55 C3000000 		.4byte	0xc3
 7039 1b59 02       		.uleb128 0x2
 7040 1b5a 91       		.byte	0x91
 7041 1b5b 64       		.sleb128 -28
 7042 1b5c 2D       		.uleb128 0x2d
 7043 1b5d 726F7700 		.ascii	"row\000"
 7044 1b61 03       		.byte	0x3
 7045 1b62 9502     		.2byte	0x295
 7046 1b64 C3000000 		.4byte	0xc3
 7047 1b68 02       		.uleb128 0x2
 7048 1b69 91       		.byte	0x91
 7049 1b6a 62       		.sleb128 -30
 7050 1b6b 2E       		.uleb128 0x2e
 7051 1b6c 3A000000 		.4byte	.LASF193
 7052 1b70 03       		.byte	0x3
 7053 1b71 9602     		.2byte	0x296
 7054 1b73 C3000000 		.4byte	0xc3
 7055 1b77 02       		.uleb128 0x2
 7056 1b78 91       		.byte	0x91
 7057 1b79 60       		.sleb128 -32
 7058 1b7a 28       		.uleb128 0x28
 7059 1b7b D6000000 		.4byte	.LBB11
 7060 1b7f 94040000 		.4byte	.LBE11-.LBB11
 7061 1b83 2E       		.uleb128 0x2e
 7062 1b84 96050000 		.4byte	.LASF224
 7063 1b88 03       		.byte	0x3
 7064 1b89 A302     		.2byte	0x2a3
 7065 1b8b B0090000 		.4byte	0x9b0
 7066 1b8f 03       		.uleb128 0x3
ARM GAS  C:\Users\tmj32\AppData\Local\Temp\ccIZw7Ef.s 			page 145


 7067 1b90 91       		.byte	0x91
 7068 1b91 B47F     		.sleb128 -76
 7069 1b93 2E       		.uleb128 0x2e
 7070 1b94 26010000 		.4byte	.LASF162
 7071 1b98 03       		.byte	0x3
 7072 1b99 AE02     		.2byte	0x2ae
 7073 1b9b 39050000 		.4byte	0x539
 7074 1b9f 03       		.uleb128 0x3
 7075 1ba0 91       		.byte	0x91
 7076 1ba1 D47E     		.sleb128 -172
 7077 1ba3 2E       		.uleb128 0x2e
 7078 1ba4 F2050000 		.4byte	.LASF258
 7079 1ba8 03       		.byte	0x3
 7080 1ba9 B302     		.2byte	0x2b3
 7081 1bab C3000000 		.4byte	0xc3
 7082 1baf 02       		.uleb128 0x2
 7083 1bb0 91       		.byte	0x91
 7084 1bb1 5E       		.sleb128 -34
 7085 1bb2 28       		.uleb128 0x28
 7086 1bb3 52020000 		.4byte	.LBB12
 7087 1bb7 F8020000 		.4byte	.LBE12-.LBB12
 7088 1bbb 2E       		.uleb128 0x2e
 7089 1bbc D0050000 		.4byte	.LASF259
 7090 1bc0 03       		.byte	0x3
 7091 1bc1 E102     		.2byte	0x2e1
 7092 1bc3 03030000 		.4byte	0x303
 7093 1bc7 03       		.uleb128 0x3
 7094 1bc8 91       		.byte	0x91
 7095 1bc9 AC7F     		.sleb128 -84
 7096 1bcb 2E       		.uleb128 0x2e
 7097 1bcc 2C080000 		.4byte	.LASF260
 7098 1bd0 03       		.byte	0x3
 7099 1bd1 E202     		.2byte	0x2e2
 7100 1bd3 BF010000 		.4byte	0x1bf
 7101 1bd7 02       		.uleb128 0x2
 7102 1bd8 91       		.byte	0x91
 7103 1bd9 4F       		.sleb128 -49
 7104 1bda 2D       		.uleb128 0x2d
 7105 1bdb 703100   		.ascii	"p1\000"
 7106 1bde 03       		.byte	0x3
 7107 1bdf E902     		.2byte	0x2e9
 7108 1be1 C3020000 		.4byte	0x2c3
 7109 1be5 03       		.uleb128 0x3
 7110 1be6 91       		.byte	0x91
 7111 1be7 A87F     		.sleb128 -88
 7112 1be9 2D       		.uleb128 0x2d
 7113 1bea 703200   		.ascii	"p2\000"
 7114 1bed 03       		.byte	0x3
 7115 1bee EA02     		.2byte	0x2ea
 7116 1bf0 C3020000 		.4byte	0x2c3
 7117 1bf4 03       		.uleb128 0x3
 7118 1bf5 91       		.byte	0x91
 7119 1bf6 A47F     		.sleb128 -92
 7120 1bf8 2D       		.uleb128 0x2d
 7121 1bf9 6900     		.ascii	"i\000"
 7122 1bfb 03       		.byte	0x3
 7123 1bfc ED02     		.2byte	0x2ed
ARM GAS  C:\Users\tmj32\AppData\Local\Temp\ccIZw7Ef.s 			page 146


 7124 1bfe C3000000 		.4byte	0xc3
 7125 1c02 02       		.uleb128 0x2
 7126 1c03 91       		.byte	0x91
 7127 1c04 5C       		.sleb128 -36
 7128 1c05 00       		.byte	0
 7129 1c06 00       		.byte	0
 7130 1c07 00       		.byte	0
 7131 1c08 00       		.byte	0
 7132 1c09 30       		.uleb128 0x30
 7133 1c0a BE030000 		.4byte	.LASF261
 7134 1c0e 03       		.byte	0x3
 7135 1c0f 1103     		.2byte	0x311
 7136 1c11 63050000 		.4byte	0x563
 7137 1c15 00000000 		.4byte	.LFB53
 7138 1c19 BC000000 		.4byte	.LFE53-.LFB53
 7139 1c1d 01       		.uleb128 0x1
 7140 1c1e 9C       		.byte	0x9c
 7141 1c1f 881C0000 		.4byte	0x1c88
 7142 1c23 2B       		.uleb128 0x2b
 7143 1c24 B8030000 		.4byte	.LASF214
 7144 1c28 03       		.byte	0x3
 7145 1c29 1103     		.2byte	0x311
 7146 1c2b F3120000 		.4byte	0x12f3
 7147 1c2f 02       		.uleb128 0x2
 7148 1c30 91       		.byte	0x91
 7149 1c31 6C       		.sleb128 -20
 7150 1c32 2B       		.uleb128 0x2b
 7151 1c33 31010000 		.4byte	.LASF262
 7152 1c37 03       		.byte	0x3
 7153 1c38 1103     		.2byte	0x311
 7154 1c3a 1A080000 		.4byte	0x81a
 7155 1c3e 02       		.uleb128 0x2
 7156 1c3f 91       		.byte	0x91
 7157 1c40 6B       		.sleb128 -21
 7158 1c41 2B       		.uleb128 0x2b
 7159 1c42 A2050000 		.4byte	.LASF263
 7160 1c46 03       		.byte	0x3
 7161 1c47 1103     		.2byte	0x311
 7162 1c49 E4000000 		.4byte	0xe4
 7163 1c4d 02       		.uleb128 0x2
 7164 1c4e 91       		.byte	0x91
 7165 1c4f 64       		.sleb128 -28
 7166 1c50 2D       		.uleb128 0x2d
 7167 1c51 72657300 		.ascii	"res\000"
 7168 1c55 03       		.byte	0x3
 7169 1c56 1303     		.2byte	0x313
 7170 1c58 63050000 		.4byte	0x563
 7171 1c5c 02       		.uleb128 0x2
 7172 1c5d 91       		.byte	0x91
 7173 1c5e 75       		.sleb128 -11
 7174 1c5f 28       		.uleb128 0x28
 7175 1c60 40000000 		.4byte	.LBB13
 7176 1c64 6A000000 		.4byte	.LBE13-.LBB13
 7177 1c68 2D       		.uleb128 0x2d
 7178 1c69 65787400 		.ascii	"ext\000"
 7179 1c6d 03       		.byte	0x3
 7180 1c6e 1C03     		.2byte	0x31c
ARM GAS  C:\Users\tmj32\AppData\Local\Temp\ccIZw7Ef.s 			page 147


 7181 1c70 04130000 		.4byte	0x1304
 7182 1c74 02       		.uleb128 0x2
 7183 1c75 91       		.byte	0x91
 7184 1c76 70       		.sleb128 -16
 7185 1c77 2E       		.uleb128 0x2e
 7186 1c78 3A000000 		.4byte	.LASF193
 7187 1c7c 03       		.byte	0x3
 7188 1c7d 1D03     		.2byte	0x31d
 7189 1c7f C3000000 		.4byte	0xc3
 7190 1c83 02       		.uleb128 0x2
 7191 1c84 91       		.byte	0x91
 7192 1c85 76       		.sleb128 -10
 7193 1c86 00       		.byte	0
 7194 1c87 00       		.byte	0
 7195 1c88 31       		.uleb128 0x31
 7196 1c89 44060000 		.4byte	.LASF276
 7197 1c8d 03       		.byte	0x3
 7198 1c8e 2B03     		.2byte	0x32b
 7199 1c90 00000000 		.4byte	.LFB54
 7200 1c94 D4000000 		.4byte	.LFE54-.LFB54
 7201 1c98 01       		.uleb128 0x1
 7202 1c99 9C       		.byte	0x9c
 7203 1c9a F31C0000 		.4byte	0x1cf3
 7204 1c9e 2B       		.uleb128 0x2b
 7205 1c9f B8030000 		.4byte	.LASF214
 7206 1ca3 03       		.byte	0x3
 7207 1ca4 2B03     		.2byte	0x32b
 7208 1ca6 F3120000 		.4byte	0x12f3
 7209 1caa 02       		.uleb128 0x2
 7210 1cab 91       		.byte	0x91
 7211 1cac 64       		.sleb128 -28
 7212 1cad 2D       		.uleb128 0x2d
 7213 1cae 6800     		.ascii	"h\000"
 7214 1cb0 03       		.byte	0x3
 7215 1cb1 2D03     		.2byte	0x32d
 7216 1cb3 D9000000 		.4byte	0xd9
 7217 1cb7 02       		.uleb128 0x2
 7218 1cb8 91       		.byte	0x91
 7219 1cb9 76       		.sleb128 -10
 7220 1cba 2D       		.uleb128 0x2d
 7221 1cbb 7700     		.ascii	"w\000"
 7222 1cbd 03       		.byte	0x3
 7223 1cbe 2E03     		.2byte	0x32e
 7224 1cc0 D9000000 		.4byte	0xd9
 7225 1cc4 02       		.uleb128 0x2
 7226 1cc5 91       		.byte	0x91
 7227 1cc6 74       		.sleb128 -12
 7228 1cc7 2D       		.uleb128 0x2d
 7229 1cc8 65787400 		.ascii	"ext\000"
 7230 1ccc 03       		.byte	0x3
 7231 1ccd 3003     		.2byte	0x330
 7232 1ccf 04130000 		.4byte	0x1304
 7233 1cd3 02       		.uleb128 0x2
 7234 1cd4 91       		.byte	0x91
 7235 1cd5 6C       		.sleb128 -20
 7236 1cd6 2D       		.uleb128 0x2d
 7237 1cd7 6900     		.ascii	"i\000"
ARM GAS  C:\Users\tmj32\AppData\Local\Temp\ccIZw7Ef.s 			page 148


 7238 1cd9 03       		.byte	0x3
 7239 1cda 3203     		.2byte	0x332
 7240 1cdc C3000000 		.4byte	0xc3
 7241 1ce0 02       		.uleb128 0x2
 7242 1ce1 91       		.byte	0x91
 7243 1ce2 72       		.sleb128 -14
 7244 1ce3 2E       		.uleb128 0x2e
 7245 1ce4 8E080000 		.4byte	.LASF252
 7246 1ce8 03       		.byte	0x3
 7247 1ce9 3A03     		.2byte	0x33a
 7248 1ceb D2080000 		.4byte	0x8d2
 7249 1cef 02       		.uleb128 0x2
 7250 1cf0 91       		.byte	0x91
 7251 1cf1 68       		.sleb128 -24
 7252 1cf2 00       		.byte	0
 7253 1cf3 30       		.uleb128 0x30
 7254 1cf4 4A040000 		.4byte	.LASF264
 7255 1cf8 03       		.byte	0x3
 7256 1cf9 4303     		.2byte	0x343
 7257 1cfb D9000000 		.4byte	0xd9
 7258 1cff 00000000 		.4byte	.LFB55
 7259 1d03 20020000 		.4byte	.LFE55-.LFB55
 7260 1d07 01       		.uleb128 0x1
 7261 1d08 9C       		.byte	0x9c
 7262 1d09 E11D0000 		.4byte	0x1de1
 7263 1d0d 2B       		.uleb128 0x2b
 7264 1d0e B8030000 		.4byte	.LASF214
 7265 1d12 03       		.byte	0x3
 7266 1d13 4303     		.2byte	0x343
 7267 1d15 F3120000 		.4byte	0x12f3
 7268 1d19 02       		.uleb128 0x2
 7269 1d1a 91       		.byte	0x91
 7270 1d1b 44       		.sleb128 -60
 7271 1d1c 2B       		.uleb128 0x2b
 7272 1d1d 0E010000 		.4byte	.LASF265
 7273 1d21 03       		.byte	0x3
 7274 1d22 4303     		.2byte	0x343
 7275 1d24 C3000000 		.4byte	0xc3
 7276 1d28 02       		.uleb128 0x2
 7277 1d29 91       		.byte	0x91
 7278 1d2a 42       		.sleb128 -62
 7279 1d2b 2D       		.uleb128 0x2d
 7280 1d2c 65787400 		.ascii	"ext\000"
 7281 1d30 03       		.byte	0x3
 7282 1d31 4503     		.2byte	0x345
 7283 1d33 04130000 		.4byte	0x1304
 7284 1d37 02       		.uleb128 0x2
 7285 1d38 91       		.byte	0x91
 7286 1d39 60       		.sleb128 -32
 7287 1d3a 2E       		.uleb128 0x2e
 7288 1d3b D40C0000 		.4byte	.LASF254
 7289 1d3f 03       		.byte	0x3
 7290 1d40 4603     		.2byte	0x346
 7291 1d42 C3020000 		.4byte	0x2c3
 7292 1d46 02       		.uleb128 0x2
 7293 1d47 91       		.byte	0x91
 7294 1d48 54       		.sleb128 -44
ARM GAS  C:\Users\tmj32\AppData\Local\Temp\ccIZw7Ef.s 			page 149


 7295 1d49 2E       		.uleb128 0x2e
 7296 1d4a 4C010000 		.4byte	.LASF266
 7297 1d4e 03       		.byte	0x3
 7298 1d4f 4703     		.2byte	0x347
 7299 1d51 D9000000 		.4byte	0xd9
 7300 1d55 02       		.uleb128 0x2
 7301 1d56 91       		.byte	0x91
 7302 1d57 6E       		.sleb128 -18
 7303 1d58 2E       		.uleb128 0x2e
 7304 1d59 26010000 		.4byte	.LASF162
 7305 1d5d 03       		.byte	0x3
 7306 1d5e 4803     		.2byte	0x348
 7307 1d60 D2080000 		.4byte	0x8d2
 7308 1d64 02       		.uleb128 0x2
 7309 1d65 91       		.byte	0x91
 7310 1d66 58       		.sleb128 -40
 7311 1d67 2E       		.uleb128 0x2e
 7312 1d68 78030000 		.4byte	.LASF267
 7313 1d6c 03       		.byte	0x3
 7314 1d6d 4A03     		.2byte	0x34a
 7315 1d6f C3000000 		.4byte	0xc3
 7316 1d73 02       		.uleb128 0x2
 7317 1d74 91       		.byte	0x91
 7318 1d75 5E       		.sleb128 -34
 7319 1d76 2E       		.uleb128 0x2e
 7320 1d77 3A000000 		.4byte	.LASF193
 7321 1d7b 03       		.byte	0x3
 7322 1d7c 4B03     		.2byte	0x34b
 7323 1d7e C3000000 		.4byte	0xc3
 7324 1d82 02       		.uleb128 0x2
 7325 1d83 91       		.byte	0x91
 7326 1d84 6C       		.sleb128 -20
 7327 1d85 2D       		.uleb128 0x2d
 7328 1d86 636F6C00 		.ascii	"col\000"
 7329 1d8a 03       		.byte	0x3
 7330 1d8b 4C03     		.2byte	0x34c
 7331 1d8d C3000000 		.4byte	0xc3
 7332 1d91 02       		.uleb128 0x2
 7333 1d92 91       		.byte	0x91
 7334 1d93 6A       		.sleb128 -22
 7335 1d94 2E       		.uleb128 0x2e
 7336 1d95 0E090000 		.4byte	.LASF268
 7337 1d99 03       		.byte	0x3
 7338 1d9a 4D03     		.2byte	0x34d
 7339 1d9c D9000000 		.4byte	0xd9
 7340 1da0 02       		.uleb128 0x2
 7341 1da1 91       		.byte	0x91
 7342 1da2 68       		.sleb128 -24
 7343 1da3 28       		.uleb128 0x28
 7344 1da4 6A000000 		.4byte	.LBB14
 7345 1da8 8E010000 		.4byte	.LBE14-.LBB14
 7346 1dac 2E       		.uleb128 0x2e
 7347 1dad F2050000 		.4byte	.LASF258
 7348 1db1 03       		.byte	0x3
 7349 1db2 5403     		.2byte	0x354
 7350 1db4 C3000000 		.4byte	0xc3
 7351 1db8 02       		.uleb128 0x2
ARM GAS  C:\Users\tmj32\AppData\Local\Temp\ccIZw7Ef.s 			page 150


 7352 1db9 91       		.byte	0x91
 7353 1dba 66       		.sleb128 -26
 7354 1dbb 2E       		.uleb128 0x2e
 7355 1dbc 96050000 		.4byte	.LASF224
 7356 1dc0 03       		.byte	0x3
 7357 1dc1 6303     		.2byte	0x363
 7358 1dc3 B0090000 		.4byte	0x9b0
 7359 1dc7 02       		.uleb128 0x2
 7360 1dc8 91       		.byte	0x91
 7361 1dc9 50       		.sleb128 -48
 7362 1dca 32       		.uleb128 0x32
 7363 1dcb 00000000 		.4byte	.Ldebug_ranges0+0
 7364 1dcf 2E       		.uleb128 0x2e
 7365 1dd0 96050000 		.4byte	.LASF224
 7366 1dd4 03       		.byte	0x3
 7367 1dd5 5803     		.2byte	0x358
 7368 1dd7 B0090000 		.4byte	0x9b0
 7369 1ddb 02       		.uleb128 0x2
 7370 1ddc 91       		.byte	0x91
 7371 1ddd 4C       		.sleb128 -52
 7372 1dde 00       		.byte	0
 7373 1ddf 00       		.byte	0
 7374 1de0 00       		.byte	0
 7375 1de1 25       		.uleb128 0x25
 7376 1de2 E6090000 		.4byte	.LASF269
 7377 1de6 03       		.byte	0x3
 7378 1de7 26       		.byte	0x26
 7379 1de8 25080000 		.4byte	0x825
 7380 1dec 05       		.uleb128 0x5
 7381 1ded 03       		.byte	0x3
 7382 1dee 00000000 		.4byte	ancestor_signal
 7383 1df2 25       		.uleb128 0x25
 7384 1df3 F10D0000 		.4byte	.LASF270
 7385 1df7 03       		.byte	0x3
 7386 1df8 27       		.byte	0x27
 7387 1df9 3F070000 		.4byte	0x73f
 7388 1dfd 05       		.uleb128 0x5
 7389 1dfe 03       		.byte	0x3
 7390 1dff 04000000 		.4byte	ancestor_scrl_design
 7391 1e03 33       		.uleb128 0x33
 7392 1e04 47080000 		.4byte	.LASF271
 7393 1e08 08       		.byte	0x8
 7394 1e09 0F01     		.2byte	0x10f
 7395 1e0b 39050000 		.4byte	0x539
 7396 1e0f 33       		.uleb128 0x33
 7397 1e10 7A040000 		.4byte	.LASF272
 7398 1e14 08       		.byte	0x8
 7399 1e15 1001     		.2byte	0x110
 7400 1e17 39050000 		.4byte	0x539
 7401 1e1b 00       		.byte	0
 7402              		.section	.debug_abbrev,"",%progbits
 7403              	.Ldebug_abbrev0:
 7404 0000 01       		.uleb128 0x1
 7405 0001 11       		.uleb128 0x11
 7406 0002 01       		.byte	0x1
 7407 0003 25       		.uleb128 0x25
 7408 0004 0E       		.uleb128 0xe
ARM GAS  C:\Users\tmj32\AppData\Local\Temp\ccIZw7Ef.s 			page 151


 7409 0005 13       		.uleb128 0x13
 7410 0006 0B       		.uleb128 0xb
 7411 0007 03       		.uleb128 0x3
 7412 0008 0E       		.uleb128 0xe
 7413 0009 1B       		.uleb128 0x1b
 7414 000a 0E       		.uleb128 0xe
 7415 000b 55       		.uleb128 0x55
 7416 000c 17       		.uleb128 0x17
 7417 000d 11       		.uleb128 0x11
 7418 000e 01       		.uleb128 0x1
 7419 000f 10       		.uleb128 0x10
 7420 0010 17       		.uleb128 0x17
 7421 0011 00       		.byte	0
 7422 0012 00       		.byte	0
 7423 0013 02       		.uleb128 0x2
 7424 0014 16       		.uleb128 0x16
 7425 0015 00       		.byte	0
 7426 0016 03       		.uleb128 0x3
 7427 0017 0E       		.uleb128 0xe
 7428 0018 3A       		.uleb128 0x3a
 7429 0019 0B       		.uleb128 0xb
 7430 001a 3B       		.uleb128 0x3b
 7431 001b 0B       		.uleb128 0xb
 7432 001c 49       		.uleb128 0x49
 7433 001d 13       		.uleb128 0x13
 7434 001e 00       		.byte	0
 7435 001f 00       		.byte	0
 7436 0020 03       		.uleb128 0x3
 7437 0021 24       		.uleb128 0x24
 7438 0022 00       		.byte	0
 7439 0023 0B       		.uleb128 0xb
 7440 0024 0B       		.uleb128 0xb
 7441 0025 3E       		.uleb128 0x3e
 7442 0026 0B       		.uleb128 0xb
 7443 0027 03       		.uleb128 0x3
 7444 0028 0E       		.uleb128 0xe
 7445 0029 00       		.byte	0
 7446 002a 00       		.byte	0
 7447 002b 04       		.uleb128 0x4
 7448 002c 24       		.uleb128 0x24
 7449 002d 00       		.byte	0
 7450 002e 0B       		.uleb128 0xb
 7451 002f 0B       		.uleb128 0xb
 7452 0030 3E       		.uleb128 0x3e
 7453 0031 0B       		.uleb128 0xb
 7454 0032 03       		.uleb128 0x3
 7455 0033 08       		.uleb128 0x8
 7456 0034 00       		.byte	0
 7457 0035 00       		.byte	0
 7458 0036 05       		.uleb128 0x5
 7459 0037 0F       		.uleb128 0xf
 7460 0038 00       		.byte	0
 7461 0039 0B       		.uleb128 0xb
 7462 003a 0B       		.uleb128 0xb
 7463 003b 00       		.byte	0
 7464 003c 00       		.byte	0
 7465 003d 06       		.uleb128 0x6
ARM GAS  C:\Users\tmj32\AppData\Local\Temp\ccIZw7Ef.s 			page 152


 7466 003e 13       		.uleb128 0x13
 7467 003f 01       		.byte	0x1
 7468 0040 0B       		.uleb128 0xb
 7469 0041 0B       		.uleb128 0xb
 7470 0042 3A       		.uleb128 0x3a
 7471 0043 0B       		.uleb128 0xb
 7472 0044 3B       		.uleb128 0x3b
 7473 0045 0B       		.uleb128 0xb
 7474 0046 01       		.uleb128 0x1
 7475 0047 13       		.uleb128 0x13
 7476 0048 00       		.byte	0
 7477 0049 00       		.byte	0
 7478 004a 07       		.uleb128 0x7
 7479 004b 0D       		.uleb128 0xd
 7480 004c 00       		.byte	0
 7481 004d 03       		.uleb128 0x3
 7482 004e 0E       		.uleb128 0xe
 7483 004f 3A       		.uleb128 0x3a
 7484 0050 0B       		.uleb128 0xb
 7485 0051 3B       		.uleb128 0x3b
 7486 0052 0B       		.uleb128 0xb
 7487 0053 49       		.uleb128 0x49
 7488 0054 13       		.uleb128 0x13
 7489 0055 38       		.uleb128 0x38
 7490 0056 0B       		.uleb128 0xb
 7491 0057 00       		.byte	0
 7492 0058 00       		.byte	0
 7493 0059 08       		.uleb128 0x8
 7494 005a 0D       		.uleb128 0xd
 7495 005b 00       		.byte	0
 7496 005c 03       		.uleb128 0x3
 7497 005d 08       		.uleb128 0x8
 7498 005e 3A       		.uleb128 0x3a
 7499 005f 0B       		.uleb128 0xb
 7500 0060 3B       		.uleb128 0x3b
 7501 0061 0B       		.uleb128 0xb
 7502 0062 49       		.uleb128 0x49
 7503 0063 13       		.uleb128 0x13
 7504 0064 38       		.uleb128 0x38
 7505 0065 0B       		.uleb128 0xb
 7506 0066 00       		.byte	0
 7507 0067 00       		.byte	0
 7508 0068 09       		.uleb128 0x9
 7509 0069 13       		.uleb128 0x13
 7510 006a 01       		.byte	0x1
 7511 006b 03       		.uleb128 0x3
 7512 006c 0E       		.uleb128 0xe
 7513 006d 0B       		.uleb128 0xb
 7514 006e 0B       		.uleb128 0xb
 7515 006f 3A       		.uleb128 0x3a
 7516 0070 0B       		.uleb128 0xb
 7517 0071 3B       		.uleb128 0x3b
 7518 0072 0B       		.uleb128 0xb
 7519 0073 01       		.uleb128 0x1
 7520 0074 13       		.uleb128 0x13
 7521 0075 00       		.byte	0
 7522 0076 00       		.byte	0
ARM GAS  C:\Users\tmj32\AppData\Local\Temp\ccIZw7Ef.s 			page 153


 7523 0077 0A       		.uleb128 0xa
 7524 0078 0D       		.uleb128 0xd
 7525 0079 00       		.byte	0
 7526 007a 03       		.uleb128 0x3
 7527 007b 0E       		.uleb128 0xe
 7528 007c 3A       		.uleb128 0x3a
 7529 007d 0B       		.uleb128 0xb
 7530 007e 3B       		.uleb128 0x3b
 7531 007f 0B       		.uleb128 0xb
 7532 0080 49       		.uleb128 0x49
 7533 0081 13       		.uleb128 0x13
 7534 0082 0B       		.uleb128 0xb
 7535 0083 0B       		.uleb128 0xb
 7536 0084 0D       		.uleb128 0xd
 7537 0085 0B       		.uleb128 0xb
 7538 0086 0C       		.uleb128 0xc
 7539 0087 0B       		.uleb128 0xb
 7540 0088 38       		.uleb128 0x38
 7541 0089 0B       		.uleb128 0xb
 7542 008a 00       		.byte	0
 7543 008b 00       		.byte	0
 7544 008c 0B       		.uleb128 0xb
 7545 008d 15       		.uleb128 0x15
 7546 008e 01       		.byte	0x1
 7547 008f 27       		.uleb128 0x27
 7548 0090 19       		.uleb128 0x19
 7549 0091 49       		.uleb128 0x49
 7550 0092 13       		.uleb128 0x13
 7551 0093 01       		.uleb128 0x1
 7552 0094 13       		.uleb128 0x13
 7553 0095 00       		.byte	0
 7554 0096 00       		.byte	0
 7555 0097 0C       		.uleb128 0xc
 7556 0098 05       		.uleb128 0x5
 7557 0099 00       		.byte	0
 7558 009a 49       		.uleb128 0x49
 7559 009b 13       		.uleb128 0x13
 7560 009c 00       		.byte	0
 7561 009d 00       		.byte	0
 7562 009e 0D       		.uleb128 0xd
 7563 009f 0F       		.uleb128 0xf
 7564 00a0 00       		.byte	0
 7565 00a1 0B       		.uleb128 0xb
 7566 00a2 0B       		.uleb128 0xb
 7567 00a3 49       		.uleb128 0x49
 7568 00a4 13       		.uleb128 0x13
 7569 00a5 00       		.byte	0
 7570 00a6 00       		.byte	0
 7571 00a7 0E       		.uleb128 0xe
 7572 00a8 26       		.uleb128 0x26
 7573 00a9 00       		.byte	0
 7574 00aa 49       		.uleb128 0x49
 7575 00ab 13       		.uleb128 0x13
 7576 00ac 00       		.byte	0
 7577 00ad 00       		.byte	0
 7578 00ae 0F       		.uleb128 0xf
 7579 00af 17       		.uleb128 0x17
ARM GAS  C:\Users\tmj32\AppData\Local\Temp\ccIZw7Ef.s 			page 154


 7580 00b0 01       		.byte	0x1
 7581 00b1 0B       		.uleb128 0xb
 7582 00b2 0B       		.uleb128 0xb
 7583 00b3 3A       		.uleb128 0x3a
 7584 00b4 0B       		.uleb128 0xb
 7585 00b5 3B       		.uleb128 0x3b
 7586 00b6 0B       		.uleb128 0xb
 7587 00b7 01       		.uleb128 0x1
 7588 00b8 13       		.uleb128 0x13
 7589 00b9 00       		.byte	0
 7590 00ba 00       		.byte	0
 7591 00bb 10       		.uleb128 0x10
 7592 00bc 0D       		.uleb128 0xd
 7593 00bd 00       		.byte	0
 7594 00be 03       		.uleb128 0x3
 7595 00bf 08       		.uleb128 0x8
 7596 00c0 3A       		.uleb128 0x3a
 7597 00c1 0B       		.uleb128 0xb
 7598 00c2 3B       		.uleb128 0x3b
 7599 00c3 0B       		.uleb128 0xb
 7600 00c4 49       		.uleb128 0x49
 7601 00c5 13       		.uleb128 0x13
 7602 00c6 00       		.byte	0
 7603 00c7 00       		.byte	0
 7604 00c8 11       		.uleb128 0x11
 7605 00c9 0D       		.uleb128 0xd
 7606 00ca 00       		.byte	0
 7607 00cb 03       		.uleb128 0x3
 7608 00cc 0E       		.uleb128 0xe
 7609 00cd 3A       		.uleb128 0x3a
 7610 00ce 0B       		.uleb128 0xb
 7611 00cf 3B       		.uleb128 0x3b
 7612 00d0 0B       		.uleb128 0xb
 7613 00d1 49       		.uleb128 0x49
 7614 00d2 13       		.uleb128 0x13
 7615 00d3 00       		.byte	0
 7616 00d4 00       		.byte	0
 7617 00d5 12       		.uleb128 0x12
 7618 00d6 16       		.uleb128 0x16
 7619 00d7 00       		.byte	0
 7620 00d8 03       		.uleb128 0x3
 7621 00d9 0E       		.uleb128 0xe
 7622 00da 3A       		.uleb128 0x3a
 7623 00db 0B       		.uleb128 0xb
 7624 00dc 3B       		.uleb128 0x3b
 7625 00dd 05       		.uleb128 0x5
 7626 00de 49       		.uleb128 0x49
 7627 00df 13       		.uleb128 0x13
 7628 00e0 00       		.byte	0
 7629 00e1 00       		.byte	0
 7630 00e2 13       		.uleb128 0x13
 7631 00e3 04       		.uleb128 0x4
 7632 00e4 01       		.byte	0x1
 7633 00e5 0B       		.uleb128 0xb
 7634 00e6 0B       		.uleb128 0xb
 7635 00e7 49       		.uleb128 0x49
 7636 00e8 13       		.uleb128 0x13
ARM GAS  C:\Users\tmj32\AppData\Local\Temp\ccIZw7Ef.s 			page 155


 7637 00e9 3A       		.uleb128 0x3a
 7638 00ea 0B       		.uleb128 0xb
 7639 00eb 3B       		.uleb128 0x3b
 7640 00ec 0B       		.uleb128 0xb
 7641 00ed 01       		.uleb128 0x1
 7642 00ee 13       		.uleb128 0x13
 7643 00ef 00       		.byte	0
 7644 00f0 00       		.byte	0
 7645 00f1 14       		.uleb128 0x14
 7646 00f2 28       		.uleb128 0x28
 7647 00f3 00       		.byte	0
 7648 00f4 03       		.uleb128 0x3
 7649 00f5 0E       		.uleb128 0xe
 7650 00f6 1C       		.uleb128 0x1c
 7651 00f7 0B       		.uleb128 0xb
 7652 00f8 00       		.byte	0
 7653 00f9 00       		.byte	0
 7654 00fa 15       		.uleb128 0x15
 7655 00fb 0D       		.uleb128 0xd
 7656 00fc 00       		.byte	0
 7657 00fd 03       		.uleb128 0x3
 7658 00fe 08       		.uleb128 0x8
 7659 00ff 3A       		.uleb128 0x3a
 7660 0100 0B       		.uleb128 0xb
 7661 0101 3B       		.uleb128 0x3b
 7662 0102 0B       		.uleb128 0xb
 7663 0103 49       		.uleb128 0x49
 7664 0104 13       		.uleb128 0x13
 7665 0105 0B       		.uleb128 0xb
 7666 0106 0B       		.uleb128 0xb
 7667 0107 0D       		.uleb128 0xd
 7668 0108 0B       		.uleb128 0xb
 7669 0109 0C       		.uleb128 0xc
 7670 010a 0B       		.uleb128 0xb
 7671 010b 38       		.uleb128 0x38
 7672 010c 0B       		.uleb128 0xb
 7673 010d 00       		.byte	0
 7674 010e 00       		.byte	0
 7675 010f 16       		.uleb128 0x16
 7676 0110 15       		.uleb128 0x15
 7677 0111 01       		.byte	0x1
 7678 0112 27       		.uleb128 0x27
 7679 0113 19       		.uleb128 0x19
 7680 0114 01       		.uleb128 0x1
 7681 0115 13       		.uleb128 0x13
 7682 0116 00       		.byte	0
 7683 0117 00       		.byte	0
 7684 0118 17       		.uleb128 0x17
 7685 0119 01       		.uleb128 0x1
 7686 011a 01       		.byte	0x1
 7687 011b 49       		.uleb128 0x49
 7688 011c 13       		.uleb128 0x13
 7689 011d 01       		.uleb128 0x1
 7690 011e 13       		.uleb128 0x13
 7691 011f 00       		.byte	0
 7692 0120 00       		.byte	0
 7693 0121 18       		.uleb128 0x18
ARM GAS  C:\Users\tmj32\AppData\Local\Temp\ccIZw7Ef.s 			page 156


 7694 0122 21       		.uleb128 0x21
 7695 0123 00       		.byte	0
 7696 0124 49       		.uleb128 0x49
 7697 0125 13       		.uleb128 0x13
 7698 0126 2F       		.uleb128 0x2f
 7699 0127 0B       		.uleb128 0xb
 7700 0128 00       		.byte	0
 7701 0129 00       		.byte	0
 7702 012a 19       		.uleb128 0x19
 7703 012b 0D       		.uleb128 0xd
 7704 012c 00       		.byte	0
 7705 012d 03       		.uleb128 0x3
 7706 012e 08       		.uleb128 0x8
 7707 012f 3A       		.uleb128 0x3a
 7708 0130 0B       		.uleb128 0xb
 7709 0131 3B       		.uleb128 0x3b
 7710 0132 05       		.uleb128 0x5
 7711 0133 49       		.uleb128 0x49
 7712 0134 13       		.uleb128 0x13
 7713 0135 38       		.uleb128 0x38
 7714 0136 0B       		.uleb128 0xb
 7715 0137 00       		.byte	0
 7716 0138 00       		.byte	0
 7717 0139 1A       		.uleb128 0x1a
 7718 013a 0D       		.uleb128 0xd
 7719 013b 00       		.byte	0
 7720 013c 03       		.uleb128 0x3
 7721 013d 0E       		.uleb128 0xe
 7722 013e 3A       		.uleb128 0x3a
 7723 013f 0B       		.uleb128 0xb
 7724 0140 3B       		.uleb128 0x3b
 7725 0141 05       		.uleb128 0x5
 7726 0142 49       		.uleb128 0x49
 7727 0143 13       		.uleb128 0x13
 7728 0144 38       		.uleb128 0x38
 7729 0145 0B       		.uleb128 0xb
 7730 0146 00       		.byte	0
 7731 0147 00       		.byte	0
 7732 0148 1B       		.uleb128 0x1b
 7733 0149 13       		.uleb128 0x13
 7734 014a 01       		.byte	0x1
 7735 014b 0B       		.uleb128 0xb
 7736 014c 0B       		.uleb128 0xb
 7737 014d 3A       		.uleb128 0x3a
 7738 014e 0B       		.uleb128 0xb
 7739 014f 3B       		.uleb128 0x3b
 7740 0150 05       		.uleb128 0x5
 7741 0151 01       		.uleb128 0x1
 7742 0152 13       		.uleb128 0x13
 7743 0153 00       		.byte	0
 7744 0154 00       		.byte	0
 7745 0155 1C       		.uleb128 0x1c
 7746 0156 13       		.uleb128 0x13
 7747 0157 01       		.byte	0x1
 7748 0158 0B       		.uleb128 0xb
 7749 0159 05       		.uleb128 0x5
 7750 015a 3A       		.uleb128 0x3a
ARM GAS  C:\Users\tmj32\AppData\Local\Temp\ccIZw7Ef.s 			page 157


 7751 015b 0B       		.uleb128 0xb
 7752 015c 3B       		.uleb128 0x3b
 7753 015d 0B       		.uleb128 0xb
 7754 015e 01       		.uleb128 0x1
 7755 015f 13       		.uleb128 0x13
 7756 0160 00       		.byte	0
 7757 0161 00       		.byte	0
 7758 0162 1D       		.uleb128 0x1d
 7759 0163 0D       		.uleb128 0xd
 7760 0164 00       		.byte	0
 7761 0165 03       		.uleb128 0x3
 7762 0166 0E       		.uleb128 0xe
 7763 0167 3A       		.uleb128 0x3a
 7764 0168 0B       		.uleb128 0xb
 7765 0169 3B       		.uleb128 0x3b
 7766 016a 0B       		.uleb128 0xb
 7767 016b 49       		.uleb128 0x49
 7768 016c 13       		.uleb128 0x13
 7769 016d 38       		.uleb128 0x38
 7770 016e 05       		.uleb128 0x5
 7771 016f 00       		.byte	0
 7772 0170 00       		.byte	0
 7773 0171 1E       		.uleb128 0x1e
 7774 0172 0D       		.uleb128 0xd
 7775 0173 00       		.byte	0
 7776 0174 03       		.uleb128 0x3
 7777 0175 08       		.uleb128 0x8
 7778 0176 3A       		.uleb128 0x3a
 7779 0177 0B       		.uleb128 0xb
 7780 0178 3B       		.uleb128 0x3b
 7781 0179 0B       		.uleb128 0xb
 7782 017a 49       		.uleb128 0x49
 7783 017b 13       		.uleb128 0x13
 7784 017c 38       		.uleb128 0x38
 7785 017d 05       		.uleb128 0x5
 7786 017e 00       		.byte	0
 7787 017f 00       		.byte	0
 7788 0180 1F       		.uleb128 0x1f
 7789 0181 0D       		.uleb128 0xd
 7790 0182 00       		.byte	0
 7791 0183 03       		.uleb128 0x3
 7792 0184 0E       		.uleb128 0xe
 7793 0185 3A       		.uleb128 0x3a
 7794 0186 0B       		.uleb128 0xb
 7795 0187 3B       		.uleb128 0x3b
 7796 0188 05       		.uleb128 0x5
 7797 0189 49       		.uleb128 0x49
 7798 018a 13       		.uleb128 0x13
 7799 018b 38       		.uleb128 0x38
 7800 018c 05       		.uleb128 0x5
 7801 018d 00       		.byte	0
 7802 018e 00       		.byte	0
 7803 018f 20       		.uleb128 0x20
 7804 0190 0D       		.uleb128 0xd
 7805 0191 00       		.byte	0
 7806 0192 03       		.uleb128 0x3
 7807 0193 08       		.uleb128 0x8
ARM GAS  C:\Users\tmj32\AppData\Local\Temp\ccIZw7Ef.s 			page 158


 7808 0194 3A       		.uleb128 0x3a
 7809 0195 0B       		.uleb128 0xb
 7810 0196 3B       		.uleb128 0x3b
 7811 0197 05       		.uleb128 0x5
 7812 0198 49       		.uleb128 0x49
 7813 0199 13       		.uleb128 0x13
 7814 019a 38       		.uleb128 0x38
 7815 019b 05       		.uleb128 0x5
 7816 019c 00       		.byte	0
 7817 019d 00       		.byte	0
 7818 019e 21       		.uleb128 0x21
 7819 019f 2E       		.uleb128 0x2e
 7820 01a0 01       		.byte	0x1
 7821 01a1 03       		.uleb128 0x3
 7822 01a2 0E       		.uleb128 0xe
 7823 01a3 3A       		.uleb128 0x3a
 7824 01a4 0B       		.uleb128 0xb
 7825 01a5 3B       		.uleb128 0x3b
 7826 01a6 0B       		.uleb128 0xb
 7827 01a7 27       		.uleb128 0x27
 7828 01a8 19       		.uleb128 0x19
 7829 01a9 49       		.uleb128 0x49
 7830 01aa 13       		.uleb128 0x13
 7831 01ab 11       		.uleb128 0x11
 7832 01ac 01       		.uleb128 0x1
 7833 01ad 12       		.uleb128 0x12
 7834 01ae 06       		.uleb128 0x6
 7835 01af 40       		.uleb128 0x40
 7836 01b0 18       		.uleb128 0x18
 7837 01b1 9742     		.uleb128 0x2117
 7838 01b3 19       		.uleb128 0x19
 7839 01b4 01       		.uleb128 0x1
 7840 01b5 13       		.uleb128 0x13
 7841 01b6 00       		.byte	0
 7842 01b7 00       		.byte	0
 7843 01b8 22       		.uleb128 0x22
 7844 01b9 05       		.uleb128 0x5
 7845 01ba 00       		.byte	0
 7846 01bb 03       		.uleb128 0x3
 7847 01bc 0E       		.uleb128 0xe
 7848 01bd 3A       		.uleb128 0x3a
 7849 01be 0B       		.uleb128 0xb
 7850 01bf 3B       		.uleb128 0x3b
 7851 01c0 0B       		.uleb128 0xb
 7852 01c1 49       		.uleb128 0x49
 7853 01c2 13       		.uleb128 0x13
 7854 01c3 02       		.uleb128 0x2
 7855 01c4 18       		.uleb128 0x18
 7856 01c5 00       		.byte	0
 7857 01c6 00       		.byte	0
 7858 01c7 23       		.uleb128 0x23
 7859 01c8 2E       		.uleb128 0x2e
 7860 01c9 01       		.byte	0x1
 7861 01ca 3F       		.uleb128 0x3f
 7862 01cb 19       		.uleb128 0x19
 7863 01cc 03       		.uleb128 0x3
 7864 01cd 0E       		.uleb128 0xe
ARM GAS  C:\Users\tmj32\AppData\Local\Temp\ccIZw7Ef.s 			page 159


 7865 01ce 3A       		.uleb128 0x3a
 7866 01cf 0B       		.uleb128 0xb
 7867 01d0 3B       		.uleb128 0x3b
 7868 01d1 0B       		.uleb128 0xb
 7869 01d2 27       		.uleb128 0x27
 7870 01d3 19       		.uleb128 0x19
 7871 01d4 49       		.uleb128 0x49
 7872 01d5 13       		.uleb128 0x13
 7873 01d6 11       		.uleb128 0x11
 7874 01d7 01       		.uleb128 0x1
 7875 01d8 12       		.uleb128 0x12
 7876 01d9 06       		.uleb128 0x6
 7877 01da 40       		.uleb128 0x40
 7878 01db 18       		.uleb128 0x18
 7879 01dc 9642     		.uleb128 0x2116
 7880 01de 19       		.uleb128 0x19
 7881 01df 01       		.uleb128 0x1
 7882 01e0 13       		.uleb128 0x13
 7883 01e1 00       		.byte	0
 7884 01e2 00       		.byte	0
 7885 01e3 24       		.uleb128 0x24
 7886 01e4 05       		.uleb128 0x5
 7887 01e5 00       		.byte	0
 7888 01e6 03       		.uleb128 0x3
 7889 01e7 08       		.uleb128 0x8
 7890 01e8 3A       		.uleb128 0x3a
 7891 01e9 0B       		.uleb128 0xb
 7892 01ea 3B       		.uleb128 0x3b
 7893 01eb 0B       		.uleb128 0xb
 7894 01ec 49       		.uleb128 0x49
 7895 01ed 13       		.uleb128 0x13
 7896 01ee 02       		.uleb128 0x2
 7897 01ef 18       		.uleb128 0x18
 7898 01f0 00       		.byte	0
 7899 01f1 00       		.byte	0
 7900 01f2 25       		.uleb128 0x25
 7901 01f3 34       		.uleb128 0x34
 7902 01f4 00       		.byte	0
 7903 01f5 03       		.uleb128 0x3
 7904 01f6 0E       		.uleb128 0xe
 7905 01f7 3A       		.uleb128 0x3a
 7906 01f8 0B       		.uleb128 0xb
 7907 01f9 3B       		.uleb128 0x3b
 7908 01fa 0B       		.uleb128 0xb
 7909 01fb 49       		.uleb128 0x49
 7910 01fc 13       		.uleb128 0x13
 7911 01fd 02       		.uleb128 0x2
 7912 01fe 18       		.uleb128 0x18
 7913 01ff 00       		.byte	0
 7914 0200 00       		.byte	0
 7915 0201 26       		.uleb128 0x26
 7916 0202 34       		.uleb128 0x34
 7917 0203 00       		.byte	0
 7918 0204 03       		.uleb128 0x3
 7919 0205 08       		.uleb128 0x8
 7920 0206 3A       		.uleb128 0x3a
 7921 0207 0B       		.uleb128 0xb
ARM GAS  C:\Users\tmj32\AppData\Local\Temp\ccIZw7Ef.s 			page 160


 7922 0208 3B       		.uleb128 0x3b
 7923 0209 0B       		.uleb128 0xb
 7924 020a 49       		.uleb128 0x49
 7925 020b 13       		.uleb128 0x13
 7926 020c 02       		.uleb128 0x2
 7927 020d 18       		.uleb128 0x18
 7928 020e 00       		.byte	0
 7929 020f 00       		.byte	0
 7930 0210 27       		.uleb128 0x27
 7931 0211 0B       		.uleb128 0xb
 7932 0212 01       		.byte	0x1
 7933 0213 11       		.uleb128 0x11
 7934 0214 01       		.uleb128 0x1
 7935 0215 12       		.uleb128 0x12
 7936 0216 06       		.uleb128 0x6
 7937 0217 01       		.uleb128 0x1
 7938 0218 13       		.uleb128 0x13
 7939 0219 00       		.byte	0
 7940 021a 00       		.byte	0
 7941 021b 28       		.uleb128 0x28
 7942 021c 0B       		.uleb128 0xb
 7943 021d 01       		.byte	0x1
 7944 021e 11       		.uleb128 0x11
 7945 021f 01       		.uleb128 0x1
 7946 0220 12       		.uleb128 0x12
 7947 0221 06       		.uleb128 0x6
 7948 0222 00       		.byte	0
 7949 0223 00       		.byte	0
 7950 0224 29       		.uleb128 0x29
 7951 0225 2E       		.uleb128 0x2e
 7952 0226 01       		.byte	0x1
 7953 0227 3F       		.uleb128 0x3f
 7954 0228 19       		.uleb128 0x19
 7955 0229 03       		.uleb128 0x3
 7956 022a 0E       		.uleb128 0xe
 7957 022b 3A       		.uleb128 0x3a
 7958 022c 0B       		.uleb128 0xb
 7959 022d 3B       		.uleb128 0x3b
 7960 022e 0B       		.uleb128 0xb
 7961 022f 27       		.uleb128 0x27
 7962 0230 19       		.uleb128 0x19
 7963 0231 11       		.uleb128 0x11
 7964 0232 01       		.uleb128 0x1
 7965 0233 12       		.uleb128 0x12
 7966 0234 06       		.uleb128 0x6
 7967 0235 40       		.uleb128 0x40
 7968 0236 18       		.uleb128 0x18
 7969 0237 9642     		.uleb128 0x2116
 7970 0239 19       		.uleb128 0x19
 7971 023a 01       		.uleb128 0x1
 7972 023b 13       		.uleb128 0x13
 7973 023c 00       		.byte	0
 7974 023d 00       		.byte	0
 7975 023e 2A       		.uleb128 0x2a
 7976 023f 2E       		.uleb128 0x2e
 7977 0240 01       		.byte	0x1
 7978 0241 3F       		.uleb128 0x3f
ARM GAS  C:\Users\tmj32\AppData\Local\Temp\ccIZw7Ef.s 			page 161


 7979 0242 19       		.uleb128 0x19
 7980 0243 03       		.uleb128 0x3
 7981 0244 0E       		.uleb128 0xe
 7982 0245 3A       		.uleb128 0x3a
 7983 0246 0B       		.uleb128 0xb
 7984 0247 3B       		.uleb128 0x3b
 7985 0248 05       		.uleb128 0x5
 7986 0249 27       		.uleb128 0x27
 7987 024a 19       		.uleb128 0x19
 7988 024b 11       		.uleb128 0x11
 7989 024c 01       		.uleb128 0x1
 7990 024d 12       		.uleb128 0x12
 7991 024e 06       		.uleb128 0x6
 7992 024f 40       		.uleb128 0x40
 7993 0250 18       		.uleb128 0x18
 7994 0251 9642     		.uleb128 0x2116
 7995 0253 19       		.uleb128 0x19
 7996 0254 01       		.uleb128 0x1
 7997 0255 13       		.uleb128 0x13
 7998 0256 00       		.byte	0
 7999 0257 00       		.byte	0
 8000 0258 2B       		.uleb128 0x2b
 8001 0259 05       		.uleb128 0x5
 8002 025a 00       		.byte	0
 8003 025b 03       		.uleb128 0x3
 8004 025c 0E       		.uleb128 0xe
 8005 025d 3A       		.uleb128 0x3a
 8006 025e 0B       		.uleb128 0xb
 8007 025f 3B       		.uleb128 0x3b
 8008 0260 05       		.uleb128 0x5
 8009 0261 49       		.uleb128 0x49
 8010 0262 13       		.uleb128 0x13
 8011 0263 02       		.uleb128 0x2
 8012 0264 18       		.uleb128 0x18
 8013 0265 00       		.byte	0
 8014 0266 00       		.byte	0
 8015 0267 2C       		.uleb128 0x2c
 8016 0268 05       		.uleb128 0x5
 8017 0269 00       		.byte	0
 8018 026a 03       		.uleb128 0x3
 8019 026b 08       		.uleb128 0x8
 8020 026c 3A       		.uleb128 0x3a
 8021 026d 0B       		.uleb128 0xb
 8022 026e 3B       		.uleb128 0x3b
 8023 026f 05       		.uleb128 0x5
 8024 0270 49       		.uleb128 0x49
 8025 0271 13       		.uleb128 0x13
 8026 0272 02       		.uleb128 0x2
 8027 0273 18       		.uleb128 0x18
 8028 0274 00       		.byte	0
 8029 0275 00       		.byte	0
 8030 0276 2D       		.uleb128 0x2d
 8031 0277 34       		.uleb128 0x34
 8032 0278 00       		.byte	0
 8033 0279 03       		.uleb128 0x3
 8034 027a 08       		.uleb128 0x8
 8035 027b 3A       		.uleb128 0x3a
ARM GAS  C:\Users\tmj32\AppData\Local\Temp\ccIZw7Ef.s 			page 162


 8036 027c 0B       		.uleb128 0xb
 8037 027d 3B       		.uleb128 0x3b
 8038 027e 05       		.uleb128 0x5
 8039 027f 49       		.uleb128 0x49
 8040 0280 13       		.uleb128 0x13
 8041 0281 02       		.uleb128 0x2
 8042 0282 18       		.uleb128 0x18
 8043 0283 00       		.byte	0
 8044 0284 00       		.byte	0
 8045 0285 2E       		.uleb128 0x2e
 8046 0286 34       		.uleb128 0x34
 8047 0287 00       		.byte	0
 8048 0288 03       		.uleb128 0x3
 8049 0289 0E       		.uleb128 0xe
 8050 028a 3A       		.uleb128 0x3a
 8051 028b 0B       		.uleb128 0xb
 8052 028c 3B       		.uleb128 0x3b
 8053 028d 05       		.uleb128 0x5
 8054 028e 49       		.uleb128 0x49
 8055 028f 13       		.uleb128 0x13
 8056 0290 02       		.uleb128 0x2
 8057 0291 18       		.uleb128 0x18
 8058 0292 00       		.byte	0
 8059 0293 00       		.byte	0
 8060 0294 2F       		.uleb128 0x2f
 8061 0295 2E       		.uleb128 0x2e
 8062 0296 01       		.byte	0x1
 8063 0297 3F       		.uleb128 0x3f
 8064 0298 19       		.uleb128 0x19
 8065 0299 03       		.uleb128 0x3
 8066 029a 0E       		.uleb128 0xe
 8067 029b 3A       		.uleb128 0x3a
 8068 029c 0B       		.uleb128 0xb
 8069 029d 3B       		.uleb128 0x3b
 8070 029e 05       		.uleb128 0x5
 8071 029f 27       		.uleb128 0x27
 8072 02a0 19       		.uleb128 0x19
 8073 02a1 49       		.uleb128 0x49
 8074 02a2 13       		.uleb128 0x13
 8075 02a3 11       		.uleb128 0x11
 8076 02a4 01       		.uleb128 0x1
 8077 02a5 12       		.uleb128 0x12
 8078 02a6 06       		.uleb128 0x6
 8079 02a7 40       		.uleb128 0x40
 8080 02a8 18       		.uleb128 0x18
 8081 02a9 9642     		.uleb128 0x2116
 8082 02ab 19       		.uleb128 0x19
 8083 02ac 01       		.uleb128 0x1
 8084 02ad 13       		.uleb128 0x13
 8085 02ae 00       		.byte	0
 8086 02af 00       		.byte	0
 8087 02b0 30       		.uleb128 0x30
 8088 02b1 2E       		.uleb128 0x2e
 8089 02b2 01       		.byte	0x1
 8090 02b3 03       		.uleb128 0x3
 8091 02b4 0E       		.uleb128 0xe
 8092 02b5 3A       		.uleb128 0x3a
ARM GAS  C:\Users\tmj32\AppData\Local\Temp\ccIZw7Ef.s 			page 163


 8093 02b6 0B       		.uleb128 0xb
 8094 02b7 3B       		.uleb128 0x3b
 8095 02b8 05       		.uleb128 0x5
 8096 02b9 27       		.uleb128 0x27
 8097 02ba 19       		.uleb128 0x19
 8098 02bb 49       		.uleb128 0x49
 8099 02bc 13       		.uleb128 0x13
 8100 02bd 11       		.uleb128 0x11
 8101 02be 01       		.uleb128 0x1
 8102 02bf 12       		.uleb128 0x12
 8103 02c0 06       		.uleb128 0x6
 8104 02c1 40       		.uleb128 0x40
 8105 02c2 18       		.uleb128 0x18
 8106 02c3 9642     		.uleb128 0x2116
 8107 02c5 19       		.uleb128 0x19
 8108 02c6 01       		.uleb128 0x1
 8109 02c7 13       		.uleb128 0x13
 8110 02c8 00       		.byte	0
 8111 02c9 00       		.byte	0
 8112 02ca 31       		.uleb128 0x31
 8113 02cb 2E       		.uleb128 0x2e
 8114 02cc 01       		.byte	0x1
 8115 02cd 03       		.uleb128 0x3
 8116 02ce 0E       		.uleb128 0xe
 8117 02cf 3A       		.uleb128 0x3a
 8118 02d0 0B       		.uleb128 0xb
 8119 02d1 3B       		.uleb128 0x3b
 8120 02d2 05       		.uleb128 0x5
 8121 02d3 27       		.uleb128 0x27
 8122 02d4 19       		.uleb128 0x19
 8123 02d5 11       		.uleb128 0x11
 8124 02d6 01       		.uleb128 0x1
 8125 02d7 12       		.uleb128 0x12
 8126 02d8 06       		.uleb128 0x6
 8127 02d9 40       		.uleb128 0x40
 8128 02da 18       		.uleb128 0x18
 8129 02db 9642     		.uleb128 0x2116
 8130 02dd 19       		.uleb128 0x19
 8131 02de 01       		.uleb128 0x1
 8132 02df 13       		.uleb128 0x13
 8133 02e0 00       		.byte	0
 8134 02e1 00       		.byte	0
 8135 02e2 32       		.uleb128 0x32
 8136 02e3 0B       		.uleb128 0xb
 8137 02e4 01       		.byte	0x1
 8138 02e5 55       		.uleb128 0x55
 8139 02e6 17       		.uleb128 0x17
 8140 02e7 00       		.byte	0
 8141 02e8 00       		.byte	0
 8142 02e9 33       		.uleb128 0x33
 8143 02ea 34       		.uleb128 0x34
 8144 02eb 00       		.byte	0
 8145 02ec 03       		.uleb128 0x3
 8146 02ed 0E       		.uleb128 0xe
 8147 02ee 3A       		.uleb128 0x3a
 8148 02ef 0B       		.uleb128 0xb
 8149 02f0 3B       		.uleb128 0x3b
ARM GAS  C:\Users\tmj32\AppData\Local\Temp\ccIZw7Ef.s 			page 164


 8150 02f1 05       		.uleb128 0x5
 8151 02f2 49       		.uleb128 0x49
 8152 02f3 13       		.uleb128 0x13
 8153 02f4 3F       		.uleb128 0x3f
 8154 02f5 19       		.uleb128 0x19
 8155 02f6 3C       		.uleb128 0x3c
 8156 02f7 19       		.uleb128 0x19
 8157 02f8 00       		.byte	0
 8158 02f9 00       		.byte	0
 8159 02fa 00       		.byte	0
 8160              		.section	.debug_aranges,"",%progbits
 8161 0000 DC000000 		.4byte	0xdc
 8162 0004 0200     		.2byte	0x2
 8163 0006 00000000 		.4byte	.Ldebug_info0
 8164 000a 04       		.byte	0x4
 8165 000b 00       		.byte	0
 8166 000c 0000     		.2byte	0
 8167 000e 0000     		.2byte	0
 8168 0010 00000000 		.4byte	.LFB0
 8169 0014 18000000 		.4byte	.LFE0-.LFB0
 8170 0018 00000000 		.4byte	.LFB11
 8171 001c 2E000000 		.4byte	.LFE11-.LFB11
 8172 0020 00000000 		.4byte	.LFB33
 8173 0024 94010000 		.4byte	.LFE33-.LFB33
 8174 0028 00000000 		.4byte	.LFB34
 8175 002c E2000000 		.4byte	.LFE34-.LFB34
 8176 0030 00000000 		.4byte	.LFB35
 8177 0034 B0000000 		.4byte	.LFE35-.LFB35
 8178 0038 00000000 		.4byte	.LFB36
 8179 003c B8000000 		.4byte	.LFE36-.LFB36
 8180 0040 00000000 		.4byte	.LFB37
 8181 0044 3A000000 		.4byte	.LFE37-.LFB37
 8182 0048 00000000 		.4byte	.LFB38
 8183 004c C6000000 		.4byte	.LFE38-.LFB38
 8184 0050 00000000 		.4byte	.LFB39
 8185 0054 DC000000 		.4byte	.LFE39-.LFB39
 8186 0058 00000000 		.4byte	.LFB40
 8187 005c C0000000 		.4byte	.LFE40-.LFB40
 8188 0060 00000000 		.4byte	.LFB41
 8189 0064 CC000000 		.4byte	.LFE41-.LFB41
 8190 0068 00000000 		.4byte	.LFB42
 8191 006c 88000000 		.4byte	.LFE42-.LFB42
 8192 0070 00000000 		.4byte	.LFB43
 8193 0074 70000000 		.4byte	.LFE43-.LFB43
 8194 0078 00000000 		.4byte	.LFB44
 8195 007c 1C000000 		.4byte	.LFE44-.LFB44
 8196 0080 00000000 		.4byte	.LFB45
 8197 0084 1C000000 		.4byte	.LFE45-.LFB45
 8198 0088 00000000 		.4byte	.LFB46
 8199 008c 30000000 		.4byte	.LFE46-.LFB46
 8200 0090 00000000 		.4byte	.LFB47
 8201 0094 74000000 		.4byte	.LFE47-.LFB47
 8202 0098 00000000 		.4byte	.LFB48
 8203 009c 78000000 		.4byte	.LFE48-.LFB48
 8204 00a0 00000000 		.4byte	.LFB49
 8205 00a4 74000000 		.4byte	.LFE49-.LFB49
 8206 00a8 00000000 		.4byte	.LFB50
ARM GAS  C:\Users\tmj32\AppData\Local\Temp\ccIZw7Ef.s 			page 165


 8207 00ac 7E000000 		.4byte	.LFE50-.LFB50
 8208 00b0 00000000 		.4byte	.LFB51
 8209 00b4 70000000 		.4byte	.LFE51-.LFB51
 8210 00b8 00000000 		.4byte	.LFB52
 8211 00bc AA050000 		.4byte	.LFE52-.LFB52
 8212 00c0 00000000 		.4byte	.LFB53
 8213 00c4 BC000000 		.4byte	.LFE53-.LFB53
 8214 00c8 00000000 		.4byte	.LFB54
 8215 00cc D4000000 		.4byte	.LFE54-.LFB54
 8216 00d0 00000000 		.4byte	.LFB55
 8217 00d4 20020000 		.4byte	.LFE55-.LFB55
 8218 00d8 00000000 		.4byte	0
 8219 00dc 00000000 		.4byte	0
 8220              		.section	.debug_ranges,"",%progbits
 8221              	.Ldebug_ranges0:
 8222 0000 94000000 		.4byte	.LBB15
 8223 0004 CE000000 		.4byte	.LBE15
 8224 0008 EA000000 		.4byte	.LBB16
 8225 000c EC000000 		.4byte	.LBE16
 8226 0010 00000000 		.4byte	0
 8227 0014 00000000 		.4byte	0
 8228 0018 00000000 		.4byte	.LFB0
 8229 001c 18000000 		.4byte	.LFE0
 8230 0020 00000000 		.4byte	.LFB11
 8231 0024 2E000000 		.4byte	.LFE11
 8232 0028 00000000 		.4byte	.LFB33
 8233 002c 94010000 		.4byte	.LFE33
 8234 0030 00000000 		.4byte	.LFB34
 8235 0034 E2000000 		.4byte	.LFE34
 8236 0038 00000000 		.4byte	.LFB35
 8237 003c B0000000 		.4byte	.LFE35
 8238 0040 00000000 		.4byte	.LFB36
 8239 0044 B8000000 		.4byte	.LFE36
 8240 0048 00000000 		.4byte	.LFB37
 8241 004c 3A000000 		.4byte	.LFE37
 8242 0050 00000000 		.4byte	.LFB38
 8243 0054 C6000000 		.4byte	.LFE38
 8244 0058 00000000 		.4byte	.LFB39
 8245 005c DC000000 		.4byte	.LFE39
 8246 0060 00000000 		.4byte	.LFB40
 8247 0064 C0000000 		.4byte	.LFE40
 8248 0068 00000000 		.4byte	.LFB41
 8249 006c CC000000 		.4byte	.LFE41
 8250 0070 00000000 		.4byte	.LFB42
 8251 0074 88000000 		.4byte	.LFE42
 8252 0078 00000000 		.4byte	.LFB43
 8253 007c 70000000 		.4byte	.LFE43
 8254 0080 00000000 		.4byte	.LFB44
 8255 0084 1C000000 		.4byte	.LFE44
 8256 0088 00000000 		.4byte	.LFB45
 8257 008c 1C000000 		.4byte	.LFE45
 8258 0090 00000000 		.4byte	.LFB46
 8259 0094 30000000 		.4byte	.LFE46
 8260 0098 00000000 		.4byte	.LFB47
 8261 009c 74000000 		.4byte	.LFE47
 8262 00a0 00000000 		.4byte	.LFB48
 8263 00a4 78000000 		.4byte	.LFE48
ARM GAS  C:\Users\tmj32\AppData\Local\Temp\ccIZw7Ef.s 			page 166


 8264 00a8 00000000 		.4byte	.LFB49
 8265 00ac 74000000 		.4byte	.LFE49
 8266 00b0 00000000 		.4byte	.LFB50
 8267 00b4 7E000000 		.4byte	.LFE50
 8268 00b8 00000000 		.4byte	.LFB51
 8269 00bc 70000000 		.4byte	.LFE51
 8270 00c0 00000000 		.4byte	.LFB52
 8271 00c4 AA050000 		.4byte	.LFE52
 8272 00c8 00000000 		.4byte	.LFB53
 8273 00cc BC000000 		.4byte	.LFE53
 8274 00d0 00000000 		.4byte	.LFB54
 8275 00d4 D4000000 		.4byte	.LFE54
 8276 00d8 00000000 		.4byte	.LFB55
 8277 00dc 20020000 		.4byte	.LFE55
 8278 00e0 00000000 		.4byte	0
 8279 00e4 00000000 		.4byte	0
 8280              		.section	.debug_line,"",%progbits
 8281              	.Ldebug_line0:
 8282 0000 F4070000 		.section	.debug_str,"MS",%progbits,1
 8282      02005C03 
 8282      00000201 
 8282      FB0E0D00 
 8282      01010101 
 8283              	.LASF14:
 8284 0000 696E7438 		.ascii	"int8_t\000"
 8284      5F7400
 8285              	.LASF76:
 8286 0007 6C765F6C 		.ascii	"lv_ll_node_t\000"
 8286      6C5F6E6F 
 8286      64655F74 
 8286      00
 8287              	.LASF21:
 8288 0014 6164765F 		.ascii	"adv_w\000"
 8288      7700
 8289              	.LASF183:
 8290 001a 68656164 		.ascii	"header_pr\000"
 8290      65725F70 
 8290      7200
 8291              	.LASF40:
 8292 0024 73697A65 		.ascii	"sizetype\000"
 8292      74797065 
 8292      00
 8293              	.LASF37:
 8294 002d 6C765F63 		.ascii	"lv_color32_t\000"
 8294      6F6C6F72 
 8294      33325F74 
 8294      00
 8295              	.LASF193:
 8296 003a 63656C6C 		.ascii	"cell\000"
 8296      00
 8297              	.LASF79:
 8298 003f 7461696C 		.ascii	"tail\000"
 8298      00
 8299              	.LASF217:
 8300 0044 6C765F66 		.ascii	"lv_font_get_line_height\000"
 8300      6F6E745F 
 8300      6765745F 
ARM GAS  C:\Users\tmj32\AppData\Local\Temp\ccIZw7Ef.s 			page 167


 8300      6C696E65 
 8300      5F686569 
 8301              	.LASF116:
 8302 005c 4C565F53 		.ascii	"LV_SIGNAL_STYLE_CHG\000"
 8302      49474E41 
 8302      4C5F5354 
 8302      594C455F 
 8302      43484700 
 8303              	.LASF39:
 8304 0070 6C765F6F 		.ascii	"lv_opa_t\000"
 8304      70615F74 
 8304      00
 8305              	.LASF155:
 8306 0079 72696768 		.ascii	"right_merge\000"
 8306      745F6D65 
 8306      72676500 
 8307              	.LASF64:
 8308 0085 696E7465 		.ascii	"intense\000"
 8308      6E736500 
 8309              	.LASF42:
 8310 008d 6C765F70 		.ascii	"lv_point_t\000"
 8310      6F696E74 
 8310      5F7400
 8311              	.LASF200:
 8312 0098 6C6D6574 		.ascii	"lmeter\000"
 8312      657200
 8313              	.LASF153:
 8314 009f 4C565F4C 		.ascii	"LV_LABEL_ALIGN_AUTO\000"
 8314      4142454C 
 8314      5F414C49 
 8314      474E5F41 
 8314      55544F00 
 8315              	.LASF124:
 8316 00b3 4C565F53 		.ascii	"LV_SIGNAL_LONG_PRESS\000"
 8316      49474E41 
 8316      4C5F4C4F 
 8316      4E475F50 
 8316      52455353 
 8317              	.LASF56:
 8318 00c8 72616469 		.ascii	"radius\000"
 8318      757300
 8319              	.LASF141:
 8320 00cf 6C765F72 		.ascii	"lv_reailgn_t\000"
 8320      6561696C 
 8320      676E5F74 
 8320      00
 8321              	.LASF29:
 8322 00dc 6C696E65 		.ascii	"line_height\000"
 8322      5F686569 
 8322      67687400 
 8323              	.LASF91:
 8324 00e8 636C6963 		.ascii	"click\000"
 8324      6B00
 8325              	.LASF134:
 8326 00ee 6C765F61 		.ascii	"lv_align_t\000"
 8326      6C69676E 
 8326      5F7400
ARM GAS  C:\Users\tmj32\AppData\Local\Temp\ccIZw7Ef.s 			page 168


 8327              	.LASF126:
 8328 00f9 4C565F53 		.ascii	"LV_SIGNAL_DRAG_BEGIN\000"
 8328      49474E41 
 8328      4C5F4452 
 8328      41475F42 
 8328      4547494E 
 8329              	.LASF265:
 8330 010e 726F775F 		.ascii	"row_id\000"
 8330      696400
 8331              	.LASF185:
 8332 0115 68696768 		.ascii	"highlighted_days\000"
 8332      6C696768 
 8332      7465645F 
 8332      64617973 
 8332      00
 8333              	.LASF162:
 8334 0126 63656C6C 		.ascii	"cell_style\000"
 8334      5F737479 
 8334      6C6500
 8335              	.LASF262:
 8336 0131 7369676E 		.ascii	"sign\000"
 8336      00
 8337              	.LASF110:
 8338 0136 6C765F65 		.ascii	"lv_event_t\000"
 8338      76656E74 
 8338      5F7400
 8339              	.LASF73:
 8340 0141 4C565F52 		.ascii	"LV_RES_INV\000"
 8340      45535F49 
 8340      4E5600
 8341              	.LASF266:
 8342 014c 7478745F 		.ascii	"txt_w\000"
 8342      7700
 8343              	.LASF120:
 8344 0152 4C565F53 		.ascii	"LV_SIGNAL_PRESSED\000"
 8344      49474E41 
 8344      4C5F5052 
 8344      45535345 
 8344      4400
 8345              	.LASF49:
 8346 0164 74797065 		.ascii	"type\000"
 8346      00
 8347              	.LASF226:
 8348 0169 6C765F74 		.ascii	"lv_table_set_row_cnt\000"
 8348      61626C65 
 8348      5F736574 
 8348      5F726F77 
 8348      5F636E74 
 8349              	.LASF234:
 8350 017e 6C765F74 		.ascii	"lv_table_set_cell_align\000"
 8350      61626C65 
 8350      5F736574 
 8350      5F63656C 
 8350      6C5F616C 
 8351              	.LASF175:
 8352 0196 6C696768 		.ascii	"light\000"
 8352      7400
ARM GAS  C:\Users\tmj32\AppData\Local\Temp\ccIZw7Ef.s 			page 169


 8353              	.LASF196:
 8354 019c 636F6E74 		.ascii	"cont\000"
 8354      00
 8355              	.LASF173:
 8356 01a1 7072696D 		.ascii	"prim\000"
 8356      00
 8357              	.LASF203:
 8358 01a6 63686172 		.ascii	"chart\000"
 8358      7400
 8359              	.LASF151:
 8360 01ac 4C565F4C 		.ascii	"LV_LABEL_ALIGN_CENTER\000"
 8360      4142454C 
 8360      5F414C49 
 8360      474E5F43 
 8360      454E5445 
 8361              	.LASF253:
 8362 01c2 685F726F 		.ascii	"h_row\000"
 8362      7700
 8363              	.LASF1:
 8364 01c8 5F5F7569 		.ascii	"__uint8_t\000"
 8364      6E74385F 
 8364      7400
 8365              	.LASF35:
 8366 01d2 616C7068 		.ascii	"alpha\000"
 8366      6100
 8367              	.LASF95:
 8368 01d8 68696464 		.ascii	"hidden\000"
 8368      656E00
 8369              	.LASF8:
 8370 01df 6C6F6E67 		.ascii	"long int\000"
 8370      20696E74 
 8370      00
 8371              	.LASF231:
 8372 01e8 6F6C645F 		.ascii	"old_col_cnt\000"
 8372      636F6C5F 
 8372      636E7400 
 8373              	.LASF255:
 8374 01f4 63656C6C 		.ascii	"cell_area\000"
 8374      5F617265 
 8374      6100
 8375              	.LASF228:
 8376 01fe 6F6C645F 		.ascii	"old_cell_cnt\000"
 8376      63656C6C 
 8376      5F636E74 
 8376      00
 8377              	.LASF213:
 8378 020b 74696C65 		.ascii	"tileview\000"
 8378      76696577 
 8378      00
 8379              	.LASF148:
 8380 0214 4C565F54 		.ascii	"LV_TXT_FLAG_RIGHT\000"
 8380      58545F46 
 8380      4C41475F 
 8380      52494748 
 8380      5400
 8381              	.LASF220:
 8382 0226 61726561 		.ascii	"area_p\000"
ARM GAS  C:\Users\tmj32\AppData\Local\Temp\ccIZw7Ef.s 			page 170


 8382      5F7000
 8383              	.LASF78:
 8384 022d 68656164 		.ascii	"head\000"
 8384      00
 8385              	.LASF243:
 8386 0232 6C765F74 		.ascii	"lv_table_get_col_width\000"
 8386      61626C65 
 8386      5F676574 
 8386      5F636F6C 
 8386      5F776964 
 8387              	.LASF159:
 8388 0249 636F6C5F 		.ascii	"col_cnt\000"
 8388      636E7400 
 8389              	.LASF237:
 8390 0251 6C765F74 		.ascii	"lv_table_set_cell_merge_right\000"
 8390      61626C65 
 8390      5F736574 
 8390      5F63656C 
 8390      6C5F6D65 
 8391              	.LASF205:
 8392 026f 62746E6D 		.ascii	"btnm\000"
 8392      00
 8393              	.LASF145:
 8394 0274 4C565F54 		.ascii	"LV_TXT_FLAG_RECOLOR\000"
 8394      58545F46 
 8394      4C41475F 
 8394      5245434F 
 8394      4C4F5200 
 8395              	.LASF2:
 8396 0288 7369676E 		.ascii	"signed char\000"
 8396      65642063 
 8396      68617200 
 8397              	.LASF249:
 8398 0294 6C765F74 		.ascii	"lv_table_design\000"
 8398      61626C65 
 8398      5F646573 
 8398      69676E00 
 8399              	.LASF15:
 8400 02a4 75696E74 		.ascii	"uint8_t\000"
 8400      385F7400 
 8401              	.LASF188:
 8402 02ac 746F6461 		.ascii	"today_box\000"
 8402      795F626F 
 8402      7800
 8403              	.LASF172:
 8404 02b6 74676C5F 		.ascii	"tgl_pr\000"
 8404      707200
 8405              	.LASF28:
 8406 02bd 6765745F 		.ascii	"get_glyph_bitmap\000"
 8406      676C7970 
 8406      685F6269 
 8406      746D6170 
 8406      00
 8407              	.LASF189:
 8408 02ce 7363726C 		.ascii	"scrl\000"
 8408      00
 8409              	.LASF33:
ARM GAS  C:\Users\tmj32\AppData\Local\Temp\ccIZw7Ef.s 			page 171


 8410 02d3 626C7565 		.ascii	"blue\000"
 8410      00
 8411              	.LASF125:
 8412 02d8 4C565F53 		.ascii	"LV_SIGNAL_LONG_PRESS_REP\000"
 8412      49474E41 
 8412      4C5F4C4F 
 8412      4E475F50 
 8412      52455353 
 8413              	.LASF167:
 8414 02f1 4C565F54 		.ascii	"LV_TABLE_STYLE_CELL2\000"
 8414      41424C45 
 8414      5F535459 
 8414      4C455F43 
 8414      454C4C32 
 8415              	.LASF168:
 8416 0306 4C565F54 		.ascii	"LV_TABLE_STYLE_CELL3\000"
 8416      41424C45 
 8416      5F535459 
 8416      4C455F43 
 8416      454C4C33 
 8417              	.LASF169:
 8418 031b 4C565F54 		.ascii	"LV_TABLE_STYLE_CELL4\000"
 8418      41424C45 
 8418      5F535459 
 8418      4C455F43 
 8418      454C4C34 
 8419              	.LASF3:
 8420 0330 756E7369 		.ascii	"unsigned char\000"
 8420      676E6564 
 8420      20636861 
 8420      7200
 8421              	.LASF152:
 8422 033e 4C565F4C 		.ascii	"LV_LABEL_ALIGN_RIGHT\000"
 8422      4142454C 
 8422      5F414C49 
 8422      474E5F52 
 8422      49474854 
 8423              	.LASF118:
 8424 0353 4C565F53 		.ascii	"LV_SIGNAL_REFR_EXT_DRAW_PAD\000"
 8424      49474E41 
 8424      4C5F5245 
 8424      46525F45 
 8424      58545F44 
 8425              	.LASF98:
 8426 036f 64726167 		.ascii	"drag_dir\000"
 8426      5F646972 
 8426      00
 8427              	.LASF267:
 8428 0378 726F775F 		.ascii	"row_start\000"
 8428      73746172 
 8428      7400
 8429              	.LASF163:
 8430 0382 636F6C5F 		.ascii	"col_w\000"
 8430      7700
 8431              	.LASF181:
 8432 0388 6B6E6F62 		.ascii	"knob_on\000"
 8432      5F6F6E00 
ARM GAS  C:\Users\tmj32\AppData\Local\Temp\ccIZw7Ef.s 			page 172


 8433              	.LASF24:
 8434 0390 6F66735F 		.ascii	"ofs_x\000"
 8434      7800
 8435              	.LASF25:
 8436 0396 6F66735F 		.ascii	"ofs_y\000"
 8436      7900
 8437              	.LASF182:
 8438 039c 68656164 		.ascii	"header\000"
 8438      657200
 8439              	.LASF31:
 8440 03a3 5F426F6F 		.ascii	"_Bool\000"
 8440      6C00
 8441              	.LASF133:
 8442 03a9 6C765F73 		.ascii	"lv_signal_cb_t\000"
 8442      69676E61 
 8442      6C5F6362 
 8442      5F7400
 8443              	.LASF214:
 8444 03b8 7461626C 		.ascii	"table\000"
 8444      6500
 8445              	.LASF261:
 8446 03be 6C765F74 		.ascii	"lv_table_signal\000"
 8446      61626C65 
 8446      5F736967 
 8446      6E616C00 
 8447              	.LASF41:
 8448 03ce 63686172 		.ascii	"char\000"
 8448      00
 8449              	.LASF165:
 8450 03d3 4C565F54 		.ascii	"LV_TABLE_STYLE_BG\000"
 8450      41424C45 
 8450      5F535459 
 8450      4C455F42 
 8450      4700
 8451              	.LASF166:
 8452 03e5 4C565F54 		.ascii	"LV_TABLE_STYLE_CELL1\000"
 8452      41424C45 
 8452      5F535459 
 8452      4C455F43 
 8452      454C4C31 
 8453              	.LASF106:
 8454 03fa 4C565F44 		.ascii	"LV_DESIGN_DRAW_POST\000"
 8454      45534947 
 8454      4E5F4452 
 8454      41575F50 
 8454      4F535400 
 8455              	.LASF68:
 8456 040e 626F6479 		.ascii	"body\000"
 8456      00
 8457              	.LASF137:
 8458 0413 796F6673 		.ascii	"yofs\000"
 8458      00
 8459              	.LASF6:
 8460 0418 5F5F7569 		.ascii	"__uint16_t\000"
 8460      6E743136 
 8460      5F7400
 8461              	.LASF187:
ARM GAS  C:\Users\tmj32\AppData\Local\Temp\ccIZw7Ef.s 			page 173


 8462 0423 7765656B 		.ascii	"week_box\000"
 8462      5F626F78 
 8462      00
 8463              	.LASF107:
 8464 042c 4C565F44 		.ascii	"LV_DESIGN_COVER_CHK\000"
 8464      45534947 
 8464      4E5F434F 
 8464      5645525F 
 8464      43484B00 
 8465              	.LASF88:
 8466 0440 64657369 		.ascii	"design_cb\000"
 8466      676E5F63 
 8466      6200
 8467              	.LASF264:
 8468 044a 6765745F 		.ascii	"get_row_height\000"
 8468      726F775F 
 8468      68656967 
 8468      687400
 8469              	.LASF144:
 8470 0459 4C565F54 		.ascii	"LV_TXT_FLAG_NONE\000"
 8470      58545F46 
 8470      4C41475F 
 8470      4E4F4E45 
 8470      00
 8471              	.LASF239:
 8472 046a 6C765F74 		.ascii	"lv_table_create\000"
 8472      61626C65 
 8472      5F637265 
 8472      61746500 
 8473              	.LASF272:
 8474 047a 6C765F73 		.ascii	"lv_style_plain_color\000"
 8474      74796C65 
 8474      5F706C61 
 8474      696E5F63 
 8474      6F6C6F72 
 8475              	.LASF129:
 8476 048f 4C565F53 		.ascii	"LV_SIGNAL_DEFOCUS\000"
 8476      49474E41 
 8476      4C5F4445 
 8476      464F4355 
 8476      5300
 8477              	.LASF210:
 8478 04a1 64646C69 		.ascii	"ddlist\000"
 8478      737400
 8479              	.LASF69:
 8480 04a8 74657874 		.ascii	"text\000"
 8480      00
 8481              	.LASF70:
 8482 04ad 696D6167 		.ascii	"image\000"
 8482      6500
 8483              	.LASF66:
 8484 04b3 726F756E 		.ascii	"rounded\000"
 8484      64656400 
 8485              	.LASF93:
 8486 04bb 64726167 		.ascii	"drag_throw\000"
 8486      5F746872 
 8486      6F7700
ARM GAS  C:\Users\tmj32\AppData\Local\Temp\ccIZw7Ef.s 			page 174


 8487              	.LASF257:
 8488 04c6 7478745F 		.ascii	"txt_flags\000"
 8488      666C6167 
 8488      7300
 8489              	.LASF186:
 8490 04d0 696E6163 		.ascii	"inactive_days\000"
 8490      74697665 
 8490      5F646179 
 8490      7300
 8491              	.LASF225:
 8492 04de 6C765F74 		.ascii	"lv_table_set_cell_value\000"
 8492      61626C65 
 8492      5F736574 
 8492      5F63656C 
 8492      6C5F7661 
 8493              	.LASF81:
 8494 04f6 6C765F62 		.ascii	"lv_bidi_dir_t\000"
 8494      6964695F 
 8494      6469725F 
 8494      7400
 8495              	.LASF103:
 8496 0504 6578745F 		.ascii	"ext_draw_pad\000"
 8496      64726177 
 8496      5F706164 
 8496      00
 8497              	.LASF43:
 8498 0511 6C765F61 		.ascii	"lv_area_t\000"
 8498      7265615F 
 8498      7400
 8499              	.LASF241:
 8500 051b 6C765F74 		.ascii	"lv_table_get_row_cnt\000"
 8500      61626C65 
 8500      5F676574 
 8500      5F726F77 
 8500      5F636E74 
 8501              	.LASF147:
 8502 0530 4C565F54 		.ascii	"LV_TXT_FLAG_CENTER\000"
 8502      58545F46 
 8502      4C41475F 
 8502      43454E54 
 8502      455200
 8503              	.LASF51:
 8504 0543 6C656674 		.ascii	"left\000"
 8504      00
 8505              	.LASF216:
 8506 0548 6C765F74 		.ascii	"lv_theme_t\000"
 8506      68656D65 
 8506      5F7400
 8507              	.LASF104:
 8508 0553 7265616C 		.ascii	"realign\000"
 8508      69676E00 
 8509              	.LASF119:
 8510 055b 4C565F53 		.ascii	"LV_SIGNAL_GET_TYPE\000"
 8510      49474E41 
 8510      4C5F4745 
 8510      545F5459 
 8510      504500
ARM GAS  C:\Users\tmj32\AppData\Local\Temp\ccIZw7Ef.s 			page 175


 8511              	.LASF190:
 8512 056e 61726561 		.ascii	"area\000"
 8512      00
 8513              	.LASF72:
 8514 0573 6C765F73 		.ascii	"lv_style_t\000"
 8514      74796C65 
 8514      5F7400
 8515              	.LASF53:
 8516 057e 696E6E65 		.ascii	"inner\000"
 8516      7200
 8517              	.LASF10:
 8518 0584 6C6F6E67 		.ascii	"long unsigned int\000"
 8518      20756E73 
 8518      69676E65 
 8518      6420696E 
 8518      7400
 8519              	.LASF224:
 8520 0596 666F726D 		.ascii	"format\000"
 8520      617400
 8521              	.LASF174:
 8522 059d 68696E74 		.ascii	"hint\000"
 8522      00
 8523              	.LASF263:
 8524 05a2 70617261 		.ascii	"param\000"
 8524      6D00
 8525              	.LASF71:
 8526 05a8 6C696E65 		.ascii	"line\000"
 8526      00
 8527              	.LASF128:
 8528 05ad 4C565F53 		.ascii	"LV_SIGNAL_FOCUS\000"
 8528      49474E41 
 8528      4C5F464F 
 8528      43555300 
 8529              	.LASF146:
 8530 05bd 4C565F54 		.ascii	"LV_TXT_FLAG_EXPAND\000"
 8530      58545F46 
 8530      4C41475F 
 8530      45585041 
 8530      4E4400
 8531              	.LASF259:
 8532 05d0 6C616265 		.ascii	"label_mask\000"
 8532      6C5F6D61 
 8532      736B00
 8533              	.LASF236:
 8534 05db 6C765F74 		.ascii	"lv_table_set_cell_crop\000"
 8534      61626C65 
 8534      5F736574 
 8534      5F63656C 
 8534      6C5F6372 
 8535              	.LASF258:
 8536 05f2 636F6C5F 		.ascii	"col_merge\000"
 8536      6D657267 
 8536      6500
 8537              	.LASF221:
 8538 05fc 636F7079 		.ascii	"copy\000"
 8538      00
 8539              	.LASF170:
ARM GAS  C:\Users\tmj32\AppData\Local\Temp\ccIZw7Ef.s 			page 176


 8540 0601 6C765F74 		.ascii	"lv_table_style_t\000"
 8540      61626C65 
 8540      5F737479 
 8540      6C655F74 
 8540      00
 8541              	.LASF131:
 8542 0612 4C565F53 		.ascii	"LV_SIGNAL_GET_EDITABLE\000"
 8542      49474E41 
 8542      4C5F4745 
 8542      545F4544 
 8542      49544142 
 8543              	.LASF238:
 8544 0629 6C765F74 		.ascii	"lv_table_set_style\000"
 8544      61626C65 
 8544      5F736574 
 8544      5F737479 
 8544      6C6500
 8545              	.LASF191:
 8546 063c 6F6E656C 		.ascii	"oneline\000"
 8546      696E6500 
 8547              	.LASF276:
 8548 0644 72656672 		.ascii	"refr_size\000"
 8548      5F73697A 
 8548      6500
 8549              	.LASF244:
 8550 064e 6C765F74 		.ascii	"lv_table_get_cell_align\000"
 8550      61626C65 
 8550      5F676574 
 8550      5F63656C 
 8550      6C5F616C 
 8551              	.LASF235:
 8552 0666 6C765F74 		.ascii	"lv_table_set_cell_type\000"
 8552      61626C65 
 8552      5F736574 
 8552      5F63656C 
 8552      6C5F7479 
 8553              	.LASF9:
 8554 067d 5F5F7569 		.ascii	"__uint32_t\000"
 8554      6E743332 
 8554      5F7400
 8555              	.LASF86:
 8556 0688 6576656E 		.ascii	"event_cb\000"
 8556      745F6362 
 8556      00
 8557              	.LASF52:
 8558 0691 72696768 		.ascii	"right\000"
 8558      7400
 8559              	.LASF90:
 8560 0697 7374796C 		.ascii	"style_p\000"
 8560      655F7000 
 8561              	.LASF11:
 8562 069f 6C6F6E67 		.ascii	"long long int\000"
 8562      206C6F6E 
 8562      6720696E 
 8562      7400
 8563              	.LASF275:
 8564 06ad 433A5C55 		.ascii	"C:\\Users\\tmj32\\Documents\\TCNJ\\Senior_Project\\"
ARM GAS  C:\Users\tmj32\AppData\Local\Temp\ccIZw7Ef.s 			page 177


 8564      73657273 
 8564      5C746D6A 
 8564      33325C44 
 8564      6F63756D 
 8565 06da 4F736369 		.ascii	"Oscilloscope_Senior_Project\\tcom_engineering\\embe"
 8565      6C6C6F73 
 8565      636F7065 
 8565      5F53656E 
 8565      696F725F 
 8566 070b 645F7377 		.ascii	"d_sw\\tcom_app\\tcom_app_psoc6_lvgl6\\tcom_displ_te"
 8566      5C74636F 
 8566      6D5F6170 
 8566      705C7463 
 8566      6F6D5F61 
 8567 073b 73745F70 		.ascii	"st_psoc6.cydsn\000"
 8567      736F6336 
 8567      2E637964 
 8567      736E00
 8568              	.LASF232:
 8569 074a 6C765F74 		.ascii	"lv_table_set_col_width\000"
 8569      61626C65 
 8569      5F736574 
 8569      5F636F6C 
 8569      5F776964 
 8570              	.LASF47:
 8571 0761 77696474 		.ascii	"width\000"
 8571      6800
 8572              	.LASF130:
 8573 0767 4C565F53 		.ascii	"LV_SIGNAL_CONTROL\000"
 8573      49474E41 
 8573      4C5F434F 
 8573      4E54524F 
 8573      4C00
 8574              	.LASF50:
 8575 0779 626F7474 		.ascii	"bottom\000"
 8575      6F6D00
 8576              	.LASF84:
 8577 0780 6368696C 		.ascii	"child_ll\000"
 8577      645F6C6C 
 8577      00
 8578              	.LASF178:
 8579 0789 696E6469 		.ascii	"indic\000"
 8579      6300
 8580              	.LASF101:
 8581 078f 70726F74 		.ascii	"protect\000"
 8581      65637400 
 8582              	.LASF227:
 8583 0797 6F6C645F 		.ascii	"old_row_cnt\000"
 8583      726F775F 
 8583      636E7400 
 8584              	.LASF250:
 8585 07a3 6D61736B 		.ascii	"mask\000"
 8585      00
 8586              	.LASF212:
 8587 07a8 74616276 		.ascii	"tabview\000"
 8587      69657700 
 8588              	.LASF97:
ARM GAS  C:\Users\tmj32\AppData\Local\Temp\ccIZw7Ef.s 			page 178


 8589 07b0 70617265 		.ascii	"parent_event\000"
 8589      6E745F65 
 8589      76656E74 
 8589      00
 8590              	.LASF112:
 8591 07bd 4C565F53 		.ascii	"LV_SIGNAL_CLEANUP\000"
 8591      49474E41 
 8591      4C5F434C 
 8591      45414E55 
 8591      5000
 8592              	.LASF138:
 8593 07cf 616C6967 		.ascii	"align\000"
 8593      6E00
 8594              	.LASF67:
 8595 07d5 676C6173 		.ascii	"glass\000"
 8595      7300
 8596              	.LASF229:
 8597 07db 6E65775F 		.ascii	"new_cell_cnt\000"
 8597      63656C6C 
 8597      5F636E74 
 8597      00
 8598              	.LASF160:
 8599 07e8 726F775F 		.ascii	"row_cnt\000"
 8599      636E7400 
 8600              	.LASF13:
 8601 07f0 756E7369 		.ascii	"unsigned int\000"
 8601      676E6564 
 8601      20696E74 
 8601      00
 8602              	.LASF113:
 8603 07fd 4C565F53 		.ascii	"LV_SIGNAL_CHILD_CHG\000"
 8603      49474E41 
 8603      4C5F4348 
 8603      494C445F 
 8603      43484700 
 8604              	.LASF149:
 8605 0811 6C765F74 		.ascii	"lv_txt_flag_t\000"
 8605      78745F66 
 8605      6C61675F 
 8605      7400
 8606              	.LASF206:
 8607 081f 6D626F78 		.ascii	"mbox\000"
 8607      00
 8608              	.LASF171:
 8609 0824 74676C5F 		.ascii	"tgl_rel\000"
 8609      72656C00 
 8610              	.LASF260:
 8611 082c 6C616265 		.ascii	"label_mask_ok\000"
 8611      6C5F6D61 
 8611      736B5F6F 
 8611      6B00
 8612              	.LASF139:
 8613 083a 6175746F 		.ascii	"auto_realign\000"
 8613      5F726561 
 8613      6C69676E 
 8613      00
 8614              	.LASF271:
ARM GAS  C:\Users\tmj32\AppData\Local\Temp\ccIZw7Ef.s 			page 179


 8615 0847 6C765F73 		.ascii	"lv_style_plain\000"
 8615      74796C65 
 8615      5F706C61 
 8615      696E00
 8616              	.LASF105:
 8617 0856 4C565F44 		.ascii	"LV_DESIGN_DRAW_MAIN\000"
 8617      45534947 
 8617      4E5F4452 
 8617      41575F4D 
 8617      41494E00 
 8618              	.LASF26:
 8619 086a 6C765F66 		.ascii	"lv_font_glyph_dsc_t\000"
 8619      6F6E745F 
 8619      676C7970 
 8619      685F6473 
 8619      635F7400 
 8620              	.LASF209:
 8621 087e 6C697374 		.ascii	"list\000"
 8621      00
 8622              	.LASF55:
 8623 0883 67726164 		.ascii	"grad_color\000"
 8623      5F636F6C 
 8623      6F7200
 8624              	.LASF252:
 8625 088e 62675F73 		.ascii	"bg_style\000"
 8625      74796C65 
 8625      00
 8626              	.LASF207:
 8627 0897 70616765 		.ascii	"page\000"
 8627      00
 8628              	.LASF180:
 8629 089c 6B6E6F62 		.ascii	"knob_off\000"
 8629      5F6F6666 
 8629      00
 8630              	.LASF201:
 8631 08a5 67617567 		.ascii	"gauge\000"
 8631      6500
 8632              	.LASF158:
 8633 08ab 6C765F74 		.ascii	"lv_table_cell_format_t\000"
 8633      61626C65 
 8633      5F63656C 
 8633      6C5F666F 
 8633      726D6174 
 8634              	.LASF121:
 8635 08c2 4C565F53 		.ascii	"LV_SIGNAL_PRESSING\000"
 8635      49474E41 
 8635      4C5F5052 
 8635      45535349 
 8635      4E4700
 8636              	.LASF75:
 8637 08d5 6C765F72 		.ascii	"lv_res_t\000"
 8637      65735F74 
 8637      00
 8638              	.LASF20:
 8639 08de 6C6F6E67 		.ascii	"long double\000"
 8639      20646F75 
 8639      626C6500 
ARM GAS  C:\Users\tmj32\AppData\Local\Temp\ccIZw7Ef.s 			page 180


 8640              	.LASF142:
 8641 08ea 6C765F64 		.ascii	"lv_drag_dir_t\000"
 8641      7261675F 
 8641      6469725F 
 8641      7400
 8642              	.LASF215:
 8643 08f8 7374796C 		.ascii	"style\000"
 8643      6500
 8644              	.LASF233:
 8645 08fe 636F6C5F 		.ascii	"col_id\000"
 8645      696400
 8646              	.LASF89:
 8647 0905 6578745F 		.ascii	"ext_attr\000"
 8647      61747472 
 8647      00
 8648              	.LASF268:
 8649 090e 685F6D61 		.ascii	"h_max\000"
 8649      7800
 8650              	.LASF108:
 8651 0914 6C765F64 		.ascii	"lv_design_mode_t\000"
 8651      65736967 
 8651      6E5F6D6F 
 8651      64655F74 
 8651      00
 8652              	.LASF65:
 8653 0925 73756270 		.ascii	"subpx\000"
 8653      7800
 8654              	.LASF122:
 8655 092b 4C565F53 		.ascii	"LV_SIGNAL_PRESS_LOST\000"
 8655      49474E41 
 8655      4C5F5052 
 8655      4553535F 
 8655      4C4F5354 
 8656              	.LASF127:
 8657 0940 4C565F53 		.ascii	"LV_SIGNAL_DRAG_END\000"
 8657      49474E41 
 8657      4C5F4452 
 8657      41475F45 
 8657      4E4400
 8658              	.LASF154:
 8659 0953 6C765F6C 		.ascii	"lv_label_align_t\000"
 8659      6162656C 
 8659      5F616C69 
 8659      676E5F74 
 8659      00
 8660              	.LASF115:
 8661 0964 4C565F53 		.ascii	"LV_SIGNAL_PARENT_SIZE_CHG\000"
 8661      49474E41 
 8661      4C5F5041 
 8661      52454E54 
 8661      5F53495A 
 8662              	.LASF123:
 8663 097e 4C565F53 		.ascii	"LV_SIGNAL_RELEASED\000"
 8663      49474E41 
 8663      4C5F5245 
 8663      4C454153 
 8663      454400
ARM GAS  C:\Users\tmj32\AppData\Local\Temp\ccIZw7Ef.s 			page 181


 8664              	.LASF54:
 8665 0991 6D61696E 		.ascii	"main_color\000"
 8665      5F636F6C 
 8665      6F7200
 8666              	.LASF0:
 8667 099c 5F5F696E 		.ascii	"__int8_t\000"
 8667      74385F74 
 8667      00
 8668              	.LASF132:
 8669 09a5 6C765F73 		.ascii	"lv_signal_t\000"
 8669      69676E61 
 8669      6C5F7400 
 8670              	.LASF12:
 8671 09b1 6C6F6E67 		.ascii	"long long unsigned int\000"
 8671      206C6F6E 
 8671      6720756E 
 8671      7369676E 
 8671      65642069 
 8672              	.LASF17:
 8673 09c8 75696E74 		.ascii	"uint16_t\000"
 8673      31365F74 
 8673      00
 8674              	.LASF74:
 8675 09d1 4C565F52 		.ascii	"LV_RES_OK\000"
 8675      45535F4F 
 8675      4B00
 8676              	.LASF38:
 8677 09db 6C765F63 		.ascii	"lv_color_t\000"
 8677      6F6C6F72 
 8677      5F7400
 8678              	.LASF269:
 8679 09e6 616E6365 		.ascii	"ancestor_signal\000"
 8679      73746F72 
 8679      5F736967 
 8679      6E616C00 
 8680              	.LASF230:
 8681 09f6 6C765F74 		.ascii	"lv_table_set_col_cnt\000"
 8681      61626C65 
 8681      5F736574 
 8681      5F636F6C 
 8681      5F636E74 
 8682              	.LASF240:
 8683 0a0b 6C765F74 		.ascii	"lv_table_get_cell_value\000"
 8683      61626C65 
 8683      5F676574 
 8683      5F63656C 
 8683      6C5F7661 
 8684              	.LASF161:
 8685 0a23 63656C6C 		.ascii	"cell_data\000"
 8685      5F646174 
 8685      6100
 8686              	.LASF273:
 8687 0a2d 474E5520 		.ascii	"GNU C11 5.4.1 20160609 (release) [ARM/embedded-5-br"
 8687      43313120 
 8687      352E342E 
 8687      31203230 
 8687      31363036 
ARM GAS  C:\Users\tmj32\AppData\Local\Temp\ccIZw7Ef.s 			page 182


 8688 0a60 616E6368 		.ascii	"anch revision 237715] -mcpu=cortex-m4 -mfloat-abi=s"
 8688      20726576 
 8688      6973696F 
 8688      6E203233 
 8688      37373135 
 8689 0a93 6F667466 		.ascii	"oftfp -mfpu=fpv4-sp-d16 -mthumb -g -O0 -ffunction-s"
 8689      70202D6D 
 8689      6670753D 
 8689      66707634 
 8689      2D73702D 
 8690 0ac6 65637469 		.ascii	"ections -ffat-lto-objects\000"
 8690      6F6E7320 
 8690      2D666661 
 8690      742D6C74 
 8690      6F2D6F62 
 8691              	.LASF156:
 8692 0ae0 63726F70 		.ascii	"crop\000"
 8692      00
 8693              	.LASF177:
 8694 0ae5 6465636F 		.ascii	"decor\000"
 8694      7200
 8695              	.LASF197:
 8696 0aeb 696D6762 		.ascii	"imgbtn\000"
 8696      746E00
 8697              	.LASF4:
 8698 0af2 5F5F696E 		.ascii	"__int16_t\000"
 8698      7431365F 
 8698      7400
 8699              	.LASF195:
 8700 0afc 70616E65 		.ascii	"panel\000"
 8700      6C00
 8701              	.LASF36:
 8702 0b02 66756C6C 		.ascii	"full\000"
 8702      00
 8703              	.LASF46:
 8704 0b07 636F6C6F 		.ascii	"color\000"
 8704      7200
 8705              	.LASF63:
 8706 0b0d 6C696E65 		.ascii	"line_space\000"
 8706      5F737061 
 8706      636500
 8707              	.LASF274:
 8708 0b18 2E2E5C2E 		.ascii	"..\\..\\..\\lvgl\\version_6.1.2\\lvgl\\src\\lv_objx"
 8708      2E5C2E2E 
 8708      5C6C7667 
 8708      6C5C7665 
 8708      7273696F 
 8709 0b44 5C6C765F 		.ascii	"\\lv_table.c\000"
 8709      7461626C 
 8709      652E6300 
 8710              	.LASF136:
 8711 0b50 786F6673 		.ascii	"xofs\000"
 8711      00
 8712              	.LASF143:
 8713 0b55 6C765F6F 		.ascii	"lv_obj_t\000"
 8713      626A5F74 
 8713      00
ARM GAS  C:\Users\tmj32\AppData\Local\Temp\ccIZw7Ef.s 			page 183


 8714              	.LASF45:
 8715 0b5e 6C765F73 		.ascii	"lv_shadow_type_t\000"
 8715      6861646F 
 8715      775F7479 
 8715      70655F74 
 8715      00
 8716              	.LASF92:
 8717 0b6f 64726167 		.ascii	"drag\000"
 8717      00
 8718              	.LASF83:
 8719 0b74 5F6C765F 		.ascii	"_lv_obj_t\000"
 8719      6F626A5F 
 8719      7400
 8720              	.LASF61:
 8721 0b7e 666F6E74 		.ascii	"font\000"
 8721      00
 8722              	.LASF62:
 8723 0b83 6C657474 		.ascii	"letter_space\000"
 8723      65725F73 
 8723      70616365 
 8723      00
 8724              	.LASF204:
 8725 0b90 63616C65 		.ascii	"calendar\000"
 8725      6E646172 
 8725      00
 8726              	.LASF99:
 8727 0b99 62617365 		.ascii	"base_dir\000"
 8727      5F646972 
 8727      00
 8728              	.LASF23:
 8729 0ba2 626F785F 		.ascii	"box_h\000"
 8729      6800
 8730              	.LASF135:
 8731 0ba8 62617365 		.ascii	"base\000"
 8731      00
 8732              	.LASF22:
 8733 0bad 626F785F 		.ascii	"box_w\000"
 8733      7700
 8734              	.LASF5:
 8735 0bb3 73686F72 		.ascii	"short int\000"
 8735      7420696E 
 8735      7400
 8736              	.LASF30:
 8737 0bbd 62617365 		.ascii	"base_line\000"
 8737      5F6C696E 
 8737      6500
 8738              	.LASF80:
 8739 0bc7 6C765F6C 		.ascii	"lv_ll_t\000"
 8739      6C5F7400 
 8740              	.LASF248:
 8741 0bcf 6C765F74 		.ascii	"lv_table_get_style\000"
 8741      61626C65 
 8741      5F676574 
 8741      5F737479 
 8741      6C6500
 8742              	.LASF251:
 8743 0be2 6D6F6465 		.ascii	"mode\000"
ARM GAS  C:\Users\tmj32\AppData\Local\Temp\ccIZw7Ef.s 			page 184


 8743      00
 8744              	.LASF246:
 8745 0be7 6C765F74 		.ascii	"lv_table_get_cell_crop\000"
 8745      61626C65 
 8745      5F676574 
 8745      5F63656C 
 8745      6C5F6372 
 8746              	.LASF16:
 8747 0bfe 696E7431 		.ascii	"int16_t\000"
 8747      365F7400 
 8748              	.LASF164:
 8749 0c06 6C765F74 		.ascii	"lv_table_ext_t\000"
 8749      61626C65 
 8749      5F657874 
 8749      5F7400
 8750              	.LASF114:
 8751 0c15 4C565F53 		.ascii	"LV_SIGNAL_CORD_CHG\000"
 8751      49474E41 
 8751      4C5F434F 
 8751      52445F43 
 8751      484700
 8752              	.LASF85:
 8753 0c28 636F6F72 		.ascii	"coords\000"
 8753      647300
 8754              	.LASF208:
 8755 0c2f 7370696E 		.ascii	"spinbox\000"
 8755      626F7800 
 8756              	.LASF245:
 8757 0c37 6C765F74 		.ascii	"lv_table_get_cell_type\000"
 8757      61626C65 
 8757      5F676574 
 8757      5F63656C 
 8757      6C5F7479 
 8758              	.LASF96:
 8759 0c4e 6F70615F 		.ascii	"opa_scale_en\000"
 8759      7363616C 
 8759      655F656E 
 8759      00
 8760              	.LASF184:
 8761 0c5b 6461795F 		.ascii	"day_names\000"
 8761      6E616D65 
 8761      7300
 8762              	.LASF58:
 8763 0c65 73686164 		.ascii	"shadow\000"
 8763      6F7700
 8764              	.LASF218:
 8765 0c6c 6C765F61 		.ascii	"lv_area_get_width\000"
 8765      7265615F 
 8765      6765745F 
 8765      77696474 
 8765      6800
 8766              	.LASF94:
 8767 0c7e 64726167 		.ascii	"drag_parent\000"
 8767      5F706172 
 8767      656E7400 
 8768              	.LASF117:
 8769 0c8a 4C565F53 		.ascii	"LV_SIGNAL_BASE_DIR_CHG\000"
ARM GAS  C:\Users\tmj32\AppData\Local\Temp\ccIZw7Ef.s 			page 185


 8769      49474E41 
 8769      4C5F4241 
 8769      53455F44 
 8769      49525F43 
 8770              	.LASF219:
 8771 0ca1 666F6E74 		.ascii	"font_p\000"
 8771      5F7000
 8772              	.LASF223:
 8773 0ca8 636F7079 		.ascii	"copy_ext\000"
 8773      5F657874 
 8773      00
 8774              	.LASF194:
 8775 0cb1 636F6E74 		.ascii	"content\000"
 8775      656E7400 
 8776              	.LASF59:
 8777 0cb9 70616464 		.ascii	"padding\000"
 8777      696E6700 
 8778              	.LASF87:
 8779 0cc1 7369676E 		.ascii	"signal_cb\000"
 8779      616C5F63 
 8779      6200
 8780              	.LASF18:
 8781 0ccb 75696E74 		.ascii	"uint32_t\000"
 8781      33325F74 
 8781      00
 8782              	.LASF254:
 8783 0cd4 7478745F 		.ascii	"txt_size\000"
 8783      73697A65 
 8783      00
 8784              	.LASF222:
 8785 0cdd 6E65775F 		.ascii	"new_table\000"
 8785      7461626C 
 8785      6500
 8786              	.LASF176:
 8787 0ce7 6461726B 		.ascii	"dark\000"
 8787      00
 8788              	.LASF34:
 8789 0cec 67726565 		.ascii	"green\000"
 8789      6E00
 8790              	.LASF32:
 8791 0cf2 6C765F66 		.ascii	"lv_font_t\000"
 8791      6F6E745F 
 8791      7400
 8792              	.LASF100:
 8793 0cfc 72657365 		.ascii	"reserved\000"
 8793      72766564 
 8793      00
 8794              	.LASF150:
 8795 0d05 4C565F4C 		.ascii	"LV_LABEL_ALIGN_LEFT\000"
 8795      4142454C 
 8795      5F414C49 
 8795      474E5F4C 
 8795      45465400 
 8796              	.LASF7:
 8797 0d19 73686F72 		.ascii	"short unsigned int\000"
 8797      7420756E 
 8797      7369676E 
ARM GAS  C:\Users\tmj32\AppData\Local\Temp\ccIZw7Ef.s 			page 186


 8797      65642069 
 8797      6E7400
 8798              	.LASF157:
 8799 0d2c 666F726D 		.ascii	"format_byte\000"
 8799      61745F62 
 8799      79746500 
 8800              	.LASF19:
 8801 0d38 6C765F63 		.ascii	"lv_coord_t\000"
 8801      6F6F7264 
 8801      5F7400
 8802              	.LASF256:
 8803 0d43 7478745F 		.ascii	"txt_area\000"
 8803      61726561 
 8803      00
 8804              	.LASF57:
 8805 0d4c 626F7264 		.ascii	"border\000"
 8805      657200
 8806              	.LASF247:
 8807 0d53 6C765F74 		.ascii	"lv_table_get_cell_merge_right\000"
 8807      61626C65 
 8807      5F676574 
 8807      5F63656C 
 8807      6C5F6D65 
 8808              	.LASF198:
 8809 0d71 6C616265 		.ascii	"label\000"
 8809      6C00
 8810              	.LASF27:
 8811 0d77 6765745F 		.ascii	"get_glyph_dsc\000"
 8811      676C7970 
 8811      685F6473 
 8811      6300
 8812              	.LASF199:
 8813 0d85 736C6964 		.ascii	"slider\000"
 8813      657200
 8814              	.LASF44:
 8815 0d8c 6C765F62 		.ascii	"lv_border_part_t\000"
 8815      6F726465 
 8815      725F7061 
 8815      72745F74 
 8815      00
 8816              	.LASF111:
 8817 0d9d 6C765F65 		.ascii	"lv_event_cb_t\000"
 8817      76656E74 
 8817      5F63625F 
 8817      7400
 8818              	.LASF202:
 8819 0dab 7072656C 		.ascii	"preload\000"
 8819      6F616400 
 8820              	.LASF140:
 8821 0db3 6F726967 		.ascii	"origo_align\000"
 8821      6F5F616C 
 8821      69676E00 
 8822              	.LASF179:
 8823 0dbf 6B6E6F62 		.ascii	"knob\000"
 8823      00
 8824              	.LASF60:
 8825 0dc4 73656C5F 		.ascii	"sel_color\000"
ARM GAS  C:\Users\tmj32\AppData\Local\Temp\ccIZw7Ef.s 			page 187


 8825      636F6C6F 
 8825      7200
 8826              	.LASF82:
 8827 0dce 5F6C765F 		.ascii	"_lv_font_struct\000"
 8827      666F6E74 
 8827      5F737472 
 8827      75637400 
 8828              	.LASF48:
 8829 0dde 70617274 		.ascii	"part\000"
 8829      00
 8830              	.LASF77:
 8831 0de3 6E5F7369 		.ascii	"n_size\000"
 8831      7A6500
 8832              	.LASF192:
 8833 0dea 63757273 		.ascii	"cursor\000"
 8833      6F7200
 8834              	.LASF270:
 8835 0df1 616E6365 		.ascii	"ancestor_scrl_design\000"
 8835      73746F72 
 8835      5F736372 
 8835      6C5F6465 
 8835      7369676E 
 8836              	.LASF109:
 8837 0e06 6C765F64 		.ascii	"lv_design_cb_t\000"
 8837      65736967 
 8837      6E5F6362 
 8837      5F7400
 8838              	.LASF242:
 8839 0e15 6C765F74 		.ascii	"lv_table_get_col_cnt\000"
 8839      61626C65 
 8839      5F676574 
 8839      5F636F6C 
 8839      5F636E74 
 8840              	.LASF102:
 8841 0e2a 6F70615F 		.ascii	"opa_scale\000"
 8841      7363616C 
 8841      6500
 8842              	.LASF211:
 8843 0e34 726F6C6C 		.ascii	"roller\000"
 8843      657200
 8844              		.ident	"GCC: (GNU Tools for ARM Embedded Processors) 5.4.1 20160609 (release) [ARM/embedded-5-bran
