ARM GAS  C:\Users\tmj32\AppData\Local\Temp\ccBnQeBE.s 			page 1


   1              		.syntax unified
   2              		.cpu cortex-m4
   3              		.eabi_attribute 27, 1
   4              		.fpu fpv4-sp-d16
   5              		.eabi_attribute 20, 1
   6              		.eabi_attribute 21, 1
   7              		.eabi_attribute 23, 3
   8              		.eabi_attribute 24, 1
   9              		.eabi_attribute 25, 1
  10              		.eabi_attribute 26, 1
  11              		.eabi_attribute 30, 6
  12              		.eabi_attribute 34, 1
  13              		.eabi_attribute 18, 4
  14              		.thumb
  15              		.syntax unified
  16              		.file	"lv_task.c"
  17              		.text
  18              	.Ltext0:
  19              		.cfi_sections	.debug_frame
  20              		.bss
  21              	lv_task_run:
  22 0000 00       		.space	1
  23              	idle_last:
  24 0001 00       		.space	1
  25              	task_deleted:
  26 0002 00       		.space	1
  27              	task_created:
  28 0003 00       		.space	1
  29              		.section	.text.lv_task_core_init,"ax",%progbits
  30              		.align	2
  31              		.global	lv_task_core_init
  32              		.thumb
  33              		.thumb_func
  34              		.type	lv_task_core_init, %function
  35              	lv_task_core_init:
  36              	.LFB31:
  37              		.file 1 "..\\..\\..\\lvgl\\version_6.1.2\\lvgl\\src\\lv_misc\\lv_task.c"
   1:..\..\..\lvgl\version_6.1.2\lvgl\src\lv_misc/lv_task.c **** /**
   2:..\..\..\lvgl\version_6.1.2\lvgl\src\lv_misc/lv_task.c ****  * @file lv_task.c
   3:..\..\..\lvgl\version_6.1.2\lvgl\src\lv_misc/lv_task.c ****  * An 'lv_task'  is a void (*fp) (void* param) type function which will be called periodically.
   4:..\..\..\lvgl\version_6.1.2\lvgl\src\lv_misc/lv_task.c ****  * A priority (5 levels + disable) can be assigned to lv_tasks.
   5:..\..\..\lvgl\version_6.1.2\lvgl\src\lv_misc/lv_task.c ****  */
   6:..\..\..\lvgl\version_6.1.2\lvgl\src\lv_misc/lv_task.c **** 
   7:..\..\..\lvgl\version_6.1.2\lvgl\src\lv_misc/lv_task.c **** /*********************
   8:..\..\..\lvgl\version_6.1.2\lvgl\src\lv_misc/lv_task.c ****  *      INCLUDES
   9:..\..\..\lvgl\version_6.1.2\lvgl\src\lv_misc/lv_task.c ****  *********************/
  10:..\..\..\lvgl\version_6.1.2\lvgl\src\lv_misc/lv_task.c **** #include <stddef.h>
  11:..\..\..\lvgl\version_6.1.2\lvgl\src\lv_misc/lv_task.c **** #include "lv_task.h"
  12:..\..\..\lvgl\version_6.1.2\lvgl\src\lv_misc/lv_task.c **** #include "../lv_core/lv_debug.h"
  13:..\..\..\lvgl\version_6.1.2\lvgl\src\lv_misc/lv_task.c **** #include "../lv_hal/lv_hal_tick.h"
  14:..\..\..\lvgl\version_6.1.2\lvgl\src\lv_misc/lv_task.c **** #include "lv_gc.h"
  15:..\..\..\lvgl\version_6.1.2\lvgl\src\lv_misc/lv_task.c **** 
  16:..\..\..\lvgl\version_6.1.2\lvgl\src\lv_misc/lv_task.c **** #if defined(LV_GC_INCLUDE)
  17:..\..\..\lvgl\version_6.1.2\lvgl\src\lv_misc/lv_task.c **** #include LV_GC_INCLUDE
  18:..\..\..\lvgl\version_6.1.2\lvgl\src\lv_misc/lv_task.c **** #endif /* LV_ENABLE_GC */
  19:..\..\..\lvgl\version_6.1.2\lvgl\src\lv_misc/lv_task.c **** 
  20:..\..\..\lvgl\version_6.1.2\lvgl\src\lv_misc/lv_task.c **** /*********************
ARM GAS  C:\Users\tmj32\AppData\Local\Temp\ccBnQeBE.s 			page 2


  21:..\..\..\lvgl\version_6.1.2\lvgl\src\lv_misc/lv_task.c ****  *      DEFINES
  22:..\..\..\lvgl\version_6.1.2\lvgl\src\lv_misc/lv_task.c ****  *********************/
  23:..\..\..\lvgl\version_6.1.2\lvgl\src\lv_misc/lv_task.c **** #define IDLE_MEAS_PERIOD 500 /*[ms]*/
  24:..\..\..\lvgl\version_6.1.2\lvgl\src\lv_misc/lv_task.c **** #define DEF_PRIO LV_TASK_PRIO_MID
  25:..\..\..\lvgl\version_6.1.2\lvgl\src\lv_misc/lv_task.c **** #define DEF_PERIOD 500
  26:..\..\..\lvgl\version_6.1.2\lvgl\src\lv_misc/lv_task.c **** 
  27:..\..\..\lvgl\version_6.1.2\lvgl\src\lv_misc/lv_task.c **** /**********************
  28:..\..\..\lvgl\version_6.1.2\lvgl\src\lv_misc/lv_task.c ****  *      TYPEDEFS
  29:..\..\..\lvgl\version_6.1.2\lvgl\src\lv_misc/lv_task.c ****  **********************/
  30:..\..\..\lvgl\version_6.1.2\lvgl\src\lv_misc/lv_task.c **** 
  31:..\..\..\lvgl\version_6.1.2\lvgl\src\lv_misc/lv_task.c **** /**********************
  32:..\..\..\lvgl\version_6.1.2\lvgl\src\lv_misc/lv_task.c ****  *  STATIC PROTOTYPES
  33:..\..\..\lvgl\version_6.1.2\lvgl\src\lv_misc/lv_task.c ****  **********************/
  34:..\..\..\lvgl\version_6.1.2\lvgl\src\lv_misc/lv_task.c **** static bool lv_task_exec(lv_task_t * task);
  35:..\..\..\lvgl\version_6.1.2\lvgl\src\lv_misc/lv_task.c **** 
  36:..\..\..\lvgl\version_6.1.2\lvgl\src\lv_misc/lv_task.c **** /**********************
  37:..\..\..\lvgl\version_6.1.2\lvgl\src\lv_misc/lv_task.c ****  *  STATIC VARIABLES
  38:..\..\..\lvgl\version_6.1.2\lvgl\src\lv_misc/lv_task.c ****  **********************/
  39:..\..\..\lvgl\version_6.1.2\lvgl\src\lv_misc/lv_task.c **** static bool lv_task_run  = false;
  40:..\..\..\lvgl\version_6.1.2\lvgl\src\lv_misc/lv_task.c **** static uint8_t idle_last = 0;
  41:..\..\..\lvgl\version_6.1.2\lvgl\src\lv_misc/lv_task.c **** static bool task_deleted;
  42:..\..\..\lvgl\version_6.1.2\lvgl\src\lv_misc/lv_task.c **** static bool task_created;
  43:..\..\..\lvgl\version_6.1.2\lvgl\src\lv_misc/lv_task.c **** 
  44:..\..\..\lvgl\version_6.1.2\lvgl\src\lv_misc/lv_task.c **** /**********************
  45:..\..\..\lvgl\version_6.1.2\lvgl\src\lv_misc/lv_task.c ****  *      MACROS
  46:..\..\..\lvgl\version_6.1.2\lvgl\src\lv_misc/lv_task.c ****  **********************/
  47:..\..\..\lvgl\version_6.1.2\lvgl\src\lv_misc/lv_task.c **** 
  48:..\..\..\lvgl\version_6.1.2\lvgl\src\lv_misc/lv_task.c **** /**********************
  49:..\..\..\lvgl\version_6.1.2\lvgl\src\lv_misc/lv_task.c ****  *   GLOBAL FUNCTIONS
  50:..\..\..\lvgl\version_6.1.2\lvgl\src\lv_misc/lv_task.c ****  **********************/
  51:..\..\..\lvgl\version_6.1.2\lvgl\src\lv_misc/lv_task.c **** 
  52:..\..\..\lvgl\version_6.1.2\lvgl\src\lv_misc/lv_task.c **** /**
  53:..\..\..\lvgl\version_6.1.2\lvgl\src\lv_misc/lv_task.c ****  * Init the lv_task module
  54:..\..\..\lvgl\version_6.1.2\lvgl\src\lv_misc/lv_task.c ****  */
  55:..\..\..\lvgl\version_6.1.2\lvgl\src\lv_misc/lv_task.c **** void lv_task_core_init(void)
  56:..\..\..\lvgl\version_6.1.2\lvgl\src\lv_misc/lv_task.c **** {
  38              		.loc 1 56 0
  39              		.cfi_startproc
  40              		@ args = 0, pretend = 0, frame = 0
  41              		@ frame_needed = 1, uses_anonymous_args = 0
  42 0000 80B5     		push	{r7, lr}
  43              		.cfi_def_cfa_offset 8
  44              		.cfi_offset 7, -8
  45              		.cfi_offset 14, -4
  46 0002 00AF     		add	r7, sp, #0
  47              		.cfi_def_cfa_register 7
  57:..\..\..\lvgl\version_6.1.2\lvgl\src\lv_misc/lv_task.c ****     lv_ll_init(&LV_GC_ROOT(_lv_task_ll), sizeof(lv_task_t));
  48              		.loc 1 57 0
  49 0004 1421     		movs	r1, #20
  50 0006 0448     		ldr	r0, .L2
  51 0008 FFF7FEFF 		bl	lv_ll_init
  58:..\..\..\lvgl\version_6.1.2\lvgl\src\lv_misc/lv_task.c **** 
  59:..\..\..\lvgl\version_6.1.2\lvgl\src\lv_misc/lv_task.c ****     /*Initially enable the lv_task handling*/
  60:..\..\..\lvgl\version_6.1.2\lvgl\src\lv_misc/lv_task.c ****     lv_task_enable(true);
  52              		.loc 1 60 0
  53 000c 0120     		movs	r0, #1
  54 000e FFF7FEFF 		bl	lv_task_enable
ARM GAS  C:\Users\tmj32\AppData\Local\Temp\ccBnQeBE.s 			page 3


  61:..\..\..\lvgl\version_6.1.2\lvgl\src\lv_misc/lv_task.c **** }
  55              		.loc 1 61 0
  56 0012 00BF     		nop
  57 0014 80BD     		pop	{r7, pc}
  58              	.L3:
  59 0016 00BF     		.align	2
  60              	.L2:
  61 0018 00000000 		.word	_lv_task_ll
  62              		.cfi_endproc
  63              	.LFE31:
  64              		.size	lv_task_core_init, .-lv_task_core_init
  65              		.section	.text.lv_task_handler,"ax",%progbits
  66              		.align	2
  67              		.global	lv_task_handler
  68              		.thumb
  69              		.thumb_func
  70              		.type	lv_task_handler, %function
  71              	lv_task_handler:
  72              	.LFB32:
  62:..\..\..\lvgl\version_6.1.2\lvgl\src\lv_misc/lv_task.c **** 
  63:..\..\..\lvgl\version_6.1.2\lvgl\src\lv_misc/lv_task.c **** /**
  64:..\..\..\lvgl\version_6.1.2\lvgl\src\lv_misc/lv_task.c ****  * Call it  periodically to handle lv_tasks.
  65:..\..\..\lvgl\version_6.1.2\lvgl\src\lv_misc/lv_task.c ****  */
  66:..\..\..\lvgl\version_6.1.2\lvgl\src\lv_misc/lv_task.c **** LV_ATTRIBUTE_TASK_HANDLER void lv_task_handler(void)
  67:..\..\..\lvgl\version_6.1.2\lvgl\src\lv_misc/lv_task.c **** {
  73              		.loc 1 67 0
  74              		.cfi_startproc
  75              		@ args = 0, pretend = 0, frame = 16
  76              		@ frame_needed = 1, uses_anonymous_args = 0
  77 0000 80B5     		push	{r7, lr}
  78              		.cfi_def_cfa_offset 8
  79              		.cfi_offset 7, -8
  80              		.cfi_offset 14, -4
  81 0002 84B0     		sub	sp, sp, #16
  82              		.cfi_def_cfa_offset 24
  83 0004 00AF     		add	r7, sp, #0
  84              		.cfi_def_cfa_register 7
  68:..\..\..\lvgl\version_6.1.2\lvgl\src\lv_misc/lv_task.c ****     LV_LOG_TRACE("lv_task_handler started");
  69:..\..\..\lvgl\version_6.1.2\lvgl\src\lv_misc/lv_task.c **** 
  70:..\..\..\lvgl\version_6.1.2\lvgl\src\lv_misc/lv_task.c ****     /*Avoid concurrent running of the task handler*/
  71:..\..\..\lvgl\version_6.1.2\lvgl\src\lv_misc/lv_task.c ****     static bool already_running = false;
  72:..\..\..\lvgl\version_6.1.2\lvgl\src\lv_misc/lv_task.c ****     if(already_running) return;
  85              		.loc 1 72 0
  86 0006 7A4B     		ldr	r3, .L24
  87 0008 1B78     		ldrb	r3, [r3]	@ zero_extendqisi2
  88 000a 002B     		cmp	r3, #0
  89 000c 40F0EB80 		bne	.L22
  73:..\..\..\lvgl\version_6.1.2\lvgl\src\lv_misc/lv_task.c ****     already_running = true;
  90              		.loc 1 73 0
  91 0010 774B     		ldr	r3, .L24
  92 0012 0122     		movs	r2, #1
  93 0014 1A70     		strb	r2, [r3]
  74:..\..\..\lvgl\version_6.1.2\lvgl\src\lv_misc/lv_task.c **** 
  75:..\..\..\lvgl\version_6.1.2\lvgl\src\lv_misc/lv_task.c ****     static uint32_t idle_period_start = 0;
  76:..\..\..\lvgl\version_6.1.2\lvgl\src\lv_misc/lv_task.c ****     static uint32_t handler_start     = 0;
  77:..\..\..\lvgl\version_6.1.2\lvgl\src\lv_misc/lv_task.c ****     static uint32_t busy_time         = 0;
  78:..\..\..\lvgl\version_6.1.2\lvgl\src\lv_misc/lv_task.c **** 
ARM GAS  C:\Users\tmj32\AppData\Local\Temp\ccBnQeBE.s 			page 4


  79:..\..\..\lvgl\version_6.1.2\lvgl\src\lv_misc/lv_task.c ****     if(lv_task_run == false) {
  94              		.loc 1 79 0
  95 0016 774B     		ldr	r3, .L24+4
  96 0018 1B78     		ldrb	r3, [r3]	@ zero_extendqisi2
  97 001a 83F00103 		eor	r3, r3, #1
  98 001e DBB2     		uxtb	r3, r3
  99 0020 002B     		cmp	r3, #0
 100 0022 03D0     		beq	.L7
  80:..\..\..\lvgl\version_6.1.2\lvgl\src\lv_misc/lv_task.c ****         already_running = false; /*Release mutex*/
 101              		.loc 1 80 0
 102 0024 724B     		ldr	r3, .L24
 103 0026 0022     		movs	r2, #0
 104 0028 1A70     		strb	r2, [r3]
  81:..\..\..\lvgl\version_6.1.2\lvgl\src\lv_misc/lv_task.c ****         return;
 105              		.loc 1 81 0
 106 002a DDE0     		b	.L4
 107              	.L7:
  82:..\..\..\lvgl\version_6.1.2\lvgl\src\lv_misc/lv_task.c ****     }
  83:..\..\..\lvgl\version_6.1.2\lvgl\src\lv_misc/lv_task.c **** 
  84:..\..\..\lvgl\version_6.1.2\lvgl\src\lv_misc/lv_task.c ****     handler_start = lv_tick_get();
 108              		.loc 1 84 0
 109 002c FFF7FEFF 		bl	lv_tick_get
 110 0030 0246     		mov	r2, r0
 111 0032 714B     		ldr	r3, .L24+8
 112 0034 1A60     		str	r2, [r3]
  85:..\..\..\lvgl\version_6.1.2\lvgl\src\lv_misc/lv_task.c **** 
  86:..\..\..\lvgl\version_6.1.2\lvgl\src\lv_misc/lv_task.c ****     /* Run all task from the highest to the lowest priority
  87:..\..\..\lvgl\version_6.1.2\lvgl\src\lv_misc/lv_task.c ****      * If a lower priority task is executed check task again from the highest priority
  88:..\..\..\lvgl\version_6.1.2\lvgl\src\lv_misc/lv_task.c ****      * but on the priority of executed tasks don't run tasks before the executed*/
  89:..\..\..\lvgl\version_6.1.2\lvgl\src\lv_misc/lv_task.c ****     lv_task_t * task_interrupter = NULL;
 113              		.loc 1 89 0
 114 0036 0023     		movs	r3, #0
 115 0038 FB60     		str	r3, [r7, #12]
 116              	.L18:
  90:..\..\..\lvgl\version_6.1.2\lvgl\src\lv_misc/lv_task.c ****     lv_task_t * next;
  91:..\..\..\lvgl\version_6.1.2\lvgl\src\lv_misc/lv_task.c ****     bool end_flag;
  92:..\..\..\lvgl\version_6.1.2\lvgl\src\lv_misc/lv_task.c ****     do {
  93:..\..\..\lvgl\version_6.1.2\lvgl\src\lv_misc/lv_task.c ****         end_flag                 = true;
 117              		.loc 1 93 0
 118 003a 0123     		movs	r3, #1
 119 003c FB72     		strb	r3, [r7, #11]
  94:..\..\..\lvgl\version_6.1.2\lvgl\src\lv_misc/lv_task.c ****         task_deleted             = false;
 120              		.loc 1 94 0
 121 003e 6F4B     		ldr	r3, .L24+12
 122 0040 0022     		movs	r2, #0
 123 0042 1A70     		strb	r2, [r3]
  95:..\..\..\lvgl\version_6.1.2\lvgl\src\lv_misc/lv_task.c ****         task_created             = false;
 124              		.loc 1 95 0
 125 0044 6E4B     		ldr	r3, .L24+16
 126 0046 0022     		movs	r2, #0
 127 0048 1A70     		strb	r2, [r3]
  96:..\..\..\lvgl\version_6.1.2\lvgl\src\lv_misc/lv_task.c ****         LV_GC_ROOT(_lv_task_act) = lv_ll_get_head(&LV_GC_ROOT(_lv_task_ll));
 128              		.loc 1 96 0
 129 004a 6E48     		ldr	r0, .L24+20
 130 004c FFF7FEFF 		bl	lv_ll_get_head
 131 0050 0246     		mov	r2, r0
 132 0052 6D4B     		ldr	r3, .L24+24
ARM GAS  C:\Users\tmj32\AppData\Local\Temp\ccBnQeBE.s 			page 5


 133 0054 1A60     		str	r2, [r3]
  97:..\..\..\lvgl\version_6.1.2\lvgl\src\lv_misc/lv_task.c ****         while(LV_GC_ROOT(_lv_task_act)) {
 134              		.loc 1 97 0
 135 0056 7EE0     		b	.L8
 136              	.L17:
  98:..\..\..\lvgl\version_6.1.2\lvgl\src\lv_misc/lv_task.c ****             /* The task might be deleted if it runs only once ('once = 1')
  99:..\..\..\lvgl\version_6.1.2\lvgl\src\lv_misc/lv_task.c ****              * So get next element until the current is surely valid*/
 100:..\..\..\lvgl\version_6.1.2\lvgl\src\lv_misc/lv_task.c ****             next = lv_ll_get_next(&LV_GC_ROOT(_lv_task_ll), LV_GC_ROOT(_lv_task_act));
 137              		.loc 1 100 0
 138 0058 6B4B     		ldr	r3, .L24+24
 139 005a 1B68     		ldr	r3, [r3]
 140 005c 1946     		mov	r1, r3
 141 005e 6948     		ldr	r0, .L24+20
 142 0060 FFF7FEFF 		bl	lv_ll_get_next
 143 0064 7860     		str	r0, [r7, #4]
 101:..\..\..\lvgl\version_6.1.2\lvgl\src\lv_misc/lv_task.c **** 
 102:..\..\..\lvgl\version_6.1.2\lvgl\src\lv_misc/lv_task.c ****             /*We reach priority of the turned off task. There is nothing more to do.*/
 103:..\..\..\lvgl\version_6.1.2\lvgl\src\lv_misc/lv_task.c ****             if(((lv_task_t *)LV_GC_ROOT(_lv_task_act))->prio == LV_TASK_PRIO_OFF) {
 144              		.loc 1 103 0
 145 0066 684B     		ldr	r3, .L24+24
 146 0068 1B68     		ldr	r3, [r3]
 147 006a 1B7C     		ldrb	r3, [r3, #16]	@ zero_extendqisi2
 148 006c 03F00703 		and	r3, r3, #7
 149 0070 DBB2     		uxtb	r3, r3
 150 0072 002B     		cmp	r3, #0
 151 0074 75D0     		beq	.L23
 104:..\..\..\lvgl\version_6.1.2\lvgl\src\lv_misc/lv_task.c ****                 break;
 105:..\..\..\lvgl\version_6.1.2\lvgl\src\lv_misc/lv_task.c ****             }
 106:..\..\..\lvgl\version_6.1.2\lvgl\src\lv_misc/lv_task.c **** 
 107:..\..\..\lvgl\version_6.1.2\lvgl\src\lv_misc/lv_task.c ****             /*Here is the interrupter task. Don't execute it again.*/
 108:..\..\..\lvgl\version_6.1.2\lvgl\src\lv_misc/lv_task.c ****             if(LV_GC_ROOT(_lv_task_act) == task_interrupter) {
 152              		.loc 1 108 0
 153 0076 644B     		ldr	r3, .L24+24
 154 0078 1A68     		ldr	r2, [r3]
 155 007a FB68     		ldr	r3, [r7, #12]
 156 007c 9A42     		cmp	r2, r3
 157 007e 05D1     		bne	.L11
 109:..\..\..\lvgl\version_6.1.2\lvgl\src\lv_misc/lv_task.c ****                 task_interrupter = NULL; /*From this point only task after the interrupter comes, s
 158              		.loc 1 109 0
 159 0080 0023     		movs	r3, #0
 160 0082 FB60     		str	r3, [r7, #12]
 110:..\..\..\lvgl\version_6.1.2\lvgl\src\lv_misc/lv_task.c ****                                             the interrupter is not interesting anymore*/
 111:..\..\..\lvgl\version_6.1.2\lvgl\src\lv_misc/lv_task.c ****                 LV_GC_ROOT(_lv_task_act) = next;
 161              		.loc 1 111 0
 162 0084 604A     		ldr	r2, .L24+24
 163 0086 7B68     		ldr	r3, [r7, #4]
 164 0088 1360     		str	r3, [r2]
 112:..\..\..\lvgl\version_6.1.2\lvgl\src\lv_misc/lv_task.c ****                 continue; /*Load the next task*/
 165              		.loc 1 112 0
 166 008a 64E0     		b	.L8
 167              	.L11:
 113:..\..\..\lvgl\version_6.1.2\lvgl\src\lv_misc/lv_task.c ****             }
 114:..\..\..\lvgl\version_6.1.2\lvgl\src\lv_misc/lv_task.c **** 
 115:..\..\..\lvgl\version_6.1.2\lvgl\src\lv_misc/lv_task.c ****             /*Just try to run the tasks with highest priority.*/
 116:..\..\..\lvgl\version_6.1.2\lvgl\src\lv_misc/lv_task.c ****             if(((lv_task_t *)LV_GC_ROOT(_lv_task_act))->prio == LV_TASK_PRIO_HIGHEST) {
 168              		.loc 1 116 0
 169 008c 5E4B     		ldr	r3, .L24+24
ARM GAS  C:\Users\tmj32\AppData\Local\Temp\ccBnQeBE.s 			page 6


 170 008e 1B68     		ldr	r3, [r3]
 171 0090 1B7C     		ldrb	r3, [r3, #16]	@ zero_extendqisi2
 172 0092 03F00703 		and	r3, r3, #7
 173 0096 DBB2     		uxtb	r3, r3
 174 0098 052B     		cmp	r3, #5
 175 009a 05D1     		bne	.L12
 117:..\..\..\lvgl\version_6.1.2\lvgl\src\lv_misc/lv_task.c ****                 lv_task_exec(LV_GC_ROOT(_lv_task_act));
 176              		.loc 1 117 0
 177 009c 5A4B     		ldr	r3, .L24+24
 178 009e 1B68     		ldr	r3, [r3]
 179 00a0 1846     		mov	r0, r3
 180 00a2 FFF7FEFF 		bl	lv_task_exec
 181 00a6 48E0     		b	.L13
 182              	.L12:
 118:..\..\..\lvgl\version_6.1.2\lvgl\src\lv_misc/lv_task.c ****             }
 119:..\..\..\lvgl\version_6.1.2\lvgl\src\lv_misc/lv_task.c ****             /*Tasks with higher priority than the interrupted shall be run in every case*/
 120:..\..\..\lvgl\version_6.1.2\lvgl\src\lv_misc/lv_task.c ****             else if(task_interrupter) {
 183              		.loc 1 120 0
 184 00a8 FB68     		ldr	r3, [r7, #12]
 185 00aa 002B     		cmp	r3, #0
 186 00ac 29D0     		beq	.L14
 121:..\..\..\lvgl\version_6.1.2\lvgl\src\lv_misc/lv_task.c ****                 if(((lv_task_t *)LV_GC_ROOT(_lv_task_act))->prio > task_interrupter->prio) {
 187              		.loc 1 121 0
 188 00ae 564B     		ldr	r3, .L24+24
 189 00b0 1B68     		ldr	r3, [r3]
 190 00b2 1B7C     		ldrb	r3, [r3, #16]
 191 00b4 C3F30203 		ubfx	r3, r3, #0, #3
 192 00b8 DBB2     		uxtb	r3, r3
 193 00ba 1A46     		mov	r2, r3
 194 00bc FB68     		ldr	r3, [r7, #12]
 195 00be 1B7C     		ldrb	r3, [r3, #16]
 196 00c0 C3F30203 		ubfx	r3, r3, #0, #3
 197 00c4 DBB2     		uxtb	r3, r3
 198 00c6 9A42     		cmp	r2, r3
 199 00c8 37DD     		ble	.L13
 122:..\..\..\lvgl\version_6.1.2\lvgl\src\lv_misc/lv_task.c ****                     if(lv_task_exec(LV_GC_ROOT(_lv_task_act))) {
 200              		.loc 1 122 0
 201 00ca 4F4B     		ldr	r3, .L24+24
 202 00cc 1B68     		ldr	r3, [r3]
 203 00ce 1846     		mov	r0, r3
 204 00d0 FFF7FEFF 		bl	lv_task_exec
 205 00d4 0346     		mov	r3, r0
 206 00d6 002B     		cmp	r3, #0
 207 00d8 2FD0     		beq	.L13
 123:..\..\..\lvgl\version_6.1.2\lvgl\src\lv_misc/lv_task.c ****                         if(!task_created && !task_deleted) {
 208              		.loc 1 123 0
 209 00da 494B     		ldr	r3, .L24+16
 210 00dc 1B78     		ldrb	r3, [r3]	@ zero_extendqisi2
 211 00de 83F00103 		eor	r3, r3, #1
 212 00e2 DBB2     		uxtb	r3, r3
 213 00e4 002B     		cmp	r3, #0
 214 00e6 28D0     		beq	.L13
 215              		.loc 1 123 0 is_stmt 0 discriminator 1
 216 00e8 444B     		ldr	r3, .L24+12
 217 00ea 1B78     		ldrb	r3, [r3]	@ zero_extendqisi2
 218 00ec 83F00103 		eor	r3, r3, #1
 219 00f0 DBB2     		uxtb	r3, r3
ARM GAS  C:\Users\tmj32\AppData\Local\Temp\ccBnQeBE.s 			page 7


 220 00f2 002B     		cmp	r3, #0
 221 00f4 21D0     		beq	.L13
 124:..\..\..\lvgl\version_6.1.2\lvgl\src\lv_misc/lv_task.c ****                             /*Check all tasks again from the highest priority */
 125:..\..\..\lvgl\version_6.1.2\lvgl\src\lv_misc/lv_task.c ****                             task_interrupter = LV_GC_ROOT(_lv_task_act);
 222              		.loc 1 125 0 is_stmt 1
 223 00f6 444B     		ldr	r3, .L24+24
 224 00f8 1B68     		ldr	r3, [r3]
 225 00fa FB60     		str	r3, [r7, #12]
 126:..\..\..\lvgl\version_6.1.2\lvgl\src\lv_misc/lv_task.c ****                             end_flag = false;
 226              		.loc 1 126 0
 227 00fc 0023     		movs	r3, #0
 228 00fe FB72     		strb	r3, [r7, #11]
 127:..\..\..\lvgl\version_6.1.2\lvgl\src\lv_misc/lv_task.c ****                             break;
 229              		.loc 1 127 0
 230 0100 30E0     		b	.L10
 231              	.L14:
 128:..\..\..\lvgl\version_6.1.2\lvgl\src\lv_misc/lv_task.c ****                         }
 129:..\..\..\lvgl\version_6.1.2\lvgl\src\lv_misc/lv_task.c ****                     }
 130:..\..\..\lvgl\version_6.1.2\lvgl\src\lv_misc/lv_task.c ****                 }
 131:..\..\..\lvgl\version_6.1.2\lvgl\src\lv_misc/lv_task.c ****             }
 132:..\..\..\lvgl\version_6.1.2\lvgl\src\lv_misc/lv_task.c ****             /* It is no interrupter task or we already reached it earlier.
 133:..\..\..\lvgl\version_6.1.2\lvgl\src\lv_misc/lv_task.c ****              * Just run the remaining tasks*/
 134:..\..\..\lvgl\version_6.1.2\lvgl\src\lv_misc/lv_task.c ****             else {
 135:..\..\..\lvgl\version_6.1.2\lvgl\src\lv_misc/lv_task.c ****                 if(lv_task_exec(LV_GC_ROOT(_lv_task_act))) {
 232              		.loc 1 135 0
 233 0102 414B     		ldr	r3, .L24+24
 234 0104 1B68     		ldr	r3, [r3]
 235 0106 1846     		mov	r0, r3
 236 0108 FFF7FEFF 		bl	lv_task_exec
 237 010c 0346     		mov	r3, r0
 238 010e 002B     		cmp	r3, #0
 239 0110 13D0     		beq	.L13
 136:..\..\..\lvgl\version_6.1.2\lvgl\src\lv_misc/lv_task.c ****                     if(!task_created && !task_deleted) {
 240              		.loc 1 136 0
 241 0112 3B4B     		ldr	r3, .L24+16
 242 0114 1B78     		ldrb	r3, [r3]	@ zero_extendqisi2
 243 0116 83F00103 		eor	r3, r3, #1
 244 011a DBB2     		uxtb	r3, r3
 245 011c 002B     		cmp	r3, #0
 246 011e 0CD0     		beq	.L13
 247              		.loc 1 136 0 is_stmt 0 discriminator 1
 248 0120 364B     		ldr	r3, .L24+12
 249 0122 1B78     		ldrb	r3, [r3]	@ zero_extendqisi2
 250 0124 83F00103 		eor	r3, r3, #1
 251 0128 DBB2     		uxtb	r3, r3
 252 012a 002B     		cmp	r3, #0
 253 012c 05D0     		beq	.L13
 137:..\..\..\lvgl\version_6.1.2\lvgl\src\lv_misc/lv_task.c ****                         task_interrupter = LV_GC_ROOT(_lv_task_act); /*Check all tasks again from t
 254              		.loc 1 137 0 is_stmt 1
 255 012e 364B     		ldr	r3, .L24+24
 256 0130 1B68     		ldr	r3, [r3]
 257 0132 FB60     		str	r3, [r7, #12]
 138:..\..\..\lvgl\version_6.1.2\lvgl\src\lv_misc/lv_task.c ****                         end_flag         = false;
 258              		.loc 1 138 0
 259 0134 0023     		movs	r3, #0
 260 0136 FB72     		strb	r3, [r7, #11]
 139:..\..\..\lvgl\version_6.1.2\lvgl\src\lv_misc/lv_task.c ****                         break;
ARM GAS  C:\Users\tmj32\AppData\Local\Temp\ccBnQeBE.s 			page 8


 261              		.loc 1 139 0
 262 0138 14E0     		b	.L10
 263              	.L13:
 140:..\..\..\lvgl\version_6.1.2\lvgl\src\lv_misc/lv_task.c ****                     }
 141:..\..\..\lvgl\version_6.1.2\lvgl\src\lv_misc/lv_task.c ****                 }
 142:..\..\..\lvgl\version_6.1.2\lvgl\src\lv_misc/lv_task.c ****             }
 143:..\..\..\lvgl\version_6.1.2\lvgl\src\lv_misc/lv_task.c **** 
 144:..\..\..\lvgl\version_6.1.2\lvgl\src\lv_misc/lv_task.c ****             /*If a task was created or deleted then this or the next item might be corrupted*/
 145:..\..\..\lvgl\version_6.1.2\lvgl\src\lv_misc/lv_task.c ****             if(task_created || task_deleted) {
 264              		.loc 1 145 0
 265 013a 314B     		ldr	r3, .L24+16
 266 013c 1B78     		ldrb	r3, [r3]	@ zero_extendqisi2
 267 013e 002B     		cmp	r3, #0
 268 0140 03D1     		bne	.L15
 269              		.loc 1 145 0 is_stmt 0 discriminator 1
 270 0142 2E4B     		ldr	r3, .L24+12
 271 0144 1B78     		ldrb	r3, [r3]	@ zero_extendqisi2
 272 0146 002B     		cmp	r3, #0
 273 0148 02D0     		beq	.L16
 274              	.L15:
 146:..\..\..\lvgl\version_6.1.2\lvgl\src\lv_misc/lv_task.c ****                 task_interrupter = NULL;
 275              		.loc 1 146 0 is_stmt 1
 276 014a 0023     		movs	r3, #0
 277 014c FB60     		str	r3, [r7, #12]
 147:..\..\..\lvgl\version_6.1.2\lvgl\src\lv_misc/lv_task.c ****                 break;
 278              		.loc 1 147 0
 279 014e 09E0     		b	.L10
 280              	.L16:
 148:..\..\..\lvgl\version_6.1.2\lvgl\src\lv_misc/lv_task.c ****             }
 149:..\..\..\lvgl\version_6.1.2\lvgl\src\lv_misc/lv_task.c **** 
 150:..\..\..\lvgl\version_6.1.2\lvgl\src\lv_misc/lv_task.c ****             LV_GC_ROOT(_lv_task_act) = next; /*Load the next task*/
 281              		.loc 1 150 0
 282 0150 2D4A     		ldr	r2, .L24+24
 283 0152 7B68     		ldr	r3, [r7, #4]
 284 0154 1360     		str	r3, [r2]
 285              	.L8:
  97:..\..\..\lvgl\version_6.1.2\lvgl\src\lv_misc/lv_task.c ****             /* The task might be deleted if it runs only once ('once = 1')
 286              		.loc 1 97 0
 287 0156 2C4B     		ldr	r3, .L24+24
 288 0158 1B68     		ldr	r3, [r3]
 289 015a 002B     		cmp	r3, #0
 290 015c 7FF47CAF 		bne	.L17
 291 0160 00E0     		b	.L10
 292              	.L23:
 104:..\..\..\lvgl\version_6.1.2\lvgl\src\lv_misc/lv_task.c ****             }
 293              		.loc 1 104 0
 294 0162 00BF     		nop
 295              	.L10:
 151:..\..\..\lvgl\version_6.1.2\lvgl\src\lv_misc/lv_task.c ****         }
 152:..\..\..\lvgl\version_6.1.2\lvgl\src\lv_misc/lv_task.c ****     } while(!end_flag);
 296              		.loc 1 152 0
 297 0164 FB7A     		ldrb	r3, [r7, #11]
 298 0166 83F00103 		eor	r3, r3, #1
 299 016a DBB2     		uxtb	r3, r3
 300 016c 002B     		cmp	r3, #0
 301 016e 7FF464AF 		bne	.L18
 153:..\..\..\lvgl\version_6.1.2\lvgl\src\lv_misc/lv_task.c **** 
ARM GAS  C:\Users\tmj32\AppData\Local\Temp\ccBnQeBE.s 			page 9


 154:..\..\..\lvgl\version_6.1.2\lvgl\src\lv_misc/lv_task.c ****     busy_time += lv_tick_elaps(handler_start);
 302              		.loc 1 154 0
 303 0172 214B     		ldr	r3, .L24+8
 304 0174 1B68     		ldr	r3, [r3]
 305 0176 1846     		mov	r0, r3
 306 0178 FFF7FEFF 		bl	lv_tick_elaps
 307 017c 0246     		mov	r2, r0
 308 017e 234B     		ldr	r3, .L24+28
 309 0180 1B68     		ldr	r3, [r3]
 310 0182 1344     		add	r3, r3, r2
 311 0184 214A     		ldr	r2, .L24+28
 312 0186 1360     		str	r3, [r2]
 155:..\..\..\lvgl\version_6.1.2\lvgl\src\lv_misc/lv_task.c ****     uint32_t idle_period_time = lv_tick_elaps(idle_period_start);
 313              		.loc 1 155 0
 314 0188 214B     		ldr	r3, .L24+32
 315 018a 1B68     		ldr	r3, [r3]
 316 018c 1846     		mov	r0, r3
 317 018e FFF7FEFF 		bl	lv_tick_elaps
 318 0192 3860     		str	r0, [r7]
 156:..\..\..\lvgl\version_6.1.2\lvgl\src\lv_misc/lv_task.c ****     if(idle_period_time >= IDLE_MEAS_PERIOD) {
 319              		.loc 1 156 0
 320 0194 3B68     		ldr	r3, [r7]
 321 0196 B3F5FA7F 		cmp	r3, #500
 322 019a 20D3     		bcc	.L19
 157:..\..\..\lvgl\version_6.1.2\lvgl\src\lv_misc/lv_task.c **** 
 158:..\..\..\lvgl\version_6.1.2\lvgl\src\lv_misc/lv_task.c ****         idle_last         = (uint32_t)((uint32_t)busy_time * 100) / IDLE_MEAS_PERIOD; /*Calculate t
 323              		.loc 1 158 0
 324 019c 1B4B     		ldr	r3, .L24+28
 325 019e 1B68     		ldr	r3, [r3]
 326 01a0 6422     		movs	r2, #100
 327 01a2 02FB03F3 		mul	r3, r2, r3
 328 01a6 1B4A     		ldr	r2, .L24+36
 329 01a8 A2FB0323 		umull	r2, r3, r2, r3
 330 01ac 5B09     		lsrs	r3, r3, #5
 331 01ae DAB2     		uxtb	r2, r3
 332 01b0 194B     		ldr	r3, .L24+40
 333 01b2 1A70     		strb	r2, [r3]
 159:..\..\..\lvgl\version_6.1.2\lvgl\src\lv_misc/lv_task.c ****         idle_last         = idle_last > 100 ? 0 : 100 - idle_last;                    /*But we need
 334              		.loc 1 159 0
 335 01b4 184B     		ldr	r3, .L24+40
 336 01b6 1B78     		ldrb	r3, [r3]	@ zero_extendqisi2
 337 01b8 642B     		cmp	r3, #100
 338 01ba 05D8     		bhi	.L20
 339              		.loc 1 159 0 is_stmt 0 discriminator 1
 340 01bc 164B     		ldr	r3, .L24+40
 341 01be 1B78     		ldrb	r3, [r3]	@ zero_extendqisi2
 342 01c0 C3F16403 		rsb	r3, r3, #100
 343 01c4 DBB2     		uxtb	r3, r3
 344 01c6 00E0     		b	.L21
 345              	.L20:
 346              		.loc 1 159 0 discriminator 2
 347 01c8 0023     		movs	r3, #0
 348              	.L21:
 349              		.loc 1 159 0 discriminator 4
 350 01ca 134A     		ldr	r2, .L24+40
 351 01cc 1370     		strb	r3, [r2]
 160:..\..\..\lvgl\version_6.1.2\lvgl\src\lv_misc/lv_task.c ****         busy_time         = 0;
ARM GAS  C:\Users\tmj32\AppData\Local\Temp\ccBnQeBE.s 			page 10


 352              		.loc 1 160 0 is_stmt 1 discriminator 4
 353 01ce 0F4B     		ldr	r3, .L24+28
 354 01d0 0022     		movs	r2, #0
 355 01d2 1A60     		str	r2, [r3]
 161:..\..\..\lvgl\version_6.1.2\lvgl\src\lv_misc/lv_task.c ****         idle_period_start = lv_tick_get();
 356              		.loc 1 161 0 discriminator 4
 357 01d4 FFF7FEFF 		bl	lv_tick_get
 358 01d8 0246     		mov	r2, r0
 359 01da 0D4B     		ldr	r3, .L24+32
 360 01dc 1A60     		str	r2, [r3]
 361              	.L19:
 162:..\..\..\lvgl\version_6.1.2\lvgl\src\lv_misc/lv_task.c ****     }
 163:..\..\..\lvgl\version_6.1.2\lvgl\src\lv_misc/lv_task.c **** 
 164:..\..\..\lvgl\version_6.1.2\lvgl\src\lv_misc/lv_task.c ****     already_running = false; /*Release the mutex*/
 362              		.loc 1 164 0
 363 01de 044B     		ldr	r3, .L24
 364 01e0 0022     		movs	r2, #0
 365 01e2 1A70     		strb	r2, [r3]
 366 01e4 00E0     		b	.L4
 367              	.L22:
  72:..\..\..\lvgl\version_6.1.2\lvgl\src\lv_misc/lv_task.c ****     already_running = true;
 368              		.loc 1 72 0
 369 01e6 00BF     		nop
 370              	.L4:
 165:..\..\..\lvgl\version_6.1.2\lvgl\src\lv_misc/lv_task.c **** 
 166:..\..\..\lvgl\version_6.1.2\lvgl\src\lv_misc/lv_task.c ****     LV_LOG_TRACE("lv_task_handler ready");
 167:..\..\..\lvgl\version_6.1.2\lvgl\src\lv_misc/lv_task.c **** }
 371              		.loc 1 167 0
 372 01e8 1037     		adds	r7, r7, #16
 373              		.cfi_def_cfa_offset 8
 374 01ea BD46     		mov	sp, r7
 375              		.cfi_def_cfa_register 13
 376              		@ sp needed
 377 01ec 80BD     		pop	{r7, pc}
 378              	.L25:
 379 01ee 00BF     		.align	2
 380              	.L24:
 381 01f0 04000000 		.word	already_running.5919
 382 01f4 00000000 		.word	lv_task_run
 383 01f8 08000000 		.word	handler_start.5921
 384 01fc 02000000 		.word	task_deleted
 385 0200 03000000 		.word	task_created
 386 0204 00000000 		.word	_lv_task_ll
 387 0208 00000000 		.word	_lv_task_act
 388 020c 0C000000 		.word	busy_time.5922
 389 0210 10000000 		.word	idle_period_start.5920
 390 0214 D34D6210 		.word	274877907
 391 0218 01000000 		.word	idle_last
 392              		.cfi_endproc
 393              	.LFE32:
 394              		.size	lv_task_handler, .-lv_task_handler
 395              		.section	.text.lv_task_create_basic,"ax",%progbits
 396              		.align	2
 397              		.global	lv_task_create_basic
 398              		.thumb
 399              		.thumb_func
 400              		.type	lv_task_create_basic, %function
ARM GAS  C:\Users\tmj32\AppData\Local\Temp\ccBnQeBE.s 			page 11


 401              	lv_task_create_basic:
 402              	.LFB33:
 168:..\..\..\lvgl\version_6.1.2\lvgl\src\lv_misc/lv_task.c **** /**
 169:..\..\..\lvgl\version_6.1.2\lvgl\src\lv_misc/lv_task.c ****  * Create an "empty" task. It needs to initialzed with at least
 170:..\..\..\lvgl\version_6.1.2\lvgl\src\lv_misc/lv_task.c ****  * `lv_task_set_cb` and `lv_task_set_period`
 171:..\..\..\lvgl\version_6.1.2\lvgl\src\lv_misc/lv_task.c ****  * @return pointer to the craeted task
 172:..\..\..\lvgl\version_6.1.2\lvgl\src\lv_misc/lv_task.c ****  */
 173:..\..\..\lvgl\version_6.1.2\lvgl\src\lv_misc/lv_task.c **** lv_task_t * lv_task_create_basic(void)
 174:..\..\..\lvgl\version_6.1.2\lvgl\src\lv_misc/lv_task.c **** {
 403              		.loc 1 174 0
 404              		.cfi_startproc
 405              		@ args = 0, pretend = 0, frame = 8
 406              		@ frame_needed = 1, uses_anonymous_args = 0
 407 0000 80B5     		push	{r7, lr}
 408              		.cfi_def_cfa_offset 8
 409              		.cfi_offset 7, -8
 410              		.cfi_offset 14, -4
 411 0002 82B0     		sub	sp, sp, #8
 412              		.cfi_def_cfa_offset 16
 413 0004 00AF     		add	r7, sp, #0
 414              		.cfi_def_cfa_register 7
 175:..\..\..\lvgl\version_6.1.2\lvgl\src\lv_misc/lv_task.c ****     lv_task_t * new_task = NULL;
 415              		.loc 1 175 0
 416 0006 0023     		movs	r3, #0
 417 0008 7B60     		str	r3, [r7, #4]
 176:..\..\..\lvgl\version_6.1.2\lvgl\src\lv_misc/lv_task.c ****     lv_task_t * tmp;
 177:..\..\..\lvgl\version_6.1.2\lvgl\src\lv_misc/lv_task.c **** 
 178:..\..\..\lvgl\version_6.1.2\lvgl\src\lv_misc/lv_task.c ****     /*Create task lists in order of priority from high to low*/
 179:..\..\..\lvgl\version_6.1.2\lvgl\src\lv_misc/lv_task.c ****     tmp = lv_ll_get_head(&LV_GC_ROOT(_lv_task_ll));
 418              		.loc 1 179 0
 419 000a 2C48     		ldr	r0, .L34
 420 000c FFF7FEFF 		bl	lv_ll_get_head
 421 0010 3860     		str	r0, [r7]
 180:..\..\..\lvgl\version_6.1.2\lvgl\src\lv_misc/lv_task.c **** 
 181:..\..\..\lvgl\version_6.1.2\lvgl\src\lv_misc/lv_task.c ****     /*It's the first task*/
 182:..\..\..\lvgl\version_6.1.2\lvgl\src\lv_misc/lv_task.c ****     if(NULL == tmp) {
 422              		.loc 1 182 0
 423 0012 3B68     		ldr	r3, [r7]
 424 0014 002B     		cmp	r3, #0
 425 0016 08D1     		bne	.L27
 183:..\..\..\lvgl\version_6.1.2\lvgl\src\lv_misc/lv_task.c ****         new_task = lv_ll_ins_head(&LV_GC_ROOT(_lv_task_ll));
 426              		.loc 1 183 0
 427 0018 2848     		ldr	r0, .L34
 428 001a FFF7FEFF 		bl	lv_ll_ins_head
 429 001e 7860     		str	r0, [r7, #4]
 184:..\..\..\lvgl\version_6.1.2\lvgl\src\lv_misc/lv_task.c ****         LV_ASSERT_MEM(new_task);
 185:..\..\..\lvgl\version_6.1.2\lvgl\src\lv_misc/lv_task.c ****         if(new_task == NULL) return NULL;
 430              		.loc 1 185 0
 431 0020 7B68     		ldr	r3, [r7, #4]
 432 0022 002B     		cmp	r3, #0
 433 0024 28D1     		bne	.L28
 434              		.loc 1 185 0 is_stmt 0 discriminator 1
 435 0026 0023     		movs	r3, #0
 436 0028 44E0     		b	.L29
 437              	.L27:
 186:..\..\..\lvgl\version_6.1.2\lvgl\src\lv_misc/lv_task.c ****     }
 187:..\..\..\lvgl\version_6.1.2\lvgl\src\lv_misc/lv_task.c ****     /*Insert the new task to proper place according to its priority*/
ARM GAS  C:\Users\tmj32\AppData\Local\Temp\ccBnQeBE.s 			page 12


 188:..\..\..\lvgl\version_6.1.2\lvgl\src\lv_misc/lv_task.c ****     else {
 189:..\..\..\lvgl\version_6.1.2\lvgl\src\lv_misc/lv_task.c ****         do {
 190:..\..\..\lvgl\version_6.1.2\lvgl\src\lv_misc/lv_task.c ****             if(tmp->prio <= DEF_PRIO) {
 438              		.loc 1 190 0 is_stmt 1
 439 002a 3B68     		ldr	r3, [r7]
 440 002c 1B7C     		ldrb	r3, [r3, #16]
 441 002e C3F30203 		ubfx	r3, r3, #0, #3
 442 0032 DBB2     		uxtb	r3, r3
 443 0034 032B     		cmp	r3, #3
 444 0036 09DC     		bgt	.L30
 191:..\..\..\lvgl\version_6.1.2\lvgl\src\lv_misc/lv_task.c ****                 new_task = lv_ll_ins_prev(&LV_GC_ROOT(_lv_task_ll), tmp);
 445              		.loc 1 191 0
 446 0038 3968     		ldr	r1, [r7]
 447 003a 2048     		ldr	r0, .L34
 448 003c FFF7FEFF 		bl	lv_ll_ins_prev
 449 0040 7860     		str	r0, [r7, #4]
 192:..\..\..\lvgl\version_6.1.2\lvgl\src\lv_misc/lv_task.c ****                 LV_ASSERT_MEM(new_task);
 193:..\..\..\lvgl\version_6.1.2\lvgl\src\lv_misc/lv_task.c ****                 if(new_task == NULL) return NULL;
 450              		.loc 1 193 0
 451 0042 7B68     		ldr	r3, [r7, #4]
 452 0044 002B     		cmp	r3, #0
 453 0046 0AD1     		bne	.L33
 454              		.loc 1 193 0 is_stmt 0 discriminator 1
 455 0048 0023     		movs	r3, #0
 456 004a 33E0     		b	.L29
 457              	.L30:
 194:..\..\..\lvgl\version_6.1.2\lvgl\src\lv_misc/lv_task.c ****                 break;
 195:..\..\..\lvgl\version_6.1.2\lvgl\src\lv_misc/lv_task.c ****             }
 196:..\..\..\lvgl\version_6.1.2\lvgl\src\lv_misc/lv_task.c ****             tmp = lv_ll_get_next(&LV_GC_ROOT(_lv_task_ll), tmp);
 458              		.loc 1 196 0 is_stmt 1
 459 004c 3968     		ldr	r1, [r7]
 460 004e 1B48     		ldr	r0, .L34
 461 0050 FFF7FEFF 		bl	lv_ll_get_next
 462 0054 3860     		str	r0, [r7]
 197:..\..\..\lvgl\version_6.1.2\lvgl\src\lv_misc/lv_task.c ****         } while(tmp != NULL);
 463              		.loc 1 197 0
 464 0056 3B68     		ldr	r3, [r7]
 465 0058 002B     		cmp	r3, #0
 466 005a E6D1     		bne	.L27
 467 005c 00E0     		b	.L32
 468              	.L33:
 194:..\..\..\lvgl\version_6.1.2\lvgl\src\lv_misc/lv_task.c ****                 break;
 469              		.loc 1 194 0
 470 005e 00BF     		nop
 471              	.L32:
 198:..\..\..\lvgl\version_6.1.2\lvgl\src\lv_misc/lv_task.c **** 
 199:..\..\..\lvgl\version_6.1.2\lvgl\src\lv_misc/lv_task.c ****         /*Only too high priority tasks were found. Add the task to the end*/
 200:..\..\..\lvgl\version_6.1.2\lvgl\src\lv_misc/lv_task.c ****         if(tmp == NULL) {
 472              		.loc 1 200 0
 473 0060 3B68     		ldr	r3, [r7]
 474 0062 002B     		cmp	r3, #0
 475 0064 08D1     		bne	.L28
 201:..\..\..\lvgl\version_6.1.2\lvgl\src\lv_misc/lv_task.c ****             new_task = lv_ll_ins_tail(&LV_GC_ROOT(_lv_task_ll));
 476              		.loc 1 201 0
 477 0066 1548     		ldr	r0, .L34
 478 0068 FFF7FEFF 		bl	lv_ll_ins_tail
 479 006c 7860     		str	r0, [r7, #4]
ARM GAS  C:\Users\tmj32\AppData\Local\Temp\ccBnQeBE.s 			page 13


 202:..\..\..\lvgl\version_6.1.2\lvgl\src\lv_misc/lv_task.c ****             LV_ASSERT_MEM(new_task);
 203:..\..\..\lvgl\version_6.1.2\lvgl\src\lv_misc/lv_task.c ****             if(new_task == NULL) return NULL;
 480              		.loc 1 203 0
 481 006e 7B68     		ldr	r3, [r7, #4]
 482 0070 002B     		cmp	r3, #0
 483 0072 01D1     		bne	.L28
 484              		.loc 1 203 0 is_stmt 0 discriminator 1
 485 0074 0023     		movs	r3, #0
 486 0076 1DE0     		b	.L29
 487              	.L28:
 204:..\..\..\lvgl\version_6.1.2\lvgl\src\lv_misc/lv_task.c ****         }
 205:..\..\..\lvgl\version_6.1.2\lvgl\src\lv_misc/lv_task.c ****     }
 206:..\..\..\lvgl\version_6.1.2\lvgl\src\lv_misc/lv_task.c **** 
 207:..\..\..\lvgl\version_6.1.2\lvgl\src\lv_misc/lv_task.c ****     new_task->period  = DEF_PERIOD;
 488              		.loc 1 207 0 is_stmt 1
 489 0078 7B68     		ldr	r3, [r7, #4]
 490 007a 4FF4FA72 		mov	r2, #500
 491 007e 1A60     		str	r2, [r3]
 208:..\..\..\lvgl\version_6.1.2\lvgl\src\lv_misc/lv_task.c ****     new_task->task_cb = NULL;
 492              		.loc 1 208 0
 493 0080 7B68     		ldr	r3, [r7, #4]
 494 0082 0022     		movs	r2, #0
 495 0084 9A60     		str	r2, [r3, #8]
 209:..\..\..\lvgl\version_6.1.2\lvgl\src\lv_misc/lv_task.c ****     new_task->prio    = DEF_PRIO;
 496              		.loc 1 209 0
 497 0086 7A68     		ldr	r2, [r7, #4]
 498 0088 137C     		ldrb	r3, [r2, #16]
 499 008a 0321     		movs	r1, #3
 500 008c 61F30203 		bfi	r3, r1, #0, #3
 501 0090 1374     		strb	r3, [r2, #16]
 210:..\..\..\lvgl\version_6.1.2\lvgl\src\lv_misc/lv_task.c **** 
 211:..\..\..\lvgl\version_6.1.2\lvgl\src\lv_misc/lv_task.c ****     new_task->once     = 0;
 502              		.loc 1 211 0
 503 0092 7A68     		ldr	r2, [r7, #4]
 504 0094 137C     		ldrb	r3, [r2, #16]
 505 0096 6FF3C303 		bfc	r3, #3, #1
 506 009a 1374     		strb	r3, [r2, #16]
 212:..\..\..\lvgl\version_6.1.2\lvgl\src\lv_misc/lv_task.c ****     new_task->last_run = lv_tick_get();
 507              		.loc 1 212 0
 508 009c FFF7FEFF 		bl	lv_tick_get
 509 00a0 0246     		mov	r2, r0
 510 00a2 7B68     		ldr	r3, [r7, #4]
 511 00a4 5A60     		str	r2, [r3, #4]
 213:..\..\..\lvgl\version_6.1.2\lvgl\src\lv_misc/lv_task.c **** 
 214:..\..\..\lvgl\version_6.1.2\lvgl\src\lv_misc/lv_task.c ****     new_task->user_data = NULL;
 512              		.loc 1 214 0
 513 00a6 7B68     		ldr	r3, [r7, #4]
 514 00a8 0022     		movs	r2, #0
 515 00aa DA60     		str	r2, [r3, #12]
 215:..\..\..\lvgl\version_6.1.2\lvgl\src\lv_misc/lv_task.c **** 
 216:..\..\..\lvgl\version_6.1.2\lvgl\src\lv_misc/lv_task.c ****     task_created = true;
 516              		.loc 1 216 0
 517 00ac 044B     		ldr	r3, .L34+4
 518 00ae 0122     		movs	r2, #1
 519 00b0 1A70     		strb	r2, [r3]
 217:..\..\..\lvgl\version_6.1.2\lvgl\src\lv_misc/lv_task.c **** 
 218:..\..\..\lvgl\version_6.1.2\lvgl\src\lv_misc/lv_task.c ****     return new_task;
ARM GAS  C:\Users\tmj32\AppData\Local\Temp\ccBnQeBE.s 			page 14


 520              		.loc 1 218 0
 521 00b2 7B68     		ldr	r3, [r7, #4]
 522              	.L29:
 219:..\..\..\lvgl\version_6.1.2\lvgl\src\lv_misc/lv_task.c **** }
 523              		.loc 1 219 0
 524 00b4 1846     		mov	r0, r3
 525 00b6 0837     		adds	r7, r7, #8
 526              		.cfi_def_cfa_offset 8
 527 00b8 BD46     		mov	sp, r7
 528              		.cfi_def_cfa_register 13
 529              		@ sp needed
 530 00ba 80BD     		pop	{r7, pc}
 531              	.L35:
 532              		.align	2
 533              	.L34:
 534 00bc 00000000 		.word	_lv_task_ll
 535 00c0 03000000 		.word	task_created
 536              		.cfi_endproc
 537              	.LFE33:
 538              		.size	lv_task_create_basic, .-lv_task_create_basic
 539              		.section	.text.lv_task_create,"ax",%progbits
 540              		.align	2
 541              		.global	lv_task_create
 542              		.thumb
 543              		.thumb_func
 544              		.type	lv_task_create, %function
 545              	lv_task_create:
 546              	.LFB34:
 220:..\..\..\lvgl\version_6.1.2\lvgl\src\lv_misc/lv_task.c **** 
 221:..\..\..\lvgl\version_6.1.2\lvgl\src\lv_misc/lv_task.c **** /**
 222:..\..\..\lvgl\version_6.1.2\lvgl\src\lv_misc/lv_task.c ****  * Create a new lv_task
 223:..\..\..\lvgl\version_6.1.2\lvgl\src\lv_misc/lv_task.c ****  * @param task_xcb a callback which is the task itself. It will be called periodically.
 224:..\..\..\lvgl\version_6.1.2\lvgl\src\lv_misc/lv_task.c ****  *                 (the 'x' in the argument name indicates that its not a fully generic function be
 225:..\..\..\lvgl\version_6.1.2\lvgl\src\lv_misc/lv_task.c ****  *                  the `func_name(object, callback, ...)` convention)
 226:..\..\..\lvgl\version_6.1.2\lvgl\src\lv_misc/lv_task.c ****  * @param period call period in ms unit
 227:..\..\..\lvgl\version_6.1.2\lvgl\src\lv_misc/lv_task.c ****  * @param prio priority of the task (LV_TASK_PRIO_OFF means the task is stopped)
 228:..\..\..\lvgl\version_6.1.2\lvgl\src\lv_misc/lv_task.c ****  * @param user_data custom parameter
 229:..\..\..\lvgl\version_6.1.2\lvgl\src\lv_misc/lv_task.c ****  * @return pointer to the new task
 230:..\..\..\lvgl\version_6.1.2\lvgl\src\lv_misc/lv_task.c ****  */
 231:..\..\..\lvgl\version_6.1.2\lvgl\src\lv_misc/lv_task.c **** lv_task_t * lv_task_create(lv_task_cb_t task_cb, uint32_t period, lv_task_prio_t prio, void * user_
 232:..\..\..\lvgl\version_6.1.2\lvgl\src\lv_misc/lv_task.c **** {
 547              		.loc 1 232 0
 548              		.cfi_startproc
 549              		@ args = 0, pretend = 0, frame = 24
 550              		@ frame_needed = 1, uses_anonymous_args = 0
 551 0000 80B5     		push	{r7, lr}
 552              		.cfi_def_cfa_offset 8
 553              		.cfi_offset 7, -8
 554              		.cfi_offset 14, -4
 555 0002 86B0     		sub	sp, sp, #24
 556              		.cfi_def_cfa_offset 32
 557 0004 00AF     		add	r7, sp, #0
 558              		.cfi_def_cfa_register 7
 559 0006 F860     		str	r0, [r7, #12]
 560 0008 B960     		str	r1, [r7, #8]
 561 000a 3B60     		str	r3, [r7]
 562 000c 1346     		mov	r3, r2
ARM GAS  C:\Users\tmj32\AppData\Local\Temp\ccBnQeBE.s 			page 15


 563 000e FB71     		strb	r3, [r7, #7]
 233:..\..\..\lvgl\version_6.1.2\lvgl\src\lv_misc/lv_task.c ****     lv_task_t * new_task = lv_task_create_basic();
 564              		.loc 1 233 0
 565 0010 FFF7FEFF 		bl	lv_task_create_basic
 566 0014 7861     		str	r0, [r7, #20]
 234:..\..\..\lvgl\version_6.1.2\lvgl\src\lv_misc/lv_task.c ****     LV_ASSERT_MEM(new_task);
 235:..\..\..\lvgl\version_6.1.2\lvgl\src\lv_misc/lv_task.c ****     if(new_task == NULL) return NULL;
 567              		.loc 1 235 0
 568 0016 7B69     		ldr	r3, [r7, #20]
 569 0018 002B     		cmp	r3, #0
 570 001a 01D1     		bne	.L37
 571              		.loc 1 235 0 is_stmt 0 discriminator 1
 572 001c 0023     		movs	r3, #0
 573 001e 10E0     		b	.L38
 574              	.L37:
 236:..\..\..\lvgl\version_6.1.2\lvgl\src\lv_misc/lv_task.c **** 
 237:..\..\..\lvgl\version_6.1.2\lvgl\src\lv_misc/lv_task.c ****     lv_task_set_cb(new_task, task_cb);
 575              		.loc 1 237 0 is_stmt 1
 576 0020 F968     		ldr	r1, [r7, #12]
 577 0022 7869     		ldr	r0, [r7, #20]
 578 0024 FFF7FEFF 		bl	lv_task_set_cb
 238:..\..\..\lvgl\version_6.1.2\lvgl\src\lv_misc/lv_task.c ****     lv_task_set_period(new_task, period);
 579              		.loc 1 238 0
 580 0028 B968     		ldr	r1, [r7, #8]
 581 002a 7869     		ldr	r0, [r7, #20]
 582 002c FFF7FEFF 		bl	lv_task_set_period
 239:..\..\..\lvgl\version_6.1.2\lvgl\src\lv_misc/lv_task.c ****     lv_task_set_prio(new_task, prio);
 583              		.loc 1 239 0
 584 0030 FB79     		ldrb	r3, [r7, #7]	@ zero_extendqisi2
 585 0032 1946     		mov	r1, r3
 586 0034 7869     		ldr	r0, [r7, #20]
 587 0036 FFF7FEFF 		bl	lv_task_set_prio
 240:..\..\..\lvgl\version_6.1.2\lvgl\src\lv_misc/lv_task.c ****     new_task->user_data = user_data;
 588              		.loc 1 240 0
 589 003a 7B69     		ldr	r3, [r7, #20]
 590 003c 3A68     		ldr	r2, [r7]
 591 003e DA60     		str	r2, [r3, #12]
 241:..\..\..\lvgl\version_6.1.2\lvgl\src\lv_misc/lv_task.c **** 
 242:..\..\..\lvgl\version_6.1.2\lvgl\src\lv_misc/lv_task.c ****     return new_task;
 592              		.loc 1 242 0
 593 0040 7B69     		ldr	r3, [r7, #20]
 594              	.L38:
 243:..\..\..\lvgl\version_6.1.2\lvgl\src\lv_misc/lv_task.c **** }
 595              		.loc 1 243 0
 596 0042 1846     		mov	r0, r3
 597 0044 1837     		adds	r7, r7, #24
 598              		.cfi_def_cfa_offset 8
 599 0046 BD46     		mov	sp, r7
 600              		.cfi_def_cfa_register 13
 601              		@ sp needed
 602 0048 80BD     		pop	{r7, pc}
 603              		.cfi_endproc
 604              	.LFE34:
 605              		.size	lv_task_create, .-lv_task_create
 606 004a 00BF     		.section	.text.lv_task_set_cb,"ax",%progbits
 607              		.align	2
 608              		.global	lv_task_set_cb
ARM GAS  C:\Users\tmj32\AppData\Local\Temp\ccBnQeBE.s 			page 16


 609              		.thumb
 610              		.thumb_func
 611              		.type	lv_task_set_cb, %function
 612              	lv_task_set_cb:
 613              	.LFB35:
 244:..\..\..\lvgl\version_6.1.2\lvgl\src\lv_misc/lv_task.c **** 
 245:..\..\..\lvgl\version_6.1.2\lvgl\src\lv_misc/lv_task.c **** /**
 246:..\..\..\lvgl\version_6.1.2\lvgl\src\lv_misc/lv_task.c ****  * Set the callback the task (the function to call periodically)
 247:..\..\..\lvgl\version_6.1.2\lvgl\src\lv_misc/lv_task.c ****  * @param task pointer to a task
 248:..\..\..\lvgl\version_6.1.2\lvgl\src\lv_misc/lv_task.c ****  * @param task_cb teh function to call periodically
 249:..\..\..\lvgl\version_6.1.2\lvgl\src\lv_misc/lv_task.c ****  */
 250:..\..\..\lvgl\version_6.1.2\lvgl\src\lv_misc/lv_task.c **** void lv_task_set_cb(lv_task_t * task, lv_task_cb_t task_cb)
 251:..\..\..\lvgl\version_6.1.2\lvgl\src\lv_misc/lv_task.c **** {
 614              		.loc 1 251 0
 615              		.cfi_startproc
 616              		@ args = 0, pretend = 0, frame = 8
 617              		@ frame_needed = 1, uses_anonymous_args = 0
 618              		@ link register save eliminated.
 619 0000 80B4     		push	{r7}
 620              		.cfi_def_cfa_offset 4
 621              		.cfi_offset 7, -4
 622 0002 83B0     		sub	sp, sp, #12
 623              		.cfi_def_cfa_offset 16
 624 0004 00AF     		add	r7, sp, #0
 625              		.cfi_def_cfa_register 7
 626 0006 7860     		str	r0, [r7, #4]
 627 0008 3960     		str	r1, [r7]
 252:..\..\..\lvgl\version_6.1.2\lvgl\src\lv_misc/lv_task.c ****     task->task_cb = task_cb;
 628              		.loc 1 252 0
 629 000a 7B68     		ldr	r3, [r7, #4]
 630 000c 3A68     		ldr	r2, [r7]
 631 000e 9A60     		str	r2, [r3, #8]
 253:..\..\..\lvgl\version_6.1.2\lvgl\src\lv_misc/lv_task.c **** }
 632              		.loc 1 253 0
 633 0010 00BF     		nop
 634 0012 0C37     		adds	r7, r7, #12
 635              		.cfi_def_cfa_offset 4
 636 0014 BD46     		mov	sp, r7
 637              		.cfi_def_cfa_register 13
 638              		@ sp needed
 639 0016 5DF8047B 		ldr	r7, [sp], #4
 640              		.cfi_restore 7
 641              		.cfi_def_cfa_offset 0
 642 001a 7047     		bx	lr
 643              		.cfi_endproc
 644              	.LFE35:
 645              		.size	lv_task_set_cb, .-lv_task_set_cb
 646              		.section	.text.lv_task_del,"ax",%progbits
 647              		.align	2
 648              		.global	lv_task_del
 649              		.thumb
 650              		.thumb_func
 651              		.type	lv_task_del, %function
 652              	lv_task_del:
 653              	.LFB36:
 254:..\..\..\lvgl\version_6.1.2\lvgl\src\lv_misc/lv_task.c **** 
 255:..\..\..\lvgl\version_6.1.2\lvgl\src\lv_misc/lv_task.c **** /**
ARM GAS  C:\Users\tmj32\AppData\Local\Temp\ccBnQeBE.s 			page 17


 256:..\..\..\lvgl\version_6.1.2\lvgl\src\lv_misc/lv_task.c ****  * Delete a lv_task
 257:..\..\..\lvgl\version_6.1.2\lvgl\src\lv_misc/lv_task.c ****  * @param task pointer to task created by task
 258:..\..\..\lvgl\version_6.1.2\lvgl\src\lv_misc/lv_task.c ****  */
 259:..\..\..\lvgl\version_6.1.2\lvgl\src\lv_misc/lv_task.c **** void lv_task_del(lv_task_t * task)
 260:..\..\..\lvgl\version_6.1.2\lvgl\src\lv_misc/lv_task.c **** {
 654              		.loc 1 260 0
 655              		.cfi_startproc
 656              		@ args = 0, pretend = 0, frame = 8
 657              		@ frame_needed = 1, uses_anonymous_args = 0
 658 0000 80B5     		push	{r7, lr}
 659              		.cfi_def_cfa_offset 8
 660              		.cfi_offset 7, -8
 661              		.cfi_offset 14, -4
 662 0002 82B0     		sub	sp, sp, #8
 663              		.cfi_def_cfa_offset 16
 664 0004 00AF     		add	r7, sp, #0
 665              		.cfi_def_cfa_register 7
 666 0006 7860     		str	r0, [r7, #4]
 261:..\..\..\lvgl\version_6.1.2\lvgl\src\lv_misc/lv_task.c ****     lv_ll_rem(&LV_GC_ROOT(_lv_task_ll), task);
 667              		.loc 1 261 0
 668 0008 7968     		ldr	r1, [r7, #4]
 669 000a 0948     		ldr	r0, .L43
 670 000c FFF7FEFF 		bl	lv_ll_rem
 262:..\..\..\lvgl\version_6.1.2\lvgl\src\lv_misc/lv_task.c **** 
 263:..\..\..\lvgl\version_6.1.2\lvgl\src\lv_misc/lv_task.c ****     lv_mem_free(task);
 671              		.loc 1 263 0
 672 0010 7868     		ldr	r0, [r7, #4]
 673 0012 FFF7FEFF 		bl	lv_mem_free
 264:..\..\..\lvgl\version_6.1.2\lvgl\src\lv_misc/lv_task.c **** 
 265:..\..\..\lvgl\version_6.1.2\lvgl\src\lv_misc/lv_task.c ****     if(LV_GC_ROOT(_lv_task_act) == task) task_deleted = true; /*The active task was deleted*/
 674              		.loc 1 265 0
 675 0016 074B     		ldr	r3, .L43+4
 676 0018 1A68     		ldr	r2, [r3]
 677 001a 7B68     		ldr	r3, [r7, #4]
 678 001c 9A42     		cmp	r2, r3
 679 001e 02D1     		bne	.L42
 680              		.loc 1 265 0 is_stmt 0 discriminator 1
 681 0020 054B     		ldr	r3, .L43+8
 682 0022 0122     		movs	r2, #1
 683 0024 1A70     		strb	r2, [r3]
 684              	.L42:
 266:..\..\..\lvgl\version_6.1.2\lvgl\src\lv_misc/lv_task.c **** }
 685              		.loc 1 266 0 is_stmt 1
 686 0026 00BF     		nop
 687 0028 0837     		adds	r7, r7, #8
 688              		.cfi_def_cfa_offset 8
 689 002a BD46     		mov	sp, r7
 690              		.cfi_def_cfa_register 13
 691              		@ sp needed
 692 002c 80BD     		pop	{r7, pc}
 693              	.L44:
 694 002e 00BF     		.align	2
 695              	.L43:
 696 0030 00000000 		.word	_lv_task_ll
 697 0034 00000000 		.word	_lv_task_act
 698 0038 02000000 		.word	task_deleted
 699              		.cfi_endproc
ARM GAS  C:\Users\tmj32\AppData\Local\Temp\ccBnQeBE.s 			page 18


 700              	.LFE36:
 701              		.size	lv_task_del, .-lv_task_del
 702              		.section	.text.lv_task_set_prio,"ax",%progbits
 703              		.align	2
 704              		.global	lv_task_set_prio
 705              		.thumb
 706              		.thumb_func
 707              		.type	lv_task_set_prio, %function
 708              	lv_task_set_prio:
 709              	.LFB37:
 267:..\..\..\lvgl\version_6.1.2\lvgl\src\lv_misc/lv_task.c **** 
 268:..\..\..\lvgl\version_6.1.2\lvgl\src\lv_misc/lv_task.c **** /**
 269:..\..\..\lvgl\version_6.1.2\lvgl\src\lv_misc/lv_task.c ****  * Set new priority for a lv_task
 270:..\..\..\lvgl\version_6.1.2\lvgl\src\lv_misc/lv_task.c ****  * @param task pointer to a lv_task
 271:..\..\..\lvgl\version_6.1.2\lvgl\src\lv_misc/lv_task.c ****  * @param prio the new priority
 272:..\..\..\lvgl\version_6.1.2\lvgl\src\lv_misc/lv_task.c ****  */
 273:..\..\..\lvgl\version_6.1.2\lvgl\src\lv_misc/lv_task.c **** void lv_task_set_prio(lv_task_t * task, lv_task_prio_t prio)
 274:..\..\..\lvgl\version_6.1.2\lvgl\src\lv_misc/lv_task.c **** {
 710              		.loc 1 274 0
 711              		.cfi_startproc
 712              		@ args = 0, pretend = 0, frame = 16
 713              		@ frame_needed = 1, uses_anonymous_args = 0
 714 0000 80B5     		push	{r7, lr}
 715              		.cfi_def_cfa_offset 8
 716              		.cfi_offset 7, -8
 717              		.cfi_offset 14, -4
 718 0002 84B0     		sub	sp, sp, #16
 719              		.cfi_def_cfa_offset 24
 720 0004 00AF     		add	r7, sp, #0
 721              		.cfi_def_cfa_register 7
 722 0006 7860     		str	r0, [r7, #4]
 723 0008 0B46     		mov	r3, r1
 724 000a FB70     		strb	r3, [r7, #3]
 275:..\..\..\lvgl\version_6.1.2\lvgl\src\lv_misc/lv_task.c ****     if(task->prio == prio) return;
 725              		.loc 1 275 0
 726 000c 7B68     		ldr	r3, [r7, #4]
 727 000e 1B7C     		ldrb	r3, [r3, #16]
 728 0010 C3F30203 		ubfx	r3, r3, #0, #3
 729 0014 DBB2     		uxtb	r3, r3
 730 0016 1A46     		mov	r2, r3
 731 0018 FB78     		ldrb	r3, [r7, #3]	@ zero_extendqisi2
 732 001a 9A42     		cmp	r2, r3
 733 001c 33D0     		beq	.L54
 276:..\..\..\lvgl\version_6.1.2\lvgl\src\lv_misc/lv_task.c **** 
 277:..\..\..\lvgl\version_6.1.2\lvgl\src\lv_misc/lv_task.c ****     /*Find the tasks with new priority*/
 278:..\..\..\lvgl\version_6.1.2\lvgl\src\lv_misc/lv_task.c ****     lv_task_t * i;
 279:..\..\..\lvgl\version_6.1.2\lvgl\src\lv_misc/lv_task.c ****     LV_LL_READ(LV_GC_ROOT(_lv_task_ll), i)
 734              		.loc 1 279 0
 735 001e 1C48     		ldr	r0, .L56
 736 0020 FFF7FEFF 		bl	lv_ll_get_head
 737 0024 F860     		str	r0, [r7, #12]
 738 0026 17E0     		b	.L48
 739              	.L52:
 280:..\..\..\lvgl\version_6.1.2\lvgl\src\lv_misc/lv_task.c ****     {
 281:..\..\..\lvgl\version_6.1.2\lvgl\src\lv_misc/lv_task.c ****         if(i->prio <= prio) {
 740              		.loc 1 281 0
 741 0028 FB68     		ldr	r3, [r7, #12]
ARM GAS  C:\Users\tmj32\AppData\Local\Temp\ccBnQeBE.s 			page 19


 742 002a 1B7C     		ldrb	r3, [r3, #16]
 743 002c C3F30203 		ubfx	r3, r3, #0, #3
 744 0030 DBB2     		uxtb	r3, r3
 745 0032 1A46     		mov	r2, r3
 746 0034 FB78     		ldrb	r3, [r7, #3]	@ zero_extendqisi2
 747 0036 9A42     		cmp	r2, r3
 748 0038 09DC     		bgt	.L49
 282:..\..\..\lvgl\version_6.1.2\lvgl\src\lv_misc/lv_task.c ****             if(i != task) lv_ll_move_before(&LV_GC_ROOT(_lv_task_ll), task, i);
 749              		.loc 1 282 0
 750 003a FA68     		ldr	r2, [r7, #12]
 751 003c 7B68     		ldr	r3, [r7, #4]
 752 003e 9A42     		cmp	r2, r3
 753 0040 0ED0     		beq	.L55
 754              		.loc 1 282 0 is_stmt 0 discriminator 1
 755 0042 FA68     		ldr	r2, [r7, #12]
 756 0044 7968     		ldr	r1, [r7, #4]
 757 0046 1248     		ldr	r0, .L56
 758 0048 FFF7FEFF 		bl	lv_ll_move_before
 283:..\..\..\lvgl\version_6.1.2\lvgl\src\lv_misc/lv_task.c ****             break;
 759              		.loc 1 283 0 is_stmt 1 discriminator 1
 760 004c 08E0     		b	.L55
 761              	.L49:
 279:..\..\..\lvgl\version_6.1.2\lvgl\src\lv_misc/lv_task.c ****     {
 762              		.loc 1 279 0 discriminator 2
 763 004e F968     		ldr	r1, [r7, #12]
 764 0050 0F48     		ldr	r0, .L56
 765 0052 FFF7FEFF 		bl	lv_ll_get_next
 766 0056 F860     		str	r0, [r7, #12]
 767              	.L48:
 279:..\..\..\lvgl\version_6.1.2\lvgl\src\lv_misc/lv_task.c ****     {
 768              		.loc 1 279 0 is_stmt 0 discriminator 1
 769 0058 FB68     		ldr	r3, [r7, #12]
 770 005a 002B     		cmp	r3, #0
 771 005c E4D1     		bne	.L52
 772 005e 00E0     		b	.L51
 773              	.L55:
 774              		.loc 1 283 0 is_stmt 1
 775 0060 00BF     		nop
 776              	.L51:
 284:..\..\..\lvgl\version_6.1.2\lvgl\src\lv_misc/lv_task.c ****         }
 285:..\..\..\lvgl\version_6.1.2\lvgl\src\lv_misc/lv_task.c ****     }
 286:..\..\..\lvgl\version_6.1.2\lvgl\src\lv_misc/lv_task.c **** 
 287:..\..\..\lvgl\version_6.1.2\lvgl\src\lv_misc/lv_task.c ****     /*There was no such a low priority so far then add the node to the tail*/
 288:..\..\..\lvgl\version_6.1.2\lvgl\src\lv_misc/lv_task.c ****     if(i == NULL) {
 777              		.loc 1 288 0
 778 0062 FB68     		ldr	r3, [r7, #12]
 779 0064 002B     		cmp	r3, #0
 780 0066 04D1     		bne	.L53
 289:..\..\..\lvgl\version_6.1.2\lvgl\src\lv_misc/lv_task.c ****         lv_ll_move_before(&LV_GC_ROOT(_lv_task_ll), task, NULL);
 781              		.loc 1 289 0
 782 0068 0022     		movs	r2, #0
 783 006a 7968     		ldr	r1, [r7, #4]
 784 006c 0848     		ldr	r0, .L56
 785 006e FFF7FEFF 		bl	lv_ll_move_before
 786              	.L53:
 290:..\..\..\lvgl\version_6.1.2\lvgl\src\lv_misc/lv_task.c ****     }
 291:..\..\..\lvgl\version_6.1.2\lvgl\src\lv_misc/lv_task.c **** 
ARM GAS  C:\Users\tmj32\AppData\Local\Temp\ccBnQeBE.s 			page 20


 292:..\..\..\lvgl\version_6.1.2\lvgl\src\lv_misc/lv_task.c ****     task->prio = prio;
 787              		.loc 1 292 0
 788 0072 FB78     		ldrb	r3, [r7, #3]
 789 0074 03F00703 		and	r3, r3, #7
 790 0078 D9B2     		uxtb	r1, r3
 791 007a 7A68     		ldr	r2, [r7, #4]
 792 007c 137C     		ldrb	r3, [r2, #16]
 793 007e 61F30203 		bfi	r3, r1, #0, #3
 794 0082 1374     		strb	r3, [r2, #16]
 795 0084 00E0     		b	.L45
 796              	.L54:
 275:..\..\..\lvgl\version_6.1.2\lvgl\src\lv_misc/lv_task.c **** 
 797              		.loc 1 275 0
 798 0086 00BF     		nop
 799              	.L45:
 293:..\..\..\lvgl\version_6.1.2\lvgl\src\lv_misc/lv_task.c **** }
 800              		.loc 1 293 0
 801 0088 1037     		adds	r7, r7, #16
 802              		.cfi_def_cfa_offset 8
 803 008a BD46     		mov	sp, r7
 804              		.cfi_def_cfa_register 13
 805              		@ sp needed
 806 008c 80BD     		pop	{r7, pc}
 807              	.L57:
 808 008e 00BF     		.align	2
 809              	.L56:
 810 0090 00000000 		.word	_lv_task_ll
 811              		.cfi_endproc
 812              	.LFE37:
 813              		.size	lv_task_set_prio, .-lv_task_set_prio
 814              		.section	.text.lv_task_set_period,"ax",%progbits
 815              		.align	2
 816              		.global	lv_task_set_period
 817              		.thumb
 818              		.thumb_func
 819              		.type	lv_task_set_period, %function
 820              	lv_task_set_period:
 821              	.LFB38:
 294:..\..\..\lvgl\version_6.1.2\lvgl\src\lv_misc/lv_task.c **** 
 295:..\..\..\lvgl\version_6.1.2\lvgl\src\lv_misc/lv_task.c **** /**
 296:..\..\..\lvgl\version_6.1.2\lvgl\src\lv_misc/lv_task.c ****  * Set new period for a lv_task
 297:..\..\..\lvgl\version_6.1.2\lvgl\src\lv_misc/lv_task.c ****  * @param task pointer to a lv_task
 298:..\..\..\lvgl\version_6.1.2\lvgl\src\lv_misc/lv_task.c ****  * @param period the new period
 299:..\..\..\lvgl\version_6.1.2\lvgl\src\lv_misc/lv_task.c ****  */
 300:..\..\..\lvgl\version_6.1.2\lvgl\src\lv_misc/lv_task.c **** void lv_task_set_period(lv_task_t * task, uint32_t period)
 301:..\..\..\lvgl\version_6.1.2\lvgl\src\lv_misc/lv_task.c **** {
 822              		.loc 1 301 0
 823              		.cfi_startproc
 824              		@ args = 0, pretend = 0, frame = 8
 825              		@ frame_needed = 1, uses_anonymous_args = 0
 826              		@ link register save eliminated.
 827 0000 80B4     		push	{r7}
 828              		.cfi_def_cfa_offset 4
 829              		.cfi_offset 7, -4
 830 0002 83B0     		sub	sp, sp, #12
 831              		.cfi_def_cfa_offset 16
 832 0004 00AF     		add	r7, sp, #0
ARM GAS  C:\Users\tmj32\AppData\Local\Temp\ccBnQeBE.s 			page 21


 833              		.cfi_def_cfa_register 7
 834 0006 7860     		str	r0, [r7, #4]
 835 0008 3960     		str	r1, [r7]
 302:..\..\..\lvgl\version_6.1.2\lvgl\src\lv_misc/lv_task.c ****     task->period = period;
 836              		.loc 1 302 0
 837 000a 7B68     		ldr	r3, [r7, #4]
 838 000c 3A68     		ldr	r2, [r7]
 839 000e 1A60     		str	r2, [r3]
 303:..\..\..\lvgl\version_6.1.2\lvgl\src\lv_misc/lv_task.c **** }
 840              		.loc 1 303 0
 841 0010 00BF     		nop
 842 0012 0C37     		adds	r7, r7, #12
 843              		.cfi_def_cfa_offset 4
 844 0014 BD46     		mov	sp, r7
 845              		.cfi_def_cfa_register 13
 846              		@ sp needed
 847 0016 5DF8047B 		ldr	r7, [sp], #4
 848              		.cfi_restore 7
 849              		.cfi_def_cfa_offset 0
 850 001a 7047     		bx	lr
 851              		.cfi_endproc
 852              	.LFE38:
 853              		.size	lv_task_set_period, .-lv_task_set_period
 854              		.section	.text.lv_task_ready,"ax",%progbits
 855              		.align	2
 856              		.global	lv_task_ready
 857              		.thumb
 858              		.thumb_func
 859              		.type	lv_task_ready, %function
 860              	lv_task_ready:
 861              	.LFB39:
 304:..\..\..\lvgl\version_6.1.2\lvgl\src\lv_misc/lv_task.c **** 
 305:..\..\..\lvgl\version_6.1.2\lvgl\src\lv_misc/lv_task.c **** /**
 306:..\..\..\lvgl\version_6.1.2\lvgl\src\lv_misc/lv_task.c ****  * Make a lv_task ready. It will not wait its period.
 307:..\..\..\lvgl\version_6.1.2\lvgl\src\lv_misc/lv_task.c ****  * @param task pointer to a lv_task.
 308:..\..\..\lvgl\version_6.1.2\lvgl\src\lv_misc/lv_task.c ****  */
 309:..\..\..\lvgl\version_6.1.2\lvgl\src\lv_misc/lv_task.c **** void lv_task_ready(lv_task_t * task)
 310:..\..\..\lvgl\version_6.1.2\lvgl\src\lv_misc/lv_task.c **** {
 862              		.loc 1 310 0
 863              		.cfi_startproc
 864              		@ args = 0, pretend = 0, frame = 8
 865              		@ frame_needed = 1, uses_anonymous_args = 0
 866 0000 80B5     		push	{r7, lr}
 867              		.cfi_def_cfa_offset 8
 868              		.cfi_offset 7, -8
 869              		.cfi_offset 14, -4
 870 0002 82B0     		sub	sp, sp, #8
 871              		.cfi_def_cfa_offset 16
 872 0004 00AF     		add	r7, sp, #0
 873              		.cfi_def_cfa_register 7
 874 0006 7860     		str	r0, [r7, #4]
 311:..\..\..\lvgl\version_6.1.2\lvgl\src\lv_misc/lv_task.c ****     task->last_run = lv_tick_get() - task->period - 1;
 875              		.loc 1 311 0
 876 0008 FFF7FEFF 		bl	lv_tick_get
 877 000c 0246     		mov	r2, r0
 878 000e 7B68     		ldr	r3, [r7, #4]
 879 0010 1B68     		ldr	r3, [r3]
ARM GAS  C:\Users\tmj32\AppData\Local\Temp\ccBnQeBE.s 			page 22


 880 0012 D31A     		subs	r3, r2, r3
 881 0014 5A1E     		subs	r2, r3, #1
 882 0016 7B68     		ldr	r3, [r7, #4]
 883 0018 5A60     		str	r2, [r3, #4]
 312:..\..\..\lvgl\version_6.1.2\lvgl\src\lv_misc/lv_task.c **** }
 884              		.loc 1 312 0
 885 001a 00BF     		nop
 886 001c 0837     		adds	r7, r7, #8
 887              		.cfi_def_cfa_offset 8
 888 001e BD46     		mov	sp, r7
 889              		.cfi_def_cfa_register 13
 890              		@ sp needed
 891 0020 80BD     		pop	{r7, pc}
 892              		.cfi_endproc
 893              	.LFE39:
 894              		.size	lv_task_ready, .-lv_task_ready
 895 0022 00BF     		.section	.text.lv_task_once,"ax",%progbits
 896              		.align	2
 897              		.global	lv_task_once
 898              		.thumb
 899              		.thumb_func
 900              		.type	lv_task_once, %function
 901              	lv_task_once:
 902              	.LFB40:
 313:..\..\..\lvgl\version_6.1.2\lvgl\src\lv_misc/lv_task.c **** 
 314:..\..\..\lvgl\version_6.1.2\lvgl\src\lv_misc/lv_task.c **** /**
 315:..\..\..\lvgl\version_6.1.2\lvgl\src\lv_misc/lv_task.c ****  * Delete the lv_task after one call
 316:..\..\..\lvgl\version_6.1.2\lvgl\src\lv_misc/lv_task.c ****  * @param task pointer to a lv_task.
 317:..\..\..\lvgl\version_6.1.2\lvgl\src\lv_misc/lv_task.c ****  */
 318:..\..\..\lvgl\version_6.1.2\lvgl\src\lv_misc/lv_task.c **** void lv_task_once(lv_task_t * task)
 319:..\..\..\lvgl\version_6.1.2\lvgl\src\lv_misc/lv_task.c **** {
 903              		.loc 1 319 0
 904              		.cfi_startproc
 905              		@ args = 0, pretend = 0, frame = 8
 906              		@ frame_needed = 1, uses_anonymous_args = 0
 907              		@ link register save eliminated.
 908 0000 80B4     		push	{r7}
 909              		.cfi_def_cfa_offset 4
 910              		.cfi_offset 7, -4
 911 0002 83B0     		sub	sp, sp, #12
 912              		.cfi_def_cfa_offset 16
 913 0004 00AF     		add	r7, sp, #0
 914              		.cfi_def_cfa_register 7
 915 0006 7860     		str	r0, [r7, #4]
 320:..\..\..\lvgl\version_6.1.2\lvgl\src\lv_misc/lv_task.c ****     task->once = 1;
 916              		.loc 1 320 0
 917 0008 7A68     		ldr	r2, [r7, #4]
 918 000a 137C     		ldrb	r3, [r2, #16]
 919 000c 43F00803 		orr	r3, r3, #8
 920 0010 1374     		strb	r3, [r2, #16]
 321:..\..\..\lvgl\version_6.1.2\lvgl\src\lv_misc/lv_task.c **** }
 921              		.loc 1 321 0
 922 0012 00BF     		nop
 923 0014 0C37     		adds	r7, r7, #12
 924              		.cfi_def_cfa_offset 4
 925 0016 BD46     		mov	sp, r7
 926              		.cfi_def_cfa_register 13
ARM GAS  C:\Users\tmj32\AppData\Local\Temp\ccBnQeBE.s 			page 23


 927              		@ sp needed
 928 0018 5DF8047B 		ldr	r7, [sp], #4
 929              		.cfi_restore 7
 930              		.cfi_def_cfa_offset 0
 931 001c 7047     		bx	lr
 932              		.cfi_endproc
 933              	.LFE40:
 934              		.size	lv_task_once, .-lv_task_once
 935 001e 00BF     		.section	.text.lv_task_reset,"ax",%progbits
 936              		.align	2
 937              		.global	lv_task_reset
 938              		.thumb
 939              		.thumb_func
 940              		.type	lv_task_reset, %function
 941              	lv_task_reset:
 942              	.LFB41:
 322:..\..\..\lvgl\version_6.1.2\lvgl\src\lv_misc/lv_task.c **** 
 323:..\..\..\lvgl\version_6.1.2\lvgl\src\lv_misc/lv_task.c **** /**
 324:..\..\..\lvgl\version_6.1.2\lvgl\src\lv_misc/lv_task.c ****  * Reset a lv_task.
 325:..\..\..\lvgl\version_6.1.2\lvgl\src\lv_misc/lv_task.c ****  * It will be called the previously set period milliseconds later.
 326:..\..\..\lvgl\version_6.1.2\lvgl\src\lv_misc/lv_task.c ****  * @param task pointer to a lv_task.
 327:..\..\..\lvgl\version_6.1.2\lvgl\src\lv_misc/lv_task.c ****  */
 328:..\..\..\lvgl\version_6.1.2\lvgl\src\lv_misc/lv_task.c **** void lv_task_reset(lv_task_t * task)
 329:..\..\..\lvgl\version_6.1.2\lvgl\src\lv_misc/lv_task.c **** {
 943              		.loc 1 329 0
 944              		.cfi_startproc
 945              		@ args = 0, pretend = 0, frame = 8
 946              		@ frame_needed = 1, uses_anonymous_args = 0
 947 0000 80B5     		push	{r7, lr}
 948              		.cfi_def_cfa_offset 8
 949              		.cfi_offset 7, -8
 950              		.cfi_offset 14, -4
 951 0002 82B0     		sub	sp, sp, #8
 952              		.cfi_def_cfa_offset 16
 953 0004 00AF     		add	r7, sp, #0
 954              		.cfi_def_cfa_register 7
 955 0006 7860     		str	r0, [r7, #4]
 330:..\..\..\lvgl\version_6.1.2\lvgl\src\lv_misc/lv_task.c ****     task->last_run = lv_tick_get();
 956              		.loc 1 330 0
 957 0008 FFF7FEFF 		bl	lv_tick_get
 958 000c 0246     		mov	r2, r0
 959 000e 7B68     		ldr	r3, [r7, #4]
 960 0010 5A60     		str	r2, [r3, #4]
 331:..\..\..\lvgl\version_6.1.2\lvgl\src\lv_misc/lv_task.c **** }
 961              		.loc 1 331 0
 962 0012 00BF     		nop
 963 0014 0837     		adds	r7, r7, #8
 964              		.cfi_def_cfa_offset 8
 965 0016 BD46     		mov	sp, r7
 966              		.cfi_def_cfa_register 13
 967              		@ sp needed
 968 0018 80BD     		pop	{r7, pc}
 969              		.cfi_endproc
 970              	.LFE41:
 971              		.size	lv_task_reset, .-lv_task_reset
 972 001a 00BF     		.section	.text.lv_task_enable,"ax",%progbits
 973              		.align	2
ARM GAS  C:\Users\tmj32\AppData\Local\Temp\ccBnQeBE.s 			page 24


 974              		.global	lv_task_enable
 975              		.thumb
 976              		.thumb_func
 977              		.type	lv_task_enable, %function
 978              	lv_task_enable:
 979              	.LFB42:
 332:..\..\..\lvgl\version_6.1.2\lvgl\src\lv_misc/lv_task.c **** 
 333:..\..\..\lvgl\version_6.1.2\lvgl\src\lv_misc/lv_task.c **** /**
 334:..\..\..\lvgl\version_6.1.2\lvgl\src\lv_misc/lv_task.c ****  * Enable or disable the whole lv_task handling
 335:..\..\..\lvgl\version_6.1.2\lvgl\src\lv_misc/lv_task.c ****  * @param en: true: lv_task handling is running, false: lv_task handling is suspended
 336:..\..\..\lvgl\version_6.1.2\lvgl\src\lv_misc/lv_task.c ****  */
 337:..\..\..\lvgl\version_6.1.2\lvgl\src\lv_misc/lv_task.c **** void lv_task_enable(bool en)
 338:..\..\..\lvgl\version_6.1.2\lvgl\src\lv_misc/lv_task.c **** {
 980              		.loc 1 338 0
 981              		.cfi_startproc
 982              		@ args = 0, pretend = 0, frame = 8
 983              		@ frame_needed = 1, uses_anonymous_args = 0
 984              		@ link register save eliminated.
 985 0000 80B4     		push	{r7}
 986              		.cfi_def_cfa_offset 4
 987              		.cfi_offset 7, -4
 988 0002 83B0     		sub	sp, sp, #12
 989              		.cfi_def_cfa_offset 16
 990 0004 00AF     		add	r7, sp, #0
 991              		.cfi_def_cfa_register 7
 992 0006 0346     		mov	r3, r0
 993 0008 FB71     		strb	r3, [r7, #7]
 339:..\..\..\lvgl\version_6.1.2\lvgl\src\lv_misc/lv_task.c ****     lv_task_run = en;
 994              		.loc 1 339 0
 995 000a 044A     		ldr	r2, .L63
 996 000c FB79     		ldrb	r3, [r7, #7]
 997 000e 1370     		strb	r3, [r2]
 340:..\..\..\lvgl\version_6.1.2\lvgl\src\lv_misc/lv_task.c **** }
 998              		.loc 1 340 0
 999 0010 00BF     		nop
 1000 0012 0C37     		adds	r7, r7, #12
 1001              		.cfi_def_cfa_offset 4
 1002 0014 BD46     		mov	sp, r7
 1003              		.cfi_def_cfa_register 13
 1004              		@ sp needed
 1005 0016 5DF8047B 		ldr	r7, [sp], #4
 1006              		.cfi_restore 7
 1007              		.cfi_def_cfa_offset 0
 1008 001a 7047     		bx	lr
 1009              	.L64:
 1010              		.align	2
 1011              	.L63:
 1012 001c 00000000 		.word	lv_task_run
 1013              		.cfi_endproc
 1014              	.LFE42:
 1015              		.size	lv_task_enable, .-lv_task_enable
 1016              		.section	.text.lv_task_get_idle,"ax",%progbits
 1017              		.align	2
 1018              		.global	lv_task_get_idle
 1019              		.thumb
 1020              		.thumb_func
 1021              		.type	lv_task_get_idle, %function
ARM GAS  C:\Users\tmj32\AppData\Local\Temp\ccBnQeBE.s 			page 25


 1022              	lv_task_get_idle:
 1023              	.LFB43:
 341:..\..\..\lvgl\version_6.1.2\lvgl\src\lv_misc/lv_task.c **** 
 342:..\..\..\lvgl\version_6.1.2\lvgl\src\lv_misc/lv_task.c **** /**
 343:..\..\..\lvgl\version_6.1.2\lvgl\src\lv_misc/lv_task.c ****  * Get idle percentage
 344:..\..\..\lvgl\version_6.1.2\lvgl\src\lv_misc/lv_task.c ****  * @return the lv_task idle in percentage
 345:..\..\..\lvgl\version_6.1.2\lvgl\src\lv_misc/lv_task.c ****  */
 346:..\..\..\lvgl\version_6.1.2\lvgl\src\lv_misc/lv_task.c **** uint8_t lv_task_get_idle(void)
 347:..\..\..\lvgl\version_6.1.2\lvgl\src\lv_misc/lv_task.c **** {
 1024              		.loc 1 347 0
 1025              		.cfi_startproc
 1026              		@ args = 0, pretend = 0, frame = 0
 1027              		@ frame_needed = 1, uses_anonymous_args = 0
 1028              		@ link register save eliminated.
 1029 0000 80B4     		push	{r7}
 1030              		.cfi_def_cfa_offset 4
 1031              		.cfi_offset 7, -4
 1032 0002 00AF     		add	r7, sp, #0
 1033              		.cfi_def_cfa_register 7
 348:..\..\..\lvgl\version_6.1.2\lvgl\src\lv_misc/lv_task.c ****     return idle_last;
 1034              		.loc 1 348 0
 1035 0004 034B     		ldr	r3, .L67
 1036 0006 1B78     		ldrb	r3, [r3]	@ zero_extendqisi2
 349:..\..\..\lvgl\version_6.1.2\lvgl\src\lv_misc/lv_task.c **** }
 1037              		.loc 1 349 0
 1038 0008 1846     		mov	r0, r3
 1039 000a BD46     		mov	sp, r7
 1040              		.cfi_def_cfa_register 13
 1041              		@ sp needed
 1042 000c 5DF8047B 		ldr	r7, [sp], #4
 1043              		.cfi_restore 7
 1044              		.cfi_def_cfa_offset 0
 1045 0010 7047     		bx	lr
 1046              	.L68:
 1047 0012 00BF     		.align	2
 1048              	.L67:
 1049 0014 01000000 		.word	idle_last
 1050              		.cfi_endproc
 1051              	.LFE43:
 1052              		.size	lv_task_get_idle, .-lv_task_get_idle
 1053              		.section	.text.lv_task_exec,"ax",%progbits
 1054              		.align	2
 1055              		.thumb
 1056              		.thumb_func
 1057              		.type	lv_task_exec, %function
 1058              	lv_task_exec:
 1059              	.LFB44:
 350:..\..\..\lvgl\version_6.1.2\lvgl\src\lv_misc/lv_task.c **** 
 351:..\..\..\lvgl\version_6.1.2\lvgl\src\lv_misc/lv_task.c **** /**********************
 352:..\..\..\lvgl\version_6.1.2\lvgl\src\lv_misc/lv_task.c ****  *   STATIC FUNCTIONS
 353:..\..\..\lvgl\version_6.1.2\lvgl\src\lv_misc/lv_task.c ****  **********************/
 354:..\..\..\lvgl\version_6.1.2\lvgl\src\lv_misc/lv_task.c **** 
 355:..\..\..\lvgl\version_6.1.2\lvgl\src\lv_misc/lv_task.c **** /**
 356:..\..\..\lvgl\version_6.1.2\lvgl\src\lv_misc/lv_task.c ****  * Execute task if its the priority is appropriate
 357:..\..\..\lvgl\version_6.1.2\lvgl\src\lv_misc/lv_task.c ****  * @param task pointer to lv_task
 358:..\..\..\lvgl\version_6.1.2\lvgl\src\lv_misc/lv_task.c ****  * @return true: execute, false: not executed
 359:..\..\..\lvgl\version_6.1.2\lvgl\src\lv_misc/lv_task.c ****  */
ARM GAS  C:\Users\tmj32\AppData\Local\Temp\ccBnQeBE.s 			page 26


 360:..\..\..\lvgl\version_6.1.2\lvgl\src\lv_misc/lv_task.c **** static bool lv_task_exec(lv_task_t * task)
 361:..\..\..\lvgl\version_6.1.2\lvgl\src\lv_misc/lv_task.c **** {
 1060              		.loc 1 361 0
 1061              		.cfi_startproc
 1062              		@ args = 0, pretend = 0, frame = 16
 1063              		@ frame_needed = 1, uses_anonymous_args = 0
 1064 0000 80B5     		push	{r7, lr}
 1065              		.cfi_def_cfa_offset 8
 1066              		.cfi_offset 7, -8
 1067              		.cfi_offset 14, -4
 1068 0002 84B0     		sub	sp, sp, #16
 1069              		.cfi_def_cfa_offset 24
 1070 0004 00AF     		add	r7, sp, #0
 1071              		.cfi_def_cfa_register 7
 1072 0006 7860     		str	r0, [r7, #4]
 362:..\..\..\lvgl\version_6.1.2\lvgl\src\lv_misc/lv_task.c ****     bool exec = false;
 1073              		.loc 1 362 0
 1074 0008 0023     		movs	r3, #0
 1075 000a FB73     		strb	r3, [r7, #15]
 363:..\..\..\lvgl\version_6.1.2\lvgl\src\lv_misc/lv_task.c **** 
 364:..\..\..\lvgl\version_6.1.2\lvgl\src\lv_misc/lv_task.c ****     /*Execute if at least 'period' time elapsed*/
 365:..\..\..\lvgl\version_6.1.2\lvgl\src\lv_misc/lv_task.c ****     uint32_t elp = lv_tick_elaps(task->last_run);
 1076              		.loc 1 365 0
 1077 000c 7B68     		ldr	r3, [r7, #4]
 1078 000e 5B68     		ldr	r3, [r3, #4]
 1079 0010 1846     		mov	r0, r3
 1080 0012 FFF7FEFF 		bl	lv_tick_elaps
 1081 0016 B860     		str	r0, [r7, #8]
 366:..\..\..\lvgl\version_6.1.2\lvgl\src\lv_misc/lv_task.c ****     if(elp >= task->period) {
 1082              		.loc 1 366 0
 1083 0018 7B68     		ldr	r3, [r7, #4]
 1084 001a 1A68     		ldr	r2, [r3]
 1085 001c BB68     		ldr	r3, [r7, #8]
 1086 001e 9A42     		cmp	r2, r3
 1087 0020 25D8     		bhi	.L70
 367:..\..\..\lvgl\version_6.1.2\lvgl\src\lv_misc/lv_task.c ****         task->last_run = lv_tick_get();
 1088              		.loc 1 367 0
 1089 0022 FFF7FEFF 		bl	lv_tick_get
 1090 0026 0246     		mov	r2, r0
 1091 0028 7B68     		ldr	r3, [r7, #4]
 1092 002a 5A60     		str	r2, [r3, #4]
 368:..\..\..\lvgl\version_6.1.2\lvgl\src\lv_misc/lv_task.c ****         task_deleted   = false;
 1093              		.loc 1 368 0
 1094 002c 124B     		ldr	r3, .L74
 1095 002e 0022     		movs	r2, #0
 1096 0030 1A70     		strb	r2, [r3]
 369:..\..\..\lvgl\version_6.1.2\lvgl\src\lv_misc/lv_task.c ****         task_created   = false;
 1097              		.loc 1 369 0
 1098 0032 124B     		ldr	r3, .L74+4
 1099 0034 0022     		movs	r2, #0
 1100 0036 1A70     		strb	r2, [r3]
 370:..\..\..\lvgl\version_6.1.2\lvgl\src\lv_misc/lv_task.c ****         if(task->task_cb) task->task_cb(task);
 1101              		.loc 1 370 0
 1102 0038 7B68     		ldr	r3, [r7, #4]
 1103 003a 9B68     		ldr	r3, [r3, #8]
 1104 003c 002B     		cmp	r3, #0
 1105 003e 03D0     		beq	.L71
ARM GAS  C:\Users\tmj32\AppData\Local\Temp\ccBnQeBE.s 			page 27


 1106              		.loc 1 370 0 is_stmt 0 discriminator 1
 1107 0040 7B68     		ldr	r3, [r7, #4]
 1108 0042 9B68     		ldr	r3, [r3, #8]
 1109 0044 7868     		ldr	r0, [r7, #4]
 1110 0046 9847     		blx	r3
 1111              	.L71:
 371:..\..\..\lvgl\version_6.1.2\lvgl\src\lv_misc/lv_task.c **** 
 372:..\..\..\lvgl\version_6.1.2\lvgl\src\lv_misc/lv_task.c ****         /*Delete if it was a one shot lv_task*/
 373:..\..\..\lvgl\version_6.1.2\lvgl\src\lv_misc/lv_task.c ****         if(task_deleted == false) { /*The task might be deleted by itself as well*/
 1112              		.loc 1 373 0 is_stmt 1
 1113 0048 0B4B     		ldr	r3, .L74
 1114 004a 1B78     		ldrb	r3, [r3]	@ zero_extendqisi2
 1115 004c 83F00103 		eor	r3, r3, #1
 1116 0050 DBB2     		uxtb	r3, r3
 1117 0052 002B     		cmp	r3, #0
 1118 0054 09D0     		beq	.L72
 374:..\..\..\lvgl\version_6.1.2\lvgl\src\lv_misc/lv_task.c ****             if(task->once != 0) {
 1119              		.loc 1 374 0
 1120 0056 7B68     		ldr	r3, [r7, #4]
 1121 0058 1B7C     		ldrb	r3, [r3, #16]	@ zero_extendqisi2
 1122 005a 03F00803 		and	r3, r3, #8
 1123 005e DBB2     		uxtb	r3, r3
 1124 0060 002B     		cmp	r3, #0
 1125 0062 02D0     		beq	.L72
 375:..\..\..\lvgl\version_6.1.2\lvgl\src\lv_misc/lv_task.c ****                 lv_task_del(task);
 1126              		.loc 1 375 0
 1127 0064 7868     		ldr	r0, [r7, #4]
 1128 0066 FFF7FEFF 		bl	lv_task_del
 1129              	.L72:
 376:..\..\..\lvgl\version_6.1.2\lvgl\src\lv_misc/lv_task.c ****             }
 377:..\..\..\lvgl\version_6.1.2\lvgl\src\lv_misc/lv_task.c ****         }
 378:..\..\..\lvgl\version_6.1.2\lvgl\src\lv_misc/lv_task.c ****         exec = true;
 1130              		.loc 1 378 0
 1131 006a 0123     		movs	r3, #1
 1132 006c FB73     		strb	r3, [r7, #15]
 1133              	.L70:
 379:..\..\..\lvgl\version_6.1.2\lvgl\src\lv_misc/lv_task.c ****     }
 380:..\..\..\lvgl\version_6.1.2\lvgl\src\lv_misc/lv_task.c **** 
 381:..\..\..\lvgl\version_6.1.2\lvgl\src\lv_misc/lv_task.c ****     return exec;
 1134              		.loc 1 381 0
 1135 006e FB7B     		ldrb	r3, [r7, #15]	@ zero_extendqisi2
 382:..\..\..\lvgl\version_6.1.2\lvgl\src\lv_misc/lv_task.c **** }
 1136              		.loc 1 382 0
 1137 0070 1846     		mov	r0, r3
 1138 0072 1037     		adds	r7, r7, #16
 1139              		.cfi_def_cfa_offset 8
 1140 0074 BD46     		mov	sp, r7
 1141              		.cfi_def_cfa_register 13
 1142              		@ sp needed
 1143 0076 80BD     		pop	{r7, pc}
 1144              	.L75:
 1145              		.align	2
 1146              	.L74:
 1147 0078 02000000 		.word	task_deleted
 1148 007c 03000000 		.word	task_created
 1149              		.cfi_endproc
 1150              	.LFE44:
ARM GAS  C:\Users\tmj32\AppData\Local\Temp\ccBnQeBE.s 			page 28


 1151              		.size	lv_task_exec, .-lv_task_exec
 1152              		.bss
 1153              	already_running.5919:
 1154 0004 00       		.space	1
 1155 0005 000000   		.align	2
 1156              	handler_start.5921:
 1157 0008 00000000 		.space	4
 1158              		.align	2
 1159              	busy_time.5922:
 1160 000c 00000000 		.space	4
 1161              		.align	2
 1162              	idle_period_start.5920:
 1163 0010 00000000 		.space	4
 1164              		.text
 1165              	.Letext0:
 1166              		.file 2 "c:\\program files (x86)\\cypress\\psoc creator\\4.3\\psoc creator\\import\\gnu\\arm\\5.4.
 1167              		.file 3 "c:\\program files (x86)\\cypress\\psoc creator\\4.3\\psoc creator\\import\\gnu\\arm\\5.4.
 1168              		.file 4 "..\\..\\..\\lvgl\\version_6.1.2\\lvgl\\src\\lv_misc\\lv_ll.h"
 1169              		.file 5 "..\\..\\..\\lvgl\\version_6.1.2\\lvgl\\src\\lv_misc\\lv_task.h"
 1170              		.file 6 "..\\..\\..\\lvgl\\version_6.1.2\\lvgl\\src\\lv_misc\\lv_gc.h"